ARM GAS  C:\Users\OSD\AppData\Local\Temp\ccMlbHp6.s 			page 1


   1              		.cpu cortex-m7
   2              		.arch armv7e-m
   3              		.fpu fpv5-d16
   4              		.eabi_attribute 28, 1
   5              		.eabi_attribute 20, 1
   6              		.eabi_attribute 21, 1
   7              		.eabi_attribute 23, 3
   8              		.eabi_attribute 24, 1
   9              		.eabi_attribute 25, 1
  10              		.eabi_attribute 26, 1
  11              		.eabi_attribute 30, 1
  12              		.eabi_attribute 34, 1
  13              		.eabi_attribute 18, 4
  14              		.file	"dma2d.c"
  15              		.text
  16              	.Ltext0:
  17              		.cfi_sections	.debug_frame
  18              		.section	.text.MX_DMA2D_Init,"ax",%progbits
  19              		.align	1
  20              		.global	MX_DMA2D_Init
  21              		.syntax unified
  22              		.thumb
  23              		.thumb_func
  25              	MX_DMA2D_Init:
  26              	.LFB147:
  27              		.file 1 "Core/Src/dma2d.c"
   1:Core/Src/dma2d.c **** /* USER CODE BEGIN Header */
   2:Core/Src/dma2d.c **** /**
   3:Core/Src/dma2d.c ****   ******************************************************************************
   4:Core/Src/dma2d.c ****   * @file    dma2d.c
   5:Core/Src/dma2d.c ****   * @brief   This file provides code for the configuration
   6:Core/Src/dma2d.c ****   *          of the DMA2D instances.
   7:Core/Src/dma2d.c ****   ******************************************************************************
   8:Core/Src/dma2d.c ****   * @attention
   9:Core/Src/dma2d.c ****   *
  10:Core/Src/dma2d.c ****   * Copyright (c) 2024 STMicroelectronics.
  11:Core/Src/dma2d.c ****   * All rights reserved.
  12:Core/Src/dma2d.c ****   *
  13:Core/Src/dma2d.c ****   * This software is licensed under terms that can be found in the LICENSE file
  14:Core/Src/dma2d.c ****   * in the root directory of this software component.
  15:Core/Src/dma2d.c ****   * If no LICENSE file comes with this software, it is provided AS-IS.
  16:Core/Src/dma2d.c ****   *
  17:Core/Src/dma2d.c ****   ******************************************************************************
  18:Core/Src/dma2d.c ****   */
  19:Core/Src/dma2d.c **** /* USER CODE END Header */
  20:Core/Src/dma2d.c **** /* Includes ------------------------------------------------------------------*/
  21:Core/Src/dma2d.c **** #include "dma2d.h"
  22:Core/Src/dma2d.c **** 
  23:Core/Src/dma2d.c **** /* USER CODE BEGIN 0 */
  24:Core/Src/dma2d.c **** 
  25:Core/Src/dma2d.c **** /* USER CODE END 0 */
  26:Core/Src/dma2d.c **** 
  27:Core/Src/dma2d.c **** DMA2D_HandleTypeDef hdma2d;
  28:Core/Src/dma2d.c **** 
  29:Core/Src/dma2d.c **** /* DMA2D init function */
  30:Core/Src/dma2d.c **** void MX_DMA2D_Init(void)
  31:Core/Src/dma2d.c **** {
ARM GAS  C:\Users\OSD\AppData\Local\Temp\ccMlbHp6.s 			page 2


  28              		.loc 1 31 1 view -0
  29              		.cfi_startproc
  30              		@ args = 0, pretend = 0, frame = 0
  31              		@ frame_needed = 0, uses_anonymous_args = 0
  32 0000 08B5     		push	{r3, lr}
  33              		.cfi_def_cfa_offset 8
  34              		.cfi_offset 3, -8
  35              		.cfi_offset 14, -4
  32:Core/Src/dma2d.c **** 
  33:Core/Src/dma2d.c ****   /* USER CODE BEGIN DMA2D_Init 0 */
  34:Core/Src/dma2d.c **** 
  35:Core/Src/dma2d.c ****   /* USER CODE END DMA2D_Init 0 */
  36:Core/Src/dma2d.c **** 
  37:Core/Src/dma2d.c ****   /* USER CODE BEGIN DMA2D_Init 1 */
  38:Core/Src/dma2d.c **** 
  39:Core/Src/dma2d.c ****   /* USER CODE END DMA2D_Init 1 */
  40:Core/Src/dma2d.c ****   hdma2d.Instance = DMA2D;
  36              		.loc 1 40 3 view .LVU1
  37              		.loc 1 40 19 is_stmt 0 view .LVU2
  38 0002 0E48     		ldr	r0, .L7
  39 0004 0E4B     		ldr	r3, .L7+4
  40 0006 0360     		str	r3, [r0]
  41:Core/Src/dma2d.c ****   hdma2d.Init.Mode = DMA2D_M2M;
  41              		.loc 1 41 3 is_stmt 1 view .LVU3
  42              		.loc 1 41 20 is_stmt 0 view .LVU4
  43 0008 0023     		movs	r3, #0
  44 000a 4360     		str	r3, [r0, #4]
  42:Core/Src/dma2d.c ****   hdma2d.Init.ColorMode = DMA2D_OUTPUT_ARGB8888;
  45              		.loc 1 42 3 is_stmt 1 view .LVU5
  46              		.loc 1 42 25 is_stmt 0 view .LVU6
  47 000c 8360     		str	r3, [r0, #8]
  43:Core/Src/dma2d.c ****   hdma2d.Init.OutputOffset = 0;
  48              		.loc 1 43 3 is_stmt 1 view .LVU7
  49              		.loc 1 43 28 is_stmt 0 view .LVU8
  50 000e C360     		str	r3, [r0, #12]
  44:Core/Src/dma2d.c ****   hdma2d.LayerCfg[1].InputOffset = 0;
  51              		.loc 1 44 3 is_stmt 1 view .LVU9
  52              		.loc 1 44 34 is_stmt 0 view .LVU10
  53 0010 4364     		str	r3, [r0, #68]
  45:Core/Src/dma2d.c ****   hdma2d.LayerCfg[1].InputColorMode = DMA2D_INPUT_ARGB8888;
  54              		.loc 1 45 3 is_stmt 1 view .LVU11
  55              		.loc 1 45 37 is_stmt 0 view .LVU12
  56 0012 8364     		str	r3, [r0, #72]
  46:Core/Src/dma2d.c ****   hdma2d.LayerCfg[1].AlphaMode = DMA2D_NO_MODIF_ALPHA;
  57              		.loc 1 46 3 is_stmt 1 view .LVU13
  58              		.loc 1 46 32 is_stmt 0 view .LVU14
  59 0014 C364     		str	r3, [r0, #76]
  47:Core/Src/dma2d.c ****   hdma2d.LayerCfg[1].InputAlpha = 0;
  60              		.loc 1 47 3 is_stmt 1 view .LVU15
  61              		.loc 1 47 33 is_stmt 0 view .LVU16
  62 0016 0365     		str	r3, [r0, #80]
  48:Core/Src/dma2d.c ****   hdma2d.LayerCfg[1].AlphaInverted = DMA2D_REGULAR_ALPHA;
  63              		.loc 1 48 3 is_stmt 1 view .LVU17
  64              		.loc 1 48 36 is_stmt 0 view .LVU18
  65 0018 4365     		str	r3, [r0, #84]
  49:Core/Src/dma2d.c ****   hdma2d.LayerCfg[1].RedBlueSwap = DMA2D_RB_REGULAR;
  66              		.loc 1 49 3 is_stmt 1 view .LVU19
ARM GAS  C:\Users\OSD\AppData\Local\Temp\ccMlbHp6.s 			page 3


  67              		.loc 1 49 34 is_stmt 0 view .LVU20
  68 001a 8365     		str	r3, [r0, #88]
  50:Core/Src/dma2d.c ****   hdma2d.LayerCfg[1].ChromaSubSampling = DMA2D_NO_CSS;
  69              		.loc 1 50 3 is_stmt 1 view .LVU21
  70              		.loc 1 50 40 is_stmt 0 view .LVU22
  71 001c C365     		str	r3, [r0, #92]
  51:Core/Src/dma2d.c ****   if (HAL_DMA2D_Init(&hdma2d) != HAL_OK)
  72              		.loc 1 51 3 is_stmt 1 view .LVU23
  73              		.loc 1 51 7 is_stmt 0 view .LVU24
  74 001e FFF7FEFF 		bl	HAL_DMA2D_Init
  75              	.LVL0:
  76              		.loc 1 51 6 view .LVU25
  77 0022 28B9     		cbnz	r0, .L5
  78              	.L2:
  52:Core/Src/dma2d.c ****   {
  53:Core/Src/dma2d.c ****     Error_Handler();
  54:Core/Src/dma2d.c ****   }
  55:Core/Src/dma2d.c ****   if (HAL_DMA2D_ConfigLayer(&hdma2d, 1) != HAL_OK)
  79              		.loc 1 55 3 is_stmt 1 view .LVU26
  80              		.loc 1 55 7 is_stmt 0 view .LVU27
  81 0024 0121     		movs	r1, #1
  82 0026 0548     		ldr	r0, .L7
  83 0028 FFF7FEFF 		bl	HAL_DMA2D_ConfigLayer
  84              	.LVL1:
  85              		.loc 1 55 6 view .LVU28
  86 002c 18B9     		cbnz	r0, .L6
  87              	.L1:
  56:Core/Src/dma2d.c ****   {
  57:Core/Src/dma2d.c ****     Error_Handler();
  58:Core/Src/dma2d.c ****   }
  59:Core/Src/dma2d.c ****   /* USER CODE BEGIN DMA2D_Init 2 */
  60:Core/Src/dma2d.c **** 
  61:Core/Src/dma2d.c ****   /* USER CODE END DMA2D_Init 2 */
  62:Core/Src/dma2d.c **** 
  63:Core/Src/dma2d.c **** }
  88              		.loc 1 63 1 view .LVU29
  89 002e 08BD     		pop	{r3, pc}
  90              	.L5:
  53:Core/Src/dma2d.c ****   }
  91              		.loc 1 53 5 is_stmt 1 view .LVU30
  92 0030 FFF7FEFF 		bl	Error_Handler
  93              	.LVL2:
  94 0034 F6E7     		b	.L2
  95              	.L6:
  57:Core/Src/dma2d.c ****   }
  96              		.loc 1 57 5 view .LVU31
  97 0036 FFF7FEFF 		bl	Error_Handler
  98              	.LVL3:
  99              		.loc 1 63 1 is_stmt 0 view .LVU32
 100 003a F8E7     		b	.L1
 101              	.L8:
 102              		.align	2
 103              	.L7:
 104 003c 00000000 		.word	.LANCHOR0
 105 0040 00100052 		.word	1375735808
 106              		.cfi_endproc
 107              	.LFE147:
ARM GAS  C:\Users\OSD\AppData\Local\Temp\ccMlbHp6.s 			page 4


 109              		.section	.text.HAL_DMA2D_MspInit,"ax",%progbits
 110              		.align	1
 111              		.global	HAL_DMA2D_MspInit
 112              		.syntax unified
 113              		.thumb
 114              		.thumb_func
 116              	HAL_DMA2D_MspInit:
 117              	.LVL4:
 118              	.LFB148:
  64:Core/Src/dma2d.c **** 
  65:Core/Src/dma2d.c **** void HAL_DMA2D_MspInit(DMA2D_HandleTypeDef* dma2dHandle)
  66:Core/Src/dma2d.c **** {
 119              		.loc 1 66 1 is_stmt 1 view -0
 120              		.cfi_startproc
 121              		@ args = 0, pretend = 0, frame = 8
 122              		@ frame_needed = 0, uses_anonymous_args = 0
  67:Core/Src/dma2d.c **** 
  68:Core/Src/dma2d.c ****   if(dma2dHandle->Instance==DMA2D)
 123              		.loc 1 68 3 view .LVU34
 124              		.loc 1 68 17 is_stmt 0 view .LVU35
 125 0000 0268     		ldr	r2, [r0]
 126              		.loc 1 68 5 view .LVU36
 127 0002 0F4B     		ldr	r3, .L16
 128 0004 9A42     		cmp	r2, r3
 129 0006 00D0     		beq	.L15
 130 0008 7047     		bx	lr
 131              	.L15:
  66:Core/Src/dma2d.c **** 
 132              		.loc 1 66 1 view .LVU37
 133 000a 00B5     		push	{lr}
 134              		.cfi_def_cfa_offset 4
 135              		.cfi_offset 14, -4
 136 000c 83B0     		sub	sp, sp, #12
 137              		.cfi_def_cfa_offset 16
  69:Core/Src/dma2d.c ****   {
  70:Core/Src/dma2d.c ****   /* USER CODE BEGIN DMA2D_MspInit 0 */
  71:Core/Src/dma2d.c **** 
  72:Core/Src/dma2d.c ****   /* USER CODE END DMA2D_MspInit 0 */
  73:Core/Src/dma2d.c ****     /* DMA2D clock enable */
  74:Core/Src/dma2d.c ****     __HAL_RCC_DMA2D_CLK_ENABLE();
 138              		.loc 1 74 5 is_stmt 1 view .LVU38
 139              	.LBB2:
 140              		.loc 1 74 5 view .LVU39
 141              		.loc 1 74 5 view .LVU40
 142 000e 0D4B     		ldr	r3, .L16+4
 143 0010 D3F8D420 		ldr	r2, [r3, #212]
 144 0014 42F01002 		orr	r2, r2, #16
 145 0018 C3F8D420 		str	r2, [r3, #212]
 146              		.loc 1 74 5 view .LVU41
 147 001c D3F8D430 		ldr	r3, [r3, #212]
 148 0020 03F01003 		and	r3, r3, #16
 149 0024 0193     		str	r3, [sp, #4]
 150              		.loc 1 74 5 view .LVU42
 151 0026 019B     		ldr	r3, [sp, #4]
 152              	.LBE2:
 153              		.loc 1 74 5 view .LVU43
  75:Core/Src/dma2d.c **** 
ARM GAS  C:\Users\OSD\AppData\Local\Temp\ccMlbHp6.s 			page 5


  76:Core/Src/dma2d.c ****     /* DMA2D interrupt Init */
  77:Core/Src/dma2d.c ****     HAL_NVIC_SetPriority(DMA2D_IRQn, 0, 0);
 154              		.loc 1 77 5 view .LVU44
 155 0028 0022     		movs	r2, #0
 156 002a 1146     		mov	r1, r2
 157 002c 5A20     		movs	r0, #90
 158              	.LVL5:
 159              		.loc 1 77 5 is_stmt 0 view .LVU45
 160 002e FFF7FEFF 		bl	HAL_NVIC_SetPriority
 161              	.LVL6:
  78:Core/Src/dma2d.c ****     HAL_NVIC_EnableIRQ(DMA2D_IRQn);
 162              		.loc 1 78 5 is_stmt 1 view .LVU46
 163 0032 5A20     		movs	r0, #90
 164 0034 FFF7FEFF 		bl	HAL_NVIC_EnableIRQ
 165              	.LVL7:
  79:Core/Src/dma2d.c ****   /* USER CODE BEGIN DMA2D_MspInit 1 */
  80:Core/Src/dma2d.c **** 
  81:Core/Src/dma2d.c ****   /* USER CODE END DMA2D_MspInit 1 */
  82:Core/Src/dma2d.c ****   }
  83:Core/Src/dma2d.c **** }
 166              		.loc 1 83 1 is_stmt 0 view .LVU47
 167 0038 03B0     		add	sp, sp, #12
 168              		.cfi_def_cfa_offset 4
 169              		@ sp needed
 170 003a 5DF804FB 		ldr	pc, [sp], #4
 171              	.L17:
 172 003e 00BF     		.align	2
 173              	.L16:
 174 0040 00100052 		.word	1375735808
 175 0044 00440258 		.word	1476543488
 176              		.cfi_endproc
 177              	.LFE148:
 179              		.section	.text.HAL_DMA2D_MspDeInit,"ax",%progbits
 180              		.align	1
 181              		.global	HAL_DMA2D_MspDeInit
 182              		.syntax unified
 183              		.thumb
 184              		.thumb_func
 186              	HAL_DMA2D_MspDeInit:
 187              	.LVL8:
 188              	.LFB149:
  84:Core/Src/dma2d.c **** 
  85:Core/Src/dma2d.c **** void HAL_DMA2D_MspDeInit(DMA2D_HandleTypeDef* dma2dHandle)
  86:Core/Src/dma2d.c **** {
 189              		.loc 1 86 1 is_stmt 1 view -0
 190              		.cfi_startproc
 191              		@ args = 0, pretend = 0, frame = 0
 192              		@ frame_needed = 0, uses_anonymous_args = 0
 193              		.loc 1 86 1 is_stmt 0 view .LVU49
 194 0000 08B5     		push	{r3, lr}
 195              		.cfi_def_cfa_offset 8
 196              		.cfi_offset 3, -8
 197              		.cfi_offset 14, -4
  87:Core/Src/dma2d.c **** 
  88:Core/Src/dma2d.c ****   if(dma2dHandle->Instance==DMA2D)
 198              		.loc 1 88 3 is_stmt 1 view .LVU50
 199              		.loc 1 88 17 is_stmt 0 view .LVU51
ARM GAS  C:\Users\OSD\AppData\Local\Temp\ccMlbHp6.s 			page 6


 200 0002 0268     		ldr	r2, [r0]
 201              		.loc 1 88 5 view .LVU52
 202 0004 074B     		ldr	r3, .L22
 203 0006 9A42     		cmp	r2, r3
 204 0008 00D0     		beq	.L21
 205              	.LVL9:
 206              	.L18:
  89:Core/Src/dma2d.c ****   {
  90:Core/Src/dma2d.c ****   /* USER CODE BEGIN DMA2D_MspDeInit 0 */
  91:Core/Src/dma2d.c **** 
  92:Core/Src/dma2d.c ****   /* USER CODE END DMA2D_MspDeInit 0 */
  93:Core/Src/dma2d.c ****     /* Peripheral clock disable */
  94:Core/Src/dma2d.c ****     __HAL_RCC_DMA2D_CLK_DISABLE();
  95:Core/Src/dma2d.c **** 
  96:Core/Src/dma2d.c ****     /* DMA2D interrupt Deinit */
  97:Core/Src/dma2d.c ****     HAL_NVIC_DisableIRQ(DMA2D_IRQn);
  98:Core/Src/dma2d.c ****   /* USER CODE BEGIN DMA2D_MspDeInit 1 */
  99:Core/Src/dma2d.c **** 
 100:Core/Src/dma2d.c ****   /* USER CODE END DMA2D_MspDeInit 1 */
 101:Core/Src/dma2d.c ****   }
 102:Core/Src/dma2d.c **** }
 207              		.loc 1 102 1 view .LVU53
 208 000a 08BD     		pop	{r3, pc}
 209              	.LVL10:
 210              	.L21:
  94:Core/Src/dma2d.c **** 
 211              		.loc 1 94 5 is_stmt 1 view .LVU54
 212 000c 064A     		ldr	r2, .L22+4
 213 000e D2F8D430 		ldr	r3, [r2, #212]
 214 0012 23F01003 		bic	r3, r3, #16
 215 0016 C2F8D430 		str	r3, [r2, #212]
  97:Core/Src/dma2d.c ****   /* USER CODE BEGIN DMA2D_MspDeInit 1 */
 216              		.loc 1 97 5 view .LVU55
 217 001a 5A20     		movs	r0, #90
 218              	.LVL11:
  97:Core/Src/dma2d.c ****   /* USER CODE BEGIN DMA2D_MspDeInit 1 */
 219              		.loc 1 97 5 is_stmt 0 view .LVU56
 220 001c FFF7FEFF 		bl	HAL_NVIC_DisableIRQ
 221              	.LVL12:
 222              		.loc 1 102 1 view .LVU57
 223 0020 F3E7     		b	.L18
 224              	.L23:
 225 0022 00BF     		.align	2
 226              	.L22:
 227 0024 00100052 		.word	1375735808
 228 0028 00440258 		.word	1476543488
 229              		.cfi_endproc
 230              	.LFE149:
 232              		.global	hdma2d
 233              		.section	.bss.hdma2d,"aw",%nobits
 234              		.align	2
 235              		.set	.LANCHOR0,. + 0
 238              	hdma2d:
 239 0000 00000000 		.space	104
 239      00000000 
 239      00000000 
 239      00000000 
ARM GAS  C:\Users\OSD\AppData\Local\Temp\ccMlbHp6.s 			page 7


 239      00000000 
 240              		.text
 241              	.Letext0:
 242              		.file 2 "c:\\tools\\gcc-arm-none-eabi\\arm-none-eabi\\include\\machine\\_default_types.h"
 243              		.file 3 "c:\\tools\\gcc-arm-none-eabi\\arm-none-eabi\\include\\sys\\_stdint.h"
 244              		.file 4 "Drivers/CMSIS/Device/ST/STM32H7xx/Include/stm32h743xx.h"
 245              		.file 5 "Drivers/STM32H7xx_HAL_Driver/Inc/stm32h7xx_hal_def.h"
 246              		.file 6 "Drivers/STM32H7xx_HAL_Driver/Inc/stm32h7xx_hal_dma2d.h"
 247              		.file 7 "Drivers/STM32H7xx_HAL_Driver/Inc/stm32h7xx_hal_cortex.h"
 248              		.file 8 "Core/Inc/main.h"
 249              		.file 9 "Core/Inc/dma2d.h"
ARM GAS  C:\Users\OSD\AppData\Local\Temp\ccMlbHp6.s 			page 8

