ARM GAS  C:\Users\OSD\AppData\Local\Temp\ccllr4wW.s 			page 1


   1              		.cpu cortex-m7
   2              		.arch armv7e-m
   3              		.fpu fpv5-d16
   4              		.eabi_attribute 28, 1
   5              		.eabi_attribute 20, 1
   6              		.eabi_attribute 21, 1
   7              		.eabi_attribute 23, 3
   8              		.eabi_attribute 24, 1
   9              		.eabi_attribute 25, 1
  10              		.eabi_attribute 26, 1
  11              		.eabi_attribute 30, 1
  12              		.eabi_attribute 34, 1
  13              		.eabi_attribute 18, 4
  14              		.file	"gpio.c"
  15              		.text
  16              	.Ltext0:
  17              		.cfi_sections	.debug_frame
  18              		.section	.text.MX_GPIO_Init,"ax",%progbits
  19              		.align	1
  20              		.global	MX_GPIO_Init
  21              		.syntax unified
  22              		.thumb
  23              		.thumb_func
  25              	MX_GPIO_Init:
  26              	.LFB147:
  27              		.file 1 "Core/Src/gpio.c"
   1:Core/Src/gpio.c **** /* USER CODE BEGIN Header */
   2:Core/Src/gpio.c **** /**
   3:Core/Src/gpio.c ****   ******************************************************************************
   4:Core/Src/gpio.c ****   * @file    gpio.c
   5:Core/Src/gpio.c ****   * @brief   This file provides code for the configuration
   6:Core/Src/gpio.c ****   *          of all used GPIO pins.
   7:Core/Src/gpio.c ****   ******************************************************************************
   8:Core/Src/gpio.c ****   * @attention
   9:Core/Src/gpio.c ****   *
  10:Core/Src/gpio.c ****   * Copyright (c) 2024 STMicroelectronics.
  11:Core/Src/gpio.c ****   * All rights reserved.
  12:Core/Src/gpio.c ****   *
  13:Core/Src/gpio.c ****   * This software is licensed under terms that can be found in the LICENSE file
  14:Core/Src/gpio.c ****   * in the root directory of this software component.
  15:Core/Src/gpio.c ****   * If no LICENSE file comes with this software, it is provided AS-IS.
  16:Core/Src/gpio.c ****   *
  17:Core/Src/gpio.c ****   ******************************************************************************
  18:Core/Src/gpio.c ****   */
  19:Core/Src/gpio.c **** /* USER CODE END Header */
  20:Core/Src/gpio.c **** 
  21:Core/Src/gpio.c **** /* Includes ------------------------------------------------------------------*/
  22:Core/Src/gpio.c **** #include "gpio.h"
  23:Core/Src/gpio.c **** 
  24:Core/Src/gpio.c **** /* USER CODE BEGIN 0 */
  25:Core/Src/gpio.c **** 
  26:Core/Src/gpio.c **** /* USER CODE END 0 */
  27:Core/Src/gpio.c **** 
  28:Core/Src/gpio.c **** /*----------------------------------------------------------------------------*/
  29:Core/Src/gpio.c **** /* Configure GPIO                                                             */
  30:Core/Src/gpio.c **** /*----------------------------------------------------------------------------*/
  31:Core/Src/gpio.c **** /* USER CODE BEGIN 1 */
ARM GAS  C:\Users\OSD\AppData\Local\Temp\ccllr4wW.s 			page 2


  32:Core/Src/gpio.c **** 
  33:Core/Src/gpio.c **** /* USER CODE END 1 */
  34:Core/Src/gpio.c **** 
  35:Core/Src/gpio.c **** /** Configure pins
  36:Core/Src/gpio.c ****      PH0-OSC_IN (PH0)   ------> RCC_OSC_IN
  37:Core/Src/gpio.c ****      PH1-OSC_OUT (PH1)   ------> RCC_OSC_OUT
  38:Core/Src/gpio.c **** */
  39:Core/Src/gpio.c **** void MX_GPIO_Init(void)
  40:Core/Src/gpio.c **** {
  28              		.loc 1 40 1 view -0
  29              		.cfi_startproc
  30              		@ args = 0, pretend = 0, frame = 32
  31              		@ frame_needed = 0, uses_anonymous_args = 0
  32 0000 2DE9F047 		push	{r4, r5, r6, r7, r8, r9, r10, lr}
  33              		.cfi_def_cfa_offset 32
  34              		.cfi_offset 4, -32
  35              		.cfi_offset 5, -28
  36              		.cfi_offset 6, -24
  37              		.cfi_offset 7, -20
  38              		.cfi_offset 8, -16
  39              		.cfi_offset 9, -12
  40              		.cfi_offset 10, -8
  41              		.cfi_offset 14, -4
  42 0004 88B0     		sub	sp, sp, #32
  43              		.cfi_def_cfa_offset 64
  41:Core/Src/gpio.c **** 
  42:Core/Src/gpio.c ****   GPIO_InitTypeDef GPIO_InitStruct = {0};
  44              		.loc 1 42 3 view .LVU1
  45              		.loc 1 42 20 is_stmt 0 view .LVU2
  46 0006 0024     		movs	r4, #0
  47 0008 0394     		str	r4, [sp, #12]
  48 000a 0494     		str	r4, [sp, #16]
  49 000c 0594     		str	r4, [sp, #20]
  50 000e 0694     		str	r4, [sp, #24]
  51 0010 0794     		str	r4, [sp, #28]
  43:Core/Src/gpio.c **** 
  44:Core/Src/gpio.c ****   /* GPIO Ports Clock Enable */
  45:Core/Src/gpio.c ****   __HAL_RCC_GPIOH_CLK_ENABLE();
  52              		.loc 1 45 3 is_stmt 1 view .LVU3
  53              	.LBB2:
  54              		.loc 1 45 3 view .LVU4
  55              		.loc 1 45 3 view .LVU5
  56 0012 374B     		ldr	r3, .L3
  57 0014 D3F8E020 		ldr	r2, [r3, #224]
  58 0018 42F08002 		orr	r2, r2, #128
  59 001c C3F8E020 		str	r2, [r3, #224]
  60              		.loc 1 45 3 view .LVU6
  61 0020 D3F8E020 		ldr	r2, [r3, #224]
  62 0024 02F08002 		and	r2, r2, #128
  63 0028 0092     		str	r2, [sp]
  64              		.loc 1 45 3 view .LVU7
  65 002a 009A     		ldr	r2, [sp]
  66              	.LBE2:
  67              		.loc 1 45 3 view .LVU8
  46:Core/Src/gpio.c ****   __HAL_RCC_GPIOA_CLK_ENABLE();
  68              		.loc 1 46 3 view .LVU9
  69              	.LBB3:
ARM GAS  C:\Users\OSD\AppData\Local\Temp\ccllr4wW.s 			page 3


  70              		.loc 1 46 3 view .LVU10
  71              		.loc 1 46 3 view .LVU11
  72 002c D3F8E020 		ldr	r2, [r3, #224]
  73 0030 42F00102 		orr	r2, r2, #1
  74 0034 C3F8E020 		str	r2, [r3, #224]
  75              		.loc 1 46 3 view .LVU12
  76 0038 D3F8E020 		ldr	r2, [r3, #224]
  77 003c 02F00102 		and	r2, r2, #1
  78 0040 0192     		str	r2, [sp, #4]
  79              		.loc 1 46 3 view .LVU13
  80 0042 019A     		ldr	r2, [sp, #4]
  81              	.LBE3:
  82              		.loc 1 46 3 view .LVU14
  47:Core/Src/gpio.c ****   __HAL_RCC_GPIOG_CLK_ENABLE();
  83              		.loc 1 47 3 view .LVU15
  84              	.LBB4:
  85              		.loc 1 47 3 view .LVU16
  86              		.loc 1 47 3 view .LVU17
  87 0044 D3F8E020 		ldr	r2, [r3, #224]
  88 0048 42F04002 		orr	r2, r2, #64
  89 004c C3F8E020 		str	r2, [r3, #224]
  90              		.loc 1 47 3 view .LVU18
  91 0050 D3F8E030 		ldr	r3, [r3, #224]
  92 0054 03F04003 		and	r3, r3, #64
  93 0058 0293     		str	r3, [sp, #8]
  94              		.loc 1 47 3 view .LVU19
  95 005a 029B     		ldr	r3, [sp, #8]
  96              	.LBE4:
  97              		.loc 1 47 3 view .LVU20
  48:Core/Src/gpio.c **** 
  49:Core/Src/gpio.c ****   /*Configure GPIO pin Output Level */
  50:Core/Src/gpio.c ****   HAL_GPIO_WritePin(GPIOA, SPI1_RST_Pin|CSB_Pin|SCLB_Pin|SDI_Pin, GPIO_PIN_RESET);
  98              		.loc 1 50 3 view .LVU21
  99 005c 254E     		ldr	r6, .L3+4
 100 005e 2246     		mov	r2, r4
 101 0060 B121     		movs	r1, #177
 102 0062 3046     		mov	r0, r6
 103 0064 FFF7FEFF 		bl	HAL_GPIO_WritePin
 104              	.LVL0:
  51:Core/Src/gpio.c **** 
  52:Core/Src/gpio.c ****   /*Configure GPIO pin Output Level */
  53:Core/Src/gpio.c ****   HAL_GPIO_WritePin(LCD_BL_GPIO_Port, LCD_BL_Pin, GPIO_PIN_RESET);
 105              		.loc 1 53 3 view .LVU22
 106 0068 DFF89090 		ldr	r9, .L3+12
 107 006c 2246     		mov	r2, r4
 108 006e 4021     		movs	r1, #64
 109 0070 4846     		mov	r0, r9
 110 0072 FFF7FEFF 		bl	HAL_GPIO_WritePin
 111              	.LVL1:
  54:Core/Src/gpio.c **** 
  55:Core/Src/gpio.c ****   /*Configure GPIO pin Output Level */
  56:Core/Src/gpio.c ****   HAL_GPIO_WritePin(LCD_PCLK_GPIO_Port, LCD_PCLK_Pin, GPIO_PIN_RESET);
 112              		.loc 1 56 3 view .LVU23
 113 0076 204F     		ldr	r7, .L3+8
 114 0078 2246     		mov	r2, r4
 115 007a 8021     		movs	r1, #128
 116 007c 3846     		mov	r0, r7
ARM GAS  C:\Users\OSD\AppData\Local\Temp\ccllr4wW.s 			page 4


 117 007e FFF7FEFF 		bl	HAL_GPIO_WritePin
 118              	.LVL2:
  57:Core/Src/gpio.c **** 
  58:Core/Src/gpio.c ****   /*Configure GPIO pins : PAPin PAPin PAPin */
  59:Core/Src/gpio.c ****   GPIO_InitStruct.Pin = SPI1_RST_Pin|CSB_Pin|SCLB_Pin;
 119              		.loc 1 59 3 view .LVU24
 120              		.loc 1 59 23 is_stmt 0 view .LVU25
 121 0082 3123     		movs	r3, #49
 122 0084 0393     		str	r3, [sp, #12]
  60:Core/Src/gpio.c ****   GPIO_InitStruct.Mode = GPIO_MODE_OUTPUT_PP;
 123              		.loc 1 60 3 is_stmt 1 view .LVU26
 124              		.loc 1 60 24 is_stmt 0 view .LVU27
 125 0086 0125     		movs	r5, #1
 126 0088 0495     		str	r5, [sp, #16]
  61:Core/Src/gpio.c ****   GPIO_InitStruct.Pull = GPIO_NOPULL;
 127              		.loc 1 61 3 is_stmt 1 view .LVU28
 128              		.loc 1 61 24 is_stmt 0 view .LVU29
 129 008a 0594     		str	r4, [sp, #20]
  62:Core/Src/gpio.c ****   GPIO_InitStruct.Speed = GPIO_SPEED_FREQ_HIGH;
 130              		.loc 1 62 3 is_stmt 1 view .LVU30
 131              		.loc 1 62 25 is_stmt 0 view .LVU31
 132 008c 0223     		movs	r3, #2
 133 008e 0693     		str	r3, [sp, #24]
  63:Core/Src/gpio.c ****   HAL_GPIO_Init(GPIOA, &GPIO_InitStruct);
 134              		.loc 1 63 3 is_stmt 1 view .LVU32
 135 0090 03A9     		add	r1, sp, #12
 136 0092 3046     		mov	r0, r6
 137 0094 FFF7FEFF 		bl	HAL_GPIO_Init
 138              	.LVL3:
  64:Core/Src/gpio.c **** 
  65:Core/Src/gpio.c ****   /*Configure GPIO pin : PtPin */
  66:Core/Src/gpio.c ****   GPIO_InitStruct.Pin = SDO_Pin;
 139              		.loc 1 66 3 view .LVU33
 140              		.loc 1 66 23 is_stmt 0 view .LVU34
 141 0098 4FF0400A 		mov	r10, #64
 142 009c CDF80CA0 		str	r10, [sp, #12]
  67:Core/Src/gpio.c ****   GPIO_InitStruct.Mode = GPIO_MODE_INPUT;
 143              		.loc 1 67 3 is_stmt 1 view .LVU35
 144              		.loc 1 67 24 is_stmt 0 view .LVU36
 145 00a0 0494     		str	r4, [sp, #16]
  68:Core/Src/gpio.c ****   GPIO_InitStruct.Pull = GPIO_NOPULL;
 146              		.loc 1 68 3 is_stmt 1 view .LVU37
 147              		.loc 1 68 24 is_stmt 0 view .LVU38
 148 00a2 0594     		str	r4, [sp, #20]
  69:Core/Src/gpio.c ****   HAL_GPIO_Init(SDO_GPIO_Port, &GPIO_InitStruct);
 149              		.loc 1 69 3 is_stmt 1 view .LVU39
 150 00a4 03A9     		add	r1, sp, #12
 151 00a6 3046     		mov	r0, r6
 152 00a8 FFF7FEFF 		bl	HAL_GPIO_Init
 153              	.LVL4:
  70:Core/Src/gpio.c **** 
  71:Core/Src/gpio.c ****   /*Configure GPIO pin : PtPin */
  72:Core/Src/gpio.c ****   GPIO_InitStruct.Pin = SDI_Pin;
 154              		.loc 1 72 3 view .LVU40
 155              		.loc 1 72 23 is_stmt 0 view .LVU41
 156 00ac 4FF08008 		mov	r8, #128
 157 00b0 CDF80C80 		str	r8, [sp, #12]
ARM GAS  C:\Users\OSD\AppData\Local\Temp\ccllr4wW.s 			page 5


  73:Core/Src/gpio.c ****   GPIO_InitStruct.Mode = GPIO_MODE_OUTPUT_PP;
 158              		.loc 1 73 3 is_stmt 1 view .LVU42
 159              		.loc 1 73 24 is_stmt 0 view .LVU43
 160 00b4 0495     		str	r5, [sp, #16]
  74:Core/Src/gpio.c ****   GPIO_InitStruct.Pull = GPIO_NOPULL;
 161              		.loc 1 74 3 is_stmt 1 view .LVU44
 162              		.loc 1 74 24 is_stmt 0 view .LVU45
 163 00b6 0594     		str	r4, [sp, #20]
  75:Core/Src/gpio.c ****   GPIO_InitStruct.Speed = GPIO_SPEED_FREQ_LOW;
 164              		.loc 1 75 3 is_stmt 1 view .LVU46
 165              		.loc 1 75 25 is_stmt 0 view .LVU47
 166 00b8 0694     		str	r4, [sp, #24]
  76:Core/Src/gpio.c ****   HAL_GPIO_Init(SDI_GPIO_Port, &GPIO_InitStruct);
 167              		.loc 1 76 3 is_stmt 1 view .LVU48
 168 00ba 03A9     		add	r1, sp, #12
 169 00bc 3046     		mov	r0, r6
 170 00be FFF7FEFF 		bl	HAL_GPIO_Init
 171              	.LVL5:
  77:Core/Src/gpio.c **** 
  78:Core/Src/gpio.c ****   /*Configure GPIO pin : PtPin */
  79:Core/Src/gpio.c ****   GPIO_InitStruct.Pin = LCD_BL_Pin;
 172              		.loc 1 79 3 view .LVU49
 173              		.loc 1 79 23 is_stmt 0 view .LVU50
 174 00c2 CDF80CA0 		str	r10, [sp, #12]
  80:Core/Src/gpio.c ****   GPIO_InitStruct.Mode = GPIO_MODE_OUTPUT_PP;
 175              		.loc 1 80 3 is_stmt 1 view .LVU51
 176              		.loc 1 80 24 is_stmt 0 view .LVU52
 177 00c6 0495     		str	r5, [sp, #16]
  81:Core/Src/gpio.c ****   GPIO_InitStruct.Pull = GPIO_NOPULL;
 178              		.loc 1 81 3 is_stmt 1 view .LVU53
 179              		.loc 1 81 24 is_stmt 0 view .LVU54
 180 00c8 0594     		str	r4, [sp, #20]
  82:Core/Src/gpio.c ****   GPIO_InitStruct.Speed = GPIO_SPEED_FREQ_LOW;
 181              		.loc 1 82 3 is_stmt 1 view .LVU55
 182              		.loc 1 82 25 is_stmt 0 view .LVU56
 183 00ca 0694     		str	r4, [sp, #24]
  83:Core/Src/gpio.c ****   HAL_GPIO_Init(LCD_BL_GPIO_Port, &GPIO_InitStruct);
 184              		.loc 1 83 3 is_stmt 1 view .LVU57
 185 00cc 03A9     		add	r1, sp, #12
 186 00ce 4846     		mov	r0, r9
 187 00d0 FFF7FEFF 		bl	HAL_GPIO_Init
 188              	.LVL6:
  84:Core/Src/gpio.c **** 
  85:Core/Src/gpio.c ****   /*Configure GPIO pin : PtPin */
  86:Core/Src/gpio.c ****   GPIO_InitStruct.Pin = LCD_PCLK_Pin;
 189              		.loc 1 86 3 view .LVU58
 190              		.loc 1 86 23 is_stmt 0 view .LVU59
 191 00d4 CDF80C80 		str	r8, [sp, #12]
  87:Core/Src/gpio.c ****   GPIO_InitStruct.Mode = GPIO_MODE_OUTPUT_PP;
 192              		.loc 1 87 3 is_stmt 1 view .LVU60
 193              		.loc 1 87 24 is_stmt 0 view .LVU61
 194 00d8 0495     		str	r5, [sp, #16]
  88:Core/Src/gpio.c ****   GPIO_InitStruct.Pull = GPIO_NOPULL;
 195              		.loc 1 88 3 is_stmt 1 view .LVU62
 196              		.loc 1 88 24 is_stmt 0 view .LVU63
 197 00da 0594     		str	r4, [sp, #20]
  89:Core/Src/gpio.c ****   GPIO_InitStruct.Speed = GPIO_SPEED_FREQ_VERY_HIGH;
ARM GAS  C:\Users\OSD\AppData\Local\Temp\ccllr4wW.s 			page 6


 198              		.loc 1 89 3 is_stmt 1 view .LVU64
 199              		.loc 1 89 25 is_stmt 0 view .LVU65
 200 00dc 0323     		movs	r3, #3
 201 00de 0693     		str	r3, [sp, #24]
  90:Core/Src/gpio.c ****   HAL_GPIO_Init(LCD_PCLK_GPIO_Port, &GPIO_InitStruct);
 202              		.loc 1 90 3 is_stmt 1 view .LVU66
 203 00e0 03A9     		add	r1, sp, #12
 204 00e2 3846     		mov	r0, r7
 205 00e4 FFF7FEFF 		bl	HAL_GPIO_Init
 206              	.LVL7:
  91:Core/Src/gpio.c **** 
  92:Core/Src/gpio.c **** }
 207              		.loc 1 92 1 is_stmt 0 view .LVU67
 208 00e8 08B0     		add	sp, sp, #32
 209              		.cfi_def_cfa_offset 32
 210              		@ sp needed
 211 00ea BDE8F087 		pop	{r4, r5, r6, r7, r8, r9, r10, pc}
 212              	.L4:
 213 00ee 00BF     		.align	2
 214              	.L3:
 215 00f0 00440258 		.word	1476543488
 216 00f4 00000258 		.word	1476526080
 217 00f8 00180258 		.word	1476532224
 218 00fc 001C0258 		.word	1476533248
 219              		.cfi_endproc
 220              	.LFE147:
 222              		.text
 223              	.Letext0:
 224              		.file 2 "c:\\tools\\gcc-arm-none-eabi\\arm-none-eabi\\include\\machine\\_default_types.h"
 225              		.file 3 "c:\\tools\\gcc-arm-none-eabi\\arm-none-eabi\\include\\sys\\_stdint.h"
 226              		.file 4 "Drivers/CMSIS/Device/ST/STM32H7xx/Include/stm32h743xx.h"
 227              		.file 5 "Drivers/STM32H7xx_HAL_Driver/Inc/stm32h7xx_hal_gpio.h"
ARM GAS  C:\Users\OSD\AppData\Local\Temp\ccllr4wW.s 			page 7

