ARM GAS  C:\Users\OSD\AppData\Local\Temp\cc2NoGol.s 			page 1


   1              		.cpu cortex-m7
   2              		.arch armv7e-m
   3              		.fpu fpv5-d16
   4              		.eabi_attribute 28, 1
   5              		.eabi_attribute 20, 1
   6              		.eabi_attribute 21, 1
   7              		.eabi_attribute 23, 3
   8              		.eabi_attribute 24, 1
   9              		.eabi_attribute 25, 1
  10              		.eabi_attribute 26, 1
  11              		.eabi_attribute 30, 1
  12              		.eabi_attribute 34, 1
  13              		.eabi_attribute 18, 4
  14              		.file	"lcd_test.c"
  15              		.text
  16              	.Ltext0:
  17              		.cfi_sections	.debug_frame
  18              		.section	.rodata.LCD_Test_DoubleLayer.str1.4,"aMS",%progbits,1
  19              		.align	2
  20              	.LC0:
  21 0000 E58F8CE5 		.ascii	"\345\217\214\345\261\202\346\265\213\350\257\225\000"
  21      B182E6B5 
  21      8BE8AF95 
  21      00
  22 000d 000000   		.align	2
  23              	.LC1:
  24 0010 53544D33 		.ascii	"STM32H743 LTDC \350\203\214\346\231\257\345\261\202"
  24      32483734 
  24      33204C54 
  24      444320E8 
  24      838CE699 
  25 0028 EFBC8C6C 		.ascii	"\357\274\214layer0\000"
  25      61796572 
  25      3000
  26 0032 0000     		.align	2
  27              	.LC2:
  28 0034 E5898DE6 		.ascii	"\345\211\215\346\231\257\345\261\202\357\274\214lay"
  28      99AFE5B1 
  28      82EFBC8C 
  28      6C6179
  29 0043 65723100 		.ascii	"er1\000"
  30 0047 00       		.align	2
  31              	.LC3:
  32 0048 53544D33 		.ascii	"STM32H743IIT6 LTDC, ARGB8888\357\274\214layer1\000"
  32      32483734 
  32      33494954 
  32      36204C54 
  32      44432C20 
  33              		.section	.text.LCD_Test_DoubleLayer,"ax",%progbits
  34              		.align	1
  35              		.global	LCD_Test_DoubleLayer
  36              		.syntax unified
  37              		.thumb
  38              		.thumb_func
  40              	LCD_Test_DoubleLayer:
  41              	.LFB147:
  42              		.file 1 "Core/Src/lcd_test.c"
ARM GAS  C:\Users\OSD\AppData\Local\Temp\cc2NoGol.s 			page 2


   1:Core/Src/lcd_test.c **** /***
   2:Core/Src/lcd_test.c **** 	**************************************************************************************************
   3:Core/Src/lcd_test.c **** 	*	@file  	lcd_test.c
   4:Core/Src/lcd_test.c **** 	*	@version V1.0
   5:Core/Src/lcd_test.c **** 	*  @date    2021-7-20
   6:Core/Src/lcd_test.c **** 	*	@author  ÂèçÂÆ¢ÁßëÊäÄ
   7:Core/Src/lcd_test.c **** 	*	@brief   LTDCÊµãËØïÂáΩÊï∞	
   8:Core/Src/lcd_test.c ****    ************************************************************************************************
   9:Core/Src/lcd_test.c ****    *  @description
  10:Core/Src/lcd_test.c **** 	*
  11:Core/Src/lcd_test.c **** 	*	ÂÆûÈ™åÂπ≥Âè∞ÔºöÂèçÂÆ¢STM32H743IIT6Ê†∏ÂøÉÊùø ÔºàÂûãÂè∑ÔºöFK743M2-IIT6Ôºâ+ 4.3ÂØ∏RGBÊ∂≤Êô∂Â±è(Â±èÂ
  12:Core/Src/lcd_test.c **** 	*	Ê∑òÂÆùÂú∞ÂùÄÔºöhttps://shop212360197.taobao.com
  13:Core/Src/lcd_test.c **** 	*	QQ‰∫§ÊµÅÁæ§Ôºö536665479
  14:Core/Src/lcd_test.c **** 	*
  15:Core/Src/lcd_test.c **** >>>>> Êñá‰ª∂ËØ¥ÊòéÔºö
  16:Core/Src/lcd_test.c **** 	*
  17:Core/Src/lcd_test.c **** 	*	1. ‰ªÖÁî®‰∫éÊµãËØïÔºåËØ•Êñá‰ª∂‰∏çÊòØÂøÖÈ°ªÔºåÁî®Êà∑ÁßªÊ§çÁöÑÊó∂ÂÄôÂèØ‰ª•ËàçÂºÉ
  18:Core/Src/lcd_test.c **** 	*
  19:Core/Src/lcd_test.c **** 	**************************************************************************************************
  20:Core/Src/lcd_test.c **** ***/
  21:Core/Src/lcd_test.c **** 
  22:Core/Src/lcd_test.c **** 
  23:Core/Src/lcd_test.c **** #include "lcd_test.h"
  24:Core/Src/lcd_test.c **** 
  25:Core/Src/lcd_test.c **** /*************************************************************************************************
  26:Core/Src/lcd_test.c **** *	ÂáΩ Êï∞ Âêç:	LCD_Test_DoubleLayer
  27:Core/Src/lcd_test.c **** *
  28:Core/Src/lcd_test.c **** *	ÂáΩÊï∞ÂäüËÉΩ:	ÂèåÂ±ÇÊòæÁ§∫
  29:Core/Src/lcd_test.c **** *
  30:Core/Src/lcd_test.c **** *	ËØ¥    Êòé:	‰ªÖÂºÄÂêØÂèåÂ±ÇÁöÑÊó∂ÂÄôÁîüÊïà			
  31:Core/Src/lcd_test.c **** *************************************************************************************************/
  32:Core/Src/lcd_test.c **** 
  33:Core/Src/lcd_test.c **** void LCD_Test_DoubleLayer(void)
  34:Core/Src/lcd_test.c **** {
  43              		.loc 1 34 1 view -0
  44              		.cfi_startproc
  45              		@ args = 0, pretend = 0, frame = 0
  46              		@ frame_needed = 0, uses_anonymous_args = 0
  47 0000 10B5     		push	{r4, lr}
  48              		.cfi_def_cfa_offset 8
  49              		.cfi_offset 4, -8
  50              		.cfi_offset 14, -4
  51 0002 82B0     		sub	sp, sp, #8
  52              		.cfi_def_cfa_offset 16
  35:Core/Src/lcd_test.c **** 	uint16_t time = 100;	// Âª∂Êó∂Êó∂Èó¥
  53              		.loc 1 35 2 view .LVU1
  54              	.LVL0:
  36:Core/Src/lcd_test.c **** 	uint8_t	i = 0;			// ËÆ°Êï∞ÂèòÈáè
  55              		.loc 1 36 2 view .LVU2
  37:Core/Src/lcd_test.c **** 	
  38:Core/Src/lcd_test.c **** // ÁªòÂà∂ÂàùÂßãÁïåÈù¢ÔºåÂåÖÊã¨Ê†áÈ¢ò„ÄÅLOGO‰ª•ÂèäËøõÂ∫¶Êù°>>>>>
  39:Core/Src/lcd_test.c **** 	
  40:Core/Src/lcd_test.c **** 	LCD_SetBackColor(0xffB9EDF8); 			//	ËÆæÁΩÆËÉåÊôØËâ≤Ôºå‰ΩøÁî®Ëá™ÂÆö‰πâÈ¢úËâ≤
  56              		.loc 1 40 2 view .LVU3
  57 0004 9348     		ldr	r0, .L5
  58 0006 FFF7FEFF 		bl	LCD_SetBackColor
  59              	.LVL1:
ARM GAS  C:\Users\OSD\AppData\Local\Temp\cc2NoGol.s 			page 3


  41:Core/Src/lcd_test.c **** 	LCD_Clear(); 									//	Ê∏ÖÂ±èÔºåÂà∑ËÉåÊôØËâ≤
  60              		.loc 1 41 2 view .LVU4
  61 000a FFF7FEFF 		bl	LCD_Clear
  62              	.LVL2:
  42:Core/Src/lcd_test.c **** 	
  43:Core/Src/lcd_test.c **** 	LCD_SetTextFont(&CH_Font32);				// ËÆæÁΩÆ3232‰∏≠ÊñáÂ≠ó‰Ωì,ASCIIÂ≠ó‰ΩìÂØπÂ∫î‰∏∫3216
  63              		.loc 1 43 2 view .LVU5
  64 000e 9248     		ldr	r0, .L5+4
  65 0010 FFF7FEFF 		bl	LCD_SetTextFont
  66              	.LVL3:
  44:Core/Src/lcd_test.c **** 	LCD_SetColor(0xff333333);					//	ËÆæÁΩÆÁîªÁ¨îËâ≤Ôºå‰ΩøÁî®Ëá™ÂÆö‰πâÈ¢úËâ≤
  67              		.loc 1 44 2 view .LVU6
  68 0014 9148     		ldr	r0, .L5+8
  69 0016 FFF7FEFF 		bl	LCD_SetColor
  70              	.LVL4:
  45:Core/Src/lcd_test.c **** 	LCD_DisplayText(176, 87,"ÂèåÂ±ÇÊµãËØï");	// ÊòæÁ§∫ÊñáÊú¨
  71              		.loc 1 45 2 view .LVU7
  72 001a 914A     		ldr	r2, .L5+12
  73 001c 5721     		movs	r1, #87
  74 001e B020     		movs	r0, #176
  75 0020 FFF7FEFF 		bl	LCD_DisplayText
  76              	.LVL5:
  46:Core/Src/lcd_test.c **** 	
  47:Core/Src/lcd_test.c **** 	LCD_SetColor(0xfffd7923);					//	ËÆæÁΩÆÁîªÁ¨îËâ≤Ôºå‰ΩøÁî®Ëá™ÂÆö‰πâÈ¢úËâ≤
  77              		.loc 1 47 2 view .LVU8
  78 0024 8F48     		ldr	r0, .L5+16
  79 0026 FFF7FEFF 		bl	LCD_SetColor
  80              	.LVL6:
  48:Core/Src/lcd_test.c **** 	LCD_DrawImage(  120, 120, 240, 83, Image_FANKE_240x83) ;		// ÊòæÁ§∫LOGOÂõæÁâá
  81              		.loc 1 48 2 view .LVU9
  82 002a 8F4B     		ldr	r3, .L5+20
  83 002c 0093     		str	r3, [sp]
  84 002e 5323     		movs	r3, #83
  85 0030 F022     		movs	r2, #240
  86 0032 7821     		movs	r1, #120
  87 0034 0846     		mov	r0, r1
  88 0036 FFF7FEFF 		bl	LCD_DrawImage
  89              	.LVL7:
  49:Core/Src/lcd_test.c **** 
  50:Core/Src/lcd_test.c **** 	LCD_SetColor(0xff003366);					//	ËÆæÁΩÆÁîªÁ¨îËâ≤Ôºå‰ΩøÁî®Ëá™ÂÆö‰πâÈ¢úËâ≤	
  90              		.loc 1 50 2 view .LVU10
  91 003a 8C48     		ldr	r0, .L5+24
  92 003c FFF7FEFF 		bl	LCD_SetColor
  93              	.LVL8:
  51:Core/Src/lcd_test.c **** 	for(i=0;i<100;i++)
  94              		.loc 1 51 2 view .LVU11
  95              		.loc 1 51 7 is_stmt 0 view .LVU12
  96 0040 0024     		movs	r4, #0
  97              		.loc 1 51 2 view .LVU13
  98 0042 0AE0     		b	.L2
  99              	.LVL9:
 100              	.L3:
  52:Core/Src/lcd_test.c ****    {
  53:Core/Src/lcd_test.c **** 		LCD_FillRect(44,228,4*i,6);	// ÁªòÂà∂Áü©ÂΩ¢ÔºåÂÆûÁé∞ÁÆÄÊòìËøõÂ∫¶Êù°ÁöÑÊïàÊûú
 101              		.loc 1 53 3 is_stmt 1 discriminator 3 view .LVU14
 102 0044 0623     		movs	r3, #6
 103 0046 A200     		lsls	r2, r4, #2
ARM GAS  C:\Users\OSD\AppData\Local\Temp\cc2NoGol.s 			page 4


 104 0048 E421     		movs	r1, #228
 105 004a 2C20     		movs	r0, #44
 106 004c FFF7FEFF 		bl	LCD_FillRect
 107              	.LVL10:
  54:Core/Src/lcd_test.c **** 		HAL_Delay(15);	
 108              		.loc 1 54 3 discriminator 3 view .LVU15
 109 0050 0F20     		movs	r0, #15
 110 0052 FFF7FEFF 		bl	HAL_Delay
 111              	.LVL11:
  51:Core/Src/lcd_test.c **** 	for(i=0;i<100;i++)
 112              		.loc 1 51 16 discriminator 3 view .LVU16
  51:Core/Src/lcd_test.c **** 	for(i=0;i<100;i++)
 113              		.loc 1 51 17 is_stmt 0 discriminator 3 view .LVU17
 114 0056 0134     		adds	r4, r4, #1
 115              	.LVL12:
  51:Core/Src/lcd_test.c **** 	for(i=0;i<100;i++)
 116              		.loc 1 51 17 discriminator 3 view .LVU18
 117 0058 E4B2     		uxtb	r4, r4
 118              	.LVL13:
 119              	.L2:
  51:Core/Src/lcd_test.c **** 	for(i=0;i<100;i++)
 120              		.loc 1 51 10 is_stmt 1 discriminator 1 view .LVU19
  51:Core/Src/lcd_test.c **** 	for(i=0;i<100;i++)
 121              		.loc 1 51 2 is_stmt 0 discriminator 1 view .LVU20
 122 005a 632C     		cmp	r4, #99
 123 005c F2D9     		bls	.L3
  55:Core/Src/lcd_test.c ****    }	
  56:Core/Src/lcd_test.c **** 	
  57:Core/Src/lcd_test.c **** 	
  58:Core/Src/lcd_test.c **** 	LCD_SetLayer(1);	//ÂàáÊç¢Âà∞Â±Ç1
 124              		.loc 1 58 2 is_stmt 1 view .LVU21
 125 005e 0120     		movs	r0, #1
 126 0060 FFF7FEFF 		bl	LCD_SetLayer
 127              	.LVL14:
  59:Core/Src/lcd_test.c **** 	LCD_SetBackColor(LCD_BLACK & 0x00FFFFFF);  // ÈÄèÊòéÂ∫¶100%ÔºåÈ´ò8‰ΩçÁöÑÊï∞Â≠óË∂äÂ∞èÈÄèÊòéÂ∫¶Ë∂äÈ´
 128              		.loc 1 59 2 view .LVU22
 129 0064 0020     		movs	r0, #0
 130 0066 FFF7FEFF 		bl	LCD_SetBackColor
 131              	.LVL15:
  60:Core/Src/lcd_test.c **** 	LCD_Clear();										 // Ê≠§Êó∂ÂâçÊôØÂ±ÇÂÆåÂÖ®ÈÄèÊòéÔºåÂê¶ÂàôÊó†Ê≥ïÁúãÂà∞ layer0 ÁöÑÂõæÂÉè	
 132              		.loc 1 60 2 view .LVU23
 133 006a FFF7FEFF 		bl	LCD_Clear
 134              	.LVL16:
  61:Core/Src/lcd_test.c **** 	
  62:Core/Src/lcd_test.c **** // layer0 ÊòæÁ§∫ÂÜÖÂÆπ >>>>>
  63:Core/Src/lcd_test.c **** 		
  64:Core/Src/lcd_test.c **** 	LCD_SetLayer(0);		//ÂàáÊç¢Âà∞Â±Ç0	
 135              		.loc 1 64 2 view .LVU24
 136 006e 0020     		movs	r0, #0
 137 0070 FFF7FEFF 		bl	LCD_SetLayer
 138              	.LVL17:
  65:Core/Src/lcd_test.c **** 
  66:Core/Src/lcd_test.c **** 	LCD_SetBackColor(LCD_BLACK);   
 139              		.loc 1 66 2 view .LVU25
 140 0074 4FF07F40 		mov	r0, #-16777216
 141 0078 FFF7FEFF 		bl	LCD_SetBackColor
 142              	.LVL18:
ARM GAS  C:\Users\OSD\AppData\Local\Temp\cc2NoGol.s 			page 5


  67:Core/Src/lcd_test.c **** 	LCD_Clear();
 143              		.loc 1 67 2 view .LVU26
 144 007c FFF7FEFF 		bl	LCD_Clear
 145              	.LVL19:
  68:Core/Src/lcd_test.c **** 	
  69:Core/Src/lcd_test.c **** 	LCD_SetColor(LCD_WHITE);	
 146              		.loc 1 69 2 view .LVU27
 147 0080 4FF0FF30 		mov	r0, #-1
 148 0084 FFF7FEFF 		bl	LCD_SetColor
 149              	.LVL20:
  70:Core/Src/lcd_test.c **** 	LCD_SetTextFont(&CH_Font24);				// ËÆæÁΩÆ2424‰∏≠ÊñáÂ≠ó‰Ωì,ASCIIÂ≠ó‰ΩìÂØπÂ∫î‰∏∫2412
 150              		.loc 1 70 2 view .LVU28
 151 0088 7948     		ldr	r0, .L5+28
 152 008a FFF7FEFF 		bl	LCD_SetTextFont
 153              	.LVL21:
  71:Core/Src/lcd_test.c **** 	LCD_DisplayText(10,10,"STM32H743 LTDC ËÉåÊôØÂ±ÇÔºålayer0"); 
 154              		.loc 1 71 2 view .LVU29
 155 008e 794A     		ldr	r2, .L5+32
 156 0090 0A21     		movs	r1, #10
 157 0092 0846     		mov	r0, r1
 158 0094 FFF7FEFF 		bl	LCD_DisplayText
 159              	.LVL22:
  72:Core/Src/lcd_test.c **** 
  73:Core/Src/lcd_test.c **** 	HAL_Delay(1000);
 160              		.loc 1 73 2 view .LVU30
 161 0098 4FF47A70 		mov	r0, #1000
 162 009c FFF7FEFF 		bl	HAL_Delay
 163              	.LVL23:
  74:Core/Src/lcd_test.c **** 	
  75:Core/Src/lcd_test.c **** 	LCD_SetColor(LIGHT_CYAN);  	LCD_DrawLine(5, 75,200, 75);	 	HAL_Delay(time);
 164              		.loc 1 75 2 view .LVU31
 165 00a0 6FF4FE00 		mvn	r0, #8323072
 166 00a4 FFF7FEFF 		bl	LCD_SetColor
 167              	.LVL24:
 168              		.loc 1 75 30 view .LVU32
 169 00a8 4B23     		movs	r3, #75
 170 00aa C822     		movs	r2, #200
 171 00ac 1946     		mov	r1, r3
 172 00ae 0520     		movs	r0, #5
 173 00b0 FFF7FEFF 		bl	LCD_DrawLine
 174              	.LVL25:
 175              		.loc 1 75 61 view .LVU33
 176 00b4 6420     		movs	r0, #100
 177 00b6 FFF7FEFF 		bl	HAL_Delay
 178              	.LVL26:
  76:Core/Src/lcd_test.c **** 	LCD_SetColor(LIGHT_MAGENTA);	LCD_DrawLine(5, 90,200, 90);   	HAL_Delay(time);
 179              		.loc 1 76 2 view .LVU34
 180 00ba 6FF4FE40 		mvn	r0, #32512
 181 00be FFF7FEFF 		bl	LCD_SetColor
 182              	.LVL27:
 183              		.loc 1 76 31 view .LVU35
 184 00c2 5A23     		movs	r3, #90
 185 00c4 C822     		movs	r2, #200
 186 00c6 1946     		mov	r1, r3
 187 00c8 0520     		movs	r0, #5
 188 00ca FFF7FEFF 		bl	LCD_DrawLine
 189              	.LVL28:
ARM GAS  C:\Users\OSD\AppData\Local\Temp\cc2NoGol.s 			page 6


 190              		.loc 1 76 63 view .LVU36
 191 00ce 6420     		movs	r0, #100
 192 00d0 FFF7FEFF 		bl	HAL_Delay
 193              	.LVL29:
  77:Core/Src/lcd_test.c **** 	LCD_SetColor(LIGHT_YELLOW); 	LCD_DrawLine(5,105,200,105);	 	HAL_Delay(time);
 194              		.loc 1 77 2 view .LVU37
 195 00d4 6FF07F00 		mvn	r0, #127
 196 00d8 FFF7FEFF 		bl	LCD_SetColor
 197              	.LVL30:
 198              		.loc 1 77 31 view .LVU38
 199 00dc 6923     		movs	r3, #105
 200 00de C822     		movs	r2, #200
 201 00e0 1946     		mov	r1, r3
 202 00e2 0520     		movs	r0, #5
 203 00e4 FFF7FEFF 		bl	LCD_DrawLine
 204              	.LVL31:
 205              		.loc 1 77 62 view .LVU39
 206 00e8 6420     		movs	r0, #100
 207 00ea FFF7FEFF 		bl	HAL_Delay
 208              	.LVL32:
  78:Core/Src/lcd_test.c **** 	
  79:Core/Src/lcd_test.c **** 	LCD_SetColor(LCD_RED);    		LCD_FillCircle( 60,200,60);		HAL_Delay(time);
 209              		.loc 1 79 2 view .LVU40
 210 00ee 6248     		ldr	r0, .L5+36
 211 00f0 FFF7FEFF 		bl	LCD_SetColor
 212              	.LVL33:
 213              		.loc 1 79 30 view .LVU41
 214 00f4 3C22     		movs	r2, #60
 215 00f6 C821     		movs	r1, #200
 216 00f8 1046     		mov	r0, r2
 217 00fa FFF7FEFF 		bl	LCD_FillCircle
 218              	.LVL34:
 219              		.loc 1 79 59 view .LVU42
 220 00fe 6420     		movs	r0, #100
 221 0100 FFF7FEFF 		bl	HAL_Delay
 222              	.LVL35:
  80:Core/Src/lcd_test.c **** 	LCD_SetColor(LCD_GREEN);  		LCD_FillCircle(100,200,60); 	   HAL_Delay(time);
 223              		.loc 1 80 2 view .LVU43
 224 0104 4FF0FF20 		mov	r0, #-16711936
 225 0108 FFF7FEFF 		bl	LCD_SetColor
 226              	.LVL36:
 227              		.loc 1 80 30 view .LVU44
 228 010c 3C22     		movs	r2, #60
 229 010e C821     		movs	r1, #200
 230 0110 6420     		movs	r0, #100
 231 0112 FFF7FEFF 		bl	LCD_FillCircle
 232              	.LVL37:
 233              		.loc 1 80 62 view .LVU45
 234 0116 6420     		movs	r0, #100
 235 0118 FFF7FEFF 		bl	HAL_Delay
 236              	.LVL38:
  81:Core/Src/lcd_test.c **** 	LCD_SetColor(LCD_BLUE);   		LCD_FillCircle(140,200,60);  		HAL_Delay(time);
 237              		.loc 1 81 2 view .LVU46
 238 011c 5748     		ldr	r0, .L5+40
 239 011e FFF7FEFF 		bl	LCD_SetColor
 240              	.LVL39:
 241              		.loc 1 81 30 view .LVU47
ARM GAS  C:\Users\OSD\AppData\Local\Temp\cc2NoGol.s 			page 7


 242 0122 3C22     		movs	r2, #60
 243 0124 C821     		movs	r1, #200
 244 0126 8C20     		movs	r0, #140
 245 0128 FFF7FEFF 		bl	LCD_FillCircle
 246              	.LVL40:
 247              		.loc 1 81 61 view .LVU48
 248 012c 6420     		movs	r0, #100
 249 012e FFF7FEFF 		bl	HAL_Delay
 250              	.LVL41:
  82:Core/Src/lcd_test.c **** 	
  83:Core/Src/lcd_test.c **** 	LCD_SetColor(LIGHT_RED);	  	LCD_FillRect(246, 65,125,120);	HAL_Delay(time);	  
 251              		.loc 1 83 2 view .LVU49
 252 0132 5348     		ldr	r0, .L5+44
 253 0134 FFF7FEFF 		bl	LCD_SetColor
 254              	.LVL42:
 255              		.loc 1 83 30 view .LVU50
 256 0138 7823     		movs	r3, #120
 257 013a 7D22     		movs	r2, #125
 258 013c 4121     		movs	r1, #65
 259 013e F620     		movs	r0, #246
 260 0140 FFF7FEFF 		bl	LCD_FillRect
 261              	.LVL43:
 262              		.loc 1 83 61 view .LVU51
 263 0144 6420     		movs	r0, #100
 264 0146 FFF7FEFF 		bl	HAL_Delay
 265              	.LVL44:
  84:Core/Src/lcd_test.c **** 	LCD_SetColor(LIGHT_GREEN);  	LCD_FillRect(293, 96,125,120);  	HAL_Delay(time);  
 266              		.loc 1 84 2 view .LVU52
 267 014a 6FF07F10 		mvn	r0, #8323199
 268 014e FFF7FEFF 		bl	LCD_SetColor
 269              	.LVL45:
 270              		.loc 1 84 31 view .LVU53
 271 0152 7823     		movs	r3, #120
 272 0154 7D22     		movs	r2, #125
 273 0156 6021     		movs	r1, #96
 274 0158 40F22510 		movw	r0, #293
 275 015c FFF7FEFF 		bl	LCD_FillRect
 276              	.LVL46:
 277              		.loc 1 84 64 view .LVU54
 278 0160 6420     		movs	r0, #100
 279 0162 FFF7FEFF 		bl	HAL_Delay
 280              	.LVL47:
  85:Core/Src/lcd_test.c **** 	LCD_SetColor(LIGHT_BLUE);    	LCD_FillRect(334,130,125,120);  	HAL_Delay(time);
 281              		.loc 1 85 2 view .LVU55
 282 0166 4748     		ldr	r0, .L5+48
 283 0168 FFF7FEFF 		bl	LCD_SetColor
 284              	.LVL48:
 285              		.loc 1 85 32 view .LVU56
 286 016c 7823     		movs	r3, #120
 287 016e 7D22     		movs	r2, #125
 288 0170 8221     		movs	r1, #130
 289 0172 4FF4A770 		mov	r0, #334
 290 0176 FFF7FEFF 		bl	LCD_FillRect
 291              	.LVL49:
 292              		.loc 1 85 65 view .LVU57
 293 017a 6420     		movs	r0, #100
 294 017c FFF7FEFF 		bl	HAL_Delay
ARM GAS  C:\Users\OSD\AppData\Local\Temp\cc2NoGol.s 			page 8


 295              	.LVL50:
  86:Core/Src/lcd_test.c **** 	
  87:Core/Src/lcd_test.c **** 	HAL_Delay(1000);
 296              		.loc 1 87 2 view .LVU58
 297 0180 4FF47A70 		mov	r0, #1000
 298 0184 FFF7FEFF 		bl	HAL_Delay
 299              	.LVL51:
  88:Core/Src/lcd_test.c **** 	
  89:Core/Src/lcd_test.c **** // layer1 ÊòæÁ§∫ÂÜÖÂÆπ >>>>>
  90:Core/Src/lcd_test.c **** 
  91:Core/Src/lcd_test.c **** 	LCD_SetLayer(1);	//ÂàáÊç¢Âà∞Â±Ç1
 300              		.loc 1 91 2 view .LVU59
 301 0188 0120     		movs	r0, #1
 302 018a FFF7FEFF 		bl	LCD_SetLayer
 303              	.LVL52:
  92:Core/Src/lcd_test.c **** 
  93:Core/Src/lcd_test.c **** 	LCD_SetColor(0Xff348498);		
 304              		.loc 1 93 2 view .LVU60
 305 018e 3E4C     		ldr	r4, .L5+52
 306              	.LVL53:
 307              		.loc 1 93 2 is_stmt 0 view .LVU61
 308 0190 2046     		mov	r0, r4
 309 0192 FFF7FEFF 		bl	LCD_SetColor
 310              	.LVL54:
  94:Core/Src/lcd_test.c **** 	LCD_FillRect(62, 48,322,192);		  
 311              		.loc 1 94 2 is_stmt 1 view .LVU62
 312 0196 C023     		movs	r3, #192
 313 0198 4FF4A172 		mov	r2, #322
 314 019c 3021     		movs	r1, #48
 315 019e 3E20     		movs	r0, #62
 316 01a0 FFF7FEFF 		bl	LCD_FillRect
 317              	.LVL55:
  95:Core/Src/lcd_test.c **** 
  96:Core/Src/lcd_test.c **** 	LCD_SetBackColor(0Xff348498);  
 318              		.loc 1 96 2 view .LVU63
 319 01a4 2046     		mov	r0, r4
 320 01a6 FFF7FEFF 		bl	LCD_SetBackColor
 321              	.LVL56:
  97:Core/Src/lcd_test.c **** 	LCD_SetColor(LCD_BLACK);		
 322              		.loc 1 97 2 view .LVU64
 323 01aa 4FF07F40 		mov	r0, #-16777216
 324 01ae FFF7FEFF 		bl	LCD_SetColor
 325              	.LVL57:
  98:Core/Src/lcd_test.c **** 	LCD_DisplayText(146,69,"ÂâçÊôØÂ±ÇÔºålayer1"); 
 326              		.loc 1 98 2 view .LVU65
 327 01b2 364A     		ldr	r2, .L5+56
 328 01b4 4521     		movs	r1, #69
 329 01b6 9220     		movs	r0, #146
 330 01b8 FFF7FEFF 		bl	LCD_DisplayText
 331              	.LVL58:
  99:Core/Src/lcd_test.c **** 	HAL_Delay(1000);
 332              		.loc 1 99 2 view .LVU66
 333 01bc 4FF47A70 		mov	r0, #1000
 334 01c0 FFF7FEFF 		bl	HAL_Delay
 335              	.LVL59:
 100:Core/Src/lcd_test.c **** 	
 101:Core/Src/lcd_test.c **** #if	ColorMode_1 == LTDC_PIXEL_FORMAT_ARGB4444	// Â¶ÇÊûúlayer1 ÂÆö‰πâ‰∏∫ ARGB4444
ARM GAS  C:\Users\OSD\AppData\Local\Temp\cc2NoGol.s 			page 9


 102:Core/Src/lcd_test.c **** 
 103:Core/Src/lcd_test.c **** 	LCD_SetBackColor(LCD_BLACK & 0xB0FFFFFF);  // ËÆæÁΩÆËÉåÊôØËâ≤ÈÄèÊòéÂ∫¶ÔºåÈ´ò8‰ΩçÁöÑÊï∞Â≠óË∂äÂ∞èÈÄè
 104:Core/Src/lcd_test.c **** 	LCD_SetColor(LCD_WHITE);						 // ÁîªÁ¨î‰∏çÈÄèÊòé 
 105:Core/Src/lcd_test.c **** 	LCD_DisplayText(28,100,"STM32H743IIT6 LTDC, ARGB4444Ôºålayer1"); 
 106:Core/Src/lcd_test.c **** 	HAL_Delay(1000);
 107:Core/Src/lcd_test.c **** 	
 108:Core/Src/lcd_test.c **** 	LCD_SetBackColor(LCD_BLACK & 0x80FFFFFF);  // ËÆæÁΩÆËÉåÊôØËâ≤ÈÄèÊòéÂ∫¶ÔºåÈ´ò8‰ΩçÁöÑÊï∞Â≠óË∂äÂ∞èÈÄè
 109:Core/Src/lcd_test.c **** 	LCD_SetColor(LCD_WHITE);		 
 110:Core/Src/lcd_test.c **** 	LCD_DisplayText(28,140,"STM32H743IIT6 LTDC, ARGB4444Ôºålayer1"); 
 111:Core/Src/lcd_test.c **** 	HAL_Delay(1000);
 112:Core/Src/lcd_test.c **** 		
 113:Core/Src/lcd_test.c **** 	LCD_SetBackColor(LCD_BLACK & 0x30FFFFFF );  // ËÆæÁΩÆËÉåÊôØËâ≤ÈÄèÊòéÂ∫¶ÔºåÈ´ò8‰ΩçÁöÑÊï∞Â≠óË∂äÂ∞èÈÄ
 114:Core/Src/lcd_test.c **** 	LCD_SetColor(LCD_WHITE);
 115:Core/Src/lcd_test.c **** 	LCD_DisplayText(28,180,"STM32H743IIT6 LTDC, ARGB4444Ôºålayer1"); 	
 116:Core/Src/lcd_test.c **** 	HAL_Delay(1000);
 117:Core/Src/lcd_test.c **** 	
 118:Core/Src/lcd_test.c **** 	LCD_SetBackColor(LCD_BLACK  );  				 // Â∞ÜËÉåÊôØËâ≤ËÆæÁΩÆ‰∏∫ ‰∏çÈÄèÊòé
 119:Core/Src/lcd_test.c **** 	LCD_SetColor(LCD_WHITE & 0x00FFFFFF);		 // Â∞ÜÁîªÁ¨îËâ≤ËÆæÁΩÆ‰∏∫ ÂÆåÂÖ®ÈÄèÊòé	 
 120:Core/Src/lcd_test.c **** 	LCD_DisplayText(28,220,"STM32H743IIT6 LTDC, ARGB4444Ôºålayer1"); 	
 121:Core/Src/lcd_test.c **** 	HAL_Delay(2000);	
 122:Core/Src/lcd_test.c **** 	
 123:Core/Src/lcd_test.c **** #elif	ColorMode_1 == LTDC_PIXEL_FORMAT_ARGB1555	// Â¶ÇÊûúlayer1 ÂÆö‰πâ‰∏∫ ARGB1555
 124:Core/Src/lcd_test.c **** 
 125:Core/Src/lcd_test.c **** 
 126:Core/Src/lcd_test.c **** 	LCD_SetBackColor(LCD_BLACK & 0xffFFFFF);  // ËÆæÁΩÆËÉåÊôØËâ≤ÈÄèÊòéÂ∫¶ÔºåÈ´ò8‰ΩçÁöÑÊï∞Â≠óË∂äÂ∞èÈÄèÊ
 127:Core/Src/lcd_test.c **** 	LCD_SetColor(LCD_WHITE);						// ÁîªÁ¨î‰∏çÈÄèÊòé 
 128:Core/Src/lcd_test.c **** 	LCD_DisplayText(28,100,"STM32H743IIT6 LTDC, ARGB1555Ôºålayer1"); 
 129:Core/Src/lcd_test.c **** 	HAL_Delay(1000);
 130:Core/Src/lcd_test.c **** 	
 131:Core/Src/lcd_test.c **** 	LCD_SetBackColor(LCD_BLACK & 0x00FFFFFF);  // ËÆæÁΩÆËÉåÊôØËâ≤ÈÄèÊòéÂ∫¶ÔºåÈ´ò8‰ΩçÁöÑÊï∞Â≠óË∂äÂ∞èÈÄè
 132:Core/Src/lcd_test.c **** 	LCD_SetColor(LCD_WHITE);						 // ÁîªÁ¨î‰∏çÈÄèÊòé 
 133:Core/Src/lcd_test.c **** 	LCD_DisplayText(28,140,"STM32H743IIT6 LTDC, ARGB1555Ôºålayer1"); 
 134:Core/Src/lcd_test.c **** 	HAL_Delay(1000);
 135:Core/Src/lcd_test.c **** 		
 136:Core/Src/lcd_test.c **** 	LCD_SetBackColor(LCD_BLACK  & 0xffFFFFF);  // Â∞ÜËÉåÊôØËâ≤ËÆæÁΩÆ‰∏∫ ‰∏çÈÄèÊòé
 137:Core/Src/lcd_test.c **** 	LCD_SetColor(LCD_WHITE & 0x00FFFFFF);		 // Â∞ÜÁîªÁ¨îËâ≤ËÆæÁΩÆ‰∏∫ ÂÆåÂÖ®ÈÄèÊòé	 
 138:Core/Src/lcd_test.c **** 	LCD_DisplayText(28,180,"STM32H743IIT6 LTDC, ARGB1555Ôºålayer1"); 	
 139:Core/Src/lcd_test.c **** 	HAL_Delay(2000);	
 140:Core/Src/lcd_test.c **** 
 141:Core/Src/lcd_test.c **** #elif ColorMode_1 == LTDC_PIXEL_FORMAT_ARGB8888	// Â¶ÇÊûúlayer1 ÂÆö‰πâ‰∏∫ ARGB8888
 142:Core/Src/lcd_test.c **** 
 143:Core/Src/lcd_test.c **** 	LCD_SetBackColor(LCD_BLACK & 0xE0FFFFFF);  // ËÆæÁΩÆËÉåÊôØËâ≤ÈÄèÊòéÂ∫¶ÔºåÈ´ò8‰ΩçÁöÑÊï∞Â≠óË∂äÂ∞èÈÄè
 336              		.loc 1 143 2 view .LVU67
 337 01c4 4FF06040 		mov	r0, #-536870912
 338 01c8 FFF7FEFF 		bl	LCD_SetBackColor
 339              	.LVL60:
 144:Core/Src/lcd_test.c **** 	LCD_SetColor(LCD_WHITE);						 // ÁîªÁ¨î‰∏çÈÄèÊòé 
 340              		.loc 1 144 2 view .LVU68
 341 01cc 4FF0FF30 		mov	r0, #-1
 342 01d0 FFF7FEFF 		bl	LCD_SetColor
 343              	.LVL61:
 145:Core/Src/lcd_test.c **** 	LCD_DisplayText(28,100,"STM32H743IIT6 LTDC, ARGB8888Ôºålayer1"); 
 344              		.loc 1 145 2 view .LVU69
 345 01d4 2E4C     		ldr	r4, .L5+60
 346 01d6 2246     		mov	r2, r4
 347 01d8 6421     		movs	r1, #100
 348 01da 1C20     		movs	r0, #28
ARM GAS  C:\Users\OSD\AppData\Local\Temp\cc2NoGol.s 			page 10


 349 01dc FFF7FEFF 		bl	LCD_DisplayText
 350              	.LVL62:
 146:Core/Src/lcd_test.c **** 	HAL_Delay(1000);
 351              		.loc 1 146 2 view .LVU70
 352 01e0 4FF47A70 		mov	r0, #1000
 353 01e4 FFF7FEFF 		bl	HAL_Delay
 354              	.LVL63:
 147:Core/Src/lcd_test.c **** 	
 148:Core/Src/lcd_test.c **** 	LCD_SetBackColor(LCD_BLACK & 0x80FFFFFF);  // ËÆæÁΩÆËÉåÊôØËâ≤ÈÄèÊòéÂ∫¶ÔºåÈ´ò8‰ΩçÁöÑÊï∞Â≠óË∂äÂ∞èÈÄè
 355              		.loc 1 148 2 view .LVU71
 356 01e8 4FF00040 		mov	r0, #-2147483648
 357 01ec FFF7FEFF 		bl	LCD_SetBackColor
 358              	.LVL64:
 149:Core/Src/lcd_test.c **** 	LCD_SetColor(LCD_WHITE);		 
 359              		.loc 1 149 2 view .LVU72
 360 01f0 4FF0FF30 		mov	r0, #-1
 361 01f4 FFF7FEFF 		bl	LCD_SetColor
 362              	.LVL65:
 150:Core/Src/lcd_test.c **** 	LCD_DisplayText(28,140,"STM32H743IIT6 LTDC, ARGB8888Ôºålayer1"); 
 363              		.loc 1 150 2 view .LVU73
 364 01f8 2246     		mov	r2, r4
 365 01fa 8C21     		movs	r1, #140
 366 01fc 1C20     		movs	r0, #28
 367 01fe FFF7FEFF 		bl	LCD_DisplayText
 368              	.LVL66:
 151:Core/Src/lcd_test.c **** 	HAL_Delay(1000);
 369              		.loc 1 151 2 view .LVU74
 370 0202 4FF47A70 		mov	r0, #1000
 371 0206 FFF7FEFF 		bl	HAL_Delay
 372              	.LVL67:
 152:Core/Src/lcd_test.c **** 		
 153:Core/Src/lcd_test.c **** 	LCD_SetBackColor(LCD_BLACK & 0x20FFFFFF );  // ËÆæÁΩÆËÉåÊôØËâ≤ÈÄèÊòéÂ∫¶ÔºåÈ´ò8‰ΩçÁöÑÊï∞Â≠óË∂äÂ∞èÈÄ
 373              		.loc 1 153 2 view .LVU75
 374 020a 4FF00050 		mov	r0, #536870912
 375 020e FFF7FEFF 		bl	LCD_SetBackColor
 376              	.LVL68:
 154:Core/Src/lcd_test.c **** 	LCD_SetColor(LCD_WHITE);
 377              		.loc 1 154 2 view .LVU76
 378 0212 4FF0FF30 		mov	r0, #-1
 379 0216 FFF7FEFF 		bl	LCD_SetColor
 380              	.LVL69:
 155:Core/Src/lcd_test.c **** 	LCD_DisplayText(28,180,"STM32H743IIT6 LTDC, ARGB8888Ôºålayer1"); 	
 381              		.loc 1 155 2 view .LVU77
 382 021a 2246     		mov	r2, r4
 383 021c B421     		movs	r1, #180
 384 021e 1C20     		movs	r0, #28
 385 0220 FFF7FEFF 		bl	LCD_DisplayText
 386              	.LVL70:
 156:Core/Src/lcd_test.c **** 	HAL_Delay(1000);
 387              		.loc 1 156 2 view .LVU78
 388 0224 4FF47A70 		mov	r0, #1000
 389 0228 FFF7FEFF 		bl	HAL_Delay
 390              	.LVL71:
 157:Core/Src/lcd_test.c **** 	
 158:Core/Src/lcd_test.c **** 	LCD_SetBackColor(LCD_BLACK);  				 // Â∞ÜËÉåÊôØËâ≤ËÆæÁΩÆ‰∏∫ ‰∏çÈÄèÊòé
 391              		.loc 1 158 2 view .LVU79
 392 022c 4FF07F40 		mov	r0, #-16777216
ARM GAS  C:\Users\OSD\AppData\Local\Temp\cc2NoGol.s 			page 11


 393 0230 FFF7FEFF 		bl	LCD_SetBackColor
 394              	.LVL72:
 159:Core/Src/lcd_test.c **** 	LCD_SetColor(LCD_WHITE & 0x00FFFFFF);		 // Â∞ÜÁîªÁ¨îËâ≤ËÆæÁΩÆ‰∏∫ ÂÆåÂÖ®ÈÄèÊòé	 
 395              		.loc 1 159 2 view .LVU80
 396 0234 6FF07F40 		mvn	r0, #-16777216
 397 0238 FFF7FEFF 		bl	LCD_SetColor
 398              	.LVL73:
 160:Core/Src/lcd_test.c **** 	LCD_DisplayText(28,220,"STM32H743IIT6 LTDC, ARGB8888Ôºålayer1"); 	
 399              		.loc 1 160 2 view .LVU81
 400 023c 2246     		mov	r2, r4
 401 023e DC21     		movs	r1, #220
 402 0240 1C20     		movs	r0, #28
 403 0242 FFF7FEFF 		bl	LCD_DisplayText
 404              	.LVL74:
 161:Core/Src/lcd_test.c **** 	HAL_Delay(2000);	
 405              		.loc 1 161 2 view .LVU82
 406 0246 4FF4FA60 		mov	r0, #2000
 407 024a FFF7FEFF 		bl	HAL_Delay
 408              	.LVL75:
 162:Core/Src/lcd_test.c **** 	
 163:Core/Src/lcd_test.c **** #endif
 164:Core/Src/lcd_test.c **** 
 165:Core/Src/lcd_test.c **** 
 166:Core/Src/lcd_test.c **** }
 409              		.loc 1 166 1 is_stmt 0 view .LVU83
 410 024e 02B0     		add	sp, sp, #8
 411              		.cfi_def_cfa_offset 8
 412              		@ sp needed
 413 0250 10BD     		pop	{r4, pc}
 414              	.L6:
 415 0252 00BF     		.align	2
 416              	.L5:
 417 0254 F8EDB9FF 		.word	-4592136
 418 0258 00000000 		.word	CH_Font32
 419 025c 333333FF 		.word	-13421773
 420 0260 00000000 		.word	.LC0
 421 0264 2379FDFF 		.word	-165597
 422 0268 00000000 		.word	Image_FANKE_240x83
 423 026c 663300FF 		.word	-16764058
 424 0270 00000000 		.word	CH_Font24
 425 0274 10000000 		.word	.LC1
 426 0278 0000FFFF 		.word	-65536
 427 027c FF0000FF 		.word	-16776961
 428 0280 8080FFFF 		.word	-32640
 429 0284 FF8080FF 		.word	-8355585
 430 0288 988434FF 		.word	-13335400
 431 028c 34000000 		.word	.LC2
 432 0290 48000000 		.word	.LC3
 433              		.cfi_endproc
 434              	.LFE147:
 436              		.section	.rodata.LCD_Test_Clear.str1.4,"aMS",%progbits,1
 437              		.align	2
 438              	.LC4:
 439 0000 E588B7E5 		.ascii	"\345\210\267\345\261\217\346\265\213\350\257\225\000"
 439      B18FE6B5 
 439      8BE8AF95 
 439      00
ARM GAS  C:\Users\OSD\AppData\Local\Temp\cc2NoGol.s 			page 12


 440 000d 000000   		.align	2
 441              	.LC5:
 442 0010 53544D33 		.ascii	"STM32H743 LTDC \345\210\267\345\261\217\346\265\213"
 442      32483734 
 442      33204C54 
 442      444320E5 
 442      88B7E5B1 
 443 0028 E8AF9500 		.ascii	"\350\257\225\000"
 444              		.align	2
 445              	.LC6:
 446 002c E6A0B8E5 		.ascii	"\346\240\270\345\277\203\346\235\277\345\236\213\345"
 446      BF83E69D 
 446      BFE59E8B 
 446      E5
 447 0039 8FB7EFBC 		.ascii	"\217\267\357\274\232FK743M2-IIT6\000"
 447      9A464B37 
 447      34334D32 
 447      2D494954 
 447      3600
 448 004b 00       		.align	2
 449              	.LC7:
 450 004c E5B18FE5 		.ascii	"\345\261\217\345\271\225\345\210\206\350\276\250\347"
 450      B995E588 
 450      86E8BEA8 
 450      E7
 451 0059 8E87EFBC 		.ascii	"\216\207\357\274\232480*272\000"
 451      9A343830 
 451      2A323732 
 451      00
 452              		.section	.text.LCD_Test_Clear,"ax",%progbits
 453              		.align	1
 454              		.global	LCD_Test_Clear
 455              		.syntax unified
 456              		.thumb
 457              		.thumb_func
 459              	LCD_Test_Clear:
 460              	.LFB148:
 167:Core/Src/lcd_test.c **** 
 168:Core/Src/lcd_test.c **** /*************************************************************************************************
 169:Core/Src/lcd_test.c **** *	ÂáΩ Êï∞ Âêç:	LCD_Test_Clear
 170:Core/Src/lcd_test.c **** *
 171:Core/Src/lcd_test.c **** *	ÂáΩÊï∞ÂäüËÉΩ:	Ê∏ÖÂ±èÊµãËØï
 172:Core/Src/lcd_test.c **** *
 173:Core/Src/lcd_test.c **** *	ËØ¥    Êòé:	Êó†	
 174:Core/Src/lcd_test.c **** *************************************************************************************************/
 175:Core/Src/lcd_test.c **** 
 176:Core/Src/lcd_test.c **** void LCD_Test_Clear(void)
 177:Core/Src/lcd_test.c **** {
 461              		.loc 1 177 1 is_stmt 1 view -0
 462              		.cfi_startproc
 463              		@ args = 0, pretend = 0, frame = 0
 464              		@ frame_needed = 0, uses_anonymous_args = 0
 465 0000 10B5     		push	{r4, lr}
 466              		.cfi_def_cfa_offset 8
 467              		.cfi_offset 4, -8
 468              		.cfi_offset 14, -4
 469 0002 82B0     		sub	sp, sp, #8
ARM GAS  C:\Users\OSD\AppData\Local\Temp\cc2NoGol.s 			page 13


 470              		.cfi_def_cfa_offset 16
 178:Core/Src/lcd_test.c **** 	uint16_t time = 1000;	// Âª∂Êó∂Êó∂Èó¥
 471              		.loc 1 178 2 view .LVU85
 472              	.LVL76:
 179:Core/Src/lcd_test.c **** 	uint8_t	i = 0;			// ËÆ°Êï∞ÂèòÈáè
 473              		.loc 1 179 2 view .LVU86
 180:Core/Src/lcd_test.c **** 	
 181:Core/Src/lcd_test.c **** // ÁªòÂà∂ÂàùÂßãÁïåÈù¢ÔºåÂåÖÊã¨Ê†áÈ¢ò„ÄÅLOGO‰ª•ÂèäËøõÂ∫¶Êù°>>>>>
 182:Core/Src/lcd_test.c **** 	
 183:Core/Src/lcd_test.c **** 	LCD_SetBackColor(0xffB9EDF8); 			//	ËÆæÁΩÆËÉåÊôØËâ≤Ôºå‰ΩøÁî®Ëá™ÂÆö‰πâÈ¢úËâ≤
 474              		.loc 1 183 2 view .LVU87
 475 0004 4548     		ldr	r0, .L24
 476 0006 FFF7FEFF 		bl	LCD_SetBackColor
 477              	.LVL77:
 184:Core/Src/lcd_test.c **** 	LCD_Clear(); 									//	Ê∏ÖÂ±èÔºåÂà∑ËÉåÊôØËâ≤
 478              		.loc 1 184 2 view .LVU88
 479 000a FFF7FEFF 		bl	LCD_Clear
 480              	.LVL78:
 185:Core/Src/lcd_test.c **** 	
 186:Core/Src/lcd_test.c **** 	LCD_SetTextFont(&CH_Font32);				// ËÆæÁΩÆ3232‰∏≠ÊñáÂ≠ó‰Ωì,ASCIIÂ≠ó‰ΩìÂØπÂ∫î‰∏∫3216
 481              		.loc 1 186 2 view .LVU89
 482 000e 4448     		ldr	r0, .L24+4
 483 0010 FFF7FEFF 		bl	LCD_SetTextFont
 484              	.LVL79:
 187:Core/Src/lcd_test.c **** 	LCD_SetColor(0xff333333);					//	ËÆæÁΩÆÁîªÁ¨îËâ≤Ôºå‰ΩøÁî®Ëá™ÂÆö‰πâÈ¢úËâ≤
 485              		.loc 1 187 2 view .LVU90
 486 0014 4348     		ldr	r0, .L24+8
 487 0016 FFF7FEFF 		bl	LCD_SetColor
 488              	.LVL80:
 188:Core/Src/lcd_test.c **** 	LCD_DisplayText(176, 87,"Âà∑Â±èÊµãËØï");	// ÊòæÁ§∫ÊñáÊú¨
 489              		.loc 1 188 2 view .LVU91
 490 001a 434A     		ldr	r2, .L24+12
 491 001c 5721     		movs	r1, #87
 492 001e B020     		movs	r0, #176
 493 0020 FFF7FEFF 		bl	LCD_DisplayText
 494              	.LVL81:
 189:Core/Src/lcd_test.c **** 	
 190:Core/Src/lcd_test.c **** 	LCD_SetColor(0xfffd7923);					//	ËÆæÁΩÆÁîªÁ¨îËâ≤Ôºå‰ΩøÁî®Ëá™ÂÆö‰πâÈ¢úËâ≤
 495              		.loc 1 190 2 view .LVU92
 496 0024 4148     		ldr	r0, .L24+16
 497 0026 FFF7FEFF 		bl	LCD_SetColor
 498              	.LVL82:
 191:Core/Src/lcd_test.c **** 	LCD_DrawImage(  120, 120, 240, 83, Image_FANKE_240x83) ;		// ÊòæÁ§∫LOGOÂõæÁâá
 499              		.loc 1 191 2 view .LVU93
 500 002a 414B     		ldr	r3, .L24+20
 501 002c 0093     		str	r3, [sp]
 502 002e 5323     		movs	r3, #83
 503 0030 F022     		movs	r2, #240
 504 0032 7821     		movs	r1, #120
 505 0034 0846     		mov	r0, r1
 506 0036 FFF7FEFF 		bl	LCD_DrawImage
 507              	.LVL83:
 192:Core/Src/lcd_test.c **** 
 193:Core/Src/lcd_test.c **** 	LCD_SetColor(0xff003366);					//	ËÆæÁΩÆÁîªÁ¨îËâ≤Ôºå‰ΩøÁî®Ëá™ÂÆö‰πâÈ¢úËâ≤	
 508              		.loc 1 193 2 view .LVU94
 509 003a 3E48     		ldr	r0, .L24+24
 510 003c FFF7FEFF 		bl	LCD_SetColor
ARM GAS  C:\Users\OSD\AppData\Local\Temp\cc2NoGol.s 			page 14


 511              	.LVL84:
 194:Core/Src/lcd_test.c **** 	for(i=0;i<100;i++)
 512              		.loc 1 194 2 view .LVU95
 513              		.loc 1 194 7 is_stmt 0 view .LVU96
 514 0040 0024     		movs	r4, #0
 515              		.loc 1 194 2 view .LVU97
 516 0042 0AE0     		b	.L8
 517              	.LVL85:
 518              	.L9:
 195:Core/Src/lcd_test.c ****    {
 196:Core/Src/lcd_test.c **** 		LCD_FillRect(44,228,4*i,6);	// ÁªòÂà∂Áü©ÂΩ¢ÔºåÂÆûÁé∞ÁÆÄÊòìËøõÂ∫¶Êù°ÁöÑÊïàÊûú
 519              		.loc 1 196 3 is_stmt 1 discriminator 3 view .LVU98
 520 0044 0623     		movs	r3, #6
 521 0046 A200     		lsls	r2, r4, #2
 522 0048 E421     		movs	r1, #228
 523 004a 2C20     		movs	r0, #44
 524 004c FFF7FEFF 		bl	LCD_FillRect
 525              	.LVL86:
 197:Core/Src/lcd_test.c **** 		HAL_Delay(15);	
 526              		.loc 1 197 3 discriminator 3 view .LVU99
 527 0050 0F20     		movs	r0, #15
 528 0052 FFF7FEFF 		bl	HAL_Delay
 529              	.LVL87:
 194:Core/Src/lcd_test.c **** 	for(i=0;i<100;i++)
 530              		.loc 1 194 16 discriminator 3 view .LVU100
 194:Core/Src/lcd_test.c **** 	for(i=0;i<100;i++)
 531              		.loc 1 194 17 is_stmt 0 discriminator 3 view .LVU101
 532 0056 0134     		adds	r4, r4, #1
 533              	.LVL88:
 194:Core/Src/lcd_test.c **** 	for(i=0;i<100;i++)
 534              		.loc 1 194 17 discriminator 3 view .LVU102
 535 0058 E4B2     		uxtb	r4, r4
 536              	.LVL89:
 537              	.L8:
 194:Core/Src/lcd_test.c **** 	for(i=0;i<100;i++)
 538              		.loc 1 194 10 is_stmt 1 discriminator 1 view .LVU103
 194:Core/Src/lcd_test.c **** 	for(i=0;i<100;i++)
 539              		.loc 1 194 2 is_stmt 0 discriminator 1 view .LVU104
 540 005a 632C     		cmp	r4, #99
 541 005c F2D9     		bls	.L9
 198:Core/Src/lcd_test.c ****    }	
 199:Core/Src/lcd_test.c **** 	
 200:Core/Src/lcd_test.c **** 	
 201:Core/Src/lcd_test.c **** 	
 202:Core/Src/lcd_test.c **** // Âà∑Â±èÊµãËØï>>>>>
 203:Core/Src/lcd_test.c **** 		
 204:Core/Src/lcd_test.c **** 	LCD_SetTextFont(&CH_Font24);			// ËÆæÁΩÆ2424‰∏≠ÊñáÂ≠ó‰Ωì,ASCIIÂ≠ó‰ΩìÂØπÂ∫î‰∏∫2412
 542              		.loc 1 204 2 is_stmt 1 view .LVU105
 543 005e 3648     		ldr	r0, .L24+28
 544 0060 FFF7FEFF 		bl	LCD_SetTextFont
 545              	.LVL90:
 205:Core/Src/lcd_test.c **** 	LCD_SetColor(LCD_BLACK);				// ËÆæÁΩÆÁîªÁ¨îÈ¢úËâ≤
 546              		.loc 1 205 2 view .LVU106
 547 0064 4FF07F40 		mov	r0, #-16777216
 548 0068 FFF7FEFF 		bl	LCD_SetColor
 549              	.LVL91:
 206:Core/Src/lcd_test.c **** 
ARM GAS  C:\Users\OSD\AppData\Local\Temp\cc2NoGol.s 			page 15


 207:Core/Src/lcd_test.c **** 	for(i=0;i<8;i++)
 550              		.loc 1 207 2 view .LVU107
 551              		.loc 1 207 7 is_stmt 0 view .LVU108
 552 006c 0024     		movs	r4, #0
 553              		.loc 1 207 2 view .LVU109
 554 006e 19E0     		b	.L10
 555              	.LVL92:
 556              	.L20:
 208:Core/Src/lcd_test.c **** 	{
 209:Core/Src/lcd_test.c **** 		switch (i)		// ÂàáÊç¢ËÉåÊôØËâ≤
 210:Core/Src/lcd_test.c **** 		{
 211:Core/Src/lcd_test.c **** 			case 0: LCD_SetBackColor(LIGHT_RED); 		break;	
 557              		.loc 1 211 12 is_stmt 1 view .LVU110
 558 0070 3248     		ldr	r0, .L24+32
 559 0072 FFF7FEFF 		bl	LCD_SetBackColor
 560              	.LVL93:
 561              		.loc 1 211 43 view .LVU111
 562              	.L11:
 212:Core/Src/lcd_test.c **** 			case 1: LCD_SetBackColor(LIGHT_GREEN); 	break;				
 213:Core/Src/lcd_test.c **** 			case 2: LCD_SetBackColor(LIGHT_BLUE); 		break;
 214:Core/Src/lcd_test.c **** 			case 3: LCD_SetBackColor(LIGHT_YELLOW); 	break;
 215:Core/Src/lcd_test.c **** 			case 4: LCD_SetBackColor(LIGHT_CYAN);		break;
 216:Core/Src/lcd_test.c **** 			case 5: LCD_SetBackColor(LIGHT_GREY); 		break;
 217:Core/Src/lcd_test.c **** 			case 6: LCD_SetBackColor(LIGHT_MAGENTA); 	break;
 218:Core/Src/lcd_test.c **** 			case 7: LCD_SetBackColor(LCD_WHITE); 		break;			
 219:Core/Src/lcd_test.c **** 			default:	break;			
 220:Core/Src/lcd_test.c **** 		}
 221:Core/Src/lcd_test.c **** 		LCD_Clear();		// Ê∏ÖÂ±è
 563              		.loc 1 221 3 discriminator 2 view .LVU112
 564 0076 FFF7FEFF 		bl	LCD_Clear
 565              	.LVL94:
 222:Core/Src/lcd_test.c **** 		LCD_DisplayText(68, 68,"STM32H743 LTDC Âà∑Â±èÊµãËØï");
 566              		.loc 1 222 3 discriminator 2 view .LVU113
 567 007a 314A     		ldr	r2, .L24+36
 568 007c 4421     		movs	r1, #68
 569 007e 0846     		mov	r0, r1
 570 0080 FFF7FEFF 		bl	LCD_DisplayText
 571              	.LVL95:
 223:Core/Src/lcd_test.c **** 		LCD_DisplayText(68,106,"Ê†∏ÂøÉÊùøÂûãÂè∑ÔºöFK743M2-IIT6");
 572              		.loc 1 223 3 discriminator 2 view .LVU114
 573 0084 2F4A     		ldr	r2, .L24+40
 574 0086 6A21     		movs	r1, #106
 575 0088 4420     		movs	r0, #68
 576 008a FFF7FEFF 		bl	LCD_DisplayText
 577              	.LVL96:
 224:Core/Src/lcd_test.c **** 		LCD_DisplayText(68,144,"Â±èÂπïÂàÜËæ®ÁéáÔºö480*272");		
 578              		.loc 1 224 3 discriminator 2 view .LVU115
 579 008e 2E4A     		ldr	r2, .L24+44
 580 0090 9021     		movs	r1, #144
 581 0092 4420     		movs	r0, #68
 582 0094 FFF7FEFF 		bl	LCD_DisplayText
 583              	.LVL97:
 225:Core/Src/lcd_test.c **** 		HAL_Delay(time);	// Âª∂Êó∂
 584              		.loc 1 225 3 discriminator 2 view .LVU116
 585 0098 4FF47A70 		mov	r0, #1000
 586 009c FFF7FEFF 		bl	HAL_Delay
 587              	.LVL98:
ARM GAS  C:\Users\OSD\AppData\Local\Temp\cc2NoGol.s 			page 16


 207:Core/Src/lcd_test.c **** 	{
 588              		.loc 1 207 14 discriminator 2 view .LVU117
 207:Core/Src/lcd_test.c **** 	{
 589              		.loc 1 207 15 is_stmt 0 discriminator 2 view .LVU118
 590 00a0 0134     		adds	r4, r4, #1
 591              	.LVL99:
 207:Core/Src/lcd_test.c **** 	{
 592              		.loc 1 207 15 discriminator 2 view .LVU119
 593 00a2 E4B2     		uxtb	r4, r4
 594              	.LVL100:
 595              	.L10:
 207:Core/Src/lcd_test.c **** 	{
 596              		.loc 1 207 10 is_stmt 1 discriminator 1 view .LVU120
 207:Core/Src/lcd_test.c **** 	{
 597              		.loc 1 207 2 is_stmt 0 discriminator 1 view .LVU121
 598 00a4 072C     		cmp	r4, #7
 599 00a6 36D8     		bhi	.L23
 209:Core/Src/lcd_test.c **** 		{
 600              		.loc 1 209 3 is_stmt 1 view .LVU122
 601 00a8 072C     		cmp	r4, #7
 602 00aa E4D8     		bhi	.L11
 603 00ac 01A3     		adr	r3, .L13
 604 00ae 53F824F0 		ldr	pc, [r3, r4, lsl #2]
 605 00b2 00BF     		.p2align 2
 606              	.L13:
 607 00b4 71000000 		.word	.L20+1
 608 00b8 D5000000 		.word	.L19+1
 609 00bc DF000000 		.word	.L18+1
 610 00c0 E7000000 		.word	.L17+1
 611 00c4 F1000000 		.word	.L16+1
 612 00c8 FB000000 		.word	.L15+1
 613 00cc 03010000 		.word	.L14+1
 614 00d0 0D010000 		.word	.L12+1
 615              		.p2align 1
 616              	.L19:
 212:Core/Src/lcd_test.c **** 			case 2: LCD_SetBackColor(LIGHT_BLUE); 		break;
 617              		.loc 1 212 12 view .LVU123
 618 00d4 6FF07F10 		mvn	r0, #8323199
 619 00d8 FFF7FEFF 		bl	LCD_SetBackColor
 620              	.LVL101:
 212:Core/Src/lcd_test.c **** 			case 2: LCD_SetBackColor(LIGHT_BLUE); 		break;
 621              		.loc 1 212 44 view .LVU124
 212:Core/Src/lcd_test.c **** 			case 2: LCD_SetBackColor(LIGHT_BLUE); 		break;
 622              		.loc 1 212 4 is_stmt 0 view .LVU125
 623 00dc CBE7     		b	.L11
 624              	.L18:
 213:Core/Src/lcd_test.c **** 			case 3: LCD_SetBackColor(LIGHT_YELLOW); 	break;
 625              		.loc 1 213 12 is_stmt 1 view .LVU126
 626 00de 1B48     		ldr	r0, .L24+48
 627 00e0 FFF7FEFF 		bl	LCD_SetBackColor
 628              	.LVL102:
 213:Core/Src/lcd_test.c **** 			case 3: LCD_SetBackColor(LIGHT_YELLOW); 	break;
 629              		.loc 1 213 44 view .LVU127
 213:Core/Src/lcd_test.c **** 			case 3: LCD_SetBackColor(LIGHT_YELLOW); 	break;
 630              		.loc 1 213 4 is_stmt 0 view .LVU128
 631 00e4 C7E7     		b	.L11
 632              	.L17:
ARM GAS  C:\Users\OSD\AppData\Local\Temp\cc2NoGol.s 			page 17


 214:Core/Src/lcd_test.c **** 			case 4: LCD_SetBackColor(LIGHT_CYAN);		break;
 633              		.loc 1 214 12 is_stmt 1 view .LVU129
 634 00e6 6FF07F00 		mvn	r0, #127
 635 00ea FFF7FEFF 		bl	LCD_SetBackColor
 636              	.LVL103:
 214:Core/Src/lcd_test.c **** 			case 4: LCD_SetBackColor(LIGHT_CYAN);		break;
 637              		.loc 1 214 45 view .LVU130
 214:Core/Src/lcd_test.c **** 			case 4: LCD_SetBackColor(LIGHT_CYAN);		break;
 638              		.loc 1 214 4 is_stmt 0 view .LVU131
 639 00ee C2E7     		b	.L11
 640              	.L16:
 215:Core/Src/lcd_test.c **** 			case 5: LCD_SetBackColor(LIGHT_GREY); 		break;
 641              		.loc 1 215 12 is_stmt 1 view .LVU132
 642 00f0 6FF4FE00 		mvn	r0, #8323072
 643 00f4 FFF7FEFF 		bl	LCD_SetBackColor
 644              	.LVL104:
 215:Core/Src/lcd_test.c **** 			case 5: LCD_SetBackColor(LIGHT_GREY); 		break;
 645              		.loc 1 215 43 view .LVU133
 215:Core/Src/lcd_test.c **** 			case 5: LCD_SetBackColor(LIGHT_GREY); 		break;
 646              		.loc 1 215 4 is_stmt 0 view .LVU134
 647 00f8 BDE7     		b	.L11
 648              	.L15:
 216:Core/Src/lcd_test.c **** 			case 6: LCD_SetBackColor(LIGHT_MAGENTA); 	break;
 649              		.loc 1 216 12 is_stmt 1 view .LVU135
 650 00fa 1548     		ldr	r0, .L24+52
 651 00fc FFF7FEFF 		bl	LCD_SetBackColor
 652              	.LVL105:
 216:Core/Src/lcd_test.c **** 			case 6: LCD_SetBackColor(LIGHT_MAGENTA); 	break;
 653              		.loc 1 216 44 view .LVU136
 216:Core/Src/lcd_test.c **** 			case 6: LCD_SetBackColor(LIGHT_MAGENTA); 	break;
 654              		.loc 1 216 4 is_stmt 0 view .LVU137
 655 0100 B9E7     		b	.L11
 656              	.L14:
 217:Core/Src/lcd_test.c **** 			case 7: LCD_SetBackColor(LCD_WHITE); 		break;			
 657              		.loc 1 217 12 is_stmt 1 view .LVU138
 658 0102 6FF4FE40 		mvn	r0, #32512
 659 0106 FFF7FEFF 		bl	LCD_SetBackColor
 660              	.LVL106:
 217:Core/Src/lcd_test.c **** 			case 7: LCD_SetBackColor(LCD_WHITE); 		break;			
 661              		.loc 1 217 46 view .LVU139
 217:Core/Src/lcd_test.c **** 			case 7: LCD_SetBackColor(LCD_WHITE); 		break;			
 662              		.loc 1 217 4 is_stmt 0 view .LVU140
 663 010a B4E7     		b	.L11
 664              	.L12:
 218:Core/Src/lcd_test.c **** 			default:	break;			
 665              		.loc 1 218 12 is_stmt 1 view .LVU141
 666 010c 4FF0FF30 		mov	r0, #-1
 667 0110 FFF7FEFF 		bl	LCD_SetBackColor
 668              	.LVL107:
 218:Core/Src/lcd_test.c **** 			default:	break;			
 669              		.loc 1 218 43 view .LVU142
 218:Core/Src/lcd_test.c **** 			default:	break;			
 670              		.loc 1 218 4 is_stmt 0 view .LVU143
 671 0114 AFE7     		b	.L11
 672              	.L23:
 226:Core/Src/lcd_test.c **** 	}
 227:Core/Src/lcd_test.c **** }
ARM GAS  C:\Users\OSD\AppData\Local\Temp\cc2NoGol.s 			page 18


 673              		.loc 1 227 1 view .LVU144
 674 0116 02B0     		add	sp, sp, #8
 675              		.cfi_def_cfa_offset 8
 676              		@ sp needed
 677 0118 10BD     		pop	{r4, pc}
 678              	.LVL108:
 679              	.L25:
 680              		.loc 1 227 1 view .LVU145
 681 011a 00BF     		.align	2
 682              	.L24:
 683 011c F8EDB9FF 		.word	-4592136
 684 0120 00000000 		.word	CH_Font32
 685 0124 333333FF 		.word	-13421773
 686 0128 00000000 		.word	.LC4
 687 012c 2379FDFF 		.word	-165597
 688 0130 00000000 		.word	Image_FANKE_240x83
 689 0134 663300FF 		.word	-16764058
 690 0138 00000000 		.word	CH_Font24
 691 013c 8080FFFF 		.word	-32640
 692 0140 10000000 		.word	.LC5
 693 0144 2C000000 		.word	.LC6
 694 0148 4C000000 		.word	.LC7
 695 014c FF8080FF 		.word	-8355585
 696 0150 A3A3A3FF 		.word	-6052957
 697              		.cfi_endproc
 698              	.LFE148:
 700              		.section	.rodata.LCD_Test_Text.str1.4,"aMS",%progbits,1
 701              		.align	2
 702              	.LC8:
 703 0000 E69687E6 		.ascii	"\346\226\207\346\234\254\346\230\276\347\244\272\000"
 703      9CACE698 
 703      BEE7A4BA 
 703      00
 704 000d 000000   		.align	2
 705              	.LC9:
 706 0010 21232425 		.ascii	"!#$%&'()*+,-.0123456789:;<=>?\000"
 706      26272829 
 706      2A2B2C2D 
 706      2E303132 
 706      33343536 
 707 002e 0000     		.align	2
 708              	.LC10:
 709 0030 21232425 		.ascii	"!#$%&'()*+,-.0123456789:;<=>?@ABCDEFGH\000"
 709      26272829 
 709      2A2B2C2D 
 709      2E303132 
 709      33343536 
 710 0057 00       		.align	2
 711              	.LC11:
 712 0058 21232425 		.ascii	"!#$%&'()*+,-.0123456789:;<=>?@ABCDEFGHIJKLMNO\000"
 712      26272829 
 712      2A2B2C2D 
 712      2E303132 
 712      33343536 
 713 0086 0000     		.align	2
 714              	.LC12:
 715 0088 21232425 		.ascii	"!#$%&'()*+,-.0123456789:;<=>?@ABCDEFGHIJKLMNOPQRST\000"
ARM GAS  C:\Users\OSD\AppData\Local\Temp\cc2NoGol.s 			page 19


 715      26272829 
 715      2A2B2C2D 
 715      2E303132 
 715      33343536 
 716 00bb 00       		.align	2
 717              	.LC13:
 718 00bc E69687E6 		.ascii	"\346\226\207\346\234\254\346\230\276\347\244\272\357"
 718      9CACE698 
 718      BEE7A4BA 
 718      EF
 719 00c9 BC8CE58F 		.ascii	"\274\214\345\217\257\346\230\276\347\244\272\344\270"
 719      AFE698BE 
 719      E7A4BAE4 
 719      B8
 720 00d6 ADE69687 		.ascii	"\255\346\226\207\345\222\214ASCII\345\255\227\347\254"
 720      E5928C41 
 720      53434949 
 720      E5AD97E7 
 720      AC
 721 00e7 A6E99B86 		.ascii	"\246\351\233\206\000"
 721      00
 722              		.align	2
 723              	.LC14:
 724 00ec E794A8E6 		.ascii	"\347\224\250\346\210\267\345\217\257\346\240\271\346"
 724      88B7E58F 
 724      AFE6A0B9 
 724      E6
 725 00f9 8DAEE99C 		.ascii	"\215\256\351\234\200\346\261\202\357\274\214\345\257"
 725      80E6B182 
 725      EFBC8CE5 
 725      AF
 726 0106 B9E5AD97 		.ascii	"\271\345\255\227\345\272\223\350\277\233\350\241\214"
 726      E5BA93E8 
 726      BF9BE8A1 
 726      8C
 727 0113 E5A29EE6 		.ascii	"\345\242\236\346\267\273\345\222\214\345\210\240\345"
 727      B7BBE592 
 727      8CE588A0 
 727      E5
 728 0120 878F00   		.ascii	"\207\217\000"
 729 0123 00       		.align	2
 730              	.LC15:
 731 0124 31323132 		.ascii	"1212\344\270\255\346\226\207\345\255\227\344\275\223"
 731      E4B8ADE6 
 731      9687E5AD 
 731      97E4BD93 
 732 0134 EFBC9AE5 		.ascii	"\357\274\232\345\217\215\345\256\242\347\247\221\346"
 732      8F8DE5AE 
 732      A2E7A791 
 732      E6
 733 0141 8A8000   		.ascii	"\212\200\000"
 734              		.align	2
 735              	.LC16:
 736 0144 31363136 		.ascii	"1616\344\270\255\346\226\207\345\255\227\344\275\223"
 736      E4B8ADE6 
 736      9687E5AD 
 736      97E4BD93 
ARM GAS  C:\Users\OSD\AppData\Local\Temp\cc2NoGol.s 			page 20


 737 0154 EFBC9AE5 		.ascii	"\357\274\232\345\217\215\345\256\242\347\247\221\346"
 737      8F8DE5AE 
 737      A2E7A791 
 737      E6
 738 0161 8A8000   		.ascii	"\212\200\000"
 739              		.align	2
 740              	.LC17:
 741 0164 32303230 		.ascii	"2020\344\270\255\346\226\207\345\255\227\344\275\223"
 741      E4B8ADE6 
 741      9687E5AD 
 741      97E4BD93 
 742 0174 EFBC9AE5 		.ascii	"\357\274\232\345\217\215\345\256\242\347\247\221\346"
 742      8F8DE5AE 
 742      A2E7A791 
 742      E6
 743 0181 8A8000   		.ascii	"\212\200\000"
 744              		.align	2
 745              	.LC18:
 746 0184 32343234 		.ascii	"2424\344\270\255\346\226\207\345\255\227\344\275\223"
 746      E4B8ADE6 
 746      9687E5AD 
 746      97E4BD93 
 747 0194 EFBC9AE5 		.ascii	"\357\274\232\345\217\215\345\256\242\347\247\221\346"
 747      8F8DE5AE 
 747      A2E7A791 
 747      E6
 748 01a1 8A8000   		.ascii	"\212\200\000"
 749              		.align	2
 750              	.LC19:
 751 01a4 33323332 		.ascii	"3232\344\270\255\346\226\207\345\255\227\344\275\223"
 751      E4B8ADE6 
 751      9687E5AD 
 751      97E4BD93 
 752 01b4 EFBC9AE5 		.ascii	"\357\274\232\345\217\215\345\256\242\347\247\221\346"
 752      8F8DE5AE 
 752      A2E7A791 
 752      E6
 753 01c1 8A8000   		.ascii	"\212\200\000"
 754              		.align	2
 755              	.LC20:
 756 01c4 E6A0B8E5 		.ascii	"\346\240\270\345\277\203\346\235\277\345\236\213\345"
 756      BF83E69D 
 756      BFE59E8B 
 756      E5
 757 01d1 8FB7EFBC 		.ascii	"\217\267\357\274\232FK743M3-IIT6\000"
 757      9A464B37 
 757      34334D33 
 757      2D494954 
 757      3600
 758              		.section	.text.LCD_Test_Text,"ax",%progbits
 759              		.align	1
 760              		.global	LCD_Test_Text
 761              		.syntax unified
 762              		.thumb
 763              		.thumb_func
 765              	LCD_Test_Text:
 766              	.LFB149:
ARM GAS  C:\Users\OSD\AppData\Local\Temp\cc2NoGol.s 			page 21


 228:Core/Src/lcd_test.c **** 
 229:Core/Src/lcd_test.c **** /*************************************************************************************************
 230:Core/Src/lcd_test.c **** *	ÂáΩ Êï∞ Âêç:	LCD_Test_Text
 231:Core/Src/lcd_test.c **** *
 232:Core/Src/lcd_test.c **** *	ÂáΩÊï∞ÂäüËÉΩ:	ÊñáÊú¨ÊòæÁ§∫ÊµãËØï
 233:Core/Src/lcd_test.c **** *
 234:Core/Src/lcd_test.c **** *	ËØ¥    Êòé:	Êó†	
 235:Core/Src/lcd_test.c **** *************************************************************************************************/
 236:Core/Src/lcd_test.c **** 
 237:Core/Src/lcd_test.c **** void LCD_Test_Text(void)
 238:Core/Src/lcd_test.c **** {
 767              		.loc 1 238 1 is_stmt 1 view -0
 768              		.cfi_startproc
 769              		@ args = 0, pretend = 0, frame = 0
 770              		@ frame_needed = 0, uses_anonymous_args = 0
 771 0000 2DE9F04F 		push	{r4, r5, r6, r7, r8, r9, r10, fp, lr}
 772              		.cfi_def_cfa_offset 36
 773              		.cfi_offset 4, -36
 774              		.cfi_offset 5, -32
 775              		.cfi_offset 6, -28
 776              		.cfi_offset 7, -24
 777              		.cfi_offset 8, -20
 778              		.cfi_offset 9, -16
 779              		.cfi_offset 10, -12
 780              		.cfi_offset 11, -8
 781              		.cfi_offset 14, -4
 782 0004 83B0     		sub	sp, sp, #12
 783              		.cfi_def_cfa_offset 48
 239:Core/Src/lcd_test.c **** 	uint16_t i;					// ËÆ°Êï∞ÂèòÈáè
 784              		.loc 1 239 2 view .LVU147
 240:Core/Src/lcd_test.c **** 
 241:Core/Src/lcd_test.c **** // ÁªòÂà∂ÂàùÂßãÁïåÈù¢ÔºåÂåÖÊã¨Ê†áÈ¢ò„ÄÅLOGO‰ª•ÂèäËøõÂ∫¶Êù°>>>>>
 242:Core/Src/lcd_test.c **** 	
 243:Core/Src/lcd_test.c **** 	LCD_SetBackColor(0xffB9EDF8); 			//	ËÆæÁΩÆËÉåÊôØËâ≤Ôºå‰ΩøÁî®Ëá™ÂÆö‰πâÈ¢úËâ≤
 785              		.loc 1 243 2 view .LVU148
 786 0006 9048     		ldr	r0, .L30
 787 0008 FFF7FEFF 		bl	LCD_SetBackColor
 788              	.LVL109:
 244:Core/Src/lcd_test.c **** 	LCD_Clear(); 									//	Ê∏ÖÂ±èÔºåÂà∑ËÉåÊôØËâ≤
 789              		.loc 1 244 2 view .LVU149
 790 000c FFF7FEFF 		bl	LCD_Clear
 791              	.LVL110:
 245:Core/Src/lcd_test.c **** 	
 246:Core/Src/lcd_test.c **** 	LCD_SetTextFont(&CH_Font32);				// ËÆæÁΩÆ3232‰∏≠ÊñáÂ≠ó‰Ωì,ASCIIÂ≠ó‰ΩìÂØπÂ∫î‰∏∫3216
 792              		.loc 1 246 2 view .LVU150
 793 0010 8E48     		ldr	r0, .L30+4
 794 0012 FFF7FEFF 		bl	LCD_SetTextFont
 795              	.LVL111:
 247:Core/Src/lcd_test.c **** 	LCD_SetColor(0xff333333);					//	ËÆæÁΩÆÁîªÁ¨îËâ≤Ôºå‰ΩøÁî®Ëá™ÂÆö‰πâÈ¢úËâ≤
 796              		.loc 1 247 2 view .LVU151
 797 0016 8E48     		ldr	r0, .L30+8
 798 0018 FFF7FEFF 		bl	LCD_SetColor
 799              	.LVL112:
 248:Core/Src/lcd_test.c **** 	LCD_DisplayText(176, 87,"ÊñáÊú¨ÊòæÁ§∫");	// ÊòæÁ§∫ÊñáÊú¨
 800              		.loc 1 248 2 view .LVU152
 801 001c 8D4A     		ldr	r2, .L30+12
 802 001e 5721     		movs	r1, #87
ARM GAS  C:\Users\OSD\AppData\Local\Temp\cc2NoGol.s 			page 22


 803 0020 B020     		movs	r0, #176
 804 0022 FFF7FEFF 		bl	LCD_DisplayText
 805              	.LVL113:
 249:Core/Src/lcd_test.c **** 	
 250:Core/Src/lcd_test.c **** 	LCD_SetColor(0xfffd7923);					//	ËÆæÁΩÆÁîªÁ¨îËâ≤Ôºå‰ΩøÁî®Ëá™ÂÆö‰πâÈ¢úËâ≤
 806              		.loc 1 250 2 view .LVU153
 807 0026 8C48     		ldr	r0, .L30+16
 808 0028 FFF7FEFF 		bl	LCD_SetColor
 809              	.LVL114:
 251:Core/Src/lcd_test.c **** 	LCD_DrawImage(  120, 120, 240, 83, Image_FANKE_240x83) ;		// ÊòæÁ§∫LOGOÂõæÁâá
 810              		.loc 1 251 2 view .LVU154
 811 002c 8B4B     		ldr	r3, .L30+20
 812 002e 0093     		str	r3, [sp]
 813 0030 5323     		movs	r3, #83
 814 0032 F022     		movs	r2, #240
 815 0034 7821     		movs	r1, #120
 816 0036 0846     		mov	r0, r1
 817 0038 FFF7FEFF 		bl	LCD_DrawImage
 818              	.LVL115:
 252:Core/Src/lcd_test.c **** 
 253:Core/Src/lcd_test.c **** 	LCD_SetColor(0xff003366);					//	ËÆæÁΩÆÁîªÁ¨îËâ≤Ôºå‰ΩøÁî®Ëá™ÂÆö‰πâÈ¢úËâ≤	
 819              		.loc 1 253 2 view .LVU155
 820 003c 8848     		ldr	r0, .L30+24
 821 003e FFF7FEFF 		bl	LCD_SetColor
 822              	.LVL116:
 254:Core/Src/lcd_test.c **** 	for(i=0;i<100;i++)
 823              		.loc 1 254 2 view .LVU156
 824              		.loc 1 254 7 is_stmt 0 view .LVU157
 825 0042 0024     		movs	r4, #0
 826              		.loc 1 254 2 view .LVU158
 827 0044 0BE0     		b	.L27
 828              	.LVL117:
 829              	.L28:
 255:Core/Src/lcd_test.c ****    {
 256:Core/Src/lcd_test.c **** 		LCD_FillRect(44,228,4*i,6);	// ÁªòÂà∂Áü©ÂΩ¢ÔºåÂÆûÁé∞ÁÆÄÊòìËøõÂ∫¶Êù°ÁöÑÊïàÊûú
 830              		.loc 1 256 3 is_stmt 1 discriminator 3 view .LVU159
 831 0046 A200     		lsls	r2, r4, #2
 832 0048 92B2     		uxth	r2, r2
 833 004a 0623     		movs	r3, #6
 834 004c E421     		movs	r1, #228
 835 004e 2C20     		movs	r0, #44
 836 0050 FFF7FEFF 		bl	LCD_FillRect
 837              	.LVL118:
 257:Core/Src/lcd_test.c **** 		HAL_Delay(15);	
 838              		.loc 1 257 3 discriminator 3 view .LVU160
 839 0054 0F20     		movs	r0, #15
 840 0056 FFF7FEFF 		bl	HAL_Delay
 841              	.LVL119:
 254:Core/Src/lcd_test.c **** 	for(i=0;i<100;i++)
 842              		.loc 1 254 16 discriminator 3 view .LVU161
 254:Core/Src/lcd_test.c **** 	for(i=0;i<100;i++)
 843              		.loc 1 254 17 is_stmt 0 discriminator 3 view .LVU162
 844 005a 0134     		adds	r4, r4, #1
 845              	.LVL120:
 254:Core/Src/lcd_test.c **** 	for(i=0;i<100;i++)
 846              		.loc 1 254 17 discriminator 3 view .LVU163
 847 005c A4B2     		uxth	r4, r4
ARM GAS  C:\Users\OSD\AppData\Local\Temp\cc2NoGol.s 			page 23


 848              	.LVL121:
 849              	.L27:
 254:Core/Src/lcd_test.c **** 	for(i=0;i<100;i++)
 850              		.loc 1 254 10 is_stmt 1 discriminator 1 view .LVU164
 254:Core/Src/lcd_test.c **** 	for(i=0;i<100;i++)
 851              		.loc 1 254 2 is_stmt 0 discriminator 1 view .LVU165
 852 005e 632C     		cmp	r4, #99
 853 0060 F1D9     		bls	.L28
 258:Core/Src/lcd_test.c ****    }
 259:Core/Src/lcd_test.c **** 	
 260:Core/Src/lcd_test.c **** // ÊòæÁ§∫ÊñáÊú¨ÔºåÂåÖÊã¨ÂêÑÁßçÂ≠ó‰ΩìÂ§ßÂ∞èÁöÑ‰∏≠ÊñáÂíåASCIIÂ≠óÁ¨¶ >>>>>
 261:Core/Src/lcd_test.c **** 
 262:Core/Src/lcd_test.c **** 	LCD_SetBackColor(LCD_BLACK); 			//	ËÆæÁΩÆËÉåÊôØËâ≤
 854              		.loc 1 262 2 is_stmt 1 view .LVU166
 855 0062 4FF07F40 		mov	r0, #-16777216
 856 0066 FFF7FEFF 		bl	LCD_SetBackColor
 857              	.LVL122:
 263:Core/Src/lcd_test.c **** 	LCD_Clear(); 								// Ê∏ÖÂ±è
 858              		.loc 1 263 2 view .LVU167
 859 006a FFF7FEFF 		bl	LCD_Clear
 860              	.LVL123:
 264:Core/Src/lcd_test.c **** 	
 265:Core/Src/lcd_test.c **** 	LCD_SetColor(LCD_WHITE);	// ËÆæÁΩÆÁîªÁ¨îÔºåÁôΩËâ≤
 861              		.loc 1 265 2 view .LVU168
 862 006e 4FF0FF30 		mov	r0, #-1
 863 0072 FFF7FEFF 		bl	LCD_SetColor
 864              	.LVL124:
 266:Core/Src/lcd_test.c **** 	LCD_SetFont(&Font32); LCD_DisplayString(0, 0,"!#$%&'()*+,-.0123456789:;<=>?"); 						    	HAL_Dela
 865              		.loc 1 266 2 view .LVU169
 866 0076 7B4D     		ldr	r5, .L30+28
 867 0078 2846     		mov	r0, r5
 868 007a FFF7FEFF 		bl	LCD_SetFont
 869              	.LVL125:
 870              		.loc 1 266 24 view .LVU170
 871 007e 7A4A     		ldr	r2, .L30+32
 872 0080 0021     		movs	r1, #0
 873 0082 0846     		mov	r0, r1
 874 0084 FFF7FEFF 		bl	LCD_DisplayString
 875              	.LVL126:
 876              		.loc 1 266 92 view .LVU171
 877 0088 5020     		movs	r0, #80
 878 008a FFF7FEFF 		bl	HAL_Delay
 879              	.LVL127:
 267:Core/Src/lcd_test.c **** 	LCD_SetFont(&Font24); LCD_DisplayString(0,32,"!#$%&'()*+,-.0123456789:;<=>?@ABCDEFGH"); 				   HAL
 880              		.loc 1 267 2 view .LVU172
 881 008e 774F     		ldr	r7, .L30+36
 882 0090 3846     		mov	r0, r7
 883 0092 FFF7FEFF 		bl	LCD_SetFont
 884              	.LVL128:
 885              		.loc 1 267 24 view .LVU173
 886 0096 764E     		ldr	r6, .L30+40
 887 0098 3246     		mov	r2, r6
 888 009a 2021     		movs	r1, #32
 889 009c 0020     		movs	r0, #0
 890 009e FFF7FEFF 		bl	LCD_DisplayString
 891              	.LVL129:
 892              		.loc 1 267 97 view .LVU174
ARM GAS  C:\Users\OSD\AppData\Local\Temp\cc2NoGol.s 			page 24


 893 00a2 5020     		movs	r0, #80
 894 00a4 FFF7FEFF 		bl	HAL_Delay
 895              	.LVL130:
 268:Core/Src/lcd_test.c **** 	LCD_SetFont(&Font20); LCD_DisplayString(0,56,"!#$%&'()*+,-.0123456789:;<=>?@ABCDEFGHIJKLMNO");    
 896              		.loc 1 268 2 view .LVU175
 897 00a8 DFF80092 		ldr	r9, .L30+100
 898 00ac 4846     		mov	r0, r9
 899 00ae FFF7FEFF 		bl	LCD_SetFont
 900              	.LVL131:
 901              		.loc 1 268 24 view .LVU176
 902 00b2 DFF8FC81 		ldr	r8, .L30+104
 903 00b6 4246     		mov	r2, r8
 904 00b8 3821     		movs	r1, #56
 905 00ba 0020     		movs	r0, #0
 906 00bc FFF7FEFF 		bl	LCD_DisplayString
 907              	.LVL132:
 908              		.loc 1 268 103 view .LVU177
 909 00c0 5020     		movs	r0, #80
 910 00c2 FFF7FEFF 		bl	HAL_Delay
 911              	.LVL133:
 269:Core/Src/lcd_test.c **** 	LCD_SetFont(&Font16); LCD_DisplayString(0,76,"!#$%&'()*+,-.0123456789:;<=>?@ABCDEFGHIJKLMNOPQRST")
 912              		.loc 1 269 2 view .LVU178
 913 00c6 DFF8ECA1 		ldr	r10, .L30+108
 914 00ca 5046     		mov	r0, r10
 915 00cc FFF7FEFF 		bl	LCD_SetFont
 916              	.LVL134:
 917              		.loc 1 269 24 view .LVU179
 918 00d0 684C     		ldr	r4, .L30+44
 919              	.LVL135:
 920              		.loc 1 269 24 is_stmt 0 view .LVU180
 921 00d2 2246     		mov	r2, r4
 922 00d4 4C21     		movs	r1, #76
 923 00d6 0020     		movs	r0, #0
 924 00d8 FFF7FEFF 		bl	LCD_DisplayString
 925              	.LVL136:
 926              		.loc 1 269 103 is_stmt 1 view .LVU181
 927 00dc 5020     		movs	r0, #80
 928 00de FFF7FEFF 		bl	HAL_Delay
 929              	.LVL137:
 270:Core/Src/lcd_test.c **** 	LCD_SetFont(&Font12); LCD_DisplayString(0,92,"!#$%&'()*+,-.0123456789:;<=>?@ABCDEFGHIJKLMNOPQRST")
 930              		.loc 1 270 2 view .LVU182
 931 00e2 DFF8D4B1 		ldr	fp, .L30+112
 932 00e6 5846     		mov	r0, fp
 933 00e8 FFF7FEFF 		bl	LCD_SetFont
 934              	.LVL138:
 935              		.loc 1 270 24 view .LVU183
 936 00ec 2246     		mov	r2, r4
 937 00ee 5C21     		movs	r1, #92
 938 00f0 0020     		movs	r0, #0
 939 00f2 FFF7FEFF 		bl	LCD_DisplayString
 940              	.LVL139:
 941              		.loc 1 270 103 view .LVU184
 942 00f6 5020     		movs	r0, #80
 943 00f8 FFF7FEFF 		bl	HAL_Delay
 944              	.LVL140:
 271:Core/Src/lcd_test.c **** 																																				
 272:Core/Src/lcd_test.c **** 	LCD_SetColor(LCD_CYAN);                                                                           
ARM GAS  C:\Users\OSD\AppData\Local\Temp\cc2NoGol.s 			page 25


 945              		.loc 1 272 2 view .LVU185
 946 00fc 6FF47F00 		mvn	r0, #16711680
 947 0100 FFF7FEFF 		bl	LCD_SetColor
 948              	.LVL141:
 273:Core/Src/lcd_test.c **** 	LCD_SetFont(&Font12); LCD_DisplayString(0,104,"!#$%&'()*+,-.0123456789:;<=>?@ABCDEFGHIJKLMNOPQRST"
 949              		.loc 1 273 2 view .LVU186
 950 0104 5846     		mov	r0, fp
 951 0106 FFF7FEFF 		bl	LCD_SetFont
 952              	.LVL142:
 953              		.loc 1 273 24 view .LVU187
 954 010a 2246     		mov	r2, r4
 955 010c 6821     		movs	r1, #104
 956 010e 0020     		movs	r0, #0
 957 0110 FFF7FEFF 		bl	LCD_DisplayString
 958              	.LVL143:
 959              		.loc 1 273 104 view .LVU188
 960 0114 5020     		movs	r0, #80
 961 0116 FFF7FEFF 		bl	HAL_Delay
 962              	.LVL144:
 274:Core/Src/lcd_test.c **** 	LCD_SetFont(&Font16); LCD_DisplayString(0,116,"!#$%&'()*+,-.0123456789:;<=>?@ABCDEFGHIJKLMNOPQRST"
 963              		.loc 1 274 2 view .LVU189
 964 011a 5046     		mov	r0, r10
 965 011c FFF7FEFF 		bl	LCD_SetFont
 966              	.LVL145:
 967              		.loc 1 274 24 view .LVU190
 968 0120 2246     		mov	r2, r4
 969 0122 7421     		movs	r1, #116
 970 0124 0020     		movs	r0, #0
 971 0126 FFF7FEFF 		bl	LCD_DisplayString
 972              	.LVL146:
 973              		.loc 1 274 104 view .LVU191
 974 012a 5020     		movs	r0, #80
 975 012c FFF7FEFF 		bl	HAL_Delay
 976              	.LVL147:
 275:Core/Src/lcd_test.c **** 	LCD_SetFont(&Font20); LCD_DisplayString(0,132,"!#$%&'()*+,-.0123456789:;<=>?@ABCDEFGHIJKLMNO");		 
 977              		.loc 1 275 2 view .LVU192
 978 0130 4846     		mov	r0, r9
 979 0132 FFF7FEFF 		bl	LCD_SetFont
 980              	.LVL148:
 981              		.loc 1 275 24 view .LVU193
 982 0136 4246     		mov	r2, r8
 983 0138 8421     		movs	r1, #132
 984 013a 0020     		movs	r0, #0
 985 013c FFF7FEFF 		bl	LCD_DisplayString
 986              	.LVL149:
 987              		.loc 1 275 102 view .LVU194
 988 0140 5020     		movs	r0, #80
 989 0142 FFF7FEFF 		bl	HAL_Delay
 990              	.LVL150:
 276:Core/Src/lcd_test.c **** 	LCD_SetFont(&Font24); LCD_DisplayString(0,152,"!#$%&'()*+,-.0123456789:;<=>?@ABCDEFGH"); 				  	HA
 991              		.loc 1 276 2 view .LVU195
 992 0146 3846     		mov	r0, r7
 993 0148 FFF7FEFF 		bl	LCD_SetFont
 994              	.LVL151:
 995              		.loc 1 276 24 view .LVU196
 996 014c 3246     		mov	r2, r6
 997 014e 9821     		movs	r1, #152
ARM GAS  C:\Users\OSD\AppData\Local\Temp\cc2NoGol.s 			page 26


 998 0150 0020     		movs	r0, #0
 999 0152 FFF7FEFF 		bl	LCD_DisplayString
 1000              	.LVL152:
 1001              		.loc 1 276 98 view .LVU197
 1002 0156 5020     		movs	r0, #80
 1003 0158 FFF7FEFF 		bl	HAL_Delay
 1004              	.LVL153:
 277:Core/Src/lcd_test.c **** 	LCD_SetFont(&Font32); LCD_DisplayString(0,176,"!#$%&'()*+,-.0123456789:;<=>?"); 							  	HAL_Dela
 1005              		.loc 1 277 2 view .LVU198
 1006 015c 2846     		mov	r0, r5
 1007 015e FFF7FEFF 		bl	LCD_SetFont
 1008              	.LVL154:
 1009              		.loc 1 277 24 view .LVU199
 1010 0162 414A     		ldr	r2, .L30+32
 1011 0164 B021     		movs	r1, #176
 1012 0166 0020     		movs	r0, #0
 1013 0168 FFF7FEFF 		bl	LCD_DisplayString
 1014              	.LVL155:
 1015              		.loc 1 277 92 view .LVU200
 1016 016c 5020     		movs	r0, #80
 1017 016e FFF7FEFF 		bl	HAL_Delay
 1018              	.LVL156:
 278:Core/Src/lcd_test.c **** 
 279:Core/Src/lcd_test.c **** 	LCD_SetTextFont(&CH_Font24);			// ËÆæÁΩÆ2424‰∏≠ÊñáÂ≠ó‰Ωì,ASCIIÂ≠ó‰ΩìÂØπÂ∫î‰∏∫2412
 1019              		.loc 1 279 2 view .LVU201
 1020 0172 414C     		ldr	r4, .L30+48
 1021 0174 2046     		mov	r0, r4
 1022 0176 FFF7FEFF 		bl	LCD_SetTextFont
 1023              	.LVL157:
 280:Core/Src/lcd_test.c **** 	LCD_SetColor(LCD_YELLOW);				// ËÆæÁΩÆÁîªÁ¨îÔºåÈªÑËâ≤
 1024              		.loc 1 280 2 view .LVU202
 1025 017a 6FF0FF00 		mvn	r0, #255
 1026 017e FFF7FEFF 		bl	LCD_SetColor
 1027              	.LVL158:
 281:Core/Src/lcd_test.c **** 	LCD_DisplayText(0, 210,"ÊñáÊú¨ÊòæÁ§∫ÔºåÂèØÊòæÁ§∫‰∏≠ÊñáÂíåASCIIÂ≠óÁ¨¶ÈõÜ");
 1028              		.loc 1 281 2 view .LVU203
 1029 0182 3E4A     		ldr	r2, .L30+52
 1030 0184 D221     		movs	r1, #210
 1031 0186 0020     		movs	r0, #0
 1032 0188 FFF7FEFF 		bl	LCD_DisplayText
 1033              	.LVL159:
 282:Core/Src/lcd_test.c **** 	LCD_DisplayText(0, 240,"Áî®Êà∑ÂèØÊ†πÊçÆÈúÄÊ±ÇÔºåÂØπÂ≠óÂ∫ìËøõË°åÂ¢ûÊ∑ªÂíåÂà†Âáè");	
 1034              		.loc 1 282 2 view .LVU204
 1035 018c 3C4A     		ldr	r2, .L30+56
 1036 018e F021     		movs	r1, #240
 1037 0190 0020     		movs	r0, #0
 1038 0192 FFF7FEFF 		bl	LCD_DisplayText
 1039              	.LVL160:
 283:Core/Src/lcd_test.c **** 	HAL_Delay(2000);	// Âª∂Êó∂Á≠âÂæÖ
 1040              		.loc 1 283 2 view .LVU205
 1041 0196 4FF4FA60 		mov	r0, #2000
 1042 019a FFF7FEFF 		bl	HAL_Delay
 1043              	.LVL161:
 284:Core/Src/lcd_test.c **** 	
 285:Core/Src/lcd_test.c **** 	LCD_SetBackColor(LCD_BLACK); 			//	ËÆæÁΩÆËÉåÊôØËâ≤
 1044              		.loc 1 285 2 view .LVU206
 1045 019e 4FF07F40 		mov	r0, #-16777216
ARM GAS  C:\Users\OSD\AppData\Local\Temp\cc2NoGol.s 			page 27


 1046 01a2 FFF7FEFF 		bl	LCD_SetBackColor
 1047              	.LVL162:
 286:Core/Src/lcd_test.c **** 	LCD_Clear(); 								// Ê∏ÖÂ±è	
 1048              		.loc 1 286 2 view .LVU207
 1049 01a6 FFF7FEFF 		bl	LCD_Clear
 1050              	.LVL163:
 287:Core/Src/lcd_test.c **** 	
 288:Core/Src/lcd_test.c **** 	LCD_SetTextFont(&CH_Font12);			// ËÆæÁΩÆ1212‰∏≠ÊñáÂ≠ó‰Ωì,ASCIIÂ≠ó‰ΩìÂØπÂ∫î‰∏∫1206
 1051              		.loc 1 288 2 view .LVU208
 1052 01aa 3648     		ldr	r0, .L30+60
 1053 01ac FFF7FEFF 		bl	LCD_SetTextFont
 1054              	.LVL164:
 289:Core/Src/lcd_test.c **** 	LCD_SetColor(LCD_WHITE);				// ËÆæÁΩÆÁîªÁ¨î,ÁôΩËâ≤
 1055              		.loc 1 289 2 view .LVU209
 1056 01b0 4FF0FF30 		mov	r0, #-1
 1057 01b4 FFF7FEFF 		bl	LCD_SetColor
 1058              	.LVL165:
 290:Core/Src/lcd_test.c **** 	LCD_DisplayText(28, 20,"1212‰∏≠ÊñáÂ≠ó‰ΩìÔºöÂèçÂÆ¢ÁßëÊäÄ");	
 1059              		.loc 1 290 2 view .LVU210
 1060 01b8 334A     		ldr	r2, .L30+64
 1061 01ba 1421     		movs	r1, #20
 1062 01bc 1C20     		movs	r0, #28
 1063 01be FFF7FEFF 		bl	LCD_DisplayText
 1064              	.LVL166:
 291:Core/Src/lcd_test.c **** 	
 292:Core/Src/lcd_test.c **** 	LCD_SetTextFont(&CH_Font16);			// ËÆæÁΩÆ1616‰∏≠ÊñáÂ≠ó‰Ωì,ASCIIÂ≠ó‰ΩìÂØπÂ∫î‰∏∫1608
 1065              		.loc 1 292 2 view .LVU211
 1066 01c2 3248     		ldr	r0, .L30+68
 1067 01c4 FFF7FEFF 		bl	LCD_SetTextFont
 1068              	.LVL167:
 293:Core/Src/lcd_test.c **** 	LCD_SetColor(LIGHT_RED);				// ËÆæÁΩÆÁîªÁ¨îÔºå‰∫ÆÁ∫¢Ëâ≤
 1069              		.loc 1 293 2 view .LVU212
 1070 01c8 314D     		ldr	r5, .L30+72
 1071 01ca 2846     		mov	r0, r5
 1072 01cc FFF7FEFF 		bl	LCD_SetColor
 1073              	.LVL168:
 294:Core/Src/lcd_test.c **** 	LCD_DisplayText(28, 48,"1616‰∏≠ÊñáÂ≠ó‰ΩìÔºöÂèçÂÆ¢ÁßëÊäÄ");		
 1074              		.loc 1 294 2 view .LVU213
 1075 01d0 304A     		ldr	r2, .L30+76
 1076 01d2 3021     		movs	r1, #48
 1077 01d4 1C20     		movs	r0, #28
 1078 01d6 FFF7FEFF 		bl	LCD_DisplayText
 1079              	.LVL169:
 295:Core/Src/lcd_test.c **** 	
 296:Core/Src/lcd_test.c **** 	LCD_SetTextFont(&CH_Font20);			// ËÆæÁΩÆ2020‰∏≠ÊñáÂ≠ó‰Ωì,ASCIIÂ≠ó‰ΩìÂØπÂ∫î‰∏∫2010
 1080              		.loc 1 296 2 view .LVU214
 1081 01da 2F48     		ldr	r0, .L30+80
 1082 01dc FFF7FEFF 		bl	LCD_SetTextFont
 1083              	.LVL170:
 297:Core/Src/lcd_test.c **** 	LCD_SetColor(LIGHT_RED);				// ËÆæÁΩÆÁîªÁ¨îÔºå‰∫ÆÁ∫¢Ëâ≤
 1084              		.loc 1 297 2 view .LVU215
 1085 01e0 2846     		mov	r0, r5
 1086 01e2 FFF7FEFF 		bl	LCD_SetColor
 1087              	.LVL171:
 298:Core/Src/lcd_test.c **** 	LCD_DisplayText(28, 82,"2020‰∏≠ÊñáÂ≠ó‰ΩìÔºöÂèçÂÆ¢ÁßëÊäÄ");		
 1088              		.loc 1 298 2 view .LVU216
 1089 01e6 2D4A     		ldr	r2, .L30+84
ARM GAS  C:\Users\OSD\AppData\Local\Temp\cc2NoGol.s 			page 28


 1090 01e8 5221     		movs	r1, #82
 1091 01ea 1C20     		movs	r0, #28
 1092 01ec FFF7FEFF 		bl	LCD_DisplayText
 1093              	.LVL172:
 299:Core/Src/lcd_test.c **** 
 300:Core/Src/lcd_test.c **** 	LCD_SetTextFont(&CH_Font24);			// ËÆæÁΩÆ2424‰∏≠ÊñáÂ≠ó‰Ωì,ASCIIÂ≠ó‰ΩìÂØπÂ∫î‰∏∫2412
 1094              		.loc 1 300 2 view .LVU217
 1095 01f0 2046     		mov	r0, r4
 1096 01f2 FFF7FEFF 		bl	LCD_SetTextFont
 1097              	.LVL173:
 301:Core/Src/lcd_test.c **** 	LCD_SetColor(LIGHT_CYAN);				// ËÆæÁΩÆÁîªÁ¨îÔºåËìùÁªøËâ≤
 1098              		.loc 1 301 2 view .LVU218
 1099 01f6 6FF4FE00 		mvn	r0, #8323072
 1100 01fa FFF7FEFF 		bl	LCD_SetColor
 1101              	.LVL174:
 302:Core/Src/lcd_test.c **** 	LCD_DisplayText(28, 121,"2424‰∏≠ÊñáÂ≠ó‰ΩìÔºöÂèçÂÆ¢ÁßëÊäÄ");		
 1102              		.loc 1 302 2 view .LVU219
 1103 01fe 284A     		ldr	r2, .L30+88
 1104 0200 7921     		movs	r1, #121
 1105 0202 1C20     		movs	r0, #28
 1106 0204 FFF7FEFF 		bl	LCD_DisplayText
 1107              	.LVL175:
 303:Core/Src/lcd_test.c **** 
 304:Core/Src/lcd_test.c **** 	LCD_SetTextFont(&CH_Font32);			// ËÆæÁΩÆ3232‰∏≠ÊñáÂ≠ó‰Ωì,ASCIIÂ≠ó‰ΩìÂØπÂ∫î‰∏∫3216
 1108              		.loc 1 304 2 view .LVU220
 1109 0208 1048     		ldr	r0, .L30+4
 1110 020a FFF7FEFF 		bl	LCD_SetTextFont
 1111              	.LVL176:
 305:Core/Src/lcd_test.c **** 	LCD_SetColor(LIGHT_CYAN);				// ËÆæÁΩÆÁîªÁ¨îÔºåËìùÁªøËâ≤
 1112              		.loc 1 305 2 view .LVU221
 1113 020e 6FF4FE00 		mvn	r0, #8323072
 1114 0212 FFF7FEFF 		bl	LCD_SetColor
 1115              	.LVL177:
 306:Core/Src/lcd_test.c **** 	LCD_DisplayText(28, 160,"3232‰∏≠ÊñáÂ≠ó‰ΩìÔºöÂèçÂÆ¢ÁßëÊäÄ");		
 1116              		.loc 1 306 2 view .LVU222
 1117 0216 234A     		ldr	r2, .L30+92
 1118 0218 A021     		movs	r1, #160
 1119 021a 1C20     		movs	r0, #28
 1120 021c FFF7FEFF 		bl	LCD_DisplayText
 1121              	.LVL178:
 307:Core/Src/lcd_test.c **** 
 308:Core/Src/lcd_test.c **** 	LCD_SetTextFont(&CH_Font24);			// ËÆæÁΩÆ2424‰∏≠ÊñáÂ≠ó‰Ωì,ASCIIÂ≠ó‰ΩìÂØπÂ∫î‰∏∫2412
 1122              		.loc 1 308 2 view .LVU223
 1123 0220 2046     		mov	r0, r4
 1124 0222 FFF7FEFF 		bl	LCD_SetTextFont
 1125              	.LVL179:
 309:Core/Src/lcd_test.c **** 	LCD_SetColor(LIGHT_YELLOW);			// ËÆæÁΩÆÁîªÁ¨îÔºå‰∫ÆÈªÑËâ≤
 1126              		.loc 1 309 2 view .LVU224
 1127 0226 6FF07F00 		mvn	r0, #127
 1128 022a FFF7FEFF 		bl	LCD_SetColor
 1129              	.LVL180:
 310:Core/Src/lcd_test.c **** 	LCD_DisplayText(28, 217,"Ê†∏ÂøÉÊùøÂûãÂè∑ÔºöFK743M3-IIT6");		
 1130              		.loc 1 310 2 view .LVU225
 1131 022e 1E4A     		ldr	r2, .L30+96
 1132 0230 D921     		movs	r1, #217
 1133 0232 1C20     		movs	r0, #28
 1134 0234 FFF7FEFF 		bl	LCD_DisplayText
ARM GAS  C:\Users\OSD\AppData\Local\Temp\cc2NoGol.s 			page 29


 1135              	.LVL181:
 311:Core/Src/lcd_test.c **** 
 312:Core/Src/lcd_test.c **** 	HAL_Delay(2000);	// Âª∂Êó∂Á≠âÂæÖ
 1136              		.loc 1 312 2 view .LVU226
 1137 0238 4FF4FA60 		mov	r0, #2000
 1138 023c FFF7FEFF 		bl	HAL_Delay
 1139              	.LVL182:
 313:Core/Src/lcd_test.c **** }
 1140              		.loc 1 313 1 is_stmt 0 view .LVU227
 1141 0240 03B0     		add	sp, sp, #12
 1142              		.cfi_def_cfa_offset 36
 1143              		@ sp needed
 1144 0242 BDE8F08F 		pop	{r4, r5, r6, r7, r8, r9, r10, fp, pc}
 1145              	.L31:
 1146 0246 00BF     		.align	2
 1147              	.L30:
 1148 0248 F8EDB9FF 		.word	-4592136
 1149 024c 00000000 		.word	CH_Font32
 1150 0250 333333FF 		.word	-13421773
 1151 0254 00000000 		.word	.LC8
 1152 0258 2379FDFF 		.word	-165597
 1153 025c 00000000 		.word	Image_FANKE_240x83
 1154 0260 663300FF 		.word	-16764058
 1155 0264 00000000 		.word	Font32
 1156 0268 10000000 		.word	.LC9
 1157 026c 00000000 		.word	Font24
 1158 0270 30000000 		.word	.LC10
 1159 0274 88000000 		.word	.LC12
 1160 0278 00000000 		.word	CH_Font24
 1161 027c BC000000 		.word	.LC13
 1162 0280 EC000000 		.word	.LC14
 1163 0284 00000000 		.word	CH_Font12
 1164 0288 24010000 		.word	.LC15
 1165 028c 00000000 		.word	CH_Font16
 1166 0290 8080FFFF 		.word	-32640
 1167 0294 44010000 		.word	.LC16
 1168 0298 00000000 		.word	CH_Font20
 1169 029c 64010000 		.word	.LC17
 1170 02a0 84010000 		.word	.LC18
 1171 02a4 A4010000 		.word	.LC19
 1172 02a8 C4010000 		.word	.LC20
 1173 02ac 00000000 		.word	Font20
 1174 02b0 58000000 		.word	.LC11
 1175 02b4 00000000 		.word	Font16
 1176 02b8 00000000 		.word	Font12
 1177              		.cfi_endproc
 1178              	.LFE149:
 1180              		.section	.rodata.LCD_Test_Variable.str1.4,"aMS",%progbits,1
 1181              		.align	2
 1182              	.LC21:
 1183 0000 E58F98E9 		.ascii	"\345\217\230\351\207\217\346\230\276\347\244\272\000"
 1183      878FE698 
 1183      BEE7A4BA 
 1183      00
 1184 000d 000000   		.align	2
 1185              	.LC22:
 1186 0010 E5A49AE4 		.ascii	"\345\244\232\344\275\231\344\275\215\345\241\253\345"
ARM GAS  C:\Users\OSD\AppData\Local\Temp\cc2NoGol.s 			page 30


 1186      BD99E4BD 
 1186      8DE5A1AB 
 1186      E5
 1187 001d 8585E7A9 		.ascii	"\205\205\347\251\272\346\240\274\000"
 1187      BAE6A0BC 
 1187      00
 1188 0026 0000     		.align	2
 1189              	.LC23:
 1190 0028 E5A49AE4 		.ascii	"\345\244\232\344\275\231\344\275\215\345\241\253\345"
 1190      BD99E4BD 
 1190      8DE5A1AB 
 1190      E5
 1191 0035 85853000 		.ascii	"\205\2050\000"
 1192 0039 000000   		.align	2
 1193              	.LC24:
 1194 003c E6ADA3E6 		.ascii	"\346\255\243\346\225\264\346\225\260\357\274\232\000"
 1194      95B4E695 
 1194      B0EFBC9A 
 1194      00
 1195 0049 000000   		.align	2
 1196              	.LC25:
 1197 004c E8B49FE6 		.ascii	"\350\264\237\346\225\264\346\225\260\357\274\232\000"
 1197      95B4E695 
 1197      B0EFBC9A 
 1197      00
 1198 0059 000000   		.align	2
 1199              	.LC26:
 1200 005c E6ADA3E5 		.ascii	"\346\255\243\345\260\217\346\225\260\357\274\232\000"
 1200      B08FE695 
 1200      B0EFBC9A 
 1200      00
 1201 0069 000000   		.align	2
 1202              	.LC27:
 1203 006c E8B49FE5 		.ascii	"\350\264\237\345\260\217\346\225\260\357\274\232\000"
 1203      B08FE695 
 1203      B0EFBC9A 
 1203      00
 1204              		.section	.text.LCD_Test_Variable,"ax",%progbits
 1205              		.align	1
 1206              		.global	LCD_Test_Variable
 1207              		.syntax unified
 1208              		.thumb
 1209              		.thumb_func
 1211              	LCD_Test_Variable:
 1212              	.LFB150:
 314:Core/Src/lcd_test.c **** 
 315:Core/Src/lcd_test.c **** /*************************************************************************************************
 316:Core/Src/lcd_test.c **** *	ÂáΩ Êï∞ Âêç:	LCD_Test_Variable
 317:Core/Src/lcd_test.c **** *
 318:Core/Src/lcd_test.c **** *	ÂáΩÊï∞ÂäüËÉΩ:	ÂèòÈáèÊòæÁ§∫ÔºåÂåÖÊã¨Êï¥Êï∞ÂíåÂ∞èÊï∞
 319:Core/Src/lcd_test.c **** *
 320:Core/Src/lcd_test.c **** *	ËØ¥    Êòé:	Êó†	
 321:Core/Src/lcd_test.c **** *************************************************************************************************/
 322:Core/Src/lcd_test.c **** 
 323:Core/Src/lcd_test.c **** void LCD_Test_Variable (void)
 324:Core/Src/lcd_test.c **** {
 1213              		.loc 1 324 1 is_stmt 1 view -0
ARM GAS  C:\Users\OSD\AppData\Local\Temp\cc2NoGol.s 			page 31


 1214              		.cfi_startproc
 1215              		@ args = 0, pretend = 0, frame = 0
 1216              		@ frame_needed = 0, uses_anonymous_args = 0
 1217 0000 70B5     		push	{r4, r5, r6, lr}
 1218              		.cfi_def_cfa_offset 16
 1219              		.cfi_offset 4, -16
 1220              		.cfi_offset 5, -12
 1221              		.cfi_offset 6, -8
 1222              		.cfi_offset 14, -4
 1223 0002 2DED028B 		vpush.64	{d8}
 1224              		.cfi_def_cfa_offset 24
 1225              		.cfi_offset 80, -24
 1226              		.cfi_offset 81, -20
 1227 0006 82B0     		sub	sp, sp, #8
 1228              		.cfi_def_cfa_offset 32
 325:Core/Src/lcd_test.c **** 
 326:Core/Src/lcd_test.c **** 	uint16_t i;					// ËÆ°Êï∞ÂèòÈáè
 1229              		.loc 1 326 2 view .LVU229
 327:Core/Src/lcd_test.c **** 
 328:Core/Src/lcd_test.c **** 	int32_t	a = 0;			// ÂÆö‰πâÊï¥Êï∞ÂèòÈáèÔºåÁî®‰∫éÊµãËØï
 1230              		.loc 1 328 2 view .LVU230
 1231              	.LVL183:
 329:Core/Src/lcd_test.c **** 	int32_t	b = 0;			// ÂÆö‰πâÊï¥Êï∞ÂèòÈáèÔºåÁî®‰∫éÊµãËØï
 1232              		.loc 1 329 2 view .LVU231
 330:Core/Src/lcd_test.c **** 	int32_t	c = 0;			// ÂÆö‰πâÊï¥Êï∞ÂèòÈáèÔºåÁî®‰∫éÊµãËØï
 1233              		.loc 1 330 2 view .LVU232
 331:Core/Src/lcd_test.c **** 
 332:Core/Src/lcd_test.c **** 	double p = 3.1415926;	// ÂÆö‰πâÊµÆÁÇπÊï∞ÂèòÈáèÔºåÁî®‰∫éÊµãËØï
 1234              		.loc 1 332 2 view .LVU233
 333:Core/Src/lcd_test.c **** 	double f = -1234.1234;	// ÂÆö‰πâÊµÆÁÇπÊï∞ÂèòÈáèÔºåÁî®‰∫éÊµãËØï
 1235              		.loc 1 333 2 view .LVU234
 334:Core/Src/lcd_test.c **** 	
 335:Core/Src/lcd_test.c **** // ÁªòÂà∂ÂàùÂßãÁïåÈù¢ÔºåÂåÖÊã¨Ê†áÈ¢ò„ÄÅLOGO‰ª•ÂèäËøõÂ∫¶Êù°>>>>>
 336:Core/Src/lcd_test.c **** 	
 337:Core/Src/lcd_test.c **** 	LCD_SetBackColor(0xffB9EDF8); 			//	ËÆæÁΩÆËÉåÊôØËâ≤Ôºå‰ΩøÁî®Ëá™ÂÆö‰πâÈ¢úËâ≤
 1236              		.loc 1 337 2 view .LVU235
 1237 0008 7D48     		ldr	r0, .L38+32
 1238 000a FFF7FEFF 		bl	LCD_SetBackColor
 1239              	.LVL184:
 338:Core/Src/lcd_test.c **** 	LCD_Clear(); 									//	Ê∏ÖÂ±èÔºåÂà∑ËÉåÊôØËâ≤
 1240              		.loc 1 338 2 view .LVU236
 1241 000e FFF7FEFF 		bl	LCD_Clear
 1242              	.LVL185:
 339:Core/Src/lcd_test.c **** 	
 340:Core/Src/lcd_test.c **** 	LCD_SetTextFont(&CH_Font32);				// ËÆæÁΩÆ3232‰∏≠ÊñáÂ≠ó‰Ωì,ASCIIÂ≠ó‰ΩìÂØπÂ∫î‰∏∫3216
 1243              		.loc 1 340 2 view .LVU237
 1244 0012 7C48     		ldr	r0, .L38+36
 1245 0014 FFF7FEFF 		bl	LCD_SetTextFont
 1246              	.LVL186:
 341:Core/Src/lcd_test.c **** 	LCD_SetColor(0xff333333);					//	ËÆæÁΩÆÁîªÁ¨îËâ≤Ôºå‰ΩøÁî®Ëá™ÂÆö‰πâÈ¢úËâ≤
 1247              		.loc 1 341 2 view .LVU238
 1248 0018 7B48     		ldr	r0, .L38+40
 1249 001a FFF7FEFF 		bl	LCD_SetColor
 1250              	.LVL187:
 342:Core/Src/lcd_test.c **** 	LCD_DisplayText(176, 87,"ÂèòÈáèÊòæÁ§∫");	// ÊòæÁ§∫ÊñáÊú¨
 1251              		.loc 1 342 2 view .LVU239
 1252 001e 7B4A     		ldr	r2, .L38+44
ARM GAS  C:\Users\OSD\AppData\Local\Temp\cc2NoGol.s 			page 32


 1253 0020 5721     		movs	r1, #87
 1254 0022 B020     		movs	r0, #176
 1255 0024 FFF7FEFF 		bl	LCD_DisplayText
 1256              	.LVL188:
 343:Core/Src/lcd_test.c **** 	
 344:Core/Src/lcd_test.c **** 	LCD_SetColor(0xfffd7923);					//	ËÆæÁΩÆÁîªÁ¨îËâ≤Ôºå‰ΩøÁî®Ëá™ÂÆö‰πâÈ¢úËâ≤
 1257              		.loc 1 344 2 view .LVU240
 1258 0028 7948     		ldr	r0, .L38+48
 1259 002a FFF7FEFF 		bl	LCD_SetColor
 1260              	.LVL189:
 345:Core/Src/lcd_test.c **** 	LCD_DrawImage(  120, 120, 240, 83, Image_FANKE_240x83) ;		// ÊòæÁ§∫LOGOÂõæÁâá
 1261              		.loc 1 345 2 view .LVU241
 1262 002e 794B     		ldr	r3, .L38+52
 1263 0030 0093     		str	r3, [sp]
 1264 0032 5323     		movs	r3, #83
 1265 0034 F022     		movs	r2, #240
 1266 0036 7821     		movs	r1, #120
 1267 0038 0846     		mov	r0, r1
 1268 003a FFF7FEFF 		bl	LCD_DrawImage
 1269              	.LVL190:
 346:Core/Src/lcd_test.c **** 
 347:Core/Src/lcd_test.c **** 	LCD_SetColor(0xff003366);					//	ËÆæÁΩÆÁîªÁ¨îËâ≤Ôºå‰ΩøÁî®Ëá™ÂÆö‰πâÈ¢úËâ≤	
 1270              		.loc 1 347 2 view .LVU242
 1271 003e 7648     		ldr	r0, .L38+56
 1272 0040 FFF7FEFF 		bl	LCD_SetColor
 1273              	.LVL191:
 348:Core/Src/lcd_test.c **** 	for(i=0;i<100;i++)
 1274              		.loc 1 348 2 view .LVU243
 1275              		.loc 1 348 7 is_stmt 0 view .LVU244
 1276 0044 0024     		movs	r4, #0
 1277              		.loc 1 348 2 view .LVU245
 1278 0046 0BE0     		b	.L33
 1279              	.LVL192:
 1280              	.L34:
 349:Core/Src/lcd_test.c ****    {
 350:Core/Src/lcd_test.c **** 		LCD_FillRect(44,228,4*i,6);	// ÁªòÂà∂Áü©ÂΩ¢ÔºåÂÆûÁé∞ÁÆÄÊòìËøõÂ∫¶Êù°ÁöÑÊïàÊûú
 1281              		.loc 1 350 3 is_stmt 1 discriminator 3 view .LVU246
 1282 0048 A200     		lsls	r2, r4, #2
 1283 004a 92B2     		uxth	r2, r2
 1284 004c 0623     		movs	r3, #6
 1285 004e E421     		movs	r1, #228
 1286 0050 2C20     		movs	r0, #44
 1287 0052 FFF7FEFF 		bl	LCD_FillRect
 1288              	.LVL193:
 351:Core/Src/lcd_test.c **** 		HAL_Delay(15);	
 1289              		.loc 1 351 3 discriminator 3 view .LVU247
 1290 0056 0F20     		movs	r0, #15
 1291 0058 FFF7FEFF 		bl	HAL_Delay
 1292              	.LVL194:
 348:Core/Src/lcd_test.c **** 	for(i=0;i<100;i++)
 1293              		.loc 1 348 16 discriminator 3 view .LVU248
 348:Core/Src/lcd_test.c **** 	for(i=0;i<100;i++)
 1294              		.loc 1 348 17 is_stmt 0 discriminator 3 view .LVU249
 1295 005c 0134     		adds	r4, r4, #1
 1296              	.LVL195:
 348:Core/Src/lcd_test.c **** 	for(i=0;i<100;i++)
 1297              		.loc 1 348 17 discriminator 3 view .LVU250
ARM GAS  C:\Users\OSD\AppData\Local\Temp\cc2NoGol.s 			page 33


 1298 005e A4B2     		uxth	r4, r4
 1299              	.LVL196:
 1300              	.L33:
 348:Core/Src/lcd_test.c **** 	for(i=0;i<100;i++)
 1301              		.loc 1 348 10 is_stmt 1 discriminator 1 view .LVU251
 348:Core/Src/lcd_test.c **** 	for(i=0;i<100;i++)
 1302              		.loc 1 348 2 is_stmt 0 discriminator 1 view .LVU252
 1303 0060 632C     		cmp	r4, #99
 1304 0062 F1D9     		bls	.L34
 352:Core/Src/lcd_test.c ****    }
 353:Core/Src/lcd_test.c **** 	
 354:Core/Src/lcd_test.c **** // ÊòæÁ§∫Ê≠£Êï¥Êï∞„ÄÅË¥üÊï¥Êï∞„ÄÅÂ∞èÊï∞>>>>>	
 355:Core/Src/lcd_test.c **** 	
 356:Core/Src/lcd_test.c **** 	LCD_SetBackColor(LCD_BLACK); 			//	ËÆæÁΩÆËÉåÊôØËâ≤
 1305              		.loc 1 356 2 is_stmt 1 view .LVU253
 1306 0064 4FF07F40 		mov	r0, #-16777216
 1307 0068 FFF7FEFF 		bl	LCD_SetBackColor
 1308              	.LVL197:
 357:Core/Src/lcd_test.c **** 	LCD_Clear(); 								// Ê∏ÖÂ±è
 1309              		.loc 1 357 2 view .LVU254
 1310 006c FFF7FEFF 		bl	LCD_Clear
 1311              	.LVL198:
 358:Core/Src/lcd_test.c **** 	
 359:Core/Src/lcd_test.c **** 	LCD_SetTextFont(&CH_Font24);				// ËÆæÁΩÆ2424‰∏≠ÊñáÂ≠ó‰Ωì,ASCIIÂ≠ó‰ΩìÂØπÂ∫î‰∏∫2412
 1312              		.loc 1 359 2 view .LVU255
 1313 0070 6A48     		ldr	r0, .L38+60
 1314 0072 FFF7FEFF 		bl	LCD_SetTextFont
 1315              	.LVL199:
 360:Core/Src/lcd_test.c **** 	LCD_SetColor(LCD_WHITE);					// ËÆæÁΩÆÁîªÁ¨î,ÁôΩËâ≤
 1316              		.loc 1 360 2 view .LVU256
 1317 0076 4FF0FF30 		mov	r0, #-1
 1318 007a FFF7FEFF 		bl	LCD_SetColor
 1319              	.LVL200:
 361:Core/Src/lcd_test.c **** 	
 362:Core/Src/lcd_test.c **** 	LCD_DisplayText(28, 20,"Â§ö‰Ωô‰ΩçÂ°´ÂÖÖÁ©∫Ê†º");	// ÊòæÁ§∫ÊñáÊú¨	
 1320              		.loc 1 362 2 view .LVU257
 1321 007e 684A     		ldr	r2, .L38+64
 1322 0080 1421     		movs	r1, #20
 1323 0082 1C20     		movs	r0, #28
 1324 0084 FFF7FEFF 		bl	LCD_DisplayText
 1325              	.LVL201:
 363:Core/Src/lcd_test.c **** 	LCD_DisplayText(261,20,"Â§ö‰Ωô‰ΩçÂ°´ÂÖÖ0");		// ÊòæÁ§∫ÊñáÊú¨		
 1326              		.loc 1 363 2 view .LVU258
 1327 0088 664A     		ldr	r2, .L38+68
 1328 008a 1421     		movs	r1, #20
 1329 008c 40F20510 		movw	r0, #261
 1330 0090 FFF7FEFF 		bl	LCD_DisplayText
 1331              	.LVL202:
 364:Core/Src/lcd_test.c **** 	
 365:Core/Src/lcd_test.c **** 	LCD_SetColor(LIGHT_CYAN);					// ËÆæÁΩÆÁîªÁ¨îÔºåËìùÁªøËâ≤
 1332              		.loc 1 365 2 view .LVU259
 1333 0094 6FF4FE00 		mvn	r0, #8323072
 1334 0098 FFF7FEFF 		bl	LCD_SetColor
 1335              	.LVL203:
 366:Core/Src/lcd_test.c **** 	LCD_DisplayText(28, 61,"Ê≠£Êï¥Êï∞Ôºö");				
 1336              		.loc 1 366 2 view .LVU260
 1337 009c 624C     		ldr	r4, .L38+72
ARM GAS  C:\Users\OSD\AppData\Local\Temp\cc2NoGol.s 			page 34


 1338              	.LVL204:
 1339              		.loc 1 366 2 is_stmt 0 view .LVU261
 1340 009e 2246     		mov	r2, r4
 1341 00a0 3D21     		movs	r1, #61
 1342 00a2 1C20     		movs	r0, #28
 1343 00a4 FFF7FEFF 		bl	LCD_DisplayText
 1344              	.LVL205:
 367:Core/Src/lcd_test.c **** 	LCD_DisplayText(28, 92,"Ê≠£Êï¥Êï∞Ôºö");				
 1345              		.loc 1 367 2 is_stmt 1 view .LVU262
 1346 00a8 2246     		mov	r2, r4
 1347 00aa 5C21     		movs	r1, #92
 1348 00ac 1C20     		movs	r0, #28
 1349 00ae FFF7FEFF 		bl	LCD_DisplayText
 1350              	.LVL206:
 368:Core/Src/lcd_test.c **** 	LCD_DisplayText(28,123,"Ë¥üÊï¥Êï∞Ôºö");					
 1351              		.loc 1 368 2 view .LVU263
 1352 00b2 5E4D     		ldr	r5, .L38+76
 1353 00b4 2A46     		mov	r2, r5
 1354 00b6 7B21     		movs	r1, #123
 1355 00b8 1C20     		movs	r0, #28
 1356 00ba FFF7FEFF 		bl	LCD_DisplayText
 1357              	.LVL207:
 369:Core/Src/lcd_test.c **** 				
 370:Core/Src/lcd_test.c **** 	LCD_SetColor(LIGHT_YELLOW);				// ËÆæÁΩÆÁîªÁ¨îÔºå‰∫ÆÈªÑËâ≤		
 1358              		.loc 1 370 2 view .LVU264
 1359 00be 6FF07F00 		mvn	r0, #127
 1360 00c2 FFF7FEFF 		bl	LCD_SetColor
 1361              	.LVL208:
 371:Core/Src/lcd_test.c **** 	LCD_DisplayText(261, 61,"Ê≠£Êï¥Êï∞Ôºö");	
 1362              		.loc 1 371 2 view .LVU265
 1363 00c6 2246     		mov	r2, r4
 1364 00c8 3D21     		movs	r1, #61
 1365 00ca 40F20510 		movw	r0, #261
 1366 00ce FFF7FEFF 		bl	LCD_DisplayText
 1367              	.LVL209:
 372:Core/Src/lcd_test.c **** 	LCD_DisplayText(261, 94,"Ê≠£Êï¥Êï∞Ôºö");	
 1368              		.loc 1 372 2 view .LVU266
 1369 00d2 2246     		mov	r2, r4
 1370 00d4 5E21     		movs	r1, #94
 1371 00d6 40F20510 		movw	r0, #261
 1372 00da FFF7FEFF 		bl	LCD_DisplayText
 1373              	.LVL210:
 373:Core/Src/lcd_test.c **** 	LCD_DisplayText(261,127,"Ë¥üÊï¥Êï∞Ôºö");	
 1374              		.loc 1 373 2 view .LVU267
 1375 00de 2A46     		mov	r2, r5
 1376 00e0 7F21     		movs	r1, #127
 1377 00e2 40F20510 		movw	r0, #261
 1378 00e6 FFF7FEFF 		bl	LCD_DisplayText
 1379              	.LVL211:
 374:Core/Src/lcd_test.c **** 			
 375:Core/Src/lcd_test.c **** 	LCD_SetColor(LIGHT_RED);					// ËÆæÁΩÆÁîªÁ¨î	Ôºå‰∫ÆÁ∫¢Ëâ≤		
 1380              		.loc 1 375 2 view .LVU268
 1381 00ea 5148     		ldr	r0, .L38+80
 1382 00ec FFF7FEFF 		bl	LCD_SetColor
 1383              	.LVL212:
 376:Core/Src/lcd_test.c **** 	LCD_DisplayText(28, 171,"Ê≠£Â∞èÊï∞Ôºö");	
 1384              		.loc 1 376 2 view .LVU269
ARM GAS  C:\Users\OSD\AppData\Local\Temp\cc2NoGol.s 			page 35


 1385 00f0 504A     		ldr	r2, .L38+84
 1386 00f2 AB21     		movs	r1, #171
 1387 00f4 1C20     		movs	r0, #28
 1388 00f6 FFF7FEFF 		bl	LCD_DisplayText
 1389              	.LVL213:
 377:Core/Src/lcd_test.c **** 	LCD_DisplayText(28, 202,"Ë¥üÂ∞èÊï∞Ôºö");			
 1390              		.loc 1 377 2 view .LVU270
 1391 00fa 4F4A     		ldr	r2, .L38+88
 1392 00fc CA21     		movs	r1, #202
 1393 00fe 1C20     		movs	r0, #28
 1394 0100 FFF7FEFF 		bl	LCD_DisplayText
 1395              	.LVL214:
 378:Core/Src/lcd_test.c **** 			
 379:Core/Src/lcd_test.c **** 	for(i=0;i<100;i++)
 1396              		.loc 1 379 2 view .LVU271
 1397              		.loc 1 379 7 is_stmt 0 view .LVU272
 1398 0104 0024     		movs	r4, #0
 1399              		.loc 1 379 2 view .LVU273
 1400 0106 60E0     		b	.L35
 1401              	.LVL215:
 1402              	.L36:
 380:Core/Src/lcd_test.c ****    {
 381:Core/Src/lcd_test.c **** 		LCD_SetColor(LIGHT_CYAN);									// ËÆæÁΩÆÁîªÁ¨î	ÔºåËìùÁªøËâ≤	
 1403              		.loc 1 381 3 is_stmt 1 discriminator 3 view .LVU274
 1404 0108 6FF4FE00 		mvn	r0, #8323072
 1405 010c FFF7FEFF 		bl	LCD_SetColor
 1406              	.LVL216:
 382:Core/Src/lcd_test.c **** 		LCD_ShowNumMode(Fill_Space);								// Â§ö‰Ωô‰ΩçÂ°´ÂÖÖÁ©∫Ê†º
 1407              		.loc 1 382 3 discriminator 3 view .LVU275
 1408 0110 0120     		movs	r0, #1
 1409 0112 FFF7FEFF 		bl	LCD_ShowNumMode
 1410              	.LVL217:
 383:Core/Src/lcd_test.c **** 		LCD_DisplayNumber( 120,  61, a+i*125, 8) ;			// ÊòæÁ§∫ÂèòÈáè		
 1411              		.loc 1 383 3 discriminator 3 view .LVU276
 1412              		.loc 1 383 35 is_stmt 0 discriminator 3 view .LVU277
 1413 0116 C4EB4415 		rsb	r5, r4, r4, lsl #5
 1414 011a 04EB8505 		add	r5, r4, r5, lsl #2
 1415              		.loc 1 383 3 discriminator 3 view .LVU278
 1416 011e 0823     		movs	r3, #8
 1417 0120 2A46     		mov	r2, r5
 1418 0122 3D21     		movs	r1, #61
 1419 0124 7820     		movs	r0, #120
 1420 0126 FFF7FEFF 		bl	LCD_DisplayNumber
 1421              	.LVL218:
 384:Core/Src/lcd_test.c **** 		LCD_DisplayNumber( 120,  92, b+i, 	  6) ;			// ÊòæÁ§∫ÂèòÈáè			
 1422              		.loc 1 384 3 is_stmt 1 discriminator 3 view .LVU279
 1423 012a 0623     		movs	r3, #6
 1424 012c 2246     		mov	r2, r4
 1425 012e 5C21     		movs	r1, #92
 1426 0130 7820     		movs	r0, #120
 1427 0132 FFF7FEFF 		bl	LCD_DisplayNumber
 1428              	.LVL219:
 385:Core/Src/lcd_test.c **** 		LCD_DisplayNumber( 120, 123, c-i,     6) ;			// ÊòæÁ§∫ÂèòÈáè			
 1429              		.loc 1 385 3 discriminator 3 view .LVU280
 1430 0136 6642     		rsbs	r6, r4, #0
 1431 0138 0623     		movs	r3, #6
 1432 013a 3246     		mov	r2, r6
ARM GAS  C:\Users\OSD\AppData\Local\Temp\cc2NoGol.s 			page 36


 1433 013c 7B21     		movs	r1, #123
 1434 013e 7820     		movs	r0, #120
 1435 0140 FFF7FEFF 		bl	LCD_DisplayNumber
 1436              	.LVL220:
 386:Core/Src/lcd_test.c **** 		
 387:Core/Src/lcd_test.c **** 		LCD_SetColor(LIGHT_YELLOW);								// ËÆæÁΩÆÁîªÁ¨îÔºå‰∫ÆÈªÑËâ≤	
 1437              		.loc 1 387 3 discriminator 3 view .LVU281
 1438 0144 6FF07F00 		mvn	r0, #127
 1439 0148 FFF7FEFF 		bl	LCD_SetColor
 1440              	.LVL221:
 388:Core/Src/lcd_test.c **** 		LCD_ShowNumMode(Fill_Zero);								// Â§ö‰Ωô‰ΩçÂ°´ÂÖÖ0
 1441              		.loc 1 388 3 discriminator 3 view .LVU282
 1442 014c 0020     		movs	r0, #0
 1443 014e FFF7FEFF 		bl	LCD_ShowNumMode
 1444              	.LVL222:
 389:Core/Src/lcd_test.c **** 		LCD_DisplayNumber( 353,  61, a+i*125, 8) ;			// ÊòæÁ§∫ÂèòÈáè		
 1445              		.loc 1 389 3 discriminator 3 view .LVU283
 1446 0152 0823     		movs	r3, #8
 1447 0154 2A46     		mov	r2, r5
 1448 0156 3D21     		movs	r1, #61
 1449 0158 40F26110 		movw	r0, #353
 1450 015c FFF7FEFF 		bl	LCD_DisplayNumber
 1451              	.LVL223:
 390:Core/Src/lcd_test.c **** 		LCD_DisplayNumber( 353,  92, b+i, 	  6) ;			// ÊòæÁ§∫ÂèòÈáè			
 1452              		.loc 1 390 3 discriminator 3 view .LVU284
 1453 0160 0623     		movs	r3, #6
 1454 0162 2246     		mov	r2, r4
 1455 0164 5C21     		movs	r1, #92
 1456 0166 40F26110 		movw	r0, #353
 1457 016a FFF7FEFF 		bl	LCD_DisplayNumber
 1458              	.LVL224:
 391:Core/Src/lcd_test.c **** 		LCD_DisplayNumber( 353, 123, c-i,     6) ;			// ÊòæÁ§∫ÂèòÈáè				
 1459              		.loc 1 391 3 discriminator 3 view .LVU285
 1460 016e 0623     		movs	r3, #6
 1461 0170 3246     		mov	r2, r6
 1462 0172 7B21     		movs	r1, #123
 1463 0174 40F26110 		movw	r0, #353
 1464 0178 FFF7FEFF 		bl	LCD_DisplayNumber
 1465              	.LVL225:
 392:Core/Src/lcd_test.c **** 		
 393:Core/Src/lcd_test.c **** 		LCD_SetColor(LIGHT_RED);						// ËÆæÁΩÆÁîªÁ¨îÔºå‰∫ÆÁ∫¢Ëâ≤			
 1466              		.loc 1 393 3 discriminator 3 view .LVU286
 1467 017c 2C48     		ldr	r0, .L38+80
 1468 017e FFF7FEFF 		bl	LCD_SetColor
 1469              	.LVL226:
 394:Core/Src/lcd_test.c **** 		LCD_ShowNumMode(Fill_Space);					// Â§ö‰Ωô‰ΩçÂ°´ÂÖÖÁ©∫Ê†º		
 1470              		.loc 1 394 3 discriminator 3 view .LVU287
 1471 0182 0120     		movs	r0, #1
 1472 0184 FFF7FEFF 		bl	LCD_ShowNumMode
 1473              	.LVL227:
 395:Core/Src/lcd_test.c **** 		LCD_DisplayDecimals( 120, 171, p+i*0.1,  6,3);	// ÊòæÁ§∫Â∞èÊï∞	
 1474              		.loc 1 395 3 discriminator 3 view .LVU288
 1475              		.loc 1 395 37 is_stmt 0 discriminator 3 view .LVU289
 1476 0188 07EE904A 		vmov	s15, r4	@ int
 1477 018c B8EEE78B 		vcvt.f64.s32	d8, s15
 1478              		.loc 1 395 3 discriminator 3 view .LVU290
 1479 0190 0323     		movs	r3, #3
ARM GAS  C:\Users\OSD\AppData\Local\Temp\cc2NoGol.s 			page 37


 1480 0192 0622     		movs	r2, #6
 1481 0194 9FED127B 		vldr.64	d7, .L38
 1482 0198 9FED130B 		vldr.64	d0, .L38+8
 1483 019c 08EE070B 		vmla.f64	d0, d8, d7
 1484 01a0 AB21     		movs	r1, #171
 1485 01a2 7820     		movs	r0, #120
 1486 01a4 FFF7FEFF 		bl	LCD_DisplayDecimals
 1487              	.LVL228:
 396:Core/Src/lcd_test.c **** 		LCD_DisplayDecimals( 120, 202, f+i*0.01, 11,4);	// ÊòæÁ§∫Â∞èÊï∞		
 1488              		.loc 1 396 3 is_stmt 1 discriminator 3 view .LVU291
 1489 01a8 0423     		movs	r3, #4
 1490 01aa 0B22     		movs	r2, #11
 1491 01ac 9FED107B 		vldr.64	d7, .L38+16
 1492 01b0 9FED110B 		vldr.64	d0, .L38+24
 1493 01b4 18EE070B 		vnmls.f64	d0, d8, d7
 1494 01b8 CA21     		movs	r1, #202
 1495 01ba 7820     		movs	r0, #120
 1496 01bc FFF7FEFF 		bl	LCD_DisplayDecimals
 1497              	.LVL229:
 397:Core/Src/lcd_test.c **** 		
 398:Core/Src/lcd_test.c **** 		HAL_Delay(40);				
 1498              		.loc 1 398 3 discriminator 3 view .LVU292
 1499 01c0 2820     		movs	r0, #40
 1500 01c2 FFF7FEFF 		bl	HAL_Delay
 1501              	.LVL230:
 379:Core/Src/lcd_test.c ****    {
 1502              		.loc 1 379 16 discriminator 3 view .LVU293
 379:Core/Src/lcd_test.c ****    {
 1503              		.loc 1 379 17 is_stmt 0 discriminator 3 view .LVU294
 1504 01c6 0134     		adds	r4, r4, #1
 1505              	.LVL231:
 379:Core/Src/lcd_test.c ****    {
 1506              		.loc 1 379 17 discriminator 3 view .LVU295
 1507 01c8 A4B2     		uxth	r4, r4
 1508              	.LVL232:
 1509              	.L35:
 379:Core/Src/lcd_test.c ****    {
 1510              		.loc 1 379 10 is_stmt 1 discriminator 1 view .LVU296
 379:Core/Src/lcd_test.c ****    {
 1511              		.loc 1 379 2 is_stmt 0 discriminator 1 view .LVU297
 1512 01ca 632C     		cmp	r4, #99
 1513 01cc 9CD9     		bls	.L36
 399:Core/Src/lcd_test.c ****    }
 400:Core/Src/lcd_test.c **** 	
 401:Core/Src/lcd_test.c **** 	HAL_Delay(2500);		
 1514              		.loc 1 401 2 is_stmt 1 view .LVU298
 1515 01ce 40F6C410 		movw	r0, #2500
 1516 01d2 FFF7FEFF 		bl	HAL_Delay
 1517              	.LVL233:
 402:Core/Src/lcd_test.c **** 	
 403:Core/Src/lcd_test.c **** }
 1518              		.loc 1 403 1 is_stmt 0 view .LVU299
 1519 01d6 02B0     		add	sp, sp, #8
 1520              		.cfi_def_cfa_offset 24
 1521              		@ sp needed
 1522 01d8 BDEC028B 		vldm	sp!, {d8}
 1523              		.cfi_restore 80
ARM GAS  C:\Users\OSD\AppData\Local\Temp\cc2NoGol.s 			page 38


 1524              		.cfi_restore 81
 1525              		.cfi_def_cfa_offset 16
 1526 01dc 70BD     		pop	{r4, r5, r6, pc}
 1527              	.LVL234:
 1528              	.L39:
 1529              		.loc 1 403 1 view .LVU300
 1530 01de 00BF     		.align	3
 1531              	.L38:
 1532 01e0 9A999999 		.word	-1717986918
 1533 01e4 9999B93F 		.word	1069128089
 1534 01e8 4AD8124D 		.word	1293080650
 1535 01ec FB210940 		.word	1074340347
 1536 01f0 7B14AE47 		.word	1202590843
 1537 01f4 E17A843F 		.word	1065646817
 1538 01f8 4ED1915C 		.word	1553060174
 1539 01fc 7E489340 		.word	1083394174
 1540 0200 F8EDB9FF 		.word	-4592136
 1541 0204 00000000 		.word	CH_Font32
 1542 0208 333333FF 		.word	-13421773
 1543 020c 00000000 		.word	.LC21
 1544 0210 2379FDFF 		.word	-165597
 1545 0214 00000000 		.word	Image_FANKE_240x83
 1546 0218 663300FF 		.word	-16764058
 1547 021c 00000000 		.word	CH_Font24
 1548 0220 10000000 		.word	.LC22
 1549 0224 28000000 		.word	.LC23
 1550 0228 3C000000 		.word	.LC24
 1551 022c 4C000000 		.word	.LC25
 1552 0230 8080FFFF 		.word	-32640
 1553 0234 5C000000 		.word	.LC26
 1554 0238 6C000000 		.word	.LC27
 1555              		.cfi_endproc
 1556              	.LFE150:
 1558              		.section	.rodata.LCD_Test_FillRect.str1.4,"aMS",%progbits,1
 1559              		.align	2
 1560              	.LC28:
 1561 0000 E79FA9E5 		.ascii	"\347\237\251\345\275\242\345\241\253\345\205\205\000"
 1561      BDA2E5A1 
 1561      ABE58585 
 1561      00
 1562 000d 000000   		.align	2
 1563              	.LC29:
 1564 0010 4C43445F 		.ascii	"LCD_BLUE\000"
 1564      424C5545 
 1564      00
 1565 0019 000000   		.align	2
 1566              	.LC30:
 1567 001c 4C43445F 		.ascii	"LCD_GREEN\000"
 1567      47524545 
 1567      4E00
 1568 0026 0000     		.align	2
 1569              	.LC31:
 1570 0028 4C43445F 		.ascii	"LCD_RED\000"
 1570      52454400 
 1571              		.align	2
 1572              	.LC32:
 1573 0030 4C43445F 		.ascii	"LCD_CYAN\000"
ARM GAS  C:\Users\OSD\AppData\Local\Temp\cc2NoGol.s 			page 39


 1573      4359414E 
 1573      00
 1574 0039 000000   		.align	2
 1575              	.LC33:
 1576 003c 4C43445F 		.ascii	"LCD_MAGENTA\000"
 1576      4D414745 
 1576      4E544100 
 1577              		.align	2
 1578              	.LC34:
 1579 0048 4C43445F 		.ascii	"LCD_YELLOW\000"
 1579      59454C4C 
 1579      4F5700
 1580 0053 00       		.align	2
 1581              	.LC35:
 1582 0054 4C43445F 		.ascii	"LCD_GREY\000"
 1582      47524559 
 1582      00
 1583 005d 000000   		.align	2
 1584              	.LC36:
 1585 0060 4C494748 		.ascii	"LIGHT_BLUE\000"
 1585      545F424C 
 1585      554500
 1586 006b 00       		.align	2
 1587              	.LC37:
 1588 006c 4C494748 		.ascii	"LIGHT_GREEN\000"
 1588      545F4752 
 1588      45454E00 
 1589              		.align	2
 1590              	.LC38:
 1591 0078 4C494748 		.ascii	"LIGHT_RED\000"
 1591      545F5245 
 1591      4400
 1592 0082 0000     		.align	2
 1593              	.LC39:
 1594 0084 4C494748 		.ascii	"LIGHT_CYAN\000"
 1594      545F4359 
 1594      414E00
 1595 008f 00       		.align	2
 1596              	.LC40:
 1597 0090 4C494748 		.ascii	"LIGHT_MAGENTA\000"
 1597      545F4D41 
 1597      47454E54 
 1597      4100
 1598              		.section	.text.LCD_Test_FillRect,"ax",%progbits
 1599              		.align	1
 1600              		.global	LCD_Test_FillRect
 1601              		.syntax unified
 1602              		.thumb
 1603              		.thumb_func
 1605              	LCD_Test_FillRect:
 1606              	.LFB151:
 404:Core/Src/lcd_test.c **** 
 405:Core/Src/lcd_test.c **** 
 406:Core/Src/lcd_test.c **** 
 407:Core/Src/lcd_test.c **** /*************************************************************************************************
 408:Core/Src/lcd_test.c **** *	ÂáΩ Êï∞ Âêç:	LCD_Test_FillRect
 409:Core/Src/lcd_test.c **** *
ARM GAS  C:\Users\OSD\AppData\Local\Temp\cc2NoGol.s 			page 40


 410:Core/Src/lcd_test.c **** *	ÂáΩÊï∞ÂäüËÉΩ:	Áü©ÂΩ¢Â°´ÂÖÖÊµãËØï
 411:Core/Src/lcd_test.c **** *
 412:Core/Src/lcd_test.c **** *	ËØ¥    Êòé:	Êó†	
 413:Core/Src/lcd_test.c **** *************************************************************************************************/
 414:Core/Src/lcd_test.c **** 
 415:Core/Src/lcd_test.c **** void LCD_Test_FillRect(void)
 416:Core/Src/lcd_test.c **** {
 1607              		.loc 1 416 1 is_stmt 1 view -0
 1608              		.cfi_startproc
 1609              		@ args = 0, pretend = 0, frame = 0
 1610              		@ frame_needed = 0, uses_anonymous_args = 0
 1611 0000 10B5     		push	{r4, lr}
 1612              		.cfi_def_cfa_offset 8
 1613              		.cfi_offset 4, -8
 1614              		.cfi_offset 14, -4
 1615 0002 82B0     		sub	sp, sp, #8
 1616              		.cfi_def_cfa_offset 16
 417:Core/Src/lcd_test.c **** 	uint16_t i;					// ËÆ°Êï∞ÂèòÈáè
 1617              		.loc 1 417 2 view .LVU302
 418:Core/Src/lcd_test.c **** 	
 419:Core/Src/lcd_test.c **** // ÁªòÂà∂ÂàùÂßãÁïåÈù¢ÔºåÂåÖÊã¨Ê†áÈ¢ò„ÄÅLOGO‰ª•ÂèäËøõÂ∫¶Êù°>>>>>
 420:Core/Src/lcd_test.c **** 	
 421:Core/Src/lcd_test.c **** 	LCD_SetBackColor(0xffB9EDF8); 			//	ËÆæÁΩÆËÉåÊôØËâ≤Ôºå‰ΩøÁî®Ëá™ÂÆö‰πâÈ¢úËâ≤
 1618              		.loc 1 421 2 view .LVU303
 1619 0004 7B48     		ldr	r0, .L44
 1620 0006 FFF7FEFF 		bl	LCD_SetBackColor
 1621              	.LVL235:
 422:Core/Src/lcd_test.c **** 	LCD_Clear(); 									//	Ê∏ÖÂ±èÔºåÂà∑ËÉåÊôØËâ≤
 1622              		.loc 1 422 2 view .LVU304
 1623 000a FFF7FEFF 		bl	LCD_Clear
 1624              	.LVL236:
 423:Core/Src/lcd_test.c **** 	
 424:Core/Src/lcd_test.c **** 	LCD_SetTextFont(&CH_Font32);				// ËÆæÁΩÆ3232‰∏≠ÊñáÂ≠ó‰Ωì,ASCIIÂ≠ó‰ΩìÂØπÂ∫î‰∏∫3216
 1625              		.loc 1 424 2 view .LVU305
 1626 000e 7A48     		ldr	r0, .L44+4
 1627 0010 FFF7FEFF 		bl	LCD_SetTextFont
 1628              	.LVL237:
 425:Core/Src/lcd_test.c **** 	LCD_SetColor(0xff333333);					//	ËÆæÁΩÆÁîªÁ¨îËâ≤Ôºå‰ΩøÁî®Ëá™ÂÆö‰πâÈ¢úËâ≤
 1629              		.loc 1 425 2 view .LVU306
 1630 0014 7948     		ldr	r0, .L44+8
 1631 0016 FFF7FEFF 		bl	LCD_SetColor
 1632              	.LVL238:
 426:Core/Src/lcd_test.c **** 	LCD_DisplayText(176, 87,"Áü©ÂΩ¢Â°´ÂÖÖ");	// ÊòæÁ§∫ÊñáÊú¨
 1633              		.loc 1 426 2 view .LVU307
 1634 001a 794A     		ldr	r2, .L44+12
 1635 001c 5721     		movs	r1, #87
 1636 001e B020     		movs	r0, #176
 1637 0020 FFF7FEFF 		bl	LCD_DisplayText
 1638              	.LVL239:
 427:Core/Src/lcd_test.c **** 	
 428:Core/Src/lcd_test.c **** 	LCD_SetColor(0xfffd7923);					//	ËÆæÁΩÆÁîªÁ¨îËâ≤Ôºå‰ΩøÁî®Ëá™ÂÆö‰πâÈ¢úËâ≤
 1639              		.loc 1 428 2 view .LVU308
 1640 0024 7748     		ldr	r0, .L44+16
 1641 0026 FFF7FEFF 		bl	LCD_SetColor
 1642              	.LVL240:
 429:Core/Src/lcd_test.c **** 	LCD_DrawImage(  120, 120, 240, 83, Image_FANKE_240x83) ;		// ÊòæÁ§∫LOGOÂõæÁâá
 1643              		.loc 1 429 2 view .LVU309
ARM GAS  C:\Users\OSD\AppData\Local\Temp\cc2NoGol.s 			page 41


 1644 002a 774B     		ldr	r3, .L44+20
 1645 002c 0093     		str	r3, [sp]
 1646 002e 5323     		movs	r3, #83
 1647 0030 F022     		movs	r2, #240
 1648 0032 7821     		movs	r1, #120
 1649 0034 0846     		mov	r0, r1
 1650 0036 FFF7FEFF 		bl	LCD_DrawImage
 1651              	.LVL241:
 430:Core/Src/lcd_test.c **** 
 431:Core/Src/lcd_test.c **** 	LCD_SetColor(0xff003366);					//	ËÆæÁΩÆÁîªÁ¨îËâ≤Ôºå‰ΩøÁî®Ëá™ÂÆö‰πâÈ¢úËâ≤	
 1652              		.loc 1 431 2 view .LVU310
 1653 003a 7448     		ldr	r0, .L44+24
 1654 003c FFF7FEFF 		bl	LCD_SetColor
 1655              	.LVL242:
 432:Core/Src/lcd_test.c **** 	for(i=0;i<100;i++)
 1656              		.loc 1 432 2 view .LVU311
 1657              		.loc 1 432 7 is_stmt 0 view .LVU312
 1658 0040 0024     		movs	r4, #0
 1659              		.loc 1 432 2 view .LVU313
 1660 0042 0BE0     		b	.L41
 1661              	.LVL243:
 1662              	.L42:
 433:Core/Src/lcd_test.c ****    {
 434:Core/Src/lcd_test.c **** 		LCD_FillRect(44,228,4*i,6);	// ÁªòÂà∂Áü©ÂΩ¢ÔºåÂÆûÁé∞ÁÆÄÊòìËøõÂ∫¶Êù°ÁöÑÊïàÊûú
 1663              		.loc 1 434 3 is_stmt 1 discriminator 3 view .LVU314
 1664 0044 A200     		lsls	r2, r4, #2
 1665 0046 92B2     		uxth	r2, r2
 1666 0048 0623     		movs	r3, #6
 1667 004a E421     		movs	r1, #228
 1668 004c 2C20     		movs	r0, #44
 1669 004e FFF7FEFF 		bl	LCD_FillRect
 1670              	.LVL244:
 435:Core/Src/lcd_test.c **** 		HAL_Delay(15);	
 1671              		.loc 1 435 3 discriminator 3 view .LVU315
 1672 0052 0F20     		movs	r0, #15
 1673 0054 FFF7FEFF 		bl	HAL_Delay
 1674              	.LVL245:
 432:Core/Src/lcd_test.c **** 	for(i=0;i<100;i++)
 1675              		.loc 1 432 16 discriminator 3 view .LVU316
 432:Core/Src/lcd_test.c **** 	for(i=0;i<100;i++)
 1676              		.loc 1 432 17 is_stmt 0 discriminator 3 view .LVU317
 1677 0058 0134     		adds	r4, r4, #1
 1678              	.LVL246:
 432:Core/Src/lcd_test.c **** 	for(i=0;i<100;i++)
 1679              		.loc 1 432 17 discriminator 3 view .LVU318
 1680 005a A4B2     		uxth	r4, r4
 1681              	.LVL247:
 1682              	.L41:
 432:Core/Src/lcd_test.c **** 	for(i=0;i<100;i++)
 1683              		.loc 1 432 10 is_stmt 1 discriminator 1 view .LVU319
 432:Core/Src/lcd_test.c **** 	for(i=0;i<100;i++)
 1684              		.loc 1 432 2 is_stmt 0 discriminator 1 view .LVU320
 1685 005c 632C     		cmp	r4, #99
 1686 005e F1D9     		bls	.L42
 436:Core/Src/lcd_test.c ****    }
 437:Core/Src/lcd_test.c **** 	
 438:Core/Src/lcd_test.c **** // Áü©ÂΩ¢Â°´ÂÖÖ>>>>>	
ARM GAS  C:\Users\OSD\AppData\Local\Temp\cc2NoGol.s 			page 42


 439:Core/Src/lcd_test.c **** 	
 440:Core/Src/lcd_test.c **** 	LCD_SetBackColor(LCD_BLACK); //ËÆæÁΩÆËÉåÊôØËâ≤
 1687              		.loc 1 440 2 is_stmt 1 view .LVU321
 1688 0060 4FF07F40 		mov	r0, #-16777216
 1689 0064 FFF7FEFF 		bl	LCD_SetBackColor
 1690              	.LVL248:
 441:Core/Src/lcd_test.c **** 	LCD_Clear(); //Ê∏ÖÂ±èÔºåÂà∑ËÉåÊôØËâ≤
 1691              		.loc 1 441 2 view .LVU322
 1692 0068 FFF7FEFF 		bl	LCD_Clear
 1693              	.LVL249:
 442:Core/Src/lcd_test.c **** 
 443:Core/Src/lcd_test.c **** 	LCD_SetFont(&Font16);
 1694              		.loc 1 443 2 view .LVU323
 1695 006c 6848     		ldr	r0, .L44+28
 1696 006e FFF7FEFF 		bl	LCD_SetFont
 1697              	.LVL250:
 444:Core/Src/lcd_test.c **** 	LCD_SetColor(LCD_BLUE);	  	  LCD_FillRect(130,  3,320,16);	LCD_DisplayString(0,  3,"LCD_BLUE");		 
 1698              		.loc 1 444 2 view .LVU324
 1699 0072 6848     		ldr	r0, .L44+32
 1700 0074 FFF7FEFF 		bl	LCD_SetColor
 1701              	.LVL251:
 1702              		.loc 1 444 31 view .LVU325
 1703 0078 1023     		movs	r3, #16
 1704 007a 4FF4A072 		mov	r2, #320
 1705 007e 0321     		movs	r1, #3
 1706 0080 8220     		movs	r0, #130
 1707 0082 FFF7FEFF 		bl	LCD_FillRect
 1708              	.LVL252:
 1709              		.loc 1 444 61 view .LVU326
 1710 0086 644A     		ldr	r2, .L44+36
 1711 0088 0321     		movs	r1, #3
 1712 008a 0020     		movs	r0, #0
 1713 008c FFF7FEFF 		bl	LCD_DisplayString
 1714              	.LVL253:
 445:Core/Src/lcd_test.c **** 	LCD_SetColor(LCD_GREEN);  	  LCD_FillRect(130, 25,320,16);  LCD_DisplayString(0, 25,"LCD_GREEN");	
 1715              		.loc 1 445 2 view .LVU327
 1716 0090 4FF0FF20 		mov	r0, #-16711936
 1717 0094 FFF7FEFF 		bl	LCD_SetColor
 1718              	.LVL254:
 1719              		.loc 1 445 31 view .LVU328
 1720 0098 1023     		movs	r3, #16
 1721 009a 4FF4A072 		mov	r2, #320
 1722 009e 1921     		movs	r1, #25
 1723 00a0 8220     		movs	r0, #130
 1724 00a2 FFF7FEFF 		bl	LCD_FillRect
 1725              	.LVL255:
 1726              		.loc 1 445 62 view .LVU329
 1727 00a6 5D4A     		ldr	r2, .L44+40
 1728 00a8 1921     		movs	r1, #25
 1729 00aa 0020     		movs	r0, #0
 1730 00ac FFF7FEFF 		bl	LCD_DisplayString
 1731              	.LVL256:
 446:Core/Src/lcd_test.c **** 	LCD_SetColor(LCD_RED);    	  LCD_FillRect(130, 47,320,16);  LCD_DisplayString(0, 47,"LCD_RED");			
 1732              		.loc 1 446 2 view .LVU330
 1733 00b0 5B48     		ldr	r0, .L44+44
 1734 00b2 FFF7FEFF 		bl	LCD_SetColor
 1735              	.LVL257:
ARM GAS  C:\Users\OSD\AppData\Local\Temp\cc2NoGol.s 			page 43


 1736              		.loc 1 446 31 view .LVU331
 1737 00b6 1023     		movs	r3, #16
 1738 00b8 4FF4A072 		mov	r2, #320
 1739 00bc 2F21     		movs	r1, #47
 1740 00be 8220     		movs	r0, #130
 1741 00c0 FFF7FEFF 		bl	LCD_FillRect
 1742              	.LVL258:
 1743              		.loc 1 446 62 view .LVU332
 1744 00c4 574A     		ldr	r2, .L44+48
 1745 00c6 2F21     		movs	r1, #47
 1746 00c8 0020     		movs	r0, #0
 1747 00ca FFF7FEFF 		bl	LCD_DisplayString
 1748              	.LVL259:
 447:Core/Src/lcd_test.c **** 	LCD_SetColor(LCD_CYAN);   	  LCD_FillRect(130, 69,320,16);  LCD_DisplayString(0, 69,"LCD_CYAN");		
 1749              		.loc 1 447 2 view .LVU333
 1750 00ce 6FF47F00 		mvn	r0, #16711680
 1751 00d2 FFF7FEFF 		bl	LCD_SetColor
 1752              	.LVL260:
 1753              		.loc 1 447 31 view .LVU334
 1754 00d6 1023     		movs	r3, #16
 1755 00d8 4FF4A072 		mov	r2, #320
 1756 00dc 4521     		movs	r1, #69
 1757 00de 8220     		movs	r0, #130
 1758 00e0 FFF7FEFF 		bl	LCD_FillRect
 1759              	.LVL261:
 1760              		.loc 1 447 62 view .LVU335
 1761 00e4 504A     		ldr	r2, .L44+52
 1762 00e6 4521     		movs	r1, #69
 1763 00e8 0020     		movs	r0, #0
 1764 00ea FFF7FEFF 		bl	LCD_DisplayString
 1765              	.LVL262:
 448:Core/Src/lcd_test.c **** 	LCD_SetColor(LCD_MAGENTA);	  LCD_FillRect(130, 91,320,16);  LCD_DisplayString(0, 91,"LCD_MAGENTA")
 1766              		.loc 1 448 2 view .LVU336
 1767 00ee 6FF47F40 		mvn	r0, #65280
 1768 00f2 FFF7FEFF 		bl	LCD_SetColor
 1769              	.LVL263:
 1770              		.loc 1 448 31 view .LVU337
 1771 00f6 1023     		movs	r3, #16
 1772 00f8 4FF4A072 		mov	r2, #320
 1773 00fc 5B21     		movs	r1, #91
 1774 00fe 8220     		movs	r0, #130
 1775 0100 FFF7FEFF 		bl	LCD_FillRect
 1776              	.LVL264:
 1777              		.loc 1 448 62 view .LVU338
 1778 0104 494A     		ldr	r2, .L44+56
 1779 0106 5B21     		movs	r1, #91
 1780 0108 0020     		movs	r0, #0
 1781 010a FFF7FEFF 		bl	LCD_DisplayString
 1782              	.LVL265:
 449:Core/Src/lcd_test.c **** 	LCD_SetColor(LCD_YELLOW); 	  LCD_FillRect(130,113,320,16);  LCD_DisplayString(0,113,"LCD_YELLOW");
 1783              		.loc 1 449 2 view .LVU339
 1784 010e 6FF0FF00 		mvn	r0, #255
 1785 0112 FFF7FEFF 		bl	LCD_SetColor
 1786              	.LVL266:
 1787              		.loc 1 449 31 view .LVU340
 1788 0116 1023     		movs	r3, #16
 1789 0118 4FF4A072 		mov	r2, #320
ARM GAS  C:\Users\OSD\AppData\Local\Temp\cc2NoGol.s 			page 44


 1790 011c 7121     		movs	r1, #113
 1791 011e 8220     		movs	r0, #130
 1792 0120 FFF7FEFF 		bl	LCD_FillRect
 1793              	.LVL267:
 1794              		.loc 1 449 62 view .LVU341
 1795 0124 424A     		ldr	r2, .L44+60
 1796 0126 7121     		movs	r1, #113
 1797 0128 0020     		movs	r0, #0
 1798 012a FFF7FEFF 		bl	LCD_DisplayString
 1799              	.LVL268:
 450:Core/Src/lcd_test.c **** 	LCD_SetColor(LCD_GREY);   	  LCD_FillRect(130,135,320,16);	LCD_DisplayString(0,135,"LCD_GREY");		 
 1800              		.loc 1 450 2 view .LVU342
 1801 012e 4148     		ldr	r0, .L44+64
 1802 0130 FFF7FEFF 		bl	LCD_SetColor
 1803              	.LVL269:
 1804              		.loc 1 450 31 view .LVU343
 1805 0134 1023     		movs	r3, #16
 1806 0136 4FF4A072 		mov	r2, #320
 1807 013a 8721     		movs	r1, #135
 1808 013c 8220     		movs	r0, #130
 1809 013e FFF7FEFF 		bl	LCD_FillRect
 1810              	.LVL270:
 1811              		.loc 1 450 61 view .LVU344
 1812 0142 3D4A     		ldr	r2, .L44+68
 1813 0144 8721     		movs	r1, #135
 1814 0146 0020     		movs	r0, #0
 1815 0148 FFF7FEFF 		bl	LCD_DisplayString
 1816              	.LVL271:
 451:Core/Src/lcd_test.c **** 																																				
 452:Core/Src/lcd_test.c **** 	LCD_SetColor(LIGHT_BLUE);	  LCD_FillRect(130,157,320,16);  LCD_DisplayString(0,157,"LIGHT_BLUE");	
 1817              		.loc 1 452 2 view .LVU345
 1818 014c 3B48     		ldr	r0, .L44+72
 1819 014e FFF7FEFF 		bl	LCD_SetColor
 1820              	.LVL272:
 1821              		.loc 1 452 30 view .LVU346
 1822 0152 1023     		movs	r3, #16
 1823 0154 4FF4A072 		mov	r2, #320
 1824 0158 9D21     		movs	r1, #157
 1825 015a 8220     		movs	r0, #130
 1826 015c FFF7FEFF 		bl	LCD_FillRect
 1827              	.LVL273:
 1828              		.loc 1 452 61 view .LVU347
 1829 0160 374A     		ldr	r2, .L44+76
 1830 0162 9D21     		movs	r1, #157
 1831 0164 0020     		movs	r0, #0
 1832 0166 FFF7FEFF 		bl	LCD_DisplayString
 1833              	.LVL274:
 453:Core/Src/lcd_test.c **** 	LCD_SetColor(LIGHT_GREEN);   LCD_FillRect(130,179,320,16);  LCD_DisplayString(0,179,"LIGHT_GREEN")
 1834              		.loc 1 453 2 view .LVU348
 1835 016a 6FF07F10 		mvn	r0, #8323199
 1836 016e FFF7FEFF 		bl	LCD_SetColor
 1837              	.LVL275:
 1838              		.loc 1 453 31 view .LVU349
 1839 0172 1023     		movs	r3, #16
 1840 0174 4FF4A072 		mov	r2, #320
 1841 0178 B321     		movs	r1, #179
 1842 017a 8220     		movs	r0, #130
ARM GAS  C:\Users\OSD\AppData\Local\Temp\cc2NoGol.s 			page 45


 1843 017c FFF7FEFF 		bl	LCD_FillRect
 1844              	.LVL276:
 1845              		.loc 1 453 62 view .LVU350
 1846 0180 304A     		ldr	r2, .L44+80
 1847 0182 B321     		movs	r1, #179
 1848 0184 0020     		movs	r0, #0
 1849 0186 FFF7FEFF 		bl	LCD_DisplayString
 1850              	.LVL277:
 454:Core/Src/lcd_test.c **** 	LCD_SetColor(LIGHT_RED);     LCD_FillRect(130,201,320,16);  LCD_DisplayString(0,201,"LIGHT_RED");	
 1851              		.loc 1 454 2 view .LVU351
 1852 018a 2F48     		ldr	r0, .L44+84
 1853 018c FFF7FEFF 		bl	LCD_SetColor
 1854              	.LVL278:
 1855              		.loc 1 454 31 view .LVU352
 1856 0190 1023     		movs	r3, #16
 1857 0192 4FF4A072 		mov	r2, #320
 1858 0196 C921     		movs	r1, #201
 1859 0198 8220     		movs	r0, #130
 1860 019a FFF7FEFF 		bl	LCD_FillRect
 1861              	.LVL279:
 1862              		.loc 1 454 62 view .LVU353
 1863 019e 2B4A     		ldr	r2, .L44+88
 1864 01a0 C921     		movs	r1, #201
 1865 01a2 0020     		movs	r0, #0
 1866 01a4 FFF7FEFF 		bl	LCD_DisplayString
 1867              	.LVL280:
 455:Core/Src/lcd_test.c **** 	LCD_SetColor(LIGHT_CYAN);    LCD_FillRect(130,223,320,16);  LCD_DisplayString(0,223,"LIGHT_CYAN");
 1868              		.loc 1 455 2 view .LVU354
 1869 01a8 6FF4FE00 		mvn	r0, #8323072
 1870 01ac FFF7FEFF 		bl	LCD_SetColor
 1871              	.LVL281:
 1872              		.loc 1 455 31 view .LVU355
 1873 01b0 1023     		movs	r3, #16
 1874 01b2 4FF4A072 		mov	r2, #320
 1875 01b6 DF21     		movs	r1, #223
 1876 01b8 8220     		movs	r0, #130
 1877 01ba FFF7FEFF 		bl	LCD_FillRect
 1878              	.LVL282:
 1879              		.loc 1 455 62 view .LVU356
 1880 01be 244A     		ldr	r2, .L44+92
 1881 01c0 DF21     		movs	r1, #223
 1882 01c2 0020     		movs	r0, #0
 1883 01c4 FFF7FEFF 		bl	LCD_DisplayString
 1884              	.LVL283:
 456:Core/Src/lcd_test.c **** 	LCD_SetColor(LIGHT_MAGENTA); LCD_FillRect(130,245,320,16);  LCD_DisplayString(0,245,"LIGHT_MAGENTA
 1885              		.loc 1 456 2 view .LVU357
 1886 01c8 6FF4FE40 		mvn	r0, #32512
 1887 01cc FFF7FEFF 		bl	LCD_SetColor
 1888              	.LVL284:
 1889              		.loc 1 456 31 view .LVU358
 1890 01d0 1023     		movs	r3, #16
 1891 01d2 4FF4A072 		mov	r2, #320
 1892 01d6 F521     		movs	r1, #245
 1893 01d8 8220     		movs	r0, #130
 1894 01da FFF7FEFF 		bl	LCD_FillRect
 1895              	.LVL285:
 1896              		.loc 1 456 62 view .LVU359
ARM GAS  C:\Users\OSD\AppData\Local\Temp\cc2NoGol.s 			page 46


 1897 01de 1D4A     		ldr	r2, .L44+96
 1898 01e0 F521     		movs	r1, #245
 1899 01e2 0020     		movs	r0, #0
 1900 01e4 FFF7FEFF 		bl	LCD_DisplayString
 1901              	.LVL286:
 457:Core/Src/lcd_test.c **** 
 458:Core/Src/lcd_test.c **** 	HAL_Delay(3000);
 1902              		.loc 1 458 2 view .LVU360
 1903 01e8 40F6B830 		movw	r0, #3000
 1904 01ec FFF7FEFF 		bl	HAL_Delay
 1905              	.LVL287:
 459:Core/Src/lcd_test.c **** }
 1906              		.loc 1 459 1 is_stmt 0 view .LVU361
 1907 01f0 02B0     		add	sp, sp, #8
 1908              		.cfi_def_cfa_offset 8
 1909              		@ sp needed
 1910 01f2 10BD     		pop	{r4, pc}
 1911              	.LVL288:
 1912              	.L45:
 1913              		.loc 1 459 1 view .LVU362
 1914              		.align	2
 1915              	.L44:
 1916 01f4 F8EDB9FF 		.word	-4592136
 1917 01f8 00000000 		.word	CH_Font32
 1918 01fc 333333FF 		.word	-13421773
 1919 0200 00000000 		.word	.LC28
 1920 0204 2379FDFF 		.word	-165597
 1921 0208 00000000 		.word	Image_FANKE_240x83
 1922 020c 663300FF 		.word	-16764058
 1923 0210 00000000 		.word	Font16
 1924 0214 FF0000FF 		.word	-16776961
 1925 0218 10000000 		.word	.LC29
 1926 021c 1C000000 		.word	.LC30
 1927 0220 0000FFFF 		.word	-65536
 1928 0224 28000000 		.word	.LC31
 1929 0228 30000000 		.word	.LC32
 1930 022c 3C000000 		.word	.LC33
 1931 0230 48000000 		.word	.LC34
 1932 0234 2C2C2CFF 		.word	-13882324
 1933 0238 54000000 		.word	.LC35
 1934 023c FF8080FF 		.word	-8355585
 1935 0240 60000000 		.word	.LC36
 1936 0244 6C000000 		.word	.LC37
 1937 0248 8080FFFF 		.word	-32640
 1938 024c 78000000 		.word	.LC38
 1939 0250 84000000 		.word	.LC39
 1940 0254 90000000 		.word	.LC40
 1941              		.cfi_endproc
 1942              	.LFE151:
 1944              		.section	.rodata.LCD_Test_Color.str1.4,"aMS",%progbits,1
 1945              		.align	2
 1946              	.LC41:
 1947 0000 E9A29CE8 		.ascii	"\351\242\234\350\211\262\346\265\213\350\257\225\000"
 1947      89B2E6B5 
 1947      8BE8AF95 
 1947      00
 1948 000d 000000   		.align	2
ARM GAS  C:\Users\OSD\AppData\Local\Temp\cc2NoGol.s 			page 47


 1949              	.LC42:
 1950 0010 524742E4 		.ascii	"RGB\344\270\211\345\237\272\350\211\262\350\211\262"
 1950      B889E59F 
 1950      BAE889B2 
 1950      E889B2
 1951 001f E998B6E6 		.ascii	"\351\230\266\346\265\213\350\257\225\000"
 1951      B58BE8AF 
 1951      9500
 1952              		.section	.text.LCD_Test_Color,"ax",%progbits
 1953              		.align	1
 1954              		.global	LCD_Test_Color
 1955              		.syntax unified
 1956              		.thumb
 1957              		.thumb_func
 1959              	LCD_Test_Color:
 1960              	.LFB152:
 460:Core/Src/lcd_test.c **** 
 461:Core/Src/lcd_test.c **** 
 462:Core/Src/lcd_test.c **** /*************************************************************************************************
 463:Core/Src/lcd_test.c **** *	ÂáΩ Êï∞ Âêç:	LCD_Test_Color
 464:Core/Src/lcd_test.c **** *
 465:Core/Src/lcd_test.c **** *	ÂáΩÊï∞ÂäüËÉΩ:	È¢úËâ≤ÊµãËØï
 466:Core/Src/lcd_test.c **** *
 467:Core/Src/lcd_test.c **** *	ËØ¥    Êòé:	Êó†	
 468:Core/Src/lcd_test.c **** *************************************************************************************************/
 469:Core/Src/lcd_test.c **** 
 470:Core/Src/lcd_test.c **** void LCD_Test_Color(void)
 471:Core/Src/lcd_test.c **** {
 1961              		.loc 1 471 1 is_stmt 1 view -0
 1962              		.cfi_startproc
 1963              		@ args = 0, pretend = 0, frame = 0
 1964              		@ frame_needed = 0, uses_anonymous_args = 0
 1965 0000 10B5     		push	{r4, lr}
 1966              		.cfi_def_cfa_offset 8
 1967              		.cfi_offset 4, -8
 1968              		.cfi_offset 14, -4
 1969 0002 82B0     		sub	sp, sp, #8
 1970              		.cfi_def_cfa_offset 16
 472:Core/Src/lcd_test.c **** 	uint16_t i;
 1971              		.loc 1 472 2 view .LVU364
 473:Core/Src/lcd_test.c **** 	
 474:Core/Src/lcd_test.c **** // ÁªòÂà∂ÂàùÂßãÁïåÈù¢ÔºåÂåÖÊã¨Ê†áÈ¢ò„ÄÅLOGO‰ª•ÂèäËøõÂ∫¶Êù°>>>>>
 475:Core/Src/lcd_test.c **** 	
 476:Core/Src/lcd_test.c **** 	LCD_SetBackColor(0xffB9EDF8); 			//	ËÆæÁΩÆËÉåÊôØËâ≤Ôºå‰ΩøÁî®Ëá™ÂÆö‰πâÈ¢úËâ≤
 1972              		.loc 1 476 2 view .LVU365
 1973 0004 4F48     		ldr	r0, .L56
 1974 0006 FFF7FEFF 		bl	LCD_SetBackColor
 1975              	.LVL289:
 477:Core/Src/lcd_test.c **** 	LCD_Clear(); 									//	Ê∏ÖÂ±èÔºåÂà∑ËÉåÊôØËâ≤
 1976              		.loc 1 477 2 view .LVU366
 1977 000a FFF7FEFF 		bl	LCD_Clear
 1978              	.LVL290:
 478:Core/Src/lcd_test.c **** 	
 479:Core/Src/lcd_test.c **** 	LCD_SetTextFont(&CH_Font32);				// ËÆæÁΩÆ3232‰∏≠ÊñáÂ≠ó‰Ωì,ASCIIÂ≠ó‰ΩìÂØπÂ∫î‰∏∫3216
 1979              		.loc 1 479 2 view .LVU367
 1980 000e 4E48     		ldr	r0, .L56+4
 1981 0010 FFF7FEFF 		bl	LCD_SetTextFont
ARM GAS  C:\Users\OSD\AppData\Local\Temp\cc2NoGol.s 			page 48


 1982              	.LVL291:
 480:Core/Src/lcd_test.c **** 	LCD_SetColor(0xff333333);					//	ËÆæÁΩÆÁîªÁ¨îËâ≤Ôºå‰ΩøÁî®Ëá™ÂÆö‰πâÈ¢úËâ≤
 1983              		.loc 1 480 2 view .LVU368
 1984 0014 4D48     		ldr	r0, .L56+8
 1985 0016 FFF7FEFF 		bl	LCD_SetColor
 1986              	.LVL292:
 481:Core/Src/lcd_test.c **** 	LCD_DisplayText(176, 87,"È¢úËâ≤ÊµãËØï");	// ÊòæÁ§∫ÊñáÊú¨
 1987              		.loc 1 481 2 view .LVU369
 1988 001a 4D4A     		ldr	r2, .L56+12
 1989 001c 5721     		movs	r1, #87
 1990 001e B020     		movs	r0, #176
 1991 0020 FFF7FEFF 		bl	LCD_DisplayText
 1992              	.LVL293:
 482:Core/Src/lcd_test.c **** 	
 483:Core/Src/lcd_test.c **** 	LCD_SetColor(0xfffd7923);					//	ËÆæÁΩÆÁîªÁ¨îËâ≤Ôºå‰ΩøÁî®Ëá™ÂÆö‰πâÈ¢úËâ≤
 1993              		.loc 1 483 2 view .LVU370
 1994 0024 4B48     		ldr	r0, .L56+16
 1995 0026 FFF7FEFF 		bl	LCD_SetColor
 1996              	.LVL294:
 484:Core/Src/lcd_test.c **** 	LCD_DrawImage(  120, 120, 240, 83, Image_FANKE_240x83) ;		// ÊòæÁ§∫LOGOÂõæÁâá
 1997              		.loc 1 484 2 view .LVU371
 1998 002a 4B4B     		ldr	r3, .L56+20
 1999 002c 0093     		str	r3, [sp]
 2000 002e 5323     		movs	r3, #83
 2001 0030 F022     		movs	r2, #240
 2002 0032 7821     		movs	r1, #120
 2003 0034 0846     		mov	r0, r1
 2004 0036 FFF7FEFF 		bl	LCD_DrawImage
 2005              	.LVL295:
 485:Core/Src/lcd_test.c **** 
 486:Core/Src/lcd_test.c **** 	LCD_SetColor(0xff003366);					//	ËÆæÁΩÆÁîªÁ¨îËâ≤Ôºå‰ΩøÁî®Ëá™ÂÆö‰πâÈ¢úËâ≤	
 2006              		.loc 1 486 2 view .LVU372
 2007 003a 4848     		ldr	r0, .L56+24
 2008 003c FFF7FEFF 		bl	LCD_SetColor
 2009              	.LVL296:
 487:Core/Src/lcd_test.c **** 	for(i=0;i<100;i++)
 2010              		.loc 1 487 2 view .LVU373
 2011              		.loc 1 487 7 is_stmt 0 view .LVU374
 2012 0040 0024     		movs	r4, #0
 2013              		.loc 1 487 2 view .LVU375
 2014 0042 0BE0     		b	.L47
 2015              	.LVL297:
 2016              	.L48:
 488:Core/Src/lcd_test.c ****    {
 489:Core/Src/lcd_test.c **** 		LCD_FillRect(44,228,4*i,6);	// ÁªòÂà∂Áü©ÂΩ¢ÔºåÂÆûÁé∞ÁÆÄÊòìËøõÂ∫¶Êù°ÁöÑÊïàÊûú
 2017              		.loc 1 489 3 is_stmt 1 discriminator 3 view .LVU376
 2018 0044 A200     		lsls	r2, r4, #2
 2019 0046 92B2     		uxth	r2, r2
 2020 0048 0623     		movs	r3, #6
 2021 004a E421     		movs	r1, #228
 2022 004c 2C20     		movs	r0, #44
 2023 004e FFF7FEFF 		bl	LCD_FillRect
 2024              	.LVL298:
 490:Core/Src/lcd_test.c **** 		HAL_Delay(15);	
 2025              		.loc 1 490 3 discriminator 3 view .LVU377
 2026 0052 0F20     		movs	r0, #15
 2027 0054 FFF7FEFF 		bl	HAL_Delay
ARM GAS  C:\Users\OSD\AppData\Local\Temp\cc2NoGol.s 			page 49


 2028              	.LVL299:
 487:Core/Src/lcd_test.c **** 	for(i=0;i<100;i++)
 2029              		.loc 1 487 16 discriminator 3 view .LVU378
 487:Core/Src/lcd_test.c **** 	for(i=0;i<100;i++)
 2030              		.loc 1 487 17 is_stmt 0 discriminator 3 view .LVU379
 2031 0058 0134     		adds	r4, r4, #1
 2032              	.LVL300:
 487:Core/Src/lcd_test.c **** 	for(i=0;i<100;i++)
 2033              		.loc 1 487 17 discriminator 3 view .LVU380
 2034 005a A4B2     		uxth	r4, r4
 2035              	.LVL301:
 2036              	.L47:
 487:Core/Src/lcd_test.c **** 	for(i=0;i<100;i++)
 2037              		.loc 1 487 10 is_stmt 1 discriminator 1 view .LVU381
 487:Core/Src/lcd_test.c **** 	for(i=0;i<100;i++)
 2038              		.loc 1 487 2 is_stmt 0 discriminator 1 view .LVU382
 2039 005c 632C     		cmp	r4, #99
 2040 005e F1D9     		bls	.L48
 491:Core/Src/lcd_test.c ****    }
 492:Core/Src/lcd_test.c **** 	
 493:Core/Src/lcd_test.c **** // È¢úËâ≤ÊµãËØï>>>>>
 494:Core/Src/lcd_test.c **** 		
 495:Core/Src/lcd_test.c **** 	LCD_SetBackColor(LCD_BLACK); //ËÆæÁΩÆËÉåÊôØËâ≤
 2041              		.loc 1 495 2 is_stmt 1 view .LVU383
 2042 0060 4FF07F40 		mov	r0, #-16777216
 2043 0064 FFF7FEFF 		bl	LCD_SetBackColor
 2044              	.LVL302:
 496:Core/Src/lcd_test.c **** 	LCD_Clear(); //Ê∏ÖÂ±èÔºåÂà∑ËÉåÊôØËâ≤
 2045              		.loc 1 496 2 view .LVU384
 2046 0068 FFF7FEFF 		bl	LCD_Clear
 2047              	.LVL303:
 497:Core/Src/lcd_test.c **** 	
 498:Core/Src/lcd_test.c **** 	LCD_SetTextFont(&CH_Font24);			// ËÆæÁΩÆ2424‰∏≠ÊñáÂ≠ó‰Ωì,ASCIIÂ≠ó‰ΩìÂØπÂ∫î‰∏∫2412
 2048              		.loc 1 498 2 view .LVU385
 2049 006c 3C48     		ldr	r0, .L56+28
 2050 006e FFF7FEFF 		bl	LCD_SetTextFont
 2051              	.LVL304:
 499:Core/Src/lcd_test.c **** 	LCD_SetColor(LCD_WHITE);				// ËÆæÁΩÆÁîªÁ¨îÈ¢úËâ≤
 2052              		.loc 1 499 2 view .LVU386
 2053 0072 4FF0FF30 		mov	r0, #-1
 2054 0076 FFF7FEFF 		bl	LCD_SetColor
 2055              	.LVL305:
 500:Core/Src/lcd_test.c **** 	
 501:Core/Src/lcd_test.c **** 	LCD_DisplayText(21,14,"Ê†∏ÂøÉÊùøÂûãÂè∑ÔºöFK743M2-IIT6");
 2056              		.loc 1 501 2 view .LVU387
 2057 007a 3A4A     		ldr	r2, .L56+32
 2058 007c 0E21     		movs	r1, #14
 2059 007e 1520     		movs	r0, #21
 2060 0080 FFF7FEFF 		bl	LCD_DisplayText
 2061              	.LVL306:
 502:Core/Src/lcd_test.c **** 	LCD_DisplayText(21,54,"Â±èÂπïÂàÜËæ®ÁéáÔºö480*272");		
 2062              		.loc 1 502 2 view .LVU388
 2063 0084 384A     		ldr	r2, .L56+36
 2064 0086 3621     		movs	r1, #54
 2065 0088 1520     		movs	r0, #21
 2066 008a FFF7FEFF 		bl	LCD_DisplayText
 2067              	.LVL307:
ARM GAS  C:\Users\OSD\AppData\Local\Temp\cc2NoGol.s 			page 50


 503:Core/Src/lcd_test.c **** 	LCD_DisplayText(21,94,"RGB‰∏âÂü∫Ëâ≤Ëâ≤Èò∂ÊµãËØï");	
 2068              		.loc 1 503 2 view .LVU389
 2069 008e 374A     		ldr	r2, .L56+40
 2070 0090 5E21     		movs	r1, #94
 2071 0092 1520     		movs	r0, #21
 2072 0094 FFF7FEFF 		bl	LCD_DisplayText
 2073              	.LVL308:
 504:Core/Src/lcd_test.c **** 	
 505:Core/Src/lcd_test.c **** 	//‰ΩøÁî®ÁîªÁ∫øÂáΩÊï∞ÁªòÂà∂‰∏âÂü∫Ëâ≤Ëâ≤Êù°
 506:Core/Src/lcd_test.c **** 	for(i=0;i<240;i++)
 2074              		.loc 1 506 2 view .LVU390
 2075              		.loc 1 506 7 is_stmt 0 view .LVU391
 2076 0098 0024     		movs	r4, #0
 2077              		.loc 1 506 2 view .LVU392
 2078 009a 16E0     		b	.L49
 2079              	.LVL309:
 2080              	.L50:
 507:Core/Src/lcd_test.c **** 	{
 508:Core/Src/lcd_test.c **** 		LCD_SetColor( LCD_RED-(i<<16) );
 2081              		.loc 1 508 3 is_stmt 1 discriminator 3 view .LVU393
 2082 009c 3448     		ldr	r0, .L56+44
 2083 009e A0EB0440 		sub	r0, r0, r4, lsl #16
 2084 00a2 FFF7FEFF 		bl	LCD_SetColor
 2085              	.LVL310:
 509:Core/Src/lcd_test.c **** 		LCD_DrawLine(5+2*i,  140,5+2*i,  170);	
 2086              		.loc 1 509 3 discriminator 3 view .LVU394
 2087 00a6 6000     		lsls	r0, r4, #1
 2088 00a8 0530     		adds	r0, r0, #5
 2089 00aa 80B2     		uxth	r0, r0
 2090 00ac AA23     		movs	r3, #170
 2091 00ae 0246     		mov	r2, r0
 2092 00b0 8C21     		movs	r1, #140
 2093 00b2 FFF7FEFF 		bl	LCD_DrawLine
 2094              	.LVL311:
 510:Core/Src/lcd_test.c **** 		LCD_DrawLine(5+2*i+1,140,5+2*i+1,170);	
 2095              		.loc 1 510 3 discriminator 3 view .LVU395
 2096 00b6 E01C     		adds	r0, r4, #3
 2097 00b8 4000     		lsls	r0, r0, #1
 2098 00ba 80B2     		uxth	r0, r0
 2099 00bc AA23     		movs	r3, #170
 2100 00be 0246     		mov	r2, r0
 2101 00c0 8C21     		movs	r1, #140
 2102 00c2 FFF7FEFF 		bl	LCD_DrawLine
 2103              	.LVL312:
 506:Core/Src/lcd_test.c **** 	{
 2104              		.loc 1 506 16 discriminator 3 view .LVU396
 506:Core/Src/lcd_test.c **** 	{
 2105              		.loc 1 506 17 is_stmt 0 discriminator 3 view .LVU397
 2106 00c6 0134     		adds	r4, r4, #1
 2107              	.LVL313:
 506:Core/Src/lcd_test.c **** 	{
 2108              		.loc 1 506 17 discriminator 3 view .LVU398
 2109 00c8 A4B2     		uxth	r4, r4
 2110              	.LVL314:
 2111              	.L49:
 506:Core/Src/lcd_test.c **** 	{
 2112              		.loc 1 506 10 is_stmt 1 discriminator 1 view .LVU399
ARM GAS  C:\Users\OSD\AppData\Local\Temp\cc2NoGol.s 			page 51


 506:Core/Src/lcd_test.c **** 	{
 2113              		.loc 1 506 2 is_stmt 0 discriminator 1 view .LVU400
 2114 00ca EF2C     		cmp	r4, #239
 2115 00cc E6D9     		bls	.L50
 511:Core/Src/lcd_test.c **** 	}
 512:Core/Src/lcd_test.c **** 	for(i=0;i<240;i++)
 2116              		.loc 1 512 7 view .LVU401
 2117 00ce 0024     		movs	r4, #0
 2118              	.LVL315:
 2119              		.loc 1 512 7 view .LVU402
 2120 00d0 16E0     		b	.L51
 2121              	.LVL316:
 2122              	.L52:
 513:Core/Src/lcd_test.c **** 	{
 514:Core/Src/lcd_test.c **** 		LCD_SetColor( LCD_GREEN-(i<<8) );
 2123              		.loc 1 514 3 is_stmt 1 discriminator 3 view .LVU403
 2124              		.loc 1 514 29 is_stmt 0 discriminator 3 view .LVU404
 2125 00d2 2002     		lsls	r0, r4, #8
 2126              		.loc 1 514 3 discriminator 3 view .LVU405
 2127 00d4 C0F1FF20 		rsb	r0, r0, #-16711936
 2128 00d8 FFF7FEFF 		bl	LCD_SetColor
 2129              	.LVL317:
 515:Core/Src/lcd_test.c **** 		LCD_DrawLine(5+2*i,  180,5+2*i,  210);	
 2130              		.loc 1 515 3 is_stmt 1 discriminator 3 view .LVU406
 2131 00dc 6000     		lsls	r0, r4, #1
 2132 00de 0530     		adds	r0, r0, #5
 2133 00e0 80B2     		uxth	r0, r0
 2134 00e2 D223     		movs	r3, #210
 2135 00e4 0246     		mov	r2, r0
 2136 00e6 B421     		movs	r1, #180
 2137 00e8 FFF7FEFF 		bl	LCD_DrawLine
 2138              	.LVL318:
 516:Core/Src/lcd_test.c **** 		LCD_DrawLine(5+2*i+1,180,5+2*i+1,210);
 2139              		.loc 1 516 3 discriminator 3 view .LVU407
 2140 00ec E01C     		adds	r0, r4, #3
 2141 00ee 4000     		lsls	r0, r0, #1
 2142 00f0 80B2     		uxth	r0, r0
 2143 00f2 D223     		movs	r3, #210
 2144 00f4 0246     		mov	r2, r0
 2145 00f6 B421     		movs	r1, #180
 2146 00f8 FFF7FEFF 		bl	LCD_DrawLine
 2147              	.LVL319:
 512:Core/Src/lcd_test.c **** 	{
 2148              		.loc 1 512 16 discriminator 3 view .LVU408
 512:Core/Src/lcd_test.c **** 	{
 2149              		.loc 1 512 17 is_stmt 0 discriminator 3 view .LVU409
 2150 00fc 0134     		adds	r4, r4, #1
 2151              	.LVL320:
 512:Core/Src/lcd_test.c **** 	{
 2152              		.loc 1 512 17 discriminator 3 view .LVU410
 2153 00fe A4B2     		uxth	r4, r4
 2154              	.LVL321:
 2155              	.L51:
 512:Core/Src/lcd_test.c **** 	{
 2156              		.loc 1 512 10 is_stmt 1 discriminator 1 view .LVU411
 512:Core/Src/lcd_test.c **** 	{
 2157              		.loc 1 512 2 is_stmt 0 discriminator 1 view .LVU412
ARM GAS  C:\Users\OSD\AppData\Local\Temp\cc2NoGol.s 			page 52


 2158 0100 EF2C     		cmp	r4, #239
 2159 0102 E6D9     		bls	.L52
 517:Core/Src/lcd_test.c **** 	}
 518:Core/Src/lcd_test.c **** 	for(i=0;i<240;i++)
 2160              		.loc 1 518 7 view .LVU413
 2161 0104 0024     		movs	r4, #0
 2162              	.LVL322:
 2163              		.loc 1 518 7 view .LVU414
 2164 0106 15E0     		b	.L53
 2165              	.LVL323:
 2166              	.L54:
 519:Core/Src/lcd_test.c **** 	{
 520:Core/Src/lcd_test.c **** 		LCD_SetColor( LCD_BLUE-i );
 2167              		.loc 1 520 3 is_stmt 1 discriminator 3 view .LVU415
 2168 0108 1A48     		ldr	r0, .L56+48
 2169 010a 001B     		subs	r0, r0, r4
 2170 010c FFF7FEFF 		bl	LCD_SetColor
 2171              	.LVL324:
 521:Core/Src/lcd_test.c **** 		LCD_DrawLine(5+2*i,  220,5+2*i,  250);	
 2172              		.loc 1 521 3 discriminator 3 view .LVU416
 2173 0110 6000     		lsls	r0, r4, #1
 2174 0112 0530     		adds	r0, r0, #5
 2175 0114 80B2     		uxth	r0, r0
 2176 0116 FA23     		movs	r3, #250
 2177 0118 0246     		mov	r2, r0
 2178 011a DC21     		movs	r1, #220
 2179 011c FFF7FEFF 		bl	LCD_DrawLine
 2180              	.LVL325:
 522:Core/Src/lcd_test.c **** 		LCD_DrawLine(5+2*i+1,220,5+2*i+1,250);
 2181              		.loc 1 522 3 discriminator 3 view .LVU417
 2182 0120 E01C     		adds	r0, r4, #3
 2183 0122 4000     		lsls	r0, r0, #1
 2184 0124 80B2     		uxth	r0, r0
 2185 0126 FA23     		movs	r3, #250
 2186 0128 0246     		mov	r2, r0
 2187 012a DC21     		movs	r1, #220
 2188 012c FFF7FEFF 		bl	LCD_DrawLine
 2189              	.LVL326:
 518:Core/Src/lcd_test.c **** 	{
 2190              		.loc 1 518 16 discriminator 3 view .LVU418
 518:Core/Src/lcd_test.c **** 	{
 2191              		.loc 1 518 17 is_stmt 0 discriminator 3 view .LVU419
 2192 0130 0134     		adds	r4, r4, #1
 2193              	.LVL327:
 518:Core/Src/lcd_test.c **** 	{
 2194              		.loc 1 518 17 discriminator 3 view .LVU420
 2195 0132 A4B2     		uxth	r4, r4
 2196              	.LVL328:
 2197              	.L53:
 518:Core/Src/lcd_test.c **** 	{
 2198              		.loc 1 518 10 is_stmt 1 discriminator 1 view .LVU421
 518:Core/Src/lcd_test.c **** 	{
 2199              		.loc 1 518 2 is_stmt 0 discriminator 1 view .LVU422
 2200 0134 EF2C     		cmp	r4, #239
 2201 0136 E7D9     		bls	.L54
 523:Core/Src/lcd_test.c **** 	}	
 524:Core/Src/lcd_test.c **** 	HAL_Delay(3000);	
ARM GAS  C:\Users\OSD\AppData\Local\Temp\cc2NoGol.s 			page 53


 2202              		.loc 1 524 2 is_stmt 1 view .LVU423
 2203 0138 40F6B830 		movw	r0, #3000
 2204 013c FFF7FEFF 		bl	HAL_Delay
 2205              	.LVL329:
 525:Core/Src/lcd_test.c **** 	
 526:Core/Src/lcd_test.c **** 	
 527:Core/Src/lcd_test.c **** }
 2206              		.loc 1 527 1 is_stmt 0 view .LVU424
 2207 0140 02B0     		add	sp, sp, #8
 2208              		.cfi_def_cfa_offset 8
 2209              		@ sp needed
 2210 0142 10BD     		pop	{r4, pc}
 2211              	.LVL330:
 2212              	.L57:
 2213              		.loc 1 527 1 view .LVU425
 2214              		.align	2
 2215              	.L56:
 2216 0144 F8EDB9FF 		.word	-4592136
 2217 0148 00000000 		.word	CH_Font32
 2218 014c 333333FF 		.word	-13421773
 2219 0150 00000000 		.word	.LC41
 2220 0154 2379FDFF 		.word	-165597
 2221 0158 00000000 		.word	Image_FANKE_240x83
 2222 015c 663300FF 		.word	-16764058
 2223 0160 00000000 		.word	CH_Font24
 2224 0164 2C000000 		.word	.LC6
 2225 0168 4C000000 		.word	.LC7
 2226 016c 10000000 		.word	.LC42
 2227 0170 0000FFFF 		.word	-65536
 2228 0174 FF0000FF 		.word	-16776961
 2229              		.cfi_endproc
 2230              	.LFE152:
 2232              		.section	.rodata.LCD_Test_GrahicTest.str1.4,"aMS",%progbits,1
 2233              		.align	2
 2234              	.LC43:
 2235 0000 E7BB98E5 		.ascii	"\347\273\230\345\233\276\346\265\213\350\257\225\000"
 2235      9BBEE6B5 
 2235      8BE8AF95 
 2235      00
 2236              		.section	.text.LCD_Test_GrahicTest,"ax",%progbits
 2237              		.align	1
 2238              		.global	LCD_Test_GrahicTest
 2239              		.syntax unified
 2240              		.thumb
 2241              		.thumb_func
 2243              	LCD_Test_GrahicTest:
 2244              	.LFB153:
 528:Core/Src/lcd_test.c **** 
 529:Core/Src/lcd_test.c **** /*************************************************************************************************
 530:Core/Src/lcd_test.c **** *	ÂáΩ Êï∞ Âêç:	LCD_Test_GrahicTest
 531:Core/Src/lcd_test.c **** *
 532:Core/Src/lcd_test.c **** *	ÂáΩÊï∞ÂäüËÉΩ:	2DÂõæÂΩ¢ÁªòÂà∂
 533:Core/Src/lcd_test.c **** *
 534:Core/Src/lcd_test.c **** *	ËØ¥    Êòé:	Êó†	
 535:Core/Src/lcd_test.c **** *************************************************************************************************/
 536:Core/Src/lcd_test.c **** 
 537:Core/Src/lcd_test.c **** void LCD_Test_GrahicTest(void)
ARM GAS  C:\Users\OSD\AppData\Local\Temp\cc2NoGol.s 			page 54


 538:Core/Src/lcd_test.c **** {
 2245              		.loc 1 538 1 is_stmt 1 view -0
 2246              		.cfi_startproc
 2247              		@ args = 0, pretend = 0, frame = 0
 2248              		@ frame_needed = 0, uses_anonymous_args = 0
 2249 0000 10B5     		push	{r4, lr}
 2250              		.cfi_def_cfa_offset 8
 2251              		.cfi_offset 4, -8
 2252              		.cfi_offset 14, -4
 2253 0002 82B0     		sub	sp, sp, #8
 2254              		.cfi_def_cfa_offset 16
 539:Core/Src/lcd_test.c **** 	uint16_t time = 80;		// Âª∂Êó∂Êó∂Èó¥
 2255              		.loc 1 539 2 view .LVU427
 2256              	.LVL331:
 540:Core/Src/lcd_test.c **** 	uint16_t i;					// ËÆ°Êï∞ÂèòÈáè
 2257              		.loc 1 540 2 view .LVU428
 541:Core/Src/lcd_test.c **** 		
 542:Core/Src/lcd_test.c **** // ÁªòÂà∂ÂàùÂßãÁïåÈù¢ÔºåÂåÖÊã¨Ê†áÈ¢ò„ÄÅLOGO‰ª•ÂèäËøõÂ∫¶Êù°>>>>>
 543:Core/Src/lcd_test.c **** 	
 544:Core/Src/lcd_test.c **** 	LCD_SetBackColor(0xffB9EDF8); 			//	ËÆæÁΩÆËÉåÊôØËâ≤Ôºå‰ΩøÁî®Ëá™ÂÆö‰πâÈ¢úËâ≤
 2258              		.loc 1 544 2 view .LVU429
 2259 0004 8B48     		ldr	r0, .L62
 2260 0006 FFF7FEFF 		bl	LCD_SetBackColor
 2261              	.LVL332:
 545:Core/Src/lcd_test.c **** 	LCD_Clear(); 									//	Ê∏ÖÂ±èÔºåÂà∑ËÉåÊôØËâ≤
 2262              		.loc 1 545 2 view .LVU430
 2263 000a FFF7FEFF 		bl	LCD_Clear
 2264              	.LVL333:
 546:Core/Src/lcd_test.c **** 	
 547:Core/Src/lcd_test.c **** 	LCD_SetTextFont(&CH_Font32);				// ËÆæÁΩÆ3232‰∏≠ÊñáÂ≠ó‰Ωì,ASCIIÂ≠ó‰ΩìÂØπÂ∫î‰∏∫3216
 2265              		.loc 1 547 2 view .LVU431
 2266 000e 8A48     		ldr	r0, .L62+4
 2267 0010 FFF7FEFF 		bl	LCD_SetTextFont
 2268              	.LVL334:
 548:Core/Src/lcd_test.c **** 	LCD_SetColor(0xff333333);					//	ËÆæÁΩÆÁîªÁ¨îËâ≤Ôºå‰ΩøÁî®Ëá™ÂÆö‰πâÈ¢úËâ≤
 2269              		.loc 1 548 2 view .LVU432
 2270 0014 8948     		ldr	r0, .L62+8
 2271 0016 FFF7FEFF 		bl	LCD_SetColor
 2272              	.LVL335:
 549:Core/Src/lcd_test.c **** 	LCD_DisplayText(176, 87,"ÁªòÂõæÊµãËØï");	// ÊòæÁ§∫ÊñáÊú¨
 2273              		.loc 1 549 2 view .LVU433
 2274 001a 894A     		ldr	r2, .L62+12
 2275 001c 5721     		movs	r1, #87
 2276 001e B020     		movs	r0, #176
 2277 0020 FFF7FEFF 		bl	LCD_DisplayText
 2278              	.LVL336:
 550:Core/Src/lcd_test.c **** 	
 551:Core/Src/lcd_test.c **** 	LCD_SetColor(0xfffd7923);					//	ËÆæÁΩÆÁîªÁ¨îËâ≤Ôºå‰ΩøÁî®Ëá™ÂÆö‰πâÈ¢úËâ≤
 2279              		.loc 1 551 2 view .LVU434
 2280 0024 8748     		ldr	r0, .L62+16
 2281 0026 FFF7FEFF 		bl	LCD_SetColor
 2282              	.LVL337:
 552:Core/Src/lcd_test.c **** 	LCD_DrawImage(  120, 120, 240, 83, Image_FANKE_240x83) ;		// ÊòæÁ§∫LOGOÂõæÁâá
 2283              		.loc 1 552 2 view .LVU435
 2284 002a 874B     		ldr	r3, .L62+20
 2285 002c 0093     		str	r3, [sp]
 2286 002e 5323     		movs	r3, #83
ARM GAS  C:\Users\OSD\AppData\Local\Temp\cc2NoGol.s 			page 55


 2287 0030 F022     		movs	r2, #240
 2288 0032 7821     		movs	r1, #120
 2289 0034 0846     		mov	r0, r1
 2290 0036 FFF7FEFF 		bl	LCD_DrawImage
 2291              	.LVL338:
 553:Core/Src/lcd_test.c **** 
 554:Core/Src/lcd_test.c **** 	LCD_SetColor(0xff003366);					//	ËÆæÁΩÆÁîªÁ¨îËâ≤Ôºå‰ΩøÁî®Ëá™ÂÆö‰πâÈ¢úËâ≤	
 2292              		.loc 1 554 2 view .LVU436
 2293 003a 8448     		ldr	r0, .L62+24
 2294 003c FFF7FEFF 		bl	LCD_SetColor
 2295              	.LVL339:
 555:Core/Src/lcd_test.c **** 	for(i=0;i<100;i++)
 2296              		.loc 1 555 2 view .LVU437
 2297              		.loc 1 555 7 is_stmt 0 view .LVU438
 2298 0040 0024     		movs	r4, #0
 2299              		.loc 1 555 2 view .LVU439
 2300 0042 0BE0     		b	.L59
 2301              	.LVL340:
 2302              	.L60:
 556:Core/Src/lcd_test.c ****    {
 557:Core/Src/lcd_test.c **** 		LCD_FillRect(44,228,4*i,6);	// ÁªòÂà∂Áü©ÂΩ¢ÔºåÂÆûÁé∞ÁÆÄÊòìËøõÂ∫¶Êù°ÁöÑÊïàÊûú
 2303              		.loc 1 557 3 is_stmt 1 discriminator 3 view .LVU440
 2304 0044 A200     		lsls	r2, r4, #2
 2305 0046 92B2     		uxth	r2, r2
 2306 0048 0623     		movs	r3, #6
 2307 004a E421     		movs	r1, #228
 2308 004c 2C20     		movs	r0, #44
 2309 004e FFF7FEFF 		bl	LCD_FillRect
 2310              	.LVL341:
 558:Core/Src/lcd_test.c **** 		HAL_Delay(15);	
 2311              		.loc 1 558 3 discriminator 3 view .LVU441
 2312 0052 0F20     		movs	r0, #15
 2313 0054 FFF7FEFF 		bl	HAL_Delay
 2314              	.LVL342:
 555:Core/Src/lcd_test.c **** 	for(i=0;i<100;i++)
 2315              		.loc 1 555 16 discriminator 3 view .LVU442
 555:Core/Src/lcd_test.c **** 	for(i=0;i<100;i++)
 2316              		.loc 1 555 17 is_stmt 0 discriminator 3 view .LVU443
 2317 0058 0134     		adds	r4, r4, #1
 2318              	.LVL343:
 555:Core/Src/lcd_test.c **** 	for(i=0;i<100;i++)
 2319              		.loc 1 555 17 discriminator 3 view .LVU444
 2320 005a A4B2     		uxth	r4, r4
 2321              	.LVL344:
 2322              	.L59:
 555:Core/Src/lcd_test.c **** 	for(i=0;i<100;i++)
 2323              		.loc 1 555 10 is_stmt 1 discriminator 1 view .LVU445
 555:Core/Src/lcd_test.c **** 	for(i=0;i<100;i++)
 2324              		.loc 1 555 2 is_stmt 0 discriminator 1 view .LVU446
 2325 005c 632C     		cmp	r4, #99
 2326 005e F1D9     		bls	.L60
 559:Core/Src/lcd_test.c ****    }
 560:Core/Src/lcd_test.c **** 	
 561:Core/Src/lcd_test.c **** // 2DÂõæÂΩ¢ÁªòÂà∂>>>>>>>
 562:Core/Src/lcd_test.c **** 	
 563:Core/Src/lcd_test.c **** 	LCD_SetBackColor(LCD_BLACK); //ËÆæÁΩÆËÉåÊôØËâ≤
 2327              		.loc 1 563 2 is_stmt 1 view .LVU447
ARM GAS  C:\Users\OSD\AppData\Local\Temp\cc2NoGol.s 			page 56


 2328 0060 4FF07F40 		mov	r0, #-16777216
 2329 0064 FFF7FEFF 		bl	LCD_SetBackColor
 2330              	.LVL345:
 564:Core/Src/lcd_test.c **** 	LCD_Clear(); //Ê∏ÖÂ±èÔºåÂà∑ËÉåÊôØËâ≤	
 2331              		.loc 1 564 2 view .LVU448
 2332 0068 FFF7FEFF 		bl	LCD_Clear
 2333              	.LVL346:
 565:Core/Src/lcd_test.c **** 
 566:Core/Src/lcd_test.c **** 	LCD_SetColor(LCD_RED);    LCD_FillCircle( 60,200,60);		//Â°´ÂÖÖÂúÜÂΩ¢
 2334              		.loc 1 566 2 view .LVU449
 2335 006c 784C     		ldr	r4, .L62+28
 2336              	.LVL347:
 2337              		.loc 1 566 2 is_stmt 0 view .LVU450
 2338 006e 2046     		mov	r0, r4
 2339 0070 FFF7FEFF 		bl	LCD_SetColor
 2340              	.LVL348:
 2341              		.loc 1 566 28 is_stmt 1 view .LVU451
 2342 0074 3C22     		movs	r2, #60
 2343 0076 C821     		movs	r1, #200
 2344 0078 1046     		mov	r0, r2
 2345 007a FFF7FEFF 		bl	LCD_FillCircle
 2346              	.LVL349:
 567:Core/Src/lcd_test.c **** 	LCD_SetColor(LCD_GREEN);  LCD_FillCircle(100,200,60); 	
 2347              		.loc 1 567 2 view .LVU452
 2348 007e 4FF0FF20 		mov	r0, #-16711936
 2349 0082 FFF7FEFF 		bl	LCD_SetColor
 2350              	.LVL350:
 2351              		.loc 1 567 28 view .LVU453
 2352 0086 3C22     		movs	r2, #60
 2353 0088 C821     		movs	r1, #200
 2354 008a 6420     		movs	r0, #100
 2355 008c FFF7FEFF 		bl	LCD_FillCircle
 2356              	.LVL351:
 568:Core/Src/lcd_test.c **** 	LCD_SetColor(LCD_BLUE);   LCD_FillCircle(140,200,60);  	
 2357              		.loc 1 568 2 view .LVU454
 2358 0090 7048     		ldr	r0, .L62+32
 2359 0092 FFF7FEFF 		bl	LCD_SetColor
 2360              	.LVL352:
 2361              		.loc 1 568 28 view .LVU455
 2362 0096 3C22     		movs	r2, #60
 2363 0098 C821     		movs	r1, #200
 2364 009a 8C20     		movs	r0, #140
 2365 009c FFF7FEFF 		bl	LCD_FillCircle
 2366              	.LVL353:
 569:Core/Src/lcd_test.c **** 
 570:Core/Src/lcd_test.c **** 	LCD_SetColor(LIGHT_GREY);
 2367              		.loc 1 570 2 view .LVU456
 2368 00a0 6D48     		ldr	r0, .L62+36
 2369 00a2 FFF7FEFF 		bl	LCD_SetColor
 2370              	.LVL354:
 571:Core/Src/lcd_test.c **** 	LCD_DrawLine(5,5,200,5);	HAL_Delay(time);	//ÁîªÁõ¥Á∫ø
 2371              		.loc 1 571 2 view .LVU457
 2372 00a6 0523     		movs	r3, #5
 2373 00a8 C822     		movs	r2, #200
 2374 00aa 1946     		mov	r1, r3
 2375 00ac 1846     		mov	r0, r3
 2376 00ae FFF7FEFF 		bl	LCD_DrawLine
ARM GAS  C:\Users\OSD\AppData\Local\Temp\cc2NoGol.s 			page 57


 2377              	.LVL355:
 2378              		.loc 1 571 27 view .LVU458
 2379 00b2 5020     		movs	r0, #80
 2380 00b4 FFF7FEFF 		bl	HAL_Delay
 2381              	.LVL356:
 572:Core/Src/lcd_test.c **** 	LCD_DrawLine(5,10,150,10);	HAL_Delay(time);
 2382              		.loc 1 572 2 view .LVU459
 2383 00b8 0A23     		movs	r3, #10
 2384 00ba 9622     		movs	r2, #150
 2385 00bc 1946     		mov	r1, r3
 2386 00be 0520     		movs	r0, #5
 2387 00c0 FFF7FEFF 		bl	LCD_DrawLine
 2388              	.LVL357:
 2389              		.loc 1 572 29 view .LVU460
 2390 00c4 5020     		movs	r0, #80
 2391 00c6 FFF7FEFF 		bl	HAL_Delay
 2392              	.LVL358:
 573:Core/Src/lcd_test.c **** 	LCD_DrawLine(5,15,100,15); HAL_Delay(time);
 2393              		.loc 1 573 2 view .LVU461
 2394 00ca 0F23     		movs	r3, #15
 2395 00cc 6422     		movs	r2, #100
 2396 00ce 1946     		mov	r1, r3
 2397 00d0 0520     		movs	r0, #5
 2398 00d2 FFF7FEFF 		bl	LCD_DrawLine
 2399              	.LVL359:
 2400              		.loc 1 573 29 view .LVU462
 2401 00d6 5020     		movs	r0, #80
 2402 00d8 FFF7FEFF 		bl	HAL_Delay
 2403              	.LVL360:
 574:Core/Src/lcd_test.c **** 	LCD_DrawLine(5,20,50,20);	HAL_Delay(time);	
 2404              		.loc 1 574 2 view .LVU463
 2405 00dc 1423     		movs	r3, #20
 2406 00de 3222     		movs	r2, #50
 2407 00e0 1946     		mov	r1, r3
 2408 00e2 0520     		movs	r0, #5
 2409 00e4 FFF7FEFF 		bl	LCD_DrawLine
 2410              	.LVL361:
 2411              		.loc 1 574 28 view .LVU464
 2412 00e8 5020     		movs	r0, #80
 2413 00ea FFF7FEFF 		bl	HAL_Delay
 2414              	.LVL362:
 575:Core/Src/lcd_test.c **** 
 576:Core/Src/lcd_test.c **** 	LCD_SetColor(LIGHT_CYAN);
 2415              		.loc 1 576 2 view .LVU465
 2416 00ee 6FF4FE00 		mvn	r0, #8323072
 2417 00f2 FFF7FEFF 		bl	LCD_SetColor
 2418              	.LVL363:
 577:Core/Src/lcd_test.c **** 	LCD_DrawCircle(350,60,60);	HAL_Delay(time);	//ÁªòÂà∂ÂúÜÂΩ¢
 2419              		.loc 1 577 2 view .LVU466
 2420 00f6 3C22     		movs	r2, #60
 2421 00f8 1146     		mov	r1, r2
 2422 00fa 4FF4AF70 		mov	r0, #350
 2423 00fe FFF7FEFF 		bl	LCD_DrawCircle
 2424              	.LVL364:
 2425              		.loc 1 577 29 view .LVU467
 2426 0102 5020     		movs	r0, #80
 2427 0104 FFF7FEFF 		bl	HAL_Delay
ARM GAS  C:\Users\OSD\AppData\Local\Temp\cc2NoGol.s 			page 58


 2428              	.LVL365:
 578:Core/Src/lcd_test.c **** 	LCD_DrawCircle(350,60,50);   HAL_Delay(time);
 2429              		.loc 1 578 2 view .LVU468
 2430 0108 3222     		movs	r2, #50
 2431 010a 3C21     		movs	r1, #60
 2432 010c 4FF4AF70 		mov	r0, #350
 2433 0110 FFF7FEFF 		bl	LCD_DrawCircle
 2434              	.LVL366:
 2435              		.loc 1 578 31 view .LVU469
 2436 0114 5020     		movs	r0, #80
 2437 0116 FFF7FEFF 		bl	HAL_Delay
 2438              	.LVL367:
 579:Core/Src/lcd_test.c **** 	LCD_DrawCircle(350,60,40);   HAL_Delay(time);
 2439              		.loc 1 579 2 view .LVU470
 2440 011a 2822     		movs	r2, #40
 2441 011c 3C21     		movs	r1, #60
 2442 011e 4FF4AF70 		mov	r0, #350
 2443 0122 FFF7FEFF 		bl	LCD_DrawCircle
 2444              	.LVL368:
 2445              		.loc 1 579 31 view .LVU471
 2446 0126 5020     		movs	r0, #80
 2447 0128 FFF7FEFF 		bl	HAL_Delay
 2448              	.LVL369:
 580:Core/Src/lcd_test.c **** 	LCD_DrawCircle(350,60,30);   HAL_Delay(time);
 2449              		.loc 1 580 2 view .LVU472
 2450 012c 1E22     		movs	r2, #30
 2451 012e 3C21     		movs	r1, #60
 2452 0130 4FF4AF70 		mov	r0, #350
 2453 0134 FFF7FEFF 		bl	LCD_DrawCircle
 2454              	.LVL370:
 2455              		.loc 1 580 31 view .LVU473
 2456 0138 5020     		movs	r0, #80
 2457 013a FFF7FEFF 		bl	HAL_Delay
 2458              	.LVL371:
 581:Core/Src/lcd_test.c **** 
 582:Core/Src/lcd_test.c **** 	LCD_SetColor(LCD_RED);	
 2459              		.loc 1 582 2 view .LVU474
 2460 013e 2046     		mov	r0, r4
 2461 0140 FFF7FEFF 		bl	LCD_SetColor
 2462              	.LVL372:
 583:Core/Src/lcd_test.c **** 	LCD_DrawRect( 5,30,200,80);  HAL_Delay(time);	//ÁªòÂà∂Áü©ÂΩ¢
 2463              		.loc 1 583 2 view .LVU475
 2464 0144 5023     		movs	r3, #80
 2465 0146 C822     		movs	r2, #200
 2466 0148 1E21     		movs	r1, #30
 2467 014a 0520     		movs	r0, #5
 2468 014c FFF7FEFF 		bl	LCD_DrawRect
 2469              	.LVL373:
 2470              		.loc 1 583 31 view .LVU476
 2471 0150 5020     		movs	r0, #80
 2472 0152 FFF7FEFF 		bl	HAL_Delay
 2473              	.LVL374:
 584:Core/Src/lcd_test.c **** 	LCD_DrawRect(30,35,150,70); HAL_Delay(time);
 2474              		.loc 1 584 2 view .LVU477
 2475 0156 4623     		movs	r3, #70
 2476 0158 9622     		movs	r2, #150
 2477 015a 2321     		movs	r1, #35
ARM GAS  C:\Users\OSD\AppData\Local\Temp\cc2NoGol.s 			page 59


 2478 015c 1E20     		movs	r0, #30
 2479 015e FFF7FEFF 		bl	LCD_DrawRect
 2480              	.LVL375:
 2481              		.loc 1 584 30 view .LVU478
 2482 0162 5020     		movs	r0, #80
 2483 0164 FFF7FEFF 		bl	HAL_Delay
 2484              	.LVL376:
 585:Core/Src/lcd_test.c **** 	LCD_DrawRect(55,40,100,60);  HAL_Delay(time);
 2485              		.loc 1 585 2 view .LVU479
 2486 0168 3C23     		movs	r3, #60
 2487 016a 6422     		movs	r2, #100
 2488 016c 2821     		movs	r1, #40
 2489 016e 3720     		movs	r0, #55
 2490 0170 FFF7FEFF 		bl	LCD_DrawRect
 2491              	.LVL377:
 2492              		.loc 1 585 31 view .LVU480
 2493 0174 5020     		movs	r0, #80
 2494 0176 FFF7FEFF 		bl	HAL_Delay
 2495              	.LVL378:
 586:Core/Src/lcd_test.c **** 	LCD_DrawRect(80,45, 50,50);   HAL_Delay(time);
 2496              		.loc 1 586 2 view .LVU481
 2497 017a 3223     		movs	r3, #50
 2498 017c 1A46     		mov	r2, r3
 2499 017e 2D21     		movs	r1, #45
 2500 0180 5020     		movs	r0, #80
 2501 0182 FFF7FEFF 		bl	LCD_DrawRect
 2502              	.LVL379:
 2503              		.loc 1 586 32 view .LVU482
 2504 0186 5020     		movs	r0, #80
 2505 0188 FFF7FEFF 		bl	HAL_Delay
 2506              	.LVL380:
 587:Core/Src/lcd_test.c **** 
 588:Core/Src/lcd_test.c **** 	LCD_SetColor(LIGHT_MAGENTA);	
 2507              		.loc 1 588 2 view .LVU483
 2508 018c 6FF4FE40 		mvn	r0, #32512
 2509 0190 FFF7FEFF 		bl	LCD_SetColor
 2510              	.LVL381:
 589:Core/Src/lcd_test.c **** 	LCD_DrawEllipse(350,200,100,50); HAL_Delay(time);	//ÁªòÂà∂Ê§≠ÂúÜ
 2511              		.loc 1 589 2 view .LVU484
 2512 0194 3223     		movs	r3, #50
 2513 0196 6422     		movs	r2, #100
 2514 0198 C821     		movs	r1, #200
 2515 019a 4FF4AF70 		mov	r0, #350
 2516 019e FFF7FEFF 		bl	LCD_DrawEllipse
 2517              	.LVL382:
 2518              		.loc 1 589 35 view .LVU485
 2519 01a2 5020     		movs	r0, #80
 2520 01a4 FFF7FEFF 		bl	HAL_Delay
 2521              	.LVL383:
 590:Core/Src/lcd_test.c **** 	LCD_DrawEllipse(350,200,80,40);  HAL_Delay(time);
 2522              		.loc 1 590 2 view .LVU486
 2523 01a8 2823     		movs	r3, #40
 2524 01aa 5022     		movs	r2, #80
 2525 01ac C821     		movs	r1, #200
 2526 01ae 4FF4AF70 		mov	r0, #350
 2527 01b2 FFF7FEFF 		bl	LCD_DrawEllipse
 2528              	.LVL384:
ARM GAS  C:\Users\OSD\AppData\Local\Temp\cc2NoGol.s 			page 60


 2529              		.loc 1 590 35 view .LVU487
 2530 01b6 5020     		movs	r0, #80
 2531 01b8 FFF7FEFF 		bl	HAL_Delay
 2532              	.LVL385:
 591:Core/Src/lcd_test.c **** 	LCD_DrawEllipse(350,200,60,30);  HAL_Delay(time);
 2533              		.loc 1 591 2 view .LVU488
 2534 01bc 1E23     		movs	r3, #30
 2535 01be 3C22     		movs	r2, #60
 2536 01c0 C821     		movs	r1, #200
 2537 01c2 4FF4AF70 		mov	r0, #350
 2538 01c6 FFF7FEFF 		bl	LCD_DrawEllipse
 2539              	.LVL386:
 2540              		.loc 1 591 35 view .LVU489
 2541 01ca 5020     		movs	r0, #80
 2542 01cc FFF7FEFF 		bl	HAL_Delay
 2543              	.LVL387:
 592:Core/Src/lcd_test.c **** 	LCD_DrawEllipse(350,200,40,20);  HAL_Delay(time);
 2544              		.loc 1 592 2 view .LVU490
 2545 01d0 1423     		movs	r3, #20
 2546 01d2 2822     		movs	r2, #40
 2547 01d4 C821     		movs	r1, #200
 2548 01d6 4FF4AF70 		mov	r0, #350
 2549 01da FFF7FEFF 		bl	LCD_DrawEllipse
 2550              	.LVL388:
 2551              		.loc 1 592 35 view .LVU491
 2552 01de 5020     		movs	r0, #80
 2553 01e0 FFF7FEFF 		bl	HAL_Delay
 2554              	.LVL389:
 593:Core/Src/lcd_test.c **** 
 594:Core/Src/lcd_test.c **** 	LCD_SetColor(LCD_WHITE);	
 2555              		.loc 1 594 2 view .LVU492
 2556 01e4 4FF0FF30 		mov	r0, #-1
 2557 01e8 FFF7FEFF 		bl	LCD_SetColor
 2558              	.LVL390:
 595:Core/Src/lcd_test.c **** 	LCD_DrawLine(0,0,479,0); 	//ÁªòÂà∂Áü©ÂΩ¢Ê°Ü
 2559              		.loc 1 595 2 view .LVU493
 2560 01ec 0023     		movs	r3, #0
 2561 01ee 40F2DF12 		movw	r2, #479
 2562 01f2 1946     		mov	r1, r3
 2563 01f4 1846     		mov	r0, r3
 2564 01f6 FFF7FEFF 		bl	LCD_DrawLine
 2565              	.LVL391:
 596:Core/Src/lcd_test.c **** 	LCD_DrawLine(479,0,479,271);  
 2566              		.loc 1 596 2 view .LVU494
 2567 01fa 40F20F13 		movw	r3, #271
 2568 01fe 40F2DF12 		movw	r2, #479
 2569 0202 0021     		movs	r1, #0
 2570 0204 1046     		mov	r0, r2
 2571 0206 FFF7FEFF 		bl	LCD_DrawLine
 2572              	.LVL392:
 597:Core/Src/lcd_test.c **** 	LCD_DrawLine(479,271,0,271);  
 2573              		.loc 1 597 2 view .LVU495
 2574 020a 40F20F13 		movw	r3, #271
 2575 020e 0022     		movs	r2, #0
 2576 0210 1946     		mov	r1, r3
 2577 0212 40F2DF10 		movw	r0, #479
 2578 0216 FFF7FEFF 		bl	LCD_DrawLine
ARM GAS  C:\Users\OSD\AppData\Local\Temp\cc2NoGol.s 			page 61


 2579              	.LVL393:
 598:Core/Src/lcd_test.c **** 	LCD_DrawLine(0,271,0,0);  
 2580              		.loc 1 598 2 view .LVU496
 2581 021a 0023     		movs	r3, #0
 2582 021c 1A46     		mov	r2, r3
 2583 021e 40F20F11 		movw	r1, #271
 2584 0222 1846     		mov	r0, r3
 2585 0224 FFF7FEFF 		bl	LCD_DrawLine
 2586              	.LVL394:
 599:Core/Src/lcd_test.c **** 
 600:Core/Src/lcd_test.c **** 	HAL_Delay(2000);	
 2587              		.loc 1 600 2 view .LVU497
 2588 0228 4FF4FA60 		mov	r0, #2000
 2589 022c FFF7FEFF 		bl	HAL_Delay
 2590              	.LVL395:
 601:Core/Src/lcd_test.c **** }
 2591              		.loc 1 601 1 is_stmt 0 view .LVU498
 2592 0230 02B0     		add	sp, sp, #8
 2593              		.cfi_def_cfa_offset 8
 2594              		@ sp needed
 2595 0232 10BD     		pop	{r4, pc}
 2596              	.L63:
 2597              		.align	2
 2598              	.L62:
 2599 0234 F8EDB9FF 		.word	-4592136
 2600 0238 00000000 		.word	CH_Font32
 2601 023c 333333FF 		.word	-13421773
 2602 0240 00000000 		.word	.LC43
 2603 0244 2379FDFF 		.word	-165597
 2604 0248 00000000 		.word	Image_FANKE_240x83
 2605 024c 663300FF 		.word	-16764058
 2606 0250 0000FFFF 		.word	-65536
 2607 0254 FF0000FF 		.word	-16776961
 2608 0258 A3A3A3FF 		.word	-6052957
 2609              		.cfi_endproc
 2610              	.LFE153:
 2612              		.section	.text.LCD_Test_Image,"ax",%progbits
 2613              		.align	1
 2614              		.global	LCD_Test_Image
 2615              		.syntax unified
 2616              		.thumb
 2617              		.thumb_func
 2619              	LCD_Test_Image:
 2620              	.LFB154:
 602:Core/Src/lcd_test.c **** /*************************************************************************************************
 603:Core/Src/lcd_test.c **** *	ÂáΩ Êï∞ Âêç:	LCD_Test_Image
 604:Core/Src/lcd_test.c **** *
 605:Core/Src/lcd_test.c **** *	ÂáΩÊï∞ÂäüËÉΩ:	ÂõæÁâáÊòæÁ§∫ÊµãËØï
 606:Core/Src/lcd_test.c **** *
 607:Core/Src/lcd_test.c **** *	ËØ¥    Êòé:	Êó†	
 608:Core/Src/lcd_test.c **** *************************************************************************************************/
 609:Core/Src/lcd_test.c **** 
 610:Core/Src/lcd_test.c **** void LCD_Test_Image(void)
 611:Core/Src/lcd_test.c **** {
 2621              		.loc 1 611 1 is_stmt 1 view -0
 2622              		.cfi_startproc
 2623              		@ args = 0, pretend = 0, frame = 0
ARM GAS  C:\Users\OSD\AppData\Local\Temp\cc2NoGol.s 			page 62


 2624              		@ frame_needed = 0, uses_anonymous_args = 0
 2625 0000 00B5     		push	{lr}
 2626              		.cfi_def_cfa_offset 4
 2627              		.cfi_offset 14, -4
 2628 0002 83B0     		sub	sp, sp, #12
 2629              		.cfi_def_cfa_offset 16
 612:Core/Src/lcd_test.c **** 	uint16_t i;					// ËÆ°Êï∞ÂèòÈáè
 2630              		.loc 1 612 2 view .LVU500
 613:Core/Src/lcd_test.c **** 		
 614:Core/Src/lcd_test.c **** // ÁªòÂà∂ÂàùÂßãÁïåÈù¢ÔºåÂåÖÊã¨Ê†áÈ¢ò„ÄÅLOGO‰ª•ÂèäËøõÂ∫¶Êù°>>>>>
 615:Core/Src/lcd_test.c **** 	
 616:Core/Src/lcd_test.c **** 	// LCD_SetBackColor(0xffB9EDF8); 			//	ËÆæÁΩÆËÉåÊôØËâ≤Ôºå‰ΩøÁî®Ëá™ÂÆö‰πâÈ¢úËâ≤
 617:Core/Src/lcd_test.c **** 	// LCD_Clear(); 									//	Ê∏ÖÂ±èÔºåÂà∑ËÉåÊôØËâ≤
 618:Core/Src/lcd_test.c **** 	
 619:Core/Src/lcd_test.c **** 	// LCD_SetTextFont(&CH_Font32);				// ËÆæÁΩÆ3232‰∏≠ÊñáÂ≠ó‰Ωì,ASCIIÂ≠ó‰ΩìÂØπÂ∫î‰∏∫3216
 620:Core/Src/lcd_test.c **** 	// LCD_SetColor(0xff333333);					//	ËÆæÁΩÆÁîªÁ¨îËâ≤Ôºå‰ΩøÁî®Ëá™ÂÆö‰πâÈ¢úËâ≤
 621:Core/Src/lcd_test.c **** 	// LCD_DisplayText(176, 87,"ÂõæÁâáÁªòÂà∂");	// ÊòæÁ§∫ÊñáÊú¨
 622:Core/Src/lcd_test.c **** 	
 623:Core/Src/lcd_test.c **** 	// LCD_SetColor(0xfffd7923);					//	ËÆæÁΩÆÁîªÁ¨îËâ≤Ôºå‰ΩøÁî®Ëá™ÂÆö‰πâÈ¢úËâ≤
 624:Core/Src/lcd_test.c **** 	// LCD_DrawImage(  120, 120, 240, 83, Image_FANKE_240x83) ;		// ÊòæÁ§∫LOGOÂõæÁâá
 625:Core/Src/lcd_test.c **** 
 626:Core/Src/lcd_test.c **** 	// LCD_SetColor(0xff003366);					//	ËÆæÁΩÆÁîªÁ¨îËâ≤Ôºå‰ΩøÁî®Ëá™ÂÆö‰πâÈ¢úËâ≤	
 627:Core/Src/lcd_test.c **** // 	for(i=0;i<100;i++)
 628:Core/Src/lcd_test.c **** //    {
 629:Core/Src/lcd_test.c **** // 		LCD_FillRect(44,228,4*i,6);	// ÁªòÂà∂Áü©ÂΩ¢ÔºåÂÆûÁé∞ÁÆÄÊòìËøõÂ∫¶Êù°ÁöÑÊïàÊûú
 630:Core/Src/lcd_test.c **** // 		HAL_Delay(15);	
 631:Core/Src/lcd_test.c **** //    }
 632:Core/Src/lcd_test.c **** 	
 633:Core/Src/lcd_test.c **** // ÂõæÁâáÁªòÂà∂>>>>>>>	
 634:Core/Src/lcd_test.c **** 
 635:Core/Src/lcd_test.c **** 	// LCD_SetBackColor(LCD_BLACK); 			//	ËÆæÁΩÆËÉåÊôØËâ≤
 636:Core/Src/lcd_test.c **** 	// LCD_Clear(); 								// Ê∏ÖÂ±è
 637:Core/Src/lcd_test.c **** 	
 638:Core/Src/lcd_test.c **** 	// LCD_SetColor( 0xFFFFAD60);
 639:Core/Src/lcd_test.c **** 	// LCD_DrawImage( 84, 49, 60, 60, Image_Android_60x60) ;
 640:Core/Src/lcd_test.c **** 	
 641:Core/Src/lcd_test.c **** 	// LCD_SetColor( 0xFFFFB6B9);
 642:Core/Src/lcd_test.c **** 	// LCD_DrawImage( 210, 55, 60, 60, Image_Cloud_60x60) ;
 643:Core/Src/lcd_test.c **** 	
 644:Core/Src/lcd_test.c **** 	// LCD_SetColor( 0xFF8AC6D1);
 645:Core/Src/lcd_test.c **** 	// LCD_DrawImage( 336, 55, 60, 60, Image_Folder_60x60) ;
 646:Core/Src/lcd_test.c **** 
 647:Core/Src/lcd_test.c **** 	// LCD_SetColor( 0xFFFFF5C3);
 648:Core/Src/lcd_test.c **** 	// LCD_DrawImage( 84,  162, 60, 60, Image_Message_60x60) ;
 649:Core/Src/lcd_test.c **** 	
 650:Core/Src/lcd_test.c **** 	// LCD_SetColor( 0xFFA696C8);
 651:Core/Src/lcd_test.c **** 	// LCD_DrawImage( 210, 162, 60, 60, Image_Toys_60x60) ;
 652:Core/Src/lcd_test.c **** 	
 653:Core/Src/lcd_test.c **** 	// LCD_SetColor( 0xFFE59572);
 654:Core/Src/lcd_test.c **** 	// LCD_DrawImage( 336, 162, 60, 60, Image_Video_60x60) ;	
 655:Core/Src/lcd_test.c **** 
 656:Core/Src/lcd_test.c **** 	// HAL_Delay(2000);
 657:Core/Src/lcd_test.c **** 	
 658:Core/Src/lcd_test.c **** 	LCD_SetBackColor(LCD_WHITE); 			//	ËÆæÁΩÆËÉåÊôØËâ≤
 2631              		.loc 1 658 2 view .LVU501
 2632 0004 4FF0FF30 		mov	r0, #-1
 2633 0008 FFF7FEFF 		bl	LCD_SetBackColor
ARM GAS  C:\Users\OSD\AppData\Local\Temp\cc2NoGol.s 			page 63


 2634              	.LVL396:
 659:Core/Src/lcd_test.c **** 	LCD_Clear(); 								// Ê∏ÖÂ±è
 2635              		.loc 1 659 2 view .LVU502
 2636 000c FFF7FEFF 		bl	LCD_Clear
 2637              	.LVL397:
 660:Core/Src/lcd_test.c **** 	LCD_SetColor( LCD_BLACK);
 2638              		.loc 1 660 2 view .LVU503
 2639 0010 4FF07F40 		mov	r0, #-16777216
 2640 0014 FFF7FEFF 		bl	LCD_SetColor
 2641              	.LVL398:
 661:Core/Src/lcd_test.c **** 	LCD_DrawImage( 0, 16, 480, 239, Image_FANKE_480x239) ;	
 2642              		.loc 1 661 2 view .LVU504
 2643 0018 074B     		ldr	r3, .L66
 2644 001a 0093     		str	r3, [sp]
 2645 001c EF23     		movs	r3, #239
 2646 001e 4FF4F072 		mov	r2, #480
 2647 0022 1021     		movs	r1, #16
 2648 0024 0020     		movs	r0, #0
 2649 0026 FFF7FEFF 		bl	LCD_DrawImage
 2650              	.LVL399:
 662:Core/Src/lcd_test.c **** 	HAL_Delay(2000);
 2651              		.loc 1 662 2 view .LVU505
 2652 002a 4FF4FA60 		mov	r0, #2000
 2653 002e FFF7FEFF 		bl	HAL_Delay
 2654              	.LVL400:
 663:Core/Src/lcd_test.c **** 	
 664:Core/Src/lcd_test.c **** }
 2655              		.loc 1 664 1 is_stmt 0 view .LVU506
 2656 0032 03B0     		add	sp, sp, #12
 2657              		.cfi_def_cfa_offset 4
 2658              		@ sp needed
 2659 0034 5DF804FB 		ldr	pc, [sp], #4
 2660              	.L67:
 2661              		.align	2
 2662              	.L66:
 2663 0038 00000000 		.word	Image_FANKE_480x239
 2664              		.cfi_endproc
 2665              	.LFE154:
 2667              		.section	.rodata.LCD_Test_Vertical.str1.4,"aMS",%progbits,1
 2668              		.align	2
 2669              	.LC44:
 2670 0000 E7AB96E5 		.ascii	"\347\253\226\345\261\217\346\230\276\347\244\272\000"
 2670      B18FE698 
 2670      BEE7A4BA 
 2670      00
 2671 000d 000000   		.align	2
 2672              	.LC45:
 2673 0010 21232425 		.ascii	"!#$%&'()*+,-.012\000"
 2673      26272829 
 2673      2A2B2C2D 
 2673      2E303132 
 2673      00
 2674 0021 000000   		.align	2
 2675              	.LC46:
 2676 0024 21232425 		.ascii	"!#$%&'()*+,-.0123456\000"
 2676      26272829 
 2676      2A2B2C2D 
ARM GAS  C:\Users\OSD\AppData\Local\Temp\cc2NoGol.s 			page 64


 2676      2E303132 
 2676      33343536 
 2677 0039 000000   		.align	2
 2678              	.LC47:
 2679 003c 21232425 		.ascii	"!#$%&'()*+,-.012345678\000"
 2679      26272829 
 2679      2A2B2C2D 
 2679      2E303132 
 2679      33343536 
 2680 0053 00       		.align	2
 2681              	.LC48:
 2682 0054 21232425 		.ascii	"!#$%&'()*+,-.0123456789:;\000"
 2682      26272829 
 2682      2A2B2C2D 
 2682      2E303132 
 2682      33343536 
 2683 006e 0000     		.align	2
 2684              	.LC49:
 2685 0070 21232425 		.ascii	"!#$%&'()*+,-.0123456789:;<=>\000"
 2685      26272829 
 2685      2A2B2C2D 
 2685      2E303132 
 2685      33343536 
 2686 008d 000000   		.align	2
 2687              	.LC50:
 2688 0090 53544D33 		.ascii	"STM32H743 LCD TEST\000"
 2688      32483734 
 2688      33204C43 
 2688      44205445 
 2688      535400
 2689 00a3 00       		.align	2
 2690              	.LC51:
 2691 00a4 4C494748 		.ascii	"LIGHT_YELLOW\000"
 2691      545F5945 
 2691      4C4C4F57 
 2691      00
 2692 00b1 000000   		.align	2
 2693              	.LC52:
 2694 00b4 4C494748 		.ascii	"LIGHT_GREY\000"
 2694      545F4752 
 2694      455900
 2695 00bf 00       		.align	2
 2696              	.LC53:
 2697 00c0 4441524B 		.ascii	"DARK_BLUE\000"
 2697      5F424C55 
 2697      4500
 2698 00ca 0000     		.align	2
 2699              	.LC54:
 2700 00cc 4441524B 		.ascii	"DARK_GREEN\000"
 2700      5F475245 
 2700      454E00
 2701 00d7 00       		.align	2
 2702              	.LC55:
 2703 00d8 4441524B 		.ascii	"DARK_RED\000"
 2703      5F524544 
 2703      00
 2704 00e1 000000   		.align	2
ARM GAS  C:\Users\OSD\AppData\Local\Temp\cc2NoGol.s 			page 65


 2705              	.LC56:
 2706 00e4 4441524B 		.ascii	"DARK_CYAN\000"
 2706      5F435941 
 2706      4E00
 2707 00ee 0000     		.align	2
 2708              	.LC57:
 2709 00f0 4441524B 		.ascii	"DARK_MAGENTA\000"
 2709      5F4D4147 
 2709      454E5441 
 2709      00
 2710 00fd 000000   		.align	2
 2711              	.LC58:
 2712 0100 4441524B 		.ascii	"DARK_YELLOW\000"
 2712      5F59454C 
 2712      4C4F5700 
 2713              		.align	2
 2714              	.LC59:
 2715 010c 4441524B 		.ascii	"DARK_GREY\000"
 2715      5F475245 
 2715      5900
 2716 0116 0000     		.align	2
 2717              	.LC60:
 2718 0118 30584646 		.ascii	"0XFF0000\000"
 2718      30303030 
 2718      00
 2719 0121 000000   		.align	2
 2720              	.LC61:
 2721 0124 30583030 		.ascii	"0X00FF00\000"
 2721      46463030 
 2721      00
 2722 012d 000000   		.align	2
 2723              	.LC62:
 2724 0130 30583030 		.ascii	"0X0000FF\000"
 2724      30304646 
 2724      00
 2725 0139 000000   		.align	2
 2726              	.LC63:
 2727 013c 30784646 		.ascii	"0xFF8080\000"
 2727      38303830 
 2727      00
 2728 0145 000000   		.align	2
 2729              	.LC64:
 2730 0148 30783830 		.ascii	"0x80FF80\000"
 2730      46463830 
 2730      00
 2731 0151 000000   		.align	2
 2732              	.LC65:
 2733 0154 30783830 		.ascii	"0x8080FF\000"
 2733      38304646 
 2733      00
 2734 015d 000000   		.align	2
 2735              	.LC66:
 2736 0160 30783030 		.ascii	"0x000080\000"
 2736      30303830 
 2736      00
 2737 0169 000000   		.align	2
 2738              	.LC67:
ARM GAS  C:\Users\OSD\AppData\Local\Temp\cc2NoGol.s 			page 66


 2739 016c 30783830 		.ascii	"0x800000\000"
 2739      30303030 
 2739      00
 2740 0175 000000   		.align	2
 2741              	.LC68:
 2742 0178 30783030 		.ascii	"0x008000\000"
 2742      38303030 
 2742      00
 2743 0181 000000   		.align	2
 2744              	.LC69:
 2745 0184 30783030 		.ascii	"0x008080\000"
 2745      38303830 
 2745      00
 2746 018d 000000   		.align	2
 2747              	.LC70:
 2748 0190 30783830 		.ascii	"0x808000\000"
 2748      38303030 
 2748      00
 2749 0199 000000   		.align	2
 2750              	.LC71:
 2751 019c 30783830 		.ascii	"0x800080\000"
 2751      30303830 
 2751      00
 2752              		.section	.text.LCD_Test_Vertical,"ax",%progbits
 2753              		.align	1
 2754              		.global	LCD_Test_Vertical
 2755              		.syntax unified
 2756              		.thumb
 2757              		.thumb_func
 2759              	LCD_Test_Vertical:
 2760              	.LFB155:
 665:Core/Src/lcd_test.c **** 
 666:Core/Src/lcd_test.c **** 
 667:Core/Src/lcd_test.c **** /*************************************************************************************************
 668:Core/Src/lcd_test.c **** *	ÂáΩ Êï∞ Âêç:	LCD_Test_Vertical
 669:Core/Src/lcd_test.c **** *
 670:Core/Src/lcd_test.c **** *	ÂáΩÊï∞ÂäüËÉΩ:	Á´ñÂ±èÊµãËØï
 671:Core/Src/lcd_test.c **** *
 672:Core/Src/lcd_test.c **** *	ËØ¥    Êòé:	Êó†	
 673:Core/Src/lcd_test.c **** *************************************************************************************************/
 674:Core/Src/lcd_test.c **** 
 675:Core/Src/lcd_test.c **** void  LCD_Test_Vertical(void)
 676:Core/Src/lcd_test.c **** {
 2761              		.loc 1 676 1 is_stmt 1 view -0
 2762              		.cfi_startproc
 2763              		@ args = 0, pretend = 0, frame = 0
 2764              		@ frame_needed = 0, uses_anonymous_args = 0
 2765 0000 2DE9F04F 		push	{r4, r5, r6, r7, r8, r9, r10, fp, lr}
 2766              		.cfi_def_cfa_offset 36
 2767              		.cfi_offset 4, -36
 2768              		.cfi_offset 5, -32
 2769              		.cfi_offset 6, -28
 2770              		.cfi_offset 7, -24
 2771              		.cfi_offset 8, -20
 2772              		.cfi_offset 9, -16
 2773              		.cfi_offset 10, -12
 2774              		.cfi_offset 11, -8
ARM GAS  C:\Users\OSD\AppData\Local\Temp\cc2NoGol.s 			page 67


 2775              		.cfi_offset 14, -4
 2776 0004 83B0     		sub	sp, sp, #12
 2777              		.cfi_def_cfa_offset 48
 677:Core/Src/lcd_test.c **** 	uint16_t i;
 2778              		.loc 1 677 2 view .LVU508
 678:Core/Src/lcd_test.c **** 	uint16_t time = 100;	
 2779              		.loc 1 678 2 view .LVU509
 2780              	.LVL401:
 679:Core/Src/lcd_test.c **** 	
 680:Core/Src/lcd_test.c **** 	LCD_DisplayDirection(Direction_V); // ÂàáÊç¢Âà∞Á´ñÂ±èÊòæÁ§∫
 2781              		.loc 1 680 2 view .LVU510
 2782 0006 0120     		movs	r0, #1
 2783 0008 FFF7FEFF 		bl	LCD_DisplayDirection
 2784              	.LVL402:
 681:Core/Src/lcd_test.c **** 	
 682:Core/Src/lcd_test.c **** // ÁªòÂà∂ÂàùÂßãÁïåÈù¢ÔºåÂåÖÊã¨Ê†áÈ¢ò„ÄÅLOGO‰ª•ÂèäËøõÂ∫¶Êù°>>>>>
 683:Core/Src/lcd_test.c **** 	
 684:Core/Src/lcd_test.c **** 	LCD_SetBackColor(0xffB9EDF8); 			//	ËÆæÁΩÆËÉåÊôØËâ≤Ôºå‰ΩøÁî®Ëá™ÂÆö‰πâÈ¢úËâ≤
 2785              		.loc 1 684 2 view .LVU511
 2786 000c 0F48     		ldr	r0, .L102
 2787 000e FFF7FEFF 		bl	LCD_SetBackColor
 2788              	.LVL403:
 685:Core/Src/lcd_test.c **** 	LCD_Clear(); 									//	Ê∏ÖÂ±èÔºåÂà∑ËÉåÊôØËâ≤
 2789              		.loc 1 685 2 view .LVU512
 2790 0012 FFF7FEFF 		bl	LCD_Clear
 2791              	.LVL404:
 686:Core/Src/lcd_test.c **** 	
 687:Core/Src/lcd_test.c **** 	LCD_SetTextFont(&CH_Font32);				// ËÆæÁΩÆ3232‰∏≠ÊñáÂ≠ó‰Ωì,ASCIIÂ≠ó‰ΩìÂØπÂ∫î‰∏∫3216
 2792              		.loc 1 687 2 view .LVU513
 2793 0016 0E48     		ldr	r0, .L102+4
 2794 0018 FFF7FEFF 		bl	LCD_SetTextFont
 2795              	.LVL405:
 688:Core/Src/lcd_test.c **** 	LCD_SetColor(0xff333333);					//	ËÆæÁΩÆÁîªÁ¨îËâ≤Ôºå‰ΩøÁî®Ëá™ÂÆö‰πâÈ¢úËâ≤
 2796              		.loc 1 688 2 view .LVU514
 2797 001c 0D48     		ldr	r0, .L102+8
 2798 001e FFF7FEFF 		bl	LCD_SetColor
 2799              	.LVL406:
 689:Core/Src/lcd_test.c **** 	LCD_DisplayText(72, 100,"Á´ñÂ±èÊòæÁ§∫");	// ÊòæÁ§∫ÊñáÊú¨
 2800              		.loc 1 689 2 view .LVU515
 2801 0022 0D4A     		ldr	r2, .L102+12
 2802 0024 6421     		movs	r1, #100
 2803 0026 4820     		movs	r0, #72
 2804 0028 FFF7FEFF 		bl	LCD_DisplayText
 2805              	.LVL407:
 690:Core/Src/lcd_test.c **** 	
 691:Core/Src/lcd_test.c **** 	LCD_SetColor(0xfffd7923);					//	ËÆæÁΩÆÁîªÁ¨îËâ≤Ôºå‰ΩøÁî®Ëá™ÂÆö‰πâÈ¢úËâ≤
 2806              		.loc 1 691 2 view .LVU516
 2807 002c 0B48     		ldr	r0, .L102+16
 2808 002e FFF7FEFF 		bl	LCD_SetColor
 2809              	.LVL408:
 692:Core/Src/lcd_test.c **** 	LCD_DrawImage( 16, 150, 240, 83, Image_FANKE_240x83) ;		// ÊòæÁ§∫LOGOÂõæÁâá
 2810              		.loc 1 692 2 view .LVU517
 2811 0032 0B4B     		ldr	r3, .L102+20
 2812 0034 0093     		str	r3, [sp]
 2813 0036 5323     		movs	r3, #83
 2814 0038 F022     		movs	r2, #240
 2815 003a 9621     		movs	r1, #150
ARM GAS  C:\Users\OSD\AppData\Local\Temp\cc2NoGol.s 			page 68


 2816 003c 1020     		movs	r0, #16
 2817 003e FFF7FEFF 		bl	LCD_DrawImage
 2818              	.LVL409:
 693:Core/Src/lcd_test.c **** 
 694:Core/Src/lcd_test.c **** 	LCD_SetColor(0xff003366);					//	ËÆæÁΩÆÁîªÁ¨îËâ≤Ôºå‰ΩøÁî®Ëá™ÂÆö‰πâÈ¢úËâ≤	
 2819              		.loc 1 694 2 view .LVU518
 2820 0042 0848     		ldr	r0, .L102+24
 2821 0044 FFF7FEFF 		bl	LCD_SetColor
 2822              	.LVL410:
 695:Core/Src/lcd_test.c **** 	for(i=0;i<130;i++)
 2823              		.loc 1 695 2 view .LVU519
 2824              		.loc 1 695 7 is_stmt 0 view .LVU520
 2825 0048 0024     		movs	r4, #0
 2826              		.loc 1 695 2 view .LVU521
 2827 004a 19E0     		b	.L69
 2828              	.L103:
 2829              		.align	2
 2830              	.L102:
 2831 004c F8EDB9FF 		.word	-4592136
 2832 0050 00000000 		.word	CH_Font32
 2833 0054 333333FF 		.word	-13421773
 2834 0058 00000000 		.word	.LC44
 2835 005c 2379FDFF 		.word	-165597
 2836 0060 00000000 		.word	Image_FANKE_240x83
 2837 0064 663300FF 		.word	-16764058
 2838              	.LVL411:
 2839              	.L70:
 696:Core/Src/lcd_test.c ****    {
 697:Core/Src/lcd_test.c **** 		LCD_FillRect(6,250,2*i,6);	// ÁªòÂà∂Áü©ÂΩ¢ÔºåÂÆûÁé∞ÁÆÄÊòìËøõÂ∫¶Êù°ÁöÑÊïàÊûú
 2840              		.loc 1 697 3 is_stmt 1 discriminator 3 view .LVU522
 2841 0068 6200     		lsls	r2, r4, #1
 2842 006a 92B2     		uxth	r2, r2
 2843 006c 0623     		movs	r3, #6
 2844 006e FA21     		movs	r1, #250
 2845 0070 1846     		mov	r0, r3
 2846 0072 FFF7FEFF 		bl	LCD_FillRect
 2847              	.LVL412:
 698:Core/Src/lcd_test.c **** 		HAL_Delay(10);	
 2848              		.loc 1 698 3 discriminator 3 view .LVU523
 2849 0076 0A20     		movs	r0, #10
 2850 0078 FFF7FEFF 		bl	HAL_Delay
 2851              	.LVL413:
 695:Core/Src/lcd_test.c **** 	for(i=0;i<130;i++)
 2852              		.loc 1 695 16 discriminator 3 view .LVU524
 695:Core/Src/lcd_test.c **** 	for(i=0;i<130;i++)
 2853              		.loc 1 695 17 is_stmt 0 discriminator 3 view .LVU525
 2854 007c 0134     		adds	r4, r4, #1
 2855              	.LVL414:
 695:Core/Src/lcd_test.c **** 	for(i=0;i<130;i++)
 2856              		.loc 1 695 17 discriminator 3 view .LVU526
 2857 007e A4B2     		uxth	r4, r4
 2858              	.LVL415:
 2859              	.L69:
 695:Core/Src/lcd_test.c **** 	for(i=0;i<130;i++)
 2860              		.loc 1 695 10 is_stmt 1 discriminator 1 view .LVU527
 695:Core/Src/lcd_test.c **** 	for(i=0;i<130;i++)
 2861              		.loc 1 695 2 is_stmt 0 discriminator 1 view .LVU528
ARM GAS  C:\Users\OSD\AppData\Local\Temp\cc2NoGol.s 			page 69


 2862 0080 812C     		cmp	r4, #129
 2863 0082 F1D9     		bls	.L70
 699:Core/Src/lcd_test.c ****    }
 700:Core/Src/lcd_test.c **** 	
 701:Core/Src/lcd_test.c **** // ÁªòÂà∂ÂÖ∂ÂÆÉÂÜÖÂÆπ>>>>>>>		
 702:Core/Src/lcd_test.c **** 	
 703:Core/Src/lcd_test.c **** 	LCD_SetBackColor(LCD_BLACK); //ËÆæÁΩÆËÉåÊôØËâ≤
 2864              		.loc 1 703 2 is_stmt 1 view .LVU529
 2865 0084 4FF07F40 		mov	r0, #-16777216
 2866 0088 FFF7FEFF 		bl	LCD_SetBackColor
 2867              	.LVL416:
 704:Core/Src/lcd_test.c **** 	LCD_Clear(); //Ê∏ÖÂ±èÔºåÂà∑ËÉåÊôØËâ≤		
 2868              		.loc 1 704 2 view .LVU530
 2869 008c FFF7FEFF 		bl	LCD_Clear
 2870              	.LVL417:
 705:Core/Src/lcd_test.c **** 
 706:Core/Src/lcd_test.c **** 	LCD_SetColor(LCD_WHITE);
 2871              		.loc 1 706 2 view .LVU531
 2872 0090 4FF0FF30 		mov	r0, #-1
 2873 0094 FFF7FEFF 		bl	LCD_SetColor
 2874              	.LVL418:
 707:Core/Src/lcd_test.c **** 	LCD_SetFont(&Font32);LCD_DisplayString(0, 0,"!#$%&'()*+,-.012"); 					HAL_Delay(time);		
 2875              		.loc 1 707 2 view .LVU532
 2876 0098 F24E     		ldr	r6, .L104
 2877 009a 3046     		mov	r0, r6
 2878 009c FFF7FEFF 		bl	LCD_SetFont
 2879              	.LVL419:
 2880              		.loc 1 707 23 view .LVU533
 2881 00a0 F14A     		ldr	r2, .L104+4
 2882 00a2 0021     		movs	r1, #0
 2883 00a4 0846     		mov	r0, r1
 2884 00a6 FFF7FEFF 		bl	LCD_DisplayString
 2885              	.LVL420:
 2886              		.loc 1 707 72 view .LVU534
 2887 00aa 6420     		movs	r0, #100
 2888 00ac FFF7FEFF 		bl	HAL_Delay
 2889              	.LVL421:
 708:Core/Src/lcd_test.c **** 	LCD_SetFont(&Font24);LCD_DisplayString(0,32,"!#$%&'()*+,-.0123456");			 	HAL_Delay(time);
 2890              		.loc 1 708 2 view .LVU535
 2891 00b0 EE4D     		ldr	r5, .L104+8
 2892 00b2 2846     		mov	r0, r5
 2893 00b4 FFF7FEFF 		bl	LCD_SetFont
 2894              	.LVL422:
 2895              		.loc 1 708 23 view .LVU536
 2896 00b8 ED4F     		ldr	r7, .L104+12
 2897 00ba 3A46     		mov	r2, r7
 2898 00bc 2021     		movs	r1, #32
 2899 00be 0020     		movs	r0, #0
 2900 00c0 FFF7FEFF 		bl	LCD_DisplayString
 2901              	.LVL423:
 2902              		.loc 1 708 75 view .LVU537
 2903 00c4 6420     		movs	r0, #100
 2904 00c6 FFF7FEFF 		bl	HAL_Delay
 2905              	.LVL424:
 709:Core/Src/lcd_test.c **** 	LCD_SetFont(&Font20);LCD_DisplayString(0,56,"!#$%&'()*+,-.012345678"); 			HAL_Delay(time);	
 2906              		.loc 1 709 2 view .LVU538
 2907 00ca DFF8EC93 		ldr	r9, .L104+84
ARM GAS  C:\Users\OSD\AppData\Local\Temp\cc2NoGol.s 			page 70


 2908 00ce 4846     		mov	r0, r9
 2909 00d0 FFF7FEFF 		bl	LCD_SetFont
 2910              	.LVL425:
 2911              		.loc 1 709 23 view .LVU539
 2912 00d4 DFF8E483 		ldr	r8, .L104+88
 2913 00d8 4246     		mov	r2, r8
 2914 00da 3821     		movs	r1, #56
 2915 00dc 0020     		movs	r0, #0
 2916 00de FFF7FEFF 		bl	LCD_DisplayString
 2917              	.LVL426:
 2918              		.loc 1 709 76 view .LVU540
 2919 00e2 6420     		movs	r0, #100
 2920 00e4 FFF7FEFF 		bl	HAL_Delay
 2921              	.LVL427:
 710:Core/Src/lcd_test.c **** 	LCD_SetFont(&Font16);LCD_DisplayString(0,76,"!#$%&'()*+,-.0123456789:;"); 		HAL_Delay(time);	
 2922              		.loc 1 710 2 view .LVU541
 2923 00e8 E24C     		ldr	r4, .L104+16
 2924              	.LVL428:
 2925              		.loc 1 710 2 is_stmt 0 view .LVU542
 2926 00ea 2046     		mov	r0, r4
 2927 00ec FFF7FEFF 		bl	LCD_SetFont
 2928              	.LVL429:
 2929              		.loc 1 710 23 is_stmt 1 view .LVU543
 2930 00f0 DFF8CCA3 		ldr	r10, .L104+92
 2931 00f4 5246     		mov	r2, r10
 2932 00f6 4C21     		movs	r1, #76
 2933 00f8 0020     		movs	r0, #0
 2934 00fa FFF7FEFF 		bl	LCD_DisplayString
 2935              	.LVL430:
 2936              		.loc 1 710 78 view .LVU544
 2937 00fe 6420     		movs	r0, #100
 2938 0100 FFF7FEFF 		bl	HAL_Delay
 2939              	.LVL431:
 711:Core/Src/lcd_test.c **** 	LCD_SetFont(&Font12);LCD_DisplayString(0,92,"!#$%&'()*+,-.0123456789:;<=>"); 	HAL_Delay(time);	
 2940              		.loc 1 711 2 view .LVU545
 2941 0104 DFF8BCB3 		ldr	fp, .L104+96
 2942 0108 5846     		mov	r0, fp
 2943 010a FFF7FEFF 		bl	LCD_SetFont
 2944              	.LVL432:
 2945              		.loc 1 711 23 view .LVU546
 2946 010e DA4A     		ldr	r2, .L104+20
 2947 0110 5C21     		movs	r1, #92
 2948 0112 0020     		movs	r0, #0
 2949 0114 FFF7FEFF 		bl	LCD_DisplayString
 2950              	.LVL433:
 2951              		.loc 1 711 80 view .LVU547
 2952 0118 6420     		movs	r0, #100
 2953 011a FFF7FEFF 		bl	HAL_Delay
 2954              	.LVL434:
 712:Core/Src/lcd_test.c ****                                                                                                    
 713:Core/Src/lcd_test.c **** 	LCD_SetColor(LCD_CYAN);                                                                           
 2955              		.loc 1 713 2 view .LVU548
 2956 011e 6FF47F00 		mvn	r0, #16711680
 2957 0122 FFF7FEFF 		bl	LCD_SetColor
 2958              	.LVL435:
 714:Core/Src/lcd_test.c **** 	LCD_SetFont(&Font12);LCD_DisplayString(0,104,"!#$%&'()*+,-.0123456789:;<=>");	HAL_Delay(time);	
 2959              		.loc 1 714 2 view .LVU549
ARM GAS  C:\Users\OSD\AppData\Local\Temp\cc2NoGol.s 			page 71


 2960 0126 5846     		mov	r0, fp
 2961 0128 FFF7FEFF 		bl	LCD_SetFont
 2962              	.LVL436:
 2963              		.loc 1 714 23 view .LVU550
 2964 012c D24A     		ldr	r2, .L104+20
 2965 012e 6821     		movs	r1, #104
 2966 0130 0020     		movs	r0, #0
 2967 0132 FFF7FEFF 		bl	LCD_DisplayString
 2968              	.LVL437:
 2969              		.loc 1 714 80 view .LVU551
 2970 0136 6420     		movs	r0, #100
 2971 0138 FFF7FEFF 		bl	HAL_Delay
 2972              	.LVL438:
 715:Core/Src/lcd_test.c **** 	LCD_SetFont(&Font16);LCD_DisplayString(0,116,"!#$%&'()*+,-.0123456789:;");		HAL_Delay(time);	
 2973              		.loc 1 715 2 view .LVU552
 2974 013c 2046     		mov	r0, r4
 2975 013e FFF7FEFF 		bl	LCD_SetFont
 2976              	.LVL439:
 2977              		.loc 1 715 23 view .LVU553
 2978 0142 5246     		mov	r2, r10
 2979 0144 7421     		movs	r1, #116
 2980 0146 0020     		movs	r0, #0
 2981 0148 FFF7FEFF 		bl	LCD_DisplayString
 2982              	.LVL440:
 2983              		.loc 1 715 78 view .LVU554
 2984 014c 6420     		movs	r0, #100
 2985 014e FFF7FEFF 		bl	HAL_Delay
 2986              	.LVL441:
 716:Core/Src/lcd_test.c **** 	LCD_SetFont(&Font20);LCD_DisplayString(0,132,"!#$%&'()*+,-.012345678");			HAL_Delay(time);		
 2987              		.loc 1 716 2 view .LVU555
 2988 0152 4846     		mov	r0, r9
 2989 0154 FFF7FEFF 		bl	LCD_SetFont
 2990              	.LVL442:
 2991              		.loc 1 716 23 view .LVU556
 2992 0158 4246     		mov	r2, r8
 2993 015a 8421     		movs	r1, #132
 2994 015c 0020     		movs	r0, #0
 2995 015e FFF7FEFF 		bl	LCD_DisplayString
 2996              	.LVL443:
 2997              		.loc 1 716 76 view .LVU557
 2998 0162 6420     		movs	r0, #100
 2999 0164 FFF7FEFF 		bl	HAL_Delay
 3000              	.LVL444:
 717:Core/Src/lcd_test.c **** 	LCD_SetFont(&Font24);LCD_DisplayString(0,152,"!#$%&'()*+,-.0123456");			HAL_Delay(time);		
 3001              		.loc 1 717 2 view .LVU558
 3002 0168 2846     		mov	r0, r5
 3003 016a FFF7FEFF 		bl	LCD_SetFont
 3004              	.LVL445:
 3005              		.loc 1 717 23 view .LVU559
 3006 016e 3A46     		mov	r2, r7
 3007 0170 9821     		movs	r1, #152
 3008 0172 0020     		movs	r0, #0
 3009 0174 FFF7FEFF 		bl	LCD_DisplayString
 3010              	.LVL446:
 3011              		.loc 1 717 74 view .LVU560
 3012 0178 6420     		movs	r0, #100
 3013 017a FFF7FEFF 		bl	HAL_Delay
ARM GAS  C:\Users\OSD\AppData\Local\Temp\cc2NoGol.s 			page 72


 3014              	.LVL447:
 718:Core/Src/lcd_test.c **** 	LCD_SetFont(&Font32);LCD_DisplayString(0,176,"!#$%&'()*+,-.012");					HAL_Delay(time);	
 3015              		.loc 1 718 2 view .LVU561
 3016 017e 3046     		mov	r0, r6
 3017 0180 FFF7FEFF 		bl	LCD_SetFont
 3018              	.LVL448:
 3019              		.loc 1 718 23 view .LVU562
 3020 0184 B84A     		ldr	r2, .L104+4
 3021 0186 B021     		movs	r1, #176
 3022 0188 0020     		movs	r0, #0
 3023 018a FFF7FEFF 		bl	LCD_DisplayString
 3024              	.LVL449:
 3025              		.loc 1 718 72 view .LVU563
 3026 018e 6420     		movs	r0, #100
 3027 0190 FFF7FEFF 		bl	HAL_Delay
 3028              	.LVL450:
 719:Core/Src/lcd_test.c **** 
 720:Core/Src/lcd_test.c **** 	LCD_SetFont(&Font32);
 3029              		.loc 1 720 2 view .LVU564
 3030 0194 3046     		mov	r0, r6
 3031 0196 FFF7FEFF 		bl	LCD_SetFont
 3032              	.LVL451:
 721:Core/Src/lcd_test.c **** 	LCD_SetColor(LCD_YELLOW);
 3033              		.loc 1 721 2 view .LVU565
 3034 019a 6FF0FF00 		mvn	r0, #255
 3035 019e FFF7FEFF 		bl	LCD_SetColor
 3036              	.LVL452:
 722:Core/Src/lcd_test.c **** 	LCD_DisplayNumber(10,220, 294967295,10); HAL_Delay(time);		
 3037              		.loc 1 722 2 view .LVU566
 3038 01a2 0A23     		movs	r3, #10
 3039 01a4 B54A     		ldr	r2, .L104+24
 3040 01a6 DC21     		movs	r1, #220
 3041 01a8 1846     		mov	r0, r3
 3042 01aa FFF7FEFF 		bl	LCD_DisplayNumber
 3043              	.LVL453:
 3044              		.loc 1 722 43 view .LVU567
 3045 01ae 6420     		movs	r0, #100
 3046 01b0 FFF7FEFF 		bl	HAL_Delay
 3047              	.LVL454:
 723:Core/Src/lcd_test.c **** 	LCD_DisplayNumber(10,260,123456,6);	      HAL_Delay(time);		
 3048              		.loc 1 723 2 view .LVU568
 3049 01b4 0623     		movs	r3, #6
 3050 01b6 B24A     		ldr	r2, .L104+28
 3051 01b8 4FF48271 		mov	r1, #260
 3052 01bc 0A20     		movs	r0, #10
 3053 01be FFF7FEFF 		bl	LCD_DisplayNumber
 3054              	.LVL455:
 3055              		.loc 1 723 44 view .LVU569
 3056 01c2 6420     		movs	r0, #100
 3057 01c4 FFF7FEFF 		bl	HAL_Delay
 3058              	.LVL456:
 724:Core/Src/lcd_test.c **** 	LCD_DisplayNumber(10,300,1234,4);		   HAL_Delay(time);		
 3059              		.loc 1 724 2 view .LVU570
 3060 01c8 0423     		movs	r3, #4
 3061 01ca 40F2D242 		movw	r2, #1234
 3062 01ce 4FF49671 		mov	r1, #300
 3063 01d2 0A20     		movs	r0, #10
ARM GAS  C:\Users\OSD\AppData\Local\Temp\cc2NoGol.s 			page 73


 3064 01d4 FFF7FEFF 		bl	LCD_DisplayNumber
 3065              	.LVL457:
 3066              		.loc 1 724 40 view .LVU571
 3067 01d8 6420     		movs	r0, #100
 3068 01da FFF7FEFF 		bl	HAL_Delay
 3069              	.LVL458:
 725:Core/Src/lcd_test.c **** 	LCD_DisplayNumber(10,340,0,0);			   HAL_Delay(time);		
 3070              		.loc 1 725 2 view .LVU572
 3071 01de 0023     		movs	r3, #0
 3072 01e0 1A46     		mov	r2, r3
 3073 01e2 4FF4AA71 		mov	r1, #340
 3074 01e6 0A20     		movs	r0, #10
 3075 01e8 FFF7FEFF 		bl	LCD_DisplayNumber
 3076              	.LVL459:
 3077              		.loc 1 725 38 view .LVU573
 3078 01ec 6420     		movs	r0, #100
 3079 01ee FFF7FEFF 		bl	HAL_Delay
 3080              	.LVL460:
 726:Core/Src/lcd_test.c **** 	 
 727:Core/Src/lcd_test.c **** 	LCD_SetFont(&Font24);
 3081              		.loc 1 727 2 view .LVU574
 3082 01f2 2846     		mov	r0, r5
 3083 01f4 FFF7FEFF 		bl	LCD_SetFont
 3084              	.LVL461:
 728:Core/Src/lcd_test.c **** 	LCD_SetColor(LIGHT_BLUE);
 3085              		.loc 1 728 2 view .LVU575
 3086 01f8 DFF8CC82 		ldr	r8, .L104+100
 3087 01fc 4046     		mov	r0, r8
 3088 01fe FFF7FEFF 		bl	LCD_SetColor
 3089              	.LVL462:
 729:Core/Src/lcd_test.c **** 	LCD_DisplayString(10,380,"STM32H743 LCD TEST");HAL_Delay(time);
 3090              		.loc 1 729 2 view .LVU576
 3091 0202 A04A     		ldr	r2, .L104+32
 3092 0204 4FF4BE71 		mov	r1, #380
 3093 0208 0A20     		movs	r0, #10
 3094 020a FFF7FEFF 		bl	LCD_DisplayString
 3095              	.LVL463:
 3096              		.loc 1 729 49 view .LVU577
 3097 020e 6420     		movs	r0, #100
 3098 0210 FFF7FEFF 		bl	HAL_Delay
 3099              	.LVL464:
 730:Core/Src/lcd_test.c **** 
 731:Core/Src/lcd_test.c **** 	HAL_Delay(2000);
 3100              		.loc 1 731 2 view .LVU578
 3101 0214 4FF4FA60 		mov	r0, #2000
 3102 0218 FFF7FEFF 		bl	HAL_Delay
 3103              	.LVL465:
 732:Core/Src/lcd_test.c **** 
 733:Core/Src/lcd_test.c **** 	time = 80;
 3104              		.loc 1 733 2 view .LVU579
 734:Core/Src/lcd_test.c **** 	
 735:Core/Src/lcd_test.c **** 	LCD_SetBackColor(LCD_BLACK); //ËÆæÁΩÆËÉåÊôØËâ≤
 3105              		.loc 1 735 2 view .LVU580
 3106 021c 4FF07F40 		mov	r0, #-16777216
 3107 0220 FFF7FEFF 		bl	LCD_SetBackColor
 3108              	.LVL466:
 736:Core/Src/lcd_test.c **** 	LCD_Clear(); //Ê∏ÖÂ±èÔºåÂà∑ËÉåÊôØËâ≤	
ARM GAS  C:\Users\OSD\AppData\Local\Temp\cc2NoGol.s 			page 74


 3109              		.loc 1 736 2 view .LVU581
 3110 0224 FFF7FEFF 		bl	LCD_Clear
 3111              	.LVL467:
 737:Core/Src/lcd_test.c **** 	
 738:Core/Src/lcd_test.c **** 	LCD_SetColor(LCD_RED);    LCD_FillCircle( 90,240,80);	
 3112              		.loc 1 738 2 view .LVU582
 3113 0228 974D     		ldr	r5, .L104+36
 3114 022a 2846     		mov	r0, r5
 3115 022c FFF7FEFF 		bl	LCD_SetColor
 3116              	.LVL468:
 3117              		.loc 1 738 28 view .LVU583
 3118 0230 5022     		movs	r2, #80
 3119 0232 F021     		movs	r1, #240
 3120 0234 5A20     		movs	r0, #90
 3121 0236 FFF7FEFF 		bl	LCD_FillCircle
 3122              	.LVL469:
 739:Core/Src/lcd_test.c **** 	LCD_SetColor(LCD_GREEN);  LCD_FillCircle(135,240,80); 
 3123              		.loc 1 739 2 view .LVU584
 3124 023a 4FF0FF20 		mov	r0, #-16711936
 3125 023e FFF7FEFF 		bl	LCD_SetColor
 3126              	.LVL470:
 3127              		.loc 1 739 28 view .LVU585
 3128 0242 5022     		movs	r2, #80
 3129 0244 F021     		movs	r1, #240
 3130 0246 8720     		movs	r0, #135
 3131 0248 FFF7FEFF 		bl	LCD_FillCircle
 3132              	.LVL471:
 740:Core/Src/lcd_test.c **** 	LCD_SetColor(LCD_BLUE);   LCD_FillCircle(180,240,80);  	
 3133              		.loc 1 740 2 view .LVU586
 3134 024c 8F4E     		ldr	r6, .L104+40
 3135 024e 3046     		mov	r0, r6
 3136 0250 FFF7FEFF 		bl	LCD_SetColor
 3137              	.LVL472:
 3138              		.loc 1 740 28 view .LVU587
 3139 0254 5022     		movs	r2, #80
 3140 0256 F021     		movs	r1, #240
 3141 0258 B420     		movs	r0, #180
 3142 025a FFF7FEFF 		bl	LCD_FillCircle
 3143              	.LVL473:
 741:Core/Src/lcd_test.c **** 	
 742:Core/Src/lcd_test.c ****    LCD_SetColor(LCD_RED);	
 3144              		.loc 1 742 4 view .LVU588
 3145 025e 2846     		mov	r0, r5
 3146 0260 FFF7FEFF 		bl	LCD_SetColor
 3147              	.LVL474:
 743:Core/Src/lcd_test.c **** 	LCD_DrawRect( 0,35,270,100);  HAL_Delay(time);
 3148              		.loc 1 743 2 view .LVU589
 3149 0264 6423     		movs	r3, #100
 3150 0266 4FF48772 		mov	r2, #270
 3151 026a 2321     		movs	r1, #35
 3152 026c 0020     		movs	r0, #0
 3153 026e FFF7FEFF 		bl	LCD_DrawRect
 3154              	.LVL475:
 3155              		.loc 1 743 32 view .LVU590
 3156 0272 5020     		movs	r0, #80
 3157 0274 FFF7FEFF 		bl	HAL_Delay
 3158              	.LVL476:
ARM GAS  C:\Users\OSD\AppData\Local\Temp\cc2NoGol.s 			page 75


 744:Core/Src/lcd_test.c **** 	LCD_DrawRect(20,45,230,80); 	HAL_Delay(time);
 3159              		.loc 1 744 2 view .LVU591
 3160 0278 5023     		movs	r3, #80
 3161 027a E622     		movs	r2, #230
 3162 027c 2D21     		movs	r1, #45
 3163 027e 1420     		movs	r0, #20
 3164 0280 FFF7FEFF 		bl	LCD_DrawRect
 3165              	.LVL477:
 3166              		.loc 1 744 31 view .LVU592
 3167 0284 5020     		movs	r0, #80
 3168 0286 FFF7FEFF 		bl	HAL_Delay
 3169              	.LVL478:
 745:Core/Src/lcd_test.c **** 	LCD_DrawRect(40,55,190,60);  	HAL_Delay(time);
 3170              		.loc 1 745 2 view .LVU593
 3171 028a 3C23     		movs	r3, #60
 3172 028c BE22     		movs	r2, #190
 3173 028e 3721     		movs	r1, #55
 3174 0290 2820     		movs	r0, #40
 3175 0292 FFF7FEFF 		bl	LCD_DrawRect
 3176              	.LVL479:
 3177              		.loc 1 745 32 view .LVU594
 3178 0296 5020     		movs	r0, #80
 3179 0298 FFF7FEFF 		bl	HAL_Delay
 3180              	.LVL480:
 746:Core/Src/lcd_test.c **** 	LCD_DrawRect(60,65,150,40);  	HAL_Delay(time);
 3181              		.loc 1 746 2 view .LVU595
 3182 029c 2823     		movs	r3, #40
 3183 029e 9622     		movs	r2, #150
 3184 02a0 4121     		movs	r1, #65
 3185 02a2 3C20     		movs	r0, #60
 3186 02a4 FFF7FEFF 		bl	LCD_DrawRect
 3187              	.LVL481:
 3188              		.loc 1 746 32 view .LVU596
 3189 02a8 5020     		movs	r0, #80
 3190 02aa FFF7FEFF 		bl	HAL_Delay
 3191              	.LVL482:
 747:Core/Src/lcd_test.c **** 	
 748:Core/Src/lcd_test.c **** 	LCD_SetColor(LIGHT_GREY);
 3192              		.loc 1 748 2 view .LVU597
 3193 02ae 784F     		ldr	r7, .L104+44
 3194 02b0 3846     		mov	r0, r7
 3195 02b2 FFF7FEFF 		bl	LCD_SetColor
 3196              	.LVL483:
 749:Core/Src/lcd_test.c **** 	LCD_DrawLine(0,5, 271,5);	HAL_Delay(time);
 3197              		.loc 1 749 2 view .LVU598
 3198 02b6 0523     		movs	r3, #5
 3199 02b8 40F20F12 		movw	r2, #271
 3200 02bc 1946     		mov	r1, r3
 3201 02be 0020     		movs	r0, #0
 3202 02c0 FFF7FEFF 		bl	LCD_DrawLine
 3203              	.LVL484:
 3204              		.loc 1 749 28 view .LVU599
 3205 02c4 5020     		movs	r0, #80
 3206 02c6 FFF7FEFF 		bl	HAL_Delay
 3207              	.LVL485:
 750:Core/Src/lcd_test.c **** 	LCD_DrawLine(0,10,271,10);	HAL_Delay(time);
 3208              		.loc 1 750 2 view .LVU600
ARM GAS  C:\Users\OSD\AppData\Local\Temp\cc2NoGol.s 			page 76


 3209 02ca 0A23     		movs	r3, #10
 3210 02cc 40F20F12 		movw	r2, #271
 3211 02d0 1946     		mov	r1, r3
 3212 02d2 0020     		movs	r0, #0
 3213 02d4 FFF7FEFF 		bl	LCD_DrawLine
 3214              	.LVL486:
 3215              		.loc 1 750 29 view .LVU601
 3216 02d8 5020     		movs	r0, #80
 3217 02da FFF7FEFF 		bl	HAL_Delay
 3218              	.LVL487:
 751:Core/Src/lcd_test.c **** 	LCD_DrawLine(0,15,271,15); HAL_Delay(time);
 3219              		.loc 1 751 2 view .LVU602
 3220 02de 0F23     		movs	r3, #15
 3221 02e0 40F20F12 		movw	r2, #271
 3222 02e4 1946     		mov	r1, r3
 3223 02e6 0020     		movs	r0, #0
 3224 02e8 FFF7FEFF 		bl	LCD_DrawLine
 3225              	.LVL488:
 3226              		.loc 1 751 29 view .LVU603
 3227 02ec 5020     		movs	r0, #80
 3228 02ee FFF7FEFF 		bl	HAL_Delay
 3229              	.LVL489:
 752:Core/Src/lcd_test.c **** 	LCD_DrawLine(0,20,271,20);	HAL_Delay(time);		
 3230              		.loc 1 752 2 view .LVU604
 3231 02f2 1423     		movs	r3, #20
 3232 02f4 40F20F12 		movw	r2, #271
 3233 02f8 1946     		mov	r1, r3
 3234 02fa 0020     		movs	r0, #0
 3235 02fc FFF7FEFF 		bl	LCD_DrawLine
 3236              	.LVL490:
 3237              		.loc 1 752 29 view .LVU605
 3238 0300 5020     		movs	r0, #80
 3239 0302 FFF7FEFF 		bl	HAL_Delay
 3240              	.LVL491:
 753:Core/Src/lcd_test.c **** 
 754:Core/Src/lcd_test.c ****    LCD_SetColor(LIGHT_MAGENTA);	
 3241              		.loc 1 754 4 view .LVU606
 3242 0306 6FF4FE40 		mvn	r0, #32512
 3243 030a FFF7FEFF 		bl	LCD_SetColor
 3244              	.LVL492:
 755:Core/Src/lcd_test.c **** 	LCD_DrawEllipse(135,400,130,70); HAL_Delay(time);
 3245              		.loc 1 755 2 view .LVU607
 3246 030e 4623     		movs	r3, #70
 3247 0310 8222     		movs	r2, #130
 3248 0312 4FF4C871 		mov	r1, #400
 3249 0316 8720     		movs	r0, #135
 3250 0318 FFF7FEFF 		bl	LCD_DrawEllipse
 3251              	.LVL493:
 3252              		.loc 1 755 35 view .LVU608
 3253 031c 5020     		movs	r0, #80
 3254 031e FFF7FEFF 		bl	HAL_Delay
 3255              	.LVL494:
 756:Core/Src/lcd_test.c **** 	LCD_DrawEllipse(135,400,110,55);  HAL_Delay(time);
 3256              		.loc 1 756 2 view .LVU609
 3257 0322 3723     		movs	r3, #55
 3258 0324 6E22     		movs	r2, #110
 3259 0326 4FF4C871 		mov	r1, #400
ARM GAS  C:\Users\OSD\AppData\Local\Temp\cc2NoGol.s 			page 77


 3260 032a 8720     		movs	r0, #135
 3261 032c FFF7FEFF 		bl	LCD_DrawEllipse
 3262              	.LVL495:
 3263              		.loc 1 756 36 view .LVU610
 3264 0330 5020     		movs	r0, #80
 3265 0332 FFF7FEFF 		bl	HAL_Delay
 3266              	.LVL496:
 757:Core/Src/lcd_test.c **** 	LCD_DrawEllipse(135,400,90 ,40);  HAL_Delay(time);
 3267              		.loc 1 757 2 view .LVU611
 3268 0336 2823     		movs	r3, #40
 3269 0338 5A22     		movs	r2, #90
 3270 033a 4FF4C871 		mov	r1, #400
 3271 033e 8720     		movs	r0, #135
 3272 0340 FFF7FEFF 		bl	LCD_DrawEllipse
 3273              	.LVL497:
 3274              		.loc 1 757 36 view .LVU612
 3275 0344 5020     		movs	r0, #80
 3276 0346 FFF7FEFF 		bl	HAL_Delay
 3277              	.LVL498:
 758:Core/Src/lcd_test.c **** 	LCD_DrawEllipse(135,400,70 ,25);  HAL_Delay(time);
 3278              		.loc 1 758 2 view .LVU613
 3279 034a 1923     		movs	r3, #25
 3280 034c 4622     		movs	r2, #70
 3281 034e 4FF4C871 		mov	r1, #400
 3282 0352 8720     		movs	r0, #135
 3283 0354 FFF7FEFF 		bl	LCD_DrawEllipse
 3284              	.LVL499:
 3285              		.loc 1 758 36 view .LVU614
 3286 0358 5020     		movs	r0, #80
 3287 035a FFF7FEFF 		bl	HAL_Delay
 3288              	.LVL500:
 759:Core/Src/lcd_test.c ****                                                         
 760:Core/Src/lcd_test.c **** 	HAL_Delay(2000);	
 3289              		.loc 1 760 2 view .LVU615
 3290 035e 4FF4FA60 		mov	r0, #2000
 3291 0362 FFF7FEFF 		bl	HAL_Delay
 3292              	.LVL501:
 761:Core/Src/lcd_test.c **** 	
 762:Core/Src/lcd_test.c **** 	LCD_SetBackColor(LCD_BLACK); //ËÆæÁΩÆËÉåÊôØËâ≤
 3293              		.loc 1 762 2 view .LVU616
 3294 0366 4FF07F40 		mov	r0, #-16777216
 3295 036a FFF7FEFF 		bl	LCD_SetBackColor
 3296              	.LVL502:
 763:Core/Src/lcd_test.c **** 	LCD_Clear(); //Ê∏ÖÂ±èÔºåÂà∑ËÉåÊôØËâ≤
 3297              		.loc 1 763 2 view .LVU617
 3298 036e FFF7FEFF 		bl	LCD_Clear
 3299              	.LVL503:
 764:Core/Src/lcd_test.c **** 
 765:Core/Src/lcd_test.c **** 	LCD_SetFont(&Font16);
 3300              		.loc 1 765 2 view .LVU618
 3301 0372 2046     		mov	r0, r4
 3302 0374 FFF7FEFF 		bl	LCD_SetFont
 3303              	.LVL504:
 766:Core/Src/lcd_test.c **** 	LCD_SetColor(LCD_BLUE);	  	  LCD_FillRect(120,  3,150,16);	LCD_DisplayString(0,  3,"LCD_BLUE"); 		
 3304              		.loc 1 766 2 view .LVU619
 3305 0378 3046     		mov	r0, r6
 3306 037a FFF7FEFF 		bl	LCD_SetColor
ARM GAS  C:\Users\OSD\AppData\Local\Temp\cc2NoGol.s 			page 78


 3307              	.LVL505:
 3308              		.loc 1 766 31 view .LVU620
 3309 037e 1023     		movs	r3, #16
 3310 0380 9622     		movs	r2, #150
 3311 0382 0321     		movs	r1, #3
 3312 0384 7820     		movs	r0, #120
 3313 0386 FFF7FEFF 		bl	LCD_FillRect
 3314              	.LVL506:
 3315              		.loc 1 766 61 view .LVU621
 3316 038a 424A     		ldr	r2, .L104+48
 3317 038c 0321     		movs	r1, #3
 3318 038e 0020     		movs	r0, #0
 3319 0390 FFF7FEFF 		bl	LCD_DisplayString
 3320              	.LVL507:
 767:Core/Src/lcd_test.c **** 	LCD_SetColor(LCD_GREEN);  	  LCD_FillRect(120, 25,150,16);  LCD_DisplayString(0, 25,"LCD_GREEN");	
 3321              		.loc 1 767 2 view .LVU622
 3322 0394 4FF0FF20 		mov	r0, #-16711936
 3323 0398 FFF7FEFF 		bl	LCD_SetColor
 3324              	.LVL508:
 3325              		.loc 1 767 31 view .LVU623
 3326 039c 1023     		movs	r3, #16
 3327 039e 9622     		movs	r2, #150
 3328 03a0 1921     		movs	r1, #25
 3329 03a2 7820     		movs	r0, #120
 3330 03a4 FFF7FEFF 		bl	LCD_FillRect
 3331              	.LVL509:
 3332              		.loc 1 767 62 view .LVU624
 3333 03a8 3B4A     		ldr	r2, .L104+52
 3334 03aa 1921     		movs	r1, #25
 3335 03ac 0020     		movs	r0, #0
 3336 03ae FFF7FEFF 		bl	LCD_DisplayString
 3337              	.LVL510:
 768:Core/Src/lcd_test.c **** 	LCD_SetColor(LCD_RED);    	  LCD_FillRect(120, 47,150,16);  LCD_DisplayString(0, 47,"LCD_RED");	 	
 3338              		.loc 1 768 2 view .LVU625
 3339 03b2 2846     		mov	r0, r5
 3340 03b4 FFF7FEFF 		bl	LCD_SetColor
 3341              	.LVL511:
 3342              		.loc 1 768 31 view .LVU626
 3343 03b8 1023     		movs	r3, #16
 3344 03ba 9622     		movs	r2, #150
 3345 03bc 2F21     		movs	r1, #47
 3346 03be 7820     		movs	r0, #120
 3347 03c0 FFF7FEFF 		bl	LCD_FillRect
 3348              	.LVL512:
 3349              		.loc 1 768 62 view .LVU627
 3350 03c4 354A     		ldr	r2, .L104+56
 3351 03c6 2F21     		movs	r1, #47
 3352 03c8 0020     		movs	r0, #0
 3353 03ca FFF7FEFF 		bl	LCD_DisplayString
 3354              	.LVL513:
 769:Core/Src/lcd_test.c **** 	LCD_SetColor(LCD_CYAN);   	  LCD_FillRect(120, 69,150,16);  LCD_DisplayString(0, 69,"LCD_CYAN");		
 3355              		.loc 1 769 2 view .LVU628
 3356 03ce 6FF47F00 		mvn	r0, #16711680
 3357 03d2 FFF7FEFF 		bl	LCD_SetColor
 3358              	.LVL514:
 3359              		.loc 1 769 31 view .LVU629
 3360 03d6 1023     		movs	r3, #16
ARM GAS  C:\Users\OSD\AppData\Local\Temp\cc2NoGol.s 			page 79


 3361 03d8 9622     		movs	r2, #150
 3362 03da 4521     		movs	r1, #69
 3363 03dc 7820     		movs	r0, #120
 3364 03de FFF7FEFF 		bl	LCD_FillRect
 3365              	.LVL515:
 3366              		.loc 1 769 62 view .LVU630
 3367 03e2 2F4A     		ldr	r2, .L104+60
 3368 03e4 4521     		movs	r1, #69
 3369 03e6 0020     		movs	r0, #0
 3370 03e8 FFF7FEFF 		bl	LCD_DisplayString
 3371              	.LVL516:
 770:Core/Src/lcd_test.c **** 	LCD_SetColor(LCD_MAGENTA);	  LCD_FillRect(120, 91,150,16);  LCD_DisplayString(0, 91,"LCD_MAGENTA")
 3372              		.loc 1 770 2 view .LVU631
 3373 03ec 6FF47F40 		mvn	r0, #65280
 3374 03f0 FFF7FEFF 		bl	LCD_SetColor
 3375              	.LVL517:
 3376              		.loc 1 770 31 view .LVU632
 3377 03f4 1023     		movs	r3, #16
 3378 03f6 9622     		movs	r2, #150
 3379 03f8 5B21     		movs	r1, #91
 3380 03fa 7820     		movs	r0, #120
 3381 03fc FFF7FEFF 		bl	LCD_FillRect
 3382              	.LVL518:
 3383              		.loc 1 770 62 view .LVU633
 3384 0400 284A     		ldr	r2, .L104+64
 3385 0402 5B21     		movs	r1, #91
 3386 0404 0020     		movs	r0, #0
 3387 0406 FFF7FEFF 		bl	LCD_DisplayString
 3388              	.LVL519:
 771:Core/Src/lcd_test.c **** 	LCD_SetColor(LCD_YELLOW); 	  LCD_FillRect(120,113,150,16);  LCD_DisplayString(0,113,"LCD_YELLOW");
 3389              		.loc 1 771 2 view .LVU634
 3390 040a 6FF0FF00 		mvn	r0, #255
 3391 040e FFF7FEFF 		bl	LCD_SetColor
 3392              	.LVL520:
 3393              		.loc 1 771 31 view .LVU635
 3394 0412 1023     		movs	r3, #16
 3395 0414 9622     		movs	r2, #150
 3396 0416 7121     		movs	r1, #113
 3397 0418 7820     		movs	r0, #120
 3398 041a FFF7FEFF 		bl	LCD_FillRect
 3399              	.LVL521:
 3400              		.loc 1 771 62 view .LVU636
 3401 041e 224A     		ldr	r2, .L104+68
 3402 0420 7121     		movs	r1, #113
 3403 0422 0020     		movs	r0, #0
 3404 0424 FFF7FEFF 		bl	LCD_DisplayString
 3405              	.LVL522:
 772:Core/Src/lcd_test.c **** 	LCD_SetColor(LCD_GREY);   	  LCD_FillRect(120,135,150,16);	LCD_DisplayString(0,135,"LCD_GREY");		
 3406              		.loc 1 772 2 view .LVU637
 3407 0428 2048     		ldr	r0, .L104+72
 3408 042a FFF7FEFF 		bl	LCD_SetColor
 3409              	.LVL523:
 3410              		.loc 1 772 31 view .LVU638
 3411 042e 1023     		movs	r3, #16
 3412 0430 9622     		movs	r2, #150
 3413 0432 8721     		movs	r1, #135
 3414 0434 7820     		movs	r0, #120
ARM GAS  C:\Users\OSD\AppData\Local\Temp\cc2NoGol.s 			page 80


 3415 0436 FFF7FEFF 		bl	LCD_FillRect
 3416              	.LVL524:
 3417              		.loc 1 772 61 view .LVU639
 3418 043a 1D4A     		ldr	r2, .L104+76
 3419 043c 8721     		movs	r1, #135
 3420 043e 0020     		movs	r0, #0
 3421 0440 FFF7FEFF 		bl	LCD_DisplayString
 3422              	.LVL525:
 773:Core/Src/lcd_test.c ****                                                                             
 774:Core/Src/lcd_test.c **** 	LCD_SetColor(LIGHT_BLUE);	  LCD_FillRect(120,157,150,16);  LCD_DisplayString(0,157,"LIGHT_BLUE");	
 3423              		.loc 1 774 2 view .LVU640
 3424 0444 4046     		mov	r0, r8
 3425 0446 FFF7FEFF 		bl	LCD_SetColor
 3426              	.LVL526:
 3427              		.loc 1 774 30 view .LVU641
 3428 044a 1023     		movs	r3, #16
 3429 044c 9622     		movs	r2, #150
 3430 044e 9D21     		movs	r1, #157
 3431 0450 7820     		movs	r0, #120
 3432 0452 FFF7FEFF 		bl	LCD_FillRect
 3433              	.LVL527:
 3434              		.loc 1 774 61 view .LVU642
 3435 0456 174A     		ldr	r2, .L104+80
 3436 0458 9D21     		movs	r1, #157
 3437 045a 0020     		movs	r0, #0
 3438 045c FFF7FEFF 		bl	LCD_DisplayString
 3439              	.LVL528:
 3440 0460 34E0     		b	.L105
 3441              	.L106:
 3442 0462 00BF     		.align	2
 3443              	.L104:
 3444 0464 00000000 		.word	Font32
 3445 0468 10000000 		.word	.LC45
 3446 046c 00000000 		.word	Font24
 3447 0470 24000000 		.word	.LC46
 3448 0474 00000000 		.word	Font16
 3449 0478 70000000 		.word	.LC49
 3450 047c FFD79411 		.word	294967295
 3451 0480 40E20100 		.word	123456
 3452 0484 90000000 		.word	.LC50
 3453 0488 0000FFFF 		.word	-65536
 3454 048c FF0000FF 		.word	-16776961
 3455 0490 A3A3A3FF 		.word	-6052957
 3456 0494 10000000 		.word	.LC29
 3457 0498 1C000000 		.word	.LC30
 3458 049c 28000000 		.word	.LC31
 3459 04a0 30000000 		.word	.LC32
 3460 04a4 3C000000 		.word	.LC33
 3461 04a8 48000000 		.word	.LC34
 3462 04ac 2C2C2CFF 		.word	-13882324
 3463 04b0 54000000 		.word	.LC35
 3464 04b4 60000000 		.word	.LC36
 3465 04b8 00000000 		.word	Font20
 3466 04bc 3C000000 		.word	.LC47
 3467 04c0 54000000 		.word	.LC48
 3468 04c4 00000000 		.word	Font12
 3469 04c8 FF8080FF 		.word	-8355585
ARM GAS  C:\Users\OSD\AppData\Local\Temp\cc2NoGol.s 			page 81


 3470              	.L105:
 775:Core/Src/lcd_test.c **** 	LCD_SetColor(LIGHT_GREEN);   LCD_FillRect(120,179,150,16);  LCD_DisplayString(0,179,"LIGHT_GREEN")
 3471              		.loc 1 775 2 view .LVU643
 3472 04cc 6FF07F10 		mvn	r0, #8323199
 3473 04d0 FFF7FEFF 		bl	LCD_SetColor
 3474              	.LVL529:
 3475              		.loc 1 775 31 view .LVU644
 3476 04d4 1023     		movs	r3, #16
 3477 04d6 9622     		movs	r2, #150
 3478 04d8 B321     		movs	r1, #179
 3479 04da 7820     		movs	r0, #120
 3480 04dc FFF7FEFF 		bl	LCD_FillRect
 3481              	.LVL530:
 3482              		.loc 1 775 62 view .LVU645
 3483 04e0 CB4A     		ldr	r2, .L107
 3484 04e2 B321     		movs	r1, #179
 3485 04e4 0020     		movs	r0, #0
 3486 04e6 FFF7FEFF 		bl	LCD_DisplayString
 3487              	.LVL531:
 776:Core/Src/lcd_test.c **** 	LCD_SetColor(LIGHT_RED);     LCD_FillRect(120,201,150,16);  LCD_DisplayString(0,201,"LIGHT_RED");	
 3488              		.loc 1 776 2 view .LVU646
 3489 04ea CA48     		ldr	r0, .L107+4
 3490 04ec FFF7FEFF 		bl	LCD_SetColor
 3491              	.LVL532:
 3492              		.loc 1 776 31 view .LVU647
 3493 04f0 1023     		movs	r3, #16
 3494 04f2 9622     		movs	r2, #150
 3495 04f4 C921     		movs	r1, #201
 3496 04f6 7820     		movs	r0, #120
 3497 04f8 FFF7FEFF 		bl	LCD_FillRect
 3498              	.LVL533:
 3499              		.loc 1 776 62 view .LVU648
 3500 04fc C64A     		ldr	r2, .L107+8
 3501 04fe C921     		movs	r1, #201
 3502 0500 0020     		movs	r0, #0
 3503 0502 FFF7FEFF 		bl	LCD_DisplayString
 3504              	.LVL534:
 777:Core/Src/lcd_test.c **** 	LCD_SetColor(LIGHT_CYAN);    LCD_FillRect(120,223,150,16);  LCD_DisplayString(0,223,"LIGHT_CYAN");
 3505              		.loc 1 777 2 view .LVU649
 3506 0506 6FF4FE00 		mvn	r0, #8323072
 3507 050a FFF7FEFF 		bl	LCD_SetColor
 3508              	.LVL535:
 3509              		.loc 1 777 31 view .LVU650
 3510 050e 1023     		movs	r3, #16
 3511 0510 9622     		movs	r2, #150
 3512 0512 DF21     		movs	r1, #223
 3513 0514 7820     		movs	r0, #120
 3514 0516 FFF7FEFF 		bl	LCD_FillRect
 3515              	.LVL536:
 3516              		.loc 1 777 62 view .LVU651
 3517 051a C04A     		ldr	r2, .L107+12
 3518 051c DF21     		movs	r1, #223
 3519 051e 0020     		movs	r0, #0
 3520 0520 FFF7FEFF 		bl	LCD_DisplayString
 3521              	.LVL537:
 778:Core/Src/lcd_test.c **** 	LCD_SetColor(LIGHT_MAGENTA); LCD_FillRect(120,245,150,16);  LCD_DisplayString(0,245,"LIGHT_MAGENTA
 3522              		.loc 1 778 2 view .LVU652
ARM GAS  C:\Users\OSD\AppData\Local\Temp\cc2NoGol.s 			page 82


 3523 0524 6FF4FE40 		mvn	r0, #32512
 3524 0528 FFF7FEFF 		bl	LCD_SetColor
 3525              	.LVL538:
 3526              		.loc 1 778 31 view .LVU653
 3527 052c 1023     		movs	r3, #16
 3528 052e 9622     		movs	r2, #150
 3529 0530 F521     		movs	r1, #245
 3530 0532 7820     		movs	r0, #120
 3531 0534 FFF7FEFF 		bl	LCD_FillRect
 3532              	.LVL539:
 3533              		.loc 1 778 62 view .LVU654
 3534 0538 B94A     		ldr	r2, .L107+16
 3535 053a F521     		movs	r1, #245
 3536 053c 0020     		movs	r0, #0
 3537 053e FFF7FEFF 		bl	LCD_DisplayString
 3538              	.LVL540:
 779:Core/Src/lcd_test.c **** 	LCD_SetColor(LIGHT_YELLOW);  LCD_FillRect(120,267,150,16);  LCD_DisplayString(0,267,"LIGHT_YELLOW"
 3539              		.loc 1 779 2 view .LVU655
 3540 0542 6FF07F00 		mvn	r0, #127
 3541 0546 FFF7FEFF 		bl	LCD_SetColor
 3542              	.LVL541:
 3543              		.loc 1 779 31 view .LVU656
 3544 054a 1023     		movs	r3, #16
 3545 054c 9622     		movs	r2, #150
 3546 054e 40F20B11 		movw	r1, #267
 3547 0552 7820     		movs	r0, #120
 3548 0554 FFF7FEFF 		bl	LCD_FillRect
 3549              	.LVL542:
 3550              		.loc 1 779 62 view .LVU657
 3551 0558 B24A     		ldr	r2, .L107+20
 3552 055a 40F20B11 		movw	r1, #267
 3553 055e 0020     		movs	r0, #0
 3554 0560 FFF7FEFF 		bl	LCD_DisplayString
 3555              	.LVL543:
 780:Core/Src/lcd_test.c **** 	LCD_SetColor(LIGHT_GREY);    LCD_FillRect(120,289,150,16);	LCD_DisplayString(0,289,"LIGHT_GREY"); 
 3556              		.loc 1 780 2 view .LVU658
 3557 0564 3846     		mov	r0, r7
 3558 0566 FFF7FEFF 		bl	LCD_SetColor
 3559              	.LVL544:
 3560              		.loc 1 780 31 view .LVU659
 3561 056a 1023     		movs	r3, #16
 3562 056c 9622     		movs	r2, #150
 3563 056e 40F22111 		movw	r1, #289
 3564 0572 7820     		movs	r0, #120
 3565 0574 FFF7FEFF 		bl	LCD_FillRect
 3566              	.LVL545:
 3567              		.loc 1 780 61 view .LVU660
 3568 0578 AB4A     		ldr	r2, .L107+24
 3569 057a 40F22111 		movw	r1, #289
 3570 057e 0020     		movs	r0, #0
 3571 0580 FFF7FEFF 		bl	LCD_DisplayString
 3572              	.LVL546:
 781:Core/Src/lcd_test.c **** 	                                                                             
 782:Core/Src/lcd_test.c **** 	LCD_SetColor(DARK_BLUE);	  LCD_FillRect(120,311,150,16);  LCD_DisplayString(0,311,"DARK_BLUE");		
 3573              		.loc 1 782 2 view .LVU661
 3574 0584 A948     		ldr	r0, .L107+28
 3575 0586 FFF7FEFF 		bl	LCD_SetColor
ARM GAS  C:\Users\OSD\AppData\Local\Temp\cc2NoGol.s 			page 83


 3576              	.LVL547:
 3577              		.loc 1 782 29 view .LVU662
 3578 058a 1023     		movs	r3, #16
 3579 058c 9622     		movs	r2, #150
 3580 058e 40F23711 		movw	r1, #311
 3581 0592 7820     		movs	r0, #120
 3582 0594 FFF7FEFF 		bl	LCD_FillRect
 3583              	.LVL548:
 3584              		.loc 1 782 60 view .LVU663
 3585 0598 A54A     		ldr	r2, .L107+32
 3586 059a 40F23711 		movw	r1, #311
 3587 059e 0020     		movs	r0, #0
 3588 05a0 FFF7FEFF 		bl	LCD_DisplayString
 3589              	.LVL549:
 783:Core/Src/lcd_test.c **** 	LCD_SetColor(DARK_GREEN);    LCD_FillRect(120,333,150,16);  LCD_DisplayString(0,333,"DARK_GREEN");
 3590              		.loc 1 783 2 view .LVU664
 3591 05a4 A348     		ldr	r0, .L107+36
 3592 05a6 FFF7FEFF 		bl	LCD_SetColor
 3593              	.LVL550:
 3594              		.loc 1 783 31 view .LVU665
 3595 05aa 1023     		movs	r3, #16
 3596 05ac 9622     		movs	r2, #150
 3597 05ae 40F24D11 		movw	r1, #333
 3598 05b2 7820     		movs	r0, #120
 3599 05b4 FFF7FEFF 		bl	LCD_FillRect
 3600              	.LVL551:
 3601              		.loc 1 783 62 view .LVU666
 3602 05b8 9F4A     		ldr	r2, .L107+40
 3603 05ba 40F24D11 		movw	r1, #333
 3604 05be 0020     		movs	r0, #0
 3605 05c0 FFF7FEFF 		bl	LCD_DisplayString
 3606              	.LVL552:
 784:Core/Src/lcd_test.c **** 	LCD_SetColor(DARK_RED);      LCD_FillRect(120,355,150,16);  LCD_DisplayString(0,355,"DARK_RED");		
 3607              		.loc 1 784 2 view .LVU667
 3608 05c4 9D48     		ldr	r0, .L107+44
 3609 05c6 FFF7FEFF 		bl	LCD_SetColor
 3610              	.LVL553:
 3611              		.loc 1 784 31 view .LVU668
 3612 05ca 1023     		movs	r3, #16
 3613 05cc 9622     		movs	r2, #150
 3614 05ce 40F26311 		movw	r1, #355
 3615 05d2 7820     		movs	r0, #120
 3616 05d4 FFF7FEFF 		bl	LCD_FillRect
 3617              	.LVL554:
 3618              		.loc 1 784 62 view .LVU669
 3619 05d8 994A     		ldr	r2, .L107+48
 3620 05da 40F26311 		movw	r1, #355
 3621 05de 0020     		movs	r0, #0
 3622 05e0 FFF7FEFF 		bl	LCD_DisplayString
 3623              	.LVL555:
 785:Core/Src/lcd_test.c **** 	LCD_SetColor(DARK_CYAN);     LCD_FillRect(120,377,150,16);  LCD_DisplayString(0,377,"DARK_CYAN");	
 3624              		.loc 1 785 2 view .LVU670
 3625 05e4 9748     		ldr	r0, .L107+52
 3626 05e6 FFF7FEFF 		bl	LCD_SetColor
 3627              	.LVL556:
 3628              		.loc 1 785 31 view .LVU671
 3629 05ea 1023     		movs	r3, #16
ARM GAS  C:\Users\OSD\AppData\Local\Temp\cc2NoGol.s 			page 84


 3630 05ec 9622     		movs	r2, #150
 3631 05ee 40F27911 		movw	r1, #377
 3632 05f2 7820     		movs	r0, #120
 3633 05f4 FFF7FEFF 		bl	LCD_FillRect
 3634              	.LVL557:
 3635              		.loc 1 785 62 view .LVU672
 3636 05f8 934A     		ldr	r2, .L107+56
 3637 05fa 40F27911 		movw	r1, #377
 3638 05fe 0020     		movs	r0, #0
 3639 0600 FFF7FEFF 		bl	LCD_DisplayString
 3640              	.LVL558:
 786:Core/Src/lcd_test.c **** 	LCD_SetColor(DARK_MAGENTA);  LCD_FillRect(120,399,150,16);  LCD_DisplayString(0,399,"DARK_MAGENTA"
 3641              		.loc 1 786 2 view .LVU673
 3642 0604 9148     		ldr	r0, .L107+60
 3643 0606 FFF7FEFF 		bl	LCD_SetColor
 3644              	.LVL559:
 3645              		.loc 1 786 31 view .LVU674
 3646 060a 1023     		movs	r3, #16
 3647 060c 9622     		movs	r2, #150
 3648 060e 40F28F11 		movw	r1, #399
 3649 0612 7820     		movs	r0, #120
 3650 0614 FFF7FEFF 		bl	LCD_FillRect
 3651              	.LVL560:
 3652              		.loc 1 786 62 view .LVU675
 3653 0618 8D4A     		ldr	r2, .L107+64
 3654 061a 40F28F11 		movw	r1, #399
 3655 061e 0020     		movs	r0, #0
 3656 0620 FFF7FEFF 		bl	LCD_DisplayString
 3657              	.LVL561:
 787:Core/Src/lcd_test.c **** 	LCD_SetColor(DARK_YELLOW);   LCD_FillRect(120,421,150,16);  LCD_DisplayString(0,421,"DARK_YELLOW")
 3658              		.loc 1 787 2 view .LVU676
 3659 0624 8B48     		ldr	r0, .L107+68
 3660 0626 FFF7FEFF 		bl	LCD_SetColor
 3661              	.LVL562:
 3662              		.loc 1 787 31 view .LVU677
 3663 062a 1023     		movs	r3, #16
 3664 062c 9622     		movs	r2, #150
 3665 062e 40F2A511 		movw	r1, #421
 3666 0632 7820     		movs	r0, #120
 3667 0634 FFF7FEFF 		bl	LCD_FillRect
 3668              	.LVL563:
 3669              		.loc 1 787 62 view .LVU678
 3670 0638 874A     		ldr	r2, .L107+72
 3671 063a 40F2A511 		movw	r1, #421
 3672 063e 0020     		movs	r0, #0
 3673 0640 FFF7FEFF 		bl	LCD_DisplayString
 3674              	.LVL564:
 788:Core/Src/lcd_test.c **** 	LCD_SetColor(DARK_GREY);     LCD_FillRect(120,443,150,16);	LCD_DisplayString(0,443,"DARK_GREY");		
 3675              		.loc 1 788 2 view .LVU679
 3676 0644 8548     		ldr	r0, .L107+76
 3677 0646 FFF7FEFF 		bl	LCD_SetColor
 3678              	.LVL565:
 3679              		.loc 1 788 31 view .LVU680
 3680 064a 1023     		movs	r3, #16
 3681 064c 9622     		movs	r2, #150
 3682 064e 40F2BB11 		movw	r1, #443
 3683 0652 7820     		movs	r0, #120
ARM GAS  C:\Users\OSD\AppData\Local\Temp\cc2NoGol.s 			page 85


 3684 0654 FFF7FEFF 		bl	LCD_FillRect
 3685              	.LVL566:
 3686              		.loc 1 788 61 view .LVU681
 3687 0658 814A     		ldr	r2, .L107+80
 3688 065a 40F2BB11 		movw	r1, #443
 3689 065e 0020     		movs	r0, #0
 3690 0660 FFF7FEFF 		bl	LCD_DisplayString
 3691              	.LVL567:
 789:Core/Src/lcd_test.c **** 	
 790:Core/Src/lcd_test.c **** 	HAL_Delay(2000);	
 3692              		.loc 1 790 2 view .LVU682
 3693 0664 4FF4FA60 		mov	r0, #2000
 3694 0668 FFF7FEFF 		bl	HAL_Delay
 3695              	.LVL568:
 791:Core/Src/lcd_test.c **** 	
 792:Core/Src/lcd_test.c **** 	LCD_SetBackColor(LCD_BLACK); //ËÆæÁΩÆËÉåÊôØËâ≤
 3696              		.loc 1 792 2 view .LVU683
 3697 066c 4FF07F40 		mov	r0, #-16777216
 3698 0670 FFF7FEFF 		bl	LCD_SetBackColor
 3699              	.LVL569:
 793:Core/Src/lcd_test.c **** 	LCD_Clear(); //Ê∏ÖÂ±èÔºåÂà∑ËÉåÊôØËâ≤
 3700              		.loc 1 793 2 view .LVU684
 3701 0674 FFF7FEFF 		bl	LCD_Clear
 3702              	.LVL570:
 794:Core/Src/lcd_test.c **** 
 795:Core/Src/lcd_test.c **** 	LCD_SetColor(LCD_RED);    	LCD_DisplayString(0,3,"0XFF0000");	
 3703              		.loc 1 795 2 view .LVU685
 3704 0678 2846     		mov	r0, r5
 3705 067a FFF7FEFF 		bl	LCD_SetColor
 3706              	.LVL571:
 3707              		.loc 1 795 29 view .LVU686
 3708 067e 794A     		ldr	r2, .L107+84
 3709 0680 0321     		movs	r1, #3
 3710 0682 0020     		movs	r0, #0
 3711 0684 FFF7FEFF 		bl	LCD_DisplayString
 3712              	.LVL572:
 796:Core/Src/lcd_test.c **** 	LCD_SetColor(LCD_GREEN);  	LCD_DisplayString(0,25,"0X00FF00");
 3713              		.loc 1 796 2 view .LVU687
 3714 0688 4FF0FF20 		mov	r0, #-16711936
 3715 068c FFF7FEFF 		bl	LCD_SetColor
 3716              	.LVL573:
 3717              		.loc 1 796 29 view .LVU688
 3718 0690 754A     		ldr	r2, .L107+88
 3719 0692 1921     		movs	r1, #25
 3720 0694 0020     		movs	r0, #0
 3721 0696 FFF7FEFF 		bl	LCD_DisplayString
 3722              	.LVL574:
 797:Core/Src/lcd_test.c **** 	LCD_SetColor(LCD_BLUE);	  	LCD_DisplayString(0,47,"0X0000FF");	
 3723              		.loc 1 797 2 view .LVU689
 3724 069a 3046     		mov	r0, r6
 3725 069c FFF7FEFF 		bl	LCD_SetColor
 3726              	.LVL575:
 3727              		.loc 1 797 29 view .LVU690
 3728 06a0 724A     		ldr	r2, .L107+92
 3729 06a2 2F21     		movs	r1, #47
 3730 06a4 0020     		movs	r0, #0
 3731 06a6 FFF7FEFF 		bl	LCD_DisplayString
ARM GAS  C:\Users\OSD\AppData\Local\Temp\cc2NoGol.s 			page 86


 3732              	.LVL576:
 798:Core/Src/lcd_test.c **** 	
 799:Core/Src/lcd_test.c **** 	//Âà∑È¢úËâ≤Êù°
 800:Core/Src/lcd_test.c **** 	for(i=70;i<255;i++){LCD_SetColor( LCD_RED-(i<<16) ); 		LCD_DrawLine(80+i-70,  3,80+i-70, 19);}
 3733              		.loc 1 800 2 view .LVU691
 3734              		.loc 1 800 7 is_stmt 0 view .LVU692
 3735 06aa 4624     		movs	r4, #70
 3736              		.loc 1 800 2 view .LVU693
 3737 06ac 0EE0     		b	.L71
 3738              	.LVL577:
 3739              	.L72:
 3740              		.loc 1 800 22 is_stmt 1 discriminator 3 view .LVU694
 3741 06ae 7048     		ldr	r0, .L107+96
 3742 06b0 A0EB0440 		sub	r0, r0, r4, lsl #16
 3743 06b4 FFF7FEFF 		bl	LCD_SetColor
 3744              	.LVL578:
 3745              		.loc 1 800 57 discriminator 3 view .LVU695
 3746 06b8 04F10A00 		add	r0, r4, #10
 3747 06bc 80B2     		uxth	r0, r0
 3748 06be 1323     		movs	r3, #19
 3749 06c0 0246     		mov	r2, r0
 3750 06c2 0321     		movs	r1, #3
 3751 06c4 FFF7FEFF 		bl	LCD_DrawLine
 3752              	.LVL579:
 3753              		.loc 1 800 17 discriminator 3 view .LVU696
 3754              		.loc 1 800 18 is_stmt 0 discriminator 3 view .LVU697
 3755 06c8 0134     		adds	r4, r4, #1
 3756              	.LVL580:
 3757              		.loc 1 800 18 discriminator 3 view .LVU698
 3758 06ca A4B2     		uxth	r4, r4
 3759              	.LVL581:
 3760              	.L71:
 3761              		.loc 1 800 11 is_stmt 1 discriminator 1 view .LVU699
 3762              		.loc 1 800 2 is_stmt 0 discriminator 1 view .LVU700
 3763 06cc FE2C     		cmp	r4, #254
 3764 06ce EED9     		bls	.L72
 801:Core/Src/lcd_test.c **** 	for(i=70;i<255;i++){LCD_SetColor( LCD_GREEN-(i<<8) );		LCD_DrawLine(80+i-70, 25,80+i-70, 41);}
 3765              		.loc 1 801 7 view .LVU701
 3766 06d0 4624     		movs	r4, #70
 3767              	.LVL582:
 3768              		.loc 1 801 7 view .LVU702
 3769 06d2 0EE0     		b	.L73
 3770              	.LVL583:
 3771              	.L74:
 3772              		.loc 1 801 22 is_stmt 1 discriminator 3 view .LVU703
 3773              		.loc 1 801 48 is_stmt 0 discriminator 3 view .LVU704
 3774 06d4 2002     		lsls	r0, r4, #8
 3775              		.loc 1 801 22 discriminator 3 view .LVU705
 3776 06d6 C0F1FF20 		rsb	r0, r0, #-16711936
 3777 06da FFF7FEFF 		bl	LCD_SetColor
 3778              	.LVL584:
 3779              		.loc 1 801 57 is_stmt 1 discriminator 3 view .LVU706
 3780 06de 04F10A00 		add	r0, r4, #10
 3781 06e2 80B2     		uxth	r0, r0
 3782 06e4 2923     		movs	r3, #41
 3783 06e6 0246     		mov	r2, r0
 3784 06e8 1921     		movs	r1, #25
ARM GAS  C:\Users\OSD\AppData\Local\Temp\cc2NoGol.s 			page 87


 3785 06ea FFF7FEFF 		bl	LCD_DrawLine
 3786              	.LVL585:
 3787              		.loc 1 801 17 discriminator 3 view .LVU707
 3788              		.loc 1 801 18 is_stmt 0 discriminator 3 view .LVU708
 3789 06ee 0134     		adds	r4, r4, #1
 3790              	.LVL586:
 3791              		.loc 1 801 18 discriminator 3 view .LVU709
 3792 06f0 A4B2     		uxth	r4, r4
 3793              	.LVL587:
 3794              	.L73:
 3795              		.loc 1 801 11 is_stmt 1 discriminator 1 view .LVU710
 3796              		.loc 1 801 2 is_stmt 0 discriminator 1 view .LVU711
 3797 06f2 FE2C     		cmp	r4, #254
 3798 06f4 EED9     		bls	.L74
 802:Core/Src/lcd_test.c **** 	for(i=70;i<255;i++){LCD_SetColor( LCD_BLUE-i );		 		LCD_DrawLine(80+i-70, 47,80+i-70, 63);}
 3799              		.loc 1 802 7 view .LVU712
 3800 06f6 4624     		movs	r4, #70
 3801              	.LVL588:
 3802              		.loc 1 802 7 view .LVU713
 3803 06f8 0DE0     		b	.L75
 3804              	.LVL589:
 3805              	.L76:
 3806              		.loc 1 802 22 is_stmt 1 discriminator 3 view .LVU714
 3807 06fa 5E48     		ldr	r0, .L107+100
 3808 06fc 001B     		subs	r0, r0, r4
 3809 06fe FFF7FEFF 		bl	LCD_SetColor
 3810              	.LVL590:
 3811              		.loc 1 802 54 discriminator 3 view .LVU715
 3812 0702 04F10A00 		add	r0, r4, #10
 3813 0706 80B2     		uxth	r0, r0
 3814 0708 3F23     		movs	r3, #63
 3815 070a 0246     		mov	r2, r0
 3816 070c 2F21     		movs	r1, #47
 3817 070e FFF7FEFF 		bl	LCD_DrawLine
 3818              	.LVL591:
 3819              		.loc 1 802 17 discriminator 3 view .LVU716
 3820              		.loc 1 802 18 is_stmt 0 discriminator 3 view .LVU717
 3821 0712 0134     		adds	r4, r4, #1
 3822              	.LVL592:
 3823              		.loc 1 802 18 discriminator 3 view .LVU718
 3824 0714 A4B2     		uxth	r4, r4
 3825              	.LVL593:
 3826              	.L75:
 3827              		.loc 1 802 11 is_stmt 1 discriminator 1 view .LVU719
 3828              		.loc 1 802 2 is_stmt 0 discriminator 1 view .LVU720
 3829 0716 FE2C     		cmp	r4, #254
 3830 0718 EFD9     		bls	.L76
 803:Core/Src/lcd_test.c **** 	for(i=70;i<255;i++){LCD_SetColor( LIGHT_RED-(i<<16) );	LCD_DrawLine(80+i-70, 69,80+i-70, 85);}LCD_
 3831              		.loc 1 803 7 view .LVU721
 3832 071a 4624     		movs	r4, #70
 3833              	.LVL594:
 3834              		.loc 1 803 7 view .LVU722
 3835 071c 0EE0     		b	.L77
 3836              	.LVL595:
 3837              	.L78:
 3838              		.loc 1 803 22 is_stmt 1 discriminator 3 view .LVU723
 3839 071e 3D48     		ldr	r0, .L107+4
ARM GAS  C:\Users\OSD\AppData\Local\Temp\cc2NoGol.s 			page 88


 3840 0720 A0EB0440 		sub	r0, r0, r4, lsl #16
 3841 0724 FFF7FEFF 		bl	LCD_SetColor
 3842              	.LVL596:
 3843              		.loc 1 803 57 discriminator 3 view .LVU724
 3844 0728 04F10A00 		add	r0, r4, #10
 3845 072c 80B2     		uxth	r0, r0
 3846 072e 5523     		movs	r3, #85
 3847 0730 0246     		mov	r2, r0
 3848 0732 4521     		movs	r1, #69
 3849 0734 FFF7FEFF 		bl	LCD_DrawLine
 3850              	.LVL597:
 3851              		.loc 1 803 17 discriminator 3 view .LVU725
 3852              		.loc 1 803 18 is_stmt 0 discriminator 3 view .LVU726
 3853 0738 0134     		adds	r4, r4, #1
 3854              	.LVL598:
 3855              		.loc 1 803 18 discriminator 3 view .LVU727
 3856 073a A4B2     		uxth	r4, r4
 3857              	.LVL599:
 3858              	.L77:
 3859              		.loc 1 803 11 is_stmt 1 discriminator 1 view .LVU728
 3860              		.loc 1 803 2 is_stmt 0 discriminator 1 view .LVU729
 3861 073c FE2C     		cmp	r4, #254
 3862 073e EED9     		bls	.L78
 3863              		.loc 1 803 96 is_stmt 1 discriminator 4 view .LVU730
 3864 0740 4D4A     		ldr	r2, .L107+104
 3865 0742 4521     		movs	r1, #69
 3866 0744 0020     		movs	r0, #0
 3867 0746 FFF7FEFF 		bl	LCD_DisplayString
 3868              	.LVL600:
 804:Core/Src/lcd_test.c **** 	for(i=70;i<255;i++){LCD_SetColor( LIGHT_GREEN-(i<<8) );	LCD_DrawLine(80+i-70, 91,80+i-70,107);}LCD
 3869              		.loc 1 804 2 discriminator 4 view .LVU731
 3870              		.loc 1 804 7 is_stmt 0 discriminator 4 view .LVU732
 3871 074a 4624     		movs	r4, #70
 3872              		.loc 1 804 2 discriminator 4 view .LVU733
 3873 074c 0FE0     		b	.L79
 3874              	.LVL601:
 3875              	.L80:
 3876              		.loc 1 804 22 is_stmt 1 discriminator 3 view .LVU734
 3877 074e 6FF07F10 		mvn	r0, #8323199
 3878 0752 A0EB0420 		sub	r0, r0, r4, lsl #8
 3879 0756 FFF7FEFF 		bl	LCD_SetColor
 3880              	.LVL602:
 3881              		.loc 1 804 58 discriminator 3 view .LVU735
 3882 075a 04F10A00 		add	r0, r4, #10
 3883 075e 80B2     		uxth	r0, r0
 3884 0760 6B23     		movs	r3, #107
 3885 0762 0246     		mov	r2, r0
 3886 0764 5B21     		movs	r1, #91
 3887 0766 FFF7FEFF 		bl	LCD_DrawLine
 3888              	.LVL603:
 3889              		.loc 1 804 17 discriminator 3 view .LVU736
 3890              		.loc 1 804 18 is_stmt 0 discriminator 3 view .LVU737
 3891 076a 0134     		adds	r4, r4, #1
 3892              	.LVL604:
 3893              		.loc 1 804 18 discriminator 3 view .LVU738
 3894 076c A4B2     		uxth	r4, r4
 3895              	.LVL605:
ARM GAS  C:\Users\OSD\AppData\Local\Temp\cc2NoGol.s 			page 89


 3896              	.L79:
 3897              		.loc 1 804 11 is_stmt 1 discriminator 1 view .LVU739
 3898              		.loc 1 804 2 is_stmt 0 discriminator 1 view .LVU740
 3899 076e FE2C     		cmp	r4, #254
 3900 0770 EDD9     		bls	.L80
 3901              		.loc 1 804 97 is_stmt 1 discriminator 4 view .LVU741
 3902 0772 424A     		ldr	r2, .L107+108
 3903 0774 5B21     		movs	r1, #91
 3904 0776 0020     		movs	r0, #0
 3905 0778 FFF7FEFF 		bl	LCD_DisplayString
 3906              	.LVL606:
 805:Core/Src/lcd_test.c **** 	for(i=70;i<255;i++){LCD_SetColor( LIGHT_BLUE-i );			LCD_DrawLine(80+i-70,113,80+i-70,129);}LCD_Dis
 3907              		.loc 1 805 2 discriminator 4 view .LVU742
 3908              		.loc 1 805 7 is_stmt 0 discriminator 4 view .LVU743
 3909 077c 4624     		movs	r4, #70
 3910              		.loc 1 805 2 discriminator 4 view .LVU744
 3911 077e 0DE0     		b	.L81
 3912              	.LVL607:
 3913              	.L82:
 3914              		.loc 1 805 22 is_stmt 1 discriminator 3 view .LVU745
 3915 0780 3F48     		ldr	r0, .L107+112
 3916 0782 001B     		subs	r0, r0, r4
 3917 0784 FFF7FEFF 		bl	LCD_SetColor
 3918              	.LVL608:
 3919              		.loc 1 805 54 discriminator 3 view .LVU746
 3920 0788 04F10A00 		add	r0, r4, #10
 3921 078c 80B2     		uxth	r0, r0
 3922 078e 8123     		movs	r3, #129
 3923 0790 0246     		mov	r2, r0
 3924 0792 7121     		movs	r1, #113
 3925 0794 FFF7FEFF 		bl	LCD_DrawLine
 3926              	.LVL609:
 3927              		.loc 1 805 17 discriminator 3 view .LVU747
 3928              		.loc 1 805 18 is_stmt 0 discriminator 3 view .LVU748
 3929 0798 0134     		adds	r4, r4, #1
 3930              	.LVL610:
 3931              		.loc 1 805 18 discriminator 3 view .LVU749
 3932 079a A4B2     		uxth	r4, r4
 3933              	.LVL611:
 3934              	.L81:
 3935              		.loc 1 805 11 is_stmt 1 discriminator 1 view .LVU750
 3936              		.loc 1 805 2 is_stmt 0 discriminator 1 view .LVU751
 3937 079c FE2C     		cmp	r4, #254
 3938 079e EFD9     		bls	.L82
 3939              		.loc 1 805 93 is_stmt 1 discriminator 4 view .LVU752
 3940 07a0 384A     		ldr	r2, .L107+116
 3941 07a2 7121     		movs	r1, #113
 3942 07a4 0020     		movs	r0, #0
 3943 07a6 FFF7FEFF 		bl	LCD_DisplayString
 3944              	.LVL612:
 806:Core/Src/lcd_test.c **** 	for(i=70;i<255;i++){LCD_SetColor( DARK_BLUE-(i<<16) );	LCD_DrawLine(80+i-70,135,80+i-70,151);}LCD_
 3945              		.loc 1 806 2 discriminator 4 view .LVU753
 3946              		.loc 1 806 7 is_stmt 0 discriminator 4 view .LVU754
 3947 07aa 4624     		movs	r4, #70
 3948              		.loc 1 806 2 discriminator 4 view .LVU755
 3949 07ac 0EE0     		b	.L83
 3950              	.LVL613:
ARM GAS  C:\Users\OSD\AppData\Local\Temp\cc2NoGol.s 			page 90


 3951              	.L84:
 3952              		.loc 1 806 22 is_stmt 1 discriminator 3 view .LVU756
 3953 07ae 1F48     		ldr	r0, .L107+28
 3954 07b0 A0EB0440 		sub	r0, r0, r4, lsl #16
 3955 07b4 FFF7FEFF 		bl	LCD_SetColor
 3956              	.LVL614:
 3957              		.loc 1 806 57 discriminator 3 view .LVU757
 3958 07b8 04F10A00 		add	r0, r4, #10
 3959 07bc 80B2     		uxth	r0, r0
 3960 07be 9723     		movs	r3, #151
 3961 07c0 0246     		mov	r2, r0
 3962 07c2 8721     		movs	r1, #135
 3963 07c4 FFF7FEFF 		bl	LCD_DrawLine
 3964              	.LVL615:
 3965              		.loc 1 806 17 discriminator 3 view .LVU758
 3966              		.loc 1 806 18 is_stmt 0 discriminator 3 view .LVU759
 3967 07c8 0134     		adds	r4, r4, #1
 3968              	.LVL616:
 3969              		.loc 1 806 18 discriminator 3 view .LVU760
 3970 07ca A4B2     		uxth	r4, r4
 3971              	.LVL617:
 3972              	.L83:
 3973              		.loc 1 806 11 is_stmt 1 discriminator 1 view .LVU761
 3974              		.loc 1 806 2 is_stmt 0 discriminator 1 view .LVU762
 3975 07cc FE2C     		cmp	r4, #254
 3976 07ce EED9     		bls	.L84
 3977              		.loc 1 806 96 is_stmt 1 discriminator 4 view .LVU763
 3978 07d0 2D4A     		ldr	r2, .L107+120
 3979 07d2 8721     		movs	r1, #135
 3980 07d4 0020     		movs	r0, #0
 3981 07d6 FFF7FEFF 		bl	LCD_DisplayString
 3982              	.LVL618:
 807:Core/Src/lcd_test.c **** 	for(i=70;i<255;i++){LCD_SetColor( DARK_BLUE-(i<<8) );		LCD_DrawLine(80+i-70,157,80+i-70,173);}LCD_
 3983              		.loc 1 807 2 discriminator 4 view .LVU764
 3984              		.loc 1 807 7 is_stmt 0 discriminator 4 view .LVU765
 3985 07da 4624     		movs	r4, #70
 3986              		.loc 1 807 2 discriminator 4 view .LVU766
 3987 07dc 0EE0     		b	.L85
 3988              	.LVL619:
 3989              	.L86:
 3990              		.loc 1 807 22 is_stmt 1 discriminator 3 view .LVU767
 3991 07de 1348     		ldr	r0, .L107+28
 3992 07e0 A0EB0420 		sub	r0, r0, r4, lsl #8
 3993 07e4 FFF7FEFF 		bl	LCD_SetColor
 3994              	.LVL620:
 3995              		.loc 1 807 57 discriminator 3 view .LVU768
 3996 07e8 04F10A00 		add	r0, r4, #10
 3997 07ec 80B2     		uxth	r0, r0
 3998 07ee AD23     		movs	r3, #173
 3999 07f0 0246     		mov	r2, r0
 4000 07f2 9D21     		movs	r1, #157
 4001 07f4 FFF7FEFF 		bl	LCD_DrawLine
 4002              	.LVL621:
 4003              		.loc 1 807 17 discriminator 3 view .LVU769
 4004              		.loc 1 807 18 is_stmt 0 discriminator 3 view .LVU770
 4005 07f8 0134     		adds	r4, r4, #1
 4006              	.LVL622:
ARM GAS  C:\Users\OSD\AppData\Local\Temp\cc2NoGol.s 			page 91


 4007              		.loc 1 807 18 discriminator 3 view .LVU771
 4008 07fa A4B2     		uxth	r4, r4
 4009              	.LVL623:
 4010              	.L85:
 4011              		.loc 1 807 11 is_stmt 1 discriminator 1 view .LVU772
 4012              		.loc 1 807 2 is_stmt 0 discriminator 1 view .LVU773
 4013 07fc FE2C     		cmp	r4, #254
 4014 07fe EED9     		bls	.L86
 4015              		.loc 1 807 96 is_stmt 1 discriminator 4 view .LVU774
 4016 0800 214A     		ldr	r2, .L107+120
 4017 0802 9D21     		movs	r1, #157
 4018 0804 0020     		movs	r0, #0
 4019 0806 FFF7FEFF 		bl	LCD_DisplayString
 4020              	.LVL624:
 808:Core/Src/lcd_test.c **** 	for(i=70;i<255;i++){LCD_SetColor( DARK_RED-i );				LCD_DrawLine(80+i-70,179,80+i-70,195);}LCD_Disp
 4021              		.loc 1 808 2 discriminator 4 view .LVU775
 4022              		.loc 1 808 7 is_stmt 0 discriminator 4 view .LVU776
 4023 080a 4624     		movs	r4, #70
 4024              		.loc 1 808 2 discriminator 4 view .LVU777
 4025 080c 4CE0     		b	.L87
 4026              	.L108:
 4027 080e 00BF     		.align	2
 4028              	.L107:
 4029 0810 6C000000 		.word	.LC37
 4030 0814 8080FFFF 		.word	-32640
 4031 0818 78000000 		.word	.LC38
 4032 081c 84000000 		.word	.LC39
 4033 0820 90000000 		.word	.LC40
 4034 0824 A4000000 		.word	.LC51
 4035 0828 B4000000 		.word	.LC52
 4036 082c 800000FF 		.word	-16777088
 4037 0830 C0000000 		.word	.LC53
 4038 0834 008000FF 		.word	-16744448
 4039 0838 CC000000 		.word	.LC54
 4040 083c 000080FF 		.word	-8388608
 4041 0840 D8000000 		.word	.LC55
 4042 0844 808000FF 		.word	-16744320
 4043 0848 E4000000 		.word	.LC56
 4044 084c 800080FF 		.word	-8388480
 4045 0850 F0000000 		.word	.LC57
 4046 0854 008080FF 		.word	-8355840
 4047 0858 00010000 		.word	.LC58
 4048 085c 404040FF 		.word	-12566464
 4049 0860 0C010000 		.word	.LC59
 4050 0864 18010000 		.word	.LC60
 4051 0868 24010000 		.word	.LC61
 4052 086c 30010000 		.word	.LC62
 4053 0870 0000FFFF 		.word	-65536
 4054 0874 FF0000FF 		.word	-16776961
 4055 0878 3C010000 		.word	.LC63
 4056 087c 48010000 		.word	.LC64
 4057 0880 FF8080FF 		.word	-8355585
 4058 0884 54010000 		.word	.LC65
 4059 0888 60010000 		.word	.LC66
 4060              	.LVL625:
 4061              	.L88:
 4062              		.loc 1 808 22 is_stmt 1 discriminator 3 view .LVU778
ARM GAS  C:\Users\OSD\AppData\Local\Temp\cc2NoGol.s 			page 92


 4063 088c 5B48     		ldr	r0, .L109
 4064 088e 001B     		subs	r0, r0, r4
 4065 0890 FFF7FEFF 		bl	LCD_SetColor
 4066              	.LVL626:
 4067              		.loc 1 808 53 discriminator 3 view .LVU779
 4068 0894 04F10A00 		add	r0, r4, #10
 4069 0898 80B2     		uxth	r0, r0
 4070 089a C323     		movs	r3, #195
 4071 089c 0246     		mov	r2, r0
 4072 089e B321     		movs	r1, #179
 4073 08a0 FFF7FEFF 		bl	LCD_DrawLine
 4074              	.LVL627:
 4075              		.loc 1 808 17 discriminator 3 view .LVU780
 4076              		.loc 1 808 18 is_stmt 0 discriminator 3 view .LVU781
 4077 08a4 0134     		adds	r4, r4, #1
 4078              	.LVL628:
 4079              		.loc 1 808 18 discriminator 3 view .LVU782
 4080 08a6 A4B2     		uxth	r4, r4
 4081              	.LVL629:
 4082              	.L87:
 4083              		.loc 1 808 11 is_stmt 1 discriminator 1 view .LVU783
 4084              		.loc 1 808 2 is_stmt 0 discriminator 1 view .LVU784
 4085 08a8 FE2C     		cmp	r4, #254
 4086 08aa EFD9     		bls	.L88
 4087              		.loc 1 808 92 is_stmt 1 discriminator 4 view .LVU785
 4088 08ac 544A     		ldr	r2, .L109+4
 4089 08ae B321     		movs	r1, #179
 4090 08b0 0020     		movs	r0, #0
 4091 08b2 FFF7FEFF 		bl	LCD_DisplayString
 4092              	.LVL630:
 809:Core/Src/lcd_test.c **** 	for(i=70;i<255;i++){LCD_SetColor( DARK_RED-(i<<8));		LCD_DrawLine(80+i-70,201,80+i-70,217);}LCD_Di
 4093              		.loc 1 809 2 discriminator 4 view .LVU786
 4094              		.loc 1 809 7 is_stmt 0 discriminator 4 view .LVU787
 4095 08b6 4624     		movs	r4, #70
 4096              		.loc 1 809 2 discriminator 4 view .LVU788
 4097 08b8 0EE0     		b	.L89
 4098              	.LVL631:
 4099              	.L90:
 4100              		.loc 1 809 22 is_stmt 1 discriminator 3 view .LVU789
 4101 08ba 5048     		ldr	r0, .L109
 4102 08bc A0EB0420 		sub	r0, r0, r4, lsl #8
 4103 08c0 FFF7FEFF 		bl	LCD_SetColor
 4104              	.LVL632:
 4105              		.loc 1 809 55 discriminator 3 view .LVU790
 4106 08c4 04F10A00 		add	r0, r4, #10
 4107 08c8 80B2     		uxth	r0, r0
 4108 08ca D923     		movs	r3, #217
 4109 08cc 0246     		mov	r2, r0
 4110 08ce C921     		movs	r1, #201
 4111 08d0 FFF7FEFF 		bl	LCD_DrawLine
 4112              	.LVL633:
 4113              		.loc 1 809 17 discriminator 3 view .LVU791
 4114              		.loc 1 809 18 is_stmt 0 discriminator 3 view .LVU792
 4115 08d4 0134     		adds	r4, r4, #1
 4116              	.LVL634:
 4117              		.loc 1 809 18 discriminator 3 view .LVU793
 4118 08d6 A4B2     		uxth	r4, r4
ARM GAS  C:\Users\OSD\AppData\Local\Temp\cc2NoGol.s 			page 93


 4119              	.LVL635:
 4120              	.L89:
 4121              		.loc 1 809 11 is_stmt 1 discriminator 1 view .LVU794
 4122              		.loc 1 809 2 is_stmt 0 discriminator 1 view .LVU795
 4123 08d8 FE2C     		cmp	r4, #254
 4124 08da EED9     		bls	.L90
 4125              		.loc 1 809 94 is_stmt 1 discriminator 4 view .LVU796
 4126 08dc 484A     		ldr	r2, .L109+4
 4127 08de C921     		movs	r1, #201
 4128 08e0 0020     		movs	r0, #0
 4129 08e2 FFF7FEFF 		bl	LCD_DisplayString
 4130              	.LVL636:
 810:Core/Src/lcd_test.c **** 	for(i=70;i<255;i++){LCD_SetColor( DARK_GREEN-(i<<16)); 	LCD_DrawLine(80+i-70,223,80+i-70,239);}LCD
 4131              		.loc 1 810 2 discriminator 4 view .LVU797
 4132              		.loc 1 810 7 is_stmt 0 discriminator 4 view .LVU798
 4133 08e6 4624     		movs	r4, #70
 4134              		.loc 1 810 2 discriminator 4 view .LVU799
 4135 08e8 0EE0     		b	.L91
 4136              	.LVL637:
 4137              	.L92:
 4138              		.loc 1 810 22 is_stmt 1 discriminator 3 view .LVU800
 4139 08ea 4648     		ldr	r0, .L109+8
 4140 08ec A0EB0440 		sub	r0, r0, r4, lsl #16
 4141 08f0 FFF7FEFF 		bl	LCD_SetColor
 4142              	.LVL638:
 4143              		.loc 1 810 58 discriminator 3 view .LVU801
 4144 08f4 04F10A00 		add	r0, r4, #10
 4145 08f8 80B2     		uxth	r0, r0
 4146 08fa EF23     		movs	r3, #239
 4147 08fc 0246     		mov	r2, r0
 4148 08fe DF21     		movs	r1, #223
 4149 0900 FFF7FEFF 		bl	LCD_DrawLine
 4150              	.LVL639:
 4151              		.loc 1 810 17 discriminator 3 view .LVU802
 4152              		.loc 1 810 18 is_stmt 0 discriminator 3 view .LVU803
 4153 0904 0134     		adds	r4, r4, #1
 4154              	.LVL640:
 4155              		.loc 1 810 18 discriminator 3 view .LVU804
 4156 0906 A4B2     		uxth	r4, r4
 4157              	.LVL641:
 4158              	.L91:
 4159              		.loc 1 810 11 is_stmt 1 discriminator 1 view .LVU805
 4160              		.loc 1 810 2 is_stmt 0 discriminator 1 view .LVU806
 4161 0908 FE2C     		cmp	r4, #254
 4162 090a EED9     		bls	.L92
 4163              		.loc 1 810 97 is_stmt 1 discriminator 4 view .LVU807
 4164 090c 3E4A     		ldr	r2, .L109+12
 4165 090e DF21     		movs	r1, #223
 4166 0910 0020     		movs	r0, #0
 4167 0912 FFF7FEFF 		bl	LCD_DisplayString
 4168              	.LVL642:
 811:Core/Src/lcd_test.c **** 	for(i=70;i<255;i++){LCD_SetColor( DARK_GREEN-i);			LCD_DrawLine(80+i-70,245,80+i-70,261);}LCD_Disp
 4169              		.loc 1 811 2 discriminator 4 view .LVU808
 4170              		.loc 1 811 7 is_stmt 0 discriminator 4 view .LVU809
 4171 0916 4624     		movs	r4, #70
 4172              		.loc 1 811 2 discriminator 4 view .LVU810
 4173 0918 0EE0     		b	.L93
ARM GAS  C:\Users\OSD\AppData\Local\Temp\cc2NoGol.s 			page 94


 4174              	.LVL643:
 4175              	.L94:
 4176              		.loc 1 811 22 is_stmt 1 discriminator 3 view .LVU811
 4177 091a 3A48     		ldr	r0, .L109+8
 4178 091c 001B     		subs	r0, r0, r4
 4179 091e FFF7FEFF 		bl	LCD_SetColor
 4180              	.LVL644:
 4181              		.loc 1 811 53 discriminator 3 view .LVU812
 4182 0922 04F10A00 		add	r0, r4, #10
 4183 0926 80B2     		uxth	r0, r0
 4184 0928 40F20513 		movw	r3, #261
 4185 092c 0246     		mov	r2, r0
 4186 092e F521     		movs	r1, #245
 4187 0930 FFF7FEFF 		bl	LCD_DrawLine
 4188              	.LVL645:
 4189              		.loc 1 811 17 discriminator 3 view .LVU813
 4190              		.loc 1 811 18 is_stmt 0 discriminator 3 view .LVU814
 4191 0934 0134     		adds	r4, r4, #1
 4192              	.LVL646:
 4193              		.loc 1 811 18 discriminator 3 view .LVU815
 4194 0936 A4B2     		uxth	r4, r4
 4195              	.LVL647:
 4196              	.L93:
 4197              		.loc 1 811 11 is_stmt 1 discriminator 1 view .LVU816
 4198              		.loc 1 811 2 is_stmt 0 discriminator 1 view .LVU817
 4199 0938 FE2C     		cmp	r4, #254
 4200 093a EED9     		bls	.L94
 4201              		.loc 1 811 92 is_stmt 1 discriminator 4 view .LVU818
 4202 093c 324A     		ldr	r2, .L109+12
 4203 093e F521     		movs	r1, #245
 4204 0940 0020     		movs	r0, #0
 4205 0942 FFF7FEFF 		bl	LCD_DisplayString
 4206              	.LVL648:
 812:Core/Src/lcd_test.c **** 	for(i=70;i<255;i++){LCD_SetColor( DARK_CYAN-(i<<16));		LCD_DrawLine(80+i-70,267,80+i-70,283);}LCD_
 4207              		.loc 1 812 2 discriminator 4 view .LVU819
 4208              		.loc 1 812 7 is_stmt 0 discriminator 4 view .LVU820
 4209 0946 4624     		movs	r4, #70
 4210              		.loc 1 812 2 discriminator 4 view .LVU821
 4211 0948 10E0     		b	.L95
 4212              	.LVL649:
 4213              	.L96:
 4214              		.loc 1 812 22 is_stmt 1 discriminator 3 view .LVU822
 4215 094a 3048     		ldr	r0, .L109+16
 4216 094c A0EB0440 		sub	r0, r0, r4, lsl #16
 4217 0950 FFF7FEFF 		bl	LCD_SetColor
 4218              	.LVL650:
 4219              		.loc 1 812 57 discriminator 3 view .LVU823
 4220 0954 04F10A00 		add	r0, r4, #10
 4221 0958 80B2     		uxth	r0, r0
 4222 095a 40F21B13 		movw	r3, #283
 4223 095e 0246     		mov	r2, r0
 4224 0960 40F20B11 		movw	r1, #267
 4225 0964 FFF7FEFF 		bl	LCD_DrawLine
 4226              	.LVL651:
 4227              		.loc 1 812 17 discriminator 3 view .LVU824
 4228              		.loc 1 812 18 is_stmt 0 discriminator 3 view .LVU825
 4229 0968 0134     		adds	r4, r4, #1
ARM GAS  C:\Users\OSD\AppData\Local\Temp\cc2NoGol.s 			page 95


 4230              	.LVL652:
 4231              		.loc 1 812 18 discriminator 3 view .LVU826
 4232 096a A4B2     		uxth	r4, r4
 4233              	.LVL653:
 4234              	.L95:
 4235              		.loc 1 812 11 is_stmt 1 discriminator 1 view .LVU827
 4236              		.loc 1 812 2 is_stmt 0 discriminator 1 view .LVU828
 4237 096c FE2C     		cmp	r4, #254
 4238 096e ECD9     		bls	.L96
 4239              		.loc 1 812 96 is_stmt 1 discriminator 4 view .LVU829
 4240 0970 274A     		ldr	r2, .L109+20
 4241 0972 40F20B11 		movw	r1, #267
 4242 0976 0020     		movs	r0, #0
 4243 0978 FFF7FEFF 		bl	LCD_DisplayString
 4244              	.LVL654:
 813:Core/Src/lcd_test.c **** 	for(i=70;i<255;i++){LCD_SetColor( DARK_YELLOW-i);			LCD_DrawLine(80+i-70,289,80+i-70,305);}LCD_Dis
 4245              		.loc 1 813 2 discriminator 4 view .LVU830
 4246              		.loc 1 813 7 is_stmt 0 discriminator 4 view .LVU831
 4247 097c 4624     		movs	r4, #70
 4248              		.loc 1 813 2 discriminator 4 view .LVU832
 4249 097e 0FE0     		b	.L97
 4250              	.LVL655:
 4251              	.L98:
 4252              		.loc 1 813 22 is_stmt 1 discriminator 3 view .LVU833
 4253 0980 2448     		ldr	r0, .L109+24
 4254 0982 001B     		subs	r0, r0, r4
 4255 0984 FFF7FEFF 		bl	LCD_SetColor
 4256              	.LVL656:
 4257              		.loc 1 813 54 discriminator 3 view .LVU834
 4258 0988 04F10A00 		add	r0, r4, #10
 4259 098c 80B2     		uxth	r0, r0
 4260 098e 40F23113 		movw	r3, #305
 4261 0992 0246     		mov	r2, r0
 4262 0994 40F22111 		movw	r1, #289
 4263 0998 FFF7FEFF 		bl	LCD_DrawLine
 4264              	.LVL657:
 4265              		.loc 1 813 17 discriminator 3 view .LVU835
 4266              		.loc 1 813 18 is_stmt 0 discriminator 3 view .LVU836
 4267 099c 0134     		adds	r4, r4, #1
 4268              	.LVL658:
 4269              		.loc 1 813 18 discriminator 3 view .LVU837
 4270 099e A4B2     		uxth	r4, r4
 4271              	.LVL659:
 4272              	.L97:
 4273              		.loc 1 813 11 is_stmt 1 discriminator 1 view .LVU838
 4274              		.loc 1 813 2 is_stmt 0 discriminator 1 view .LVU839
 4275 09a0 FE2C     		cmp	r4, #254
 4276 09a2 EDD9     		bls	.L98
 4277              		.loc 1 813 93 is_stmt 1 discriminator 4 view .LVU840
 4278 09a4 1C4A     		ldr	r2, .L109+28
 4279 09a6 40F22111 		movw	r1, #289
 4280 09aa 0020     		movs	r0, #0
 4281 09ac FFF7FEFF 		bl	LCD_DisplayString
 4282              	.LVL660:
 814:Core/Src/lcd_test.c **** 	for(i=70;i<255;i++){LCD_SetColor( DARK_MAGENTA-(i<<8));	LCD_DrawLine(80+i-70,311,80+i-70,327);}LCD
 4283              		.loc 1 814 2 discriminator 4 view .LVU841
 4284              		.loc 1 814 7 is_stmt 0 discriminator 4 view .LVU842
ARM GAS  C:\Users\OSD\AppData\Local\Temp\cc2NoGol.s 			page 96


 4285 09b0 4624     		movs	r4, #70
 4286              		.loc 1 814 2 discriminator 4 view .LVU843
 4287 09b2 10E0     		b	.L99
 4288              	.LVL661:
 4289              	.L100:
 4290              		.loc 1 814 22 is_stmt 1 discriminator 3 view .LVU844
 4291 09b4 1948     		ldr	r0, .L109+32
 4292 09b6 A0EB0420 		sub	r0, r0, r4, lsl #8
 4293 09ba FFF7FEFF 		bl	LCD_SetColor
 4294              	.LVL662:
 4295              		.loc 1 814 58 discriminator 3 view .LVU845
 4296 09be 04F10A00 		add	r0, r4, #10
 4297 09c2 80B2     		uxth	r0, r0
 4298 09c4 40F24713 		movw	r3, #327
 4299 09c8 0246     		mov	r2, r0
 4300 09ca 40F23711 		movw	r1, #311
 4301 09ce FFF7FEFF 		bl	LCD_DrawLine
 4302              	.LVL663:
 4303              		.loc 1 814 17 discriminator 3 view .LVU846
 4304              		.loc 1 814 18 is_stmt 0 discriminator 3 view .LVU847
 4305 09d2 0134     		adds	r4, r4, #1
 4306              	.LVL664:
 4307              		.loc 1 814 18 discriminator 3 view .LVU848
 4308 09d4 A4B2     		uxth	r4, r4
 4309              	.LVL665:
 4310              	.L99:
 4311              		.loc 1 814 11 is_stmt 1 discriminator 1 view .LVU849
 4312              		.loc 1 814 2 is_stmt 0 discriminator 1 view .LVU850
 4313 09d6 FE2C     		cmp	r4, #254
 4314 09d8 ECD9     		bls	.L100
 4315              		.loc 1 814 97 is_stmt 1 discriminator 4 view .LVU851
 4316 09da 114A     		ldr	r2, .L109+36
 4317 09dc 40F23711 		movw	r1, #311
 4318 09e0 0020     		movs	r0, #0
 4319 09e2 FFF7FEFF 		bl	LCD_DisplayString
 4320              	.LVL666:
 815:Core/Src/lcd_test.c ****                                                                                           
 816:Core/Src/lcd_test.c **** 	HAL_Delay(2000);	
 4321              		.loc 1 816 2 discriminator 4 view .LVU852
 4322 09e6 4FF4FA60 		mov	r0, #2000
 4323 09ea FFF7FEFF 		bl	HAL_Delay
 4324              	.LVL667:
 817:Core/Src/lcd_test.c **** 	LCD_DisplayDirection(Direction_H); // ÂàáÊç¢ÂõûÊ®™Â±èÊòæÁ§∫
 4325              		.loc 1 817 2 discriminator 4 view .LVU853
 4326 09ee 0020     		movs	r0, #0
 4327 09f0 FFF7FEFF 		bl	LCD_DisplayDirection
 4328              	.LVL668:
 818:Core/Src/lcd_test.c **** 	
 819:Core/Src/lcd_test.c **** }
 4329              		.loc 1 819 1 is_stmt 0 discriminator 4 view .LVU854
 4330 09f4 03B0     		add	sp, sp, #12
 4331              		.cfi_def_cfa_offset 36
 4332              		@ sp needed
 4333 09f6 BDE8F08F 		pop	{r4, r5, r6, r7, r8, r9, r10, fp, pc}
 4334              	.LVL669:
 4335              	.L110:
 4336              		.loc 1 819 1 discriminator 4 view .LVU855
ARM GAS  C:\Users\OSD\AppData\Local\Temp\cc2NoGol.s 			page 97


 4337 09fa 00BF     		.align	2
 4338              	.L109:
 4339 09fc 000080FF 		.word	-8388608
 4340 0a00 6C010000 		.word	.LC67
 4341 0a04 008000FF 		.word	-16744448
 4342 0a08 78010000 		.word	.LC68
 4343 0a0c 808000FF 		.word	-16744320
 4344 0a10 84010000 		.word	.LC69
 4345 0a14 008080FF 		.word	-8355840
 4346 0a18 90010000 		.word	.LC70
 4347 0a1c 800080FF 		.word	-8388480
 4348 0a20 9C010000 		.word	.LC71
 4349              		.cfi_endproc
 4350              	.LFE155:
 4352              		.text
 4353              	.Letext0:
 4354              		.file 2 "c:\\tools\\gcc-arm-none-eabi\\arm-none-eabi\\include\\machine\\_default_types.h"
 4355              		.file 3 "c:\\tools\\gcc-arm-none-eabi\\arm-none-eabi\\include\\sys\\_stdint.h"
 4356              		.file 4 "Core/Inc/lcd_fonts.h"
 4357              		.file 5 "Core/Inc/lcd_image.h"
 4358              		.file 6 "Core/Inc/lcd_rgb.h"
 4359              		.file 7 "Drivers/STM32H7xx_HAL_Driver/Inc/stm32h7xx_hal.h"
ARM GAS  C:\Users\OSD\AppData\Local\Temp\cc2NoGol.s 			page 98

