ARM GAS  C:\Users\OSD\AppData\Local\Temp\ccCvZYMl.s 			page 1


   1              		.cpu cortex-m7
   2              		.arch armv7e-m
   3              		.fpu fpv5-d16
   4              		.eabi_attribute 28, 1
   5              		.eabi_attribute 20, 1
   6              		.eabi_attribute 21, 1
   7              		.eabi_attribute 23, 3
   8              		.eabi_attribute 24, 1
   9              		.eabi_attribute 25, 1
  10              		.eabi_attribute 26, 1
  11              		.eabi_attribute 30, 1
  12              		.eabi_attribute 34, 1
  13              		.eabi_attribute 18, 4
  14              		.file	"ltdc.c"
  15              		.text
  16              	.Ltext0:
  17              		.cfi_sections	.debug_frame
  18              		.section	.text.MX_LTDC_Init,"ax",%progbits
  19              		.align	1
  20              		.global	MX_LTDC_Init
  21              		.syntax unified
  22              		.thumb
  23              		.thumb_func
  25              	MX_LTDC_Init:
  26              	.LFB147:
  27              		.file 1 "Core/Src/ltdc.c"
   1:Core/Src/ltdc.c **** /* USER CODE BEGIN Header */
   2:Core/Src/ltdc.c **** /**
   3:Core/Src/ltdc.c ****  ******************************************************************************
   4:Core/Src/ltdc.c ****  * @file    ltdc.c
   5:Core/Src/ltdc.c ****  * @brief   This file provides code for the configuration
   6:Core/Src/ltdc.c ****  *          of the LTDC instances.
   7:Core/Src/ltdc.c ****  ******************************************************************************
   8:Core/Src/ltdc.c ****  * @attention
   9:Core/Src/ltdc.c ****  *
  10:Core/Src/ltdc.c ****  * Copyright (c) 2024 STMicroelectronics.
  11:Core/Src/ltdc.c ****  * All rights reserved.
  12:Core/Src/ltdc.c ****  *
  13:Core/Src/ltdc.c ****  * This software is licensed under terms that can be found in the LICENSE file
  14:Core/Src/ltdc.c ****  * in the root directory of this software component.
  15:Core/Src/ltdc.c ****  * If no LICENSE file comes with this software, it is provided AS-IS.
  16:Core/Src/ltdc.c ****  *
  17:Core/Src/ltdc.c ****  ******************************************************************************
  18:Core/Src/ltdc.c ****  */
  19:Core/Src/ltdc.c **** /* USER CODE END Header */
  20:Core/Src/ltdc.c **** /* Includes ------------------------------------------------------------------*/
  21:Core/Src/ltdc.c **** #include "ltdc.h"
  22:Core/Src/ltdc.c **** 
  23:Core/Src/ltdc.c **** /* USER CODE BEGIN 0 */
  24:Core/Src/ltdc.c **** #include "lcd_rgb.h"
  25:Core/Src/ltdc.c **** /* USER CODE END 0 */
  26:Core/Src/ltdc.c **** 
  27:Core/Src/ltdc.c **** LTDC_HandleTypeDef hltdc;
  28:Core/Src/ltdc.c **** 
  29:Core/Src/ltdc.c **** /* LTDC init function */
  30:Core/Src/ltdc.c **** void MX_LTDC_Init(void)
  31:Core/Src/ltdc.c **** {
ARM GAS  C:\Users\OSD\AppData\Local\Temp\ccCvZYMl.s 			page 2


  28              		.loc 1 31 1 view -0
  29              		.cfi_startproc
  30              		@ args = 0, pretend = 0, frame = 56
  31              		@ frame_needed = 0, uses_anonymous_args = 0
  32 0000 10B5     		push	{r4, lr}
  33              		.cfi_def_cfa_offset 8
  34              		.cfi_offset 4, -8
  35              		.cfi_offset 14, -4
  36 0002 8EB0     		sub	sp, sp, #56
  37              		.cfi_def_cfa_offset 64
  32:Core/Src/ltdc.c **** 
  33:Core/Src/ltdc.c ****   /* USER CODE BEGIN LTDC_Init 0 */
  34:Core/Src/ltdc.c **** 
  35:Core/Src/ltdc.c ****   /* USER CODE END LTDC_Init 0 */
  36:Core/Src/ltdc.c **** 
  37:Core/Src/ltdc.c ****   LTDC_LayerCfgTypeDef pLayerCfg = {0};
  38              		.loc 1 37 3 view .LVU1
  39              		.loc 1 37 24 is_stmt 0 view .LVU2
  40 0004 3422     		movs	r2, #52
  41 0006 0021     		movs	r1, #0
  42 0008 01A8     		add	r0, sp, #4
  43 000a FFF7FEFF 		bl	memset
  44              	.LVL0:
  38:Core/Src/ltdc.c **** 
  39:Core/Src/ltdc.c ****   /* USER CODE BEGIN LTDC_Init 1 */
  40:Core/Src/ltdc.c **** 	__HAL_RCC_DMA2D_CLK_ENABLE();					// æµ£èƒ¯å…˜DMA2Déƒå •æŒ?
  45              		.loc 1 40 2 is_stmt 1 view .LVU3
  46              	.LBB2:
  47              		.loc 1 40 2 view .LVU4
  48              		.loc 1 40 2 view .LVU5
  49 000e 454B     		ldr	r3, .L7
  50 0010 D3F8D420 		ldr	r2, [r3, #212]
  51 0014 42F01002 		orr	r2, r2, #16
  52 0018 C3F8D420 		str	r2, [r3, #212]
  53              		.loc 1 40 2 view .LVU6
  54 001c D3F8D430 		ldr	r3, [r3, #212]
  55 0020 03F01003 		and	r3, r3, #16
  56 0024 0093     		str	r3, [sp]
  57              		.loc 1 40 2 view .LVU7
  58 0026 009B     		ldr	r3, [sp]
  59              	.LBE2:
  60              		.loc 1 40 2 view .LVU8
  41:Core/Src/ltdc.c **** 
  42:Core/Src/ltdc.c ****   /* USER CODE END LTDC_Init 1 */
  43:Core/Src/ltdc.c ****   hltdc.Instance = LTDC;
  61              		.loc 1 43 3 view .LVU9
  62              		.loc 1 43 18 is_stmt 0 view .LVU10
  63 0028 3F48     		ldr	r0, .L7+4
  64 002a 404B     		ldr	r3, .L7+8
  65 002c 0360     		str	r3, [r0]
  44:Core/Src/ltdc.c ****   hltdc.Init.HSPolarity = LTDC_HSPOLARITY_AL;
  66              		.loc 1 44 3 is_stmt 1 view .LVU11
  67              		.loc 1 44 25 is_stmt 0 view .LVU12
  68 002e 0023     		movs	r3, #0
  69 0030 4360     		str	r3, [r0, #4]
  45:Core/Src/ltdc.c ****   hltdc.Init.VSPolarity = LTDC_VSPOLARITY_AL;
  70              		.loc 1 45 3 is_stmt 1 view .LVU13
ARM GAS  C:\Users\OSD\AppData\Local\Temp\ccCvZYMl.s 			page 3


  71              		.loc 1 45 25 is_stmt 0 view .LVU14
  72 0032 8360     		str	r3, [r0, #8]
  46:Core/Src/ltdc.c ****   hltdc.Init.DEPolarity = LTDC_DEPOLARITY_AL;
  73              		.loc 1 46 3 is_stmt 1 view .LVU15
  74              		.loc 1 46 25 is_stmt 0 view .LVU16
  75 0034 C360     		str	r3, [r0, #12]
  47:Core/Src/ltdc.c ****   hltdc.Init.PCPolarity = LTDC_PCPOLARITY_IPC;
  76              		.loc 1 47 3 is_stmt 1 view .LVU17
  77              		.loc 1 47 25 is_stmt 0 view .LVU18
  78 0036 0361     		str	r3, [r0, #16]
  48:Core/Src/ltdc.c ****   hltdc.Init.HorizontalSync = 1;
  79              		.loc 1 48 3 is_stmt 1 view .LVU19
  80              		.loc 1 48 29 is_stmt 0 view .LVU20
  81 0038 0122     		movs	r2, #1
  82 003a 4261     		str	r2, [r0, #20]
  49:Core/Src/ltdc.c ****   hltdc.Init.VerticalSync = 1;
  83              		.loc 1 49 3 is_stmt 1 view .LVU21
  84              		.loc 1 49 27 is_stmt 0 view .LVU22
  85 003c 8261     		str	r2, [r0, #24]
  50:Core/Src/ltdc.c ****   hltdc.Init.AccumulatedHBP = 15;
  86              		.loc 1 50 3 is_stmt 1 view .LVU23
  87              		.loc 1 50 29 is_stmt 0 view .LVU24
  88 003e 0F22     		movs	r2, #15
  89 0040 C261     		str	r2, [r0, #28]
  51:Core/Src/ltdc.c ****   hltdc.Init.AccumulatedVBP = 11;
  90              		.loc 1 51 3 is_stmt 1 view .LVU25
  91              		.loc 1 51 29 is_stmt 0 view .LVU26
  92 0042 0B22     		movs	r2, #11
  93 0044 0262     		str	r2, [r0, #32]
  52:Core/Src/ltdc.c ****   hltdc.Init.AccumulatedActiveW = 495;
  94              		.loc 1 52 3 is_stmt 1 view .LVU27
  95              		.loc 1 52 33 is_stmt 0 view .LVU28
  96 0046 40F2EF12 		movw	r2, #495
  97 004a 4262     		str	r2, [r0, #36]
  53:Core/Src/ltdc.c ****   hltdc.Init.AccumulatedActiveH = 651;
  98              		.loc 1 53 3 is_stmt 1 view .LVU29
  99              		.loc 1 53 33 is_stmt 0 view .LVU30
 100 004c 40F28B22 		movw	r2, #651
 101 0050 8262     		str	r2, [r0, #40]
  54:Core/Src/ltdc.c ****   hltdc.Init.TotalWidth = 503;
 102              		.loc 1 54 3 is_stmt 1 view .LVU31
 103              		.loc 1 54 25 is_stmt 0 view .LVU32
 104 0052 40F2F712 		movw	r2, #503
 105 0056 C262     		str	r2, [r0, #44]
  55:Core/Src/ltdc.c ****   hltdc.Init.TotalHeigh = 659;
 106              		.loc 1 55 3 is_stmt 1 view .LVU33
 107              		.loc 1 55 25 is_stmt 0 view .LVU34
 108 0058 40F29322 		movw	r2, #659
 109 005c 0263     		str	r2, [r0, #48]
  56:Core/Src/ltdc.c ****   hltdc.Init.Backcolor.Blue = 0;
 110              		.loc 1 56 3 is_stmt 1 view .LVU35
 111              		.loc 1 56 29 is_stmt 0 view .LVU36
 112 005e 80F83430 		strb	r3, [r0, #52]
  57:Core/Src/ltdc.c ****   hltdc.Init.Backcolor.Green = 0;
 113              		.loc 1 57 3 is_stmt 1 view .LVU37
 114              		.loc 1 57 30 is_stmt 0 view .LVU38
 115 0062 80F83530 		strb	r3, [r0, #53]
ARM GAS  C:\Users\OSD\AppData\Local\Temp\ccCvZYMl.s 			page 4


  58:Core/Src/ltdc.c ****   hltdc.Init.Backcolor.Red = 0;
 116              		.loc 1 58 3 is_stmt 1 view .LVU39
 117              		.loc 1 58 28 is_stmt 0 view .LVU40
 118 0066 80F83630 		strb	r3, [r0, #54]
  59:Core/Src/ltdc.c ****   if (HAL_LTDC_Init(&hltdc) != HAL_OK)
 119              		.loc 1 59 3 is_stmt 1 view .LVU41
 120              		.loc 1 59 7 is_stmt 0 view .LVU42
 121 006a FFF7FEFF 		bl	HAL_LTDC_Init
 122              	.LVL1:
 123              		.loc 1 59 6 view .LVU43
 124 006e 0028     		cmp	r0, #0
 125 0070 51D1     		bne	.L5
 126              	.L2:
  60:Core/Src/ltdc.c ****   {
  61:Core/Src/ltdc.c ****     Error_Handler();
  62:Core/Src/ltdc.c ****   }
  63:Core/Src/ltdc.c ****   pLayerCfg.WindowX0 = 0;
 127              		.loc 1 63 3 is_stmt 1 view .LVU44
 128              		.loc 1 63 22 is_stmt 0 view .LVU45
 129 0072 0022     		movs	r2, #0
 130 0074 0192     		str	r2, [sp, #4]
  64:Core/Src/ltdc.c ****   pLayerCfg.WindowX1 = 480;
 131              		.loc 1 64 3 is_stmt 1 view .LVU46
 132              		.loc 1 64 22 is_stmt 0 view .LVU47
 133 0076 4FF4F071 		mov	r1, #480
 134 007a 0291     		str	r1, [sp, #8]
  65:Core/Src/ltdc.c ****   pLayerCfg.WindowY0 = 0;
 135              		.loc 1 65 3 is_stmt 1 view .LVU48
 136              		.loc 1 65 22 is_stmt 0 view .LVU49
 137 007c 0392     		str	r2, [sp, #12]
  66:Core/Src/ltdc.c ****   pLayerCfg.WindowY1 = 640;
 138              		.loc 1 66 3 is_stmt 1 view .LVU50
 139              		.loc 1 66 22 is_stmt 0 view .LVU51
 140 007e 4FF42073 		mov	r3, #640
 141 0082 0493     		str	r3, [sp, #16]
  67:Core/Src/ltdc.c ****   pLayerCfg.PixelFormat = LTDC_PIXEL_FORMAT_ARGB8888;
 142              		.loc 1 67 3 is_stmt 1 view .LVU52
 143              		.loc 1 67 25 is_stmt 0 view .LVU53
 144 0084 0592     		str	r2, [sp, #20]
  68:Core/Src/ltdc.c ****   pLayerCfg.Alpha = 255;
 145              		.loc 1 68 3 is_stmt 1 view .LVU54
 146              		.loc 1 68 19 is_stmt 0 view .LVU55
 147 0086 FF20     		movs	r0, #255
 148 0088 0690     		str	r0, [sp, #24]
  69:Core/Src/ltdc.c ****   pLayerCfg.Alpha0 = 0;
 149              		.loc 1 69 3 is_stmt 1 view .LVU56
 150              		.loc 1 69 20 is_stmt 0 view .LVU57
 151 008a 0792     		str	r2, [sp, #28]
  70:Core/Src/ltdc.c ****   pLayerCfg.BlendingFactor1 = LTDC_BLENDING_FACTOR1_CA;
 152              		.loc 1 70 3 is_stmt 1 view .LVU58
 153              		.loc 1 70 29 is_stmt 0 view .LVU59
 154 008c 4FF48060 		mov	r0, #1024
 155 0090 0890     		str	r0, [sp, #32]
  71:Core/Src/ltdc.c ****   pLayerCfg.BlendingFactor2 = LTDC_BLENDING_FACTOR2_CA;
 156              		.loc 1 71 3 is_stmt 1 view .LVU60
 157              		.loc 1 71 29 is_stmt 0 view .LVU61
 158 0092 0520     		movs	r0, #5
ARM GAS  C:\Users\OSD\AppData\Local\Temp\ccCvZYMl.s 			page 5


 159 0094 0990     		str	r0, [sp, #36]
  72:Core/Src/ltdc.c ****   pLayerCfg.FBStartAdress = 0xC0000000;
 160              		.loc 1 72 3 is_stmt 1 view .LVU62
 161              		.loc 1 72 27 is_stmt 0 view .LVU63
 162 0096 4FF04040 		mov	r0, #-1073741824
 163 009a 0A90     		str	r0, [sp, #40]
  73:Core/Src/ltdc.c ****   pLayerCfg.ImageWidth = 480;
 164              		.loc 1 73 3 is_stmt 1 view .LVU64
 165              		.loc 1 73 24 is_stmt 0 view .LVU65
 166 009c 0B91     		str	r1, [sp, #44]
  74:Core/Src/ltdc.c ****   pLayerCfg.ImageHeight = 640;
 167              		.loc 1 74 3 is_stmt 1 view .LVU66
 168              		.loc 1 74 25 is_stmt 0 view .LVU67
 169 009e 0C93     		str	r3, [sp, #48]
  75:Core/Src/ltdc.c ****   pLayerCfg.Backcolor.Blue = 0;
 170              		.loc 1 75 3 is_stmt 1 view .LVU68
 171              		.loc 1 75 28 is_stmt 0 view .LVU69
 172 00a0 8DF83420 		strb	r2, [sp, #52]
  76:Core/Src/ltdc.c ****   pLayerCfg.Backcolor.Green = 0;
 173              		.loc 1 76 3 is_stmt 1 view .LVU70
 174              		.loc 1 76 29 is_stmt 0 view .LVU71
 175 00a4 8DF83520 		strb	r2, [sp, #53]
  77:Core/Src/ltdc.c ****   pLayerCfg.Backcolor.Red = 0;
 176              		.loc 1 77 3 is_stmt 1 view .LVU72
 177              		.loc 1 77 27 is_stmt 0 view .LVU73
 178 00a8 8DF83620 		strb	r2, [sp, #54]
  78:Core/Src/ltdc.c ****   if (HAL_LTDC_ConfigLayer(&hltdc, &pLayerCfg, 0) != HAL_OK)
 179              		.loc 1 78 3 is_stmt 1 view .LVU74
 180              		.loc 1 78 7 is_stmt 0 view .LVU75
 181 00ac 01A9     		add	r1, sp, #4
 182 00ae 1E48     		ldr	r0, .L7+4
 183 00b0 FFF7FEFF 		bl	HAL_LTDC_ConfigLayer
 184              	.LVL2:
 185              		.loc 1 78 6 view .LVU76
 186 00b4 90BB     		cbnz	r0, .L6
 187              	.L3:
  79:Core/Src/ltdc.c ****   {
  80:Core/Src/ltdc.c ****     Error_Handler();
  81:Core/Src/ltdc.c ****   }
  82:Core/Src/ltdc.c ****   /* USER CODE BEGIN LTDC_Init 2 */
  83:Core/Src/ltdc.c ****   HAL_LTDC_EnableDither(&hltdc);           // é”???éšîˆžî–é‘¹å‰å§ˆé”???
 188              		.loc 1 83 3 is_stmt 1 view .LVU77
 189 00b6 1C4C     		ldr	r4, .L7+4
 190 00b8 2046     		mov	r0, r4
 191 00ba FFF7FEFF 		bl	HAL_LTDC_EnableDither
 192              	.LVL3:
  84:Core/Src/ltdc.c ****   HAL_LTDC_ProgramLineEvent(&hltdc, 0);    // ç’å‰§ç–†ç›å±¼è…‘é‚î…¨ç´é”Ÿ??0é”???
 193              		.loc 1 84 3 view .LVU78
 194 00be 0021     		movs	r1, #0
 195 00c0 2046     		mov	r0, r4
 196 00c2 FFF7FEFF 		bl	HAL_LTDC_ProgramLineEvent
 197              	.LVL4:
  85:Core/Src/ltdc.c ****   HAL_NVIC_SetPriority(LTDC_IRQn, 0xE, 0); // ç’å‰§ç–†æµ¼æ¨ºåŽ›é”???
 198              		.loc 1 85 3 view .LVU79
 199 00c6 0022     		movs	r2, #0
 200 00c8 0E21     		movs	r1, #14
 201 00ca 5820     		movs	r0, #88
ARM GAS  C:\Users\OSD\AppData\Local\Temp\ccCvZYMl.s 			page 6


 202 00cc FFF7FEFF 		bl	HAL_NVIC_SetPriority
 203              	.LVL5:
  86:Core/Src/ltdc.c ****   HAL_NVIC_EnableIRQ(LTDC_IRQn);
 204              		.loc 1 86 3 view .LVU80
 205 00d0 5820     		movs	r0, #88
 206 00d2 FFF7FEFF 		bl	HAL_NVIC_EnableIRQ
 207              	.LVL6:
  87:Core/Src/ltdc.c **** 
  88:Core/Src/ltdc.c ****   	LCD_DisplayDirection(Direction_H); 	//	ç’å‰§ç–†å¦¯î„ç†é„å‰§ã?
 208              		.loc 1 88 4 view .LVU81
 209 00d6 0020     		movs	r0, #0
 210 00d8 FFF7FEFF 		bl	LCD_DisplayDirection
 211              	.LVL7:
  89:Core/Src/ltdc.c **** 	LCD_SetFont(&Font24); 				 	//	ç’å‰§ç–†æ¦›æ¨¿î…»ç€›æ¤¾ç¶?	
 212              		.loc 1 89 2 view .LVU82
 213 00dc 1448     		ldr	r0, .L7+12
 214 00de FFF7FEFF 		bl	LCD_SetFont
 215              	.LVL8:
  90:Core/Src/ltdc.c **** 	LCD_ShowNumMode(Fill_Space);			//	ç’å‰§ç–†éæ¿ç“§é„å‰§ãšæ¦›æ¨¿î…»æ¿‰î‚¢åŽ–ç»Œçƒ˜ç‰¸
 216              		.loc 1 90 2 view .LVU83
 217 00e2 0120     		movs	r0, #1
 218 00e4 FFF7FEFF 		bl	LCD_ShowNumMode
 219              	.LVL9:
  91:Core/Src/ltdc.c **** 	
  92:Core/Src/ltdc.c **** 	LCD_SetLayer(0);  						// é’å›¨å´²é”Ÿ?? layer0
 220              		.loc 1 92 2 view .LVU84
 221 00e8 0020     		movs	r0, #0
 222 00ea FFF7FEFF 		bl	LCD_SetLayer
 223              	.LVL10:
  93:Core/Src/ltdc.c **** 	LCD_SetBackColor(LCD_YELLOW); 			//	ç’å‰§ç–†é‘³å±¾æ«™é”???
 224              		.loc 1 93 2 view .LVU85
 225 00ee 6FF0FF00 		mvn	r0, #255
 226 00f2 FFF7FEFF 		bl	LCD_SetBackColor
 227              	.LVL11:
  94:Core/Src/ltdc.c **** 	LCD_SetColor(LCD_WHITE);				//	ç’å‰§ç–†é¢è¤ç‘ªæ£°æ»†å£?
 228              		.loc 1 94 2 view .LVU86
 229 00f6 4FF0FF30 		mov	r0, #-1
 230 00fa FFF7FEFF 		bl	LCD_SetColor
 231              	.LVL12:
  95:Core/Src/ltdc.c **** 	LCD_Clear(); 								//	å¨“å‘­ç†é”›å±½åŸ›é‘³å±¾æ«™é”Ÿ??
 232              		.loc 1 95 2 view .LVU87
 233 00fe FFF7FEFF 		bl	LCD_Clear
 234              	.LVL13:
  96:Core/Src/ltdc.c **** 
  97:Core/Src/ltdc.c ****   HAL_Delay(100);
 235              		.loc 1 97 3 view .LVU88
 236 0102 6420     		movs	r0, #100
 237 0104 FFF7FEFF 		bl	HAL_Delay
 238              	.LVL14:
  98:Core/Src/ltdc.c ****   HAL_GPIO_WritePin(LCD_BL_GPIO_Port, LCD_BL_Pin, SET);
 239              		.loc 1 98 3 view .LVU89
 240 0108 0122     		movs	r2, #1
 241 010a 4021     		movs	r1, #64
 242 010c 0948     		ldr	r0, .L7+16
 243 010e FFF7FEFF 		bl	HAL_GPIO_WritePin
 244              	.LVL15:
  99:Core/Src/ltdc.c **** 
ARM GAS  C:\Users\OSD\AppData\Local\Temp\ccCvZYMl.s 			page 7


 100:Core/Src/ltdc.c ****   /* USER CODE END LTDC_Init 2 */
 101:Core/Src/ltdc.c **** 
 102:Core/Src/ltdc.c **** }
 245              		.loc 1 102 1 is_stmt 0 view .LVU90
 246 0112 0EB0     		add	sp, sp, #56
 247              		.cfi_remember_state
 248              		.cfi_def_cfa_offset 8
 249              		@ sp needed
 250 0114 10BD     		pop	{r4, pc}
 251              	.L5:
 252              		.cfi_restore_state
  61:Core/Src/ltdc.c ****   }
 253              		.loc 1 61 5 is_stmt 1 view .LVU91
 254 0116 FFF7FEFF 		bl	Error_Handler
 255              	.LVL16:
 256 011a AAE7     		b	.L2
 257              	.L6:
  80:Core/Src/ltdc.c ****   }
 258              		.loc 1 80 5 view .LVU92
 259 011c FFF7FEFF 		bl	Error_Handler
 260              	.LVL17:
 261 0120 C9E7     		b	.L3
 262              	.L8:
 263 0122 00BF     		.align	2
 264              	.L7:
 265 0124 00440258 		.word	1476543488
 266 0128 00000000 		.word	.LANCHOR0
 267 012c 00100050 		.word	1342181376
 268 0130 00000000 		.word	Font24
 269 0134 001C0258 		.word	1476533248
 270              		.cfi_endproc
 271              	.LFE147:
 273              		.section	.text.HAL_LTDC_MspInit,"ax",%progbits
 274              		.align	1
 275              		.global	HAL_LTDC_MspInit
 276              		.syntax unified
 277              		.thumb
 278              		.thumb_func
 280              	HAL_LTDC_MspInit:
 281              	.LVL18:
 282              	.LFB148:
 103:Core/Src/ltdc.c **** 
 104:Core/Src/ltdc.c **** void HAL_LTDC_MspInit(LTDC_HandleTypeDef* ltdcHandle)
 105:Core/Src/ltdc.c **** {
 283              		.loc 1 105 1 view -0
 284              		.cfi_startproc
 285              		@ args = 0, pretend = 0, frame = 248
 286              		@ frame_needed = 0, uses_anonymous_args = 0
 287              		.loc 1 105 1 is_stmt 0 view .LVU94
 288 0000 2DE9F041 		push	{r4, r5, r6, r7, r8, lr}
 289              		.cfi_def_cfa_offset 24
 290              		.cfi_offset 4, -24
 291              		.cfi_offset 5, -20
 292              		.cfi_offset 6, -16
 293              		.cfi_offset 7, -12
 294              		.cfi_offset 8, -8
 295              		.cfi_offset 14, -4
ARM GAS  C:\Users\OSD\AppData\Local\Temp\ccCvZYMl.s 			page 8


 296 0004 BEB0     		sub	sp, sp, #248
 297              		.cfi_def_cfa_offset 272
 298 0006 0446     		mov	r4, r0
 106:Core/Src/ltdc.c **** 
 107:Core/Src/ltdc.c ****   GPIO_InitTypeDef GPIO_InitStruct = {0};
 299              		.loc 1 107 3 is_stmt 1 view .LVU95
 300              		.loc 1 107 20 is_stmt 0 view .LVU96
 301 0008 0021     		movs	r1, #0
 302 000a 3991     		str	r1, [sp, #228]
 303 000c 3A91     		str	r1, [sp, #232]
 304 000e 3B91     		str	r1, [sp, #236]
 305 0010 3C91     		str	r1, [sp, #240]
 306 0012 3D91     		str	r1, [sp, #244]
 108:Core/Src/ltdc.c ****   RCC_PeriphCLKInitTypeDef PeriphClkInitStruct = {0};
 307              		.loc 1 108 3 is_stmt 1 view .LVU97
 308              		.loc 1 108 28 is_stmt 0 view .LVU98
 309 0014 C022     		movs	r2, #192
 310 0016 08A8     		add	r0, sp, #32
 311              	.LVL19:
 312              		.loc 1 108 28 view .LVU99
 313 0018 FFF7FEFF 		bl	memset
 314              	.LVL20:
 109:Core/Src/ltdc.c ****   if(ltdcHandle->Instance==LTDC)
 315              		.loc 1 109 3 is_stmt 1 view .LVU100
 316              		.loc 1 109 16 is_stmt 0 view .LVU101
 317 001c 2268     		ldr	r2, [r4]
 318              		.loc 1 109 5 view .LVU102
 319 001e 774B     		ldr	r3, .L15
 320 0020 9A42     		cmp	r2, r3
 321 0022 02D0     		beq	.L13
 322              	.LVL21:
 323              	.L9:
 110:Core/Src/ltdc.c ****   {
 111:Core/Src/ltdc.c ****   /* USER CODE BEGIN LTDC_MspInit 0 */
 112:Core/Src/ltdc.c **** 
 113:Core/Src/ltdc.c ****   /* USER CODE END LTDC_MspInit 0 */
 114:Core/Src/ltdc.c **** 
 115:Core/Src/ltdc.c ****   /** Initializes the peripherals clock
 116:Core/Src/ltdc.c ****   */
 117:Core/Src/ltdc.c ****     PeriphClkInitStruct.PeriphClockSelection = RCC_PERIPHCLK_LTDC;
 118:Core/Src/ltdc.c ****     PeriphClkInitStruct.PLL3.PLL3M = 5;
 119:Core/Src/ltdc.c ****     PeriphClkInitStruct.PLL3.PLL3N = 100;
 120:Core/Src/ltdc.c ****     PeriphClkInitStruct.PLL3.PLL3P = 2;
 121:Core/Src/ltdc.c ****     PeriphClkInitStruct.PLL3.PLL3Q = 2;
 122:Core/Src/ltdc.c ****     PeriphClkInitStruct.PLL3.PLL3R = 25;
 123:Core/Src/ltdc.c ****     PeriphClkInitStruct.PLL3.PLL3RGE = RCC_PLL3VCIRANGE_2;
 124:Core/Src/ltdc.c ****     PeriphClkInitStruct.PLL3.PLL3VCOSEL = RCC_PLL3VCOWIDE;
 125:Core/Src/ltdc.c ****     PeriphClkInitStruct.PLL3.PLL3FRACN = 0;
 126:Core/Src/ltdc.c ****     if (HAL_RCCEx_PeriphCLKConfig(&PeriphClkInitStruct) != HAL_OK)
 127:Core/Src/ltdc.c ****     {
 128:Core/Src/ltdc.c ****       Error_Handler();
 129:Core/Src/ltdc.c ****     }
 130:Core/Src/ltdc.c **** 
 131:Core/Src/ltdc.c ****     /* LTDC clock enable */
 132:Core/Src/ltdc.c ****     __HAL_RCC_LTDC_CLK_ENABLE();
 133:Core/Src/ltdc.c **** 
 134:Core/Src/ltdc.c ****     __HAL_RCC_GPIOE_CLK_ENABLE();
ARM GAS  C:\Users\OSD\AppData\Local\Temp\ccCvZYMl.s 			page 9


 135:Core/Src/ltdc.c ****     __HAL_RCC_GPIOI_CLK_ENABLE();
 136:Core/Src/ltdc.c ****     __HAL_RCC_GPIOF_CLK_ENABLE();
 137:Core/Src/ltdc.c ****     __HAL_RCC_GPIOA_CLK_ENABLE();
 138:Core/Src/ltdc.c ****     __HAL_RCC_GPIOH_CLK_ENABLE();
 139:Core/Src/ltdc.c ****     __HAL_RCC_GPIOG_CLK_ENABLE();
 140:Core/Src/ltdc.c ****     __HAL_RCC_GPIOD_CLK_ENABLE();
 141:Core/Src/ltdc.c ****     /**LTDC GPIO Configuration
 142:Core/Src/ltdc.c ****     PE5     ------> LTDC_G0
 143:Core/Src/ltdc.c ****     PE6     ------> LTDC_G1
 144:Core/Src/ltdc.c ****     PI9     ------> LTDC_VSYNC
 145:Core/Src/ltdc.c ****     PI10     ------> LTDC_HSYNC
 146:Core/Src/ltdc.c ****     PF10     ------> LTDC_DE
 147:Core/Src/ltdc.c ****     PA2     ------> LTDC_R1
 148:Core/Src/ltdc.c ****     PH8     ------> LTDC_R2
 149:Core/Src/ltdc.c ****     PH9     ------> LTDC_R3
 150:Core/Src/ltdc.c ****     PH10     ------> LTDC_R4
 151:Core/Src/ltdc.c ****     PH11     ------> LTDC_R5
 152:Core/Src/ltdc.c ****     PH12     ------> LTDC_R6
 153:Core/Src/ltdc.c ****     PG6     ------> LTDC_R7
 154:Core/Src/ltdc.c ****     PG7     ------> LTDC_CLK
 155:Core/Src/ltdc.c ****     PA8     ------> LTDC_B3
 156:Core/Src/ltdc.c ****     PH13     ------> LTDC_G2
 157:Core/Src/ltdc.c ****     PH14     ------> LTDC_G3
 158:Core/Src/ltdc.c ****     PH15     ------> LTDC_G4
 159:Core/Src/ltdc.c ****     PI0     ------> LTDC_G5
 160:Core/Src/ltdc.c ****     PI1     ------> LTDC_G6
 161:Core/Src/ltdc.c ****     PI2     ------> LTDC_G7
 162:Core/Src/ltdc.c ****     PD6     ------> LTDC_B2
 163:Core/Src/ltdc.c ****     PG12     ------> LTDC_B1
 164:Core/Src/ltdc.c ****     PG13     ------> LTDC_R0
 165:Core/Src/ltdc.c ****     PG14     ------> LTDC_B0
 166:Core/Src/ltdc.c ****     PI4     ------> LTDC_B4
 167:Core/Src/ltdc.c ****     PI5     ------> LTDC_B5
 168:Core/Src/ltdc.c ****     PI6     ------> LTDC_B6
 169:Core/Src/ltdc.c ****     PI7     ------> LTDC_B7
 170:Core/Src/ltdc.c ****     */
 171:Core/Src/ltdc.c ****     GPIO_InitStruct.Pin = GPIO_PIN_5|GPIO_PIN_6;
 172:Core/Src/ltdc.c ****     GPIO_InitStruct.Mode = GPIO_MODE_AF_PP;
 173:Core/Src/ltdc.c ****     GPIO_InitStruct.Pull = GPIO_NOPULL;
 174:Core/Src/ltdc.c ****     GPIO_InitStruct.Speed = GPIO_SPEED_FREQ_VERY_HIGH;
 175:Core/Src/ltdc.c ****     GPIO_InitStruct.Alternate = GPIO_AF14_LTDC;
 176:Core/Src/ltdc.c ****     HAL_GPIO_Init(GPIOE, &GPIO_InitStruct);
 177:Core/Src/ltdc.c **** 
 178:Core/Src/ltdc.c ****     GPIO_InitStruct.Pin = GPIO_PIN_9|GPIO_PIN_10|GPIO_PIN_0|GPIO_PIN_1
 179:Core/Src/ltdc.c ****                           |GPIO_PIN_2|GPIO_PIN_4|GPIO_PIN_5|GPIO_PIN_6
 180:Core/Src/ltdc.c ****                           |GPIO_PIN_7;
 181:Core/Src/ltdc.c ****     GPIO_InitStruct.Mode = GPIO_MODE_AF_PP;
 182:Core/Src/ltdc.c ****     GPIO_InitStruct.Pull = GPIO_NOPULL;
 183:Core/Src/ltdc.c ****     GPIO_InitStruct.Speed = GPIO_SPEED_FREQ_VERY_HIGH;
 184:Core/Src/ltdc.c ****     GPIO_InitStruct.Alternate = GPIO_AF14_LTDC;
 185:Core/Src/ltdc.c ****     HAL_GPIO_Init(GPIOI, &GPIO_InitStruct);
 186:Core/Src/ltdc.c **** 
 187:Core/Src/ltdc.c ****     GPIO_InitStruct.Pin = GPIO_PIN_10;
 188:Core/Src/ltdc.c ****     GPIO_InitStruct.Mode = GPIO_MODE_AF_PP;
 189:Core/Src/ltdc.c ****     GPIO_InitStruct.Pull = GPIO_NOPULL;
 190:Core/Src/ltdc.c ****     GPIO_InitStruct.Speed = GPIO_SPEED_FREQ_VERY_HIGH;
 191:Core/Src/ltdc.c ****     GPIO_InitStruct.Alternate = GPIO_AF14_LTDC;
ARM GAS  C:\Users\OSD\AppData\Local\Temp\ccCvZYMl.s 			page 10


 192:Core/Src/ltdc.c ****     HAL_GPIO_Init(GPIOF, &GPIO_InitStruct);
 193:Core/Src/ltdc.c **** 
 194:Core/Src/ltdc.c ****     GPIO_InitStruct.Pin = GPIO_PIN_2;
 195:Core/Src/ltdc.c ****     GPIO_InitStruct.Mode = GPIO_MODE_AF_PP;
 196:Core/Src/ltdc.c ****     GPIO_InitStruct.Pull = GPIO_NOPULL;
 197:Core/Src/ltdc.c ****     GPIO_InitStruct.Speed = GPIO_SPEED_FREQ_VERY_HIGH;
 198:Core/Src/ltdc.c ****     GPIO_InitStruct.Alternate = GPIO_AF14_LTDC;
 199:Core/Src/ltdc.c ****     HAL_GPIO_Init(GPIOA, &GPIO_InitStruct);
 200:Core/Src/ltdc.c **** 
 201:Core/Src/ltdc.c ****     GPIO_InitStruct.Pin = GPIO_PIN_8|GPIO_PIN_9|GPIO_PIN_10|GPIO_PIN_11
 202:Core/Src/ltdc.c ****                           |GPIO_PIN_12|GPIO_PIN_13|GPIO_PIN_14|GPIO_PIN_15;
 203:Core/Src/ltdc.c ****     GPIO_InitStruct.Mode = GPIO_MODE_AF_PP;
 204:Core/Src/ltdc.c ****     GPIO_InitStruct.Pull = GPIO_NOPULL;
 205:Core/Src/ltdc.c ****     GPIO_InitStruct.Speed = GPIO_SPEED_FREQ_VERY_HIGH;
 206:Core/Src/ltdc.c ****     GPIO_InitStruct.Alternate = GPIO_AF14_LTDC;
 207:Core/Src/ltdc.c ****     HAL_GPIO_Init(GPIOH, &GPIO_InitStruct);
 208:Core/Src/ltdc.c **** 
 209:Core/Src/ltdc.c ****     GPIO_InitStruct.Pin = GPIO_PIN_6|GPIO_PIN_7|GPIO_PIN_12|GPIO_PIN_13
 210:Core/Src/ltdc.c ****                           |GPIO_PIN_14;
 211:Core/Src/ltdc.c ****     GPIO_InitStruct.Mode = GPIO_MODE_AF_PP;
 212:Core/Src/ltdc.c ****     GPIO_InitStruct.Pull = GPIO_NOPULL;
 213:Core/Src/ltdc.c ****     GPIO_InitStruct.Speed = GPIO_SPEED_FREQ_VERY_HIGH;
 214:Core/Src/ltdc.c ****     GPIO_InitStruct.Alternate = GPIO_AF14_LTDC;
 215:Core/Src/ltdc.c ****     HAL_GPIO_Init(GPIOG, &GPIO_InitStruct);
 216:Core/Src/ltdc.c **** 
 217:Core/Src/ltdc.c ****     GPIO_InitStruct.Pin = GPIO_PIN_8;
 218:Core/Src/ltdc.c ****     GPIO_InitStruct.Mode = GPIO_MODE_AF_PP;
 219:Core/Src/ltdc.c ****     GPIO_InitStruct.Pull = GPIO_NOPULL;
 220:Core/Src/ltdc.c ****     GPIO_InitStruct.Speed = GPIO_SPEED_FREQ_VERY_HIGH;
 221:Core/Src/ltdc.c ****     GPIO_InitStruct.Alternate = GPIO_AF13_LTDC;
 222:Core/Src/ltdc.c ****     HAL_GPIO_Init(GPIOA, &GPIO_InitStruct);
 223:Core/Src/ltdc.c **** 
 224:Core/Src/ltdc.c ****     GPIO_InitStruct.Pin = GPIO_PIN_6;
 225:Core/Src/ltdc.c ****     GPIO_InitStruct.Mode = GPIO_MODE_AF_PP;
 226:Core/Src/ltdc.c ****     GPIO_InitStruct.Pull = GPIO_NOPULL;
 227:Core/Src/ltdc.c ****     GPIO_InitStruct.Speed = GPIO_SPEED_FREQ_VERY_HIGH;
 228:Core/Src/ltdc.c ****     GPIO_InitStruct.Alternate = GPIO_AF14_LTDC;
 229:Core/Src/ltdc.c ****     HAL_GPIO_Init(GPIOD, &GPIO_InitStruct);
 230:Core/Src/ltdc.c **** 
 231:Core/Src/ltdc.c ****     /* LTDC interrupt Init */
 232:Core/Src/ltdc.c ****     HAL_NVIC_SetPriority(LTDC_IRQn, 0, 0);
 233:Core/Src/ltdc.c ****     HAL_NVIC_EnableIRQ(LTDC_IRQn);
 234:Core/Src/ltdc.c ****     HAL_NVIC_SetPriority(LTDC_ER_IRQn, 0, 0);
 235:Core/Src/ltdc.c ****     HAL_NVIC_EnableIRQ(LTDC_ER_IRQn);
 236:Core/Src/ltdc.c ****   /* USER CODE BEGIN LTDC_MspInit 1 */
 237:Core/Src/ltdc.c **** 
 238:Core/Src/ltdc.c ****   /* USER CODE END LTDC_MspInit 1 */
 239:Core/Src/ltdc.c ****   }
 240:Core/Src/ltdc.c **** }
 324              		.loc 1 240 1 view .LVU103
 325 0024 3EB0     		add	sp, sp, #248
 326              		.cfi_remember_state
 327              		.cfi_def_cfa_offset 24
 328              		@ sp needed
 329 0026 BDE8F081 		pop	{r4, r5, r6, r7, r8, pc}
 330              	.LVL22:
 331              	.L13:
ARM GAS  C:\Users\OSD\AppData\Local\Temp\ccCvZYMl.s 			page 11


 332              		.cfi_restore_state
 117:Core/Src/ltdc.c ****     PeriphClkInitStruct.PLL3.PLL3M = 5;
 333              		.loc 1 117 5 is_stmt 1 view .LVU104
 117:Core/Src/ltdc.c ****     PeriphClkInitStruct.PLL3.PLL3M = 5;
 334              		.loc 1 117 46 is_stmt 0 view .LVU105
 335 002a 4FF00052 		mov	r2, #536870912
 336 002e 0023     		movs	r3, #0
 337 0030 CDE90823 		strd	r2, [sp, #32]
 118:Core/Src/ltdc.c ****     PeriphClkInitStruct.PLL3.PLL3N = 100;
 338              		.loc 1 118 5 is_stmt 1 view .LVU106
 118:Core/Src/ltdc.c ****     PeriphClkInitStruct.PLL3.PLL3N = 100;
 339              		.loc 1 118 36 is_stmt 0 view .LVU107
 340 0034 0523     		movs	r3, #5
 341 0036 1293     		str	r3, [sp, #72]
 119:Core/Src/ltdc.c ****     PeriphClkInitStruct.PLL3.PLL3P = 2;
 342              		.loc 1 119 5 is_stmt 1 view .LVU108
 119:Core/Src/ltdc.c ****     PeriphClkInitStruct.PLL3.PLL3P = 2;
 343              		.loc 1 119 36 is_stmt 0 view .LVU109
 344 0038 6423     		movs	r3, #100
 345 003a 1393     		str	r3, [sp, #76]
 120:Core/Src/ltdc.c ****     PeriphClkInitStruct.PLL3.PLL3Q = 2;
 346              		.loc 1 120 5 is_stmt 1 view .LVU110
 120:Core/Src/ltdc.c ****     PeriphClkInitStruct.PLL3.PLL3Q = 2;
 347              		.loc 1 120 36 is_stmt 0 view .LVU111
 348 003c 0223     		movs	r3, #2
 349 003e 1493     		str	r3, [sp, #80]
 121:Core/Src/ltdc.c ****     PeriphClkInitStruct.PLL3.PLL3R = 25;
 350              		.loc 1 121 5 is_stmt 1 view .LVU112
 121:Core/Src/ltdc.c ****     PeriphClkInitStruct.PLL3.PLL3R = 25;
 351              		.loc 1 121 36 is_stmt 0 view .LVU113
 352 0040 1593     		str	r3, [sp, #84]
 122:Core/Src/ltdc.c ****     PeriphClkInitStruct.PLL3.PLL3RGE = RCC_PLL3VCIRANGE_2;
 353              		.loc 1 122 5 is_stmt 1 view .LVU114
 122:Core/Src/ltdc.c ****     PeriphClkInitStruct.PLL3.PLL3RGE = RCC_PLL3VCIRANGE_2;
 354              		.loc 1 122 36 is_stmt 0 view .LVU115
 355 0042 1923     		movs	r3, #25
 356 0044 1693     		str	r3, [sp, #88]
 123:Core/Src/ltdc.c ****     PeriphClkInitStruct.PLL3.PLL3VCOSEL = RCC_PLL3VCOWIDE;
 357              		.loc 1 123 5 is_stmt 1 view .LVU116
 123:Core/Src/ltdc.c ****     PeriphClkInitStruct.PLL3.PLL3VCOSEL = RCC_PLL3VCOWIDE;
 358              		.loc 1 123 38 is_stmt 0 view .LVU117
 359 0046 4FF40063 		mov	r3, #2048
 360 004a 1793     		str	r3, [sp, #92]
 124:Core/Src/ltdc.c ****     PeriphClkInitStruct.PLL3.PLL3FRACN = 0;
 361              		.loc 1 124 5 is_stmt 1 view .LVU118
 125:Core/Src/ltdc.c ****     if (HAL_RCCEx_PeriphCLKConfig(&PeriphClkInitStruct) != HAL_OK)
 362              		.loc 1 125 5 view .LVU119
 126:Core/Src/ltdc.c ****     {
 363              		.loc 1 126 5 view .LVU120
 126:Core/Src/ltdc.c ****     {
 364              		.loc 1 126 9 is_stmt 0 view .LVU121
 365 004c 08A8     		add	r0, sp, #32
 366 004e FFF7FEFF 		bl	HAL_RCCEx_PeriphCLKConfig
 367              	.LVL23:
 126:Core/Src/ltdc.c ****     {
 368              		.loc 1 126 8 view .LVU122
 369 0052 0028     		cmp	r0, #0
ARM GAS  C:\Users\OSD\AppData\Local\Temp\ccCvZYMl.s 			page 12


 370 0054 40F0CE80 		bne	.L14
 371              	.L11:
 132:Core/Src/ltdc.c **** 
 372              		.loc 1 132 5 is_stmt 1 view .LVU123
 373              	.LBB3:
 132:Core/Src/ltdc.c **** 
 374              		.loc 1 132 5 view .LVU124
 132:Core/Src/ltdc.c **** 
 375              		.loc 1 132 5 view .LVU125
 376 0058 694B     		ldr	r3, .L15+4
 377 005a D3F8E420 		ldr	r2, [r3, #228]
 378 005e 42F00802 		orr	r2, r2, #8
 379 0062 C3F8E420 		str	r2, [r3, #228]
 132:Core/Src/ltdc.c **** 
 380              		.loc 1 132 5 view .LVU126
 381 0066 D3F8E420 		ldr	r2, [r3, #228]
 382 006a 02F00802 		and	r2, r2, #8
 383 006e 0092     		str	r2, [sp]
 132:Core/Src/ltdc.c **** 
 384              		.loc 1 132 5 view .LVU127
 385 0070 009A     		ldr	r2, [sp]
 386              	.LBE3:
 132:Core/Src/ltdc.c **** 
 387              		.loc 1 132 5 view .LVU128
 134:Core/Src/ltdc.c ****     __HAL_RCC_GPIOI_CLK_ENABLE();
 388              		.loc 1 134 5 view .LVU129
 389              	.LBB4:
 134:Core/Src/ltdc.c ****     __HAL_RCC_GPIOI_CLK_ENABLE();
 390              		.loc 1 134 5 view .LVU130
 134:Core/Src/ltdc.c ****     __HAL_RCC_GPIOI_CLK_ENABLE();
 391              		.loc 1 134 5 view .LVU131
 392 0072 D3F8E020 		ldr	r2, [r3, #224]
 393 0076 42F01002 		orr	r2, r2, #16
 394 007a C3F8E020 		str	r2, [r3, #224]
 134:Core/Src/ltdc.c ****     __HAL_RCC_GPIOI_CLK_ENABLE();
 395              		.loc 1 134 5 view .LVU132
 396 007e D3F8E020 		ldr	r2, [r3, #224]
 397 0082 02F01002 		and	r2, r2, #16
 398 0086 0192     		str	r2, [sp, #4]
 134:Core/Src/ltdc.c ****     __HAL_RCC_GPIOI_CLK_ENABLE();
 399              		.loc 1 134 5 view .LVU133
 400 0088 019A     		ldr	r2, [sp, #4]
 401              	.LBE4:
 134:Core/Src/ltdc.c ****     __HAL_RCC_GPIOI_CLK_ENABLE();
 402              		.loc 1 134 5 view .LVU134
 135:Core/Src/ltdc.c ****     __HAL_RCC_GPIOF_CLK_ENABLE();
 403              		.loc 1 135 5 view .LVU135
 404              	.LBB5:
 135:Core/Src/ltdc.c ****     __HAL_RCC_GPIOF_CLK_ENABLE();
 405              		.loc 1 135 5 view .LVU136
 135:Core/Src/ltdc.c ****     __HAL_RCC_GPIOF_CLK_ENABLE();
 406              		.loc 1 135 5 view .LVU137
 407 008a D3F8E020 		ldr	r2, [r3, #224]
 408 008e 42F48072 		orr	r2, r2, #256
 409 0092 C3F8E020 		str	r2, [r3, #224]
 135:Core/Src/ltdc.c ****     __HAL_RCC_GPIOF_CLK_ENABLE();
 410              		.loc 1 135 5 view .LVU138
ARM GAS  C:\Users\OSD\AppData\Local\Temp\ccCvZYMl.s 			page 13


 411 0096 D3F8E020 		ldr	r2, [r3, #224]
 412 009a 02F48072 		and	r2, r2, #256
 413 009e 0292     		str	r2, [sp, #8]
 135:Core/Src/ltdc.c ****     __HAL_RCC_GPIOF_CLK_ENABLE();
 414              		.loc 1 135 5 view .LVU139
 415 00a0 029A     		ldr	r2, [sp, #8]
 416              	.LBE5:
 135:Core/Src/ltdc.c ****     __HAL_RCC_GPIOF_CLK_ENABLE();
 417              		.loc 1 135 5 view .LVU140
 136:Core/Src/ltdc.c ****     __HAL_RCC_GPIOA_CLK_ENABLE();
 418              		.loc 1 136 5 view .LVU141
 419              	.LBB6:
 136:Core/Src/ltdc.c ****     __HAL_RCC_GPIOA_CLK_ENABLE();
 420              		.loc 1 136 5 view .LVU142
 136:Core/Src/ltdc.c ****     __HAL_RCC_GPIOA_CLK_ENABLE();
 421              		.loc 1 136 5 view .LVU143
 422 00a2 D3F8E020 		ldr	r2, [r3, #224]
 423 00a6 42F02002 		orr	r2, r2, #32
 424 00aa C3F8E020 		str	r2, [r3, #224]
 136:Core/Src/ltdc.c ****     __HAL_RCC_GPIOA_CLK_ENABLE();
 425              		.loc 1 136 5 view .LVU144
 426 00ae D3F8E020 		ldr	r2, [r3, #224]
 427 00b2 02F02002 		and	r2, r2, #32
 428 00b6 0392     		str	r2, [sp, #12]
 136:Core/Src/ltdc.c ****     __HAL_RCC_GPIOA_CLK_ENABLE();
 429              		.loc 1 136 5 view .LVU145
 430 00b8 039A     		ldr	r2, [sp, #12]
 431              	.LBE6:
 136:Core/Src/ltdc.c ****     __HAL_RCC_GPIOA_CLK_ENABLE();
 432              		.loc 1 136 5 view .LVU146
 137:Core/Src/ltdc.c ****     __HAL_RCC_GPIOH_CLK_ENABLE();
 433              		.loc 1 137 5 view .LVU147
 434              	.LBB7:
 137:Core/Src/ltdc.c ****     __HAL_RCC_GPIOH_CLK_ENABLE();
 435              		.loc 1 137 5 view .LVU148
 137:Core/Src/ltdc.c ****     __HAL_RCC_GPIOH_CLK_ENABLE();
 436              		.loc 1 137 5 view .LVU149
 437 00ba D3F8E020 		ldr	r2, [r3, #224]
 438 00be 42F00102 		orr	r2, r2, #1
 439 00c2 C3F8E020 		str	r2, [r3, #224]
 137:Core/Src/ltdc.c ****     __HAL_RCC_GPIOH_CLK_ENABLE();
 440              		.loc 1 137 5 view .LVU150
 441 00c6 D3F8E020 		ldr	r2, [r3, #224]
 442 00ca 02F00102 		and	r2, r2, #1
 443 00ce 0492     		str	r2, [sp, #16]
 137:Core/Src/ltdc.c ****     __HAL_RCC_GPIOH_CLK_ENABLE();
 444              		.loc 1 137 5 view .LVU151
 445 00d0 049A     		ldr	r2, [sp, #16]
 446              	.LBE7:
 137:Core/Src/ltdc.c ****     __HAL_RCC_GPIOH_CLK_ENABLE();
 447              		.loc 1 137 5 view .LVU152
 138:Core/Src/ltdc.c ****     __HAL_RCC_GPIOG_CLK_ENABLE();
 448              		.loc 1 138 5 view .LVU153
 449              	.LBB8:
 138:Core/Src/ltdc.c ****     __HAL_RCC_GPIOG_CLK_ENABLE();
 450              		.loc 1 138 5 view .LVU154
 138:Core/Src/ltdc.c ****     __HAL_RCC_GPIOG_CLK_ENABLE();
ARM GAS  C:\Users\OSD\AppData\Local\Temp\ccCvZYMl.s 			page 14


 451              		.loc 1 138 5 view .LVU155
 452 00d2 D3F8E020 		ldr	r2, [r3, #224]
 453 00d6 42F08002 		orr	r2, r2, #128
 454 00da C3F8E020 		str	r2, [r3, #224]
 138:Core/Src/ltdc.c ****     __HAL_RCC_GPIOG_CLK_ENABLE();
 455              		.loc 1 138 5 view .LVU156
 456 00de D3F8E020 		ldr	r2, [r3, #224]
 457 00e2 02F08002 		and	r2, r2, #128
 458 00e6 0592     		str	r2, [sp, #20]
 138:Core/Src/ltdc.c ****     __HAL_RCC_GPIOG_CLK_ENABLE();
 459              		.loc 1 138 5 view .LVU157
 460 00e8 059A     		ldr	r2, [sp, #20]
 461              	.LBE8:
 138:Core/Src/ltdc.c ****     __HAL_RCC_GPIOG_CLK_ENABLE();
 462              		.loc 1 138 5 view .LVU158
 139:Core/Src/ltdc.c ****     __HAL_RCC_GPIOD_CLK_ENABLE();
 463              		.loc 1 139 5 view .LVU159
 464              	.LBB9:
 139:Core/Src/ltdc.c ****     __HAL_RCC_GPIOD_CLK_ENABLE();
 465              		.loc 1 139 5 view .LVU160
 139:Core/Src/ltdc.c ****     __HAL_RCC_GPIOD_CLK_ENABLE();
 466              		.loc 1 139 5 view .LVU161
 467 00ea D3F8E020 		ldr	r2, [r3, #224]
 468 00ee 42F04002 		orr	r2, r2, #64
 469 00f2 C3F8E020 		str	r2, [r3, #224]
 139:Core/Src/ltdc.c ****     __HAL_RCC_GPIOD_CLK_ENABLE();
 470              		.loc 1 139 5 view .LVU162
 471 00f6 D3F8E020 		ldr	r2, [r3, #224]
 472 00fa 02F04002 		and	r2, r2, #64
 473 00fe 0692     		str	r2, [sp, #24]
 139:Core/Src/ltdc.c ****     __HAL_RCC_GPIOD_CLK_ENABLE();
 474              		.loc 1 139 5 view .LVU163
 475 0100 069A     		ldr	r2, [sp, #24]
 476              	.LBE9:
 139:Core/Src/ltdc.c ****     __HAL_RCC_GPIOD_CLK_ENABLE();
 477              		.loc 1 139 5 view .LVU164
 140:Core/Src/ltdc.c ****     /**LTDC GPIO Configuration
 478              		.loc 1 140 5 view .LVU165
 479              	.LBB10:
 140:Core/Src/ltdc.c ****     /**LTDC GPIO Configuration
 480              		.loc 1 140 5 view .LVU166
 140:Core/Src/ltdc.c ****     /**LTDC GPIO Configuration
 481              		.loc 1 140 5 view .LVU167
 482 0102 D3F8E020 		ldr	r2, [r3, #224]
 483 0106 42F00802 		orr	r2, r2, #8
 484 010a C3F8E020 		str	r2, [r3, #224]
 140:Core/Src/ltdc.c ****     /**LTDC GPIO Configuration
 485              		.loc 1 140 5 view .LVU168
 486 010e D3F8E030 		ldr	r3, [r3, #224]
 487 0112 03F00803 		and	r3, r3, #8
 488 0116 0793     		str	r3, [sp, #28]
 140:Core/Src/ltdc.c ****     /**LTDC GPIO Configuration
 489              		.loc 1 140 5 view .LVU169
 490 0118 079B     		ldr	r3, [sp, #28]
 491              	.LBE10:
 140:Core/Src/ltdc.c ****     /**LTDC GPIO Configuration
 492              		.loc 1 140 5 view .LVU170
ARM GAS  C:\Users\OSD\AppData\Local\Temp\ccCvZYMl.s 			page 15


 171:Core/Src/ltdc.c ****     GPIO_InitStruct.Mode = GPIO_MODE_AF_PP;
 493              		.loc 1 171 5 view .LVU171
 171:Core/Src/ltdc.c ****     GPIO_InitStruct.Mode = GPIO_MODE_AF_PP;
 494              		.loc 1 171 25 is_stmt 0 view .LVU172
 495 011a 6023     		movs	r3, #96
 496 011c 3993     		str	r3, [sp, #228]
 172:Core/Src/ltdc.c ****     GPIO_InitStruct.Pull = GPIO_NOPULL;
 497              		.loc 1 172 5 is_stmt 1 view .LVU173
 172:Core/Src/ltdc.c ****     GPIO_InitStruct.Pull = GPIO_NOPULL;
 498              		.loc 1 172 26 is_stmt 0 view .LVU174
 499 011e 0226     		movs	r6, #2
 500 0120 3A96     		str	r6, [sp, #232]
 173:Core/Src/ltdc.c ****     GPIO_InitStruct.Speed = GPIO_SPEED_FREQ_VERY_HIGH;
 501              		.loc 1 173 5 is_stmt 1 view .LVU175
 173:Core/Src/ltdc.c ****     GPIO_InitStruct.Speed = GPIO_SPEED_FREQ_VERY_HIGH;
 502              		.loc 1 173 26 is_stmt 0 view .LVU176
 503 0122 0024     		movs	r4, #0
 504              	.LVL24:
 173:Core/Src/ltdc.c ****     GPIO_InitStruct.Speed = GPIO_SPEED_FREQ_VERY_HIGH;
 505              		.loc 1 173 26 view .LVU177
 506 0124 3B94     		str	r4, [sp, #236]
 174:Core/Src/ltdc.c ****     GPIO_InitStruct.Alternate = GPIO_AF14_LTDC;
 507              		.loc 1 174 5 is_stmt 1 view .LVU178
 174:Core/Src/ltdc.c ****     GPIO_InitStruct.Alternate = GPIO_AF14_LTDC;
 508              		.loc 1 174 27 is_stmt 0 view .LVU179
 509 0126 0325     		movs	r5, #3
 510 0128 3C95     		str	r5, [sp, #240]
 175:Core/Src/ltdc.c ****     HAL_GPIO_Init(GPIOE, &GPIO_InitStruct);
 511              		.loc 1 175 5 is_stmt 1 view .LVU180
 175:Core/Src/ltdc.c ****     HAL_GPIO_Init(GPIOE, &GPIO_InitStruct);
 512              		.loc 1 175 31 is_stmt 0 view .LVU181
 513 012a 0E27     		movs	r7, #14
 514 012c 3D97     		str	r7, [sp, #244]
 176:Core/Src/ltdc.c **** 
 515              		.loc 1 176 5 is_stmt 1 view .LVU182
 516 012e 39A9     		add	r1, sp, #228
 517 0130 3448     		ldr	r0, .L15+8
 518 0132 FFF7FEFF 		bl	HAL_GPIO_Init
 519              	.LVL25:
 178:Core/Src/ltdc.c ****                           |GPIO_PIN_2|GPIO_PIN_4|GPIO_PIN_5|GPIO_PIN_6
 520              		.loc 1 178 5 view .LVU183
 178:Core/Src/ltdc.c ****                           |GPIO_PIN_2|GPIO_PIN_4|GPIO_PIN_5|GPIO_PIN_6
 521              		.loc 1 178 25 is_stmt 0 view .LVU184
 522 0136 40F2F763 		movw	r3, #1783
 523 013a 3993     		str	r3, [sp, #228]
 181:Core/Src/ltdc.c ****     GPIO_InitStruct.Pull = GPIO_NOPULL;
 524              		.loc 1 181 5 is_stmt 1 view .LVU185
 181:Core/Src/ltdc.c ****     GPIO_InitStruct.Pull = GPIO_NOPULL;
 525              		.loc 1 181 26 is_stmt 0 view .LVU186
 526 013c 3A96     		str	r6, [sp, #232]
 182:Core/Src/ltdc.c ****     GPIO_InitStruct.Speed = GPIO_SPEED_FREQ_VERY_HIGH;
 527              		.loc 1 182 5 is_stmt 1 view .LVU187
 182:Core/Src/ltdc.c ****     GPIO_InitStruct.Speed = GPIO_SPEED_FREQ_VERY_HIGH;
 528              		.loc 1 182 26 is_stmt 0 view .LVU188
 529 013e 3B94     		str	r4, [sp, #236]
 183:Core/Src/ltdc.c ****     GPIO_InitStruct.Alternate = GPIO_AF14_LTDC;
 530              		.loc 1 183 5 is_stmt 1 view .LVU189
ARM GAS  C:\Users\OSD\AppData\Local\Temp\ccCvZYMl.s 			page 16


 183:Core/Src/ltdc.c ****     GPIO_InitStruct.Alternate = GPIO_AF14_LTDC;
 531              		.loc 1 183 27 is_stmt 0 view .LVU190
 532 0140 3C95     		str	r5, [sp, #240]
 184:Core/Src/ltdc.c ****     HAL_GPIO_Init(GPIOI, &GPIO_InitStruct);
 533              		.loc 1 184 5 is_stmt 1 view .LVU191
 184:Core/Src/ltdc.c ****     HAL_GPIO_Init(GPIOI, &GPIO_InitStruct);
 534              		.loc 1 184 31 is_stmt 0 view .LVU192
 535 0142 3D97     		str	r7, [sp, #244]
 185:Core/Src/ltdc.c **** 
 536              		.loc 1 185 5 is_stmt 1 view .LVU193
 537 0144 39A9     		add	r1, sp, #228
 538 0146 3048     		ldr	r0, .L15+12
 539 0148 FFF7FEFF 		bl	HAL_GPIO_Init
 540              	.LVL26:
 187:Core/Src/ltdc.c ****     GPIO_InitStruct.Mode = GPIO_MODE_AF_PP;
 541              		.loc 1 187 5 view .LVU194
 187:Core/Src/ltdc.c ****     GPIO_InitStruct.Mode = GPIO_MODE_AF_PP;
 542              		.loc 1 187 25 is_stmt 0 view .LVU195
 543 014c 4FF48063 		mov	r3, #1024
 544 0150 3993     		str	r3, [sp, #228]
 188:Core/Src/ltdc.c ****     GPIO_InitStruct.Pull = GPIO_NOPULL;
 545              		.loc 1 188 5 is_stmt 1 view .LVU196
 188:Core/Src/ltdc.c ****     GPIO_InitStruct.Pull = GPIO_NOPULL;
 546              		.loc 1 188 26 is_stmt 0 view .LVU197
 547 0152 3A96     		str	r6, [sp, #232]
 189:Core/Src/ltdc.c ****     GPIO_InitStruct.Speed = GPIO_SPEED_FREQ_VERY_HIGH;
 548              		.loc 1 189 5 is_stmt 1 view .LVU198
 189:Core/Src/ltdc.c ****     GPIO_InitStruct.Speed = GPIO_SPEED_FREQ_VERY_HIGH;
 549              		.loc 1 189 26 is_stmt 0 view .LVU199
 550 0154 3B94     		str	r4, [sp, #236]
 190:Core/Src/ltdc.c ****     GPIO_InitStruct.Alternate = GPIO_AF14_LTDC;
 551              		.loc 1 190 5 is_stmt 1 view .LVU200
 190:Core/Src/ltdc.c ****     GPIO_InitStruct.Alternate = GPIO_AF14_LTDC;
 552              		.loc 1 190 27 is_stmt 0 view .LVU201
 553 0156 3C95     		str	r5, [sp, #240]
 191:Core/Src/ltdc.c ****     HAL_GPIO_Init(GPIOF, &GPIO_InitStruct);
 554              		.loc 1 191 5 is_stmt 1 view .LVU202
 191:Core/Src/ltdc.c ****     HAL_GPIO_Init(GPIOF, &GPIO_InitStruct);
 555              		.loc 1 191 31 is_stmt 0 view .LVU203
 556 0158 3D97     		str	r7, [sp, #244]
 192:Core/Src/ltdc.c **** 
 557              		.loc 1 192 5 is_stmt 1 view .LVU204
 558 015a 39A9     		add	r1, sp, #228
 559 015c 2B48     		ldr	r0, .L15+16
 560 015e FFF7FEFF 		bl	HAL_GPIO_Init
 561              	.LVL27:
 194:Core/Src/ltdc.c ****     GPIO_InitStruct.Mode = GPIO_MODE_AF_PP;
 562              		.loc 1 194 5 view .LVU205
 194:Core/Src/ltdc.c ****     GPIO_InitStruct.Mode = GPIO_MODE_AF_PP;
 563              		.loc 1 194 25 is_stmt 0 view .LVU206
 564 0162 0423     		movs	r3, #4
 565 0164 3993     		str	r3, [sp, #228]
 195:Core/Src/ltdc.c ****     GPIO_InitStruct.Pull = GPIO_NOPULL;
 566              		.loc 1 195 5 is_stmt 1 view .LVU207
 195:Core/Src/ltdc.c ****     GPIO_InitStruct.Pull = GPIO_NOPULL;
 567              		.loc 1 195 26 is_stmt 0 view .LVU208
 568 0166 3A96     		str	r6, [sp, #232]
ARM GAS  C:\Users\OSD\AppData\Local\Temp\ccCvZYMl.s 			page 17


 196:Core/Src/ltdc.c ****     GPIO_InitStruct.Speed = GPIO_SPEED_FREQ_VERY_HIGH;
 569              		.loc 1 196 5 is_stmt 1 view .LVU209
 196:Core/Src/ltdc.c ****     GPIO_InitStruct.Speed = GPIO_SPEED_FREQ_VERY_HIGH;
 570              		.loc 1 196 26 is_stmt 0 view .LVU210
 571 0168 3B94     		str	r4, [sp, #236]
 197:Core/Src/ltdc.c ****     GPIO_InitStruct.Alternate = GPIO_AF14_LTDC;
 572              		.loc 1 197 5 is_stmt 1 view .LVU211
 197:Core/Src/ltdc.c ****     GPIO_InitStruct.Alternate = GPIO_AF14_LTDC;
 573              		.loc 1 197 27 is_stmt 0 view .LVU212
 574 016a 3C95     		str	r5, [sp, #240]
 198:Core/Src/ltdc.c ****     HAL_GPIO_Init(GPIOA, &GPIO_InitStruct);
 575              		.loc 1 198 5 is_stmt 1 view .LVU213
 198:Core/Src/ltdc.c ****     HAL_GPIO_Init(GPIOA, &GPIO_InitStruct);
 576              		.loc 1 198 31 is_stmt 0 view .LVU214
 577 016c 3D97     		str	r7, [sp, #244]
 199:Core/Src/ltdc.c **** 
 578              		.loc 1 199 5 is_stmt 1 view .LVU215
 579 016e DFF8AC80 		ldr	r8, .L15+32
 580 0172 39A9     		add	r1, sp, #228
 581 0174 4046     		mov	r0, r8
 582 0176 FFF7FEFF 		bl	HAL_GPIO_Init
 583              	.LVL28:
 201:Core/Src/ltdc.c ****                           |GPIO_PIN_12|GPIO_PIN_13|GPIO_PIN_14|GPIO_PIN_15;
 584              		.loc 1 201 5 view .LVU216
 201:Core/Src/ltdc.c ****                           |GPIO_PIN_12|GPIO_PIN_13|GPIO_PIN_14|GPIO_PIN_15;
 585              		.loc 1 201 25 is_stmt 0 view .LVU217
 586 017a 4FF47F43 		mov	r3, #65280
 587 017e 3993     		str	r3, [sp, #228]
 203:Core/Src/ltdc.c ****     GPIO_InitStruct.Pull = GPIO_NOPULL;
 588              		.loc 1 203 5 is_stmt 1 view .LVU218
 203:Core/Src/ltdc.c ****     GPIO_InitStruct.Pull = GPIO_NOPULL;
 589              		.loc 1 203 26 is_stmt 0 view .LVU219
 590 0180 3A96     		str	r6, [sp, #232]
 204:Core/Src/ltdc.c ****     GPIO_InitStruct.Speed = GPIO_SPEED_FREQ_VERY_HIGH;
 591              		.loc 1 204 5 is_stmt 1 view .LVU220
 204:Core/Src/ltdc.c ****     GPIO_InitStruct.Speed = GPIO_SPEED_FREQ_VERY_HIGH;
 592              		.loc 1 204 26 is_stmt 0 view .LVU221
 593 0182 3B94     		str	r4, [sp, #236]
 205:Core/Src/ltdc.c ****     GPIO_InitStruct.Alternate = GPIO_AF14_LTDC;
 594              		.loc 1 205 5 is_stmt 1 view .LVU222
 205:Core/Src/ltdc.c ****     GPIO_InitStruct.Alternate = GPIO_AF14_LTDC;
 595              		.loc 1 205 27 is_stmt 0 view .LVU223
 596 0184 3C95     		str	r5, [sp, #240]
 206:Core/Src/ltdc.c ****     HAL_GPIO_Init(GPIOH, &GPIO_InitStruct);
 597              		.loc 1 206 5 is_stmt 1 view .LVU224
 206:Core/Src/ltdc.c ****     HAL_GPIO_Init(GPIOH, &GPIO_InitStruct);
 598              		.loc 1 206 31 is_stmt 0 view .LVU225
 599 0186 3D97     		str	r7, [sp, #244]
 207:Core/Src/ltdc.c **** 
 600              		.loc 1 207 5 is_stmt 1 view .LVU226
 601 0188 39A9     		add	r1, sp, #228
 602 018a 2148     		ldr	r0, .L15+20
 603 018c FFF7FEFF 		bl	HAL_GPIO_Init
 604              	.LVL29:
 209:Core/Src/ltdc.c ****                           |GPIO_PIN_14;
 605              		.loc 1 209 5 view .LVU227
 209:Core/Src/ltdc.c ****                           |GPIO_PIN_14;
ARM GAS  C:\Users\OSD\AppData\Local\Temp\ccCvZYMl.s 			page 18


 606              		.loc 1 209 25 is_stmt 0 view .LVU228
 607 0190 47F2C003 		movw	r3, #28864
 608 0194 3993     		str	r3, [sp, #228]
 211:Core/Src/ltdc.c ****     GPIO_InitStruct.Pull = GPIO_NOPULL;
 609              		.loc 1 211 5 is_stmt 1 view .LVU229
 211:Core/Src/ltdc.c ****     GPIO_InitStruct.Pull = GPIO_NOPULL;
 610              		.loc 1 211 26 is_stmt 0 view .LVU230
 611 0196 3A96     		str	r6, [sp, #232]
 212:Core/Src/ltdc.c ****     GPIO_InitStruct.Speed = GPIO_SPEED_FREQ_VERY_HIGH;
 612              		.loc 1 212 5 is_stmt 1 view .LVU231
 212:Core/Src/ltdc.c ****     GPIO_InitStruct.Speed = GPIO_SPEED_FREQ_VERY_HIGH;
 613              		.loc 1 212 26 is_stmt 0 view .LVU232
 614 0198 3B94     		str	r4, [sp, #236]
 213:Core/Src/ltdc.c ****     GPIO_InitStruct.Alternate = GPIO_AF14_LTDC;
 615              		.loc 1 213 5 is_stmt 1 view .LVU233
 213:Core/Src/ltdc.c ****     GPIO_InitStruct.Alternate = GPIO_AF14_LTDC;
 616              		.loc 1 213 27 is_stmt 0 view .LVU234
 617 019a 3C95     		str	r5, [sp, #240]
 214:Core/Src/ltdc.c ****     HAL_GPIO_Init(GPIOG, &GPIO_InitStruct);
 618              		.loc 1 214 5 is_stmt 1 view .LVU235
 214:Core/Src/ltdc.c ****     HAL_GPIO_Init(GPIOG, &GPIO_InitStruct);
 619              		.loc 1 214 31 is_stmt 0 view .LVU236
 620 019c 3D97     		str	r7, [sp, #244]
 215:Core/Src/ltdc.c **** 
 621              		.loc 1 215 5 is_stmt 1 view .LVU237
 622 019e 39A9     		add	r1, sp, #228
 623 01a0 1C48     		ldr	r0, .L15+24
 624 01a2 FFF7FEFF 		bl	HAL_GPIO_Init
 625              	.LVL30:
 217:Core/Src/ltdc.c ****     GPIO_InitStruct.Mode = GPIO_MODE_AF_PP;
 626              		.loc 1 217 5 view .LVU238
 217:Core/Src/ltdc.c ****     GPIO_InitStruct.Mode = GPIO_MODE_AF_PP;
 627              		.loc 1 217 25 is_stmt 0 view .LVU239
 628 01a6 4FF48073 		mov	r3, #256
 629 01aa 3993     		str	r3, [sp, #228]
 218:Core/Src/ltdc.c ****     GPIO_InitStruct.Pull = GPIO_NOPULL;
 630              		.loc 1 218 5 is_stmt 1 view .LVU240
 218:Core/Src/ltdc.c ****     GPIO_InitStruct.Pull = GPIO_NOPULL;
 631              		.loc 1 218 26 is_stmt 0 view .LVU241
 632 01ac 3A96     		str	r6, [sp, #232]
 219:Core/Src/ltdc.c ****     GPIO_InitStruct.Speed = GPIO_SPEED_FREQ_VERY_HIGH;
 633              		.loc 1 219 5 is_stmt 1 view .LVU242
 219:Core/Src/ltdc.c ****     GPIO_InitStruct.Speed = GPIO_SPEED_FREQ_VERY_HIGH;
 634              		.loc 1 219 26 is_stmt 0 view .LVU243
 635 01ae 3B94     		str	r4, [sp, #236]
 220:Core/Src/ltdc.c ****     GPIO_InitStruct.Alternate = GPIO_AF13_LTDC;
 636              		.loc 1 220 5 is_stmt 1 view .LVU244
 220:Core/Src/ltdc.c ****     GPIO_InitStruct.Alternate = GPIO_AF13_LTDC;
 637              		.loc 1 220 27 is_stmt 0 view .LVU245
 638 01b0 3C95     		str	r5, [sp, #240]
 221:Core/Src/ltdc.c ****     HAL_GPIO_Init(GPIOA, &GPIO_InitStruct);
 639              		.loc 1 221 5 is_stmt 1 view .LVU246
 221:Core/Src/ltdc.c ****     HAL_GPIO_Init(GPIOA, &GPIO_InitStruct);
 640              		.loc 1 221 31 is_stmt 0 view .LVU247
 641 01b2 0D23     		movs	r3, #13
 642 01b4 3D93     		str	r3, [sp, #244]
 222:Core/Src/ltdc.c **** 
ARM GAS  C:\Users\OSD\AppData\Local\Temp\ccCvZYMl.s 			page 19


 643              		.loc 1 222 5 is_stmt 1 view .LVU248
 644 01b6 39A9     		add	r1, sp, #228
 645 01b8 4046     		mov	r0, r8
 646 01ba FFF7FEFF 		bl	HAL_GPIO_Init
 647              	.LVL31:
 224:Core/Src/ltdc.c ****     GPIO_InitStruct.Mode = GPIO_MODE_AF_PP;
 648              		.loc 1 224 5 view .LVU249
 224:Core/Src/ltdc.c ****     GPIO_InitStruct.Mode = GPIO_MODE_AF_PP;
 649              		.loc 1 224 25 is_stmt 0 view .LVU250
 650 01be 4023     		movs	r3, #64
 651 01c0 3993     		str	r3, [sp, #228]
 225:Core/Src/ltdc.c ****     GPIO_InitStruct.Pull = GPIO_NOPULL;
 652              		.loc 1 225 5 is_stmt 1 view .LVU251
 225:Core/Src/ltdc.c ****     GPIO_InitStruct.Pull = GPIO_NOPULL;
 653              		.loc 1 225 26 is_stmt 0 view .LVU252
 654 01c2 3A96     		str	r6, [sp, #232]
 226:Core/Src/ltdc.c ****     GPIO_InitStruct.Speed = GPIO_SPEED_FREQ_VERY_HIGH;
 655              		.loc 1 226 5 is_stmt 1 view .LVU253
 226:Core/Src/ltdc.c ****     GPIO_InitStruct.Speed = GPIO_SPEED_FREQ_VERY_HIGH;
 656              		.loc 1 226 26 is_stmt 0 view .LVU254
 657 01c4 3B94     		str	r4, [sp, #236]
 227:Core/Src/ltdc.c ****     GPIO_InitStruct.Alternate = GPIO_AF14_LTDC;
 658              		.loc 1 227 5 is_stmt 1 view .LVU255
 227:Core/Src/ltdc.c ****     GPIO_InitStruct.Alternate = GPIO_AF14_LTDC;
 659              		.loc 1 227 27 is_stmt 0 view .LVU256
 660 01c6 3C95     		str	r5, [sp, #240]
 228:Core/Src/ltdc.c ****     HAL_GPIO_Init(GPIOD, &GPIO_InitStruct);
 661              		.loc 1 228 5 is_stmt 1 view .LVU257
 228:Core/Src/ltdc.c ****     HAL_GPIO_Init(GPIOD, &GPIO_InitStruct);
 662              		.loc 1 228 31 is_stmt 0 view .LVU258
 663 01c8 3D97     		str	r7, [sp, #244]
 229:Core/Src/ltdc.c **** 
 664              		.loc 1 229 5 is_stmt 1 view .LVU259
 665 01ca 39A9     		add	r1, sp, #228
 666 01cc 1248     		ldr	r0, .L15+28
 667 01ce FFF7FEFF 		bl	HAL_GPIO_Init
 668              	.LVL32:
 232:Core/Src/ltdc.c ****     HAL_NVIC_EnableIRQ(LTDC_IRQn);
 669              		.loc 1 232 5 view .LVU260
 670 01d2 2246     		mov	r2, r4
 671 01d4 2146     		mov	r1, r4
 672 01d6 5820     		movs	r0, #88
 673 01d8 FFF7FEFF 		bl	HAL_NVIC_SetPriority
 674              	.LVL33:
 233:Core/Src/ltdc.c ****     HAL_NVIC_SetPriority(LTDC_ER_IRQn, 0, 0);
 675              		.loc 1 233 5 view .LVU261
 676 01dc 5820     		movs	r0, #88
 677 01de FFF7FEFF 		bl	HAL_NVIC_EnableIRQ
 678              	.LVL34:
 234:Core/Src/ltdc.c ****     HAL_NVIC_EnableIRQ(LTDC_ER_IRQn);
 679              		.loc 1 234 5 view .LVU262
 680 01e2 2246     		mov	r2, r4
 681 01e4 2146     		mov	r1, r4
 682 01e6 5920     		movs	r0, #89
 683 01e8 FFF7FEFF 		bl	HAL_NVIC_SetPriority
 684              	.LVL35:
 235:Core/Src/ltdc.c ****   /* USER CODE BEGIN LTDC_MspInit 1 */
ARM GAS  C:\Users\OSD\AppData\Local\Temp\ccCvZYMl.s 			page 20


 685              		.loc 1 235 5 view .LVU263
 686 01ec 5920     		movs	r0, #89
 687 01ee FFF7FEFF 		bl	HAL_NVIC_EnableIRQ
 688              	.LVL36:
 689              		.loc 1 240 1 is_stmt 0 view .LVU264
 690 01f2 17E7     		b	.L9
 691              	.LVL37:
 692              	.L14:
 128:Core/Src/ltdc.c ****     }
 693              		.loc 1 128 7 is_stmt 1 view .LVU265
 694 01f4 FFF7FEFF 		bl	Error_Handler
 695              	.LVL38:
 696 01f8 2EE7     		b	.L11
 697              	.L16:
 698 01fa 00BF     		.align	2
 699              	.L15:
 700 01fc 00100050 		.word	1342181376
 701 0200 00440258 		.word	1476543488
 702 0204 00100258 		.word	1476530176
 703 0208 00200258 		.word	1476534272
 704 020c 00140258 		.word	1476531200
 705 0210 001C0258 		.word	1476533248
 706 0214 00180258 		.word	1476532224
 707 0218 000C0258 		.word	1476529152
 708 021c 00000258 		.word	1476526080
 709              		.cfi_endproc
 710              	.LFE148:
 712              		.section	.text.HAL_LTDC_MspDeInit,"ax",%progbits
 713              		.align	1
 714              		.global	HAL_LTDC_MspDeInit
 715              		.syntax unified
 716              		.thumb
 717              		.thumb_func
 719              	HAL_LTDC_MspDeInit:
 720              	.LVL39:
 721              	.LFB149:
 241:Core/Src/ltdc.c **** 
 242:Core/Src/ltdc.c **** void HAL_LTDC_MspDeInit(LTDC_HandleTypeDef* ltdcHandle)
 243:Core/Src/ltdc.c **** {
 722              		.loc 1 243 1 view -0
 723              		.cfi_startproc
 724              		@ args = 0, pretend = 0, frame = 0
 725              		@ frame_needed = 0, uses_anonymous_args = 0
 726              		.loc 1 243 1 is_stmt 0 view .LVU267
 727 0000 08B5     		push	{r3, lr}
 728              		.cfi_def_cfa_offset 8
 729              		.cfi_offset 3, -8
 730              		.cfi_offset 14, -4
 244:Core/Src/ltdc.c **** 
 245:Core/Src/ltdc.c ****   if(ltdcHandle->Instance==LTDC)
 731              		.loc 1 245 3 is_stmt 1 view .LVU268
 732              		.loc 1 245 16 is_stmt 0 view .LVU269
 733 0002 0268     		ldr	r2, [r0]
 734              		.loc 1 245 5 view .LVU270
 735 0004 194B     		ldr	r3, .L21
 736 0006 9A42     		cmp	r2, r3
 737 0008 00D0     		beq	.L20
ARM GAS  C:\Users\OSD\AppData\Local\Temp\ccCvZYMl.s 			page 21


 738              	.LVL40:
 739              	.L17:
 246:Core/Src/ltdc.c ****   {
 247:Core/Src/ltdc.c ****   /* USER CODE BEGIN LTDC_MspDeInit 0 */
 248:Core/Src/ltdc.c **** 
 249:Core/Src/ltdc.c ****   /* USER CODE END LTDC_MspDeInit 0 */
 250:Core/Src/ltdc.c ****     /* Peripheral clock disable */
 251:Core/Src/ltdc.c ****     __HAL_RCC_LTDC_CLK_DISABLE();
 252:Core/Src/ltdc.c **** 
 253:Core/Src/ltdc.c ****     /**LTDC GPIO Configuration
 254:Core/Src/ltdc.c ****     PE5     ------> LTDC_G0
 255:Core/Src/ltdc.c ****     PE6     ------> LTDC_G1
 256:Core/Src/ltdc.c ****     PI9     ------> LTDC_VSYNC
 257:Core/Src/ltdc.c ****     PI10     ------> LTDC_HSYNC
 258:Core/Src/ltdc.c ****     PF10     ------> LTDC_DE
 259:Core/Src/ltdc.c ****     PA2     ------> LTDC_R1
 260:Core/Src/ltdc.c ****     PH8     ------> LTDC_R2
 261:Core/Src/ltdc.c ****     PH9     ------> LTDC_R3
 262:Core/Src/ltdc.c ****     PH10     ------> LTDC_R4
 263:Core/Src/ltdc.c ****     PH11     ------> LTDC_R5
 264:Core/Src/ltdc.c ****     PH12     ------> LTDC_R6
 265:Core/Src/ltdc.c ****     PG6     ------> LTDC_R7
 266:Core/Src/ltdc.c ****     PG7     ------> LTDC_CLK
 267:Core/Src/ltdc.c ****     PA8     ------> LTDC_B3
 268:Core/Src/ltdc.c ****     PH13     ------> LTDC_G2
 269:Core/Src/ltdc.c ****     PH14     ------> LTDC_G3
 270:Core/Src/ltdc.c ****     PH15     ------> LTDC_G4
 271:Core/Src/ltdc.c ****     PI0     ------> LTDC_G5
 272:Core/Src/ltdc.c ****     PI1     ------> LTDC_G6
 273:Core/Src/ltdc.c ****     PI2     ------> LTDC_G7
 274:Core/Src/ltdc.c ****     PD6     ------> LTDC_B2
 275:Core/Src/ltdc.c ****     PG12     ------> LTDC_B1
 276:Core/Src/ltdc.c ****     PG13     ------> LTDC_R0
 277:Core/Src/ltdc.c ****     PG14     ------> LTDC_B0
 278:Core/Src/ltdc.c ****     PI4     ------> LTDC_B4
 279:Core/Src/ltdc.c ****     PI5     ------> LTDC_B5
 280:Core/Src/ltdc.c ****     PI6     ------> LTDC_B6
 281:Core/Src/ltdc.c ****     PI7     ------> LTDC_B7
 282:Core/Src/ltdc.c ****     */
 283:Core/Src/ltdc.c ****     HAL_GPIO_DeInit(GPIOE, GPIO_PIN_5|GPIO_PIN_6);
 284:Core/Src/ltdc.c **** 
 285:Core/Src/ltdc.c ****     HAL_GPIO_DeInit(GPIOI, GPIO_PIN_9|GPIO_PIN_10|GPIO_PIN_0|GPIO_PIN_1
 286:Core/Src/ltdc.c ****                           |GPIO_PIN_2|GPIO_PIN_4|GPIO_PIN_5|GPIO_PIN_6
 287:Core/Src/ltdc.c ****                           |GPIO_PIN_7);
 288:Core/Src/ltdc.c **** 
 289:Core/Src/ltdc.c ****     HAL_GPIO_DeInit(GPIOF, GPIO_PIN_10);
 290:Core/Src/ltdc.c **** 
 291:Core/Src/ltdc.c ****     HAL_GPIO_DeInit(GPIOA, GPIO_PIN_2|GPIO_PIN_8);
 292:Core/Src/ltdc.c **** 
 293:Core/Src/ltdc.c ****     HAL_GPIO_DeInit(GPIOH, GPIO_PIN_8|GPIO_PIN_9|GPIO_PIN_10|GPIO_PIN_11
 294:Core/Src/ltdc.c ****                           |GPIO_PIN_12|GPIO_PIN_13|GPIO_PIN_14|GPIO_PIN_15);
 295:Core/Src/ltdc.c **** 
 296:Core/Src/ltdc.c ****     HAL_GPIO_DeInit(GPIOG, GPIO_PIN_6|GPIO_PIN_7|GPIO_PIN_12|GPIO_PIN_13
 297:Core/Src/ltdc.c ****                           |GPIO_PIN_14);
 298:Core/Src/ltdc.c **** 
 299:Core/Src/ltdc.c ****     HAL_GPIO_DeInit(GPIOD, GPIO_PIN_6);
 300:Core/Src/ltdc.c **** 
ARM GAS  C:\Users\OSD\AppData\Local\Temp\ccCvZYMl.s 			page 22


 301:Core/Src/ltdc.c ****     /* LTDC interrupt Deinit */
 302:Core/Src/ltdc.c ****     HAL_NVIC_DisableIRQ(LTDC_IRQn);
 303:Core/Src/ltdc.c ****     HAL_NVIC_DisableIRQ(LTDC_ER_IRQn);
 304:Core/Src/ltdc.c ****   /* USER CODE BEGIN LTDC_MspDeInit 1 */
 305:Core/Src/ltdc.c **** 
 306:Core/Src/ltdc.c ****   /* USER CODE END LTDC_MspDeInit 1 */
 307:Core/Src/ltdc.c ****   }
 308:Core/Src/ltdc.c **** }
 740              		.loc 1 308 1 view .LVU271
 741 000a 08BD     		pop	{r3, pc}
 742              	.LVL41:
 743              	.L20:
 251:Core/Src/ltdc.c **** 
 744              		.loc 1 251 5 is_stmt 1 view .LVU272
 745 000c 184A     		ldr	r2, .L21+4
 746 000e D2F8E430 		ldr	r3, [r2, #228]
 747 0012 23F00803 		bic	r3, r3, #8
 748 0016 C2F8E430 		str	r3, [r2, #228]
 283:Core/Src/ltdc.c **** 
 749              		.loc 1 283 5 view .LVU273
 750 001a 6021     		movs	r1, #96
 751 001c 1548     		ldr	r0, .L21+8
 752              	.LVL42:
 283:Core/Src/ltdc.c **** 
 753              		.loc 1 283 5 is_stmt 0 view .LVU274
 754 001e FFF7FEFF 		bl	HAL_GPIO_DeInit
 755              	.LVL43:
 285:Core/Src/ltdc.c ****                           |GPIO_PIN_2|GPIO_PIN_4|GPIO_PIN_5|GPIO_PIN_6
 756              		.loc 1 285 5 is_stmt 1 view .LVU275
 757 0022 40F2F761 		movw	r1, #1783
 758 0026 1448     		ldr	r0, .L21+12
 759 0028 FFF7FEFF 		bl	HAL_GPIO_DeInit
 760              	.LVL44:
 289:Core/Src/ltdc.c **** 
 761              		.loc 1 289 5 view .LVU276
 762 002c 4FF48061 		mov	r1, #1024
 763 0030 1248     		ldr	r0, .L21+16
 764 0032 FFF7FEFF 		bl	HAL_GPIO_DeInit
 765              	.LVL45:
 291:Core/Src/ltdc.c **** 
 766              		.loc 1 291 5 view .LVU277
 767 0036 4FF48271 		mov	r1, #260
 768 003a 1148     		ldr	r0, .L21+20
 769 003c FFF7FEFF 		bl	HAL_GPIO_DeInit
 770              	.LVL46:
 293:Core/Src/ltdc.c ****                           |GPIO_PIN_12|GPIO_PIN_13|GPIO_PIN_14|GPIO_PIN_15);
 771              		.loc 1 293 5 view .LVU278
 772 0040 4FF47F41 		mov	r1, #65280
 773 0044 0F48     		ldr	r0, .L21+24
 774 0046 FFF7FEFF 		bl	HAL_GPIO_DeInit
 775              	.LVL47:
 296:Core/Src/ltdc.c ****                           |GPIO_PIN_14);
 776              		.loc 1 296 5 view .LVU279
 777 004a 47F2C001 		movw	r1, #28864
 778 004e 0E48     		ldr	r0, .L21+28
 779 0050 FFF7FEFF 		bl	HAL_GPIO_DeInit
 780              	.LVL48:
ARM GAS  C:\Users\OSD\AppData\Local\Temp\ccCvZYMl.s 			page 23


 299:Core/Src/ltdc.c **** 
 781              		.loc 1 299 5 view .LVU280
 782 0054 4021     		movs	r1, #64
 783 0056 0D48     		ldr	r0, .L21+32
 784 0058 FFF7FEFF 		bl	HAL_GPIO_DeInit
 785              	.LVL49:
 302:Core/Src/ltdc.c ****     HAL_NVIC_DisableIRQ(LTDC_ER_IRQn);
 786              		.loc 1 302 5 view .LVU281
 787 005c 5820     		movs	r0, #88
 788 005e FFF7FEFF 		bl	HAL_NVIC_DisableIRQ
 789              	.LVL50:
 303:Core/Src/ltdc.c ****   /* USER CODE BEGIN LTDC_MspDeInit 1 */
 790              		.loc 1 303 5 view .LVU282
 791 0062 5920     		movs	r0, #89
 792 0064 FFF7FEFF 		bl	HAL_NVIC_DisableIRQ
 793              	.LVL51:
 794              		.loc 1 308 1 is_stmt 0 view .LVU283
 795 0068 CFE7     		b	.L17
 796              	.L22:
 797 006a 00BF     		.align	2
 798              	.L21:
 799 006c 00100050 		.word	1342181376
 800 0070 00440258 		.word	1476543488
 801 0074 00100258 		.word	1476530176
 802 0078 00200258 		.word	1476534272
 803 007c 00140258 		.word	1476531200
 804 0080 00000258 		.word	1476526080
 805 0084 001C0258 		.word	1476533248
 806 0088 00180258 		.word	1476532224
 807 008c 000C0258 		.word	1476529152
 808              		.cfi_endproc
 809              	.LFE149:
 811              		.global	hltdc
 812              		.section	.bss.hltdc,"aw",%nobits
 813              		.align	2
 814              		.set	.LANCHOR0,. + 0
 817              	hltdc:
 818 0000 00000000 		.space	168
 818      00000000 
 818      00000000 
 818      00000000 
 818      00000000 
 819              		.text
 820              	.Letext0:
 821              		.file 2 "c:\\tools\\gcc-arm-none-eabi\\arm-none-eabi\\include\\machine\\_default_types.h"
 822              		.file 3 "c:\\tools\\gcc-arm-none-eabi\\arm-none-eabi\\include\\sys\\_stdint.h"
 823              		.file 4 "Drivers/CMSIS/Device/ST/STM32H7xx/Include/stm32h743xx.h"
 824              		.file 5 "Drivers/CMSIS/Device/ST/STM32H7xx/Include/stm32h7xx.h"
 825              		.file 6 "Drivers/STM32H7xx_HAL_Driver/Inc/stm32h7xx_hal_def.h"
 826              		.file 7 "Drivers/STM32H7xx_HAL_Driver/Inc/stm32h7xx_hal_rcc_ex.h"
 827              		.file 8 "Drivers/STM32H7xx_HAL_Driver/Inc/stm32h7xx_hal_gpio.h"
 828              		.file 9 "Drivers/STM32H7xx_HAL_Driver/Inc/stm32h7xx_hal_ltdc.h"
 829              		.file 10 "Core/Inc/lcd_fonts.h"
 830              		.file 11 "Core/Inc/ltdc.h"
 831              		.file 12 "Drivers/STM32H7xx_HAL_Driver/Inc/stm32h7xx_hal_cortex.h"
 832              		.file 13 "Core/Inc/main.h"
 833              		.file 14 "Core/Inc/lcd_rgb.h"
ARM GAS  C:\Users\OSD\AppData\Local\Temp\ccCvZYMl.s 			page 24


 834              		.file 15 "Drivers/STM32H7xx_HAL_Driver/Inc/stm32h7xx_hal.h"
 835              		.file 16 "<built-in>"
ARM GAS  C:\Users\OSD\AppData\Local\Temp\ccCvZYMl.s 			page 25


DEFINED SYMBOLS
                            *ABS*:00000000 ltdc.c
C:\Users\OSD\AppData\Local\Temp\ccCvZYMl.s:19     .text.MX_LTDC_Init:00000000 $t
C:\Users\OSD\AppData\Local\Temp\ccCvZYMl.s:25     .text.MX_LTDC_Init:00000000 MX_LTDC_Init
C:\Users\OSD\AppData\Local\Temp\ccCvZYMl.s:265    .text.MX_LTDC_Init:00000124 $d
C:\Users\OSD\AppData\Local\Temp\ccCvZYMl.s:274    .text.HAL_LTDC_MspInit:00000000 $t
C:\Users\OSD\AppData\Local\Temp\ccCvZYMl.s:280    .text.HAL_LTDC_MspInit:00000000 HAL_LTDC_MspInit
C:\Users\OSD\AppData\Local\Temp\ccCvZYMl.s:700    .text.HAL_LTDC_MspInit:000001fc $d
C:\Users\OSD\AppData\Local\Temp\ccCvZYMl.s:713    .text.HAL_LTDC_MspDeInit:00000000 $t
C:\Users\OSD\AppData\Local\Temp\ccCvZYMl.s:719    .text.HAL_LTDC_MspDeInit:00000000 HAL_LTDC_MspDeInit
C:\Users\OSD\AppData\Local\Temp\ccCvZYMl.s:799    .text.HAL_LTDC_MspDeInit:0000006c $d
C:\Users\OSD\AppData\Local\Temp\ccCvZYMl.s:817    .bss.hltdc:00000000 hltdc
C:\Users\OSD\AppData\Local\Temp\ccCvZYMl.s:813    .bss.hltdc:00000000 $d

UNDEFINED SYMBOLS
memset
HAL_LTDC_Init
HAL_LTDC_ConfigLayer
HAL_LTDC_EnableDither
HAL_LTDC_ProgramLineEvent
HAL_NVIC_SetPriority
HAL_NVIC_EnableIRQ
LCD_DisplayDirection
LCD_SetFont
LCD_ShowNumMode
LCD_SetLayer
LCD_SetBackColor
LCD_SetColor
LCD_Clear
HAL_Delay
HAL_GPIO_WritePin
Error_Handler
Font24
HAL_RCCEx_PeriphCLKConfig
HAL_GPIO_Init
HAL_GPIO_DeInit
HAL_NVIC_DisableIRQ
