ARM GAS  C:\Users\OSD\AppData\Local\Temp\ccc4RS9g.s 			page 1


   1              		.cpu cortex-m7
   2              		.arch armv7e-m
   3              		.fpu fpv5-d16
   4              		.eabi_attribute 28, 1
   5              		.eabi_attribute 20, 1
   6              		.eabi_attribute 21, 1
   7              		.eabi_attribute 23, 3
   8              		.eabi_attribute 24, 1
   9              		.eabi_attribute 25, 1
  10              		.eabi_attribute 26, 1
  11              		.eabi_attribute 30, 1
  12              		.eabi_attribute 34, 1
  13              		.eabi_attribute 18, 4
  14              		.file	"ltdc.c"
  15              		.text
  16              	.Ltext0:
  17              		.cfi_sections	.debug_frame
  18              		.section	.text.MX_LTDC_Init,"ax",%progbits
  19              		.align	1
  20              		.global	MX_LTDC_Init
  21              		.syntax unified
  22              		.thumb
  23              		.thumb_func
  25              	MX_LTDC_Init:
  26              	.LFB147:
  27              		.file 1 "Core/Src/ltdc.c"
   1:Core/Src/ltdc.c **** /* USER CODE BEGIN Header */
   2:Core/Src/ltdc.c **** /**
   3:Core/Src/ltdc.c ****  ******************************************************************************
   4:Core/Src/ltdc.c ****  * @file    ltdc.c
   5:Core/Src/ltdc.c ****  * @brief   This file provides code for the configuration
   6:Core/Src/ltdc.c ****  *          of the LTDC instances.
   7:Core/Src/ltdc.c ****  ******************************************************************************
   8:Core/Src/ltdc.c ****  * @attention
   9:Core/Src/ltdc.c ****  *
  10:Core/Src/ltdc.c ****  * Copyright (c) 2024 STMicroelectronics.
  11:Core/Src/ltdc.c ****  * All rights reserved.
  12:Core/Src/ltdc.c ****  *
  13:Core/Src/ltdc.c ****  * This software is licensed under terms that can be found in the LICENSE file
  14:Core/Src/ltdc.c ****  * in the root directory of this software component.
  15:Core/Src/ltdc.c ****  * If no LICENSE file comes with this software, it is provided AS-IS.
  16:Core/Src/ltdc.c ****  *
  17:Core/Src/ltdc.c ****  ******************************************************************************
  18:Core/Src/ltdc.c ****  */
  19:Core/Src/ltdc.c **** /* USER CODE END Header */
  20:Core/Src/ltdc.c **** /* Includes ------------------------------------------------------------------*/
  21:Core/Src/ltdc.c **** #include "ltdc.h"
  22:Core/Src/ltdc.c **** 
  23:Core/Src/ltdc.c **** /* USER CODE BEGIN 0 */
  24:Core/Src/ltdc.c **** #include "lcd_rgb.h"
  25:Core/Src/ltdc.c **** /* USER CODE END 0 */
  26:Core/Src/ltdc.c **** 
  27:Core/Src/ltdc.c **** LTDC_HandleTypeDef hltdc;
  28:Core/Src/ltdc.c **** 
  29:Core/Src/ltdc.c **** /* LTDC init function */
  30:Core/Src/ltdc.c **** void MX_LTDC_Init(void)
  31:Core/Src/ltdc.c **** {
ARM GAS  C:\Users\OSD\AppData\Local\Temp\ccc4RS9g.s 			page 2


  28              		.loc 1 31 1 view -0
  29              		.cfi_startproc
  30              		@ args = 0, pretend = 0, frame = 56
  31              		@ frame_needed = 0, uses_anonymous_args = 0
  32 0000 10B5     		push	{r4, lr}
  33              		.cfi_def_cfa_offset 8
  34              		.cfi_offset 4, -8
  35              		.cfi_offset 14, -4
  36 0002 8EB0     		sub	sp, sp, #56
  37              		.cfi_def_cfa_offset 64
  32:Core/Src/ltdc.c **** 
  33:Core/Src/ltdc.c ****   /* USER CODE BEGIN LTDC_Init 0 */
  34:Core/Src/ltdc.c **** 
  35:Core/Src/ltdc.c ****   /* USER CODE END LTDC_Init 0 */
  36:Core/Src/ltdc.c **** 
  37:Core/Src/ltdc.c ****   LTDC_LayerCfgTypeDef pLayerCfg = {0};
  38              		.loc 1 37 3 view .LVU1
  39              		.loc 1 37 24 is_stmt 0 view .LVU2
  40 0004 3422     		movs	r2, #52
  41 0006 0021     		movs	r1, #0
  42 0008 01A8     		add	r0, sp, #4
  43 000a FFF7FEFF 		bl	memset
  44              	.LVL0:
  38:Core/Src/ltdc.c **** 
  39:Core/Src/ltdc.c ****   /* USER CODE BEGIN LTDC_Init 1 */
  40:Core/Src/ltdc.c ****   __HAL_RCC_DMA2D_CLK_ENABLE(); // æ¿žè¾¾ï¿½???éŽå©šå´—å¦¤îœ“A2Dé—å“„å•«é–å¥¸å¹?
  45              		.loc 1 40 3 is_stmt 1 view .LVU3
  46              	.LBB2:
  47              		.loc 1 40 3 view .LVU4
  48              		.loc 1 40 3 view .LVU5
  49 000e 3B4B     		ldr	r3, .L7
  50 0010 D3F8D420 		ldr	r2, [r3, #212]
  51 0014 42F01002 		orr	r2, r2, #16
  52 0018 C3F8D420 		str	r2, [r3, #212]
  53              		.loc 1 40 3 view .LVU6
  54 001c D3F8D430 		ldr	r3, [r3, #212]
  55 0020 03F01003 		and	r3, r3, #16
  56 0024 0093     		str	r3, [sp]
  57              		.loc 1 40 3 view .LVU7
  58 0026 009B     		ldr	r3, [sp]
  59              	.LBE2:
  60              		.loc 1 40 3 view .LVU8
  41:Core/Src/ltdc.c **** 
  42:Core/Src/ltdc.c ****   /* USER CODE END LTDC_Init 1 */
  43:Core/Src/ltdc.c ****   hltdc.Instance = LTDC;
  61              		.loc 1 43 3 view .LVU9
  62              		.loc 1 43 18 is_stmt 0 view .LVU10
  63 0028 3548     		ldr	r0, .L7+4
  64 002a 364B     		ldr	r3, .L7+8
  65 002c 0360     		str	r3, [r0]
  44:Core/Src/ltdc.c ****   hltdc.Init.HSPolarity = LTDC_HSPOLARITY_AL;
  66              		.loc 1 44 3 is_stmt 1 view .LVU11
  67              		.loc 1 44 25 is_stmt 0 view .LVU12
  68 002e 0023     		movs	r3, #0
  69 0030 4360     		str	r3, [r0, #4]
  45:Core/Src/ltdc.c ****   hltdc.Init.VSPolarity = LTDC_VSPOLARITY_AL;
  70              		.loc 1 45 3 is_stmt 1 view .LVU13
ARM GAS  C:\Users\OSD\AppData\Local\Temp\ccc4RS9g.s 			page 3


  71              		.loc 1 45 25 is_stmt 0 view .LVU14
  72 0032 8360     		str	r3, [r0, #8]
  46:Core/Src/ltdc.c ****   hltdc.Init.DEPolarity = LTDC_DEPOLARITY_AL;
  73              		.loc 1 46 3 is_stmt 1 view .LVU15
  74              		.loc 1 46 25 is_stmt 0 view .LVU16
  75 0034 C360     		str	r3, [r0, #12]
  47:Core/Src/ltdc.c ****   hltdc.Init.PCPolarity = LTDC_PCPOLARITY_IIPC;
  76              		.loc 1 47 3 is_stmt 1 view .LVU17
  77              		.loc 1 47 25 is_stmt 0 view .LVU18
  78 0036 4FF08052 		mov	r2, #268435456
  79 003a 0261     		str	r2, [r0, #16]
  48:Core/Src/ltdc.c ****   hltdc.Init.HorizontalSync = 1;
  80              		.loc 1 48 3 is_stmt 1 view .LVU19
  81              		.loc 1 48 29 is_stmt 0 view .LVU20
  82 003c 0122     		movs	r2, #1
  83 003e 4261     		str	r2, [r0, #20]
  49:Core/Src/ltdc.c ****   hltdc.Init.VerticalSync = 1;
  84              		.loc 1 49 3 is_stmt 1 view .LVU21
  85              		.loc 1 49 27 is_stmt 0 view .LVU22
  86 0040 8261     		str	r2, [r0, #24]
  50:Core/Src/ltdc.c ****   hltdc.Init.AccumulatedHBP = 15;
  87              		.loc 1 50 3 is_stmt 1 view .LVU23
  88              		.loc 1 50 29 is_stmt 0 view .LVU24
  89 0042 0F22     		movs	r2, #15
  90 0044 C261     		str	r2, [r0, #28]
  51:Core/Src/ltdc.c ****   hltdc.Init.AccumulatedVBP = 11;
  91              		.loc 1 51 3 is_stmt 1 view .LVU25
  92              		.loc 1 51 29 is_stmt 0 view .LVU26
  93 0046 0B22     		movs	r2, #11
  94 0048 0262     		str	r2, [r0, #32]
  52:Core/Src/ltdc.c ****   hltdc.Init.AccumulatedActiveW = 495;
  95              		.loc 1 52 3 is_stmt 1 view .LVU27
  96              		.loc 1 52 33 is_stmt 0 view .LVU28
  97 004a 40F2EF12 		movw	r2, #495
  98 004e 4262     		str	r2, [r0, #36]
  53:Core/Src/ltdc.c ****   hltdc.Init.AccumulatedActiveH = 651;
  99              		.loc 1 53 3 is_stmt 1 view .LVU29
 100              		.loc 1 53 33 is_stmt 0 view .LVU30
 101 0050 40F28B22 		movw	r2, #651
 102 0054 8262     		str	r2, [r0, #40]
  54:Core/Src/ltdc.c ****   hltdc.Init.TotalWidth = 503;
 103              		.loc 1 54 3 is_stmt 1 view .LVU31
 104              		.loc 1 54 25 is_stmt 0 view .LVU32
 105 0056 40F2F712 		movw	r2, #503
 106 005a C262     		str	r2, [r0, #44]
  55:Core/Src/ltdc.c ****   hltdc.Init.TotalHeigh = 659;
 107              		.loc 1 55 3 is_stmt 1 view .LVU33
 108              		.loc 1 55 25 is_stmt 0 view .LVU34
 109 005c 40F29322 		movw	r2, #659
 110 0060 0263     		str	r2, [r0, #48]
  56:Core/Src/ltdc.c ****   hltdc.Init.Backcolor.Blue = 0;
 111              		.loc 1 56 3 is_stmt 1 view .LVU35
 112              		.loc 1 56 29 is_stmt 0 view .LVU36
 113 0062 80F83430 		strb	r3, [r0, #52]
  57:Core/Src/ltdc.c ****   hltdc.Init.Backcolor.Green = 0;
 114              		.loc 1 57 3 is_stmt 1 view .LVU37
 115              		.loc 1 57 30 is_stmt 0 view .LVU38
ARM GAS  C:\Users\OSD\AppData\Local\Temp\ccc4RS9g.s 			page 4


 116 0066 80F83530 		strb	r3, [r0, #53]
  58:Core/Src/ltdc.c ****   hltdc.Init.Backcolor.Red = 0;
 117              		.loc 1 58 3 is_stmt 1 view .LVU39
 118              		.loc 1 58 28 is_stmt 0 view .LVU40
 119 006a 80F83630 		strb	r3, [r0, #54]
  59:Core/Src/ltdc.c ****   if (HAL_LTDC_Init(&hltdc) != HAL_OK)
 120              		.loc 1 59 3 is_stmt 1 view .LVU41
 121              		.loc 1 59 7 is_stmt 0 view .LVU42
 122 006e FFF7FEFF 		bl	HAL_LTDC_Init
 123              	.LVL1:
 124              		.loc 1 59 6 view .LVU43
 125 0072 0028     		cmp	r0, #0
 126 0074 3BD1     		bne	.L5
 127              	.L2:
  60:Core/Src/ltdc.c ****   {
  61:Core/Src/ltdc.c ****     Error_Handler();
  62:Core/Src/ltdc.c ****   }
  63:Core/Src/ltdc.c ****   pLayerCfg.WindowX0 = 0;
 128              		.loc 1 63 3 is_stmt 1 view .LVU44
 129              		.loc 1 63 22 is_stmt 0 view .LVU45
 130 0076 0022     		movs	r2, #0
 131 0078 0192     		str	r2, [sp, #4]
  64:Core/Src/ltdc.c ****   pLayerCfg.WindowX1 = 480;
 132              		.loc 1 64 3 is_stmt 1 view .LVU46
 133              		.loc 1 64 22 is_stmt 0 view .LVU47
 134 007a 4FF4F071 		mov	r1, #480
 135 007e 0291     		str	r1, [sp, #8]
  65:Core/Src/ltdc.c ****   pLayerCfg.WindowY0 = 0;
 136              		.loc 1 65 3 is_stmt 1 view .LVU48
 137              		.loc 1 65 22 is_stmt 0 view .LVU49
 138 0080 0392     		str	r2, [sp, #12]
  66:Core/Src/ltdc.c ****   pLayerCfg.WindowY1 = 640;
 139              		.loc 1 66 3 is_stmt 1 view .LVU50
 140              		.loc 1 66 22 is_stmt 0 view .LVU51
 141 0082 4FF42073 		mov	r3, #640
 142 0086 0493     		str	r3, [sp, #16]
  67:Core/Src/ltdc.c ****   pLayerCfg.PixelFormat = LTDC_PIXEL_FORMAT_ARGB8888;
 143              		.loc 1 67 3 is_stmt 1 view .LVU52
 144              		.loc 1 67 25 is_stmt 0 view .LVU53
 145 0088 0592     		str	r2, [sp, #20]
  68:Core/Src/ltdc.c ****   pLayerCfg.Alpha = 255;
 146              		.loc 1 68 3 is_stmt 1 view .LVU54
 147              		.loc 1 68 19 is_stmt 0 view .LVU55
 148 008a FF20     		movs	r0, #255
 149 008c 0690     		str	r0, [sp, #24]
  69:Core/Src/ltdc.c ****   pLayerCfg.Alpha0 = 0;
 150              		.loc 1 69 3 is_stmt 1 view .LVU56
 151              		.loc 1 69 20 is_stmt 0 view .LVU57
 152 008e 0792     		str	r2, [sp, #28]
  70:Core/Src/ltdc.c ****   pLayerCfg.BlendingFactor1 = LTDC_BLENDING_FACTOR1_CA;
 153              		.loc 1 70 3 is_stmt 1 view .LVU58
 154              		.loc 1 70 29 is_stmt 0 view .LVU59
 155 0090 4FF48060 		mov	r0, #1024
 156 0094 0890     		str	r0, [sp, #32]
  71:Core/Src/ltdc.c ****   pLayerCfg.BlendingFactor2 = LTDC_BLENDING_FACTOR2_CA;
 157              		.loc 1 71 3 is_stmt 1 view .LVU60
 158              		.loc 1 71 29 is_stmt 0 view .LVU61
ARM GAS  C:\Users\OSD\AppData\Local\Temp\ccc4RS9g.s 			page 5


 159 0096 0520     		movs	r0, #5
 160 0098 0990     		str	r0, [sp, #36]
  72:Core/Src/ltdc.c ****   pLayerCfg.FBStartAdress = 0xC0000000;
 161              		.loc 1 72 3 is_stmt 1 view .LVU62
 162              		.loc 1 72 27 is_stmt 0 view .LVU63
 163 009a 4FF04040 		mov	r0, #-1073741824
 164 009e 0A90     		str	r0, [sp, #40]
  73:Core/Src/ltdc.c ****   pLayerCfg.ImageWidth = 480;
 165              		.loc 1 73 3 is_stmt 1 view .LVU64
 166              		.loc 1 73 24 is_stmt 0 view .LVU65
 167 00a0 0B91     		str	r1, [sp, #44]
  74:Core/Src/ltdc.c ****   pLayerCfg.ImageHeight = 640;
 168              		.loc 1 74 3 is_stmt 1 view .LVU66
 169              		.loc 1 74 25 is_stmt 0 view .LVU67
 170 00a2 0C93     		str	r3, [sp, #48]
  75:Core/Src/ltdc.c ****   pLayerCfg.Backcolor.Blue = 0;
 171              		.loc 1 75 3 is_stmt 1 view .LVU68
 172              		.loc 1 75 28 is_stmt 0 view .LVU69
 173 00a4 8DF83420 		strb	r2, [sp, #52]
  76:Core/Src/ltdc.c ****   pLayerCfg.Backcolor.Green = 0;
 174              		.loc 1 76 3 is_stmt 1 view .LVU70
 175              		.loc 1 76 29 is_stmt 0 view .LVU71
 176 00a8 8DF83520 		strb	r2, [sp, #53]
  77:Core/Src/ltdc.c ****   pLayerCfg.Backcolor.Red = 0;
 177              		.loc 1 77 3 is_stmt 1 view .LVU72
 178              		.loc 1 77 27 is_stmt 0 view .LVU73
 179 00ac 8DF83620 		strb	r2, [sp, #54]
  78:Core/Src/ltdc.c ****   if (HAL_LTDC_ConfigLayer(&hltdc, &pLayerCfg, 0) != HAL_OK)
 180              		.loc 1 78 3 is_stmt 1 view .LVU74
 181              		.loc 1 78 7 is_stmt 0 view .LVU75
 182 00b0 01A9     		add	r1, sp, #4
 183 00b2 1348     		ldr	r0, .L7+4
 184 00b4 FFF7FEFF 		bl	HAL_LTDC_ConfigLayer
 185              	.LVL2:
 186              		.loc 1 78 6 view .LVU76
 187 00b8 E0B9     		cbnz	r0, .L6
 188              	.L3:
  79:Core/Src/ltdc.c ****   {
  80:Core/Src/ltdc.c ****     Error_Handler();
  81:Core/Src/ltdc.c ****   }
  82:Core/Src/ltdc.c ****   /* USER CODE BEGIN LTDC_Init 2 */
  83:Core/Src/ltdc.c **** 
  84:Core/Src/ltdc.c ****   // å› ä¸º743æ¯ä¸ªé€šé“çš„ä½Žä½éƒ½æ˜¯é‡‡ç”¨ä¼ªéšæœºæŠ–åŠ¨è¾“å‡ºï¼Œå¦‚æžœä¸å¼€å¯é¢œè‰²æŠ–åŠ¨ï
  85:Core/Src/ltdc.c **** 	HAL_LTDC_EnableDither(&hltdc); // å¼€å¯é¢œè‰²æŠ–åŠ¨
 189              		.loc 1 85 2 is_stmt 1 view .LVU77
 190 00ba 114C     		ldr	r4, .L7+4
 191 00bc 2046     		mov	r0, r4
 192 00be FFF7FEFF 		bl	HAL_LTDC_EnableDither
 193              	.LVL3:
  86:Core/Src/ltdc.c **** 	HAL_LTDC_ProgramLineEvent(&hltdc, 0 );			// è®¾ç½®è¡Œä¸­æ–­ï¼Œç¬¬0è¡Œ
 194              		.loc 1 86 2 view .LVU78
 195 00c2 0021     		movs	r1, #0
 196 00c4 2046     		mov	r0, r4
 197 00c6 FFF7FEFF 		bl	HAL_LTDC_ProgramLineEvent
 198              	.LVL4:
  87:Core/Src/ltdc.c **** 	HAL_NVIC_SetPriority(LTDC_IRQn, 0xE, 0);		// è®¾ç½®ä¼˜å…ˆçº§
 199              		.loc 1 87 2 view .LVU79
ARM GAS  C:\Users\OSD\AppData\Local\Temp\ccc4RS9g.s 			page 6


 200 00ca 0022     		movs	r2, #0
 201 00cc 0E21     		movs	r1, #14
 202 00ce 5820     		movs	r0, #88
 203 00d0 FFF7FEFF 		bl	HAL_NVIC_SetPriority
 204              	.LVL5:
  88:Core/Src/ltdc.c **** 	HAL_NVIC_EnableIRQ(LTDC_IRQn);					// ä½¿èƒ½ä¸­æ–­	
 205              		.loc 1 88 2 view .LVU80
 206 00d4 5820     		movs	r0, #88
 207 00d6 FFF7FEFF 		bl	HAL_NVIC_EnableIRQ
 208              	.LVL6:
  89:Core/Src/ltdc.c **** 
  90:Core/Src/ltdc.c ****   HAL_Delay(100);
 209              		.loc 1 90 3 view .LVU81
 210 00da 6420     		movs	r0, #100
 211 00dc FFF7FEFF 		bl	HAL_Delay
 212              	.LVL7:
  91:Core/Src/ltdc.c ****   HAL_GPIO_WritePin(LCD_BL_GPIO_Port, LCD_BL_Pin, SET);
 213              		.loc 1 91 3 view .LVU82
 214 00e0 0122     		movs	r2, #1
 215 00e2 4021     		movs	r1, #64
 216 00e4 0848     		ldr	r0, .L7+12
 217 00e6 FFF7FEFF 		bl	HAL_GPIO_WritePin
 218              	.LVL8:
  92:Core/Src/ltdc.c **** 
  93:Core/Src/ltdc.c ****   /* USER CODE END LTDC_Init 2 */
  94:Core/Src/ltdc.c **** 
  95:Core/Src/ltdc.c **** }
 219              		.loc 1 95 1 is_stmt 0 view .LVU83
 220 00ea 0EB0     		add	sp, sp, #56
 221              		.cfi_remember_state
 222              		.cfi_def_cfa_offset 8
 223              		@ sp needed
 224 00ec 10BD     		pop	{r4, pc}
 225              	.L5:
 226              		.cfi_restore_state
  61:Core/Src/ltdc.c ****   }
 227              		.loc 1 61 5 is_stmt 1 view .LVU84
 228 00ee FFF7FEFF 		bl	Error_Handler
 229              	.LVL9:
 230 00f2 C0E7     		b	.L2
 231              	.L6:
  80:Core/Src/ltdc.c ****   }
 232              		.loc 1 80 5 view .LVU85
 233 00f4 FFF7FEFF 		bl	Error_Handler
 234              	.LVL10:
 235 00f8 DFE7     		b	.L3
 236              	.L8:
 237 00fa 00BF     		.align	2
 238              	.L7:
 239 00fc 00440258 		.word	1476543488
 240 0100 00000000 		.word	.LANCHOR0
 241 0104 00100050 		.word	1342181376
 242 0108 001C0258 		.word	1476533248
 243              		.cfi_endproc
 244              	.LFE147:
 246              		.section	.text.HAL_LTDC_MspInit,"ax",%progbits
 247              		.align	1
ARM GAS  C:\Users\OSD\AppData\Local\Temp\ccc4RS9g.s 			page 7


 248              		.global	HAL_LTDC_MspInit
 249              		.syntax unified
 250              		.thumb
 251              		.thumb_func
 253              	HAL_LTDC_MspInit:
 254              	.LVL11:
 255              	.LFB148:
  96:Core/Src/ltdc.c **** 
  97:Core/Src/ltdc.c **** void HAL_LTDC_MspInit(LTDC_HandleTypeDef* ltdcHandle)
  98:Core/Src/ltdc.c **** {
 256              		.loc 1 98 1 view -0
 257              		.cfi_startproc
 258              		@ args = 0, pretend = 0, frame = 248
 259              		@ frame_needed = 0, uses_anonymous_args = 0
 260              		.loc 1 98 1 is_stmt 0 view .LVU87
 261 0000 F0B5     		push	{r4, r5, r6, r7, lr}
 262              		.cfi_def_cfa_offset 20
 263              		.cfi_offset 4, -20
 264              		.cfi_offset 5, -16
 265              		.cfi_offset 6, -12
 266              		.cfi_offset 7, -8
 267              		.cfi_offset 14, -4
 268 0002 BFB0     		sub	sp, sp, #252
 269              		.cfi_def_cfa_offset 272
 270 0004 0446     		mov	r4, r0
  99:Core/Src/ltdc.c **** 
 100:Core/Src/ltdc.c ****   GPIO_InitTypeDef GPIO_InitStruct = {0};
 271              		.loc 1 100 3 is_stmt 1 view .LVU88
 272              		.loc 1 100 20 is_stmt 0 view .LVU89
 273 0006 0021     		movs	r1, #0
 274 0008 3991     		str	r1, [sp, #228]
 275 000a 3A91     		str	r1, [sp, #232]
 276 000c 3B91     		str	r1, [sp, #236]
 277 000e 3C91     		str	r1, [sp, #240]
 278 0010 3D91     		str	r1, [sp, #244]
 101:Core/Src/ltdc.c ****   RCC_PeriphCLKInitTypeDef PeriphClkInitStruct = {0};
 279              		.loc 1 101 3 is_stmt 1 view .LVU90
 280              		.loc 1 101 28 is_stmt 0 view .LVU91
 281 0012 C022     		movs	r2, #192
 282 0014 08A8     		add	r0, sp, #32
 283              	.LVL12:
 284              		.loc 1 101 28 view .LVU92
 285 0016 FFF7FEFF 		bl	memset
 286              	.LVL13:
 102:Core/Src/ltdc.c ****   if(ltdcHandle->Instance==LTDC)
 287              		.loc 1 102 3 is_stmt 1 view .LVU93
 288              		.loc 1 102 16 is_stmt 0 view .LVU94
 289 001a 2268     		ldr	r2, [r4]
 290              		.loc 1 102 5 view .LVU95
 291 001c 714B     		ldr	r3, .L15
 292 001e 9A42     		cmp	r2, r3
 293 0020 01D0     		beq	.L13
 294              	.LVL14:
 295              	.L9:
 103:Core/Src/ltdc.c ****   {
 104:Core/Src/ltdc.c ****   /* USER CODE BEGIN LTDC_MspInit 0 */
 105:Core/Src/ltdc.c **** 
ARM GAS  C:\Users\OSD\AppData\Local\Temp\ccc4RS9g.s 			page 8


 106:Core/Src/ltdc.c ****   /* USER CODE END LTDC_MspInit 0 */
 107:Core/Src/ltdc.c **** 
 108:Core/Src/ltdc.c ****   /** Initializes the peripherals clock
 109:Core/Src/ltdc.c ****   */
 110:Core/Src/ltdc.c ****     PeriphClkInitStruct.PeriphClockSelection = RCC_PERIPHCLK_LTDC;
 111:Core/Src/ltdc.c ****     PeriphClkInitStruct.PLL3.PLL3M = 5;
 112:Core/Src/ltdc.c ****     PeriphClkInitStruct.PLL3.PLL3N = 100;
 113:Core/Src/ltdc.c ****     PeriphClkInitStruct.PLL3.PLL3P = 2;
 114:Core/Src/ltdc.c ****     PeriphClkInitStruct.PLL3.PLL3Q = 2;
 115:Core/Src/ltdc.c ****     PeriphClkInitStruct.PLL3.PLL3R = 20;
 116:Core/Src/ltdc.c ****     PeriphClkInitStruct.PLL3.PLL3RGE = RCC_PLL3VCIRANGE_2;
 117:Core/Src/ltdc.c ****     PeriphClkInitStruct.PLL3.PLL3VCOSEL = RCC_PLL3VCOWIDE;
 118:Core/Src/ltdc.c ****     PeriphClkInitStruct.PLL3.PLL3FRACN = 0;
 119:Core/Src/ltdc.c ****     if (HAL_RCCEx_PeriphCLKConfig(&PeriphClkInitStruct) != HAL_OK)
 120:Core/Src/ltdc.c ****     {
 121:Core/Src/ltdc.c ****       Error_Handler();
 122:Core/Src/ltdc.c ****     }
 123:Core/Src/ltdc.c **** 
 124:Core/Src/ltdc.c ****     /* LTDC clock enable */
 125:Core/Src/ltdc.c ****     __HAL_RCC_LTDC_CLK_ENABLE();
 126:Core/Src/ltdc.c **** 
 127:Core/Src/ltdc.c ****     __HAL_RCC_GPIOE_CLK_ENABLE();
 128:Core/Src/ltdc.c ****     __HAL_RCC_GPIOI_CLK_ENABLE();
 129:Core/Src/ltdc.c ****     __HAL_RCC_GPIOF_CLK_ENABLE();
 130:Core/Src/ltdc.c ****     __HAL_RCC_GPIOA_CLK_ENABLE();
 131:Core/Src/ltdc.c ****     __HAL_RCC_GPIOH_CLK_ENABLE();
 132:Core/Src/ltdc.c ****     __HAL_RCC_GPIOG_CLK_ENABLE();
 133:Core/Src/ltdc.c ****     __HAL_RCC_GPIOD_CLK_ENABLE();
 134:Core/Src/ltdc.c ****     /**LTDC GPIO Configuration
 135:Core/Src/ltdc.c ****     PE5     ------> LTDC_G0
 136:Core/Src/ltdc.c ****     PE6     ------> LTDC_G1
 137:Core/Src/ltdc.c ****     PI9     ------> LTDC_VSYNC
 138:Core/Src/ltdc.c ****     PI10     ------> LTDC_HSYNC
 139:Core/Src/ltdc.c ****     PF10     ------> LTDC_DE
 140:Core/Src/ltdc.c ****     PA2     ------> LTDC_R1
 141:Core/Src/ltdc.c ****     PH8     ------> LTDC_R2
 142:Core/Src/ltdc.c ****     PH9     ------> LTDC_R3
 143:Core/Src/ltdc.c ****     PH10     ------> LTDC_R4
 144:Core/Src/ltdc.c ****     PH11     ------> LTDC_R5
 145:Core/Src/ltdc.c ****     PH12     ------> LTDC_R6
 146:Core/Src/ltdc.c ****     PG6     ------> LTDC_R7
 147:Core/Src/ltdc.c ****     PG7     ------> LTDC_CLK
 148:Core/Src/ltdc.c ****     PA8     ------> LTDC_B3
 149:Core/Src/ltdc.c ****     PH13     ------> LTDC_G2
 150:Core/Src/ltdc.c ****     PH14     ------> LTDC_G3
 151:Core/Src/ltdc.c ****     PH15     ------> LTDC_G4
 152:Core/Src/ltdc.c ****     PI0     ------> LTDC_G5
 153:Core/Src/ltdc.c ****     PI1     ------> LTDC_G6
 154:Core/Src/ltdc.c ****     PI2     ------> LTDC_G7
 155:Core/Src/ltdc.c ****     PD6     ------> LTDC_B2
 156:Core/Src/ltdc.c ****     PG12     ------> LTDC_B1
 157:Core/Src/ltdc.c ****     PG13     ------> LTDC_R0
 158:Core/Src/ltdc.c ****     PG14     ------> LTDC_B0
 159:Core/Src/ltdc.c ****     PI4     ------> LTDC_B4
 160:Core/Src/ltdc.c ****     PI5     ------> LTDC_B5
 161:Core/Src/ltdc.c ****     PI6     ------> LTDC_B6
 162:Core/Src/ltdc.c ****     PI7     ------> LTDC_B7
ARM GAS  C:\Users\OSD\AppData\Local\Temp\ccc4RS9g.s 			page 9


 163:Core/Src/ltdc.c ****     */
 164:Core/Src/ltdc.c ****     GPIO_InitStruct.Pin = GPIO_PIN_5|GPIO_PIN_6;
 165:Core/Src/ltdc.c ****     GPIO_InitStruct.Mode = GPIO_MODE_AF_PP;
 166:Core/Src/ltdc.c ****     GPIO_InitStruct.Pull = GPIO_NOPULL;
 167:Core/Src/ltdc.c ****     GPIO_InitStruct.Speed = GPIO_SPEED_FREQ_LOW;
 168:Core/Src/ltdc.c ****     GPIO_InitStruct.Alternate = GPIO_AF14_LTDC;
 169:Core/Src/ltdc.c ****     HAL_GPIO_Init(GPIOE, &GPIO_InitStruct);
 170:Core/Src/ltdc.c **** 
 171:Core/Src/ltdc.c ****     GPIO_InitStruct.Pin = GPIO_PIN_9|GPIO_PIN_10|GPIO_PIN_0|GPIO_PIN_1
 172:Core/Src/ltdc.c ****                           |GPIO_PIN_2|GPIO_PIN_4|GPIO_PIN_5|GPIO_PIN_6
 173:Core/Src/ltdc.c ****                           |GPIO_PIN_7;
 174:Core/Src/ltdc.c ****     GPIO_InitStruct.Mode = GPIO_MODE_AF_PP;
 175:Core/Src/ltdc.c ****     GPIO_InitStruct.Pull = GPIO_NOPULL;
 176:Core/Src/ltdc.c ****     GPIO_InitStruct.Speed = GPIO_SPEED_FREQ_LOW;
 177:Core/Src/ltdc.c ****     GPIO_InitStruct.Alternate = GPIO_AF14_LTDC;
 178:Core/Src/ltdc.c ****     HAL_GPIO_Init(GPIOI, &GPIO_InitStruct);
 179:Core/Src/ltdc.c **** 
 180:Core/Src/ltdc.c ****     GPIO_InitStruct.Pin = GPIO_PIN_10;
 181:Core/Src/ltdc.c ****     GPIO_InitStruct.Mode = GPIO_MODE_AF_PP;
 182:Core/Src/ltdc.c ****     GPIO_InitStruct.Pull = GPIO_NOPULL;
 183:Core/Src/ltdc.c ****     GPIO_InitStruct.Speed = GPIO_SPEED_FREQ_LOW;
 184:Core/Src/ltdc.c ****     GPIO_InitStruct.Alternate = GPIO_AF14_LTDC;
 185:Core/Src/ltdc.c ****     HAL_GPIO_Init(GPIOF, &GPIO_InitStruct);
 186:Core/Src/ltdc.c **** 
 187:Core/Src/ltdc.c ****     GPIO_InitStruct.Pin = GPIO_PIN_2;
 188:Core/Src/ltdc.c ****     GPIO_InitStruct.Mode = GPIO_MODE_AF_PP;
 189:Core/Src/ltdc.c ****     GPIO_InitStruct.Pull = GPIO_NOPULL;
 190:Core/Src/ltdc.c ****     GPIO_InitStruct.Speed = GPIO_SPEED_FREQ_LOW;
 191:Core/Src/ltdc.c ****     GPIO_InitStruct.Alternate = GPIO_AF14_LTDC;
 192:Core/Src/ltdc.c ****     HAL_GPIO_Init(GPIOA, &GPIO_InitStruct);
 193:Core/Src/ltdc.c **** 
 194:Core/Src/ltdc.c ****     GPIO_InitStruct.Pin = GPIO_PIN_8|GPIO_PIN_9|GPIO_PIN_10|GPIO_PIN_11
 195:Core/Src/ltdc.c ****                           |GPIO_PIN_12|GPIO_PIN_13|GPIO_PIN_14|GPIO_PIN_15;
 196:Core/Src/ltdc.c ****     GPIO_InitStruct.Mode = GPIO_MODE_AF_PP;
 197:Core/Src/ltdc.c ****     GPIO_InitStruct.Pull = GPIO_NOPULL;
 198:Core/Src/ltdc.c ****     GPIO_InitStruct.Speed = GPIO_SPEED_FREQ_LOW;
 199:Core/Src/ltdc.c ****     GPIO_InitStruct.Alternate = GPIO_AF14_LTDC;
 200:Core/Src/ltdc.c ****     HAL_GPIO_Init(GPIOH, &GPIO_InitStruct);
 201:Core/Src/ltdc.c **** 
 202:Core/Src/ltdc.c ****     GPIO_InitStruct.Pin = GPIO_PIN_6|GPIO_PIN_7|GPIO_PIN_12|GPIO_PIN_13
 203:Core/Src/ltdc.c ****                           |GPIO_PIN_14;
 204:Core/Src/ltdc.c ****     GPIO_InitStruct.Mode = GPIO_MODE_AF_PP;
 205:Core/Src/ltdc.c ****     GPIO_InitStruct.Pull = GPIO_NOPULL;
 206:Core/Src/ltdc.c ****     GPIO_InitStruct.Speed = GPIO_SPEED_FREQ_LOW;
 207:Core/Src/ltdc.c ****     GPIO_InitStruct.Alternate = GPIO_AF14_LTDC;
 208:Core/Src/ltdc.c ****     HAL_GPIO_Init(GPIOG, &GPIO_InitStruct);
 209:Core/Src/ltdc.c **** 
 210:Core/Src/ltdc.c ****     GPIO_InitStruct.Pin = GPIO_PIN_8;
 211:Core/Src/ltdc.c ****     GPIO_InitStruct.Mode = GPIO_MODE_AF_PP;
 212:Core/Src/ltdc.c ****     GPIO_InitStruct.Pull = GPIO_NOPULL;
 213:Core/Src/ltdc.c ****     GPIO_InitStruct.Speed = GPIO_SPEED_FREQ_LOW;
 214:Core/Src/ltdc.c ****     GPIO_InitStruct.Alternate = GPIO_AF13_LTDC;
 215:Core/Src/ltdc.c ****     HAL_GPIO_Init(GPIOA, &GPIO_InitStruct);
 216:Core/Src/ltdc.c **** 
 217:Core/Src/ltdc.c ****     GPIO_InitStruct.Pin = GPIO_PIN_6;
 218:Core/Src/ltdc.c ****     GPIO_InitStruct.Mode = GPIO_MODE_AF_PP;
 219:Core/Src/ltdc.c ****     GPIO_InitStruct.Pull = GPIO_NOPULL;
ARM GAS  C:\Users\OSD\AppData\Local\Temp\ccc4RS9g.s 			page 10


 220:Core/Src/ltdc.c ****     GPIO_InitStruct.Speed = GPIO_SPEED_FREQ_LOW;
 221:Core/Src/ltdc.c ****     GPIO_InitStruct.Alternate = GPIO_AF14_LTDC;
 222:Core/Src/ltdc.c ****     HAL_GPIO_Init(GPIOD, &GPIO_InitStruct);
 223:Core/Src/ltdc.c **** 
 224:Core/Src/ltdc.c ****     /* LTDC interrupt Init */
 225:Core/Src/ltdc.c ****     HAL_NVIC_SetPriority(LTDC_IRQn, 0, 0);
 226:Core/Src/ltdc.c ****     HAL_NVIC_EnableIRQ(LTDC_IRQn);
 227:Core/Src/ltdc.c ****   /* USER CODE BEGIN LTDC_MspInit 1 */
 228:Core/Src/ltdc.c **** 
 229:Core/Src/ltdc.c ****   /* USER CODE END LTDC_MspInit 1 */
 230:Core/Src/ltdc.c ****   }
 231:Core/Src/ltdc.c **** }
 296              		.loc 1 231 1 view .LVU96
 297 0022 3FB0     		add	sp, sp, #252
 298              		.cfi_remember_state
 299              		.cfi_def_cfa_offset 20
 300              		@ sp needed
 301 0024 F0BD     		pop	{r4, r5, r6, r7, pc}
 302              	.LVL15:
 303              	.L13:
 304              		.cfi_restore_state
 110:Core/Src/ltdc.c ****     PeriphClkInitStruct.PLL3.PLL3M = 5;
 305              		.loc 1 110 5 is_stmt 1 view .LVU97
 110:Core/Src/ltdc.c ****     PeriphClkInitStruct.PLL3.PLL3M = 5;
 306              		.loc 1 110 46 is_stmt 0 view .LVU98
 307 0026 4FF00052 		mov	r2, #536870912
 308 002a 0023     		movs	r3, #0
 309 002c CDE90823 		strd	r2, [sp, #32]
 111:Core/Src/ltdc.c ****     PeriphClkInitStruct.PLL3.PLL3N = 100;
 310              		.loc 1 111 5 is_stmt 1 view .LVU99
 111:Core/Src/ltdc.c ****     PeriphClkInitStruct.PLL3.PLL3N = 100;
 311              		.loc 1 111 36 is_stmt 0 view .LVU100
 312 0030 0523     		movs	r3, #5
 313 0032 1293     		str	r3, [sp, #72]
 112:Core/Src/ltdc.c ****     PeriphClkInitStruct.PLL3.PLL3P = 2;
 314              		.loc 1 112 5 is_stmt 1 view .LVU101
 112:Core/Src/ltdc.c ****     PeriphClkInitStruct.PLL3.PLL3P = 2;
 315              		.loc 1 112 36 is_stmt 0 view .LVU102
 316 0034 6423     		movs	r3, #100
 317 0036 1393     		str	r3, [sp, #76]
 113:Core/Src/ltdc.c ****     PeriphClkInitStruct.PLL3.PLL3Q = 2;
 318              		.loc 1 113 5 is_stmt 1 view .LVU103
 113:Core/Src/ltdc.c ****     PeriphClkInitStruct.PLL3.PLL3Q = 2;
 319              		.loc 1 113 36 is_stmt 0 view .LVU104
 320 0038 0223     		movs	r3, #2
 321 003a 1493     		str	r3, [sp, #80]
 114:Core/Src/ltdc.c ****     PeriphClkInitStruct.PLL3.PLL3R = 20;
 322              		.loc 1 114 5 is_stmt 1 view .LVU105
 114:Core/Src/ltdc.c ****     PeriphClkInitStruct.PLL3.PLL3R = 20;
 323              		.loc 1 114 36 is_stmt 0 view .LVU106
 324 003c 1593     		str	r3, [sp, #84]
 115:Core/Src/ltdc.c ****     PeriphClkInitStruct.PLL3.PLL3RGE = RCC_PLL3VCIRANGE_2;
 325              		.loc 1 115 5 is_stmt 1 view .LVU107
 115:Core/Src/ltdc.c ****     PeriphClkInitStruct.PLL3.PLL3RGE = RCC_PLL3VCIRANGE_2;
 326              		.loc 1 115 36 is_stmt 0 view .LVU108
 327 003e 1423     		movs	r3, #20
 328 0040 1693     		str	r3, [sp, #88]
ARM GAS  C:\Users\OSD\AppData\Local\Temp\ccc4RS9g.s 			page 11


 116:Core/Src/ltdc.c ****     PeriphClkInitStruct.PLL3.PLL3VCOSEL = RCC_PLL3VCOWIDE;
 329              		.loc 1 116 5 is_stmt 1 view .LVU109
 116:Core/Src/ltdc.c ****     PeriphClkInitStruct.PLL3.PLL3VCOSEL = RCC_PLL3VCOWIDE;
 330              		.loc 1 116 38 is_stmt 0 view .LVU110
 331 0042 4FF40063 		mov	r3, #2048
 332 0046 1793     		str	r3, [sp, #92]
 117:Core/Src/ltdc.c ****     PeriphClkInitStruct.PLL3.PLL3FRACN = 0;
 333              		.loc 1 117 5 is_stmt 1 view .LVU111
 118:Core/Src/ltdc.c ****     if (HAL_RCCEx_PeriphCLKConfig(&PeriphClkInitStruct) != HAL_OK)
 334              		.loc 1 118 5 view .LVU112
 119:Core/Src/ltdc.c ****     {
 335              		.loc 1 119 5 view .LVU113
 119:Core/Src/ltdc.c ****     {
 336              		.loc 1 119 9 is_stmt 0 view .LVU114
 337 0048 08A8     		add	r0, sp, #32
 338 004a FFF7FEFF 		bl	HAL_RCCEx_PeriphCLKConfig
 339              	.LVL16:
 119:Core/Src/ltdc.c ****     {
 340              		.loc 1 119 8 view .LVU115
 341 004e 0028     		cmp	r0, #0
 342 0050 40F0C480 		bne	.L14
 343              	.L11:
 125:Core/Src/ltdc.c **** 
 344              		.loc 1 125 5 is_stmt 1 view .LVU116
 345              	.LBB3:
 125:Core/Src/ltdc.c **** 
 346              		.loc 1 125 5 view .LVU117
 125:Core/Src/ltdc.c **** 
 347              		.loc 1 125 5 view .LVU118
 348 0054 644B     		ldr	r3, .L15+4
 349 0056 D3F8E420 		ldr	r2, [r3, #228]
 350 005a 42F00802 		orr	r2, r2, #8
 351 005e C3F8E420 		str	r2, [r3, #228]
 125:Core/Src/ltdc.c **** 
 352              		.loc 1 125 5 view .LVU119
 353 0062 D3F8E420 		ldr	r2, [r3, #228]
 354 0066 02F00802 		and	r2, r2, #8
 355 006a 0092     		str	r2, [sp]
 125:Core/Src/ltdc.c **** 
 356              		.loc 1 125 5 view .LVU120
 357 006c 009A     		ldr	r2, [sp]
 358              	.LBE3:
 125:Core/Src/ltdc.c **** 
 359              		.loc 1 125 5 view .LVU121
 127:Core/Src/ltdc.c ****     __HAL_RCC_GPIOI_CLK_ENABLE();
 360              		.loc 1 127 5 view .LVU122
 361              	.LBB4:
 127:Core/Src/ltdc.c ****     __HAL_RCC_GPIOI_CLK_ENABLE();
 362              		.loc 1 127 5 view .LVU123
 127:Core/Src/ltdc.c ****     __HAL_RCC_GPIOI_CLK_ENABLE();
 363              		.loc 1 127 5 view .LVU124
 364 006e D3F8E020 		ldr	r2, [r3, #224]
 365 0072 42F01002 		orr	r2, r2, #16
 366 0076 C3F8E020 		str	r2, [r3, #224]
 127:Core/Src/ltdc.c ****     __HAL_RCC_GPIOI_CLK_ENABLE();
 367              		.loc 1 127 5 view .LVU125
 368 007a D3F8E020 		ldr	r2, [r3, #224]
ARM GAS  C:\Users\OSD\AppData\Local\Temp\ccc4RS9g.s 			page 12


 369 007e 02F01002 		and	r2, r2, #16
 370 0082 0192     		str	r2, [sp, #4]
 127:Core/Src/ltdc.c ****     __HAL_RCC_GPIOI_CLK_ENABLE();
 371              		.loc 1 127 5 view .LVU126
 372 0084 019A     		ldr	r2, [sp, #4]
 373              	.LBE4:
 127:Core/Src/ltdc.c ****     __HAL_RCC_GPIOI_CLK_ENABLE();
 374              		.loc 1 127 5 view .LVU127
 128:Core/Src/ltdc.c ****     __HAL_RCC_GPIOF_CLK_ENABLE();
 375              		.loc 1 128 5 view .LVU128
 376              	.LBB5:
 128:Core/Src/ltdc.c ****     __HAL_RCC_GPIOF_CLK_ENABLE();
 377              		.loc 1 128 5 view .LVU129
 128:Core/Src/ltdc.c ****     __HAL_RCC_GPIOF_CLK_ENABLE();
 378              		.loc 1 128 5 view .LVU130
 379 0086 D3F8E020 		ldr	r2, [r3, #224]
 380 008a 42F48072 		orr	r2, r2, #256
 381 008e C3F8E020 		str	r2, [r3, #224]
 128:Core/Src/ltdc.c ****     __HAL_RCC_GPIOF_CLK_ENABLE();
 382              		.loc 1 128 5 view .LVU131
 383 0092 D3F8E020 		ldr	r2, [r3, #224]
 384 0096 02F48072 		and	r2, r2, #256
 385 009a 0292     		str	r2, [sp, #8]
 128:Core/Src/ltdc.c ****     __HAL_RCC_GPIOF_CLK_ENABLE();
 386              		.loc 1 128 5 view .LVU132
 387 009c 029A     		ldr	r2, [sp, #8]
 388              	.LBE5:
 128:Core/Src/ltdc.c ****     __HAL_RCC_GPIOF_CLK_ENABLE();
 389              		.loc 1 128 5 view .LVU133
 129:Core/Src/ltdc.c ****     __HAL_RCC_GPIOA_CLK_ENABLE();
 390              		.loc 1 129 5 view .LVU134
 391              	.LBB6:
 129:Core/Src/ltdc.c ****     __HAL_RCC_GPIOA_CLK_ENABLE();
 392              		.loc 1 129 5 view .LVU135
 129:Core/Src/ltdc.c ****     __HAL_RCC_GPIOA_CLK_ENABLE();
 393              		.loc 1 129 5 view .LVU136
 394 009e D3F8E020 		ldr	r2, [r3, #224]
 395 00a2 42F02002 		orr	r2, r2, #32
 396 00a6 C3F8E020 		str	r2, [r3, #224]
 129:Core/Src/ltdc.c ****     __HAL_RCC_GPIOA_CLK_ENABLE();
 397              		.loc 1 129 5 view .LVU137
 398 00aa D3F8E020 		ldr	r2, [r3, #224]
 399 00ae 02F02002 		and	r2, r2, #32
 400 00b2 0392     		str	r2, [sp, #12]
 129:Core/Src/ltdc.c ****     __HAL_RCC_GPIOA_CLK_ENABLE();
 401              		.loc 1 129 5 view .LVU138
 402 00b4 039A     		ldr	r2, [sp, #12]
 403              	.LBE6:
 129:Core/Src/ltdc.c ****     __HAL_RCC_GPIOA_CLK_ENABLE();
 404              		.loc 1 129 5 view .LVU139
 130:Core/Src/ltdc.c ****     __HAL_RCC_GPIOH_CLK_ENABLE();
 405              		.loc 1 130 5 view .LVU140
 406              	.LBB7:
 130:Core/Src/ltdc.c ****     __HAL_RCC_GPIOH_CLK_ENABLE();
 407              		.loc 1 130 5 view .LVU141
 130:Core/Src/ltdc.c ****     __HAL_RCC_GPIOH_CLK_ENABLE();
 408              		.loc 1 130 5 view .LVU142
ARM GAS  C:\Users\OSD\AppData\Local\Temp\ccc4RS9g.s 			page 13


 409 00b6 D3F8E020 		ldr	r2, [r3, #224]
 410 00ba 42F00102 		orr	r2, r2, #1
 411 00be C3F8E020 		str	r2, [r3, #224]
 130:Core/Src/ltdc.c ****     __HAL_RCC_GPIOH_CLK_ENABLE();
 412              		.loc 1 130 5 view .LVU143
 413 00c2 D3F8E020 		ldr	r2, [r3, #224]
 414 00c6 02F00102 		and	r2, r2, #1
 415 00ca 0492     		str	r2, [sp, #16]
 130:Core/Src/ltdc.c ****     __HAL_RCC_GPIOH_CLK_ENABLE();
 416              		.loc 1 130 5 view .LVU144
 417 00cc 049A     		ldr	r2, [sp, #16]
 418              	.LBE7:
 130:Core/Src/ltdc.c ****     __HAL_RCC_GPIOH_CLK_ENABLE();
 419              		.loc 1 130 5 view .LVU145
 131:Core/Src/ltdc.c ****     __HAL_RCC_GPIOG_CLK_ENABLE();
 420              		.loc 1 131 5 view .LVU146
 421              	.LBB8:
 131:Core/Src/ltdc.c ****     __HAL_RCC_GPIOG_CLK_ENABLE();
 422              		.loc 1 131 5 view .LVU147
 131:Core/Src/ltdc.c ****     __HAL_RCC_GPIOG_CLK_ENABLE();
 423              		.loc 1 131 5 view .LVU148
 424 00ce D3F8E020 		ldr	r2, [r3, #224]
 425 00d2 42F08002 		orr	r2, r2, #128
 426 00d6 C3F8E020 		str	r2, [r3, #224]
 131:Core/Src/ltdc.c ****     __HAL_RCC_GPIOG_CLK_ENABLE();
 427              		.loc 1 131 5 view .LVU149
 428 00da D3F8E020 		ldr	r2, [r3, #224]
 429 00de 02F08002 		and	r2, r2, #128
 430 00e2 0592     		str	r2, [sp, #20]
 131:Core/Src/ltdc.c ****     __HAL_RCC_GPIOG_CLK_ENABLE();
 431              		.loc 1 131 5 view .LVU150
 432 00e4 059A     		ldr	r2, [sp, #20]
 433              	.LBE8:
 131:Core/Src/ltdc.c ****     __HAL_RCC_GPIOG_CLK_ENABLE();
 434              		.loc 1 131 5 view .LVU151
 132:Core/Src/ltdc.c ****     __HAL_RCC_GPIOD_CLK_ENABLE();
 435              		.loc 1 132 5 view .LVU152
 436              	.LBB9:
 132:Core/Src/ltdc.c ****     __HAL_RCC_GPIOD_CLK_ENABLE();
 437              		.loc 1 132 5 view .LVU153
 132:Core/Src/ltdc.c ****     __HAL_RCC_GPIOD_CLK_ENABLE();
 438              		.loc 1 132 5 view .LVU154
 439 00e6 D3F8E020 		ldr	r2, [r3, #224]
 440 00ea 42F04002 		orr	r2, r2, #64
 441 00ee C3F8E020 		str	r2, [r3, #224]
 132:Core/Src/ltdc.c ****     __HAL_RCC_GPIOD_CLK_ENABLE();
 442              		.loc 1 132 5 view .LVU155
 443 00f2 D3F8E020 		ldr	r2, [r3, #224]
 444 00f6 02F04002 		and	r2, r2, #64
 445 00fa 0692     		str	r2, [sp, #24]
 132:Core/Src/ltdc.c ****     __HAL_RCC_GPIOD_CLK_ENABLE();
 446              		.loc 1 132 5 view .LVU156
 447 00fc 069A     		ldr	r2, [sp, #24]
 448              	.LBE9:
 132:Core/Src/ltdc.c ****     __HAL_RCC_GPIOD_CLK_ENABLE();
 449              		.loc 1 132 5 view .LVU157
 133:Core/Src/ltdc.c ****     /**LTDC GPIO Configuration
ARM GAS  C:\Users\OSD\AppData\Local\Temp\ccc4RS9g.s 			page 14


 450              		.loc 1 133 5 view .LVU158
 451              	.LBB10:
 133:Core/Src/ltdc.c ****     /**LTDC GPIO Configuration
 452              		.loc 1 133 5 view .LVU159
 133:Core/Src/ltdc.c ****     /**LTDC GPIO Configuration
 453              		.loc 1 133 5 view .LVU160
 454 00fe D3F8E020 		ldr	r2, [r3, #224]
 455 0102 42F00802 		orr	r2, r2, #8
 456 0106 C3F8E020 		str	r2, [r3, #224]
 133:Core/Src/ltdc.c ****     /**LTDC GPIO Configuration
 457              		.loc 1 133 5 view .LVU161
 458 010a D3F8E030 		ldr	r3, [r3, #224]
 459 010e 03F00803 		and	r3, r3, #8
 460 0112 0793     		str	r3, [sp, #28]
 133:Core/Src/ltdc.c ****     /**LTDC GPIO Configuration
 461              		.loc 1 133 5 view .LVU162
 462 0114 079B     		ldr	r3, [sp, #28]
 463              	.LBE10:
 133:Core/Src/ltdc.c ****     /**LTDC GPIO Configuration
 464              		.loc 1 133 5 view .LVU163
 164:Core/Src/ltdc.c ****     GPIO_InitStruct.Mode = GPIO_MODE_AF_PP;
 465              		.loc 1 164 5 view .LVU164
 164:Core/Src/ltdc.c ****     GPIO_InitStruct.Mode = GPIO_MODE_AF_PP;
 466              		.loc 1 164 25 is_stmt 0 view .LVU165
 467 0116 6023     		movs	r3, #96
 468 0118 3993     		str	r3, [sp, #228]
 165:Core/Src/ltdc.c ****     GPIO_InitStruct.Pull = GPIO_NOPULL;
 469              		.loc 1 165 5 is_stmt 1 view .LVU166
 165:Core/Src/ltdc.c ****     GPIO_InitStruct.Pull = GPIO_NOPULL;
 470              		.loc 1 165 26 is_stmt 0 view .LVU167
 471 011a 0225     		movs	r5, #2
 472 011c 3A95     		str	r5, [sp, #232]
 166:Core/Src/ltdc.c ****     GPIO_InitStruct.Speed = GPIO_SPEED_FREQ_LOW;
 473              		.loc 1 166 5 is_stmt 1 view .LVU168
 166:Core/Src/ltdc.c ****     GPIO_InitStruct.Speed = GPIO_SPEED_FREQ_LOW;
 474              		.loc 1 166 26 is_stmt 0 view .LVU169
 475 011e 0024     		movs	r4, #0
 476              	.LVL17:
 166:Core/Src/ltdc.c ****     GPIO_InitStruct.Speed = GPIO_SPEED_FREQ_LOW;
 477              		.loc 1 166 26 view .LVU170
 478 0120 3B94     		str	r4, [sp, #236]
 167:Core/Src/ltdc.c ****     GPIO_InitStruct.Alternate = GPIO_AF14_LTDC;
 479              		.loc 1 167 5 is_stmt 1 view .LVU171
 167:Core/Src/ltdc.c ****     GPIO_InitStruct.Alternate = GPIO_AF14_LTDC;
 480              		.loc 1 167 27 is_stmt 0 view .LVU172
 481 0122 3C94     		str	r4, [sp, #240]
 168:Core/Src/ltdc.c ****     HAL_GPIO_Init(GPIOE, &GPIO_InitStruct);
 482              		.loc 1 168 5 is_stmt 1 view .LVU173
 168:Core/Src/ltdc.c ****     HAL_GPIO_Init(GPIOE, &GPIO_InitStruct);
 483              		.loc 1 168 31 is_stmt 0 view .LVU174
 484 0124 0E26     		movs	r6, #14
 485 0126 3D96     		str	r6, [sp, #244]
 169:Core/Src/ltdc.c **** 
 486              		.loc 1 169 5 is_stmt 1 view .LVU175
 487 0128 39A9     		add	r1, sp, #228
 488 012a 3048     		ldr	r0, .L15+8
 489 012c FFF7FEFF 		bl	HAL_GPIO_Init
ARM GAS  C:\Users\OSD\AppData\Local\Temp\ccc4RS9g.s 			page 15


 490              	.LVL18:
 171:Core/Src/ltdc.c ****                           |GPIO_PIN_2|GPIO_PIN_4|GPIO_PIN_5|GPIO_PIN_6
 491              		.loc 1 171 5 view .LVU176
 171:Core/Src/ltdc.c ****                           |GPIO_PIN_2|GPIO_PIN_4|GPIO_PIN_5|GPIO_PIN_6
 492              		.loc 1 171 25 is_stmt 0 view .LVU177
 493 0130 40F2F763 		movw	r3, #1783
 494 0134 3993     		str	r3, [sp, #228]
 174:Core/Src/ltdc.c ****     GPIO_InitStruct.Pull = GPIO_NOPULL;
 495              		.loc 1 174 5 is_stmt 1 view .LVU178
 174:Core/Src/ltdc.c ****     GPIO_InitStruct.Pull = GPIO_NOPULL;
 496              		.loc 1 174 26 is_stmt 0 view .LVU179
 497 0136 3A95     		str	r5, [sp, #232]
 175:Core/Src/ltdc.c ****     GPIO_InitStruct.Speed = GPIO_SPEED_FREQ_LOW;
 498              		.loc 1 175 5 is_stmt 1 view .LVU180
 175:Core/Src/ltdc.c ****     GPIO_InitStruct.Speed = GPIO_SPEED_FREQ_LOW;
 499              		.loc 1 175 26 is_stmt 0 view .LVU181
 500 0138 3B94     		str	r4, [sp, #236]
 176:Core/Src/ltdc.c ****     GPIO_InitStruct.Alternate = GPIO_AF14_LTDC;
 501              		.loc 1 176 5 is_stmt 1 view .LVU182
 176:Core/Src/ltdc.c ****     GPIO_InitStruct.Alternate = GPIO_AF14_LTDC;
 502              		.loc 1 176 27 is_stmt 0 view .LVU183
 503 013a 3C94     		str	r4, [sp, #240]
 177:Core/Src/ltdc.c ****     HAL_GPIO_Init(GPIOI, &GPIO_InitStruct);
 504              		.loc 1 177 5 is_stmt 1 view .LVU184
 177:Core/Src/ltdc.c ****     HAL_GPIO_Init(GPIOI, &GPIO_InitStruct);
 505              		.loc 1 177 31 is_stmt 0 view .LVU185
 506 013c 3D96     		str	r6, [sp, #244]
 178:Core/Src/ltdc.c **** 
 507              		.loc 1 178 5 is_stmt 1 view .LVU186
 508 013e 39A9     		add	r1, sp, #228
 509 0140 2B48     		ldr	r0, .L15+12
 510 0142 FFF7FEFF 		bl	HAL_GPIO_Init
 511              	.LVL19:
 180:Core/Src/ltdc.c ****     GPIO_InitStruct.Mode = GPIO_MODE_AF_PP;
 512              		.loc 1 180 5 view .LVU187
 180:Core/Src/ltdc.c ****     GPIO_InitStruct.Mode = GPIO_MODE_AF_PP;
 513              		.loc 1 180 25 is_stmt 0 view .LVU188
 514 0146 4FF48063 		mov	r3, #1024
 515 014a 3993     		str	r3, [sp, #228]
 181:Core/Src/ltdc.c ****     GPIO_InitStruct.Pull = GPIO_NOPULL;
 516              		.loc 1 181 5 is_stmt 1 view .LVU189
 181:Core/Src/ltdc.c ****     GPIO_InitStruct.Pull = GPIO_NOPULL;
 517              		.loc 1 181 26 is_stmt 0 view .LVU190
 518 014c 3A95     		str	r5, [sp, #232]
 182:Core/Src/ltdc.c ****     GPIO_InitStruct.Speed = GPIO_SPEED_FREQ_LOW;
 519              		.loc 1 182 5 is_stmt 1 view .LVU191
 182:Core/Src/ltdc.c ****     GPIO_InitStruct.Speed = GPIO_SPEED_FREQ_LOW;
 520              		.loc 1 182 26 is_stmt 0 view .LVU192
 521 014e 3B94     		str	r4, [sp, #236]
 183:Core/Src/ltdc.c ****     GPIO_InitStruct.Alternate = GPIO_AF14_LTDC;
 522              		.loc 1 183 5 is_stmt 1 view .LVU193
 183:Core/Src/ltdc.c ****     GPIO_InitStruct.Alternate = GPIO_AF14_LTDC;
 523              		.loc 1 183 27 is_stmt 0 view .LVU194
 524 0150 3C94     		str	r4, [sp, #240]
 184:Core/Src/ltdc.c ****     HAL_GPIO_Init(GPIOF, &GPIO_InitStruct);
 525              		.loc 1 184 5 is_stmt 1 view .LVU195
 184:Core/Src/ltdc.c ****     HAL_GPIO_Init(GPIOF, &GPIO_InitStruct);
ARM GAS  C:\Users\OSD\AppData\Local\Temp\ccc4RS9g.s 			page 16


 526              		.loc 1 184 31 is_stmt 0 view .LVU196
 527 0152 3D96     		str	r6, [sp, #244]
 185:Core/Src/ltdc.c **** 
 528              		.loc 1 185 5 is_stmt 1 view .LVU197
 529 0154 39A9     		add	r1, sp, #228
 530 0156 2748     		ldr	r0, .L15+16
 531 0158 FFF7FEFF 		bl	HAL_GPIO_Init
 532              	.LVL20:
 187:Core/Src/ltdc.c ****     GPIO_InitStruct.Mode = GPIO_MODE_AF_PP;
 533              		.loc 1 187 5 view .LVU198
 187:Core/Src/ltdc.c ****     GPIO_InitStruct.Mode = GPIO_MODE_AF_PP;
 534              		.loc 1 187 25 is_stmt 0 view .LVU199
 535 015c 0423     		movs	r3, #4
 536 015e 3993     		str	r3, [sp, #228]
 188:Core/Src/ltdc.c ****     GPIO_InitStruct.Pull = GPIO_NOPULL;
 537              		.loc 1 188 5 is_stmt 1 view .LVU200
 188:Core/Src/ltdc.c ****     GPIO_InitStruct.Pull = GPIO_NOPULL;
 538              		.loc 1 188 26 is_stmt 0 view .LVU201
 539 0160 3A95     		str	r5, [sp, #232]
 189:Core/Src/ltdc.c ****     GPIO_InitStruct.Speed = GPIO_SPEED_FREQ_LOW;
 540              		.loc 1 189 5 is_stmt 1 view .LVU202
 189:Core/Src/ltdc.c ****     GPIO_InitStruct.Speed = GPIO_SPEED_FREQ_LOW;
 541              		.loc 1 189 26 is_stmt 0 view .LVU203
 542 0162 3B94     		str	r4, [sp, #236]
 190:Core/Src/ltdc.c ****     GPIO_InitStruct.Alternate = GPIO_AF14_LTDC;
 543              		.loc 1 190 5 is_stmt 1 view .LVU204
 190:Core/Src/ltdc.c ****     GPIO_InitStruct.Alternate = GPIO_AF14_LTDC;
 544              		.loc 1 190 27 is_stmt 0 view .LVU205
 545 0164 3C94     		str	r4, [sp, #240]
 191:Core/Src/ltdc.c ****     HAL_GPIO_Init(GPIOA, &GPIO_InitStruct);
 546              		.loc 1 191 5 is_stmt 1 view .LVU206
 191:Core/Src/ltdc.c ****     HAL_GPIO_Init(GPIOA, &GPIO_InitStruct);
 547              		.loc 1 191 31 is_stmt 0 view .LVU207
 548 0166 3D96     		str	r6, [sp, #244]
 192:Core/Src/ltdc.c **** 
 549              		.loc 1 192 5 is_stmt 1 view .LVU208
 550 0168 234F     		ldr	r7, .L15+20
 551 016a 39A9     		add	r1, sp, #228
 552 016c 3846     		mov	r0, r7
 553 016e FFF7FEFF 		bl	HAL_GPIO_Init
 554              	.LVL21:
 194:Core/Src/ltdc.c ****                           |GPIO_PIN_12|GPIO_PIN_13|GPIO_PIN_14|GPIO_PIN_15;
 555              		.loc 1 194 5 view .LVU209
 194:Core/Src/ltdc.c ****                           |GPIO_PIN_12|GPIO_PIN_13|GPIO_PIN_14|GPIO_PIN_15;
 556              		.loc 1 194 25 is_stmt 0 view .LVU210
 557 0172 4FF47F43 		mov	r3, #65280
 558 0176 3993     		str	r3, [sp, #228]
 196:Core/Src/ltdc.c ****     GPIO_InitStruct.Pull = GPIO_NOPULL;
 559              		.loc 1 196 5 is_stmt 1 view .LVU211
 196:Core/Src/ltdc.c ****     GPIO_InitStruct.Pull = GPIO_NOPULL;
 560              		.loc 1 196 26 is_stmt 0 view .LVU212
 561 0178 3A95     		str	r5, [sp, #232]
 197:Core/Src/ltdc.c ****     GPIO_InitStruct.Speed = GPIO_SPEED_FREQ_LOW;
 562              		.loc 1 197 5 is_stmt 1 view .LVU213
 197:Core/Src/ltdc.c ****     GPIO_InitStruct.Speed = GPIO_SPEED_FREQ_LOW;
 563              		.loc 1 197 26 is_stmt 0 view .LVU214
 564 017a 3B94     		str	r4, [sp, #236]
ARM GAS  C:\Users\OSD\AppData\Local\Temp\ccc4RS9g.s 			page 17


 198:Core/Src/ltdc.c ****     GPIO_InitStruct.Alternate = GPIO_AF14_LTDC;
 565              		.loc 1 198 5 is_stmt 1 view .LVU215
 198:Core/Src/ltdc.c ****     GPIO_InitStruct.Alternate = GPIO_AF14_LTDC;
 566              		.loc 1 198 27 is_stmt 0 view .LVU216
 567 017c 3C94     		str	r4, [sp, #240]
 199:Core/Src/ltdc.c ****     HAL_GPIO_Init(GPIOH, &GPIO_InitStruct);
 568              		.loc 1 199 5 is_stmt 1 view .LVU217
 199:Core/Src/ltdc.c ****     HAL_GPIO_Init(GPIOH, &GPIO_InitStruct);
 569              		.loc 1 199 31 is_stmt 0 view .LVU218
 570 017e 3D96     		str	r6, [sp, #244]
 200:Core/Src/ltdc.c **** 
 571              		.loc 1 200 5 is_stmt 1 view .LVU219
 572 0180 39A9     		add	r1, sp, #228
 573 0182 1E48     		ldr	r0, .L15+24
 574 0184 FFF7FEFF 		bl	HAL_GPIO_Init
 575              	.LVL22:
 202:Core/Src/ltdc.c ****                           |GPIO_PIN_14;
 576              		.loc 1 202 5 view .LVU220
 202:Core/Src/ltdc.c ****                           |GPIO_PIN_14;
 577              		.loc 1 202 25 is_stmt 0 view .LVU221
 578 0188 47F2C003 		movw	r3, #28864
 579 018c 3993     		str	r3, [sp, #228]
 204:Core/Src/ltdc.c ****     GPIO_InitStruct.Pull = GPIO_NOPULL;
 580              		.loc 1 204 5 is_stmt 1 view .LVU222
 204:Core/Src/ltdc.c ****     GPIO_InitStruct.Pull = GPIO_NOPULL;
 581              		.loc 1 204 26 is_stmt 0 view .LVU223
 582 018e 3A95     		str	r5, [sp, #232]
 205:Core/Src/ltdc.c ****     GPIO_InitStruct.Speed = GPIO_SPEED_FREQ_LOW;
 583              		.loc 1 205 5 is_stmt 1 view .LVU224
 205:Core/Src/ltdc.c ****     GPIO_InitStruct.Speed = GPIO_SPEED_FREQ_LOW;
 584              		.loc 1 205 26 is_stmt 0 view .LVU225
 585 0190 3B94     		str	r4, [sp, #236]
 206:Core/Src/ltdc.c ****     GPIO_InitStruct.Alternate = GPIO_AF14_LTDC;
 586              		.loc 1 206 5 is_stmt 1 view .LVU226
 206:Core/Src/ltdc.c ****     GPIO_InitStruct.Alternate = GPIO_AF14_LTDC;
 587              		.loc 1 206 27 is_stmt 0 view .LVU227
 588 0192 3C94     		str	r4, [sp, #240]
 207:Core/Src/ltdc.c ****     HAL_GPIO_Init(GPIOG, &GPIO_InitStruct);
 589              		.loc 1 207 5 is_stmt 1 view .LVU228
 207:Core/Src/ltdc.c ****     HAL_GPIO_Init(GPIOG, &GPIO_InitStruct);
 590              		.loc 1 207 31 is_stmt 0 view .LVU229
 591 0194 3D96     		str	r6, [sp, #244]
 208:Core/Src/ltdc.c **** 
 592              		.loc 1 208 5 is_stmt 1 view .LVU230
 593 0196 39A9     		add	r1, sp, #228
 594 0198 1948     		ldr	r0, .L15+28
 595 019a FFF7FEFF 		bl	HAL_GPIO_Init
 596              	.LVL23:
 210:Core/Src/ltdc.c ****     GPIO_InitStruct.Mode = GPIO_MODE_AF_PP;
 597              		.loc 1 210 5 view .LVU231
 210:Core/Src/ltdc.c ****     GPIO_InitStruct.Mode = GPIO_MODE_AF_PP;
 598              		.loc 1 210 25 is_stmt 0 view .LVU232
 599 019e 4FF48073 		mov	r3, #256
 600 01a2 3993     		str	r3, [sp, #228]
 211:Core/Src/ltdc.c ****     GPIO_InitStruct.Pull = GPIO_NOPULL;
 601              		.loc 1 211 5 is_stmt 1 view .LVU233
 211:Core/Src/ltdc.c ****     GPIO_InitStruct.Pull = GPIO_NOPULL;
ARM GAS  C:\Users\OSD\AppData\Local\Temp\ccc4RS9g.s 			page 18


 602              		.loc 1 211 26 is_stmt 0 view .LVU234
 603 01a4 3A95     		str	r5, [sp, #232]
 212:Core/Src/ltdc.c ****     GPIO_InitStruct.Speed = GPIO_SPEED_FREQ_LOW;
 604              		.loc 1 212 5 is_stmt 1 view .LVU235
 212:Core/Src/ltdc.c ****     GPIO_InitStruct.Speed = GPIO_SPEED_FREQ_LOW;
 605              		.loc 1 212 26 is_stmt 0 view .LVU236
 606 01a6 3B94     		str	r4, [sp, #236]
 213:Core/Src/ltdc.c ****     GPIO_InitStruct.Alternate = GPIO_AF13_LTDC;
 607              		.loc 1 213 5 is_stmt 1 view .LVU237
 213:Core/Src/ltdc.c ****     GPIO_InitStruct.Alternate = GPIO_AF13_LTDC;
 608              		.loc 1 213 27 is_stmt 0 view .LVU238
 609 01a8 3C94     		str	r4, [sp, #240]
 214:Core/Src/ltdc.c ****     HAL_GPIO_Init(GPIOA, &GPIO_InitStruct);
 610              		.loc 1 214 5 is_stmt 1 view .LVU239
 214:Core/Src/ltdc.c ****     HAL_GPIO_Init(GPIOA, &GPIO_InitStruct);
 611              		.loc 1 214 31 is_stmt 0 view .LVU240
 612 01aa 0D23     		movs	r3, #13
 613 01ac 3D93     		str	r3, [sp, #244]
 215:Core/Src/ltdc.c **** 
 614              		.loc 1 215 5 is_stmt 1 view .LVU241
 615 01ae 39A9     		add	r1, sp, #228
 616 01b0 3846     		mov	r0, r7
 617 01b2 FFF7FEFF 		bl	HAL_GPIO_Init
 618              	.LVL24:
 217:Core/Src/ltdc.c ****     GPIO_InitStruct.Mode = GPIO_MODE_AF_PP;
 619              		.loc 1 217 5 view .LVU242
 217:Core/Src/ltdc.c ****     GPIO_InitStruct.Mode = GPIO_MODE_AF_PP;
 620              		.loc 1 217 25 is_stmt 0 view .LVU243
 621 01b6 4023     		movs	r3, #64
 622 01b8 3993     		str	r3, [sp, #228]
 218:Core/Src/ltdc.c ****     GPIO_InitStruct.Pull = GPIO_NOPULL;
 623              		.loc 1 218 5 is_stmt 1 view .LVU244
 218:Core/Src/ltdc.c ****     GPIO_InitStruct.Pull = GPIO_NOPULL;
 624              		.loc 1 218 26 is_stmt 0 view .LVU245
 625 01ba 3A95     		str	r5, [sp, #232]
 219:Core/Src/ltdc.c ****     GPIO_InitStruct.Speed = GPIO_SPEED_FREQ_LOW;
 626              		.loc 1 219 5 is_stmt 1 view .LVU246
 219:Core/Src/ltdc.c ****     GPIO_InitStruct.Speed = GPIO_SPEED_FREQ_LOW;
 627              		.loc 1 219 26 is_stmt 0 view .LVU247
 628 01bc 3B94     		str	r4, [sp, #236]
 220:Core/Src/ltdc.c ****     GPIO_InitStruct.Alternate = GPIO_AF14_LTDC;
 629              		.loc 1 220 5 is_stmt 1 view .LVU248
 220:Core/Src/ltdc.c ****     GPIO_InitStruct.Alternate = GPIO_AF14_LTDC;
 630              		.loc 1 220 27 is_stmt 0 view .LVU249
 631 01be 3C94     		str	r4, [sp, #240]
 221:Core/Src/ltdc.c ****     HAL_GPIO_Init(GPIOD, &GPIO_InitStruct);
 632              		.loc 1 221 5 is_stmt 1 view .LVU250
 221:Core/Src/ltdc.c ****     HAL_GPIO_Init(GPIOD, &GPIO_InitStruct);
 633              		.loc 1 221 31 is_stmt 0 view .LVU251
 634 01c0 3D96     		str	r6, [sp, #244]
 222:Core/Src/ltdc.c **** 
 635              		.loc 1 222 5 is_stmt 1 view .LVU252
 636 01c2 39A9     		add	r1, sp, #228
 637 01c4 0F48     		ldr	r0, .L15+32
 638 01c6 FFF7FEFF 		bl	HAL_GPIO_Init
 639              	.LVL25:
 225:Core/Src/ltdc.c ****     HAL_NVIC_EnableIRQ(LTDC_IRQn);
ARM GAS  C:\Users\OSD\AppData\Local\Temp\ccc4RS9g.s 			page 19


 640              		.loc 1 225 5 view .LVU253
 641 01ca 2246     		mov	r2, r4
 642 01cc 2146     		mov	r1, r4
 643 01ce 5820     		movs	r0, #88
 644 01d0 FFF7FEFF 		bl	HAL_NVIC_SetPriority
 645              	.LVL26:
 226:Core/Src/ltdc.c ****   /* USER CODE BEGIN LTDC_MspInit 1 */
 646              		.loc 1 226 5 view .LVU254
 647 01d4 5820     		movs	r0, #88
 648 01d6 FFF7FEFF 		bl	HAL_NVIC_EnableIRQ
 649              	.LVL27:
 650              		.loc 1 231 1 is_stmt 0 view .LVU255
 651 01da 22E7     		b	.L9
 652              	.LVL28:
 653              	.L14:
 121:Core/Src/ltdc.c ****     }
 654              		.loc 1 121 7 is_stmt 1 view .LVU256
 655 01dc FFF7FEFF 		bl	Error_Handler
 656              	.LVL29:
 657 01e0 38E7     		b	.L11
 658              	.L16:
 659 01e2 00BF     		.align	2
 660              	.L15:
 661 01e4 00100050 		.word	1342181376
 662 01e8 00440258 		.word	1476543488
 663 01ec 00100258 		.word	1476530176
 664 01f0 00200258 		.word	1476534272
 665 01f4 00140258 		.word	1476531200
 666 01f8 00000258 		.word	1476526080
 667 01fc 001C0258 		.word	1476533248
 668 0200 00180258 		.word	1476532224
 669 0204 000C0258 		.word	1476529152
 670              		.cfi_endproc
 671              	.LFE148:
 673              		.section	.text.HAL_LTDC_MspDeInit,"ax",%progbits
 674              		.align	1
 675              		.global	HAL_LTDC_MspDeInit
 676              		.syntax unified
 677              		.thumb
 678              		.thumb_func
 680              	HAL_LTDC_MspDeInit:
 681              	.LVL30:
 682              	.LFB149:
 232:Core/Src/ltdc.c **** 
 233:Core/Src/ltdc.c **** void HAL_LTDC_MspDeInit(LTDC_HandleTypeDef* ltdcHandle)
 234:Core/Src/ltdc.c **** {
 683              		.loc 1 234 1 view -0
 684              		.cfi_startproc
 685              		@ args = 0, pretend = 0, frame = 0
 686              		@ frame_needed = 0, uses_anonymous_args = 0
 687              		.loc 1 234 1 is_stmt 0 view .LVU258
 688 0000 08B5     		push	{r3, lr}
 689              		.cfi_def_cfa_offset 8
 690              		.cfi_offset 3, -8
 691              		.cfi_offset 14, -4
 235:Core/Src/ltdc.c **** 
 236:Core/Src/ltdc.c ****   if(ltdcHandle->Instance==LTDC)
ARM GAS  C:\Users\OSD\AppData\Local\Temp\ccc4RS9g.s 			page 20


 692              		.loc 1 236 3 is_stmt 1 view .LVU259
 693              		.loc 1 236 16 is_stmt 0 view .LVU260
 694 0002 0268     		ldr	r2, [r0]
 695              		.loc 1 236 5 view .LVU261
 696 0004 174B     		ldr	r3, .L21
 697 0006 9A42     		cmp	r2, r3
 698 0008 00D0     		beq	.L20
 699              	.LVL31:
 700              	.L17:
 237:Core/Src/ltdc.c ****   {
 238:Core/Src/ltdc.c ****   /* USER CODE BEGIN LTDC_MspDeInit 0 */
 239:Core/Src/ltdc.c **** 
 240:Core/Src/ltdc.c ****   /* USER CODE END LTDC_MspDeInit 0 */
 241:Core/Src/ltdc.c ****     /* Peripheral clock disable */
 242:Core/Src/ltdc.c ****     __HAL_RCC_LTDC_CLK_DISABLE();
 243:Core/Src/ltdc.c **** 
 244:Core/Src/ltdc.c ****     /**LTDC GPIO Configuration
 245:Core/Src/ltdc.c ****     PE5     ------> LTDC_G0
 246:Core/Src/ltdc.c ****     PE6     ------> LTDC_G1
 247:Core/Src/ltdc.c ****     PI9     ------> LTDC_VSYNC
 248:Core/Src/ltdc.c ****     PI10     ------> LTDC_HSYNC
 249:Core/Src/ltdc.c ****     PF10     ------> LTDC_DE
 250:Core/Src/ltdc.c ****     PA2     ------> LTDC_R1
 251:Core/Src/ltdc.c ****     PH8     ------> LTDC_R2
 252:Core/Src/ltdc.c ****     PH9     ------> LTDC_R3
 253:Core/Src/ltdc.c ****     PH10     ------> LTDC_R4
 254:Core/Src/ltdc.c ****     PH11     ------> LTDC_R5
 255:Core/Src/ltdc.c ****     PH12     ------> LTDC_R6
 256:Core/Src/ltdc.c ****     PG6     ------> LTDC_R7
 257:Core/Src/ltdc.c ****     PG7     ------> LTDC_CLK
 258:Core/Src/ltdc.c ****     PA8     ------> LTDC_B3
 259:Core/Src/ltdc.c ****     PH13     ------> LTDC_G2
 260:Core/Src/ltdc.c ****     PH14     ------> LTDC_G3
 261:Core/Src/ltdc.c ****     PH15     ------> LTDC_G4
 262:Core/Src/ltdc.c ****     PI0     ------> LTDC_G5
 263:Core/Src/ltdc.c ****     PI1     ------> LTDC_G6
 264:Core/Src/ltdc.c ****     PI2     ------> LTDC_G7
 265:Core/Src/ltdc.c ****     PD6     ------> LTDC_B2
 266:Core/Src/ltdc.c ****     PG12     ------> LTDC_B1
 267:Core/Src/ltdc.c ****     PG13     ------> LTDC_R0
 268:Core/Src/ltdc.c ****     PG14     ------> LTDC_B0
 269:Core/Src/ltdc.c ****     PI4     ------> LTDC_B4
 270:Core/Src/ltdc.c ****     PI5     ------> LTDC_B5
 271:Core/Src/ltdc.c ****     PI6     ------> LTDC_B6
 272:Core/Src/ltdc.c ****     PI7     ------> LTDC_B7
 273:Core/Src/ltdc.c ****     */
 274:Core/Src/ltdc.c ****     HAL_GPIO_DeInit(GPIOE, GPIO_PIN_5|GPIO_PIN_6);
 275:Core/Src/ltdc.c **** 
 276:Core/Src/ltdc.c ****     HAL_GPIO_DeInit(GPIOI, GPIO_PIN_9|GPIO_PIN_10|GPIO_PIN_0|GPIO_PIN_1
 277:Core/Src/ltdc.c ****                           |GPIO_PIN_2|GPIO_PIN_4|GPIO_PIN_5|GPIO_PIN_6
 278:Core/Src/ltdc.c ****                           |GPIO_PIN_7);
 279:Core/Src/ltdc.c **** 
 280:Core/Src/ltdc.c ****     HAL_GPIO_DeInit(GPIOF, GPIO_PIN_10);
 281:Core/Src/ltdc.c **** 
 282:Core/Src/ltdc.c ****     HAL_GPIO_DeInit(GPIOA, GPIO_PIN_2|GPIO_PIN_8);
 283:Core/Src/ltdc.c **** 
 284:Core/Src/ltdc.c ****     HAL_GPIO_DeInit(GPIOH, GPIO_PIN_8|GPIO_PIN_9|GPIO_PIN_10|GPIO_PIN_11
ARM GAS  C:\Users\OSD\AppData\Local\Temp\ccc4RS9g.s 			page 21


 285:Core/Src/ltdc.c ****                           |GPIO_PIN_12|GPIO_PIN_13|GPIO_PIN_14|GPIO_PIN_15);
 286:Core/Src/ltdc.c **** 
 287:Core/Src/ltdc.c ****     HAL_GPIO_DeInit(GPIOG, GPIO_PIN_6|GPIO_PIN_7|GPIO_PIN_12|GPIO_PIN_13
 288:Core/Src/ltdc.c ****                           |GPIO_PIN_14);
 289:Core/Src/ltdc.c **** 
 290:Core/Src/ltdc.c ****     HAL_GPIO_DeInit(GPIOD, GPIO_PIN_6);
 291:Core/Src/ltdc.c **** 
 292:Core/Src/ltdc.c ****     /* LTDC interrupt Deinit */
 293:Core/Src/ltdc.c ****     HAL_NVIC_DisableIRQ(LTDC_IRQn);
 294:Core/Src/ltdc.c ****   /* USER CODE BEGIN LTDC_MspDeInit 1 */
 295:Core/Src/ltdc.c **** 
 296:Core/Src/ltdc.c ****   /* USER CODE END LTDC_MspDeInit 1 */
 297:Core/Src/ltdc.c ****   }
 298:Core/Src/ltdc.c **** }
 701              		.loc 1 298 1 view .LVU262
 702 000a 08BD     		pop	{r3, pc}
 703              	.LVL32:
 704              	.L20:
 242:Core/Src/ltdc.c **** 
 705              		.loc 1 242 5 is_stmt 1 view .LVU263
 706 000c 164A     		ldr	r2, .L21+4
 707 000e D2F8E430 		ldr	r3, [r2, #228]
 708 0012 23F00803 		bic	r3, r3, #8
 709 0016 C2F8E430 		str	r3, [r2, #228]
 274:Core/Src/ltdc.c **** 
 710              		.loc 1 274 5 view .LVU264
 711 001a 6021     		movs	r1, #96
 712 001c 1348     		ldr	r0, .L21+8
 713              	.LVL33:
 274:Core/Src/ltdc.c **** 
 714              		.loc 1 274 5 is_stmt 0 view .LVU265
 715 001e FFF7FEFF 		bl	HAL_GPIO_DeInit
 716              	.LVL34:
 276:Core/Src/ltdc.c ****                           |GPIO_PIN_2|GPIO_PIN_4|GPIO_PIN_5|GPIO_PIN_6
 717              		.loc 1 276 5 is_stmt 1 view .LVU266
 718 0022 40F2F761 		movw	r1, #1783
 719 0026 1248     		ldr	r0, .L21+12
 720 0028 FFF7FEFF 		bl	HAL_GPIO_DeInit
 721              	.LVL35:
 280:Core/Src/ltdc.c **** 
 722              		.loc 1 280 5 view .LVU267
 723 002c 4FF48061 		mov	r1, #1024
 724 0030 1048     		ldr	r0, .L21+16
 725 0032 FFF7FEFF 		bl	HAL_GPIO_DeInit
 726              	.LVL36:
 282:Core/Src/ltdc.c **** 
 727              		.loc 1 282 5 view .LVU268
 728 0036 4FF48271 		mov	r1, #260
 729 003a 0F48     		ldr	r0, .L21+20
 730 003c FFF7FEFF 		bl	HAL_GPIO_DeInit
 731              	.LVL37:
 284:Core/Src/ltdc.c ****                           |GPIO_PIN_12|GPIO_PIN_13|GPIO_PIN_14|GPIO_PIN_15);
 732              		.loc 1 284 5 view .LVU269
 733 0040 4FF47F41 		mov	r1, #65280
 734 0044 0D48     		ldr	r0, .L21+24
 735 0046 FFF7FEFF 		bl	HAL_GPIO_DeInit
 736              	.LVL38:
ARM GAS  C:\Users\OSD\AppData\Local\Temp\ccc4RS9g.s 			page 22


 287:Core/Src/ltdc.c ****                           |GPIO_PIN_14);
 737              		.loc 1 287 5 view .LVU270
 738 004a 47F2C001 		movw	r1, #28864
 739 004e 0C48     		ldr	r0, .L21+28
 740 0050 FFF7FEFF 		bl	HAL_GPIO_DeInit
 741              	.LVL39:
 290:Core/Src/ltdc.c **** 
 742              		.loc 1 290 5 view .LVU271
 743 0054 4021     		movs	r1, #64
 744 0056 0B48     		ldr	r0, .L21+32
 745 0058 FFF7FEFF 		bl	HAL_GPIO_DeInit
 746              	.LVL40:
 293:Core/Src/ltdc.c ****   /* USER CODE BEGIN LTDC_MspDeInit 1 */
 747              		.loc 1 293 5 view .LVU272
 748 005c 5820     		movs	r0, #88
 749 005e FFF7FEFF 		bl	HAL_NVIC_DisableIRQ
 750              	.LVL41:
 751              		.loc 1 298 1 is_stmt 0 view .LVU273
 752 0062 D2E7     		b	.L17
 753              	.L22:
 754              		.align	2
 755              	.L21:
 756 0064 00100050 		.word	1342181376
 757 0068 00440258 		.word	1476543488
 758 006c 00100258 		.word	1476530176
 759 0070 00200258 		.word	1476534272
 760 0074 00140258 		.word	1476531200
 761 0078 00000258 		.word	1476526080
 762 007c 001C0258 		.word	1476533248
 763 0080 00180258 		.word	1476532224
 764 0084 000C0258 		.word	1476529152
 765              		.cfi_endproc
 766              	.LFE149:
 768              		.global	hltdc
 769              		.section	.bss.hltdc,"aw",%nobits
 770              		.align	2
 771              		.set	.LANCHOR0,. + 0
 774              	hltdc:
 775 0000 00000000 		.space	168
 775      00000000 
 775      00000000 
 775      00000000 
 775      00000000 
 776              		.text
 777              	.Letext0:
 778              		.file 2 "c:\\tools\\gcc-arm-none-eabi\\arm-none-eabi\\include\\machine\\_default_types.h"
 779              		.file 3 "c:\\tools\\gcc-arm-none-eabi\\arm-none-eabi\\include\\sys\\_stdint.h"
 780              		.file 4 "Drivers/CMSIS/Device/ST/STM32H7xx/Include/stm32h743xx.h"
 781              		.file 5 "Drivers/CMSIS/Device/ST/STM32H7xx/Include/stm32h7xx.h"
 782              		.file 6 "Drivers/STM32H7xx_HAL_Driver/Inc/stm32h7xx_hal_def.h"
 783              		.file 7 "Drivers/STM32H7xx_HAL_Driver/Inc/stm32h7xx_hal_rcc_ex.h"
 784              		.file 8 "Drivers/STM32H7xx_HAL_Driver/Inc/stm32h7xx_hal_gpio.h"
 785              		.file 9 "Drivers/STM32H7xx_HAL_Driver/Inc/stm32h7xx_hal_ltdc.h"
 786              		.file 10 "Drivers/STM32H7xx_HAL_Driver/Inc/stm32h7xx_hal_cortex.h"
 787              		.file 11 "Core/Inc/main.h"
 788              		.file 12 "Drivers/STM32H7xx_HAL_Driver/Inc/stm32h7xx_hal.h"
 789              		.file 13 "Core/Inc/ltdc.h"
ARM GAS  C:\Users\OSD\AppData\Local\Temp\ccc4RS9g.s 			page 23


 790              		.file 14 "<built-in>"
ARM GAS  C:\Users\OSD\AppData\Local\Temp\ccc4RS9g.s 			page 24

