ARM GAS  C:\Users\OSD\AppData\Local\Temp\cc8ELV03.s 			page 1


   1              		.cpu cortex-m7
   2              		.arch armv7e-m
   3              		.fpu fpv5-d16
   4              		.eabi_attribute 28, 1
   5              		.eabi_attribute 20, 1
   6              		.eabi_attribute 21, 1
   7              		.eabi_attribute 23, 3
   8              		.eabi_attribute 24, 1
   9              		.eabi_attribute 25, 1
  10              		.eabi_attribute 26, 1
  11              		.eabi_attribute 30, 1
  12              		.eabi_attribute 34, 1
  13              		.eabi_attribute 18, 4
  14              		.file	"lv_anim_timeline.c"
  15              		.text
  16              	.Ltext0:
  17              		.cfi_sections	.debug_frame
  18              		.section	.text.lv_anim_timeline_virtual_exec_cb,"ax",%progbits
  19              		.align	1
  20              		.syntax unified
  21              		.thumb
  22              		.thumb_func
  24              	lv_anim_timeline_virtual_exec_cb:
  25              	.LVL0:
  26              	.LFB31:
  27              		.file 1 "lvgl/src/misc/lv_anim_timeline.c"
   1:lvgl/src/misc/lv_anim_timeline.c **** /**
   2:lvgl/src/misc/lv_anim_timeline.c ****  * @file lv_anim_timeline.c
   3:lvgl/src/misc/lv_anim_timeline.c ****  *
   4:lvgl/src/misc/lv_anim_timeline.c ****  */
   5:lvgl/src/misc/lv_anim_timeline.c **** 
   6:lvgl/src/misc/lv_anim_timeline.c **** /*********************
   7:lvgl/src/misc/lv_anim_timeline.c ****  *      INCLUDES
   8:lvgl/src/misc/lv_anim_timeline.c ****  *********************/
   9:lvgl/src/misc/lv_anim_timeline.c **** #include "lv_anim_timeline.h"
  10:lvgl/src/misc/lv_anim_timeline.c **** #include "lv_mem.h"
  11:lvgl/src/misc/lv_anim_timeline.c **** #include "lv_assert.h"
  12:lvgl/src/misc/lv_anim_timeline.c **** 
  13:lvgl/src/misc/lv_anim_timeline.c **** /*********************
  14:lvgl/src/misc/lv_anim_timeline.c ****  *      DEFINES
  15:lvgl/src/misc/lv_anim_timeline.c ****  *********************/
  16:lvgl/src/misc/lv_anim_timeline.c **** 
  17:lvgl/src/misc/lv_anim_timeline.c **** /**********************
  18:lvgl/src/misc/lv_anim_timeline.c ****  *      TYPEDEFS
  19:lvgl/src/misc/lv_anim_timeline.c ****  **********************/
  20:lvgl/src/misc/lv_anim_timeline.c **** 
  21:lvgl/src/misc/lv_anim_timeline.c **** /*Data of anim_timeline_dsc*/
  22:lvgl/src/misc/lv_anim_timeline.c **** typedef struct {
  23:lvgl/src/misc/lv_anim_timeline.c ****     lv_anim_t anim;
  24:lvgl/src/misc/lv_anim_timeline.c ****     uint32_t start_time;
  25:lvgl/src/misc/lv_anim_timeline.c **** } lv_anim_timeline_dsc_t;
  26:lvgl/src/misc/lv_anim_timeline.c **** 
  27:lvgl/src/misc/lv_anim_timeline.c **** /*Data of anim_timeline*/
  28:lvgl/src/misc/lv_anim_timeline.c **** struct _lv_anim_timeline_t {
  29:lvgl/src/misc/lv_anim_timeline.c ****     lv_anim_timeline_dsc_t * anim_dsc;  /**< Dynamically allocated anim dsc array*/
  30:lvgl/src/misc/lv_anim_timeline.c ****     uint32_t anim_dsc_cnt;              /**< The length of anim dsc array*/
  31:lvgl/src/misc/lv_anim_timeline.c ****     bool reverse;                       /**< Reverse playback*/
ARM GAS  C:\Users\OSD\AppData\Local\Temp\cc8ELV03.s 			page 2


  32:lvgl/src/misc/lv_anim_timeline.c **** };
  33:lvgl/src/misc/lv_anim_timeline.c **** 
  34:lvgl/src/misc/lv_anim_timeline.c **** /**********************
  35:lvgl/src/misc/lv_anim_timeline.c ****  *  STATIC PROTOTYPES
  36:lvgl/src/misc/lv_anim_timeline.c ****  **********************/
  37:lvgl/src/misc/lv_anim_timeline.c **** static void lv_anim_timeline_virtual_exec_cb(void * var, int32_t v);
  38:lvgl/src/misc/lv_anim_timeline.c **** 
  39:lvgl/src/misc/lv_anim_timeline.c **** /**********************
  40:lvgl/src/misc/lv_anim_timeline.c ****  *  STATIC VARIABLES
  41:lvgl/src/misc/lv_anim_timeline.c ****  **********************/
  42:lvgl/src/misc/lv_anim_timeline.c **** 
  43:lvgl/src/misc/lv_anim_timeline.c **** /**********************
  44:lvgl/src/misc/lv_anim_timeline.c ****  *      MACROS
  45:lvgl/src/misc/lv_anim_timeline.c ****  **********************/
  46:lvgl/src/misc/lv_anim_timeline.c **** 
  47:lvgl/src/misc/lv_anim_timeline.c **** /**********************
  48:lvgl/src/misc/lv_anim_timeline.c ****  *   GLOBAL FUNCTIONS
  49:lvgl/src/misc/lv_anim_timeline.c ****  **********************/
  50:lvgl/src/misc/lv_anim_timeline.c **** 
  51:lvgl/src/misc/lv_anim_timeline.c **** lv_anim_timeline_t * lv_anim_timeline_create(void)
  52:lvgl/src/misc/lv_anim_timeline.c **** {
  53:lvgl/src/misc/lv_anim_timeline.c ****     lv_anim_timeline_t * at = (lv_anim_timeline_t *)lv_mem_alloc(sizeof(lv_anim_timeline_t));
  54:lvgl/src/misc/lv_anim_timeline.c **** 
  55:lvgl/src/misc/lv_anim_timeline.c ****     LV_ASSERT_MALLOC(at);
  56:lvgl/src/misc/lv_anim_timeline.c **** 
  57:lvgl/src/misc/lv_anim_timeline.c ****     if(at) lv_memset_00(at, sizeof(lv_anim_timeline_t));
  58:lvgl/src/misc/lv_anim_timeline.c **** 
  59:lvgl/src/misc/lv_anim_timeline.c ****     return at;
  60:lvgl/src/misc/lv_anim_timeline.c **** }
  61:lvgl/src/misc/lv_anim_timeline.c **** 
  62:lvgl/src/misc/lv_anim_timeline.c **** void lv_anim_timeline_del(lv_anim_timeline_t * at)
  63:lvgl/src/misc/lv_anim_timeline.c **** {
  64:lvgl/src/misc/lv_anim_timeline.c ****     LV_ASSERT_NULL(at);
  65:lvgl/src/misc/lv_anim_timeline.c **** 
  66:lvgl/src/misc/lv_anim_timeline.c ****     lv_anim_timeline_stop(at);
  67:lvgl/src/misc/lv_anim_timeline.c **** 
  68:lvgl/src/misc/lv_anim_timeline.c ****     lv_mem_free(at->anim_dsc);
  69:lvgl/src/misc/lv_anim_timeline.c ****     lv_mem_free(at);
  70:lvgl/src/misc/lv_anim_timeline.c **** }
  71:lvgl/src/misc/lv_anim_timeline.c **** 
  72:lvgl/src/misc/lv_anim_timeline.c **** void lv_anim_timeline_add(lv_anim_timeline_t * at, uint32_t start_time, lv_anim_t * a)
  73:lvgl/src/misc/lv_anim_timeline.c **** {
  74:lvgl/src/misc/lv_anim_timeline.c ****     LV_ASSERT_NULL(at);
  75:lvgl/src/misc/lv_anim_timeline.c **** 
  76:lvgl/src/misc/lv_anim_timeline.c ****     at->anim_dsc_cnt++;
  77:lvgl/src/misc/lv_anim_timeline.c ****     at->anim_dsc = lv_mem_realloc(at->anim_dsc, at->anim_dsc_cnt * sizeof(lv_anim_timeline_dsc_t));
  78:lvgl/src/misc/lv_anim_timeline.c **** 
  79:lvgl/src/misc/lv_anim_timeline.c ****     LV_ASSERT_MALLOC(at->anim_dsc);
  80:lvgl/src/misc/lv_anim_timeline.c **** 
  81:lvgl/src/misc/lv_anim_timeline.c ****     at->anim_dsc[at->anim_dsc_cnt - 1].anim = *a;
  82:lvgl/src/misc/lv_anim_timeline.c ****     at->anim_dsc[at->anim_dsc_cnt - 1].start_time = start_time;
  83:lvgl/src/misc/lv_anim_timeline.c **** 
  84:lvgl/src/misc/lv_anim_timeline.c ****     /*Add default var and virtual exec_cb, used to delete animation.*/
  85:lvgl/src/misc/lv_anim_timeline.c ****     if(a->var == NULL && a->exec_cb == NULL) {
  86:lvgl/src/misc/lv_anim_timeline.c ****         at->anim_dsc[at->anim_dsc_cnt - 1].anim.var = at;
  87:lvgl/src/misc/lv_anim_timeline.c ****         at->anim_dsc[at->anim_dsc_cnt - 1].anim.exec_cb = lv_anim_timeline_virtual_exec_cb;
  88:lvgl/src/misc/lv_anim_timeline.c ****     }
ARM GAS  C:\Users\OSD\AppData\Local\Temp\cc8ELV03.s 			page 3


  89:lvgl/src/misc/lv_anim_timeline.c **** }
  90:lvgl/src/misc/lv_anim_timeline.c **** 
  91:lvgl/src/misc/lv_anim_timeline.c **** uint32_t lv_anim_timeline_start(lv_anim_timeline_t * at)
  92:lvgl/src/misc/lv_anim_timeline.c **** {
  93:lvgl/src/misc/lv_anim_timeline.c ****     LV_ASSERT_NULL(at);
  94:lvgl/src/misc/lv_anim_timeline.c **** 
  95:lvgl/src/misc/lv_anim_timeline.c ****     const uint32_t playtime = lv_anim_timeline_get_playtime(at);
  96:lvgl/src/misc/lv_anim_timeline.c ****     bool reverse = at->reverse;
  97:lvgl/src/misc/lv_anim_timeline.c **** 
  98:lvgl/src/misc/lv_anim_timeline.c ****     for(uint32_t i = 0; i < at->anim_dsc_cnt; i++) {
  99:lvgl/src/misc/lv_anim_timeline.c ****         lv_anim_t a = at->anim_dsc[i].anim;
 100:lvgl/src/misc/lv_anim_timeline.c ****         uint32_t start_time = at->anim_dsc[i].start_time;
 101:lvgl/src/misc/lv_anim_timeline.c **** 
 102:lvgl/src/misc/lv_anim_timeline.c ****         if(reverse) {
 103:lvgl/src/misc/lv_anim_timeline.c ****             int32_t temp = a.start_value;
 104:lvgl/src/misc/lv_anim_timeline.c ****             a.start_value = a.end_value;
 105:lvgl/src/misc/lv_anim_timeline.c ****             a.end_value = temp;
 106:lvgl/src/misc/lv_anim_timeline.c ****             lv_anim_set_delay(&a, playtime - (start_time + a.time));
 107:lvgl/src/misc/lv_anim_timeline.c ****         }
 108:lvgl/src/misc/lv_anim_timeline.c ****         else {
 109:lvgl/src/misc/lv_anim_timeline.c ****             lv_anim_set_delay(&a, start_time);
 110:lvgl/src/misc/lv_anim_timeline.c ****         }
 111:lvgl/src/misc/lv_anim_timeline.c **** 
 112:lvgl/src/misc/lv_anim_timeline.c ****         lv_anim_start(&a);
 113:lvgl/src/misc/lv_anim_timeline.c ****     }
 114:lvgl/src/misc/lv_anim_timeline.c **** 
 115:lvgl/src/misc/lv_anim_timeline.c ****     return playtime;
 116:lvgl/src/misc/lv_anim_timeline.c **** }
 117:lvgl/src/misc/lv_anim_timeline.c **** 
 118:lvgl/src/misc/lv_anim_timeline.c **** void lv_anim_timeline_stop(lv_anim_timeline_t * at)
 119:lvgl/src/misc/lv_anim_timeline.c **** {
 120:lvgl/src/misc/lv_anim_timeline.c ****     LV_ASSERT_NULL(at);
 121:lvgl/src/misc/lv_anim_timeline.c **** 
 122:lvgl/src/misc/lv_anim_timeline.c ****     for(uint32_t i = 0; i < at->anim_dsc_cnt; i++) {
 123:lvgl/src/misc/lv_anim_timeline.c ****         lv_anim_t * a = &(at->anim_dsc[i].anim);
 124:lvgl/src/misc/lv_anim_timeline.c ****         lv_anim_del(a->var, a->exec_cb);
 125:lvgl/src/misc/lv_anim_timeline.c ****     }
 126:lvgl/src/misc/lv_anim_timeline.c **** }
 127:lvgl/src/misc/lv_anim_timeline.c **** 
 128:lvgl/src/misc/lv_anim_timeline.c **** void lv_anim_timeline_set_reverse(lv_anim_timeline_t * at, bool reverse)
 129:lvgl/src/misc/lv_anim_timeline.c **** {
 130:lvgl/src/misc/lv_anim_timeline.c ****     LV_ASSERT_NULL(at);
 131:lvgl/src/misc/lv_anim_timeline.c ****     at->reverse = reverse;
 132:lvgl/src/misc/lv_anim_timeline.c **** }
 133:lvgl/src/misc/lv_anim_timeline.c **** 
 134:lvgl/src/misc/lv_anim_timeline.c **** void lv_anim_timeline_set_progress(lv_anim_timeline_t * at, uint16_t progress)
 135:lvgl/src/misc/lv_anim_timeline.c **** {
 136:lvgl/src/misc/lv_anim_timeline.c ****     LV_ASSERT_NULL(at);
 137:lvgl/src/misc/lv_anim_timeline.c **** 
 138:lvgl/src/misc/lv_anim_timeline.c ****     const uint32_t playtime = lv_anim_timeline_get_playtime(at);
 139:lvgl/src/misc/lv_anim_timeline.c ****     const uint32_t act_time = progress * playtime / 0xFFFF;
 140:lvgl/src/misc/lv_anim_timeline.c **** 
 141:lvgl/src/misc/lv_anim_timeline.c ****     for(uint32_t i = 0; i < at->anim_dsc_cnt; i++) {
 142:lvgl/src/misc/lv_anim_timeline.c ****         lv_anim_t * a = &(at->anim_dsc[i].anim);
 143:lvgl/src/misc/lv_anim_timeline.c **** 
 144:lvgl/src/misc/lv_anim_timeline.c ****         if(a->exec_cb == NULL) {
 145:lvgl/src/misc/lv_anim_timeline.c ****             continue;
ARM GAS  C:\Users\OSD\AppData\Local\Temp\cc8ELV03.s 			page 4


 146:lvgl/src/misc/lv_anim_timeline.c ****         }
 147:lvgl/src/misc/lv_anim_timeline.c **** 
 148:lvgl/src/misc/lv_anim_timeline.c ****         uint32_t start_time = at->anim_dsc[i].start_time;
 149:lvgl/src/misc/lv_anim_timeline.c ****         int32_t value = 0;
 150:lvgl/src/misc/lv_anim_timeline.c **** 
 151:lvgl/src/misc/lv_anim_timeline.c ****         if(act_time < start_time) {
 152:lvgl/src/misc/lv_anim_timeline.c ****             value = a->start_value;
 153:lvgl/src/misc/lv_anim_timeline.c ****         }
 154:lvgl/src/misc/lv_anim_timeline.c ****         else if(act_time < (start_time + a->time)) {
 155:lvgl/src/misc/lv_anim_timeline.c ****             a->act_time = act_time - start_time;
 156:lvgl/src/misc/lv_anim_timeline.c ****             value = a->path_cb(a);
 157:lvgl/src/misc/lv_anim_timeline.c ****         }
 158:lvgl/src/misc/lv_anim_timeline.c ****         else {
 159:lvgl/src/misc/lv_anim_timeline.c ****             value = a->end_value;
 160:lvgl/src/misc/lv_anim_timeline.c ****         }
 161:lvgl/src/misc/lv_anim_timeline.c **** 
 162:lvgl/src/misc/lv_anim_timeline.c ****         a->exec_cb(a->var, value);
 163:lvgl/src/misc/lv_anim_timeline.c ****     }
 164:lvgl/src/misc/lv_anim_timeline.c **** }
 165:lvgl/src/misc/lv_anim_timeline.c **** 
 166:lvgl/src/misc/lv_anim_timeline.c **** uint32_t lv_anim_timeline_get_playtime(lv_anim_timeline_t * at)
 167:lvgl/src/misc/lv_anim_timeline.c **** {
 168:lvgl/src/misc/lv_anim_timeline.c ****     LV_ASSERT_NULL(at);
 169:lvgl/src/misc/lv_anim_timeline.c **** 
 170:lvgl/src/misc/lv_anim_timeline.c ****     uint32_t playtime = 0;
 171:lvgl/src/misc/lv_anim_timeline.c ****     for(uint32_t i = 0; i < at->anim_dsc_cnt; i++) {
 172:lvgl/src/misc/lv_anim_timeline.c ****         uint32_t end = lv_anim_get_playtime(&at->anim_dsc[i].anim);
 173:lvgl/src/misc/lv_anim_timeline.c ****         if(end == LV_ANIM_PLAYTIME_INFINITE)
 174:lvgl/src/misc/lv_anim_timeline.c ****             return end;
 175:lvgl/src/misc/lv_anim_timeline.c ****         end += at->anim_dsc[i].start_time;
 176:lvgl/src/misc/lv_anim_timeline.c ****         if(end > playtime) {
 177:lvgl/src/misc/lv_anim_timeline.c ****             playtime = end;
 178:lvgl/src/misc/lv_anim_timeline.c ****         }
 179:lvgl/src/misc/lv_anim_timeline.c ****     }
 180:lvgl/src/misc/lv_anim_timeline.c **** 
 181:lvgl/src/misc/lv_anim_timeline.c ****     return playtime;
 182:lvgl/src/misc/lv_anim_timeline.c **** }
 183:lvgl/src/misc/lv_anim_timeline.c **** 
 184:lvgl/src/misc/lv_anim_timeline.c **** bool lv_anim_timeline_get_reverse(lv_anim_timeline_t * at)
 185:lvgl/src/misc/lv_anim_timeline.c **** {
 186:lvgl/src/misc/lv_anim_timeline.c ****     LV_ASSERT_NULL(at);
 187:lvgl/src/misc/lv_anim_timeline.c ****     return at->reverse;
 188:lvgl/src/misc/lv_anim_timeline.c **** }
 189:lvgl/src/misc/lv_anim_timeline.c **** 
 190:lvgl/src/misc/lv_anim_timeline.c **** /**********************
 191:lvgl/src/misc/lv_anim_timeline.c ****  *   STATIC FUNCTIONS
 192:lvgl/src/misc/lv_anim_timeline.c ****  **********************/
 193:lvgl/src/misc/lv_anim_timeline.c **** 
 194:lvgl/src/misc/lv_anim_timeline.c **** static void lv_anim_timeline_virtual_exec_cb(void * var, int32_t v)
 195:lvgl/src/misc/lv_anim_timeline.c **** {
  28              		.loc 1 195 1 view -0
  29              		.cfi_startproc
  30              		@ args = 0, pretend = 0, frame = 0
  31              		@ frame_needed = 0, uses_anonymous_args = 0
  32              		@ link register save eliminated.
 196:lvgl/src/misc/lv_anim_timeline.c ****     LV_UNUSED(var);
  33              		.loc 1 196 5 view .LVU1
ARM GAS  C:\Users\OSD\AppData\Local\Temp\cc8ELV03.s 			page 5


 197:lvgl/src/misc/lv_anim_timeline.c ****     LV_UNUSED(v);
  34              		.loc 1 197 5 view .LVU2
 198:lvgl/src/misc/lv_anim_timeline.c **** }
  35              		.loc 1 198 1 is_stmt 0 view .LVU3
  36 0000 7047     		bx	lr
  37              		.cfi_endproc
  38              	.LFE31:
  40              		.section	.text.lv_anim_timeline_create,"ax",%progbits
  41              		.align	1
  42              		.global	lv_anim_timeline_create
  43              		.syntax unified
  44              		.thumb
  45              		.thumb_func
  47              	lv_anim_timeline_create:
  48              	.LFB22:
  52:lvgl/src/misc/lv_anim_timeline.c ****     lv_anim_timeline_t * at = (lv_anim_timeline_t *)lv_mem_alloc(sizeof(lv_anim_timeline_t));
  49              		.loc 1 52 1 is_stmt 1 view -0
  50              		.cfi_startproc
  51              		@ args = 0, pretend = 0, frame = 0
  52              		@ frame_needed = 0, uses_anonymous_args = 0
  53 0000 10B5     		push	{r4, lr}
  54              		.cfi_def_cfa_offset 8
  55              		.cfi_offset 4, -8
  56              		.cfi_offset 14, -4
  53:lvgl/src/misc/lv_anim_timeline.c **** 
  57              		.loc 1 53 5 view .LVU5
  53:lvgl/src/misc/lv_anim_timeline.c **** 
  58              		.loc 1 53 53 is_stmt 0 view .LVU6
  59 0002 0C20     		movs	r0, #12
  60 0004 FFF7FEFF 		bl	lv_mem_alloc
  61              	.LVL1:
  55:lvgl/src/misc/lv_anim_timeline.c **** 
  62              		.loc 1 55 5 is_stmt 1 view .LVU7
  55:lvgl/src/misc/lv_anim_timeline.c **** 
  63              		.loc 1 55 5 view .LVU8
  64 0008 28B1     		cbz	r0, .L4
  65 000a 0446     		mov	r4, r0
  55:lvgl/src/misc/lv_anim_timeline.c **** 
  66              		.loc 1 55 5 discriminator 1 view .LVU9
  55:lvgl/src/misc/lv_anim_timeline.c **** 
  67              		.loc 1 55 25 discriminator 1 view .LVU10
  57:lvgl/src/misc/lv_anim_timeline.c **** 
  68              		.loc 1 57 5 discriminator 1 view .LVU11
  57:lvgl/src/misc/lv_anim_timeline.c **** 
  69              		.loc 1 57 12 discriminator 1 view .LVU12
  70 000c 0C21     		movs	r1, #12
  71 000e FFF7FEFF 		bl	lv_memset_00
  72              	.LVL2:
  59:lvgl/src/misc/lv_anim_timeline.c **** }
  73              		.loc 1 59 5 discriminator 1 view .LVU13
  60:lvgl/src/misc/lv_anim_timeline.c **** 
  74              		.loc 1 60 1 is_stmt 0 discriminator 1 view .LVU14
  75 0012 2046     		mov	r0, r4
  76 0014 10BD     		pop	{r4, pc}
  77              	.LVL3:
  78              	.L4:
  55:lvgl/src/misc/lv_anim_timeline.c **** 
ARM GAS  C:\Users\OSD\AppData\Local\Temp\cc8ELV03.s 			page 6


  79              		.loc 1 55 5 is_stmt 1 discriminator 1 view .LVU15
  55:lvgl/src/misc/lv_anim_timeline.c **** 
  80              		.loc 1 55 5 discriminator 1 view .LVU16
  55:lvgl/src/misc/lv_anim_timeline.c **** 
  81              		.loc 1 55 5 discriminator 1 view .LVU17
  55:lvgl/src/misc/lv_anim_timeline.c **** 
  82              		.loc 1 55 5 discriminator 1 view .LVU18
  55:lvgl/src/misc/lv_anim_timeline.c **** 
  83              		.loc 1 55 5 discriminator 1 view .LVU19
  55:lvgl/src/misc/lv_anim_timeline.c **** 
  84              		.loc 1 55 5 discriminator 1 view .LVU20
  85 0016 FEE7     		b	.L4
  86              		.cfi_endproc
  87              	.LFE22:
  89              		.section	.text.lv_anim_timeline_add,"ax",%progbits
  90              		.align	1
  91              		.global	lv_anim_timeline_add
  92              		.syntax unified
  93              		.thumb
  94              		.thumb_func
  96              	lv_anim_timeline_add:
  97              	.LVL4:
  98              	.LFB24:
  73:lvgl/src/misc/lv_anim_timeline.c ****     LV_ASSERT_NULL(at);
  99              		.loc 1 73 1 view -0
 100              		.cfi_startproc
 101              		@ args = 0, pretend = 0, frame = 0
 102              		@ frame_needed = 0, uses_anonymous_args = 0
  74:lvgl/src/misc/lv_anim_timeline.c **** 
 103              		.loc 1 74 5 view .LVU22
  74:lvgl/src/misc/lv_anim_timeline.c **** 
 104              		.loc 1 74 5 view .LVU23
 105 0000 18B3     		cbz	r0, .L8
  73:lvgl/src/misc/lv_anim_timeline.c ****     LV_ASSERT_NULL(at);
 106              		.loc 1 73 1 is_stmt 0 discriminator 2 view .LVU24
 107 0002 70B5     		push	{r4, r5, r6, lr}
 108              		.cfi_def_cfa_offset 16
 109              		.cfi_offset 4, -16
 110              		.cfi_offset 5, -12
 111              		.cfi_offset 6, -8
 112              		.cfi_offset 14, -4
 113 0004 0E46     		mov	r6, r1
 114 0006 1546     		mov	r5, r2
 115 0008 0446     		mov	r4, r0
  74:lvgl/src/misc/lv_anim_timeline.c **** 
 116              		.loc 1 74 5 is_stmt 1 discriminator 2 view .LVU25
  74:lvgl/src/misc/lv_anim_timeline.c **** 
 117              		.loc 1 74 23 discriminator 2 view .LVU26
  76:lvgl/src/misc/lv_anim_timeline.c ****     at->anim_dsc = lv_mem_realloc(at->anim_dsc, at->anim_dsc_cnt * sizeof(lv_anim_timeline_dsc_t));
 118              		.loc 1 76 5 discriminator 2 view .LVU27
  76:lvgl/src/misc/lv_anim_timeline.c ****     at->anim_dsc = lv_mem_realloc(at->anim_dsc, at->anim_dsc_cnt * sizeof(lv_anim_timeline_dsc_t));
 119              		.loc 1 76 7 is_stmt 0 discriminator 2 view .LVU28
 120 000a 4368     		ldr	r3, [r0, #4]
  76:lvgl/src/misc/lv_anim_timeline.c ****     at->anim_dsc = lv_mem_realloc(at->anim_dsc, at->anim_dsc_cnt * sizeof(lv_anim_timeline_dsc_t));
 121              		.loc 1 76 21 discriminator 2 view .LVU29
 122 000c 0133     		adds	r3, r3, #1
 123 000e 4360     		str	r3, [r0, #4]
ARM GAS  C:\Users\OSD\AppData\Local\Temp\cc8ELV03.s 			page 7


  77:lvgl/src/misc/lv_anim_timeline.c **** 
 124              		.loc 1 77 5 is_stmt 1 discriminator 2 view .LVU30
  77:lvgl/src/misc/lv_anim_timeline.c **** 
 125              		.loc 1 77 66 is_stmt 0 discriminator 2 view .LVU31
 126 0010 03EBC303 		add	r3, r3, r3, lsl #3
  77:lvgl/src/misc/lv_anim_timeline.c **** 
 127              		.loc 1 77 20 discriminator 2 view .LVU32
 128 0014 D900     		lsls	r1, r3, #3
 129              	.LVL5:
  77:lvgl/src/misc/lv_anim_timeline.c **** 
 130              		.loc 1 77 20 discriminator 2 view .LVU33
 131 0016 0068     		ldr	r0, [r0]
 132              	.LVL6:
  77:lvgl/src/misc/lv_anim_timeline.c **** 
 133              		.loc 1 77 20 discriminator 2 view .LVU34
 134 0018 FFF7FEFF 		bl	lv_mem_realloc
 135              	.LVL7:
  77:lvgl/src/misc/lv_anim_timeline.c **** 
 136              		.loc 1 77 18 discriminator 2 view .LVU35
 137 001c 2060     		str	r0, [r4]
  79:lvgl/src/misc/lv_anim_timeline.c **** 
 138              		.loc 1 79 5 is_stmt 1 discriminator 2 view .LVU36
  79:lvgl/src/misc/lv_anim_timeline.c **** 
 139              		.loc 1 79 5 discriminator 2 view .LVU37
 140 001e A8B1     		cbz	r0, .L10
  79:lvgl/src/misc/lv_anim_timeline.c **** 
 141              		.loc 1 79 5 discriminator 2 view .LVU38
  79:lvgl/src/misc/lv_anim_timeline.c **** 
 142              		.loc 1 79 35 discriminator 2 view .LVU39
  81:lvgl/src/misc/lv_anim_timeline.c ****     at->anim_dsc[at->anim_dsc_cnt - 1].start_time = start_time;
 143              		.loc 1 81 5 discriminator 2 view .LVU40
  81:lvgl/src/misc/lv_anim_timeline.c ****     at->anim_dsc[at->anim_dsc_cnt - 1].start_time = start_time;
 144              		.loc 1 81 20 is_stmt 0 discriminator 2 view .LVU41
 145 0020 6368     		ldr	r3, [r4, #4]
  81:lvgl/src/misc/lv_anim_timeline.c ****     at->anim_dsc[at->anim_dsc_cnt - 1].start_time = start_time;
 146              		.loc 1 81 17 discriminator 2 view .LVU42
 147 0022 03EBC303 		add	r3, r3, r3, lsl #3
 148 0026 DB00     		lsls	r3, r3, #3
 149 0028 483B     		subs	r3, r3, #72
  81:lvgl/src/misc/lv_anim_timeline.c ****     at->anim_dsc[at->anim_dsc_cnt - 1].start_time = start_time;
 150              		.loc 1 81 45 discriminator 2 view .LVU43
 151 002a 4422     		movs	r2, #68
 152 002c 2946     		mov	r1, r5
 153 002e 1844     		add	r0, r0, r3
 154 0030 FFF7FEFF 		bl	memcpy
 155              	.LVL8:
  82:lvgl/src/misc/lv_anim_timeline.c **** 
 156              		.loc 1 82 5 is_stmt 1 discriminator 2 view .LVU44
  82:lvgl/src/misc/lv_anim_timeline.c **** 
 157              		.loc 1 82 7 is_stmt 0 discriminator 2 view .LVU45
 158 0034 2268     		ldr	r2, [r4]
  82:lvgl/src/misc/lv_anim_timeline.c **** 
 159              		.loc 1 82 20 discriminator 2 view .LVU46
 160 0036 6368     		ldr	r3, [r4, #4]
  82:lvgl/src/misc/lv_anim_timeline.c **** 
 161              		.loc 1 82 17 discriminator 2 view .LVU47
 162 0038 03EBC303 		add	r3, r3, r3, lsl #3
ARM GAS  C:\Users\OSD\AppData\Local\Temp\cc8ELV03.s 			page 8


 163 003c DB00     		lsls	r3, r3, #3
 164 003e 483B     		subs	r3, r3, #72
 165 0040 1344     		add	r3, r3, r2
  82:lvgl/src/misc/lv_anim_timeline.c **** 
 166              		.loc 1 82 51 discriminator 2 view .LVU48
 167 0042 5E64     		str	r6, [r3, #68]
  85:lvgl/src/misc/lv_anim_timeline.c ****         at->anim_dsc[at->anim_dsc_cnt - 1].anim.var = at;
 168              		.loc 1 85 5 is_stmt 1 discriminator 2 view .LVU49
  85:lvgl/src/misc/lv_anim_timeline.c ****         at->anim_dsc[at->anim_dsc_cnt - 1].anim.var = at;
 169              		.loc 1 85 9 is_stmt 0 discriminator 2 view .LVU50
 170 0044 2B68     		ldr	r3, [r5]
  85:lvgl/src/misc/lv_anim_timeline.c ****         at->anim_dsc[at->anim_dsc_cnt - 1].anim.var = at;
 171              		.loc 1 85 7 discriminator 2 view .LVU51
 172 0046 13B1     		cbz	r3, .L14
 173              	.L6:
  89:lvgl/src/misc/lv_anim_timeline.c **** 
 174              		.loc 1 89 1 view .LVU52
 175 0048 70BD     		pop	{r4, r5, r6, pc}
 176              	.LVL9:
 177              	.L8:
 178              		.cfi_def_cfa_offset 0
 179              		.cfi_restore 4
 180              		.cfi_restore 5
 181              		.cfi_restore 6
 182              		.cfi_restore 14
  74:lvgl/src/misc/lv_anim_timeline.c **** 
 183              		.loc 1 74 5 is_stmt 1 discriminator 1 view .LVU53
  74:lvgl/src/misc/lv_anim_timeline.c **** 
 184              		.loc 1 74 5 discriminator 1 view .LVU54
  74:lvgl/src/misc/lv_anim_timeline.c **** 
 185              		.loc 1 74 5 discriminator 1 view .LVU55
  74:lvgl/src/misc/lv_anim_timeline.c **** 
 186              		.loc 1 74 5 discriminator 1 view .LVU56
  74:lvgl/src/misc/lv_anim_timeline.c **** 
 187              		.loc 1 74 5 discriminator 1 view .LVU57
  74:lvgl/src/misc/lv_anim_timeline.c **** 
 188              		.loc 1 74 5 discriminator 1 view .LVU58
 189 004a FEE7     		b	.L8
 190              	.LVL10:
 191              	.L10:
 192              		.cfi_def_cfa_offset 16
 193              		.cfi_offset 4, -16
 194              		.cfi_offset 5, -12
 195              		.cfi_offset 6, -8
 196              		.cfi_offset 14, -4
  79:lvgl/src/misc/lv_anim_timeline.c **** 
 197              		.loc 1 79 5 discriminator 2 view .LVU59
  79:lvgl/src/misc/lv_anim_timeline.c **** 
 198              		.loc 1 79 5 discriminator 2 view .LVU60
  79:lvgl/src/misc/lv_anim_timeline.c **** 
 199              		.loc 1 79 5 discriminator 2 view .LVU61
  79:lvgl/src/misc/lv_anim_timeline.c **** 
 200              		.loc 1 79 5 discriminator 2 view .LVU62
  79:lvgl/src/misc/lv_anim_timeline.c **** 
 201              		.loc 1 79 5 discriminator 2 view .LVU63
  79:lvgl/src/misc/lv_anim_timeline.c **** 
 202              		.loc 1 79 5 discriminator 2 view .LVU64
ARM GAS  C:\Users\OSD\AppData\Local\Temp\cc8ELV03.s 			page 9


 203 004c FEE7     		b	.L10
 204              	.L14:
  85:lvgl/src/misc/lv_anim_timeline.c ****         at->anim_dsc[at->anim_dsc_cnt - 1].anim.var = at;
 205              		.loc 1 85 27 is_stmt 0 discriminator 1 view .LVU65
 206 004e 6B68     		ldr	r3, [r5, #4]
  85:lvgl/src/misc/lv_anim_timeline.c ****         at->anim_dsc[at->anim_dsc_cnt - 1].anim.var = at;
 207              		.loc 1 85 23 discriminator 1 view .LVU66
 208 0050 002B     		cmp	r3, #0
 209 0052 F9D1     		bne	.L6
  86:lvgl/src/misc/lv_anim_timeline.c ****         at->anim_dsc[at->anim_dsc_cnt - 1].anim.exec_cb = lv_anim_timeline_virtual_exec_cb;
 210              		.loc 1 86 9 is_stmt 1 view .LVU67
  86:lvgl/src/misc/lv_anim_timeline.c ****         at->anim_dsc[at->anim_dsc_cnt - 1].anim.exec_cb = lv_anim_timeline_virtual_exec_cb;
 211              		.loc 1 86 11 is_stmt 0 view .LVU68
 212 0054 2268     		ldr	r2, [r4]
  86:lvgl/src/misc/lv_anim_timeline.c ****         at->anim_dsc[at->anim_dsc_cnt - 1].anim.exec_cb = lv_anim_timeline_virtual_exec_cb;
 213              		.loc 1 86 24 view .LVU69
 214 0056 6368     		ldr	r3, [r4, #4]
  86:lvgl/src/misc/lv_anim_timeline.c ****         at->anim_dsc[at->anim_dsc_cnt - 1].anim.exec_cb = lv_anim_timeline_virtual_exec_cb;
 215              		.loc 1 86 21 view .LVU70
 216 0058 03EBC303 		add	r3, r3, r3, lsl #3
 217 005c DB00     		lsls	r3, r3, #3
 218 005e 483B     		subs	r3, r3, #72
  86:lvgl/src/misc/lv_anim_timeline.c ****         at->anim_dsc[at->anim_dsc_cnt - 1].anim.exec_cb = lv_anim_timeline_virtual_exec_cb;
 219              		.loc 1 86 53 view .LVU71
 220 0060 D450     		str	r4, [r2, r3]
  87:lvgl/src/misc/lv_anim_timeline.c ****     }
 221              		.loc 1 87 9 is_stmt 1 view .LVU72
  87:lvgl/src/misc/lv_anim_timeline.c ****     }
 222              		.loc 1 87 11 is_stmt 0 view .LVU73
 223 0062 2268     		ldr	r2, [r4]
  87:lvgl/src/misc/lv_anim_timeline.c ****     }
 224              		.loc 1 87 24 view .LVU74
 225 0064 6368     		ldr	r3, [r4, #4]
  87:lvgl/src/misc/lv_anim_timeline.c ****     }
 226              		.loc 1 87 21 view .LVU75
 227 0066 03EBC303 		add	r3, r3, r3, lsl #3
 228 006a DB00     		lsls	r3, r3, #3
 229 006c 483B     		subs	r3, r3, #72
 230 006e 1344     		add	r3, r3, r2
  87:lvgl/src/misc/lv_anim_timeline.c ****     }
 231              		.loc 1 87 57 view .LVU76
 232 0070 014A     		ldr	r2, .L15
 233 0072 5A60     		str	r2, [r3, #4]
  89:lvgl/src/misc/lv_anim_timeline.c **** 
 234              		.loc 1 89 1 view .LVU77
 235 0074 E8E7     		b	.L6
 236              	.L16:
 237 0076 00BF     		.align	2
 238              	.L15:
 239 0078 00000000 		.word	lv_anim_timeline_virtual_exec_cb
 240              		.cfi_endproc
 241              	.LFE24:
 243              		.section	.text.lv_anim_timeline_stop,"ax",%progbits
 244              		.align	1
 245              		.global	lv_anim_timeline_stop
 246              		.syntax unified
 247              		.thumb
ARM GAS  C:\Users\OSD\AppData\Local\Temp\cc8ELV03.s 			page 10


 248              		.thumb_func
 250              	lv_anim_timeline_stop:
 251              	.LVL11:
 252              	.LFB26:
 119:lvgl/src/misc/lv_anim_timeline.c ****     LV_ASSERT_NULL(at);
 253              		.loc 1 119 1 is_stmt 1 view -0
 254              		.cfi_startproc
 255              		@ args = 0, pretend = 0, frame = 0
 256              		@ frame_needed = 0, uses_anonymous_args = 0
 120:lvgl/src/misc/lv_anim_timeline.c **** 
 257              		.loc 1 120 5 view .LVU79
 120:lvgl/src/misc/lv_anim_timeline.c **** 
 258              		.loc 1 120 5 view .LVU80
 259 0000 18B1     		cbz	r0, .L19
 119:lvgl/src/misc/lv_anim_timeline.c ****     LV_ASSERT_NULL(at);
 260              		.loc 1 119 1 is_stmt 0 view .LVU81
 261 0002 38B5     		push	{r3, r4, r5, lr}
 262              		.cfi_def_cfa_offset 16
 263              		.cfi_offset 3, -16
 264              		.cfi_offset 4, -12
 265              		.cfi_offset 5, -8
 266              		.cfi_offset 14, -4
 267 0004 0546     		mov	r5, r0
 268              	.LBB9:
 122:lvgl/src/misc/lv_anim_timeline.c ****         lv_anim_t * a = &(at->anim_dsc[i].anim);
 269              		.loc 1 122 18 view .LVU82
 270 0006 0024     		movs	r4, #0
 271 0008 0BE0     		b	.L18
 272              	.L19:
 273              		.cfi_def_cfa_offset 0
 274              		.cfi_restore 3
 275              		.cfi_restore 4
 276              		.cfi_restore 5
 277              		.cfi_restore 14
 122:lvgl/src/misc/lv_anim_timeline.c ****         lv_anim_t * a = &(at->anim_dsc[i].anim);
 278              		.loc 1 122 18 view .LVU83
 279              	.LBE9:
 120:lvgl/src/misc/lv_anim_timeline.c **** 
 280              		.loc 1 120 5 is_stmt 1 discriminator 1 view .LVU84
 120:lvgl/src/misc/lv_anim_timeline.c **** 
 281              		.loc 1 120 5 discriminator 1 view .LVU85
 120:lvgl/src/misc/lv_anim_timeline.c **** 
 282              		.loc 1 120 5 discriminator 1 view .LVU86
 120:lvgl/src/misc/lv_anim_timeline.c **** 
 283              		.loc 1 120 5 discriminator 1 view .LVU87
 120:lvgl/src/misc/lv_anim_timeline.c **** 
 284              		.loc 1 120 5 discriminator 1 view .LVU88
 120:lvgl/src/misc/lv_anim_timeline.c **** 
 285              		.loc 1 120 5 discriminator 1 view .LVU89
 286 000a FEE7     		b	.L19
 287              	.LVL12:
 288              	.L20:
 289              		.cfi_def_cfa_offset 16
 290              		.cfi_offset 3, -16
 291              		.cfi_offset 4, -12
 292              		.cfi_offset 5, -8
 293              		.cfi_offset 14, -4
ARM GAS  C:\Users\OSD\AppData\Local\Temp\cc8ELV03.s 			page 11


 294              	.LBB11:
 295              	.LBB10:
 123:lvgl/src/misc/lv_anim_timeline.c ****         lv_anim_del(a->var, a->exec_cb);
 296              		.loc 1 123 9 discriminator 3 view .LVU90
 123:lvgl/src/misc/lv_anim_timeline.c ****         lv_anim_del(a->var, a->exec_cb);
 297              		.loc 1 123 29 is_stmt 0 discriminator 3 view .LVU91
 298 000c 2B68     		ldr	r3, [r5]
 123:lvgl/src/misc/lv_anim_timeline.c ****         lv_anim_del(a->var, a->exec_cb);
 299              		.loc 1 123 39 discriminator 3 view .LVU92
 300 000e 04EBC402 		add	r2, r4, r4, lsl #3
 301 0012 03EBC201 		add	r1, r3, r2, lsl #3
 302              	.LVL13:
 124:lvgl/src/misc/lv_anim_timeline.c ****     }
 303              		.loc 1 124 9 is_stmt 1 discriminator 3 view .LVU93
 304 0016 4968     		ldr	r1, [r1, #4]
 305              	.LVL14:
 124:lvgl/src/misc/lv_anim_timeline.c ****     }
 306              		.loc 1 124 9 is_stmt 0 discriminator 3 view .LVU94
 307 0018 53F83200 		ldr	r0, [r3, r2, lsl #3]
 308 001c FFF7FEFF 		bl	lv_anim_del
 309              	.LVL15:
 124:lvgl/src/misc/lv_anim_timeline.c ****     }
 310              		.loc 1 124 9 discriminator 3 view .LVU95
 311              	.LBE10:
 122:lvgl/src/misc/lv_anim_timeline.c ****         lv_anim_t * a = &(at->anim_dsc[i].anim);
 312              		.loc 1 122 47 is_stmt 1 discriminator 3 view .LVU96
 122:lvgl/src/misc/lv_anim_timeline.c ****         lv_anim_t * a = &(at->anim_dsc[i].anim);
 313              		.loc 1 122 48 is_stmt 0 discriminator 3 view .LVU97
 314 0020 0134     		adds	r4, r4, #1
 315              	.LVL16:
 316              	.L18:
 122:lvgl/src/misc/lv_anim_timeline.c ****         lv_anim_t * a = &(at->anim_dsc[i].anim);
 317              		.loc 1 122 25 is_stmt 1 discriminator 1 view .LVU98
 122:lvgl/src/misc/lv_anim_timeline.c ****         lv_anim_t * a = &(at->anim_dsc[i].anim);
 318              		.loc 1 122 31 is_stmt 0 discriminator 1 view .LVU99
 319 0022 6B68     		ldr	r3, [r5, #4]
 122:lvgl/src/misc/lv_anim_timeline.c ****         lv_anim_t * a = &(at->anim_dsc[i].anim);
 320              		.loc 1 122 5 discriminator 1 view .LVU100
 321 0024 A342     		cmp	r3, r4
 322 0026 F1D8     		bhi	.L20
 323              	.LBE11:
 126:lvgl/src/misc/lv_anim_timeline.c **** 
 324              		.loc 1 126 1 view .LVU101
 325 0028 38BD     		pop	{r3, r4, r5, pc}
 126:lvgl/src/misc/lv_anim_timeline.c **** 
 326              		.loc 1 126 1 view .LVU102
 327              		.cfi_endproc
 328              	.LFE26:
 330              		.section	.text.lv_anim_timeline_del,"ax",%progbits
 331              		.align	1
 332              		.global	lv_anim_timeline_del
 333              		.syntax unified
 334              		.thumb
 335              		.thumb_func
 337              	lv_anim_timeline_del:
 338              	.LVL17:
 339              	.LFB23:
ARM GAS  C:\Users\OSD\AppData\Local\Temp\cc8ELV03.s 			page 12


  63:lvgl/src/misc/lv_anim_timeline.c ****     LV_ASSERT_NULL(at);
 340              		.loc 1 63 1 is_stmt 1 view -0
 341              		.cfi_startproc
 342              		@ args = 0, pretend = 0, frame = 0
 343              		@ frame_needed = 0, uses_anonymous_args = 0
  64:lvgl/src/misc/lv_anim_timeline.c **** 
 344              		.loc 1 64 5 view .LVU104
  64:lvgl/src/misc/lv_anim_timeline.c **** 
 345              		.loc 1 64 5 view .LVU105
 346 0000 50B1     		cbz	r0, .L26
  63:lvgl/src/misc/lv_anim_timeline.c ****     LV_ASSERT_NULL(at);
 347              		.loc 1 63 1 is_stmt 0 discriminator 2 view .LVU106
 348 0002 10B5     		push	{r4, lr}
 349              		.cfi_def_cfa_offset 8
 350              		.cfi_offset 4, -8
 351              		.cfi_offset 14, -4
 352 0004 0446     		mov	r4, r0
  64:lvgl/src/misc/lv_anim_timeline.c **** 
 353              		.loc 1 64 5 is_stmt 1 discriminator 2 view .LVU107
  64:lvgl/src/misc/lv_anim_timeline.c **** 
 354              		.loc 1 64 23 discriminator 2 view .LVU108
  66:lvgl/src/misc/lv_anim_timeline.c **** 
 355              		.loc 1 66 5 discriminator 2 view .LVU109
 356 0006 FFF7FEFF 		bl	lv_anim_timeline_stop
 357              	.LVL18:
  68:lvgl/src/misc/lv_anim_timeline.c ****     lv_mem_free(at);
 358              		.loc 1 68 5 discriminator 2 view .LVU110
 359 000a 2068     		ldr	r0, [r4]
 360 000c FFF7FEFF 		bl	lv_mem_free
 361              	.LVL19:
  69:lvgl/src/misc/lv_anim_timeline.c **** }
 362              		.loc 1 69 5 discriminator 2 view .LVU111
 363 0010 2046     		mov	r0, r4
 364 0012 FFF7FEFF 		bl	lv_mem_free
 365              	.LVL20:
  70:lvgl/src/misc/lv_anim_timeline.c **** 
 366              		.loc 1 70 1 is_stmt 0 discriminator 2 view .LVU112
 367 0016 10BD     		pop	{r4, pc}
 368              	.LVL21:
 369              	.L26:
 370              		.cfi_def_cfa_offset 0
 371              		.cfi_restore 4
 372              		.cfi_restore 14
  64:lvgl/src/misc/lv_anim_timeline.c **** 
 373              		.loc 1 64 5 is_stmt 1 discriminator 1 view .LVU113
  64:lvgl/src/misc/lv_anim_timeline.c **** 
 374              		.loc 1 64 5 discriminator 1 view .LVU114
  64:lvgl/src/misc/lv_anim_timeline.c **** 
 375              		.loc 1 64 5 discriminator 1 view .LVU115
  64:lvgl/src/misc/lv_anim_timeline.c **** 
 376              		.loc 1 64 5 discriminator 1 view .LVU116
  64:lvgl/src/misc/lv_anim_timeline.c **** 
 377              		.loc 1 64 5 discriminator 1 view .LVU117
  64:lvgl/src/misc/lv_anim_timeline.c **** 
 378              		.loc 1 64 5 discriminator 1 view .LVU118
 379 0018 FEE7     		b	.L26
 380              		.cfi_endproc
ARM GAS  C:\Users\OSD\AppData\Local\Temp\cc8ELV03.s 			page 13


 381              	.LFE23:
 383              		.section	.text.lv_anim_timeline_set_reverse,"ax",%progbits
 384              		.align	1
 385              		.global	lv_anim_timeline_set_reverse
 386              		.syntax unified
 387              		.thumb
 388              		.thumb_func
 390              	lv_anim_timeline_set_reverse:
 391              	.LVL22:
 392              	.LFB27:
 129:lvgl/src/misc/lv_anim_timeline.c ****     LV_ASSERT_NULL(at);
 393              		.loc 1 129 1 view -0
 394              		.cfi_startproc
 395              		@ args = 0, pretend = 0, frame = 0
 396              		@ frame_needed = 0, uses_anonymous_args = 0
 397              		@ link register save eliminated.
 130:lvgl/src/misc/lv_anim_timeline.c ****     at->reverse = reverse;
 398              		.loc 1 130 5 view .LVU120
 130:lvgl/src/misc/lv_anim_timeline.c ****     at->reverse = reverse;
 399              		.loc 1 130 5 view .LVU121
 400 0000 08B1     		cbz	r0, .L31
 130:lvgl/src/misc/lv_anim_timeline.c ****     at->reverse = reverse;
 401              		.loc 1 130 5 discriminator 2 view .LVU122
 130:lvgl/src/misc/lv_anim_timeline.c ****     at->reverse = reverse;
 402              		.loc 1 130 23 discriminator 2 view .LVU123
 131:lvgl/src/misc/lv_anim_timeline.c **** }
 403              		.loc 1 131 5 discriminator 2 view .LVU124
 131:lvgl/src/misc/lv_anim_timeline.c **** }
 404              		.loc 1 131 17 is_stmt 0 discriminator 2 view .LVU125
 405 0002 0172     		strb	r1, [r0, #8]
 132:lvgl/src/misc/lv_anim_timeline.c **** 
 406              		.loc 1 132 1 discriminator 2 view .LVU126
 407 0004 7047     		bx	lr
 408              	.L31:
 130:lvgl/src/misc/lv_anim_timeline.c ****     at->reverse = reverse;
 409              		.loc 1 130 5 is_stmt 1 discriminator 1 view .LVU127
 130:lvgl/src/misc/lv_anim_timeline.c ****     at->reverse = reverse;
 410              		.loc 1 130 5 discriminator 1 view .LVU128
 130:lvgl/src/misc/lv_anim_timeline.c ****     at->reverse = reverse;
 411              		.loc 1 130 5 discriminator 1 view .LVU129
 130:lvgl/src/misc/lv_anim_timeline.c ****     at->reverse = reverse;
 412              		.loc 1 130 5 discriminator 1 view .LVU130
 130:lvgl/src/misc/lv_anim_timeline.c ****     at->reverse = reverse;
 413              		.loc 1 130 5 discriminator 1 view .LVU131
 130:lvgl/src/misc/lv_anim_timeline.c ****     at->reverse = reverse;
 414              		.loc 1 130 5 discriminator 1 view .LVU132
 415 0006 FEE7     		b	.L31
 416              		.cfi_endproc
 417              	.LFE27:
 419              		.section	.text.lv_anim_timeline_get_playtime,"ax",%progbits
 420              		.align	1
 421              		.global	lv_anim_timeline_get_playtime
 422              		.syntax unified
 423              		.thumb
 424              		.thumb_func
 426              	lv_anim_timeline_get_playtime:
 427              	.LVL23:
ARM GAS  C:\Users\OSD\AppData\Local\Temp\cc8ELV03.s 			page 14


 428              	.LFB29:
 167:lvgl/src/misc/lv_anim_timeline.c ****     LV_ASSERT_NULL(at);
 429              		.loc 1 167 1 view -0
 430              		.cfi_startproc
 431              		@ args = 0, pretend = 0, frame = 0
 432              		@ frame_needed = 0, uses_anonymous_args = 0
 168:lvgl/src/misc/lv_anim_timeline.c **** 
 433              		.loc 1 168 5 view .LVU134
 168:lvgl/src/misc/lv_anim_timeline.c **** 
 434              		.loc 1 168 5 view .LVU135
 435 0000 20B1     		cbz	r0, .L34
 167:lvgl/src/misc/lv_anim_timeline.c ****     LV_ASSERT_NULL(at);
 436              		.loc 1 167 1 is_stmt 0 view .LVU136
 437 0002 F8B5     		push	{r3, r4, r5, r6, r7, lr}
 438              		.cfi_def_cfa_offset 24
 439              		.cfi_offset 3, -24
 440              		.cfi_offset 4, -20
 441              		.cfi_offset 5, -16
 442              		.cfi_offset 6, -12
 443              		.cfi_offset 7, -8
 444              		.cfi_offset 14, -4
 445 0004 0546     		mov	r5, r0
 446              	.LBB12:
 171:lvgl/src/misc/lv_anim_timeline.c ****         uint32_t end = lv_anim_get_playtime(&at->anim_dsc[i].anim);
 447              		.loc 1 171 18 view .LVU137
 448 0006 0024     		movs	r4, #0
 449              	.LBE12:
 170:lvgl/src/misc/lv_anim_timeline.c ****     for(uint32_t i = 0; i < at->anim_dsc_cnt; i++) {
 450              		.loc 1 170 14 view .LVU138
 451 0008 2646     		mov	r6, r4
 452 000a 01E0     		b	.L33
 453              	.L34:
 454              		.cfi_def_cfa_offset 0
 455              		.cfi_restore 3
 456              		.cfi_restore 4
 457              		.cfi_restore 5
 458              		.cfi_restore 6
 459              		.cfi_restore 7
 460              		.cfi_restore 14
 168:lvgl/src/misc/lv_anim_timeline.c **** 
 461              		.loc 1 168 5 is_stmt 1 discriminator 1 view .LVU139
 168:lvgl/src/misc/lv_anim_timeline.c **** 
 462              		.loc 1 168 5 discriminator 1 view .LVU140
 168:lvgl/src/misc/lv_anim_timeline.c **** 
 463              		.loc 1 168 5 discriminator 1 view .LVU141
 168:lvgl/src/misc/lv_anim_timeline.c **** 
 464              		.loc 1 168 5 discriminator 1 view .LVU142
 168:lvgl/src/misc/lv_anim_timeline.c **** 
 465              		.loc 1 168 5 discriminator 1 view .LVU143
 168:lvgl/src/misc/lv_anim_timeline.c **** 
 466              		.loc 1 168 5 discriminator 1 view .LVU144
 467 000c FEE7     		b	.L34
 468              	.LVL24:
 469              	.L36:
 470              		.cfi_def_cfa_offset 24
 471              		.cfi_offset 3, -24
 472              		.cfi_offset 4, -20
ARM GAS  C:\Users\OSD\AppData\Local\Temp\cc8ELV03.s 			page 15


 473              		.cfi_offset 5, -16
 474              		.cfi_offset 6, -12
 475              		.cfi_offset 7, -8
 476              		.cfi_offset 14, -4
 477              	.LBB14:
 171:lvgl/src/misc/lv_anim_timeline.c ****         uint32_t end = lv_anim_get_playtime(&at->anim_dsc[i].anim);
 478              		.loc 1 171 47 discriminator 2 view .LVU145
 171:lvgl/src/misc/lv_anim_timeline.c ****         uint32_t end = lv_anim_get_playtime(&at->anim_dsc[i].anim);
 479              		.loc 1 171 48 is_stmt 0 discriminator 2 view .LVU146
 480 000e 0134     		adds	r4, r4, #1
 481              	.LVL25:
 482              	.L33:
 171:lvgl/src/misc/lv_anim_timeline.c ****         uint32_t end = lv_anim_get_playtime(&at->anim_dsc[i].anim);
 483              		.loc 1 171 25 is_stmt 1 discriminator 1 view .LVU147
 171:lvgl/src/misc/lv_anim_timeline.c ****         uint32_t end = lv_anim_get_playtime(&at->anim_dsc[i].anim);
 484              		.loc 1 171 31 is_stmt 0 discriminator 1 view .LVU148
 485 0010 6B68     		ldr	r3, [r5, #4]
 171:lvgl/src/misc/lv_anim_timeline.c ****         uint32_t end = lv_anim_get_playtime(&at->anim_dsc[i].anim);
 486              		.loc 1 171 5 discriminator 1 view .LVU149
 487 0012 A342     		cmp	r3, r4
 488 0014 13D9     		bls	.L32
 489              	.LBB13:
 172:lvgl/src/misc/lv_anim_timeline.c ****         if(end == LV_ANIM_PLAYTIME_INFINITE)
 490              		.loc 1 172 9 is_stmt 1 view .LVU150
 172:lvgl/src/misc/lv_anim_timeline.c ****         if(end == LV_ANIM_PLAYTIME_INFINITE)
 491              		.loc 1 172 48 is_stmt 0 view .LVU151
 492 0016 2868     		ldr	r0, [r5]
 172:lvgl/src/misc/lv_anim_timeline.c ****         if(end == LV_ANIM_PLAYTIME_INFINITE)
 493              		.loc 1 172 58 view .LVU152
 494 0018 04EBC403 		add	r3, r4, r4, lsl #3
 495 001c DF00     		lsls	r7, r3, #3
 172:lvgl/src/misc/lv_anim_timeline.c ****         if(end == LV_ANIM_PLAYTIME_INFINITE)
 496              		.loc 1 172 24 view .LVU153
 497 001e 00EBC300 		add	r0, r0, r3, lsl #3
 498 0022 FFF7FEFF 		bl	lv_anim_get_playtime
 499              	.LVL26:
 173:lvgl/src/misc/lv_anim_timeline.c ****             return end;
 500              		.loc 1 173 9 is_stmt 1 view .LVU154
 173:lvgl/src/misc/lv_anim_timeline.c ****             return end;
 501              		.loc 1 173 11 is_stmt 0 view .LVU155
 502 0026 B0F1FF3F 		cmp	r0, #-1
 503 002a 07D0     		beq	.L39
 175:lvgl/src/misc/lv_anim_timeline.c ****         if(end > playtime) {
 504              		.loc 1 175 9 is_stmt 1 view .LVU156
 175:lvgl/src/misc/lv_anim_timeline.c ****         if(end > playtime) {
 505              		.loc 1 175 18 is_stmt 0 view .LVU157
 506 002c 2B68     		ldr	r3, [r5]
 175:lvgl/src/misc/lv_anim_timeline.c ****         if(end > playtime) {
 507              		.loc 1 175 28 view .LVU158
 508 002e 3B44     		add	r3, r3, r7
 175:lvgl/src/misc/lv_anim_timeline.c ****         if(end > playtime) {
 509              		.loc 1 175 31 view .LVU159
 510 0030 5B6C     		ldr	r3, [r3, #68]
 175:lvgl/src/misc/lv_anim_timeline.c ****         if(end > playtime) {
 511              		.loc 1 175 13 view .LVU160
 512 0032 1844     		add	r0, r0, r3
 513              	.LVL27:
ARM GAS  C:\Users\OSD\AppData\Local\Temp\cc8ELV03.s 			page 16


 176:lvgl/src/misc/lv_anim_timeline.c ****             playtime = end;
 514              		.loc 1 176 9 is_stmt 1 view .LVU161
 176:lvgl/src/misc/lv_anim_timeline.c ****             playtime = end;
 515              		.loc 1 176 11 is_stmt 0 view .LVU162
 516 0034 8642     		cmp	r6, r0
 517 0036 EAD2     		bcs	.L36
 177:lvgl/src/misc/lv_anim_timeline.c ****         }
 518              		.loc 1 177 22 view .LVU163
 519 0038 0646     		mov	r6, r0
 520              	.LVL28:
 177:lvgl/src/misc/lv_anim_timeline.c ****         }
 521              		.loc 1 177 22 view .LVU164
 522 003a E8E7     		b	.L36
 523              	.LVL29:
 524              	.L39:
 174:lvgl/src/misc/lv_anim_timeline.c ****         end += at->anim_dsc[i].start_time;
 525              		.loc 1 174 20 view .LVU165
 526 003c 0646     		mov	r6, r0
 527              	.LVL30:
 528              	.L32:
 174:lvgl/src/misc/lv_anim_timeline.c ****         end += at->anim_dsc[i].start_time;
 529              		.loc 1 174 20 view .LVU166
 530              	.LBE13:
 531              	.LBE14:
 182:lvgl/src/misc/lv_anim_timeline.c **** 
 532              		.loc 1 182 1 view .LVU167
 533 003e 3046     		mov	r0, r6
 534 0040 F8BD     		pop	{r3, r4, r5, r6, r7, pc}
 182:lvgl/src/misc/lv_anim_timeline.c **** 
 535              		.loc 1 182 1 view .LVU168
 536              		.cfi_endproc
 537              	.LFE29:
 539              		.section	.text.lv_anim_timeline_start,"ax",%progbits
 540              		.align	1
 541              		.global	lv_anim_timeline_start
 542              		.syntax unified
 543              		.thumb
 544              		.thumb_func
 546              	lv_anim_timeline_start:
 547              	.LVL31:
 548              	.LFB25:
  92:lvgl/src/misc/lv_anim_timeline.c ****     LV_ASSERT_NULL(at);
 549              		.loc 1 92 1 is_stmt 1 view -0
 550              		.cfi_startproc
 551              		@ args = 0, pretend = 0, frame = 72
 552              		@ frame_needed = 0, uses_anonymous_args = 0
  93:lvgl/src/misc/lv_anim_timeline.c **** 
 553              		.loc 1 93 5 view .LVU170
  93:lvgl/src/misc/lv_anim_timeline.c **** 
 554              		.loc 1 93 5 view .LVU171
 555 0000 48B1     		cbz	r0, .L45
  92:lvgl/src/misc/lv_anim_timeline.c ****     LV_ASSERT_NULL(at);
 556              		.loc 1 92 1 is_stmt 0 discriminator 2 view .LVU172
 557 0002 2DE9F041 		push	{r4, r5, r6, r7, r8, lr}
 558              		.cfi_def_cfa_offset 24
 559              		.cfi_offset 4, -24
 560              		.cfi_offset 5, -20
ARM GAS  C:\Users\OSD\AppData\Local\Temp\cc8ELV03.s 			page 17


 561              		.cfi_offset 6, -16
 562              		.cfi_offset 7, -12
 563              		.cfi_offset 8, -8
 564              		.cfi_offset 14, -4
 565 0006 92B0     		sub	sp, sp, #72
 566              		.cfi_def_cfa_offset 96
 567 0008 0546     		mov	r5, r0
  93:lvgl/src/misc/lv_anim_timeline.c **** 
 568              		.loc 1 93 5 is_stmt 1 discriminator 2 view .LVU173
  93:lvgl/src/misc/lv_anim_timeline.c **** 
 569              		.loc 1 93 23 discriminator 2 view .LVU174
  95:lvgl/src/misc/lv_anim_timeline.c ****     bool reverse = at->reverse;
 570              		.loc 1 95 5 discriminator 2 view .LVU175
  95:lvgl/src/misc/lv_anim_timeline.c ****     bool reverse = at->reverse;
 571              		.loc 1 95 31 is_stmt 0 discriminator 2 view .LVU176
 572 000a FFF7FEFF 		bl	lv_anim_timeline_get_playtime
 573              	.LVL32:
  95:lvgl/src/misc/lv_anim_timeline.c ****     bool reverse = at->reverse;
 574              		.loc 1 95 31 discriminator 2 view .LVU177
 575 000e 0746     		mov	r7, r0
 576              	.LVL33:
  96:lvgl/src/misc/lv_anim_timeline.c **** 
 577              		.loc 1 96 5 is_stmt 1 discriminator 2 view .LVU178
  96:lvgl/src/misc/lv_anim_timeline.c **** 
 578              		.loc 1 96 10 is_stmt 0 discriminator 2 view .LVU179
 579 0010 2E7A     		ldrb	r6, [r5, #8]	@ zero_extendqisi2
 580              	.LVL34:
  98:lvgl/src/misc/lv_anim_timeline.c ****         lv_anim_t a = at->anim_dsc[i].anim;
 581              		.loc 1 98 5 is_stmt 1 discriminator 2 view .LVU180
 582              	.LBB15:
  98:lvgl/src/misc/lv_anim_timeline.c ****         lv_anim_t a = at->anim_dsc[i].anim;
 583              		.loc 1 98 9 discriminator 2 view .LVU181
  98:lvgl/src/misc/lv_anim_timeline.c ****         lv_anim_t a = at->anim_dsc[i].anim;
 584              		.loc 1 98 18 is_stmt 0 discriminator 2 view .LVU182
 585 0012 0024     		movs	r4, #0
  98:lvgl/src/misc/lv_anim_timeline.c ****         lv_anim_t a = at->anim_dsc[i].anim;
 586              		.loc 1 98 5 discriminator 2 view .LVU183
 587 0014 06E0     		b	.L46
 588              	.LVL35:
 589              	.L45:
 590              		.cfi_def_cfa_offset 0
 591              		.cfi_restore 4
 592              		.cfi_restore 5
 593              		.cfi_restore 6
 594              		.cfi_restore 7
 595              		.cfi_restore 8
 596              		.cfi_restore 14
  98:lvgl/src/misc/lv_anim_timeline.c ****         lv_anim_t a = at->anim_dsc[i].anim;
 597              		.loc 1 98 5 discriminator 2 view .LVU184
 598              	.LBE15:
  93:lvgl/src/misc/lv_anim_timeline.c **** 
 599              		.loc 1 93 5 is_stmt 1 discriminator 1 view .LVU185
  93:lvgl/src/misc/lv_anim_timeline.c **** 
 600              		.loc 1 93 5 discriminator 1 view .LVU186
  93:lvgl/src/misc/lv_anim_timeline.c **** 
 601              		.loc 1 93 5 discriminator 1 view .LVU187
  93:lvgl/src/misc/lv_anim_timeline.c **** 
ARM GAS  C:\Users\OSD\AppData\Local\Temp\cc8ELV03.s 			page 18


 602              		.loc 1 93 5 discriminator 1 view .LVU188
  93:lvgl/src/misc/lv_anim_timeline.c **** 
 603              		.loc 1 93 5 discriminator 1 view .LVU189
  93:lvgl/src/misc/lv_anim_timeline.c **** 
 604              		.loc 1 93 5 discriminator 1 view .LVU190
 605 0016 FEE7     		b	.L45
 606              	.LVL36:
 607              	.L47:
 608              		.cfi_def_cfa_offset 96
 609              		.cfi_offset 4, -24
 610              		.cfi_offset 5, -20
 611              		.cfi_offset 6, -16
 612              		.cfi_offset 7, -12
 613              		.cfi_offset 8, -8
 614              		.cfi_offset 14, -4
 615              	.LBB23:
 616              	.LBB16:
 109:lvgl/src/misc/lv_anim_timeline.c ****         }
 617              		.loc 1 109 13 view .LVU191
 618              	.LBB17:
 619              	.LBI17:
 620              		.file 2 "lvgl/src/misc/lv_anim.h"
   1:lvgl/src/misc/lv_anim.h **** /**
   2:lvgl/src/misc/lv_anim.h ****  * @file lv_anim.h
   3:lvgl/src/misc/lv_anim.h ****  *
   4:lvgl/src/misc/lv_anim.h ****  */
   5:lvgl/src/misc/lv_anim.h **** 
   6:lvgl/src/misc/lv_anim.h **** #ifndef LV_ANIM_H
   7:lvgl/src/misc/lv_anim.h **** #define LV_ANIM_H
   8:lvgl/src/misc/lv_anim.h **** 
   9:lvgl/src/misc/lv_anim.h **** #ifdef __cplusplus
  10:lvgl/src/misc/lv_anim.h **** extern "C" {
  11:lvgl/src/misc/lv_anim.h **** #endif
  12:lvgl/src/misc/lv_anim.h **** 
  13:lvgl/src/misc/lv_anim.h **** /*********************
  14:lvgl/src/misc/lv_anim.h ****  *      INCLUDES
  15:lvgl/src/misc/lv_anim.h ****  *********************/
  16:lvgl/src/misc/lv_anim.h **** #include "../lv_conf_internal.h"
  17:lvgl/src/misc/lv_anim.h **** 
  18:lvgl/src/misc/lv_anim.h **** #include <stdint.h>
  19:lvgl/src/misc/lv_anim.h **** #include <stdbool.h>
  20:lvgl/src/misc/lv_anim.h **** #include <stddef.h>
  21:lvgl/src/misc/lv_anim.h **** 
  22:lvgl/src/misc/lv_anim.h **** /*********************
  23:lvgl/src/misc/lv_anim.h ****  *      DEFINES
  24:lvgl/src/misc/lv_anim.h ****  *********************/
  25:lvgl/src/misc/lv_anim.h **** 
  26:lvgl/src/misc/lv_anim.h **** #define LV_ANIM_REPEAT_INFINITE      0xFFFF
  27:lvgl/src/misc/lv_anim.h **** #define LV_ANIM_PLAYTIME_INFINITE    0xFFFFFFFF
  28:lvgl/src/misc/lv_anim.h **** 
  29:lvgl/src/misc/lv_anim.h **** LV_EXPORT_CONST_INT(LV_ANIM_REPEAT_INFINITE);
  30:lvgl/src/misc/lv_anim.h **** LV_EXPORT_CONST_INT(LV_ANIM_PLAYTIME_INFINITE);
  31:lvgl/src/misc/lv_anim.h **** 
  32:lvgl/src/misc/lv_anim.h **** /**********************
  33:lvgl/src/misc/lv_anim.h ****  *      TYPEDEFS
  34:lvgl/src/misc/lv_anim.h ****  **********************/
  35:lvgl/src/misc/lv_anim.h **** 
ARM GAS  C:\Users\OSD\AppData\Local\Temp\cc8ELV03.s 			page 19


  36:lvgl/src/misc/lv_anim.h **** /** Can be used to indicate if animations are enabled or disabled in a case*/
  37:lvgl/src/misc/lv_anim.h **** typedef enum {
  38:lvgl/src/misc/lv_anim.h ****     LV_ANIM_OFF,
  39:lvgl/src/misc/lv_anim.h ****     LV_ANIM_ON,
  40:lvgl/src/misc/lv_anim.h **** } lv_anim_enable_t;
  41:lvgl/src/misc/lv_anim.h **** 
  42:lvgl/src/misc/lv_anim.h **** struct _lv_anim_t;
  43:lvgl/src/misc/lv_anim.h **** struct _lv_timer_t;
  44:lvgl/src/misc/lv_anim.h **** 
  45:lvgl/src/misc/lv_anim.h **** /** Get the current value during an animation*/
  46:lvgl/src/misc/lv_anim.h **** typedef int32_t (*lv_anim_path_cb_t)(const struct _lv_anim_t *);
  47:lvgl/src/misc/lv_anim.h **** 
  48:lvgl/src/misc/lv_anim.h **** /** Generic prototype of "animator" functions.
  49:lvgl/src/misc/lv_anim.h ****  * First parameter is the variable to animate.
  50:lvgl/src/misc/lv_anim.h ****  * Second parameter is the value to set.
  51:lvgl/src/misc/lv_anim.h ****  * Compatible with `lv_xxx_set_yyy(obj, value)` functions
  52:lvgl/src/misc/lv_anim.h ****  * The `x` in `_xcb_t` means it's not a fully generic prototype because
  53:lvgl/src/misc/lv_anim.h ****  * it doesn't receive `lv_anim_t *` as its first argument*/
  54:lvgl/src/misc/lv_anim.h **** typedef void (*lv_anim_exec_xcb_t)(void *, int32_t);
  55:lvgl/src/misc/lv_anim.h **** 
  56:lvgl/src/misc/lv_anim.h **** /** Same as `lv_anim_exec_xcb_t` but receives `lv_anim_t *` as the first parameter.
  57:lvgl/src/misc/lv_anim.h ****  * It's more consistent but less convenient. Might be used by binding generator functions.*/
  58:lvgl/src/misc/lv_anim.h **** typedef void (*lv_anim_custom_exec_cb_t)(struct _lv_anim_t *, int32_t);
  59:lvgl/src/misc/lv_anim.h **** 
  60:lvgl/src/misc/lv_anim.h **** /** Callback to call when the animation is ready*/
  61:lvgl/src/misc/lv_anim.h **** typedef void (*lv_anim_ready_cb_t)(struct _lv_anim_t *);
  62:lvgl/src/misc/lv_anim.h **** 
  63:lvgl/src/misc/lv_anim.h **** /** Callback to call when the animation really stars (considering `delay`)*/
  64:lvgl/src/misc/lv_anim.h **** typedef void (*lv_anim_start_cb_t)(struct _lv_anim_t *);
  65:lvgl/src/misc/lv_anim.h **** 
  66:lvgl/src/misc/lv_anim.h **** /** Callback used when the animation values are relative to get the current value*/
  67:lvgl/src/misc/lv_anim.h **** typedef int32_t (*lv_anim_get_value_cb_t)(struct _lv_anim_t *);
  68:lvgl/src/misc/lv_anim.h **** 
  69:lvgl/src/misc/lv_anim.h **** /** Callback used when the animation is deleted*/
  70:lvgl/src/misc/lv_anim.h **** typedef void (*lv_anim_deleted_cb_t)(struct _lv_anim_t *);
  71:lvgl/src/misc/lv_anim.h **** 
  72:lvgl/src/misc/lv_anim.h **** /** Describes an animation*/
  73:lvgl/src/misc/lv_anim.h **** typedef struct _lv_anim_t {
  74:lvgl/src/misc/lv_anim.h ****     void * var;                          /**<Variable to animate*/
  75:lvgl/src/misc/lv_anim.h ****     lv_anim_exec_xcb_t exec_cb;          /**< Function to execute to animate*/
  76:lvgl/src/misc/lv_anim.h ****     lv_anim_start_cb_t start_cb;         /**< Call it when the animation is starts (considering `de
  77:lvgl/src/misc/lv_anim.h ****     lv_anim_ready_cb_t ready_cb;         /**< Call it when the animation is ready*/
  78:lvgl/src/misc/lv_anim.h ****     lv_anim_deleted_cb_t deleted_cb;     /**< Call it when the animation is deleted*/
  79:lvgl/src/misc/lv_anim.h ****     lv_anim_get_value_cb_t get_value_cb; /**< Get the current value in relative mode*/
  80:lvgl/src/misc/lv_anim.h **** #if LV_USE_USER_DATA
  81:lvgl/src/misc/lv_anim.h ****     void * user_data; /**< Custom user data*/
  82:lvgl/src/misc/lv_anim.h **** #endif
  83:lvgl/src/misc/lv_anim.h ****     lv_anim_path_cb_t path_cb;         /**< Describe the path (curve) of animations*/
  84:lvgl/src/misc/lv_anim.h ****     int32_t start_value;               /**< Start value*/
  85:lvgl/src/misc/lv_anim.h ****     int32_t current_value;             /**< Current value*/
  86:lvgl/src/misc/lv_anim.h ****     int32_t end_value;                 /**< End value*/
  87:lvgl/src/misc/lv_anim.h ****     int32_t time;                /**< Animation time in ms*/
  88:lvgl/src/misc/lv_anim.h ****     int32_t act_time;            /**< Current time in animation. Set to negative to make delay.*/
  89:lvgl/src/misc/lv_anim.h ****     uint32_t playback_delay;     /**< Wait before play back*/
  90:lvgl/src/misc/lv_anim.h ****     uint32_t playback_time;      /**< Duration of playback animation*/
  91:lvgl/src/misc/lv_anim.h ****     uint32_t repeat_delay;       /**< Wait before repeat*/
  92:lvgl/src/misc/lv_anim.h ****     uint16_t repeat_cnt;         /**< Repeat count for the animation*/
ARM GAS  C:\Users\OSD\AppData\Local\Temp\cc8ELV03.s 			page 20


  93:lvgl/src/misc/lv_anim.h ****     uint8_t early_apply  : 1;    /**< 1: Apply start value immediately even is there is `delay`*/
  94:lvgl/src/misc/lv_anim.h **** 
  95:lvgl/src/misc/lv_anim.h ****     /*Animation system use these - user shouldn't set*/
  96:lvgl/src/misc/lv_anim.h ****     uint8_t playback_now : 1; /**< Play back is in progress*/
  97:lvgl/src/misc/lv_anim.h ****     uint8_t run_round : 1;    /**< Indicates the animation has run in this round*/
  98:lvgl/src/misc/lv_anim.h ****     uint8_t start_cb_called : 1;    /**< Indicates that the `start_cb` was already called*/
  99:lvgl/src/misc/lv_anim.h **** } lv_anim_t;
 100:lvgl/src/misc/lv_anim.h **** 
 101:lvgl/src/misc/lv_anim.h **** /**********************
 102:lvgl/src/misc/lv_anim.h ****  * GLOBAL PROTOTYPES
 103:lvgl/src/misc/lv_anim.h ****  **********************/
 104:lvgl/src/misc/lv_anim.h **** 
 105:lvgl/src/misc/lv_anim.h **** /**
 106:lvgl/src/misc/lv_anim.h ****  * Init. the animation module
 107:lvgl/src/misc/lv_anim.h ****  */
 108:lvgl/src/misc/lv_anim.h **** void _lv_anim_core_init(void);
 109:lvgl/src/misc/lv_anim.h **** 
 110:lvgl/src/misc/lv_anim.h **** /**
 111:lvgl/src/misc/lv_anim.h ****  * Initialize an animation variable.
 112:lvgl/src/misc/lv_anim.h ****  * E.g.:
 113:lvgl/src/misc/lv_anim.h ****  * lv_anim_t a;
 114:lvgl/src/misc/lv_anim.h ****  * lv_anim_init(&a);
 115:lvgl/src/misc/lv_anim.h ****  * lv_anim_set_...(&a);
 116:lvgl/src/misc/lv_anim.h ****  * lv_anim_start(&a);
 117:lvgl/src/misc/lv_anim.h ****  * @param a     pointer to an `lv_anim_t` variable to initialize
 118:lvgl/src/misc/lv_anim.h ****  */
 119:lvgl/src/misc/lv_anim.h **** void lv_anim_init(lv_anim_t * a);
 120:lvgl/src/misc/lv_anim.h **** 
 121:lvgl/src/misc/lv_anim.h **** /**
 122:lvgl/src/misc/lv_anim.h ****  * Set a variable to animate
 123:lvgl/src/misc/lv_anim.h ****  * @param a     pointer to an initialized `lv_anim_t` variable
 124:lvgl/src/misc/lv_anim.h ****  * @param var   pointer to a variable to animate
 125:lvgl/src/misc/lv_anim.h ****  */
 126:lvgl/src/misc/lv_anim.h **** static inline void lv_anim_set_var(lv_anim_t * a, void * var)
 127:lvgl/src/misc/lv_anim.h **** {
 128:lvgl/src/misc/lv_anim.h ****     a->var = var;
 129:lvgl/src/misc/lv_anim.h **** }
 130:lvgl/src/misc/lv_anim.h **** 
 131:lvgl/src/misc/lv_anim.h **** /**
 132:lvgl/src/misc/lv_anim.h ****  * Set a function to animate `var`
 133:lvgl/src/misc/lv_anim.h ****  * @param a         pointer to an initialized `lv_anim_t` variable
 134:lvgl/src/misc/lv_anim.h ****  * @param exec_cb   a function to execute during animation
 135:lvgl/src/misc/lv_anim.h ****  *                  LVGL's built-in functions can be used.
 136:lvgl/src/misc/lv_anim.h ****  *                  E.g. lv_obj_set_x
 137:lvgl/src/misc/lv_anim.h ****  */
 138:lvgl/src/misc/lv_anim.h **** static inline void lv_anim_set_exec_cb(lv_anim_t * a, lv_anim_exec_xcb_t exec_cb)
 139:lvgl/src/misc/lv_anim.h **** {
 140:lvgl/src/misc/lv_anim.h ****     a->exec_cb = exec_cb;
 141:lvgl/src/misc/lv_anim.h **** }
 142:lvgl/src/misc/lv_anim.h **** 
 143:lvgl/src/misc/lv_anim.h **** /**
 144:lvgl/src/misc/lv_anim.h ****  * Set the duration of an animation
 145:lvgl/src/misc/lv_anim.h ****  * @param a         pointer to an initialized `lv_anim_t` variable
 146:lvgl/src/misc/lv_anim.h ****  * @param duration  duration of the animation in milliseconds
 147:lvgl/src/misc/lv_anim.h ****  */
 148:lvgl/src/misc/lv_anim.h **** static inline void lv_anim_set_time(lv_anim_t * a, uint32_t duration)
 149:lvgl/src/misc/lv_anim.h **** {
ARM GAS  C:\Users\OSD\AppData\Local\Temp\cc8ELV03.s 			page 21


 150:lvgl/src/misc/lv_anim.h ****     a->time = duration;
 151:lvgl/src/misc/lv_anim.h **** }
 152:lvgl/src/misc/lv_anim.h **** 
 153:lvgl/src/misc/lv_anim.h **** /**
 154:lvgl/src/misc/lv_anim.h ****  * Set a delay before starting the animation
 155:lvgl/src/misc/lv_anim.h ****  * @param a         pointer to an initialized `lv_anim_t` variable
 156:lvgl/src/misc/lv_anim.h ****  * @param delay     delay before the animation in milliseconds
 157:lvgl/src/misc/lv_anim.h ****  */
 158:lvgl/src/misc/lv_anim.h **** static inline void lv_anim_set_delay(lv_anim_t * a, uint32_t delay)
 621              		.loc 2 158 20 view .LVU192
 622              	.LBB18:
 159:lvgl/src/misc/lv_anim.h **** {
 160:lvgl/src/misc/lv_anim.h ****     a->act_time = -(int32_t)(delay);
 623              		.loc 2 160 5 view .LVU193
 624              		.loc 2 160 19 is_stmt 0 view .LVU194
 625 0018 5B42     		rsbs	r3, r3, #0
 626              	.LVL37:
 627              		.loc 2 160 17 view .LVU195
 628 001a 0D93     		str	r3, [sp, #52]
 629              	.LVL38:
 630              	.L48:
 631              		.loc 2 160 17 view .LVU196
 632              	.LBE18:
 633              	.LBE17:
 112:lvgl/src/misc/lv_anim_timeline.c ****     }
 634              		.loc 1 112 9 is_stmt 1 discriminator 2 view .LVU197
 635 001c 01A8     		add	r0, sp, #4
 636 001e FFF7FEFF 		bl	lv_anim_start
 637              	.LVL39:
 112:lvgl/src/misc/lv_anim_timeline.c ****     }
 638              		.loc 1 112 9 is_stmt 0 discriminator 2 view .LVU198
 639              	.LBE16:
  98:lvgl/src/misc/lv_anim_timeline.c ****         lv_anim_t a = at->anim_dsc[i].anim;
 640              		.loc 1 98 47 is_stmt 1 discriminator 2 view .LVU199
  98:lvgl/src/misc/lv_anim_timeline.c ****         lv_anim_t a = at->anim_dsc[i].anim;
 641              		.loc 1 98 48 is_stmt 0 discriminator 2 view .LVU200
 642 0022 0134     		adds	r4, r4, #1
 643              	.LVL40:
 644              	.L46:
  98:lvgl/src/misc/lv_anim_timeline.c ****         lv_anim_t a = at->anim_dsc[i].anim;
 645              		.loc 1 98 25 is_stmt 1 discriminator 1 view .LVU201
  98:lvgl/src/misc/lv_anim_timeline.c ****         lv_anim_t a = at->anim_dsc[i].anim;
 646              		.loc 1 98 31 is_stmt 0 discriminator 1 view .LVU202
 647 0024 6B68     		ldr	r3, [r5, #4]
  98:lvgl/src/misc/lv_anim_timeline.c ****         lv_anim_t a = at->anim_dsc[i].anim;
 648              		.loc 1 98 5 discriminator 1 view .LVU203
 649 0026 A342     		cmp	r3, r4
 650 0028 18D9     		bls	.L52
 651              	.LBB22:
  99:lvgl/src/misc/lv_anim_timeline.c ****         uint32_t start_time = at->anim_dsc[i].start_time;
 652              		.loc 1 99 9 is_stmt 1 view .LVU204
  99:lvgl/src/misc/lv_anim_timeline.c ****         uint32_t start_time = at->anim_dsc[i].start_time;
 653              		.loc 1 99 25 is_stmt 0 view .LVU205
 654 002a 2968     		ldr	r1, [r5]
  99:lvgl/src/misc/lv_anim_timeline.c ****         uint32_t start_time = at->anim_dsc[i].start_time;
 655              		.loc 1 99 35 view .LVU206
 656 002c 04EBC403 		add	r3, r4, r4, lsl #3
ARM GAS  C:\Users\OSD\AppData\Local\Temp\cc8ELV03.s 			page 22


 657 0030 4FEAC308 		lsl	r8, r3, #3
  99:lvgl/src/misc/lv_anim_timeline.c ****         uint32_t start_time = at->anim_dsc[i].start_time;
 658              		.loc 1 99 19 view .LVU207
 659 0034 4422     		movs	r2, #68
 660 0036 01EBC301 		add	r1, r1, r3, lsl #3
 661 003a 01A8     		add	r0, sp, #4
 662 003c FFF7FEFF 		bl	memcpy
 663              	.LVL41:
 100:lvgl/src/misc/lv_anim_timeline.c **** 
 664              		.loc 1 100 9 is_stmt 1 view .LVU208
 100:lvgl/src/misc/lv_anim_timeline.c **** 
 665              		.loc 1 100 33 is_stmt 0 view .LVU209
 666 0040 2B68     		ldr	r3, [r5]
 100:lvgl/src/misc/lv_anim_timeline.c **** 
 667              		.loc 1 100 43 view .LVU210
 668 0042 4344     		add	r3, r3, r8
 100:lvgl/src/misc/lv_anim_timeline.c **** 
 669              		.loc 1 100 18 view .LVU211
 670 0044 5B6C     		ldr	r3, [r3, #68]
 671              	.LVL42:
 102:lvgl/src/misc/lv_anim_timeline.c ****             int32_t temp = a.start_value;
 672              		.loc 1 102 9 is_stmt 1 view .LVU212
 102:lvgl/src/misc/lv_anim_timeline.c ****             int32_t temp = a.start_value;
 673              		.loc 1 102 11 is_stmt 0 view .LVU213
 674 0046 002E     		cmp	r6, #0
 675 0048 E6D0     		beq	.L47
 676              	.LBB19:
 103:lvgl/src/misc/lv_anim_timeline.c ****             a.start_value = a.end_value;
 677              		.loc 1 103 13 is_stmt 1 view .LVU214
 103:lvgl/src/misc/lv_anim_timeline.c ****             a.start_value = a.end_value;
 678              		.loc 1 103 21 is_stmt 0 view .LVU215
 679 004a 099A     		ldr	r2, [sp, #36]
 680              	.LVL43:
 104:lvgl/src/misc/lv_anim_timeline.c ****             a.end_value = temp;
 681              		.loc 1 104 13 is_stmt 1 view .LVU216
 104:lvgl/src/misc/lv_anim_timeline.c ****             a.end_value = temp;
 682              		.loc 1 104 30 is_stmt 0 view .LVU217
 683 004c 0B99     		ldr	r1, [sp, #44]
 104:lvgl/src/misc/lv_anim_timeline.c ****             a.end_value = temp;
 684              		.loc 1 104 27 view .LVU218
 685 004e 0991     		str	r1, [sp, #36]
 105:lvgl/src/misc/lv_anim_timeline.c ****             lv_anim_set_delay(&a, playtime - (start_time + a.time));
 686              		.loc 1 105 13 is_stmt 1 view .LVU219
 105:lvgl/src/misc/lv_anim_timeline.c ****             lv_anim_set_delay(&a, playtime - (start_time + a.time));
 687              		.loc 1 105 25 is_stmt 0 view .LVU220
 688 0050 0B92     		str	r2, [sp, #44]
 106:lvgl/src/misc/lv_anim_timeline.c ****         }
 689              		.loc 1 106 13 is_stmt 1 view .LVU221
 106:lvgl/src/misc/lv_anim_timeline.c ****         }
 690              		.loc 1 106 61 is_stmt 0 view .LVU222
 691 0052 0C9A     		ldr	r2, [sp, #48]
 692              	.LVL44:
 106:lvgl/src/misc/lv_anim_timeline.c ****         }
 693              		.loc 1 106 58 view .LVU223
 694 0054 1344     		add	r3, r3, r2
 695              	.LVL45:
 696              	.LBB20:
ARM GAS  C:\Users\OSD\AppData\Local\Temp\cc8ELV03.s 			page 23


 697              	.LBI20:
 158:lvgl/src/misc/lv_anim.h **** {
 698              		.loc 2 158 20 is_stmt 1 view .LVU224
 699              	.LBB21:
 700              		.loc 2 160 5 view .LVU225
 701              		.loc 2 160 19 is_stmt 0 view .LVU226
 702 0056 DB1B     		subs	r3, r3, r7
 703              	.LVL46:
 704              		.loc 2 160 17 view .LVU227
 705 0058 0D93     		str	r3, [sp, #52]
 161:lvgl/src/misc/lv_anim.h **** }
 706              		.loc 2 161 1 view .LVU228
 707 005a DFE7     		b	.L48
 708              	.LVL47:
 709              	.L52:
 710              		.loc 2 161 1 view .LVU229
 711              	.LBE21:
 712              	.LBE20:
 713              	.LBE19:
 714              	.LBE22:
 715              	.LBE23:
 115:lvgl/src/misc/lv_anim_timeline.c **** }
 716              		.loc 1 115 5 is_stmt 1 view .LVU230
 116:lvgl/src/misc/lv_anim_timeline.c **** 
 717              		.loc 1 116 1 is_stmt 0 view .LVU231
 718 005c 3846     		mov	r0, r7
 719 005e 12B0     		add	sp, sp, #72
 720              		.cfi_def_cfa_offset 24
 721              		@ sp needed
 722 0060 BDE8F081 		pop	{r4, r5, r6, r7, r8, pc}
 116:lvgl/src/misc/lv_anim_timeline.c **** 
 723              		.loc 1 116 1 view .LVU232
 724              		.cfi_endproc
 725              	.LFE25:
 727              		.section	.text.lv_anim_timeline_set_progress,"ax",%progbits
 728              		.align	1
 729              		.global	lv_anim_timeline_set_progress
 730              		.syntax unified
 731              		.thumb
 732              		.thumb_func
 734              	lv_anim_timeline_set_progress:
 735              	.LVL48:
 736              	.LFB28:
 135:lvgl/src/misc/lv_anim_timeline.c ****     LV_ASSERT_NULL(at);
 737              		.loc 1 135 1 is_stmt 1 view -0
 738              		.cfi_startproc
 739              		@ args = 0, pretend = 0, frame = 0
 740              		@ frame_needed = 0, uses_anonymous_args = 0
 136:lvgl/src/misc/lv_anim_timeline.c **** 
 741              		.loc 1 136 5 view .LVU234
 136:lvgl/src/misc/lv_anim_timeline.c **** 
 742              		.loc 1 136 5 view .LVU235
 743 0000 68B1     		cbz	r0, .L55
 135:lvgl/src/misc/lv_anim_timeline.c ****     LV_ASSERT_NULL(at);
 744              		.loc 1 135 1 is_stmt 0 discriminator 2 view .LVU236
 745 0002 2DE9F843 		push	{r3, r4, r5, r6, r7, r8, r9, lr}
 746              		.cfi_def_cfa_offset 32
ARM GAS  C:\Users\OSD\AppData\Local\Temp\cc8ELV03.s 			page 24


 747              		.cfi_offset 3, -32
 748              		.cfi_offset 4, -28
 749              		.cfi_offset 5, -24
 750              		.cfi_offset 6, -20
 751              		.cfi_offset 7, -16
 752              		.cfi_offset 8, -12
 753              		.cfi_offset 9, -8
 754              		.cfi_offset 14, -4
 755 0006 0E46     		mov	r6, r1
 756 0008 8046     		mov	r8, r0
 136:lvgl/src/misc/lv_anim_timeline.c **** 
 757              		.loc 1 136 5 is_stmt 1 discriminator 2 view .LVU237
 136:lvgl/src/misc/lv_anim_timeline.c **** 
 758              		.loc 1 136 23 discriminator 2 view .LVU238
 138:lvgl/src/misc/lv_anim_timeline.c ****     const uint32_t act_time = progress * playtime / 0xFFFF;
 759              		.loc 1 138 5 discriminator 2 view .LVU239
 138:lvgl/src/misc/lv_anim_timeline.c ****     const uint32_t act_time = progress * playtime / 0xFFFF;
 760              		.loc 1 138 31 is_stmt 0 discriminator 2 view .LVU240
 761 000a FFF7FEFF 		bl	lv_anim_timeline_get_playtime
 762              	.LVL49:
 139:lvgl/src/misc/lv_anim_timeline.c **** 
 763              		.loc 1 139 5 is_stmt 1 discriminator 2 view .LVU241
 139:lvgl/src/misc/lv_anim_timeline.c **** 
 764              		.loc 1 139 40 is_stmt 0 discriminator 2 view .LVU242
 765 000e 00FB06F6 		mul	r6, r0, r6
 139:lvgl/src/misc/lv_anim_timeline.c **** 
 766              		.loc 1 139 20 discriminator 2 view .LVU243
 767 0012 174B     		ldr	r3, .L65
 768 0014 A3FB0636 		umull	r3, r6, r3, r6
 769 0018 F60B     		lsrs	r6, r6, #15
 770              	.LVL50:
 141:lvgl/src/misc/lv_anim_timeline.c ****         lv_anim_t * a = &(at->anim_dsc[i].anim);
 771              		.loc 1 141 5 is_stmt 1 discriminator 2 view .LVU244
 772              	.LBB24:
 141:lvgl/src/misc/lv_anim_timeline.c ****         lv_anim_t * a = &(at->anim_dsc[i].anim);
 773              		.loc 1 141 9 discriminator 2 view .LVU245
 141:lvgl/src/misc/lv_anim_timeline.c ****         lv_anim_t * a = &(at->anim_dsc[i].anim);
 774              		.loc 1 141 18 is_stmt 0 discriminator 2 view .LVU246
 775 001a 0025     		movs	r5, #0
 141:lvgl/src/misc/lv_anim_timeline.c ****         lv_anim_t * a = &(at->anim_dsc[i].anim);
 776              		.loc 1 141 5 discriminator 2 view .LVU247
 777 001c 0FE0     		b	.L56
 778              	.LVL51:
 779              	.L55:
 780              		.cfi_def_cfa_offset 0
 781              		.cfi_restore 3
 782              		.cfi_restore 4
 783              		.cfi_restore 5
 784              		.cfi_restore 6
 785              		.cfi_restore 7
 786              		.cfi_restore 8
 787              		.cfi_restore 9
 788              		.cfi_restore 14
 141:lvgl/src/misc/lv_anim_timeline.c ****         lv_anim_t * a = &(at->anim_dsc[i].anim);
 789              		.loc 1 141 5 discriminator 2 view .LVU248
 790              	.LBE24:
 136:lvgl/src/misc/lv_anim_timeline.c **** 
ARM GAS  C:\Users\OSD\AppData\Local\Temp\cc8ELV03.s 			page 25


 791              		.loc 1 136 5 is_stmt 1 discriminator 1 view .LVU249
 136:lvgl/src/misc/lv_anim_timeline.c **** 
 792              		.loc 1 136 5 discriminator 1 view .LVU250
 136:lvgl/src/misc/lv_anim_timeline.c **** 
 793              		.loc 1 136 5 discriminator 1 view .LVU251
 136:lvgl/src/misc/lv_anim_timeline.c **** 
 794              		.loc 1 136 5 discriminator 1 view .LVU252
 136:lvgl/src/misc/lv_anim_timeline.c **** 
 795              		.loc 1 136 5 discriminator 1 view .LVU253
 136:lvgl/src/misc/lv_anim_timeline.c **** 
 796              		.loc 1 136 5 discriminator 1 view .LVU254
 797 001e FEE7     		b	.L55
 798              	.LVL52:
 799              	.L58:
 800              		.cfi_def_cfa_offset 32
 801              		.cfi_offset 3, -32
 802              		.cfi_offset 4, -28
 803              		.cfi_offset 5, -24
 804              		.cfi_offset 6, -20
 805              		.cfi_offset 7, -16
 806              		.cfi_offset 8, -12
 807              		.cfi_offset 9, -8
 808              		.cfi_offset 14, -4
 809              	.LBB27:
 810              	.LBB25:
 154:lvgl/src/misc/lv_anim_timeline.c ****             a->act_time = act_time - start_time;
 811              		.loc 1 154 14 view .LVU255
 154:lvgl/src/misc/lv_anim_timeline.c ****             a->act_time = act_time - start_time;
 812              		.loc 1 154 43 is_stmt 0 view .LVU256
 813 0020 E26A     		ldr	r2, [r4, #44]
 154:lvgl/src/misc/lv_anim_timeline.c ****             a->act_time = act_time - start_time;
 814              		.loc 1 154 40 view .LVU257
 815 0022 1A44     		add	r2, r2, r3
 154:lvgl/src/misc/lv_anim_timeline.c ****             a->act_time = act_time - start_time;
 816              		.loc 1 154 16 view .LVU258
 817 0024 B242     		cmp	r2, r6
 818 0026 1ED9     		bls	.L60
 155:lvgl/src/misc/lv_anim_timeline.c ****             value = a->path_cb(a);
 819              		.loc 1 155 13 is_stmt 1 view .LVU259
 155:lvgl/src/misc/lv_anim_timeline.c ****             value = a->path_cb(a);
 820              		.loc 1 155 36 is_stmt 0 view .LVU260
 821 0028 F31A     		subs	r3, r6, r3
 822              	.LVL53:
 155:lvgl/src/misc/lv_anim_timeline.c ****             value = a->path_cb(a);
 823              		.loc 1 155 25 view .LVU261
 824 002a 2363     		str	r3, [r4, #48]
 825              	.LVL54:
 156:lvgl/src/misc/lv_anim_timeline.c ****         }
 826              		.loc 1 156 13 is_stmt 1 view .LVU262
 156:lvgl/src/misc/lv_anim_timeline.c ****         }
 827              		.loc 1 156 22 is_stmt 0 view .LVU263
 828 002c E369     		ldr	r3, [r4, #28]
 156:lvgl/src/misc/lv_anim_timeline.c ****         }
 829              		.loc 1 156 21 view .LVU264
 830 002e 2046     		mov	r0, r4
 831 0030 9847     		blx	r3
 832              	.LVL55:
ARM GAS  C:\Users\OSD\AppData\Local\Temp\cc8ELV03.s 			page 26


 833 0032 0146     		mov	r1, r0
 834              	.LVL56:
 835              	.L59:
 162:lvgl/src/misc/lv_anim_timeline.c ****     }
 836              		.loc 1 162 9 is_stmt 1 view .LVU265
 162:lvgl/src/misc/lv_anim_timeline.c ****     }
 837              		.loc 1 162 10 is_stmt 0 view .LVU266
 838 0034 6368     		ldr	r3, [r4, #4]
 162:lvgl/src/misc/lv_anim_timeline.c ****     }
 839              		.loc 1 162 9 view .LVU267
 840 0036 57F80900 		ldr	r0, [r7, r9]
 841 003a 9847     		blx	r3
 842              	.LVL57:
 843              	.L57:
 162:lvgl/src/misc/lv_anim_timeline.c ****     }
 844              		.loc 1 162 9 view .LVU268
 845              	.LBE25:
 141:lvgl/src/misc/lv_anim_timeline.c ****         lv_anim_t * a = &(at->anim_dsc[i].anim);
 846              		.loc 1 141 47 is_stmt 1 discriminator 2 view .LVU269
 141:lvgl/src/misc/lv_anim_timeline.c ****         lv_anim_t * a = &(at->anim_dsc[i].anim);
 847              		.loc 1 141 48 is_stmt 0 discriminator 2 view .LVU270
 848 003c 0135     		adds	r5, r5, #1
 849              	.LVL58:
 850              	.L56:
 141:lvgl/src/misc/lv_anim_timeline.c ****         lv_anim_t * a = &(at->anim_dsc[i].anim);
 851              		.loc 1 141 25 is_stmt 1 discriminator 1 view .LVU271
 141:lvgl/src/misc/lv_anim_timeline.c ****         lv_anim_t * a = &(at->anim_dsc[i].anim);
 852              		.loc 1 141 31 is_stmt 0 discriminator 1 view .LVU272
 853 003e D8F80430 		ldr	r3, [r8, #4]
 141:lvgl/src/misc/lv_anim_timeline.c ****         lv_anim_t * a = &(at->anim_dsc[i].anim);
 854              		.loc 1 141 5 discriminator 1 view .LVU273
 855 0042 AB42     		cmp	r3, r5
 856 0044 11D9     		bls	.L64
 857              	.LBB26:
 142:lvgl/src/misc/lv_anim_timeline.c **** 
 858              		.loc 1 142 9 is_stmt 1 view .LVU274
 142:lvgl/src/misc/lv_anim_timeline.c **** 
 859              		.loc 1 142 29 is_stmt 0 view .LVU275
 860 0046 D8F80070 		ldr	r7, [r8]
 142:lvgl/src/misc/lv_anim_timeline.c **** 
 861              		.loc 1 142 39 view .LVU276
 862 004a 05EBC504 		add	r4, r5, r5, lsl #3
 863 004e 4FEAC409 		lsl	r9, r4, #3
 864 0052 07EBC404 		add	r4, r7, r4, lsl #3
 865              	.LVL59:
 144:lvgl/src/misc/lv_anim_timeline.c ****             continue;
 866              		.loc 1 144 9 is_stmt 1 view .LVU277
 144:lvgl/src/misc/lv_anim_timeline.c ****             continue;
 867              		.loc 1 144 13 is_stmt 0 view .LVU278
 868 0056 6368     		ldr	r3, [r4, #4]
 144:lvgl/src/misc/lv_anim_timeline.c ****             continue;
 869              		.loc 1 144 11 view .LVU279
 870 0058 002B     		cmp	r3, #0
 871 005a EFD0     		beq	.L57
 148:lvgl/src/misc/lv_anim_timeline.c ****         int32_t value = 0;
 872              		.loc 1 148 9 is_stmt 1 view .LVU280
 148:lvgl/src/misc/lv_anim_timeline.c ****         int32_t value = 0;
ARM GAS  C:\Users\OSD\AppData\Local\Temp\cc8ELV03.s 			page 27


 873              		.loc 1 148 18 is_stmt 0 view .LVU281
 874 005c 636C     		ldr	r3, [r4, #68]
 875              	.LVL60:
 149:lvgl/src/misc/lv_anim_timeline.c **** 
 876              		.loc 1 149 9 is_stmt 1 view .LVU282
 151:lvgl/src/misc/lv_anim_timeline.c ****             value = a->start_value;
 877              		.loc 1 151 9 view .LVU283
 151:lvgl/src/misc/lv_anim_timeline.c ****             value = a->start_value;
 878              		.loc 1 151 11 is_stmt 0 view .LVU284
 879 005e 9E42     		cmp	r6, r3
 880 0060 DED2     		bcs	.L58
 152:lvgl/src/misc/lv_anim_timeline.c ****         }
 881              		.loc 1 152 13 is_stmt 1 view .LVU285
 152:lvgl/src/misc/lv_anim_timeline.c ****         }
 882              		.loc 1 152 19 is_stmt 0 view .LVU286
 883 0062 216A     		ldr	r1, [r4, #32]
 884              	.LVL61:
 152:lvgl/src/misc/lv_anim_timeline.c ****         }
 885              		.loc 1 152 19 view .LVU287
 886 0064 E6E7     		b	.L59
 887              	.LVL62:
 888              	.L60:
 159:lvgl/src/misc/lv_anim_timeline.c ****         }
 889              		.loc 1 159 13 is_stmt 1 view .LVU288
 159:lvgl/src/misc/lv_anim_timeline.c ****         }
 890              		.loc 1 159 19 is_stmt 0 view .LVU289
 891 0066 A16A     		ldr	r1, [r4, #40]
 892              	.LVL63:
 159:lvgl/src/misc/lv_anim_timeline.c ****         }
 893              		.loc 1 159 19 view .LVU290
 894 0068 E4E7     		b	.L59
 895              	.LVL64:
 896              	.L64:
 159:lvgl/src/misc/lv_anim_timeline.c ****         }
 897              		.loc 1 159 19 view .LVU291
 898              	.LBE26:
 899              	.LBE27:
 164:lvgl/src/misc/lv_anim_timeline.c **** 
 900              		.loc 1 164 1 view .LVU292
 901 006a BDE8F883 		pop	{r3, r4, r5, r6, r7, r8, r9, pc}
 902              	.LVL65:
 903              	.L66:
 164:lvgl/src/misc/lv_anim_timeline.c **** 
 904              		.loc 1 164 1 view .LVU293
 905 006e 00BF     		.align	2
 906              	.L65:
 907 0070 01800080 		.word	-2147450879
 908              		.cfi_endproc
 909              	.LFE28:
 911              		.section	.text.lv_anim_timeline_get_reverse,"ax",%progbits
 912              		.align	1
 913              		.global	lv_anim_timeline_get_reverse
 914              		.syntax unified
 915              		.thumb
 916              		.thumb_func
 918              	lv_anim_timeline_get_reverse:
 919              	.LVL66:
ARM GAS  C:\Users\OSD\AppData\Local\Temp\cc8ELV03.s 			page 28


 920              	.LFB30:
 185:lvgl/src/misc/lv_anim_timeline.c ****     LV_ASSERT_NULL(at);
 921              		.loc 1 185 1 is_stmt 1 view -0
 922              		.cfi_startproc
 923              		@ args = 0, pretend = 0, frame = 0
 924              		@ frame_needed = 0, uses_anonymous_args = 0
 925              		@ link register save eliminated.
 186:lvgl/src/misc/lv_anim_timeline.c ****     return at->reverse;
 926              		.loc 1 186 5 view .LVU295
 186:lvgl/src/misc/lv_anim_timeline.c ****     return at->reverse;
 927              		.loc 1 186 5 view .LVU296
 928 0000 08B1     		cbz	r0, .L69
 186:lvgl/src/misc/lv_anim_timeline.c ****     return at->reverse;
 929              		.loc 1 186 5 discriminator 2 view .LVU297
 186:lvgl/src/misc/lv_anim_timeline.c ****     return at->reverse;
 930              		.loc 1 186 23 discriminator 2 view .LVU298
 187:lvgl/src/misc/lv_anim_timeline.c **** }
 931              		.loc 1 187 5 discriminator 2 view .LVU299
 188:lvgl/src/misc/lv_anim_timeline.c **** 
 932              		.loc 1 188 1 is_stmt 0 discriminator 2 view .LVU300
 933 0002 007A     		ldrb	r0, [r0, #8]	@ zero_extendqisi2
 934              	.LVL67:
 188:lvgl/src/misc/lv_anim_timeline.c **** 
 935              		.loc 1 188 1 discriminator 2 view .LVU301
 936 0004 7047     		bx	lr
 937              	.LVL68:
 938              	.L69:
 186:lvgl/src/misc/lv_anim_timeline.c ****     return at->reverse;
 939              		.loc 1 186 5 is_stmt 1 discriminator 1 view .LVU302
 186:lvgl/src/misc/lv_anim_timeline.c ****     return at->reverse;
 940              		.loc 1 186 5 discriminator 1 view .LVU303
 186:lvgl/src/misc/lv_anim_timeline.c ****     return at->reverse;
 941              		.loc 1 186 5 discriminator 1 view .LVU304
 186:lvgl/src/misc/lv_anim_timeline.c ****     return at->reverse;
 942              		.loc 1 186 5 discriminator 1 view .LVU305
 186:lvgl/src/misc/lv_anim_timeline.c ****     return at->reverse;
 943              		.loc 1 186 5 discriminator 1 view .LVU306
 186:lvgl/src/misc/lv_anim_timeline.c ****     return at->reverse;
 944              		.loc 1 186 5 discriminator 1 view .LVU307
 945 0006 FEE7     		b	.L69
 946              		.cfi_endproc
 947              	.LFE30:
 949              		.text
 950              	.Letext0:
 951              		.file 3 "c:\\tools\\gcc-arm-none-eabi\\arm-none-eabi\\include\\machine\\_default_types.h"
 952              		.file 4 "c:\\tools\\gcc-arm-none-eabi\\arm-none-eabi\\include\\sys\\_stdint.h"
 953              		.file 5 "lvgl/src/misc/lv_anim_timeline.h"
 954              		.file 6 "lvgl/src/misc/lv_mem.h"
 955              		.file 7 "<built-in>"
ARM GAS  C:\Users\OSD\AppData\Local\Temp\cc8ELV03.s 			page 29

