ARM GAS  C:\Users\OSD\AppData\Local\Temp\cclkbkif.s 			page 1


   1              		.cpu cortex-m7
   2              		.arch armv7e-m
   3              		.fpu fpv5-d16
   4              		.eabi_attribute 28, 1
   5              		.eabi_attribute 20, 1
   6              		.eabi_attribute 21, 1
   7              		.eabi_attribute 23, 3
   8              		.eabi_attribute 24, 1
   9              		.eabi_attribute 25, 1
  10              		.eabi_attribute 26, 1
  11              		.eabi_attribute 30, 1
  12              		.eabi_attribute 34, 1
  13              		.eabi_attribute 18, 4
  14              		.file	"lv_animimg.c"
  15              		.text
  16              	.Ltext0:
  17              		.cfi_sections	.debug_frame
  18              		.section	.text.lv_animimg_constructor,"ax",%progbits
  19              		.align	1
  20              		.syntax unified
  21              		.thumb
  22              		.thumb_func
  24              	lv_animimg_constructor:
  25              	.LVL0:
  26              	.LFB209:
  27              		.file 1 "lvgl/src/extra/widgets/animimg/lv_animimg.c"
   1:lvgl/src/extra/widgets/animimg/lv_animimg.c **** /**
   2:lvgl/src/extra/widgets/animimg/lv_animimg.c ****  * @file lv_animimg.c
   3:lvgl/src/extra/widgets/animimg/lv_animimg.c ****  *
   4:lvgl/src/extra/widgets/animimg/lv_animimg.c ****  */
   5:lvgl/src/extra/widgets/animimg/lv_animimg.c **** 
   6:lvgl/src/extra/widgets/animimg/lv_animimg.c **** /*********************
   7:lvgl/src/extra/widgets/animimg/lv_animimg.c ****  *      INCLUDES
   8:lvgl/src/extra/widgets/animimg/lv_animimg.c ****  *********************/
   9:lvgl/src/extra/widgets/animimg/lv_animimg.c **** #include "lv_animimg.h"
  10:lvgl/src/extra/widgets/animimg/lv_animimg.c **** #if LV_USE_ANIMIMG != 0
  11:lvgl/src/extra/widgets/animimg/lv_animimg.c **** 
  12:lvgl/src/extra/widgets/animimg/lv_animimg.c **** /*Testing of dependencies*/
  13:lvgl/src/extra/widgets/animimg/lv_animimg.c **** #if LV_USE_IMG == 0
  14:lvgl/src/extra/widgets/animimg/lv_animimg.c ****     #error "lv_animimg: lv_img is required. Enable it in lv_conf.h (LV_USE_IMG  1) "
  15:lvgl/src/extra/widgets/animimg/lv_animimg.c **** #endif
  16:lvgl/src/extra/widgets/animimg/lv_animimg.c **** 
  17:lvgl/src/extra/widgets/animimg/lv_animimg.c **** #include "../../../misc/lv_assert.h"
  18:lvgl/src/extra/widgets/animimg/lv_animimg.c **** #include "../../../draw/lv_img_decoder.h"
  19:lvgl/src/extra/widgets/animimg/lv_animimg.c **** #include "../../../misc/lv_fs.h"
  20:lvgl/src/extra/widgets/animimg/lv_animimg.c **** #include "../../../misc/lv_txt.h"
  21:lvgl/src/extra/widgets/animimg/lv_animimg.c **** #include "../../../misc/lv_math.h"
  22:lvgl/src/extra/widgets/animimg/lv_animimg.c **** #include "../../../misc/lv_log.h"
  23:lvgl/src/extra/widgets/animimg/lv_animimg.c **** #include "../../../misc/lv_anim.h"
  24:lvgl/src/extra/widgets/animimg/lv_animimg.c **** 
  25:lvgl/src/extra/widgets/animimg/lv_animimg.c **** /*********************
  26:lvgl/src/extra/widgets/animimg/lv_animimg.c ****  *      DEFINES
  27:lvgl/src/extra/widgets/animimg/lv_animimg.c ****  *********************/
  28:lvgl/src/extra/widgets/animimg/lv_animimg.c **** #define LV_OBJX_NAME "lv_animimg"
  29:lvgl/src/extra/widgets/animimg/lv_animimg.c **** 
  30:lvgl/src/extra/widgets/animimg/lv_animimg.c **** #define MY_CLASS &lv_animimg_class
  31:lvgl/src/extra/widgets/animimg/lv_animimg.c **** 
ARM GAS  C:\Users\OSD\AppData\Local\Temp\cclkbkif.s 			page 2


  32:lvgl/src/extra/widgets/animimg/lv_animimg.c **** /**********************
  33:lvgl/src/extra/widgets/animimg/lv_animimg.c ****  *      TYPEDEFS
  34:lvgl/src/extra/widgets/animimg/lv_animimg.c ****  **********************/
  35:lvgl/src/extra/widgets/animimg/lv_animimg.c **** 
  36:lvgl/src/extra/widgets/animimg/lv_animimg.c **** /**********************
  37:lvgl/src/extra/widgets/animimg/lv_animimg.c ****  *  STATIC PROTOTYPES
  38:lvgl/src/extra/widgets/animimg/lv_animimg.c ****  **********************/
  39:lvgl/src/extra/widgets/animimg/lv_animimg.c **** static void index_change(lv_obj_t * obj, int32_t index);
  40:lvgl/src/extra/widgets/animimg/lv_animimg.c **** static void lv_animimg_constructor(const lv_obj_class_t * class_p, lv_obj_t * obj);
  41:lvgl/src/extra/widgets/animimg/lv_animimg.c **** 
  42:lvgl/src/extra/widgets/animimg/lv_animimg.c **** /**********************
  43:lvgl/src/extra/widgets/animimg/lv_animimg.c ****  *  STATIC VARIABLES
  44:lvgl/src/extra/widgets/animimg/lv_animimg.c ****  **********************/
  45:lvgl/src/extra/widgets/animimg/lv_animimg.c **** const lv_obj_class_t lv_animimg_class = {
  46:lvgl/src/extra/widgets/animimg/lv_animimg.c ****     .constructor_cb = lv_animimg_constructor,
  47:lvgl/src/extra/widgets/animimg/lv_animimg.c ****     .instance_size = sizeof(lv_animimg_t),
  48:lvgl/src/extra/widgets/animimg/lv_animimg.c ****     .base_class = &lv_img_class
  49:lvgl/src/extra/widgets/animimg/lv_animimg.c **** };
  50:lvgl/src/extra/widgets/animimg/lv_animimg.c **** 
  51:lvgl/src/extra/widgets/animimg/lv_animimg.c **** /**********************
  52:lvgl/src/extra/widgets/animimg/lv_animimg.c ****  *      MACROS
  53:lvgl/src/extra/widgets/animimg/lv_animimg.c ****  **********************/
  54:lvgl/src/extra/widgets/animimg/lv_animimg.c **** 
  55:lvgl/src/extra/widgets/animimg/lv_animimg.c **** /**********************
  56:lvgl/src/extra/widgets/animimg/lv_animimg.c ****  *   GLOBAL FUNCTIONS
  57:lvgl/src/extra/widgets/animimg/lv_animimg.c ****  **********************/
  58:lvgl/src/extra/widgets/animimg/lv_animimg.c **** 
  59:lvgl/src/extra/widgets/animimg/lv_animimg.c **** lv_obj_t * lv_animimg_create(lv_obj_t * parent)
  60:lvgl/src/extra/widgets/animimg/lv_animimg.c **** {
  61:lvgl/src/extra/widgets/animimg/lv_animimg.c ****     LV_LOG_INFO("begin");
  62:lvgl/src/extra/widgets/animimg/lv_animimg.c ****     lv_obj_t * obj = lv_obj_class_create_obj(&lv_animimg_class, parent);
  63:lvgl/src/extra/widgets/animimg/lv_animimg.c ****     lv_obj_class_init_obj(obj);
  64:lvgl/src/extra/widgets/animimg/lv_animimg.c ****     return obj;
  65:lvgl/src/extra/widgets/animimg/lv_animimg.c **** }
  66:lvgl/src/extra/widgets/animimg/lv_animimg.c **** 
  67:lvgl/src/extra/widgets/animimg/lv_animimg.c **** void lv_animimg_set_src(lv_obj_t * obj, const void * dsc[], uint8_t num)
  68:lvgl/src/extra/widgets/animimg/lv_animimg.c **** {
  69:lvgl/src/extra/widgets/animimg/lv_animimg.c ****     LV_ASSERT_OBJ(obj, MY_CLASS);
  70:lvgl/src/extra/widgets/animimg/lv_animimg.c ****     lv_animimg_t * animimg = (lv_animimg_t *)obj;
  71:lvgl/src/extra/widgets/animimg/lv_animimg.c ****     animimg->dsc = dsc;
  72:lvgl/src/extra/widgets/animimg/lv_animimg.c ****     animimg->pic_count = num;
  73:lvgl/src/extra/widgets/animimg/lv_animimg.c ****     lv_anim_set_values(&animimg->anim, 0, num);
  74:lvgl/src/extra/widgets/animimg/lv_animimg.c **** }
  75:lvgl/src/extra/widgets/animimg/lv_animimg.c **** 
  76:lvgl/src/extra/widgets/animimg/lv_animimg.c **** void lv_animimg_start(lv_obj_t * obj)
  77:lvgl/src/extra/widgets/animimg/lv_animimg.c **** {
  78:lvgl/src/extra/widgets/animimg/lv_animimg.c ****     LV_ASSERT_OBJ(obj, MY_CLASS);
  79:lvgl/src/extra/widgets/animimg/lv_animimg.c ****     lv_animimg_t * animimg = (lv_animimg_t *)obj;
  80:lvgl/src/extra/widgets/animimg/lv_animimg.c ****     lv_anim_start(&animimg->anim);
  81:lvgl/src/extra/widgets/animimg/lv_animimg.c **** }
  82:lvgl/src/extra/widgets/animimg/lv_animimg.c **** 
  83:lvgl/src/extra/widgets/animimg/lv_animimg.c **** /*=====================
  84:lvgl/src/extra/widgets/animimg/lv_animimg.c ****  * Setter functions
  85:lvgl/src/extra/widgets/animimg/lv_animimg.c ****  *====================*/
  86:lvgl/src/extra/widgets/animimg/lv_animimg.c **** 
  87:lvgl/src/extra/widgets/animimg/lv_animimg.c **** void lv_animimg_set_duration(lv_obj_t * obj, uint32_t duration)
  88:lvgl/src/extra/widgets/animimg/lv_animimg.c **** {
ARM GAS  C:\Users\OSD\AppData\Local\Temp\cclkbkif.s 			page 3


  89:lvgl/src/extra/widgets/animimg/lv_animimg.c ****     LV_ASSERT_OBJ(obj, MY_CLASS);
  90:lvgl/src/extra/widgets/animimg/lv_animimg.c ****     lv_animimg_t * animimg = (lv_animimg_t *)obj;
  91:lvgl/src/extra/widgets/animimg/lv_animimg.c ****     lv_anim_set_time(&animimg->anim, duration);
  92:lvgl/src/extra/widgets/animimg/lv_animimg.c ****     lv_anim_set_playback_delay(&animimg->anim, duration);
  93:lvgl/src/extra/widgets/animimg/lv_animimg.c **** }
  94:lvgl/src/extra/widgets/animimg/lv_animimg.c **** 
  95:lvgl/src/extra/widgets/animimg/lv_animimg.c **** void lv_animimg_set_repeat_count(lv_obj_t * obj, uint16_t count)
  96:lvgl/src/extra/widgets/animimg/lv_animimg.c **** {
  97:lvgl/src/extra/widgets/animimg/lv_animimg.c ****     LV_ASSERT_OBJ(obj, MY_CLASS);
  98:lvgl/src/extra/widgets/animimg/lv_animimg.c ****     lv_animimg_t * animimg = (lv_animimg_t *)obj;
  99:lvgl/src/extra/widgets/animimg/lv_animimg.c ****     lv_anim_set_repeat_count(&animimg->anim, count);
 100:lvgl/src/extra/widgets/animimg/lv_animimg.c **** }
 101:lvgl/src/extra/widgets/animimg/lv_animimg.c **** 
 102:lvgl/src/extra/widgets/animimg/lv_animimg.c **** /*=====================
 103:lvgl/src/extra/widgets/animimg/lv_animimg.c ****  * Getter functions
 104:lvgl/src/extra/widgets/animimg/lv_animimg.c ****  *====================*/
 105:lvgl/src/extra/widgets/animimg/lv_animimg.c **** 
 106:lvgl/src/extra/widgets/animimg/lv_animimg.c **** /**********************
 107:lvgl/src/extra/widgets/animimg/lv_animimg.c ****  *   STATIC FUNCTIONS
 108:lvgl/src/extra/widgets/animimg/lv_animimg.c ****  **********************/
 109:lvgl/src/extra/widgets/animimg/lv_animimg.c **** 
 110:lvgl/src/extra/widgets/animimg/lv_animimg.c **** static void lv_animimg_constructor(const lv_obj_class_t * class_p, lv_obj_t * obj)
 111:lvgl/src/extra/widgets/animimg/lv_animimg.c **** {
  28              		.loc 1 111 1 view -0
  29              		.cfi_startproc
  30              		@ args = 0, pretend = 0, frame = 0
  31              		@ frame_needed = 0, uses_anonymous_args = 0
  32              		.loc 1 111 1 is_stmt 0 view .LVU1
  33 0000 38B5     		push	{r3, r4, r5, lr}
  34              		.cfi_def_cfa_offset 16
  35              		.cfi_offset 3, -16
  36              		.cfi_offset 4, -12
  37              		.cfi_offset 5, -8
  38              		.cfi_offset 14, -4
  39 0002 0C46     		mov	r4, r1
 112:lvgl/src/extra/widgets/animimg/lv_animimg.c ****     LV_TRACE_OBJ_CREATE("begin");
  40              		.loc 1 112 33 is_stmt 1 view .LVU2
 113:lvgl/src/extra/widgets/animimg/lv_animimg.c **** 
 114:lvgl/src/extra/widgets/animimg/lv_animimg.c ****     LV_UNUSED(class_p);
  41              		.loc 1 114 5 view .LVU3
 115:lvgl/src/extra/widgets/animimg/lv_animimg.c ****     lv_animimg_t * animimg = (lv_animimg_t *)obj;
  42              		.loc 1 115 5 view .LVU4
  43              	.LVL1:
 116:lvgl/src/extra/widgets/animimg/lv_animimg.c **** 
 117:lvgl/src/extra/widgets/animimg/lv_animimg.c ****     animimg->dsc = NULL;
  44              		.loc 1 117 5 view .LVU5
  45              		.loc 1 117 18 is_stmt 0 view .LVU6
  46 0004 0025     		movs	r5, #0
  47 0006 C1F88050 		str	r5, [r1, #128]
 118:lvgl/src/extra/widgets/animimg/lv_animimg.c ****     animimg->pic_count = -1;
  48              		.loc 1 118 5 is_stmt 1 view .LVU7
  49              		.loc 1 118 24 is_stmt 0 view .LVU8
  50 000a FF23     		movs	r3, #255
  51 000c 81F88430 		strb	r3, [r1, #132]
 119:lvgl/src/extra/widgets/animimg/lv_animimg.c ****     //initial animation
 120:lvgl/src/extra/widgets/animimg/lv_animimg.c ****     lv_anim_init(&animimg->anim);
  52              		.loc 1 120 5 is_stmt 1 view .LVU9
ARM GAS  C:\Users\OSD\AppData\Local\Temp\cclkbkif.s 			page 4


  53 0010 01F13C00 		add	r0, r1, #60
  54              	.LVL2:
  55              		.loc 1 120 5 is_stmt 0 view .LVU10
  56 0014 FFF7FEFF 		bl	lv_anim_init
  57              	.LVL3:
 121:lvgl/src/extra/widgets/animimg/lv_animimg.c ****     lv_anim_set_var(&animimg->anim, obj);
  58              		.loc 1 121 5 is_stmt 1 view .LVU11
  59              	.LBB20:
  60              	.LBI20:
  61              		.file 2 "d:\\kzc\\stm32\\h743ii_lcd\\lvgl\\src/misc/lv_anim.h"
   1:d:\kzc\stm32\h743ii_lcd\lvgl\src/misc\lv_anim.h **** /**
   2:d:\kzc\stm32\h743ii_lcd\lvgl\src/misc\lv_anim.h ****  * @file lv_anim.h
   3:d:\kzc\stm32\h743ii_lcd\lvgl\src/misc\lv_anim.h ****  *
   4:d:\kzc\stm32\h743ii_lcd\lvgl\src/misc\lv_anim.h ****  */
   5:d:\kzc\stm32\h743ii_lcd\lvgl\src/misc\lv_anim.h **** 
   6:d:\kzc\stm32\h743ii_lcd\lvgl\src/misc\lv_anim.h **** #ifndef LV_ANIM_H
   7:d:\kzc\stm32\h743ii_lcd\lvgl\src/misc\lv_anim.h **** #define LV_ANIM_H
   8:d:\kzc\stm32\h743ii_lcd\lvgl\src/misc\lv_anim.h **** 
   9:d:\kzc\stm32\h743ii_lcd\lvgl\src/misc\lv_anim.h **** #ifdef __cplusplus
  10:d:\kzc\stm32\h743ii_lcd\lvgl\src/misc\lv_anim.h **** extern "C" {
  11:d:\kzc\stm32\h743ii_lcd\lvgl\src/misc\lv_anim.h **** #endif
  12:d:\kzc\stm32\h743ii_lcd\lvgl\src/misc\lv_anim.h **** 
  13:d:\kzc\stm32\h743ii_lcd\lvgl\src/misc\lv_anim.h **** /*********************
  14:d:\kzc\stm32\h743ii_lcd\lvgl\src/misc\lv_anim.h ****  *      INCLUDES
  15:d:\kzc\stm32\h743ii_lcd\lvgl\src/misc\lv_anim.h ****  *********************/
  16:d:\kzc\stm32\h743ii_lcd\lvgl\src/misc\lv_anim.h **** #include "../lv_conf_internal.h"
  17:d:\kzc\stm32\h743ii_lcd\lvgl\src/misc\lv_anim.h **** 
  18:d:\kzc\stm32\h743ii_lcd\lvgl\src/misc\lv_anim.h **** #include <stdint.h>
  19:d:\kzc\stm32\h743ii_lcd\lvgl\src/misc\lv_anim.h **** #include <stdbool.h>
  20:d:\kzc\stm32\h743ii_lcd\lvgl\src/misc\lv_anim.h **** #include <stddef.h>
  21:d:\kzc\stm32\h743ii_lcd\lvgl\src/misc\lv_anim.h **** 
  22:d:\kzc\stm32\h743ii_lcd\lvgl\src/misc\lv_anim.h **** /*********************
  23:d:\kzc\stm32\h743ii_lcd\lvgl\src/misc\lv_anim.h ****  *      DEFINES
  24:d:\kzc\stm32\h743ii_lcd\lvgl\src/misc\lv_anim.h ****  *********************/
  25:d:\kzc\stm32\h743ii_lcd\lvgl\src/misc\lv_anim.h **** 
  26:d:\kzc\stm32\h743ii_lcd\lvgl\src/misc\lv_anim.h **** #define LV_ANIM_REPEAT_INFINITE      0xFFFF
  27:d:\kzc\stm32\h743ii_lcd\lvgl\src/misc\lv_anim.h **** #define LV_ANIM_PLAYTIME_INFINITE    0xFFFFFFFF
  28:d:\kzc\stm32\h743ii_lcd\lvgl\src/misc\lv_anim.h **** 
  29:d:\kzc\stm32\h743ii_lcd\lvgl\src/misc\lv_anim.h **** LV_EXPORT_CONST_INT(LV_ANIM_REPEAT_INFINITE);
  30:d:\kzc\stm32\h743ii_lcd\lvgl\src/misc\lv_anim.h **** LV_EXPORT_CONST_INT(LV_ANIM_PLAYTIME_INFINITE);
  31:d:\kzc\stm32\h743ii_lcd\lvgl\src/misc\lv_anim.h **** 
  32:d:\kzc\stm32\h743ii_lcd\lvgl\src/misc\lv_anim.h **** /**********************
  33:d:\kzc\stm32\h743ii_lcd\lvgl\src/misc\lv_anim.h ****  *      TYPEDEFS
  34:d:\kzc\stm32\h743ii_lcd\lvgl\src/misc\lv_anim.h ****  **********************/
  35:d:\kzc\stm32\h743ii_lcd\lvgl\src/misc\lv_anim.h **** 
  36:d:\kzc\stm32\h743ii_lcd\lvgl\src/misc\lv_anim.h **** /** Can be used to indicate if animations are enabled or disabled in a case*/
  37:d:\kzc\stm32\h743ii_lcd\lvgl\src/misc\lv_anim.h **** typedef enum {
  38:d:\kzc\stm32\h743ii_lcd\lvgl\src/misc\lv_anim.h ****     LV_ANIM_OFF,
  39:d:\kzc\stm32\h743ii_lcd\lvgl\src/misc\lv_anim.h ****     LV_ANIM_ON,
  40:d:\kzc\stm32\h743ii_lcd\lvgl\src/misc\lv_anim.h **** } lv_anim_enable_t;
  41:d:\kzc\stm32\h743ii_lcd\lvgl\src/misc\lv_anim.h **** 
  42:d:\kzc\stm32\h743ii_lcd\lvgl\src/misc\lv_anim.h **** struct _lv_anim_t;
  43:d:\kzc\stm32\h743ii_lcd\lvgl\src/misc\lv_anim.h **** struct _lv_timer_t;
  44:d:\kzc\stm32\h743ii_lcd\lvgl\src/misc\lv_anim.h **** 
  45:d:\kzc\stm32\h743ii_lcd\lvgl\src/misc\lv_anim.h **** /** Get the current value during an animation*/
  46:d:\kzc\stm32\h743ii_lcd\lvgl\src/misc\lv_anim.h **** typedef int32_t (*lv_anim_path_cb_t)(const struct _lv_anim_t *);
  47:d:\kzc\stm32\h743ii_lcd\lvgl\src/misc\lv_anim.h **** 
ARM GAS  C:\Users\OSD\AppData\Local\Temp\cclkbkif.s 			page 5


  48:d:\kzc\stm32\h743ii_lcd\lvgl\src/misc\lv_anim.h **** /** Generic prototype of "animator" functions.
  49:d:\kzc\stm32\h743ii_lcd\lvgl\src/misc\lv_anim.h ****  * First parameter is the variable to animate.
  50:d:\kzc\stm32\h743ii_lcd\lvgl\src/misc\lv_anim.h ****  * Second parameter is the value to set.
  51:d:\kzc\stm32\h743ii_lcd\lvgl\src/misc\lv_anim.h ****  * Compatible with `lv_xxx_set_yyy(obj, value)` functions
  52:d:\kzc\stm32\h743ii_lcd\lvgl\src/misc\lv_anim.h ****  * The `x` in `_xcb_t` means it's not a fully generic prototype because
  53:d:\kzc\stm32\h743ii_lcd\lvgl\src/misc\lv_anim.h ****  * it doesn't receive `lv_anim_t *` as its first argument*/
  54:d:\kzc\stm32\h743ii_lcd\lvgl\src/misc\lv_anim.h **** typedef void (*lv_anim_exec_xcb_t)(void *, int32_t);
  55:d:\kzc\stm32\h743ii_lcd\lvgl\src/misc\lv_anim.h **** 
  56:d:\kzc\stm32\h743ii_lcd\lvgl\src/misc\lv_anim.h **** /** Same as `lv_anim_exec_xcb_t` but receives `lv_anim_t *` as the first parameter.
  57:d:\kzc\stm32\h743ii_lcd\lvgl\src/misc\lv_anim.h ****  * It's more consistent but less convenient. Might be used by binding generator functions.*/
  58:d:\kzc\stm32\h743ii_lcd\lvgl\src/misc\lv_anim.h **** typedef void (*lv_anim_custom_exec_cb_t)(struct _lv_anim_t *, int32_t);
  59:d:\kzc\stm32\h743ii_lcd\lvgl\src/misc\lv_anim.h **** 
  60:d:\kzc\stm32\h743ii_lcd\lvgl\src/misc\lv_anim.h **** /** Callback to call when the animation is ready*/
  61:d:\kzc\stm32\h743ii_lcd\lvgl\src/misc\lv_anim.h **** typedef void (*lv_anim_ready_cb_t)(struct _lv_anim_t *);
  62:d:\kzc\stm32\h743ii_lcd\lvgl\src/misc\lv_anim.h **** 
  63:d:\kzc\stm32\h743ii_lcd\lvgl\src/misc\lv_anim.h **** /** Callback to call when the animation really stars (considering `delay`)*/
  64:d:\kzc\stm32\h743ii_lcd\lvgl\src/misc\lv_anim.h **** typedef void (*lv_anim_start_cb_t)(struct _lv_anim_t *);
  65:d:\kzc\stm32\h743ii_lcd\lvgl\src/misc\lv_anim.h **** 
  66:d:\kzc\stm32\h743ii_lcd\lvgl\src/misc\lv_anim.h **** /** Callback used when the animation values are relative to get the current value*/
  67:d:\kzc\stm32\h743ii_lcd\lvgl\src/misc\lv_anim.h **** typedef int32_t (*lv_anim_get_value_cb_t)(struct _lv_anim_t *);
  68:d:\kzc\stm32\h743ii_lcd\lvgl\src/misc\lv_anim.h **** 
  69:d:\kzc\stm32\h743ii_lcd\lvgl\src/misc\lv_anim.h **** /** Callback used when the animation is deleted*/
  70:d:\kzc\stm32\h743ii_lcd\lvgl\src/misc\lv_anim.h **** typedef void (*lv_anim_deleted_cb_t)(struct _lv_anim_t *);
  71:d:\kzc\stm32\h743ii_lcd\lvgl\src/misc\lv_anim.h **** 
  72:d:\kzc\stm32\h743ii_lcd\lvgl\src/misc\lv_anim.h **** /** Describes an animation*/
  73:d:\kzc\stm32\h743ii_lcd\lvgl\src/misc\lv_anim.h **** typedef struct _lv_anim_t {
  74:d:\kzc\stm32\h743ii_lcd\lvgl\src/misc\lv_anim.h ****     void * var;                          /**<Variable to animate*/
  75:d:\kzc\stm32\h743ii_lcd\lvgl\src/misc\lv_anim.h ****     lv_anim_exec_xcb_t exec_cb;          /**< Function to execute to animate*/
  76:d:\kzc\stm32\h743ii_lcd\lvgl\src/misc\lv_anim.h ****     lv_anim_start_cb_t start_cb;         /**< Call it when the animation is starts (considering `de
  77:d:\kzc\stm32\h743ii_lcd\lvgl\src/misc\lv_anim.h ****     lv_anim_ready_cb_t ready_cb;         /**< Call it when the animation is ready*/
  78:d:\kzc\stm32\h743ii_lcd\lvgl\src/misc\lv_anim.h ****     lv_anim_deleted_cb_t deleted_cb;     /**< Call it when the animation is deleted*/
  79:d:\kzc\stm32\h743ii_lcd\lvgl\src/misc\lv_anim.h ****     lv_anim_get_value_cb_t get_value_cb; /**< Get the current value in relative mode*/
  80:d:\kzc\stm32\h743ii_lcd\lvgl\src/misc\lv_anim.h **** #if LV_USE_USER_DATA
  81:d:\kzc\stm32\h743ii_lcd\lvgl\src/misc\lv_anim.h ****     void * user_data; /**< Custom user data*/
  82:d:\kzc\stm32\h743ii_lcd\lvgl\src/misc\lv_anim.h **** #endif
  83:d:\kzc\stm32\h743ii_lcd\lvgl\src/misc\lv_anim.h ****     lv_anim_path_cb_t path_cb;         /**< Describe the path (curve) of animations*/
  84:d:\kzc\stm32\h743ii_lcd\lvgl\src/misc\lv_anim.h ****     int32_t start_value;               /**< Start value*/
  85:d:\kzc\stm32\h743ii_lcd\lvgl\src/misc\lv_anim.h ****     int32_t current_value;             /**< Current value*/
  86:d:\kzc\stm32\h743ii_lcd\lvgl\src/misc\lv_anim.h ****     int32_t end_value;                 /**< End value*/
  87:d:\kzc\stm32\h743ii_lcd\lvgl\src/misc\lv_anim.h ****     int32_t time;                /**< Animation time in ms*/
  88:d:\kzc\stm32\h743ii_lcd\lvgl\src/misc\lv_anim.h ****     int32_t act_time;            /**< Current time in animation. Set to negative to make delay.*/
  89:d:\kzc\stm32\h743ii_lcd\lvgl\src/misc\lv_anim.h ****     uint32_t playback_delay;     /**< Wait before play back*/
  90:d:\kzc\stm32\h743ii_lcd\lvgl\src/misc\lv_anim.h ****     uint32_t playback_time;      /**< Duration of playback animation*/
  91:d:\kzc\stm32\h743ii_lcd\lvgl\src/misc\lv_anim.h ****     uint32_t repeat_delay;       /**< Wait before repeat*/
  92:d:\kzc\stm32\h743ii_lcd\lvgl\src/misc\lv_anim.h ****     uint16_t repeat_cnt;         /**< Repeat count for the animation*/
  93:d:\kzc\stm32\h743ii_lcd\lvgl\src/misc\lv_anim.h ****     uint8_t early_apply  : 1;    /**< 1: Apply start value immediately even is there is `delay`*/
  94:d:\kzc\stm32\h743ii_lcd\lvgl\src/misc\lv_anim.h **** 
  95:d:\kzc\stm32\h743ii_lcd\lvgl\src/misc\lv_anim.h ****     /*Animation system use these - user shouldn't set*/
  96:d:\kzc\stm32\h743ii_lcd\lvgl\src/misc\lv_anim.h ****     uint8_t playback_now : 1; /**< Play back is in progress*/
  97:d:\kzc\stm32\h743ii_lcd\lvgl\src/misc\lv_anim.h ****     uint8_t run_round : 1;    /**< Indicates the animation has run in this round*/
  98:d:\kzc\stm32\h743ii_lcd\lvgl\src/misc\lv_anim.h ****     uint8_t start_cb_called : 1;    /**< Indicates that the `start_cb` was already called*/
  99:d:\kzc\stm32\h743ii_lcd\lvgl\src/misc\lv_anim.h **** } lv_anim_t;
 100:d:\kzc\stm32\h743ii_lcd\lvgl\src/misc\lv_anim.h **** 
 101:d:\kzc\stm32\h743ii_lcd\lvgl\src/misc\lv_anim.h **** /**********************
 102:d:\kzc\stm32\h743ii_lcd\lvgl\src/misc\lv_anim.h ****  * GLOBAL PROTOTYPES
 103:d:\kzc\stm32\h743ii_lcd\lvgl\src/misc\lv_anim.h ****  **********************/
 104:d:\kzc\stm32\h743ii_lcd\lvgl\src/misc\lv_anim.h **** 
ARM GAS  C:\Users\OSD\AppData\Local\Temp\cclkbkif.s 			page 6


 105:d:\kzc\stm32\h743ii_lcd\lvgl\src/misc\lv_anim.h **** /**
 106:d:\kzc\stm32\h743ii_lcd\lvgl\src/misc\lv_anim.h ****  * Init. the animation module
 107:d:\kzc\stm32\h743ii_lcd\lvgl\src/misc\lv_anim.h ****  */
 108:d:\kzc\stm32\h743ii_lcd\lvgl\src/misc\lv_anim.h **** void _lv_anim_core_init(void);
 109:d:\kzc\stm32\h743ii_lcd\lvgl\src/misc\lv_anim.h **** 
 110:d:\kzc\stm32\h743ii_lcd\lvgl\src/misc\lv_anim.h **** /**
 111:d:\kzc\stm32\h743ii_lcd\lvgl\src/misc\lv_anim.h ****  * Initialize an animation variable.
 112:d:\kzc\stm32\h743ii_lcd\lvgl\src/misc\lv_anim.h ****  * E.g.:
 113:d:\kzc\stm32\h743ii_lcd\lvgl\src/misc\lv_anim.h ****  * lv_anim_t a;
 114:d:\kzc\stm32\h743ii_lcd\lvgl\src/misc\lv_anim.h ****  * lv_anim_init(&a);
 115:d:\kzc\stm32\h743ii_lcd\lvgl\src/misc\lv_anim.h ****  * lv_anim_set_...(&a);
 116:d:\kzc\stm32\h743ii_lcd\lvgl\src/misc\lv_anim.h ****  * lv_anim_start(&a);
 117:d:\kzc\stm32\h743ii_lcd\lvgl\src/misc\lv_anim.h ****  * @param a     pointer to an `lv_anim_t` variable to initialize
 118:d:\kzc\stm32\h743ii_lcd\lvgl\src/misc\lv_anim.h ****  */
 119:d:\kzc\stm32\h743ii_lcd\lvgl\src/misc\lv_anim.h **** void lv_anim_init(lv_anim_t * a);
 120:d:\kzc\stm32\h743ii_lcd\lvgl\src/misc\lv_anim.h **** 
 121:d:\kzc\stm32\h743ii_lcd\lvgl\src/misc\lv_anim.h **** /**
 122:d:\kzc\stm32\h743ii_lcd\lvgl\src/misc\lv_anim.h ****  * Set a variable to animate
 123:d:\kzc\stm32\h743ii_lcd\lvgl\src/misc\lv_anim.h ****  * @param a     pointer to an initialized `lv_anim_t` variable
 124:d:\kzc\stm32\h743ii_lcd\lvgl\src/misc\lv_anim.h ****  * @param var   pointer to a variable to animate
 125:d:\kzc\stm32\h743ii_lcd\lvgl\src/misc\lv_anim.h ****  */
 126:d:\kzc\stm32\h743ii_lcd\lvgl\src/misc\lv_anim.h **** static inline void lv_anim_set_var(lv_anim_t * a, void * var)
  62              		.loc 2 126 20 view .LVU12
  63              	.LBB21:
 127:d:\kzc\stm32\h743ii_lcd\lvgl\src/misc\lv_anim.h **** {
 128:d:\kzc\stm32\h743ii_lcd\lvgl\src/misc\lv_anim.h ****     a->var = var;
  64              		.loc 2 128 5 view .LVU13
  65              		.loc 2 128 12 is_stmt 0 view .LVU14
  66 0018 E463     		str	r4, [r4, #60]
  67              	.LVL4:
  68              		.loc 2 128 12 view .LVU15
  69              	.LBE21:
  70              	.LBE20:
 122:lvgl/src/extra/widgets/animimg/lv_animimg.c ****     lv_anim_set_time(&animimg->anim, 30);
  71              		.loc 1 122 5 is_stmt 1 view .LVU16
  72              	.LBB22:
  73              	.LBI22:
 129:d:\kzc\stm32\h743ii_lcd\lvgl\src/misc\lv_anim.h **** }
 130:d:\kzc\stm32\h743ii_lcd\lvgl\src/misc\lv_anim.h **** 
 131:d:\kzc\stm32\h743ii_lcd\lvgl\src/misc\lv_anim.h **** /**
 132:d:\kzc\stm32\h743ii_lcd\lvgl\src/misc\lv_anim.h ****  * Set a function to animate `var`
 133:d:\kzc\stm32\h743ii_lcd\lvgl\src/misc\lv_anim.h ****  * @param a         pointer to an initialized `lv_anim_t` variable
 134:d:\kzc\stm32\h743ii_lcd\lvgl\src/misc\lv_anim.h ****  * @param exec_cb   a function to execute during animation
 135:d:\kzc\stm32\h743ii_lcd\lvgl\src/misc\lv_anim.h ****  *                  LVGL's built-in functions can be used.
 136:d:\kzc\stm32\h743ii_lcd\lvgl\src/misc\lv_anim.h ****  *                  E.g. lv_obj_set_x
 137:d:\kzc\stm32\h743ii_lcd\lvgl\src/misc\lv_anim.h ****  */
 138:d:\kzc\stm32\h743ii_lcd\lvgl\src/misc\lv_anim.h **** static inline void lv_anim_set_exec_cb(lv_anim_t * a, lv_anim_exec_xcb_t exec_cb)
 139:d:\kzc\stm32\h743ii_lcd\lvgl\src/misc\lv_anim.h **** {
 140:d:\kzc\stm32\h743ii_lcd\lvgl\src/misc\lv_anim.h ****     a->exec_cb = exec_cb;
 141:d:\kzc\stm32\h743ii_lcd\lvgl\src/misc\lv_anim.h **** }
 142:d:\kzc\stm32\h743ii_lcd\lvgl\src/misc\lv_anim.h **** 
 143:d:\kzc\stm32\h743ii_lcd\lvgl\src/misc\lv_anim.h **** /**
 144:d:\kzc\stm32\h743ii_lcd\lvgl\src/misc\lv_anim.h ****  * Set the duration of an animation
 145:d:\kzc\stm32\h743ii_lcd\lvgl\src/misc\lv_anim.h ****  * @param a         pointer to an initialized `lv_anim_t` variable
 146:d:\kzc\stm32\h743ii_lcd\lvgl\src/misc\lv_anim.h ****  * @param duration  duration of the animation in milliseconds
 147:d:\kzc\stm32\h743ii_lcd\lvgl\src/misc\lv_anim.h ****  */
 148:d:\kzc\stm32\h743ii_lcd\lvgl\src/misc\lv_anim.h **** static inline void lv_anim_set_time(lv_anim_t * a, uint32_t duration)
ARM GAS  C:\Users\OSD\AppData\Local\Temp\cclkbkif.s 			page 7


  74              		.loc 2 148 20 view .LVU17
  75              	.LBB23:
 149:d:\kzc\stm32\h743ii_lcd\lvgl\src/misc\lv_anim.h **** {
 150:d:\kzc\stm32\h743ii_lcd\lvgl\src/misc\lv_anim.h ****     a->time = duration;
  76              		.loc 2 150 5 view .LVU18
  77              		.loc 2 150 13 is_stmt 0 view .LVU19
  78 001a 1E23     		movs	r3, #30
  79 001c A366     		str	r3, [r4, #104]
  80              	.LVL5:
  81              		.loc 2 150 13 view .LVU20
  82              	.LBE23:
  83              	.LBE22:
 123:lvgl/src/extra/widgets/animimg/lv_animimg.c ****     lv_anim_set_exec_cb(&animimg->anim, (lv_anim_exec_xcb_t)index_change);
  84              		.loc 1 123 5 is_stmt 1 view .LVU21
  85              	.LBB24:
  86              	.LBI24:
 138:d:\kzc\stm32\h743ii_lcd\lvgl\src/misc\lv_anim.h **** {
  87              		.loc 2 138 20 view .LVU22
  88              	.LBB25:
 140:d:\kzc\stm32\h743ii_lcd\lvgl\src/misc\lv_anim.h **** }
  89              		.loc 2 140 5 view .LVU23
 140:d:\kzc\stm32\h743ii_lcd\lvgl\src/misc\lv_anim.h **** }
  90              		.loc 2 140 16 is_stmt 0 view .LVU24
  91 001e 054B     		ldr	r3, .L3
  92 0020 2364     		str	r3, [r4, #64]
  93              	.LVL6:
 140:d:\kzc\stm32\h743ii_lcd\lvgl\src/misc\lv_anim.h **** }
  94              		.loc 2 140 16 view .LVU25
  95              	.LBE25:
  96              	.LBE24:
 124:lvgl/src/extra/widgets/animimg/lv_animimg.c ****     lv_anim_set_values(&animimg->anim, 0, 1);
  97              		.loc 1 124 5 is_stmt 1 view .LVU26
  98              	.LBB26:
  99              	.LBI26:
 151:d:\kzc\stm32\h743ii_lcd\lvgl\src/misc\lv_anim.h **** }
 152:d:\kzc\stm32\h743ii_lcd\lvgl\src/misc\lv_anim.h **** 
 153:d:\kzc\stm32\h743ii_lcd\lvgl\src/misc\lv_anim.h **** /**
 154:d:\kzc\stm32\h743ii_lcd\lvgl\src/misc\lv_anim.h ****  * Set a delay before starting the animation
 155:d:\kzc\stm32\h743ii_lcd\lvgl\src/misc\lv_anim.h ****  * @param a         pointer to an initialized `lv_anim_t` variable
 156:d:\kzc\stm32\h743ii_lcd\lvgl\src/misc\lv_anim.h ****  * @param delay     delay before the animation in milliseconds
 157:d:\kzc\stm32\h743ii_lcd\lvgl\src/misc\lv_anim.h ****  */
 158:d:\kzc\stm32\h743ii_lcd\lvgl\src/misc\lv_anim.h **** static inline void lv_anim_set_delay(lv_anim_t * a, uint32_t delay)
 159:d:\kzc\stm32\h743ii_lcd\lvgl\src/misc\lv_anim.h **** {
 160:d:\kzc\stm32\h743ii_lcd\lvgl\src/misc\lv_anim.h ****     a->act_time = -(int32_t)(delay);
 161:d:\kzc\stm32\h743ii_lcd\lvgl\src/misc\lv_anim.h **** }
 162:d:\kzc\stm32\h743ii_lcd\lvgl\src/misc\lv_anim.h **** 
 163:d:\kzc\stm32\h743ii_lcd\lvgl\src/misc\lv_anim.h **** /**
 164:d:\kzc\stm32\h743ii_lcd\lvgl\src/misc\lv_anim.h ****  * Set the start and end values of an animation
 165:d:\kzc\stm32\h743ii_lcd\lvgl\src/misc\lv_anim.h ****  * @param a         pointer to an initialized `lv_anim_t` variable
 166:d:\kzc\stm32\h743ii_lcd\lvgl\src/misc\lv_anim.h ****  * @param start     the start value
 167:d:\kzc\stm32\h743ii_lcd\lvgl\src/misc\lv_anim.h ****  * @param end       the end value
 168:d:\kzc\stm32\h743ii_lcd\lvgl\src/misc\lv_anim.h ****  */
 169:d:\kzc\stm32\h743ii_lcd\lvgl\src/misc\lv_anim.h **** static inline void lv_anim_set_values(lv_anim_t * a, int32_t start, int32_t end)
 100              		.loc 2 169 20 view .LVU27
 101              	.LBB27:
 170:d:\kzc\stm32\h743ii_lcd\lvgl\src/misc\lv_anim.h **** {
 171:d:\kzc\stm32\h743ii_lcd\lvgl\src/misc\lv_anim.h ****     a->start_value = start;
ARM GAS  C:\Users\OSD\AppData\Local\Temp\cclkbkif.s 			page 8


 102              		.loc 2 171 5 view .LVU28
 103              		.loc 2 171 20 is_stmt 0 view .LVU29
 104 0022 E565     		str	r5, [r4, #92]
 172:d:\kzc\stm32\h743ii_lcd\lvgl\src/misc\lv_anim.h ****     a->current_value = start;
 105              		.loc 2 172 5 is_stmt 1 view .LVU30
 106              		.loc 2 172 22 is_stmt 0 view .LVU31
 107 0024 2566     		str	r5, [r4, #96]
 173:d:\kzc\stm32\h743ii_lcd\lvgl\src/misc\lv_anim.h ****     a->end_value = end;
 108              		.loc 2 173 5 is_stmt 1 view .LVU32
 109              		.loc 2 173 18 is_stmt 0 view .LVU33
 110 0026 0123     		movs	r3, #1
 111 0028 6366     		str	r3, [r4, #100]
 112              	.LVL7:
 113              		.loc 2 173 18 view .LVU34
 114              	.LBE27:
 115              	.LBE26:
 125:lvgl/src/extra/widgets/animimg/lv_animimg.c ****     lv_anim_set_repeat_count(&animimg->anim, LV_ANIM_REPEAT_INFINITE);
 116              		.loc 1 125 5 is_stmt 1 view .LVU35
 117              	.LBB28:
 118              	.LBI28:
 174:d:\kzc\stm32\h743ii_lcd\lvgl\src/misc\lv_anim.h **** }
 175:d:\kzc\stm32\h743ii_lcd\lvgl\src/misc\lv_anim.h **** 
 176:d:\kzc\stm32\h743ii_lcd\lvgl\src/misc\lv_anim.h **** /**
 177:d:\kzc\stm32\h743ii_lcd\lvgl\src/misc\lv_anim.h ****  * Similar to `lv_anim_set_exec_cb` but `lv_anim_custom_exec_cb_t` receives
 178:d:\kzc\stm32\h743ii_lcd\lvgl\src/misc\lv_anim.h ****  * `lv_anim_t * ` as its first parameter instead of `void *`.
 179:d:\kzc\stm32\h743ii_lcd\lvgl\src/misc\lv_anim.h ****  * This function might be used when LVGL is bound to other languages because
 180:d:\kzc\stm32\h743ii_lcd\lvgl\src/misc\lv_anim.h ****  * it's more consistent to have `lv_anim_t *` as first parameter.
 181:d:\kzc\stm32\h743ii_lcd\lvgl\src/misc\lv_anim.h ****  * The variable to animate can be stored in the animation's `user_data`
 182:d:\kzc\stm32\h743ii_lcd\lvgl\src/misc\lv_anim.h ****  * @param a         pointer to an initialized `lv_anim_t` variable
 183:d:\kzc\stm32\h743ii_lcd\lvgl\src/misc\lv_anim.h ****  * @param exec_cb   a function to execute.
 184:d:\kzc\stm32\h743ii_lcd\lvgl\src/misc\lv_anim.h ****  */
 185:d:\kzc\stm32\h743ii_lcd\lvgl\src/misc\lv_anim.h **** static inline void lv_anim_set_custom_exec_cb(lv_anim_t * a, lv_anim_custom_exec_cb_t exec_cb)
 186:d:\kzc\stm32\h743ii_lcd\lvgl\src/misc\lv_anim.h **** {
 187:d:\kzc\stm32\h743ii_lcd\lvgl\src/misc\lv_anim.h ****     a->var     = a;
 188:d:\kzc\stm32\h743ii_lcd\lvgl\src/misc\lv_anim.h ****     a->exec_cb = (lv_anim_exec_xcb_t)exec_cb;
 189:d:\kzc\stm32\h743ii_lcd\lvgl\src/misc\lv_anim.h **** }
 190:d:\kzc\stm32\h743ii_lcd\lvgl\src/misc\lv_anim.h **** 
 191:d:\kzc\stm32\h743ii_lcd\lvgl\src/misc\lv_anim.h **** /**
 192:d:\kzc\stm32\h743ii_lcd\lvgl\src/misc\lv_anim.h ****  * Set the path (curve) of the animation.
 193:d:\kzc\stm32\h743ii_lcd\lvgl\src/misc\lv_anim.h ****  * @param a         pointer to an initialized `lv_anim_t` variable
 194:d:\kzc\stm32\h743ii_lcd\lvgl\src/misc\lv_anim.h ****  * @param path_cb a function to set the current value of the animation.
 195:d:\kzc\stm32\h743ii_lcd\lvgl\src/misc\lv_anim.h ****  */
 196:d:\kzc\stm32\h743ii_lcd\lvgl\src/misc\lv_anim.h **** static inline void lv_anim_set_path_cb(lv_anim_t * a, lv_anim_path_cb_t path_cb)
 197:d:\kzc\stm32\h743ii_lcd\lvgl\src/misc\lv_anim.h **** {
 198:d:\kzc\stm32\h743ii_lcd\lvgl\src/misc\lv_anim.h ****     a->path_cb = path_cb;
 199:d:\kzc\stm32\h743ii_lcd\lvgl\src/misc\lv_anim.h **** }
 200:d:\kzc\stm32\h743ii_lcd\lvgl\src/misc\lv_anim.h **** 
 201:d:\kzc\stm32\h743ii_lcd\lvgl\src/misc\lv_anim.h **** /**
 202:d:\kzc\stm32\h743ii_lcd\lvgl\src/misc\lv_anim.h ****  * Set a function call when the animation really starts (considering `delay`)
 203:d:\kzc\stm32\h743ii_lcd\lvgl\src/misc\lv_anim.h ****  * @param a         pointer to an initialized `lv_anim_t` variable
 204:d:\kzc\stm32\h743ii_lcd\lvgl\src/misc\lv_anim.h ****  * @param start_cb  a function call when the animation starts
 205:d:\kzc\stm32\h743ii_lcd\lvgl\src/misc\lv_anim.h ****  */
 206:d:\kzc\stm32\h743ii_lcd\lvgl\src/misc\lv_anim.h **** static inline void lv_anim_set_start_cb(lv_anim_t * a, lv_anim_start_cb_t start_cb)
 207:d:\kzc\stm32\h743ii_lcd\lvgl\src/misc\lv_anim.h **** {
 208:d:\kzc\stm32\h743ii_lcd\lvgl\src/misc\lv_anim.h ****     a->start_cb = start_cb;
 209:d:\kzc\stm32\h743ii_lcd\lvgl\src/misc\lv_anim.h **** }
 210:d:\kzc\stm32\h743ii_lcd\lvgl\src/misc\lv_anim.h **** 
ARM GAS  C:\Users\OSD\AppData\Local\Temp\cclkbkif.s 			page 9


 211:d:\kzc\stm32\h743ii_lcd\lvgl\src/misc\lv_anim.h **** /**
 212:d:\kzc\stm32\h743ii_lcd\lvgl\src/misc\lv_anim.h ****  * Set a function to use the current value of the variable and make start and end value
 213:d:\kzc\stm32\h743ii_lcd\lvgl\src/misc\lv_anim.h ****  * relative to the returned current value.
 214:d:\kzc\stm32\h743ii_lcd\lvgl\src/misc\lv_anim.h ****  * @param a             pointer to an initialized `lv_anim_t` variable
 215:d:\kzc\stm32\h743ii_lcd\lvgl\src/misc\lv_anim.h ****  * @param get_value_cb  a function call when the animation starts
 216:d:\kzc\stm32\h743ii_lcd\lvgl\src/misc\lv_anim.h ****  */
 217:d:\kzc\stm32\h743ii_lcd\lvgl\src/misc\lv_anim.h **** static inline void lv_anim_set_get_value_cb(lv_anim_t * a, lv_anim_get_value_cb_t get_value_cb)
 218:d:\kzc\stm32\h743ii_lcd\lvgl\src/misc\lv_anim.h **** {
 219:d:\kzc\stm32\h743ii_lcd\lvgl\src/misc\lv_anim.h ****     a->get_value_cb = get_value_cb;
 220:d:\kzc\stm32\h743ii_lcd\lvgl\src/misc\lv_anim.h **** }
 221:d:\kzc\stm32\h743ii_lcd\lvgl\src/misc\lv_anim.h **** 
 222:d:\kzc\stm32\h743ii_lcd\lvgl\src/misc\lv_anim.h **** /**
 223:d:\kzc\stm32\h743ii_lcd\lvgl\src/misc\lv_anim.h ****  * Set a function call when the animation is ready
 224:d:\kzc\stm32\h743ii_lcd\lvgl\src/misc\lv_anim.h ****  * @param a         pointer to an initialized `lv_anim_t` variable
 225:d:\kzc\stm32\h743ii_lcd\lvgl\src/misc\lv_anim.h ****  * @param ready_cb  a function call when the animation is ready
 226:d:\kzc\stm32\h743ii_lcd\lvgl\src/misc\lv_anim.h ****  */
 227:d:\kzc\stm32\h743ii_lcd\lvgl\src/misc\lv_anim.h **** static inline void lv_anim_set_ready_cb(lv_anim_t * a, lv_anim_ready_cb_t ready_cb)
 228:d:\kzc\stm32\h743ii_lcd\lvgl\src/misc\lv_anim.h **** {
 229:d:\kzc\stm32\h743ii_lcd\lvgl\src/misc\lv_anim.h ****     a->ready_cb = ready_cb;
 230:d:\kzc\stm32\h743ii_lcd\lvgl\src/misc\lv_anim.h **** }
 231:d:\kzc\stm32\h743ii_lcd\lvgl\src/misc\lv_anim.h **** 
 232:d:\kzc\stm32\h743ii_lcd\lvgl\src/misc\lv_anim.h **** /**
 233:d:\kzc\stm32\h743ii_lcd\lvgl\src/misc\lv_anim.h ****  * Set a function call when the animation is deleted.
 234:d:\kzc\stm32\h743ii_lcd\lvgl\src/misc\lv_anim.h ****  * @param a         pointer to an initialized `lv_anim_t` variable
 235:d:\kzc\stm32\h743ii_lcd\lvgl\src/misc\lv_anim.h ****  * @param deleted_cb  a function call when the animation is deleted
 236:d:\kzc\stm32\h743ii_lcd\lvgl\src/misc\lv_anim.h ****  */
 237:d:\kzc\stm32\h743ii_lcd\lvgl\src/misc\lv_anim.h **** static inline void lv_anim_set_deleted_cb(lv_anim_t * a, lv_anim_deleted_cb_t deleted_cb)
 238:d:\kzc\stm32\h743ii_lcd\lvgl\src/misc\lv_anim.h **** {
 239:d:\kzc\stm32\h743ii_lcd\lvgl\src/misc\lv_anim.h ****     a->deleted_cb = deleted_cb;
 240:d:\kzc\stm32\h743ii_lcd\lvgl\src/misc\lv_anim.h **** }
 241:d:\kzc\stm32\h743ii_lcd\lvgl\src/misc\lv_anim.h **** 
 242:d:\kzc\stm32\h743ii_lcd\lvgl\src/misc\lv_anim.h **** /**
 243:d:\kzc\stm32\h743ii_lcd\lvgl\src/misc\lv_anim.h ****  * Make the animation to play back to when the forward direction is ready
 244:d:\kzc\stm32\h743ii_lcd\lvgl\src/misc\lv_anim.h ****  * @param a         pointer to an initialized `lv_anim_t` variable
 245:d:\kzc\stm32\h743ii_lcd\lvgl\src/misc\lv_anim.h ****  * @param time      the duration of the playback animation in milliseconds. 0: disable playback
 246:d:\kzc\stm32\h743ii_lcd\lvgl\src/misc\lv_anim.h ****  */
 247:d:\kzc\stm32\h743ii_lcd\lvgl\src/misc\lv_anim.h **** static inline void lv_anim_set_playback_time(lv_anim_t * a, uint32_t time)
 248:d:\kzc\stm32\h743ii_lcd\lvgl\src/misc\lv_anim.h **** {
 249:d:\kzc\stm32\h743ii_lcd\lvgl\src/misc\lv_anim.h ****     a->playback_time = time;
 250:d:\kzc\stm32\h743ii_lcd\lvgl\src/misc\lv_anim.h **** }
 251:d:\kzc\stm32\h743ii_lcd\lvgl\src/misc\lv_anim.h **** 
 252:d:\kzc\stm32\h743ii_lcd\lvgl\src/misc\lv_anim.h **** /**
 253:d:\kzc\stm32\h743ii_lcd\lvgl\src/misc\lv_anim.h ****  * Make the animation to play back to when the forward direction is ready
 254:d:\kzc\stm32\h743ii_lcd\lvgl\src/misc\lv_anim.h ****  * @param a         pointer to an initialized `lv_anim_t` variable
 255:d:\kzc\stm32\h743ii_lcd\lvgl\src/misc\lv_anim.h ****  * @param delay     delay in milliseconds before starting the playback animation.
 256:d:\kzc\stm32\h743ii_lcd\lvgl\src/misc\lv_anim.h ****  */
 257:d:\kzc\stm32\h743ii_lcd\lvgl\src/misc\lv_anim.h **** static inline void lv_anim_set_playback_delay(lv_anim_t * a, uint32_t delay)
 258:d:\kzc\stm32\h743ii_lcd\lvgl\src/misc\lv_anim.h **** {
 259:d:\kzc\stm32\h743ii_lcd\lvgl\src/misc\lv_anim.h ****     a->playback_delay = delay;
 260:d:\kzc\stm32\h743ii_lcd\lvgl\src/misc\lv_anim.h **** }
 261:d:\kzc\stm32\h743ii_lcd\lvgl\src/misc\lv_anim.h **** 
 262:d:\kzc\stm32\h743ii_lcd\lvgl\src/misc\lv_anim.h **** /**
 263:d:\kzc\stm32\h743ii_lcd\lvgl\src/misc\lv_anim.h ****  * Make the animation repeat itself.
 264:d:\kzc\stm32\h743ii_lcd\lvgl\src/misc\lv_anim.h ****  * @param a         pointer to an initialized `lv_anim_t` variable
 265:d:\kzc\stm32\h743ii_lcd\lvgl\src/misc\lv_anim.h ****  * @param cnt       repeat count or `LV_ANIM_REPEAT_INFINITE` for infinite repetition. 0: to disabl
 266:d:\kzc\stm32\h743ii_lcd\lvgl\src/misc\lv_anim.h ****  */
 267:d:\kzc\stm32\h743ii_lcd\lvgl\src/misc\lv_anim.h **** static inline void lv_anim_set_repeat_count(lv_anim_t * a, uint16_t cnt)
ARM GAS  C:\Users\OSD\AppData\Local\Temp\cclkbkif.s 			page 10


 119              		.loc 2 267 20 view .LVU36
 120              	.LBB29:
 268:d:\kzc\stm32\h743ii_lcd\lvgl\src/misc\lv_anim.h **** {
 269:d:\kzc\stm32\h743ii_lcd\lvgl\src/misc\lv_anim.h ****     a->repeat_cnt = cnt;
 121              		.loc 2 269 5 view .LVU37
 122              		.loc 2 269 19 is_stmt 0 view .LVU38
 123 002a 4FF6FF73 		movw	r3, #65535
 124 002e A4F87C30 		strh	r3, [r4, #124]	@ movhi
 125              	.LVL8:
 126              		.loc 2 269 19 view .LVU39
 127              	.LBE29:
 128              	.LBE28:
 126:lvgl/src/extra/widgets/animimg/lv_animimg.c **** }
 129              		.loc 1 126 1 view .LVU40
 130 0032 38BD     		pop	{r3, r4, r5, pc}
 131              	.LVL9:
 132              	.L4:
 133              		.loc 1 126 1 view .LVU41
 134              		.align	2
 135              	.L3:
 136 0034 00000000 		.word	index_change
 137              		.cfi_endproc
 138              	.LFE209:
 140              		.section	.text.index_change,"ax",%progbits
 141              		.align	1
 142              		.syntax unified
 143              		.thumb
 144              		.thumb_func
 146              	index_change:
 147              	.LVL10:
 148              	.LFB210:
 127:lvgl/src/extra/widgets/animimg/lv_animimg.c **** 
 128:lvgl/src/extra/widgets/animimg/lv_animimg.c **** static void index_change(lv_obj_t * obj, int32_t index)
 129:lvgl/src/extra/widgets/animimg/lv_animimg.c **** {
 149              		.loc 1 129 1 is_stmt 1 view -0
 150              		.cfi_startproc
 151              		@ args = 0, pretend = 0, frame = 0
 152              		@ frame_needed = 0, uses_anonymous_args = 0
 153              		.loc 1 129 1 is_stmt 0 view .LVU43
 154 0000 08B5     		push	{r3, lr}
 155              		.cfi_def_cfa_offset 8
 156              		.cfi_offset 3, -8
 157              		.cfi_offset 14, -4
 130:lvgl/src/extra/widgets/animimg/lv_animimg.c ****     lv_coord_t idx;
 158              		.loc 1 130 5 is_stmt 1 view .LVU44
 131:lvgl/src/extra/widgets/animimg/lv_animimg.c ****     lv_animimg_t * animimg = (lv_animimg_t *)obj;
 159              		.loc 1 131 5 view .LVU45
 160              	.LVL11:
 132:lvgl/src/extra/widgets/animimg/lv_animimg.c **** 
 133:lvgl/src/extra/widgets/animimg/lv_animimg.c ****     idx = index % animimg->pic_count;
 161              		.loc 1 133 5 view .LVU46
 162              		.loc 1 133 26 is_stmt 0 view .LVU47
 163 0002 90F98420 		ldrsb	r2, [r0, #132]
 164              		.loc 1 133 17 view .LVU48
 165 0006 91FBF2FC 		sdiv	ip, r1, r2
 166 000a 02FB1C11 		mls	r1, r2, ip, r1
 167              	.LVL12:
ARM GAS  C:\Users\OSD\AppData\Local\Temp\cclkbkif.s 			page 11


 168              		.loc 1 133 9 view .LVU49
 169 000e 09B2     		sxth	r1, r1
 170              	.LVL13:
 134:lvgl/src/extra/widgets/animimg/lv_animimg.c **** 
 135:lvgl/src/extra/widgets/animimg/lv_animimg.c ****     lv_img_set_src(obj, animimg->dsc[idx]);
 171              		.loc 1 135 5 is_stmt 1 view .LVU50
 172              		.loc 1 135 32 is_stmt 0 view .LVU51
 173 0010 D0F88030 		ldr	r3, [r0, #128]
 174              		.loc 1 135 5 view .LVU52
 175 0014 53F82110 		ldr	r1, [r3, r1, lsl #2]
 176              	.LVL14:
 177              		.loc 1 135 5 view .LVU53
 178 0018 FFF7FEFF 		bl	lv_img_set_src
 179              	.LVL15:
 136:lvgl/src/extra/widgets/animimg/lv_animimg.c **** }
 180              		.loc 1 136 1 view .LVU54
 181 001c 08BD     		pop	{r3, pc}
 182              		.cfi_endproc
 183              	.LFE210:
 185              		.section	.text.lv_animimg_create,"ax",%progbits
 186              		.align	1
 187              		.global	lv_animimg_create
 188              		.syntax unified
 189              		.thumb
 190              		.thumb_func
 192              	lv_animimg_create:
 193              	.LVL16:
 194              	.LFB204:
  60:lvgl/src/extra/widgets/animimg/lv_animimg.c ****     LV_LOG_INFO("begin");
 195              		.loc 1 60 1 is_stmt 1 view -0
 196              		.cfi_startproc
 197              		@ args = 0, pretend = 0, frame = 0
 198              		@ frame_needed = 0, uses_anonymous_args = 0
  60:lvgl/src/extra/widgets/animimg/lv_animimg.c ****     LV_LOG_INFO("begin");
 199              		.loc 1 60 1 is_stmt 0 view .LVU56
 200 0000 10B5     		push	{r4, lr}
 201              		.cfi_def_cfa_offset 8
 202              		.cfi_offset 4, -8
 203              		.cfi_offset 14, -4
 204 0002 0146     		mov	r1, r0
  61:lvgl/src/extra/widgets/animimg/lv_animimg.c ****     lv_obj_t * obj = lv_obj_class_create_obj(&lv_animimg_class, parent);
 205              		.loc 1 61 5 is_stmt 1 view .LVU57
  61:lvgl/src/extra/widgets/animimg/lv_animimg.c ****     lv_obj_t * obj = lv_obj_class_create_obj(&lv_animimg_class, parent);
 206              		.loc 1 61 5 view .LVU58
  61:lvgl/src/extra/widgets/animimg/lv_animimg.c ****     lv_obj_t * obj = lv_obj_class_create_obj(&lv_animimg_class, parent);
 207              		.loc 1 61 5 view .LVU59
  62:lvgl/src/extra/widgets/animimg/lv_animimg.c ****     lv_obj_class_init_obj(obj);
 208              		.loc 1 62 5 view .LVU60
  62:lvgl/src/extra/widgets/animimg/lv_animimg.c ****     lv_obj_class_init_obj(obj);
 209              		.loc 1 62 22 is_stmt 0 view .LVU61
 210 0004 0348     		ldr	r0, .L9
 211              	.LVL17:
  62:lvgl/src/extra/widgets/animimg/lv_animimg.c ****     lv_obj_class_init_obj(obj);
 212              		.loc 1 62 22 view .LVU62
 213 0006 FFF7FEFF 		bl	lv_obj_class_create_obj
 214              	.LVL18:
  62:lvgl/src/extra/widgets/animimg/lv_animimg.c ****     lv_obj_class_init_obj(obj);
ARM GAS  C:\Users\OSD\AppData\Local\Temp\cclkbkif.s 			page 12


 215              		.loc 1 62 22 view .LVU63
 216 000a 0446     		mov	r4, r0
 217              	.LVL19:
  63:lvgl/src/extra/widgets/animimg/lv_animimg.c ****     return obj;
 218              		.loc 1 63 5 is_stmt 1 view .LVU64
 219 000c FFF7FEFF 		bl	lv_obj_class_init_obj
 220              	.LVL20:
  64:lvgl/src/extra/widgets/animimg/lv_animimg.c **** }
 221              		.loc 1 64 5 view .LVU65
  65:lvgl/src/extra/widgets/animimg/lv_animimg.c **** 
 222              		.loc 1 65 1 is_stmt 0 view .LVU66
 223 0010 2046     		mov	r0, r4
 224 0012 10BD     		pop	{r4, pc}
 225              	.LVL21:
 226              	.L10:
  65:lvgl/src/extra/widgets/animimg/lv_animimg.c **** 
 227              		.loc 1 65 1 view .LVU67
 228              		.align	2
 229              	.L9:
 230 0014 00000000 		.word	.LANCHOR0
 231              		.cfi_endproc
 232              	.LFE204:
 234              		.section	.text.lv_animimg_set_src,"ax",%progbits
 235              		.align	1
 236              		.global	lv_animimg_set_src
 237              		.syntax unified
 238              		.thumb
 239              		.thumb_func
 241              	lv_animimg_set_src:
 242              	.LVL22:
 243              	.LFB205:
  68:lvgl/src/extra/widgets/animimg/lv_animimg.c ****     LV_ASSERT_OBJ(obj, MY_CLASS);
 244              		.loc 1 68 1 is_stmt 1 view -0
 245              		.cfi_startproc
 246              		@ args = 0, pretend = 0, frame = 0
 247              		@ frame_needed = 0, uses_anonymous_args = 0
 248              		@ link register save eliminated.
  69:lvgl/src/extra/widgets/animimg/lv_animimg.c ****     lv_animimg_t * animimg = (lv_animimg_t *)obj;
 249              		.loc 1 69 5 view .LVU69
  69:lvgl/src/extra/widgets/animimg/lv_animimg.c ****     lv_animimg_t * animimg = (lv_animimg_t *)obj;
 250              		.loc 1 69 5 view .LVU70
  69:lvgl/src/extra/widgets/animimg/lv_animimg.c ****     lv_animimg_t * animimg = (lv_animimg_t *)obj;
 251              		.loc 1 69 5 view .LVU71
  70:lvgl/src/extra/widgets/animimg/lv_animimg.c ****     animimg->dsc = dsc;
 252              		.loc 1 70 5 view .LVU72
  71:lvgl/src/extra/widgets/animimg/lv_animimg.c ****     animimg->pic_count = num;
 253              		.loc 1 71 5 view .LVU73
  71:lvgl/src/extra/widgets/animimg/lv_animimg.c ****     animimg->pic_count = num;
 254              		.loc 1 71 18 is_stmt 0 view .LVU74
 255 0000 C0F88010 		str	r1, [r0, #128]
  72:lvgl/src/extra/widgets/animimg/lv_animimg.c ****     lv_anim_set_values(&animimg->anim, 0, num);
 256              		.loc 1 72 5 is_stmt 1 view .LVU75
  72:lvgl/src/extra/widgets/animimg/lv_animimg.c ****     lv_anim_set_values(&animimg->anim, 0, num);
 257              		.loc 1 72 24 is_stmt 0 view .LVU76
 258 0004 80F88420 		strb	r2, [r0, #132]
  73:lvgl/src/extra/widgets/animimg/lv_animimg.c **** }
 259              		.loc 1 73 5 is_stmt 1 view .LVU77
ARM GAS  C:\Users\OSD\AppData\Local\Temp\cclkbkif.s 			page 13


 260              	.LVL23:
 261              	.LBB30:
 262              	.LBI30:
 169:d:\kzc\stm32\h743ii_lcd\lvgl\src/misc\lv_anim.h **** {
 263              		.loc 2 169 20 view .LVU78
 264              	.LBB31:
 171:d:\kzc\stm32\h743ii_lcd\lvgl\src/misc\lv_anim.h ****     a->current_value = start;
 265              		.loc 2 171 5 view .LVU79
 171:d:\kzc\stm32\h743ii_lcd\lvgl\src/misc\lv_anim.h ****     a->current_value = start;
 266              		.loc 2 171 20 is_stmt 0 view .LVU80
 267 0008 0023     		movs	r3, #0
 268 000a C365     		str	r3, [r0, #92]
 172:d:\kzc\stm32\h743ii_lcd\lvgl\src/misc\lv_anim.h ****     a->end_value = end;
 269              		.loc 2 172 5 is_stmt 1 view .LVU81
 172:d:\kzc\stm32\h743ii_lcd\lvgl\src/misc\lv_anim.h ****     a->end_value = end;
 270              		.loc 2 172 22 is_stmt 0 view .LVU82
 271 000c 0366     		str	r3, [r0, #96]
 173:d:\kzc\stm32\h743ii_lcd\lvgl\src/misc\lv_anim.h **** }
 272              		.loc 2 173 5 is_stmt 1 view .LVU83
 173:d:\kzc\stm32\h743ii_lcd\lvgl\src/misc\lv_anim.h **** }
 273              		.loc 2 173 18 is_stmt 0 view .LVU84
 274 000e 4266     		str	r2, [r0, #100]
 275              	.LVL24:
 173:d:\kzc\stm32\h743ii_lcd\lvgl\src/misc\lv_anim.h **** }
 276              		.loc 2 173 18 view .LVU85
 277              	.LBE31:
 278              	.LBE30:
  74:lvgl/src/extra/widgets/animimg/lv_animimg.c **** 
 279              		.loc 1 74 1 view .LVU86
 280 0010 7047     		bx	lr
 281              		.cfi_endproc
 282              	.LFE205:
 284              		.section	.text.lv_animimg_start,"ax",%progbits
 285              		.align	1
 286              		.global	lv_animimg_start
 287              		.syntax unified
 288              		.thumb
 289              		.thumb_func
 291              	lv_animimg_start:
 292              	.LVL25:
 293              	.LFB206:
  77:lvgl/src/extra/widgets/animimg/lv_animimg.c ****     LV_ASSERT_OBJ(obj, MY_CLASS);
 294              		.loc 1 77 1 is_stmt 1 view -0
 295              		.cfi_startproc
 296              		@ args = 0, pretend = 0, frame = 0
 297              		@ frame_needed = 0, uses_anonymous_args = 0
  77:lvgl/src/extra/widgets/animimg/lv_animimg.c ****     LV_ASSERT_OBJ(obj, MY_CLASS);
 298              		.loc 1 77 1 is_stmt 0 view .LVU88
 299 0000 08B5     		push	{r3, lr}
 300              		.cfi_def_cfa_offset 8
 301              		.cfi_offset 3, -8
 302              		.cfi_offset 14, -4
  78:lvgl/src/extra/widgets/animimg/lv_animimg.c ****     lv_animimg_t * animimg = (lv_animimg_t *)obj;
 303              		.loc 1 78 5 is_stmt 1 view .LVU89
  78:lvgl/src/extra/widgets/animimg/lv_animimg.c ****     lv_animimg_t * animimg = (lv_animimg_t *)obj;
 304              		.loc 1 78 5 view .LVU90
  78:lvgl/src/extra/widgets/animimg/lv_animimg.c ****     lv_animimg_t * animimg = (lv_animimg_t *)obj;
ARM GAS  C:\Users\OSD\AppData\Local\Temp\cclkbkif.s 			page 14


 305              		.loc 1 78 5 view .LVU91
  79:lvgl/src/extra/widgets/animimg/lv_animimg.c ****     lv_anim_start(&animimg->anim);
 306              		.loc 1 79 5 view .LVU92
 307              	.LVL26:
  80:lvgl/src/extra/widgets/animimg/lv_animimg.c **** }
 308              		.loc 1 80 5 view .LVU93
 309 0002 3C30     		adds	r0, r0, #60
 310              	.LVL27:
  80:lvgl/src/extra/widgets/animimg/lv_animimg.c **** }
 311              		.loc 1 80 5 is_stmt 0 view .LVU94
 312 0004 FFF7FEFF 		bl	lv_anim_start
 313              	.LVL28:
  81:lvgl/src/extra/widgets/animimg/lv_animimg.c **** 
 314              		.loc 1 81 1 view .LVU95
 315 0008 08BD     		pop	{r3, pc}
 316              		.cfi_endproc
 317              	.LFE206:
 319              		.section	.text.lv_animimg_set_duration,"ax",%progbits
 320              		.align	1
 321              		.global	lv_animimg_set_duration
 322              		.syntax unified
 323              		.thumb
 324              		.thumb_func
 326              	lv_animimg_set_duration:
 327              	.LVL29:
 328              	.LFB207:
  88:lvgl/src/extra/widgets/animimg/lv_animimg.c ****     LV_ASSERT_OBJ(obj, MY_CLASS);
 329              		.loc 1 88 1 is_stmt 1 view -0
 330              		.cfi_startproc
 331              		@ args = 0, pretend = 0, frame = 0
 332              		@ frame_needed = 0, uses_anonymous_args = 0
 333              		@ link register save eliminated.
  89:lvgl/src/extra/widgets/animimg/lv_animimg.c ****     lv_animimg_t * animimg = (lv_animimg_t *)obj;
 334              		.loc 1 89 5 view .LVU97
  89:lvgl/src/extra/widgets/animimg/lv_animimg.c ****     lv_animimg_t * animimg = (lv_animimg_t *)obj;
 335              		.loc 1 89 5 view .LVU98
  89:lvgl/src/extra/widgets/animimg/lv_animimg.c ****     lv_animimg_t * animimg = (lv_animimg_t *)obj;
 336              		.loc 1 89 5 view .LVU99
  90:lvgl/src/extra/widgets/animimg/lv_animimg.c ****     lv_anim_set_time(&animimg->anim, duration);
 337              		.loc 1 90 5 view .LVU100
  91:lvgl/src/extra/widgets/animimg/lv_animimg.c ****     lv_anim_set_playback_delay(&animimg->anim, duration);
 338              		.loc 1 91 5 view .LVU101
 339              	.LBB32:
 340              	.LBI32:
 148:d:\kzc\stm32\h743ii_lcd\lvgl\src/misc\lv_anim.h **** {
 341              		.loc 2 148 20 view .LVU102
 342              	.LBB33:
 150:d:\kzc\stm32\h743ii_lcd\lvgl\src/misc\lv_anim.h **** }
 343              		.loc 2 150 5 view .LVU103
 150:d:\kzc\stm32\h743ii_lcd\lvgl\src/misc\lv_anim.h **** }
 344              		.loc 2 150 13 is_stmt 0 view .LVU104
 345 0000 8166     		str	r1, [r0, #104]
 346              	.LVL30:
 150:d:\kzc\stm32\h743ii_lcd\lvgl\src/misc\lv_anim.h **** }
 347              		.loc 2 150 13 view .LVU105
 348              	.LBE33:
 349              	.LBE32:
ARM GAS  C:\Users\OSD\AppData\Local\Temp\cclkbkif.s 			page 15


  92:lvgl/src/extra/widgets/animimg/lv_animimg.c **** }
 350              		.loc 1 92 5 is_stmt 1 view .LVU106
 351              	.LBB34:
 352              	.LBI34:
 257:d:\kzc\stm32\h743ii_lcd\lvgl\src/misc\lv_anim.h **** {
 353              		.loc 2 257 20 view .LVU107
 354              	.LBB35:
 259:d:\kzc\stm32\h743ii_lcd\lvgl\src/misc\lv_anim.h **** }
 355              		.loc 2 259 5 view .LVU108
 259:d:\kzc\stm32\h743ii_lcd\lvgl\src/misc\lv_anim.h **** }
 356              		.loc 2 259 23 is_stmt 0 view .LVU109
 357 0002 0167     		str	r1, [r0, #112]
 358              	.LVL31:
 259:d:\kzc\stm32\h743ii_lcd\lvgl\src/misc\lv_anim.h **** }
 359              		.loc 2 259 23 view .LVU110
 360              	.LBE35:
 361              	.LBE34:
  93:lvgl/src/extra/widgets/animimg/lv_animimg.c **** 
 362              		.loc 1 93 1 view .LVU111
 363 0004 7047     		bx	lr
 364              		.cfi_endproc
 365              	.LFE207:
 367              		.section	.text.lv_animimg_set_repeat_count,"ax",%progbits
 368              		.align	1
 369              		.global	lv_animimg_set_repeat_count
 370              		.syntax unified
 371              		.thumb
 372              		.thumb_func
 374              	lv_animimg_set_repeat_count:
 375              	.LVL32:
 376              	.LFB208:
  96:lvgl/src/extra/widgets/animimg/lv_animimg.c ****     LV_ASSERT_OBJ(obj, MY_CLASS);
 377              		.loc 1 96 1 is_stmt 1 view -0
 378              		.cfi_startproc
 379              		@ args = 0, pretend = 0, frame = 0
 380              		@ frame_needed = 0, uses_anonymous_args = 0
 381              		@ link register save eliminated.
  97:lvgl/src/extra/widgets/animimg/lv_animimg.c ****     lv_animimg_t * animimg = (lv_animimg_t *)obj;
 382              		.loc 1 97 5 view .LVU113
  97:lvgl/src/extra/widgets/animimg/lv_animimg.c ****     lv_animimg_t * animimg = (lv_animimg_t *)obj;
 383              		.loc 1 97 5 view .LVU114
  97:lvgl/src/extra/widgets/animimg/lv_animimg.c ****     lv_animimg_t * animimg = (lv_animimg_t *)obj;
 384              		.loc 1 97 5 view .LVU115
  98:lvgl/src/extra/widgets/animimg/lv_animimg.c ****     lv_anim_set_repeat_count(&animimg->anim, count);
 385              		.loc 1 98 5 view .LVU116
  99:lvgl/src/extra/widgets/animimg/lv_animimg.c **** }
 386              		.loc 1 99 5 view .LVU117
 387              	.LBB36:
 388              	.LBI36:
 267:d:\kzc\stm32\h743ii_lcd\lvgl\src/misc\lv_anim.h **** {
 389              		.loc 2 267 20 view .LVU118
 390              	.LBB37:
 391              		.loc 2 269 5 view .LVU119
 392              		.loc 2 269 19 is_stmt 0 view .LVU120
 393 0000 A0F87C10 		strh	r1, [r0, #124]	@ movhi
 394              	.LVL33:
 395              		.loc 2 269 19 view .LVU121
ARM GAS  C:\Users\OSD\AppData\Local\Temp\cclkbkif.s 			page 16


 396              	.LBE37:
 397              	.LBE36:
 100:lvgl/src/extra/widgets/animimg/lv_animimg.c **** 
 398              		.loc 1 100 1 view .LVU122
 399 0004 7047     		bx	lr
 400              		.cfi_endproc
 401              	.LFE208:
 403              		.global	lv_animimg_class
 404              		.section	.rodata.lv_animimg_class,"a"
 405              		.align	2
 406              		.set	.LANCHOR0,. + 0
 409              	lv_animimg_class:
 410 0000 00000000 		.word	lv_img_class
 411 0004 00000000 		.word	lv_animimg_constructor
 412 0008 00000000 		.space	16
 412      00000000 
 412      00000000 
 412      00000000 
 413 0018 80       		.byte	128
 414 0019 08       		.byte	8
 415 001a 00       		.byte	0
 416 001b 00       		.space	1
 417              		.text
 418              	.Letext0:
 419              		.file 3 "c:\\tools\\gcc-arm-none-eabi\\arm-none-eabi\\include\\machine\\_default_types.h"
 420              		.file 4 "c:\\tools\\gcc-arm-none-eabi\\arm-none-eabi\\include\\sys\\_stdint.h"
 421              		.file 5 "d:\\kzc\\stm32\\h743ii_lcd\\lvgl\\src\\misc\\lv_area.h"
 422              		.file 6 "d:\\kzc\\stm32\\h743ii_lcd\\lvgl\\src\\misc\\lv_color.h"
 423              		.file 7 "d:\\kzc\\stm32\\h743ii_lcd\\lvgl\\src\\misc\\lv_style.h"
 424              		.file 8 "d:\\kzc\\stm32\\h743ii_lcd\\lvgl\\src/core/lv_obj.h"
 425              		.file 9 "d:\\kzc\\stm32\\h743ii_lcd\\lvgl\\src\\misc\\lv_ll.h"
 426              		.file 10 "d:\\kzc\\stm32\\h743ii_lcd\\lvgl\\src/core/lv_group.h"
 427              		.file 11 "d:\\kzc\\stm32\\h743ii_lcd\\lvgl\\src/core/lv_obj_scroll.h"
 428              		.file 12 "d:\\kzc\\stm32\\h743ii_lcd\\lvgl\\src/core/lv_obj_style.h"
 429              		.file 13 "d:\\kzc\\stm32\\h743ii_lcd\\lvgl\\src/core/lv_obj_class.h"
 430              		.file 14 "d:\\kzc\\stm32\\h743ii_lcd\\lvgl\\src/core/lv_event.h"
 431              		.file 15 "d:\\kzc\\stm32\\h743ii_lcd\\lvgl\\src/widgets/lv_img.h"
 432              		.file 16 "d:\\kzc\\stm32\\h743ii_lcd\\lvgl\\src/widgets/lv_bar.h"
 433              		.file 17 "d:\\kzc\\stm32\\h743ii_lcd\\lvgl\\src/extra/widgets/imgbtn/lv_imgbtn.h"
 434              		.file 18 "lvgl/src/extra/widgets/animimg/lv_animimg.h"
ARM GAS  C:\Users\OSD\AppData\Local\Temp\cclkbkif.s 			page 17

