ARM GAS  C:\Users\OSD\AppData\Local\Temp\ccx0d5Nb.s 			page 1


   1              		.cpu cortex-m7
   2              		.arch armv7e-m
   3              		.fpu fpv5-d16
   4              		.eabi_attribute 28, 1
   5              		.eabi_attribute 20, 1
   6              		.eabi_attribute 21, 1
   7              		.eabi_attribute 23, 3
   8              		.eabi_attribute 24, 1
   9              		.eabi_attribute 25, 1
  10              		.eabi_attribute 26, 1
  11              		.eabi_attribute 30, 1
  12              		.eabi_attribute 34, 1
  13              		.eabi_attribute 18, 4
  14              		.file	"lv_area.c"
  15              		.text
  16              	.Ltext0:
  17              		.cfi_sections	.debug_frame
  18              		.section	.text.lv_point_within_circle,"ax",%progbits
  19              		.align	1
  20              		.syntax unified
  21              		.thumb
  22              		.thumb_func
  24              	lv_point_within_circle:
  25              	.LVL0:
  26              	.LFB22:
  27              		.file 1 "lvgl/src/misc/lv_area.c"
   1:lvgl/src/misc/lv_area.c **** /**
   2:lvgl/src/misc/lv_area.c ****  * @file lv_area.c
   3:lvgl/src/misc/lv_area.c ****  *
   4:lvgl/src/misc/lv_area.c ****  */
   5:lvgl/src/misc/lv_area.c **** 
   6:lvgl/src/misc/lv_area.c **** /*********************
   7:lvgl/src/misc/lv_area.c ****  *      INCLUDES
   8:lvgl/src/misc/lv_area.c ****  *********************/
   9:lvgl/src/misc/lv_area.c **** #include "../lv_conf_internal.h"
  10:lvgl/src/misc/lv_area.c **** 
  11:lvgl/src/misc/lv_area.c **** #include "lv_area.h"
  12:lvgl/src/misc/lv_area.c **** #include "lv_math.h"
  13:lvgl/src/misc/lv_area.c **** 
  14:lvgl/src/misc/lv_area.c **** /*********************
  15:lvgl/src/misc/lv_area.c ****  *      DEFINES
  16:lvgl/src/misc/lv_area.c ****  *********************/
  17:lvgl/src/misc/lv_area.c **** 
  18:lvgl/src/misc/lv_area.c **** /**********************
  19:lvgl/src/misc/lv_area.c ****  *      TYPEDEFS
  20:lvgl/src/misc/lv_area.c ****  **********************/
  21:lvgl/src/misc/lv_area.c **** 
  22:lvgl/src/misc/lv_area.c **** /**********************
  23:lvgl/src/misc/lv_area.c ****  *  STATIC PROTOTYPES
  24:lvgl/src/misc/lv_area.c ****  **********************/
  25:lvgl/src/misc/lv_area.c **** 
  26:lvgl/src/misc/lv_area.c **** static bool lv_point_within_circle(const lv_area_t * area, const lv_point_t * p);
  27:lvgl/src/misc/lv_area.c **** 
  28:lvgl/src/misc/lv_area.c **** /**********************
  29:lvgl/src/misc/lv_area.c ****  *  STATIC VARIABLES
  30:lvgl/src/misc/lv_area.c ****  **********************/
  31:lvgl/src/misc/lv_area.c **** 
ARM GAS  C:\Users\OSD\AppData\Local\Temp\ccx0d5Nb.s 			page 2


  32:lvgl/src/misc/lv_area.c **** /**********************
  33:lvgl/src/misc/lv_area.c ****  *      MACROS
  34:lvgl/src/misc/lv_area.c ****  **********************/
  35:lvgl/src/misc/lv_area.c **** 
  36:lvgl/src/misc/lv_area.c **** /**********************
  37:lvgl/src/misc/lv_area.c ****  *   GLOBAL FUNCTIONS
  38:lvgl/src/misc/lv_area.c ****  **********************/
  39:lvgl/src/misc/lv_area.c **** 
  40:lvgl/src/misc/lv_area.c **** /**
  41:lvgl/src/misc/lv_area.c ****  * Initialize an area
  42:lvgl/src/misc/lv_area.c ****  * @param area_p pointer to an area
  43:lvgl/src/misc/lv_area.c ****  * @param x1 left coordinate of the area
  44:lvgl/src/misc/lv_area.c ****  * @param y1 top coordinate of the area
  45:lvgl/src/misc/lv_area.c ****  * @param x2 right coordinate of the area
  46:lvgl/src/misc/lv_area.c ****  * @param y2 bottom coordinate of the area
  47:lvgl/src/misc/lv_area.c ****  */
  48:lvgl/src/misc/lv_area.c **** void lv_area_set(lv_area_t * area_p, lv_coord_t x1, lv_coord_t y1, lv_coord_t x2, lv_coord_t y2)
  49:lvgl/src/misc/lv_area.c **** {
  50:lvgl/src/misc/lv_area.c ****     area_p->x1 = x1;
  51:lvgl/src/misc/lv_area.c ****     area_p->y1 = y1;
  52:lvgl/src/misc/lv_area.c ****     area_p->x2 = x2;
  53:lvgl/src/misc/lv_area.c ****     area_p->y2 = y2;
  54:lvgl/src/misc/lv_area.c **** }
  55:lvgl/src/misc/lv_area.c **** 
  56:lvgl/src/misc/lv_area.c **** /**
  57:lvgl/src/misc/lv_area.c ****  * Set the width of an area
  58:lvgl/src/misc/lv_area.c ****  * @param area_p pointer to an area
  59:lvgl/src/misc/lv_area.c ****  * @param w the new width of the area (w == 1 makes x1 == x2)
  60:lvgl/src/misc/lv_area.c ****  */
  61:lvgl/src/misc/lv_area.c **** void lv_area_set_width(lv_area_t * area_p, lv_coord_t w)
  62:lvgl/src/misc/lv_area.c **** {
  63:lvgl/src/misc/lv_area.c ****     area_p->x2 = area_p->x1 + w - 1;
  64:lvgl/src/misc/lv_area.c **** }
  65:lvgl/src/misc/lv_area.c **** 
  66:lvgl/src/misc/lv_area.c **** /**
  67:lvgl/src/misc/lv_area.c ****  * Set the height of an area
  68:lvgl/src/misc/lv_area.c ****  * @param area_p pointer to an area
  69:lvgl/src/misc/lv_area.c ****  * @param h the new height of the area (h == 1 makes y1 == y2)
  70:lvgl/src/misc/lv_area.c ****  */
  71:lvgl/src/misc/lv_area.c **** void lv_area_set_height(lv_area_t * area_p, lv_coord_t h)
  72:lvgl/src/misc/lv_area.c **** {
  73:lvgl/src/misc/lv_area.c ****     area_p->y2 = area_p->y1 + h - 1;
  74:lvgl/src/misc/lv_area.c **** }
  75:lvgl/src/misc/lv_area.c **** 
  76:lvgl/src/misc/lv_area.c **** /**
  77:lvgl/src/misc/lv_area.c ****  * Set the position of an area (width and height will be kept)
  78:lvgl/src/misc/lv_area.c ****  * @param area_p pointer to an area
  79:lvgl/src/misc/lv_area.c ****  * @param x the new x coordinate of the area
  80:lvgl/src/misc/lv_area.c ****  * @param y the new y coordinate of the area
  81:lvgl/src/misc/lv_area.c ****  */
  82:lvgl/src/misc/lv_area.c **** void _lv_area_set_pos(lv_area_t * area_p, lv_coord_t x, lv_coord_t y)
  83:lvgl/src/misc/lv_area.c **** {
  84:lvgl/src/misc/lv_area.c ****     lv_coord_t w = lv_area_get_width(area_p);
  85:lvgl/src/misc/lv_area.c ****     lv_coord_t h = lv_area_get_height(area_p);
  86:lvgl/src/misc/lv_area.c ****     area_p->x1   = x;
  87:lvgl/src/misc/lv_area.c ****     area_p->y1   = y;
  88:lvgl/src/misc/lv_area.c ****     lv_area_set_width(area_p, w);
ARM GAS  C:\Users\OSD\AppData\Local\Temp\ccx0d5Nb.s 			page 3


  89:lvgl/src/misc/lv_area.c ****     lv_area_set_height(area_p, h);
  90:lvgl/src/misc/lv_area.c **** }
  91:lvgl/src/misc/lv_area.c **** 
  92:lvgl/src/misc/lv_area.c **** /**
  93:lvgl/src/misc/lv_area.c ****  * Return with area of an area (x * y)
  94:lvgl/src/misc/lv_area.c ****  * @param area_p pointer to an area
  95:lvgl/src/misc/lv_area.c ****  * @return size of area
  96:lvgl/src/misc/lv_area.c ****  */
  97:lvgl/src/misc/lv_area.c **** uint32_t lv_area_get_size(const lv_area_t * area_p)
  98:lvgl/src/misc/lv_area.c **** {
  99:lvgl/src/misc/lv_area.c ****     uint32_t size;
 100:lvgl/src/misc/lv_area.c **** 
 101:lvgl/src/misc/lv_area.c ****     size = (uint32_t)(area_p->x2 - area_p->x1 + 1) * (area_p->y2 - area_p->y1 + 1);
 102:lvgl/src/misc/lv_area.c **** 
 103:lvgl/src/misc/lv_area.c ****     return size;
 104:lvgl/src/misc/lv_area.c **** }
 105:lvgl/src/misc/lv_area.c **** 
 106:lvgl/src/misc/lv_area.c **** void lv_area_increase(lv_area_t * area, lv_coord_t w_extra, lv_coord_t h_extra)
 107:lvgl/src/misc/lv_area.c **** {
 108:lvgl/src/misc/lv_area.c ****     area->x1 -= w_extra;
 109:lvgl/src/misc/lv_area.c ****     area->x2 += w_extra;
 110:lvgl/src/misc/lv_area.c ****     area->y1 -= h_extra;
 111:lvgl/src/misc/lv_area.c ****     area->y2 += h_extra;
 112:lvgl/src/misc/lv_area.c **** }
 113:lvgl/src/misc/lv_area.c **** 
 114:lvgl/src/misc/lv_area.c **** void lv_area_move(lv_area_t * area, lv_coord_t x_ofs, lv_coord_t y_ofs)
 115:lvgl/src/misc/lv_area.c **** {
 116:lvgl/src/misc/lv_area.c ****     area->x1 += x_ofs;
 117:lvgl/src/misc/lv_area.c ****     area->x2 += x_ofs;
 118:lvgl/src/misc/lv_area.c ****     area->y1 += y_ofs;
 119:lvgl/src/misc/lv_area.c ****     area->y2 += y_ofs;
 120:lvgl/src/misc/lv_area.c **** }
 121:lvgl/src/misc/lv_area.c **** 
 122:lvgl/src/misc/lv_area.c **** /**
 123:lvgl/src/misc/lv_area.c ****  * Get the common parts of two areas
 124:lvgl/src/misc/lv_area.c ****  * @param res_p pointer to an area, the result will be stored here
 125:lvgl/src/misc/lv_area.c ****  * @param a1_p pointer to the first area
 126:lvgl/src/misc/lv_area.c ****  * @param a2_p pointer to the second area
 127:lvgl/src/misc/lv_area.c ****  * @return false: the two area has NO common parts, res_p is invalid
 128:lvgl/src/misc/lv_area.c ****  */
 129:lvgl/src/misc/lv_area.c **** bool _lv_area_intersect(lv_area_t * res_p, const lv_area_t * a1_p, const lv_area_t * a2_p)
 130:lvgl/src/misc/lv_area.c **** {
 131:lvgl/src/misc/lv_area.c ****     /*Get the smaller area from 'a1_p' and 'a2_p'*/
 132:lvgl/src/misc/lv_area.c ****     res_p->x1 = LV_MAX(a1_p->x1, a2_p->x1);
 133:lvgl/src/misc/lv_area.c ****     res_p->y1 = LV_MAX(a1_p->y1, a2_p->y1);
 134:lvgl/src/misc/lv_area.c ****     res_p->x2 = LV_MIN(a1_p->x2, a2_p->x2);
 135:lvgl/src/misc/lv_area.c ****     res_p->y2 = LV_MIN(a1_p->y2, a2_p->y2);
 136:lvgl/src/misc/lv_area.c **** 
 137:lvgl/src/misc/lv_area.c ****     /*If x1 or y1 greater than x2 or y2 then the areas union is empty*/
 138:lvgl/src/misc/lv_area.c ****     bool union_ok = true;
 139:lvgl/src/misc/lv_area.c ****     if((res_p->x1 > res_p->x2) || (res_p->y1 > res_p->y2)) {
 140:lvgl/src/misc/lv_area.c ****         union_ok = false;
 141:lvgl/src/misc/lv_area.c ****     }
 142:lvgl/src/misc/lv_area.c **** 
 143:lvgl/src/misc/lv_area.c ****     return union_ok;
 144:lvgl/src/misc/lv_area.c **** }
 145:lvgl/src/misc/lv_area.c **** 
ARM GAS  C:\Users\OSD\AppData\Local\Temp\ccx0d5Nb.s 			page 4


 146:lvgl/src/misc/lv_area.c **** /**
 147:lvgl/src/misc/lv_area.c ****  * Get resulting sub areas after removing the common parts of two areas from the first area
 148:lvgl/src/misc/lv_area.c ****  * @param res_p pointer to an array of areas with a count of 4, the resulting areas will be stored 
 149:lvgl/src/misc/lv_area.c ****  * @param a1_p pointer to the first area
 150:lvgl/src/misc/lv_area.c ****  * @param a2_p pointer to the second area
 151:lvgl/src/misc/lv_area.c ****  * @return number of results or -1 if no intersect
 152:lvgl/src/misc/lv_area.c ****  */
 153:lvgl/src/misc/lv_area.c **** int8_t _lv_area_diff(lv_area_t * res_p, const lv_area_t * a1_p, const lv_area_t * a2_p)
 154:lvgl/src/misc/lv_area.c **** {
 155:lvgl/src/misc/lv_area.c ****     /*Areas have no common parts*/
 156:lvgl/src/misc/lv_area.c ****     if(!_lv_area_is_on(a1_p, a2_p)) return -1;
 157:lvgl/src/misc/lv_area.c **** 
 158:lvgl/src/misc/lv_area.c ****     /*No remaining areas after removing common parts*/
 159:lvgl/src/misc/lv_area.c ****     if(_lv_area_is_in(a1_p, a2_p, 0)) return 0;
 160:lvgl/src/misc/lv_area.c **** 
 161:lvgl/src/misc/lv_area.c ****     /*Result counter*/
 162:lvgl/src/misc/lv_area.c ****     int8_t res_c = 0;
 163:lvgl/src/misc/lv_area.c **** 
 164:lvgl/src/misc/lv_area.c ****     /*Get required information*/
 165:lvgl/src/misc/lv_area.c ****     lv_area_t n;
 166:lvgl/src/misc/lv_area.c ****     lv_coord_t a1_w = lv_area_get_width(a1_p) - 1;
 167:lvgl/src/misc/lv_area.c ****     lv_coord_t a1_h = lv_area_get_height(a1_p) - 1;
 168:lvgl/src/misc/lv_area.c **** 
 169:lvgl/src/misc/lv_area.c ****     /*Compute top rectangle*/
 170:lvgl/src/misc/lv_area.c ****     lv_coord_t th = a2_p->y1 - a1_p->y1;
 171:lvgl/src/misc/lv_area.c ****     if(th > 0) {
 172:lvgl/src/misc/lv_area.c ****         n.x1 = a1_p->x1;
 173:lvgl/src/misc/lv_area.c ****         n.y1 = a1_p->y1;
 174:lvgl/src/misc/lv_area.c ****         n.x2 = a1_p->x2;
 175:lvgl/src/misc/lv_area.c ****         n.y2 = a1_p->y1 + th;
 176:lvgl/src/misc/lv_area.c ****         res_p[res_c++] = n;
 177:lvgl/src/misc/lv_area.c ****     }
 178:lvgl/src/misc/lv_area.c **** 
 179:lvgl/src/misc/lv_area.c ****     /*Compute the bottom rectangle*/
 180:lvgl/src/misc/lv_area.c ****     lv_coord_t bh = a1_h - (a2_p->y2 - a1_p->y1);
 181:lvgl/src/misc/lv_area.c ****     if(bh > 0 && a2_p->y2 < a1_p->y2) {
 182:lvgl/src/misc/lv_area.c ****         n.x1 = a1_p->x1;
 183:lvgl/src/misc/lv_area.c ****         n.y1 = a2_p->y2;
 184:lvgl/src/misc/lv_area.c ****         n.x2 = a1_p->x2;
 185:lvgl/src/misc/lv_area.c ****         n.y2 = a2_p->y2 + bh;
 186:lvgl/src/misc/lv_area.c ****         res_p[res_c++] = n;
 187:lvgl/src/misc/lv_area.c ****     }
 188:lvgl/src/misc/lv_area.c **** 
 189:lvgl/src/misc/lv_area.c ****     /*Compute side height*/
 190:lvgl/src/misc/lv_area.c ****     lv_coord_t y1 = a2_p->y1 > a1_p->y1 ? a2_p->y1 : a1_p->y1;
 191:lvgl/src/misc/lv_area.c ****     lv_coord_t y2 = a2_p->y2 < a1_p->y2 ? a2_p->y2 : a1_p->y2;
 192:lvgl/src/misc/lv_area.c ****     lv_coord_t sh = y2 - y1;
 193:lvgl/src/misc/lv_area.c **** 
 194:lvgl/src/misc/lv_area.c ****     /*Compute the left rectangle*/
 195:lvgl/src/misc/lv_area.c ****     lv_coord_t lw = a2_p->x1 - a1_p->x1;
 196:lvgl/src/misc/lv_area.c ****     if(lw > 0 && sh > 0) {
 197:lvgl/src/misc/lv_area.c ****         n.x1 = a1_p->x1;
 198:lvgl/src/misc/lv_area.c ****         n.y1 = y1;
 199:lvgl/src/misc/lv_area.c ****         n.x2 = a1_p->x1 + lw;
 200:lvgl/src/misc/lv_area.c ****         n.y2 = y1 + sh;
 201:lvgl/src/misc/lv_area.c ****         res_p[res_c++] = n;
 202:lvgl/src/misc/lv_area.c ****     }
ARM GAS  C:\Users\OSD\AppData\Local\Temp\ccx0d5Nb.s 			page 5


 203:lvgl/src/misc/lv_area.c **** 
 204:lvgl/src/misc/lv_area.c ****     /*Compute the right rectangle*/
 205:lvgl/src/misc/lv_area.c ****     lv_coord_t rw = a1_w - (a2_p->x2 - a1_p->x1);
 206:lvgl/src/misc/lv_area.c ****     if(rw > 0) {
 207:lvgl/src/misc/lv_area.c ****         n.x1 = a2_p->x2;
 208:lvgl/src/misc/lv_area.c ****         n.y1 = y1;
 209:lvgl/src/misc/lv_area.c ****         n.x2 = a2_p->x2 + rw;
 210:lvgl/src/misc/lv_area.c ****         n.y2 = y1 + sh;
 211:lvgl/src/misc/lv_area.c ****         res_p[res_c++] = n;
 212:lvgl/src/misc/lv_area.c ****     }
 213:lvgl/src/misc/lv_area.c **** 
 214:lvgl/src/misc/lv_area.c ****     //Return number of results
 215:lvgl/src/misc/lv_area.c ****     return res_c;
 216:lvgl/src/misc/lv_area.c **** }
 217:lvgl/src/misc/lv_area.c **** 
 218:lvgl/src/misc/lv_area.c **** /**
 219:lvgl/src/misc/lv_area.c ****  * Join two areas into a third which involves the other two
 220:lvgl/src/misc/lv_area.c ****  * @param res_p pointer to an area, the result will be stored here
 221:lvgl/src/misc/lv_area.c ****  * @param a1_p pointer to the first area
 222:lvgl/src/misc/lv_area.c ****  * @param a2_p pointer to the second area
 223:lvgl/src/misc/lv_area.c ****  */
 224:lvgl/src/misc/lv_area.c **** void _lv_area_join(lv_area_t * a_res_p, const lv_area_t * a1_p, const lv_area_t * a2_p)
 225:lvgl/src/misc/lv_area.c **** {
 226:lvgl/src/misc/lv_area.c ****     a_res_p->x1 = LV_MIN(a1_p->x1, a2_p->x1);
 227:lvgl/src/misc/lv_area.c ****     a_res_p->y1 = LV_MIN(a1_p->y1, a2_p->y1);
 228:lvgl/src/misc/lv_area.c ****     a_res_p->x2 = LV_MAX(a1_p->x2, a2_p->x2);
 229:lvgl/src/misc/lv_area.c ****     a_res_p->y2 = LV_MAX(a1_p->y2, a2_p->y2);
 230:lvgl/src/misc/lv_area.c **** }
 231:lvgl/src/misc/lv_area.c **** 
 232:lvgl/src/misc/lv_area.c **** /**
 233:lvgl/src/misc/lv_area.c ****  * Check if a point is on an area
 234:lvgl/src/misc/lv_area.c ****  * @param a_p pointer to an area
 235:lvgl/src/misc/lv_area.c ****  * @param p_p pointer to a point
 236:lvgl/src/misc/lv_area.c ****  * @param radius radius of area (e.g. for rounded rectangle)
 237:lvgl/src/misc/lv_area.c ****  * @return false:the point is out of the area
 238:lvgl/src/misc/lv_area.c ****  */
 239:lvgl/src/misc/lv_area.c **** bool _lv_area_is_point_on(const lv_area_t * a_p, const lv_point_t * p_p, lv_coord_t radius)
 240:lvgl/src/misc/lv_area.c **** {
 241:lvgl/src/misc/lv_area.c ****     /*First check the basic area*/
 242:lvgl/src/misc/lv_area.c ****     bool is_on_rect = false;
 243:lvgl/src/misc/lv_area.c ****     if((p_p->x >= a_p->x1 && p_p->x <= a_p->x2) && ((p_p->y >= a_p->y1 && p_p->y <= a_p->y2))) {
 244:lvgl/src/misc/lv_area.c ****         is_on_rect = true;
 245:lvgl/src/misc/lv_area.c ****     }
 246:lvgl/src/misc/lv_area.c ****     if(!is_on_rect)
 247:lvgl/src/misc/lv_area.c ****         return false;
 248:lvgl/src/misc/lv_area.c ****     /*Now handle potential rounded rectangles*/
 249:lvgl/src/misc/lv_area.c ****     if(radius <= 0) {
 250:lvgl/src/misc/lv_area.c ****         /*No radius, it is within the rectangle*/
 251:lvgl/src/misc/lv_area.c ****         return true;
 252:lvgl/src/misc/lv_area.c ****     }
 253:lvgl/src/misc/lv_area.c ****     lv_coord_t w = lv_area_get_width(a_p) / 2;
 254:lvgl/src/misc/lv_area.c ****     lv_coord_t h = lv_area_get_height(a_p) / 2;
 255:lvgl/src/misc/lv_area.c ****     lv_coord_t max_radius = LV_MIN(w, h);
 256:lvgl/src/misc/lv_area.c ****     if(radius > max_radius)
 257:lvgl/src/misc/lv_area.c ****         radius = max_radius;
 258:lvgl/src/misc/lv_area.c **** 
 259:lvgl/src/misc/lv_area.c ****     /*Check if it's in one of the corners*/
ARM GAS  C:\Users\OSD\AppData\Local\Temp\ccx0d5Nb.s 			page 6


 260:lvgl/src/misc/lv_area.c ****     lv_area_t corner_area;
 261:lvgl/src/misc/lv_area.c ****     /*Top left*/
 262:lvgl/src/misc/lv_area.c ****     corner_area.x1 = a_p->x1;
 263:lvgl/src/misc/lv_area.c ****     corner_area.x2 = a_p->x1 + radius;
 264:lvgl/src/misc/lv_area.c ****     corner_area.y1 = a_p->y1;
 265:lvgl/src/misc/lv_area.c ****     corner_area.y2 = a_p->y1 + radius;
 266:lvgl/src/misc/lv_area.c ****     if(_lv_area_is_point_on(&corner_area, p_p, 0)) {
 267:lvgl/src/misc/lv_area.c ****         corner_area.x2 += radius;
 268:lvgl/src/misc/lv_area.c ****         corner_area.y2 += radius;
 269:lvgl/src/misc/lv_area.c ****         return lv_point_within_circle(&corner_area, p_p);
 270:lvgl/src/misc/lv_area.c ****     }
 271:lvgl/src/misc/lv_area.c ****     /*Bottom left*/
 272:lvgl/src/misc/lv_area.c ****     corner_area.y1 = a_p->y2 - radius;
 273:lvgl/src/misc/lv_area.c ****     corner_area.y2 = a_p->y2;
 274:lvgl/src/misc/lv_area.c ****     if(_lv_area_is_point_on(&corner_area, p_p, 0)) {
 275:lvgl/src/misc/lv_area.c ****         corner_area.x2 += radius;
 276:lvgl/src/misc/lv_area.c ****         corner_area.y1 -= radius;
 277:lvgl/src/misc/lv_area.c ****         return lv_point_within_circle(&corner_area, p_p);
 278:lvgl/src/misc/lv_area.c ****     }
 279:lvgl/src/misc/lv_area.c ****     /*Bottom right*/
 280:lvgl/src/misc/lv_area.c ****     corner_area.x1 = a_p->x2 - radius;
 281:lvgl/src/misc/lv_area.c ****     corner_area.x2 = a_p->x2;
 282:lvgl/src/misc/lv_area.c ****     if(_lv_area_is_point_on(&corner_area, p_p, 0)) {
 283:lvgl/src/misc/lv_area.c ****         corner_area.x1 -= radius;
 284:lvgl/src/misc/lv_area.c ****         corner_area.y1 -= radius;
 285:lvgl/src/misc/lv_area.c ****         return lv_point_within_circle(&corner_area, p_p);
 286:lvgl/src/misc/lv_area.c ****     }
 287:lvgl/src/misc/lv_area.c ****     /*Top right*/
 288:lvgl/src/misc/lv_area.c ****     corner_area.y1 = a_p->y1;
 289:lvgl/src/misc/lv_area.c ****     corner_area.y2 = a_p->y1 + radius;
 290:lvgl/src/misc/lv_area.c ****     if(_lv_area_is_point_on(&corner_area, p_p, 0)) {
 291:lvgl/src/misc/lv_area.c ****         corner_area.x1 -= radius;
 292:lvgl/src/misc/lv_area.c ****         corner_area.y2 += radius;
 293:lvgl/src/misc/lv_area.c ****         return lv_point_within_circle(&corner_area, p_p);
 294:lvgl/src/misc/lv_area.c ****     }
 295:lvgl/src/misc/lv_area.c ****     /*Not within corners*/
 296:lvgl/src/misc/lv_area.c ****     return true;
 297:lvgl/src/misc/lv_area.c **** }
 298:lvgl/src/misc/lv_area.c **** 
 299:lvgl/src/misc/lv_area.c **** /**
 300:lvgl/src/misc/lv_area.c ****  * Check if two area has common parts
 301:lvgl/src/misc/lv_area.c ****  * @param a1_p pointer to an area.
 302:lvgl/src/misc/lv_area.c ****  * @param a2_p pointer to an other area
 303:lvgl/src/misc/lv_area.c ****  * @return false: a1_p and a2_p has no common parts
 304:lvgl/src/misc/lv_area.c ****  */
 305:lvgl/src/misc/lv_area.c **** bool _lv_area_is_on(const lv_area_t * a1_p, const lv_area_t * a2_p)
 306:lvgl/src/misc/lv_area.c **** {
 307:lvgl/src/misc/lv_area.c ****     if((a1_p->x1 <= a2_p->x2) && (a1_p->x2 >= a2_p->x1) && (a1_p->y1 <= a2_p->y2) && (a1_p->y2 >= a
 308:lvgl/src/misc/lv_area.c ****         return true;
 309:lvgl/src/misc/lv_area.c ****     }
 310:lvgl/src/misc/lv_area.c ****     else {
 311:lvgl/src/misc/lv_area.c ****         return false;
 312:lvgl/src/misc/lv_area.c ****     }
 313:lvgl/src/misc/lv_area.c **** }
 314:lvgl/src/misc/lv_area.c **** 
 315:lvgl/src/misc/lv_area.c **** /**
 316:lvgl/src/misc/lv_area.c ****  * Check if an area is fully on an other
ARM GAS  C:\Users\OSD\AppData\Local\Temp\ccx0d5Nb.s 			page 7


 317:lvgl/src/misc/lv_area.c ****  * @param ain_p pointer to an area which could be in 'aholder_p'
 318:lvgl/src/misc/lv_area.c ****  * @param aholder_p pointer to an area which could involve 'ain_p'
 319:lvgl/src/misc/lv_area.c ****  * @param radius radius of `aholder_p` (e.g. for rounded rectangle)
 320:lvgl/src/misc/lv_area.c ****  * @return true: `ain_p` is fully inside `aholder_p`
 321:lvgl/src/misc/lv_area.c ****  */
 322:lvgl/src/misc/lv_area.c **** bool _lv_area_is_in(const lv_area_t * ain_p, const lv_area_t * aholder_p, lv_coord_t radius)
 323:lvgl/src/misc/lv_area.c **** {
 324:lvgl/src/misc/lv_area.c ****     bool is_in = false;
 325:lvgl/src/misc/lv_area.c **** 
 326:lvgl/src/misc/lv_area.c ****     if(ain_p->x1 >= aholder_p->x1 && ain_p->y1 >= aholder_p->y1 && ain_p->x2 <= aholder_p->x2 &&
 327:lvgl/src/misc/lv_area.c ****        ain_p->y2 <= aholder_p->y2) {
 328:lvgl/src/misc/lv_area.c ****         is_in = true;
 329:lvgl/src/misc/lv_area.c ****     }
 330:lvgl/src/misc/lv_area.c **** 
 331:lvgl/src/misc/lv_area.c ****     if(!is_in) return false;
 332:lvgl/src/misc/lv_area.c ****     if(radius == 0) return true;
 333:lvgl/src/misc/lv_area.c **** 
 334:lvgl/src/misc/lv_area.c ****     /*Check if the corner points are inside the radius or not*/
 335:lvgl/src/misc/lv_area.c ****     lv_point_t p;
 336:lvgl/src/misc/lv_area.c **** 
 337:lvgl/src/misc/lv_area.c ****     p.x = ain_p->x1;
 338:lvgl/src/misc/lv_area.c ****     p.y = ain_p->y1;
 339:lvgl/src/misc/lv_area.c ****     if(_lv_area_is_point_on(aholder_p, &p, radius) == false) return false;
 340:lvgl/src/misc/lv_area.c **** 
 341:lvgl/src/misc/lv_area.c ****     p.x = ain_p->x2;
 342:lvgl/src/misc/lv_area.c ****     p.y = ain_p->y1;
 343:lvgl/src/misc/lv_area.c ****     if(_lv_area_is_point_on(aholder_p, &p, radius) == false) return false;
 344:lvgl/src/misc/lv_area.c **** 
 345:lvgl/src/misc/lv_area.c ****     p.x = ain_p->x1;
 346:lvgl/src/misc/lv_area.c ****     p.y = ain_p->y2;
 347:lvgl/src/misc/lv_area.c ****     if(_lv_area_is_point_on(aholder_p, &p, radius) == false) return false;
 348:lvgl/src/misc/lv_area.c **** 
 349:lvgl/src/misc/lv_area.c ****     p.x = ain_p->x2;
 350:lvgl/src/misc/lv_area.c ****     p.y = ain_p->y2;
 351:lvgl/src/misc/lv_area.c ****     if(_lv_area_is_point_on(aholder_p, &p, radius) == false) return false;
 352:lvgl/src/misc/lv_area.c **** 
 353:lvgl/src/misc/lv_area.c ****     return true;
 354:lvgl/src/misc/lv_area.c **** }
 355:lvgl/src/misc/lv_area.c **** 
 356:lvgl/src/misc/lv_area.c **** /**
 357:lvgl/src/misc/lv_area.c ****  * Check if an area is fully out of an other
 358:lvgl/src/misc/lv_area.c ****  * @param aout_p pointer to an area which could be in 'aholder_p'
 359:lvgl/src/misc/lv_area.c ****  * @param aholder_p pointer to an area which could involve 'ain_p'
 360:lvgl/src/misc/lv_area.c ****  * @param radius radius of `aholder_p` (e.g. for rounded rectangle)
 361:lvgl/src/misc/lv_area.c ****  * @return true: `aout_p` is fully outside `aholder_p`
 362:lvgl/src/misc/lv_area.c ****  */
 363:lvgl/src/misc/lv_area.c **** bool _lv_area_is_out(const lv_area_t * aout_p, const lv_area_t * aholder_p, lv_coord_t radius)
 364:lvgl/src/misc/lv_area.c **** {
 365:lvgl/src/misc/lv_area.c ****     if(aout_p->x2 < aholder_p->x1 || aout_p->y2 < aholder_p->y1 || aout_p->x1 > aholder_p->x2 ||
 366:lvgl/src/misc/lv_area.c ****        aout_p->y1 > aholder_p->y2) {
 367:lvgl/src/misc/lv_area.c ****         return true;
 368:lvgl/src/misc/lv_area.c ****     }
 369:lvgl/src/misc/lv_area.c **** 
 370:lvgl/src/misc/lv_area.c ****     if(radius == 0) return false;
 371:lvgl/src/misc/lv_area.c **** 
 372:lvgl/src/misc/lv_area.c ****     /*Check if the corner points are outside the radius or not*/
 373:lvgl/src/misc/lv_area.c ****     lv_point_t p;
ARM GAS  C:\Users\OSD\AppData\Local\Temp\ccx0d5Nb.s 			page 8


 374:lvgl/src/misc/lv_area.c **** 
 375:lvgl/src/misc/lv_area.c ****     p.x = aout_p->x1;
 376:lvgl/src/misc/lv_area.c ****     p.y = aout_p->y1;
 377:lvgl/src/misc/lv_area.c ****     if(_lv_area_is_point_on(aholder_p, &p, radius)) return false;
 378:lvgl/src/misc/lv_area.c **** 
 379:lvgl/src/misc/lv_area.c ****     p.x = aout_p->x2;
 380:lvgl/src/misc/lv_area.c ****     p.y = aout_p->y1;
 381:lvgl/src/misc/lv_area.c ****     if(_lv_area_is_point_on(aholder_p, &p, radius)) return false;
 382:lvgl/src/misc/lv_area.c **** 
 383:lvgl/src/misc/lv_area.c ****     p.x = aout_p->x1;
 384:lvgl/src/misc/lv_area.c ****     p.y = aout_p->y2;
 385:lvgl/src/misc/lv_area.c ****     if(_lv_area_is_point_on(aholder_p, &p, radius)) return false;
 386:lvgl/src/misc/lv_area.c **** 
 387:lvgl/src/misc/lv_area.c ****     p.x = aout_p->x2;
 388:lvgl/src/misc/lv_area.c ****     p.y = aout_p->y2;
 389:lvgl/src/misc/lv_area.c ****     if(_lv_area_is_point_on(aholder_p, &p, radius)) return false;
 390:lvgl/src/misc/lv_area.c **** 
 391:lvgl/src/misc/lv_area.c ****     return true;
 392:lvgl/src/misc/lv_area.c **** }
 393:lvgl/src/misc/lv_area.c **** 
 394:lvgl/src/misc/lv_area.c **** bool _lv_area_is_equal(const lv_area_t * a, const lv_area_t * b)
 395:lvgl/src/misc/lv_area.c **** {
 396:lvgl/src/misc/lv_area.c ****     return a->x1 == b->x1 && a->x2 == b->x2 && a->y1 == b->y1 && a->y2 == b->y2;
 397:lvgl/src/misc/lv_area.c **** }
 398:lvgl/src/misc/lv_area.c **** 
 399:lvgl/src/misc/lv_area.c **** /**
 400:lvgl/src/misc/lv_area.c ****  * Align an area to an other
 401:lvgl/src/misc/lv_area.c ****  * @param base an are where the other will be aligned
 402:lvgl/src/misc/lv_area.c ****  * @param to_align the area to align
 403:lvgl/src/misc/lv_area.c ****  * @param align `LV_ALIGN_...`
 404:lvgl/src/misc/lv_area.c ****  * @param res x/y coordinates where `to_align` align area should be placed
 405:lvgl/src/misc/lv_area.c ****  */
 406:lvgl/src/misc/lv_area.c **** void lv_area_align(const lv_area_t * base, lv_area_t * to_align, lv_align_t align, lv_coord_t ofs_x
 407:lvgl/src/misc/lv_area.c **** {
 408:lvgl/src/misc/lv_area.c **** 
 409:lvgl/src/misc/lv_area.c ****     lv_coord_t x;
 410:lvgl/src/misc/lv_area.c ****     lv_coord_t y;
 411:lvgl/src/misc/lv_area.c ****     switch(align) {
 412:lvgl/src/misc/lv_area.c ****         case LV_ALIGN_CENTER:
 413:lvgl/src/misc/lv_area.c ****             x = lv_area_get_width(base) / 2 - lv_area_get_width(to_align) / 2;
 414:lvgl/src/misc/lv_area.c ****             y = lv_area_get_height(base) / 2 - lv_area_get_height(to_align) / 2;
 415:lvgl/src/misc/lv_area.c ****             break;
 416:lvgl/src/misc/lv_area.c **** 
 417:lvgl/src/misc/lv_area.c ****         case LV_ALIGN_TOP_LEFT:
 418:lvgl/src/misc/lv_area.c ****             x = 0;
 419:lvgl/src/misc/lv_area.c ****             y = 0;
 420:lvgl/src/misc/lv_area.c ****             break;
 421:lvgl/src/misc/lv_area.c ****         case LV_ALIGN_TOP_MID:
 422:lvgl/src/misc/lv_area.c ****             x = lv_area_get_width(base) / 2 - lv_area_get_width(to_align) / 2;
 423:lvgl/src/misc/lv_area.c ****             y = 0;
 424:lvgl/src/misc/lv_area.c ****             break;
 425:lvgl/src/misc/lv_area.c **** 
 426:lvgl/src/misc/lv_area.c ****         case LV_ALIGN_TOP_RIGHT:
 427:lvgl/src/misc/lv_area.c ****             x = lv_area_get_width(base) - lv_area_get_width(to_align);
 428:lvgl/src/misc/lv_area.c ****             y = 0;
 429:lvgl/src/misc/lv_area.c ****             break;
 430:lvgl/src/misc/lv_area.c **** 
ARM GAS  C:\Users\OSD\AppData\Local\Temp\ccx0d5Nb.s 			page 9


 431:lvgl/src/misc/lv_area.c ****         case LV_ALIGN_BOTTOM_LEFT:
 432:lvgl/src/misc/lv_area.c ****             x = 0;
 433:lvgl/src/misc/lv_area.c ****             y = lv_area_get_height(base) - lv_area_get_height(to_align);
 434:lvgl/src/misc/lv_area.c ****             break;
 435:lvgl/src/misc/lv_area.c ****         case LV_ALIGN_BOTTOM_MID:
 436:lvgl/src/misc/lv_area.c ****             x = lv_area_get_width(base) / 2 - lv_area_get_width(to_align) / 2;
 437:lvgl/src/misc/lv_area.c ****             y = lv_area_get_height(base) - lv_area_get_height(to_align);
 438:lvgl/src/misc/lv_area.c ****             break;
 439:lvgl/src/misc/lv_area.c **** 
 440:lvgl/src/misc/lv_area.c ****         case LV_ALIGN_BOTTOM_RIGHT:
 441:lvgl/src/misc/lv_area.c ****             x = lv_area_get_width(base) - lv_area_get_width(to_align);
 442:lvgl/src/misc/lv_area.c ****             y = lv_area_get_height(base) - lv_area_get_height(to_align);
 443:lvgl/src/misc/lv_area.c ****             break;
 444:lvgl/src/misc/lv_area.c **** 
 445:lvgl/src/misc/lv_area.c ****         case LV_ALIGN_LEFT_MID:
 446:lvgl/src/misc/lv_area.c ****             x = 0;
 447:lvgl/src/misc/lv_area.c ****             y = lv_area_get_height(base) / 2 - lv_area_get_height(to_align) / 2;
 448:lvgl/src/misc/lv_area.c ****             break;
 449:lvgl/src/misc/lv_area.c **** 
 450:lvgl/src/misc/lv_area.c ****         case LV_ALIGN_RIGHT_MID:
 451:lvgl/src/misc/lv_area.c ****             x = lv_area_get_width(base) - lv_area_get_width(to_align);
 452:lvgl/src/misc/lv_area.c ****             y = lv_area_get_height(base) / 2 - lv_area_get_height(to_align) / 2;
 453:lvgl/src/misc/lv_area.c ****             break;
 454:lvgl/src/misc/lv_area.c **** 
 455:lvgl/src/misc/lv_area.c ****         case LV_ALIGN_OUT_TOP_LEFT:
 456:lvgl/src/misc/lv_area.c ****             x = 0;
 457:lvgl/src/misc/lv_area.c ****             y = -lv_area_get_height(to_align);
 458:lvgl/src/misc/lv_area.c ****             break;
 459:lvgl/src/misc/lv_area.c **** 
 460:lvgl/src/misc/lv_area.c ****         case LV_ALIGN_OUT_TOP_MID:
 461:lvgl/src/misc/lv_area.c ****             x = lv_area_get_width(base) / 2 - lv_area_get_width(to_align) / 2;
 462:lvgl/src/misc/lv_area.c ****             y = -lv_area_get_height(to_align);
 463:lvgl/src/misc/lv_area.c ****             break;
 464:lvgl/src/misc/lv_area.c **** 
 465:lvgl/src/misc/lv_area.c ****         case LV_ALIGN_OUT_TOP_RIGHT:
 466:lvgl/src/misc/lv_area.c ****             x = lv_area_get_width(base) - lv_area_get_width(to_align);
 467:lvgl/src/misc/lv_area.c ****             y = -lv_area_get_height(to_align);
 468:lvgl/src/misc/lv_area.c ****             break;
 469:lvgl/src/misc/lv_area.c **** 
 470:lvgl/src/misc/lv_area.c ****         case LV_ALIGN_OUT_BOTTOM_LEFT:
 471:lvgl/src/misc/lv_area.c ****             x = 0;
 472:lvgl/src/misc/lv_area.c ****             y = lv_area_get_height(base);
 473:lvgl/src/misc/lv_area.c ****             break;
 474:lvgl/src/misc/lv_area.c **** 
 475:lvgl/src/misc/lv_area.c ****         case LV_ALIGN_OUT_BOTTOM_MID:
 476:lvgl/src/misc/lv_area.c ****             x = lv_area_get_width(base) / 2 - lv_area_get_width(to_align) / 2;
 477:lvgl/src/misc/lv_area.c ****             y = lv_area_get_height(base);
 478:lvgl/src/misc/lv_area.c ****             break;
 479:lvgl/src/misc/lv_area.c **** 
 480:lvgl/src/misc/lv_area.c ****         case LV_ALIGN_OUT_BOTTOM_RIGHT:
 481:lvgl/src/misc/lv_area.c ****             x = lv_area_get_width(base) - lv_area_get_width(to_align);
 482:lvgl/src/misc/lv_area.c ****             y = lv_area_get_height(base);
 483:lvgl/src/misc/lv_area.c ****             break;
 484:lvgl/src/misc/lv_area.c **** 
 485:lvgl/src/misc/lv_area.c ****         case LV_ALIGN_OUT_LEFT_TOP:
 486:lvgl/src/misc/lv_area.c ****             x = -lv_area_get_width(to_align);
 487:lvgl/src/misc/lv_area.c ****             y = 0;
ARM GAS  C:\Users\OSD\AppData\Local\Temp\ccx0d5Nb.s 			page 10


 488:lvgl/src/misc/lv_area.c ****             break;
 489:lvgl/src/misc/lv_area.c **** 
 490:lvgl/src/misc/lv_area.c ****         case LV_ALIGN_OUT_LEFT_MID:
 491:lvgl/src/misc/lv_area.c ****             x = -lv_area_get_width(to_align);
 492:lvgl/src/misc/lv_area.c ****             y = lv_area_get_height(base) / 2 - lv_area_get_height(to_align) / 2;
 493:lvgl/src/misc/lv_area.c ****             break;
 494:lvgl/src/misc/lv_area.c **** 
 495:lvgl/src/misc/lv_area.c ****         case LV_ALIGN_OUT_LEFT_BOTTOM:
 496:lvgl/src/misc/lv_area.c ****             x = -lv_area_get_width(to_align);
 497:lvgl/src/misc/lv_area.c ****             y = lv_area_get_height(base) - lv_area_get_height(to_align);
 498:lvgl/src/misc/lv_area.c ****             break;
 499:lvgl/src/misc/lv_area.c **** 
 500:lvgl/src/misc/lv_area.c ****         case LV_ALIGN_OUT_RIGHT_TOP:
 501:lvgl/src/misc/lv_area.c ****             x = lv_area_get_width(base);
 502:lvgl/src/misc/lv_area.c ****             y = 0;
 503:lvgl/src/misc/lv_area.c ****             break;
 504:lvgl/src/misc/lv_area.c **** 
 505:lvgl/src/misc/lv_area.c ****         case LV_ALIGN_OUT_RIGHT_MID:
 506:lvgl/src/misc/lv_area.c ****             x = lv_area_get_width(base);
 507:lvgl/src/misc/lv_area.c ****             y = lv_area_get_height(base) / 2 - lv_area_get_height(to_align) / 2;
 508:lvgl/src/misc/lv_area.c ****             break;
 509:lvgl/src/misc/lv_area.c **** 
 510:lvgl/src/misc/lv_area.c ****         case LV_ALIGN_OUT_RIGHT_BOTTOM:
 511:lvgl/src/misc/lv_area.c ****             x = lv_area_get_width(base);
 512:lvgl/src/misc/lv_area.c ****             y = lv_area_get_height(base) - lv_area_get_height(to_align);
 513:lvgl/src/misc/lv_area.c ****             break;
 514:lvgl/src/misc/lv_area.c ****         default:
 515:lvgl/src/misc/lv_area.c ****             x = 0;
 516:lvgl/src/misc/lv_area.c ****             y = 0;
 517:lvgl/src/misc/lv_area.c ****             break;
 518:lvgl/src/misc/lv_area.c ****     }
 519:lvgl/src/misc/lv_area.c **** 
 520:lvgl/src/misc/lv_area.c ****     x += base->x1;
 521:lvgl/src/misc/lv_area.c ****     y += base->y1;
 522:lvgl/src/misc/lv_area.c **** 
 523:lvgl/src/misc/lv_area.c ****     lv_coord_t w = lv_area_get_width(to_align);
 524:lvgl/src/misc/lv_area.c ****     lv_coord_t h = lv_area_get_height(to_align);
 525:lvgl/src/misc/lv_area.c ****     to_align->x1 = x + ofs_x;
 526:lvgl/src/misc/lv_area.c ****     to_align->y1 = y + ofs_y;
 527:lvgl/src/misc/lv_area.c ****     to_align->x2 = to_align->x1 + w - 1;
 528:lvgl/src/misc/lv_area.c ****     to_align->y2 = to_align->y1 + h - 1;
 529:lvgl/src/misc/lv_area.c **** }
 530:lvgl/src/misc/lv_area.c **** 
 531:lvgl/src/misc/lv_area.c **** #define _LV_TRANSFORM_TRIGO_SHIFT 10
 532:lvgl/src/misc/lv_area.c **** void lv_point_transform(lv_point_t * p, int32_t angle, int32_t zoom, const lv_point_t * pivot)
 533:lvgl/src/misc/lv_area.c **** {
 534:lvgl/src/misc/lv_area.c ****     if(angle == 0 && zoom == 256) {
 535:lvgl/src/misc/lv_area.c ****         return;
 536:lvgl/src/misc/lv_area.c ****     }
 537:lvgl/src/misc/lv_area.c **** 
 538:lvgl/src/misc/lv_area.c ****     p->x -= pivot->x;
 539:lvgl/src/misc/lv_area.c ****     p->y -= pivot->y;
 540:lvgl/src/misc/lv_area.c **** 
 541:lvgl/src/misc/lv_area.c ****     if(angle == 0) {
 542:lvgl/src/misc/lv_area.c ****         p->x = (((int32_t)(p->x) * zoom) >> 8) + pivot->x;
 543:lvgl/src/misc/lv_area.c ****         p->y = (((int32_t)(p->y) * zoom) >> 8) + pivot->y;
 544:lvgl/src/misc/lv_area.c ****         return;
ARM GAS  C:\Users\OSD\AppData\Local\Temp\ccx0d5Nb.s 			page 11


 545:lvgl/src/misc/lv_area.c ****     }
 546:lvgl/src/misc/lv_area.c **** 
 547:lvgl/src/misc/lv_area.c ****     static int32_t angle_prev = INT32_MIN;
 548:lvgl/src/misc/lv_area.c ****     static int32_t sinma;
 549:lvgl/src/misc/lv_area.c ****     static int32_t cosma;
 550:lvgl/src/misc/lv_area.c ****     if(angle_prev != angle) {
 551:lvgl/src/misc/lv_area.c ****         int32_t angle_limited = angle;
 552:lvgl/src/misc/lv_area.c ****         if(angle_limited > 3600) angle_limited -= 3600;
 553:lvgl/src/misc/lv_area.c ****         if(angle_limited < 0) angle_limited += 3600;
 554:lvgl/src/misc/lv_area.c **** 
 555:lvgl/src/misc/lv_area.c ****         int32_t angle_low = angle_limited / 10;
 556:lvgl/src/misc/lv_area.c ****         int32_t angle_high = angle_low + 1;
 557:lvgl/src/misc/lv_area.c ****         int32_t angle_rem = angle_limited  - (angle_low * 10);
 558:lvgl/src/misc/lv_area.c **** 
 559:lvgl/src/misc/lv_area.c ****         int32_t s1 = lv_trigo_sin(angle_low);
 560:lvgl/src/misc/lv_area.c ****         int32_t s2 = lv_trigo_sin(angle_high);
 561:lvgl/src/misc/lv_area.c **** 
 562:lvgl/src/misc/lv_area.c ****         int32_t c1 = lv_trigo_sin(angle_low + 90);
 563:lvgl/src/misc/lv_area.c ****         int32_t c2 = lv_trigo_sin(angle_high + 90);
 564:lvgl/src/misc/lv_area.c **** 
 565:lvgl/src/misc/lv_area.c ****         sinma = (s1 * (10 - angle_rem) + s2 * angle_rem) / 10;
 566:lvgl/src/misc/lv_area.c ****         cosma = (c1 * (10 - angle_rem) + c2 * angle_rem) / 10;
 567:lvgl/src/misc/lv_area.c ****         sinma = sinma >> (LV_TRIGO_SHIFT - _LV_TRANSFORM_TRIGO_SHIFT);
 568:lvgl/src/misc/lv_area.c ****         cosma = cosma >> (LV_TRIGO_SHIFT - _LV_TRANSFORM_TRIGO_SHIFT);
 569:lvgl/src/misc/lv_area.c ****         angle_prev = angle;
 570:lvgl/src/misc/lv_area.c ****     }
 571:lvgl/src/misc/lv_area.c ****     int32_t x = p->x;
 572:lvgl/src/misc/lv_area.c ****     int32_t y = p->y;
 573:lvgl/src/misc/lv_area.c ****     if(zoom == 256) {
 574:lvgl/src/misc/lv_area.c ****         p->x = ((cosma * x - sinma * y) >> _LV_TRANSFORM_TRIGO_SHIFT) + pivot->x;
 575:lvgl/src/misc/lv_area.c ****         p->y = ((sinma * x + cosma * y) >> _LV_TRANSFORM_TRIGO_SHIFT) + pivot->y;
 576:lvgl/src/misc/lv_area.c ****     }
 577:lvgl/src/misc/lv_area.c ****     else {
 578:lvgl/src/misc/lv_area.c ****         p->x = (((cosma * x - sinma * y) * zoom) >> (_LV_TRANSFORM_TRIGO_SHIFT + 8)) + pivot->x;
 579:lvgl/src/misc/lv_area.c ****         p->y = (((sinma * x + cosma * y) * zoom) >> (_LV_TRANSFORM_TRIGO_SHIFT + 8)) + pivot->y;
 580:lvgl/src/misc/lv_area.c ****     }
 581:lvgl/src/misc/lv_area.c **** }
 582:lvgl/src/misc/lv_area.c **** 
 583:lvgl/src/misc/lv_area.c **** /**********************
 584:lvgl/src/misc/lv_area.c ****  *   STATIC FUNCTIONS
 585:lvgl/src/misc/lv_area.c ****  **********************/
 586:lvgl/src/misc/lv_area.c **** 
 587:lvgl/src/misc/lv_area.c **** static bool lv_point_within_circle(const lv_area_t * area, const lv_point_t * p)
 588:lvgl/src/misc/lv_area.c **** {
  28              		.loc 1 588 1 view -0
  29              		.cfi_startproc
  30              		@ args = 0, pretend = 0, frame = 0
  31              		@ frame_needed = 0, uses_anonymous_args = 0
  32              		@ link register save eliminated.
 589:lvgl/src/misc/lv_area.c ****     lv_coord_t r = (area->x2 - area->x1) / 2;
  33              		.loc 1 589 5 view .LVU1
  34              		.loc 1 589 25 is_stmt 0 view .LVU2
  35 0000 B0F90430 		ldrsh	r3, [r0, #4]
  36              		.loc 1 589 36 view .LVU3
  37 0004 B0F90020 		ldrsh	r2, [r0]
  38              		.loc 1 589 42 view .LVU4
  39 0008 9B1A     		subs	r3, r3, r2
ARM GAS  C:\Users\OSD\AppData\Local\Temp\ccx0d5Nb.s 			page 12


  40 000a 17D4     		bmi	.L5
  41              	.L2:
  42              		.loc 1 589 16 view .LVU5
  43 000c 43F34F0C 		sbfx	ip, r3, #1, #16
  44              	.LVL1:
 590:lvgl/src/misc/lv_area.c **** 
 591:lvgl/src/misc/lv_area.c ****     /*Circle center*/
 592:lvgl/src/misc/lv_area.c ****     lv_coord_t cx = area->x1 + r;
  45              		.loc 1 592 5 is_stmt 1 view .LVU6
  46              		.loc 1 592 30 is_stmt 0 view .LVU7
  47 0010 C3F34F03 		ubfx	r3, r3, #1, #16
  48 0014 13FA82F2 		uxtah	r2, r3, r2
  49 0018 92B2     		uxth	r2, r2
  50              	.LVL2:
 593:lvgl/src/misc/lv_area.c ****     lv_coord_t cy = area->y1 + r;
  51              		.loc 1 593 5 is_stmt 1 view .LVU8
  52              		.loc 1 593 25 is_stmt 0 view .LVU9
  53 001a 4088     		ldrh	r0, [r0, #2]
  54              	.LVL3:
  55              		.loc 1 593 30 view .LVU10
  56 001c 0344     		add	r3, r3, r0
  57 001e 9BB2     		uxth	r3, r3
  58              	.LVL4:
 594:lvgl/src/misc/lv_area.c **** 
 595:lvgl/src/misc/lv_area.c ****     /*Simplify the code by moving everything to (0, 0)*/
 596:lvgl/src/misc/lv_area.c ****     lv_coord_t px = p->x - cx;
  59              		.loc 1 596 5 is_stmt 1 view .LVU11
  60              		.loc 1 596 22 is_stmt 0 view .LVU12
  61 0020 0888     		ldrh	r0, [r1]
  62              		.loc 1 596 26 view .LVU13
  63 0022 821A     		subs	r2, r0, r2
  64              	.LVL5:
 597:lvgl/src/misc/lv_area.c ****     lv_coord_t py = p->y - cy;
  65              		.loc 1 597 5 is_stmt 1 view .LVU14
  66              		.loc 1 597 22 is_stmt 0 view .LVU15
  67 0024 4988     		ldrh	r1, [r1, #2]
  68              	.LVL6:
  69              		.loc 1 597 26 view .LVU16
  70 0026 CB1A     		subs	r3, r1, r3
  71              	.LVL7:
 598:lvgl/src/misc/lv_area.c **** 
 599:lvgl/src/misc/lv_area.c ****     uint32_t r_sqrd = r * r;
  72              		.loc 1 599 5 is_stmt 1 view .LVU17
  73              		.loc 1 599 25 is_stmt 0 view .LVU18
  74 0028 0CFB0CFC 		mul	ip, ip, ip
  75              	.LVL8:
 600:lvgl/src/misc/lv_area.c ****     uint32_t dist = (px * px) + (py * py);
  76              		.loc 1 600 5 is_stmt 1 view .LVU19
  77              		.loc 1 600 37 is_stmt 0 view .LVU20
  78 002c 13FB03F3 		smulbb	r3, r3, r3
  79              	.LVL9:
  80              		.loc 1 600 31 view .LVU21
  81 0030 12FB0232 		smlabb	r2, r2, r2, r3
  82              	.LVL10:
 601:lvgl/src/misc/lv_area.c **** 
 602:lvgl/src/misc/lv_area.c ****     if(dist <= r_sqrd)
  83              		.loc 1 602 5 is_stmt 1 view .LVU22
ARM GAS  C:\Users\OSD\AppData\Local\Temp\ccx0d5Nb.s 			page 13


  84              		.loc 1 602 7 is_stmt 0 view .LVU23
  85 0034 9445     		cmp	ip, r2
  86 0036 03D3     		bcc	.L4
 603:lvgl/src/misc/lv_area.c ****         return true;
  87              		.loc 1 603 16 view .LVU24
  88 0038 0120     		movs	r0, #1
  89              		.loc 1 603 16 view .LVU25
  90 003a 7047     		bx	lr
  91              	.LVL11:
  92              	.L5:
 589:lvgl/src/misc/lv_area.c **** 
  93              		.loc 1 589 42 view .LVU26
  94 003c 0133     		adds	r3, r3, #1
  95 003e E5E7     		b	.L2
  96              	.LVL12:
  97              	.L4:
 604:lvgl/src/misc/lv_area.c ****     else
 605:lvgl/src/misc/lv_area.c ****         return false;
  98              		.loc 1 605 16 view .LVU27
  99 0040 0020     		movs	r0, #0
 606:lvgl/src/misc/lv_area.c **** }
 100              		.loc 1 606 1 view .LVU28
 101 0042 7047     		bx	lr
 102              		.cfi_endproc
 103              	.LFE22:
 105              		.section	.text.lv_area_set,"ax",%progbits
 106              		.align	1
 107              		.global	lv_area_set
 108              		.syntax unified
 109              		.thumb
 110              		.thumb_func
 112              	lv_area_set:
 113              	.LVL13:
 114              	.LFB5:
  49:lvgl/src/misc/lv_area.c ****     area_p->x1 = x1;
 115              		.loc 1 49 1 is_stmt 1 view -0
 116              		.cfi_startproc
 117              		@ args = 4, pretend = 0, frame = 0
 118              		@ frame_needed = 0, uses_anonymous_args = 0
 119              		@ link register save eliminated.
  50:lvgl/src/misc/lv_area.c ****     area_p->y1 = y1;
 120              		.loc 1 50 5 view .LVU30
  50:lvgl/src/misc/lv_area.c ****     area_p->y1 = y1;
 121              		.loc 1 50 16 is_stmt 0 view .LVU31
 122 0000 0180     		strh	r1, [r0]	@ movhi
  51:lvgl/src/misc/lv_area.c ****     area_p->x2 = x2;
 123              		.loc 1 51 5 is_stmt 1 view .LVU32
  51:lvgl/src/misc/lv_area.c ****     area_p->x2 = x2;
 124              		.loc 1 51 16 is_stmt 0 view .LVU33
 125 0002 4280     		strh	r2, [r0, #2]	@ movhi
  52:lvgl/src/misc/lv_area.c ****     area_p->y2 = y2;
 126              		.loc 1 52 5 is_stmt 1 view .LVU34
  52:lvgl/src/misc/lv_area.c ****     area_p->y2 = y2;
 127              		.loc 1 52 16 is_stmt 0 view .LVU35
 128 0004 8380     		strh	r3, [r0, #4]	@ movhi
  53:lvgl/src/misc/lv_area.c **** }
 129              		.loc 1 53 5 is_stmt 1 view .LVU36
ARM GAS  C:\Users\OSD\AppData\Local\Temp\ccx0d5Nb.s 			page 14


  53:lvgl/src/misc/lv_area.c **** }
 130              		.loc 1 53 16 is_stmt 0 view .LVU37
 131 0006 BDF90030 		ldrsh	r3, [sp]
 132              	.LVL14:
  53:lvgl/src/misc/lv_area.c **** }
 133              		.loc 1 53 16 view .LVU38
 134 000a C380     		strh	r3, [r0, #6]	@ movhi
  54:lvgl/src/misc/lv_area.c **** 
 135              		.loc 1 54 1 view .LVU39
 136 000c 7047     		bx	lr
 137              		.cfi_endproc
 138              	.LFE5:
 140              		.section	.text.lv_area_set_width,"ax",%progbits
 141              		.align	1
 142              		.global	lv_area_set_width
 143              		.syntax unified
 144              		.thumb
 145              		.thumb_func
 147              	lv_area_set_width:
 148              	.LVL15:
 149              	.LFB6:
  62:lvgl/src/misc/lv_area.c ****     area_p->x2 = area_p->x1 + w - 1;
 150              		.loc 1 62 1 is_stmt 1 view -0
 151              		.cfi_startproc
 152              		@ args = 0, pretend = 0, frame = 0
 153              		@ frame_needed = 0, uses_anonymous_args = 0
 154              		@ link register save eliminated.
  63:lvgl/src/misc/lv_area.c **** }
 155              		.loc 1 63 5 view .LVU41
  63:lvgl/src/misc/lv_area.c **** }
 156              		.loc 1 63 24 is_stmt 0 view .LVU42
 157 0000 0388     		ldrh	r3, [r0]
  63:lvgl/src/misc/lv_area.c **** }
 158              		.loc 1 63 29 view .LVU43
 159 0002 0B44     		add	r3, r3, r1
 160 0004 9BB2     		uxth	r3, r3
  63:lvgl/src/misc/lv_area.c **** }
 161              		.loc 1 63 33 view .LVU44
 162 0006 013B     		subs	r3, r3, #1
  63:lvgl/src/misc/lv_area.c **** }
 163              		.loc 1 63 16 view .LVU45
 164 0008 8380     		strh	r3, [r0, #4]	@ movhi
  64:lvgl/src/misc/lv_area.c **** 
 165              		.loc 1 64 1 view .LVU46
 166 000a 7047     		bx	lr
 167              		.cfi_endproc
 168              	.LFE6:
 170              		.section	.text.lv_area_set_height,"ax",%progbits
 171              		.align	1
 172              		.global	lv_area_set_height
 173              		.syntax unified
 174              		.thumb
 175              		.thumb_func
 177              	lv_area_set_height:
 178              	.LVL16:
 179              	.LFB7:
  72:lvgl/src/misc/lv_area.c ****     area_p->y2 = area_p->y1 + h - 1;
ARM GAS  C:\Users\OSD\AppData\Local\Temp\ccx0d5Nb.s 			page 15


 180              		.loc 1 72 1 is_stmt 1 view -0
 181              		.cfi_startproc
 182              		@ args = 0, pretend = 0, frame = 0
 183              		@ frame_needed = 0, uses_anonymous_args = 0
 184              		@ link register save eliminated.
  73:lvgl/src/misc/lv_area.c **** }
 185              		.loc 1 73 5 view .LVU48
  73:lvgl/src/misc/lv_area.c **** }
 186              		.loc 1 73 24 is_stmt 0 view .LVU49
 187 0000 4388     		ldrh	r3, [r0, #2]
  73:lvgl/src/misc/lv_area.c **** }
 188              		.loc 1 73 29 view .LVU50
 189 0002 0B44     		add	r3, r3, r1
 190 0004 9BB2     		uxth	r3, r3
  73:lvgl/src/misc/lv_area.c **** }
 191              		.loc 1 73 33 view .LVU51
 192 0006 013B     		subs	r3, r3, #1
  73:lvgl/src/misc/lv_area.c **** }
 193              		.loc 1 73 16 view .LVU52
 194 0008 C380     		strh	r3, [r0, #6]	@ movhi
  74:lvgl/src/misc/lv_area.c **** 
 195              		.loc 1 74 1 view .LVU53
 196 000a 7047     		bx	lr
 197              		.cfi_endproc
 198              	.LFE7:
 200              		.section	.text._lv_area_set_pos,"ax",%progbits
 201              		.align	1
 202              		.global	_lv_area_set_pos
 203              		.syntax unified
 204              		.thumb
 205              		.thumb_func
 207              	_lv_area_set_pos:
 208              	.LVL17:
 209              	.LFB8:
  83:lvgl/src/misc/lv_area.c ****     lv_coord_t w = lv_area_get_width(area_p);
 210              		.loc 1 83 1 is_stmt 1 view -0
 211              		.cfi_startproc
 212              		@ args = 0, pretend = 0, frame = 0
 213              		@ frame_needed = 0, uses_anonymous_args = 0
  83:lvgl/src/misc/lv_area.c ****     lv_coord_t w = lv_area_get_width(area_p);
 214              		.loc 1 83 1 is_stmt 0 view .LVU55
 215 0000 38B5     		push	{r3, r4, r5, lr}
 216              		.cfi_def_cfa_offset 16
 217              		.cfi_offset 3, -16
 218              		.cfi_offset 4, -12
 219              		.cfi_offset 5, -8
 220              		.cfi_offset 14, -4
 221 0002 0446     		mov	r4, r0
  84:lvgl/src/misc/lv_area.c ****     lv_coord_t h = lv_area_get_height(area_p);
 222              		.loc 1 84 5 is_stmt 1 view .LVU56
 223              	.LVL18:
 224              	.LBB122:
 225              	.LBI122:
 226              		.file 2 "lvgl/src/misc/lv_area.h"
   1:lvgl/src/misc/lv_area.h **** /**
   2:lvgl/src/misc/lv_area.h ****  * @file lv_area.h
   3:lvgl/src/misc/lv_area.h ****  *
ARM GAS  C:\Users\OSD\AppData\Local\Temp\ccx0d5Nb.s 			page 16


   4:lvgl/src/misc/lv_area.h ****  */
   5:lvgl/src/misc/lv_area.h **** 
   6:lvgl/src/misc/lv_area.h **** #ifndef LV_AREA_H
   7:lvgl/src/misc/lv_area.h **** #define LV_AREA_H
   8:lvgl/src/misc/lv_area.h **** 
   9:lvgl/src/misc/lv_area.h **** #ifdef __cplusplus
  10:lvgl/src/misc/lv_area.h **** extern "C" {
  11:lvgl/src/misc/lv_area.h **** #endif
  12:lvgl/src/misc/lv_area.h **** 
  13:lvgl/src/misc/lv_area.h **** /*********************
  14:lvgl/src/misc/lv_area.h ****  *      INCLUDES
  15:lvgl/src/misc/lv_area.h ****  *********************/
  16:lvgl/src/misc/lv_area.h **** #include "../lv_conf_internal.h"
  17:lvgl/src/misc/lv_area.h **** #include <stdbool.h>
  18:lvgl/src/misc/lv_area.h **** #include <stdint.h>
  19:lvgl/src/misc/lv_area.h **** 
  20:lvgl/src/misc/lv_area.h **** /*********************
  21:lvgl/src/misc/lv_area.h ****  *      DEFINES
  22:lvgl/src/misc/lv_area.h ****  *********************/
  23:lvgl/src/misc/lv_area.h **** 
  24:lvgl/src/misc/lv_area.h **** #if LV_USE_LARGE_COORD
  25:lvgl/src/misc/lv_area.h **** typedef int32_t lv_coord_t;
  26:lvgl/src/misc/lv_area.h **** #else
  27:lvgl/src/misc/lv_area.h **** typedef int16_t lv_coord_t;
  28:lvgl/src/misc/lv_area.h **** #endif
  29:lvgl/src/misc/lv_area.h **** 
  30:lvgl/src/misc/lv_area.h **** /**********************
  31:lvgl/src/misc/lv_area.h ****  *      TYPEDEFS
  32:lvgl/src/misc/lv_area.h ****  **********************/
  33:lvgl/src/misc/lv_area.h **** 
  34:lvgl/src/misc/lv_area.h **** /**
  35:lvgl/src/misc/lv_area.h ****  * Represents a point on the screen.
  36:lvgl/src/misc/lv_area.h ****  */
  37:lvgl/src/misc/lv_area.h **** typedef struct {
  38:lvgl/src/misc/lv_area.h ****     lv_coord_t x;
  39:lvgl/src/misc/lv_area.h ****     lv_coord_t y;
  40:lvgl/src/misc/lv_area.h **** } lv_point_t;
  41:lvgl/src/misc/lv_area.h **** 
  42:lvgl/src/misc/lv_area.h **** /** Represents an area of the screen.*/
  43:lvgl/src/misc/lv_area.h **** typedef struct {
  44:lvgl/src/misc/lv_area.h ****     lv_coord_t x1;
  45:lvgl/src/misc/lv_area.h ****     lv_coord_t y1;
  46:lvgl/src/misc/lv_area.h ****     lv_coord_t x2;
  47:lvgl/src/misc/lv_area.h ****     lv_coord_t y2;
  48:lvgl/src/misc/lv_area.h **** } lv_area_t;
  49:lvgl/src/misc/lv_area.h **** 
  50:lvgl/src/misc/lv_area.h **** /** Alignments*/
  51:lvgl/src/misc/lv_area.h **** enum {
  52:lvgl/src/misc/lv_area.h ****     LV_ALIGN_DEFAULT = 0,
  53:lvgl/src/misc/lv_area.h ****     LV_ALIGN_TOP_LEFT,
  54:lvgl/src/misc/lv_area.h ****     LV_ALIGN_TOP_MID,
  55:lvgl/src/misc/lv_area.h ****     LV_ALIGN_TOP_RIGHT,
  56:lvgl/src/misc/lv_area.h ****     LV_ALIGN_BOTTOM_LEFT,
  57:lvgl/src/misc/lv_area.h ****     LV_ALIGN_BOTTOM_MID,
  58:lvgl/src/misc/lv_area.h ****     LV_ALIGN_BOTTOM_RIGHT,
  59:lvgl/src/misc/lv_area.h ****     LV_ALIGN_LEFT_MID,
  60:lvgl/src/misc/lv_area.h ****     LV_ALIGN_RIGHT_MID,
ARM GAS  C:\Users\OSD\AppData\Local\Temp\ccx0d5Nb.s 			page 17


  61:lvgl/src/misc/lv_area.h ****     LV_ALIGN_CENTER,
  62:lvgl/src/misc/lv_area.h **** 
  63:lvgl/src/misc/lv_area.h ****     LV_ALIGN_OUT_TOP_LEFT,
  64:lvgl/src/misc/lv_area.h ****     LV_ALIGN_OUT_TOP_MID,
  65:lvgl/src/misc/lv_area.h ****     LV_ALIGN_OUT_TOP_RIGHT,
  66:lvgl/src/misc/lv_area.h ****     LV_ALIGN_OUT_BOTTOM_LEFT,
  67:lvgl/src/misc/lv_area.h ****     LV_ALIGN_OUT_BOTTOM_MID,
  68:lvgl/src/misc/lv_area.h ****     LV_ALIGN_OUT_BOTTOM_RIGHT,
  69:lvgl/src/misc/lv_area.h ****     LV_ALIGN_OUT_LEFT_TOP,
  70:lvgl/src/misc/lv_area.h ****     LV_ALIGN_OUT_LEFT_MID,
  71:lvgl/src/misc/lv_area.h ****     LV_ALIGN_OUT_LEFT_BOTTOM,
  72:lvgl/src/misc/lv_area.h ****     LV_ALIGN_OUT_RIGHT_TOP,
  73:lvgl/src/misc/lv_area.h ****     LV_ALIGN_OUT_RIGHT_MID,
  74:lvgl/src/misc/lv_area.h ****     LV_ALIGN_OUT_RIGHT_BOTTOM,
  75:lvgl/src/misc/lv_area.h **** };
  76:lvgl/src/misc/lv_area.h **** typedef uint8_t lv_align_t;
  77:lvgl/src/misc/lv_area.h **** 
  78:lvgl/src/misc/lv_area.h **** enum {
  79:lvgl/src/misc/lv_area.h ****     LV_DIR_NONE     = 0x00,
  80:lvgl/src/misc/lv_area.h ****     LV_DIR_LEFT     = (1 << 0),
  81:lvgl/src/misc/lv_area.h ****     LV_DIR_RIGHT    = (1 << 1),
  82:lvgl/src/misc/lv_area.h ****     LV_DIR_TOP      = (1 << 2),
  83:lvgl/src/misc/lv_area.h ****     LV_DIR_BOTTOM   = (1 << 3),
  84:lvgl/src/misc/lv_area.h ****     LV_DIR_HOR      = LV_DIR_LEFT | LV_DIR_RIGHT,
  85:lvgl/src/misc/lv_area.h ****     LV_DIR_VER      = LV_DIR_TOP | LV_DIR_BOTTOM,
  86:lvgl/src/misc/lv_area.h ****     LV_DIR_ALL      = LV_DIR_HOR | LV_DIR_VER,
  87:lvgl/src/misc/lv_area.h **** };
  88:lvgl/src/misc/lv_area.h **** 
  89:lvgl/src/misc/lv_area.h **** typedef uint8_t lv_dir_t;
  90:lvgl/src/misc/lv_area.h **** 
  91:lvgl/src/misc/lv_area.h **** /**********************
  92:lvgl/src/misc/lv_area.h ****  * GLOBAL PROTOTYPES
  93:lvgl/src/misc/lv_area.h ****  **********************/
  94:lvgl/src/misc/lv_area.h **** 
  95:lvgl/src/misc/lv_area.h **** /**
  96:lvgl/src/misc/lv_area.h ****  * Initialize an area
  97:lvgl/src/misc/lv_area.h ****  * @param area_p pointer to an area
  98:lvgl/src/misc/lv_area.h ****  * @param x1 left coordinate of the area
  99:lvgl/src/misc/lv_area.h ****  * @param y1 top coordinate of the area
 100:lvgl/src/misc/lv_area.h ****  * @param x2 right coordinate of the area
 101:lvgl/src/misc/lv_area.h ****  * @param y2 bottom coordinate of the area
 102:lvgl/src/misc/lv_area.h ****  */
 103:lvgl/src/misc/lv_area.h **** void lv_area_set(lv_area_t * area_p, lv_coord_t x1, lv_coord_t y1, lv_coord_t x2, lv_coord_t y2);
 104:lvgl/src/misc/lv_area.h **** 
 105:lvgl/src/misc/lv_area.h **** /**
 106:lvgl/src/misc/lv_area.h ****  * Copy an area
 107:lvgl/src/misc/lv_area.h ****  * @param dest pointer to the destination area
 108:lvgl/src/misc/lv_area.h ****  * @param src pointer to the source area
 109:lvgl/src/misc/lv_area.h ****  */
 110:lvgl/src/misc/lv_area.h **** inline static void lv_area_copy(lv_area_t * dest, const lv_area_t * src)
 111:lvgl/src/misc/lv_area.h **** {
 112:lvgl/src/misc/lv_area.h ****     dest->x1 = src->x1;
 113:lvgl/src/misc/lv_area.h ****     dest->y1 = src->y1;
 114:lvgl/src/misc/lv_area.h ****     dest->x2 = src->x2;
 115:lvgl/src/misc/lv_area.h ****     dest->y2 = src->y2;
 116:lvgl/src/misc/lv_area.h **** }
 117:lvgl/src/misc/lv_area.h **** 
ARM GAS  C:\Users\OSD\AppData\Local\Temp\ccx0d5Nb.s 			page 18


 118:lvgl/src/misc/lv_area.h **** /**
 119:lvgl/src/misc/lv_area.h ****  * Get the width of an area
 120:lvgl/src/misc/lv_area.h ****  * @param area_p pointer to an area
 121:lvgl/src/misc/lv_area.h ****  * @return the width of the area (if x1 == x2 -> width = 1)
 122:lvgl/src/misc/lv_area.h ****  */
 123:lvgl/src/misc/lv_area.h **** static inline lv_coord_t lv_area_get_width(const lv_area_t * area_p)
 227              		.loc 2 123 26 view .LVU57
 228              	.LBB123:
 124:lvgl/src/misc/lv_area.h **** {
 125:lvgl/src/misc/lv_area.h ****     return (lv_coord_t)(area_p->x2 - area_p->x1 + 1);
 229              		.loc 2 125 5 view .LVU58
 230              		.loc 2 125 31 is_stmt 0 view .LVU59
 231 0004 8388     		ldrh	r3, [r0, #4]
 232              		.loc 2 125 44 view .LVU60
 233 0006 0588     		ldrh	r5, [r0]
 234              		.loc 2 125 36 view .LVU61
 235 0008 5B1B     		subs	r3, r3, r5
 236 000a 9BB2     		uxth	r3, r3
 237              		.loc 2 125 49 view .LVU62
 238 000c 0133     		adds	r3, r3, #1
 239              	.LVL19:
 240              		.loc 2 125 49 view .LVU63
 241              	.LBE123:
 242              	.LBE122:
  85:lvgl/src/misc/lv_area.c ****     area_p->x1   = x;
 243              		.loc 1 85 5 is_stmt 1 view .LVU64
 244              	.LBB124:
 245              	.LBI124:
 126:lvgl/src/misc/lv_area.h **** }
 127:lvgl/src/misc/lv_area.h **** 
 128:lvgl/src/misc/lv_area.h **** /**
 129:lvgl/src/misc/lv_area.h ****  * Get the height of an area
 130:lvgl/src/misc/lv_area.h ****  * @param area_p pointer to an area
 131:lvgl/src/misc/lv_area.h ****  * @return the height of the area (if y1 == y2 -> height = 1)
 132:lvgl/src/misc/lv_area.h ****  */
 133:lvgl/src/misc/lv_area.h **** static inline lv_coord_t lv_area_get_height(const lv_area_t * area_p)
 246              		.loc 2 133 26 view .LVU65
 247              	.LBB125:
 134:lvgl/src/misc/lv_area.h **** {
 135:lvgl/src/misc/lv_area.h ****     return (lv_coord_t)(area_p->y2 - area_p->y1 + 1);
 248              		.loc 2 135 5 view .LVU66
 249              		.loc 2 135 31 is_stmt 0 view .LVU67
 250 000e C588     		ldrh	r5, [r0, #6]
 251              		.loc 2 135 44 view .LVU68
 252 0010 B0F802C0 		ldrh	ip, [r0, #2]
 253              		.loc 2 135 36 view .LVU69
 254 0014 A5EB0C05 		sub	r5, r5, ip
 255 0018 ADB2     		uxth	r5, r5
 256              		.loc 2 135 49 view .LVU70
 257 001a 0135     		adds	r5, r5, #1
 258              		.loc 2 135 12 view .LVU71
 259 001c 2DB2     		sxth	r5, r5
 260              	.LVL20:
 261              		.loc 2 135 12 view .LVU72
 262              	.LBE125:
 263              	.LBE124:
  86:lvgl/src/misc/lv_area.c ****     area_p->y1   = y;
ARM GAS  C:\Users\OSD\AppData\Local\Temp\ccx0d5Nb.s 			page 19


 264              		.loc 1 86 5 is_stmt 1 view .LVU73
  86:lvgl/src/misc/lv_area.c ****     area_p->y1   = y;
 265              		.loc 1 86 18 is_stmt 0 view .LVU74
 266 001e 0180     		strh	r1, [r0]	@ movhi
  87:lvgl/src/misc/lv_area.c ****     lv_area_set_width(area_p, w);
 267              		.loc 1 87 5 is_stmt 1 view .LVU75
  87:lvgl/src/misc/lv_area.c ****     lv_area_set_width(area_p, w);
 268              		.loc 1 87 18 is_stmt 0 view .LVU76
 269 0020 4280     		strh	r2, [r0, #2]	@ movhi
  88:lvgl/src/misc/lv_area.c ****     lv_area_set_height(area_p, h);
 270              		.loc 1 88 5 is_stmt 1 view .LVU77
 271 0022 19B2     		sxth	r1, r3
 272              	.LVL21:
  88:lvgl/src/misc/lv_area.c ****     lv_area_set_height(area_p, h);
 273              		.loc 1 88 5 is_stmt 0 view .LVU78
 274 0024 FFF7FEFF 		bl	lv_area_set_width
 275              	.LVL22:
  89:lvgl/src/misc/lv_area.c **** }
 276              		.loc 1 89 5 is_stmt 1 view .LVU79
 277 0028 2946     		mov	r1, r5
 278 002a 2046     		mov	r0, r4
 279 002c FFF7FEFF 		bl	lv_area_set_height
 280              	.LVL23:
  90:lvgl/src/misc/lv_area.c **** 
 281              		.loc 1 90 1 is_stmt 0 view .LVU80
 282 0030 38BD     		pop	{r3, r4, r5, pc}
  90:lvgl/src/misc/lv_area.c **** 
 283              		.loc 1 90 1 view .LVU81
 284              		.cfi_endproc
 285              	.LFE8:
 287              		.section	.text.lv_area_get_size,"ax",%progbits
 288              		.align	1
 289              		.global	lv_area_get_size
 290              		.syntax unified
 291              		.thumb
 292              		.thumb_func
 294              	lv_area_get_size:
 295              	.LVL24:
 296              	.LFB9:
  98:lvgl/src/misc/lv_area.c ****     uint32_t size;
 297              		.loc 1 98 1 is_stmt 1 view -0
 298              		.cfi_startproc
 299              		@ args = 0, pretend = 0, frame = 0
 300              		@ frame_needed = 0, uses_anonymous_args = 0
 301              		@ link register save eliminated.
  99:lvgl/src/misc/lv_area.c **** 
 302              		.loc 1 99 5 view .LVU83
 101:lvgl/src/misc/lv_area.c **** 
 303              		.loc 1 101 5 view .LVU84
 101:lvgl/src/misc/lv_area.c **** 
 304              		.loc 1 101 29 is_stmt 0 view .LVU85
 305 0000 B0F90420 		ldrsh	r2, [r0, #4]
 101:lvgl/src/misc/lv_area.c **** 
 306              		.loc 1 101 42 view .LVU86
 307 0004 B0F90030 		ldrsh	r3, [r0]
 101:lvgl/src/misc/lv_area.c **** 
 308              		.loc 1 101 34 view .LVU87
ARM GAS  C:\Users\OSD\AppData\Local\Temp\ccx0d5Nb.s 			page 20


 309 0008 D21A     		subs	r2, r2, r3
 101:lvgl/src/misc/lv_area.c **** 
 310              		.loc 1 101 61 view .LVU88
 311 000a B0F90630 		ldrsh	r3, [r0, #6]
 101:lvgl/src/misc/lv_area.c **** 
 312              		.loc 1 101 74 view .LVU89
 313 000e B0F90200 		ldrsh	r0, [r0, #2]
 314              	.LVL25:
 101:lvgl/src/misc/lv_area.c **** 
 315              		.loc 1 101 66 view .LVU90
 316 0012 181A     		subs	r0, r3, r0
 101:lvgl/src/misc/lv_area.c **** 
 317              		.loc 1 101 79 view .LVU91
 318 0014 0130     		adds	r0, r0, #1
 319              	.LVL26:
 103:lvgl/src/misc/lv_area.c **** }
 320              		.loc 1 103 5 is_stmt 1 view .LVU92
 104:lvgl/src/misc/lv_area.c **** 
 321              		.loc 1 104 1 is_stmt 0 view .LVU93
 322 0016 02FB0000 		mla	r0, r2, r0, r0
 323              	.LVL27:
 104:lvgl/src/misc/lv_area.c **** 
 324              		.loc 1 104 1 view .LVU94
 325 001a 7047     		bx	lr
 326              		.cfi_endproc
 327              	.LFE9:
 329              		.section	.text.lv_area_increase,"ax",%progbits
 330              		.align	1
 331              		.global	lv_area_increase
 332              		.syntax unified
 333              		.thumb
 334              		.thumb_func
 336              	lv_area_increase:
 337              	.LVL28:
 338              	.LFB10:
 107:lvgl/src/misc/lv_area.c ****     area->x1 -= w_extra;
 339              		.loc 1 107 1 is_stmt 1 view -0
 340              		.cfi_startproc
 341              		@ args = 0, pretend = 0, frame = 0
 342              		@ frame_needed = 0, uses_anonymous_args = 0
 343              		@ link register save eliminated.
 108:lvgl/src/misc/lv_area.c ****     area->x2 += w_extra;
 344              		.loc 1 108 5 view .LVU96
 108:lvgl/src/misc/lv_area.c ****     area->x2 += w_extra;
 345              		.loc 1 108 14 is_stmt 0 view .LVU97
 346 0000 89B2     		uxth	r1, r1
 108:lvgl/src/misc/lv_area.c ****     area->x2 += w_extra;
 347              		.loc 1 108 14 view .LVU98
 348 0002 0388     		ldrh	r3, [r0]
 349 0004 5B1A     		subs	r3, r3, r1
 350 0006 0380     		strh	r3, [r0]	@ movhi
 109:lvgl/src/misc/lv_area.c ****     area->y1 -= h_extra;
 351              		.loc 1 109 5 is_stmt 1 view .LVU99
 109:lvgl/src/misc/lv_area.c ****     area->y1 -= h_extra;
 352              		.loc 1 109 14 is_stmt 0 view .LVU100
 353 0008 8388     		ldrh	r3, [r0, #4]
 354 000a 1944     		add	r1, r1, r3
ARM GAS  C:\Users\OSD\AppData\Local\Temp\ccx0d5Nb.s 			page 21


 355              	.LVL29:
 109:lvgl/src/misc/lv_area.c ****     area->y1 -= h_extra;
 356              		.loc 1 109 14 view .LVU101
 357 000c 8180     		strh	r1, [r0, #4]	@ movhi
 110:lvgl/src/misc/lv_area.c ****     area->y2 += h_extra;
 358              		.loc 1 110 5 is_stmt 1 view .LVU102
 110:lvgl/src/misc/lv_area.c ****     area->y2 += h_extra;
 359              		.loc 1 110 14 is_stmt 0 view .LVU103
 360 000e 92B2     		uxth	r2, r2
 110:lvgl/src/misc/lv_area.c ****     area->y2 += h_extra;
 361              		.loc 1 110 14 view .LVU104
 362 0010 4388     		ldrh	r3, [r0, #2]
 363 0012 9B1A     		subs	r3, r3, r2
 364 0014 4380     		strh	r3, [r0, #2]	@ movhi
 111:lvgl/src/misc/lv_area.c **** }
 365              		.loc 1 111 5 is_stmt 1 view .LVU105
 111:lvgl/src/misc/lv_area.c **** }
 366              		.loc 1 111 14 is_stmt 0 view .LVU106
 367 0016 C388     		ldrh	r3, [r0, #6]
 368 0018 1A44     		add	r2, r2, r3
 369              	.LVL30:
 111:lvgl/src/misc/lv_area.c **** }
 370              		.loc 1 111 14 view .LVU107
 371 001a C280     		strh	r2, [r0, #6]	@ movhi
 112:lvgl/src/misc/lv_area.c **** 
 372              		.loc 1 112 1 view .LVU108
 373 001c 7047     		bx	lr
 374              		.cfi_endproc
 375              	.LFE10:
 377              		.section	.text.lv_area_move,"ax",%progbits
 378              		.align	1
 379              		.global	lv_area_move
 380              		.syntax unified
 381              		.thumb
 382              		.thumb_func
 384              	lv_area_move:
 385              	.LVL31:
 386              	.LFB11:
 115:lvgl/src/misc/lv_area.c ****     area->x1 += x_ofs;
 387              		.loc 1 115 1 is_stmt 1 view -0
 388              		.cfi_startproc
 389              		@ args = 0, pretend = 0, frame = 0
 390              		@ frame_needed = 0, uses_anonymous_args = 0
 391              		@ link register save eliminated.
 116:lvgl/src/misc/lv_area.c ****     area->x2 += x_ofs;
 392              		.loc 1 116 5 view .LVU110
 116:lvgl/src/misc/lv_area.c ****     area->x2 += x_ofs;
 393              		.loc 1 116 14 is_stmt 0 view .LVU111
 394 0000 89B2     		uxth	r1, r1
 116:lvgl/src/misc/lv_area.c ****     area->x2 += x_ofs;
 395              		.loc 1 116 14 view .LVU112
 396 0002 0388     		ldrh	r3, [r0]
 397 0004 0B44     		add	r3, r3, r1
 398 0006 0380     		strh	r3, [r0]	@ movhi
 117:lvgl/src/misc/lv_area.c ****     area->y1 += y_ofs;
 399              		.loc 1 117 5 is_stmt 1 view .LVU113
 117:lvgl/src/misc/lv_area.c ****     area->y1 += y_ofs;
ARM GAS  C:\Users\OSD\AppData\Local\Temp\ccx0d5Nb.s 			page 22


 400              		.loc 1 117 14 is_stmt 0 view .LVU114
 401 0008 8388     		ldrh	r3, [r0, #4]
 402 000a 1944     		add	r1, r1, r3
 403              	.LVL32:
 117:lvgl/src/misc/lv_area.c ****     area->y1 += y_ofs;
 404              		.loc 1 117 14 view .LVU115
 405 000c 8180     		strh	r1, [r0, #4]	@ movhi
 118:lvgl/src/misc/lv_area.c ****     area->y2 += y_ofs;
 406              		.loc 1 118 5 is_stmt 1 view .LVU116
 118:lvgl/src/misc/lv_area.c ****     area->y2 += y_ofs;
 407              		.loc 1 118 14 is_stmt 0 view .LVU117
 408 000e 92B2     		uxth	r2, r2
 118:lvgl/src/misc/lv_area.c ****     area->y2 += y_ofs;
 409              		.loc 1 118 14 view .LVU118
 410 0010 4388     		ldrh	r3, [r0, #2]
 411 0012 1344     		add	r3, r3, r2
 412 0014 4380     		strh	r3, [r0, #2]	@ movhi
 119:lvgl/src/misc/lv_area.c **** }
 413              		.loc 1 119 5 is_stmt 1 view .LVU119
 119:lvgl/src/misc/lv_area.c **** }
 414              		.loc 1 119 14 is_stmt 0 view .LVU120
 415 0016 C388     		ldrh	r3, [r0, #6]
 416 0018 1A44     		add	r2, r2, r3
 417              	.LVL33:
 119:lvgl/src/misc/lv_area.c **** }
 418              		.loc 1 119 14 view .LVU121
 419 001a C280     		strh	r2, [r0, #6]	@ movhi
 120:lvgl/src/misc/lv_area.c **** 
 420              		.loc 1 120 1 view .LVU122
 421 001c 7047     		bx	lr
 422              		.cfi_endproc
 423              	.LFE11:
 425              		.section	.text._lv_area_intersect,"ax",%progbits
 426              		.align	1
 427              		.global	_lv_area_intersect
 428              		.syntax unified
 429              		.thumb
 430              		.thumb_func
 432              	_lv_area_intersect:
 433              	.LVL34:
 434              	.LFB12:
 130:lvgl/src/misc/lv_area.c ****     /*Get the smaller area from 'a1_p' and 'a2_p'*/
 435              		.loc 1 130 1 is_stmt 1 view -0
 436              		.cfi_startproc
 437              		@ args = 0, pretend = 0, frame = 0
 438              		@ frame_needed = 0, uses_anonymous_args = 0
 130:lvgl/src/misc/lv_area.c ****     /*Get the smaller area from 'a1_p' and 'a2_p'*/
 439              		.loc 1 130 1 is_stmt 0 view .LVU124
 440 0000 10B5     		push	{r4, lr}
 441              		.cfi_def_cfa_offset 8
 442              		.cfi_offset 4, -8
 443              		.cfi_offset 14, -4
 132:lvgl/src/misc/lv_area.c ****     res_p->y1 = LV_MAX(a1_p->y1, a2_p->y1);
 444              		.loc 1 132 5 is_stmt 1 view .LVU125
 132:lvgl/src/misc/lv_area.c ****     res_p->y1 = LV_MAX(a1_p->y1, a2_p->y1);
 445              		.loc 1 132 17 is_stmt 0 view .LVU126
 446 0002 B2F900C0 		ldrsh	ip, [r2]
ARM GAS  C:\Users\OSD\AppData\Local\Temp\ccx0d5Nb.s 			page 23


 447 0006 B1F90030 		ldrsh	r3, [r1]
 448 000a 9C45     		cmp	ip, r3
 449 000c B8BF     		it	lt
 450 000e 9C46     		movlt	ip, r3
 132:lvgl/src/misc/lv_area.c ****     res_p->y1 = LV_MAX(a1_p->y1, a2_p->y1);
 451              		.loc 1 132 15 view .LVU127
 452 0010 A0F800C0 		strh	ip, [r0]	@ movhi
 133:lvgl/src/misc/lv_area.c ****     res_p->x2 = LV_MIN(a1_p->x2, a2_p->x2);
 453              		.loc 1 133 5 is_stmt 1 view .LVU128
 133:lvgl/src/misc/lv_area.c ****     res_p->x2 = LV_MIN(a1_p->x2, a2_p->x2);
 454              		.loc 1 133 17 is_stmt 0 view .LVU129
 455 0014 B2F902E0 		ldrsh	lr, [r2, #2]
 456 0018 B1F90230 		ldrsh	r3, [r1, #2]
 457 001c 9E45     		cmp	lr, r3
 458 001e B8BF     		it	lt
 459 0020 9E46     		movlt	lr, r3
 133:lvgl/src/misc/lv_area.c ****     res_p->x2 = LV_MIN(a1_p->x2, a2_p->x2);
 460              		.loc 1 133 15 view .LVU130
 461 0022 A0F802E0 		strh	lr, [r0, #2]	@ movhi
 134:lvgl/src/misc/lv_area.c ****     res_p->y2 = LV_MIN(a1_p->y2, a2_p->y2);
 462              		.loc 1 134 5 is_stmt 1 view .LVU131
 134:lvgl/src/misc/lv_area.c ****     res_p->y2 = LV_MIN(a1_p->y2, a2_p->y2);
 463              		.loc 1 134 17 is_stmt 0 view .LVU132
 464 0026 B2F90430 		ldrsh	r3, [r2, #4]
 465 002a B1F90440 		ldrsh	r4, [r1, #4]
 466 002e A342     		cmp	r3, r4
 467 0030 A8BF     		it	ge
 468 0032 2346     		movge	r3, r4
 134:lvgl/src/misc/lv_area.c ****     res_p->y2 = LV_MIN(a1_p->y2, a2_p->y2);
 469              		.loc 1 134 15 view .LVU133
 470 0034 8380     		strh	r3, [r0, #4]	@ movhi
 135:lvgl/src/misc/lv_area.c **** 
 471              		.loc 1 135 5 is_stmt 1 view .LVU134
 135:lvgl/src/misc/lv_area.c **** 
 472              		.loc 1 135 17 is_stmt 0 view .LVU135
 473 0036 B2F90620 		ldrsh	r2, [r2, #6]
 474              	.LVL35:
 135:lvgl/src/misc/lv_area.c **** 
 475              		.loc 1 135 17 view .LVU136
 476 003a B1F90610 		ldrsh	r1, [r1, #6]
 477              	.LVL36:
 135:lvgl/src/misc/lv_area.c **** 
 478              		.loc 1 135 17 view .LVU137
 479 003e 8A42     		cmp	r2, r1
 480 0040 A8BF     		it	ge
 481 0042 0A46     		movge	r2, r1
 135:lvgl/src/misc/lv_area.c **** 
 482              		.loc 1 135 15 view .LVU138
 483 0044 C280     		strh	r2, [r0, #6]	@ movhi
 138:lvgl/src/misc/lv_area.c ****     if((res_p->x1 > res_p->x2) || (res_p->y1 > res_p->y2)) {
 484              		.loc 1 138 5 is_stmt 1 view .LVU139
 485              	.LVL37:
 139:lvgl/src/misc/lv_area.c ****         union_ok = false;
 486              		.loc 1 139 5 view .LVU140
 139:lvgl/src/misc/lv_area.c ****         union_ok = false;
 487              		.loc 1 139 7 is_stmt 0 view .LVU141
 488 0046 9C45     		cmp	ip, r3
ARM GAS  C:\Users\OSD\AppData\Local\Temp\ccx0d5Nb.s 			page 24


 489 0048 03DC     		bgt	.L16
 139:lvgl/src/misc/lv_area.c ****         union_ok = false;
 490              		.loc 1 139 32 discriminator 1 view .LVU142
 491 004a 9645     		cmp	lr, r2
 492 004c 03DC     		bgt	.L17
 138:lvgl/src/misc/lv_area.c ****     if((res_p->x1 > res_p->x2) || (res_p->y1 > res_p->y2)) {
 493              		.loc 1 138 10 view .LVU143
 494 004e 0120     		movs	r0, #1
 495              	.LVL38:
 138:lvgl/src/misc/lv_area.c ****     if((res_p->x1 > res_p->x2) || (res_p->y1 > res_p->y2)) {
 496              		.loc 1 138 10 view .LVU144
 497 0050 00E0     		b	.L15
 498              	.LVL39:
 499              	.L16:
 140:lvgl/src/misc/lv_area.c ****     }
 500              		.loc 1 140 18 view .LVU145
 501 0052 0020     		movs	r0, #0
 502              	.LVL40:
 503              	.L15:
 143:lvgl/src/misc/lv_area.c **** }
 504              		.loc 1 143 5 is_stmt 1 view .LVU146
 144:lvgl/src/misc/lv_area.c **** 
 505              		.loc 1 144 1 is_stmt 0 view .LVU147
 506 0054 10BD     		pop	{r4, pc}
 507              	.LVL41:
 508              	.L17:
 140:lvgl/src/misc/lv_area.c ****     }
 509              		.loc 1 140 18 view .LVU148
 510 0056 0020     		movs	r0, #0
 511              	.LVL42:
 140:lvgl/src/misc/lv_area.c ****     }
 512              		.loc 1 140 18 view .LVU149
 513 0058 FCE7     		b	.L15
 514              		.cfi_endproc
 515              	.LFE12:
 517              		.section	.text._lv_area_join,"ax",%progbits
 518              		.align	1
 519              		.global	_lv_area_join
 520              		.syntax unified
 521              		.thumb
 522              		.thumb_func
 524              	_lv_area_join:
 525              	.LVL43:
 526              	.LFB14:
 225:lvgl/src/misc/lv_area.c ****     a_res_p->x1 = LV_MIN(a1_p->x1, a2_p->x1);
 527              		.loc 1 225 1 is_stmt 1 view -0
 528              		.cfi_startproc
 529              		@ args = 0, pretend = 0, frame = 0
 530              		@ frame_needed = 0, uses_anonymous_args = 0
 531              		@ link register save eliminated.
 226:lvgl/src/misc/lv_area.c ****     a_res_p->y1 = LV_MIN(a1_p->y1, a2_p->y1);
 532              		.loc 1 226 5 view .LVU151
 226:lvgl/src/misc/lv_area.c ****     a_res_p->y1 = LV_MIN(a1_p->y1, a2_p->y1);
 533              		.loc 1 226 19 is_stmt 0 view .LVU152
 534 0000 B2F90030 		ldrsh	r3, [r2]
 535 0004 B1F900C0 		ldrsh	ip, [r1]
 536 0008 6345     		cmp	r3, ip
ARM GAS  C:\Users\OSD\AppData\Local\Temp\ccx0d5Nb.s 			page 25


 537 000a A8BF     		it	ge
 538 000c 6346     		movge	r3, ip
 226:lvgl/src/misc/lv_area.c ****     a_res_p->y1 = LV_MIN(a1_p->y1, a2_p->y1);
 539              		.loc 1 226 17 view .LVU153
 540 000e 0380     		strh	r3, [r0]	@ movhi
 227:lvgl/src/misc/lv_area.c ****     a_res_p->x2 = LV_MAX(a1_p->x2, a2_p->x2);
 541              		.loc 1 227 5 is_stmt 1 view .LVU154
 227:lvgl/src/misc/lv_area.c ****     a_res_p->x2 = LV_MAX(a1_p->x2, a2_p->x2);
 542              		.loc 1 227 19 is_stmt 0 view .LVU155
 543 0010 B2F90230 		ldrsh	r3, [r2, #2]
 544 0014 B1F902C0 		ldrsh	ip, [r1, #2]
 545 0018 6345     		cmp	r3, ip
 546 001a A8BF     		it	ge
 547 001c 6346     		movge	r3, ip
 227:lvgl/src/misc/lv_area.c ****     a_res_p->x2 = LV_MAX(a1_p->x2, a2_p->x2);
 548              		.loc 1 227 17 view .LVU156
 549 001e 4380     		strh	r3, [r0, #2]	@ movhi
 228:lvgl/src/misc/lv_area.c ****     a_res_p->y2 = LV_MAX(a1_p->y2, a2_p->y2);
 550              		.loc 1 228 5 is_stmt 1 view .LVU157
 228:lvgl/src/misc/lv_area.c ****     a_res_p->y2 = LV_MAX(a1_p->y2, a2_p->y2);
 551              		.loc 1 228 19 is_stmt 0 view .LVU158
 552 0020 B2F90430 		ldrsh	r3, [r2, #4]
 553 0024 B1F904C0 		ldrsh	ip, [r1, #4]
 554 0028 6345     		cmp	r3, ip
 555 002a B8BF     		it	lt
 556 002c 6346     		movlt	r3, ip
 228:lvgl/src/misc/lv_area.c ****     a_res_p->y2 = LV_MAX(a1_p->y2, a2_p->y2);
 557              		.loc 1 228 17 view .LVU159
 558 002e 8380     		strh	r3, [r0, #4]	@ movhi
 229:lvgl/src/misc/lv_area.c **** }
 559              		.loc 1 229 5 is_stmt 1 view .LVU160
 229:lvgl/src/misc/lv_area.c **** }
 560              		.loc 1 229 19 is_stmt 0 view .LVU161
 561 0030 B2F90630 		ldrsh	r3, [r2, #6]
 562 0034 B1F90620 		ldrsh	r2, [r1, #6]
 563              	.LVL44:
 229:lvgl/src/misc/lv_area.c **** }
 564              		.loc 1 229 19 view .LVU162
 565 0038 9342     		cmp	r3, r2
 566 003a B8BF     		it	lt
 567 003c 1346     		movlt	r3, r2
 229:lvgl/src/misc/lv_area.c **** }
 568              		.loc 1 229 17 view .LVU163
 569 003e C380     		strh	r3, [r0, #6]	@ movhi
 230:lvgl/src/misc/lv_area.c **** 
 570              		.loc 1 230 1 view .LVU164
 571 0040 7047     		bx	lr
 572              		.cfi_endproc
 573              	.LFE14:
 575              		.section	.text._lv_area_is_point_on,"ax",%progbits
 576              		.align	1
 577              		.global	_lv_area_is_point_on
 578              		.syntax unified
 579              		.thumb
 580              		.thumb_func
 582              	_lv_area_is_point_on:
 583              	.LVL45:
ARM GAS  C:\Users\OSD\AppData\Local\Temp\ccx0d5Nb.s 			page 26


 584              	.LFB15:
 240:lvgl/src/misc/lv_area.c ****     /*First check the basic area*/
 585              		.loc 1 240 1 is_stmt 1 view -0
 586              		.cfi_startproc
 587              		@ args = 0, pretend = 0, frame = 8
 588              		@ frame_needed = 0, uses_anonymous_args = 0
 240:lvgl/src/misc/lv_area.c ****     /*First check the basic area*/
 589              		.loc 1 240 1 is_stmt 0 view .LVU166
 590 0000 70B5     		push	{r4, r5, r6, lr}
 591              		.cfi_def_cfa_offset 16
 592              		.cfi_offset 4, -16
 593              		.cfi_offset 5, -12
 594              		.cfi_offset 6, -8
 595              		.cfi_offset 14, -4
 596 0002 82B0     		sub	sp, sp, #8
 597              		.cfi_def_cfa_offset 24
 598 0004 0446     		mov	r4, r0
 599 0006 0D46     		mov	r5, r1
 242:lvgl/src/misc/lv_area.c ****     if((p_p->x >= a_p->x1 && p_p->x <= a_p->x2) && ((p_p->y >= a_p->y1 && p_p->y <= a_p->y2))) {
 600              		.loc 1 242 5 is_stmt 1 view .LVU167
 601              	.LVL46:
 243:lvgl/src/misc/lv_area.c ****         is_on_rect = true;
 602              		.loc 1 243 5 view .LVU168
 243:lvgl/src/misc/lv_area.c ****         is_on_rect = true;
 603              		.loc 1 243 12 is_stmt 0 view .LVU169
 604 0008 B1F90010 		ldrsh	r1, [r1]
 605              	.LVL47:
 243:lvgl/src/misc/lv_area.c ****         is_on_rect = true;
 606              		.loc 1 243 22 view .LVU170
 607 000c B0F90000 		ldrsh	r0, [r0]
 608              	.LVL48:
 243:lvgl/src/misc/lv_area.c ****         is_on_rect = true;
 609              		.loc 1 243 7 view .LVU171
 610 0010 8142     		cmp	r1, r0
 611 0012 C0F2B180 		blt	.L28
 243:lvgl/src/misc/lv_area.c ****         is_on_rect = true;
 612              		.loc 1 243 43 discriminator 1 view .LVU172
 613 0016 B4F90430 		ldrsh	r3, [r4, #4]
 243:lvgl/src/misc/lv_area.c ****         is_on_rect = true;
 614              		.loc 1 243 27 discriminator 1 view .LVU173
 615 001a 9942     		cmp	r1, r3
 616 001c 00F3AF80 		bgt	.L29
 243:lvgl/src/misc/lv_area.c ****         is_on_rect = true;
 617              		.loc 1 243 57 discriminator 2 view .LVU174
 618 0020 B5F90260 		ldrsh	r6, [r5, #2]
 243:lvgl/src/misc/lv_area.c ****         is_on_rect = true;
 619              		.loc 1 243 67 discriminator 2 view .LVU175
 620 0024 B4F902E0 		ldrsh	lr, [r4, #2]
 243:lvgl/src/misc/lv_area.c ****         is_on_rect = true;
 621              		.loc 1 243 49 discriminator 2 view .LVU176
 622 0028 7645     		cmp	r6, lr
 623 002a C0F2AA80 		blt	.L30
 243:lvgl/src/misc/lv_area.c ****         is_on_rect = true;
 624              		.loc 1 243 88 discriminator 3 view .LVU177
 625 002e B4F90610 		ldrsh	r1, [r4, #6]
 243:lvgl/src/misc/lv_area.c ****         is_on_rect = true;
 626              		.loc 1 243 72 discriminator 3 view .LVU178
ARM GAS  C:\Users\OSD\AppData\Local\Temp\ccx0d5Nb.s 			page 27


 627 0032 8E42     		cmp	r6, r1
 628 0034 00F3A780 		bgt	.L31
 244:lvgl/src/misc/lv_area.c ****     }
 629              		.loc 1 244 9 is_stmt 1 view .LVU179
 630              	.LVL49:
 246:lvgl/src/misc/lv_area.c ****         return false;
 631              		.loc 1 246 5 view .LVU180
 249:lvgl/src/misc/lv_area.c ****         /*No radius, it is within the rectangle*/
 632              		.loc 1 249 5 view .LVU181
 249:lvgl/src/misc/lv_area.c ****         /*No radius, it is within the rectangle*/
 633              		.loc 1 249 7 is_stmt 0 view .LVU182
 634 0038 002A     		cmp	r2, #0
 635 003a 40F3A680 		ble	.L32
 253:lvgl/src/misc/lv_area.c ****     lv_coord_t h = lv_area_get_height(a_p) / 2;
 636              		.loc 1 253 5 is_stmt 1 view .LVU183
 637              	.LVL50:
 638              	.LBB126:
 639              	.LBI126:
 123:lvgl/src/misc/lv_area.h **** {
 640              		.loc 2 123 26 view .LVU184
 641              	.LBB127:
 125:lvgl/src/misc/lv_area.h **** }
 642              		.loc 2 125 5 view .LVU185
 125:lvgl/src/misc/lv_area.h **** }
 643              		.loc 2 125 31 is_stmt 0 view .LVU186
 644 003e 9BB2     		uxth	r3, r3
 125:lvgl/src/misc/lv_area.h **** }
 645              		.loc 2 125 44 view .LVU187
 646 0040 1FFA80FC 		uxth	ip, r0
 125:lvgl/src/misc/lv_area.h **** }
 647              		.loc 2 125 36 view .LVU188
 648 0044 A3EB0C03 		sub	r3, r3, ip
 649 0048 9BB2     		uxth	r3, r3
 125:lvgl/src/misc/lv_area.h **** }
 650              		.loc 2 125 49 view .LVU189
 651 004a 0133     		adds	r3, r3, #1
 125:lvgl/src/misc/lv_area.h **** }
 652              		.loc 2 125 12 view .LVU190
 653 004c 1BB2     		sxth	r3, r3
 654              	.LVL51:
 125:lvgl/src/misc/lv_area.h **** }
 655              		.loc 2 125 12 view .LVU191
 656              	.LBE127:
 657              	.LBE126:
 253:lvgl/src/misc/lv_area.c ****     lv_coord_t h = lv_area_get_height(a_p) / 2;
 658              		.loc 1 253 16 view .LVU192
 659 004e 002B     		cmp	r3, #0
 660 0050 35DB     		blt	.L35
 661              	.L22:
 662 0052 5B10     		asrs	r3, r3, #1
 663              	.LVL52:
 254:lvgl/src/misc/lv_area.c ****     lv_coord_t max_radius = LV_MIN(w, h);
 664              		.loc 1 254 5 is_stmt 1 view .LVU193
 665              	.LBB128:
 666              	.LBI128:
 133:lvgl/src/misc/lv_area.h **** {
 667              		.loc 2 133 26 view .LVU194
ARM GAS  C:\Users\OSD\AppData\Local\Temp\ccx0d5Nb.s 			page 28


 668              	.LBB129:
 669              		.loc 2 135 5 view .LVU195
 670              		.loc 2 135 31 is_stmt 0 view .LVU196
 671 0054 89B2     		uxth	r1, r1
 672              		.loc 2 135 44 view .LVU197
 673 0056 1FFA8EFE 		uxth	lr, lr
 674              		.loc 2 135 36 view .LVU198
 675 005a A1EB0E01 		sub	r1, r1, lr
 676 005e 89B2     		uxth	r1, r1
 677              		.loc 2 135 49 view .LVU199
 678 0060 0131     		adds	r1, r1, #1
 679              		.loc 2 135 12 view .LVU200
 680 0062 09B2     		sxth	r1, r1
 681              	.LVL53:
 682              		.loc 2 135 12 view .LVU201
 683              	.LBE129:
 684              	.LBE128:
 254:lvgl/src/misc/lv_area.c ****     lv_coord_t max_radius = LV_MIN(w, h);
 685              		.loc 1 254 16 view .LVU202
 686 0064 0029     		cmp	r1, #0
 687 0066 2CDB     		blt	.L36
 688              	.L23:
 689 0068 4910     		asrs	r1, r1, #1
 690              	.LVL54:
 255:lvgl/src/misc/lv_area.c ****     if(radius > max_radius)
 691              		.loc 1 255 5 is_stmt 1 view .LVU203
 255:lvgl/src/misc/lv_area.c ****     if(radius > max_radius)
 692              		.loc 1 255 16 is_stmt 0 view .LVU204
 693 006a 8B42     		cmp	r3, r1
 694 006c A8BF     		it	ge
 695 006e 0B46     		movge	r3, r1
 696              	.LVL55:
 255:lvgl/src/misc/lv_area.c ****     if(radius > max_radius)
 697              		.loc 1 255 16 view .LVU205
 698 0070 1EB2     		sxth	r6, r3
 699              	.LVL56:
 256:lvgl/src/misc/lv_area.c ****         radius = max_radius;
 700              		.loc 1 256 5 is_stmt 1 view .LVU206
 256:lvgl/src/misc/lv_area.c ****         radius = max_radius;
 701              		.loc 1 256 7 is_stmt 0 view .LVU207
 702 0072 B242     		cmp	r2, r6
 703 0074 00DC     		bgt	.L24
 704 0076 1646     		mov	r6, r2
 705              	.LVL57:
 706              	.L24:
 260:lvgl/src/misc/lv_area.c ****     /*Top left*/
 707              		.loc 1 260 5 is_stmt 1 view .LVU208
 262:lvgl/src/misc/lv_area.c ****     corner_area.x2 = a_p->x1 + radius;
 708              		.loc 1 262 5 view .LVU209
 262:lvgl/src/misc/lv_area.c ****     corner_area.x2 = a_p->x1 + radius;
 709              		.loc 1 262 20 is_stmt 0 view .LVU210
 710 0078 ADF80000 		strh	r0, [sp]	@ movhi
 263:lvgl/src/misc/lv_area.c ****     corner_area.y1 = a_p->y1;
 711              		.loc 1 263 5 is_stmt 1 view .LVU211
 263:lvgl/src/misc/lv_area.c ****     corner_area.y1 = a_p->y1;
 712              		.loc 1 263 30 is_stmt 0 view .LVU212
 713 007c B6B2     		uxth	r6, r6
ARM GAS  C:\Users\OSD\AppData\Local\Temp\ccx0d5Nb.s 			page 29


 263:lvgl/src/misc/lv_area.c ****     corner_area.y1 = a_p->y1;
 714              		.loc 1 263 30 view .LVU213
 715 007e B444     		add	ip, ip, r6
 263:lvgl/src/misc/lv_area.c ****     corner_area.y1 = a_p->y1;
 716              		.loc 1 263 20 view .LVU214
 717 0080 ADF804C0 		strh	ip, [sp, #4]	@ movhi
 264:lvgl/src/misc/lv_area.c ****     corner_area.y2 = a_p->y1 + radius;
 718              		.loc 1 264 5 is_stmt 1 view .LVU215
 264:lvgl/src/misc/lv_area.c ****     corner_area.y2 = a_p->y1 + radius;
 719              		.loc 1 264 25 is_stmt 0 view .LVU216
 720 0084 B4F90230 		ldrsh	r3, [r4, #2]
 721              	.LVL58:
 264:lvgl/src/misc/lv_area.c ****     corner_area.y2 = a_p->y1 + radius;
 722              		.loc 1 264 20 view .LVU217
 723 0088 ADF80230 		strh	r3, [sp, #2]	@ movhi
 265:lvgl/src/misc/lv_area.c ****     if(_lv_area_is_point_on(&corner_area, p_p, 0)) {
 724              		.loc 1 265 5 is_stmt 1 view .LVU218
 265:lvgl/src/misc/lv_area.c ****     if(_lv_area_is_point_on(&corner_area, p_p, 0)) {
 725              		.loc 1 265 30 is_stmt 0 view .LVU219
 726 008c 16FA83F3 		uxtah	r3, r6, r3
 265:lvgl/src/misc/lv_area.c ****     if(_lv_area_is_point_on(&corner_area, p_p, 0)) {
 727              		.loc 1 265 20 view .LVU220
 728 0090 ADF80630 		strh	r3, [sp, #6]	@ movhi
 266:lvgl/src/misc/lv_area.c ****         corner_area.x2 += radius;
 729              		.loc 1 266 5 is_stmt 1 view .LVU221
 266:lvgl/src/misc/lv_area.c ****         corner_area.x2 += radius;
 730              		.loc 1 266 8 is_stmt 0 view .LVU222
 731 0094 0022     		movs	r2, #0
 732 0096 2946     		mov	r1, r5
 733              	.LVL59:
 266:lvgl/src/misc/lv_area.c ****         corner_area.x2 += radius;
 734              		.loc 1 266 8 view .LVU223
 735 0098 6846     		mov	r0, sp
 736 009a FFF7FEFF 		bl	_lv_area_is_point_on
 737              	.LVL60:
 266:lvgl/src/misc/lv_area.c ****         corner_area.x2 += radius;
 738              		.loc 1 266 7 view .LVU224
 739 009e 90B1     		cbz	r0, .L25
 267:lvgl/src/misc/lv_area.c ****         corner_area.y2 += radius;
 740              		.loc 1 267 9 is_stmt 1 view .LVU225
 267:lvgl/src/misc/lv_area.c ****         corner_area.y2 += radius;
 741              		.loc 1 267 24 is_stmt 0 view .LVU226
 742 00a0 BDF80430 		ldrh	r3, [sp, #4]
 743 00a4 3344     		add	r3, r3, r6
 744 00a6 ADF80430 		strh	r3, [sp, #4]	@ movhi
 268:lvgl/src/misc/lv_area.c ****         return lv_point_within_circle(&corner_area, p_p);
 745              		.loc 1 268 9 is_stmt 1 view .LVU227
 268:lvgl/src/misc/lv_area.c ****         return lv_point_within_circle(&corner_area, p_p);
 746              		.loc 1 268 24 is_stmt 0 view .LVU228
 747 00aa BDF80630 		ldrh	r3, [sp, #6]
 748 00ae 1E44     		add	r6, r6, r3
 749              	.LVL61:
 268:lvgl/src/misc/lv_area.c ****         return lv_point_within_circle(&corner_area, p_p);
 750              		.loc 1 268 24 view .LVU229
 751 00b0 ADF80660 		strh	r6, [sp, #6]	@ movhi
 269:lvgl/src/misc/lv_area.c ****     }
 752              		.loc 1 269 9 is_stmt 1 view .LVU230
ARM GAS  C:\Users\OSD\AppData\Local\Temp\ccx0d5Nb.s 			page 30


 269:lvgl/src/misc/lv_area.c ****     }
 753              		.loc 1 269 16 is_stmt 0 view .LVU231
 754 00b4 2946     		mov	r1, r5
 755 00b6 6846     		mov	r0, sp
 756 00b8 FFF7FEFF 		bl	lv_point_within_circle
 757              	.LVL62:
 758 00bc 5DE0     		b	.L21
 759              	.LVL63:
 760              	.L35:
 253:lvgl/src/misc/lv_area.c ****     lv_coord_t h = lv_area_get_height(a_p) / 2;
 761              		.loc 1 253 16 view .LVU232
 762 00be 0133     		adds	r3, r3, #1
 763 00c0 C7E7     		b	.L22
 764              	.LVL64:
 765              	.L36:
 254:lvgl/src/misc/lv_area.c ****     lv_coord_t max_radius = LV_MIN(w, h);
 766              		.loc 1 254 16 view .LVU233
 767 00c2 0131     		adds	r1, r1, #1
 768 00c4 D0E7     		b	.L23
 769              	.LVL65:
 770              	.L25:
 272:lvgl/src/misc/lv_area.c ****     corner_area.y2 = a_p->y2;
 771              		.loc 1 272 5 is_stmt 1 view .LVU234
 272:lvgl/src/misc/lv_area.c ****     corner_area.y2 = a_p->y2;
 772              		.loc 1 272 25 is_stmt 0 view .LVU235
 773 00c6 B4F90620 		ldrsh	r2, [r4, #6]
 774 00ca 93B2     		uxth	r3, r2
 272:lvgl/src/misc/lv_area.c ****     corner_area.y2 = a_p->y2;
 775              		.loc 1 272 30 view .LVU236
 776 00cc 9B1B     		subs	r3, r3, r6
 272:lvgl/src/misc/lv_area.c ****     corner_area.y2 = a_p->y2;
 777              		.loc 1 272 20 view .LVU237
 778 00ce ADF80230 		strh	r3, [sp, #2]	@ movhi
 273:lvgl/src/misc/lv_area.c ****     if(_lv_area_is_point_on(&corner_area, p_p, 0)) {
 779              		.loc 1 273 5 is_stmt 1 view .LVU238
 273:lvgl/src/misc/lv_area.c ****     if(_lv_area_is_point_on(&corner_area, p_p, 0)) {
 780              		.loc 1 273 20 is_stmt 0 view .LVU239
 781 00d2 ADF80620 		strh	r2, [sp, #6]	@ movhi
 274:lvgl/src/misc/lv_area.c ****         corner_area.x2 += radius;
 782              		.loc 1 274 5 is_stmt 1 view .LVU240
 274:lvgl/src/misc/lv_area.c ****         corner_area.x2 += radius;
 783              		.loc 1 274 8 is_stmt 0 view .LVU241
 784 00d6 0022     		movs	r2, #0
 785 00d8 2946     		mov	r1, r5
 786 00da 6846     		mov	r0, sp
 787 00dc FFF7FEFF 		bl	_lv_area_is_point_on
 788              	.LVL66:
 274:lvgl/src/misc/lv_area.c ****         corner_area.x2 += radius;
 789              		.loc 1 274 7 view .LVU242
 790 00e0 70B1     		cbz	r0, .L26
 275:lvgl/src/misc/lv_area.c ****         corner_area.y1 -= radius;
 791              		.loc 1 275 9 is_stmt 1 view .LVU243
 275:lvgl/src/misc/lv_area.c ****         corner_area.y1 -= radius;
 792              		.loc 1 275 24 is_stmt 0 view .LVU244
 793 00e2 BDF80430 		ldrh	r3, [sp, #4]
 794 00e6 3344     		add	r3, r3, r6
 795 00e8 ADF80430 		strh	r3, [sp, #4]	@ movhi
ARM GAS  C:\Users\OSD\AppData\Local\Temp\ccx0d5Nb.s 			page 31


 276:lvgl/src/misc/lv_area.c ****         return lv_point_within_circle(&corner_area, p_p);
 796              		.loc 1 276 9 is_stmt 1 view .LVU245
 276:lvgl/src/misc/lv_area.c ****         return lv_point_within_circle(&corner_area, p_p);
 797              		.loc 1 276 24 is_stmt 0 view .LVU246
 798 00ec BDF80230 		ldrh	r3, [sp, #2]
 799 00f0 9E1B     		subs	r6, r3, r6
 800              	.LVL67:
 276:lvgl/src/misc/lv_area.c ****         return lv_point_within_circle(&corner_area, p_p);
 801              		.loc 1 276 24 view .LVU247
 802 00f2 ADF80260 		strh	r6, [sp, #2]	@ movhi
 277:lvgl/src/misc/lv_area.c ****     }
 803              		.loc 1 277 9 is_stmt 1 view .LVU248
 277:lvgl/src/misc/lv_area.c ****     }
 804              		.loc 1 277 16 is_stmt 0 view .LVU249
 805 00f6 2946     		mov	r1, r5
 806 00f8 6846     		mov	r0, sp
 807 00fa FFF7FEFF 		bl	lv_point_within_circle
 808              	.LVL68:
 809 00fe 3CE0     		b	.L21
 810              	.LVL69:
 811              	.L26:
 280:lvgl/src/misc/lv_area.c ****     corner_area.x2 = a_p->x2;
 812              		.loc 1 280 5 is_stmt 1 view .LVU250
 280:lvgl/src/misc/lv_area.c ****     corner_area.x2 = a_p->x2;
 813              		.loc 1 280 25 is_stmt 0 view .LVU251
 814 0100 B4F90420 		ldrsh	r2, [r4, #4]
 815 0104 93B2     		uxth	r3, r2
 280:lvgl/src/misc/lv_area.c ****     corner_area.x2 = a_p->x2;
 816              		.loc 1 280 30 view .LVU252
 817 0106 9B1B     		subs	r3, r3, r6
 280:lvgl/src/misc/lv_area.c ****     corner_area.x2 = a_p->x2;
 818              		.loc 1 280 20 view .LVU253
 819 0108 ADF80030 		strh	r3, [sp]	@ movhi
 281:lvgl/src/misc/lv_area.c ****     if(_lv_area_is_point_on(&corner_area, p_p, 0)) {
 820              		.loc 1 281 5 is_stmt 1 view .LVU254
 281:lvgl/src/misc/lv_area.c ****     if(_lv_area_is_point_on(&corner_area, p_p, 0)) {
 821              		.loc 1 281 20 is_stmt 0 view .LVU255
 822 010c ADF80420 		strh	r2, [sp, #4]	@ movhi
 282:lvgl/src/misc/lv_area.c ****         corner_area.x1 -= radius;
 823              		.loc 1 282 5 is_stmt 1 view .LVU256
 282:lvgl/src/misc/lv_area.c ****         corner_area.x1 -= radius;
 824              		.loc 1 282 8 is_stmt 0 view .LVU257
 825 0110 0022     		movs	r2, #0
 826 0112 2946     		mov	r1, r5
 827 0114 6846     		mov	r0, sp
 828 0116 FFF7FEFF 		bl	_lv_area_is_point_on
 829              	.LVL70:
 282:lvgl/src/misc/lv_area.c ****         corner_area.x1 -= radius;
 830              		.loc 1 282 7 view .LVU258
 831 011a 70B1     		cbz	r0, .L27
 283:lvgl/src/misc/lv_area.c ****         corner_area.y1 -= radius;
 832              		.loc 1 283 9 is_stmt 1 view .LVU259
 283:lvgl/src/misc/lv_area.c ****         corner_area.y1 -= radius;
 833              		.loc 1 283 24 is_stmt 0 view .LVU260
 834 011c BDF80030 		ldrh	r3, [sp]
 835 0120 9B1B     		subs	r3, r3, r6
 836 0122 ADF80030 		strh	r3, [sp]	@ movhi
ARM GAS  C:\Users\OSD\AppData\Local\Temp\ccx0d5Nb.s 			page 32


 284:lvgl/src/misc/lv_area.c ****         return lv_point_within_circle(&corner_area, p_p);
 837              		.loc 1 284 9 is_stmt 1 view .LVU261
 284:lvgl/src/misc/lv_area.c ****         return lv_point_within_circle(&corner_area, p_p);
 838              		.loc 1 284 24 is_stmt 0 view .LVU262
 839 0126 BDF80230 		ldrh	r3, [sp, #2]
 840 012a 9E1B     		subs	r6, r3, r6
 841              	.LVL71:
 284:lvgl/src/misc/lv_area.c ****         return lv_point_within_circle(&corner_area, p_p);
 842              		.loc 1 284 24 view .LVU263
 843 012c ADF80260 		strh	r6, [sp, #2]	@ movhi
 285:lvgl/src/misc/lv_area.c ****     }
 844              		.loc 1 285 9 is_stmt 1 view .LVU264
 285:lvgl/src/misc/lv_area.c ****     }
 845              		.loc 1 285 16 is_stmt 0 view .LVU265
 846 0130 2946     		mov	r1, r5
 847 0132 6846     		mov	r0, sp
 848 0134 FFF7FEFF 		bl	lv_point_within_circle
 849              	.LVL72:
 850 0138 1FE0     		b	.L21
 851              	.LVL73:
 852              	.L27:
 288:lvgl/src/misc/lv_area.c ****     corner_area.y2 = a_p->y1 + radius;
 853              		.loc 1 288 5 is_stmt 1 view .LVU266
 288:lvgl/src/misc/lv_area.c ****     corner_area.y2 = a_p->y1 + radius;
 854              		.loc 1 288 25 is_stmt 0 view .LVU267
 855 013a B4F90230 		ldrsh	r3, [r4, #2]
 288:lvgl/src/misc/lv_area.c ****     corner_area.y2 = a_p->y1 + radius;
 856              		.loc 1 288 20 view .LVU268
 857 013e ADF80230 		strh	r3, [sp, #2]	@ movhi
 289:lvgl/src/misc/lv_area.c ****     if(_lv_area_is_point_on(&corner_area, p_p, 0)) {
 858              		.loc 1 289 5 is_stmt 1 view .LVU269
 289:lvgl/src/misc/lv_area.c ****     if(_lv_area_is_point_on(&corner_area, p_p, 0)) {
 859              		.loc 1 289 30 is_stmt 0 view .LVU270
 860 0142 16FA83F3 		uxtah	r3, r6, r3
 289:lvgl/src/misc/lv_area.c ****     if(_lv_area_is_point_on(&corner_area, p_p, 0)) {
 861              		.loc 1 289 20 view .LVU271
 862 0146 ADF80630 		strh	r3, [sp, #6]	@ movhi
 290:lvgl/src/misc/lv_area.c ****         corner_area.x1 -= radius;
 863              		.loc 1 290 5 is_stmt 1 view .LVU272
 290:lvgl/src/misc/lv_area.c ****         corner_area.x1 -= radius;
 864              		.loc 1 290 8 is_stmt 0 view .LVU273
 865 014a 0022     		movs	r2, #0
 866 014c 2946     		mov	r1, r5
 867 014e 6846     		mov	r0, sp
 868 0150 FFF7FEFF 		bl	_lv_area_is_point_on
 869              	.LVL74:
 290:lvgl/src/misc/lv_area.c ****         corner_area.x1 -= radius;
 870              		.loc 1 290 7 view .LVU274
 871 0154 08B9     		cbnz	r0, .L37
 296:lvgl/src/misc/lv_area.c **** }
 872              		.loc 1 296 12 view .LVU275
 873 0156 0120     		movs	r0, #1
 874 0158 0FE0     		b	.L21
 875              	.L37:
 291:lvgl/src/misc/lv_area.c ****         corner_area.y2 += radius;
 876              		.loc 1 291 9 is_stmt 1 view .LVU276
 291:lvgl/src/misc/lv_area.c ****         corner_area.y2 += radius;
ARM GAS  C:\Users\OSD\AppData\Local\Temp\ccx0d5Nb.s 			page 33


 877              		.loc 1 291 24 is_stmt 0 view .LVU277
 878 015a BDF80030 		ldrh	r3, [sp]
 879 015e 9B1B     		subs	r3, r3, r6
 880 0160 ADF80030 		strh	r3, [sp]	@ movhi
 292:lvgl/src/misc/lv_area.c ****         return lv_point_within_circle(&corner_area, p_p);
 881              		.loc 1 292 9 is_stmt 1 view .LVU278
 292:lvgl/src/misc/lv_area.c ****         return lv_point_within_circle(&corner_area, p_p);
 882              		.loc 1 292 24 is_stmt 0 view .LVU279
 883 0164 BDF80630 		ldrh	r3, [sp, #6]
 884 0168 1E44     		add	r6, r6, r3
 885              	.LVL75:
 292:lvgl/src/misc/lv_area.c ****         return lv_point_within_circle(&corner_area, p_p);
 886              		.loc 1 292 24 view .LVU280
 887 016a ADF80660 		strh	r6, [sp, #6]	@ movhi
 293:lvgl/src/misc/lv_area.c ****     }
 888              		.loc 1 293 9 is_stmt 1 view .LVU281
 293:lvgl/src/misc/lv_area.c ****     }
 889              		.loc 1 293 16 is_stmt 0 view .LVU282
 890 016e 2946     		mov	r1, r5
 891 0170 6846     		mov	r0, sp
 892 0172 FFF7FEFF 		bl	lv_point_within_circle
 893              	.LVL76:
 894 0176 00E0     		b	.L21
 895              	.LVL77:
 896              	.L28:
 247:lvgl/src/misc/lv_area.c ****     /*Now handle potential rounded rectangles*/
 897              		.loc 1 247 16 view .LVU283
 898 0178 0020     		movs	r0, #0
 899              	.LVL78:
 900              	.L21:
 297:lvgl/src/misc/lv_area.c **** 
 901              		.loc 1 297 1 view .LVU284
 902 017a 02B0     		add	sp, sp, #8
 903              		.cfi_remember_state
 904              		.cfi_def_cfa_offset 16
 905              		@ sp needed
 906 017c 70BD     		pop	{r4, r5, r6, pc}
 907              	.LVL79:
 908              	.L29:
 909              		.cfi_restore_state
 247:lvgl/src/misc/lv_area.c ****     /*Now handle potential rounded rectangles*/
 910              		.loc 1 247 16 view .LVU285
 911 017e 0020     		movs	r0, #0
 912 0180 FBE7     		b	.L21
 913              	.L30:
 914 0182 0020     		movs	r0, #0
 915 0184 F9E7     		b	.L21
 916              	.L31:
 917 0186 0020     		movs	r0, #0
 918 0188 F7E7     		b	.L21
 919              	.LVL80:
 920              	.L32:
 251:lvgl/src/misc/lv_area.c ****     }
 921              		.loc 1 251 16 view .LVU286
 922 018a 0120     		movs	r0, #1
 923 018c F5E7     		b	.L21
 924              		.cfi_endproc
ARM GAS  C:\Users\OSD\AppData\Local\Temp\ccx0d5Nb.s 			page 34


 925              	.LFE15:
 927              		.section	.text._lv_area_is_on,"ax",%progbits
 928              		.align	1
 929              		.global	_lv_area_is_on
 930              		.syntax unified
 931              		.thumb
 932              		.thumb_func
 934              	_lv_area_is_on:
 935              	.LVL81:
 936              	.LFB16:
 306:lvgl/src/misc/lv_area.c ****     if((a1_p->x1 <= a2_p->x2) && (a1_p->x2 >= a2_p->x1) && (a1_p->y1 <= a2_p->y2) && (a1_p->y2 >= a
 937              		.loc 1 306 1 is_stmt 1 view -0
 938              		.cfi_startproc
 939              		@ args = 0, pretend = 0, frame = 0
 940              		@ frame_needed = 0, uses_anonymous_args = 0
 941              		@ link register save eliminated.
 307:lvgl/src/misc/lv_area.c ****         return true;
 942              		.loc 1 307 5 view .LVU288
 307:lvgl/src/misc/lv_area.c ****         return true;
 943              		.loc 1 307 13 is_stmt 0 view .LVU289
 944 0000 B0F90020 		ldrsh	r2, [r0]
 307:lvgl/src/misc/lv_area.c ****         return true;
 945              		.loc 1 307 25 view .LVU290
 946 0004 B1F90430 		ldrsh	r3, [r1, #4]
 307:lvgl/src/misc/lv_area.c ****         return true;
 947              		.loc 1 307 7 view .LVU291
 948 0008 9A42     		cmp	r2, r3
 949 000a 13DC     		bgt	.L40
 307:lvgl/src/misc/lv_area.c ****         return true;
 950              		.loc 1 307 39 discriminator 1 view .LVU292
 951 000c B0F90420 		ldrsh	r2, [r0, #4]
 307:lvgl/src/misc/lv_area.c ****         return true;
 952              		.loc 1 307 51 discriminator 1 view .LVU293
 953 0010 B1F90030 		ldrsh	r3, [r1]
 307:lvgl/src/misc/lv_area.c ****         return true;
 954              		.loc 1 307 31 discriminator 1 view .LVU294
 955 0014 9A42     		cmp	r2, r3
 956 0016 0FDB     		blt	.L41
 307:lvgl/src/misc/lv_area.c ****         return true;
 957              		.loc 1 307 65 discriminator 2 view .LVU295
 958 0018 B0F90220 		ldrsh	r2, [r0, #2]
 307:lvgl/src/misc/lv_area.c ****         return true;
 959              		.loc 1 307 77 discriminator 2 view .LVU296
 960 001c B1F90630 		ldrsh	r3, [r1, #6]
 307:lvgl/src/misc/lv_area.c ****         return true;
 961              		.loc 1 307 57 discriminator 2 view .LVU297
 962 0020 9A42     		cmp	r2, r3
 963 0022 0BDC     		bgt	.L42
 307:lvgl/src/misc/lv_area.c ****         return true;
 964              		.loc 1 307 91 discriminator 3 view .LVU298
 965 0024 B0F90620 		ldrsh	r2, [r0, #6]
 307:lvgl/src/misc/lv_area.c ****         return true;
 966              		.loc 1 307 103 discriminator 3 view .LVU299
 967 0028 B1F90230 		ldrsh	r3, [r1, #2]
 307:lvgl/src/misc/lv_area.c ****         return true;
 968              		.loc 1 307 83 discriminator 3 view .LVU300
 969 002c 9A42     		cmp	r2, r3
ARM GAS  C:\Users\OSD\AppData\Local\Temp\ccx0d5Nb.s 			page 35


 970 002e 07DA     		bge	.L43
 311:lvgl/src/misc/lv_area.c ****     }
 971              		.loc 1 311 16 view .LVU301
 972 0030 0020     		movs	r0, #0
 973              	.LVL82:
 311:lvgl/src/misc/lv_area.c ****     }
 974              		.loc 1 311 16 view .LVU302
 975 0032 7047     		bx	lr
 976              	.LVL83:
 977              	.L40:
 311:lvgl/src/misc/lv_area.c ****     }
 978              		.loc 1 311 16 view .LVU303
 979 0034 0020     		movs	r0, #0
 980              	.LVL84:
 311:lvgl/src/misc/lv_area.c ****     }
 981              		.loc 1 311 16 view .LVU304
 982 0036 7047     		bx	lr
 983              	.LVL85:
 984              	.L41:
 311:lvgl/src/misc/lv_area.c ****     }
 985              		.loc 1 311 16 view .LVU305
 986 0038 0020     		movs	r0, #0
 987              	.LVL86:
 311:lvgl/src/misc/lv_area.c ****     }
 988              		.loc 1 311 16 view .LVU306
 989 003a 7047     		bx	lr
 990              	.LVL87:
 991              	.L42:
 311:lvgl/src/misc/lv_area.c ****     }
 992              		.loc 1 311 16 view .LVU307
 993 003c 0020     		movs	r0, #0
 994              	.LVL88:
 311:lvgl/src/misc/lv_area.c ****     }
 995              		.loc 1 311 16 view .LVU308
 996 003e 7047     		bx	lr
 997              	.LVL89:
 998              	.L43:
 308:lvgl/src/misc/lv_area.c ****     }
 999              		.loc 1 308 16 view .LVU309
 1000 0040 0120     		movs	r0, #1
 1001              	.LVL90:
 313:lvgl/src/misc/lv_area.c **** 
 1002              		.loc 1 313 1 view .LVU310
 1003 0042 7047     		bx	lr
 1004              		.cfi_endproc
 1005              	.LFE16:
 1007              		.section	.text._lv_area_is_in,"ax",%progbits
 1008              		.align	1
 1009              		.global	_lv_area_is_in
 1010              		.syntax unified
 1011              		.thumb
 1012              		.thumb_func
 1014              	_lv_area_is_in:
 1015              	.LVL91:
 1016              	.LFB17:
 323:lvgl/src/misc/lv_area.c ****     bool is_in = false;
 1017              		.loc 1 323 1 is_stmt 1 view -0
ARM GAS  C:\Users\OSD\AppData\Local\Temp\ccx0d5Nb.s 			page 36


 1018              		.cfi_startproc
 1019              		@ args = 0, pretend = 0, frame = 8
 1020              		@ frame_needed = 0, uses_anonymous_args = 0
 323:lvgl/src/misc/lv_area.c ****     bool is_in = false;
 1021              		.loc 1 323 1 is_stmt 0 view .LVU312
 1022 0000 2DE9F041 		push	{r4, r5, r6, r7, r8, lr}
 1023              		.cfi_def_cfa_offset 24
 1024              		.cfi_offset 4, -24
 1025              		.cfi_offset 5, -20
 1026              		.cfi_offset 6, -16
 1027              		.cfi_offset 7, -12
 1028              		.cfi_offset 8, -8
 1029              		.cfi_offset 14, -4
 1030 0004 82B0     		sub	sp, sp, #8
 1031              		.cfi_def_cfa_offset 32
 1032 0006 0C46     		mov	r4, r1
 324:lvgl/src/misc/lv_area.c **** 
 1033              		.loc 1 324 5 is_stmt 1 view .LVU313
 1034              	.LVL92:
 326:lvgl/src/misc/lv_area.c ****        ain_p->y2 <= aholder_p->y2) {
 1035              		.loc 1 326 5 view .LVU314
 326:lvgl/src/misc/lv_area.c ****        ain_p->y2 <= aholder_p->y2) {
 1036              		.loc 1 326 13 is_stmt 0 view .LVU315
 1037 0008 B0F90030 		ldrsh	r3, [r0]
 326:lvgl/src/misc/lv_area.c ****        ain_p->y2 <= aholder_p->y2) {
 1038              		.loc 1 326 30 view .LVU316
 1039 000c B1F90010 		ldrsh	r1, [r1]
 1040              	.LVL93:
 326:lvgl/src/misc/lv_area.c ****        ain_p->y2 <= aholder_p->y2) {
 1041              		.loc 1 326 7 view .LVU317
 1042 0010 8B42     		cmp	r3, r1
 1043 0012 40DB     		blt	.L46
 1044 0014 0646     		mov	r6, r0
 1045 0016 1546     		mov	r5, r2
 326:lvgl/src/misc/lv_area.c ****        ain_p->y2 <= aholder_p->y2) {
 1046              		.loc 1 326 43 discriminator 1 view .LVU318
 1047 0018 B0F90220 		ldrsh	r2, [r0, #2]
 1048              	.LVL94:
 326:lvgl/src/misc/lv_area.c ****        ain_p->y2 <= aholder_p->y2) {
 1049              		.loc 1 326 60 discriminator 1 view .LVU319
 1050 001c B4F90210 		ldrsh	r1, [r4, #2]
 326:lvgl/src/misc/lv_area.c ****        ain_p->y2 <= aholder_p->y2) {
 1051              		.loc 1 326 35 discriminator 1 view .LVU320
 1052 0020 8A42     		cmp	r2, r1
 1053 0022 3CDB     		blt	.L47
 326:lvgl/src/misc/lv_area.c ****        ain_p->y2 <= aholder_p->y2) {
 1054              		.loc 1 326 73 discriminator 2 view .LVU321
 1055 0024 B0F90470 		ldrsh	r7, [r0, #4]
 326:lvgl/src/misc/lv_area.c ****        ain_p->y2 <= aholder_p->y2) {
 1056              		.loc 1 326 90 discriminator 2 view .LVU322
 1057 0028 B4F90410 		ldrsh	r1, [r4, #4]
 326:lvgl/src/misc/lv_area.c ****        ain_p->y2 <= aholder_p->y2) {
 1058              		.loc 1 326 65 discriminator 2 view .LVU323
 1059 002c 8F42     		cmp	r7, r1
 1060 002e 38DC     		bgt	.L48
 327:lvgl/src/misc/lv_area.c ****         is_in = true;
 1061              		.loc 1 327 13 discriminator 3 view .LVU324
ARM GAS  C:\Users\OSD\AppData\Local\Temp\ccx0d5Nb.s 			page 37


 1062 0030 B0F90680 		ldrsh	r8, [r0, #6]
 327:lvgl/src/misc/lv_area.c ****         is_in = true;
 1063              		.loc 1 327 30 discriminator 3 view .LVU325
 1064 0034 B4F90610 		ldrsh	r1, [r4, #6]
 326:lvgl/src/misc/lv_area.c ****        ain_p->y2 <= aholder_p->y2) {
 1065              		.loc 1 326 95 discriminator 3 view .LVU326
 1066 0038 8845     		cmp	r8, r1
 1067 003a 34DC     		bgt	.L49
 328:lvgl/src/misc/lv_area.c ****     }
 1068              		.loc 1 328 9 is_stmt 1 view .LVU327
 1069              	.LVL95:
 331:lvgl/src/misc/lv_area.c ****     if(radius == 0) return true;
 1070              		.loc 1 331 5 view .LVU328
 332:lvgl/src/misc/lv_area.c **** 
 1071              		.loc 1 332 5 view .LVU329
 332:lvgl/src/misc/lv_area.c **** 
 1072              		.loc 1 332 7 is_stmt 0 view .LVU330
 1073 003c 0DB9     		cbnz	r5, .L52
 332:lvgl/src/misc/lv_area.c **** 
 1074              		.loc 1 332 28 view .LVU331
 1075 003e 0120     		movs	r0, #1
 1076              	.LVL96:
 332:lvgl/src/misc/lv_area.c **** 
 1077              		.loc 1 332 28 view .LVU332
 1078 0040 2AE0     		b	.L45
 1079              	.LVL97:
 1080              	.L52:
 335:lvgl/src/misc/lv_area.c **** 
 1081              		.loc 1 335 5 is_stmt 1 view .LVU333
 337:lvgl/src/misc/lv_area.c ****     p.y = ain_p->y1;
 1082              		.loc 1 337 5 view .LVU334
 337:lvgl/src/misc/lv_area.c ****     p.y = ain_p->y1;
 1083              		.loc 1 337 9 is_stmt 0 view .LVU335
 1084 0042 ADF80430 		strh	r3, [sp, #4]	@ movhi
 338:lvgl/src/misc/lv_area.c ****     if(_lv_area_is_point_on(aholder_p, &p, radius) == false) return false;
 1085              		.loc 1 338 5 is_stmt 1 view .LVU336
 338:lvgl/src/misc/lv_area.c ****     if(_lv_area_is_point_on(aholder_p, &p, radius) == false) return false;
 1086              		.loc 1 338 9 is_stmt 0 view .LVU337
 1087 0046 ADF80620 		strh	r2, [sp, #6]	@ movhi
 339:lvgl/src/misc/lv_area.c **** 
 1088              		.loc 1 339 5 is_stmt 1 view .LVU338
 339:lvgl/src/misc/lv_area.c **** 
 1089              		.loc 1 339 8 is_stmt 0 view .LVU339
 1090 004a 2A46     		mov	r2, r5
 1091 004c 01A9     		add	r1, sp, #4
 1092 004e 2046     		mov	r0, r4
 1093              	.LVL98:
 339:lvgl/src/misc/lv_area.c **** 
 1094              		.loc 1 339 8 view .LVU340
 1095 0050 FFF7FEFF 		bl	_lv_area_is_point_on
 1096              	.LVL99:
 339:lvgl/src/misc/lv_area.c **** 
 1097              		.loc 1 339 7 view .LVU341
 1098 0054 00B3     		cbz	r0, .L45
 341:lvgl/src/misc/lv_area.c ****     p.y = ain_p->y1;
 1099              		.loc 1 341 5 is_stmt 1 view .LVU342
 341:lvgl/src/misc/lv_area.c ****     p.y = ain_p->y1;
ARM GAS  C:\Users\OSD\AppData\Local\Temp\ccx0d5Nb.s 			page 38


 1100              		.loc 1 341 9 is_stmt 0 view .LVU343
 1101 0056 ADF80470 		strh	r7, [sp, #4]	@ movhi
 342:lvgl/src/misc/lv_area.c ****     if(_lv_area_is_point_on(aholder_p, &p, radius) == false) return false;
 1102              		.loc 1 342 5 is_stmt 1 view .LVU344
 342:lvgl/src/misc/lv_area.c ****     if(_lv_area_is_point_on(aholder_p, &p, radius) == false) return false;
 1103              		.loc 1 342 16 is_stmt 0 view .LVU345
 1104 005a B6F90230 		ldrsh	r3, [r6, #2]
 342:lvgl/src/misc/lv_area.c ****     if(_lv_area_is_point_on(aholder_p, &p, radius) == false) return false;
 1105              		.loc 1 342 9 view .LVU346
 1106 005e ADF80630 		strh	r3, [sp, #6]	@ movhi
 343:lvgl/src/misc/lv_area.c **** 
 1107              		.loc 1 343 5 is_stmt 1 view .LVU347
 343:lvgl/src/misc/lv_area.c **** 
 1108              		.loc 1 343 8 is_stmt 0 view .LVU348
 1109 0062 2A46     		mov	r2, r5
 1110 0064 01A9     		add	r1, sp, #4
 1111 0066 2046     		mov	r0, r4
 1112 0068 FFF7FEFF 		bl	_lv_area_is_point_on
 1113              	.LVL100:
 343:lvgl/src/misc/lv_area.c **** 
 1114              		.loc 1 343 7 view .LVU349
 1115 006c A0B1     		cbz	r0, .L45
 345:lvgl/src/misc/lv_area.c ****     p.y = ain_p->y2;
 1116              		.loc 1 345 5 is_stmt 1 view .LVU350
 345:lvgl/src/misc/lv_area.c ****     p.y = ain_p->y2;
 1117              		.loc 1 345 16 is_stmt 0 view .LVU351
 1118 006e B6F90030 		ldrsh	r3, [r6]
 345:lvgl/src/misc/lv_area.c ****     p.y = ain_p->y2;
 1119              		.loc 1 345 9 view .LVU352
 1120 0072 ADF80430 		strh	r3, [sp, #4]	@ movhi
 346:lvgl/src/misc/lv_area.c ****     if(_lv_area_is_point_on(aholder_p, &p, radius) == false) return false;
 1121              		.loc 1 346 5 is_stmt 1 view .LVU353
 346:lvgl/src/misc/lv_area.c ****     if(_lv_area_is_point_on(aholder_p, &p, radius) == false) return false;
 1122              		.loc 1 346 9 is_stmt 0 view .LVU354
 1123 0076 ADF80680 		strh	r8, [sp, #6]	@ movhi
 347:lvgl/src/misc/lv_area.c **** 
 1124              		.loc 1 347 5 is_stmt 1 view .LVU355
 347:lvgl/src/misc/lv_area.c **** 
 1125              		.loc 1 347 8 is_stmt 0 view .LVU356
 1126 007a 2A46     		mov	r2, r5
 1127 007c 01A9     		add	r1, sp, #4
 1128 007e 2046     		mov	r0, r4
 1129 0080 FFF7FEFF 		bl	_lv_area_is_point_on
 1130              	.LVL101:
 347:lvgl/src/misc/lv_area.c **** 
 1131              		.loc 1 347 7 view .LVU357
 1132 0084 40B1     		cbz	r0, .L45
 349:lvgl/src/misc/lv_area.c ****     p.y = ain_p->y2;
 1133              		.loc 1 349 5 is_stmt 1 view .LVU358
 349:lvgl/src/misc/lv_area.c ****     p.y = ain_p->y2;
 1134              		.loc 1 349 9 is_stmt 0 view .LVU359
 1135 0086 ADF80470 		strh	r7, [sp, #4]	@ movhi
 350:lvgl/src/misc/lv_area.c ****     if(_lv_area_is_point_on(aholder_p, &p, radius) == false) return false;
 1136              		.loc 1 350 5 is_stmt 1 view .LVU360
 351:lvgl/src/misc/lv_area.c **** 
 1137              		.loc 1 351 5 view .LVU361
 351:lvgl/src/misc/lv_area.c **** 
ARM GAS  C:\Users\OSD\AppData\Local\Temp\ccx0d5Nb.s 			page 39


 1138              		.loc 1 351 8 is_stmt 0 view .LVU362
 1139 008a 2A46     		mov	r2, r5
 1140 008c 01A9     		add	r1, sp, #4
 1141 008e 2046     		mov	r0, r4
 1142 0090 FFF7FEFF 		bl	_lv_area_is_point_on
 1143              	.LVL102:
 1144 0094 00E0     		b	.L45
 1145              	.LVL103:
 1146              	.L46:
 331:lvgl/src/misc/lv_area.c ****     if(radius == 0) return true;
 1147              		.loc 1 331 23 view .LVU363
 1148 0096 0020     		movs	r0, #0
 1149              	.LVL104:
 1150              	.L45:
 354:lvgl/src/misc/lv_area.c **** 
 1151              		.loc 1 354 1 view .LVU364
 1152 0098 02B0     		add	sp, sp, #8
 1153              		.cfi_remember_state
 1154              		.cfi_def_cfa_offset 24
 1155              		@ sp needed
 1156 009a BDE8F081 		pop	{r4, r5, r6, r7, r8, pc}
 1157              	.LVL105:
 1158              	.L47:
 1159              		.cfi_restore_state
 331:lvgl/src/misc/lv_area.c ****     if(radius == 0) return true;
 1160              		.loc 1 331 23 view .LVU365
 1161 009e 0020     		movs	r0, #0
 1162              	.LVL106:
 331:lvgl/src/misc/lv_area.c ****     if(radius == 0) return true;
 1163              		.loc 1 331 23 view .LVU366
 1164 00a0 FAE7     		b	.L45
 1165              	.LVL107:
 1166              	.L48:
 331:lvgl/src/misc/lv_area.c ****     if(radius == 0) return true;
 1167              		.loc 1 331 23 view .LVU367
 1168 00a2 0020     		movs	r0, #0
 1169              	.LVL108:
 331:lvgl/src/misc/lv_area.c ****     if(radius == 0) return true;
 1170              		.loc 1 331 23 view .LVU368
 1171 00a4 F8E7     		b	.L45
 1172              	.LVL109:
 1173              	.L49:
 331:lvgl/src/misc/lv_area.c ****     if(radius == 0) return true;
 1174              		.loc 1 331 23 view .LVU369
 1175 00a6 0020     		movs	r0, #0
 1176              	.LVL110:
 331:lvgl/src/misc/lv_area.c ****     if(radius == 0) return true;
 1177              		.loc 1 331 23 view .LVU370
 1178 00a8 F6E7     		b	.L45
 1179              		.cfi_endproc
 1180              	.LFE17:
 1182              		.section	.text._lv_area_diff,"ax",%progbits
 1183              		.align	1
 1184              		.global	_lv_area_diff
 1185              		.syntax unified
 1186              		.thumb
 1187              		.thumb_func
ARM GAS  C:\Users\OSD\AppData\Local\Temp\ccx0d5Nb.s 			page 40


 1189              	_lv_area_diff:
 1190              	.LVL111:
 1191              	.LFB13:
 154:lvgl/src/misc/lv_area.c ****     /*Areas have no common parts*/
 1192              		.loc 1 154 1 is_stmt 1 view -0
 1193              		.cfi_startproc
 1194              		@ args = 0, pretend = 0, frame = 8
 1195              		@ frame_needed = 0, uses_anonymous_args = 0
 154:lvgl/src/misc/lv_area.c ****     /*Areas have no common parts*/
 1196              		.loc 1 154 1 is_stmt 0 view .LVU372
 1197 0000 2DE9F043 		push	{r4, r5, r6, r7, r8, r9, lr}
 1198              		.cfi_def_cfa_offset 28
 1199              		.cfi_offset 4, -28
 1200              		.cfi_offset 5, -24
 1201              		.cfi_offset 6, -20
 1202              		.cfi_offset 7, -16
 1203              		.cfi_offset 8, -12
 1204              		.cfi_offset 9, -8
 1205              		.cfi_offset 14, -4
 1206 0004 83B0     		sub	sp, sp, #12
 1207              		.cfi_def_cfa_offset 40
 1208 0006 0646     		mov	r6, r0
 1209 0008 0C46     		mov	r4, r1
 1210 000a 1546     		mov	r5, r2
 156:lvgl/src/misc/lv_area.c **** 
 1211              		.loc 1 156 5 is_stmt 1 view .LVU373
 156:lvgl/src/misc/lv_area.c **** 
 1212              		.loc 1 156 9 is_stmt 0 view .LVU374
 1213 000c 1146     		mov	r1, r2
 1214              	.LVL112:
 156:lvgl/src/misc/lv_area.c **** 
 1215              		.loc 1 156 9 view .LVU375
 1216 000e 2046     		mov	r0, r4
 1217              	.LVL113:
 156:lvgl/src/misc/lv_area.c **** 
 1218              		.loc 1 156 9 view .LVU376
 1219 0010 FFF7FEFF 		bl	_lv_area_is_on
 1220              	.LVL114:
 156:lvgl/src/misc/lv_area.c **** 
 1221              		.loc 1 156 7 view .LVU377
 1222 0014 0028     		cmp	r0, #0
 1223 0016 00F0AF80 		beq	.L58
 159:lvgl/src/misc/lv_area.c **** 
 1224              		.loc 1 159 5 is_stmt 1 view .LVU378
 159:lvgl/src/misc/lv_area.c **** 
 1225              		.loc 1 159 8 is_stmt 0 view .LVU379
 1226 001a 0022     		movs	r2, #0
 1227 001c 2946     		mov	r1, r5
 1228 001e 2046     		mov	r0, r4
 1229 0020 FFF7FEFF 		bl	_lv_area_is_in
 1230              	.LVL115:
 159:lvgl/src/misc/lv_area.c **** 
 1231              		.loc 1 159 7 view .LVU380
 1232 0024 0028     		cmp	r0, #0
 1233 0026 40F0AA80 		bne	.L59
 162:lvgl/src/misc/lv_area.c **** 
 1234              		.loc 1 162 5 is_stmt 1 view .LVU381
ARM GAS  C:\Users\OSD\AppData\Local\Temp\ccx0d5Nb.s 			page 41


 1235              	.LVL116:
 165:lvgl/src/misc/lv_area.c ****     lv_coord_t a1_w = lv_area_get_width(a1_p) - 1;
 1236              		.loc 1 165 5 view .LVU382
 166:lvgl/src/misc/lv_area.c ****     lv_coord_t a1_h = lv_area_get_height(a1_p) - 1;
 1237              		.loc 1 166 5 view .LVU383
 1238              	.LBB130:
 1239              	.LBI130:
 123:lvgl/src/misc/lv_area.h **** {
 1240              		.loc 2 123 26 view .LVU384
 1241              	.LBB131:
 125:lvgl/src/misc/lv_area.h **** }
 1242              		.loc 2 125 5 view .LVU385
 125:lvgl/src/misc/lv_area.h **** }
 1243              		.loc 2 125 31 is_stmt 0 view .LVU386
 1244 002a B4F90400 		ldrsh	r0, [r4, #4]
 1245 002e 83B2     		uxth	r3, r0
 125:lvgl/src/misc/lv_area.h **** }
 1246              		.loc 2 125 44 view .LVU387
 1247 0030 B4F90070 		ldrsh	r7, [r4]
 1248 0034 BAB2     		uxth	r2, r7
 125:lvgl/src/misc/lv_area.h **** }
 1249              		.loc 2 125 36 view .LVU388
 1250 0036 9B1A     		subs	r3, r3, r2
 1251 0038 9BB2     		uxth	r3, r3
 1252              	.LVL117:
 125:lvgl/src/misc/lv_area.h **** }
 1253              		.loc 2 125 36 view .LVU389
 1254              	.LBE131:
 1255              	.LBE130:
 167:lvgl/src/misc/lv_area.c **** 
 1256              		.loc 1 167 5 is_stmt 1 view .LVU390
 1257              	.LBB132:
 1258              	.LBI132:
 133:lvgl/src/misc/lv_area.h **** {
 1259              		.loc 2 133 26 view .LVU391
 1260              	.LBB133:
 1261              		.loc 2 135 5 view .LVU392
 1262              		.loc 2 135 31 is_stmt 0 view .LVU393
 1263 003a E288     		ldrh	r2, [r4, #6]
 1264              		.loc 2 135 44 view .LVU394
 1265 003c B4F902E0 		ldrsh	lr, [r4, #2]
 1266 0040 1FFA8EFC 		uxth	ip, lr
 1267              		.loc 2 135 36 view .LVU395
 1268 0044 A2EB0C02 		sub	r2, r2, ip
 1269 0048 92B2     		uxth	r2, r2
 1270              	.LVL118:
 1271              		.loc 2 135 36 view .LVU396
 1272              	.LBE133:
 1273              	.LBE132:
 170:lvgl/src/misc/lv_area.c ****     if(th > 0) {
 1274              		.loc 1 170 5 is_stmt 1 view .LVU397
 170:lvgl/src/misc/lv_area.c ****     if(th > 0) {
 1275              		.loc 1 170 25 is_stmt 0 view .LVU398
 1276 004a B5F90280 		ldrsh	r8, [r5, #2]
 1277 004e 1FFA88F1 		uxth	r1, r8
 170:lvgl/src/misc/lv_area.c ****     if(th > 0) {
 1278              		.loc 1 170 30 view .LVU399
ARM GAS  C:\Users\OSD\AppData\Local\Temp\ccx0d5Nb.s 			page 42


 1279 0052 A1EB0C01 		sub	r1, r1, ip
 170:lvgl/src/misc/lv_area.c ****     if(th > 0) {
 1280              		.loc 1 170 16 view .LVU400
 1281 0056 09B2     		sxth	r1, r1
 1282              	.LVL119:
 171:lvgl/src/misc/lv_area.c ****         n.x1 = a1_p->x1;
 1283              		.loc 1 171 5 is_stmt 1 view .LVU401
 171:lvgl/src/misc/lv_area.c ****         n.x1 = a1_p->x1;
 1284              		.loc 1 171 7 is_stmt 0 view .LVU402
 1285 0058 0029     		cmp	r1, #0
 1286 005a 40F38A80 		ble	.L60
 172:lvgl/src/misc/lv_area.c ****         n.y1 = a1_p->y1;
 1287              		.loc 1 172 9 is_stmt 1 view .LVU403
 172:lvgl/src/misc/lv_area.c ****         n.y1 = a1_p->y1;
 1288              		.loc 1 172 14 is_stmt 0 view .LVU404
 1289 005e ADF80070 		strh	r7, [sp]	@ movhi
 173:lvgl/src/misc/lv_area.c ****         n.x2 = a1_p->x2;
 1290              		.loc 1 173 9 is_stmt 1 view .LVU405
 173:lvgl/src/misc/lv_area.c ****         n.x2 = a1_p->x2;
 1291              		.loc 1 173 14 is_stmt 0 view .LVU406
 1292 0062 ADF802E0 		strh	lr, [sp, #2]	@ movhi
 174:lvgl/src/misc/lv_area.c ****         n.y2 = a1_p->y1 + th;
 1293              		.loc 1 174 9 is_stmt 1 view .LVU407
 174:lvgl/src/misc/lv_area.c ****         n.y2 = a1_p->y1 + th;
 1294              		.loc 1 174 14 is_stmt 0 view .LVU408
 1295 0066 ADF80400 		strh	r0, [sp, #4]	@ movhi
 175:lvgl/src/misc/lv_area.c ****         res_p[res_c++] = n;
 1296              		.loc 1 175 9 is_stmt 1 view .LVU409
 175:lvgl/src/misc/lv_area.c ****         res_p[res_c++] = n;
 1297              		.loc 1 175 14 is_stmt 0 view .LVU410
 1298 006a ADF80680 		strh	r8, [sp, #6]	@ movhi
 176:lvgl/src/misc/lv_area.c ****     }
 1299              		.loc 1 176 9 is_stmt 1 view .LVU411
 1300              	.LVL120:
 176:lvgl/src/misc/lv_area.c ****     }
 1301              		.loc 1 176 24 is_stmt 0 view .LVU412
 1302 006e 6F46     		mov	r7, sp
 1303 0070 03CF     		ldmia	r7!, {r0, r1}
 1304              	.LVL121:
 176:lvgl/src/misc/lv_area.c ****     }
 1305              		.loc 1 176 24 view .LVU413
 1306 0072 3060     		str	r0, [r6]	@ unaligned
 1307 0074 7160     		str	r1, [r6, #4]	@ unaligned
 176:lvgl/src/misc/lv_area.c ****     }
 1308              		.loc 1 176 20 view .LVU414
 1309 0076 4FF0010C 		mov	ip, #1
 1310              	.LVL122:
 1311              	.L55:
 180:lvgl/src/misc/lv_area.c ****     if(bh > 0 && a2_p->y2 < a1_p->y2) {
 1312              		.loc 1 180 5 is_stmt 1 view .LVU415
 180:lvgl/src/misc/lv_area.c ****     if(bh > 0 && a2_p->y2 < a1_p->y2) {
 1313              		.loc 1 180 44 is_stmt 0 view .LVU416
 1314 007a 6188     		ldrh	r1, [r4, #2]
 180:lvgl/src/misc/lv_area.c ****     if(bh > 0 && a2_p->y2 < a1_p->y2) {
 1315              		.loc 1 180 33 view .LVU417
 1316 007c B5F90600 		ldrsh	r0, [r5, #6]
 1317 0080 87B2     		uxth	r7, r0
ARM GAS  C:\Users\OSD\AppData\Local\Temp\ccx0d5Nb.s 			page 43


 180:lvgl/src/misc/lv_area.c ****     if(bh > 0 && a2_p->y2 < a1_p->y2) {
 1318              		.loc 1 180 26 view .LVU418
 1319 0082 C91B     		subs	r1, r1, r7
 1320 0084 0A44     		add	r2, r2, r1
 1321              	.LVL123:
 180:lvgl/src/misc/lv_area.c ****     if(bh > 0 && a2_p->y2 < a1_p->y2) {
 1322              		.loc 1 180 26 view .LVU419
 1323 0086 91B2     		uxth	r1, r2
 180:lvgl/src/misc/lv_area.c ****     if(bh > 0 && a2_p->y2 < a1_p->y2) {
 1324              		.loc 1 180 16 view .LVU420
 1325 0088 12B2     		sxth	r2, r2
 1326              	.LVL124:
 181:lvgl/src/misc/lv_area.c ****         n.x1 = a1_p->x1;
 1327              		.loc 1 181 5 is_stmt 1 view .LVU421
 181:lvgl/src/misc/lv_area.c ****         n.x1 = a1_p->x1;
 1328              		.loc 1 181 7 is_stmt 0 view .LVU422
 1329 008a 002A     		cmp	r2, #0
 1330 008c 1CDD     		ble	.L56
 181:lvgl/src/misc/lv_area.c ****         n.x1 = a1_p->x1;
 1331              		.loc 1 181 33 discriminator 1 view .LVU423
 1332 008e B4F90620 		ldrsh	r2, [r4, #6]
 1333              	.LVL125:
 181:lvgl/src/misc/lv_area.c ****         n.x1 = a1_p->x1;
 1334              		.loc 1 181 15 discriminator 1 view .LVU424
 1335 0092 9042     		cmp	r0, r2
 1336 0094 18DA     		bge	.L56
 182:lvgl/src/misc/lv_area.c ****         n.y1 = a2_p->y2;
 1337              		.loc 1 182 9 is_stmt 1 view .LVU425
 182:lvgl/src/misc/lv_area.c ****         n.y1 = a2_p->y2;
 1338              		.loc 1 182 20 is_stmt 0 view .LVU426
 1339 0096 B4F90020 		ldrsh	r2, [r4]
 182:lvgl/src/misc/lv_area.c ****         n.y1 = a2_p->y2;
 1340              		.loc 1 182 14 view .LVU427
 1341 009a ADF80020 		strh	r2, [sp]	@ movhi
 183:lvgl/src/misc/lv_area.c ****         n.x2 = a1_p->x2;
 1342              		.loc 1 183 9 is_stmt 1 view .LVU428
 183:lvgl/src/misc/lv_area.c ****         n.x2 = a1_p->x2;
 1343              		.loc 1 183 14 is_stmt 0 view .LVU429
 1344 009e ADF80200 		strh	r0, [sp, #2]	@ movhi
 184:lvgl/src/misc/lv_area.c ****         n.y2 = a2_p->y2 + bh;
 1345              		.loc 1 184 9 is_stmt 1 view .LVU430
 184:lvgl/src/misc/lv_area.c ****         n.y2 = a2_p->y2 + bh;
 1346              		.loc 1 184 20 is_stmt 0 view .LVU431
 1347 00a2 B4F90420 		ldrsh	r2, [r4, #4]
 184:lvgl/src/misc/lv_area.c ****         n.y2 = a2_p->y2 + bh;
 1348              		.loc 1 184 14 view .LVU432
 1349 00a6 ADF80420 		strh	r2, [sp, #4]	@ movhi
 185:lvgl/src/misc/lv_area.c ****         res_p[res_c++] = n;
 1350              		.loc 1 185 9 is_stmt 1 view .LVU433
 185:lvgl/src/misc/lv_area.c ****         res_p[res_c++] = n;
 1351              		.loc 1 185 25 is_stmt 0 view .LVU434
 1352 00aa 0F44     		add	r7, r7, r1
 185:lvgl/src/misc/lv_area.c ****         res_p[res_c++] = n;
 1353              		.loc 1 185 14 view .LVU435
 1354 00ac ADF80670 		strh	r7, [sp, #6]	@ movhi
 186:lvgl/src/misc/lv_area.c ****     }
 1355              		.loc 1 186 9 is_stmt 1 view .LVU436
ARM GAS  C:\Users\OSD\AppData\Local\Temp\ccx0d5Nb.s 			page 44


 186:lvgl/src/misc/lv_area.c ****     }
 1356              		.loc 1 186 20 is_stmt 0 view .LVU437
 1357 00b0 0CF10107 		add	r7, ip, #1
 1358              	.LVL126:
 186:lvgl/src/misc/lv_area.c ****     }
 1359              		.loc 1 186 14 view .LVU438
 1360 00b4 06EBCC0E 		add	lr, r6, ip, lsl #3
 1361              	.LVL127:
 186:lvgl/src/misc/lv_area.c ****     }
 1362              		.loc 1 186 24 view .LVU439
 1363 00b8 6A46     		mov	r2, sp
 1364 00ba 03CA     		ldmia	r2!, {r0, r1}
 1365              	.LVL128:
 186:lvgl/src/misc/lv_area.c ****     }
 1366              		.loc 1 186 24 view .LVU440
 1367 00bc 46F83C00 		str	r0, [r6, ip, lsl #3]	@ unaligned
 1368 00c0 CEF80410 		str	r1, [lr, #4]	@ unaligned
 186:lvgl/src/misc/lv_area.c ****     }
 1369              		.loc 1 186 20 view .LVU441
 1370 00c4 4FFA87FC 		sxtb	ip, r7
 1371              	.LVL129:
 1372              	.L56:
 190:lvgl/src/misc/lv_area.c ****     lv_coord_t y2 = a2_p->y2 < a1_p->y2 ? a2_p->y2 : a1_p->y2;
 1373              		.loc 1 190 5 is_stmt 1 view .LVU442
 190:lvgl/src/misc/lv_area.c ****     lv_coord_t y2 = a2_p->y2 < a1_p->y2 ? a2_p->y2 : a1_p->y2;
 1374              		.loc 1 190 36 is_stmt 0 view .LVU443
 1375 00c8 B4F90270 		ldrsh	r7, [r4, #2]
 190:lvgl/src/misc/lv_area.c ****     lv_coord_t y2 = a2_p->y2 < a1_p->y2 ? a2_p->y2 : a1_p->y2;
 1376              		.loc 1 190 25 view .LVU444
 1377 00cc B5F90220 		ldrsh	r2, [r5, #2]
 190:lvgl/src/misc/lv_area.c ****     lv_coord_t y2 = a2_p->y2 < a1_p->y2 ? a2_p->y2 : a1_p->y2;
 1378              		.loc 1 190 16 view .LVU445
 1379 00d0 9742     		cmp	r7, r2
 1380 00d2 B8BF     		it	lt
 1381 00d4 1746     		movlt	r7, r2
 1382              	.LVL130:
 191:lvgl/src/misc/lv_area.c ****     lv_coord_t sh = y2 - y1;
 1383              		.loc 1 191 5 is_stmt 1 view .LVU446
 191:lvgl/src/misc/lv_area.c ****     lv_coord_t sh = y2 - y1;
 1384              		.loc 1 191 36 is_stmt 0 view .LVU447
 1385 00d6 B4F906E0 		ldrsh	lr, [r4, #6]
 191:lvgl/src/misc/lv_area.c ****     lv_coord_t sh = y2 - y1;
 1386              		.loc 1 191 25 view .LVU448
 1387 00da B5F90620 		ldrsh	r2, [r5, #6]
 191:lvgl/src/misc/lv_area.c ****     lv_coord_t sh = y2 - y1;
 1388              		.loc 1 191 16 view .LVU449
 1389 00de 9645     		cmp	lr, r2
 1390 00e0 A8BF     		it	ge
 1391 00e2 9646     		movge	lr, r2
 1392              	.LVL131:
 192:lvgl/src/misc/lv_area.c **** 
 1393              		.loc 1 192 5 is_stmt 1 view .LVU450
 192:lvgl/src/misc/lv_area.c **** 
 1394              		.loc 1 192 24 is_stmt 0 view .LVU451
 1395 00e4 AEEB0701 		sub	r1, lr, r7
 192:lvgl/src/misc/lv_area.c **** 
 1396              		.loc 1 192 16 view .LVU452
ARM GAS  C:\Users\OSD\AppData\Local\Temp\ccx0d5Nb.s 			page 45


 1397 00e8 09B2     		sxth	r1, r1
 1398              	.LVL132:
 195:lvgl/src/misc/lv_area.c ****     if(lw > 0 && sh > 0) {
 1399              		.loc 1 195 5 is_stmt 1 view .LVU453
 195:lvgl/src/misc/lv_area.c ****     if(lw > 0 && sh > 0) {
 1400              		.loc 1 195 25 is_stmt 0 view .LVU454
 1401 00ea B5F90000 		ldrsh	r0, [r5]
 1402 00ee 82B2     		uxth	r2, r0
 195:lvgl/src/misc/lv_area.c ****     if(lw > 0 && sh > 0) {
 1403              		.loc 1 195 36 view .LVU455
 1404 00f0 B4F90080 		ldrsh	r8, [r4]
 195:lvgl/src/misc/lv_area.c ****     if(lw > 0 && sh > 0) {
 1405              		.loc 1 195 36 view .LVU456
 1406 00f4 1FFA88F9 		uxth	r9, r8
 195:lvgl/src/misc/lv_area.c ****     if(lw > 0 && sh > 0) {
 1407              		.loc 1 195 30 view .LVU457
 1408 00f8 A2EB0902 		sub	r2, r2, r9
 195:lvgl/src/misc/lv_area.c ****     if(lw > 0 && sh > 0) {
 1409              		.loc 1 195 16 view .LVU458
 1410 00fc 12B2     		sxth	r2, r2
 1411              	.LVL133:
 196:lvgl/src/misc/lv_area.c ****         n.x1 = a1_p->x1;
 1412              		.loc 1 196 5 is_stmt 1 view .LVU459
 196:lvgl/src/misc/lv_area.c ****         n.x1 = a1_p->x1;
 1413              		.loc 1 196 7 is_stmt 0 view .LVU460
 1414 00fe 002A     		cmp	r2, #0
 1415 0100 C8BF     		it	gt
 1416 0102 0029     		cmpgt	r1, #0
 1417 0104 13DD     		ble	.L57
 197:lvgl/src/misc/lv_area.c ****         n.y1 = y1;
 1418              		.loc 1 197 9 is_stmt 1 view .LVU461
 197:lvgl/src/misc/lv_area.c ****         n.y1 = y1;
 1419              		.loc 1 197 14 is_stmt 0 view .LVU462
 1420 0106 ADF80080 		strh	r8, [sp]	@ movhi
 198:lvgl/src/misc/lv_area.c ****         n.x2 = a1_p->x1 + lw;
 1421              		.loc 1 198 9 is_stmt 1 view .LVU463
 198:lvgl/src/misc/lv_area.c ****         n.x2 = a1_p->x1 + lw;
 1422              		.loc 1 198 14 is_stmt 0 view .LVU464
 1423 010a ADF80270 		strh	r7, [sp, #2]	@ movhi
 199:lvgl/src/misc/lv_area.c ****         n.y2 = y1 + sh;
 1424              		.loc 1 199 9 is_stmt 1 view .LVU465
 199:lvgl/src/misc/lv_area.c ****         n.y2 = y1 + sh;
 1425              		.loc 1 199 14 is_stmt 0 view .LVU466
 1426 010e ADF80400 		strh	r0, [sp, #4]	@ movhi
 200:lvgl/src/misc/lv_area.c ****         res_p[res_c++] = n;
 1427              		.loc 1 200 9 is_stmt 1 view .LVU467
 200:lvgl/src/misc/lv_area.c ****         res_p[res_c++] = n;
 1428              		.loc 1 200 14 is_stmt 0 view .LVU468
 1429 0112 ADF806E0 		strh	lr, [sp, #6]	@ movhi
 201:lvgl/src/misc/lv_area.c ****     }
 1430              		.loc 1 201 9 is_stmt 1 view .LVU469
 201:lvgl/src/misc/lv_area.c ****     }
 1431              		.loc 1 201 20 is_stmt 0 view .LVU470
 1432 0116 0CF10108 		add	r8, ip, #1
 1433              	.LVL134:
 201:lvgl/src/misc/lv_area.c ****     }
 1434              		.loc 1 201 14 view .LVU471
ARM GAS  C:\Users\OSD\AppData\Local\Temp\ccx0d5Nb.s 			page 46


 1435 011a 06EBCC09 		add	r9, r6, ip, lsl #3
 201:lvgl/src/misc/lv_area.c ****     }
 1436              		.loc 1 201 24 view .LVU472
 1437 011e 6A46     		mov	r2, sp
 1438              	.LVL135:
 201:lvgl/src/misc/lv_area.c ****     }
 1439              		.loc 1 201 24 view .LVU473
 1440 0120 03CA     		ldmia	r2!, {r0, r1}
 1441              	.LVL136:
 201:lvgl/src/misc/lv_area.c ****     }
 1442              		.loc 1 201 24 view .LVU474
 1443 0122 46F83C00 		str	r0, [r6, ip, lsl #3]	@ unaligned
 1444 0126 C9F80410 		str	r1, [r9, #4]	@ unaligned
 201:lvgl/src/misc/lv_area.c ****     }
 1445              		.loc 1 201 20 view .LVU475
 1446 012a 4FFA88FC 		sxtb	ip, r8
 1447              	.LVL137:
 1448              	.L57:
 205:lvgl/src/misc/lv_area.c ****     if(rw > 0) {
 1449              		.loc 1 205 5 is_stmt 1 view .LVU476
 205:lvgl/src/misc/lv_area.c ****     if(rw > 0) {
 1450              		.loc 1 205 44 is_stmt 0 view .LVU477
 1451 012e 2288     		ldrh	r2, [r4]
 205:lvgl/src/misc/lv_area.c ****     if(rw > 0) {
 1452              		.loc 1 205 33 view .LVU478
 1453 0130 B5F90400 		ldrsh	r0, [r5, #4]
 1454 0134 81B2     		uxth	r1, r0
 205:lvgl/src/misc/lv_area.c ****     if(rw > 0) {
 1455              		.loc 1 205 26 view .LVU479
 1456 0136 521A     		subs	r2, r2, r1
 1457 0138 1344     		add	r3, r3, r2
 1458              	.LVL138:
 205:lvgl/src/misc/lv_area.c ****     if(rw > 0) {
 1459              		.loc 1 205 26 view .LVU480
 1460 013a 9AB2     		uxth	r2, r3
 205:lvgl/src/misc/lv_area.c ****     if(rw > 0) {
 1461              		.loc 1 205 16 view .LVU481
 1462 013c 1BB2     		sxth	r3, r3
 1463              	.LVL139:
 206:lvgl/src/misc/lv_area.c ****         n.x1 = a2_p->x2;
 1464              		.loc 1 206 5 is_stmt 1 view .LVU482
 206:lvgl/src/misc/lv_area.c ****         n.x1 = a2_p->x2;
 1465              		.loc 1 206 7 is_stmt 0 view .LVU483
 1466 013e 002B     		cmp	r3, #0
 1467 0140 13DD     		ble	.L54
 207:lvgl/src/misc/lv_area.c ****         n.y1 = y1;
 1468              		.loc 1 207 9 is_stmt 1 view .LVU484
 207:lvgl/src/misc/lv_area.c ****         n.y1 = y1;
 1469              		.loc 1 207 14 is_stmt 0 view .LVU485
 1470 0142 ADF80000 		strh	r0, [sp]	@ movhi
 208:lvgl/src/misc/lv_area.c ****         n.x2 = a2_p->x2 + rw;
 1471              		.loc 1 208 9 is_stmt 1 view .LVU486
 208:lvgl/src/misc/lv_area.c ****         n.x2 = a2_p->x2 + rw;
 1472              		.loc 1 208 14 is_stmt 0 view .LVU487
 1473 0146 ADF80270 		strh	r7, [sp, #2]	@ movhi
 209:lvgl/src/misc/lv_area.c ****         n.y2 = y1 + sh;
 1474              		.loc 1 209 9 is_stmt 1 view .LVU488
ARM GAS  C:\Users\OSD\AppData\Local\Temp\ccx0d5Nb.s 			page 47


 209:lvgl/src/misc/lv_area.c ****         n.y2 = y1 + sh;
 1475              		.loc 1 209 25 is_stmt 0 view .LVU489
 1476 014a 1144     		add	r1, r1, r2
 209:lvgl/src/misc/lv_area.c ****         n.y2 = y1 + sh;
 1477              		.loc 1 209 14 view .LVU490
 1478 014c ADF80410 		strh	r1, [sp, #4]	@ movhi
 210:lvgl/src/misc/lv_area.c ****         res_p[res_c++] = n;
 1479              		.loc 1 210 9 is_stmt 1 view .LVU491
 210:lvgl/src/misc/lv_area.c ****         res_p[res_c++] = n;
 1480              		.loc 1 210 14 is_stmt 0 view .LVU492
 1481 0150 ADF806E0 		strh	lr, [sp, #6]	@ movhi
 211:lvgl/src/misc/lv_area.c ****     }
 1482              		.loc 1 211 9 is_stmt 1 view .LVU493
 211:lvgl/src/misc/lv_area.c ****     }
 1483              		.loc 1 211 20 is_stmt 0 view .LVU494
 1484 0154 0CF10102 		add	r2, ip, #1
 1485              	.LVL140:
 211:lvgl/src/misc/lv_area.c ****     }
 1486              		.loc 1 211 14 view .LVU495
 1487 0158 06EBCC04 		add	r4, r6, ip, lsl #3
 1488              	.LVL141:
 211:lvgl/src/misc/lv_area.c ****     }
 1489              		.loc 1 211 24 view .LVU496
 1490 015c 6B46     		mov	r3, sp
 1491              	.LVL142:
 211:lvgl/src/misc/lv_area.c ****     }
 1492              		.loc 1 211 24 view .LVU497
 1493 015e 03CB     		ldmia	r3!, {r0, r1}
 1494 0160 46F83C00 		str	r0, [r6, ip, lsl #3]	@ unaligned
 1495 0164 6160     		str	r1, [r4, #4]	@ unaligned
 211:lvgl/src/misc/lv_area.c ****     }
 1496              		.loc 1 211 20 view .LVU498
 1497 0166 4FFA82FC 		sxtb	ip, r2
 1498              	.LVL143:
 1499              	.L54:
 216:lvgl/src/misc/lv_area.c **** 
 1500              		.loc 1 216 1 view .LVU499
 1501 016a 6046     		mov	r0, ip
 1502 016c 03B0     		add	sp, sp, #12
 1503              		.cfi_remember_state
 1504              		.cfi_def_cfa_offset 28
 1505              		@ sp needed
 1506 016e BDE8F083 		pop	{r4, r5, r6, r7, r8, r9, pc}
 1507              	.LVL144:
 1508              	.L60:
 1509              		.cfi_restore_state
 162:lvgl/src/misc/lv_area.c **** 
 1510              		.loc 1 162 12 view .LVU500
 1511 0172 4FF0000C 		mov	ip, #0
 1512 0176 80E7     		b	.L55
 1513              	.LVL145:
 1514              	.L58:
 156:lvgl/src/misc/lv_area.c **** 
 1515              		.loc 1 156 44 view .LVU501
 1516 0178 4FF0FF3C 		mov	ip, #-1
 1517 017c F5E7     		b	.L54
 1518              	.L59:
ARM GAS  C:\Users\OSD\AppData\Local\Temp\ccx0d5Nb.s 			page 48


 159:lvgl/src/misc/lv_area.c **** 
 1519              		.loc 1 159 46 view .LVU502
 1520 017e 4FF0000C 		mov	ip, #0
 1521 0182 F2E7     		b	.L54
 1522              		.cfi_endproc
 1523              	.LFE13:
 1525              		.section	.text._lv_area_is_out,"ax",%progbits
 1526              		.align	1
 1527              		.global	_lv_area_is_out
 1528              		.syntax unified
 1529              		.thumb
 1530              		.thumb_func
 1532              	_lv_area_is_out:
 1533              	.LVL146:
 1534              	.LFB18:
 364:lvgl/src/misc/lv_area.c ****     if(aout_p->x2 < aholder_p->x1 || aout_p->y2 < aholder_p->y1 || aout_p->x1 > aholder_p->x2 ||
 1535              		.loc 1 364 1 is_stmt 1 view -0
 1536              		.cfi_startproc
 1537              		@ args = 0, pretend = 0, frame = 8
 1538              		@ frame_needed = 0, uses_anonymous_args = 0
 364:lvgl/src/misc/lv_area.c ****     if(aout_p->x2 < aholder_p->x1 || aout_p->y2 < aholder_p->y1 || aout_p->x1 > aholder_p->x2 ||
 1539              		.loc 1 364 1 is_stmt 0 view .LVU504
 1540 0000 2DE9F047 		push	{r4, r5, r6, r7, r8, r9, r10, lr}
 1541              		.cfi_def_cfa_offset 32
 1542              		.cfi_offset 4, -32
 1543              		.cfi_offset 5, -28
 1544              		.cfi_offset 6, -24
 1545              		.cfi_offset 7, -20
 1546              		.cfi_offset 8, -16
 1547              		.cfi_offset 9, -12
 1548              		.cfi_offset 10, -8
 1549              		.cfi_offset 14, -4
 1550 0004 82B0     		sub	sp, sp, #8
 1551              		.cfi_def_cfa_offset 40
 365:lvgl/src/misc/lv_area.c ****        aout_p->y1 > aholder_p->y2) {
 1552              		.loc 1 365 5 is_stmt 1 view .LVU505
 365:lvgl/src/misc/lv_area.c ****        aout_p->y1 > aholder_p->y2) {
 1553              		.loc 1 365 14 is_stmt 0 view .LVU506
 1554 0006 B0F90470 		ldrsh	r7, [r0, #4]
 365:lvgl/src/misc/lv_area.c ****        aout_p->y1 > aholder_p->y2) {
 1555              		.loc 1 365 30 view .LVU507
 1556 000a B1F90030 		ldrsh	r3, [r1]
 365:lvgl/src/misc/lv_area.c ****        aout_p->y1 > aholder_p->y2) {
 1557              		.loc 1 365 7 view .LVU508
 1558 000e 9F42     		cmp	r7, r3
 1559 0010 4ADB     		blt	.L64
 1560 0012 8046     		mov	r8, r0
 1561 0014 0C46     		mov	r4, r1
 1562 0016 1646     		mov	r6, r2
 365:lvgl/src/misc/lv_area.c ****        aout_p->y1 > aholder_p->y2) {
 1563              		.loc 1 365 44 discriminator 1 view .LVU509
 1564 0018 B0F90690 		ldrsh	r9, [r0, #6]
 365:lvgl/src/misc/lv_area.c ****        aout_p->y1 > aholder_p->y2) {
 1565              		.loc 1 365 60 discriminator 1 view .LVU510
 1566 001c B1F90230 		ldrsh	r3, [r1, #2]
 365:lvgl/src/misc/lv_area.c ****        aout_p->y1 > aholder_p->y2) {
 1567              		.loc 1 365 35 discriminator 1 view .LVU511
ARM GAS  C:\Users\OSD\AppData\Local\Temp\ccx0d5Nb.s 			page 49


 1568 0020 9945     		cmp	r9, r3
 1569 0022 46DB     		blt	.L65
 365:lvgl/src/misc/lv_area.c ****        aout_p->y1 > aholder_p->y2) {
 1570              		.loc 1 365 74 discriminator 2 view .LVU512
 1571 0024 B0F90030 		ldrsh	r3, [r0]
 365:lvgl/src/misc/lv_area.c ****        aout_p->y1 > aholder_p->y2) {
 1572              		.loc 1 365 90 discriminator 2 view .LVU513
 1573 0028 B1F90420 		ldrsh	r2, [r1, #4]
 1574              	.LVL147:
 365:lvgl/src/misc/lv_area.c ****        aout_p->y1 > aholder_p->y2) {
 1575              		.loc 1 365 65 discriminator 2 view .LVU514
 1576 002c 9342     		cmp	r3, r2
 1577 002e 42DC     		bgt	.L66
 366:lvgl/src/misc/lv_area.c ****         return true;
 1578              		.loc 1 366 14 discriminator 3 view .LVU515
 1579 0030 B0F90220 		ldrsh	r2, [r0, #2]
 366:lvgl/src/misc/lv_area.c ****         return true;
 1580              		.loc 1 366 30 discriminator 3 view .LVU516
 1581 0034 B1F90610 		ldrsh	r1, [r1, #6]
 1582              	.LVL148:
 365:lvgl/src/misc/lv_area.c ****        aout_p->y1 > aholder_p->y2) {
 1583              		.loc 1 365 95 discriminator 3 view .LVU517
 1584 0038 8A42     		cmp	r2, r1
 1585 003a 3EDC     		bgt	.L67
 370:lvgl/src/misc/lv_area.c **** 
 1586              		.loc 1 370 5 is_stmt 1 view .LVU518
 370:lvgl/src/misc/lv_area.c **** 
 1587              		.loc 1 370 7 is_stmt 0 view .LVU519
 1588 003c 0EB9     		cbnz	r6, .L72
 370:lvgl/src/misc/lv_area.c **** 
 1589              		.loc 1 370 28 view .LVU520
 1590 003e 0025     		movs	r5, #0
 1591 0040 33E0     		b	.L63
 1592              	.L72:
 373:lvgl/src/misc/lv_area.c **** 
 1593              		.loc 1 373 5 is_stmt 1 view .LVU521
 375:lvgl/src/misc/lv_area.c ****     p.y = aout_p->y1;
 1594              		.loc 1 375 5 view .LVU522
 375:lvgl/src/misc/lv_area.c ****     p.y = aout_p->y1;
 1595              		.loc 1 375 9 is_stmt 0 view .LVU523
 1596 0042 ADF80430 		strh	r3, [sp, #4]	@ movhi
 376:lvgl/src/misc/lv_area.c ****     if(_lv_area_is_point_on(aholder_p, &p, radius)) return false;
 1597              		.loc 1 376 5 is_stmt 1 view .LVU524
 376:lvgl/src/misc/lv_area.c ****     if(_lv_area_is_point_on(aholder_p, &p, radius)) return false;
 1598              		.loc 1 376 9 is_stmt 0 view .LVU525
 1599 0046 ADF80620 		strh	r2, [sp, #6]	@ movhi
 377:lvgl/src/misc/lv_area.c **** 
 1600              		.loc 1 377 5 is_stmt 1 view .LVU526
 377:lvgl/src/misc/lv_area.c **** 
 1601              		.loc 1 377 8 is_stmt 0 view .LVU527
 1602 004a 3246     		mov	r2, r6
 1603 004c 01A9     		add	r1, sp, #4
 1604 004e 2046     		mov	r0, r4
 1605              	.LVL149:
 377:lvgl/src/misc/lv_area.c **** 
 1606              		.loc 1 377 8 view .LVU528
 1607 0050 FFF7FEFF 		bl	_lv_area_is_point_on
ARM GAS  C:\Users\OSD\AppData\Local\Temp\ccx0d5Nb.s 			page 50


 1608              	.LVL150:
 377:lvgl/src/misc/lv_area.c **** 
 1609              		.loc 1 377 7 view .LVU529
 1610 0054 0546     		mov	r5, r0
 1611 0056 08B1     		cbz	r0, .L73
 377:lvgl/src/misc/lv_area.c **** 
 1612              		.loc 1 377 60 view .LVU530
 1613 0058 0025     		movs	r5, #0
 1614 005a 26E0     		b	.L63
 1615              	.L73:
 379:lvgl/src/misc/lv_area.c ****     p.y = aout_p->y1;
 1616              		.loc 1 379 5 is_stmt 1 view .LVU531
 379:lvgl/src/misc/lv_area.c ****     p.y = aout_p->y1;
 1617              		.loc 1 379 9 is_stmt 0 view .LVU532
 1618 005c ADF80470 		strh	r7, [sp, #4]	@ movhi
 380:lvgl/src/misc/lv_area.c ****     if(_lv_area_is_point_on(aholder_p, &p, radius)) return false;
 1619              		.loc 1 380 5 is_stmt 1 view .LVU533
 380:lvgl/src/misc/lv_area.c ****     if(_lv_area_is_point_on(aholder_p, &p, radius)) return false;
 1620              		.loc 1 380 17 is_stmt 0 view .LVU534
 1621 0060 B8F90230 		ldrsh	r3, [r8, #2]
 380:lvgl/src/misc/lv_area.c ****     if(_lv_area_is_point_on(aholder_p, &p, radius)) return false;
 1622              		.loc 1 380 9 view .LVU535
 1623 0064 ADF80630 		strh	r3, [sp, #6]	@ movhi
 381:lvgl/src/misc/lv_area.c **** 
 1624              		.loc 1 381 5 is_stmt 1 view .LVU536
 381:lvgl/src/misc/lv_area.c **** 
 1625              		.loc 1 381 8 is_stmt 0 view .LVU537
 1626 0068 3246     		mov	r2, r6
 1627 006a 01A9     		add	r1, sp, #4
 1628 006c 2046     		mov	r0, r4
 1629 006e FFF7FEFF 		bl	_lv_area_is_point_on
 1630              	.LVL151:
 381:lvgl/src/misc/lv_area.c **** 
 1631              		.loc 1 381 7 view .LVU538
 1632 0072 8246     		mov	r10, r0
 1633 0074 C8B9     		cbnz	r0, .L63
 383:lvgl/src/misc/lv_area.c ****     p.y = aout_p->y2;
 1634              		.loc 1 383 5 is_stmt 1 view .LVU539
 383:lvgl/src/misc/lv_area.c ****     p.y = aout_p->y2;
 1635              		.loc 1 383 17 is_stmt 0 view .LVU540
 1636 0076 B8F90030 		ldrsh	r3, [r8]
 383:lvgl/src/misc/lv_area.c ****     p.y = aout_p->y2;
 1637              		.loc 1 383 9 view .LVU541
 1638 007a ADF80430 		strh	r3, [sp, #4]	@ movhi
 384:lvgl/src/misc/lv_area.c ****     if(_lv_area_is_point_on(aholder_p, &p, radius)) return false;
 1639              		.loc 1 384 5 is_stmt 1 view .LVU542
 384:lvgl/src/misc/lv_area.c ****     if(_lv_area_is_point_on(aholder_p, &p, radius)) return false;
 1640              		.loc 1 384 9 is_stmt 0 view .LVU543
 1641 007e ADF80690 		strh	r9, [sp, #6]	@ movhi
 385:lvgl/src/misc/lv_area.c **** 
 1642              		.loc 1 385 5 is_stmt 1 view .LVU544
 385:lvgl/src/misc/lv_area.c **** 
 1643              		.loc 1 385 8 is_stmt 0 view .LVU545
 1644 0082 3246     		mov	r2, r6
 1645 0084 01A9     		add	r1, sp, #4
 1646 0086 2046     		mov	r0, r4
 1647 0088 FFF7FEFF 		bl	_lv_area_is_point_on
ARM GAS  C:\Users\OSD\AppData\Local\Temp\ccx0d5Nb.s 			page 51


 1648              	.LVL152:
 385:lvgl/src/misc/lv_area.c **** 
 1649              		.loc 1 385 7 view .LVU546
 1650 008c 0546     		mov	r5, r0
 1651 008e 08B1     		cbz	r0, .L74
 385:lvgl/src/misc/lv_area.c **** 
 1652              		.loc 1 385 60 view .LVU547
 1653 0090 5546     		mov	r5, r10
 1654 0092 0AE0     		b	.L63
 1655              	.L74:
 387:lvgl/src/misc/lv_area.c ****     p.y = aout_p->y2;
 1656              		.loc 1 387 5 is_stmt 1 view .LVU548
 387:lvgl/src/misc/lv_area.c ****     p.y = aout_p->y2;
 1657              		.loc 1 387 9 is_stmt 0 view .LVU549
 1658 0094 ADF80470 		strh	r7, [sp, #4]	@ movhi
 388:lvgl/src/misc/lv_area.c ****     if(_lv_area_is_point_on(aholder_p, &p, radius)) return false;
 1659              		.loc 1 388 5 is_stmt 1 view .LVU550
 389:lvgl/src/misc/lv_area.c **** 
 1660              		.loc 1 389 5 view .LVU551
 389:lvgl/src/misc/lv_area.c **** 
 1661              		.loc 1 389 8 is_stmt 0 view .LVU552
 1662 0098 3246     		mov	r2, r6
 1663 009a 01A9     		add	r1, sp, #4
 1664 009c 2046     		mov	r0, r4
 1665 009e FFF7FEFF 		bl	_lv_area_is_point_on
 1666              	.LVL153:
 389:lvgl/src/misc/lv_area.c **** 
 1667              		.loc 1 389 7 view .LVU553
 1668 00a2 10B9     		cbnz	r0, .L63
 391:lvgl/src/misc/lv_area.c **** }
 1669              		.loc 1 391 12 view .LVU554
 1670 00a4 0125     		movs	r5, #1
 1671 00a6 00E0     		b	.L63
 1672              	.LVL154:
 1673              	.L64:
 367:lvgl/src/misc/lv_area.c ****     }
 1674              		.loc 1 367 16 view .LVU555
 1675 00a8 0125     		movs	r5, #1
 1676              	.LVL155:
 1677              	.L63:
 392:lvgl/src/misc/lv_area.c **** 
 1678              		.loc 1 392 1 view .LVU556
 1679 00aa 2846     		mov	r0, r5
 1680 00ac 02B0     		add	sp, sp, #8
 1681              		.cfi_remember_state
 1682              		.cfi_def_cfa_offset 32
 1683              		@ sp needed
 1684 00ae BDE8F087 		pop	{r4, r5, r6, r7, r8, r9, r10, pc}
 1685              	.LVL156:
 1686              	.L65:
 1687              		.cfi_restore_state
 367:lvgl/src/misc/lv_area.c ****     }
 1688              		.loc 1 367 16 view .LVU557
 1689 00b2 0125     		movs	r5, #1
 1690 00b4 F9E7     		b	.L63
 1691              	.LVL157:
 1692              	.L66:
ARM GAS  C:\Users\OSD\AppData\Local\Temp\ccx0d5Nb.s 			page 52


 367:lvgl/src/misc/lv_area.c ****     }
 1693              		.loc 1 367 16 view .LVU558
 1694 00b6 0125     		movs	r5, #1
 1695 00b8 F7E7     		b	.L63
 1696              	.LVL158:
 1697              	.L67:
 367:lvgl/src/misc/lv_area.c ****     }
 1698              		.loc 1 367 16 view .LVU559
 1699 00ba 0125     		movs	r5, #1
 1700 00bc F5E7     		b	.L63
 1701              		.cfi_endproc
 1702              	.LFE18:
 1704              		.section	.text._lv_area_is_equal,"ax",%progbits
 1705              		.align	1
 1706              		.global	_lv_area_is_equal
 1707              		.syntax unified
 1708              		.thumb
 1709              		.thumb_func
 1711              	_lv_area_is_equal:
 1712              	.LVL159:
 1713              	.LFB19:
 395:lvgl/src/misc/lv_area.c ****     return a->x1 == b->x1 && a->x2 == b->x2 && a->y1 == b->y1 && a->y2 == b->y2;
 1714              		.loc 1 395 1 is_stmt 1 view -0
 1715              		.cfi_startproc
 1716              		@ args = 0, pretend = 0, frame = 0
 1717              		@ frame_needed = 0, uses_anonymous_args = 0
 1718              		@ link register save eliminated.
 396:lvgl/src/misc/lv_area.c **** }
 1719              		.loc 1 396 5 view .LVU561
 396:lvgl/src/misc/lv_area.c **** }
 1720              		.loc 1 396 13 is_stmt 0 view .LVU562
 1721 0000 B0F90020 		ldrsh	r2, [r0]
 396:lvgl/src/misc/lv_area.c **** }
 1722              		.loc 1 396 22 view .LVU563
 1723 0004 B1F90030 		ldrsh	r3, [r1]
 396:lvgl/src/misc/lv_area.c **** }
 1724              		.loc 1 396 63 view .LVU564
 1725 0008 9A42     		cmp	r2, r3
 1726 000a 01D0     		beq	.L81
 1727 000c 0020     		movs	r0, #0
 1728              	.LVL160:
 396:lvgl/src/misc/lv_area.c **** }
 1729              		.loc 1 396 63 view .LVU565
 1730 000e 7047     		bx	lr
 1731              	.LVL161:
 1732              	.L81:
 396:lvgl/src/misc/lv_area.c **** }
 1733              		.loc 1 396 31 discriminator 1 view .LVU566
 1734 0010 B0F90420 		ldrsh	r2, [r0, #4]
 396:lvgl/src/misc/lv_area.c **** }
 1735              		.loc 1 396 40 discriminator 1 view .LVU567
 1736 0014 B1F90430 		ldrsh	r3, [r1, #4]
 396:lvgl/src/misc/lv_area.c **** }
 1737              		.loc 1 396 27 discriminator 1 view .LVU568
 1738 0018 9A42     		cmp	r2, r3
 1739 001a 01D0     		beq	.L82
 396:lvgl/src/misc/lv_area.c **** }
ARM GAS  C:\Users\OSD\AppData\Local\Temp\ccx0d5Nb.s 			page 53


 1740              		.loc 1 396 63 view .LVU569
 1741 001c 0020     		movs	r0, #0
 1742              	.LVL162:
 396:lvgl/src/misc/lv_area.c **** }
 1743              		.loc 1 396 63 view .LVU570
 1744 001e 7047     		bx	lr
 1745              	.LVL163:
 1746              	.L82:
 396:lvgl/src/misc/lv_area.c **** }
 1747              		.loc 1 396 49 discriminator 3 view .LVU571
 1748 0020 B0F90220 		ldrsh	r2, [r0, #2]
 396:lvgl/src/misc/lv_area.c **** }
 1749              		.loc 1 396 58 discriminator 3 view .LVU572
 1750 0024 B1F90230 		ldrsh	r3, [r1, #2]
 396:lvgl/src/misc/lv_area.c **** }
 1751              		.loc 1 396 45 discriminator 3 view .LVU573
 1752 0028 9A42     		cmp	r2, r3
 1753 002a 01D0     		beq	.L83
 396:lvgl/src/misc/lv_area.c **** }
 1754              		.loc 1 396 63 view .LVU574
 1755 002c 0020     		movs	r0, #0
 1756              	.LVL164:
 396:lvgl/src/misc/lv_area.c **** }
 1757              		.loc 1 396 63 view .LVU575
 1758 002e 7047     		bx	lr
 1759              	.LVL165:
 1760              	.L83:
 396:lvgl/src/misc/lv_area.c **** }
 1761              		.loc 1 396 67 discriminator 5 view .LVU576
 1762 0030 B0F90620 		ldrsh	r2, [r0, #6]
 396:lvgl/src/misc/lv_area.c **** }
 1763              		.loc 1 396 76 discriminator 5 view .LVU577
 1764 0034 B1F90630 		ldrsh	r3, [r1, #6]
 396:lvgl/src/misc/lv_area.c **** }
 1765              		.loc 1 396 63 discriminator 5 view .LVU578
 1766 0038 9A42     		cmp	r2, r3
 1767 003a 01D0     		beq	.L80
 396:lvgl/src/misc/lv_area.c **** }
 1768              		.loc 1 396 63 view .LVU579
 1769 003c 0020     		movs	r0, #0
 1770              	.LVL166:
 396:lvgl/src/misc/lv_area.c **** }
 1771              		.loc 1 396 63 view .LVU580
 1772 003e 7047     		bx	lr
 1773              	.LVL167:
 1774              	.L80:
 396:lvgl/src/misc/lv_area.c **** }
 1775              		.loc 1 396 63 view .LVU581
 1776 0040 0120     		movs	r0, #1
 1777              	.LVL168:
 397:lvgl/src/misc/lv_area.c **** 
 1778              		.loc 1 397 1 view .LVU582
 1779 0042 7047     		bx	lr
 1780              		.cfi_endproc
 1781              	.LFE19:
 1783              		.section	.text.lv_area_align,"ax",%progbits
 1784              		.align	1
ARM GAS  C:\Users\OSD\AppData\Local\Temp\ccx0d5Nb.s 			page 54


 1785              		.global	lv_area_align
 1786              		.syntax unified
 1787              		.thumb
 1788              		.thumb_func
 1790              	lv_area_align:
 1791              	.LVL169:
 1792              	.LFB20:
 407:lvgl/src/misc/lv_area.c **** 
 1793              		.loc 1 407 1 is_stmt 1 view -0
 1794              		.cfi_startproc
 1795              		@ args = 4, pretend = 0, frame = 0
 1796              		@ frame_needed = 0, uses_anonymous_args = 0
 407:lvgl/src/misc/lv_area.c **** 
 1797              		.loc 1 407 1 is_stmt 0 view .LVU584
 1798 0000 10B5     		push	{r4, lr}
 1799              		.cfi_def_cfa_offset 8
 1800              		.cfi_offset 4, -8
 1801              		.cfi_offset 14, -4
 1802 0002 0446     		mov	r4, r0
 409:lvgl/src/misc/lv_area.c ****     lv_coord_t y;
 1803              		.loc 1 409 5 is_stmt 1 view .LVU585
 410:lvgl/src/misc/lv_area.c ****     switch(align) {
 1804              		.loc 1 410 5 view .LVU586
 411:lvgl/src/misc/lv_area.c ****         case LV_ALIGN_CENTER:
 1805              		.loc 1 411 5 view .LVU587
 1806 0004 023A     		subs	r2, r2, #2
 1807              	.LVL170:
 411:lvgl/src/misc/lv_area.c ****         case LV_ALIGN_CENTER:
 1808              		.loc 1 411 5 is_stmt 0 view .LVU588
 1809 0006 132A     		cmp	r2, #19
 1810 0008 00F27B82 		bhi	.L127
 1811 000c DFE812F0 		tbh	[pc, r2, lsl #1]
 1812              	.LVL171:
 1813              	.L87:
 1814 0010 8400     		.2byte	(.L106-.L87)/2
 1815 0012 A500     		.2byte	(.L105-.L87)/2
 1816 0014 B200     		.2byte	(.L104-.L87)/2
 1817 0016 BF00     		.2byte	(.L103-.L87)/2
 1818 0018 ED00     		.2byte	(.L102-.L87)/2
 1819 001a 0701     		.2byte	(.L101-.L87)/2
 1820 001c 2B01     		.2byte	(.L100-.L87)/2
 1821 001e 1400     		.2byte	(.L99-.L87)/2
 1822 0020 5F01     		.2byte	(.L98-.L87)/2
 1823 0022 6601     		.2byte	(.L97-.L87)/2
 1824 0024 8D01     		.2byte	(.L96-.L87)/2
 1825 0026 A001     		.2byte	(.L95-.L87)/2
 1826 0028 A801     		.2byte	(.L94-.L87)/2
 1827 002a D001     		.2byte	(.L93-.L87)/2
 1828 002c E401     		.2byte	(.L92-.L87)/2
 1829 002e EB01     		.2byte	(.L91-.L87)/2
 1830 0030 1902     		.2byte	(.L90-.L87)/2
 1831 0032 2D02     		.2byte	(.L89-.L87)/2
 1832 0034 3502     		.2byte	(.L88-.L87)/2
 1833 0036 6402     		.2byte	(.L86-.L87)/2
 1834              		.p2align 1
 1835              	.L99:
 413:lvgl/src/misc/lv_area.c ****             y = lv_area_get_height(base) / 2 - lv_area_get_height(to_align) / 2;
ARM GAS  C:\Users\OSD\AppData\Local\Temp\ccx0d5Nb.s 			page 55


 1836              		.loc 1 413 13 is_stmt 1 view .LVU589
 1837              	.LBB134:
 1838              	.LBI134:
 123:lvgl/src/misc/lv_area.h **** {
 1839              		.loc 2 123 26 view .LVU590
 1840              	.LBB135:
 125:lvgl/src/misc/lv_area.h **** }
 1841              		.loc 2 125 5 view .LVU591
 125:lvgl/src/misc/lv_area.h **** }
 1842              		.loc 2 125 31 is_stmt 0 view .LVU592
 1843 0038 A088     		ldrh	r0, [r4, #4]
 125:lvgl/src/misc/lv_area.h **** }
 1844              		.loc 2 125 44 view .LVU593
 1845 003a 2288     		ldrh	r2, [r4]
 125:lvgl/src/misc/lv_area.h **** }
 1846              		.loc 2 125 36 view .LVU594
 1847 003c 801A     		subs	r0, r0, r2
 1848 003e 80B2     		uxth	r0, r0
 125:lvgl/src/misc/lv_area.h **** }
 1849              		.loc 2 125 49 view .LVU595
 1850 0040 0130     		adds	r0, r0, #1
 125:lvgl/src/misc/lv_area.h **** }
 1851              		.loc 2 125 12 view .LVU596
 1852 0042 00B2     		sxth	r0, r0
 1853              	.LVL172:
 125:lvgl/src/misc/lv_area.h **** }
 1854              		.loc 2 125 12 view .LVU597
 1855              	.LBE135:
 1856              	.LBE134:
 1857              	.LBB136:
 1858              	.LBI136:
 123:lvgl/src/misc/lv_area.h **** {
 1859              		.loc 2 123 26 is_stmt 1 view .LVU598
 1860              	.LBB137:
 125:lvgl/src/misc/lv_area.h **** }
 1861              		.loc 2 125 5 view .LVU599
 125:lvgl/src/misc/lv_area.h **** }
 1862              		.loc 2 125 31 is_stmt 0 view .LVU600
 1863 0044 8A88     		ldrh	r2, [r1, #4]
 125:lvgl/src/misc/lv_area.h **** }
 1864              		.loc 2 125 44 view .LVU601
 1865 0046 B1F800C0 		ldrh	ip, [r1]
 125:lvgl/src/misc/lv_area.h **** }
 1866              		.loc 2 125 36 view .LVU602
 1867 004a A2EB0C02 		sub	r2, r2, ip
 1868 004e 92B2     		uxth	r2, r2
 125:lvgl/src/misc/lv_area.h **** }
 1869              		.loc 2 125 49 view .LVU603
 1870 0050 0132     		adds	r2, r2, #1
 125:lvgl/src/misc/lv_area.h **** }
 1871              		.loc 2 125 12 view .LVU604
 1872 0052 12B2     		sxth	r2, r2
 1873              	.LVL173:
 125:lvgl/src/misc/lv_area.h **** }
 1874              		.loc 2 125 12 view .LVU605
 1875              	.LBE137:
 1876              	.LBE136:
ARM GAS  C:\Users\OSD\AppData\Local\Temp\ccx0d5Nb.s 			page 56


 413:lvgl/src/misc/lv_area.c ****             y = lv_area_get_height(base) / 2 - lv_area_get_height(to_align) / 2;
 1877              		.loc 1 413 45 view .LVU606
 1878 0054 8446     		mov	ip, r0
 1879 0056 0028     		cmp	r0, #0
 1880 0058 52DB     		blt	.L129
 1881              	.L107:
 1882 005a 4FEA6C00 		asr	r0, ip, #1
 1883 005e 9446     		mov	ip, r2
 1884 0060 002A     		cmp	r2, #0
 1885 0062 50DB     		blt	.L130
 1886              	.L108:
 1887 0064 A0EB6C00 		sub	r0, r0, ip, asr #1
 413:lvgl/src/misc/lv_area.c ****             y = lv_area_get_height(base) / 2 - lv_area_get_height(to_align) / 2;
 1888              		.loc 1 413 15 view .LVU607
 1889 0068 00B2     		sxth	r0, r0
 1890              	.LVL174:
 414:lvgl/src/misc/lv_area.c ****             break;
 1891              		.loc 1 414 13 is_stmt 1 view .LVU608
 1892              	.LBB138:
 1893              	.LBI138:
 133:lvgl/src/misc/lv_area.h **** {
 1894              		.loc 2 133 26 view .LVU609
 1895              	.LBB139:
 1896              		.loc 2 135 5 view .LVU610
 1897              		.loc 2 135 31 is_stmt 0 view .LVU611
 1898 006a B4F806E0 		ldrh	lr, [r4, #6]
 1899              		.loc 2 135 44 view .LVU612
 1900 006e 6288     		ldrh	r2, [r4, #2]
 1901              		.loc 2 135 36 view .LVU613
 1902 0070 AEEB020E 		sub	lr, lr, r2
 1903 0074 1FFA8EFE 		uxth	lr, lr
 1904              		.loc 2 135 49 view .LVU614
 1905 0078 0EF1010E 		add	lr, lr, #1
 1906              		.loc 2 135 12 view .LVU615
 1907 007c 0FFA8EFE 		sxth	lr, lr
 1908              	.LVL175:
 1909              		.loc 2 135 12 view .LVU616
 1910              	.LBE139:
 1911              	.LBE138:
 1912              	.LBB140:
 1913              	.LBI140:
 133:lvgl/src/misc/lv_area.h **** {
 1914              		.loc 2 133 26 is_stmt 1 view .LVU617
 1915              	.LBB141:
 1916              		.loc 2 135 5 view .LVU618
 1917              		.loc 2 135 31 is_stmt 0 view .LVU619
 1918 0080 B1F806C0 		ldrh	ip, [r1, #6]
 1919              		.loc 2 135 44 view .LVU620
 1920 0084 4A88     		ldrh	r2, [r1, #2]
 1921              		.loc 2 135 36 view .LVU621
 1922 0086 ACEB020C 		sub	ip, ip, r2
 1923 008a 1FFA8CFC 		uxth	ip, ip
 1924              		.loc 2 135 49 view .LVU622
 1925 008e 0CF1010C 		add	ip, ip, #1
 1926              		.loc 2 135 12 view .LVU623
 1927 0092 0FFA8CFC 		sxth	ip, ip
 1928              	.LVL176:
ARM GAS  C:\Users\OSD\AppData\Local\Temp\ccx0d5Nb.s 			page 57


 1929              		.loc 2 135 12 view .LVU624
 1930              	.LBE141:
 1931              	.LBE140:
 414:lvgl/src/misc/lv_area.c ****             break;
 1932              		.loc 1 414 46 view .LVU625
 1933 0096 7246     		mov	r2, lr
 1934 0098 BEF1000F 		cmp	lr, #0
 1935 009c 36DB     		blt	.L131
 1936              	.L109:
 1937 009e 5210     		asrs	r2, r2, #1
 1938 00a0 E646     		mov	lr, ip
 1939 00a2 BCF1000F 		cmp	ip, #0
 1940 00a6 34DB     		blt	.L132
 1941              	.L110:
 1942 00a8 A2EB6E02 		sub	r2, r2, lr, asr #1
 414:lvgl/src/misc/lv_area.c ****             break;
 1943              		.loc 1 414 15 view .LVU626
 1944 00ac 12B2     		sxth	r2, r2
 1945              	.LVL177:
 415:lvgl/src/misc/lv_area.c **** 
 1946              		.loc 1 415 13 is_stmt 1 view .LVU627
 1947              	.L85:
 520:lvgl/src/misc/lv_area.c ****     y += base->y1;
 1948              		.loc 1 520 5 view .LVU628
 520:lvgl/src/misc/lv_area.c ****     y += base->y1;
 1949              		.loc 1 520 14 is_stmt 0 view .LVU629
 1950 00ae B4F800C0 		ldrh	ip, [r4]
 520:lvgl/src/misc/lv_area.c ****     y += base->y1;
 1951              		.loc 1 520 7 view .LVU630
 1952 00b2 8444     		add	ip, ip, r0
 1953              	.LVL178:
 521:lvgl/src/misc/lv_area.c **** 
 1954              		.loc 1 521 5 is_stmt 1 view .LVU631
 521:lvgl/src/misc/lv_area.c **** 
 1955              		.loc 1 521 14 is_stmt 0 view .LVU632
 1956 00b4 6088     		ldrh	r0, [r4, #2]
 521:lvgl/src/misc/lv_area.c **** 
 1957              		.loc 1 521 7 view .LVU633
 1958 00b6 0244     		add	r2, r2, r0
 1959              	.LVL179:
 523:lvgl/src/misc/lv_area.c ****     lv_coord_t h = lv_area_get_height(to_align);
 1960              		.loc 1 523 5 is_stmt 1 view .LVU634
 1961              	.LBB142:
 1962              	.LBI142:
 123:lvgl/src/misc/lv_area.h **** {
 1963              		.loc 2 123 26 view .LVU635
 1964              	.LBB143:
 125:lvgl/src/misc/lv_area.h **** }
 1965              		.loc 2 125 5 view .LVU636
 125:lvgl/src/misc/lv_area.h **** }
 1966              		.loc 2 125 31 is_stmt 0 view .LVU637
 1967 00b8 8C88     		ldrh	r4, [r1, #4]
 1968              	.LVL180:
 125:lvgl/src/misc/lv_area.h **** }
 1969              		.loc 2 125 44 view .LVU638
 1970 00ba 0888     		ldrh	r0, [r1]
 125:lvgl/src/misc/lv_area.h **** }
ARM GAS  C:\Users\OSD\AppData\Local\Temp\ccx0d5Nb.s 			page 58


 1971              		.loc 2 125 36 view .LVU639
 1972 00bc 241A     		subs	r4, r4, r0
 1973 00be A4B2     		uxth	r4, r4
 125:lvgl/src/misc/lv_area.h **** }
 1974              		.loc 2 125 49 view .LVU640
 1975 00c0 601C     		adds	r0, r4, #1
 1976 00c2 84B2     		uxth	r4, r0
 1977              	.LVL181:
 125:lvgl/src/misc/lv_area.h **** }
 1978              		.loc 2 125 49 view .LVU641
 1979              	.LBE143:
 1980              	.LBE142:
 524:lvgl/src/misc/lv_area.c ****     to_align->x1 = x + ofs_x;
 1981              		.loc 1 524 5 is_stmt 1 view .LVU642
 1982              	.LBB144:
 1983              	.LBI144:
 133:lvgl/src/misc/lv_area.h **** {
 1984              		.loc 2 133 26 view .LVU643
 1985              	.LBB145:
 1986              		.loc 2 135 5 view .LVU644
 1987              		.loc 2 135 31 is_stmt 0 view .LVU645
 1988 00c4 B1F806E0 		ldrh	lr, [r1, #6]
 1989              		.loc 2 135 44 view .LVU646
 1990 00c8 4888     		ldrh	r0, [r1, #2]
 1991              		.loc 2 135 36 view .LVU647
 1992 00ca AEEB000E 		sub	lr, lr, r0
 1993 00ce 1FFA8EFE 		uxth	lr, lr
 1994              		.loc 2 135 49 view .LVU648
 1995 00d2 0EF1010E 		add	lr, lr, #1
 1996 00d6 1FFA8EFE 		uxth	lr, lr
 1997              	.LVL182:
 1998              		.loc 2 135 49 view .LVU649
 1999              	.LBE145:
 2000              	.LBE144:
 525:lvgl/src/misc/lv_area.c ****     to_align->y1 = y + ofs_y;
 2001              		.loc 1 525 5 is_stmt 1 view .LVU650
 525:lvgl/src/misc/lv_area.c ****     to_align->y1 = y + ofs_y;
 2002              		.loc 1 525 22 is_stmt 0 view .LVU651
 2003 00da 13FA8CF0 		uxtah	r0, r3, ip
 525:lvgl/src/misc/lv_area.c ****     to_align->y1 = y + ofs_y;
 2004              		.loc 1 525 18 view .LVU652
 2005 00de 0880     		strh	r0, [r1]	@ movhi
 526:lvgl/src/misc/lv_area.c ****     to_align->x2 = to_align->x1 + w - 1;
 2006              		.loc 1 526 5 is_stmt 1 view .LVU653
 526:lvgl/src/misc/lv_area.c ****     to_align->x2 = to_align->x1 + w - 1;
 2007              		.loc 1 526 22 is_stmt 0 view .LVU654
 2008 00e0 BDF90830 		ldrsh	r3, [sp, #8]
 2009              	.LVL183:
 526:lvgl/src/misc/lv_area.c ****     to_align->x2 = to_align->x1 + w - 1;
 2010              		.loc 1 526 22 view .LVU655
 2011 00e4 13FA82F3 		uxtah	r3, r3, r2
 526:lvgl/src/misc/lv_area.c ****     to_align->x2 = to_align->x1 + w - 1;
 2012              		.loc 1 526 18 view .LVU656
 2013 00e8 4B80     		strh	r3, [r1, #2]	@ movhi
 527:lvgl/src/misc/lv_area.c ****     to_align->y2 = to_align->y1 + h - 1;
 2014              		.loc 1 527 5 is_stmt 1 view .LVU657
 527:lvgl/src/misc/lv_area.c ****     to_align->y2 = to_align->y1 + h - 1;
ARM GAS  C:\Users\OSD\AppData\Local\Temp\ccx0d5Nb.s 			page 59


 2015              		.loc 1 527 33 is_stmt 0 view .LVU658
 2016 00ea 14FA80F0 		uxtah	r0, r4, r0
 2017 00ee 80B2     		uxth	r0, r0
 527:lvgl/src/misc/lv_area.c ****     to_align->y2 = to_align->y1 + h - 1;
 2018              		.loc 1 527 37 view .LVU659
 2019 00f0 0138     		subs	r0, r0, #1
 527:lvgl/src/misc/lv_area.c ****     to_align->y2 = to_align->y1 + h - 1;
 2020              		.loc 1 527 18 view .LVU660
 2021 00f2 8880     		strh	r0, [r1, #4]	@ movhi
 528:lvgl/src/misc/lv_area.c **** }
 2022              		.loc 1 528 5 is_stmt 1 view .LVU661
 528:lvgl/src/misc/lv_area.c **** }
 2023              		.loc 1 528 33 is_stmt 0 view .LVU662
 2024 00f4 1EFA83F3 		uxtah	r3, lr, r3
 2025 00f8 9BB2     		uxth	r3, r3
 528:lvgl/src/misc/lv_area.c **** }
 2026              		.loc 1 528 37 view .LVU663
 2027 00fa 013B     		subs	r3, r3, #1
 528:lvgl/src/misc/lv_area.c **** }
 2028              		.loc 1 528 18 view .LVU664
 2029 00fc CB80     		strh	r3, [r1, #6]	@ movhi
 529:lvgl/src/misc/lv_area.c **** 
 2030              		.loc 1 529 1 view .LVU665
 2031 00fe 10BD     		pop	{r4, pc}
 2032              	.LVL184:
 2033              	.L129:
 413:lvgl/src/misc/lv_area.c ****             y = lv_area_get_height(base) / 2 - lv_area_get_height(to_align) / 2;
 2034              		.loc 1 413 45 view .LVU666
 2035 0100 00F1010C 		add	ip, r0, #1
 2036 0104 A9E7     		b	.L107
 2037              	.L130:
 2038 0106 02F1010C 		add	ip, r2, #1
 2039 010a ABE7     		b	.L108
 2040              	.LVL185:
 2041              	.L131:
 414:lvgl/src/misc/lv_area.c ****             break;
 2042              		.loc 1 414 46 view .LVU667
 2043 010c 0EF10102 		add	r2, lr, #1
 2044 0110 C5E7     		b	.L109
 2045              	.L132:
 2046 0112 0CF1010E 		add	lr, ip, #1
 2047 0116 C7E7     		b	.L110
 2048              	.LVL186:
 2049              	.L106:
 422:lvgl/src/misc/lv_area.c ****             y = 0;
 2050              		.loc 1 422 13 is_stmt 1 view .LVU668
 2051              	.LBB146:
 2052              	.LBI146:
 123:lvgl/src/misc/lv_area.h **** {
 2053              		.loc 2 123 26 view .LVU669
 2054              	.LBB147:
 125:lvgl/src/misc/lv_area.h **** }
 2055              		.loc 2 125 5 view .LVU670
 125:lvgl/src/misc/lv_area.h **** }
 2056              		.loc 2 125 31 is_stmt 0 view .LVU671
 2057 0118 A088     		ldrh	r0, [r4, #4]
 125:lvgl/src/misc/lv_area.h **** }
ARM GAS  C:\Users\OSD\AppData\Local\Temp\ccx0d5Nb.s 			page 60


 2058              		.loc 2 125 44 view .LVU672
 2059 011a 2288     		ldrh	r2, [r4]
 125:lvgl/src/misc/lv_area.h **** }
 2060              		.loc 2 125 36 view .LVU673
 2061 011c 801A     		subs	r0, r0, r2
 2062 011e 80B2     		uxth	r0, r0
 125:lvgl/src/misc/lv_area.h **** }
 2063              		.loc 2 125 49 view .LVU674
 2064 0120 0130     		adds	r0, r0, #1
 125:lvgl/src/misc/lv_area.h **** }
 2065              		.loc 2 125 12 view .LVU675
 2066 0122 00B2     		sxth	r0, r0
 2067              	.LVL187:
 125:lvgl/src/misc/lv_area.h **** }
 2068              		.loc 2 125 12 view .LVU676
 2069              	.LBE147:
 2070              	.LBE146:
 2071              	.LBB148:
 2072              	.LBI148:
 123:lvgl/src/misc/lv_area.h **** {
 2073              		.loc 2 123 26 is_stmt 1 view .LVU677
 2074              	.LBB149:
 125:lvgl/src/misc/lv_area.h **** }
 2075              		.loc 2 125 5 view .LVU678
 125:lvgl/src/misc/lv_area.h **** }
 2076              		.loc 2 125 31 is_stmt 0 view .LVU679
 2077 0124 8A88     		ldrh	r2, [r1, #4]
 125:lvgl/src/misc/lv_area.h **** }
 2078              		.loc 2 125 44 view .LVU680
 2079 0126 B1F800C0 		ldrh	ip, [r1]
 125:lvgl/src/misc/lv_area.h **** }
 2080              		.loc 2 125 36 view .LVU681
 2081 012a A2EB0C02 		sub	r2, r2, ip
 2082 012e 92B2     		uxth	r2, r2
 125:lvgl/src/misc/lv_area.h **** }
 2083              		.loc 2 125 49 view .LVU682
 2084 0130 0132     		adds	r2, r2, #1
 125:lvgl/src/misc/lv_area.h **** }
 2085              		.loc 2 125 12 view .LVU683
 2086 0132 12B2     		sxth	r2, r2
 2087              	.LVL188:
 125:lvgl/src/misc/lv_area.h **** }
 2088              		.loc 2 125 12 view .LVU684
 2089              	.LBE149:
 2090              	.LBE148:
 422:lvgl/src/misc/lv_area.c ****             y = 0;
 2091              		.loc 1 422 45 view .LVU685
 2092 0134 8446     		mov	ip, r0
 2093 0136 0028     		cmp	r0, #0
 2094 0138 09DB     		blt	.L133
 2095              	.L111:
 2096 013a 4FEA6C00 		asr	r0, ip, #1
 2097 013e 9446     		mov	ip, r2
 2098 0140 002A     		cmp	r2, #0
 2099 0142 07DB     		blt	.L134
 2100              	.L112:
 2101 0144 A0EB6C00 		sub	r0, r0, ip, asr #1
ARM GAS  C:\Users\OSD\AppData\Local\Temp\ccx0d5Nb.s 			page 61


 422:lvgl/src/misc/lv_area.c ****             y = 0;
 2102              		.loc 1 422 15 view .LVU686
 2103 0148 00B2     		sxth	r0, r0
 2104              	.LVL189:
 423:lvgl/src/misc/lv_area.c ****             break;
 2105              		.loc 1 423 13 is_stmt 1 view .LVU687
 424:lvgl/src/misc/lv_area.c **** 
 2106              		.loc 1 424 13 view .LVU688
 423:lvgl/src/misc/lv_area.c ****             break;
 2107              		.loc 1 423 15 is_stmt 0 view .LVU689
 2108 014a 0022     		movs	r2, #0
 424:lvgl/src/misc/lv_area.c **** 
 2109              		.loc 1 424 13 view .LVU690
 2110 014c AFE7     		b	.L85
 2111              	.LVL190:
 2112              	.L133:
 422:lvgl/src/misc/lv_area.c ****             y = 0;
 2113              		.loc 1 422 45 view .LVU691
 2114 014e 00F1010C 		add	ip, r0, #1
 2115 0152 F2E7     		b	.L111
 2116              	.L134:
 2117 0154 02F1010C 		add	ip, r2, #1
 2118 0158 F4E7     		b	.L112
 2119              	.L105:
 427:lvgl/src/misc/lv_area.c ****             y = 0;
 2120              		.loc 1 427 13 is_stmt 1 view .LVU692
 2121              	.LVL191:
 2122              	.LBB150:
 2123              	.LBI150:
 123:lvgl/src/misc/lv_area.h **** {
 2124              		.loc 2 123 26 view .LVU693
 2125              	.LBB151:
 125:lvgl/src/misc/lv_area.h **** }
 2126              		.loc 2 125 5 view .LVU694
 125:lvgl/src/misc/lv_area.h **** }
 2127              		.loc 2 125 31 is_stmt 0 view .LVU695
 2128 015a A088     		ldrh	r0, [r4, #4]
 125:lvgl/src/misc/lv_area.h **** }
 2129              		.loc 2 125 44 view .LVU696
 2130 015c 2288     		ldrh	r2, [r4]
 125:lvgl/src/misc/lv_area.h **** }
 2131              		.loc 2 125 36 view .LVU697
 2132 015e 801A     		subs	r0, r0, r2
 2133              	.LVL192:
 125:lvgl/src/misc/lv_area.h **** }
 2134              		.loc 2 125 36 view .LVU698
 2135              	.LBE151:
 2136              	.LBE150:
 2137              	.LBB152:
 2138              	.LBI152:
 123:lvgl/src/misc/lv_area.h **** {
 2139              		.loc 2 123 26 is_stmt 1 view .LVU699
 2140              	.LBB153:
 125:lvgl/src/misc/lv_area.h **** }
 2141              		.loc 2 125 5 view .LVU700
 125:lvgl/src/misc/lv_area.h **** }
 2142              		.loc 2 125 31 is_stmt 0 view .LVU701
ARM GAS  C:\Users\OSD\AppData\Local\Temp\ccx0d5Nb.s 			page 62


 2143 0160 8A88     		ldrh	r2, [r1, #4]
 125:lvgl/src/misc/lv_area.h **** }
 2144              		.loc 2 125 44 view .LVU702
 2145 0162 B1F800C0 		ldrh	ip, [r1]
 2146              	.LVL193:
 125:lvgl/src/misc/lv_area.h **** }
 2147              		.loc 2 125 44 view .LVU703
 2148              	.LBE153:
 2149              	.LBE152:
 427:lvgl/src/misc/lv_area.c ****             y = 0;
 2150              		.loc 1 427 41 view .LVU704
 2151 0166 ACEB020C 		sub	ip, ip, r2
 2152 016a 1CFA80F0 		uxtah	r0, ip, r0
 427:lvgl/src/misc/lv_area.c ****             y = 0;
 2153              		.loc 1 427 15 view .LVU705
 2154 016e 00B2     		sxth	r0, r0
 2155              	.LVL194:
 428:lvgl/src/misc/lv_area.c ****             break;
 2156              		.loc 1 428 13 is_stmt 1 view .LVU706
 429:lvgl/src/misc/lv_area.c **** 
 2157              		.loc 1 429 13 view .LVU707
 428:lvgl/src/misc/lv_area.c ****             break;
 2158              		.loc 1 428 15 is_stmt 0 view .LVU708
 2159 0170 0022     		movs	r2, #0
 429:lvgl/src/misc/lv_area.c **** 
 2160              		.loc 1 429 13 view .LVU709
 2161 0172 9CE7     		b	.L85
 2162              	.LVL195:
 2163              	.L104:
 432:lvgl/src/misc/lv_area.c ****             y = lv_area_get_height(base) - lv_area_get_height(to_align);
 2164              		.loc 1 432 13 is_stmt 1 view .LVU710
 433:lvgl/src/misc/lv_area.c ****             break;
 2165              		.loc 1 433 13 view .LVU711
 2166              	.LBB154:
 2167              	.LBI154:
 133:lvgl/src/misc/lv_area.h **** {
 2168              		.loc 2 133 26 view .LVU712
 2169              	.LBB155:
 2170              		.loc 2 135 5 view .LVU713
 2171              		.loc 2 135 31 is_stmt 0 view .LVU714
 2172 0174 E288     		ldrh	r2, [r4, #6]
 2173              		.loc 2 135 44 view .LVU715
 2174 0176 6088     		ldrh	r0, [r4, #2]
 2175              		.loc 2 135 36 view .LVU716
 2176 0178 121A     		subs	r2, r2, r0
 2177              	.LVL196:
 2178              		.loc 2 135 36 view .LVU717
 2179              	.LBE155:
 2180              	.LBE154:
 2181              	.LBB156:
 2182              	.LBI156:
 133:lvgl/src/misc/lv_area.h **** {
 2183              		.loc 2 133 26 is_stmt 1 view .LVU718
 2184              	.LBB157:
 2185              		.loc 2 135 5 view .LVU719
 2186              		.loc 2 135 31 is_stmt 0 view .LVU720
 2187 017a B1F806C0 		ldrh	ip, [r1, #6]
ARM GAS  C:\Users\OSD\AppData\Local\Temp\ccx0d5Nb.s 			page 63


 2188              		.loc 2 135 44 view .LVU721
 2189 017e 4888     		ldrh	r0, [r1, #2]
 2190              	.LVL197:
 2191              		.loc 2 135 44 view .LVU722
 2192              	.LBE157:
 2193              	.LBE156:
 433:lvgl/src/misc/lv_area.c ****             break;
 2194              		.loc 1 433 42 view .LVU723
 2195 0180 A0EB0C00 		sub	r0, r0, ip
 2196 0184 10FA82F2 		uxtah	r2, r0, r2
 433:lvgl/src/misc/lv_area.c ****             break;
 2197              		.loc 1 433 15 view .LVU724
 2198 0188 12B2     		sxth	r2, r2
 2199              	.LVL198:
 434:lvgl/src/misc/lv_area.c ****         case LV_ALIGN_BOTTOM_MID:
 2200              		.loc 1 434 13 is_stmt 1 view .LVU725
 432:lvgl/src/misc/lv_area.c ****             y = lv_area_get_height(base) - lv_area_get_height(to_align);
 2201              		.loc 1 432 15 is_stmt 0 view .LVU726
 2202 018a 0020     		movs	r0, #0
 434:lvgl/src/misc/lv_area.c ****         case LV_ALIGN_BOTTOM_MID:
 2203              		.loc 1 434 13 view .LVU727
 2204 018c 8FE7     		b	.L85
 2205              	.LVL199:
 2206              	.L103:
 436:lvgl/src/misc/lv_area.c ****             y = lv_area_get_height(base) - lv_area_get_height(to_align);
 2207              		.loc 1 436 13 is_stmt 1 view .LVU728
 2208              	.LBB158:
 2209              	.LBI158:
 123:lvgl/src/misc/lv_area.h **** {
 2210              		.loc 2 123 26 view .LVU729
 2211              	.LBB159:
 125:lvgl/src/misc/lv_area.h **** }
 2212              		.loc 2 125 5 view .LVU730
 125:lvgl/src/misc/lv_area.h **** }
 2213              		.loc 2 125 31 is_stmt 0 view .LVU731
 2214 018e A088     		ldrh	r0, [r4, #4]
 125:lvgl/src/misc/lv_area.h **** }
 2215              		.loc 2 125 44 view .LVU732
 2216 0190 2288     		ldrh	r2, [r4]
 125:lvgl/src/misc/lv_area.h **** }
 2217              		.loc 2 125 36 view .LVU733
 2218 0192 801A     		subs	r0, r0, r2
 2219 0194 80B2     		uxth	r0, r0
 125:lvgl/src/misc/lv_area.h **** }
 2220              		.loc 2 125 49 view .LVU734
 2221 0196 0130     		adds	r0, r0, #1
 125:lvgl/src/misc/lv_area.h **** }
 2222              		.loc 2 125 12 view .LVU735
 2223 0198 00B2     		sxth	r0, r0
 2224              	.LVL200:
 125:lvgl/src/misc/lv_area.h **** }
 2225              		.loc 2 125 12 view .LVU736
 2226              	.LBE159:
 2227              	.LBE158:
 2228              	.LBB160:
 2229              	.LBI160:
 123:lvgl/src/misc/lv_area.h **** {
ARM GAS  C:\Users\OSD\AppData\Local\Temp\ccx0d5Nb.s 			page 64


 2230              		.loc 2 123 26 is_stmt 1 view .LVU737
 2231              	.LBB161:
 125:lvgl/src/misc/lv_area.h **** }
 2232              		.loc 2 125 5 view .LVU738
 125:lvgl/src/misc/lv_area.h **** }
 2233              		.loc 2 125 31 is_stmt 0 view .LVU739
 2234 019a 8A88     		ldrh	r2, [r1, #4]
 125:lvgl/src/misc/lv_area.h **** }
 2235              		.loc 2 125 44 view .LVU740
 2236 019c B1F800C0 		ldrh	ip, [r1]
 125:lvgl/src/misc/lv_area.h **** }
 2237              		.loc 2 125 36 view .LVU741
 2238 01a0 A2EB0C02 		sub	r2, r2, ip
 2239 01a4 92B2     		uxth	r2, r2
 125:lvgl/src/misc/lv_area.h **** }
 2240              		.loc 2 125 49 view .LVU742
 2241 01a6 0132     		adds	r2, r2, #1
 125:lvgl/src/misc/lv_area.h **** }
 2242              		.loc 2 125 12 view .LVU743
 2243 01a8 12B2     		sxth	r2, r2
 2244              	.LVL201:
 125:lvgl/src/misc/lv_area.h **** }
 2245              		.loc 2 125 12 view .LVU744
 2246              	.LBE161:
 2247              	.LBE160:
 436:lvgl/src/misc/lv_area.c ****             y = lv_area_get_height(base) - lv_area_get_height(to_align);
 2248              		.loc 1 436 45 view .LVU745
 2249 01aa 8446     		mov	ip, r0
 2250 01ac 0028     		cmp	r0, #0
 2251 01ae 16DB     		blt	.L135
 2252              	.L113:
 2253 01b0 4FEA6C00 		asr	r0, ip, #1
 2254 01b4 9446     		mov	ip, r2
 2255 01b6 002A     		cmp	r2, #0
 2256 01b8 14DB     		blt	.L136
 2257              	.L114:
 2258 01ba A0EB6C00 		sub	r0, r0, ip, asr #1
 436:lvgl/src/misc/lv_area.c ****             y = lv_area_get_height(base) - lv_area_get_height(to_align);
 2259              		.loc 1 436 15 view .LVU746
 2260 01be 00B2     		sxth	r0, r0
 2261              	.LVL202:
 437:lvgl/src/misc/lv_area.c ****             break;
 2262              		.loc 1 437 13 is_stmt 1 view .LVU747
 2263              	.LBB162:
 2264              	.LBI162:
 133:lvgl/src/misc/lv_area.h **** {
 2265              		.loc 2 133 26 view .LVU748
 2266              	.LBB163:
 2267              		.loc 2 135 5 view .LVU749
 2268              		.loc 2 135 31 is_stmt 0 view .LVU750
 2269 01c0 E288     		ldrh	r2, [r4, #6]
 2270              		.loc 2 135 44 view .LVU751
 2271 01c2 B4F802C0 		ldrh	ip, [r4, #2]
 2272              		.loc 2 135 36 view .LVU752
 2273 01c6 A2EB0C02 		sub	r2, r2, ip
 2274              	.LVL203:
 2275              		.loc 2 135 36 view .LVU753
ARM GAS  C:\Users\OSD\AppData\Local\Temp\ccx0d5Nb.s 			page 65


 2276              	.LBE163:
 2277              	.LBE162:
 2278              	.LBB164:
 2279              	.LBI164:
 133:lvgl/src/misc/lv_area.h **** {
 2280              		.loc 2 133 26 is_stmt 1 view .LVU754
 2281              	.LBB165:
 2282              		.loc 2 135 5 view .LVU755
 2283              		.loc 2 135 31 is_stmt 0 view .LVU756
 2284 01ca B1F806E0 		ldrh	lr, [r1, #6]
 2285              		.loc 2 135 44 view .LVU757
 2286 01ce B1F802C0 		ldrh	ip, [r1, #2]
 2287              	.LVL204:
 2288              		.loc 2 135 44 view .LVU758
 2289              	.LBE165:
 2290              	.LBE164:
 437:lvgl/src/misc/lv_area.c ****             break;
 2291              		.loc 1 437 42 view .LVU759
 2292 01d2 ACEB0E0C 		sub	ip, ip, lr
 2293 01d6 1CFA82F2 		uxtah	r2, ip, r2
 437:lvgl/src/misc/lv_area.c ****             break;
 2294              		.loc 1 437 15 view .LVU760
 2295 01da 12B2     		sxth	r2, r2
 2296              	.LVL205:
 438:lvgl/src/misc/lv_area.c **** 
 2297              		.loc 1 438 13 is_stmt 1 view .LVU761
 2298 01dc 67E7     		b	.L85
 2299              	.LVL206:
 2300              	.L135:
 436:lvgl/src/misc/lv_area.c ****             y = lv_area_get_height(base) - lv_area_get_height(to_align);
 2301              		.loc 1 436 45 is_stmt 0 view .LVU762
 2302 01de 00F1010C 		add	ip, r0, #1
 2303 01e2 E5E7     		b	.L113
 2304              	.L136:
 2305 01e4 02F1010C 		add	ip, r2, #1
 2306 01e8 E7E7     		b	.L114
 2307              	.L102:
 441:lvgl/src/misc/lv_area.c ****             y = lv_area_get_height(base) - lv_area_get_height(to_align);
 2308              		.loc 1 441 13 is_stmt 1 view .LVU763
 2309              	.LVL207:
 2310              	.LBB166:
 2311              	.LBI166:
 123:lvgl/src/misc/lv_area.h **** {
 2312              		.loc 2 123 26 view .LVU764
 2313              	.LBB167:
 125:lvgl/src/misc/lv_area.h **** }
 2314              		.loc 2 125 5 view .LVU765
 125:lvgl/src/misc/lv_area.h **** }
 2315              		.loc 2 125 31 is_stmt 0 view .LVU766
 2316 01ea A088     		ldrh	r0, [r4, #4]
 125:lvgl/src/misc/lv_area.h **** }
 2317              		.loc 2 125 44 view .LVU767
 2318 01ec 2288     		ldrh	r2, [r4]
 125:lvgl/src/misc/lv_area.h **** }
 2319              		.loc 2 125 36 view .LVU768
 2320 01ee 801A     		subs	r0, r0, r2
 2321              	.LVL208:
ARM GAS  C:\Users\OSD\AppData\Local\Temp\ccx0d5Nb.s 			page 66


 125:lvgl/src/misc/lv_area.h **** }
 2322              		.loc 2 125 36 view .LVU769
 2323              	.LBE167:
 2324              	.LBE166:
 2325              	.LBB168:
 2326              	.LBI168:
 123:lvgl/src/misc/lv_area.h **** {
 2327              		.loc 2 123 26 is_stmt 1 view .LVU770
 2328              	.LBB169:
 125:lvgl/src/misc/lv_area.h **** }
 2329              		.loc 2 125 5 view .LVU771
 125:lvgl/src/misc/lv_area.h **** }
 2330              		.loc 2 125 31 is_stmt 0 view .LVU772
 2331 01f0 8A88     		ldrh	r2, [r1, #4]
 125:lvgl/src/misc/lv_area.h **** }
 2332              		.loc 2 125 44 view .LVU773
 2333 01f2 B1F800C0 		ldrh	ip, [r1]
 2334              	.LVL209:
 125:lvgl/src/misc/lv_area.h **** }
 2335              		.loc 2 125 44 view .LVU774
 2336              	.LBE169:
 2337              	.LBE168:
 441:lvgl/src/misc/lv_area.c ****             y = lv_area_get_height(base) - lv_area_get_height(to_align);
 2338              		.loc 1 441 41 view .LVU775
 2339 01f6 ACEB020C 		sub	ip, ip, r2
 2340 01fa 1CFA80F0 		uxtah	r0, ip, r0
 441:lvgl/src/misc/lv_area.c ****             y = lv_area_get_height(base) - lv_area_get_height(to_align);
 2341              		.loc 1 441 15 view .LVU776
 2342 01fe 00B2     		sxth	r0, r0
 2343              	.LVL210:
 442:lvgl/src/misc/lv_area.c ****             break;
 2344              		.loc 1 442 13 is_stmt 1 view .LVU777
 2345              	.LBB170:
 2346              	.LBI170:
 133:lvgl/src/misc/lv_area.h **** {
 2347              		.loc 2 133 26 view .LVU778
 2348              	.LBB171:
 2349              		.loc 2 135 5 view .LVU779
 2350              		.loc 2 135 31 is_stmt 0 view .LVU780
 2351 0200 E288     		ldrh	r2, [r4, #6]
 2352              		.loc 2 135 44 view .LVU781
 2353 0202 B4F802C0 		ldrh	ip, [r4, #2]
 2354              		.loc 2 135 36 view .LVU782
 2355 0206 A2EB0C02 		sub	r2, r2, ip
 2356              	.LVL211:
 2357              		.loc 2 135 36 view .LVU783
 2358              	.LBE171:
 2359              	.LBE170:
 2360              	.LBB172:
 2361              	.LBI172:
 133:lvgl/src/misc/lv_area.h **** {
 2362              		.loc 2 133 26 is_stmt 1 view .LVU784
 2363              	.LBB173:
 2364              		.loc 2 135 5 view .LVU785
 2365              		.loc 2 135 31 is_stmt 0 view .LVU786
 2366 020a B1F806E0 		ldrh	lr, [r1, #6]
 2367              		.loc 2 135 44 view .LVU787
ARM GAS  C:\Users\OSD\AppData\Local\Temp\ccx0d5Nb.s 			page 67


 2368 020e B1F802C0 		ldrh	ip, [r1, #2]
 2369              	.LVL212:
 2370              		.loc 2 135 44 view .LVU788
 2371              	.LBE173:
 2372              	.LBE172:
 442:lvgl/src/misc/lv_area.c ****             break;
 2373              		.loc 1 442 42 view .LVU789
 2374 0212 ACEB0E0C 		sub	ip, ip, lr
 2375 0216 1CFA82F2 		uxtah	r2, ip, r2
 442:lvgl/src/misc/lv_area.c ****             break;
 2376              		.loc 1 442 15 view .LVU790
 2377 021a 12B2     		sxth	r2, r2
 2378              	.LVL213:
 443:lvgl/src/misc/lv_area.c **** 
 2379              		.loc 1 443 13 is_stmt 1 view .LVU791
 2380 021c 47E7     		b	.L85
 2381              	.LVL214:
 2382              	.L101:
 446:lvgl/src/misc/lv_area.c ****             y = lv_area_get_height(base) / 2 - lv_area_get_height(to_align) / 2;
 2383              		.loc 1 446 13 view .LVU792
 447:lvgl/src/misc/lv_area.c ****             break;
 2384              		.loc 1 447 13 view .LVU793
 2385              	.LBB174:
 2386              	.LBI174:
 133:lvgl/src/misc/lv_area.h **** {
 2387              		.loc 2 133 26 view .LVU794
 2388              	.LBB175:
 2389              		.loc 2 135 5 view .LVU795
 2390              		.loc 2 135 31 is_stmt 0 view .LVU796
 2391 021e B4F806C0 		ldrh	ip, [r4, #6]
 2392              		.loc 2 135 44 view .LVU797
 2393 0222 6288     		ldrh	r2, [r4, #2]
 2394              		.loc 2 135 36 view .LVU798
 2395 0224 ACEB020C 		sub	ip, ip, r2
 2396 0228 1FFA8CFC 		uxth	ip, ip
 2397              		.loc 2 135 49 view .LVU799
 2398 022c 0CF1010C 		add	ip, ip, #1
 2399              		.loc 2 135 12 view .LVU800
 2400 0230 0FFA8CFC 		sxth	ip, ip
 2401              	.LVL215:
 2402              		.loc 2 135 12 view .LVU801
 2403              	.LBE175:
 2404              	.LBE174:
 2405              	.LBB176:
 2406              	.LBI176:
 133:lvgl/src/misc/lv_area.h **** {
 2407              		.loc 2 133 26 is_stmt 1 view .LVU802
 2408              	.LBB177:
 2409              		.loc 2 135 5 view .LVU803
 2410              		.loc 2 135 31 is_stmt 0 view .LVU804
 2411 0234 C888     		ldrh	r0, [r1, #6]
 2412              		.loc 2 135 44 view .LVU805
 2413 0236 4A88     		ldrh	r2, [r1, #2]
 2414              		.loc 2 135 36 view .LVU806
 2415 0238 801A     		subs	r0, r0, r2
 2416 023a 80B2     		uxth	r0, r0
 2417              		.loc 2 135 49 view .LVU807
ARM GAS  C:\Users\OSD\AppData\Local\Temp\ccx0d5Nb.s 			page 68


 2418 023c 0130     		adds	r0, r0, #1
 2419              		.loc 2 135 12 view .LVU808
 2420 023e 00B2     		sxth	r0, r0
 2421              	.LVL216:
 2422              		.loc 2 135 12 view .LVU809
 2423              	.LBE177:
 2424              	.LBE176:
 447:lvgl/src/misc/lv_area.c ****             break;
 2425              		.loc 1 447 46 view .LVU810
 2426 0240 6246     		mov	r2, ip
 2427 0242 BCF1000F 		cmp	ip, #0
 2428 0246 08DB     		blt	.L137
 2429              	.L115:
 2430 0248 5210     		asrs	r2, r2, #1
 2431 024a 8446     		mov	ip, r0
 2432 024c 0028     		cmp	r0, #0
 2433 024e 07DB     		blt	.L138
 2434              	.L116:
 2435 0250 A2EB6C02 		sub	r2, r2, ip, asr #1
 447:lvgl/src/misc/lv_area.c ****             break;
 2436              		.loc 1 447 15 view .LVU811
 2437 0254 12B2     		sxth	r2, r2
 2438              	.LVL217:
 448:lvgl/src/misc/lv_area.c **** 
 2439              		.loc 1 448 13 is_stmt 1 view .LVU812
 446:lvgl/src/misc/lv_area.c ****             y = lv_area_get_height(base) / 2 - lv_area_get_height(to_align) / 2;
 2440              		.loc 1 446 15 is_stmt 0 view .LVU813
 2441 0256 0020     		movs	r0, #0
 448:lvgl/src/misc/lv_area.c **** 
 2442              		.loc 1 448 13 view .LVU814
 2443 0258 29E7     		b	.L85
 2444              	.LVL218:
 2445              	.L137:
 447:lvgl/src/misc/lv_area.c ****             break;
 2446              		.loc 1 447 46 view .LVU815
 2447 025a 0CF10102 		add	r2, ip, #1
 2448 025e F3E7     		b	.L115
 2449              	.L138:
 2450 0260 00F1010C 		add	ip, r0, #1
 2451 0264 F4E7     		b	.L116
 2452              	.LVL219:
 2453              	.L100:
 451:lvgl/src/misc/lv_area.c ****             y = lv_area_get_height(base) / 2 - lv_area_get_height(to_align) / 2;
 2454              		.loc 1 451 13 is_stmt 1 view .LVU816
 2455              	.LBB178:
 2456              	.LBI178:
 123:lvgl/src/misc/lv_area.h **** {
 2457              		.loc 2 123 26 view .LVU817
 2458              	.LBB179:
 125:lvgl/src/misc/lv_area.h **** }
 2459              		.loc 2 125 5 view .LVU818
 125:lvgl/src/misc/lv_area.h **** }
 2460              		.loc 2 125 31 is_stmt 0 view .LVU819
 2461 0266 A088     		ldrh	r0, [r4, #4]
 125:lvgl/src/misc/lv_area.h **** }
 2462              		.loc 2 125 44 view .LVU820
 2463 0268 2288     		ldrh	r2, [r4]
ARM GAS  C:\Users\OSD\AppData\Local\Temp\ccx0d5Nb.s 			page 69


 125:lvgl/src/misc/lv_area.h **** }
 2464              		.loc 2 125 36 view .LVU821
 2465 026a 801A     		subs	r0, r0, r2
 2466              	.LVL220:
 125:lvgl/src/misc/lv_area.h **** }
 2467              		.loc 2 125 36 view .LVU822
 2468              	.LBE179:
 2469              	.LBE178:
 2470              	.LBB180:
 2471              	.LBI180:
 123:lvgl/src/misc/lv_area.h **** {
 2472              		.loc 2 123 26 is_stmt 1 view .LVU823
 2473              	.LBB181:
 125:lvgl/src/misc/lv_area.h **** }
 2474              		.loc 2 125 5 view .LVU824
 125:lvgl/src/misc/lv_area.h **** }
 2475              		.loc 2 125 31 is_stmt 0 view .LVU825
 2476 026c 8A88     		ldrh	r2, [r1, #4]
 125:lvgl/src/misc/lv_area.h **** }
 2477              		.loc 2 125 44 view .LVU826
 2478 026e B1F800C0 		ldrh	ip, [r1]
 2479              	.LVL221:
 125:lvgl/src/misc/lv_area.h **** }
 2480              		.loc 2 125 44 view .LVU827
 2481              	.LBE181:
 2482              	.LBE180:
 451:lvgl/src/misc/lv_area.c ****             y = lv_area_get_height(base) / 2 - lv_area_get_height(to_align) / 2;
 2483              		.loc 1 451 41 view .LVU828
 2484 0272 ACEB020C 		sub	ip, ip, r2
 2485 0276 1CFA80F0 		uxtah	r0, ip, r0
 451:lvgl/src/misc/lv_area.c ****             y = lv_area_get_height(base) / 2 - lv_area_get_height(to_align) / 2;
 2486              		.loc 1 451 15 view .LVU829
 2487 027a 00B2     		sxth	r0, r0
 2488              	.LVL222:
 452:lvgl/src/misc/lv_area.c ****             break;
 2489              		.loc 1 452 13 is_stmt 1 view .LVU830
 2490              	.LBB182:
 2491              	.LBI182:
 133:lvgl/src/misc/lv_area.h **** {
 2492              		.loc 2 133 26 view .LVU831
 2493              	.LBB183:
 2494              		.loc 2 135 5 view .LVU832
 2495              		.loc 2 135 31 is_stmt 0 view .LVU833
 2496 027c B4F806E0 		ldrh	lr, [r4, #6]
 2497              		.loc 2 135 44 view .LVU834
 2498 0280 6288     		ldrh	r2, [r4, #2]
 2499              		.loc 2 135 36 view .LVU835
 2500 0282 AEEB020E 		sub	lr, lr, r2
 2501 0286 1FFA8EFE 		uxth	lr, lr
 2502              		.loc 2 135 49 view .LVU836
 2503 028a 0EF1010E 		add	lr, lr, #1
 2504              		.loc 2 135 12 view .LVU837
 2505 028e 0FFA8EFE 		sxth	lr, lr
 2506              	.LVL223:
 2507              		.loc 2 135 12 view .LVU838
 2508              	.LBE183:
 2509              	.LBE182:
ARM GAS  C:\Users\OSD\AppData\Local\Temp\ccx0d5Nb.s 			page 70


 2510              	.LBB184:
 2511              	.LBI184:
 133:lvgl/src/misc/lv_area.h **** {
 2512              		.loc 2 133 26 is_stmt 1 view .LVU839
 2513              	.LBB185:
 2514              		.loc 2 135 5 view .LVU840
 2515              		.loc 2 135 31 is_stmt 0 view .LVU841
 2516 0292 B1F806C0 		ldrh	ip, [r1, #6]
 2517              		.loc 2 135 44 view .LVU842
 2518 0296 4A88     		ldrh	r2, [r1, #2]
 2519              		.loc 2 135 36 view .LVU843
 2520 0298 ACEB020C 		sub	ip, ip, r2
 2521 029c 1FFA8CFC 		uxth	ip, ip
 2522              		.loc 2 135 49 view .LVU844
 2523 02a0 0CF1010C 		add	ip, ip, #1
 2524              		.loc 2 135 12 view .LVU845
 2525 02a4 0FFA8CFC 		sxth	ip, ip
 2526              	.LVL224:
 2527              		.loc 2 135 12 view .LVU846
 2528              	.LBE185:
 2529              	.LBE184:
 452:lvgl/src/misc/lv_area.c ****             break;
 2530              		.loc 1 452 46 view .LVU847
 2531 02a8 7246     		mov	r2, lr
 2532 02aa BEF1000F 		cmp	lr, #0
 2533 02ae 08DB     		blt	.L139
 2534              	.L117:
 2535 02b0 5210     		asrs	r2, r2, #1
 2536 02b2 E646     		mov	lr, ip
 2537 02b4 BCF1000F 		cmp	ip, #0
 2538 02b8 06DB     		blt	.L140
 2539              	.L118:
 2540 02ba A2EB6E02 		sub	r2, r2, lr, asr #1
 452:lvgl/src/misc/lv_area.c ****             break;
 2541              		.loc 1 452 15 view .LVU848
 2542 02be 12B2     		sxth	r2, r2
 2543              	.LVL225:
 453:lvgl/src/misc/lv_area.c **** 
 2544              		.loc 1 453 13 is_stmt 1 view .LVU849
 2545 02c0 F5E6     		b	.L85
 2546              	.LVL226:
 2547              	.L139:
 452:lvgl/src/misc/lv_area.c ****             break;
 2548              		.loc 1 452 46 is_stmt 0 view .LVU850
 2549 02c2 0EF10102 		add	r2, lr, #1
 2550 02c6 F3E7     		b	.L117
 2551              	.L140:
 2552 02c8 0CF1010E 		add	lr, ip, #1
 2553 02cc F5E7     		b	.L118
 2554              	.LVL227:
 2555              	.L98:
 456:lvgl/src/misc/lv_area.c ****             y = -lv_area_get_height(to_align);
 2556              		.loc 1 456 13 is_stmt 1 view .LVU851
 457:lvgl/src/misc/lv_area.c ****             break;
 2557              		.loc 1 457 13 view .LVU852
 2558              	.LBB186:
 2559              	.LBI186:
ARM GAS  C:\Users\OSD\AppData\Local\Temp\ccx0d5Nb.s 			page 71


 133:lvgl/src/misc/lv_area.h **** {
 2560              		.loc 2 133 26 view .LVU853
 2561              	.LBB187:
 2562              		.loc 2 135 5 view .LVU854
 2563              		.loc 2 135 31 is_stmt 0 view .LVU855
 2564 02ce C888     		ldrh	r0, [r1, #6]
 2565              		.loc 2 135 44 view .LVU856
 2566 02d0 4A88     		ldrh	r2, [r1, #2]
 2567              	.LVL228:
 2568              		.loc 2 135 44 view .LVU857
 2569              	.LBE187:
 2570              	.LBE186:
 457:lvgl/src/misc/lv_area.c ****             break;
 2571              		.loc 1 457 15 view .LVU858
 2572 02d2 121A     		subs	r2, r2, r0
 2573 02d4 013A     		subs	r2, r2, #1
 2574 02d6 12B2     		sxth	r2, r2
 2575              	.LVL229:
 458:lvgl/src/misc/lv_area.c **** 
 2576              		.loc 1 458 13 is_stmt 1 view .LVU859
 456:lvgl/src/misc/lv_area.c ****             y = -lv_area_get_height(to_align);
 2577              		.loc 1 456 15 is_stmt 0 view .LVU860
 2578 02d8 0020     		movs	r0, #0
 458:lvgl/src/misc/lv_area.c **** 
 2579              		.loc 1 458 13 view .LVU861
 2580 02da E8E6     		b	.L85
 2581              	.LVL230:
 2582              	.L97:
 461:lvgl/src/misc/lv_area.c ****             y = -lv_area_get_height(to_align);
 2583              		.loc 1 461 13 is_stmt 1 view .LVU862
 2584              	.LBB188:
 2585              	.LBI188:
 123:lvgl/src/misc/lv_area.h **** {
 2586              		.loc 2 123 26 view .LVU863
 2587              	.LBB189:
 125:lvgl/src/misc/lv_area.h **** }
 2588              		.loc 2 125 5 view .LVU864
 125:lvgl/src/misc/lv_area.h **** }
 2589              		.loc 2 125 31 is_stmt 0 view .LVU865
 2590 02dc A088     		ldrh	r0, [r4, #4]
 125:lvgl/src/misc/lv_area.h **** }
 2591              		.loc 2 125 44 view .LVU866
 2592 02de 2288     		ldrh	r2, [r4]
 125:lvgl/src/misc/lv_area.h **** }
 2593              		.loc 2 125 36 view .LVU867
 2594 02e0 801A     		subs	r0, r0, r2
 2595 02e2 80B2     		uxth	r0, r0
 125:lvgl/src/misc/lv_area.h **** }
 2596              		.loc 2 125 49 view .LVU868
 2597 02e4 0130     		adds	r0, r0, #1
 125:lvgl/src/misc/lv_area.h **** }
 2598              		.loc 2 125 12 view .LVU869
 2599 02e6 00B2     		sxth	r0, r0
 2600              	.LVL231:
 125:lvgl/src/misc/lv_area.h **** }
 2601              		.loc 2 125 12 view .LVU870
 2602              	.LBE189:
ARM GAS  C:\Users\OSD\AppData\Local\Temp\ccx0d5Nb.s 			page 72


 2603              	.LBE188:
 2604              	.LBB190:
 2605              	.LBI190:
 123:lvgl/src/misc/lv_area.h **** {
 2606              		.loc 2 123 26 is_stmt 1 view .LVU871
 2607              	.LBB191:
 125:lvgl/src/misc/lv_area.h **** }
 2608              		.loc 2 125 5 view .LVU872
 125:lvgl/src/misc/lv_area.h **** }
 2609              		.loc 2 125 31 is_stmt 0 view .LVU873
 2610 02e8 8A88     		ldrh	r2, [r1, #4]
 125:lvgl/src/misc/lv_area.h **** }
 2611              		.loc 2 125 44 view .LVU874
 2612 02ea B1F800C0 		ldrh	ip, [r1]
 125:lvgl/src/misc/lv_area.h **** }
 2613              		.loc 2 125 36 view .LVU875
 2614 02ee A2EB0C02 		sub	r2, r2, ip
 2615 02f2 92B2     		uxth	r2, r2
 125:lvgl/src/misc/lv_area.h **** }
 2616              		.loc 2 125 49 view .LVU876
 2617 02f4 0132     		adds	r2, r2, #1
 125:lvgl/src/misc/lv_area.h **** }
 2618              		.loc 2 125 12 view .LVU877
 2619 02f6 12B2     		sxth	r2, r2
 2620              	.LVL232:
 125:lvgl/src/misc/lv_area.h **** }
 2621              		.loc 2 125 12 view .LVU878
 2622              	.LBE191:
 2623              	.LBE190:
 461:lvgl/src/misc/lv_area.c ****             y = -lv_area_get_height(to_align);
 2624              		.loc 1 461 45 view .LVU879
 2625 02f8 8446     		mov	ip, r0
 2626 02fa 0028     		cmp	r0, #0
 2627 02fc 0FDB     		blt	.L141
 2628              	.L119:
 2629 02fe 4FEA6C00 		asr	r0, ip, #1
 2630 0302 9446     		mov	ip, r2
 2631 0304 002A     		cmp	r2, #0
 2632 0306 0DDB     		blt	.L142
 2633              	.L120:
 2634 0308 A0EB6C00 		sub	r0, r0, ip, asr #1
 461:lvgl/src/misc/lv_area.c ****             y = -lv_area_get_height(to_align);
 2635              		.loc 1 461 15 view .LVU880
 2636 030c 00B2     		sxth	r0, r0
 2637              	.LVL233:
 462:lvgl/src/misc/lv_area.c ****             break;
 2638              		.loc 1 462 13 is_stmt 1 view .LVU881
 2639              	.LBB192:
 2640              	.LBI192:
 133:lvgl/src/misc/lv_area.h **** {
 2641              		.loc 2 133 26 view .LVU882
 2642              	.LBB193:
 2643              		.loc 2 135 5 view .LVU883
 2644              		.loc 2 135 31 is_stmt 0 view .LVU884
 2645 030e B1F806C0 		ldrh	ip, [r1, #6]
 2646              		.loc 2 135 44 view .LVU885
 2647 0312 4A88     		ldrh	r2, [r1, #2]
ARM GAS  C:\Users\OSD\AppData\Local\Temp\ccx0d5Nb.s 			page 73


 2648              	.LVL234:
 2649              		.loc 2 135 44 view .LVU886
 2650              	.LBE193:
 2651              	.LBE192:
 462:lvgl/src/misc/lv_area.c ****             break;
 2652              		.loc 1 462 15 view .LVU887
 2653 0314 A2EB0C02 		sub	r2, r2, ip
 2654 0318 013A     		subs	r2, r2, #1
 2655 031a 12B2     		sxth	r2, r2
 2656              	.LVL235:
 463:lvgl/src/misc/lv_area.c **** 
 2657              		.loc 1 463 13 is_stmt 1 view .LVU888
 2658 031c C7E6     		b	.L85
 2659              	.LVL236:
 2660              	.L141:
 461:lvgl/src/misc/lv_area.c ****             y = -lv_area_get_height(to_align);
 2661              		.loc 1 461 45 is_stmt 0 view .LVU889
 2662 031e 00F1010C 		add	ip, r0, #1
 2663 0322 ECE7     		b	.L119
 2664              	.L142:
 2665 0324 02F1010C 		add	ip, r2, #1
 2666 0328 EEE7     		b	.L120
 2667              	.L96:
 466:lvgl/src/misc/lv_area.c ****             y = -lv_area_get_height(to_align);
 2668              		.loc 1 466 13 is_stmt 1 view .LVU890
 2669              	.LVL237:
 2670              	.LBB194:
 2671              	.LBI194:
 123:lvgl/src/misc/lv_area.h **** {
 2672              		.loc 2 123 26 view .LVU891
 2673              	.LBB195:
 125:lvgl/src/misc/lv_area.h **** }
 2674              		.loc 2 125 5 view .LVU892
 125:lvgl/src/misc/lv_area.h **** }
 2675              		.loc 2 125 31 is_stmt 0 view .LVU893
 2676 032a A088     		ldrh	r0, [r4, #4]
 125:lvgl/src/misc/lv_area.h **** }
 2677              		.loc 2 125 44 view .LVU894
 2678 032c 2288     		ldrh	r2, [r4]
 125:lvgl/src/misc/lv_area.h **** }
 2679              		.loc 2 125 36 view .LVU895
 2680 032e 801A     		subs	r0, r0, r2
 2681              	.LVL238:
 125:lvgl/src/misc/lv_area.h **** }
 2682              		.loc 2 125 36 view .LVU896
 2683              	.LBE195:
 2684              	.LBE194:
 2685              	.LBB196:
 2686              	.LBI196:
 123:lvgl/src/misc/lv_area.h **** {
 2687              		.loc 2 123 26 is_stmt 1 view .LVU897
 2688              	.LBB197:
 125:lvgl/src/misc/lv_area.h **** }
 2689              		.loc 2 125 5 view .LVU898
 125:lvgl/src/misc/lv_area.h **** }
 2690              		.loc 2 125 31 is_stmt 0 view .LVU899
 2691 0330 8A88     		ldrh	r2, [r1, #4]
ARM GAS  C:\Users\OSD\AppData\Local\Temp\ccx0d5Nb.s 			page 74


 125:lvgl/src/misc/lv_area.h **** }
 2692              		.loc 2 125 44 view .LVU900
 2693 0332 B1F800C0 		ldrh	ip, [r1]
 2694              	.LVL239:
 125:lvgl/src/misc/lv_area.h **** }
 2695              		.loc 2 125 44 view .LVU901
 2696              	.LBE197:
 2697              	.LBE196:
 466:lvgl/src/misc/lv_area.c ****             y = -lv_area_get_height(to_align);
 2698              		.loc 1 466 41 view .LVU902
 2699 0336 ACEB020C 		sub	ip, ip, r2
 2700 033a 1CFA80F0 		uxtah	r0, ip, r0
 466:lvgl/src/misc/lv_area.c ****             y = -lv_area_get_height(to_align);
 2701              		.loc 1 466 15 view .LVU903
 2702 033e 00B2     		sxth	r0, r0
 2703              	.LVL240:
 467:lvgl/src/misc/lv_area.c ****             break;
 2704              		.loc 1 467 13 is_stmt 1 view .LVU904
 2705              	.LBB198:
 2706              	.LBI198:
 133:lvgl/src/misc/lv_area.h **** {
 2707              		.loc 2 133 26 view .LVU905
 2708              	.LBB199:
 2709              		.loc 2 135 5 view .LVU906
 2710              		.loc 2 135 31 is_stmt 0 view .LVU907
 2711 0340 B1F806C0 		ldrh	ip, [r1, #6]
 2712              		.loc 2 135 44 view .LVU908
 2713 0344 4A88     		ldrh	r2, [r1, #2]
 2714              	.LVL241:
 2715              		.loc 2 135 44 view .LVU909
 2716              	.LBE199:
 2717              	.LBE198:
 467:lvgl/src/misc/lv_area.c ****             break;
 2718              		.loc 1 467 15 view .LVU910
 2719 0346 A2EB0C02 		sub	r2, r2, ip
 2720 034a 013A     		subs	r2, r2, #1
 2721 034c 12B2     		sxth	r2, r2
 2722              	.LVL242:
 468:lvgl/src/misc/lv_area.c **** 
 2723              		.loc 1 468 13 is_stmt 1 view .LVU911
 2724 034e AEE6     		b	.L85
 2725              	.LVL243:
 2726              	.L95:
 471:lvgl/src/misc/lv_area.c ****             y = lv_area_get_height(base);
 2727              		.loc 1 471 13 view .LVU912
 472:lvgl/src/misc/lv_area.c ****             break;
 2728              		.loc 1 472 13 view .LVU913
 2729              	.LBB200:
 2730              	.LBI200:
 133:lvgl/src/misc/lv_area.h **** {
 2731              		.loc 2 133 26 view .LVU914
 2732              	.LBB201:
 2733              		.loc 2 135 5 view .LVU915
 2734              		.loc 2 135 31 is_stmt 0 view .LVU916
 2735 0350 E288     		ldrh	r2, [r4, #6]
 2736              		.loc 2 135 44 view .LVU917
 2737 0352 6088     		ldrh	r0, [r4, #2]
ARM GAS  C:\Users\OSD\AppData\Local\Temp\ccx0d5Nb.s 			page 75


 2738              		.loc 2 135 36 view .LVU918
 2739 0354 121A     		subs	r2, r2, r0
 2740 0356 92B2     		uxth	r2, r2
 2741              		.loc 2 135 49 view .LVU919
 2742 0358 0132     		adds	r2, r2, #1
 2743              		.loc 2 135 12 view .LVU920
 2744 035a 12B2     		sxth	r2, r2
 2745              	.LVL244:
 2746              		.loc 2 135 12 view .LVU921
 2747              	.LBE201:
 2748              	.LBE200:
 473:lvgl/src/misc/lv_area.c **** 
 2749              		.loc 1 473 13 is_stmt 1 view .LVU922
 471:lvgl/src/misc/lv_area.c ****             y = lv_area_get_height(base);
 2750              		.loc 1 471 15 is_stmt 0 view .LVU923
 2751 035c 0020     		movs	r0, #0
 473:lvgl/src/misc/lv_area.c **** 
 2752              		.loc 1 473 13 view .LVU924
 2753 035e A6E6     		b	.L85
 2754              	.LVL245:
 2755              	.L94:
 476:lvgl/src/misc/lv_area.c ****             y = lv_area_get_height(base);
 2756              		.loc 1 476 13 is_stmt 1 view .LVU925
 2757              	.LBB202:
 2758              	.LBI202:
 123:lvgl/src/misc/lv_area.h **** {
 2759              		.loc 2 123 26 view .LVU926
 2760              	.LBB203:
 125:lvgl/src/misc/lv_area.h **** }
 2761              		.loc 2 125 5 view .LVU927
 125:lvgl/src/misc/lv_area.h **** }
 2762              		.loc 2 125 31 is_stmt 0 view .LVU928
 2763 0360 A088     		ldrh	r0, [r4, #4]
 125:lvgl/src/misc/lv_area.h **** }
 2764              		.loc 2 125 44 view .LVU929
 2765 0362 2288     		ldrh	r2, [r4]
 125:lvgl/src/misc/lv_area.h **** }
 2766              		.loc 2 125 36 view .LVU930
 2767 0364 801A     		subs	r0, r0, r2
 2768 0366 80B2     		uxth	r0, r0
 125:lvgl/src/misc/lv_area.h **** }
 2769              		.loc 2 125 49 view .LVU931
 2770 0368 0130     		adds	r0, r0, #1
 125:lvgl/src/misc/lv_area.h **** }
 2771              		.loc 2 125 12 view .LVU932
 2772 036a 00B2     		sxth	r0, r0
 2773              	.LVL246:
 125:lvgl/src/misc/lv_area.h **** }
 2774              		.loc 2 125 12 view .LVU933
 2775              	.LBE203:
 2776              	.LBE202:
 2777              	.LBB204:
 2778              	.LBI204:
 123:lvgl/src/misc/lv_area.h **** {
 2779              		.loc 2 123 26 is_stmt 1 view .LVU934
 2780              	.LBB205:
 125:lvgl/src/misc/lv_area.h **** }
ARM GAS  C:\Users\OSD\AppData\Local\Temp\ccx0d5Nb.s 			page 76


 2781              		.loc 2 125 5 view .LVU935
 125:lvgl/src/misc/lv_area.h **** }
 2782              		.loc 2 125 31 is_stmt 0 view .LVU936
 2783 036c 8A88     		ldrh	r2, [r1, #4]
 125:lvgl/src/misc/lv_area.h **** }
 2784              		.loc 2 125 44 view .LVU937
 2785 036e B1F800C0 		ldrh	ip, [r1]
 125:lvgl/src/misc/lv_area.h **** }
 2786              		.loc 2 125 36 view .LVU938
 2787 0372 A2EB0C02 		sub	r2, r2, ip
 2788 0376 92B2     		uxth	r2, r2
 125:lvgl/src/misc/lv_area.h **** }
 2789              		.loc 2 125 49 view .LVU939
 2790 0378 0132     		adds	r2, r2, #1
 125:lvgl/src/misc/lv_area.h **** }
 2791              		.loc 2 125 12 view .LVU940
 2792 037a 12B2     		sxth	r2, r2
 2793              	.LVL247:
 125:lvgl/src/misc/lv_area.h **** }
 2794              		.loc 2 125 12 view .LVU941
 2795              	.LBE205:
 2796              	.LBE204:
 476:lvgl/src/misc/lv_area.c ****             y = lv_area_get_height(base);
 2797              		.loc 1 476 45 view .LVU942
 2798 037c 8446     		mov	ip, r0
 2799 037e 0028     		cmp	r0, #0
 2800 0380 10DB     		blt	.L143
 2801              	.L121:
 2802 0382 4FEA6C00 		asr	r0, ip, #1
 2803 0386 9446     		mov	ip, r2
 2804 0388 002A     		cmp	r2, #0
 2805 038a 0EDB     		blt	.L144
 2806              	.L122:
 2807 038c A0EB6C00 		sub	r0, r0, ip, asr #1
 476:lvgl/src/misc/lv_area.c ****             y = lv_area_get_height(base);
 2808              		.loc 1 476 15 view .LVU943
 2809 0390 00B2     		sxth	r0, r0
 2810              	.LVL248:
 477:lvgl/src/misc/lv_area.c ****             break;
 2811              		.loc 1 477 13 is_stmt 1 view .LVU944
 2812              	.LBB206:
 2813              	.LBI206:
 133:lvgl/src/misc/lv_area.h **** {
 2814              		.loc 2 133 26 view .LVU945
 2815              	.LBB207:
 2816              		.loc 2 135 5 view .LVU946
 2817              		.loc 2 135 31 is_stmt 0 view .LVU947
 2818 0392 E288     		ldrh	r2, [r4, #6]
 2819              		.loc 2 135 44 view .LVU948
 2820 0394 B4F802C0 		ldrh	ip, [r4, #2]
 2821              		.loc 2 135 36 view .LVU949
 2822 0398 A2EB0C02 		sub	r2, r2, ip
 2823 039c 92B2     		uxth	r2, r2
 2824              		.loc 2 135 49 view .LVU950
 2825 039e 0132     		adds	r2, r2, #1
 2826              		.loc 2 135 12 view .LVU951
 2827 03a0 12B2     		sxth	r2, r2
ARM GAS  C:\Users\OSD\AppData\Local\Temp\ccx0d5Nb.s 			page 77


 2828              	.LVL249:
 2829              		.loc 2 135 12 view .LVU952
 2830              	.LBE207:
 2831              	.LBE206:
 478:lvgl/src/misc/lv_area.c **** 
 2832              		.loc 1 478 13 is_stmt 1 view .LVU953
 2833 03a2 84E6     		b	.L85
 2834              	.LVL250:
 2835              	.L143:
 476:lvgl/src/misc/lv_area.c ****             y = lv_area_get_height(base);
 2836              		.loc 1 476 45 is_stmt 0 view .LVU954
 2837 03a4 00F1010C 		add	ip, r0, #1
 2838 03a8 EBE7     		b	.L121
 2839              	.L144:
 2840 03aa 02F1010C 		add	ip, r2, #1
 2841 03ae EDE7     		b	.L122
 2842              	.L93:
 481:lvgl/src/misc/lv_area.c ****             y = lv_area_get_height(base);
 2843              		.loc 1 481 13 is_stmt 1 view .LVU955
 2844              	.LVL251:
 2845              	.LBB208:
 2846              	.LBI208:
 123:lvgl/src/misc/lv_area.h **** {
 2847              		.loc 2 123 26 view .LVU956
 2848              	.LBB209:
 125:lvgl/src/misc/lv_area.h **** }
 2849              		.loc 2 125 5 view .LVU957
 125:lvgl/src/misc/lv_area.h **** }
 2850              		.loc 2 125 31 is_stmt 0 view .LVU958
 2851 03b0 A088     		ldrh	r0, [r4, #4]
 125:lvgl/src/misc/lv_area.h **** }
 2852              		.loc 2 125 44 view .LVU959
 2853 03b2 2288     		ldrh	r2, [r4]
 125:lvgl/src/misc/lv_area.h **** }
 2854              		.loc 2 125 36 view .LVU960
 2855 03b4 801A     		subs	r0, r0, r2
 2856              	.LVL252:
 125:lvgl/src/misc/lv_area.h **** }
 2857              		.loc 2 125 36 view .LVU961
 2858              	.LBE209:
 2859              	.LBE208:
 2860              	.LBB210:
 2861              	.LBI210:
 123:lvgl/src/misc/lv_area.h **** {
 2862              		.loc 2 123 26 is_stmt 1 view .LVU962
 2863              	.LBB211:
 125:lvgl/src/misc/lv_area.h **** }
 2864              		.loc 2 125 5 view .LVU963
 125:lvgl/src/misc/lv_area.h **** }
 2865              		.loc 2 125 31 is_stmt 0 view .LVU964
 2866 03b6 8A88     		ldrh	r2, [r1, #4]
 125:lvgl/src/misc/lv_area.h **** }
 2867              		.loc 2 125 44 view .LVU965
 2868 03b8 B1F800C0 		ldrh	ip, [r1]
 2869              	.LVL253:
 125:lvgl/src/misc/lv_area.h **** }
 2870              		.loc 2 125 44 view .LVU966
ARM GAS  C:\Users\OSD\AppData\Local\Temp\ccx0d5Nb.s 			page 78


 2871              	.LBE211:
 2872              	.LBE210:
 481:lvgl/src/misc/lv_area.c ****             y = lv_area_get_height(base);
 2873              		.loc 1 481 41 view .LVU967
 2874 03bc ACEB020C 		sub	ip, ip, r2
 2875 03c0 1CFA80F0 		uxtah	r0, ip, r0
 481:lvgl/src/misc/lv_area.c ****             y = lv_area_get_height(base);
 2876              		.loc 1 481 15 view .LVU968
 2877 03c4 00B2     		sxth	r0, r0
 2878              	.LVL254:
 482:lvgl/src/misc/lv_area.c ****             break;
 2879              		.loc 1 482 13 is_stmt 1 view .LVU969
 2880              	.LBB212:
 2881              	.LBI212:
 133:lvgl/src/misc/lv_area.h **** {
 2882              		.loc 2 133 26 view .LVU970
 2883              	.LBB213:
 2884              		.loc 2 135 5 view .LVU971
 2885              		.loc 2 135 31 is_stmt 0 view .LVU972
 2886 03c6 E288     		ldrh	r2, [r4, #6]
 2887              		.loc 2 135 44 view .LVU973
 2888 03c8 B4F802C0 		ldrh	ip, [r4, #2]
 2889              		.loc 2 135 36 view .LVU974
 2890 03cc A2EB0C02 		sub	r2, r2, ip
 2891 03d0 92B2     		uxth	r2, r2
 2892              		.loc 2 135 49 view .LVU975
 2893 03d2 0132     		adds	r2, r2, #1
 2894              		.loc 2 135 12 view .LVU976
 2895 03d4 12B2     		sxth	r2, r2
 2896              	.LVL255:
 2897              		.loc 2 135 12 view .LVU977
 2898              	.LBE213:
 2899              	.LBE212:
 483:lvgl/src/misc/lv_area.c **** 
 2900              		.loc 1 483 13 is_stmt 1 view .LVU978
 2901 03d6 6AE6     		b	.L85
 2902              	.LVL256:
 2903              	.L92:
 486:lvgl/src/misc/lv_area.c ****             y = 0;
 2904              		.loc 1 486 13 view .LVU979
 2905              	.LBB214:
 2906              	.LBI214:
 123:lvgl/src/misc/lv_area.h **** {
 2907              		.loc 2 123 26 view .LVU980
 2908              	.LBB215:
 125:lvgl/src/misc/lv_area.h **** }
 2909              		.loc 2 125 5 view .LVU981
 125:lvgl/src/misc/lv_area.h **** }
 2910              		.loc 2 125 31 is_stmt 0 view .LVU982
 2911 03d8 8A88     		ldrh	r2, [r1, #4]
 125:lvgl/src/misc/lv_area.h **** }
 2912              		.loc 2 125 44 view .LVU983
 2913 03da 0888     		ldrh	r0, [r1]
 2914              	.LVL257:
 125:lvgl/src/misc/lv_area.h **** }
 2915              		.loc 2 125 44 view .LVU984
 2916              	.LBE215:
ARM GAS  C:\Users\OSD\AppData\Local\Temp\ccx0d5Nb.s 			page 79


 2917              	.LBE214:
 486:lvgl/src/misc/lv_area.c ****             y = 0;
 2918              		.loc 1 486 15 view .LVU985
 2919 03dc 801A     		subs	r0, r0, r2
 2920 03de 0138     		subs	r0, r0, #1
 2921 03e0 00B2     		sxth	r0, r0
 2922              	.LVL258:
 487:lvgl/src/misc/lv_area.c ****             break;
 2923              		.loc 1 487 13 is_stmt 1 view .LVU986
 488:lvgl/src/misc/lv_area.c **** 
 2924              		.loc 1 488 13 view .LVU987
 487:lvgl/src/misc/lv_area.c ****             break;
 2925              		.loc 1 487 15 is_stmt 0 view .LVU988
 2926 03e2 0022     		movs	r2, #0
 488:lvgl/src/misc/lv_area.c **** 
 2927              		.loc 1 488 13 view .LVU989
 2928 03e4 63E6     		b	.L85
 2929              	.LVL259:
 2930              	.L91:
 491:lvgl/src/misc/lv_area.c ****             y = lv_area_get_height(base) / 2 - lv_area_get_height(to_align) / 2;
 2931              		.loc 1 491 13 is_stmt 1 view .LVU990
 2932              	.LBB216:
 2933              	.LBI216:
 123:lvgl/src/misc/lv_area.h **** {
 2934              		.loc 2 123 26 view .LVU991
 2935              	.LBB217:
 125:lvgl/src/misc/lv_area.h **** }
 2936              		.loc 2 125 5 view .LVU992
 125:lvgl/src/misc/lv_area.h **** }
 2937              		.loc 2 125 31 is_stmt 0 view .LVU993
 2938 03e6 8A88     		ldrh	r2, [r1, #4]
 125:lvgl/src/misc/lv_area.h **** }
 2939              		.loc 2 125 44 view .LVU994
 2940 03e8 0888     		ldrh	r0, [r1]
 2941              	.LVL260:
 125:lvgl/src/misc/lv_area.h **** }
 2942              		.loc 2 125 44 view .LVU995
 2943              	.LBE217:
 2944              	.LBE216:
 491:lvgl/src/misc/lv_area.c ****             y = lv_area_get_height(base) / 2 - lv_area_get_height(to_align) / 2;
 2945              		.loc 1 491 15 view .LVU996
 2946 03ea 801A     		subs	r0, r0, r2
 2947 03ec 0138     		subs	r0, r0, #1
 2948 03ee 00B2     		sxth	r0, r0
 2949              	.LVL261:
 492:lvgl/src/misc/lv_area.c ****             break;
 2950              		.loc 1 492 13 is_stmt 1 view .LVU997
 2951              	.LBB218:
 2952              	.LBI218:
 133:lvgl/src/misc/lv_area.h **** {
 2953              		.loc 2 133 26 view .LVU998
 2954              	.LBB219:
 2955              		.loc 2 135 5 view .LVU999
 2956              		.loc 2 135 31 is_stmt 0 view .LVU1000
 2957 03f0 B4F806E0 		ldrh	lr, [r4, #6]
 2958              		.loc 2 135 44 view .LVU1001
 2959 03f4 6288     		ldrh	r2, [r4, #2]
ARM GAS  C:\Users\OSD\AppData\Local\Temp\ccx0d5Nb.s 			page 80


 2960              		.loc 2 135 36 view .LVU1002
 2961 03f6 AEEB020E 		sub	lr, lr, r2
 2962 03fa 1FFA8EFE 		uxth	lr, lr
 2963              		.loc 2 135 49 view .LVU1003
 2964 03fe 0EF1010E 		add	lr, lr, #1
 2965              		.loc 2 135 12 view .LVU1004
 2966 0402 0FFA8EFE 		sxth	lr, lr
 2967              	.LVL262:
 2968              		.loc 2 135 12 view .LVU1005
 2969              	.LBE219:
 2970              	.LBE218:
 2971              	.LBB220:
 2972              	.LBI220:
 133:lvgl/src/misc/lv_area.h **** {
 2973              		.loc 2 133 26 is_stmt 1 view .LVU1006
 2974              	.LBB221:
 2975              		.loc 2 135 5 view .LVU1007
 2976              		.loc 2 135 31 is_stmt 0 view .LVU1008
 2977 0406 B1F806C0 		ldrh	ip, [r1, #6]
 2978              		.loc 2 135 44 view .LVU1009
 2979 040a 4A88     		ldrh	r2, [r1, #2]
 2980              		.loc 2 135 36 view .LVU1010
 2981 040c ACEB020C 		sub	ip, ip, r2
 2982 0410 1FFA8CFC 		uxth	ip, ip
 2983              		.loc 2 135 49 view .LVU1011
 2984 0414 0CF1010C 		add	ip, ip, #1
 2985              		.loc 2 135 12 view .LVU1012
 2986 0418 0FFA8CFC 		sxth	ip, ip
 2987              	.LVL263:
 2988              		.loc 2 135 12 view .LVU1013
 2989              	.LBE221:
 2990              	.LBE220:
 492:lvgl/src/misc/lv_area.c ****             break;
 2991              		.loc 1 492 46 view .LVU1014
 2992 041c 7246     		mov	r2, lr
 2993 041e BEF1000F 		cmp	lr, #0
 2994 0422 08DB     		blt	.L145
 2995              	.L123:
 2996 0424 5210     		asrs	r2, r2, #1
 2997 0426 E646     		mov	lr, ip
 2998 0428 BCF1000F 		cmp	ip, #0
 2999 042c 06DB     		blt	.L146
 3000              	.L124:
 3001 042e A2EB6E02 		sub	r2, r2, lr, asr #1
 492:lvgl/src/misc/lv_area.c ****             break;
 3002              		.loc 1 492 15 view .LVU1015
 3003 0432 12B2     		sxth	r2, r2
 3004              	.LVL264:
 493:lvgl/src/misc/lv_area.c **** 
 3005              		.loc 1 493 13 is_stmt 1 view .LVU1016
 3006 0434 3BE6     		b	.L85
 3007              	.LVL265:
 3008              	.L145:
 492:lvgl/src/misc/lv_area.c ****             break;
 3009              		.loc 1 492 46 is_stmt 0 view .LVU1017
 3010 0436 0EF10102 		add	r2, lr, #1
 3011 043a F3E7     		b	.L123
ARM GAS  C:\Users\OSD\AppData\Local\Temp\ccx0d5Nb.s 			page 81


 3012              	.L146:
 3013 043c 0CF1010E 		add	lr, ip, #1
 3014 0440 F5E7     		b	.L124
 3015              	.LVL266:
 3016              	.L90:
 496:lvgl/src/misc/lv_area.c ****             y = lv_area_get_height(base) - lv_area_get_height(to_align);
 3017              		.loc 1 496 13 is_stmt 1 view .LVU1018
 3018              	.LBB222:
 3019              	.LBI222:
 123:lvgl/src/misc/lv_area.h **** {
 3020              		.loc 2 123 26 view .LVU1019
 3021              	.LBB223:
 125:lvgl/src/misc/lv_area.h **** }
 3022              		.loc 2 125 5 view .LVU1020
 125:lvgl/src/misc/lv_area.h **** }
 3023              		.loc 2 125 31 is_stmt 0 view .LVU1021
 3024 0442 8A88     		ldrh	r2, [r1, #4]
 125:lvgl/src/misc/lv_area.h **** }
 3025              		.loc 2 125 44 view .LVU1022
 3026 0444 0888     		ldrh	r0, [r1]
 3027              	.LVL267:
 125:lvgl/src/misc/lv_area.h **** }
 3028              		.loc 2 125 44 view .LVU1023
 3029              	.LBE223:
 3030              	.LBE222:
 496:lvgl/src/misc/lv_area.c ****             y = lv_area_get_height(base) - lv_area_get_height(to_align);
 3031              		.loc 1 496 15 view .LVU1024
 3032 0446 801A     		subs	r0, r0, r2
 3033 0448 0138     		subs	r0, r0, #1
 3034 044a 00B2     		sxth	r0, r0
 3035              	.LVL268:
 497:lvgl/src/misc/lv_area.c ****             break;
 3036              		.loc 1 497 13 is_stmt 1 view .LVU1025
 3037              	.LBB224:
 3038              	.LBI224:
 133:lvgl/src/misc/lv_area.h **** {
 3039              		.loc 2 133 26 view .LVU1026
 3040              	.LBB225:
 3041              		.loc 2 135 5 view .LVU1027
 3042              		.loc 2 135 31 is_stmt 0 view .LVU1028
 3043 044c E288     		ldrh	r2, [r4, #6]
 3044              		.loc 2 135 44 view .LVU1029
 3045 044e B4F802C0 		ldrh	ip, [r4, #2]
 3046              		.loc 2 135 36 view .LVU1030
 3047 0452 A2EB0C02 		sub	r2, r2, ip
 3048              	.LVL269:
 3049              		.loc 2 135 36 view .LVU1031
 3050              	.LBE225:
 3051              	.LBE224:
 3052              	.LBB226:
 3053              	.LBI226:
 133:lvgl/src/misc/lv_area.h **** {
 3054              		.loc 2 133 26 is_stmt 1 view .LVU1032
 3055              	.LBB227:
 3056              		.loc 2 135 5 view .LVU1033
 3057              		.loc 2 135 31 is_stmt 0 view .LVU1034
 3058 0456 B1F806E0 		ldrh	lr, [r1, #6]
ARM GAS  C:\Users\OSD\AppData\Local\Temp\ccx0d5Nb.s 			page 82


 3059              		.loc 2 135 44 view .LVU1035
 3060 045a B1F802C0 		ldrh	ip, [r1, #2]
 3061              	.LVL270:
 3062              		.loc 2 135 44 view .LVU1036
 3063              	.LBE227:
 3064              	.LBE226:
 497:lvgl/src/misc/lv_area.c ****             break;
 3065              		.loc 1 497 42 view .LVU1037
 3066 045e ACEB0E0C 		sub	ip, ip, lr
 3067 0462 1CFA82F2 		uxtah	r2, ip, r2
 497:lvgl/src/misc/lv_area.c ****             break;
 3068              		.loc 1 497 15 view .LVU1038
 3069 0466 12B2     		sxth	r2, r2
 3070              	.LVL271:
 498:lvgl/src/misc/lv_area.c **** 
 3071              		.loc 1 498 13 is_stmt 1 view .LVU1039
 3072 0468 21E6     		b	.L85
 3073              	.LVL272:
 3074              	.L89:
 501:lvgl/src/misc/lv_area.c ****             y = 0;
 3075              		.loc 1 501 13 view .LVU1040
 3076              	.LBB228:
 3077              	.LBI228:
 123:lvgl/src/misc/lv_area.h **** {
 3078              		.loc 2 123 26 view .LVU1041
 3079              	.LBB229:
 125:lvgl/src/misc/lv_area.h **** }
 3080              		.loc 2 125 5 view .LVU1042
 125:lvgl/src/misc/lv_area.h **** }
 3081              		.loc 2 125 31 is_stmt 0 view .LVU1043
 3082 046a A088     		ldrh	r0, [r4, #4]
 125:lvgl/src/misc/lv_area.h **** }
 3083              		.loc 2 125 44 view .LVU1044
 3084 046c 2288     		ldrh	r2, [r4]
 125:lvgl/src/misc/lv_area.h **** }
 3085              		.loc 2 125 36 view .LVU1045
 3086 046e 801A     		subs	r0, r0, r2
 3087 0470 80B2     		uxth	r0, r0
 125:lvgl/src/misc/lv_area.h **** }
 3088              		.loc 2 125 49 view .LVU1046
 3089 0472 0130     		adds	r0, r0, #1
 125:lvgl/src/misc/lv_area.h **** }
 3090              		.loc 2 125 12 view .LVU1047
 3091 0474 00B2     		sxth	r0, r0
 3092              	.LVL273:
 125:lvgl/src/misc/lv_area.h **** }
 3093              		.loc 2 125 12 view .LVU1048
 3094              	.LBE229:
 3095              	.LBE228:
 502:lvgl/src/misc/lv_area.c ****             break;
 3096              		.loc 1 502 13 is_stmt 1 view .LVU1049
 503:lvgl/src/misc/lv_area.c **** 
 3097              		.loc 1 503 13 view .LVU1050
 502:lvgl/src/misc/lv_area.c ****             break;
 3098              		.loc 1 502 15 is_stmt 0 view .LVU1051
 3099 0476 0022     		movs	r2, #0
 503:lvgl/src/misc/lv_area.c **** 
ARM GAS  C:\Users\OSD\AppData\Local\Temp\ccx0d5Nb.s 			page 83


 3100              		.loc 1 503 13 view .LVU1052
 3101 0478 19E6     		b	.L85
 3102              	.LVL274:
 3103              	.L88:
 506:lvgl/src/misc/lv_area.c ****             y = lv_area_get_height(base) / 2 - lv_area_get_height(to_align) / 2;
 3104              		.loc 1 506 13 is_stmt 1 view .LVU1053
 3105              	.LBB230:
 3106              	.LBI230:
 123:lvgl/src/misc/lv_area.h **** {
 3107              		.loc 2 123 26 view .LVU1054
 3108              	.LBB231:
 125:lvgl/src/misc/lv_area.h **** }
 3109              		.loc 2 125 5 view .LVU1055
 125:lvgl/src/misc/lv_area.h **** }
 3110              		.loc 2 125 31 is_stmt 0 view .LVU1056
 3111 047a A088     		ldrh	r0, [r4, #4]
 125:lvgl/src/misc/lv_area.h **** }
 3112              		.loc 2 125 44 view .LVU1057
 3113 047c 2288     		ldrh	r2, [r4]
 125:lvgl/src/misc/lv_area.h **** }
 3114              		.loc 2 125 36 view .LVU1058
 3115 047e 801A     		subs	r0, r0, r2
 3116 0480 80B2     		uxth	r0, r0
 125:lvgl/src/misc/lv_area.h **** }
 3117              		.loc 2 125 49 view .LVU1059
 3118 0482 0130     		adds	r0, r0, #1
 125:lvgl/src/misc/lv_area.h **** }
 3119              		.loc 2 125 12 view .LVU1060
 3120 0484 00B2     		sxth	r0, r0
 3121              	.LVL275:
 125:lvgl/src/misc/lv_area.h **** }
 3122              		.loc 2 125 12 view .LVU1061
 3123              	.LBE231:
 3124              	.LBE230:
 507:lvgl/src/misc/lv_area.c ****             break;
 3125              		.loc 1 507 13 is_stmt 1 view .LVU1062
 3126              	.LBB232:
 3127              	.LBI232:
 133:lvgl/src/misc/lv_area.h **** {
 3128              		.loc 2 133 26 view .LVU1063
 3129              	.LBB233:
 3130              		.loc 2 135 5 view .LVU1064
 3131              		.loc 2 135 31 is_stmt 0 view .LVU1065
 3132 0486 B4F806E0 		ldrh	lr, [r4, #6]
 3133              		.loc 2 135 44 view .LVU1066
 3134 048a 6288     		ldrh	r2, [r4, #2]
 3135              		.loc 2 135 36 view .LVU1067
 3136 048c AEEB020E 		sub	lr, lr, r2
 3137 0490 1FFA8EFE 		uxth	lr, lr
 3138              		.loc 2 135 49 view .LVU1068
 3139 0494 0EF1010E 		add	lr, lr, #1
 3140              		.loc 2 135 12 view .LVU1069
 3141 0498 0FFA8EFE 		sxth	lr, lr
 3142              	.LVL276:
 3143              		.loc 2 135 12 view .LVU1070
 3144              	.LBE233:
 3145              	.LBE232:
ARM GAS  C:\Users\OSD\AppData\Local\Temp\ccx0d5Nb.s 			page 84


 3146              	.LBB234:
 3147              	.LBI234:
 133:lvgl/src/misc/lv_area.h **** {
 3148              		.loc 2 133 26 is_stmt 1 view .LVU1071
 3149              	.LBB235:
 3150              		.loc 2 135 5 view .LVU1072
 3151              		.loc 2 135 31 is_stmt 0 view .LVU1073
 3152 049c B1F806C0 		ldrh	ip, [r1, #6]
 3153              		.loc 2 135 44 view .LVU1074
 3154 04a0 4A88     		ldrh	r2, [r1, #2]
 3155              		.loc 2 135 36 view .LVU1075
 3156 04a2 ACEB020C 		sub	ip, ip, r2
 3157 04a6 1FFA8CFC 		uxth	ip, ip
 3158              		.loc 2 135 49 view .LVU1076
 3159 04aa 0CF1010C 		add	ip, ip, #1
 3160              		.loc 2 135 12 view .LVU1077
 3161 04ae 0FFA8CFC 		sxth	ip, ip
 3162              	.LVL277:
 3163              		.loc 2 135 12 view .LVU1078
 3164              	.LBE235:
 3165              	.LBE234:
 507:lvgl/src/misc/lv_area.c ****             break;
 3166              		.loc 1 507 46 view .LVU1079
 3167 04b2 7246     		mov	r2, lr
 3168 04b4 BEF1000F 		cmp	lr, #0
 3169 04b8 08DB     		blt	.L147
 3170              	.L125:
 3171 04ba 5210     		asrs	r2, r2, #1
 3172 04bc E646     		mov	lr, ip
 3173 04be BCF1000F 		cmp	ip, #0
 3174 04c2 06DB     		blt	.L148
 3175              	.L126:
 3176 04c4 A2EB6E02 		sub	r2, r2, lr, asr #1
 507:lvgl/src/misc/lv_area.c ****             break;
 3177              		.loc 1 507 15 view .LVU1080
 3178 04c8 12B2     		sxth	r2, r2
 3179              	.LVL278:
 508:lvgl/src/misc/lv_area.c **** 
 3180              		.loc 1 508 13 is_stmt 1 view .LVU1081
 3181 04ca F0E5     		b	.L85
 3182              	.LVL279:
 3183              	.L147:
 507:lvgl/src/misc/lv_area.c ****             break;
 3184              		.loc 1 507 46 is_stmt 0 view .LVU1082
 3185 04cc 0EF10102 		add	r2, lr, #1
 3186 04d0 F3E7     		b	.L125
 3187              	.L148:
 3188 04d2 0CF1010E 		add	lr, ip, #1
 3189 04d6 F5E7     		b	.L126
 3190              	.LVL280:
 3191              	.L86:
 511:lvgl/src/misc/lv_area.c ****             y = lv_area_get_height(base) - lv_area_get_height(to_align);
 3192              		.loc 1 511 13 is_stmt 1 view .LVU1083
 3193              	.LBB236:
 3194              	.LBI236:
 123:lvgl/src/misc/lv_area.h **** {
 3195              		.loc 2 123 26 view .LVU1084
ARM GAS  C:\Users\OSD\AppData\Local\Temp\ccx0d5Nb.s 			page 85


 3196              	.LBB237:
 125:lvgl/src/misc/lv_area.h **** }
 3197              		.loc 2 125 5 view .LVU1085
 125:lvgl/src/misc/lv_area.h **** }
 3198              		.loc 2 125 31 is_stmt 0 view .LVU1086
 3199 04d8 A088     		ldrh	r0, [r4, #4]
 125:lvgl/src/misc/lv_area.h **** }
 3200              		.loc 2 125 44 view .LVU1087
 3201 04da 2288     		ldrh	r2, [r4]
 125:lvgl/src/misc/lv_area.h **** }
 3202              		.loc 2 125 36 view .LVU1088
 3203 04dc 801A     		subs	r0, r0, r2
 3204 04de 80B2     		uxth	r0, r0
 125:lvgl/src/misc/lv_area.h **** }
 3205              		.loc 2 125 49 view .LVU1089
 3206 04e0 0130     		adds	r0, r0, #1
 125:lvgl/src/misc/lv_area.h **** }
 3207              		.loc 2 125 12 view .LVU1090
 3208 04e2 00B2     		sxth	r0, r0
 3209              	.LVL281:
 125:lvgl/src/misc/lv_area.h **** }
 3210              		.loc 2 125 12 view .LVU1091
 3211              	.LBE237:
 3212              	.LBE236:
 512:lvgl/src/misc/lv_area.c ****             break;
 3213              		.loc 1 512 13 is_stmt 1 view .LVU1092
 3214              	.LBB238:
 3215              	.LBI238:
 133:lvgl/src/misc/lv_area.h **** {
 3216              		.loc 2 133 26 view .LVU1093
 3217              	.LBB239:
 3218              		.loc 2 135 5 view .LVU1094
 3219              		.loc 2 135 31 is_stmt 0 view .LVU1095
 3220 04e4 E288     		ldrh	r2, [r4, #6]
 3221              		.loc 2 135 44 view .LVU1096
 3222 04e6 B4F802C0 		ldrh	ip, [r4, #2]
 3223              		.loc 2 135 36 view .LVU1097
 3224 04ea A2EB0C02 		sub	r2, r2, ip
 3225              	.LVL282:
 3226              		.loc 2 135 36 view .LVU1098
 3227              	.LBE239:
 3228              	.LBE238:
 3229              	.LBB240:
 3230              	.LBI240:
 133:lvgl/src/misc/lv_area.h **** {
 3231              		.loc 2 133 26 is_stmt 1 view .LVU1099
 3232              	.LBB241:
 3233              		.loc 2 135 5 view .LVU1100
 3234              		.loc 2 135 31 is_stmt 0 view .LVU1101
 3235 04ee B1F806E0 		ldrh	lr, [r1, #6]
 3236              		.loc 2 135 44 view .LVU1102
 3237 04f2 B1F802C0 		ldrh	ip, [r1, #2]
 3238              	.LVL283:
 3239              		.loc 2 135 44 view .LVU1103
 3240              	.LBE241:
 3241              	.LBE240:
 512:lvgl/src/misc/lv_area.c ****             break;
ARM GAS  C:\Users\OSD\AppData\Local\Temp\ccx0d5Nb.s 			page 86


 3242              		.loc 1 512 42 view .LVU1104
 3243 04f6 ACEB0E0C 		sub	ip, ip, lr
 3244 04fa 1CFA82F2 		uxtah	r2, ip, r2
 512:lvgl/src/misc/lv_area.c ****             break;
 3245              		.loc 1 512 15 view .LVU1105
 3246 04fe 12B2     		sxth	r2, r2
 3247              	.LVL284:
 513:lvgl/src/misc/lv_area.c ****         default:
 3248              		.loc 1 513 13 is_stmt 1 view .LVU1106
 3249 0500 D5E5     		b	.L85
 3250              	.LVL285:
 3251              	.L127:
 411:lvgl/src/misc/lv_area.c ****         case LV_ALIGN_CENTER:
 3252              		.loc 1 411 5 is_stmt 0 view .LVU1107
 3253 0502 0022     		movs	r2, #0
 3254 0504 1046     		mov	r0, r2
 3255 0506 D2E5     		b	.L85
 3256              		.cfi_endproc
 3257              	.LFE20:
 3259              		.section	.text.lv_point_transform,"ax",%progbits
 3260              		.align	1
 3261              		.global	lv_point_transform
 3262              		.syntax unified
 3263              		.thumb
 3264              		.thumb_func
 3266              	lv_point_transform:
 3267              	.LVL286:
 3268              	.LFB21:
 533:lvgl/src/misc/lv_area.c ****     if(angle == 0 && zoom == 256) {
 3269              		.loc 1 533 1 is_stmt 1 view -0
 3270              		.cfi_startproc
 3271              		@ args = 0, pretend = 0, frame = 8
 3272              		@ frame_needed = 0, uses_anonymous_args = 0
 534:lvgl/src/misc/lv_area.c ****         return;
 3273              		.loc 1 534 5 view .LVU1109
 534:lvgl/src/misc/lv_area.c ****         return;
 3274              		.loc 1 534 7 is_stmt 0 view .LVU1110
 3275 0000 0029     		cmp	r1, #0
 3276 0002 08BF     		it	eq
 3277 0004 B2F5807F 		cmpeq	r2, #256
 3278 0008 00F0AE80 		beq	.L158
 533:lvgl/src/misc/lv_area.c ****     if(angle == 0 && zoom == 256) {
 3279              		.loc 1 533 1 view .LVU1111
 3280 000c 2DE9F04F 		push	{r4, r5, r6, r7, r8, r9, r10, fp, lr}
 3281              		.cfi_def_cfa_offset 36
 3282              		.cfi_offset 4, -36
 3283              		.cfi_offset 5, -32
 3284              		.cfi_offset 6, -28
 3285              		.cfi_offset 7, -24
 3286              		.cfi_offset 8, -20
 3287              		.cfi_offset 9, -16
 3288              		.cfi_offset 10, -12
 3289              		.cfi_offset 11, -8
 3290              		.cfi_offset 14, -4
 3291 0010 83B0     		sub	sp, sp, #12
 3292              		.cfi_def_cfa_offset 48
 3293 0012 0446     		mov	r4, r0
ARM GAS  C:\Users\OSD\AppData\Local\Temp\ccx0d5Nb.s 			page 87


 3294 0014 1746     		mov	r7, r2
 3295 0016 1E46     		mov	r6, r3
 3296 0018 8846     		mov	r8, r1
 538:lvgl/src/misc/lv_area.c ****     p->y -= pivot->y;
 3297              		.loc 1 538 5 is_stmt 1 view .LVU1112
 538:lvgl/src/misc/lv_area.c ****     p->y -= pivot->y;
 3298              		.loc 1 538 18 is_stmt 0 view .LVU1113
 3299 001a 1B88     		ldrh	r3, [r3]
 3300              	.LVL287:
 538:lvgl/src/misc/lv_area.c ****     p->y -= pivot->y;
 3301              		.loc 1 538 10 view .LVU1114
 3302 001c 0288     		ldrh	r2, [r0]
 3303              	.LVL288:
 538:lvgl/src/misc/lv_area.c ****     p->y -= pivot->y;
 3304              		.loc 1 538 10 view .LVU1115
 3305 001e D21A     		subs	r2, r2, r3
 3306 0020 12B2     		sxth	r2, r2
 3307 0022 0280     		strh	r2, [r0]	@ movhi
 539:lvgl/src/misc/lv_area.c **** 
 3308              		.loc 1 539 5 is_stmt 1 view .LVU1116
 539:lvgl/src/misc/lv_area.c **** 
 3309              		.loc 1 539 18 is_stmt 0 view .LVU1117
 3310 0024 7188     		ldrh	r1, [r6, #2]
 3311              	.LVL289:
 539:lvgl/src/misc/lv_area.c **** 
 3312              		.loc 1 539 10 view .LVU1118
 3313 0026 4388     		ldrh	r3, [r0, #2]
 3314 0028 5B1A     		subs	r3, r3, r1
 3315 002a 1BB2     		sxth	r3, r3
 3316 002c 4380     		strh	r3, [r0, #2]	@ movhi
 541:lvgl/src/misc/lv_area.c ****         p->x = (((int32_t)(p->x) * zoom) >> 8) + pivot->x;
 3317              		.loc 1 541 5 is_stmt 1 view .LVU1119
 541:lvgl/src/misc/lv_area.c ****         p->x = (((int32_t)(p->x) * zoom) >> 8) + pivot->x;
 3318              		.loc 1 541 7 is_stmt 0 view .LVU1120
 3319 002e B8F1000F 		cmp	r8, #0
 3320 0032 72D0     		beq	.L161
 547:lvgl/src/misc/lv_area.c ****     static int32_t sinma;
 3321              		.loc 1 547 5 is_stmt 1 view .LVU1121
 548:lvgl/src/misc/lv_area.c ****     static int32_t cosma;
 3322              		.loc 1 548 5 view .LVU1122
 549:lvgl/src/misc/lv_area.c ****     if(angle_prev != angle) {
 3323              		.loc 1 549 5 view .LVU1123
 550:lvgl/src/misc/lv_area.c ****         int32_t angle_limited = angle;
 3324              		.loc 1 550 5 view .LVU1124
 550:lvgl/src/misc/lv_area.c ****         int32_t angle_limited = angle;
 3325              		.loc 1 550 19 is_stmt 0 view .LVU1125
 3326 0034 4D4B     		ldr	r3, .L164
 3327 0036 1B68     		ldr	r3, [r3]
 550:lvgl/src/misc/lv_area.c ****         int32_t angle_limited = angle;
 3328              		.loc 1 550 7 view .LVU1126
 3329 0038 4345     		cmp	r3, r8
 3330 003a 4BD0     		beq	.L152
 3331              	.LBB242:
 551:lvgl/src/misc/lv_area.c ****         if(angle_limited > 3600) angle_limited -= 3600;
 3332              		.loc 1 551 9 is_stmt 1 view .LVU1127
 3333              	.LVL290:
 552:lvgl/src/misc/lv_area.c ****         if(angle_limited < 0) angle_limited += 3600;
ARM GAS  C:\Users\OSD\AppData\Local\Temp\ccx0d5Nb.s 			page 88


 3334              		.loc 1 552 9 view .LVU1128
 552:lvgl/src/misc/lv_area.c ****         if(angle_limited < 0) angle_limited += 3600;
 3335              		.loc 1 552 11 is_stmt 0 view .LVU1129
 3336 003c B8F5616F 		cmp	r8, #3600
 3337 0040 78DD     		ble	.L156
 552:lvgl/src/misc/lv_area.c ****         if(angle_limited < 0) angle_limited += 3600;
 3338              		.loc 1 552 34 is_stmt 1 discriminator 1 view .LVU1130
 552:lvgl/src/misc/lv_area.c ****         if(angle_limited < 0) angle_limited += 3600;
 3339              		.loc 1 552 48 is_stmt 0 discriminator 1 view .LVU1131
 3340 0042 A8F56165 		sub	r5, r8, #3600
 3341              	.LVL291:
 3342              	.L153:
 553:lvgl/src/misc/lv_area.c **** 
 3343              		.loc 1 553 9 is_stmt 1 view .LVU1132
 553:lvgl/src/misc/lv_area.c **** 
 3344              		.loc 1 553 11 is_stmt 0 view .LVU1133
 3345 0046 002D     		cmp	r5, #0
 3346 0048 76DB     		blt	.L162
 3347              	.L154:
 555:lvgl/src/misc/lv_area.c ****         int32_t angle_high = angle_low + 1;
 3348              		.loc 1 555 9 is_stmt 1 view .LVU1134
 555:lvgl/src/misc/lv_area.c ****         int32_t angle_high = angle_low + 1;
 3349              		.loc 1 555 17 is_stmt 0 view .LVU1135
 3350 004a DFF82CA1 		ldr	r10, .L164+12
 3351 004e 8AFB0530 		smull	r3, r0, r10, r5
 3352              	.LVL292:
 555:lvgl/src/misc/lv_area.c ****         int32_t angle_high = angle_low + 1;
 3353              		.loc 1 555 17 view .LVU1136
 3354 0052 4FEAE579 		asr	r9, r5, #31
 3355 0056 C9EBA009 		rsb	r9, r9, r0, asr #2
 3356              	.LVL293:
 556:lvgl/src/misc/lv_area.c ****         int32_t angle_rem = angle_limited  - (angle_low * 10);
 3357              		.loc 1 556 9 is_stmt 1 view .LVU1137
 556:lvgl/src/misc/lv_area.c ****         int32_t angle_rem = angle_limited  - (angle_low * 10);
 3358              		.loc 1 556 17 is_stmt 0 view .LVU1138
 3359 005a 09F1010B 		add	fp, r9, #1
 3360              	.LVL294:
 557:lvgl/src/misc/lv_area.c **** 
 3361              		.loc 1 557 9 is_stmt 1 view .LVU1139
 557:lvgl/src/misc/lv_area.c **** 
 3362              		.loc 1 557 17 is_stmt 0 view .LVU1140
 3363 005e 6FF00903 		mvn	r3, #9
 3364 0062 03FB0955 		mla	r5, r3, r9, r5
 3365              	.LVL295:
 559:lvgl/src/misc/lv_area.c ****         int32_t s2 = lv_trigo_sin(angle_high);
 3366              		.loc 1 559 9 is_stmt 1 view .LVU1141
 559:lvgl/src/misc/lv_area.c ****         int32_t s2 = lv_trigo_sin(angle_high);
 3367              		.loc 1 559 22 is_stmt 0 view .LVU1142
 3368 0066 0FFA89F0 		sxth	r0, r9
 3369 006a FFF7FEFF 		bl	lv_trigo_sin
 3370              	.LVL296:
 3371 006e 0090     		str	r0, [sp]
 3372              	.LVL297:
 560:lvgl/src/misc/lv_area.c **** 
 3373              		.loc 1 560 9 is_stmt 1 view .LVU1143
 560:lvgl/src/misc/lv_area.c **** 
 3374              		.loc 1 560 22 is_stmt 0 view .LVU1144
ARM GAS  C:\Users\OSD\AppData\Local\Temp\ccx0d5Nb.s 			page 89


 3375 0070 0FFA8BF0 		sxth	r0, fp
 3376              	.LVL298:
 560:lvgl/src/misc/lv_area.c **** 
 3377              		.loc 1 560 22 view .LVU1145
 3378 0074 FFF7FEFF 		bl	lv_trigo_sin
 3379              	.LVL299:
 3380 0078 0190     		str	r0, [sp, #4]
 3381              	.LVL300:
 562:lvgl/src/misc/lv_area.c ****         int32_t c2 = lv_trigo_sin(angle_high + 90);
 3382              		.loc 1 562 9 is_stmt 1 view .LVU1146
 562:lvgl/src/misc/lv_area.c ****         int32_t c2 = lv_trigo_sin(angle_high + 90);
 3383              		.loc 1 562 45 is_stmt 0 view .LVU1147
 3384 007a 09F15A00 		add	r0, r9, #90
 3385              	.LVL301:
 562:lvgl/src/misc/lv_area.c ****         int32_t c2 = lv_trigo_sin(angle_high + 90);
 3386              		.loc 1 562 22 view .LVU1148
 3387 007e 00B2     		sxth	r0, r0
 3388 0080 FFF7FEFF 		bl	lv_trigo_sin
 3389              	.LVL302:
 3390 0084 8146     		mov	r9, r0
 3391              	.LVL303:
 563:lvgl/src/misc/lv_area.c **** 
 3392              		.loc 1 563 9 is_stmt 1 view .LVU1149
 563:lvgl/src/misc/lv_area.c **** 
 3393              		.loc 1 563 46 is_stmt 0 view .LVU1150
 3394 0086 0BF15A00 		add	r0, fp, #90
 3395              	.LVL304:
 563:lvgl/src/misc/lv_area.c **** 
 3396              		.loc 1 563 22 view .LVU1151
 3397 008a 00B2     		sxth	r0, r0
 3398 008c FFF7FEFF 		bl	lv_trigo_sin
 3399              	.LVL305:
 565:lvgl/src/misc/lv_area.c ****         cosma = (c1 * (10 - angle_rem) + c2 * angle_rem) / 10;
 3400              		.loc 1 565 9 is_stmt 1 view .LVU1152
 565:lvgl/src/misc/lv_area.c ****         cosma = (c1 * (10 - angle_rem) + c2 * angle_rem) / 10;
 3401              		.loc 1 565 27 is_stmt 0 view .LVU1153
 3402 0090 C5F10A01 		rsb	r1, r5, #10
 565:lvgl/src/misc/lv_area.c ****         cosma = (c1 * (10 - angle_rem) + c2 * angle_rem) / 10;
 3403              		.loc 1 565 45 view .LVU1154
 3404 0094 019B     		ldr	r3, [sp, #4]
 3405 0096 05FB03F3 		mul	r3, r5, r3
 565:lvgl/src/misc/lv_area.c ****         cosma = (c1 * (10 - angle_rem) + c2 * angle_rem) / 10;
 3406              		.loc 1 565 40 view .LVU1155
 3407 009a 009A     		ldr	r2, [sp]
 3408 009c 02FB0133 		mla	r3, r2, r1, r3
 565:lvgl/src/misc/lv_area.c ****         cosma = (c1 * (10 - angle_rem) + c2 * angle_rem) / 10;
 3409              		.loc 1 565 58 view .LVU1156
 3410 00a0 8AFB03C2 		smull	ip, r2, r10, r3
 3411 00a4 DB17     		asrs	r3, r3, #31
 3412 00a6 C3EBA203 		rsb	r3, r3, r2, asr #2
 565:lvgl/src/misc/lv_area.c ****         cosma = (c1 * (10 - angle_rem) + c2 * angle_rem) / 10;
 3413              		.loc 1 565 15 view .LVU1157
 3414 00aa 314A     		ldr	r2, .L164+4
 3415 00ac 1360     		str	r3, [r2]
 566:lvgl/src/misc/lv_area.c ****         sinma = sinma >> (LV_TRIGO_SHIFT - _LV_TRANSFORM_TRIGO_SHIFT);
 3416              		.loc 1 566 9 is_stmt 1 view .LVU1158
 566:lvgl/src/misc/lv_area.c ****         sinma = sinma >> (LV_TRIGO_SHIFT - _LV_TRANSFORM_TRIGO_SHIFT);
ARM GAS  C:\Users\OSD\AppData\Local\Temp\ccx0d5Nb.s 			page 90


 3417              		.loc 1 566 45 is_stmt 0 view .LVU1159
 3418 00ae 00FB05F5 		mul	r5, r0, r5
 3419              	.LVL306:
 566:lvgl/src/misc/lv_area.c ****         sinma = sinma >> (LV_TRIGO_SHIFT - _LV_TRANSFORM_TRIGO_SHIFT);
 3420              		.loc 1 566 40 view .LVU1160
 3421 00b2 09FB0159 		mla	r9, r9, r1, r5
 3422              	.LVL307:
 566:lvgl/src/misc/lv_area.c ****         sinma = sinma >> (LV_TRIGO_SHIFT - _LV_TRANSFORM_TRIGO_SHIFT);
 3423              		.loc 1 566 58 view .LVU1161
 3424 00b6 8AFB091A 		smull	r1, r10, r10, r9
 3425 00ba 4FEAE979 		asr	r9, r9, #31
 3426 00be C9EBAA05 		rsb	r5, r9, r10, asr #2
 566:lvgl/src/misc/lv_area.c ****         sinma = sinma >> (LV_TRIGO_SHIFT - _LV_TRANSFORM_TRIGO_SHIFT);
 3427              		.loc 1 566 15 view .LVU1162
 3428 00c2 2C49     		ldr	r1, .L164+8
 3429 00c4 0D60     		str	r5, [r1]
 567:lvgl/src/misc/lv_area.c ****         cosma = cosma >> (LV_TRIGO_SHIFT - _LV_TRANSFORM_TRIGO_SHIFT);
 3430              		.loc 1 567 9 is_stmt 1 view .LVU1163
 567:lvgl/src/misc/lv_area.c ****         cosma = cosma >> (LV_TRIGO_SHIFT - _LV_TRANSFORM_TRIGO_SHIFT);
 3431              		.loc 1 567 23 is_stmt 0 view .LVU1164
 3432 00c6 5B11     		asrs	r3, r3, #5
 567:lvgl/src/misc/lv_area.c ****         cosma = cosma >> (LV_TRIGO_SHIFT - _LV_TRANSFORM_TRIGO_SHIFT);
 3433              		.loc 1 567 15 view .LVU1165
 3434 00c8 1360     		str	r3, [r2]
 568:lvgl/src/misc/lv_area.c ****         angle_prev = angle;
 3435              		.loc 1 568 9 is_stmt 1 view .LVU1166
 568:lvgl/src/misc/lv_area.c ****         angle_prev = angle;
 3436              		.loc 1 568 23 is_stmt 0 view .LVU1167
 3437 00ca 6D11     		asrs	r5, r5, #5
 568:lvgl/src/misc/lv_area.c ****         angle_prev = angle;
 3438              		.loc 1 568 15 view .LVU1168
 3439 00cc 0D60     		str	r5, [r1]
 569:lvgl/src/misc/lv_area.c ****     }
 3440              		.loc 1 569 9 is_stmt 1 view .LVU1169
 569:lvgl/src/misc/lv_area.c ****     }
 3441              		.loc 1 569 20 is_stmt 0 view .LVU1170
 3442 00ce 274B     		ldr	r3, .L164
 3443 00d0 C3F80080 		str	r8, [r3]
 3444              	.LVL308:
 3445              	.L152:
 569:lvgl/src/misc/lv_area.c ****     }
 3446              		.loc 1 569 20 view .LVU1171
 3447              	.LBE242:
 571:lvgl/src/misc/lv_area.c ****     int32_t y = p->y;
 3448              		.loc 1 571 5 is_stmt 1 view .LVU1172
 571:lvgl/src/misc/lv_area.c ****     int32_t y = p->y;
 3449              		.loc 1 571 18 is_stmt 0 view .LVU1173
 3450 00d4 B4F90010 		ldrsh	r1, [r4]
 3451              	.LVL309:
 572:lvgl/src/misc/lv_area.c ****     if(zoom == 256) {
 3452              		.loc 1 572 5 is_stmt 1 view .LVU1174
 572:lvgl/src/misc/lv_area.c ****     if(zoom == 256) {
 3453              		.loc 1 572 18 is_stmt 0 view .LVU1175
 3454 00d8 B4F90200 		ldrsh	r0, [r4, #2]
 3455              	.LVL310:
 573:lvgl/src/misc/lv_area.c ****         p->x = ((cosma * x - sinma * y) >> _LV_TRANSFORM_TRIGO_SHIFT) + pivot->x;
 3456              		.loc 1 573 5 is_stmt 1 view .LVU1176
ARM GAS  C:\Users\OSD\AppData\Local\Temp\ccx0d5Nb.s 			page 91


 573:lvgl/src/misc/lv_area.c ****         p->x = ((cosma * x - sinma * y) >> _LV_TRANSFORM_TRIGO_SHIFT) + pivot->x;
 3457              		.loc 1 573 7 is_stmt 0 view .LVU1177
 3458 00dc B7F5807F 		cmp	r7, #256
 3459 00e0 2DD0     		beq	.L163
 578:lvgl/src/misc/lv_area.c ****         p->y = (((sinma * x + cosma * y) * zoom) >> (_LV_TRANSFORM_TRIGO_SHIFT + 8)) + pivot->y;
 3460              		.loc 1 578 9 is_stmt 1 view .LVU1178
 578:lvgl/src/misc/lv_area.c ****         p->y = (((sinma * x + cosma * y) * zoom) >> (_LV_TRANSFORM_TRIGO_SHIFT + 8)) + pivot->y;
 3461              		.loc 1 578 25 is_stmt 0 view .LVU1179
 3462 00e2 244B     		ldr	r3, .L164+8
 3463 00e4 1B68     		ldr	r3, [r3]
 3464 00e6 01FB03F2 		mul	r2, r1, r3
 578:lvgl/src/misc/lv_area.c ****         p->y = (((sinma * x + cosma * y) * zoom) >> (_LV_TRANSFORM_TRIGO_SHIFT + 8)) + pivot->y;
 3465              		.loc 1 578 37 view .LVU1180
 3466 00ea 214D     		ldr	r5, .L164+4
 3467 00ec D5F800C0 		ldr	ip, [r5]
 578:lvgl/src/misc/lv_area.c ****         p->y = (((sinma * x + cosma * y) * zoom) >> (_LV_TRANSFORM_TRIGO_SHIFT + 8)) + pivot->y;
 3468              		.loc 1 578 29 view .LVU1181
 3469 00f0 00FB1C22 		mls	r2, r0, ip, r2
 578:lvgl/src/misc/lv_area.c ****         p->y = (((sinma * x + cosma * y) * zoom) >> (_LV_TRANSFORM_TRIGO_SHIFT + 8)) + pivot->y;
 3470              		.loc 1 578 42 view .LVU1182
 3471 00f4 07FB02F2 		mul	r2, r7, r2
 578:lvgl/src/misc/lv_area.c ****         p->y = (((sinma * x + cosma * y) * zoom) >> (_LV_TRANSFORM_TRIGO_SHIFT + 8)) + pivot->y;
 3472              		.loc 1 578 93 view .LVU1183
 3473 00f8 3588     		ldrh	r5, [r6]
 578:lvgl/src/misc/lv_area.c ****         p->y = (((sinma * x + cosma * y) * zoom) >> (_LV_TRANSFORM_TRIGO_SHIFT + 8)) + pivot->y;
 3474              		.loc 1 578 86 view .LVU1184
 3475 00fa 05EBA242 		add	r2, r5, r2, asr #18
 578:lvgl/src/misc/lv_area.c ****         p->y = (((sinma * x + cosma * y) * zoom) >> (_LV_TRANSFORM_TRIGO_SHIFT + 8)) + pivot->y;
 3476              		.loc 1 578 14 view .LVU1185
 3477 00fe 2280     		strh	r2, [r4]	@ movhi
 579:lvgl/src/misc/lv_area.c ****     }
 3478              		.loc 1 579 9 is_stmt 1 view .LVU1186
 579:lvgl/src/misc/lv_area.c ****     }
 3479              		.loc 1 579 37 is_stmt 0 view .LVU1187
 3480 0100 00FB03F3 		mul	r3, r0, r3
 579:lvgl/src/misc/lv_area.c ****     }
 3481              		.loc 1 579 29 view .LVU1188
 3482 0104 01FB0C33 		mla	r3, r1, ip, r3
 579:lvgl/src/misc/lv_area.c ****     }
 3483              		.loc 1 579 42 view .LVU1189
 3484 0108 03FB07F7 		mul	r7, r3, r7
 3485              	.LVL311:
 579:lvgl/src/misc/lv_area.c ****     }
 3486              		.loc 1 579 93 view .LVU1190
 3487 010c 7288     		ldrh	r2, [r6, #2]
 579:lvgl/src/misc/lv_area.c ****     }
 3488              		.loc 1 579 86 view .LVU1191
 3489 010e 02EBA747 		add	r7, r2, r7, asr #18
 579:lvgl/src/misc/lv_area.c ****     }
 3490              		.loc 1 579 14 view .LVU1192
 3491 0112 6780     		strh	r7, [r4, #2]	@ movhi
 3492              	.LVL312:
 3493              	.L149:
 581:lvgl/src/misc/lv_area.c **** 
 3494              		.loc 1 581 1 view .LVU1193
 3495 0114 03B0     		add	sp, sp, #12
 3496              		.cfi_remember_state
ARM GAS  C:\Users\OSD\AppData\Local\Temp\ccx0d5Nb.s 			page 92


 3497              		.cfi_def_cfa_offset 36
 3498              		@ sp needed
 3499 0116 BDE8F08F 		pop	{r4, r5, r6, r7, r8, r9, r10, fp, pc}
 3500              	.LVL313:
 3501              	.L161:
 3502              		.cfi_restore_state
 542:lvgl/src/misc/lv_area.c ****         p->y = (((int32_t)(p->y) * zoom) >> 8) + pivot->y;
 3503              		.loc 1 542 9 is_stmt 1 view .LVU1194
 542:lvgl/src/misc/lv_area.c ****         p->y = (((int32_t)(p->y) * zoom) >> 8) + pivot->y;
 3504              		.loc 1 542 34 is_stmt 0 view .LVU1195
 3505 011a 07FB02F2 		mul	r2, r7, r2
 542:lvgl/src/misc/lv_area.c ****         p->y = (((int32_t)(p->y) * zoom) >> 8) + pivot->y;
 3506              		.loc 1 542 55 view .LVU1196
 3507 011e 3188     		ldrh	r1, [r6]
 542:lvgl/src/misc/lv_area.c ****         p->y = (((int32_t)(p->y) * zoom) >> 8) + pivot->y;
 3508              		.loc 1 542 48 view .LVU1197
 3509 0120 01EB2222 		add	r2, r1, r2, asr #8
 542:lvgl/src/misc/lv_area.c ****         p->y = (((int32_t)(p->y) * zoom) >> 8) + pivot->y;
 3510              		.loc 1 542 14 view .LVU1198
 3511 0124 0280     		strh	r2, [r0]	@ movhi
 543:lvgl/src/misc/lv_area.c ****         return;
 3512              		.loc 1 543 9 is_stmt 1 view .LVU1199
 543:lvgl/src/misc/lv_area.c ****         return;
 3513              		.loc 1 543 34 is_stmt 0 view .LVU1200
 3514 0126 07FB03F3 		mul	r3, r7, r3
 543:lvgl/src/misc/lv_area.c ****         return;
 3515              		.loc 1 543 55 view .LVU1201
 3516 012a 7788     		ldrh	r7, [r6, #2]
 3517              	.LVL314:
 543:lvgl/src/misc/lv_area.c ****         return;
 3518              		.loc 1 543 48 view .LVU1202
 3519 012c 07EB2323 		add	r3, r7, r3, asr #8
 543:lvgl/src/misc/lv_area.c ****         return;
 3520              		.loc 1 543 14 view .LVU1203
 3521 0130 4380     		strh	r3, [r0, #2]	@ movhi
 544:lvgl/src/misc/lv_area.c ****     }
 3522              		.loc 1 544 9 is_stmt 1 view .LVU1204
 3523 0132 EFE7     		b	.L149
 3524              	.LVL315:
 3525              	.L156:
 3526              	.LBB243:
 551:lvgl/src/misc/lv_area.c ****         if(angle_limited > 3600) angle_limited -= 3600;
 3527              		.loc 1 551 17 is_stmt 0 view .LVU1205
 3528 0134 4546     		mov	r5, r8
 3529 0136 86E7     		b	.L153
 3530              	.LVL316:
 3531              	.L162:
 553:lvgl/src/misc/lv_area.c **** 
 3532              		.loc 1 553 31 is_stmt 1 discriminator 1 view .LVU1206
 553:lvgl/src/misc/lv_area.c **** 
 3533              		.loc 1 553 45 is_stmt 0 discriminator 1 view .LVU1207
 3534 0138 05F56165 		add	r5, r5, #3600
 3535              	.LVL317:
 553:lvgl/src/misc/lv_area.c **** 
 3536              		.loc 1 553 45 discriminator 1 view .LVU1208
 3537 013c 85E7     		b	.L154
 3538              	.LVL318:
ARM GAS  C:\Users\OSD\AppData\Local\Temp\ccx0d5Nb.s 			page 93


 3539              	.L163:
 553:lvgl/src/misc/lv_area.c **** 
 3540              		.loc 1 553 45 discriminator 1 view .LVU1209
 3541              	.LBE243:
 574:lvgl/src/misc/lv_area.c ****         p->y = ((sinma * x + cosma * y) >> _LV_TRANSFORM_TRIGO_SHIFT) + pivot->y;
 3542              		.loc 1 574 9 is_stmt 1 view .LVU1210
 574:lvgl/src/misc/lv_area.c ****         p->y = ((sinma * x + cosma * y) >> _LV_TRANSFORM_TRIGO_SHIFT) + pivot->y;
 3543              		.loc 1 574 24 is_stmt 0 view .LVU1211
 3544 013e 0D4B     		ldr	r3, .L164+8
 3545 0140 1B68     		ldr	r3, [r3]
 3546 0142 01FB03F2 		mul	r2, r1, r3
 574:lvgl/src/misc/lv_area.c ****         p->y = ((sinma * x + cosma * y) >> _LV_TRANSFORM_TRIGO_SHIFT) + pivot->y;
 3547              		.loc 1 574 36 view .LVU1212
 3548 0146 0A4D     		ldr	r5, .L164+4
 3549 0148 2F68     		ldr	r7, [r5]
 3550              	.LVL319:
