ARM GAS  C:\Users\OSD\AppData\Local\Temp\ccR88enE.s 			page 1


   1              		.cpu cortex-m7
   2              		.arch armv7e-m
   3              		.fpu fpv5-d16
   4              		.eabi_attribute 28, 1
   5              		.eabi_attribute 20, 1
   6              		.eabi_attribute 21, 1
   7              		.eabi_attribute 23, 3
   8              		.eabi_attribute 24, 1
   9              		.eabi_attribute 25, 1
  10              		.eabi_attribute 26, 1
  11              		.eabi_attribute 30, 1
  12              		.eabi_attribute 34, 1
  13              		.eabi_attribute 18, 4
  14              		.file	"lv_arc.c"
  15              		.text
  16              	.Ltext0:
  17              		.cfi_sections	.debug_frame
  18              		.section	.text.get_angle,"ax",%progbits
  19              		.align	1
  20              		.syntax unified
  21              		.thumb
  22              		.thumb_func
  24              	get_angle:
  25              	.LVL0:
  26              	.LFB189:
  27              		.file 1 "lvgl/src/widgets/lv_arc.c"
   1:lvgl/src/widgets/lv_arc.c **** /**
   2:lvgl/src/widgets/lv_arc.c ****  * @file lv_arc.c
   3:lvgl/src/widgets/lv_arc.c ****  *
   4:lvgl/src/widgets/lv_arc.c ****  */
   5:lvgl/src/widgets/lv_arc.c **** 
   6:lvgl/src/widgets/lv_arc.c **** /*********************
   7:lvgl/src/widgets/lv_arc.c ****  *      INCLUDES
   8:lvgl/src/widgets/lv_arc.c ****  *********************/
   9:lvgl/src/widgets/lv_arc.c **** #include "lv_arc.h"
  10:lvgl/src/widgets/lv_arc.c **** #if LV_USE_ARC != 0
  11:lvgl/src/widgets/lv_arc.c **** 
  12:lvgl/src/widgets/lv_arc.c **** #include "../core/lv_group.h"
  13:lvgl/src/widgets/lv_arc.c **** #include "../core/lv_indev.h"
  14:lvgl/src/widgets/lv_arc.c **** #include "../misc/lv_assert.h"
  15:lvgl/src/widgets/lv_arc.c **** #include "../misc/lv_math.h"
  16:lvgl/src/widgets/lv_arc.c **** #include "../draw/lv_draw_arc.h"
  17:lvgl/src/widgets/lv_arc.c **** 
  18:lvgl/src/widgets/lv_arc.c **** /*********************
  19:lvgl/src/widgets/lv_arc.c ****  *      DEFINES
  20:lvgl/src/widgets/lv_arc.c ****  *********************/
  21:lvgl/src/widgets/lv_arc.c **** #define MY_CLASS &lv_arc_class
  22:lvgl/src/widgets/lv_arc.c **** 
  23:lvgl/src/widgets/lv_arc.c **** #define VALUE_UNSET INT16_MIN
  24:lvgl/src/widgets/lv_arc.c **** #define CLICK_OUTSIDE_BG_ANGLES ((uint32_t) 0x00U)
  25:lvgl/src/widgets/lv_arc.c **** #define CLICK_INSIDE_BG_ANGLES  ((uint32_t) 0x01U)
  26:lvgl/src/widgets/lv_arc.c **** #define CLICK_CLOSER_TO_MAX_END ((uint32_t) 0x00U)
  27:lvgl/src/widgets/lv_arc.c **** #define CLICK_CLOSER_TO_MIN_END ((uint32_t) 0x01U)
  28:lvgl/src/widgets/lv_arc.c **** 
  29:lvgl/src/widgets/lv_arc.c **** /**********************
  30:lvgl/src/widgets/lv_arc.c ****  *      TYPEDEFS
  31:lvgl/src/widgets/lv_arc.c ****  **********************/
ARM GAS  C:\Users\OSD\AppData\Local\Temp\ccR88enE.s 			page 2


  32:lvgl/src/widgets/lv_arc.c **** 
  33:lvgl/src/widgets/lv_arc.c **** /**********************
  34:lvgl/src/widgets/lv_arc.c ****  *  STATIC PROTOTYPES
  35:lvgl/src/widgets/lv_arc.c ****  **********************/
  36:lvgl/src/widgets/lv_arc.c **** 
  37:lvgl/src/widgets/lv_arc.c **** static void lv_arc_constructor(const lv_obj_class_t * class_p, lv_obj_t * obj);
  38:lvgl/src/widgets/lv_arc.c **** static void lv_arc_draw(lv_event_t * e);
  39:lvgl/src/widgets/lv_arc.c **** static void lv_arc_event(const lv_obj_class_t * class_p, lv_event_t * e);
  40:lvgl/src/widgets/lv_arc.c **** static void inv_arc_area(lv_obj_t * arc, uint16_t start_angle, uint16_t end_angle, lv_part_t part);
  41:lvgl/src/widgets/lv_arc.c **** static void inv_knob_area(lv_obj_t * obj);
  42:lvgl/src/widgets/lv_arc.c **** static void get_center(const lv_obj_t * obj, lv_point_t * center, lv_coord_t * arc_r);
  43:lvgl/src/widgets/lv_arc.c **** static lv_coord_t get_angle(const lv_obj_t * obj);
  44:lvgl/src/widgets/lv_arc.c **** static void get_knob_area(lv_obj_t * arc, const lv_point_t * center, lv_coord_t r, lv_area_t * knob
  45:lvgl/src/widgets/lv_arc.c **** static void value_update(lv_obj_t * arc);
  46:lvgl/src/widgets/lv_arc.c **** static lv_coord_t knob_get_extra_size(lv_obj_t * obj);
  47:lvgl/src/widgets/lv_arc.c **** static bool lv_arc_angle_within_bg_bounds(lv_obj_t * obj, const uint32_t angle, const uint32_t tole
  48:lvgl/src/widgets/lv_arc.c **** 
  49:lvgl/src/widgets/lv_arc.c **** /**********************
  50:lvgl/src/widgets/lv_arc.c ****  *  STATIC VARIABLES
  51:lvgl/src/widgets/lv_arc.c ****  **********************/
  52:lvgl/src/widgets/lv_arc.c **** const lv_obj_class_t lv_arc_class  = {
  53:lvgl/src/widgets/lv_arc.c ****     .constructor_cb = lv_arc_constructor,
  54:lvgl/src/widgets/lv_arc.c ****     .event_cb = lv_arc_event,
  55:lvgl/src/widgets/lv_arc.c ****     .instance_size = sizeof(lv_arc_t),
  56:lvgl/src/widgets/lv_arc.c ****     .editable = LV_OBJ_CLASS_EDITABLE_TRUE,
  57:lvgl/src/widgets/lv_arc.c ****     .base_class = &lv_obj_class
  58:lvgl/src/widgets/lv_arc.c **** };
  59:lvgl/src/widgets/lv_arc.c **** 
  60:lvgl/src/widgets/lv_arc.c **** /**********************
  61:lvgl/src/widgets/lv_arc.c ****  *      MACROS
  62:lvgl/src/widgets/lv_arc.c ****  **********************/
  63:lvgl/src/widgets/lv_arc.c **** 
  64:lvgl/src/widgets/lv_arc.c **** /**********************
  65:lvgl/src/widgets/lv_arc.c ****  *   GLOBAL FUNCTIONS
  66:lvgl/src/widgets/lv_arc.c ****  **********************/
  67:lvgl/src/widgets/lv_arc.c **** 
  68:lvgl/src/widgets/lv_arc.c **** lv_obj_t * lv_arc_create(lv_obj_t * parent)
  69:lvgl/src/widgets/lv_arc.c **** {
  70:lvgl/src/widgets/lv_arc.c ****     LV_LOG_INFO("begin");
  71:lvgl/src/widgets/lv_arc.c ****     lv_obj_t * obj = lv_obj_class_create_obj(MY_CLASS, parent);
  72:lvgl/src/widgets/lv_arc.c ****     lv_obj_class_init_obj(obj);
  73:lvgl/src/widgets/lv_arc.c ****     return obj;
  74:lvgl/src/widgets/lv_arc.c **** }
  75:lvgl/src/widgets/lv_arc.c **** 
  76:lvgl/src/widgets/lv_arc.c **** /*======================
  77:lvgl/src/widgets/lv_arc.c ****  * Add/remove functions
  78:lvgl/src/widgets/lv_arc.c ****  *=====================*/
  79:lvgl/src/widgets/lv_arc.c **** 
  80:lvgl/src/widgets/lv_arc.c **** /*
  81:lvgl/src/widgets/lv_arc.c ****  * New object specific "add" or "remove" functions come here
  82:lvgl/src/widgets/lv_arc.c ****  */
  83:lvgl/src/widgets/lv_arc.c **** 
  84:lvgl/src/widgets/lv_arc.c **** /*=====================
  85:lvgl/src/widgets/lv_arc.c ****  * Setter functions
  86:lvgl/src/widgets/lv_arc.c ****  *====================*/
  87:lvgl/src/widgets/lv_arc.c **** 
  88:lvgl/src/widgets/lv_arc.c **** void lv_arc_set_start_angle(lv_obj_t * obj, uint16_t start)
ARM GAS  C:\Users\OSD\AppData\Local\Temp\ccR88enE.s 			page 3


  89:lvgl/src/widgets/lv_arc.c **** {
  90:lvgl/src/widgets/lv_arc.c ****     LV_ASSERT_OBJ(obj, MY_CLASS);
  91:lvgl/src/widgets/lv_arc.c ****     lv_arc_t * arc = (lv_arc_t *)obj;
  92:lvgl/src/widgets/lv_arc.c **** 
  93:lvgl/src/widgets/lv_arc.c ****     if(start > 360) start -= 360;
  94:lvgl/src/widgets/lv_arc.c **** 
  95:lvgl/src/widgets/lv_arc.c ****     int16_t old_delta = arc->indic_angle_end - arc->indic_angle_start;
  96:lvgl/src/widgets/lv_arc.c ****     int16_t new_delta = arc->indic_angle_end - start;
  97:lvgl/src/widgets/lv_arc.c **** 
  98:lvgl/src/widgets/lv_arc.c ****     if(old_delta < 0) old_delta = 360 + old_delta;
  99:lvgl/src/widgets/lv_arc.c ****     if(new_delta < 0) new_delta = 360 + new_delta;
 100:lvgl/src/widgets/lv_arc.c **** 
 101:lvgl/src/widgets/lv_arc.c ****     if(LV_ABS(new_delta - old_delta) > 180)  lv_obj_invalidate(obj);
 102:lvgl/src/widgets/lv_arc.c ****     else if(new_delta < old_delta) inv_arc_area(obj, arc->indic_angle_start, start, LV_PART_INDICAT
 103:lvgl/src/widgets/lv_arc.c ****     else if(old_delta < new_delta) inv_arc_area(obj, start, arc->indic_angle_start, LV_PART_INDICAT
 104:lvgl/src/widgets/lv_arc.c **** 
 105:lvgl/src/widgets/lv_arc.c ****     inv_knob_area(obj);
 106:lvgl/src/widgets/lv_arc.c **** 
 107:lvgl/src/widgets/lv_arc.c ****     arc->indic_angle_start = start;
 108:lvgl/src/widgets/lv_arc.c **** 
 109:lvgl/src/widgets/lv_arc.c ****     inv_knob_area(obj);
 110:lvgl/src/widgets/lv_arc.c **** }
 111:lvgl/src/widgets/lv_arc.c **** 
 112:lvgl/src/widgets/lv_arc.c **** void lv_arc_set_end_angle(lv_obj_t * obj, uint16_t end)
 113:lvgl/src/widgets/lv_arc.c **** {
 114:lvgl/src/widgets/lv_arc.c ****     LV_ASSERT_OBJ(obj, MY_CLASS);
 115:lvgl/src/widgets/lv_arc.c ****     lv_arc_t * arc = (lv_arc_t *)obj;
 116:lvgl/src/widgets/lv_arc.c ****     if(end > 360) end -= 360;
 117:lvgl/src/widgets/lv_arc.c **** 
 118:lvgl/src/widgets/lv_arc.c ****     int16_t old_delta = arc->indic_angle_end - arc->indic_angle_start;
 119:lvgl/src/widgets/lv_arc.c ****     int16_t new_delta = end - arc->indic_angle_start;
 120:lvgl/src/widgets/lv_arc.c **** 
 121:lvgl/src/widgets/lv_arc.c ****     if(old_delta < 0) old_delta = 360 + old_delta;
 122:lvgl/src/widgets/lv_arc.c ****     if(new_delta < 0) new_delta = 360 + new_delta;
 123:lvgl/src/widgets/lv_arc.c **** 
 124:lvgl/src/widgets/lv_arc.c ****     if(LV_ABS(new_delta - old_delta) > 180)  lv_obj_invalidate(obj);
 125:lvgl/src/widgets/lv_arc.c ****     else if(new_delta < old_delta) inv_arc_area(obj, end, arc->indic_angle_end, LV_PART_INDICATOR);
 126:lvgl/src/widgets/lv_arc.c ****     else if(old_delta < new_delta) inv_arc_area(obj, arc->indic_angle_end, end, LV_PART_INDICATOR);
 127:lvgl/src/widgets/lv_arc.c **** 
 128:lvgl/src/widgets/lv_arc.c ****     inv_knob_area(obj);
 129:lvgl/src/widgets/lv_arc.c **** 
 130:lvgl/src/widgets/lv_arc.c ****     arc->indic_angle_end = end;
 131:lvgl/src/widgets/lv_arc.c **** 
 132:lvgl/src/widgets/lv_arc.c ****     inv_knob_area(obj);
 133:lvgl/src/widgets/lv_arc.c **** }
 134:lvgl/src/widgets/lv_arc.c **** 
 135:lvgl/src/widgets/lv_arc.c **** void lv_arc_set_angles(lv_obj_t * obj, uint16_t start, uint16_t end)
 136:lvgl/src/widgets/lv_arc.c **** {
 137:lvgl/src/widgets/lv_arc.c ****     lv_arc_set_end_angle(obj, end);
 138:lvgl/src/widgets/lv_arc.c ****     lv_arc_set_start_angle(obj, start);
 139:lvgl/src/widgets/lv_arc.c **** }
 140:lvgl/src/widgets/lv_arc.c **** 
 141:lvgl/src/widgets/lv_arc.c **** void lv_arc_set_bg_start_angle(lv_obj_t * obj, uint16_t start)
 142:lvgl/src/widgets/lv_arc.c **** {
 143:lvgl/src/widgets/lv_arc.c ****     LV_ASSERT_OBJ(obj, MY_CLASS);
 144:lvgl/src/widgets/lv_arc.c ****     lv_arc_t * arc = (lv_arc_t *)obj;
 145:lvgl/src/widgets/lv_arc.c **** 
ARM GAS  C:\Users\OSD\AppData\Local\Temp\ccR88enE.s 			page 4


 146:lvgl/src/widgets/lv_arc.c ****     if(start > 360) start -= 360;
 147:lvgl/src/widgets/lv_arc.c **** 
 148:lvgl/src/widgets/lv_arc.c ****     int16_t old_delta = arc->bg_angle_end - arc->bg_angle_start;
 149:lvgl/src/widgets/lv_arc.c ****     int16_t new_delta = arc->bg_angle_end - start;
 150:lvgl/src/widgets/lv_arc.c **** 
 151:lvgl/src/widgets/lv_arc.c ****     if(old_delta < 0) old_delta = 360 + old_delta;
 152:lvgl/src/widgets/lv_arc.c ****     if(new_delta < 0) new_delta = 360 + new_delta;
 153:lvgl/src/widgets/lv_arc.c **** 
 154:lvgl/src/widgets/lv_arc.c ****     if(LV_ABS(new_delta - old_delta) > 180)  lv_obj_invalidate(obj);
 155:lvgl/src/widgets/lv_arc.c ****     else if(new_delta < old_delta) inv_arc_area(obj, arc->bg_angle_start, start, LV_PART_MAIN);
 156:lvgl/src/widgets/lv_arc.c ****     else if(old_delta < new_delta) inv_arc_area(obj, start, arc->bg_angle_start, LV_PART_MAIN);
 157:lvgl/src/widgets/lv_arc.c **** 
 158:lvgl/src/widgets/lv_arc.c ****     arc->bg_angle_start = start;
 159:lvgl/src/widgets/lv_arc.c **** 
 160:lvgl/src/widgets/lv_arc.c ****     value_update(obj);
 161:lvgl/src/widgets/lv_arc.c **** }
 162:lvgl/src/widgets/lv_arc.c **** 
 163:lvgl/src/widgets/lv_arc.c **** void lv_arc_set_bg_end_angle(lv_obj_t * obj, uint16_t end)
 164:lvgl/src/widgets/lv_arc.c **** {
 165:lvgl/src/widgets/lv_arc.c ****     LV_ASSERT_OBJ(obj, MY_CLASS);
 166:lvgl/src/widgets/lv_arc.c ****     lv_arc_t * arc = (lv_arc_t *)obj;
 167:lvgl/src/widgets/lv_arc.c **** 
 168:lvgl/src/widgets/lv_arc.c ****     if(end > 360) end -= 360;
 169:lvgl/src/widgets/lv_arc.c **** 
 170:lvgl/src/widgets/lv_arc.c ****     int16_t old_delta = arc->bg_angle_end - arc->bg_angle_start;
 171:lvgl/src/widgets/lv_arc.c ****     int16_t new_delta = end - arc->bg_angle_start;
 172:lvgl/src/widgets/lv_arc.c **** 
 173:lvgl/src/widgets/lv_arc.c ****     if(old_delta < 0) old_delta = 360 + old_delta;
 174:lvgl/src/widgets/lv_arc.c ****     if(new_delta < 0) new_delta = 360 + new_delta;
 175:lvgl/src/widgets/lv_arc.c **** 
 176:lvgl/src/widgets/lv_arc.c ****     if(LV_ABS(new_delta - old_delta) > 180)  lv_obj_invalidate(obj);
 177:lvgl/src/widgets/lv_arc.c ****     else if(new_delta < old_delta) inv_arc_area(obj, end, arc->bg_angle_end, LV_PART_MAIN);
 178:lvgl/src/widgets/lv_arc.c ****     else if(old_delta < new_delta) inv_arc_area(obj, arc->bg_angle_end, end, LV_PART_MAIN);
 179:lvgl/src/widgets/lv_arc.c **** 
 180:lvgl/src/widgets/lv_arc.c ****     arc->bg_angle_end = end;
 181:lvgl/src/widgets/lv_arc.c **** 
 182:lvgl/src/widgets/lv_arc.c ****     value_update(obj);
 183:lvgl/src/widgets/lv_arc.c **** }
 184:lvgl/src/widgets/lv_arc.c **** 
 185:lvgl/src/widgets/lv_arc.c **** void lv_arc_set_bg_angles(lv_obj_t * obj, uint16_t start, uint16_t end)
 186:lvgl/src/widgets/lv_arc.c **** {
 187:lvgl/src/widgets/lv_arc.c ****     lv_arc_set_bg_end_angle(obj, end);
 188:lvgl/src/widgets/lv_arc.c ****     lv_arc_set_bg_start_angle(obj, start);
 189:lvgl/src/widgets/lv_arc.c **** }
 190:lvgl/src/widgets/lv_arc.c **** 
 191:lvgl/src/widgets/lv_arc.c **** void lv_arc_set_rotation(lv_obj_t * obj, uint16_t rotation)
 192:lvgl/src/widgets/lv_arc.c **** {
 193:lvgl/src/widgets/lv_arc.c ****     LV_ASSERT_OBJ(obj, MY_CLASS);
 194:lvgl/src/widgets/lv_arc.c ****     lv_arc_t * arc = (lv_arc_t *)obj;
 195:lvgl/src/widgets/lv_arc.c **** 
 196:lvgl/src/widgets/lv_arc.c ****     arc->rotation = rotation;
 197:lvgl/src/widgets/lv_arc.c **** 
 198:lvgl/src/widgets/lv_arc.c ****     lv_obj_invalidate(obj);
 199:lvgl/src/widgets/lv_arc.c **** }
 200:lvgl/src/widgets/lv_arc.c **** 
 201:lvgl/src/widgets/lv_arc.c **** void lv_arc_set_mode(lv_obj_t * obj, lv_arc_mode_t type)
 202:lvgl/src/widgets/lv_arc.c **** {
ARM GAS  C:\Users\OSD\AppData\Local\Temp\ccR88enE.s 			page 5


 203:lvgl/src/widgets/lv_arc.c ****     LV_ASSERT_OBJ(obj, MY_CLASS);
 204:lvgl/src/widgets/lv_arc.c ****     lv_arc_t * arc = (lv_arc_t *)obj;
 205:lvgl/src/widgets/lv_arc.c **** 
 206:lvgl/src/widgets/lv_arc.c ****     int16_t val = arc->value;
 207:lvgl/src/widgets/lv_arc.c **** 
 208:lvgl/src/widgets/lv_arc.c ****     arc->type = type;
 209:lvgl/src/widgets/lv_arc.c ****     arc->value = -1; /** Force set_value handling*/
 210:lvgl/src/widgets/lv_arc.c **** 
 211:lvgl/src/widgets/lv_arc.c ****     int16_t bg_midpoint, bg_end = arc->bg_angle_end;
 212:lvgl/src/widgets/lv_arc.c ****     if(arc->bg_angle_end < arc->bg_angle_start) bg_end = arc->bg_angle_end + 360;
 213:lvgl/src/widgets/lv_arc.c **** 
 214:lvgl/src/widgets/lv_arc.c ****     switch(arc->type) {
 215:lvgl/src/widgets/lv_arc.c ****         case LV_ARC_MODE_SYMMETRICAL:
 216:lvgl/src/widgets/lv_arc.c ****             bg_midpoint = (arc->bg_angle_start + bg_end) / 2;
 217:lvgl/src/widgets/lv_arc.c ****             lv_arc_set_start_angle(obj, bg_midpoint);
 218:lvgl/src/widgets/lv_arc.c ****             lv_arc_set_end_angle(obj, bg_midpoint);
 219:lvgl/src/widgets/lv_arc.c ****             break;
 220:lvgl/src/widgets/lv_arc.c ****         case LV_ARC_MODE_REVERSE:
 221:lvgl/src/widgets/lv_arc.c ****             lv_arc_set_end_angle(obj, arc->bg_angle_end);
 222:lvgl/src/widgets/lv_arc.c ****             break;
 223:lvgl/src/widgets/lv_arc.c ****         default: /** LV_ARC_TYPE_NORMAL*/
 224:lvgl/src/widgets/lv_arc.c ****             lv_arc_set_start_angle(obj, arc->bg_angle_start);
 225:lvgl/src/widgets/lv_arc.c ****     }
 226:lvgl/src/widgets/lv_arc.c **** 
 227:lvgl/src/widgets/lv_arc.c ****     lv_arc_set_value(obj, val);
 228:lvgl/src/widgets/lv_arc.c **** }
 229:lvgl/src/widgets/lv_arc.c **** 
 230:lvgl/src/widgets/lv_arc.c **** void lv_arc_set_value(lv_obj_t * obj, int16_t value)
 231:lvgl/src/widgets/lv_arc.c **** {
 232:lvgl/src/widgets/lv_arc.c ****     LV_ASSERT_OBJ(obj, MY_CLASS);
 233:lvgl/src/widgets/lv_arc.c ****     lv_arc_t * arc = (lv_arc_t *)obj;
 234:lvgl/src/widgets/lv_arc.c **** 
 235:lvgl/src/widgets/lv_arc.c ****     if(arc->value == value) return;
 236:lvgl/src/widgets/lv_arc.c **** 
 237:lvgl/src/widgets/lv_arc.c ****     int16_t new_value;
 238:lvgl/src/widgets/lv_arc.c ****     new_value = value > arc->max_value ? arc->max_value : value;
 239:lvgl/src/widgets/lv_arc.c ****     new_value = new_value < arc->min_value ? arc->min_value : new_value;
 240:lvgl/src/widgets/lv_arc.c **** 
 241:lvgl/src/widgets/lv_arc.c ****     if(arc->value == new_value) return;
 242:lvgl/src/widgets/lv_arc.c ****     arc->value = new_value;
 243:lvgl/src/widgets/lv_arc.c **** 
 244:lvgl/src/widgets/lv_arc.c ****     value_update(obj);
 245:lvgl/src/widgets/lv_arc.c **** }
 246:lvgl/src/widgets/lv_arc.c **** 
 247:lvgl/src/widgets/lv_arc.c **** void lv_arc_set_range(lv_obj_t * obj, int16_t min, int16_t max)
 248:lvgl/src/widgets/lv_arc.c **** {
 249:lvgl/src/widgets/lv_arc.c ****     LV_ASSERT_OBJ(obj, MY_CLASS);
 250:lvgl/src/widgets/lv_arc.c ****     lv_arc_t * arc = (lv_arc_t *)obj;
 251:lvgl/src/widgets/lv_arc.c **** 
 252:lvgl/src/widgets/lv_arc.c ****     if(arc->min_value == min && arc->max_value == max) return;
 253:lvgl/src/widgets/lv_arc.c **** 
 254:lvgl/src/widgets/lv_arc.c ****     arc->min_value = min;
 255:lvgl/src/widgets/lv_arc.c ****     arc->max_value = max;
 256:lvgl/src/widgets/lv_arc.c **** 
 257:lvgl/src/widgets/lv_arc.c ****     if(arc->value < min) {
 258:lvgl/src/widgets/lv_arc.c ****         arc->value = min;
 259:lvgl/src/widgets/lv_arc.c ****     }
ARM GAS  C:\Users\OSD\AppData\Local\Temp\ccR88enE.s 			page 6


 260:lvgl/src/widgets/lv_arc.c ****     if(arc->value > max) {
 261:lvgl/src/widgets/lv_arc.c ****         arc->value = max;
 262:lvgl/src/widgets/lv_arc.c ****     }
 263:lvgl/src/widgets/lv_arc.c **** 
 264:lvgl/src/widgets/lv_arc.c ****     value_update(obj); /*value has changed relative to the new range*/
 265:lvgl/src/widgets/lv_arc.c **** }
 266:lvgl/src/widgets/lv_arc.c **** 
 267:lvgl/src/widgets/lv_arc.c **** void lv_arc_set_change_rate(lv_obj_t * obj, uint16_t rate)
 268:lvgl/src/widgets/lv_arc.c **** {
 269:lvgl/src/widgets/lv_arc.c ****     LV_ASSERT_OBJ(obj, MY_CLASS);
 270:lvgl/src/widgets/lv_arc.c ****     lv_arc_t * arc = (lv_arc_t *)obj;
 271:lvgl/src/widgets/lv_arc.c **** 
 272:lvgl/src/widgets/lv_arc.c ****     arc->chg_rate = rate;
 273:lvgl/src/widgets/lv_arc.c **** }
 274:lvgl/src/widgets/lv_arc.c **** 
 275:lvgl/src/widgets/lv_arc.c **** /*=====================
 276:lvgl/src/widgets/lv_arc.c ****  * Getter functions
 277:lvgl/src/widgets/lv_arc.c ****  *====================*/
 278:lvgl/src/widgets/lv_arc.c **** 
 279:lvgl/src/widgets/lv_arc.c **** uint16_t lv_arc_get_angle_start(lv_obj_t * obj)
 280:lvgl/src/widgets/lv_arc.c **** {
 281:lvgl/src/widgets/lv_arc.c ****     LV_ASSERT_OBJ(obj, MY_CLASS);
 282:lvgl/src/widgets/lv_arc.c ****     return ((lv_arc_t *) obj)->indic_angle_start;
 283:lvgl/src/widgets/lv_arc.c **** }
 284:lvgl/src/widgets/lv_arc.c **** 
 285:lvgl/src/widgets/lv_arc.c **** uint16_t lv_arc_get_angle_end(lv_obj_t * obj)
 286:lvgl/src/widgets/lv_arc.c **** {
 287:lvgl/src/widgets/lv_arc.c ****     LV_ASSERT_OBJ(obj, MY_CLASS);
 288:lvgl/src/widgets/lv_arc.c ****     return ((lv_arc_t *) obj)->indic_angle_end;
 289:lvgl/src/widgets/lv_arc.c **** }
 290:lvgl/src/widgets/lv_arc.c **** 
 291:lvgl/src/widgets/lv_arc.c **** uint16_t lv_arc_get_bg_angle_start(lv_obj_t * obj)
 292:lvgl/src/widgets/lv_arc.c **** {
 293:lvgl/src/widgets/lv_arc.c ****     LV_ASSERT_OBJ(obj, MY_CLASS);
 294:lvgl/src/widgets/lv_arc.c ****     return ((lv_arc_t *) obj)->bg_angle_start;
 295:lvgl/src/widgets/lv_arc.c **** }
 296:lvgl/src/widgets/lv_arc.c **** 
 297:lvgl/src/widgets/lv_arc.c **** uint16_t lv_arc_get_bg_angle_end(lv_obj_t * obj)
 298:lvgl/src/widgets/lv_arc.c **** {
 299:lvgl/src/widgets/lv_arc.c ****     LV_ASSERT_OBJ(obj, MY_CLASS);
 300:lvgl/src/widgets/lv_arc.c ****     return ((lv_arc_t *) obj)->bg_angle_end;
 301:lvgl/src/widgets/lv_arc.c **** }
 302:lvgl/src/widgets/lv_arc.c **** 
 303:lvgl/src/widgets/lv_arc.c **** int16_t lv_arc_get_value(const lv_obj_t * obj)
 304:lvgl/src/widgets/lv_arc.c **** {
 305:lvgl/src/widgets/lv_arc.c ****     LV_ASSERT_OBJ(obj, MY_CLASS);
 306:lvgl/src/widgets/lv_arc.c ****     return ((lv_arc_t *) obj)->value;
 307:lvgl/src/widgets/lv_arc.c **** }
 308:lvgl/src/widgets/lv_arc.c **** 
 309:lvgl/src/widgets/lv_arc.c **** int16_t lv_arc_get_min_value(const lv_obj_t * obj)
 310:lvgl/src/widgets/lv_arc.c **** {
 311:lvgl/src/widgets/lv_arc.c ****     LV_ASSERT_OBJ(obj, MY_CLASS);
 312:lvgl/src/widgets/lv_arc.c ****     return ((lv_arc_t *) obj)->min_value;
 313:lvgl/src/widgets/lv_arc.c **** }
 314:lvgl/src/widgets/lv_arc.c **** 
 315:lvgl/src/widgets/lv_arc.c **** int16_t lv_arc_get_max_value(const lv_obj_t * obj)
 316:lvgl/src/widgets/lv_arc.c **** {
ARM GAS  C:\Users\OSD\AppData\Local\Temp\ccR88enE.s 			page 7


 317:lvgl/src/widgets/lv_arc.c ****     LV_ASSERT_OBJ(obj, MY_CLASS);
 318:lvgl/src/widgets/lv_arc.c ****     return ((lv_arc_t *) obj)->max_value;
 319:lvgl/src/widgets/lv_arc.c **** }
 320:lvgl/src/widgets/lv_arc.c **** 
 321:lvgl/src/widgets/lv_arc.c **** lv_arc_mode_t lv_arc_get_mode(const lv_obj_t * obj)
 322:lvgl/src/widgets/lv_arc.c **** {
 323:lvgl/src/widgets/lv_arc.c ****     LV_ASSERT_OBJ(obj, MY_CLASS);
 324:lvgl/src/widgets/lv_arc.c ****     return ((lv_arc_t *) obj)->type;
 325:lvgl/src/widgets/lv_arc.c **** }
 326:lvgl/src/widgets/lv_arc.c **** 
 327:lvgl/src/widgets/lv_arc.c **** /*=====================
 328:lvgl/src/widgets/lv_arc.c ****  * Other functions
 329:lvgl/src/widgets/lv_arc.c ****  *====================*/
 330:lvgl/src/widgets/lv_arc.c **** 
 331:lvgl/src/widgets/lv_arc.c **** void lv_arc_align_obj_to_angle(const lv_obj_t * obj, lv_obj_t * obj_to_align, lv_coord_t r_offset)
 332:lvgl/src/widgets/lv_arc.c **** {
 333:lvgl/src/widgets/lv_arc.c ****     LV_ASSERT_OBJ(obj, MY_CLASS);
 334:lvgl/src/widgets/lv_arc.c ****     LV_ASSERT_NULL(obj_to_align);
 335:lvgl/src/widgets/lv_arc.c **** 
 336:lvgl/src/widgets/lv_arc.c ****     lv_obj_update_layout(obj);
 337:lvgl/src/widgets/lv_arc.c **** 
 338:lvgl/src/widgets/lv_arc.c ****     lv_point_t center;
 339:lvgl/src/widgets/lv_arc.c ****     lv_coord_t arc_r;
 340:lvgl/src/widgets/lv_arc.c ****     get_center(obj, &center, &arc_r);
 341:lvgl/src/widgets/lv_arc.c ****     lv_coord_t indic_width = lv_obj_get_style_arc_width(obj, LV_PART_INDICATOR);
 342:lvgl/src/widgets/lv_arc.c ****     lv_coord_t indic_width_half = indic_width / 2;
 343:lvgl/src/widgets/lv_arc.c ****     arc_r -= indic_width_half;
 344:lvgl/src/widgets/lv_arc.c ****     arc_r += r_offset;
 345:lvgl/src/widgets/lv_arc.c **** 
 346:lvgl/src/widgets/lv_arc.c ****     uint16_t angle = get_angle(obj);
 347:lvgl/src/widgets/lv_arc.c ****     lv_coord_t knob_x = (arc_r * lv_trigo_sin(angle + 90)) >> LV_TRIGO_SHIFT;
 348:lvgl/src/widgets/lv_arc.c ****     lv_coord_t knob_y = (arc_r * lv_trigo_sin(angle)) >> LV_TRIGO_SHIFT;
 349:lvgl/src/widgets/lv_arc.c ****     lv_obj_align_to(obj_to_align, obj, LV_ALIGN_CENTER, knob_x, knob_y);
 350:lvgl/src/widgets/lv_arc.c **** }
 351:lvgl/src/widgets/lv_arc.c **** 
 352:lvgl/src/widgets/lv_arc.c **** void lv_arc_rotate_obj_to_angle(const lv_obj_t * obj, lv_obj_t * obj_to_rotate, lv_coord_t r_offset
 353:lvgl/src/widgets/lv_arc.c **** {
 354:lvgl/src/widgets/lv_arc.c ****     LV_ASSERT_OBJ(obj, MY_CLASS);
 355:lvgl/src/widgets/lv_arc.c ****     LV_ASSERT_NULL(obj_to_rotate);
 356:lvgl/src/widgets/lv_arc.c **** 
 357:lvgl/src/widgets/lv_arc.c ****     lv_obj_update_layout(obj);
 358:lvgl/src/widgets/lv_arc.c **** 
 359:lvgl/src/widgets/lv_arc.c ****     lv_point_t center;
 360:lvgl/src/widgets/lv_arc.c ****     lv_coord_t arc_r;
 361:lvgl/src/widgets/lv_arc.c ****     get_center(obj, &center, &arc_r);
 362:lvgl/src/widgets/lv_arc.c ****     lv_coord_t indic_width = lv_obj_get_style_arc_width(obj, LV_PART_INDICATOR);
 363:lvgl/src/widgets/lv_arc.c ****     lv_coord_t indic_width_half = indic_width / 2;
 364:lvgl/src/widgets/lv_arc.c ****     arc_r -= indic_width_half;
 365:lvgl/src/widgets/lv_arc.c **** 
 366:lvgl/src/widgets/lv_arc.c ****     arc_r += r_offset;
 367:lvgl/src/widgets/lv_arc.c ****     lv_obj_align_to(obj_to_rotate, obj, LV_ALIGN_CENTER, 0, -arc_r);
 368:lvgl/src/widgets/lv_arc.c **** 
 369:lvgl/src/widgets/lv_arc.c ****     lv_obj_update_layout(obj);
 370:lvgl/src/widgets/lv_arc.c **** 
 371:lvgl/src/widgets/lv_arc.c ****     uint16_t angle = get_angle(obj);
 372:lvgl/src/widgets/lv_arc.c ****     lv_coord_t pivot_x = obj_to_rotate->coords.x1 - center.x;
 373:lvgl/src/widgets/lv_arc.c ****     lv_coord_t pivot_y = obj_to_rotate->coords.y1 - center.y;
ARM GAS  C:\Users\OSD\AppData\Local\Temp\ccR88enE.s 			page 8


 374:lvgl/src/widgets/lv_arc.c ****     lv_obj_set_style_transform_pivot_x(obj_to_rotate, -pivot_x, 0);
 375:lvgl/src/widgets/lv_arc.c ****     lv_obj_set_style_transform_pivot_y(obj_to_rotate, -pivot_y, 0);
 376:lvgl/src/widgets/lv_arc.c ****     lv_obj_set_style_transform_angle(obj_to_rotate, angle * 10 + 900, 0);
 377:lvgl/src/widgets/lv_arc.c **** }
 378:lvgl/src/widgets/lv_arc.c **** 
 379:lvgl/src/widgets/lv_arc.c **** /**********************
 380:lvgl/src/widgets/lv_arc.c ****  *   STATIC FUNCTIONS
 381:lvgl/src/widgets/lv_arc.c ****  **********************/
 382:lvgl/src/widgets/lv_arc.c **** 
 383:lvgl/src/widgets/lv_arc.c **** static void lv_arc_constructor(const lv_obj_class_t * class_p, lv_obj_t * obj)
 384:lvgl/src/widgets/lv_arc.c **** {
 385:lvgl/src/widgets/lv_arc.c ****     LV_UNUSED(class_p);
 386:lvgl/src/widgets/lv_arc.c ****     LV_TRACE_OBJ_CREATE("begin");
 387:lvgl/src/widgets/lv_arc.c **** 
 388:lvgl/src/widgets/lv_arc.c ****     lv_arc_t * arc = (lv_arc_t *)obj;
 389:lvgl/src/widgets/lv_arc.c **** 
 390:lvgl/src/widgets/lv_arc.c ****     /*Initialize the allocated 'ext'*/
 391:lvgl/src/widgets/lv_arc.c ****     arc->rotation = 0;
 392:lvgl/src/widgets/lv_arc.c ****     arc->bg_angle_start = 135;
 393:lvgl/src/widgets/lv_arc.c ****     arc->bg_angle_end   = 45;
 394:lvgl/src/widgets/lv_arc.c ****     arc->indic_angle_start = 135;
 395:lvgl/src/widgets/lv_arc.c ****     arc->indic_angle_end   = 270;
 396:lvgl/src/widgets/lv_arc.c ****     arc->type = LV_ARC_MODE_NORMAL;
 397:lvgl/src/widgets/lv_arc.c ****     arc->value = VALUE_UNSET;
 398:lvgl/src/widgets/lv_arc.c ****     arc->min_close = 1;
 399:lvgl/src/widgets/lv_arc.c ****     arc->min_value = 0;
 400:lvgl/src/widgets/lv_arc.c ****     arc->max_value = 100;
 401:lvgl/src/widgets/lv_arc.c ****     arc->dragging = false;
 402:lvgl/src/widgets/lv_arc.c ****     arc->chg_rate = 720;
 403:lvgl/src/widgets/lv_arc.c ****     arc->last_tick = lv_tick_get();
 404:lvgl/src/widgets/lv_arc.c ****     arc->last_angle = arc->indic_angle_end;
 405:lvgl/src/widgets/lv_arc.c ****     arc->in_out = CLICK_OUTSIDE_BG_ANGLES;
 406:lvgl/src/widgets/lv_arc.c **** 
 407:lvgl/src/widgets/lv_arc.c ****     lv_obj_add_flag(obj, LV_OBJ_FLAG_CLICKABLE);
 408:lvgl/src/widgets/lv_arc.c ****     lv_obj_clear_flag(obj, LV_OBJ_FLAG_SCROLL_CHAIN | LV_OBJ_FLAG_SCROLLABLE);
 409:lvgl/src/widgets/lv_arc.c ****     lv_obj_set_ext_click_area(obj, LV_DPI_DEF / 10);
 410:lvgl/src/widgets/lv_arc.c **** 
 411:lvgl/src/widgets/lv_arc.c ****     LV_TRACE_OBJ_CREATE("finished");
 412:lvgl/src/widgets/lv_arc.c **** }
 413:lvgl/src/widgets/lv_arc.c **** 
 414:lvgl/src/widgets/lv_arc.c **** static void lv_arc_event(const lv_obj_class_t * class_p, lv_event_t * e)
 415:lvgl/src/widgets/lv_arc.c **** {
 416:lvgl/src/widgets/lv_arc.c ****     LV_UNUSED(class_p);
 417:lvgl/src/widgets/lv_arc.c **** 
 418:lvgl/src/widgets/lv_arc.c ****     lv_res_t res;
 419:lvgl/src/widgets/lv_arc.c **** 
 420:lvgl/src/widgets/lv_arc.c ****     /*Call the ancestor's event handler*/
 421:lvgl/src/widgets/lv_arc.c ****     res = lv_obj_event_base(MY_CLASS, e);
 422:lvgl/src/widgets/lv_arc.c ****     if(res != LV_RES_OK) return;
 423:lvgl/src/widgets/lv_arc.c **** 
 424:lvgl/src/widgets/lv_arc.c ****     lv_event_code_t code = lv_event_get_code(e);
 425:lvgl/src/widgets/lv_arc.c ****     lv_obj_t * obj = lv_event_get_target(e);
 426:lvgl/src/widgets/lv_arc.c ****     lv_arc_t * arc = (lv_arc_t *)lv_event_get_target(e);
 427:lvgl/src/widgets/lv_arc.c ****     if(code == LV_EVENT_PRESSING) {
 428:lvgl/src/widgets/lv_arc.c ****         lv_indev_t * indev = lv_indev_get_act();
 429:lvgl/src/widgets/lv_arc.c ****         if(indev == NULL) return;
 430:lvgl/src/widgets/lv_arc.c **** 
ARM GAS  C:\Users\OSD\AppData\Local\Temp\ccR88enE.s 			page 9


 431:lvgl/src/widgets/lv_arc.c ****         /*Handle only pointers here*/
 432:lvgl/src/widgets/lv_arc.c ****         lv_indev_type_t indev_type = lv_indev_get_type(indev);
 433:lvgl/src/widgets/lv_arc.c ****         if(indev_type != LV_INDEV_TYPE_POINTER) return;
 434:lvgl/src/widgets/lv_arc.c **** 
 435:lvgl/src/widgets/lv_arc.c ****         lv_point_t p;
 436:lvgl/src/widgets/lv_arc.c ****         lv_indev_get_point(indev, &p);
 437:lvgl/src/widgets/lv_arc.c **** 
 438:lvgl/src/widgets/lv_arc.c ****         /*Make point relative to the arc's center*/
 439:lvgl/src/widgets/lv_arc.c ****         lv_point_t center;
 440:lvgl/src/widgets/lv_arc.c ****         lv_coord_t r;
 441:lvgl/src/widgets/lv_arc.c ****         get_center(obj, &center, &r);
 442:lvgl/src/widgets/lv_arc.c **** 
 443:lvgl/src/widgets/lv_arc.c ****         p.x -= center.x;
 444:lvgl/src/widgets/lv_arc.c ****         p.y -= center.y;
 445:lvgl/src/widgets/lv_arc.c **** 
 446:lvgl/src/widgets/lv_arc.c ****         /*Enter dragging mode if pressed out of the knob*/
 447:lvgl/src/widgets/lv_arc.c ****         if(arc->dragging == false) {
 448:lvgl/src/widgets/lv_arc.c ****             lv_coord_t indic_width = lv_obj_get_style_arc_width(obj, LV_PART_INDICATOR);
 449:lvgl/src/widgets/lv_arc.c ****             r -= indic_width;
 450:lvgl/src/widgets/lv_arc.c ****             /*Add some more sensitive area if there is no advanced git testing.
 451:lvgl/src/widgets/lv_arc.c ****              * (Advanced hit testing is more precise)*/
 452:lvgl/src/widgets/lv_arc.c ****             if(lv_obj_has_flag(obj, LV_OBJ_FLAG_ADV_HITTEST)) {
 453:lvgl/src/widgets/lv_arc.c ****                 r -= indic_width;
 454:lvgl/src/widgets/lv_arc.c **** 
 455:lvgl/src/widgets/lv_arc.c ****             }
 456:lvgl/src/widgets/lv_arc.c ****             else {
 457:lvgl/src/widgets/lv_arc.c ****                 r -= LV_MAX(r / 4, indic_width);
 458:lvgl/src/widgets/lv_arc.c ****             }
 459:lvgl/src/widgets/lv_arc.c ****             if(r < 1) r = 1;
 460:lvgl/src/widgets/lv_arc.c **** 
 461:lvgl/src/widgets/lv_arc.c ****             if(p.x * p.x + p.y * p.y > r * r) {
 462:lvgl/src/widgets/lv_arc.c ****                 arc->dragging = true;
 463:lvgl/src/widgets/lv_arc.c ****                 arc->last_tick = lv_tick_get(); /*Capture timestamp at dragging start*/
 464:lvgl/src/widgets/lv_arc.c ****             }
 465:lvgl/src/widgets/lv_arc.c ****         }
 466:lvgl/src/widgets/lv_arc.c **** 
 467:lvgl/src/widgets/lv_arc.c ****         /*It must be in "dragging" mode to turn the arc*/
 468:lvgl/src/widgets/lv_arc.c ****         if(arc->dragging == false) return;
 469:lvgl/src/widgets/lv_arc.c **** 
 470:lvgl/src/widgets/lv_arc.c ****         /*No angle can be determined if exactly the middle of the arc is being pressed*/
 471:lvgl/src/widgets/lv_arc.c ****         if(p.x == 0 && p.y == 0) return;
 472:lvgl/src/widgets/lv_arc.c **** 
 473:lvgl/src/widgets/lv_arc.c ****         /*Calculate the angle of the pressed point*/
 474:lvgl/src/widgets/lv_arc.c ****         int16_t angle;
 475:lvgl/src/widgets/lv_arc.c ****         int16_t bg_end = arc->bg_angle_end;
 476:lvgl/src/widgets/lv_arc.c ****         if(arc->bg_angle_end < arc->bg_angle_start) {
 477:lvgl/src/widgets/lv_arc.c ****             bg_end = arc->bg_angle_end + 360;
 478:lvgl/src/widgets/lv_arc.c ****         }
 479:lvgl/src/widgets/lv_arc.c **** 
 480:lvgl/src/widgets/lv_arc.c ****         angle = lv_atan2(p.y, p.x);
 481:lvgl/src/widgets/lv_arc.c ****         angle -= arc->rotation;
 482:lvgl/src/widgets/lv_arc.c ****         angle -= arc->bg_angle_start;  /*Make the angle relative to the start angle*/
 483:lvgl/src/widgets/lv_arc.c **** 
 484:lvgl/src/widgets/lv_arc.c ****         /* If we click near the bg_angle_start the angle will be close to 360° instead of an small
 485:lvgl/src/widgets/lv_arc.c ****         if(angle < 0) angle += 360;
 486:lvgl/src/widgets/lv_arc.c **** 
 487:lvgl/src/widgets/lv_arc.c ****         const uint32_t circumference = (uint32_t)((2U * r * 314U) / 100U);  /* Equivalent to: 2r * 
ARM GAS  C:\Users\OSD\AppData\Local\Temp\ccR88enE.s 			page 10


 488:lvgl/src/widgets/lv_arc.c ****         const uint32_t tolerance_deg = (360U * LV_DPX(50U)) / circumference;
 489:lvgl/src/widgets/lv_arc.c ****         const uint32_t min_close_prev = (uint32_t) arc->min_close;
 490:lvgl/src/widgets/lv_arc.c **** 
 491:lvgl/src/widgets/lv_arc.c ****         const bool is_angle_within_bg_bounds = lv_arc_angle_within_bg_bounds(obj, (uint32_t) angle,
 492:lvgl/src/widgets/lv_arc.c ****         if(!is_angle_within_bg_bounds) {
 493:lvgl/src/widgets/lv_arc.c ****             return;
 494:lvgl/src/widgets/lv_arc.c ****         }
 495:lvgl/src/widgets/lv_arc.c **** 
 496:lvgl/src/widgets/lv_arc.c ****         int16_t deg_range = bg_end - arc->bg_angle_start;
 497:lvgl/src/widgets/lv_arc.c ****         int16_t last_angle_rel = arc->last_angle - arc->bg_angle_start;
 498:lvgl/src/widgets/lv_arc.c ****         int16_t delta_angle = angle - last_angle_rel;
 499:lvgl/src/widgets/lv_arc.c **** 
 500:lvgl/src/widgets/lv_arc.c ****         /*Do not allow big jumps (jumps bigger than 280°).
 501:lvgl/src/widgets/lv_arc.c ****          *It's mainly to avoid jumping to the opposite end if the "dead" range between min. and max
 502:lvgl/src/widgets/lv_arc.c ****          *Check which end was closer on the last valid press (arc->min_close) and prefer that end*/
 503:lvgl/src/widgets/lv_arc.c ****         if(LV_ABS(delta_angle) > 280) {
 504:lvgl/src/widgets/lv_arc.c ****             if(arc->min_close) angle = 0;
 505:lvgl/src/widgets/lv_arc.c ****             else angle = deg_range;
 506:lvgl/src/widgets/lv_arc.c ****         }
 507:lvgl/src/widgets/lv_arc.c ****         /* Check if click was outside the background arc start and end angles */
 508:lvgl/src/widgets/lv_arc.c ****         else if(CLICK_OUTSIDE_BG_ANGLES == arc->in_out) {
 509:lvgl/src/widgets/lv_arc.c ****             if(arc->min_close) angle = -deg_range;
 510:lvgl/src/widgets/lv_arc.c ****             else angle = deg_range;
 511:lvgl/src/widgets/lv_arc.c ****         }
 512:lvgl/src/widgets/lv_arc.c ****         else { /* Keep the angle value */ }
 513:lvgl/src/widgets/lv_arc.c **** 
 514:lvgl/src/widgets/lv_arc.c ****         /* Prevent big jumps when the click goes from start to end angle in the invisible
 515:lvgl/src/widgets/lv_arc.c ****          * part of the background arc without being released */
 516:lvgl/src/widgets/lv_arc.c ****         if(((min_close_prev == CLICK_CLOSER_TO_MIN_END) && (arc->min_close == CLICK_CLOSER_TO_MAX_E
 517:lvgl/src/widgets/lv_arc.c ****            && ((CLICK_OUTSIDE_BG_ANGLES == arc->in_out) && (LV_ABS(delta_angle) > 280))) {
 518:lvgl/src/widgets/lv_arc.c ****             angle = 0;
 519:lvgl/src/widgets/lv_arc.c ****         }
 520:lvgl/src/widgets/lv_arc.c ****         else if(((min_close_prev == CLICK_CLOSER_TO_MAX_END) && (arc->min_close == CLICK_CLOSER_TO_
 521:lvgl/src/widgets/lv_arc.c ****                 && (CLICK_OUTSIDE_BG_ANGLES == arc->in_out)) {
 522:lvgl/src/widgets/lv_arc.c ****             angle = deg_range;
 523:lvgl/src/widgets/lv_arc.c ****         }
 524:lvgl/src/widgets/lv_arc.c ****         else { /* Keep the angle value */ }
 525:lvgl/src/widgets/lv_arc.c **** 
 526:lvgl/src/widgets/lv_arc.c ****         /*Calculate the slew rate limited angle based on change rate (degrees/sec)*/
 527:lvgl/src/widgets/lv_arc.c ****         delta_angle = angle - last_angle_rel;
 528:lvgl/src/widgets/lv_arc.c **** 
 529:lvgl/src/widgets/lv_arc.c ****         uint32_t delta_tick = lv_tick_elaps(arc->last_tick);
 530:lvgl/src/widgets/lv_arc.c ****         /* delta_angle_max can never be signed. delta_tick is always signed, same for ch_rate */
 531:lvgl/src/widgets/lv_arc.c ****         const uint16_t delta_angle_max = (arc->chg_rate * delta_tick) / 1000;
 532:lvgl/src/widgets/lv_arc.c **** 
 533:lvgl/src/widgets/lv_arc.c ****         if(delta_angle > delta_angle_max) {
 534:lvgl/src/widgets/lv_arc.c ****             delta_angle = delta_angle_max;
 535:lvgl/src/widgets/lv_arc.c ****         }
 536:lvgl/src/widgets/lv_arc.c ****         else if(delta_angle < -delta_angle_max) {
 537:lvgl/src/widgets/lv_arc.c ****             delta_angle = -delta_angle_max;
 538:lvgl/src/widgets/lv_arc.c ****         }
 539:lvgl/src/widgets/lv_arc.c ****         else { /* Nothing to do */ }
 540:lvgl/src/widgets/lv_arc.c **** 
 541:lvgl/src/widgets/lv_arc.c ****         angle = last_angle_rel + delta_angle; /*Apply the limited angle change*/
 542:lvgl/src/widgets/lv_arc.c **** 
 543:lvgl/src/widgets/lv_arc.c ****         /*Rounding for symmetry*/
 544:lvgl/src/widgets/lv_arc.c ****         int32_t round = ((bg_end - arc->bg_angle_start) * 8) / (arc->max_value - arc->min_value);
ARM GAS  C:\Users\OSD\AppData\Local\Temp\ccR88enE.s 			page 11


 545:lvgl/src/widgets/lv_arc.c ****         round = (round + 4) >> 4;
 546:lvgl/src/widgets/lv_arc.c ****         angle += round;
 547:lvgl/src/widgets/lv_arc.c **** 
 548:lvgl/src/widgets/lv_arc.c ****         angle += arc->bg_angle_start;  /*Make the angle absolute again*/
 549:lvgl/src/widgets/lv_arc.c **** 
 550:lvgl/src/widgets/lv_arc.c ****         /*Set the new value*/
 551:lvgl/src/widgets/lv_arc.c ****         int16_t old_value = arc->value;
 552:lvgl/src/widgets/lv_arc.c ****         int16_t new_value = lv_map(angle, arc->bg_angle_start, bg_end, arc->min_value, arc->max_val
 553:lvgl/src/widgets/lv_arc.c ****         if(new_value != lv_arc_get_value(obj)) {
 554:lvgl/src/widgets/lv_arc.c ****             arc->last_tick = lv_tick_get(); /*Cache timestamp for the next iteration*/
 555:lvgl/src/widgets/lv_arc.c ****             lv_arc_set_value(obj, new_value); /*set_value caches the last_angle for the next iterat
 556:lvgl/src/widgets/lv_arc.c ****             if(new_value != old_value) {
 557:lvgl/src/widgets/lv_arc.c ****                 res = lv_event_send(obj, LV_EVENT_VALUE_CHANGED, NULL);
 558:lvgl/src/widgets/lv_arc.c ****                 if(res != LV_RES_OK) return;
 559:lvgl/src/widgets/lv_arc.c ****             }
 560:lvgl/src/widgets/lv_arc.c ****         }
 561:lvgl/src/widgets/lv_arc.c **** 
 562:lvgl/src/widgets/lv_arc.c ****         /*Don't let the elapsed time become too big while sitting on an end point*/
 563:lvgl/src/widgets/lv_arc.c ****         if(new_value == arc->min_value || new_value == arc->max_value) {
 564:lvgl/src/widgets/lv_arc.c ****             arc->last_tick = lv_tick_get(); /*Cache timestamp for the next iteration*/
 565:lvgl/src/widgets/lv_arc.c ****         }
 566:lvgl/src/widgets/lv_arc.c ****     }
 567:lvgl/src/widgets/lv_arc.c ****     else if(code == LV_EVENT_RELEASED || code == LV_EVENT_PRESS_LOST) {
 568:lvgl/src/widgets/lv_arc.c ****         arc->dragging = false;
 569:lvgl/src/widgets/lv_arc.c **** 
 570:lvgl/src/widgets/lv_arc.c ****         /*Leave edit mode if released. (No need to wait for LONG_PRESS)*/
 571:lvgl/src/widgets/lv_arc.c ****         lv_group_t * g             = lv_obj_get_group(obj);
 572:lvgl/src/widgets/lv_arc.c ****         bool editing               = lv_group_get_editing(g);
 573:lvgl/src/widgets/lv_arc.c ****         lv_indev_type_t indev_type = lv_indev_get_type(lv_indev_get_act());
 574:lvgl/src/widgets/lv_arc.c ****         if(indev_type == LV_INDEV_TYPE_ENCODER) {
 575:lvgl/src/widgets/lv_arc.c ****             if(editing) lv_group_set_editing(g, false);
 576:lvgl/src/widgets/lv_arc.c ****         }
 577:lvgl/src/widgets/lv_arc.c **** 
 578:lvgl/src/widgets/lv_arc.c ****     }
 579:lvgl/src/widgets/lv_arc.c ****     else if(code == LV_EVENT_KEY) {
 580:lvgl/src/widgets/lv_arc.c ****         char c = *((char *)lv_event_get_param(e));
 581:lvgl/src/widgets/lv_arc.c **** 
 582:lvgl/src/widgets/lv_arc.c ****         int16_t old_value = arc->value;
 583:lvgl/src/widgets/lv_arc.c ****         if(c == LV_KEY_RIGHT || c == LV_KEY_UP) {
 584:lvgl/src/widgets/lv_arc.c ****             lv_arc_set_value(obj, lv_arc_get_value(obj) + 1);
 585:lvgl/src/widgets/lv_arc.c ****         }
 586:lvgl/src/widgets/lv_arc.c ****         else if(c == LV_KEY_LEFT || c == LV_KEY_DOWN) {
 587:lvgl/src/widgets/lv_arc.c ****             lv_arc_set_value(obj, lv_arc_get_value(obj) - 1);
 588:lvgl/src/widgets/lv_arc.c ****         }
 589:lvgl/src/widgets/lv_arc.c **** 
 590:lvgl/src/widgets/lv_arc.c ****         if(old_value != arc->value) {
 591:lvgl/src/widgets/lv_arc.c ****             res = lv_event_send(obj, LV_EVENT_VALUE_CHANGED, NULL);
 592:lvgl/src/widgets/lv_arc.c ****             if(res != LV_RES_OK) return;
 593:lvgl/src/widgets/lv_arc.c ****         }
 594:lvgl/src/widgets/lv_arc.c ****     }
 595:lvgl/src/widgets/lv_arc.c ****     else if(code == LV_EVENT_HIT_TEST) {
 596:lvgl/src/widgets/lv_arc.c ****         lv_hit_test_info_t * info = lv_event_get_param(e);
 597:lvgl/src/widgets/lv_arc.c **** 
 598:lvgl/src/widgets/lv_arc.c ****         lv_point_t p;
 599:lvgl/src/widgets/lv_arc.c ****         lv_coord_t r;
 600:lvgl/src/widgets/lv_arc.c ****         get_center(obj, &p, &r);
 601:lvgl/src/widgets/lv_arc.c **** 
ARM GAS  C:\Users\OSD\AppData\Local\Temp\ccR88enE.s 			page 12


 602:lvgl/src/widgets/lv_arc.c ****         lv_coord_t ext_click_area = 0;
 603:lvgl/src/widgets/lv_arc.c ****         if(obj->spec_attr) ext_click_area = obj->spec_attr->ext_click_pad;
 604:lvgl/src/widgets/lv_arc.c **** 
 605:lvgl/src/widgets/lv_arc.c ****         lv_coord_t w = lv_obj_get_style_arc_width(obj, LV_PART_MAIN);
 606:lvgl/src/widgets/lv_arc.c ****         r -= w + ext_click_area;
 607:lvgl/src/widgets/lv_arc.c **** 
 608:lvgl/src/widgets/lv_arc.c ****         lv_area_t a;
 609:lvgl/src/widgets/lv_arc.c ****         /*Invalid if clicked inside*/
 610:lvgl/src/widgets/lv_arc.c ****         lv_area_set(&a, p.x - r, p.y - r, p.x + r, p.y + r);
 611:lvgl/src/widgets/lv_arc.c ****         if(_lv_area_is_point_on(&a, info->point, LV_RADIUS_CIRCLE)) {
 612:lvgl/src/widgets/lv_arc.c ****             info->res = false;
 613:lvgl/src/widgets/lv_arc.c ****             return;
 614:lvgl/src/widgets/lv_arc.c ****         }
 615:lvgl/src/widgets/lv_arc.c **** 
 616:lvgl/src/widgets/lv_arc.c ****         /*Valid if no clicked outside*/
 617:lvgl/src/widgets/lv_arc.c ****         lv_area_increase(&a, w + ext_click_area * 2, w + ext_click_area * 2);
 618:lvgl/src/widgets/lv_arc.c ****         info->res = _lv_area_is_point_on(&a, info->point, LV_RADIUS_CIRCLE);
 619:lvgl/src/widgets/lv_arc.c ****     }
 620:lvgl/src/widgets/lv_arc.c ****     else if(code == LV_EVENT_REFR_EXT_DRAW_SIZE) {
 621:lvgl/src/widgets/lv_arc.c ****         lv_coord_t bg_left = lv_obj_get_style_pad_left(obj, LV_PART_MAIN);
 622:lvgl/src/widgets/lv_arc.c ****         lv_coord_t bg_right = lv_obj_get_style_pad_right(obj, LV_PART_MAIN);
 623:lvgl/src/widgets/lv_arc.c ****         lv_coord_t bg_top = lv_obj_get_style_pad_top(obj, LV_PART_MAIN);
 624:lvgl/src/widgets/lv_arc.c ****         lv_coord_t bg_bottom = lv_obj_get_style_pad_bottom(obj, LV_PART_MAIN);
 625:lvgl/src/widgets/lv_arc.c ****         lv_coord_t bg_pad = LV_MAX4(bg_left, bg_right, bg_top, bg_bottom);
 626:lvgl/src/widgets/lv_arc.c **** 
 627:lvgl/src/widgets/lv_arc.c ****         lv_coord_t knob_left = lv_obj_get_style_pad_left(obj, LV_PART_KNOB);
 628:lvgl/src/widgets/lv_arc.c ****         lv_coord_t knob_right = lv_obj_get_style_pad_right(obj, LV_PART_KNOB);
 629:lvgl/src/widgets/lv_arc.c ****         lv_coord_t knob_top = lv_obj_get_style_pad_top(obj, LV_PART_KNOB);
 630:lvgl/src/widgets/lv_arc.c ****         lv_coord_t knob_bottom = lv_obj_get_style_pad_bottom(obj, LV_PART_KNOB);
 631:lvgl/src/widgets/lv_arc.c ****         lv_coord_t knob_pad = LV_MAX4(knob_left, knob_right, knob_top, knob_bottom) + 2;
 632:lvgl/src/widgets/lv_arc.c **** 
 633:lvgl/src/widgets/lv_arc.c ****         lv_coord_t knob_extra_size = knob_pad - bg_pad;
 634:lvgl/src/widgets/lv_arc.c ****         knob_extra_size += knob_get_extra_size(obj);
 635:lvgl/src/widgets/lv_arc.c **** 
 636:lvgl/src/widgets/lv_arc.c ****         lv_coord_t * s = lv_event_get_param(e);
 637:lvgl/src/widgets/lv_arc.c ****         *s = LV_MAX(*s, knob_extra_size);
 638:lvgl/src/widgets/lv_arc.c ****     }
 639:lvgl/src/widgets/lv_arc.c ****     else if(code == LV_EVENT_DRAW_MAIN) {
 640:lvgl/src/widgets/lv_arc.c ****         lv_arc_draw(e);
 641:lvgl/src/widgets/lv_arc.c ****     }
 642:lvgl/src/widgets/lv_arc.c **** }
 643:lvgl/src/widgets/lv_arc.c **** 
 644:lvgl/src/widgets/lv_arc.c **** static void lv_arc_draw(lv_event_t * e)
 645:lvgl/src/widgets/lv_arc.c **** {
 646:lvgl/src/widgets/lv_arc.c ****     lv_obj_t * obj = lv_event_get_target(e);
 647:lvgl/src/widgets/lv_arc.c ****     lv_arc_t * arc = (lv_arc_t *)obj;
 648:lvgl/src/widgets/lv_arc.c **** 
 649:lvgl/src/widgets/lv_arc.c ****     lv_draw_ctx_t * draw_ctx = lv_event_get_draw_ctx(e);
 650:lvgl/src/widgets/lv_arc.c **** 
 651:lvgl/src/widgets/lv_arc.c ****     lv_point_t center;
 652:lvgl/src/widgets/lv_arc.c ****     lv_coord_t arc_r;
 653:lvgl/src/widgets/lv_arc.c ****     get_center(obj, &center, &arc_r);
 654:lvgl/src/widgets/lv_arc.c **** 
 655:lvgl/src/widgets/lv_arc.c ****     lv_obj_draw_part_dsc_t part_draw_dsc;
 656:lvgl/src/widgets/lv_arc.c ****     lv_obj_draw_dsc_init(&part_draw_dsc, draw_ctx);
 657:lvgl/src/widgets/lv_arc.c **** 
 658:lvgl/src/widgets/lv_arc.c ****     /*Draw the background arc*/
ARM GAS  C:\Users\OSD\AppData\Local\Temp\ccR88enE.s 			page 13


 659:lvgl/src/widgets/lv_arc.c ****     lv_draw_arc_dsc_t arc_dsc;
 660:lvgl/src/widgets/lv_arc.c ****     if(arc_r > 0) {
 661:lvgl/src/widgets/lv_arc.c ****         lv_draw_arc_dsc_init(&arc_dsc);
 662:lvgl/src/widgets/lv_arc.c ****         lv_obj_init_draw_arc_dsc(obj, LV_PART_MAIN, &arc_dsc);
 663:lvgl/src/widgets/lv_arc.c **** 
 664:lvgl/src/widgets/lv_arc.c ****         part_draw_dsc.part = LV_PART_MAIN;
 665:lvgl/src/widgets/lv_arc.c ****         part_draw_dsc.class_p = MY_CLASS;
 666:lvgl/src/widgets/lv_arc.c ****         part_draw_dsc.type = LV_ARC_DRAW_PART_BACKGROUND;
 667:lvgl/src/widgets/lv_arc.c ****         part_draw_dsc.p1 = &center;
 668:lvgl/src/widgets/lv_arc.c ****         part_draw_dsc.radius = arc_r;
 669:lvgl/src/widgets/lv_arc.c ****         part_draw_dsc.arc_dsc = &arc_dsc;
 670:lvgl/src/widgets/lv_arc.c ****         lv_event_send(obj, LV_EVENT_DRAW_PART_BEGIN, &part_draw_dsc);
 671:lvgl/src/widgets/lv_arc.c **** 
 672:lvgl/src/widgets/lv_arc.c ****         lv_draw_arc(draw_ctx, &arc_dsc, &center, part_draw_dsc.radius, arc->bg_angle_start + arc->r
 673:lvgl/src/widgets/lv_arc.c ****                     arc->bg_angle_end + arc->rotation);
 674:lvgl/src/widgets/lv_arc.c **** 
 675:lvgl/src/widgets/lv_arc.c ****         lv_event_send(obj, LV_EVENT_DRAW_PART_END, &part_draw_dsc);
 676:lvgl/src/widgets/lv_arc.c ****     }
 677:lvgl/src/widgets/lv_arc.c **** 
 678:lvgl/src/widgets/lv_arc.c ****     /*Make the indicator arc smaller or larger according to its greatest padding value*/
 679:lvgl/src/widgets/lv_arc.c ****     lv_coord_t left_indic = lv_obj_get_style_pad_left(obj, LV_PART_INDICATOR);
 680:lvgl/src/widgets/lv_arc.c ****     lv_coord_t right_indic = lv_obj_get_style_pad_right(obj, LV_PART_INDICATOR);
 681:lvgl/src/widgets/lv_arc.c ****     lv_coord_t top_indic = lv_obj_get_style_pad_top(obj, LV_PART_INDICATOR);
 682:lvgl/src/widgets/lv_arc.c ****     lv_coord_t bottom_indic = lv_obj_get_style_pad_bottom(obj, LV_PART_INDICATOR);
 683:lvgl/src/widgets/lv_arc.c ****     lv_coord_t indic_r = arc_r - LV_MAX4(left_indic, right_indic, top_indic, bottom_indic);
 684:lvgl/src/widgets/lv_arc.c **** 
 685:lvgl/src/widgets/lv_arc.c ****     if(indic_r > 0) {
 686:lvgl/src/widgets/lv_arc.c ****         lv_draw_arc_dsc_init(&arc_dsc);
 687:lvgl/src/widgets/lv_arc.c ****         lv_obj_init_draw_arc_dsc(obj, LV_PART_INDICATOR, &arc_dsc);
 688:lvgl/src/widgets/lv_arc.c **** 
 689:lvgl/src/widgets/lv_arc.c ****         part_draw_dsc.part = LV_PART_INDICATOR;
 690:lvgl/src/widgets/lv_arc.c ****         part_draw_dsc.class_p = MY_CLASS;
 691:lvgl/src/widgets/lv_arc.c ****         part_draw_dsc.type = LV_ARC_DRAW_PART_FOREGROUND;
 692:lvgl/src/widgets/lv_arc.c ****         part_draw_dsc.p1 = &center;
 693:lvgl/src/widgets/lv_arc.c ****         part_draw_dsc.radius = indic_r;
 694:lvgl/src/widgets/lv_arc.c ****         part_draw_dsc.arc_dsc = &arc_dsc;
 695:lvgl/src/widgets/lv_arc.c ****         lv_event_send(obj, LV_EVENT_DRAW_PART_BEGIN, &part_draw_dsc);
 696:lvgl/src/widgets/lv_arc.c **** 
 697:lvgl/src/widgets/lv_arc.c ****         if(arc_dsc.width > part_draw_dsc.radius) arc_dsc.width = part_draw_dsc.radius;
 698:lvgl/src/widgets/lv_arc.c ****         lv_draw_arc(draw_ctx, &arc_dsc, &center, part_draw_dsc.radius, arc->indic_angle_start + arc
 699:lvgl/src/widgets/lv_arc.c ****                     arc->indic_angle_end + arc->rotation);
 700:lvgl/src/widgets/lv_arc.c **** 
 701:lvgl/src/widgets/lv_arc.c ****         lv_event_send(obj, LV_EVENT_DRAW_PART_END, &part_draw_dsc);
 702:lvgl/src/widgets/lv_arc.c ****     }
 703:lvgl/src/widgets/lv_arc.c **** 
 704:lvgl/src/widgets/lv_arc.c ****     lv_area_t knob_area;
 705:lvgl/src/widgets/lv_arc.c ****     get_knob_area(obj, &center, arc_r, &knob_area);
 706:lvgl/src/widgets/lv_arc.c **** 
 707:lvgl/src/widgets/lv_arc.c ****     lv_draw_rect_dsc_t knob_rect_dsc;
 708:lvgl/src/widgets/lv_arc.c ****     lv_draw_rect_dsc_init(&knob_rect_dsc);
 709:lvgl/src/widgets/lv_arc.c ****     lv_obj_init_draw_rect_dsc(obj, LV_PART_KNOB, &knob_rect_dsc);
 710:lvgl/src/widgets/lv_arc.c **** 
 711:lvgl/src/widgets/lv_arc.c ****     part_draw_dsc.part = LV_PART_KNOB;
 712:lvgl/src/widgets/lv_arc.c ****     part_draw_dsc.class_p = MY_CLASS;
 713:lvgl/src/widgets/lv_arc.c ****     part_draw_dsc.type = LV_ARC_DRAW_PART_KNOB;
 714:lvgl/src/widgets/lv_arc.c ****     part_draw_dsc.draw_area = &knob_area;
 715:lvgl/src/widgets/lv_arc.c ****     part_draw_dsc.rect_dsc = &knob_rect_dsc;
ARM GAS  C:\Users\OSD\AppData\Local\Temp\ccR88enE.s 			page 14


 716:lvgl/src/widgets/lv_arc.c ****     lv_event_send(obj, LV_EVENT_DRAW_PART_BEGIN, &part_draw_dsc);
 717:lvgl/src/widgets/lv_arc.c **** 
 718:lvgl/src/widgets/lv_arc.c ****     lv_draw_rect(draw_ctx, &knob_rect_dsc, &knob_area);
 719:lvgl/src/widgets/lv_arc.c **** 
 720:lvgl/src/widgets/lv_arc.c ****     lv_event_send(obj, LV_EVENT_DRAW_PART_END, &part_draw_dsc);
 721:lvgl/src/widgets/lv_arc.c **** }
 722:lvgl/src/widgets/lv_arc.c **** 
 723:lvgl/src/widgets/lv_arc.c **** static void inv_arc_area(lv_obj_t * obj, uint16_t start_angle, uint16_t end_angle, lv_part_t part)
 724:lvgl/src/widgets/lv_arc.c **** {
 725:lvgl/src/widgets/lv_arc.c ****     LV_ASSERT_OBJ(obj, MY_CLASS);
 726:lvgl/src/widgets/lv_arc.c **** 
 727:lvgl/src/widgets/lv_arc.c ****     /*Skip this complicated invalidation if the arc is not visible*/
 728:lvgl/src/widgets/lv_arc.c ****     if(lv_obj_is_visible(obj) == false) return;
 729:lvgl/src/widgets/lv_arc.c **** 
 730:lvgl/src/widgets/lv_arc.c ****     lv_arc_t * arc = (lv_arc_t *)obj;
 731:lvgl/src/widgets/lv_arc.c **** 
 732:lvgl/src/widgets/lv_arc.c ****     if(start_angle == end_angle) return;
 733:lvgl/src/widgets/lv_arc.c **** 
 734:lvgl/src/widgets/lv_arc.c ****     if(start_angle > 360) start_angle -= 360;
 735:lvgl/src/widgets/lv_arc.c ****     if(end_angle > 360) end_angle -= 360;
 736:lvgl/src/widgets/lv_arc.c **** 
 737:lvgl/src/widgets/lv_arc.c ****     start_angle += arc->rotation;
 738:lvgl/src/widgets/lv_arc.c ****     end_angle += arc->rotation;
 739:lvgl/src/widgets/lv_arc.c **** 
 740:lvgl/src/widgets/lv_arc.c ****     if(start_angle > 360) start_angle -= 360;
 741:lvgl/src/widgets/lv_arc.c ****     if(end_angle > 360) end_angle -= 360;
 742:lvgl/src/widgets/lv_arc.c **** 
 743:lvgl/src/widgets/lv_arc.c ****     lv_coord_t r;
 744:lvgl/src/widgets/lv_arc.c ****     lv_point_t c;
 745:lvgl/src/widgets/lv_arc.c ****     get_center(obj, &c, &r);
 746:lvgl/src/widgets/lv_arc.c **** 
 747:lvgl/src/widgets/lv_arc.c ****     lv_coord_t w = lv_obj_get_style_arc_width(obj, part);
 748:lvgl/src/widgets/lv_arc.c ****     lv_coord_t rounded = lv_obj_get_style_arc_rounded(obj, part);
 749:lvgl/src/widgets/lv_arc.c **** 
 750:lvgl/src/widgets/lv_arc.c ****     lv_area_t inv_area;
 751:lvgl/src/widgets/lv_arc.c ****     lv_draw_arc_get_area(c.x, c.y, r, start_angle, end_angle, w, rounded, &inv_area);
 752:lvgl/src/widgets/lv_arc.c **** 
 753:lvgl/src/widgets/lv_arc.c ****     lv_obj_invalidate_area(obj, &inv_area);
 754:lvgl/src/widgets/lv_arc.c **** }
 755:lvgl/src/widgets/lv_arc.c **** 
 756:lvgl/src/widgets/lv_arc.c **** static void inv_knob_area(lv_obj_t * obj)
 757:lvgl/src/widgets/lv_arc.c **** {
 758:lvgl/src/widgets/lv_arc.c ****     lv_point_t c;
 759:lvgl/src/widgets/lv_arc.c ****     lv_coord_t r;
 760:lvgl/src/widgets/lv_arc.c ****     get_center(obj, &c, &r);
 761:lvgl/src/widgets/lv_arc.c **** 
 762:lvgl/src/widgets/lv_arc.c ****     lv_area_t a;
 763:lvgl/src/widgets/lv_arc.c ****     get_knob_area(obj, &c, r, &a);
 764:lvgl/src/widgets/lv_arc.c **** 
 765:lvgl/src/widgets/lv_arc.c ****     lv_coord_t knob_extra_size = knob_get_extra_size(obj);
 766:lvgl/src/widgets/lv_arc.c **** 
 767:lvgl/src/widgets/lv_arc.c ****     if(knob_extra_size > 0) {
 768:lvgl/src/widgets/lv_arc.c ****         lv_area_increase(&a, knob_extra_size, knob_extra_size);
 769:lvgl/src/widgets/lv_arc.c ****     }
 770:lvgl/src/widgets/lv_arc.c **** 
 771:lvgl/src/widgets/lv_arc.c ****     lv_obj_invalidate_area(obj, &a);
 772:lvgl/src/widgets/lv_arc.c **** }
ARM GAS  C:\Users\OSD\AppData\Local\Temp\ccR88enE.s 			page 15


 773:lvgl/src/widgets/lv_arc.c **** 
 774:lvgl/src/widgets/lv_arc.c **** static void get_center(const lv_obj_t * obj, lv_point_t * center, lv_coord_t * arc_r)
 775:lvgl/src/widgets/lv_arc.c **** {
 776:lvgl/src/widgets/lv_arc.c ****     lv_coord_t left_bg = lv_obj_get_style_pad_left(obj, LV_PART_MAIN);
 777:lvgl/src/widgets/lv_arc.c ****     lv_coord_t right_bg = lv_obj_get_style_pad_right(obj, LV_PART_MAIN);
 778:lvgl/src/widgets/lv_arc.c ****     lv_coord_t top_bg = lv_obj_get_style_pad_top(obj, LV_PART_MAIN);
 779:lvgl/src/widgets/lv_arc.c ****     lv_coord_t bottom_bg = lv_obj_get_style_pad_bottom(obj, LV_PART_MAIN);
 780:lvgl/src/widgets/lv_arc.c **** 
 781:lvgl/src/widgets/lv_arc.c ****     lv_coord_t r = (LV_MIN(lv_obj_get_width(obj) - left_bg - right_bg,
 782:lvgl/src/widgets/lv_arc.c ****                            lv_obj_get_height(obj) - top_bg - bottom_bg)) / 2;
 783:lvgl/src/widgets/lv_arc.c **** 
 784:lvgl/src/widgets/lv_arc.c ****     center->x = obj->coords.x1 + r + left_bg;
 785:lvgl/src/widgets/lv_arc.c ****     center->y = obj->coords.y1 + r + top_bg;
 786:lvgl/src/widgets/lv_arc.c **** 
 787:lvgl/src/widgets/lv_arc.c ****     if(arc_r) *arc_r = r;
 788:lvgl/src/widgets/lv_arc.c **** }
 789:lvgl/src/widgets/lv_arc.c **** 
 790:lvgl/src/widgets/lv_arc.c **** static lv_coord_t get_angle(const lv_obj_t * obj)
 791:lvgl/src/widgets/lv_arc.c **** {
  28              		.loc 1 791 1 view -0
  29              		.cfi_startproc
  30              		@ args = 0, pretend = 0, frame = 0
  31              		@ frame_needed = 0, uses_anonymous_args = 0
 792:lvgl/src/widgets/lv_arc.c ****     lv_arc_t * arc = (lv_arc_t *)obj;
  32              		.loc 1 792 5 view .LVU1
 793:lvgl/src/widgets/lv_arc.c ****     uint16_t angle = arc->rotation;
  33              		.loc 1 793 5 view .LVU2
  34              		.loc 1 793 14 is_stmt 0 view .LVU3
  35 0000 828C     		ldrh	r2, [r0, #36]
  36              	.LVL1:
 794:lvgl/src/widgets/lv_arc.c ****     if(arc->type == LV_ARC_MODE_NORMAL) {
  37              		.loc 1 794 5 is_stmt 1 view .LVU4
  38              		.loc 1 794 18 is_stmt 0 view .LVU5
  39 0002 90F83430 		ldrb	r3, [r0, #52]	@ zero_extendqisi2
  40              		.loc 1 794 7 view .LVU6
  41 0006 13F00603 		ands	r3, r3, #6
  42 000a 04D1     		bne	.L2
 795:lvgl/src/widgets/lv_arc.c ****         angle += arc->indic_angle_end;
  43              		.loc 1 795 9 is_stmt 1 view .LVU7
  44              		.loc 1 795 21 is_stmt 0 view .LVU8
  45 000c 038D     		ldrh	r3, [r0, #40]
  46              		.loc 1 795 15 view .LVU9
  47 000e 1A44     		add	r2, r2, r3
  48              	.LVL2:
  49              		.loc 1 795 15 view .LVU10
  50 0010 92B2     		uxth	r2, r2
  51              	.LVL3:
  52              	.L11:
 796:lvgl/src/widgets/lv_arc.c ****     }
 797:lvgl/src/widgets/lv_arc.c ****     else if(arc->type == LV_ARC_MODE_REVERSE) {
 798:lvgl/src/widgets/lv_arc.c ****         angle += arc->indic_angle_start;
 799:lvgl/src/widgets/lv_arc.c ****     }
 800:lvgl/src/widgets/lv_arc.c ****     else if(arc->type == LV_ARC_MODE_SYMMETRICAL) {
 801:lvgl/src/widgets/lv_arc.c ****         int16_t bg_end = arc->bg_angle_end;
 802:lvgl/src/widgets/lv_arc.c ****         if(arc->bg_angle_end < arc->bg_angle_start) bg_end = arc->bg_angle_end + 360;
 803:lvgl/src/widgets/lv_arc.c ****         int16_t indic_end = arc->indic_angle_end;
 804:lvgl/src/widgets/lv_arc.c ****         if(arc->indic_angle_end < arc->indic_angle_start) indic_end = arc->indic_angle_end + 360;
ARM GAS  C:\Users\OSD\AppData\Local\Temp\ccR88enE.s 			page 16


 805:lvgl/src/widgets/lv_arc.c **** 
 806:lvgl/src/widgets/lv_arc.c ****         int32_t angle_midpoint = (int32_t)(arc->bg_angle_start + bg_end) / 2;
 807:lvgl/src/widgets/lv_arc.c ****         if(arc->indic_angle_start < angle_midpoint) angle += arc->indic_angle_start;
 808:lvgl/src/widgets/lv_arc.c ****         else if(indic_end > angle_midpoint) angle += arc->indic_angle_end;
 809:lvgl/src/widgets/lv_arc.c ****         else angle += angle_midpoint;
 810:lvgl/src/widgets/lv_arc.c ****     }
 811:lvgl/src/widgets/lv_arc.c **** 
 812:lvgl/src/widgets/lv_arc.c ****     return angle;
  53              		.loc 1 812 5 is_stmt 1 view .LVU11
 813:lvgl/src/widgets/lv_arc.c **** }
  54              		.loc 1 813 1 is_stmt 0 view .LVU12
  55 0012 10B2     		sxth	r0, r2
  56              	.LVL4:
  57              		.loc 1 813 1 view .LVU13
  58 0014 7047     		bx	lr
  59              	.LVL5:
  60              	.L2:
 797:lvgl/src/widgets/lv_arc.c ****         angle += arc->indic_angle_start;
  61              		.loc 1 797 10 is_stmt 1 view .LVU14
 797:lvgl/src/widgets/lv_arc.c ****         angle += arc->indic_angle_start;
  62              		.loc 1 797 12 is_stmt 0 view .LVU15
  63 0016 042B     		cmp	r3, #4
  64 0018 21D0     		beq	.L14
 800:lvgl/src/widgets/lv_arc.c ****         int16_t bg_end = arc->bg_angle_end;
  65              		.loc 1 800 10 is_stmt 1 view .LVU16
 800:lvgl/src/widgets/lv_arc.c ****         int16_t bg_end = arc->bg_angle_end;
  66              		.loc 1 800 12 is_stmt 0 view .LVU17
  67 001a 022B     		cmp	r3, #2
  68 001c F9D1     		bne	.L11
 791:lvgl/src/widgets/lv_arc.c ****     lv_arc_t * arc = (lv_arc_t *)obj;
  69              		.loc 1 791 1 view .LVU18
  70 001e 10B5     		push	{r4, lr}
  71              		.cfi_def_cfa_offset 8
  72              		.cfi_offset 4, -8
  73              		.cfi_offset 14, -4
  74              	.LBB82:
 801:lvgl/src/widgets/lv_arc.c ****         if(arc->bg_angle_end < arc->bg_angle_start) bg_end = arc->bg_angle_end + 360;
  75              		.loc 1 801 9 is_stmt 1 view .LVU19
 801:lvgl/src/widgets/lv_arc.c ****         if(arc->bg_angle_end < arc->bg_angle_start) bg_end = arc->bg_angle_end + 360;
  76              		.loc 1 801 29 is_stmt 0 view .LVU20
  77 0020 818D     		ldrh	r1, [r0, #44]
 801:lvgl/src/widgets/lv_arc.c ****         if(arc->bg_angle_end < arc->bg_angle_start) bg_end = arc->bg_angle_end + 360;
  78              		.loc 1 801 17 view .LVU21
  79 0022 B0F92CC0 		ldrsh	ip, [r0, #44]
  80              	.LVL6:
 802:lvgl/src/widgets/lv_arc.c ****         int16_t indic_end = arc->indic_angle_end;
  81              		.loc 1 802 9 is_stmt 1 view .LVU22
 802:lvgl/src/widgets/lv_arc.c ****         int16_t indic_end = arc->indic_angle_end;
  82              		.loc 1 802 35 is_stmt 0 view .LVU23
  83 0026 438D     		ldrh	r3, [r0, #42]
 802:lvgl/src/widgets/lv_arc.c ****         int16_t indic_end = arc->indic_angle_end;
  84              		.loc 1 802 11 view .LVU24
  85 0028 9942     		cmp	r1, r3
  86 002a 03D2     		bcs	.L5
 802:lvgl/src/widgets/lv_arc.c ****         int16_t indic_end = arc->indic_angle_end;
  87              		.loc 1 802 53 is_stmt 1 discriminator 1 view .LVU25
 802:lvgl/src/widgets/lv_arc.c ****         int16_t indic_end = arc->indic_angle_end;
ARM GAS  C:\Users\OSD\AppData\Local\Temp\ccR88enE.s 			page 17


  88              		.loc 1 802 80 is_stmt 0 discriminator 1 view .LVU26
  89 002c 01F5B471 		add	r1, r1, #360
 802:lvgl/src/widgets/lv_arc.c ****         int16_t indic_end = arc->indic_angle_end;
  90              		.loc 1 802 60 discriminator 1 view .LVU27
  91 0030 0FFA81FC 		sxth	ip, r1
  92              	.LVL7:
  93              	.L5:
 803:lvgl/src/widgets/lv_arc.c ****         if(arc->indic_angle_end < arc->indic_angle_start) indic_end = arc->indic_angle_end + 360;
  94              		.loc 1 803 9 is_stmt 1 view .LVU28
 803:lvgl/src/widgets/lv_arc.c ****         if(arc->indic_angle_end < arc->indic_angle_start) indic_end = arc->indic_angle_end + 360;
  95              		.loc 1 803 32 is_stmt 0 view .LVU29
  96 0034 B0F828E0 		ldrh	lr, [r0, #40]
 803:lvgl/src/widgets/lv_arc.c ****         if(arc->indic_angle_end < arc->indic_angle_start) indic_end = arc->indic_angle_end + 360;
  97              		.loc 1 803 17 view .LVU30
  98 0038 B0F92840 		ldrsh	r4, [r0, #40]
  99              	.LVL8:
 804:lvgl/src/widgets/lv_arc.c **** 
 100              		.loc 1 804 9 is_stmt 1 view .LVU31
 804:lvgl/src/widgets/lv_arc.c **** 
 101              		.loc 1 804 38 is_stmt 0 view .LVU32
 102 003c C18C     		ldrh	r1, [r0, #38]
 804:lvgl/src/widgets/lv_arc.c **** 
 103              		.loc 1 804 11 view .LVU33
 104 003e 8E45     		cmp	lr, r1
 105 0040 02D2     		bcs	.L6
 804:lvgl/src/widgets/lv_arc.c **** 
 106              		.loc 1 804 59 is_stmt 1 discriminator 1 view .LVU34
 804:lvgl/src/widgets/lv_arc.c **** 
 107              		.loc 1 804 92 is_stmt 0 discriminator 1 view .LVU35
 108 0042 0EF5B474 		add	r4, lr, #360
 109              	.LVL9:
 804:lvgl/src/widgets/lv_arc.c **** 
 110              		.loc 1 804 69 discriminator 1 view .LVU36
 111 0046 24B2     		sxth	r4, r4
 112              	.LVL10:
 113              	.L6:
 806:lvgl/src/widgets/lv_arc.c ****         if(arc->indic_angle_start < angle_midpoint) angle += arc->indic_angle_start;
 114              		.loc 1 806 9 is_stmt 1 view .LVU37
 806:lvgl/src/widgets/lv_arc.c ****         if(arc->indic_angle_start < angle_midpoint) angle += arc->indic_angle_start;
 115              		.loc 1 806 17 is_stmt 0 view .LVU38
 116 0048 13EB0C03 		adds	r3, r3, ip
 117 004c 0BD4     		bmi	.L15
 118              	.L7:
 806:lvgl/src/widgets/lv_arc.c ****         if(arc->indic_angle_start < angle_midpoint) angle += arc->indic_angle_start;
 119              		.loc 1 806 17 view .LVU39
 120 004e 5810     		asrs	r0, r3, #1
 121              	.LVL11:
 807:lvgl/src/widgets/lv_arc.c ****         else if(indic_end > angle_midpoint) angle += arc->indic_angle_end;
 122              		.loc 1 807 9 is_stmt 1 view .LVU40
 807:lvgl/src/widgets/lv_arc.c ****         else if(indic_end > angle_midpoint) angle += arc->indic_angle_end;
 123              		.loc 1 807 11 is_stmt 0 view .LVU41
 124 0050 B1EB630F 		cmp	r1, r3, asr #1
 125 0054 09DA     		bge	.L8
 807:lvgl/src/widgets/lv_arc.c ****         else if(indic_end > angle_midpoint) angle += arc->indic_angle_end;
 126              		.loc 1 807 53 is_stmt 1 discriminator 1 view .LVU42
 807:lvgl/src/widgets/lv_arc.c ****         else if(indic_end > angle_midpoint) angle += arc->indic_angle_end;
 127              		.loc 1 807 59 is_stmt 0 discriminator 1 view .LVU43
ARM GAS  C:\Users\OSD\AppData\Local\Temp\ccR88enE.s 			page 18


 128 0056 0A44     		add	r2, r2, r1
 129              	.LVL12:
 807:lvgl/src/widgets/lv_arc.c ****         else if(indic_end > angle_midpoint) angle += arc->indic_angle_end;
 130              		.loc 1 807 59 discriminator 1 view .LVU44
 131 0058 92B2     		uxth	r2, r2
 132              	.LVL13:
 133              	.L3:
 807:lvgl/src/widgets/lv_arc.c ****         else if(indic_end > angle_midpoint) angle += arc->indic_angle_end;
 134              		.loc 1 807 59 discriminator 1 view .LVU45
 135              	.LBE82:
 812:lvgl/src/widgets/lv_arc.c **** }
 136              		.loc 1 812 5 is_stmt 1 view .LVU46
 137              		.loc 1 813 1 is_stmt 0 view .LVU47
 138 005a 10B2     		sxth	r0, r2
 139              	.LVL14:
 140              		.loc 1 813 1 view .LVU48
 141 005c 10BD     		pop	{r4, pc}
 142              	.LVL15:
 143              	.L14:
 144              		.cfi_def_cfa_offset 0
 145              		.cfi_restore 4
 146              		.cfi_restore 14
 798:lvgl/src/widgets/lv_arc.c ****     }
 147              		.loc 1 798 9 is_stmt 1 view .LVU49
 798:lvgl/src/widgets/lv_arc.c ****     }
 148              		.loc 1 798 21 is_stmt 0 view .LVU50
 149 005e C38C     		ldrh	r3, [r0, #38]
 798:lvgl/src/widgets/lv_arc.c ****     }
 150              		.loc 1 798 15 view .LVU51
 151 0060 1A44     		add	r2, r2, r3
 152              	.LVL16:
 798:lvgl/src/widgets/lv_arc.c ****     }
 153              		.loc 1 798 15 view .LVU52
 154 0062 92B2     		uxth	r2, r2
 155              	.LVL17:
 798:lvgl/src/widgets/lv_arc.c ****     }
 156              		.loc 1 798 15 view .LVU53
 157 0064 D5E7     		b	.L11
 158              	.LVL18:
 159              	.L15:
 160              		.cfi_def_cfa_offset 8
 161              		.cfi_offset 4, -8
 162              		.cfi_offset 14, -4
 163              	.LBB83:
 806:lvgl/src/widgets/lv_arc.c ****         if(arc->indic_angle_start < angle_midpoint) angle += arc->indic_angle_start;
 164              		.loc 1 806 17 view .LVU54
 165 0066 0133     		adds	r3, r3, #1
 166 0068 F1E7     		b	.L7
 167              	.LVL19:
 168              	.L8:
 808:lvgl/src/widgets/lv_arc.c ****         else angle += angle_midpoint;
 169              		.loc 1 808 14 is_stmt 1 view .LVU55
 808:lvgl/src/widgets/lv_arc.c ****         else angle += angle_midpoint;
 170              		.loc 1 808 16 is_stmt 0 view .LVU56
 171 006a 8442     		cmp	r4, r0
 172 006c 02DD     		ble	.L9
 808:lvgl/src/widgets/lv_arc.c ****         else angle += angle_midpoint;
ARM GAS  C:\Users\OSD\AppData\Local\Temp\ccR88enE.s 			page 19


 173              		.loc 1 808 45 is_stmt 1 discriminator 1 view .LVU57
 808:lvgl/src/widgets/lv_arc.c ****         else angle += angle_midpoint;
 174              		.loc 1 808 51 is_stmt 0 discriminator 1 view .LVU58
 175 006e 7244     		add	r2, r2, lr
 176              	.LVL20:
 808:lvgl/src/widgets/lv_arc.c ****         else angle += angle_midpoint;
 177              		.loc 1 808 51 discriminator 1 view .LVU59
 178 0070 92B2     		uxth	r2, r2
 179              	.LVL21:
 808:lvgl/src/widgets/lv_arc.c ****         else angle += angle_midpoint;
 180              		.loc 1 808 51 discriminator 1 view .LVU60
 181 0072 F2E7     		b	.L3
 182              	.L9:
 809:lvgl/src/widgets/lv_arc.c ****     }
 183              		.loc 1 809 14 is_stmt 1 view .LVU61
 809:lvgl/src/widgets/lv_arc.c ****     }
 184              		.loc 1 809 20 is_stmt 0 view .LVU62
 185 0074 0244     		add	r2, r2, r0
 186              	.LVL22:
 809:lvgl/src/widgets/lv_arc.c ****     }
 187              		.loc 1 809 20 view .LVU63
 188 0076 92B2     		uxth	r2, r2
 189              	.LVL23:
 809:lvgl/src/widgets/lv_arc.c ****     }
 190              		.loc 1 809 20 view .LVU64
 191 0078 EFE7     		b	.L3
 192              	.LBE83:
 193              		.cfi_endproc
 194              	.LFE189:
 196              		.section	.text.lv_arc_angle_within_bg_bounds,"ax",%progbits
 197              		.align	1
 198              		.syntax unified
 199              		.thumb
 200              		.thumb_func
 202              	lv_arc_angle_within_bg_bounds:
 203              	.LVL24:
 204              	.LFB193:
 814:lvgl/src/widgets/lv_arc.c **** 
 815:lvgl/src/widgets/lv_arc.c **** static void get_knob_area(lv_obj_t * obj, const lv_point_t * center, lv_coord_t r, lv_area_t * knob
 816:lvgl/src/widgets/lv_arc.c **** {
 817:lvgl/src/widgets/lv_arc.c ****     lv_coord_t indic_width = lv_obj_get_style_arc_width(obj, LV_PART_INDICATOR);
 818:lvgl/src/widgets/lv_arc.c ****     lv_coord_t indic_width_half = indic_width / 2;
 819:lvgl/src/widgets/lv_arc.c ****     r -= indic_width_half;
 820:lvgl/src/widgets/lv_arc.c **** 
 821:lvgl/src/widgets/lv_arc.c ****     lv_coord_t angle = get_angle(obj);
 822:lvgl/src/widgets/lv_arc.c ****     lv_coord_t knob_x = (r * lv_trigo_sin(angle + 90)) >> LV_TRIGO_SHIFT;
 823:lvgl/src/widgets/lv_arc.c ****     lv_coord_t knob_y = (r * lv_trigo_sin(angle)) >> LV_TRIGO_SHIFT;
 824:lvgl/src/widgets/lv_arc.c **** 
 825:lvgl/src/widgets/lv_arc.c ****     lv_coord_t left_knob = lv_obj_get_style_pad_left(obj, LV_PART_KNOB);
 826:lvgl/src/widgets/lv_arc.c ****     lv_coord_t right_knob = lv_obj_get_style_pad_right(obj, LV_PART_KNOB);
 827:lvgl/src/widgets/lv_arc.c ****     lv_coord_t top_knob = lv_obj_get_style_pad_top(obj, LV_PART_KNOB);
 828:lvgl/src/widgets/lv_arc.c ****     lv_coord_t bottom_knob = lv_obj_get_style_pad_bottom(obj, LV_PART_KNOB);
 829:lvgl/src/widgets/lv_arc.c **** 
 830:lvgl/src/widgets/lv_arc.c ****     knob_area->x1 = center->x + knob_x - left_knob - indic_width_half;
 831:lvgl/src/widgets/lv_arc.c ****     knob_area->x2 = center->x + knob_x + right_knob + indic_width_half;
 832:lvgl/src/widgets/lv_arc.c ****     knob_area->y1 = center->y + knob_y - top_knob - indic_width_half;
 833:lvgl/src/widgets/lv_arc.c ****     knob_area->y2 = center->y + knob_y + bottom_knob + indic_width_half;
ARM GAS  C:\Users\OSD\AppData\Local\Temp\ccR88enE.s 			page 20


 834:lvgl/src/widgets/lv_arc.c **** }
 835:lvgl/src/widgets/lv_arc.c **** 
 836:lvgl/src/widgets/lv_arc.c **** /**
 837:lvgl/src/widgets/lv_arc.c ****  * Used internally to update arc angles after a value change
 838:lvgl/src/widgets/lv_arc.c ****  * @param arc pointer to an arc object
 839:lvgl/src/widgets/lv_arc.c ****  */
 840:lvgl/src/widgets/lv_arc.c **** static void value_update(lv_obj_t * obj)
 841:lvgl/src/widgets/lv_arc.c **** {
 842:lvgl/src/widgets/lv_arc.c ****     LV_ASSERT_OBJ(obj, MY_CLASS);
 843:lvgl/src/widgets/lv_arc.c ****     lv_arc_t * arc = (lv_arc_t *)obj;
 844:lvgl/src/widgets/lv_arc.c **** 
 845:lvgl/src/widgets/lv_arc.c ****     /*If the value is still not set to any value do not update*/
 846:lvgl/src/widgets/lv_arc.c ****     if(arc->value == VALUE_UNSET) return;
 847:lvgl/src/widgets/lv_arc.c **** 
 848:lvgl/src/widgets/lv_arc.c ****     int16_t bg_midpoint, range_midpoint, bg_end = arc->bg_angle_end;
 849:lvgl/src/widgets/lv_arc.c ****     if(arc->bg_angle_end < arc->bg_angle_start) bg_end = arc->bg_angle_end + 360;
 850:lvgl/src/widgets/lv_arc.c **** 
 851:lvgl/src/widgets/lv_arc.c ****     int16_t angle;
 852:lvgl/src/widgets/lv_arc.c ****     switch(arc->type) {
 853:lvgl/src/widgets/lv_arc.c ****         case LV_ARC_MODE_SYMMETRICAL:
 854:lvgl/src/widgets/lv_arc.c ****             bg_midpoint = (arc->bg_angle_start + bg_end) / 2;
 855:lvgl/src/widgets/lv_arc.c ****             range_midpoint = (int32_t)(arc->min_value + arc->max_value) / 2;
 856:lvgl/src/widgets/lv_arc.c **** 
 857:lvgl/src/widgets/lv_arc.c ****             if(arc->value < range_midpoint) {
 858:lvgl/src/widgets/lv_arc.c ****                 angle = lv_map(arc->value, arc->min_value, range_midpoint, arc->bg_angle_start, bg_
 859:lvgl/src/widgets/lv_arc.c ****                 lv_arc_set_start_angle(obj, angle);
 860:lvgl/src/widgets/lv_arc.c ****                 lv_arc_set_end_angle(obj, bg_midpoint);
 861:lvgl/src/widgets/lv_arc.c ****             }
 862:lvgl/src/widgets/lv_arc.c ****             else {
 863:lvgl/src/widgets/lv_arc.c ****                 angle = lv_map(arc->value, range_midpoint, arc->max_value, bg_midpoint, bg_end);
 864:lvgl/src/widgets/lv_arc.c ****                 lv_arc_set_start_angle(obj, bg_midpoint);
 865:lvgl/src/widgets/lv_arc.c ****                 lv_arc_set_end_angle(obj, angle);
 866:lvgl/src/widgets/lv_arc.c ****             }
 867:lvgl/src/widgets/lv_arc.c ****             break;
 868:lvgl/src/widgets/lv_arc.c ****         case LV_ARC_MODE_REVERSE:
 869:lvgl/src/widgets/lv_arc.c ****             angle = lv_map(arc->value, arc->min_value, arc->max_value, bg_end, arc->bg_angle_start)
 870:lvgl/src/widgets/lv_arc.c ****             lv_arc_set_angles(obj, angle, arc->bg_angle_end);
 871:lvgl/src/widgets/lv_arc.c ****             break;
 872:lvgl/src/widgets/lv_arc.c ****         case LV_ARC_MODE_NORMAL:
 873:lvgl/src/widgets/lv_arc.c ****             angle = lv_map(arc->value, arc->min_value, arc->max_value, arc->bg_angle_start, bg_end)
 874:lvgl/src/widgets/lv_arc.c ****             lv_arc_set_angles(obj, arc->bg_angle_start, angle);
 875:lvgl/src/widgets/lv_arc.c **** 
 876:lvgl/src/widgets/lv_arc.c ****             break;
 877:lvgl/src/widgets/lv_arc.c ****         default:
 878:lvgl/src/widgets/lv_arc.c ****             LV_LOG_WARN("Invalid mode: %d", arc->type);
 879:lvgl/src/widgets/lv_arc.c ****             return;
 880:lvgl/src/widgets/lv_arc.c ****     }
 881:lvgl/src/widgets/lv_arc.c ****     arc->last_angle = angle; /*Cache angle for slew rate limiting*/
 882:lvgl/src/widgets/lv_arc.c **** }
 883:lvgl/src/widgets/lv_arc.c **** 
 884:lvgl/src/widgets/lv_arc.c **** static lv_coord_t knob_get_extra_size(lv_obj_t * obj)
 885:lvgl/src/widgets/lv_arc.c **** {
 886:lvgl/src/widgets/lv_arc.c ****     lv_coord_t knob_shadow_size = 0;
 887:lvgl/src/widgets/lv_arc.c ****     knob_shadow_size += lv_obj_get_style_shadow_width(obj, LV_PART_KNOB);
 888:lvgl/src/widgets/lv_arc.c ****     knob_shadow_size += lv_obj_get_style_shadow_spread(obj, LV_PART_KNOB);
 889:lvgl/src/widgets/lv_arc.c ****     knob_shadow_size += LV_ABS(lv_obj_get_style_shadow_ofs_x(obj, LV_PART_KNOB));
 890:lvgl/src/widgets/lv_arc.c ****     knob_shadow_size += LV_ABS(lv_obj_get_style_shadow_ofs_y(obj, LV_PART_KNOB));
ARM GAS  C:\Users\OSD\AppData\Local\Temp\ccR88enE.s 			page 21


 891:lvgl/src/widgets/lv_arc.c **** 
 892:lvgl/src/widgets/lv_arc.c ****     lv_coord_t knob_outline_size = 0;
 893:lvgl/src/widgets/lv_arc.c ****     knob_outline_size += lv_obj_get_style_outline_width(obj, LV_PART_KNOB);
 894:lvgl/src/widgets/lv_arc.c ****     knob_outline_size += lv_obj_get_style_outline_pad(obj, LV_PART_KNOB);
 895:lvgl/src/widgets/lv_arc.c **** 
 896:lvgl/src/widgets/lv_arc.c ****     return LV_MAX(knob_shadow_size, knob_outline_size);
 897:lvgl/src/widgets/lv_arc.c **** }
 898:lvgl/src/widgets/lv_arc.c **** 
 899:lvgl/src/widgets/lv_arc.c **** /**
 900:lvgl/src/widgets/lv_arc.c ****  * Check if angle is within arc background bounds
 901:lvgl/src/widgets/lv_arc.c ****  *
 902:lvgl/src/widgets/lv_arc.c ****  * In order to avoid unexpected value update of the arc value when the user clicks
 903:lvgl/src/widgets/lv_arc.c ****  * outside of the arc background we need to check if the angle (of the clicked point)
 904:lvgl/src/widgets/lv_arc.c ****  * is within the bounds of the background.
 905:lvgl/src/widgets/lv_arc.c ****  *
 906:lvgl/src/widgets/lv_arc.c ****  * A tolerance (extra room) also should be taken into consideration.
 907:lvgl/src/widgets/lv_arc.c ****  *
 908:lvgl/src/widgets/lv_arc.c ****  * E.g. Arc with start angle of 0° and end angle of 90°, the background is only visible in
 909:lvgl/src/widgets/lv_arc.c ****  * that range, from 90° to 360° the background is invisible. Click in 150° should not update
 910:lvgl/src/widgets/lv_arc.c ****  * the arc value, click within the arc angle range should.
 911:lvgl/src/widgets/lv_arc.c ****  *
 912:lvgl/src/widgets/lv_arc.c ****  * IMPORTANT NOTE: angle is always relative to bg_angle_start, e.g. if bg_angle_start is 30
 913:lvgl/src/widgets/lv_arc.c ****  * and we click a bit to the left, angle is 10, not the expected 40.
 914:lvgl/src/widgets/lv_arc.c ****  *
 915:lvgl/src/widgets/lv_arc.c ****  * @param obj   Pointer to lv_arc
 916:lvgl/src/widgets/lv_arc.c ****  * @param angle Angle to be checked
 917:lvgl/src/widgets/lv_arc.c ****  * @param tolerance_deg Tolerance
 918:lvgl/src/widgets/lv_arc.c ****  *
 919:lvgl/src/widgets/lv_arc.c ****  * @return true if angle is within arc background bounds, false otherwise
 920:lvgl/src/widgets/lv_arc.c ****  */
 921:lvgl/src/widgets/lv_arc.c **** static bool lv_arc_angle_within_bg_bounds(lv_obj_t * obj, const uint32_t angle, const uint32_t tole
 922:lvgl/src/widgets/lv_arc.c **** {
 205              		.loc 1 922 1 is_stmt 1 view -0
 206              		.cfi_startproc
 207              		@ args = 0, pretend = 0, frame = 0
 208              		@ frame_needed = 0, uses_anonymous_args = 0
 209              		.loc 1 922 1 is_stmt 0 view .LVU66
 210 0000 10B5     		push	{r4, lr}
 211              		.cfi_def_cfa_offset 8
 212              		.cfi_offset 4, -8
 213              		.cfi_offset 14, -4
 214 0002 8646     		mov	lr, r0
 923:lvgl/src/widgets/lv_arc.c ****     LV_ASSERT_OBJ(obj, MY_CLASS);
 215              		.loc 1 923 5 is_stmt 1 view .LVU67
 216              		.loc 1 923 5 view .LVU68
 217              		.loc 1 923 5 view .LVU69
 924:lvgl/src/widgets/lv_arc.c ****     lv_arc_t * arc = (lv_arc_t *)obj;
 218              		.loc 1 924 5 view .LVU70
 219              	.LVL25:
 925:lvgl/src/widgets/lv_arc.c **** 
 926:lvgl/src/widgets/lv_arc.c ****     uint32_t smaller_angle = 0;
 220              		.loc 1 926 5 view .LVU71
 927:lvgl/src/widgets/lv_arc.c ****     uint32_t bigger_angle = 0;
 221              		.loc 1 927 5 view .LVU72
 928:lvgl/src/widgets/lv_arc.c **** 
 929:lvgl/src/widgets/lv_arc.c ****     /* Determine which background angle is smaller and bigger */
 930:lvgl/src/widgets/lv_arc.c ****     if(arc->bg_angle_start < arc->bg_angle_end) {
ARM GAS  C:\Users\OSD\AppData\Local\Temp\ccR88enE.s 			page 22


 222              		.loc 1 930 5 view .LVU73
 223              		.loc 1 930 11 is_stmt 0 view .LVU74
 224 0004 438D     		ldrh	r3, [r0, #42]
 225              		.loc 1 930 33 view .LVU75
 226 0006 848D     		ldrh	r4, [r0, #44]
 227              		.loc 1 930 7 view .LVU76
 228 0008 A342     		cmp	r3, r4
 229 000a 03D3     		bcc	.L18
 931:lvgl/src/widgets/lv_arc.c ****         bigger_angle = arc->bg_angle_end;
 932:lvgl/src/widgets/lv_arc.c ****         smaller_angle = arc->bg_angle_start;
 933:lvgl/src/widgets/lv_arc.c ****     }
 934:lvgl/src/widgets/lv_arc.c ****     else {
 935:lvgl/src/widgets/lv_arc.c ****         bigger_angle = (360 - arc->bg_angle_start) + arc->bg_angle_end;
 230              		.loc 1 935 9 is_stmt 1 view .LVU77
 231              		.loc 1 935 29 is_stmt 0 view .LVU78
 232 000c C3F5B473 		rsb	r3, r3, #360
 233              		.loc 1 935 52 view .LVU79
 234 0010 1C44     		add	r4, r4, r3
 235              	.LVL26:
 936:lvgl/src/widgets/lv_arc.c ****         smaller_angle = 0;
 236              		.loc 1 936 9 is_stmt 1 view .LVU80
 237              		.loc 1 936 23 is_stmt 0 view .LVU81
 238 0012 0023     		movs	r3, #0
 239              	.LVL27:
 240              	.L18:
 937:lvgl/src/widgets/lv_arc.c ****     }
 938:lvgl/src/widgets/lv_arc.c **** 
 939:lvgl/src/widgets/lv_arc.c ****     /* Angle is between both background angles */
 940:lvgl/src/widgets/lv_arc.c ****     if((smaller_angle <= angle) && (angle <= bigger_angle)) {
 241              		.loc 1 940 5 is_stmt 1 view .LVU82
 242              		.loc 1 940 33 is_stmt 0 view .LVU83
 243 0014 8B42     		cmp	r3, r1
 244 0016 8CBF     		ite	hi
 245 0018 0020     		movhi	r0, #0
 246              	.LVL28:
 247              		.loc 1 940 33 view .LVU84
 248 001a 0120     		movls	r0, #1
 249 001c 8C42     		cmp	r4, r1
 250 001e 38BF     		it	cc
 251 0020 0020     		movcc	r0, #0
 252              		.loc 1 940 7 view .LVU85
 253 0022 A8BB     		cbnz	r0, .L28
 941:lvgl/src/widgets/lv_arc.c **** 
 942:lvgl/src/widgets/lv_arc.c ****         if(((bigger_angle - smaller_angle) / 2U) >= angle) {
 943:lvgl/src/widgets/lv_arc.c ****             arc->min_close = 1;
 944:lvgl/src/widgets/lv_arc.c ****         }
 945:lvgl/src/widgets/lv_arc.c ****         else {
 946:lvgl/src/widgets/lv_arc.c ****             arc->min_close = 0;
 947:lvgl/src/widgets/lv_arc.c ****         }
 948:lvgl/src/widgets/lv_arc.c **** 
 949:lvgl/src/widgets/lv_arc.c ****         arc->in_out = CLICK_INSIDE_BG_ANGLES;
 950:lvgl/src/widgets/lv_arc.c **** 
 951:lvgl/src/widgets/lv_arc.c ****         return true;
 952:lvgl/src/widgets/lv_arc.c ****     }
 953:lvgl/src/widgets/lv_arc.c ****     /* Distance between background start and end angles is less than tolerance,
 954:lvgl/src/widgets/lv_arc.c ****      * consider the click inside the arc */
 955:lvgl/src/widgets/lv_arc.c ****     else if(((smaller_angle - tolerance_deg) <= 0U) &&
ARM GAS  C:\Users\OSD\AppData\Local\Temp\ccR88enE.s 			page 23


 254              		.loc 1 955 10 is_stmt 1 view .LVU86
 255              		.loc 1 955 12 is_stmt 0 view .LVU87
 256 0024 9342     		cmp	r3, r2
 257 0026 4BD0     		beq	.L29
 258              	.L23:
 956:lvgl/src/widgets/lv_arc.c ****             (360U - (bigger_angle + (smaller_angle - tolerance_deg)))) {
 957:lvgl/src/widgets/lv_arc.c **** 
 958:lvgl/src/widgets/lv_arc.c ****         arc->min_close = 1;
 959:lvgl/src/widgets/lv_arc.c ****         arc->in_out = CLICK_INSIDE_BG_ANGLES;
 960:lvgl/src/widgets/lv_arc.c ****         return true;
 961:lvgl/src/widgets/lv_arc.c ****     }
 962:lvgl/src/widgets/lv_arc.c ****     else { /* Case handled below */ }
 259              		.loc 1 962 37 is_stmt 1 view .LVU88
 963:lvgl/src/widgets/lv_arc.c **** 
 964:lvgl/src/widgets/lv_arc.c ****     /* Legends:
 965:lvgl/src/widgets/lv_arc.c ****      * 0° = angle 0
 966:lvgl/src/widgets/lv_arc.c ****      * 360° = angle 360
 967:lvgl/src/widgets/lv_arc.c ****      * T: Tolerance
 968:lvgl/src/widgets/lv_arc.c ****      * A: Angle
 969:lvgl/src/widgets/lv_arc.c ****      * S: Arc background start angle
 970:lvgl/src/widgets/lv_arc.c ****      * E: Arc background end angle
 971:lvgl/src/widgets/lv_arc.c ****      *
 972:lvgl/src/widgets/lv_arc.c ****      * Start angle is bigger or equal to tolerance */
 973:lvgl/src/widgets/lv_arc.c ****     if((smaller_angle >= tolerance_deg)
 260              		.loc 1 973 5 view .LVU89
 261              		.loc 1 973 7 is_stmt 0 view .LVU90
 262 0028 9342     		cmp	r3, r2
 263 002a 06D3     		bcc	.L24
 974:lvgl/src/widgets/lv_arc.c ****        /* (360° - T) --- A --- 360° */
 975:lvgl/src/widgets/lv_arc.c ****        && ((angle >= (360U - tolerance_deg)) && (angle <= 360U))) {
 264              		.loc 1 975 28 view .LVU91
 265 002c C2F5B47C 		rsb	ip, r2, #360
 266              		.loc 1 975 8 view .LVU92
 267 0030 8C45     		cmp	ip, r1
 268 0032 02D8     		bhi	.L24
 269              		.loc 1 975 46 discriminator 1 view .LVU93
 270 0034 B1F5B47F 		cmp	r1, #360
 271 0038 56D9     		bls	.L30
 272              	.L24:
 976:lvgl/src/widgets/lv_arc.c **** 
 977:lvgl/src/widgets/lv_arc.c ****         arc->min_close = 1;
 978:lvgl/src/widgets/lv_arc.c ****         arc->in_out = CLICK_OUTSIDE_BG_ANGLES;
 979:lvgl/src/widgets/lv_arc.c ****         return true;
 980:lvgl/src/widgets/lv_arc.c ****     }
 981:lvgl/src/widgets/lv_arc.c ****     /* Tolerance is bigger than bg start angle */
 982:lvgl/src/widgets/lv_arc.c ****     else if((smaller_angle < tolerance_deg)
 273              		.loc 1 982 10 is_stmt 1 view .LVU94
 274              		.loc 1 982 12 is_stmt 0 view .LVU95
 275 003a 9342     		cmp	r3, r2
 276 003c 08D2     		bcs	.L25
 983:lvgl/src/widgets/lv_arc.c ****             /* (360° - (T - S)) --- A --- 360° */
 984:lvgl/src/widgets/lv_arc.c ****             && (((360U - (tolerance_deg - smaller_angle)) <= angle)) && (angle <= 360U)) {
 277              		.loc 1 984 24 view .LVU96
 278 003e A3EB020C 		sub	ip, r3, r2
 279 0042 0CF5B47C 		add	ip, ip, #360
 280              		.loc 1 984 13 view .LVU97
 281 0046 8C45     		cmp	ip, r1
ARM GAS  C:\Users\OSD\AppData\Local\Temp\ccR88enE.s 			page 24


 282 0048 02D8     		bhi	.L25
 283              		.loc 1 984 70 discriminator 1 view .LVU98
 284 004a B1F5B47F 		cmp	r1, #360
 285 004e 58D9     		bls	.L31
 286              	.L25:
 985:lvgl/src/widgets/lv_arc.c **** 
 986:lvgl/src/widgets/lv_arc.c ****         arc->min_close = 1;
 987:lvgl/src/widgets/lv_arc.c ****         arc->in_out = CLICK_OUTSIDE_BG_ANGLES;
 988:lvgl/src/widgets/lv_arc.c ****         return true;
 989:lvgl/src/widgets/lv_arc.c ****     }
 990:lvgl/src/widgets/lv_arc.c ****     /* 360° is bigger than background end angle + tolerance */
 991:lvgl/src/widgets/lv_arc.c ****     else if((360U >= (bigger_angle + tolerance_deg))
 287              		.loc 1 991 10 is_stmt 1 view .LVU99
 288              		.loc 1 991 36 is_stmt 0 view .LVU100
 289 0050 04EB020C 		add	ip, r4, r2
 290              		.loc 1 991 12 view .LVU101
 291 0054 BCF5B47F 		cmp	ip, #360
 292 0058 04D8     		bhi	.L26
 992:lvgl/src/widgets/lv_arc.c ****             /* E --- A --- (E + T) */
 993:lvgl/src/widgets/lv_arc.c ****             && ((bigger_angle <= (angle + smaller_angle)) &&
 293              		.loc 1 993 41 view .LVU102
 294 005a 5A18     		adds	r2, r3, r1
 295              	.LVL29:
 296              		.loc 1 993 13 view .LVU103
 297 005c A242     		cmp	r2, r4
 298 005e 01D3     		bcc	.L26
 299              		.loc 1 993 59 discriminator 1 view .LVU104
 300 0060 9445     		cmp	ip, r2
 301 0062 5BD2     		bcs	.L32
 302              	.L26:
 994:lvgl/src/widgets/lv_arc.c ****                 ((angle + smaller_angle) <= (bigger_angle + tolerance_deg)))) {
 995:lvgl/src/widgets/lv_arc.c **** 
 996:lvgl/src/widgets/lv_arc.c ****         arc->min_close = 0;
 997:lvgl/src/widgets/lv_arc.c ****         arc->in_out = CLICK_OUTSIDE_BG_ANGLES;
 998:lvgl/src/widgets/lv_arc.c ****         return true;
 999:lvgl/src/widgets/lv_arc.c ****     }
1000:lvgl/src/widgets/lv_arc.c ****     /* Background end angle + tolerance is bigger than 360° and bg_start_angle + tolerance is not 
1001:lvgl/src/widgets/lv_arc.c ****      * Here we can assume background is not near 0° because of the first two initial checks */
1002:lvgl/src/widgets/lv_arc.c ****     else if((360U < (bigger_angle + tolerance_deg))
 303              		.loc 1 1002 10 is_stmt 1 view .LVU105
 304              		.loc 1 1002 12 is_stmt 0 view .LVU106
 305 0064 BCF5B47F 		cmp	ip, #360
 306 0068 22D9     		bls	.L22
1003:lvgl/src/widgets/lv_arc.c ****             && (angle <= 0U + ((bigger_angle + tolerance_deg) - 360U)) && (angle > bigger_angle)) {
 307              		.loc 1 1003 29 view .LVU107
 308 006a ACF5B472 		sub	r2, ip, #360
 309              		.loc 1 1003 13 view .LVU108
 310 006e 8A42     		cmp	r2, r1
 311 0070 1ED3     		bcc	.L22
 312              		.loc 1 1003 72 discriminator 1 view .LVU109
 313 0072 8C42     		cmp	r4, r1
 314 0074 1CD2     		bcs	.L22
1004:lvgl/src/widgets/lv_arc.c **** 
1005:lvgl/src/widgets/lv_arc.c ****         arc->min_close = 0;
 315              		.loc 1 1005 9 is_stmt 1 view .LVU110
 316              		.loc 1 1005 24 is_stmt 0 view .LVU111
 317 0076 9EF83430 		ldrb	r3, [lr, #52]	@ zero_extendqisi2
ARM GAS  C:\Users\OSD\AppData\Local\Temp\ccR88enE.s 			page 25


 318              	.LVL30:
 319              		.loc 1 1005 24 view .LVU112
 320 007a 6FF3C303 		bfc	r3, #3, #1
 321 007e 8EF83430 		strb	r3, [lr, #52]
1006:lvgl/src/widgets/lv_arc.c ****         arc->in_out = CLICK_OUTSIDE_BG_ANGLES;
 322              		.loc 1 1006 9 is_stmt 1 view .LVU113
 323              		.loc 1 1006 21 is_stmt 0 view .LVU114
 324 0082 DBB2     		uxtb	r3, r3
 325 0084 6FF30413 		bfc	r3, #4, #1
 326 0088 8EF83430 		strb	r3, [lr, #52]
1007:lvgl/src/widgets/lv_arc.c ****         return true;
 327              		.loc 1 1007 9 is_stmt 1 view .LVU115
 328              		.loc 1 1007 16 is_stmt 0 view .LVU116
 329 008c 0120     		movs	r0, #1
 330 008e 0FE0     		b	.L22
 331              	.LVL31:
 332              	.L28:
 942:lvgl/src/widgets/lv_arc.c ****             arc->min_close = 1;
 333              		.loc 1 942 9 is_stmt 1 view .LVU117
 942:lvgl/src/widgets/lv_arc.c ****             arc->min_close = 1;
 334              		.loc 1 942 27 is_stmt 0 view .LVU118
 335 0090 E31A     		subs	r3, r4, r3
 336              	.LVL32:
 942:lvgl/src/widgets/lv_arc.c ****             arc->min_close = 1;
 337              		.loc 1 942 11 view .LVU119
 338 0092 B1EB530F 		cmp	r1, r3, lsr #1
 339 0096 0CD8     		bhi	.L20
 943:lvgl/src/widgets/lv_arc.c ****         }
 340              		.loc 1 943 13 is_stmt 1 view .LVU120
 943:lvgl/src/widgets/lv_arc.c ****         }
 341              		.loc 1 943 28 is_stmt 0 view .LVU121
 342 0098 9EF83430 		ldrb	r3, [lr, #52]	@ zero_extendqisi2
 343 009c 43F00803 		orr	r3, r3, #8
 344 00a0 8EF83430 		strb	r3, [lr, #52]
 345              	.L21:
 949:lvgl/src/widgets/lv_arc.c **** 
 346              		.loc 1 949 9 is_stmt 1 view .LVU122
 949:lvgl/src/widgets/lv_arc.c **** 
 347              		.loc 1 949 21 is_stmt 0 view .LVU123
 348 00a4 9EF83430 		ldrb	r3, [lr, #52]	@ zero_extendqisi2
 349 00a8 43F01003 		orr	r3, r3, #16
 350 00ac 8EF83430 		strb	r3, [lr, #52]
 951:lvgl/src/widgets/lv_arc.c ****     }
 351              		.loc 1 951 9 is_stmt 1 view .LVU124
 352              	.LVL33:
 353              	.L22:
1008:lvgl/src/widgets/lv_arc.c ****     }
1009:lvgl/src/widgets/lv_arc.c ****     else {
1010:lvgl/src/widgets/lv_arc.c ****         /* Nothing to do */
1011:lvgl/src/widgets/lv_arc.c ****     }
1012:lvgl/src/widgets/lv_arc.c **** 
1013:lvgl/src/widgets/lv_arc.c ****     return false;
1014:lvgl/src/widgets/lv_arc.c **** }
 354              		.loc 1 1014 1 is_stmt 0 view .LVU125
 355 00b0 10BD     		pop	{r4, pc}
 356              	.LVL34:
 357              	.L20:
ARM GAS  C:\Users\OSD\AppData\Local\Temp\ccR88enE.s 			page 26


 946:lvgl/src/widgets/lv_arc.c ****         }
 358              		.loc 1 946 13 is_stmt 1 view .LVU126
 946:lvgl/src/widgets/lv_arc.c ****         }
 359              		.loc 1 946 28 is_stmt 0 view .LVU127
 360 00b2 9EF83430 		ldrb	r3, [lr, #52]	@ zero_extendqisi2
 361 00b6 6FF3C303 		bfc	r3, #3, #1
 362 00ba 8EF83430 		strb	r3, [lr, #52]
 363 00be F1E7     		b	.L21
 364              	.LVL35:
 365              	.L29:
 956:lvgl/src/widgets/lv_arc.c **** 
 366              		.loc 1 956 52 discriminator 1 view .LVU128
 367 00c0 A2EB030C 		sub	ip, r2, r3
 956:lvgl/src/widgets/lv_arc.c **** 
 368              		.loc 1 956 35 discriminator 1 view .LVU129
 369 00c4 ACEB040C 		sub	ip, ip, r4
 955:lvgl/src/widgets/lv_arc.c ****             (360U - (bigger_angle + (smaller_angle - tolerance_deg)))) {
 370              		.loc 1 955 53 discriminator 1 view .LVU130
 371 00c8 1CF5B47F 		cmn	ip, #360
 372 00cc ACD0     		beq	.L23
 958:lvgl/src/widgets/lv_arc.c ****         arc->in_out = CLICK_INSIDE_BG_ANGLES;
 373              		.loc 1 958 9 is_stmt 1 view .LVU131
 958:lvgl/src/widgets/lv_arc.c ****         arc->in_out = CLICK_INSIDE_BG_ANGLES;
 374              		.loc 1 958 24 is_stmt 0 view .LVU132
 375 00ce 9EF83430 		ldrb	r3, [lr, #52]	@ zero_extendqisi2
 376              	.LVL36:
 958:lvgl/src/widgets/lv_arc.c ****         arc->in_out = CLICK_INSIDE_BG_ANGLES;
 377              		.loc 1 958 24 view .LVU133
 378 00d2 43F00803 		orr	r3, r3, #8
 379 00d6 8EF83430 		strb	r3, [lr, #52]
 959:lvgl/src/widgets/lv_arc.c ****         return true;
 380              		.loc 1 959 9 is_stmt 1 view .LVU134
 959:lvgl/src/widgets/lv_arc.c ****         return true;
 381              		.loc 1 959 21 is_stmt 0 view .LVU135
 382 00da DBB2     		uxtb	r3, r3
 383 00dc 43F01003 		orr	r3, r3, #16
 384 00e0 8EF83430 		strb	r3, [lr, #52]
 960:lvgl/src/widgets/lv_arc.c ****     }
 385              		.loc 1 960 9 is_stmt 1 view .LVU136
 960:lvgl/src/widgets/lv_arc.c ****     }
 386              		.loc 1 960 16 is_stmt 0 view .LVU137
 387 00e4 0120     		movs	r0, #1
 388 00e6 E3E7     		b	.L22
 389              	.LVL37:
 390              	.L30:
 977:lvgl/src/widgets/lv_arc.c ****         arc->in_out = CLICK_OUTSIDE_BG_ANGLES;
 391              		.loc 1 977 9 is_stmt 1 view .LVU138
 977:lvgl/src/widgets/lv_arc.c ****         arc->in_out = CLICK_OUTSIDE_BG_ANGLES;
 392              		.loc 1 977 24 is_stmt 0 view .LVU139
 393 00e8 9EF83430 		ldrb	r3, [lr, #52]	@ zero_extendqisi2
 394              	.LVL38:
 977:lvgl/src/widgets/lv_arc.c ****         arc->in_out = CLICK_OUTSIDE_BG_ANGLES;
 395              		.loc 1 977 24 view .LVU140
 396 00ec 43F00803 		orr	r3, r3, #8
 397 00f0 8EF83430 		strb	r3, [lr, #52]
 978:lvgl/src/widgets/lv_arc.c ****         return true;
 398              		.loc 1 978 9 is_stmt 1 view .LVU141
ARM GAS  C:\Users\OSD\AppData\Local\Temp\ccR88enE.s 			page 27


 978:lvgl/src/widgets/lv_arc.c ****         return true;
 399              		.loc 1 978 21 is_stmt 0 view .LVU142
 400 00f4 DBB2     		uxtb	r3, r3
 401 00f6 6FF30413 		bfc	r3, #4, #1
 402 00fa 8EF83430 		strb	r3, [lr, #52]
 979:lvgl/src/widgets/lv_arc.c ****     }
 403              		.loc 1 979 9 is_stmt 1 view .LVU143
 979:lvgl/src/widgets/lv_arc.c ****     }
 404              		.loc 1 979 16 is_stmt 0 view .LVU144
 405 00fe 0120     		movs	r0, #1
 406 0100 D6E7     		b	.L22
 407              	.LVL39:
 408              	.L31:
 986:lvgl/src/widgets/lv_arc.c ****         arc->in_out = CLICK_OUTSIDE_BG_ANGLES;
 409              		.loc 1 986 9 is_stmt 1 view .LVU145
 986:lvgl/src/widgets/lv_arc.c ****         arc->in_out = CLICK_OUTSIDE_BG_ANGLES;
 410              		.loc 1 986 24 is_stmt 0 view .LVU146
 411 0102 9EF83430 		ldrb	r3, [lr, #52]	@ zero_extendqisi2
 412              	.LVL40:
 986:lvgl/src/widgets/lv_arc.c ****         arc->in_out = CLICK_OUTSIDE_BG_ANGLES;
 413              		.loc 1 986 24 view .LVU147
 414 0106 43F00803 		orr	r3, r3, #8
 415 010a 8EF83430 		strb	r3, [lr, #52]
 987:lvgl/src/widgets/lv_arc.c ****         return true;
 416              		.loc 1 987 9 is_stmt 1 view .LVU148
 987:lvgl/src/widgets/lv_arc.c ****         return true;
 417              		.loc 1 987 21 is_stmt 0 view .LVU149
 418 010e DBB2     		uxtb	r3, r3
 419 0110 6FF30413 		bfc	r3, #4, #1
 420 0114 8EF83430 		strb	r3, [lr, #52]
 988:lvgl/src/widgets/lv_arc.c ****     }
 421              		.loc 1 988 9 is_stmt 1 view .LVU150
 988:lvgl/src/widgets/lv_arc.c ****     }
 422              		.loc 1 988 16 is_stmt 0 view .LVU151
 423 0118 0120     		movs	r0, #1
 424 011a C9E7     		b	.L22
 425              	.LVL41:
 426              	.L32:
 996:lvgl/src/widgets/lv_arc.c ****         arc->in_out = CLICK_OUTSIDE_BG_ANGLES;
 427              		.loc 1 996 9 is_stmt 1 view .LVU152
 996:lvgl/src/widgets/lv_arc.c ****         arc->in_out = CLICK_OUTSIDE_BG_ANGLES;
 428              		.loc 1 996 24 is_stmt 0 view .LVU153
 429 011c 9EF83430 		ldrb	r3, [lr, #52]	@ zero_extendqisi2
 430              	.LVL42:
 996:lvgl/src/widgets/lv_arc.c ****         arc->in_out = CLICK_OUTSIDE_BG_ANGLES;
 431              		.loc 1 996 24 view .LVU154
 432 0120 6FF3C303 		bfc	r3, #3, #1
 433 0124 8EF83430 		strb	r3, [lr, #52]
 997:lvgl/src/widgets/lv_arc.c ****         return true;
 434              		.loc 1 997 9 is_stmt 1 view .LVU155
 997:lvgl/src/widgets/lv_arc.c ****         return true;
 435              		.loc 1 997 21 is_stmt 0 view .LVU156
 436 0128 DBB2     		uxtb	r3, r3
 437 012a 6FF30413 		bfc	r3, #4, #1
 438 012e 8EF83430 		strb	r3, [lr, #52]
 998:lvgl/src/widgets/lv_arc.c ****     }
 439              		.loc 1 998 9 is_stmt 1 view .LVU157
ARM GAS  C:\Users\OSD\AppData\Local\Temp\ccR88enE.s 			page 28


 998:lvgl/src/widgets/lv_arc.c ****     }
 440              		.loc 1 998 16 is_stmt 0 view .LVU158
 441 0132 0120     		movs	r0, #1
 442 0134 BCE7     		b	.L22
 443              		.cfi_endproc
 444              	.LFE193:
 446              		.section	.text.get_center,"ax",%progbits
 447              		.align	1
 448              		.syntax unified
 449              		.thumb
 450              		.thumb_func
 452              	get_center:
 453              	.LVL43:
 454              	.LFB188:
 775:lvgl/src/widgets/lv_arc.c ****     lv_coord_t left_bg = lv_obj_get_style_pad_left(obj, LV_PART_MAIN);
 455              		.loc 1 775 1 is_stmt 1 view -0
 456              		.cfi_startproc
 457              		@ args = 0, pretend = 0, frame = 8
 458              		@ frame_needed = 0, uses_anonymous_args = 0
 775:lvgl/src/widgets/lv_arc.c ****     lv_coord_t left_bg = lv_obj_get_style_pad_left(obj, LV_PART_MAIN);
 459              		.loc 1 775 1 is_stmt 0 view .LVU160
 460 0000 2DE9F04F 		push	{r4, r5, r6, r7, r8, r9, r10, fp, lr}
 461              		.cfi_def_cfa_offset 36
 462              		.cfi_offset 4, -36
 463              		.cfi_offset 5, -32
 464              		.cfi_offset 6, -28
 465              		.cfi_offset 7, -24
 466              		.cfi_offset 8, -20
 467              		.cfi_offset 9, -16
 468              		.cfi_offset 10, -12
 469              		.cfi_offset 11, -8
 470              		.cfi_offset 14, -4
 471 0004 83B0     		sub	sp, sp, #12
 472              		.cfi_def_cfa_offset 48
 473 0006 0446     		mov	r4, r0
 474 0008 0E46     		mov	r6, r1
 475 000a 9146     		mov	r9, r2
 776:lvgl/src/widgets/lv_arc.c ****     lv_coord_t right_bg = lv_obj_get_style_pad_right(obj, LV_PART_MAIN);
 476              		.loc 1 776 5 is_stmt 1 view .LVU161
 477              	.LVL44:
 478              	.LBB84:
 479              	.LBI84:
 480              		.file 2 "lvgl/src/widgets/../core/lv_obj_style_gen.h"
   1:lvgl/src/widgets/../core/lv_obj_style_gen.h **** static inline lv_coord_t lv_obj_get_style_width(const struct _lv_obj_t * obj, uint32_t part)
   2:lvgl/src/widgets/../core/lv_obj_style_gen.h **** {
   3:lvgl/src/widgets/../core/lv_obj_style_gen.h ****     lv_style_value_t v = lv_obj_get_style_prop(obj, part, LV_STYLE_WIDTH);
   4:lvgl/src/widgets/../core/lv_obj_style_gen.h ****     return (lv_coord_t)v.num;
   5:lvgl/src/widgets/../core/lv_obj_style_gen.h **** }
   6:lvgl/src/widgets/../core/lv_obj_style_gen.h **** 
   7:lvgl/src/widgets/../core/lv_obj_style_gen.h **** static inline lv_coord_t lv_obj_get_style_min_width(const struct _lv_obj_t * obj, uint32_t part)
   8:lvgl/src/widgets/../core/lv_obj_style_gen.h **** {
   9:lvgl/src/widgets/../core/lv_obj_style_gen.h ****     lv_style_value_t v = lv_obj_get_style_prop(obj, part, LV_STYLE_MIN_WIDTH);
  10:lvgl/src/widgets/../core/lv_obj_style_gen.h ****     return (lv_coord_t)v.num;
  11:lvgl/src/widgets/../core/lv_obj_style_gen.h **** }
  12:lvgl/src/widgets/../core/lv_obj_style_gen.h **** 
  13:lvgl/src/widgets/../core/lv_obj_style_gen.h **** static inline lv_coord_t lv_obj_get_style_max_width(const struct _lv_obj_t * obj, uint32_t part)
  14:lvgl/src/widgets/../core/lv_obj_style_gen.h **** {
ARM GAS  C:\Users\OSD\AppData\Local\Temp\ccR88enE.s 			page 29


  15:lvgl/src/widgets/../core/lv_obj_style_gen.h ****     lv_style_value_t v = lv_obj_get_style_prop(obj, part, LV_STYLE_MAX_WIDTH);
  16:lvgl/src/widgets/../core/lv_obj_style_gen.h ****     return (lv_coord_t)v.num;
  17:lvgl/src/widgets/../core/lv_obj_style_gen.h **** }
  18:lvgl/src/widgets/../core/lv_obj_style_gen.h **** 
  19:lvgl/src/widgets/../core/lv_obj_style_gen.h **** static inline lv_coord_t lv_obj_get_style_height(const struct _lv_obj_t * obj, uint32_t part)
  20:lvgl/src/widgets/../core/lv_obj_style_gen.h **** {
  21:lvgl/src/widgets/../core/lv_obj_style_gen.h ****     lv_style_value_t v = lv_obj_get_style_prop(obj, part, LV_STYLE_HEIGHT);
  22:lvgl/src/widgets/../core/lv_obj_style_gen.h ****     return (lv_coord_t)v.num;
  23:lvgl/src/widgets/../core/lv_obj_style_gen.h **** }
  24:lvgl/src/widgets/../core/lv_obj_style_gen.h **** 
  25:lvgl/src/widgets/../core/lv_obj_style_gen.h **** static inline lv_coord_t lv_obj_get_style_min_height(const struct _lv_obj_t * obj, uint32_t part)
  26:lvgl/src/widgets/../core/lv_obj_style_gen.h **** {
  27:lvgl/src/widgets/../core/lv_obj_style_gen.h ****     lv_style_value_t v = lv_obj_get_style_prop(obj, part, LV_STYLE_MIN_HEIGHT);
  28:lvgl/src/widgets/../core/lv_obj_style_gen.h ****     return (lv_coord_t)v.num;
  29:lvgl/src/widgets/../core/lv_obj_style_gen.h **** }
  30:lvgl/src/widgets/../core/lv_obj_style_gen.h **** 
  31:lvgl/src/widgets/../core/lv_obj_style_gen.h **** static inline lv_coord_t lv_obj_get_style_max_height(const struct _lv_obj_t * obj, uint32_t part)
  32:lvgl/src/widgets/../core/lv_obj_style_gen.h **** {
  33:lvgl/src/widgets/../core/lv_obj_style_gen.h ****     lv_style_value_t v = lv_obj_get_style_prop(obj, part, LV_STYLE_MAX_HEIGHT);
  34:lvgl/src/widgets/../core/lv_obj_style_gen.h ****     return (lv_coord_t)v.num;
  35:lvgl/src/widgets/../core/lv_obj_style_gen.h **** }
  36:lvgl/src/widgets/../core/lv_obj_style_gen.h **** 
  37:lvgl/src/widgets/../core/lv_obj_style_gen.h **** static inline lv_coord_t lv_obj_get_style_x(const struct _lv_obj_t * obj, uint32_t part)
  38:lvgl/src/widgets/../core/lv_obj_style_gen.h **** {
  39:lvgl/src/widgets/../core/lv_obj_style_gen.h ****     lv_style_value_t v = lv_obj_get_style_prop(obj, part, LV_STYLE_X);
  40:lvgl/src/widgets/../core/lv_obj_style_gen.h ****     return (lv_coord_t)v.num;
  41:lvgl/src/widgets/../core/lv_obj_style_gen.h **** }
  42:lvgl/src/widgets/../core/lv_obj_style_gen.h **** 
  43:lvgl/src/widgets/../core/lv_obj_style_gen.h **** static inline lv_coord_t lv_obj_get_style_y(const struct _lv_obj_t * obj, uint32_t part)
  44:lvgl/src/widgets/../core/lv_obj_style_gen.h **** {
  45:lvgl/src/widgets/../core/lv_obj_style_gen.h ****     lv_style_value_t v = lv_obj_get_style_prop(obj, part, LV_STYLE_Y);
  46:lvgl/src/widgets/../core/lv_obj_style_gen.h ****     return (lv_coord_t)v.num;
  47:lvgl/src/widgets/../core/lv_obj_style_gen.h **** }
  48:lvgl/src/widgets/../core/lv_obj_style_gen.h **** 
  49:lvgl/src/widgets/../core/lv_obj_style_gen.h **** static inline lv_align_t lv_obj_get_style_align(const struct _lv_obj_t * obj, uint32_t part)
  50:lvgl/src/widgets/../core/lv_obj_style_gen.h **** {
  51:lvgl/src/widgets/../core/lv_obj_style_gen.h ****     lv_style_value_t v = lv_obj_get_style_prop(obj, part, LV_STYLE_ALIGN);
  52:lvgl/src/widgets/../core/lv_obj_style_gen.h ****     return (lv_align_t)v.num;
  53:lvgl/src/widgets/../core/lv_obj_style_gen.h **** }
  54:lvgl/src/widgets/../core/lv_obj_style_gen.h **** 
  55:lvgl/src/widgets/../core/lv_obj_style_gen.h **** static inline lv_coord_t lv_obj_get_style_transform_width(const struct _lv_obj_t * obj, uint32_t pa
  56:lvgl/src/widgets/../core/lv_obj_style_gen.h **** {
  57:lvgl/src/widgets/../core/lv_obj_style_gen.h ****     lv_style_value_t v = lv_obj_get_style_prop(obj, part, LV_STYLE_TRANSFORM_WIDTH);
  58:lvgl/src/widgets/../core/lv_obj_style_gen.h ****     return (lv_coord_t)v.num;
  59:lvgl/src/widgets/../core/lv_obj_style_gen.h **** }
  60:lvgl/src/widgets/../core/lv_obj_style_gen.h **** 
  61:lvgl/src/widgets/../core/lv_obj_style_gen.h **** static inline lv_coord_t lv_obj_get_style_transform_height(const struct _lv_obj_t * obj, uint32_t p
  62:lvgl/src/widgets/../core/lv_obj_style_gen.h **** {
  63:lvgl/src/widgets/../core/lv_obj_style_gen.h ****     lv_style_value_t v = lv_obj_get_style_prop(obj, part, LV_STYLE_TRANSFORM_HEIGHT);
  64:lvgl/src/widgets/../core/lv_obj_style_gen.h ****     return (lv_coord_t)v.num;
  65:lvgl/src/widgets/../core/lv_obj_style_gen.h **** }
  66:lvgl/src/widgets/../core/lv_obj_style_gen.h **** 
  67:lvgl/src/widgets/../core/lv_obj_style_gen.h **** static inline lv_coord_t lv_obj_get_style_translate_x(const struct _lv_obj_t * obj, uint32_t part)
  68:lvgl/src/widgets/../core/lv_obj_style_gen.h **** {
  69:lvgl/src/widgets/../core/lv_obj_style_gen.h ****     lv_style_value_t v = lv_obj_get_style_prop(obj, part, LV_STYLE_TRANSLATE_X);
  70:lvgl/src/widgets/../core/lv_obj_style_gen.h ****     return (lv_coord_t)v.num;
  71:lvgl/src/widgets/../core/lv_obj_style_gen.h **** }
ARM GAS  C:\Users\OSD\AppData\Local\Temp\ccR88enE.s 			page 30


  72:lvgl/src/widgets/../core/lv_obj_style_gen.h **** 
  73:lvgl/src/widgets/../core/lv_obj_style_gen.h **** static inline lv_coord_t lv_obj_get_style_translate_y(const struct _lv_obj_t * obj, uint32_t part)
  74:lvgl/src/widgets/../core/lv_obj_style_gen.h **** {
  75:lvgl/src/widgets/../core/lv_obj_style_gen.h ****     lv_style_value_t v = lv_obj_get_style_prop(obj, part, LV_STYLE_TRANSLATE_Y);
  76:lvgl/src/widgets/../core/lv_obj_style_gen.h ****     return (lv_coord_t)v.num;
  77:lvgl/src/widgets/../core/lv_obj_style_gen.h **** }
  78:lvgl/src/widgets/../core/lv_obj_style_gen.h **** 
  79:lvgl/src/widgets/../core/lv_obj_style_gen.h **** static inline lv_coord_t lv_obj_get_style_transform_zoom(const struct _lv_obj_t * obj, uint32_t par
  80:lvgl/src/widgets/../core/lv_obj_style_gen.h **** {
  81:lvgl/src/widgets/../core/lv_obj_style_gen.h ****     lv_style_value_t v = lv_obj_get_style_prop(obj, part, LV_STYLE_TRANSFORM_ZOOM);
  82:lvgl/src/widgets/../core/lv_obj_style_gen.h ****     return (lv_coord_t)v.num;
  83:lvgl/src/widgets/../core/lv_obj_style_gen.h **** }
  84:lvgl/src/widgets/../core/lv_obj_style_gen.h **** 
  85:lvgl/src/widgets/../core/lv_obj_style_gen.h **** static inline lv_coord_t lv_obj_get_style_transform_angle(const struct _lv_obj_t * obj, uint32_t pa
  86:lvgl/src/widgets/../core/lv_obj_style_gen.h **** {
  87:lvgl/src/widgets/../core/lv_obj_style_gen.h ****     lv_style_value_t v = lv_obj_get_style_prop(obj, part, LV_STYLE_TRANSFORM_ANGLE);
  88:lvgl/src/widgets/../core/lv_obj_style_gen.h ****     return (lv_coord_t)v.num;
  89:lvgl/src/widgets/../core/lv_obj_style_gen.h **** }
  90:lvgl/src/widgets/../core/lv_obj_style_gen.h **** 
  91:lvgl/src/widgets/../core/lv_obj_style_gen.h **** static inline lv_coord_t lv_obj_get_style_transform_pivot_x(const struct _lv_obj_t * obj, uint32_t 
  92:lvgl/src/widgets/../core/lv_obj_style_gen.h **** {
  93:lvgl/src/widgets/../core/lv_obj_style_gen.h ****     lv_style_value_t v = lv_obj_get_style_prop(obj, part, LV_STYLE_TRANSFORM_PIVOT_X);
  94:lvgl/src/widgets/../core/lv_obj_style_gen.h ****     return (lv_coord_t)v.num;
  95:lvgl/src/widgets/../core/lv_obj_style_gen.h **** }
  96:lvgl/src/widgets/../core/lv_obj_style_gen.h **** 
  97:lvgl/src/widgets/../core/lv_obj_style_gen.h **** static inline lv_coord_t lv_obj_get_style_transform_pivot_y(const struct _lv_obj_t * obj, uint32_t 
  98:lvgl/src/widgets/../core/lv_obj_style_gen.h **** {
  99:lvgl/src/widgets/../core/lv_obj_style_gen.h ****     lv_style_value_t v = lv_obj_get_style_prop(obj, part, LV_STYLE_TRANSFORM_PIVOT_Y);
 100:lvgl/src/widgets/../core/lv_obj_style_gen.h ****     return (lv_coord_t)v.num;
 101:lvgl/src/widgets/../core/lv_obj_style_gen.h **** }
 102:lvgl/src/widgets/../core/lv_obj_style_gen.h **** 
 103:lvgl/src/widgets/../core/lv_obj_style_gen.h **** static inline lv_coord_t lv_obj_get_style_pad_top(const struct _lv_obj_t * obj, uint32_t part)
 104:lvgl/src/widgets/../core/lv_obj_style_gen.h **** {
 105:lvgl/src/widgets/../core/lv_obj_style_gen.h ****     lv_style_value_t v = lv_obj_get_style_prop(obj, part, LV_STYLE_PAD_TOP);
 106:lvgl/src/widgets/../core/lv_obj_style_gen.h ****     return (lv_coord_t)v.num;
 107:lvgl/src/widgets/../core/lv_obj_style_gen.h **** }
 108:lvgl/src/widgets/../core/lv_obj_style_gen.h **** 
 109:lvgl/src/widgets/../core/lv_obj_style_gen.h **** static inline lv_coord_t lv_obj_get_style_pad_bottom(const struct _lv_obj_t * obj, uint32_t part)
 110:lvgl/src/widgets/../core/lv_obj_style_gen.h **** {
 111:lvgl/src/widgets/../core/lv_obj_style_gen.h ****     lv_style_value_t v = lv_obj_get_style_prop(obj, part, LV_STYLE_PAD_BOTTOM);
 112:lvgl/src/widgets/../core/lv_obj_style_gen.h ****     return (lv_coord_t)v.num;
 113:lvgl/src/widgets/../core/lv_obj_style_gen.h **** }
 114:lvgl/src/widgets/../core/lv_obj_style_gen.h **** 
 115:lvgl/src/widgets/../core/lv_obj_style_gen.h **** static inline lv_coord_t lv_obj_get_style_pad_left(const struct _lv_obj_t * obj, uint32_t part)
 481              		.loc 2 115 26 view .LVU162
 482              	.LBB85:
 116:lvgl/src/widgets/../core/lv_obj_style_gen.h **** {
 117:lvgl/src/widgets/../core/lv_obj_style_gen.h ****     lv_style_value_t v = lv_obj_get_style_prop(obj, part, LV_STYLE_PAD_LEFT);
 483              		.loc 2 117 5 view .LVU163
 484              		.loc 2 117 26 is_stmt 0 view .LVU164
 485 000c 1222     		movs	r2, #18
 486              	.LVL45:
 487              		.loc 2 117 26 view .LVU165
 488 000e 0021     		movs	r1, #0
 489              	.LVL46:
 490              		.loc 2 117 26 view .LVU166
 491 0010 FFF7FEFF 		bl	lv_obj_get_style_prop
ARM GAS  C:\Users\OSD\AppData\Local\Temp\ccR88enE.s 			page 31


 492              	.LVL47:
 493              		.loc 2 117 26 view .LVU167
 494 0014 0190     		str	r0, [sp, #4]
 118:lvgl/src/widgets/../core/lv_obj_style_gen.h ****     return (lv_coord_t)v.num;
 495              		.loc 2 118 5 is_stmt 1 view .LVU168
 496              		.loc 2 118 12 is_stmt 0 view .LVU169
 497 0016 0FFA80FB 		sxth	fp, r0
 498              	.LVL48:
 499              		.loc 2 118 12 view .LVU170
 500              	.LBE85:
 501              	.LBE84:
 777:lvgl/src/widgets/lv_arc.c ****     lv_coord_t top_bg = lv_obj_get_style_pad_top(obj, LV_PART_MAIN);
 502              		.loc 1 777 5 is_stmt 1 view .LVU171
 503              	.LBB86:
 504              	.LBI86:
 119:lvgl/src/widgets/../core/lv_obj_style_gen.h **** }
 120:lvgl/src/widgets/../core/lv_obj_style_gen.h **** 
 121:lvgl/src/widgets/../core/lv_obj_style_gen.h **** static inline lv_coord_t lv_obj_get_style_pad_right(const struct _lv_obj_t * obj, uint32_t part)
 505              		.loc 2 121 26 view .LVU172
 506              	.LBB87:
 122:lvgl/src/widgets/../core/lv_obj_style_gen.h **** {
 123:lvgl/src/widgets/../core/lv_obj_style_gen.h ****     lv_style_value_t v = lv_obj_get_style_prop(obj, part, LV_STYLE_PAD_RIGHT);
 507              		.loc 2 123 5 view .LVU173
 508              		.loc 2 123 26 is_stmt 0 view .LVU174
 509 001a 1322     		movs	r2, #19
 510 001c 0021     		movs	r1, #0
 511 001e 2046     		mov	r0, r4
 512 0020 FFF7FEFF 		bl	lv_obj_get_style_prop
 513              	.LVL49:
 124:lvgl/src/widgets/../core/lv_obj_style_gen.h ****     return (lv_coord_t)v.num;
 514              		.loc 2 124 5 is_stmt 1 view .LVU175
 515              		.loc 2 124 12 is_stmt 0 view .LVU176
 516 0024 0FFA80F8 		sxth	r8, r0
 517              	.LVL50:
 518              		.loc 2 124 12 view .LVU177
 519              	.LBE87:
 520              	.LBE86:
 778:lvgl/src/widgets/lv_arc.c ****     lv_coord_t bottom_bg = lv_obj_get_style_pad_bottom(obj, LV_PART_MAIN);
 521              		.loc 1 778 5 is_stmt 1 view .LVU178
 522              	.LBB88:
 523              	.LBI88:
 103:lvgl/src/widgets/../core/lv_obj_style_gen.h **** {
 524              		.loc 2 103 26 view .LVU179
 525              	.LBB89:
 105:lvgl/src/widgets/../core/lv_obj_style_gen.h ****     return (lv_coord_t)v.num;
 526              		.loc 2 105 5 view .LVU180
 105:lvgl/src/widgets/../core/lv_obj_style_gen.h ****     return (lv_coord_t)v.num;
 527              		.loc 2 105 26 is_stmt 0 view .LVU181
 528 0028 1022     		movs	r2, #16
 529 002a 0021     		movs	r1, #0
 530 002c 2046     		mov	r0, r4
 531 002e FFF7FEFF 		bl	lv_obj_get_style_prop
 532              	.LVL51:
 533 0032 0090     		str	r0, [sp]
 106:lvgl/src/widgets/../core/lv_obj_style_gen.h **** }
 534              		.loc 2 106 5 is_stmt 1 view .LVU182
 106:lvgl/src/widgets/../core/lv_obj_style_gen.h **** }
ARM GAS  C:\Users\OSD\AppData\Local\Temp\ccR88enE.s 			page 32


 535              		.loc 2 106 12 is_stmt 0 view .LVU183
 536 0034 0FFA80FA 		sxth	r10, r0
 537              	.LVL52:
 106:lvgl/src/widgets/../core/lv_obj_style_gen.h **** }
 538              		.loc 2 106 12 view .LVU184
 539              	.LBE89:
 540              	.LBE88:
 779:lvgl/src/widgets/lv_arc.c **** 
 541              		.loc 1 779 5 is_stmt 1 view .LVU185
 542              	.LBB90:
 543              	.LBI90:
 109:lvgl/src/widgets/../core/lv_obj_style_gen.h **** {
 544              		.loc 2 109 26 view .LVU186
 545              	.LBB91:
 111:lvgl/src/widgets/../core/lv_obj_style_gen.h ****     return (lv_coord_t)v.num;
 546              		.loc 2 111 5 view .LVU187
 111:lvgl/src/widgets/../core/lv_obj_style_gen.h ****     return (lv_coord_t)v.num;
 547              		.loc 2 111 26 is_stmt 0 view .LVU188
 548 0038 1122     		movs	r2, #17
 549 003a 0021     		movs	r1, #0
 550 003c 2046     		mov	r0, r4
 551 003e FFF7FEFF 		bl	lv_obj_get_style_prop
 552              	.LVL53:
 112:lvgl/src/widgets/../core/lv_obj_style_gen.h **** }
 553              		.loc 2 112 5 is_stmt 1 view .LVU189
 112:lvgl/src/widgets/../core/lv_obj_style_gen.h **** }
 554              		.loc 2 112 12 is_stmt 0 view .LVU190
 555 0042 07B2     		sxth	r7, r0
 556              	.LVL54:
 112:lvgl/src/widgets/../core/lv_obj_style_gen.h **** }
 557              		.loc 2 112 12 view .LVU191
 558              	.LBE91:
 559              	.LBE90:
 781:lvgl/src/widgets/lv_arc.c ****                            lv_obj_get_height(obj) - top_bg - bottom_bg)) / 2;
 560              		.loc 1 781 5 is_stmt 1 view .LVU192
 781:lvgl/src/widgets/lv_arc.c ****                            lv_obj_get_height(obj) - top_bg - bottom_bg)) / 2;
 561              		.loc 1 781 21 is_stmt 0 view .LVU193
 562 0044 2046     		mov	r0, r4
 563 0046 FFF7FEFF 		bl	lv_obj_get_width
 564              	.LVL55:
 565 004a A0EB0B05 		sub	r5, r0, fp
 566 004e A5EB0805 		sub	r5, r5, r8
 567 0052 2046     		mov	r0, r4
 568 0054 FFF7FEFF 		bl	lv_obj_get_height
 569              	.LVL56:
 570 0058 A0EB0A00 		sub	r0, r0, r10
 571 005c C01B     		subs	r0, r0, r7
 781:lvgl/src/widgets/lv_arc.c ****                            lv_obj_get_height(obj) - top_bg - bottom_bg)) / 2;
 572              		.loc 1 781 16 view .LVU194
 573 005e 8542     		cmp	r5, r0
 574 0060 21DA     		bge	.L34
 781:lvgl/src/widgets/lv_arc.c ****                            lv_obj_get_height(obj) - top_bg - bottom_bg)) / 2;
 575              		.loc 1 781 21 discriminator 1 view .LVU195
 576 0062 2046     		mov	r0, r4
 577 0064 FFF7FEFF 		bl	lv_obj_get_width
 578              	.LVL57:
 579 0068 A0EB0B0B 		sub	fp, r0, fp
ARM GAS  C:\Users\OSD\AppData\Local\Temp\ccR88enE.s 			page 33


 580              	.LVL58:
 782:lvgl/src/widgets/lv_arc.c **** 
 581              		.loc 1 782 74 discriminator 1 view .LVU196
 582 006c BBEB080B 		subs	fp, fp, r8
 583 0070 16D4     		bmi	.L40
 584              	.L35:
 781:lvgl/src/widgets/lv_arc.c ****                            lv_obj_get_height(obj) - top_bg - bottom_bg)) / 2;
 585              		.loc 1 781 16 discriminator 1 view .LVU197
 586 0072 4BF34F07 		sbfx	r7, fp, #1, #16
 587              	.LVL59:
 588              	.L36:
 784:lvgl/src/widgets/lv_arc.c ****     center->y = obj->coords.y1 + r + top_bg;
 589              		.loc 1 784 5 is_stmt 1 discriminator 4 view .LVU198
 784:lvgl/src/widgets/lv_arc.c ****     center->y = obj->coords.y1 + r + top_bg;
 590              		.loc 1 784 28 is_stmt 0 discriminator 4 view .LVU199
 591 0076 A08A     		ldrh	r0, [r4, #20]
 784:lvgl/src/widgets/lv_arc.c ****     center->y = obj->coords.y1 + r + top_bg;
 592              		.loc 1 784 32 discriminator 4 view .LVU200
 593 0078 BBB2     		uxth	r3, r7
 594 007a 1844     		add	r0, r0, r3
 784:lvgl/src/widgets/lv_arc.c ****     center->y = obj->coords.y1 + r + top_bg;
 595              		.loc 1 784 36 discriminator 4 view .LVU201
 596 007c 019A     		ldr	r2, [sp, #4]
 597 007e 12FA80F0 		uxtah	r0, r2, r0
 784:lvgl/src/widgets/lv_arc.c ****     center->y = obj->coords.y1 + r + top_bg;
 598              		.loc 1 784 15 discriminator 4 view .LVU202
 599 0082 3080     		strh	r0, [r6]	@ movhi
 785:lvgl/src/widgets/lv_arc.c **** 
 600              		.loc 1 785 5 is_stmt 1 discriminator 4 view .LVU203
 785:lvgl/src/widgets/lv_arc.c **** 
 601              		.loc 1 785 28 is_stmt 0 discriminator 4 view .LVU204
 602 0084 E08A     		ldrh	r0, [r4, #22]
 785:lvgl/src/widgets/lv_arc.c **** 
 603              		.loc 1 785 32 discriminator 4 view .LVU205
 604 0086 0344     		add	r3, r3, r0
 785:lvgl/src/widgets/lv_arc.c **** 
 605              		.loc 1 785 36 discriminator 4 view .LVU206
 606 0088 009A     		ldr	r2, [sp]
 607 008a 12FA83F0 		uxtah	r0, r2, r3
 785:lvgl/src/widgets/lv_arc.c **** 
 608              		.loc 1 785 15 discriminator 4 view .LVU207
 609 008e 7080     		strh	r0, [r6, #2]	@ movhi
 787:lvgl/src/widgets/lv_arc.c **** }
 610              		.loc 1 787 5 is_stmt 1 discriminator 4 view .LVU208
 787:lvgl/src/widgets/lv_arc.c **** }
 611              		.loc 1 787 7 is_stmt 0 discriminator 4 view .LVU209
 612 0090 B9F1000F 		cmp	r9, #0
 613 0094 01D0     		beq	.L33
 787:lvgl/src/widgets/lv_arc.c **** }
 614              		.loc 1 787 15 is_stmt 1 discriminator 1 view .LVU210
 787:lvgl/src/widgets/lv_arc.c **** }
 615              		.loc 1 787 22 is_stmt 0 discriminator 1 view .LVU211
 616 0096 A9F80070 		strh	r7, [r9]	@ movhi
 617              	.L33:
 788:lvgl/src/widgets/lv_arc.c **** 
 618              		.loc 1 788 1 view .LVU212
 619 009a 03B0     		add	sp, sp, #12
ARM GAS  C:\Users\OSD\AppData\Local\Temp\ccR88enE.s 			page 34


 620              		.cfi_remember_state
 621              		.cfi_def_cfa_offset 36
 622              	.LVL60:
 788:lvgl/src/widgets/lv_arc.c **** 
 623              		.loc 1 788 1 view .LVU213
 624              		@ sp needed
 625 009c BDE8F08F 		pop	{r4, r5, r6, r7, r8, r9, r10, fp, pc}
 626              	.LVL61:
 627              	.L40:
 628              		.cfi_restore_state
 782:lvgl/src/widgets/lv_arc.c **** 
 629              		.loc 1 782 74 discriminator 1 view .LVU214
 630 00a0 0BF1010B 		add	fp, fp, #1
 631 00a4 E5E7     		b	.L35
 632              	.LVL62:
 633              	.L34:
 781:lvgl/src/widgets/lv_arc.c ****                            lv_obj_get_height(obj) - top_bg - bottom_bg)) / 2;
 634              		.loc 1 781 21 discriminator 2 view .LVU215
 635 00a6 2046     		mov	r0, r4
 636 00a8 FFF7FEFF 		bl	lv_obj_get_height
 637              	.LVL63:
 638 00ac A0EB0A0A 		sub	r10, r0, r10
 639              	.LVL64:
 782:lvgl/src/widgets/lv_arc.c **** 
 640              		.loc 1 782 74 discriminator 2 view .LVU216
 641 00b0 BAEB0707 		subs	r7, r10, r7
 642              	.LVL65:
 782:lvgl/src/widgets/lv_arc.c **** 
 643              		.loc 1 782 74 discriminator 2 view .LVU217
 644 00b4 02D4     		bmi	.L41
 645              	.L37:
 781:lvgl/src/widgets/lv_arc.c ****                            lv_obj_get_height(obj) - top_bg - bottom_bg)) / 2;
 646              		.loc 1 781 16 discriminator 2 view .LVU218
 647 00b6 47F34F07 		sbfx	r7, r7, #1, #16
 648 00ba DCE7     		b	.L36
 649              	.L41:
 782:lvgl/src/widgets/lv_arc.c **** 
 650              		.loc 1 782 74 discriminator 2 view .LVU219
 651 00bc 0137     		adds	r7, r7, #1
 652 00be FAE7     		b	.L37
 653              		.cfi_endproc
 654              	.LFE188:
 656              		.section	.text.knob_get_extra_size,"ax",%progbits
 657              		.align	1
 658              		.syntax unified
 659              		.thumb
 660              		.thumb_func
 662              	knob_get_extra_size:
 663              	.LVL66:
 664              	.LFB192:
 885:lvgl/src/widgets/lv_arc.c ****     lv_coord_t knob_shadow_size = 0;
 665              		.loc 1 885 1 is_stmt 1 view -0
 666              		.cfi_startproc
 667              		@ args = 0, pretend = 0, frame = 0
 668              		@ frame_needed = 0, uses_anonymous_args = 0
 885:lvgl/src/widgets/lv_arc.c ****     lv_coord_t knob_shadow_size = 0;
 669              		.loc 1 885 1 is_stmt 0 view .LVU221
ARM GAS  C:\Users\OSD\AppData\Local\Temp\ccR88enE.s 			page 35


 670 0000 70B5     		push	{r4, r5, r6, lr}
 671              		.cfi_def_cfa_offset 16
 672              		.cfi_offset 4, -16
 673              		.cfi_offset 5, -12
 674              		.cfi_offset 6, -8
 675              		.cfi_offset 14, -4
 676 0002 0546     		mov	r5, r0
 886:lvgl/src/widgets/lv_arc.c ****     knob_shadow_size += lv_obj_get_style_shadow_width(obj, LV_PART_KNOB);
 677              		.loc 1 886 5 is_stmt 1 view .LVU222
 678              	.LVL67:
 887:lvgl/src/widgets/lv_arc.c ****     knob_shadow_size += lv_obj_get_style_shadow_spread(obj, LV_PART_KNOB);
 679              		.loc 1 887 5 view .LVU223
 680              	.LBB92:
 681              	.LBI92:
 125:lvgl/src/widgets/../core/lv_obj_style_gen.h **** }
 126:lvgl/src/widgets/../core/lv_obj_style_gen.h **** 
 127:lvgl/src/widgets/../core/lv_obj_style_gen.h **** static inline lv_coord_t lv_obj_get_style_pad_row(const struct _lv_obj_t * obj, uint32_t part)
 128:lvgl/src/widgets/../core/lv_obj_style_gen.h **** {
 129:lvgl/src/widgets/../core/lv_obj_style_gen.h ****     lv_style_value_t v = lv_obj_get_style_prop(obj, part, LV_STYLE_PAD_ROW);
 130:lvgl/src/widgets/../core/lv_obj_style_gen.h ****     return (lv_coord_t)v.num;
 131:lvgl/src/widgets/../core/lv_obj_style_gen.h **** }
 132:lvgl/src/widgets/../core/lv_obj_style_gen.h **** 
 133:lvgl/src/widgets/../core/lv_obj_style_gen.h **** static inline lv_coord_t lv_obj_get_style_pad_column(const struct _lv_obj_t * obj, uint32_t part)
 134:lvgl/src/widgets/../core/lv_obj_style_gen.h **** {
 135:lvgl/src/widgets/../core/lv_obj_style_gen.h ****     lv_style_value_t v = lv_obj_get_style_prop(obj, part, LV_STYLE_PAD_COLUMN);
 136:lvgl/src/widgets/../core/lv_obj_style_gen.h ****     return (lv_coord_t)v.num;
 137:lvgl/src/widgets/../core/lv_obj_style_gen.h **** }
 138:lvgl/src/widgets/../core/lv_obj_style_gen.h **** 
 139:lvgl/src/widgets/../core/lv_obj_style_gen.h **** static inline lv_color_t lv_obj_get_style_bg_color(const struct _lv_obj_t * obj, uint32_t part)
 140:lvgl/src/widgets/../core/lv_obj_style_gen.h **** {
 141:lvgl/src/widgets/../core/lv_obj_style_gen.h ****     lv_style_value_t v = lv_obj_get_style_prop(obj, part, LV_STYLE_BG_COLOR);
 142:lvgl/src/widgets/../core/lv_obj_style_gen.h ****     return v.color;
 143:lvgl/src/widgets/../core/lv_obj_style_gen.h **** }
 144:lvgl/src/widgets/../core/lv_obj_style_gen.h **** 
 145:lvgl/src/widgets/../core/lv_obj_style_gen.h **** static inline lv_color_t lv_obj_get_style_bg_color_filtered(const struct _lv_obj_t * obj, uint32_t 
 146:lvgl/src/widgets/../core/lv_obj_style_gen.h **** {
 147:lvgl/src/widgets/../core/lv_obj_style_gen.h ****     lv_style_value_t v = _lv_obj_style_apply_color_filter(obj, part, lv_obj_get_style_prop(obj, par
 148:lvgl/src/widgets/../core/lv_obj_style_gen.h ****     return v.color;
 149:lvgl/src/widgets/../core/lv_obj_style_gen.h **** }
 150:lvgl/src/widgets/../core/lv_obj_style_gen.h **** 
 151:lvgl/src/widgets/../core/lv_obj_style_gen.h **** static inline lv_opa_t lv_obj_get_style_bg_opa(const struct _lv_obj_t * obj, uint32_t part)
 152:lvgl/src/widgets/../core/lv_obj_style_gen.h **** {
 153:lvgl/src/widgets/../core/lv_obj_style_gen.h ****     lv_style_value_t v = lv_obj_get_style_prop(obj, part, LV_STYLE_BG_OPA);
 154:lvgl/src/widgets/../core/lv_obj_style_gen.h ****     return (lv_opa_t)v.num;
 155:lvgl/src/widgets/../core/lv_obj_style_gen.h **** }
 156:lvgl/src/widgets/../core/lv_obj_style_gen.h **** 
 157:lvgl/src/widgets/../core/lv_obj_style_gen.h **** static inline lv_color_t lv_obj_get_style_bg_grad_color(const struct _lv_obj_t * obj, uint32_t part
 158:lvgl/src/widgets/../core/lv_obj_style_gen.h **** {
 159:lvgl/src/widgets/../core/lv_obj_style_gen.h ****     lv_style_value_t v = lv_obj_get_style_prop(obj, part, LV_STYLE_BG_GRAD_COLOR);
 160:lvgl/src/widgets/../core/lv_obj_style_gen.h ****     return v.color;
 161:lvgl/src/widgets/../core/lv_obj_style_gen.h **** }
 162:lvgl/src/widgets/../core/lv_obj_style_gen.h **** 
 163:lvgl/src/widgets/../core/lv_obj_style_gen.h **** static inline lv_color_t lv_obj_get_style_bg_grad_color_filtered(const struct _lv_obj_t * obj, uint
 164:lvgl/src/widgets/../core/lv_obj_style_gen.h **** {
 165:lvgl/src/widgets/../core/lv_obj_style_gen.h ****     lv_style_value_t v = _lv_obj_style_apply_color_filter(obj, part, lv_obj_get_style_prop(obj, par
 166:lvgl/src/widgets/../core/lv_obj_style_gen.h ****     return v.color;
 167:lvgl/src/widgets/../core/lv_obj_style_gen.h **** }
ARM GAS  C:\Users\OSD\AppData\Local\Temp\ccR88enE.s 			page 36


 168:lvgl/src/widgets/../core/lv_obj_style_gen.h **** 
 169:lvgl/src/widgets/../core/lv_obj_style_gen.h **** static inline lv_grad_dir_t lv_obj_get_style_bg_grad_dir(const struct _lv_obj_t * obj, uint32_t par
 170:lvgl/src/widgets/../core/lv_obj_style_gen.h **** {
 171:lvgl/src/widgets/../core/lv_obj_style_gen.h ****     lv_style_value_t v = lv_obj_get_style_prop(obj, part, LV_STYLE_BG_GRAD_DIR);
 172:lvgl/src/widgets/../core/lv_obj_style_gen.h ****     return (lv_grad_dir_t)v.num;
 173:lvgl/src/widgets/../core/lv_obj_style_gen.h **** }
 174:lvgl/src/widgets/../core/lv_obj_style_gen.h **** 
 175:lvgl/src/widgets/../core/lv_obj_style_gen.h **** static inline lv_coord_t lv_obj_get_style_bg_main_stop(const struct _lv_obj_t * obj, uint32_t part)
 176:lvgl/src/widgets/../core/lv_obj_style_gen.h **** {
 177:lvgl/src/widgets/../core/lv_obj_style_gen.h ****     lv_style_value_t v = lv_obj_get_style_prop(obj, part, LV_STYLE_BG_MAIN_STOP);
 178:lvgl/src/widgets/../core/lv_obj_style_gen.h ****     return (lv_coord_t)v.num;
 179:lvgl/src/widgets/../core/lv_obj_style_gen.h **** }
 180:lvgl/src/widgets/../core/lv_obj_style_gen.h **** 
 181:lvgl/src/widgets/../core/lv_obj_style_gen.h **** static inline lv_coord_t lv_obj_get_style_bg_grad_stop(const struct _lv_obj_t * obj, uint32_t part)
 182:lvgl/src/widgets/../core/lv_obj_style_gen.h **** {
 183:lvgl/src/widgets/../core/lv_obj_style_gen.h ****     lv_style_value_t v = lv_obj_get_style_prop(obj, part, LV_STYLE_BG_GRAD_STOP);
 184:lvgl/src/widgets/../core/lv_obj_style_gen.h ****     return (lv_coord_t)v.num;
 185:lvgl/src/widgets/../core/lv_obj_style_gen.h **** }
 186:lvgl/src/widgets/../core/lv_obj_style_gen.h **** 
 187:lvgl/src/widgets/../core/lv_obj_style_gen.h **** static inline const lv_grad_dsc_t * lv_obj_get_style_bg_grad(const struct _lv_obj_t * obj, uint32_t
 188:lvgl/src/widgets/../core/lv_obj_style_gen.h **** {
 189:lvgl/src/widgets/../core/lv_obj_style_gen.h ****     lv_style_value_t v = lv_obj_get_style_prop(obj, part, LV_STYLE_BG_GRAD);
 190:lvgl/src/widgets/../core/lv_obj_style_gen.h ****     return (const lv_grad_dsc_t *)v.ptr;
 191:lvgl/src/widgets/../core/lv_obj_style_gen.h **** }
 192:lvgl/src/widgets/../core/lv_obj_style_gen.h **** 
 193:lvgl/src/widgets/../core/lv_obj_style_gen.h **** static inline lv_dither_mode_t lv_obj_get_style_bg_dither_mode(const struct _lv_obj_t * obj, uint32
 194:lvgl/src/widgets/../core/lv_obj_style_gen.h **** {
 195:lvgl/src/widgets/../core/lv_obj_style_gen.h ****     lv_style_value_t v = lv_obj_get_style_prop(obj, part, LV_STYLE_BG_DITHER_MODE);
 196:lvgl/src/widgets/../core/lv_obj_style_gen.h ****     return (lv_dither_mode_t)v.num;
 197:lvgl/src/widgets/../core/lv_obj_style_gen.h **** }
 198:lvgl/src/widgets/../core/lv_obj_style_gen.h **** 
 199:lvgl/src/widgets/../core/lv_obj_style_gen.h **** static inline const void * lv_obj_get_style_bg_img_src(const struct _lv_obj_t * obj, uint32_t part)
 200:lvgl/src/widgets/../core/lv_obj_style_gen.h **** {
 201:lvgl/src/widgets/../core/lv_obj_style_gen.h ****     lv_style_value_t v = lv_obj_get_style_prop(obj, part, LV_STYLE_BG_IMG_SRC);
 202:lvgl/src/widgets/../core/lv_obj_style_gen.h ****     return (const void *)v.ptr;
 203:lvgl/src/widgets/../core/lv_obj_style_gen.h **** }
 204:lvgl/src/widgets/../core/lv_obj_style_gen.h **** 
 205:lvgl/src/widgets/../core/lv_obj_style_gen.h **** static inline lv_opa_t lv_obj_get_style_bg_img_opa(const struct _lv_obj_t * obj, uint32_t part)
 206:lvgl/src/widgets/../core/lv_obj_style_gen.h **** {
 207:lvgl/src/widgets/../core/lv_obj_style_gen.h ****     lv_style_value_t v = lv_obj_get_style_prop(obj, part, LV_STYLE_BG_IMG_OPA);
 208:lvgl/src/widgets/../core/lv_obj_style_gen.h ****     return (lv_opa_t)v.num;
 209:lvgl/src/widgets/../core/lv_obj_style_gen.h **** }
 210:lvgl/src/widgets/../core/lv_obj_style_gen.h **** 
 211:lvgl/src/widgets/../core/lv_obj_style_gen.h **** static inline lv_color_t lv_obj_get_style_bg_img_recolor(const struct _lv_obj_t * obj, uint32_t par
 212:lvgl/src/widgets/../core/lv_obj_style_gen.h **** {
 213:lvgl/src/widgets/../core/lv_obj_style_gen.h ****     lv_style_value_t v = lv_obj_get_style_prop(obj, part, LV_STYLE_BG_IMG_RECOLOR);
 214:lvgl/src/widgets/../core/lv_obj_style_gen.h ****     return v.color;
 215:lvgl/src/widgets/../core/lv_obj_style_gen.h **** }
 216:lvgl/src/widgets/../core/lv_obj_style_gen.h **** 
 217:lvgl/src/widgets/../core/lv_obj_style_gen.h **** static inline lv_color_t lv_obj_get_style_bg_img_recolor_filtered(const struct _lv_obj_t * obj, uin
 218:lvgl/src/widgets/../core/lv_obj_style_gen.h **** {
 219:lvgl/src/widgets/../core/lv_obj_style_gen.h ****     lv_style_value_t v = _lv_obj_style_apply_color_filter(obj, part, lv_obj_get_style_prop(obj, par
 220:lvgl/src/widgets/../core/lv_obj_style_gen.h ****     return v.color;
 221:lvgl/src/widgets/../core/lv_obj_style_gen.h **** }
 222:lvgl/src/widgets/../core/lv_obj_style_gen.h **** 
 223:lvgl/src/widgets/../core/lv_obj_style_gen.h **** static inline lv_opa_t lv_obj_get_style_bg_img_recolor_opa(const struct _lv_obj_t * obj, uint32_t p
 224:lvgl/src/widgets/../core/lv_obj_style_gen.h **** {
ARM GAS  C:\Users\OSD\AppData\Local\Temp\ccR88enE.s 			page 37


 225:lvgl/src/widgets/../core/lv_obj_style_gen.h ****     lv_style_value_t v = lv_obj_get_style_prop(obj, part, LV_STYLE_BG_IMG_RECOLOR_OPA);
 226:lvgl/src/widgets/../core/lv_obj_style_gen.h ****     return (lv_opa_t)v.num;
 227:lvgl/src/widgets/../core/lv_obj_style_gen.h **** }
 228:lvgl/src/widgets/../core/lv_obj_style_gen.h **** 
 229:lvgl/src/widgets/../core/lv_obj_style_gen.h **** static inline bool lv_obj_get_style_bg_img_tiled(const struct _lv_obj_t * obj, uint32_t part)
 230:lvgl/src/widgets/../core/lv_obj_style_gen.h **** {
 231:lvgl/src/widgets/../core/lv_obj_style_gen.h ****     lv_style_value_t v = lv_obj_get_style_prop(obj, part, LV_STYLE_BG_IMG_TILED);
 232:lvgl/src/widgets/../core/lv_obj_style_gen.h ****     return (bool)v.num;
 233:lvgl/src/widgets/../core/lv_obj_style_gen.h **** }
 234:lvgl/src/widgets/../core/lv_obj_style_gen.h **** 
 235:lvgl/src/widgets/../core/lv_obj_style_gen.h **** static inline lv_color_t lv_obj_get_style_border_color(const struct _lv_obj_t * obj, uint32_t part)
 236:lvgl/src/widgets/../core/lv_obj_style_gen.h **** {
 237:lvgl/src/widgets/../core/lv_obj_style_gen.h ****     lv_style_value_t v = lv_obj_get_style_prop(obj, part, LV_STYLE_BORDER_COLOR);
 238:lvgl/src/widgets/../core/lv_obj_style_gen.h ****     return v.color;
 239:lvgl/src/widgets/../core/lv_obj_style_gen.h **** }
 240:lvgl/src/widgets/../core/lv_obj_style_gen.h **** 
 241:lvgl/src/widgets/../core/lv_obj_style_gen.h **** static inline lv_color_t lv_obj_get_style_border_color_filtered(const struct _lv_obj_t * obj, uint3
 242:lvgl/src/widgets/../core/lv_obj_style_gen.h **** {
 243:lvgl/src/widgets/../core/lv_obj_style_gen.h ****     lv_style_value_t v = _lv_obj_style_apply_color_filter(obj, part, lv_obj_get_style_prop(obj, par
 244:lvgl/src/widgets/../core/lv_obj_style_gen.h ****     return v.color;
 245:lvgl/src/widgets/../core/lv_obj_style_gen.h **** }
 246:lvgl/src/widgets/../core/lv_obj_style_gen.h **** 
 247:lvgl/src/widgets/../core/lv_obj_style_gen.h **** static inline lv_opa_t lv_obj_get_style_border_opa(const struct _lv_obj_t * obj, uint32_t part)
 248:lvgl/src/widgets/../core/lv_obj_style_gen.h **** {
 249:lvgl/src/widgets/../core/lv_obj_style_gen.h ****     lv_style_value_t v = lv_obj_get_style_prop(obj, part, LV_STYLE_BORDER_OPA);
 250:lvgl/src/widgets/../core/lv_obj_style_gen.h ****     return (lv_opa_t)v.num;
 251:lvgl/src/widgets/../core/lv_obj_style_gen.h **** }
 252:lvgl/src/widgets/../core/lv_obj_style_gen.h **** 
 253:lvgl/src/widgets/../core/lv_obj_style_gen.h **** static inline lv_coord_t lv_obj_get_style_border_width(const struct _lv_obj_t * obj, uint32_t part)
 254:lvgl/src/widgets/../core/lv_obj_style_gen.h **** {
 255:lvgl/src/widgets/../core/lv_obj_style_gen.h ****     lv_style_value_t v = lv_obj_get_style_prop(obj, part, LV_STYLE_BORDER_WIDTH);
 256:lvgl/src/widgets/../core/lv_obj_style_gen.h ****     return (lv_coord_t)v.num;
 257:lvgl/src/widgets/../core/lv_obj_style_gen.h **** }
 258:lvgl/src/widgets/../core/lv_obj_style_gen.h **** 
 259:lvgl/src/widgets/../core/lv_obj_style_gen.h **** static inline lv_border_side_t lv_obj_get_style_border_side(const struct _lv_obj_t * obj, uint32_t 
 260:lvgl/src/widgets/../core/lv_obj_style_gen.h **** {
 261:lvgl/src/widgets/../core/lv_obj_style_gen.h ****     lv_style_value_t v = lv_obj_get_style_prop(obj, part, LV_STYLE_BORDER_SIDE);
 262:lvgl/src/widgets/../core/lv_obj_style_gen.h ****     return (lv_border_side_t)v.num;
 263:lvgl/src/widgets/../core/lv_obj_style_gen.h **** }
 264:lvgl/src/widgets/../core/lv_obj_style_gen.h **** 
 265:lvgl/src/widgets/../core/lv_obj_style_gen.h **** static inline bool lv_obj_get_style_border_post(const struct _lv_obj_t * obj, uint32_t part)
 266:lvgl/src/widgets/../core/lv_obj_style_gen.h **** {
 267:lvgl/src/widgets/../core/lv_obj_style_gen.h ****     lv_style_value_t v = lv_obj_get_style_prop(obj, part, LV_STYLE_BORDER_POST);
 268:lvgl/src/widgets/../core/lv_obj_style_gen.h ****     return (bool)v.num;
 269:lvgl/src/widgets/../core/lv_obj_style_gen.h **** }
 270:lvgl/src/widgets/../core/lv_obj_style_gen.h **** 
 271:lvgl/src/widgets/../core/lv_obj_style_gen.h **** static inline lv_coord_t lv_obj_get_style_outline_width(const struct _lv_obj_t * obj, uint32_t part
 272:lvgl/src/widgets/../core/lv_obj_style_gen.h **** {
 273:lvgl/src/widgets/../core/lv_obj_style_gen.h ****     lv_style_value_t v = lv_obj_get_style_prop(obj, part, LV_STYLE_OUTLINE_WIDTH);
 274:lvgl/src/widgets/../core/lv_obj_style_gen.h ****     return (lv_coord_t)v.num;
 275:lvgl/src/widgets/../core/lv_obj_style_gen.h **** }
 276:lvgl/src/widgets/../core/lv_obj_style_gen.h **** 
 277:lvgl/src/widgets/../core/lv_obj_style_gen.h **** static inline lv_color_t lv_obj_get_style_outline_color(const struct _lv_obj_t * obj, uint32_t part
 278:lvgl/src/widgets/../core/lv_obj_style_gen.h **** {
 279:lvgl/src/widgets/../core/lv_obj_style_gen.h ****     lv_style_value_t v = lv_obj_get_style_prop(obj, part, LV_STYLE_OUTLINE_COLOR);
 280:lvgl/src/widgets/../core/lv_obj_style_gen.h ****     return v.color;
 281:lvgl/src/widgets/../core/lv_obj_style_gen.h **** }
ARM GAS  C:\Users\OSD\AppData\Local\Temp\ccR88enE.s 			page 38


 282:lvgl/src/widgets/../core/lv_obj_style_gen.h **** 
 283:lvgl/src/widgets/../core/lv_obj_style_gen.h **** static inline lv_color_t lv_obj_get_style_outline_color_filtered(const struct _lv_obj_t * obj, uint
 284:lvgl/src/widgets/../core/lv_obj_style_gen.h **** {
 285:lvgl/src/widgets/../core/lv_obj_style_gen.h ****     lv_style_value_t v = _lv_obj_style_apply_color_filter(obj, part, lv_obj_get_style_prop(obj, par
 286:lvgl/src/widgets/../core/lv_obj_style_gen.h ****     return v.color;
 287:lvgl/src/widgets/../core/lv_obj_style_gen.h **** }
 288:lvgl/src/widgets/../core/lv_obj_style_gen.h **** 
 289:lvgl/src/widgets/../core/lv_obj_style_gen.h **** static inline lv_opa_t lv_obj_get_style_outline_opa(const struct _lv_obj_t * obj, uint32_t part)
 290:lvgl/src/widgets/../core/lv_obj_style_gen.h **** {
 291:lvgl/src/widgets/../core/lv_obj_style_gen.h ****     lv_style_value_t v = lv_obj_get_style_prop(obj, part, LV_STYLE_OUTLINE_OPA);
 292:lvgl/src/widgets/../core/lv_obj_style_gen.h ****     return (lv_opa_t)v.num;
 293:lvgl/src/widgets/../core/lv_obj_style_gen.h **** }
 294:lvgl/src/widgets/../core/lv_obj_style_gen.h **** 
 295:lvgl/src/widgets/../core/lv_obj_style_gen.h **** static inline lv_coord_t lv_obj_get_style_outline_pad(const struct _lv_obj_t * obj, uint32_t part)
 296:lvgl/src/widgets/../core/lv_obj_style_gen.h **** {
 297:lvgl/src/widgets/../core/lv_obj_style_gen.h ****     lv_style_value_t v = lv_obj_get_style_prop(obj, part, LV_STYLE_OUTLINE_PAD);
 298:lvgl/src/widgets/../core/lv_obj_style_gen.h ****     return (lv_coord_t)v.num;
 299:lvgl/src/widgets/../core/lv_obj_style_gen.h **** }
 300:lvgl/src/widgets/../core/lv_obj_style_gen.h **** 
 301:lvgl/src/widgets/../core/lv_obj_style_gen.h **** static inline lv_coord_t lv_obj_get_style_shadow_width(const struct _lv_obj_t * obj, uint32_t part)
 682              		.loc 2 301 26 view .LVU224
 683              	.LBB93:
 302:lvgl/src/widgets/../core/lv_obj_style_gen.h **** {
 303:lvgl/src/widgets/../core/lv_obj_style_gen.h ****     lv_style_value_t v = lv_obj_get_style_prop(obj, part, LV_STYLE_SHADOW_WIDTH);
 684              		.loc 2 303 5 view .LVU225
 685              		.loc 2 303 26 is_stmt 0 view .LVU226
 686 0004 4022     		movs	r2, #64
 687 0006 4FF44031 		mov	r1, #196608
 688 000a FFF7FEFF 		bl	lv_obj_get_style_prop
 689              	.LVL68:
 304:lvgl/src/widgets/../core/lv_obj_style_gen.h ****     return (lv_coord_t)v.num;
 690              		.loc 2 304 5 is_stmt 1 view .LVU227
 691              		.loc 2 304 5 is_stmt 0 view .LVU228
 692              	.LBE93:
 693              	.LBE92:
 887:lvgl/src/widgets/lv_arc.c ****     knob_shadow_size += lv_obj_get_style_shadow_spread(obj, LV_PART_KNOB);
 694              		.loc 1 887 25 view .LVU229
 695 000e 84B2     		uxth	r4, r0
 696              	.LVL69:
 888:lvgl/src/widgets/lv_arc.c ****     knob_shadow_size += LV_ABS(lv_obj_get_style_shadow_ofs_x(obj, LV_PART_KNOB));
 697              		.loc 1 888 5 is_stmt 1 view .LVU230
 698              	.LBB94:
 699              	.LBI94:
 305:lvgl/src/widgets/../core/lv_obj_style_gen.h **** }
 306:lvgl/src/widgets/../core/lv_obj_style_gen.h **** 
 307:lvgl/src/widgets/../core/lv_obj_style_gen.h **** static inline lv_coord_t lv_obj_get_style_shadow_ofs_x(const struct _lv_obj_t * obj, uint32_t part)
 308:lvgl/src/widgets/../core/lv_obj_style_gen.h **** {
 309:lvgl/src/widgets/../core/lv_obj_style_gen.h ****     lv_style_value_t v = lv_obj_get_style_prop(obj, part, LV_STYLE_SHADOW_OFS_X);
 310:lvgl/src/widgets/../core/lv_obj_style_gen.h ****     return (lv_coord_t)v.num;
 311:lvgl/src/widgets/../core/lv_obj_style_gen.h **** }
 312:lvgl/src/widgets/../core/lv_obj_style_gen.h **** 
 313:lvgl/src/widgets/../core/lv_obj_style_gen.h **** static inline lv_coord_t lv_obj_get_style_shadow_ofs_y(const struct _lv_obj_t * obj, uint32_t part)
 314:lvgl/src/widgets/../core/lv_obj_style_gen.h **** {
 315:lvgl/src/widgets/../core/lv_obj_style_gen.h ****     lv_style_value_t v = lv_obj_get_style_prop(obj, part, LV_STYLE_SHADOW_OFS_Y);
 316:lvgl/src/widgets/../core/lv_obj_style_gen.h ****     return (lv_coord_t)v.num;
 317:lvgl/src/widgets/../core/lv_obj_style_gen.h **** }
 318:lvgl/src/widgets/../core/lv_obj_style_gen.h **** 
ARM GAS  C:\Users\OSD\AppData\Local\Temp\ccR88enE.s 			page 39


 319:lvgl/src/widgets/../core/lv_obj_style_gen.h **** static inline lv_coord_t lv_obj_get_style_shadow_spread(const struct _lv_obj_t * obj, uint32_t part
 700              		.loc 2 319 26 view .LVU231
 701              	.LBB95:
 320:lvgl/src/widgets/../core/lv_obj_style_gen.h **** {
 321:lvgl/src/widgets/../core/lv_obj_style_gen.h ****     lv_style_value_t v = lv_obj_get_style_prop(obj, part, LV_STYLE_SHADOW_SPREAD);
 702              		.loc 2 321 5 view .LVU232
 703              		.loc 2 321 26 is_stmt 0 view .LVU233
 704 0010 4322     		movs	r2, #67
 705 0012 4FF44031 		mov	r1, #196608
 706 0016 2846     		mov	r0, r5
 707              	.LVL70:
 708              		.loc 2 321 26 view .LVU234
 709 0018 FFF7FEFF 		bl	lv_obj_get_style_prop
 710              	.LVL71:
 322:lvgl/src/widgets/../core/lv_obj_style_gen.h ****     return (lv_coord_t)v.num;
 711              		.loc 2 322 5 is_stmt 1 view .LVU235
 712              		.loc 2 322 5 is_stmt 0 view .LVU236
 713              	.LBE95:
 714              	.LBE94:
 888:lvgl/src/widgets/lv_arc.c ****     knob_shadow_size += LV_ABS(lv_obj_get_style_shadow_ofs_x(obj, LV_PART_KNOB));
 715              		.loc 1 888 22 view .LVU237
 716 001c 14FA80F4 		uxtah	r4, r4, r0
 717 0020 A4B2     		uxth	r4, r4
 718              	.LVL72:
 889:lvgl/src/widgets/lv_arc.c ****     knob_shadow_size += LV_ABS(lv_obj_get_style_shadow_ofs_y(obj, LV_PART_KNOB));
 719              		.loc 1 889 5 is_stmt 1 view .LVU238
 720              	.LBB96:
 721              	.LBI96:
 307:lvgl/src/widgets/../core/lv_obj_style_gen.h **** {
 722              		.loc 2 307 26 view .LVU239
 723              	.LBB97:
 309:lvgl/src/widgets/../core/lv_obj_style_gen.h ****     return (lv_coord_t)v.num;
 724              		.loc 2 309 5 view .LVU240
 309:lvgl/src/widgets/../core/lv_obj_style_gen.h ****     return (lv_coord_t)v.num;
 725              		.loc 2 309 26 is_stmt 0 view .LVU241
 726 0022 4122     		movs	r2, #65
 727 0024 4FF44031 		mov	r1, #196608
 728 0028 2846     		mov	r0, r5
 729 002a FFF7FEFF 		bl	lv_obj_get_style_prop
 730              	.LVL73:
 310:lvgl/src/widgets/../core/lv_obj_style_gen.h **** }
 731              		.loc 2 310 5 is_stmt 1 view .LVU242
 310:lvgl/src/widgets/../core/lv_obj_style_gen.h **** }
 732              		.loc 2 310 12 is_stmt 0 view .LVU243
 733 002e 00B2     		sxth	r0, r0
 734              	.LVL74:
 310:lvgl/src/widgets/../core/lv_obj_style_gen.h **** }
 735              		.loc 2 310 12 view .LVU244
 736              	.LBE97:
 737              	.LBE96:
 889:lvgl/src/widgets/lv_arc.c ****     knob_shadow_size += LV_ABS(lv_obj_get_style_shadow_ofs_y(obj, LV_PART_KNOB));
 738              		.loc 1 889 25 view .LVU245
 739 0030 0028     		cmp	r0, #0
 740 0032 2EDD     		ble	.L43
 741              	.LVL75:
 742              	.LBB98:
 743              	.LBI98:
ARM GAS  C:\Users\OSD\AppData\Local\Temp\ccR88enE.s 			page 40


 307:lvgl/src/widgets/../core/lv_obj_style_gen.h **** {
 744              		.loc 2 307 26 is_stmt 1 view .LVU246
 745              	.LBB99:
 309:lvgl/src/widgets/../core/lv_obj_style_gen.h ****     return (lv_coord_t)v.num;
 746              		.loc 2 309 5 view .LVU247
 309:lvgl/src/widgets/../core/lv_obj_style_gen.h ****     return (lv_coord_t)v.num;
 747              		.loc 2 309 26 is_stmt 0 view .LVU248
 748 0034 4122     		movs	r2, #65
 749 0036 4FF44031 		mov	r1, #196608
 750 003a 2846     		mov	r0, r5
 751 003c FFF7FEFF 		bl	lv_obj_get_style_prop
 752              	.LVL76:
 310:lvgl/src/widgets/../core/lv_obj_style_gen.h **** }
 753              		.loc 2 310 5 is_stmt 1 view .LVU249
 310:lvgl/src/widgets/../core/lv_obj_style_gen.h **** }
 754              		.loc 2 310 12 is_stmt 0 view .LVU250
 755 0040 00B2     		sxth	r0, r0
 756              	.LVL77:
 757              	.L44:
 310:lvgl/src/widgets/../core/lv_obj_style_gen.h **** }
 758              		.loc 2 310 12 view .LVU251
 759              	.LBE99:
 760              	.LBE98:
 889:lvgl/src/widgets/lv_arc.c ****     knob_shadow_size += LV_ABS(lv_obj_get_style_shadow_ofs_y(obj, LV_PART_KNOB));
 761              		.loc 1 889 22 discriminator 4 view .LVU252
 762 0042 0444     		add	r4, r4, r0
 763              	.LVL78:
 889:lvgl/src/widgets/lv_arc.c ****     knob_shadow_size += LV_ABS(lv_obj_get_style_shadow_ofs_y(obj, LV_PART_KNOB));
 764              		.loc 1 889 22 discriminator 4 view .LVU253
 765 0044 A4B2     		uxth	r4, r4
 766              	.LVL79:
 890:lvgl/src/widgets/lv_arc.c **** 
 767              		.loc 1 890 5 is_stmt 1 discriminator 4 view .LVU254
 768              	.LBB100:
 769              	.LBI100:
 313:lvgl/src/widgets/../core/lv_obj_style_gen.h **** {
 770              		.loc 2 313 26 discriminator 4 view .LVU255
 771              	.LBB101:
 315:lvgl/src/widgets/../core/lv_obj_style_gen.h ****     return (lv_coord_t)v.num;
 772              		.loc 2 315 5 discriminator 4 view .LVU256
 315:lvgl/src/widgets/../core/lv_obj_style_gen.h ****     return (lv_coord_t)v.num;
 773              		.loc 2 315 26 is_stmt 0 discriminator 4 view .LVU257
 774 0046 4222     		movs	r2, #66
 775 0048 4FF44031 		mov	r1, #196608
 776 004c 2846     		mov	r0, r5
 777 004e FFF7FEFF 		bl	lv_obj_get_style_prop
 778              	.LVL80:
 316:lvgl/src/widgets/../core/lv_obj_style_gen.h **** }
 779              		.loc 2 316 5 is_stmt 1 discriminator 4 view .LVU258
 316:lvgl/src/widgets/../core/lv_obj_style_gen.h **** }
 780              		.loc 2 316 12 is_stmt 0 discriminator 4 view .LVU259
 781 0052 00B2     		sxth	r0, r0
 782              	.LVL81:
 316:lvgl/src/widgets/../core/lv_obj_style_gen.h **** }
 783              		.loc 2 316 12 discriminator 4 view .LVU260
 784              	.LBE101:
 785              	.LBE100:
ARM GAS  C:\Users\OSD\AppData\Local\Temp\ccR88enE.s 			page 41


 890:lvgl/src/widgets/lv_arc.c **** 
 786              		.loc 1 890 25 discriminator 4 view .LVU261
 787 0054 0028     		cmp	r0, #0
 788 0056 25DD     		ble	.L45
 789              	.LVL82:
 790              	.LBB102:
 791              	.LBI102:
 313:lvgl/src/widgets/../core/lv_obj_style_gen.h **** {
 792              		.loc 2 313 26 is_stmt 1 view .LVU262
 793              	.LBB103:
 315:lvgl/src/widgets/../core/lv_obj_style_gen.h ****     return (lv_coord_t)v.num;
 794              		.loc 2 315 5 view .LVU263
 315:lvgl/src/widgets/../core/lv_obj_style_gen.h ****     return (lv_coord_t)v.num;
 795              		.loc 2 315 26 is_stmt 0 view .LVU264
 796 0058 4222     		movs	r2, #66
 797 005a 4FF44031 		mov	r1, #196608
 798 005e 2846     		mov	r0, r5
 799 0060 FFF7FEFF 		bl	lv_obj_get_style_prop
 800              	.LVL83:
 316:lvgl/src/widgets/../core/lv_obj_style_gen.h **** }
 801              		.loc 2 316 5 is_stmt 1 view .LVU265
 316:lvgl/src/widgets/../core/lv_obj_style_gen.h **** }
 802              		.loc 2 316 12 is_stmt 0 view .LVU266
 803 0064 00B2     		sxth	r0, r0
 804              	.LVL84:
 805              	.L46:
 316:lvgl/src/widgets/../core/lv_obj_style_gen.h **** }
 806              		.loc 2 316 12 view .LVU267
 807              	.LBE103:
 808              	.LBE102:
 890:lvgl/src/widgets/lv_arc.c **** 
 809              		.loc 1 890 22 discriminator 4 view .LVU268
 810 0066 0444     		add	r4, r4, r0
 811              	.LVL85:
 890:lvgl/src/widgets/lv_arc.c **** 
 812              		.loc 1 890 22 discriminator 4 view .LVU269
 813 0068 24B2     		sxth	r4, r4
 814              	.LVL86:
 892:lvgl/src/widgets/lv_arc.c ****     knob_outline_size += lv_obj_get_style_outline_width(obj, LV_PART_KNOB);
 815              		.loc 1 892 5 is_stmt 1 discriminator 4 view .LVU270
 893:lvgl/src/widgets/lv_arc.c ****     knob_outline_size += lv_obj_get_style_outline_pad(obj, LV_PART_KNOB);
 816              		.loc 1 893 5 discriminator 4 view .LVU271
 817              	.LBB104:
 818              	.LBI104:
 271:lvgl/src/widgets/../core/lv_obj_style_gen.h **** {
 819              		.loc 2 271 26 discriminator 4 view .LVU272
 820              	.LBB105:
 273:lvgl/src/widgets/../core/lv_obj_style_gen.h ****     return (lv_coord_t)v.num;
 821              		.loc 2 273 5 discriminator 4 view .LVU273
 273:lvgl/src/widgets/../core/lv_obj_style_gen.h ****     return (lv_coord_t)v.num;
 822              		.loc 2 273 26 is_stmt 0 discriminator 4 view .LVU274
 823 006a 3522     		movs	r2, #53
 824 006c 4FF44031 		mov	r1, #196608
 825 0070 2846     		mov	r0, r5
 826 0072 FFF7FEFF 		bl	lv_obj_get_style_prop
 827              	.LVL87:
 274:lvgl/src/widgets/../core/lv_obj_style_gen.h **** }
ARM GAS  C:\Users\OSD\AppData\Local\Temp\ccR88enE.s 			page 42


 828              		.loc 2 274 5 is_stmt 1 discriminator 4 view .LVU275
 274:lvgl/src/widgets/../core/lv_obj_style_gen.h **** }
 829              		.loc 2 274 5 is_stmt 0 discriminator 4 view .LVU276
 830              	.LBE105:
 831              	.LBE104:
 893:lvgl/src/widgets/lv_arc.c ****     knob_outline_size += lv_obj_get_style_outline_pad(obj, LV_PART_KNOB);
 832              		.loc 1 893 26 discriminator 4 view .LVU277
 833 0076 86B2     		uxth	r6, r0
 834              	.LVL88:
 894:lvgl/src/widgets/lv_arc.c **** 
 835              		.loc 1 894 5 is_stmt 1 discriminator 4 view .LVU278
 836              	.LBB106:
 837              	.LBI106:
 295:lvgl/src/widgets/../core/lv_obj_style_gen.h **** {
 838              		.loc 2 295 26 discriminator 4 view .LVU279
 839              	.LBB107:
 297:lvgl/src/widgets/../core/lv_obj_style_gen.h ****     return (lv_coord_t)v.num;
 840              		.loc 2 297 5 discriminator 4 view .LVU280
 297:lvgl/src/widgets/../core/lv_obj_style_gen.h ****     return (lv_coord_t)v.num;
 841              		.loc 2 297 26 is_stmt 0 discriminator 4 view .LVU281
 842 0078 3822     		movs	r2, #56
 843 007a 4FF44031 		mov	r1, #196608
 844 007e 2846     		mov	r0, r5
 845              	.LVL89:
 297:lvgl/src/widgets/../core/lv_obj_style_gen.h ****     return (lv_coord_t)v.num;
 846              		.loc 2 297 26 discriminator 4 view .LVU282
 847 0080 FFF7FEFF 		bl	lv_obj_get_style_prop
 848              	.LVL90:
 298:lvgl/src/widgets/../core/lv_obj_style_gen.h **** }
 849              		.loc 2 298 5 is_stmt 1 discriminator 4 view .LVU283
 298:lvgl/src/widgets/../core/lv_obj_style_gen.h **** }
 850              		.loc 2 298 5 is_stmt 0 discriminator 4 view .LVU284
 851              	.LBE107:
 852              	.LBE106:
 894:lvgl/src/widgets/lv_arc.c **** 
 853              		.loc 1 894 23 discriminator 4 view .LVU285
 854 0084 16FA80F0 		uxtah	r0, r6, r0
 855 0088 00B2     		sxth	r0, r0
 856              	.LVL91:
 896:lvgl/src/widgets/lv_arc.c **** }
 857              		.loc 1 896 5 is_stmt 1 discriminator 4 view .LVU286
 897:lvgl/src/widgets/lv_arc.c **** 
 858              		.loc 1 897 1 is_stmt 0 discriminator 4 view .LVU287
 859 008a A042     		cmp	r0, r4
 860 008c B8BF     		it	lt
 861 008e 2046     		movlt	r0, r4
 862              	.LVL92:
 897:lvgl/src/widgets/lv_arc.c **** 
 863              		.loc 1 897 1 discriminator 4 view .LVU288
 864 0090 70BD     		pop	{r4, r5, r6, pc}
 865              	.LVL93:
 866              	.L43:
 867              	.LBB108:
 868              	.LBI108:
 307:lvgl/src/widgets/../core/lv_obj_style_gen.h **** {
 869              		.loc 2 307 26 is_stmt 1 view .LVU289
 870              	.LBB109:
ARM GAS  C:\Users\OSD\AppData\Local\Temp\ccR88enE.s 			page 43


 309:lvgl/src/widgets/../core/lv_obj_style_gen.h ****     return (lv_coord_t)v.num;
 871              		.loc 2 309 5 view .LVU290
 309:lvgl/src/widgets/../core/lv_obj_style_gen.h ****     return (lv_coord_t)v.num;
 872              		.loc 2 309 26 is_stmt 0 view .LVU291
 873 0092 4122     		movs	r2, #65
 874 0094 4FF44031 		mov	r1, #196608
 875 0098 2846     		mov	r0, r5
 876 009a FFF7FEFF 		bl	lv_obj_get_style_prop
 877              	.LVL94:
 310:lvgl/src/widgets/../core/lv_obj_style_gen.h **** }
 878              		.loc 2 310 5 is_stmt 1 view .LVU292
 310:lvgl/src/widgets/../core/lv_obj_style_gen.h **** }
 879              		.loc 2 310 12 is_stmt 0 view .LVU293
 880 009e 00B2     		sxth	r0, r0
 881              	.LVL95:
 310:lvgl/src/widgets/../core/lv_obj_style_gen.h **** }
 882              		.loc 2 310 12 view .LVU294
 883              	.LBE109:
 884              	.LBE108:
 889:lvgl/src/widgets/lv_arc.c ****     knob_shadow_size += LV_ABS(lv_obj_get_style_shadow_ofs_y(obj, LV_PART_KNOB));
 885              		.loc 1 889 25 view .LVU295
 886 00a0 4042     		rsbs	r0, r0, #0
 887 00a2 CEE7     		b	.L44
 888              	.L45:
 889              	.LVL96:
 890              	.LBB110:
 891              	.LBI110:
 313:lvgl/src/widgets/../core/lv_obj_style_gen.h **** {
 892              		.loc 2 313 26 is_stmt 1 view .LVU296
 893              	.LBB111:
 315:lvgl/src/widgets/../core/lv_obj_style_gen.h ****     return (lv_coord_t)v.num;
 894              		.loc 2 315 5 view .LVU297
 315:lvgl/src/widgets/../core/lv_obj_style_gen.h ****     return (lv_coord_t)v.num;
 895              		.loc 2 315 26 is_stmt 0 view .LVU298
 896 00a4 4222     		movs	r2, #66
 897 00a6 4FF44031 		mov	r1, #196608
 898 00aa 2846     		mov	r0, r5
 899 00ac FFF7FEFF 		bl	lv_obj_get_style_prop
 900              	.LVL97:
 316:lvgl/src/widgets/../core/lv_obj_style_gen.h **** }
 901              		.loc 2 316 5 is_stmt 1 view .LVU299
 316:lvgl/src/widgets/../core/lv_obj_style_gen.h **** }
 902              		.loc 2 316 12 is_stmt 0 view .LVU300
 903 00b0 00B2     		sxth	r0, r0
 904              	.LVL98:
 316:lvgl/src/widgets/../core/lv_obj_style_gen.h **** }
 905              		.loc 2 316 12 view .LVU301
 906              	.LBE111:
 907              	.LBE110:
 890:lvgl/src/widgets/lv_arc.c **** 
 908              		.loc 1 890 25 view .LVU302
 909 00b2 4042     		rsbs	r0, r0, #0
 910 00b4 D7E7     		b	.L46
 911              		.cfi_endproc
 912              	.LFE192:
 914              		.section	.text.get_knob_area,"ax",%progbits
 915              		.align	1
ARM GAS  C:\Users\OSD\AppData\Local\Temp\ccR88enE.s 			page 44


 916              		.syntax unified
 917              		.thumb
 918              		.thumb_func
 920              	get_knob_area:
 921              	.LVL99:
 922              	.LFB190:
 816:lvgl/src/widgets/lv_arc.c ****     lv_coord_t indic_width = lv_obj_get_style_arc_width(obj, LV_PART_INDICATOR);
 923              		.loc 1 816 1 is_stmt 1 view -0
 924              		.cfi_startproc
 925              		@ args = 0, pretend = 0, frame = 8
 926              		@ frame_needed = 0, uses_anonymous_args = 0
 816:lvgl/src/widgets/lv_arc.c ****     lv_coord_t indic_width = lv_obj_get_style_arc_width(obj, LV_PART_INDICATOR);
 927              		.loc 1 816 1 is_stmt 0 view .LVU304
 928 0000 2DE9F04F 		push	{r4, r5, r6, r7, r8, r9, r10, fp, lr}
 929              		.cfi_def_cfa_offset 36
 930              		.cfi_offset 4, -36
 931              		.cfi_offset 5, -32
 932              		.cfi_offset 6, -28
 933              		.cfi_offset 7, -24
 934              		.cfi_offset 8, -20
 935              		.cfi_offset 9, -16
 936              		.cfi_offset 10, -12
 937              		.cfi_offset 11, -8
 938              		.cfi_offset 14, -4
 939 0004 83B0     		sub	sp, sp, #12
 940              		.cfi_def_cfa_offset 48
 941 0006 0746     		mov	r7, r0
 942 0008 8946     		mov	r9, r1
 943 000a 1446     		mov	r4, r2
 944 000c 9846     		mov	r8, r3
 817:lvgl/src/widgets/lv_arc.c ****     lv_coord_t indic_width_half = indic_width / 2;
 945              		.loc 1 817 5 is_stmt 1 view .LVU305
 946              	.LVL100:
 947              	.LBB112:
 948              	.LBI112:
 323:lvgl/src/widgets/../core/lv_obj_style_gen.h **** }
 324:lvgl/src/widgets/../core/lv_obj_style_gen.h **** 
 325:lvgl/src/widgets/../core/lv_obj_style_gen.h **** static inline lv_color_t lv_obj_get_style_shadow_color(const struct _lv_obj_t * obj, uint32_t part)
 326:lvgl/src/widgets/../core/lv_obj_style_gen.h **** {
 327:lvgl/src/widgets/../core/lv_obj_style_gen.h ****     lv_style_value_t v = lv_obj_get_style_prop(obj, part, LV_STYLE_SHADOW_COLOR);
 328:lvgl/src/widgets/../core/lv_obj_style_gen.h ****     return v.color;
 329:lvgl/src/widgets/../core/lv_obj_style_gen.h **** }
 330:lvgl/src/widgets/../core/lv_obj_style_gen.h **** 
 331:lvgl/src/widgets/../core/lv_obj_style_gen.h **** static inline lv_color_t lv_obj_get_style_shadow_color_filtered(const struct _lv_obj_t * obj, uint3
 332:lvgl/src/widgets/../core/lv_obj_style_gen.h **** {
 333:lvgl/src/widgets/../core/lv_obj_style_gen.h ****     lv_style_value_t v = _lv_obj_style_apply_color_filter(obj, part, lv_obj_get_style_prop(obj, par
 334:lvgl/src/widgets/../core/lv_obj_style_gen.h ****     return v.color;
 335:lvgl/src/widgets/../core/lv_obj_style_gen.h **** }
 336:lvgl/src/widgets/../core/lv_obj_style_gen.h **** 
 337:lvgl/src/widgets/../core/lv_obj_style_gen.h **** static inline lv_opa_t lv_obj_get_style_shadow_opa(const struct _lv_obj_t * obj, uint32_t part)
 338:lvgl/src/widgets/../core/lv_obj_style_gen.h **** {
 339:lvgl/src/widgets/../core/lv_obj_style_gen.h ****     lv_style_value_t v = lv_obj_get_style_prop(obj, part, LV_STYLE_SHADOW_OPA);
 340:lvgl/src/widgets/../core/lv_obj_style_gen.h ****     return (lv_opa_t)v.num;
 341:lvgl/src/widgets/../core/lv_obj_style_gen.h **** }
 342:lvgl/src/widgets/../core/lv_obj_style_gen.h **** 
 343:lvgl/src/widgets/../core/lv_obj_style_gen.h **** static inline lv_opa_t lv_obj_get_style_img_opa(const struct _lv_obj_t * obj, uint32_t part)
 344:lvgl/src/widgets/../core/lv_obj_style_gen.h **** {
ARM GAS  C:\Users\OSD\AppData\Local\Temp\ccR88enE.s 			page 45


 345:lvgl/src/widgets/../core/lv_obj_style_gen.h ****     lv_style_value_t v = lv_obj_get_style_prop(obj, part, LV_STYLE_IMG_OPA);
 346:lvgl/src/widgets/../core/lv_obj_style_gen.h ****     return (lv_opa_t)v.num;
 347:lvgl/src/widgets/../core/lv_obj_style_gen.h **** }
 348:lvgl/src/widgets/../core/lv_obj_style_gen.h **** 
 349:lvgl/src/widgets/../core/lv_obj_style_gen.h **** static inline lv_color_t lv_obj_get_style_img_recolor(const struct _lv_obj_t * obj, uint32_t part)
 350:lvgl/src/widgets/../core/lv_obj_style_gen.h **** {
 351:lvgl/src/widgets/../core/lv_obj_style_gen.h ****     lv_style_value_t v = lv_obj_get_style_prop(obj, part, LV_STYLE_IMG_RECOLOR);
 352:lvgl/src/widgets/../core/lv_obj_style_gen.h ****     return v.color;
 353:lvgl/src/widgets/../core/lv_obj_style_gen.h **** }
 354:lvgl/src/widgets/../core/lv_obj_style_gen.h **** 
 355:lvgl/src/widgets/../core/lv_obj_style_gen.h **** static inline lv_color_t lv_obj_get_style_img_recolor_filtered(const struct _lv_obj_t * obj, uint32
 356:lvgl/src/widgets/../core/lv_obj_style_gen.h **** {
 357:lvgl/src/widgets/../core/lv_obj_style_gen.h ****     lv_style_value_t v = _lv_obj_style_apply_color_filter(obj, part, lv_obj_get_style_prop(obj, par
 358:lvgl/src/widgets/../core/lv_obj_style_gen.h ****     return v.color;
 359:lvgl/src/widgets/../core/lv_obj_style_gen.h **** }
 360:lvgl/src/widgets/../core/lv_obj_style_gen.h **** 
 361:lvgl/src/widgets/../core/lv_obj_style_gen.h **** static inline lv_opa_t lv_obj_get_style_img_recolor_opa(const struct _lv_obj_t * obj, uint32_t part
 362:lvgl/src/widgets/../core/lv_obj_style_gen.h **** {
 363:lvgl/src/widgets/../core/lv_obj_style_gen.h ****     lv_style_value_t v = lv_obj_get_style_prop(obj, part, LV_STYLE_IMG_RECOLOR_OPA);
 364:lvgl/src/widgets/../core/lv_obj_style_gen.h ****     return (lv_opa_t)v.num;
 365:lvgl/src/widgets/../core/lv_obj_style_gen.h **** }
 366:lvgl/src/widgets/../core/lv_obj_style_gen.h **** 
 367:lvgl/src/widgets/../core/lv_obj_style_gen.h **** static inline lv_coord_t lv_obj_get_style_line_width(const struct _lv_obj_t * obj, uint32_t part)
 368:lvgl/src/widgets/../core/lv_obj_style_gen.h **** {
 369:lvgl/src/widgets/../core/lv_obj_style_gen.h ****     lv_style_value_t v = lv_obj_get_style_prop(obj, part, LV_STYLE_LINE_WIDTH);
 370:lvgl/src/widgets/../core/lv_obj_style_gen.h ****     return (lv_coord_t)v.num;
 371:lvgl/src/widgets/../core/lv_obj_style_gen.h **** }
 372:lvgl/src/widgets/../core/lv_obj_style_gen.h **** 
 373:lvgl/src/widgets/../core/lv_obj_style_gen.h **** static inline lv_coord_t lv_obj_get_style_line_dash_width(const struct _lv_obj_t * obj, uint32_t pa
 374:lvgl/src/widgets/../core/lv_obj_style_gen.h **** {
 375:lvgl/src/widgets/../core/lv_obj_style_gen.h ****     lv_style_value_t v = lv_obj_get_style_prop(obj, part, LV_STYLE_LINE_DASH_WIDTH);
 376:lvgl/src/widgets/../core/lv_obj_style_gen.h ****     return (lv_coord_t)v.num;
 377:lvgl/src/widgets/../core/lv_obj_style_gen.h **** }
 378:lvgl/src/widgets/../core/lv_obj_style_gen.h **** 
 379:lvgl/src/widgets/../core/lv_obj_style_gen.h **** static inline lv_coord_t lv_obj_get_style_line_dash_gap(const struct _lv_obj_t * obj, uint32_t part
 380:lvgl/src/widgets/../core/lv_obj_style_gen.h **** {
 381:lvgl/src/widgets/../core/lv_obj_style_gen.h ****     lv_style_value_t v = lv_obj_get_style_prop(obj, part, LV_STYLE_LINE_DASH_GAP);
 382:lvgl/src/widgets/../core/lv_obj_style_gen.h ****     return (lv_coord_t)v.num;
 383:lvgl/src/widgets/../core/lv_obj_style_gen.h **** }
 384:lvgl/src/widgets/../core/lv_obj_style_gen.h **** 
 385:lvgl/src/widgets/../core/lv_obj_style_gen.h **** static inline bool lv_obj_get_style_line_rounded(const struct _lv_obj_t * obj, uint32_t part)
 386:lvgl/src/widgets/../core/lv_obj_style_gen.h **** {
 387:lvgl/src/widgets/../core/lv_obj_style_gen.h ****     lv_style_value_t v = lv_obj_get_style_prop(obj, part, LV_STYLE_LINE_ROUNDED);
 388:lvgl/src/widgets/../core/lv_obj_style_gen.h ****     return (bool)v.num;
 389:lvgl/src/widgets/../core/lv_obj_style_gen.h **** }
 390:lvgl/src/widgets/../core/lv_obj_style_gen.h **** 
 391:lvgl/src/widgets/../core/lv_obj_style_gen.h **** static inline lv_color_t lv_obj_get_style_line_color(const struct _lv_obj_t * obj, uint32_t part)
 392:lvgl/src/widgets/../core/lv_obj_style_gen.h **** {
 393:lvgl/src/widgets/../core/lv_obj_style_gen.h ****     lv_style_value_t v = lv_obj_get_style_prop(obj, part, LV_STYLE_LINE_COLOR);
 394:lvgl/src/widgets/../core/lv_obj_style_gen.h ****     return v.color;
 395:lvgl/src/widgets/../core/lv_obj_style_gen.h **** }
 396:lvgl/src/widgets/../core/lv_obj_style_gen.h **** 
 397:lvgl/src/widgets/../core/lv_obj_style_gen.h **** static inline lv_color_t lv_obj_get_style_line_color_filtered(const struct _lv_obj_t * obj, uint32_
 398:lvgl/src/widgets/../core/lv_obj_style_gen.h **** {
 399:lvgl/src/widgets/../core/lv_obj_style_gen.h ****     lv_style_value_t v = _lv_obj_style_apply_color_filter(obj, part, lv_obj_get_style_prop(obj, par
 400:lvgl/src/widgets/../core/lv_obj_style_gen.h ****     return v.color;
 401:lvgl/src/widgets/../core/lv_obj_style_gen.h **** }
ARM GAS  C:\Users\OSD\AppData\Local\Temp\ccR88enE.s 			page 46


 402:lvgl/src/widgets/../core/lv_obj_style_gen.h **** 
 403:lvgl/src/widgets/../core/lv_obj_style_gen.h **** static inline lv_opa_t lv_obj_get_style_line_opa(const struct _lv_obj_t * obj, uint32_t part)
 404:lvgl/src/widgets/../core/lv_obj_style_gen.h **** {
 405:lvgl/src/widgets/../core/lv_obj_style_gen.h ****     lv_style_value_t v = lv_obj_get_style_prop(obj, part, LV_STYLE_LINE_OPA);
 406:lvgl/src/widgets/../core/lv_obj_style_gen.h ****     return (lv_opa_t)v.num;
 407:lvgl/src/widgets/../core/lv_obj_style_gen.h **** }
 408:lvgl/src/widgets/../core/lv_obj_style_gen.h **** 
 409:lvgl/src/widgets/../core/lv_obj_style_gen.h **** static inline lv_coord_t lv_obj_get_style_arc_width(const struct _lv_obj_t * obj, uint32_t part)
 949              		.loc 2 409 26 view .LVU306
 950              	.LBB113:
 410:lvgl/src/widgets/../core/lv_obj_style_gen.h **** {
 411:lvgl/src/widgets/../core/lv_obj_style_gen.h ****     lv_style_value_t v = lv_obj_get_style_prop(obj, part, LV_STYLE_ARC_WIDTH);
 951              		.loc 2 411 5 view .LVU307
 952              		.loc 2 411 26 is_stmt 0 view .LVU308
 953 000e 5022     		movs	r2, #80
 954              	.LVL101:
 955              		.loc 2 411 26 view .LVU309
 956 0010 4FF40031 		mov	r1, #131072
 957              	.LVL102:
 958              		.loc 2 411 26 view .LVU310
 959 0014 FFF7FEFF 		bl	lv_obj_get_style_prop
 960              	.LVL103:
 412:lvgl/src/widgets/../core/lv_obj_style_gen.h ****     return (lv_coord_t)v.num;
 961              		.loc 2 412 5 is_stmt 1 view .LVU311
 962              		.loc 2 412 12 is_stmt 0 view .LVU312
 963 0018 06B2     		sxth	r6, r0
 964              	.LVL104:
 965              		.loc 2 412 12 view .LVU313
 966              	.LBE113:
 967              	.LBE112:
 818:lvgl/src/widgets/lv_arc.c ****     r -= indic_width_half;
 968              		.loc 1 818 5 is_stmt 1 view .LVU314
 818:lvgl/src/widgets/lv_arc.c ****     r -= indic_width_half;
 969              		.loc 1 818 16 is_stmt 0 view .LVU315
 970 001a 002E     		cmp	r6, #0
 971 001c 5CDB     		blt	.L51
 972              	.L49:
 973              	.LVL105:
 819:lvgl/src/widgets/lv_arc.c **** 
 974              		.loc 1 819 5 is_stmt 1 view .LVU316
 819:lvgl/src/widgets/lv_arc.c **** 
 975              		.loc 1 819 7 is_stmt 0 view .LVU317
 976 001e C6F34F06 		ubfx	r6, r6, #1, #16
 977              	.LVL106:
 819:lvgl/src/widgets/lv_arc.c **** 
 978              		.loc 1 819 7 view .LVU318
 979 0022 A41B     		subs	r4, r4, r6
 980 0024 24B2     		sxth	r4, r4
 981              	.LVL107:
 821:lvgl/src/widgets/lv_arc.c ****     lv_coord_t knob_x = (r * lv_trigo_sin(angle + 90)) >> LV_TRIGO_SHIFT;
 982              		.loc 1 821 5 is_stmt 1 view .LVU319
 821:lvgl/src/widgets/lv_arc.c ****     lv_coord_t knob_x = (r * lv_trigo_sin(angle + 90)) >> LV_TRIGO_SHIFT;
 983              		.loc 1 821 24 is_stmt 0 view .LVU320
 984 0026 3846     		mov	r0, r7
 985 0028 FFF7FEFF 		bl	get_angle
 986              	.LVL108:
 987 002c 8246     		mov	r10, r0
ARM GAS  C:\Users\OSD\AppData\Local\Temp\ccR88enE.s 			page 47


 988              	.LVL109:
 822:lvgl/src/widgets/lv_arc.c ****     lv_coord_t knob_y = (r * lv_trigo_sin(angle)) >> LV_TRIGO_SHIFT;
 989              		.loc 1 822 5 is_stmt 1 view .LVU321
 822:lvgl/src/widgets/lv_arc.c ****     lv_coord_t knob_y = (r * lv_trigo_sin(angle)) >> LV_TRIGO_SHIFT;
 990              		.loc 1 822 49 is_stmt 0 view .LVU322
 991 002e 5A30     		adds	r0, r0, #90
 992              	.LVL110:
 822:lvgl/src/widgets/lv_arc.c ****     lv_coord_t knob_y = (r * lv_trigo_sin(angle)) >> LV_TRIGO_SHIFT;
 993              		.loc 1 822 30 view .LVU323
 994 0030 00B2     		sxth	r0, r0
 995 0032 FFF7FEFF 		bl	lv_trigo_sin
 996              	.LVL111:
 822:lvgl/src/widgets/lv_arc.c ****     lv_coord_t knob_y = (r * lv_trigo_sin(angle)) >> LV_TRIGO_SHIFT;
 997              		.loc 1 822 28 view .LVU324
 998 0036 00FB04F5 		mul	r5, r0, r4
 822:lvgl/src/widgets/lv_arc.c ****     lv_coord_t knob_y = (r * lv_trigo_sin(angle)) >> LV_TRIGO_SHIFT;
 999              		.loc 1 822 56 view .LVU325
 1000 003a ED13     		asrs	r5, r5, #15
 1001              	.LVL112:
 823:lvgl/src/widgets/lv_arc.c **** 
 1002              		.loc 1 823 5 is_stmt 1 view .LVU326
 823:lvgl/src/widgets/lv_arc.c **** 
 1003              		.loc 1 823 30 is_stmt 0 view .LVU327
 1004 003c 5046     		mov	r0, r10
 1005 003e FFF7FEFF 		bl	lv_trigo_sin
 1006              	.LVL113:
 823:lvgl/src/widgets/lv_arc.c **** 
 1007              		.loc 1 823 28 view .LVU328
 1008 0042 00FB04F4 		mul	r4, r0, r4
 1009              	.LVL114:
 823:lvgl/src/widgets/lv_arc.c **** 
 1010              		.loc 1 823 51 view .LVU329
 1011 0046 E413     		asrs	r4, r4, #15
 1012              	.LVL115:
 825:lvgl/src/widgets/lv_arc.c ****     lv_coord_t right_knob = lv_obj_get_style_pad_right(obj, LV_PART_KNOB);
 1013              		.loc 1 825 5 is_stmt 1 view .LVU330
 1014              	.LBB114:
 1015              	.LBI114:
 115:lvgl/src/widgets/../core/lv_obj_style_gen.h **** {
 1016              		.loc 2 115 26 view .LVU331
 1017              	.LBB115:
 117:lvgl/src/widgets/../core/lv_obj_style_gen.h ****     return (lv_coord_t)v.num;
 1018              		.loc 2 117 5 view .LVU332
 117:lvgl/src/widgets/../core/lv_obj_style_gen.h ****     return (lv_coord_t)v.num;
 1019              		.loc 2 117 26 is_stmt 0 view .LVU333
 1020 0048 1222     		movs	r2, #18
 1021 004a 4FF44031 		mov	r1, #196608
 1022 004e 3846     		mov	r0, r7
 1023 0050 FFF7FEFF 		bl	lv_obj_get_style_prop
 1024              	.LVL116:
 1025 0054 8346     		mov	fp, r0
 1026              	.LVL117:
 118:lvgl/src/widgets/../core/lv_obj_style_gen.h **** }
 1027              		.loc 2 118 5 is_stmt 1 view .LVU334
 118:lvgl/src/widgets/../core/lv_obj_style_gen.h **** }
 1028              		.loc 2 118 5 is_stmt 0 view .LVU335
 1029              	.LBE115:
ARM GAS  C:\Users\OSD\AppData\Local\Temp\ccR88enE.s 			page 48


 1030              	.LBE114:
 826:lvgl/src/widgets/lv_arc.c ****     lv_coord_t top_knob = lv_obj_get_style_pad_top(obj, LV_PART_KNOB);
 1031              		.loc 1 826 5 is_stmt 1 view .LVU336
 1032              	.LBB116:
 1033              	.LBI116:
 121:lvgl/src/widgets/../core/lv_obj_style_gen.h **** {
 1034              		.loc 2 121 26 view .LVU337
 1035              	.LBB117:
 123:lvgl/src/widgets/../core/lv_obj_style_gen.h ****     return (lv_coord_t)v.num;
 1036              		.loc 2 123 5 view .LVU338
 123:lvgl/src/widgets/../core/lv_obj_style_gen.h ****     return (lv_coord_t)v.num;
 1037              		.loc 2 123 26 is_stmt 0 view .LVU339
 1038 0056 1322     		movs	r2, #19
 1039 0058 4FF44031 		mov	r1, #196608
 1040 005c 3846     		mov	r0, r7
 1041 005e FFF7FEFF 		bl	lv_obj_get_style_prop
 1042              	.LVL118:
 1043 0062 8246     		mov	r10, r0
 1044              	.LVL119:
 124:lvgl/src/widgets/../core/lv_obj_style_gen.h **** }
 1045              		.loc 2 124 5 is_stmt 1 view .LVU340
 124:lvgl/src/widgets/../core/lv_obj_style_gen.h **** }
 1046              		.loc 2 124 5 is_stmt 0 view .LVU341
 1047              	.LBE117:
 1048              	.LBE116:
 827:lvgl/src/widgets/lv_arc.c ****     lv_coord_t bottom_knob = lv_obj_get_style_pad_bottom(obj, LV_PART_KNOB);
 1049              		.loc 1 827 5 is_stmt 1 view .LVU342
 1050              	.LBB118:
 1051              	.LBI118:
 103:lvgl/src/widgets/../core/lv_obj_style_gen.h **** {
 1052              		.loc 2 103 26 view .LVU343
 1053              	.LBB119:
 105:lvgl/src/widgets/../core/lv_obj_style_gen.h ****     return (lv_coord_t)v.num;
 1054              		.loc 2 105 5 view .LVU344
 105:lvgl/src/widgets/../core/lv_obj_style_gen.h ****     return (lv_coord_t)v.num;
 1055              		.loc 2 105 26 is_stmt 0 view .LVU345
 1056 0064 1022     		movs	r2, #16
 1057 0066 4FF44031 		mov	r1, #196608
 1058 006a 3846     		mov	r0, r7
 1059 006c FFF7FEFF 		bl	lv_obj_get_style_prop
 1060              	.LVL120:
 1061 0070 0190     		str	r0, [sp, #4]
 106:lvgl/src/widgets/../core/lv_obj_style_gen.h **** }
 1062              		.loc 2 106 5 is_stmt 1 view .LVU346
 1063              	.LVL121:
 106:lvgl/src/widgets/../core/lv_obj_style_gen.h **** }
 1064              		.loc 2 106 5 is_stmt 0 view .LVU347
 1065              	.LBE119:
 1066              	.LBE118:
 828:lvgl/src/widgets/lv_arc.c **** 
 1067              		.loc 1 828 5 is_stmt 1 view .LVU348
 1068              	.LBB120:
 1069              	.LBI120:
 109:lvgl/src/widgets/../core/lv_obj_style_gen.h **** {
 1070              		.loc 2 109 26 view .LVU349
 1071              	.LBB121:
 111:lvgl/src/widgets/../core/lv_obj_style_gen.h ****     return (lv_coord_t)v.num;
ARM GAS  C:\Users\OSD\AppData\Local\Temp\ccR88enE.s 			page 49


 1072              		.loc 2 111 5 view .LVU350
 111:lvgl/src/widgets/../core/lv_obj_style_gen.h ****     return (lv_coord_t)v.num;
 1073              		.loc 2 111 26 is_stmt 0 view .LVU351
 1074 0072 1122     		movs	r2, #17
 1075 0074 4FF44031 		mov	r1, #196608
 1076 0078 3846     		mov	r0, r7
 1077 007a FFF7FEFF 		bl	lv_obj_get_style_prop
 1078              	.LVL122:
 112:lvgl/src/widgets/../core/lv_obj_style_gen.h **** }
 1079              		.loc 2 112 5 is_stmt 1 view .LVU352
 112:lvgl/src/widgets/../core/lv_obj_style_gen.h **** }
 1080              		.loc 2 112 5 is_stmt 0 view .LVU353
 1081              	.LBE121:
 1082              	.LBE120:
 830:lvgl/src/widgets/lv_arc.c ****     knob_area->x2 = center->x + knob_x + right_knob + indic_width_half;
 1083              		.loc 1 830 5 is_stmt 1 view .LVU354
 830:lvgl/src/widgets/lv_arc.c ****     knob_area->x2 = center->x + knob_x + right_knob + indic_width_half;
 1084              		.loc 1 830 27 is_stmt 0 view .LVU355
 1085 007e B9F80030 		ldrh	r3, [r9]
 830:lvgl/src/widgets/lv_arc.c ****     knob_area->x2 = center->x + knob_x + right_knob + indic_width_half;
 1086              		.loc 1 830 31 view .LVU356
 1087 0082 ADB2     		uxth	r5, r5
 830:lvgl/src/widgets/lv_arc.c ****     knob_area->x2 = center->x + knob_x + right_knob + indic_width_half;
 1088              		.loc 1 830 31 view .LVU357
 1089 0084 2B44     		add	r3, r3, r5
 1090 0086 9BB2     		uxth	r3, r3
 830:lvgl/src/widgets/lv_arc.c ****     knob_area->x2 = center->x + knob_x + right_knob + indic_width_half;
 1091              		.loc 1 830 40 view .LVU358
 1092 0088 A3EB0B0B 		sub	fp, r3, fp
 1093              	.LVL123:
 830:lvgl/src/widgets/lv_arc.c ****     knob_area->x2 = center->x + knob_x + right_knob + indic_width_half;
 1094              		.loc 1 830 40 view .LVU359
 1095 008c 1FFA8BFB 		uxth	fp, fp
 830:lvgl/src/widgets/lv_arc.c ****     knob_area->x2 = center->x + knob_x + right_knob + indic_width_half;
 1096              		.loc 1 830 52 view .LVU360
 1097 0090 ABEB060B 		sub	fp, fp, r6
 830:lvgl/src/widgets/lv_arc.c ****     knob_area->x2 = center->x + knob_x + right_knob + indic_width_half;
 1098              		.loc 1 830 19 view .LVU361
 1099 0094 A8F800B0 		strh	fp, [r8]	@ movhi
 831:lvgl/src/widgets/lv_arc.c ****     knob_area->y1 = center->y + knob_y - top_knob - indic_width_half;
 1100              		.loc 1 831 5 is_stmt 1 view .LVU362
 831:lvgl/src/widgets/lv_arc.c ****     knob_area->y1 = center->y + knob_y - top_knob - indic_width_half;
 1101              		.loc 1 831 27 is_stmt 0 view .LVU363
 1102 0098 B9F80030 		ldrh	r3, [r9]
 831:lvgl/src/widgets/lv_arc.c ****     knob_area->y1 = center->y + knob_y - top_knob - indic_width_half;
 1103              		.loc 1 831 31 view .LVU364
 1104 009c 1D44     		add	r5, r5, r3
 1105              	.LVL124:
 831:lvgl/src/widgets/lv_arc.c ****     knob_area->y1 = center->y + knob_y - top_knob - indic_width_half;
 1106              		.loc 1 831 40 view .LVU365
 1107 009e 1AFA85FA 		uxtah	r10, r10, r5
 1108              	.LVL125:
 831:lvgl/src/widgets/lv_arc.c ****     knob_area->y1 = center->y + knob_y - top_knob - indic_width_half;
 1109              		.loc 1 831 53 view .LVU366
 1110 00a2 16FA8AFA 		uxtah	r10, r6, r10
 831:lvgl/src/widgets/lv_arc.c ****     knob_area->y1 = center->y + knob_y - top_knob - indic_width_half;
 1111              		.loc 1 831 19 view .LVU367
ARM GAS  C:\Users\OSD\AppData\Local\Temp\ccR88enE.s 			page 50


 1112 00a6 A8F804A0 		strh	r10, [r8, #4]	@ movhi
 832:lvgl/src/widgets/lv_arc.c ****     knob_area->y2 = center->y + knob_y + bottom_knob + indic_width_half;
 1113              		.loc 1 832 5 is_stmt 1 view .LVU368
 832:lvgl/src/widgets/lv_arc.c ****     knob_area->y2 = center->y + knob_y + bottom_knob + indic_width_half;
 1114              		.loc 1 832 27 is_stmt 0 view .LVU369
 1115 00aa B9F80230 		ldrh	r3, [r9, #2]
 832:lvgl/src/widgets/lv_arc.c ****     knob_area->y2 = center->y + knob_y + bottom_knob + indic_width_half;
 1116              		.loc 1 832 31 view .LVU370
 1117 00ae A4B2     		uxth	r4, r4
 832:lvgl/src/widgets/lv_arc.c ****     knob_area->y2 = center->y + knob_y + bottom_knob + indic_width_half;
 1118              		.loc 1 832 31 view .LVU371
 1119 00b0 2344     		add	r3, r3, r4
 1120 00b2 9BB2     		uxth	r3, r3
 832:lvgl/src/widgets/lv_arc.c ****     knob_area->y2 = center->y + knob_y + bottom_knob + indic_width_half;
 1121              		.loc 1 832 40 view .LVU372
 1122 00b4 019A     		ldr	r2, [sp, #4]
 1123              	.LVL126:
 832:lvgl/src/widgets/lv_arc.c ****     knob_area->y2 = center->y + knob_y + bottom_knob + indic_width_half;
 1124              		.loc 1 832 40 view .LVU373
 1125 00b6 9B1A     		subs	r3, r3, r2
 1126 00b8 9BB2     		uxth	r3, r3
 832:lvgl/src/widgets/lv_arc.c ****     knob_area->y2 = center->y + knob_y + bottom_knob + indic_width_half;
 1127              		.loc 1 832 51 view .LVU374
 1128 00ba 9B1B     		subs	r3, r3, r6
 832:lvgl/src/widgets/lv_arc.c ****     knob_area->y2 = center->y + knob_y + bottom_knob + indic_width_half;
 1129              		.loc 1 832 19 view .LVU375
 1130 00bc A8F80230 		strh	r3, [r8, #2]	@ movhi
 833:lvgl/src/widgets/lv_arc.c **** }
 1131              		.loc 1 833 5 is_stmt 1 view .LVU376
 833:lvgl/src/widgets/lv_arc.c **** }
 1132              		.loc 1 833 27 is_stmt 0 view .LVU377
 1133 00c0 B9F80230 		ldrh	r3, [r9, #2]
 833:lvgl/src/widgets/lv_arc.c **** }
 1134              		.loc 1 833 31 view .LVU378
 1135 00c4 1C44     		add	r4, r4, r3
 1136              	.LVL127:
 833:lvgl/src/widgets/lv_arc.c **** }
 1137              		.loc 1 833 40 view .LVU379
 1138 00c6 10FA84F4 		uxtah	r4, r0, r4
 833:lvgl/src/widgets/lv_arc.c **** }
 1139              		.loc 1 833 54 view .LVU380
 1140 00ca 16FA84F6 		uxtah	r6, r6, r4
 833:lvgl/src/widgets/lv_arc.c **** }
 1141              		.loc 1 833 19 view .LVU381
 1142 00ce A8F80660 		strh	r6, [r8, #6]	@ movhi
 834:lvgl/src/widgets/lv_arc.c **** 
 1143              		.loc 1 834 1 view .LVU382
 1144 00d2 03B0     		add	sp, sp, #12
 1145              		.cfi_remember_state
 1146              		.cfi_def_cfa_offset 36
 1147              		@ sp needed
 1148 00d4 BDE8F08F 		pop	{r4, r5, r6, r7, r8, r9, r10, fp, pc}
 1149              	.LVL128:
 1150              	.L51:
 1151              		.cfi_restore_state
 818:lvgl/src/widgets/lv_arc.c ****     r -= indic_width_half;
 1152              		.loc 1 818 16 view .LVU383
ARM GAS  C:\Users\OSD\AppData\Local\Temp\ccR88enE.s 			page 51


 1153 00d8 0136     		adds	r6, r6, #1
 1154 00da A0E7     		b	.L49
 1155              		.cfi_endproc
 1156              	.LFE190:
 1158              		.section	.text.lv_arc_draw,"ax",%progbits
 1159              		.align	1
 1160              		.syntax unified
 1161              		.thumb
 1162              		.thumb_func
 1164              	lv_arc_draw:
 1165              	.LVL129:
 1166              	.LFB185:
 645:lvgl/src/widgets/lv_arc.c ****     lv_obj_t * obj = lv_event_get_target(e);
 1167              		.loc 1 645 1 is_stmt 1 view -0
 1168              		.cfi_startproc
 1169              		@ args = 0, pretend = 0, frame = 192
 1170              		@ frame_needed = 0, uses_anonymous_args = 0
 645:lvgl/src/widgets/lv_arc.c ****     lv_obj_t * obj = lv_event_get_target(e);
 1171              		.loc 1 645 1 is_stmt 0 view .LVU385
 1172 0000 2DE9F041 		push	{r4, r5, r6, r7, r8, lr}
 1173              		.cfi_def_cfa_offset 24
 1174              		.cfi_offset 4, -24
 1175              		.cfi_offset 5, -20
 1176              		.cfi_offset 6, -16
 1177              		.cfi_offset 7, -12
 1178              		.cfi_offset 8, -8
 1179              		.cfi_offset 14, -4
 1180 0004 B2B0     		sub	sp, sp, #200
 1181              		.cfi_def_cfa_offset 224
 1182 0006 0546     		mov	r5, r0
 646:lvgl/src/widgets/lv_arc.c ****     lv_arc_t * arc = (lv_arc_t *)obj;
 1183              		.loc 1 646 5 is_stmt 1 view .LVU386
 646:lvgl/src/widgets/lv_arc.c ****     lv_arc_t * arc = (lv_arc_t *)obj;
 1184              		.loc 1 646 22 is_stmt 0 view .LVU387
 1185 0008 FFF7FEFF 		bl	lv_event_get_target
 1186              	.LVL130:
 646:lvgl/src/widgets/lv_arc.c ****     lv_arc_t * arc = (lv_arc_t *)obj;
 1187              		.loc 1 646 22 view .LVU388
 1188 000c 0446     		mov	r4, r0
 1189              	.LVL131:
 647:lvgl/src/widgets/lv_arc.c **** 
 1190              		.loc 1 647 5 is_stmt 1 view .LVU389
 649:lvgl/src/widgets/lv_arc.c **** 
 1191              		.loc 1 649 5 view .LVU390
 649:lvgl/src/widgets/lv_arc.c **** 
 1192              		.loc 1 649 32 is_stmt 0 view .LVU391
 1193 000e 2846     		mov	r0, r5
 1194              	.LVL132:
 649:lvgl/src/widgets/lv_arc.c **** 
 1195              		.loc 1 649 32 view .LVU392
 1196 0010 FFF7FEFF 		bl	lv_event_get_draw_ctx
 1197              	.LVL133:
 1198 0014 0646     		mov	r6, r0
 1199              	.LVL134:
 651:lvgl/src/widgets/lv_arc.c ****     lv_coord_t arc_r;
 1200              		.loc 1 651 5 is_stmt 1 view .LVU393
 652:lvgl/src/widgets/lv_arc.c ****     get_center(obj, &center, &arc_r);
ARM GAS  C:\Users\OSD\AppData\Local\Temp\ccR88enE.s 			page 52


 1201              		.loc 1 652 5 view .LVU394
 653:lvgl/src/widgets/lv_arc.c **** 
 1202              		.loc 1 653 5 view .LVU395
 1203 0016 0DF1C202 		add	r2, sp, #194
 1204 001a 31A9     		add	r1, sp, #196
 1205 001c 2046     		mov	r0, r4
 1206              	.LVL135:
 653:lvgl/src/widgets/lv_arc.c **** 
 1207              		.loc 1 653 5 is_stmt 0 view .LVU396
 1208 001e FFF7FEFF 		bl	get_center
 1209              	.LVL136:
 655:lvgl/src/widgets/lv_arc.c ****     lv_obj_draw_dsc_init(&part_draw_dsc, draw_ctx);
 1210              		.loc 1 655 5 is_stmt 1 view .LVU397
 656:lvgl/src/widgets/lv_arc.c **** 
 1211              		.loc 1 656 5 view .LVU398
 1212 0022 3146     		mov	r1, r6
 1213 0024 1EA8     		add	r0, sp, #120
 1214 0026 FFF7FEFF 		bl	lv_obj_draw_dsc_init
 1215              	.LVL137:
 659:lvgl/src/widgets/lv_arc.c ****     if(arc_r > 0) {
 1216              		.loc 1 659 5 view .LVU399
 660:lvgl/src/widgets/lv_arc.c ****         lv_draw_arc_dsc_init(&arc_dsc);
 1217              		.loc 1 660 5 view .LVU400
 660:lvgl/src/widgets/lv_arc.c ****         lv_draw_arc_dsc_init(&arc_dsc);
 1218              		.loc 1 660 14 is_stmt 0 view .LVU401
 1219 002a BDF9C230 		ldrsh	r3, [sp, #194]
 660:lvgl/src/widgets/lv_arc.c ****         lv_draw_arc_dsc_init(&arc_dsc);
 1220              		.loc 1 660 7 view .LVU402
 1221 002e 002B     		cmp	r3, #0
 1222 0030 59DC     		bgt	.L57
 1223              	.LVL138:
 1224              	.L53:
 679:lvgl/src/widgets/lv_arc.c ****     lv_coord_t right_indic = lv_obj_get_style_pad_right(obj, LV_PART_INDICATOR);
 1225              		.loc 1 679 5 is_stmt 1 view .LVU403
 1226              	.LBB122:
 1227              	.LBI122:
 115:lvgl/src/widgets/../core/lv_obj_style_gen.h **** {
 1228              		.loc 2 115 26 view .LVU404
 1229              	.LBB123:
 117:lvgl/src/widgets/../core/lv_obj_style_gen.h ****     return (lv_coord_t)v.num;
 1230              		.loc 2 117 5 view .LVU405
 117:lvgl/src/widgets/../core/lv_obj_style_gen.h ****     return (lv_coord_t)v.num;
 1231              		.loc 2 117 26 is_stmt 0 view .LVU406
 1232 0032 1222     		movs	r2, #18
 1233 0034 4FF40031 		mov	r1, #131072
 1234 0038 2046     		mov	r0, r4
 1235 003a FFF7FEFF 		bl	lv_obj_get_style_prop
 1236              	.LVL139:
 118:lvgl/src/widgets/../core/lv_obj_style_gen.h **** }
 1237              		.loc 2 118 5 is_stmt 1 view .LVU407
 118:lvgl/src/widgets/../core/lv_obj_style_gen.h **** }
 1238              		.loc 2 118 12 is_stmt 0 view .LVU408
 1239 003e 07B2     		sxth	r7, r0
 1240              	.LVL140:
 118:lvgl/src/widgets/../core/lv_obj_style_gen.h **** }
 1241              		.loc 2 118 12 view .LVU409
 1242              	.LBE123:
ARM GAS  C:\Users\OSD\AppData\Local\Temp\ccR88enE.s 			page 53


 1243              	.LBE122:
 680:lvgl/src/widgets/lv_arc.c ****     lv_coord_t top_indic = lv_obj_get_style_pad_top(obj, LV_PART_INDICATOR);
 1244              		.loc 1 680 5 is_stmt 1 view .LVU410
 1245              	.LBB124:
 1246              	.LBI124:
 121:lvgl/src/widgets/../core/lv_obj_style_gen.h **** {
 1247              		.loc 2 121 26 view .LVU411
 1248              	.LBB125:
 123:lvgl/src/widgets/../core/lv_obj_style_gen.h ****     return (lv_coord_t)v.num;
 1249              		.loc 2 123 5 view .LVU412
 123:lvgl/src/widgets/../core/lv_obj_style_gen.h ****     return (lv_coord_t)v.num;
 1250              		.loc 2 123 26 is_stmt 0 view .LVU413
 1251 0040 1322     		movs	r2, #19
 1252 0042 4FF40031 		mov	r1, #131072
 1253 0046 2046     		mov	r0, r4
 1254 0048 FFF7FEFF 		bl	lv_obj_get_style_prop
 1255              	.LVL141:
 124:lvgl/src/widgets/../core/lv_obj_style_gen.h **** }
 1256              		.loc 2 124 5 is_stmt 1 view .LVU414
 124:lvgl/src/widgets/../core/lv_obj_style_gen.h **** }
 1257              		.loc 2 124 12 is_stmt 0 view .LVU415
 1258 004c 05B2     		sxth	r5, r0
 1259              	.LVL142:
 124:lvgl/src/widgets/../core/lv_obj_style_gen.h **** }
 1260              		.loc 2 124 12 view .LVU416
 1261              	.LBE125:
 1262              	.LBE124:
 681:lvgl/src/widgets/lv_arc.c ****     lv_coord_t bottom_indic = lv_obj_get_style_pad_bottom(obj, LV_PART_INDICATOR);
 1263              		.loc 1 681 5 is_stmt 1 view .LVU417
 1264              	.LBB126:
 1265              	.LBI126:
 103:lvgl/src/widgets/../core/lv_obj_style_gen.h **** {
 1266              		.loc 2 103 26 view .LVU418
 1267              	.LBB127:
 105:lvgl/src/widgets/../core/lv_obj_style_gen.h ****     return (lv_coord_t)v.num;
 1268              		.loc 2 105 5 view .LVU419
 105:lvgl/src/widgets/../core/lv_obj_style_gen.h ****     return (lv_coord_t)v.num;
 1269              		.loc 2 105 26 is_stmt 0 view .LVU420
 1270 004e 1022     		movs	r2, #16
 1271 0050 4FF40031 		mov	r1, #131072
 1272 0054 2046     		mov	r0, r4
 1273 0056 FFF7FEFF 		bl	lv_obj_get_style_prop
 1274              	.LVL143:
 106:lvgl/src/widgets/../core/lv_obj_style_gen.h **** }
 1275              		.loc 2 106 5 is_stmt 1 view .LVU421
 106:lvgl/src/widgets/../core/lv_obj_style_gen.h **** }
 1276              		.loc 2 106 12 is_stmt 0 view .LVU422
 1277 005a 0FFA80F8 		sxth	r8, r0
 1278              	.LVL144:
 106:lvgl/src/widgets/../core/lv_obj_style_gen.h **** }
 1279              		.loc 2 106 12 view .LVU423
 1280              	.LBE127:
 1281              	.LBE126:
 682:lvgl/src/widgets/lv_arc.c ****     lv_coord_t indic_r = arc_r - LV_MAX4(left_indic, right_indic, top_indic, bottom_indic);
 1282              		.loc 1 682 5 is_stmt 1 view .LVU424
 1283              	.LBB128:
 1284              	.LBI128:
ARM GAS  C:\Users\OSD\AppData\Local\Temp\ccR88enE.s 			page 54


 109:lvgl/src/widgets/../core/lv_obj_style_gen.h **** {
 1285              		.loc 2 109 26 view .LVU425
 1286              	.LBB129:
 111:lvgl/src/widgets/../core/lv_obj_style_gen.h ****     return (lv_coord_t)v.num;
 1287              		.loc 2 111 5 view .LVU426
 111:lvgl/src/widgets/../core/lv_obj_style_gen.h ****     return (lv_coord_t)v.num;
 1288              		.loc 2 111 26 is_stmt 0 view .LVU427
 1289 005e 1122     		movs	r2, #17
 1290 0060 4FF40031 		mov	r1, #131072
 1291 0064 2046     		mov	r0, r4
 1292 0066 FFF7FEFF 		bl	lv_obj_get_style_prop
 1293              	.LVL145:
 112:lvgl/src/widgets/../core/lv_obj_style_gen.h **** }
 1294              		.loc 2 112 5 is_stmt 1 view .LVU428
 112:lvgl/src/widgets/../core/lv_obj_style_gen.h **** }
 1295              		.loc 2 112 12 is_stmt 0 view .LVU429
 1296 006a 03B2     		sxth	r3, r0
 1297              	.LVL146:
 112:lvgl/src/widgets/../core/lv_obj_style_gen.h **** }
 1298              		.loc 2 112 12 view .LVU430
 1299              	.LBE129:
 1300              	.LBE128:
 683:lvgl/src/widgets/lv_arc.c **** 
 1301              		.loc 1 683 5 is_stmt 1 view .LVU431
 683:lvgl/src/widgets/lv_arc.c **** 
 1302              		.loc 1 683 34 is_stmt 0 view .LVU432
 1303 006c 4345     		cmp	r3, r8
 1304 006e B8BF     		it	lt
 1305 0070 4346     		movlt	r3, r8
 1306              	.LVL147:
 683:lvgl/src/widgets/lv_arc.c **** 
 1307              		.loc 1 683 34 view .LVU433
 1308 0072 BD42     		cmp	r5, r7
 1309 0074 B8BF     		it	lt
 1310 0076 3D46     		movlt	r5, r7
 1311              	.LVL148:
 683:lvgl/src/widgets/lv_arc.c **** 
 1312              		.loc 1 683 34 view .LVU434
 1313 0078 AB42     		cmp	r3, r5
 1314 007a B8BF     		it	lt
 1315 007c 2B46     		movlt	r3, r5
 1316 007e 9BB2     		uxth	r3, r3
 683:lvgl/src/widgets/lv_arc.c **** 
 1317              		.loc 1 683 32 view .LVU435
 1318 0080 BDF8C250 		ldrh	r5, [sp, #194]
 1319 0084 EB1A     		subs	r3, r5, r3
 683:lvgl/src/widgets/lv_arc.c **** 
 1320              		.loc 1 683 16 view .LVU436
 1321 0086 1DB2     		sxth	r5, r3
 1322              	.LVL149:
 685:lvgl/src/widgets/lv_arc.c ****         lv_draw_arc_dsc_init(&arc_dsc);
 1323              		.loc 1 685 5 is_stmt 1 view .LVU437
 685:lvgl/src/widgets/lv_arc.c ****         lv_draw_arc_dsc_init(&arc_dsc);
 1324              		.loc 1 685 7 is_stmt 0 view .LVU438
 1325 0088 002D     		cmp	r5, #0
 1326 008a 5DDC     		bgt	.L58
 1327              	.LVL150:
ARM GAS  C:\Users\OSD\AppData\Local\Temp\ccR88enE.s 			page 55


 1328              	.L54:
 704:lvgl/src/widgets/lv_arc.c ****     get_knob_area(obj, &center, arc_r, &knob_area);
 1329              		.loc 1 704 5 is_stmt 1 view .LVU439
 705:lvgl/src/widgets/lv_arc.c **** 
 1330              		.loc 1 705 5 view .LVU440
 1331 008c 17AF     		add	r7, sp, #92
 1332 008e 3B46     		mov	r3, r7
 1333 0090 BDF9C220 		ldrsh	r2, [sp, #194]
 1334 0094 31A9     		add	r1, sp, #196
 1335 0096 2046     		mov	r0, r4
 1336 0098 FFF7FEFF 		bl	get_knob_area
 1337              	.LVL151:
 707:lvgl/src/widgets/lv_arc.c ****     lv_draw_rect_dsc_init(&knob_rect_dsc);
 1338              		.loc 1 707 5 view .LVU441
 708:lvgl/src/widgets/lv_arc.c ****     lv_obj_init_draw_rect_dsc(obj, LV_PART_KNOB, &knob_rect_dsc);
 1339              		.loc 1 708 5 view .LVU442
 1340 009c 03AD     		add	r5, sp, #12
 1341              	.LVL152:
 708:lvgl/src/widgets/lv_arc.c ****     lv_obj_init_draw_rect_dsc(obj, LV_PART_KNOB, &knob_rect_dsc);
 1342              		.loc 1 708 5 is_stmt 0 view .LVU443
 1343 009e 2846     		mov	r0, r5
 1344 00a0 FFF7FEFF 		bl	lv_draw_rect_dsc_init
 1345              	.LVL153:
 709:lvgl/src/widgets/lv_arc.c **** 
 1346              		.loc 1 709 5 is_stmt 1 view .LVU444
 1347 00a4 2A46     		mov	r2, r5
 1348 00a6 4FF44031 		mov	r1, #196608
 1349 00aa 2046     		mov	r0, r4
 1350 00ac FFF7FEFF 		bl	lv_obj_init_draw_rect_dsc
 1351              	.LVL154:
 711:lvgl/src/widgets/lv_arc.c ****     part_draw_dsc.class_p = MY_CLASS;
 1352              		.loc 1 711 5 view .LVU445
 711:lvgl/src/widgets/lv_arc.c ****     part_draw_dsc.class_p = MY_CLASS;
 1353              		.loc 1 711 24 is_stmt 0 view .LVU446
 1354 00b0 4FF44033 		mov	r3, #196608
 1355 00b4 2B93     		str	r3, [sp, #172]
 712:lvgl/src/widgets/lv_arc.c ****     part_draw_dsc.type = LV_ARC_DRAW_PART_KNOB;
 1356              		.loc 1 712 5 is_stmt 1 view .LVU447
 712:lvgl/src/widgets/lv_arc.c ****     part_draw_dsc.type = LV_ARC_DRAW_PART_KNOB;
 1357              		.loc 1 712 27 is_stmt 0 view .LVU448
 1358 00b6 404B     		ldr	r3, .L59
 1359 00b8 1F93     		str	r3, [sp, #124]
 713:lvgl/src/widgets/lv_arc.c ****     part_draw_dsc.draw_area = &knob_area;
 1360              		.loc 1 713 5 is_stmt 1 view .LVU449
 713:lvgl/src/widgets/lv_arc.c ****     part_draw_dsc.draw_area = &knob_area;
 1361              		.loc 1 713 24 is_stmt 0 view .LVU450
 1362 00ba 0223     		movs	r3, #2
 1363 00bc 2093     		str	r3, [sp, #128]
 714:lvgl/src/widgets/lv_arc.c ****     part_draw_dsc.rect_dsc = &knob_rect_dsc;
 1364              		.loc 1 714 5 is_stmt 1 view .LVU451
 714:lvgl/src/widgets/lv_arc.c ****     part_draw_dsc.rect_dsc = &knob_rect_dsc;
 1365              		.loc 1 714 29 is_stmt 0 view .LVU452
 1366 00be 2197     		str	r7, [sp, #132]
 715:lvgl/src/widgets/lv_arc.c ****     lv_event_send(obj, LV_EVENT_DRAW_PART_BEGIN, &part_draw_dsc);
 1367              		.loc 1 715 5 is_stmt 1 view .LVU453
 715:lvgl/src/widgets/lv_arc.c ****     lv_event_send(obj, LV_EVENT_DRAW_PART_BEGIN, &part_draw_dsc);
 1368              		.loc 1 715 28 is_stmt 0 view .LVU454
ARM GAS  C:\Users\OSD\AppData\Local\Temp\ccR88enE.s 			page 56


 1369 00c0 2295     		str	r5, [sp, #136]
 716:lvgl/src/widgets/lv_arc.c **** 
 1370              		.loc 1 716 5 is_stmt 1 view .LVU455
 1371 00c2 1EAA     		add	r2, sp, #120
 1372 00c4 1A21     		movs	r1, #26
 1373 00c6 2046     		mov	r0, r4
 1374 00c8 FFF7FEFF 		bl	lv_event_send
 1375              	.LVL155:
 718:lvgl/src/widgets/lv_arc.c **** 
 1376              		.loc 1 718 5 view .LVU456
 1377 00cc 3A46     		mov	r2, r7
 1378 00ce 2946     		mov	r1, r5
 1379 00d0 3046     		mov	r0, r6
 1380 00d2 FFF7FEFF 		bl	lv_draw_rect
 1381              	.LVL156:
 720:lvgl/src/widgets/lv_arc.c **** }
 1382              		.loc 1 720 5 view .LVU457
 1383 00d6 1EAA     		add	r2, sp, #120
 1384 00d8 1B21     		movs	r1, #27
 1385 00da 2046     		mov	r0, r4
 1386 00dc FFF7FEFF 		bl	lv_event_send
 1387              	.LVL157:
 721:lvgl/src/widgets/lv_arc.c **** 
 1388              		.loc 1 721 1 is_stmt 0 view .LVU458
 1389 00e0 32B0     		add	sp, sp, #200
 1390              		.cfi_remember_state
 1391              		.cfi_def_cfa_offset 24
 1392              		@ sp needed
 1393 00e2 BDE8F081 		pop	{r4, r5, r6, r7, r8, pc}
 1394              	.LVL158:
 1395              	.L57:
 1396              		.cfi_restore_state
 661:lvgl/src/widgets/lv_arc.c ****         lv_obj_init_draw_arc_dsc(obj, LV_PART_MAIN, &arc_dsc);
 1397              		.loc 1 661 9 is_stmt 1 view .LVU459
 1398 00e6 19AD     		add	r5, sp, #100
 1399              	.LVL159:
 661:lvgl/src/widgets/lv_arc.c ****         lv_obj_init_draw_arc_dsc(obj, LV_PART_MAIN, &arc_dsc);
 1400              		.loc 1 661 9 is_stmt 0 view .LVU460
 1401 00e8 2846     		mov	r0, r5
 1402 00ea FFF7FEFF 		bl	lv_draw_arc_dsc_init
 1403              	.LVL160:
 662:lvgl/src/widgets/lv_arc.c **** 
 1404              		.loc 1 662 9 is_stmt 1 view .LVU461
 1405 00ee 2A46     		mov	r2, r5
 1406 00f0 0021     		movs	r1, #0
 1407 00f2 2046     		mov	r0, r4
 1408 00f4 FFF7FEFF 		bl	lv_obj_init_draw_arc_dsc
 1409              	.LVL161:
 664:lvgl/src/widgets/lv_arc.c ****         part_draw_dsc.class_p = MY_CLASS;
 1410              		.loc 1 664 9 view .LVU462
 664:lvgl/src/widgets/lv_arc.c ****         part_draw_dsc.class_p = MY_CLASS;
 1411              		.loc 1 664 28 is_stmt 0 view .LVU463
 1412 00f8 0023     		movs	r3, #0
 1413 00fa 2B93     		str	r3, [sp, #172]
 665:lvgl/src/widgets/lv_arc.c ****         part_draw_dsc.type = LV_ARC_DRAW_PART_BACKGROUND;
 1414              		.loc 1 665 9 is_stmt 1 view .LVU464
 665:lvgl/src/widgets/lv_arc.c ****         part_draw_dsc.type = LV_ARC_DRAW_PART_BACKGROUND;
ARM GAS  C:\Users\OSD\AppData\Local\Temp\ccR88enE.s 			page 57


 1415              		.loc 1 665 31 is_stmt 0 view .LVU465
 1416 00fc 2E4A     		ldr	r2, .L59
 1417 00fe 1F92     		str	r2, [sp, #124]
 666:lvgl/src/widgets/lv_arc.c ****         part_draw_dsc.p1 = &center;
 1418              		.loc 1 666 9 is_stmt 1 view .LVU466
 666:lvgl/src/widgets/lv_arc.c ****         part_draw_dsc.p1 = &center;
 1419              		.loc 1 666 28 is_stmt 0 view .LVU467
 1420 0100 2093     		str	r3, [sp, #128]
 667:lvgl/src/widgets/lv_arc.c ****         part_draw_dsc.radius = arc_r;
 1421              		.loc 1 667 9 is_stmt 1 view .LVU468
 667:lvgl/src/widgets/lv_arc.c ****         part_draw_dsc.radius = arc_r;
 1422              		.loc 1 667 26 is_stmt 0 view .LVU469
 1423 0102 31AF     		add	r7, sp, #196
 1424 0104 2797     		str	r7, [sp, #156]
 668:lvgl/src/widgets/lv_arc.c ****         part_draw_dsc.arc_dsc = &arc_dsc;
 1425              		.loc 1 668 9 is_stmt 1 view .LVU470
 668:lvgl/src/widgets/lv_arc.c ****         part_draw_dsc.arc_dsc = &arc_dsc;
 1426              		.loc 1 668 30 is_stmt 0 view .LVU471
 1427 0106 BDF8C230 		ldrh	r3, [sp, #194]
 1428 010a ADF8B430 		strh	r3, [sp, #180]	@ movhi
 669:lvgl/src/widgets/lv_arc.c ****         lv_event_send(obj, LV_EVENT_DRAW_PART_BEGIN, &part_draw_dsc);
 1429              		.loc 1 669 9 is_stmt 1 view .LVU472
 669:lvgl/src/widgets/lv_arc.c ****         lv_event_send(obj, LV_EVENT_DRAW_PART_BEGIN, &part_draw_dsc);
 1430              		.loc 1 669 31 is_stmt 0 view .LVU473
 1431 010e 2695     		str	r5, [sp, #152]
 670:lvgl/src/widgets/lv_arc.c **** 
 1432              		.loc 1 670 9 is_stmt 1 view .LVU474
 1433 0110 1EAA     		add	r2, sp, #120
 1434 0112 1A21     		movs	r1, #26
 1435 0114 2046     		mov	r0, r4
 1436 0116 FFF7FEFF 		bl	lv_event_send
 1437              	.LVL162:
 672:lvgl/src/widgets/lv_arc.c ****                     arc->bg_angle_end + arc->rotation);
 1438              		.loc 1 672 9 view .LVU475
 672:lvgl/src/widgets/lv_arc.c ****                     arc->bg_angle_end + arc->rotation);
 1439              		.loc 1 672 63 is_stmt 0 view .LVU476
 1440 011a BDF9B430 		ldrsh	r3, [sp, #180]
 672:lvgl/src/widgets/lv_arc.c ****                     arc->bg_angle_end + arc->rotation);
 1441              		.loc 1 672 75 view .LVU477
 1442 011e 628D     		ldrh	r2, [r4, #42]
 672:lvgl/src/widgets/lv_arc.c ****                     arc->bg_angle_end + arc->rotation);
 1443              		.loc 1 672 97 view .LVU478
 1444 0120 A08C     		ldrh	r0, [r4, #36]
 673:lvgl/src/widgets/lv_arc.c **** 
 1445              		.loc 1 673 24 view .LVU479
 1446 0122 A18D     		ldrh	r1, [r4, #44]
 672:lvgl/src/widgets/lv_arc.c ****                     arc->bg_angle_end + arc->rotation);
 1447              		.loc 1 672 9 view .LVU480
 1448 0124 0144     		add	r1, r1, r0
 1449 0126 89B2     		uxth	r1, r1
 1450 0128 0191     		str	r1, [sp, #4]
 1451 012a 0244     		add	r2, r2, r0
 1452 012c 92B2     		uxth	r2, r2
 1453 012e 0092     		str	r2, [sp]
 1454 0130 9BB2     		uxth	r3, r3
 1455 0132 3A46     		mov	r2, r7
 1456 0134 2946     		mov	r1, r5
ARM GAS  C:\Users\OSD\AppData\Local\Temp\ccR88enE.s 			page 58


 1457 0136 3046     		mov	r0, r6
 1458 0138 FFF7FEFF 		bl	lv_draw_arc
 1459              	.LVL163:
 675:lvgl/src/widgets/lv_arc.c ****     }
 1460              		.loc 1 675 9 is_stmt 1 view .LVU481
 1461 013c 1EAA     		add	r2, sp, #120
 1462 013e 1B21     		movs	r1, #27
 1463 0140 2046     		mov	r0, r4
 1464 0142 FFF7FEFF 		bl	lv_event_send
 1465              	.LVL164:
 1466 0146 74E7     		b	.L53
 1467              	.LVL165:
 1468              	.L58:
 686:lvgl/src/widgets/lv_arc.c ****         lv_obj_init_draw_arc_dsc(obj, LV_PART_INDICATOR, &arc_dsc);
 1469              		.loc 1 686 9 view .LVU482
 1470 0148 19AF     		add	r7, sp, #100
 1471              	.LVL166:
 686:lvgl/src/widgets/lv_arc.c ****         lv_obj_init_draw_arc_dsc(obj, LV_PART_INDICATOR, &arc_dsc);
 1472              		.loc 1 686 9 is_stmt 0 view .LVU483
 1473 014a 3846     		mov	r0, r7
 1474              	.LVL167:
 686:lvgl/src/widgets/lv_arc.c ****         lv_obj_init_draw_arc_dsc(obj, LV_PART_INDICATOR, &arc_dsc);
 1475              		.loc 1 686 9 view .LVU484
 1476 014c FFF7FEFF 		bl	lv_draw_arc_dsc_init
 1477              	.LVL168:
 687:lvgl/src/widgets/lv_arc.c **** 
 1478              		.loc 1 687 9 is_stmt 1 view .LVU485
 1479 0150 3A46     		mov	r2, r7
 1480 0152 4FF40031 		mov	r1, #131072
 1481 0156 2046     		mov	r0, r4
 1482 0158 FFF7FEFF 		bl	lv_obj_init_draw_arc_dsc
 1483              	.LVL169:
 689:lvgl/src/widgets/lv_arc.c ****         part_draw_dsc.class_p = MY_CLASS;
 1484              		.loc 1 689 9 view .LVU486
 689:lvgl/src/widgets/lv_arc.c ****         part_draw_dsc.class_p = MY_CLASS;
 1485              		.loc 1 689 28 is_stmt 0 view .LVU487
 1486 015c 4FF40033 		mov	r3, #131072
 1487 0160 2B93     		str	r3, [sp, #172]
 690:lvgl/src/widgets/lv_arc.c ****         part_draw_dsc.type = LV_ARC_DRAW_PART_FOREGROUND;
 1488              		.loc 1 690 9 is_stmt 1 view .LVU488
 690:lvgl/src/widgets/lv_arc.c ****         part_draw_dsc.type = LV_ARC_DRAW_PART_FOREGROUND;
 1489              		.loc 1 690 31 is_stmt 0 view .LVU489
 1490 0162 154B     		ldr	r3, .L59
 1491 0164 1F93     		str	r3, [sp, #124]
 691:lvgl/src/widgets/lv_arc.c ****         part_draw_dsc.p1 = &center;
 1492              		.loc 1 691 9 is_stmt 1 view .LVU490
 691:lvgl/src/widgets/lv_arc.c ****         part_draw_dsc.p1 = &center;
 1493              		.loc 1 691 28 is_stmt 0 view .LVU491
 1494 0166 0123     		movs	r3, #1
 1495 0168 2093     		str	r3, [sp, #128]
 692:lvgl/src/widgets/lv_arc.c ****         part_draw_dsc.radius = indic_r;
 1496              		.loc 1 692 9 is_stmt 1 view .LVU492
 692:lvgl/src/widgets/lv_arc.c ****         part_draw_dsc.radius = indic_r;
 1497              		.loc 1 692 26 is_stmt 0 view .LVU493
 1498 016a 31AB     		add	r3, sp, #196
 1499 016c 2793     		str	r3, [sp, #156]
 693:lvgl/src/widgets/lv_arc.c ****         part_draw_dsc.arc_dsc = &arc_dsc;
ARM GAS  C:\Users\OSD\AppData\Local\Temp\ccR88enE.s 			page 59


 1500              		.loc 1 693 9 is_stmt 1 view .LVU494
 693:lvgl/src/widgets/lv_arc.c ****         part_draw_dsc.arc_dsc = &arc_dsc;
 1501              		.loc 1 693 30 is_stmt 0 view .LVU495
 1502 016e ADF8B450 		strh	r5, [sp, #180]	@ movhi
 694:lvgl/src/widgets/lv_arc.c ****         lv_event_send(obj, LV_EVENT_DRAW_PART_BEGIN, &part_draw_dsc);
 1503              		.loc 1 694 9 is_stmt 1 view .LVU496
 694:lvgl/src/widgets/lv_arc.c ****         lv_event_send(obj, LV_EVENT_DRAW_PART_BEGIN, &part_draw_dsc);
 1504              		.loc 1 694 31 is_stmt 0 view .LVU497
 1505 0172 2697     		str	r7, [sp, #152]
 695:lvgl/src/widgets/lv_arc.c **** 
 1506              		.loc 1 695 9 is_stmt 1 view .LVU498
 1507 0174 1EAA     		add	r2, sp, #120
 1508 0176 1A21     		movs	r1, #26
 1509 0178 2046     		mov	r0, r4
 1510 017a FFF7FEFF 		bl	lv_event_send
 1511              	.LVL170:
 697:lvgl/src/widgets/lv_arc.c ****         lv_draw_arc(draw_ctx, &arc_dsc, &center, part_draw_dsc.radius, arc->indic_angle_start + arc
 1512              		.loc 1 697 9 view .LVU499
 697:lvgl/src/widgets/lv_arc.c ****         lv_draw_arc(draw_ctx, &arc_dsc, &center, part_draw_dsc.radius, arc->indic_angle_start + arc
 1513              		.loc 1 697 19 is_stmt 0 view .LVU500
 1514 017e BDF96820 		ldrsh	r2, [sp, #104]
 697:lvgl/src/widgets/lv_arc.c ****         lv_draw_arc(draw_ctx, &arc_dsc, &center, part_draw_dsc.radius, arc->indic_angle_start + arc
 1515              		.loc 1 697 41 view .LVU501
 1516 0182 BDF9B430 		ldrsh	r3, [sp, #180]
 697:lvgl/src/widgets/lv_arc.c ****         lv_draw_arc(draw_ctx, &arc_dsc, &center, part_draw_dsc.radius, arc->indic_angle_start + arc
 1517              		.loc 1 697 11 view .LVU502
 1518 0186 9A42     		cmp	r2, r3
 1519 0188 01DD     		ble	.L55
 697:lvgl/src/widgets/lv_arc.c ****         lv_draw_arc(draw_ctx, &arc_dsc, &center, part_draw_dsc.radius, arc->indic_angle_start + arc
 1520              		.loc 1 697 50 is_stmt 1 discriminator 1 view .LVU503
 697:lvgl/src/widgets/lv_arc.c ****         lv_draw_arc(draw_ctx, &arc_dsc, &center, part_draw_dsc.radius, arc->indic_angle_start + arc
 1521              		.loc 1 697 64 is_stmt 0 discriminator 1 view .LVU504
 1522 018a ADF86830 		strh	r3, [sp, #104]	@ movhi
 1523              	.L55:
 698:lvgl/src/widgets/lv_arc.c ****                     arc->indic_angle_end + arc->rotation);
 1524              		.loc 1 698 9 is_stmt 1 view .LVU505
 698:lvgl/src/widgets/lv_arc.c ****                     arc->indic_angle_end + arc->rotation);
 1525              		.loc 1 698 75 is_stmt 0 view .LVU506
 1526 018e E28C     		ldrh	r2, [r4, #38]
 698:lvgl/src/widgets/lv_arc.c ****                     arc->indic_angle_end + arc->rotation);
 1527              		.loc 1 698 100 view .LVU507
 1528 0190 A08C     		ldrh	r0, [r4, #36]
 699:lvgl/src/widgets/lv_arc.c **** 
 1529              		.loc 1 699 24 view .LVU508
 1530 0192 218D     		ldrh	r1, [r4, #40]
 698:lvgl/src/widgets/lv_arc.c ****                     arc->indic_angle_end + arc->rotation);
 1531              		.loc 1 698 9 view .LVU509
 1532 0194 0144     		add	r1, r1, r0
 1533 0196 89B2     		uxth	r1, r1
 1534 0198 0191     		str	r1, [sp, #4]
 1535 019a 0244     		add	r2, r2, r0
 1536 019c 92B2     		uxth	r2, r2
 1537 019e 0092     		str	r2, [sp]
 1538 01a0 9BB2     		uxth	r3, r3
 1539 01a2 31AA     		add	r2, sp, #196
 1540 01a4 19A9     		add	r1, sp, #100
 1541 01a6 3046     		mov	r0, r6
ARM GAS  C:\Users\OSD\AppData\Local\Temp\ccR88enE.s 			page 60


 1542 01a8 FFF7FEFF 		bl	lv_draw_arc
 1543              	.LVL171:
 701:lvgl/src/widgets/lv_arc.c ****     }
 1544              		.loc 1 701 9 is_stmt 1 view .LVU510
 1545 01ac 1EAA     		add	r2, sp, #120
 1546 01ae 1B21     		movs	r1, #27
 1547 01b0 2046     		mov	r0, r4
 1548 01b2 FFF7FEFF 		bl	lv_event_send
 1549              	.LVL172:
 1550 01b6 69E7     		b	.L54
 1551              	.L60:
 1552              		.align	2
 1553              	.L59:
 1554 01b8 00000000 		.word	.LANCHOR0
 1555              		.cfi_endproc
 1556              	.LFE185:
 1558              		.section	.text.lv_arc_constructor,"ax",%progbits
 1559              		.align	1
 1560              		.syntax unified
 1561              		.thumb
 1562              		.thumb_func
 1564              	lv_arc_constructor:
 1565              	.LVL173:
 1566              	.LFB183:
 384:lvgl/src/widgets/lv_arc.c ****     LV_UNUSED(class_p);
 1567              		.loc 1 384 1 view -0
 1568              		.cfi_startproc
 1569              		@ args = 0, pretend = 0, frame = 0
 1570              		@ frame_needed = 0, uses_anonymous_args = 0
 384:lvgl/src/widgets/lv_arc.c ****     LV_UNUSED(class_p);
 1571              		.loc 1 384 1 is_stmt 0 view .LVU512
 1572 0000 38B5     		push	{r3, r4, r5, lr}
 1573              		.cfi_def_cfa_offset 16
 1574              		.cfi_offset 3, -16
 1575              		.cfi_offset 4, -12
 1576              		.cfi_offset 5, -8
 1577              		.cfi_offset 14, -4
 1578 0002 0C46     		mov	r4, r1
 385:lvgl/src/widgets/lv_arc.c ****     LV_TRACE_OBJ_CREATE("begin");
 1579              		.loc 1 385 5 is_stmt 1 view .LVU513
 386:lvgl/src/widgets/lv_arc.c **** 
 1580              		.loc 1 386 33 view .LVU514
 388:lvgl/src/widgets/lv_arc.c **** 
 1581              		.loc 1 388 5 view .LVU515
 1582              	.LVL174:
 391:lvgl/src/widgets/lv_arc.c ****     arc->bg_angle_start = 135;
 1583              		.loc 1 391 5 view .LVU516
 391:lvgl/src/widgets/lv_arc.c ****     arc->bg_angle_start = 135;
 1584              		.loc 1 391 19 is_stmt 0 view .LVU517
 1585 0004 0025     		movs	r5, #0
 1586 0006 8D84     		strh	r5, [r1, #36]	@ movhi
 392:lvgl/src/widgets/lv_arc.c ****     arc->bg_angle_end   = 45;
 1587              		.loc 1 392 5 is_stmt 1 view .LVU518
 392:lvgl/src/widgets/lv_arc.c ****     arc->bg_angle_end   = 45;
 1588              		.loc 1 392 25 is_stmt 0 view .LVU519
 1589 0008 8723     		movs	r3, #135
 1590 000a 4B85     		strh	r3, [r1, #42]	@ movhi
ARM GAS  C:\Users\OSD\AppData\Local\Temp\ccR88enE.s 			page 61


 393:lvgl/src/widgets/lv_arc.c ****     arc->indic_angle_start = 135;
 1591              		.loc 1 393 5 is_stmt 1 view .LVU520
 393:lvgl/src/widgets/lv_arc.c ****     arc->indic_angle_start = 135;
 1592              		.loc 1 393 25 is_stmt 0 view .LVU521
 1593 000c 2D22     		movs	r2, #45
 1594 000e 8A85     		strh	r2, [r1, #44]	@ movhi
 394:lvgl/src/widgets/lv_arc.c ****     arc->indic_angle_end   = 270;
 1595              		.loc 1 394 5 is_stmt 1 view .LVU522
 394:lvgl/src/widgets/lv_arc.c ****     arc->indic_angle_end   = 270;
 1596              		.loc 1 394 28 is_stmt 0 view .LVU523
 1597 0010 CB84     		strh	r3, [r1, #38]	@ movhi
 395:lvgl/src/widgets/lv_arc.c ****     arc->type = LV_ARC_MODE_NORMAL;
 1598              		.loc 1 395 5 is_stmt 1 view .LVU524
 395:lvgl/src/widgets/lv_arc.c ****     arc->type = LV_ARC_MODE_NORMAL;
 1599              		.loc 1 395 28 is_stmt 0 view .LVU525
 1600 0012 4FF48773 		mov	r3, #270
 1601 0016 0B85     		strh	r3, [r1, #40]	@ movhi
 396:lvgl/src/widgets/lv_arc.c ****     arc->value = VALUE_UNSET;
 1602              		.loc 1 396 5 is_stmt 1 view .LVU526
 396:lvgl/src/widgets/lv_arc.c ****     arc->value = VALUE_UNSET;
 1603              		.loc 1 396 15 is_stmt 0 view .LVU527
 1604 0018 91F83430 		ldrb	r3, [r1, #52]	@ zero_extendqisi2
 1605 001c 65F34203 		bfi	r3, r5, #1, #2
 1606 0020 81F83430 		strb	r3, [r1, #52]
 397:lvgl/src/widgets/lv_arc.c ****     arc->min_close = 1;
 1607              		.loc 1 397 5 is_stmt 1 view .LVU528
 397:lvgl/src/widgets/lv_arc.c ****     arc->min_close = 1;
 1608              		.loc 1 397 16 is_stmt 0 view .LVU529
 1609 0024 4FF40043 		mov	r3, #32768
 1610 0028 CB85     		strh	r3, [r1, #46]	@ movhi
 398:lvgl/src/widgets/lv_arc.c ****     arc->min_value = 0;
 1611              		.loc 1 398 5 is_stmt 1 view .LVU530
 398:lvgl/src/widgets/lv_arc.c ****     arc->min_value = 0;
 1612              		.loc 1 398 20 is_stmt 0 view .LVU531
 1613 002a 91F83430 		ldrb	r3, [r1, #52]	@ zero_extendqisi2
 1614 002e 43F00803 		orr	r3, r3, #8
 1615 0032 81F83430 		strb	r3, [r1, #52]
 399:lvgl/src/widgets/lv_arc.c ****     arc->max_value = 100;
 1616              		.loc 1 399 5 is_stmt 1 view .LVU532
 399:lvgl/src/widgets/lv_arc.c ****     arc->max_value = 100;
 1617              		.loc 1 399 20 is_stmt 0 view .LVU533
 1618 0036 0D86     		strh	r5, [r1, #48]	@ movhi
 400:lvgl/src/widgets/lv_arc.c ****     arc->dragging = false;
 1619              		.loc 1 400 5 is_stmt 1 view .LVU534
 400:lvgl/src/widgets/lv_arc.c ****     arc->dragging = false;
 1620              		.loc 1 400 20 is_stmt 0 view .LVU535
 1621 0038 6423     		movs	r3, #100
 1622 003a 4B86     		strh	r3, [r1, #50]	@ movhi
 401:lvgl/src/widgets/lv_arc.c ****     arc->chg_rate = 720;
 1623              		.loc 1 401 5 is_stmt 1 view .LVU536
 401:lvgl/src/widgets/lv_arc.c ****     arc->chg_rate = 720;
 1624              		.loc 1 401 19 is_stmt 0 view .LVU537
 1625 003c 91F83430 		ldrb	r3, [r1, #52]	@ zero_extendqisi2
 1626 0040 65F30003 		bfi	r3, r5, #0, #1
 1627 0044 81F83430 		strb	r3, [r1, #52]
 402:lvgl/src/widgets/lv_arc.c ****     arc->last_tick = lv_tick_get();
 1628              		.loc 1 402 5 is_stmt 1 view .LVU538
ARM GAS  C:\Users\OSD\AppData\Local\Temp\ccR88enE.s 			page 62


 402:lvgl/src/widgets/lv_arc.c ****     arc->last_tick = lv_tick_get();
 1629              		.loc 1 402 19 is_stmt 0 view .LVU539
 1630 0048 4FF43473 		mov	r3, #720
 1631 004c 8B63     		str	r3, [r1, #56]
 403:lvgl/src/widgets/lv_arc.c ****     arc->last_angle = arc->indic_angle_end;
 1632              		.loc 1 403 5 is_stmt 1 view .LVU540
 403:lvgl/src/widgets/lv_arc.c ****     arc->last_angle = arc->indic_angle_end;
 1633              		.loc 1 403 22 is_stmt 0 view .LVU541
 1634 004e FFF7FEFF 		bl	lv_tick_get
 1635              	.LVL175:
 403:lvgl/src/widgets/lv_arc.c ****     arc->last_angle = arc->indic_angle_end;
 1636              		.loc 1 403 20 view .LVU542
 1637 0052 E063     		str	r0, [r4, #60]
 404:lvgl/src/widgets/lv_arc.c ****     arc->in_out = CLICK_OUTSIDE_BG_ANGLES;
 1638              		.loc 1 404 5 is_stmt 1 view .LVU543
 404:lvgl/src/widgets/lv_arc.c ****     arc->in_out = CLICK_OUTSIDE_BG_ANGLES;
 1639              		.loc 1 404 26 is_stmt 0 view .LVU544
 1640 0054 B4F92830 		ldrsh	r3, [r4, #40]
 404:lvgl/src/widgets/lv_arc.c ****     arc->in_out = CLICK_OUTSIDE_BG_ANGLES;
 1641              		.loc 1 404 21 view .LVU545
 1642 0058 A4F84030 		strh	r3, [r4, #64]	@ movhi
 405:lvgl/src/widgets/lv_arc.c **** 
 1643              		.loc 1 405 5 is_stmt 1 view .LVU546
 405:lvgl/src/widgets/lv_arc.c **** 
 1644              		.loc 1 405 17 is_stmt 0 view .LVU547
 1645 005c 94F83430 		ldrb	r3, [r4, #52]	@ zero_extendqisi2
 1646 0060 65F30413 		bfi	r3, r5, #4, #1
 1647 0064 84F83430 		strb	r3, [r4, #52]
 407:lvgl/src/widgets/lv_arc.c ****     lv_obj_clear_flag(obj, LV_OBJ_FLAG_SCROLL_CHAIN | LV_OBJ_FLAG_SCROLLABLE);
 1648              		.loc 1 407 5 is_stmt 1 view .LVU548
 1649 0068 0221     		movs	r1, #2
 1650 006a 2046     		mov	r0, r4
 1651 006c FFF7FEFF 		bl	lv_obj_add_flag
 1652              	.LVL176:
 408:lvgl/src/widgets/lv_arc.c ****     lv_obj_set_ext_click_area(obj, LV_DPI_DEF / 10);
 1653              		.loc 1 408 5 view .LVU549
 1654 0070 4FF44471 		mov	r1, #784
 1655 0074 2046     		mov	r0, r4
 1656 0076 FFF7FEFF 		bl	lv_obj_clear_flag
 1657              	.LVL177:
 409:lvgl/src/widgets/lv_arc.c **** 
 1658              		.loc 1 409 5 view .LVU550
 1659 007a 0D21     		movs	r1, #13
 1660 007c 2046     		mov	r0, r4
 1661 007e FFF7FEFF 		bl	lv_obj_set_ext_click_area
 1662              	.LVL178:
 411:lvgl/src/widgets/lv_arc.c **** }
 1663              		.loc 1 411 36 view .LVU551
 412:lvgl/src/widgets/lv_arc.c **** 
 1664              		.loc 1 412 1 is_stmt 0 view .LVU552
 1665 0082 38BD     		pop	{r3, r4, r5, pc}
 412:lvgl/src/widgets/lv_arc.c **** 
 1666              		.loc 1 412 1 view .LVU553
 1667              		.cfi_endproc
 1668              	.LFE183:
 1670              		.section	.text.inv_arc_area,"ax",%progbits
 1671              		.align	1
ARM GAS  C:\Users\OSD\AppData\Local\Temp\ccR88enE.s 			page 63


 1672              		.syntax unified
 1673              		.thumb
 1674              		.thumb_func
 1676              	inv_arc_area:
 1677              	.LVL179:
 1678              	.LFB186:
 724:lvgl/src/widgets/lv_arc.c ****     LV_ASSERT_OBJ(obj, MY_CLASS);
 1679              		.loc 1 724 1 is_stmt 1 view -0
 1680              		.cfi_startproc
 1681              		@ args = 0, pretend = 0, frame = 16
 1682              		@ frame_needed = 0, uses_anonymous_args = 0
 724:lvgl/src/widgets/lv_arc.c ****     LV_ASSERT_OBJ(obj, MY_CLASS);
 1683              		.loc 1 724 1 is_stmt 0 view .LVU555
 1684 0000 2DE9F041 		push	{r4, r5, r6, r7, r8, lr}
 1685              		.cfi_def_cfa_offset 24
 1686              		.cfi_offset 4, -24
 1687              		.cfi_offset 5, -20
 1688              		.cfi_offset 6, -16
 1689              		.cfi_offset 7, -12
 1690              		.cfi_offset 8, -8
 1691              		.cfi_offset 14, -4
 1692 0004 88B0     		sub	sp, sp, #32
 1693              		.cfi_def_cfa_offset 56
 1694 0006 0646     		mov	r6, r0
 1695 0008 0C46     		mov	r4, r1
 1696 000a 1546     		mov	r5, r2
 1697 000c 1F46     		mov	r7, r3
 725:lvgl/src/widgets/lv_arc.c **** 
 1698              		.loc 1 725 5 is_stmt 1 view .LVU556
 725:lvgl/src/widgets/lv_arc.c **** 
 1699              		.loc 1 725 5 view .LVU557
 725:lvgl/src/widgets/lv_arc.c **** 
 1700              		.loc 1 725 5 view .LVU558
 728:lvgl/src/widgets/lv_arc.c **** 
 1701              		.loc 1 728 5 view .LVU559
 728:lvgl/src/widgets/lv_arc.c **** 
 1702              		.loc 1 728 8 is_stmt 0 view .LVU560
 1703 000e FFF7FEFF 		bl	lv_obj_is_visible
 1704              	.LVL180:
 728:lvgl/src/widgets/lv_arc.c **** 
 1705              		.loc 1 728 7 view .LVU561
 1706 0012 0028     		cmp	r0, #0
 1707 0014 47D0     		beq	.L63
 730:lvgl/src/widgets/lv_arc.c **** 
 1708              		.loc 1 730 5 is_stmt 1 view .LVU562
 1709              	.LVL181:
 732:lvgl/src/widgets/lv_arc.c **** 
 1710              		.loc 1 732 5 view .LVU563
 732:lvgl/src/widgets/lv_arc.c **** 
 1711              		.loc 1 732 7 is_stmt 0 view .LVU564
 1712 0016 AC42     		cmp	r4, r5
 1713 0018 45D0     		beq	.L63
 734:lvgl/src/widgets/lv_arc.c ****     if(end_angle > 360) end_angle -= 360;
 1714              		.loc 1 734 5 is_stmt 1 view .LVU565
 734:lvgl/src/widgets/lv_arc.c ****     if(end_angle > 360) end_angle -= 360;
 1715              		.loc 1 734 7 is_stmt 0 view .LVU566
 1716 001a B4F5B47F 		cmp	r4, #360
ARM GAS  C:\Users\OSD\AppData\Local\Temp\ccR88enE.s 			page 64


 1717 001e 02D9     		bls	.L65
 734:lvgl/src/widgets/lv_arc.c ****     if(end_angle > 360) end_angle -= 360;
 1718              		.loc 1 734 27 is_stmt 1 discriminator 1 view .LVU567
 734:lvgl/src/widgets/lv_arc.c ****     if(end_angle > 360) end_angle -= 360;
 1719              		.loc 1 734 39 is_stmt 0 discriminator 1 view .LVU568
 1720 0020 A4F5B474 		sub	r4, r4, #360
 1721 0024 A4B2     		uxth	r4, r4
 1722              	.LVL182:
 1723              	.L65:
 735:lvgl/src/widgets/lv_arc.c **** 
 1724              		.loc 1 735 5 is_stmt 1 view .LVU569
 735:lvgl/src/widgets/lv_arc.c **** 
 1725              		.loc 1 735 7 is_stmt 0 view .LVU570
 1726 0026 B5F5B47F 		cmp	r5, #360
 1727 002a 02D9     		bls	.L66
 735:lvgl/src/widgets/lv_arc.c **** 
 1728              		.loc 1 735 25 is_stmt 1 discriminator 1 view .LVU571
 735:lvgl/src/widgets/lv_arc.c **** 
 1729              		.loc 1 735 35 is_stmt 0 discriminator 1 view .LVU572
 1730 002c A5F5B475 		sub	r5, r5, #360
 1731 0030 ADB2     		uxth	r5, r5
 1732              	.LVL183:
 1733              	.L66:
 737:lvgl/src/widgets/lv_arc.c ****     end_angle += arc->rotation;
 1734              		.loc 1 737 5 is_stmt 1 view .LVU573
 737:lvgl/src/widgets/lv_arc.c ****     end_angle += arc->rotation;
 1735              		.loc 1 737 23 is_stmt 0 view .LVU574
 1736 0032 B28C     		ldrh	r2, [r6, #36]
 737:lvgl/src/widgets/lv_arc.c ****     end_angle += arc->rotation;
 1737              		.loc 1 737 17 view .LVU575
 1738 0034 1444     		add	r4, r4, r2
 1739              	.LVL184:
 737:lvgl/src/widgets/lv_arc.c ****     end_angle += arc->rotation;
 1740              		.loc 1 737 17 view .LVU576
 1741 0036 A4B2     		uxth	r4, r4
 1742              	.LVL185:
 738:lvgl/src/widgets/lv_arc.c **** 
 1743              		.loc 1 738 5 is_stmt 1 view .LVU577
 738:lvgl/src/widgets/lv_arc.c **** 
 1744              		.loc 1 738 15 is_stmt 0 view .LVU578
 1745 0038 2A44     		add	r2, r2, r5
 1746 003a 1FFA82F8 		uxth	r8, r2
 1747              	.LVL186:
 740:lvgl/src/widgets/lv_arc.c ****     if(end_angle > 360) end_angle -= 360;
 1748              		.loc 1 740 5 is_stmt 1 view .LVU579
 740:lvgl/src/widgets/lv_arc.c ****     if(end_angle > 360) end_angle -= 360;
 1749              		.loc 1 740 7 is_stmt 0 view .LVU580
 1750 003e B4F5B47F 		cmp	r4, #360
 1751 0042 02D9     		bls	.L67
 740:lvgl/src/widgets/lv_arc.c ****     if(end_angle > 360) end_angle -= 360;
 1752              		.loc 1 740 27 is_stmt 1 discriminator 1 view .LVU581
 740:lvgl/src/widgets/lv_arc.c ****     if(end_angle > 360) end_angle -= 360;
 1753              		.loc 1 740 39 is_stmt 0 discriminator 1 view .LVU582
 1754 0044 A4F5B474 		sub	r4, r4, #360
 1755              	.LVL187:
 740:lvgl/src/widgets/lv_arc.c ****     if(end_angle > 360) end_angle -= 360;
 1756              		.loc 1 740 39 discriminator 1 view .LVU583
ARM GAS  C:\Users\OSD\AppData\Local\Temp\ccR88enE.s 			page 65


 1757 0048 A4B2     		uxth	r4, r4
 1758              	.LVL188:
 1759              	.L67:
 741:lvgl/src/widgets/lv_arc.c **** 
 1760              		.loc 1 741 5 is_stmt 1 view .LVU584
 741:lvgl/src/widgets/lv_arc.c **** 
 1761              		.loc 1 741 7 is_stmt 0 view .LVU585
 1762 004a B8F5B47F 		cmp	r8, #360
 1763 004e 03D9     		bls	.L68
 741:lvgl/src/widgets/lv_arc.c **** 
 1764              		.loc 1 741 25 is_stmt 1 discriminator 1 view .LVU586
 741:lvgl/src/widgets/lv_arc.c **** 
 1765              		.loc 1 741 35 is_stmt 0 discriminator 1 view .LVU587
 1766 0050 A8F5B472 		sub	r2, r8, #360
 1767 0054 1FFA82F8 		uxth	r8, r2
 1768              	.LVL189:
 1769              	.L68:
 743:lvgl/src/widgets/lv_arc.c ****     lv_point_t c;
 1770              		.loc 1 743 5 is_stmt 1 view .LVU588
 744:lvgl/src/widgets/lv_arc.c ****     get_center(obj, &c, &r);
 1771              		.loc 1 744 5 view .LVU589
 745:lvgl/src/widgets/lv_arc.c **** 
 1772              		.loc 1 745 5 view .LVU590
 1773 0058 0DF11E02 		add	r2, sp, #30
 1774 005c 06A9     		add	r1, sp, #24
 1775 005e 3046     		mov	r0, r6
 1776 0060 FFF7FEFF 		bl	get_center
 1777              	.LVL190:
 747:lvgl/src/widgets/lv_arc.c ****     lv_coord_t rounded = lv_obj_get_style_arc_rounded(obj, part);
 1778              		.loc 1 747 5 view .LVU591
 1779              	.LBB130:
 1780              	.LBI130:
 409:lvgl/src/widgets/../core/lv_obj_style_gen.h **** {
 1781              		.loc 2 409 26 view .LVU592
 1782              	.LBB131:
 411:lvgl/src/widgets/../core/lv_obj_style_gen.h ****     return (lv_coord_t)v.num;
 1783              		.loc 2 411 5 view .LVU593
 411:lvgl/src/widgets/../core/lv_obj_style_gen.h ****     return (lv_coord_t)v.num;
 1784              		.loc 2 411 26 is_stmt 0 view .LVU594
 1785 0064 5022     		movs	r2, #80
 1786 0066 3946     		mov	r1, r7
 1787 0068 3046     		mov	r0, r6
 1788 006a FFF7FEFF 		bl	lv_obj_get_style_prop
 1789              	.LVL191:
 1790              		.loc 2 412 5 is_stmt 1 view .LVU595
 1791              		.loc 2 412 12 is_stmt 0 view .LVU596
 1792 006e 05B2     		sxth	r5, r0
 1793              	.LVL192:
 1794              		.loc 2 412 12 view .LVU597
 1795              	.LBE131:
 1796              	.LBE130:
 748:lvgl/src/widgets/lv_arc.c **** 
 1797              		.loc 1 748 5 is_stmt 1 view .LVU598
 1798              	.LBB132:
 1799              	.LBI132:
 413:lvgl/src/widgets/../core/lv_obj_style_gen.h **** }
 414:lvgl/src/widgets/../core/lv_obj_style_gen.h **** 
ARM GAS  C:\Users\OSD\AppData\Local\Temp\ccR88enE.s 			page 66


 415:lvgl/src/widgets/../core/lv_obj_style_gen.h **** static inline bool lv_obj_get_style_arc_rounded(const struct _lv_obj_t * obj, uint32_t part)
 1800              		.loc 2 415 20 view .LVU599
 1801              	.LBB133:
 416:lvgl/src/widgets/../core/lv_obj_style_gen.h **** {
 417:lvgl/src/widgets/../core/lv_obj_style_gen.h ****     lv_style_value_t v = lv_obj_get_style_prop(obj, part, LV_STYLE_ARC_ROUNDED);
 1802              		.loc 2 417 5 view .LVU600
 1803              		.loc 2 417 26 is_stmt 0 view .LVU601
 1804 0070 5122     		movs	r2, #81
 1805 0072 3946     		mov	r1, r7
 1806 0074 3046     		mov	r0, r6
 1807 0076 FFF7FEFF 		bl	lv_obj_get_style_prop
 1808              	.LVL193:
 418:lvgl/src/widgets/../core/lv_obj_style_gen.h ****     return (bool)v.num;
 1809              		.loc 2 418 5 is_stmt 1 view .LVU602
 1810              		.loc 2 418 12 is_stmt 0 view .LVU603
 1811 007a 0038     		subs	r0, r0, #0
 1812 007c 18BF     		it	ne
 1813 007e 0120     		movne	r0, #1
 1814              	.LVL194:
 1815              		.loc 2 418 12 view .LVU604
 1816              	.LBE133:
 1817              	.LBE132:
 750:lvgl/src/widgets/lv_arc.c ****     lv_draw_arc_get_area(c.x, c.y, r, start_angle, end_angle, w, rounded, &inv_area);
 1818              		.loc 1 750 5 is_stmt 1 view .LVU605
 751:lvgl/src/widgets/lv_arc.c **** 
 1819              		.loc 1 751 5 view .LVU606
 1820 0080 04AF     		add	r7, sp, #16
 1821              	.LVL195:
 751:lvgl/src/widgets/lv_arc.c **** 
 1822              		.loc 1 751 5 is_stmt 0 view .LVU607
 1823 0082 0397     		str	r7, [sp, #12]
 1824 0084 0290     		str	r0, [sp, #8]
 1825 0086 0195     		str	r5, [sp, #4]
 1826 0088 CDF80080 		str	r8, [sp]
 1827 008c 2346     		mov	r3, r4
 1828 008e BDF81E20 		ldrh	r2, [sp, #30]
 1829 0092 BDF91A10 		ldrsh	r1, [sp, #26]
 1830 0096 BDF91800 		ldrsh	r0, [sp, #24]
 1831              	.LVL196:
 751:lvgl/src/widgets/lv_arc.c **** 
 1832              		.loc 1 751 5 view .LVU608
 1833 009a FFF7FEFF 		bl	lv_draw_arc_get_area
 1834              	.LVL197:
 753:lvgl/src/widgets/lv_arc.c **** }
 1835              		.loc 1 753 5 is_stmt 1 view .LVU609
 1836 009e 3946     		mov	r1, r7
 1837 00a0 3046     		mov	r0, r6
 1838 00a2 FFF7FEFF 		bl	lv_obj_invalidate_area
 1839              	.LVL198:
 1840              	.L63:
 754:lvgl/src/widgets/lv_arc.c **** 
 1841              		.loc 1 754 1 is_stmt 0 view .LVU610
 1842 00a6 08B0     		add	sp, sp, #32
 1843              		.cfi_def_cfa_offset 24
 1844              		@ sp needed
 1845 00a8 BDE8F081 		pop	{r4, r5, r6, r7, r8, pc}
 754:lvgl/src/widgets/lv_arc.c **** 
ARM GAS  C:\Users\OSD\AppData\Local\Temp\ccR88enE.s 			page 67


 1846              		.loc 1 754 1 view .LVU611
 1847              		.cfi_endproc
 1848              	.LFE186:
 1850              		.section	.text.inv_knob_area,"ax",%progbits
 1851              		.align	1
 1852              		.syntax unified
 1853              		.thumb
 1854              		.thumb_func
 1856              	inv_knob_area:
 1857              	.LVL199:
 1858              	.LFB187:
 757:lvgl/src/widgets/lv_arc.c ****     lv_point_t c;
 1859              		.loc 1 757 1 is_stmt 1 view -0
 1860              		.cfi_startproc
 1861              		@ args = 0, pretend = 0, frame = 16
 1862              		@ frame_needed = 0, uses_anonymous_args = 0
 757:lvgl/src/widgets/lv_arc.c ****     lv_point_t c;
 1863              		.loc 1 757 1 is_stmt 0 view .LVU613
 1864 0000 10B5     		push	{r4, lr}
 1865              		.cfi_def_cfa_offset 8
 1866              		.cfi_offset 4, -8
 1867              		.cfi_offset 14, -4
 1868 0002 84B0     		sub	sp, sp, #16
 1869              		.cfi_def_cfa_offset 24
 1870 0004 0446     		mov	r4, r0
 758:lvgl/src/widgets/lv_arc.c ****     lv_coord_t r;
 1871              		.loc 1 758 5 is_stmt 1 view .LVU614
 759:lvgl/src/widgets/lv_arc.c ****     get_center(obj, &c, &r);
 1872              		.loc 1 759 5 view .LVU615
 760:lvgl/src/widgets/lv_arc.c **** 
 1873              		.loc 1 760 5 view .LVU616
 1874 0006 0DF10A02 		add	r2, sp, #10
 1875 000a 03A9     		add	r1, sp, #12
 1876 000c FFF7FEFF 		bl	get_center
 1877              	.LVL200:
 762:lvgl/src/widgets/lv_arc.c ****     get_knob_area(obj, &c, r, &a);
 1878              		.loc 1 762 5 view .LVU617
 763:lvgl/src/widgets/lv_arc.c **** 
 1879              		.loc 1 763 5 view .LVU618
 1880 0010 6B46     		mov	r3, sp
 1881 0012 BDF90A20 		ldrsh	r2, [sp, #10]
 1882 0016 03A9     		add	r1, sp, #12
 1883 0018 2046     		mov	r0, r4
 1884 001a FFF7FEFF 		bl	get_knob_area
 1885              	.LVL201:
 765:lvgl/src/widgets/lv_arc.c **** 
 1886              		.loc 1 765 5 view .LVU619
 765:lvgl/src/widgets/lv_arc.c **** 
 1887              		.loc 1 765 34 is_stmt 0 view .LVU620
 1888 001e 2046     		mov	r0, r4
 1889 0020 FFF7FEFF 		bl	knob_get_extra_size
 1890              	.LVL202:
 767:lvgl/src/widgets/lv_arc.c ****         lv_area_increase(&a, knob_extra_size, knob_extra_size);
 1891              		.loc 1 767 5 is_stmt 1 view .LVU621
 767:lvgl/src/widgets/lv_arc.c ****         lv_area_increase(&a, knob_extra_size, knob_extra_size);
 1892              		.loc 1 767 7 is_stmt 0 view .LVU622
 1893 0024 011E     		subs	r1, r0, #0
ARM GAS  C:\Users\OSD\AppData\Local\Temp\ccR88enE.s 			page 68


 1894 0026 05DC     		bgt	.L74
 1895              	.LVL203:
 1896              	.L72:
 771:lvgl/src/widgets/lv_arc.c **** }
 1897              		.loc 1 771 5 is_stmt 1 view .LVU623
 1898 0028 6946     		mov	r1, sp
 1899 002a 2046     		mov	r0, r4
 1900 002c FFF7FEFF 		bl	lv_obj_invalidate_area
 1901              	.LVL204:
 772:lvgl/src/widgets/lv_arc.c **** 
 1902              		.loc 1 772 1 is_stmt 0 view .LVU624
 1903 0030 04B0     		add	sp, sp, #16
 1904              		.cfi_remember_state
 1905              		.cfi_def_cfa_offset 8
 1906              		@ sp needed
 1907 0032 10BD     		pop	{r4, pc}
 1908              	.LVL205:
 1909              	.L74:
 1910              		.cfi_restore_state
 768:lvgl/src/widgets/lv_arc.c ****     }
 1911              		.loc 1 768 9 is_stmt 1 view .LVU625
 1912 0034 0A46     		mov	r2, r1
 1913 0036 6846     		mov	r0, sp
 1914              	.LVL206:
 768:lvgl/src/widgets/lv_arc.c ****     }
 1915              		.loc 1 768 9 is_stmt 0 view .LVU626
 1916 0038 FFF7FEFF 		bl	lv_area_increase
 1917              	.LVL207:
 1918 003c F4E7     		b	.L72
 1919              		.cfi_endproc
 1920              	.LFE187:
 1922              		.section	.text.lv_arc_create,"ax",%progbits
 1923              		.align	1
 1924              		.global	lv_arc_create
 1925              		.syntax unified
 1926              		.thumb
 1927              		.thumb_func
 1929              	lv_arc_create:
 1930              	.LVL208:
 1931              	.LFB161:
  69:lvgl/src/widgets/lv_arc.c ****     LV_LOG_INFO("begin");
 1932              		.loc 1 69 1 is_stmt 1 view -0
 1933              		.cfi_startproc
 1934              		@ args = 0, pretend = 0, frame = 0
 1935              		@ frame_needed = 0, uses_anonymous_args = 0
  69:lvgl/src/widgets/lv_arc.c ****     LV_LOG_INFO("begin");
 1936              		.loc 1 69 1 is_stmt 0 view .LVU628
 1937 0000 10B5     		push	{r4, lr}
 1938              		.cfi_def_cfa_offset 8
 1939              		.cfi_offset 4, -8
 1940              		.cfi_offset 14, -4
 1941 0002 0146     		mov	r1, r0
  70:lvgl/src/widgets/lv_arc.c ****     lv_obj_t * obj = lv_obj_class_create_obj(MY_CLASS, parent);
 1942              		.loc 1 70 5 is_stmt 1 view .LVU629
  70:lvgl/src/widgets/lv_arc.c ****     lv_obj_t * obj = lv_obj_class_create_obj(MY_CLASS, parent);
 1943              		.loc 1 70 5 view .LVU630
  70:lvgl/src/widgets/lv_arc.c ****     lv_obj_t * obj = lv_obj_class_create_obj(MY_CLASS, parent);
ARM GAS  C:\Users\OSD\AppData\Local\Temp\ccR88enE.s 			page 69


 1944              		.loc 1 70 5 view .LVU631
  71:lvgl/src/widgets/lv_arc.c ****     lv_obj_class_init_obj(obj);
 1945              		.loc 1 71 5 view .LVU632
  71:lvgl/src/widgets/lv_arc.c ****     lv_obj_class_init_obj(obj);
 1946              		.loc 1 71 22 is_stmt 0 view .LVU633
 1947 0004 0348     		ldr	r0, .L77
 1948              	.LVL209:
  71:lvgl/src/widgets/lv_arc.c ****     lv_obj_class_init_obj(obj);
 1949              		.loc 1 71 22 view .LVU634
 1950 0006 FFF7FEFF 		bl	lv_obj_class_create_obj
 1951              	.LVL210:
  71:lvgl/src/widgets/lv_arc.c ****     lv_obj_class_init_obj(obj);
 1952              		.loc 1 71 22 view .LVU635
 1953 000a 0446     		mov	r4, r0
 1954              	.LVL211:
  72:lvgl/src/widgets/lv_arc.c ****     return obj;
 1955              		.loc 1 72 5 is_stmt 1 view .LVU636
 1956 000c FFF7FEFF 		bl	lv_obj_class_init_obj
 1957              	.LVL212:
  73:lvgl/src/widgets/lv_arc.c **** }
 1958              		.loc 1 73 5 view .LVU637
  74:lvgl/src/widgets/lv_arc.c **** 
 1959              		.loc 1 74 1 is_stmt 0 view .LVU638
 1960 0010 2046     		mov	r0, r4
 1961 0012 10BD     		pop	{r4, pc}
 1962              	.LVL213:
 1963              	.L78:
  74:lvgl/src/widgets/lv_arc.c **** 
 1964              		.loc 1 74 1 view .LVU639
 1965              		.align	2
 1966              	.L77:
 1967 0014 00000000 		.word	.LANCHOR0
 1968              		.cfi_endproc
 1969              	.LFE161:
 1971              		.section	.text.lv_arc_set_start_angle,"ax",%progbits
 1972              		.align	1
 1973              		.global	lv_arc_set_start_angle
 1974              		.syntax unified
 1975              		.thumb
 1976              		.thumb_func
 1978              	lv_arc_set_start_angle:
 1979              	.LVL214:
 1980              	.LFB162:
  89:lvgl/src/widgets/lv_arc.c ****     LV_ASSERT_OBJ(obj, MY_CLASS);
 1981              		.loc 1 89 1 is_stmt 1 view -0
 1982              		.cfi_startproc
 1983              		@ args = 0, pretend = 0, frame = 0
 1984              		@ frame_needed = 0, uses_anonymous_args = 0
  89:lvgl/src/widgets/lv_arc.c ****     LV_ASSERT_OBJ(obj, MY_CLASS);
 1985              		.loc 1 89 1 is_stmt 0 view .LVU641
 1986 0000 38B5     		push	{r3, r4, r5, lr}
 1987              		.cfi_def_cfa_offset 16
 1988              		.cfi_offset 3, -16
 1989              		.cfi_offset 4, -12
 1990              		.cfi_offset 5, -8
 1991              		.cfi_offset 14, -4
 1992 0002 0446     		mov	r4, r0
ARM GAS  C:\Users\OSD\AppData\Local\Temp\ccR88enE.s 			page 70


 1993 0004 0D46     		mov	r5, r1
  90:lvgl/src/widgets/lv_arc.c ****     lv_arc_t * arc = (lv_arc_t *)obj;
 1994              		.loc 1 90 5 is_stmt 1 view .LVU642
  90:lvgl/src/widgets/lv_arc.c ****     lv_arc_t * arc = (lv_arc_t *)obj;
 1995              		.loc 1 90 5 view .LVU643
  90:lvgl/src/widgets/lv_arc.c ****     lv_arc_t * arc = (lv_arc_t *)obj;
 1996              		.loc 1 90 5 view .LVU644
  91:lvgl/src/widgets/lv_arc.c **** 
 1997              		.loc 1 91 5 view .LVU645
 1998              	.LVL215:
  93:lvgl/src/widgets/lv_arc.c **** 
 1999              		.loc 1 93 5 view .LVU646
  93:lvgl/src/widgets/lv_arc.c **** 
 2000              		.loc 1 93 7 is_stmt 0 view .LVU647
 2001 0006 B1F5B47F 		cmp	r1, #360
 2002 000a 02D9     		bls	.L80
  93:lvgl/src/widgets/lv_arc.c **** 
 2003              		.loc 1 93 21 is_stmt 1 discriminator 1 view .LVU648
  93:lvgl/src/widgets/lv_arc.c **** 
 2004              		.loc 1 93 27 is_stmt 0 discriminator 1 view .LVU649
 2005 000c A1F5B475 		sub	r5, r1, #360
 2006 0010 ADB2     		uxth	r5, r5
 2007              	.LVL216:
 2008              	.L80:
  95:lvgl/src/widgets/lv_arc.c ****     int16_t new_delta = arc->indic_angle_end - start;
 2009              		.loc 1 95 5 is_stmt 1 view .LVU650
  95:lvgl/src/widgets/lv_arc.c ****     int16_t new_delta = arc->indic_angle_end - start;
 2010              		.loc 1 95 28 is_stmt 0 view .LVU651
 2011 0012 238D     		ldrh	r3, [r4, #40]
  95:lvgl/src/widgets/lv_arc.c ****     int16_t new_delta = arc->indic_angle_end - start;
 2012              		.loc 1 95 51 view .LVU652
 2013 0014 E18C     		ldrh	r1, [r4, #38]
  95:lvgl/src/widgets/lv_arc.c ****     int16_t new_delta = arc->indic_angle_end - start;
 2014              		.loc 1 95 46 view .LVU653
 2015 0016 5A1A     		subs	r2, r3, r1
 2016 0018 1FFA82FC 		uxth	ip, r2
  95:lvgl/src/widgets/lv_arc.c ****     int16_t new_delta = arc->indic_angle_end - start;
 2017              		.loc 1 95 13 view .LVU654
 2018 001c 12B2     		sxth	r2, r2
 2019              	.LVL217:
  96:lvgl/src/widgets/lv_arc.c **** 
 2020              		.loc 1 96 5 is_stmt 1 view .LVU655
  96:lvgl/src/widgets/lv_arc.c **** 
 2021              		.loc 1 96 46 is_stmt 0 view .LVU656
 2022 001e 5B1B     		subs	r3, r3, r5
 2023 0020 98B2     		uxth	r0, r3
 2024              	.LVL218:
  96:lvgl/src/widgets/lv_arc.c **** 
 2025              		.loc 1 96 13 view .LVU657
 2026 0022 1BB2     		sxth	r3, r3
 2027              	.LVL219:
  98:lvgl/src/widgets/lv_arc.c ****     if(new_delta < 0) new_delta = 360 + new_delta;
 2028              		.loc 1 98 5 is_stmt 1 view .LVU658
  98:lvgl/src/widgets/lv_arc.c ****     if(new_delta < 0) new_delta = 360 + new_delta;
 2029              		.loc 1 98 7 is_stmt 0 view .LVU659
 2030 0024 002A     		cmp	r2, #0
 2031 0026 13DB     		blt	.L87
ARM GAS  C:\Users\OSD\AppData\Local\Temp\ccR88enE.s 			page 71


 2032              	.L81:
  99:lvgl/src/widgets/lv_arc.c **** 
 2033              		.loc 1 99 5 is_stmt 1 view .LVU660
  99:lvgl/src/widgets/lv_arc.c **** 
 2034              		.loc 1 99 7 is_stmt 0 view .LVU661
 2035 0028 002B     		cmp	r3, #0
 2036 002a 15DB     		blt	.L88
 2037              	.L82:
 101:lvgl/src/widgets/lv_arc.c ****     else if(new_delta < old_delta) inv_arc_area(obj, arc->indic_angle_start, start, LV_PART_INDICAT
 2038              		.loc 1 101 5 is_stmt 1 view .LVU662
 101:lvgl/src/widgets/lv_arc.c ****     else if(new_delta < old_delta) inv_arc_area(obj, arc->indic_angle_start, start, LV_PART_INDICAT
 2039              		.loc 1 101 8 is_stmt 0 view .LVU663
 2040 002c 981A     		subs	r0, r3, r2
 2041 002e 0028     		cmp	r0, #0
 2042 0030 B8BF     		it	lt
 2043 0032 4042     		rsblt	r0, r0, #0
 101:lvgl/src/widgets/lv_arc.c ****     else if(new_delta < old_delta) inv_arc_area(obj, arc->indic_angle_start, start, LV_PART_INDICAT
 2044              		.loc 1 101 7 view .LVU664
 2045 0034 B428     		cmp	r0, #180
 2046 0036 13DC     		bgt	.L89
 102:lvgl/src/widgets/lv_arc.c ****     else if(old_delta < new_delta) inv_arc_area(obj, start, arc->indic_angle_start, LV_PART_INDICAT
 2047              		.loc 1 102 10 is_stmt 1 view .LVU665
 102:lvgl/src/widgets/lv_arc.c ****     else if(old_delta < new_delta) inv_arc_area(obj, start, arc->indic_angle_start, LV_PART_INDICAT
 2048              		.loc 1 102 12 is_stmt 0 view .LVU666
 2049 0038 9A42     		cmp	r2, r3
 2050 003a 1CDC     		bgt	.L90
 103:lvgl/src/widgets/lv_arc.c **** 
 2051              		.loc 1 103 10 is_stmt 1 view .LVU667
 103:lvgl/src/widgets/lv_arc.c **** 
 2052              		.loc 1 103 12 is_stmt 0 view .LVU668
 2053 003c 9A42     		cmp	r2, r3
 2054 003e 12DA     		bge	.L84
 103:lvgl/src/widgets/lv_arc.c **** 
 2055              		.loc 1 103 36 is_stmt 1 discriminator 1 view .LVU669
 2056 0040 4FF40033 		mov	r3, #131072
 2057              	.LVL220:
 103:lvgl/src/widgets/lv_arc.c **** 
 2058              		.loc 1 103 36 is_stmt 0 discriminator 1 view .LVU670
 2059 0044 0A46     		mov	r2, r1
 2060              	.LVL221:
 103:lvgl/src/widgets/lv_arc.c **** 
 2061              		.loc 1 103 36 discriminator 1 view .LVU671
 2062 0046 2946     		mov	r1, r5
 2063 0048 2046     		mov	r0, r4
 2064 004a FFF7FEFF 		bl	inv_arc_area
 2065              	.LVL222:
 2066 004e 0AE0     		b	.L84
 2067              	.LVL223:
 2068              	.L87:
  98:lvgl/src/widgets/lv_arc.c ****     if(new_delta < 0) new_delta = 360 + new_delta;
 2069              		.loc 1 98 23 is_stmt 1 discriminator 1 view .LVU672
  98:lvgl/src/widgets/lv_arc.c ****     if(new_delta < 0) new_delta = 360 + new_delta;
 2070              		.loc 1 98 39 is_stmt 0 discriminator 1 view .LVU673
 2071 0050 0CF5B472 		add	r2, ip, #360
 2072              	.LVL224:
  98:lvgl/src/widgets/lv_arc.c ****     if(new_delta < 0) new_delta = 360 + new_delta;
 2073              		.loc 1 98 33 discriminator 1 view .LVU674
ARM GAS  C:\Users\OSD\AppData\Local\Temp\ccR88enE.s 			page 72


 2074 0054 12B2     		sxth	r2, r2
 2075              	.LVL225:
  98:lvgl/src/widgets/lv_arc.c ****     if(new_delta < 0) new_delta = 360 + new_delta;
 2076              		.loc 1 98 33 discriminator 1 view .LVU675
 2077 0056 E7E7     		b	.L81
 2078              	.L88:
  99:lvgl/src/widgets/lv_arc.c **** 
 2079              		.loc 1 99 23 is_stmt 1 discriminator 1 view .LVU676
  99:lvgl/src/widgets/lv_arc.c **** 
 2080              		.loc 1 99 39 is_stmt 0 discriminator 1 view .LVU677
 2081 0058 00F5B473 		add	r3, r0, #360
 2082              	.LVL226:
  99:lvgl/src/widgets/lv_arc.c **** 
 2083              		.loc 1 99 33 discriminator 1 view .LVU678
 2084 005c 1BB2     		sxth	r3, r3
 2085              	.LVL227:
  99:lvgl/src/widgets/lv_arc.c **** 
 2086              		.loc 1 99 33 discriminator 1 view .LVU679
 2087 005e E5E7     		b	.L82
 2088              	.L89:
 101:lvgl/src/widgets/lv_arc.c ****     else if(new_delta < old_delta) inv_arc_area(obj, arc->indic_angle_start, start, LV_PART_INDICAT
 2089              		.loc 1 101 46 is_stmt 1 discriminator 1 view .LVU680
 2090 0060 2046     		mov	r0, r4
 2091 0062 FFF7FEFF 		bl	lv_obj_invalidate
 2092              	.LVL228:
 2093              	.L84:
 105:lvgl/src/widgets/lv_arc.c **** 
 2094              		.loc 1 105 5 view .LVU681
 2095 0066 2046     		mov	r0, r4
 2096 0068 FFF7FEFF 		bl	inv_knob_area
 2097              	.LVL229:
 107:lvgl/src/widgets/lv_arc.c **** 
 2098              		.loc 1 107 5 view .LVU682
 107:lvgl/src/widgets/lv_arc.c **** 
 2099              		.loc 1 107 28 is_stmt 0 view .LVU683
 2100 006c E584     		strh	r5, [r4, #38]	@ movhi
 109:lvgl/src/widgets/lv_arc.c **** }
 2101              		.loc 1 109 5 is_stmt 1 view .LVU684
 2102 006e 2046     		mov	r0, r4
 2103 0070 FFF7FEFF 		bl	inv_knob_area
 2104              	.LVL230:
 110:lvgl/src/widgets/lv_arc.c **** 
 2105              		.loc 1 110 1 is_stmt 0 view .LVU685
 2106 0074 38BD     		pop	{r3, r4, r5, pc}
 2107              	.LVL231:
 2108              	.L90:
 102:lvgl/src/widgets/lv_arc.c ****     else if(old_delta < new_delta) inv_arc_area(obj, start, arc->indic_angle_start, LV_PART_INDICAT
 2109              		.loc 1 102 36 is_stmt 1 discriminator 1 view .LVU686
 2110 0076 4FF40033 		mov	r3, #131072
 2111              	.LVL232:
 102:lvgl/src/widgets/lv_arc.c ****     else if(old_delta < new_delta) inv_arc_area(obj, start, arc->indic_angle_start, LV_PART_INDICAT
 2112              		.loc 1 102 36 is_stmt 0 discriminator 1 view .LVU687
 2113 007a 2A46     		mov	r2, r5
 2114              	.LVL233:
 102:lvgl/src/widgets/lv_arc.c ****     else if(old_delta < new_delta) inv_arc_area(obj, start, arc->indic_angle_start, LV_PART_INDICAT
 2115              		.loc 1 102 36 discriminator 1 view .LVU688
 2116 007c 2046     		mov	r0, r4
ARM GAS  C:\Users\OSD\AppData\Local\Temp\ccR88enE.s 			page 73


 2117 007e FFF7FEFF 		bl	inv_arc_area
 2118              	.LVL234:
 2119 0082 F0E7     		b	.L84
 2120              		.cfi_endproc
 2121              	.LFE162:
 2123              		.section	.text.lv_arc_set_end_angle,"ax",%progbits
 2124              		.align	1
 2125              		.global	lv_arc_set_end_angle
 2126              		.syntax unified
 2127              		.thumb
 2128              		.thumb_func
 2130              	lv_arc_set_end_angle:
 2131              	.LVL235:
 2132              	.LFB163:
 113:lvgl/src/widgets/lv_arc.c ****     LV_ASSERT_OBJ(obj, MY_CLASS);
 2133              		.loc 1 113 1 is_stmt 1 view -0
 2134              		.cfi_startproc
 2135              		@ args = 0, pretend = 0, frame = 0
 2136              		@ frame_needed = 0, uses_anonymous_args = 0
 113:lvgl/src/widgets/lv_arc.c ****     LV_ASSERT_OBJ(obj, MY_CLASS);
 2137              		.loc 1 113 1 is_stmt 0 view .LVU690
 2138 0000 38B5     		push	{r3, r4, r5, lr}
 2139              		.cfi_def_cfa_offset 16
 2140              		.cfi_offset 3, -16
 2141              		.cfi_offset 4, -12
 2142              		.cfi_offset 5, -8
 2143              		.cfi_offset 14, -4
 2144 0002 0446     		mov	r4, r0
 2145 0004 0D46     		mov	r5, r1
 114:lvgl/src/widgets/lv_arc.c ****     lv_arc_t * arc = (lv_arc_t *)obj;
 2146              		.loc 1 114 5 is_stmt 1 view .LVU691
 114:lvgl/src/widgets/lv_arc.c ****     lv_arc_t * arc = (lv_arc_t *)obj;
 2147              		.loc 1 114 5 view .LVU692
 114:lvgl/src/widgets/lv_arc.c ****     lv_arc_t * arc = (lv_arc_t *)obj;
 2148              		.loc 1 114 5 view .LVU693
 115:lvgl/src/widgets/lv_arc.c ****     if(end > 360) end -= 360;
 2149              		.loc 1 115 5 view .LVU694
 2150              	.LVL236:
 116:lvgl/src/widgets/lv_arc.c **** 
 2151              		.loc 1 116 5 view .LVU695
 116:lvgl/src/widgets/lv_arc.c **** 
 2152              		.loc 1 116 7 is_stmt 0 view .LVU696
 2153 0006 B1F5B47F 		cmp	r1, #360
 2154 000a 02D9     		bls	.L92
 116:lvgl/src/widgets/lv_arc.c **** 
 2155              		.loc 1 116 19 is_stmt 1 discriminator 1 view .LVU697
 116:lvgl/src/widgets/lv_arc.c **** 
 2156              		.loc 1 116 23 is_stmt 0 discriminator 1 view .LVU698
 2157 000c A1F5B475 		sub	r5, r1, #360
 2158 0010 ADB2     		uxth	r5, r5
 2159              	.LVL237:
 2160              	.L92:
 118:lvgl/src/widgets/lv_arc.c ****     int16_t new_delta = end - arc->indic_angle_start;
 2161              		.loc 1 118 5 is_stmt 1 view .LVU699
 118:lvgl/src/widgets/lv_arc.c ****     int16_t new_delta = end - arc->indic_angle_start;
 2162              		.loc 1 118 28 is_stmt 0 view .LVU700
 2163 0012 218D     		ldrh	r1, [r4, #40]
ARM GAS  C:\Users\OSD\AppData\Local\Temp\ccR88enE.s 			page 74


 118:lvgl/src/widgets/lv_arc.c ****     int16_t new_delta = end - arc->indic_angle_start;
 2164              		.loc 1 118 51 view .LVU701
 2165 0014 E38C     		ldrh	r3, [r4, #38]
 118:lvgl/src/widgets/lv_arc.c ****     int16_t new_delta = end - arc->indic_angle_start;
 2166              		.loc 1 118 46 view .LVU702
 2167 0016 CA1A     		subs	r2, r1, r3
 2168 0018 1FFA82FC 		uxth	ip, r2
 118:lvgl/src/widgets/lv_arc.c ****     int16_t new_delta = end - arc->indic_angle_start;
 2169              		.loc 1 118 13 view .LVU703
 2170 001c 12B2     		sxth	r2, r2
 2171              	.LVL238:
 119:lvgl/src/widgets/lv_arc.c **** 
 2172              		.loc 1 119 5 is_stmt 1 view .LVU704
 119:lvgl/src/widgets/lv_arc.c **** 
 2173              		.loc 1 119 29 is_stmt 0 view .LVU705
 2174 001e EB1A     		subs	r3, r5, r3
 2175 0020 98B2     		uxth	r0, r3
 2176              	.LVL239:
 119:lvgl/src/widgets/lv_arc.c **** 
 2177              		.loc 1 119 13 view .LVU706
 2178 0022 1BB2     		sxth	r3, r3
 2179              	.LVL240:
 121:lvgl/src/widgets/lv_arc.c ****     if(new_delta < 0) new_delta = 360 + new_delta;
 2180              		.loc 1 121 5 is_stmt 1 view .LVU707
 121:lvgl/src/widgets/lv_arc.c ****     if(new_delta < 0) new_delta = 360 + new_delta;
 2181              		.loc 1 121 7 is_stmt 0 view .LVU708
 2182 0024 002A     		cmp	r2, #0
 2183 0026 12DB     		blt	.L99
 2184              	.L93:
 122:lvgl/src/widgets/lv_arc.c **** 
 2185              		.loc 1 122 5 is_stmt 1 view .LVU709
 122:lvgl/src/widgets/lv_arc.c **** 
 2186              		.loc 1 122 7 is_stmt 0 view .LVU710
 2187 0028 002B     		cmp	r3, #0
 2188 002a 14DB     		blt	.L100
 2189              	.L94:
 124:lvgl/src/widgets/lv_arc.c ****     else if(new_delta < old_delta) inv_arc_area(obj, end, arc->indic_angle_end, LV_PART_INDICATOR);
 2190              		.loc 1 124 5 is_stmt 1 view .LVU711
 124:lvgl/src/widgets/lv_arc.c ****     else if(new_delta < old_delta) inv_arc_area(obj, end, arc->indic_angle_end, LV_PART_INDICATOR);
 2191              		.loc 1 124 8 is_stmt 0 view .LVU712
 2192 002c 981A     		subs	r0, r3, r2
 2193 002e 0028     		cmp	r0, #0
 2194 0030 B8BF     		it	lt
 2195 0032 4042     		rsblt	r0, r0, #0
 124:lvgl/src/widgets/lv_arc.c ****     else if(new_delta < old_delta) inv_arc_area(obj, end, arc->indic_angle_end, LV_PART_INDICATOR);
 2196              		.loc 1 124 7 view .LVU713
 2197 0034 B428     		cmp	r0, #180
 2198 0036 12DC     		bgt	.L101
 125:lvgl/src/widgets/lv_arc.c ****     else if(old_delta < new_delta) inv_arc_area(obj, arc->indic_angle_end, end, LV_PART_INDICATOR);
 2199              		.loc 1 125 10 is_stmt 1 view .LVU714
 125:lvgl/src/widgets/lv_arc.c ****     else if(old_delta < new_delta) inv_arc_area(obj, arc->indic_angle_end, end, LV_PART_INDICATOR);
 2200              		.loc 1 125 12 is_stmt 0 view .LVU715
 2201 0038 9A42     		cmp	r2, r3
 2202 003a 1BDC     		bgt	.L102
 126:lvgl/src/widgets/lv_arc.c **** 
 2203              		.loc 1 126 10 is_stmt 1 view .LVU716
 126:lvgl/src/widgets/lv_arc.c **** 
ARM GAS  C:\Users\OSD\AppData\Local\Temp\ccR88enE.s 			page 75


 2204              		.loc 1 126 12 is_stmt 0 view .LVU717
 2205 003c 9A42     		cmp	r2, r3
 2206 003e 11DA     		bge	.L96
 126:lvgl/src/widgets/lv_arc.c **** 
 2207              		.loc 1 126 36 is_stmt 1 discriminator 1 view .LVU718
 2208 0040 4FF40033 		mov	r3, #131072
 2209              	.LVL241:
 126:lvgl/src/widgets/lv_arc.c **** 
 2210              		.loc 1 126 36 is_stmt 0 discriminator 1 view .LVU719
 2211 0044 2A46     		mov	r2, r5
 2212              	.LVL242:
 126:lvgl/src/widgets/lv_arc.c **** 
 2213              		.loc 1 126 36 discriminator 1 view .LVU720
 2214 0046 2046     		mov	r0, r4
 2215 0048 FFF7FEFF 		bl	inv_arc_area
 2216              	.LVL243:
 2217 004c 0AE0     		b	.L96
 2218              	.LVL244:
 2219              	.L99:
 121:lvgl/src/widgets/lv_arc.c ****     if(new_delta < 0) new_delta = 360 + new_delta;
 2220              		.loc 1 121 23 is_stmt 1 discriminator 1 view .LVU721
 121:lvgl/src/widgets/lv_arc.c ****     if(new_delta < 0) new_delta = 360 + new_delta;
 2221              		.loc 1 121 39 is_stmt 0 discriminator 1 view .LVU722
 2222 004e 0CF5B472 		add	r2, ip, #360
 2223              	.LVL245:
 121:lvgl/src/widgets/lv_arc.c ****     if(new_delta < 0) new_delta = 360 + new_delta;
 2224              		.loc 1 121 33 discriminator 1 view .LVU723
 2225 0052 12B2     		sxth	r2, r2
 2226              	.LVL246:
 121:lvgl/src/widgets/lv_arc.c ****     if(new_delta < 0) new_delta = 360 + new_delta;
 2227              		.loc 1 121 33 discriminator 1 view .LVU724
 2228 0054 E8E7     		b	.L93
 2229              	.L100:
 122:lvgl/src/widgets/lv_arc.c **** 
 2230              		.loc 1 122 23 is_stmt 1 discriminator 1 view .LVU725
 122:lvgl/src/widgets/lv_arc.c **** 
 2231              		.loc 1 122 39 is_stmt 0 discriminator 1 view .LVU726
 2232 0056 00F5B473 		add	r3, r0, #360
 2233              	.LVL247:
 122:lvgl/src/widgets/lv_arc.c **** 
 2234              		.loc 1 122 33 discriminator 1 view .LVU727
 2235 005a 1BB2     		sxth	r3, r3
 2236              	.LVL248:
 122:lvgl/src/widgets/lv_arc.c **** 
 2237              		.loc 1 122 33 discriminator 1 view .LVU728
 2238 005c E6E7     		b	.L94
 2239              	.L101:
 124:lvgl/src/widgets/lv_arc.c ****     else if(new_delta < old_delta) inv_arc_area(obj, end, arc->indic_angle_end, LV_PART_INDICATOR);
 2240              		.loc 1 124 46 is_stmt 1 discriminator 1 view .LVU729
 2241 005e 2046     		mov	r0, r4
 2242 0060 FFF7FEFF 		bl	lv_obj_invalidate
 2243              	.LVL249:
 2244              	.L96:
 128:lvgl/src/widgets/lv_arc.c **** 
 2245              		.loc 1 128 5 view .LVU730
 2246 0064 2046     		mov	r0, r4
 2247 0066 FFF7FEFF 		bl	inv_knob_area
ARM GAS  C:\Users\OSD\AppData\Local\Temp\ccR88enE.s 			page 76


 2248              	.LVL250:
 130:lvgl/src/widgets/lv_arc.c **** 
 2249              		.loc 1 130 5 view .LVU731
 130:lvgl/src/widgets/lv_arc.c **** 
 2250              		.loc 1 130 26 is_stmt 0 view .LVU732
 2251 006a 2585     		strh	r5, [r4, #40]	@ movhi
 132:lvgl/src/widgets/lv_arc.c **** }
 2252              		.loc 1 132 5 is_stmt 1 view .LVU733
 2253 006c 2046     		mov	r0, r4
 2254 006e FFF7FEFF 		bl	inv_knob_area
 2255              	.LVL251:
 133:lvgl/src/widgets/lv_arc.c **** 
 2256              		.loc 1 133 1 is_stmt 0 view .LVU734
 2257 0072 38BD     		pop	{r3, r4, r5, pc}
 2258              	.LVL252:
 2259              	.L102:
 125:lvgl/src/widgets/lv_arc.c ****     else if(old_delta < new_delta) inv_arc_area(obj, arc->indic_angle_end, end, LV_PART_INDICATOR);
 2260              		.loc 1 125 36 is_stmt 1 discriminator 1 view .LVU735
 2261 0074 4FF40033 		mov	r3, #131072
 2262              	.LVL253:
 125:lvgl/src/widgets/lv_arc.c ****     else if(old_delta < new_delta) inv_arc_area(obj, arc->indic_angle_end, end, LV_PART_INDICATOR);
 2263              		.loc 1 125 36 is_stmt 0 discriminator 1 view .LVU736
 2264 0078 0A46     		mov	r2, r1
 2265              	.LVL254:
 125:lvgl/src/widgets/lv_arc.c ****     else if(old_delta < new_delta) inv_arc_area(obj, arc->indic_angle_end, end, LV_PART_INDICATOR);
 2266              		.loc 1 125 36 discriminator 1 view .LVU737
 2267 007a 2946     		mov	r1, r5
 2268 007c 2046     		mov	r0, r4
 2269 007e FFF7FEFF 		bl	inv_arc_area
 2270              	.LVL255:
 2271 0082 EFE7     		b	.L96
 2272              		.cfi_endproc
 2273              	.LFE163:
 2275              		.section	.text.lv_arc_set_angles,"ax",%progbits
 2276              		.align	1
 2277              		.global	lv_arc_set_angles
 2278              		.syntax unified
 2279              		.thumb
 2280              		.thumb_func
 2282              	lv_arc_set_angles:
 2283              	.LVL256:
 2284              	.LFB164:
 136:lvgl/src/widgets/lv_arc.c ****     lv_arc_set_end_angle(obj, end);
 2285              		.loc 1 136 1 is_stmt 1 view -0
 2286              		.cfi_startproc
 2287              		@ args = 0, pretend = 0, frame = 0
 2288              		@ frame_needed = 0, uses_anonymous_args = 0
 136:lvgl/src/widgets/lv_arc.c ****     lv_arc_set_end_angle(obj, end);
 2289              		.loc 1 136 1 is_stmt 0 view .LVU739
 2290 0000 38B5     		push	{r3, r4, r5, lr}
 2291              		.cfi_def_cfa_offset 16
 2292              		.cfi_offset 3, -16
 2293              		.cfi_offset 4, -12
 2294              		.cfi_offset 5, -8
 2295              		.cfi_offset 14, -4
 2296 0002 0446     		mov	r4, r0
 2297 0004 0D46     		mov	r5, r1
ARM GAS  C:\Users\OSD\AppData\Local\Temp\ccR88enE.s 			page 77


 137:lvgl/src/widgets/lv_arc.c ****     lv_arc_set_start_angle(obj, start);
 2298              		.loc 1 137 5 is_stmt 1 view .LVU740
 2299 0006 1146     		mov	r1, r2
 2300              	.LVL257:
 137:lvgl/src/widgets/lv_arc.c ****     lv_arc_set_start_angle(obj, start);
 2301              		.loc 1 137 5 is_stmt 0 view .LVU741
 2302 0008 FFF7FEFF 		bl	lv_arc_set_end_angle
 2303              	.LVL258:
 138:lvgl/src/widgets/lv_arc.c **** }
 2304              		.loc 1 138 5 is_stmt 1 view .LVU742
 2305 000c 2946     		mov	r1, r5
 2306 000e 2046     		mov	r0, r4
 2307 0010 FFF7FEFF 		bl	lv_arc_set_start_angle
 2308              	.LVL259:
 139:lvgl/src/widgets/lv_arc.c **** 
 2309              		.loc 1 139 1 is_stmt 0 view .LVU743
 2310 0014 38BD     		pop	{r3, r4, r5, pc}
 139:lvgl/src/widgets/lv_arc.c **** 
 2311              		.loc 1 139 1 view .LVU744
 2312              		.cfi_endproc
 2313              	.LFE164:
 2315              		.section	.text.value_update,"ax",%progbits
 2316              		.align	1
 2317              		.syntax unified
 2318              		.thumb
 2319              		.thumb_func
 2321              	value_update:
 2322              	.LVL260:
 2323              	.LFB191:
 841:lvgl/src/widgets/lv_arc.c ****     LV_ASSERT_OBJ(obj, MY_CLASS);
 2324              		.loc 1 841 1 is_stmt 1 view -0
 2325              		.cfi_startproc
 2326              		@ args = 0, pretend = 0, frame = 0
 2327              		@ frame_needed = 0, uses_anonymous_args = 0
 841:lvgl/src/widgets/lv_arc.c ****     LV_ASSERT_OBJ(obj, MY_CLASS);
 2328              		.loc 1 841 1 is_stmt 0 view .LVU746
 2329 0000 F0B5     		push	{r4, r5, r6, r7, lr}
 2330              		.cfi_def_cfa_offset 20
 2331              		.cfi_offset 4, -20
 2332              		.cfi_offset 5, -16
 2333              		.cfi_offset 6, -12
 2334              		.cfi_offset 7, -8
 2335              		.cfi_offset 14, -4
 2336 0002 83B0     		sub	sp, sp, #12
 2337              		.cfi_def_cfa_offset 32
 2338 0004 0446     		mov	r4, r0
 842:lvgl/src/widgets/lv_arc.c ****     lv_arc_t * arc = (lv_arc_t *)obj;
 2339              		.loc 1 842 5 is_stmt 1 view .LVU747
 842:lvgl/src/widgets/lv_arc.c ****     lv_arc_t * arc = (lv_arc_t *)obj;
 2340              		.loc 1 842 5 view .LVU748
 842:lvgl/src/widgets/lv_arc.c ****     lv_arc_t * arc = (lv_arc_t *)obj;
 2341              		.loc 1 842 5 view .LVU749
 843:lvgl/src/widgets/lv_arc.c **** 
 2342              		.loc 1 843 5 view .LVU750
 2343              	.LVL261:
 846:lvgl/src/widgets/lv_arc.c **** 
 2344              		.loc 1 846 5 view .LVU751
ARM GAS  C:\Users\OSD\AppData\Local\Temp\ccR88enE.s 			page 78


 846:lvgl/src/widgets/lv_arc.c **** 
 2345              		.loc 1 846 11 is_stmt 0 view .LVU752
 2346 0006 B0F92E00 		ldrsh	r0, [r0, #46]
 2347              	.LVL262:
 846:lvgl/src/widgets/lv_arc.c **** 
 2348              		.loc 1 846 7 view .LVU753
 2349 000a 10F5004F 		cmn	r0, #32768
 2350 000e 64D0     		beq	.L105
 848:lvgl/src/widgets/lv_arc.c ****     if(arc->bg_angle_end < arc->bg_angle_start) bg_end = arc->bg_angle_end + 360;
 2351              		.loc 1 848 5 is_stmt 1 view .LVU754
 848:lvgl/src/widgets/lv_arc.c ****     if(arc->bg_angle_end < arc->bg_angle_start) bg_end = arc->bg_angle_end + 360;
 2352              		.loc 1 848 54 is_stmt 0 view .LVU755
 2353 0010 A28D     		ldrh	r2, [r4, #44]
 848:lvgl/src/widgets/lv_arc.c ****     if(arc->bg_angle_end < arc->bg_angle_start) bg_end = arc->bg_angle_end + 360;
 2354              		.loc 1 848 42 view .LVU756
 2355 0012 B4F92C10 		ldrsh	r1, [r4, #44]
 2356              	.LVL263:
 849:lvgl/src/widgets/lv_arc.c **** 
 2357              		.loc 1 849 5 is_stmt 1 view .LVU757
 849:lvgl/src/widgets/lv_arc.c **** 
 2358              		.loc 1 849 31 is_stmt 0 view .LVU758
 2359 0016 638D     		ldrh	r3, [r4, #42]
 849:lvgl/src/widgets/lv_arc.c **** 
 2360              		.loc 1 849 7 view .LVU759
 2361 0018 9A42     		cmp	r2, r3
 2362 001a 02D2     		bcs	.L107
 849:lvgl/src/widgets/lv_arc.c **** 
 2363              		.loc 1 849 49 is_stmt 1 discriminator 1 view .LVU760
 849:lvgl/src/widgets/lv_arc.c **** 
 2364              		.loc 1 849 76 is_stmt 0 discriminator 1 view .LVU761
 2365 001c 02F5B472 		add	r2, r2, #360
 849:lvgl/src/widgets/lv_arc.c **** 
 2366              		.loc 1 849 56 discriminator 1 view .LVU762
 2367 0020 11B2     		sxth	r1, r2
 2368              	.LVL264:
 2369              	.L107:
 851:lvgl/src/widgets/lv_arc.c ****     switch(arc->type) {
 2370              		.loc 1 851 5 is_stmt 1 view .LVU763
 852:lvgl/src/widgets/lv_arc.c ****         case LV_ARC_MODE_SYMMETRICAL:
 2371              		.loc 1 852 5 view .LVU764
 852:lvgl/src/widgets/lv_arc.c ****         case LV_ARC_MODE_SYMMETRICAL:
 2372              		.loc 1 852 15 is_stmt 0 view .LVU765
 2373 0022 94F83420 		ldrb	r2, [r4, #52]	@ zero_extendqisi2
 2374 0026 C2F34102 		ubfx	r2, r2, #1, #2
 852:lvgl/src/widgets/lv_arc.c ****         case LV_ARC_MODE_SYMMETRICAL:
 2375              		.loc 1 852 5 view .LVU766
 2376 002a 012A     		cmp	r2, #1
 2377 002c 11D0     		beq	.L108
 852:lvgl/src/widgets/lv_arc.c ****         case LV_ARC_MODE_SYMMETRICAL:
 2378              		.loc 1 852 5 view .LVU767
 2379 002e 022A     		cmp	r2, #2
 2380 0030 43D0     		beq	.L109
 2381 0032 002A     		cmp	r2, #0
 2382 0034 51D1     		bne	.L105
 873:lvgl/src/widgets/lv_arc.c ****             lv_arc_set_angles(obj, arc->bg_angle_start, angle);
 2383              		.loc 1 873 13 is_stmt 1 view .LVU768
 873:lvgl/src/widgets/lv_arc.c ****             lv_arc_set_angles(obj, arc->bg_angle_start, angle);
ARM GAS  C:\Users\OSD\AppData\Local\Temp\ccR88enE.s 			page 79


 2384              		.loc 1 873 21 is_stmt 0 view .LVU769
 2385 0036 0091     		str	r1, [sp]
 2386 0038 B4F93220 		ldrsh	r2, [r4, #50]
 2387 003c B4F93010 		ldrsh	r1, [r4, #48]
 2388              	.LVL265:
 873:lvgl/src/widgets/lv_arc.c ****             lv_arc_set_angles(obj, arc->bg_angle_start, angle);
 2389              		.loc 1 873 21 view .LVU770
 2390 0040 FFF7FEFF 		bl	lv_map
 2391              	.LVL266:
 873:lvgl/src/widgets/lv_arc.c ****             lv_arc_set_angles(obj, arc->bg_angle_start, angle);
 2392              		.loc 1 873 19 view .LVU771
 2393 0044 05B2     		sxth	r5, r0
 2394              	.LVL267:
 874:lvgl/src/widgets/lv_arc.c **** 
 2395              		.loc 1 874 13 is_stmt 1 view .LVU772
 2396 0046 82B2     		uxth	r2, r0
 2397 0048 618D     		ldrh	r1, [r4, #42]
 2398 004a 2046     		mov	r0, r4
 2399 004c FFF7FEFF 		bl	lv_arc_set_angles
 2400              	.LVL268:
 876:lvgl/src/widgets/lv_arc.c ****         default:
 2401              		.loc 1 876 13 view .LVU773
 2402 0050 41E0     		b	.L114
 2403              	.LVL269:
 2404              	.L108:
 854:lvgl/src/widgets/lv_arc.c ****             range_midpoint = (int32_t)(arc->min_value + arc->max_value) / 2;
 2405              		.loc 1 854 13 view .LVU774
 854:lvgl/src/widgets/lv_arc.c ****             range_midpoint = (int32_t)(arc->min_value + arc->max_value) / 2;
 2406              		.loc 1 854 48 is_stmt 0 view .LVU775
 2407 0052 0F46     		mov	r7, r1
 854:lvgl/src/widgets/lv_arc.c ****             range_midpoint = (int32_t)(arc->min_value + arc->max_value) / 2;
 2408              		.loc 1 854 58 view .LVU776
 2409 0054 5918     		adds	r1, r3, r1
 2410              	.LVL270:
 854:lvgl/src/widgets/lv_arc.c ****             range_midpoint = (int32_t)(arc->min_value + arc->max_value) / 2;
 2411              		.loc 1 854 58 view .LVU777
 2412 0056 1CD4     		bmi	.L116
 2413              	.L111:
 2414 0058 4E10     		asrs	r6, r1, #1
 854:lvgl/src/widgets/lv_arc.c ****             range_midpoint = (int32_t)(arc->min_value + arc->max_value) / 2;
 2415              		.loc 1 854 25 view .LVU778
 2416 005a 41F34F05 		sbfx	r5, r1, #1, #16
 2417              	.LVL271:
 855:lvgl/src/widgets/lv_arc.c **** 
 2418              		.loc 1 855 13 is_stmt 1 view .LVU779
 855:lvgl/src/widgets/lv_arc.c **** 
 2419              		.loc 1 855 43 is_stmt 0 view .LVU780
 2420 005e B4F930E0 		ldrsh	lr, [r4, #48]
 855:lvgl/src/widgets/lv_arc.c **** 
 2421              		.loc 1 855 60 view .LVU781
 2422 0062 B4F93220 		ldrsh	r2, [r4, #50]
 855:lvgl/src/widgets/lv_arc.c **** 
 2423              		.loc 1 855 73 view .LVU782
 2424 0066 1EEB020C 		adds	ip, lr, r2
 2425 006a 14D4     		bmi	.L117
 2426              	.L112:
 855:lvgl/src/widgets/lv_arc.c **** 
ARM GAS  C:\Users\OSD\AppData\Local\Temp\ccR88enE.s 			page 80


 2427              		.loc 1 855 28 view .LVU783
 2428 006c 4CF34F01 		sbfx	r1, ip, #1, #16
 2429              	.LVL272:
 857:lvgl/src/widgets/lv_arc.c ****                 angle = lv_map(arc->value, arc->min_value, range_midpoint, arc->bg_angle_start, bg_
 2430              		.loc 1 857 13 is_stmt 1 view .LVU784
 857:lvgl/src/widgets/lv_arc.c ****                 angle = lv_map(arc->value, arc->min_value, range_midpoint, arc->bg_angle_start, bg_
 2431              		.loc 1 857 15 is_stmt 0 view .LVU785
 2432 0070 8842     		cmp	r0, r1
 2433 0072 13DA     		bge	.L113
 858:lvgl/src/widgets/lv_arc.c ****                 lv_arc_set_start_angle(obj, angle);
 2434              		.loc 1 858 17 is_stmt 1 view .LVU786
 858:lvgl/src/widgets/lv_arc.c ****                 lv_arc_set_start_angle(obj, angle);
 2435              		.loc 1 858 25 is_stmt 0 view .LVU787
 2436 0074 0095     		str	r5, [sp]
 2437 0076 0A46     		mov	r2, r1
 2438 0078 7146     		mov	r1, lr
 2439              	.LVL273:
 858:lvgl/src/widgets/lv_arc.c ****                 lv_arc_set_start_angle(obj, angle);
 2440              		.loc 1 858 25 view .LVU788
 2441 007a FFF7FEFF 		bl	lv_map
 2442              	.LVL274:
 858:lvgl/src/widgets/lv_arc.c ****                 lv_arc_set_start_angle(obj, angle);
 2443              		.loc 1 858 23 view .LVU789
 2444 007e 05B2     		sxth	r5, r0
 2445              	.LVL275:
 859:lvgl/src/widgets/lv_arc.c ****                 lv_arc_set_end_angle(obj, bg_midpoint);
 2446              		.loc 1 859 17 is_stmt 1 view .LVU790
 2447 0080 81B2     		uxth	r1, r0
 2448 0082 2046     		mov	r0, r4
 2449 0084 FFF7FEFF 		bl	lv_arc_set_start_angle
 2450              	.LVL276:
 860:lvgl/src/widgets/lv_arc.c ****             }
 2451              		.loc 1 860 17 view .LVU791
 2452 0088 B1B2     		uxth	r1, r6
 2453 008a 2046     		mov	r0, r4
 2454 008c FFF7FEFF 		bl	lv_arc_set_end_angle
 2455              	.LVL277:
 2456 0090 21E0     		b	.L114
 2457              	.LVL278:
 2458              	.L116:
 854:lvgl/src/widgets/lv_arc.c ****             range_midpoint = (int32_t)(arc->min_value + arc->max_value) / 2;
 2459              		.loc 1 854 58 is_stmt 0 view .LVU792
 2460 0092 0131     		adds	r1, r1, #1
 2461 0094 E0E7     		b	.L111
 2462              	.LVL279:
 2463              	.L117:
 855:lvgl/src/widgets/lv_arc.c **** 
 2464              		.loc 1 855 73 view .LVU793
 2465 0096 0CF1010C 		add	ip, ip, #1
 2466 009a E7E7     		b	.L112
 2467              	.LVL280:
 2468              	.L113:
 863:lvgl/src/widgets/lv_arc.c ****                 lv_arc_set_start_angle(obj, bg_midpoint);
 2469              		.loc 1 863 17 is_stmt 1 view .LVU794
 863:lvgl/src/widgets/lv_arc.c ****                 lv_arc_set_start_angle(obj, bg_midpoint);
 2470              		.loc 1 863 25 is_stmt 0 view .LVU795
 2471 009c 0097     		str	r7, [sp]
ARM GAS  C:\Users\OSD\AppData\Local\Temp\ccR88enE.s 			page 81


 2472 009e 2B46     		mov	r3, r5
 2473 00a0 FFF7FEFF 		bl	lv_map
 2474              	.LVL281:
 863:lvgl/src/widgets/lv_arc.c ****                 lv_arc_set_start_angle(obj, bg_midpoint);
 2475              		.loc 1 863 25 view .LVU796
 2476 00a4 0746     		mov	r7, r0
 863:lvgl/src/widgets/lv_arc.c ****                 lv_arc_set_start_angle(obj, bg_midpoint);
 2477              		.loc 1 863 23 view .LVU797
 2478 00a6 05B2     		sxth	r5, r0
 2479              	.LVL282:
 864:lvgl/src/widgets/lv_arc.c ****                 lv_arc_set_end_angle(obj, angle);
 2480              		.loc 1 864 17 is_stmt 1 view .LVU798
 2481 00a8 B1B2     		uxth	r1, r6
 2482 00aa 2046     		mov	r0, r4
 2483 00ac FFF7FEFF 		bl	lv_arc_set_start_angle
 2484              	.LVL283:
 865:lvgl/src/widgets/lv_arc.c ****             }
 2485              		.loc 1 865 17 view .LVU799
 2486 00b0 B9B2     		uxth	r1, r7
 2487 00b2 2046     		mov	r0, r4
 2488 00b4 FFF7FEFF 		bl	lv_arc_set_end_angle
 2489              	.LVL284:
 2490 00b8 0DE0     		b	.L114
 2491              	.LVL285:
 2492              	.L109:
 869:lvgl/src/widgets/lv_arc.c ****             lv_arc_set_angles(obj, angle, arc->bg_angle_end);
 2493              		.loc 1 869 13 view .LVU800
 869:lvgl/src/widgets/lv_arc.c ****             lv_arc_set_angles(obj, angle, arc->bg_angle_end);
 2494              		.loc 1 869 21 is_stmt 0 view .LVU801
 2495 00ba 0093     		str	r3, [sp]
 2496 00bc 0B46     		mov	r3, r1
 2497 00be B4F93220 		ldrsh	r2, [r4, #50]
 2498 00c2 B4F93010 		ldrsh	r1, [r4, #48]
 2499              	.LVL286:
 869:lvgl/src/widgets/lv_arc.c ****             lv_arc_set_angles(obj, angle, arc->bg_angle_end);
 2500              		.loc 1 869 21 view .LVU802
 2501 00c6 FFF7FEFF 		bl	lv_map
 2502              	.LVL287:
 869:lvgl/src/widgets/lv_arc.c ****             lv_arc_set_angles(obj, angle, arc->bg_angle_end);
 2503              		.loc 1 869 19 view .LVU803
 2504 00ca 05B2     		sxth	r5, r0
 2505              	.LVL288:
 870:lvgl/src/widgets/lv_arc.c ****             break;
 2506              		.loc 1 870 13 is_stmt 1 view .LVU804
 2507 00cc A28D     		ldrh	r2, [r4, #44]
 2508 00ce 81B2     		uxth	r1, r0
 2509 00d0 2046     		mov	r0, r4
 2510 00d2 FFF7FEFF 		bl	lv_arc_set_angles
 2511              	.LVL289:
 871:lvgl/src/widgets/lv_arc.c ****         case LV_ARC_MODE_NORMAL:
 2512              		.loc 1 871 13 view .LVU805
 2513              	.L114:
 881:lvgl/src/widgets/lv_arc.c **** }
 2514              		.loc 1 881 5 view .LVU806
 881:lvgl/src/widgets/lv_arc.c **** }
 2515              		.loc 1 881 21 is_stmt 0 view .LVU807
 2516 00d6 A4F84050 		strh	r5, [r4, #64]	@ movhi
ARM GAS  C:\Users\OSD\AppData\Local\Temp\ccR88enE.s 			page 82


 2517              	.LVL290:
 2518              	.L105:
 882:lvgl/src/widgets/lv_arc.c **** 
 2519              		.loc 1 882 1 view .LVU808
 2520 00da 03B0     		add	sp, sp, #12
 2521              		.cfi_def_cfa_offset 20
 2522              		@ sp needed
 2523 00dc F0BD     		pop	{r4, r5, r6, r7, pc}
 882:lvgl/src/widgets/lv_arc.c **** 
 2524              		.loc 1 882 1 view .LVU809
 2525              		.cfi_endproc
 2526              	.LFE191:
 2528              		.section	.text.lv_arc_set_bg_start_angle,"ax",%progbits
 2529              		.align	1
 2530              		.global	lv_arc_set_bg_start_angle
 2531              		.syntax unified
 2532              		.thumb
 2533              		.thumb_func
 2535              	lv_arc_set_bg_start_angle:
 2536              	.LVL291:
 2537              	.LFB165:
 142:lvgl/src/widgets/lv_arc.c ****     LV_ASSERT_OBJ(obj, MY_CLASS);
 2538              		.loc 1 142 1 is_stmt 1 view -0
 2539              		.cfi_startproc
 2540              		@ args = 0, pretend = 0, frame = 0
 2541              		@ frame_needed = 0, uses_anonymous_args = 0
 142:lvgl/src/widgets/lv_arc.c ****     LV_ASSERT_OBJ(obj, MY_CLASS);
 2542              		.loc 1 142 1 is_stmt 0 view .LVU811
 2543 0000 38B5     		push	{r3, r4, r5, lr}
 2544              		.cfi_def_cfa_offset 16
 2545              		.cfi_offset 3, -16
 2546              		.cfi_offset 4, -12
 2547              		.cfi_offset 5, -8
 2548              		.cfi_offset 14, -4
 2549 0002 0546     		mov	r5, r0
 2550 0004 0C46     		mov	r4, r1
 143:lvgl/src/widgets/lv_arc.c ****     lv_arc_t * arc = (lv_arc_t *)obj;
 2551              		.loc 1 143 5 is_stmt 1 view .LVU812
 143:lvgl/src/widgets/lv_arc.c ****     lv_arc_t * arc = (lv_arc_t *)obj;
 2552              		.loc 1 143 5 view .LVU813
 143:lvgl/src/widgets/lv_arc.c ****     lv_arc_t * arc = (lv_arc_t *)obj;
 2553              		.loc 1 143 5 view .LVU814
 144:lvgl/src/widgets/lv_arc.c **** 
 2554              		.loc 1 144 5 view .LVU815
 2555              	.LVL292:
 146:lvgl/src/widgets/lv_arc.c **** 
 2556              		.loc 1 146 5 view .LVU816
 146:lvgl/src/widgets/lv_arc.c **** 
 2557              		.loc 1 146 7 is_stmt 0 view .LVU817
 2558 0006 B1F5B47F 		cmp	r1, #360
 2559 000a 02D9     		bls	.L119
 146:lvgl/src/widgets/lv_arc.c **** 
 2560              		.loc 1 146 21 is_stmt 1 discriminator 1 view .LVU818
 146:lvgl/src/widgets/lv_arc.c **** 
 2561              		.loc 1 146 27 is_stmt 0 discriminator 1 view .LVU819
 2562 000c A1F5B474 		sub	r4, r1, #360
 2563 0010 A4B2     		uxth	r4, r4
ARM GAS  C:\Users\OSD\AppData\Local\Temp\ccR88enE.s 			page 83


 2564              	.LVL293:
 2565              	.L119:
 148:lvgl/src/widgets/lv_arc.c ****     int16_t new_delta = arc->bg_angle_end - start;
 2566              		.loc 1 148 5 is_stmt 1 view .LVU820
 148:lvgl/src/widgets/lv_arc.c ****     int16_t new_delta = arc->bg_angle_end - start;
 2567              		.loc 1 148 28 is_stmt 0 view .LVU821
 2568 0012 AB8D     		ldrh	r3, [r5, #44]
 148:lvgl/src/widgets/lv_arc.c ****     int16_t new_delta = arc->bg_angle_end - start;
 2569              		.loc 1 148 48 view .LVU822
 2570 0014 698D     		ldrh	r1, [r5, #42]
 148:lvgl/src/widgets/lv_arc.c ****     int16_t new_delta = arc->bg_angle_end - start;
 2571              		.loc 1 148 43 view .LVU823
 2572 0016 5A1A     		subs	r2, r3, r1
 2573 0018 1FFA82FC 		uxth	ip, r2
 148:lvgl/src/widgets/lv_arc.c ****     int16_t new_delta = arc->bg_angle_end - start;
 2574              		.loc 1 148 13 view .LVU824
 2575 001c 12B2     		sxth	r2, r2
 2576              	.LVL294:
 149:lvgl/src/widgets/lv_arc.c **** 
 2577              		.loc 1 149 5 is_stmt 1 view .LVU825
 149:lvgl/src/widgets/lv_arc.c **** 
 2578              		.loc 1 149 43 is_stmt 0 view .LVU826
 2579 001e 1B1B     		subs	r3, r3, r4
 2580 0020 98B2     		uxth	r0, r3
 2581              	.LVL295:
 149:lvgl/src/widgets/lv_arc.c **** 
 2582              		.loc 1 149 13 view .LVU827
 2583 0022 1BB2     		sxth	r3, r3
 2584              	.LVL296:
 151:lvgl/src/widgets/lv_arc.c ****     if(new_delta < 0) new_delta = 360 + new_delta;
 2585              		.loc 1 151 5 is_stmt 1 view .LVU828
 151:lvgl/src/widgets/lv_arc.c ****     if(new_delta < 0) new_delta = 360 + new_delta;
 2586              		.loc 1 151 7 is_stmt 0 view .LVU829
 2587 0024 002A     		cmp	r2, #0
 2588 0026 12DB     		blt	.L126
 2589              	.L120:
 152:lvgl/src/widgets/lv_arc.c **** 
 2590              		.loc 1 152 5 is_stmt 1 view .LVU830
 152:lvgl/src/widgets/lv_arc.c **** 
 2591              		.loc 1 152 7 is_stmt 0 view .LVU831
 2592 0028 002B     		cmp	r3, #0
 2593 002a 14DB     		blt	.L127
 2594              	.L121:
 154:lvgl/src/widgets/lv_arc.c ****     else if(new_delta < old_delta) inv_arc_area(obj, arc->bg_angle_start, start, LV_PART_MAIN);
 2595              		.loc 1 154 5 is_stmt 1 view .LVU832
 154:lvgl/src/widgets/lv_arc.c ****     else if(new_delta < old_delta) inv_arc_area(obj, arc->bg_angle_start, start, LV_PART_MAIN);
 2596              		.loc 1 154 8 is_stmt 0 view .LVU833
 2597 002c 981A     		subs	r0, r3, r2
 2598 002e 0028     		cmp	r0, #0
 2599 0030 B8BF     		it	lt
 2600 0032 4042     		rsblt	r0, r0, #0
 154:lvgl/src/widgets/lv_arc.c ****     else if(new_delta < old_delta) inv_arc_area(obj, arc->bg_angle_start, start, LV_PART_MAIN);
 2601              		.loc 1 154 7 view .LVU834
 2602 0034 B428     		cmp	r0, #180
 2603 0036 12DC     		bgt	.L128
 155:lvgl/src/widgets/lv_arc.c ****     else if(old_delta < new_delta) inv_arc_area(obj, start, arc->bg_angle_start, LV_PART_MAIN);
 2604              		.loc 1 155 10 is_stmt 1 view .LVU835
ARM GAS  C:\Users\OSD\AppData\Local\Temp\ccR88enE.s 			page 84


 155:lvgl/src/widgets/lv_arc.c ****     else if(old_delta < new_delta) inv_arc_area(obj, start, arc->bg_angle_start, LV_PART_MAIN);
 2605              		.loc 1 155 12 is_stmt 0 view .LVU836
 2606 0038 9A42     		cmp	r2, r3
 2607 003a 18DC     		bgt	.L129
 156:lvgl/src/widgets/lv_arc.c **** 
 2608              		.loc 1 156 10 is_stmt 1 view .LVU837
 156:lvgl/src/widgets/lv_arc.c **** 
 2609              		.loc 1 156 12 is_stmt 0 view .LVU838
 2610 003c 9A42     		cmp	r2, r3
 2611 003e 11DA     		bge	.L123
 156:lvgl/src/widgets/lv_arc.c **** 
 2612              		.loc 1 156 36 is_stmt 1 discriminator 1 view .LVU839
 2613 0040 0023     		movs	r3, #0
 2614              	.LVL297:
 156:lvgl/src/widgets/lv_arc.c **** 
 2615              		.loc 1 156 36 is_stmt 0 discriminator 1 view .LVU840
 2616 0042 0A46     		mov	r2, r1
 2617              	.LVL298:
 156:lvgl/src/widgets/lv_arc.c **** 
 2618              		.loc 1 156 36 discriminator 1 view .LVU841
 2619 0044 2146     		mov	r1, r4
 2620 0046 2846     		mov	r0, r5
 2621 0048 FFF7FEFF 		bl	inv_arc_area
 2622              	.LVL299:
 2623 004c 0AE0     		b	.L123
 2624              	.LVL300:
 2625              	.L126:
 151:lvgl/src/widgets/lv_arc.c ****     if(new_delta < 0) new_delta = 360 + new_delta;
 2626              		.loc 1 151 23 is_stmt 1 discriminator 1 view .LVU842
 151:lvgl/src/widgets/lv_arc.c ****     if(new_delta < 0) new_delta = 360 + new_delta;
 2627              		.loc 1 151 39 is_stmt 0 discriminator 1 view .LVU843
 2628 004e 0CF5B472 		add	r2, ip, #360
 2629              	.LVL301:
 151:lvgl/src/widgets/lv_arc.c ****     if(new_delta < 0) new_delta = 360 + new_delta;
 2630              		.loc 1 151 33 discriminator 1 view .LVU844
 2631 0052 12B2     		sxth	r2, r2
 2632              	.LVL302:
 151:lvgl/src/widgets/lv_arc.c ****     if(new_delta < 0) new_delta = 360 + new_delta;
 2633              		.loc 1 151 33 discriminator 1 view .LVU845
 2634 0054 E8E7     		b	.L120
 2635              	.L127:
 152:lvgl/src/widgets/lv_arc.c **** 
 2636              		.loc 1 152 23 is_stmt 1 discriminator 1 view .LVU846
 152:lvgl/src/widgets/lv_arc.c **** 
 2637              		.loc 1 152 39 is_stmt 0 discriminator 1 view .LVU847
 2638 0056 00F5B473 		add	r3, r0, #360
 2639              	.LVL303:
 152:lvgl/src/widgets/lv_arc.c **** 
 2640              		.loc 1 152 33 discriminator 1 view .LVU848
 2641 005a 1BB2     		sxth	r3, r3
 2642              	.LVL304:
 152:lvgl/src/widgets/lv_arc.c **** 
 2643              		.loc 1 152 33 discriminator 1 view .LVU849
 2644 005c E6E7     		b	.L121
 2645              	.L128:
 154:lvgl/src/widgets/lv_arc.c ****     else if(new_delta < old_delta) inv_arc_area(obj, arc->bg_angle_start, start, LV_PART_MAIN);
 2646              		.loc 1 154 46 is_stmt 1 discriminator 1 view .LVU850
ARM GAS  C:\Users\OSD\AppData\Local\Temp\ccR88enE.s 			page 85


 2647 005e 2846     		mov	r0, r5
 2648 0060 FFF7FEFF 		bl	lv_obj_invalidate
 2649              	.LVL305:
 2650              	.L123:
 158:lvgl/src/widgets/lv_arc.c **** 
 2651              		.loc 1 158 5 view .LVU851
 158:lvgl/src/widgets/lv_arc.c **** 
 2652              		.loc 1 158 25 is_stmt 0 view .LVU852
 2653 0064 6C85     		strh	r4, [r5, #42]	@ movhi
 160:lvgl/src/widgets/lv_arc.c **** }
 2654              		.loc 1 160 5 is_stmt 1 view .LVU853
 2655 0066 2846     		mov	r0, r5
 2656 0068 FFF7FEFF 		bl	value_update
 2657              	.LVL306:
 161:lvgl/src/widgets/lv_arc.c **** 
 2658              		.loc 1 161 1 is_stmt 0 view .LVU854
 2659 006c 38BD     		pop	{r3, r4, r5, pc}
 2660              	.LVL307:
 2661              	.L129:
 155:lvgl/src/widgets/lv_arc.c ****     else if(old_delta < new_delta) inv_arc_area(obj, start, arc->bg_angle_start, LV_PART_MAIN);
 2662              		.loc 1 155 36 is_stmt 1 discriminator 1 view .LVU855
 2663 006e 0023     		movs	r3, #0
 2664              	.LVL308:
 155:lvgl/src/widgets/lv_arc.c ****     else if(old_delta < new_delta) inv_arc_area(obj, start, arc->bg_angle_start, LV_PART_MAIN);
 2665              		.loc 1 155 36 is_stmt 0 discriminator 1 view .LVU856
 2666 0070 2246     		mov	r2, r4
 2667              	.LVL309:
 155:lvgl/src/widgets/lv_arc.c ****     else if(old_delta < new_delta) inv_arc_area(obj, start, arc->bg_angle_start, LV_PART_MAIN);
 2668              		.loc 1 155 36 discriminator 1 view .LVU857
 2669 0072 2846     		mov	r0, r5
 2670 0074 FFF7FEFF 		bl	inv_arc_area
 2671              	.LVL310:
 2672 0078 F4E7     		b	.L123
 2673              		.cfi_endproc
 2674              	.LFE165:
 2676              		.section	.text.lv_arc_set_bg_end_angle,"ax",%progbits
 2677              		.align	1
 2678              		.global	lv_arc_set_bg_end_angle
 2679              		.syntax unified
 2680              		.thumb
 2681              		.thumb_func
 2683              	lv_arc_set_bg_end_angle:
 2684              	.LVL311:
 2685              	.LFB166:
 164:lvgl/src/widgets/lv_arc.c ****     LV_ASSERT_OBJ(obj, MY_CLASS);
 2686              		.loc 1 164 1 is_stmt 1 view -0
 2687              		.cfi_startproc
 2688              		@ args = 0, pretend = 0, frame = 0
 2689              		@ frame_needed = 0, uses_anonymous_args = 0
 164:lvgl/src/widgets/lv_arc.c ****     LV_ASSERT_OBJ(obj, MY_CLASS);
 2690              		.loc 1 164 1 is_stmt 0 view .LVU859
 2691 0000 38B5     		push	{r3, r4, r5, lr}
 2692              		.cfi_def_cfa_offset 16
 2693              		.cfi_offset 3, -16
 2694              		.cfi_offset 4, -12
 2695              		.cfi_offset 5, -8
 2696              		.cfi_offset 14, -4
ARM GAS  C:\Users\OSD\AppData\Local\Temp\ccR88enE.s 			page 86


 2697 0002 0546     		mov	r5, r0
 2698 0004 0C46     		mov	r4, r1
 165:lvgl/src/widgets/lv_arc.c ****     lv_arc_t * arc = (lv_arc_t *)obj;
 2699              		.loc 1 165 5 is_stmt 1 view .LVU860
 165:lvgl/src/widgets/lv_arc.c ****     lv_arc_t * arc = (lv_arc_t *)obj;
 2700              		.loc 1 165 5 view .LVU861
 165:lvgl/src/widgets/lv_arc.c ****     lv_arc_t * arc = (lv_arc_t *)obj;
 2701              		.loc 1 165 5 view .LVU862
 166:lvgl/src/widgets/lv_arc.c **** 
 2702              		.loc 1 166 5 view .LVU863
 2703              	.LVL312:
 168:lvgl/src/widgets/lv_arc.c **** 
 2704              		.loc 1 168 5 view .LVU864
 168:lvgl/src/widgets/lv_arc.c **** 
 2705              		.loc 1 168 7 is_stmt 0 view .LVU865
 2706 0006 B1F5B47F 		cmp	r1, #360
 2707 000a 02D9     		bls	.L131
 168:lvgl/src/widgets/lv_arc.c **** 
 2708              		.loc 1 168 19 is_stmt 1 discriminator 1 view .LVU866
 168:lvgl/src/widgets/lv_arc.c **** 
 2709              		.loc 1 168 23 is_stmt 0 discriminator 1 view .LVU867
 2710 000c A1F5B474 		sub	r4, r1, #360
 2711 0010 A4B2     		uxth	r4, r4
 2712              	.LVL313:
 2713              	.L131:
 170:lvgl/src/widgets/lv_arc.c ****     int16_t new_delta = end - arc->bg_angle_start;
 2714              		.loc 1 170 5 is_stmt 1 view .LVU868
 170:lvgl/src/widgets/lv_arc.c ****     int16_t new_delta = end - arc->bg_angle_start;
 2715              		.loc 1 170 28 is_stmt 0 view .LVU869
 2716 0012 A98D     		ldrh	r1, [r5, #44]
 170:lvgl/src/widgets/lv_arc.c ****     int16_t new_delta = end - arc->bg_angle_start;
 2717              		.loc 1 170 48 view .LVU870
 2718 0014 6B8D     		ldrh	r3, [r5, #42]
 170:lvgl/src/widgets/lv_arc.c ****     int16_t new_delta = end - arc->bg_angle_start;
 2719              		.loc 1 170 43 view .LVU871
 2720 0016 CA1A     		subs	r2, r1, r3
 2721 0018 1FFA82FC 		uxth	ip, r2
 170:lvgl/src/widgets/lv_arc.c ****     int16_t new_delta = end - arc->bg_angle_start;
 2722              		.loc 1 170 13 view .LVU872
 2723 001c 12B2     		sxth	r2, r2
 2724              	.LVL314:
 171:lvgl/src/widgets/lv_arc.c **** 
 2725              		.loc 1 171 5 is_stmt 1 view .LVU873
 171:lvgl/src/widgets/lv_arc.c **** 
 2726              		.loc 1 171 29 is_stmt 0 view .LVU874
 2727 001e E31A     		subs	r3, r4, r3
 2728 0020 98B2     		uxth	r0, r3
 2729              	.LVL315:
 171:lvgl/src/widgets/lv_arc.c **** 
 2730              		.loc 1 171 13 view .LVU875
 2731 0022 1BB2     		sxth	r3, r3
 2732              	.LVL316:
 173:lvgl/src/widgets/lv_arc.c ****     if(new_delta < 0) new_delta = 360 + new_delta;
 2733              		.loc 1 173 5 is_stmt 1 view .LVU876
 173:lvgl/src/widgets/lv_arc.c ****     if(new_delta < 0) new_delta = 360 + new_delta;
 2734              		.loc 1 173 7 is_stmt 0 view .LVU877
 2735 0024 002A     		cmp	r2, #0
ARM GAS  C:\Users\OSD\AppData\Local\Temp\ccR88enE.s 			page 87


 2736 0026 11DB     		blt	.L138
 2737              	.L132:
 174:lvgl/src/widgets/lv_arc.c **** 
 2738              		.loc 1 174 5 is_stmt 1 view .LVU878
 174:lvgl/src/widgets/lv_arc.c **** 
 2739              		.loc 1 174 7 is_stmt 0 view .LVU879
 2740 0028 002B     		cmp	r3, #0
 2741 002a 13DB     		blt	.L139
 2742              	.L133:
 176:lvgl/src/widgets/lv_arc.c ****     else if(new_delta < old_delta) inv_arc_area(obj, end, arc->bg_angle_end, LV_PART_MAIN);
 2743              		.loc 1 176 5 is_stmt 1 view .LVU880
 176:lvgl/src/widgets/lv_arc.c ****     else if(new_delta < old_delta) inv_arc_area(obj, end, arc->bg_angle_end, LV_PART_MAIN);
 2744              		.loc 1 176 8 is_stmt 0 view .LVU881
 2745 002c 981A     		subs	r0, r3, r2
 2746 002e 0028     		cmp	r0, #0
 2747 0030 B8BF     		it	lt
 2748 0032 4042     		rsblt	r0, r0, #0
 176:lvgl/src/widgets/lv_arc.c ****     else if(new_delta < old_delta) inv_arc_area(obj, end, arc->bg_angle_end, LV_PART_MAIN);
 2749              		.loc 1 176 7 view .LVU882
 2750 0034 B428     		cmp	r0, #180
 2751 0036 11DC     		bgt	.L140
 177:lvgl/src/widgets/lv_arc.c ****     else if(old_delta < new_delta) inv_arc_area(obj, arc->bg_angle_end, end, LV_PART_MAIN);
 2752              		.loc 1 177 10 is_stmt 1 view .LVU883
 177:lvgl/src/widgets/lv_arc.c ****     else if(old_delta < new_delta) inv_arc_area(obj, arc->bg_angle_end, end, LV_PART_MAIN);
 2753              		.loc 1 177 12 is_stmt 0 view .LVU884
 2754 0038 9A42     		cmp	r2, r3
 2755 003a 17DC     		bgt	.L141
 178:lvgl/src/widgets/lv_arc.c **** 
 2756              		.loc 1 178 10 is_stmt 1 view .LVU885
 178:lvgl/src/widgets/lv_arc.c **** 
 2757              		.loc 1 178 12 is_stmt 0 view .LVU886
 2758 003c 9A42     		cmp	r2, r3
 2759 003e 10DA     		bge	.L135
 178:lvgl/src/widgets/lv_arc.c **** 
 2760              		.loc 1 178 36 is_stmt 1 discriminator 1 view .LVU887
 2761 0040 0023     		movs	r3, #0
 2762              	.LVL317:
 178:lvgl/src/widgets/lv_arc.c **** 
 2763              		.loc 1 178 36 is_stmt 0 discriminator 1 view .LVU888
 2764 0042 2246     		mov	r2, r4
 2765              	.LVL318:
 178:lvgl/src/widgets/lv_arc.c **** 
 2766              		.loc 1 178 36 discriminator 1 view .LVU889
 2767 0044 2846     		mov	r0, r5
 2768 0046 FFF7FEFF 		bl	inv_arc_area
 2769              	.LVL319:
 2770 004a 0AE0     		b	.L135
 2771              	.LVL320:
 2772              	.L138:
 173:lvgl/src/widgets/lv_arc.c ****     if(new_delta < 0) new_delta = 360 + new_delta;
 2773              		.loc 1 173 23 is_stmt 1 discriminator 1 view .LVU890
 173:lvgl/src/widgets/lv_arc.c ****     if(new_delta < 0) new_delta = 360 + new_delta;
 2774              		.loc 1 173 39 is_stmt 0 discriminator 1 view .LVU891
 2775 004c 0CF5B472 		add	r2, ip, #360
 2776              	.LVL321:
 173:lvgl/src/widgets/lv_arc.c ****     if(new_delta < 0) new_delta = 360 + new_delta;
 2777              		.loc 1 173 33 discriminator 1 view .LVU892
ARM GAS  C:\Users\OSD\AppData\Local\Temp\ccR88enE.s 			page 88


 2778 0050 12B2     		sxth	r2, r2
 2779              	.LVL322:
 173:lvgl/src/widgets/lv_arc.c ****     if(new_delta < 0) new_delta = 360 + new_delta;
 2780              		.loc 1 173 33 discriminator 1 view .LVU893
 2781 0052 E9E7     		b	.L132
 2782              	.L139:
 174:lvgl/src/widgets/lv_arc.c **** 
 2783              		.loc 1 174 23 is_stmt 1 discriminator 1 view .LVU894
 174:lvgl/src/widgets/lv_arc.c **** 
 2784              		.loc 1 174 39 is_stmt 0 discriminator 1 view .LVU895
 2785 0054 00F5B473 		add	r3, r0, #360
 2786              	.LVL323:
 174:lvgl/src/widgets/lv_arc.c **** 
 2787              		.loc 1 174 33 discriminator 1 view .LVU896
 2788 0058 1BB2     		sxth	r3, r3
 2789              	.LVL324:
 174:lvgl/src/widgets/lv_arc.c **** 
 2790              		.loc 1 174 33 discriminator 1 view .LVU897
 2791 005a E7E7     		b	.L133
 2792              	.L140:
 176:lvgl/src/widgets/lv_arc.c ****     else if(new_delta < old_delta) inv_arc_area(obj, end, arc->bg_angle_end, LV_PART_MAIN);
 2793              		.loc 1 176 46 is_stmt 1 discriminator 1 view .LVU898
 2794 005c 2846     		mov	r0, r5
 2795 005e FFF7FEFF 		bl	lv_obj_invalidate
 2796              	.LVL325:
 2797              	.L135:
 180:lvgl/src/widgets/lv_arc.c **** 
 2798              		.loc 1 180 5 view .LVU899
 180:lvgl/src/widgets/lv_arc.c **** 
 2799              		.loc 1 180 23 is_stmt 0 view .LVU900
 2800 0062 AC85     		strh	r4, [r5, #44]	@ movhi
 182:lvgl/src/widgets/lv_arc.c **** }
 2801              		.loc 1 182 5 is_stmt 1 view .LVU901
 2802 0064 2846     		mov	r0, r5
 2803 0066 FFF7FEFF 		bl	value_update
 2804              	.LVL326:
 183:lvgl/src/widgets/lv_arc.c **** 
 2805              		.loc 1 183 1 is_stmt 0 view .LVU902
 2806 006a 38BD     		pop	{r3, r4, r5, pc}
 2807              	.LVL327:
 2808              	.L141:
 177:lvgl/src/widgets/lv_arc.c ****     else if(old_delta < new_delta) inv_arc_area(obj, arc->bg_angle_end, end, LV_PART_MAIN);
 2809              		.loc 1 177 36 is_stmt 1 discriminator 1 view .LVU903
 2810 006c 0023     		movs	r3, #0
 2811              	.LVL328:
 177:lvgl/src/widgets/lv_arc.c ****     else if(old_delta < new_delta) inv_arc_area(obj, arc->bg_angle_end, end, LV_PART_MAIN);
 2812              		.loc 1 177 36 is_stmt 0 discriminator 1 view .LVU904
 2813 006e 0A46     		mov	r2, r1
 2814              	.LVL329:
 177:lvgl/src/widgets/lv_arc.c ****     else if(old_delta < new_delta) inv_arc_area(obj, arc->bg_angle_end, end, LV_PART_MAIN);
 2815              		.loc 1 177 36 discriminator 1 view .LVU905
 2816 0070 2146     		mov	r1, r4
 2817 0072 2846     		mov	r0, r5
 2818 0074 FFF7FEFF 		bl	inv_arc_area
 2819              	.LVL330:
 2820 0078 F3E7     		b	.L135
 2821              		.cfi_endproc
ARM GAS  C:\Users\OSD\AppData\Local\Temp\ccR88enE.s 			page 89


 2822              	.LFE166:
 2824              		.section	.text.lv_arc_set_bg_angles,"ax",%progbits
 2825              		.align	1
 2826              		.global	lv_arc_set_bg_angles
 2827              		.syntax unified
 2828              		.thumb
 2829              		.thumb_func
 2831              	lv_arc_set_bg_angles:
 2832              	.LVL331:
 2833              	.LFB167:
 186:lvgl/src/widgets/lv_arc.c ****     lv_arc_set_bg_end_angle(obj, end);
 2834              		.loc 1 186 1 is_stmt 1 view -0
 2835              		.cfi_startproc
 2836              		@ args = 0, pretend = 0, frame = 0
 2837              		@ frame_needed = 0, uses_anonymous_args = 0
 186:lvgl/src/widgets/lv_arc.c ****     lv_arc_set_bg_end_angle(obj, end);
 2838              		.loc 1 186 1 is_stmt 0 view .LVU907
 2839 0000 38B5     		push	{r3, r4, r5, lr}
 2840              		.cfi_def_cfa_offset 16
 2841              		.cfi_offset 3, -16
 2842              		.cfi_offset 4, -12
 2843              		.cfi_offset 5, -8
 2844              		.cfi_offset 14, -4
 2845 0002 0446     		mov	r4, r0
 2846 0004 0D46     		mov	r5, r1
 187:lvgl/src/widgets/lv_arc.c ****     lv_arc_set_bg_start_angle(obj, start);
 2847              		.loc 1 187 5 is_stmt 1 view .LVU908
 2848 0006 1146     		mov	r1, r2
 2849              	.LVL332:
 187:lvgl/src/widgets/lv_arc.c ****     lv_arc_set_bg_start_angle(obj, start);
 2850              		.loc 1 187 5 is_stmt 0 view .LVU909
 2851 0008 FFF7FEFF 		bl	lv_arc_set_bg_end_angle
 2852              	.LVL333:
 188:lvgl/src/widgets/lv_arc.c **** }
 2853              		.loc 1 188 5 is_stmt 1 view .LVU910
 2854 000c 2946     		mov	r1, r5
 2855 000e 2046     		mov	r0, r4
 2856 0010 FFF7FEFF 		bl	lv_arc_set_bg_start_angle
 2857              	.LVL334:
 189:lvgl/src/widgets/lv_arc.c **** 
 2858              		.loc 1 189 1 is_stmt 0 view .LVU911
 2859 0014 38BD     		pop	{r3, r4, r5, pc}
 189:lvgl/src/widgets/lv_arc.c **** 
 2860              		.loc 1 189 1 view .LVU912
 2861              		.cfi_endproc
 2862              	.LFE167:
 2864              		.section	.text.lv_arc_set_rotation,"ax",%progbits
 2865              		.align	1
 2866              		.global	lv_arc_set_rotation
 2867              		.syntax unified
 2868              		.thumb
 2869              		.thumb_func
 2871              	lv_arc_set_rotation:
 2872              	.LVL335:
 2873              	.LFB168:
 192:lvgl/src/widgets/lv_arc.c ****     LV_ASSERT_OBJ(obj, MY_CLASS);
 2874              		.loc 1 192 1 is_stmt 1 view -0
ARM GAS  C:\Users\OSD\AppData\Local\Temp\ccR88enE.s 			page 90


 2875              		.cfi_startproc
 2876              		@ args = 0, pretend = 0, frame = 0
 2877              		@ frame_needed = 0, uses_anonymous_args = 0
 192:lvgl/src/widgets/lv_arc.c ****     LV_ASSERT_OBJ(obj, MY_CLASS);
 2878              		.loc 1 192 1 is_stmt 0 view .LVU914
 2879 0000 08B5     		push	{r3, lr}
 2880              		.cfi_def_cfa_offset 8
 2881              		.cfi_offset 3, -8
 2882              		.cfi_offset 14, -4
 193:lvgl/src/widgets/lv_arc.c ****     lv_arc_t * arc = (lv_arc_t *)obj;
 2883              		.loc 1 193 5 is_stmt 1 view .LVU915
 193:lvgl/src/widgets/lv_arc.c ****     lv_arc_t * arc = (lv_arc_t *)obj;
 2884              		.loc 1 193 5 view .LVU916
 193:lvgl/src/widgets/lv_arc.c ****     lv_arc_t * arc = (lv_arc_t *)obj;
 2885              		.loc 1 193 5 view .LVU917
 194:lvgl/src/widgets/lv_arc.c **** 
 2886              		.loc 1 194 5 view .LVU918
 2887              	.LVL336:
 196:lvgl/src/widgets/lv_arc.c **** 
 2888              		.loc 1 196 5 view .LVU919
 196:lvgl/src/widgets/lv_arc.c **** 
 2889              		.loc 1 196 19 is_stmt 0 view .LVU920
 2890 0002 8184     		strh	r1, [r0, #36]	@ movhi
 198:lvgl/src/widgets/lv_arc.c **** }
 2891              		.loc 1 198 5 is_stmt 1 view .LVU921
 2892 0004 FFF7FEFF 		bl	lv_obj_invalidate
 2893              	.LVL337:
 199:lvgl/src/widgets/lv_arc.c **** 
 2894              		.loc 1 199 1 is_stmt 0 view .LVU922
 2895 0008 08BD     		pop	{r3, pc}
 2896              		.cfi_endproc
 2897              	.LFE168:
 2899              		.section	.text.lv_arc_set_value,"ax",%progbits
 2900              		.align	1
 2901              		.global	lv_arc_set_value
 2902              		.syntax unified
 2903              		.thumb
 2904              		.thumb_func
 2906              	lv_arc_set_value:
 2907              	.LVL338:
 2908              	.LFB170:
 231:lvgl/src/widgets/lv_arc.c ****     LV_ASSERT_OBJ(obj, MY_CLASS);
 2909              		.loc 1 231 1 is_stmt 1 view -0
 2910              		.cfi_startproc
 2911              		@ args = 0, pretend = 0, frame = 0
 2912              		@ frame_needed = 0, uses_anonymous_args = 0
 232:lvgl/src/widgets/lv_arc.c ****     lv_arc_t * arc = (lv_arc_t *)obj;
 2913              		.loc 1 232 5 view .LVU924
 232:lvgl/src/widgets/lv_arc.c ****     lv_arc_t * arc = (lv_arc_t *)obj;
 2914              		.loc 1 232 5 view .LVU925
 232:lvgl/src/widgets/lv_arc.c ****     lv_arc_t * arc = (lv_arc_t *)obj;
 2915              		.loc 1 232 5 view .LVU926
 233:lvgl/src/widgets/lv_arc.c **** 
 2916              		.loc 1 233 5 view .LVU927
 235:lvgl/src/widgets/lv_arc.c **** 
 2917              		.loc 1 235 5 view .LVU928
 235:lvgl/src/widgets/lv_arc.c **** 
ARM GAS  C:\Users\OSD\AppData\Local\Temp\ccR88enE.s 			page 91


 2918              		.loc 1 235 11 is_stmt 0 view .LVU929
 2919 0000 B0F92E20 		ldrsh	r2, [r0, #46]
 235:lvgl/src/widgets/lv_arc.c **** 
 2920              		.loc 1 235 7 view .LVU930
 2921 0004 8A42     		cmp	r2, r1
 2922 0006 10D0     		beq	.L149
 231:lvgl/src/widgets/lv_arc.c ****     LV_ASSERT_OBJ(obj, MY_CLASS);
 2923              		.loc 1 231 1 view .LVU931
 2924 0008 08B5     		push	{r3, lr}
 2925              		.cfi_def_cfa_offset 8
 2926              		.cfi_offset 3, -8
 2927              		.cfi_offset 14, -4
 237:lvgl/src/widgets/lv_arc.c ****     new_value = value > arc->max_value ? arc->max_value : value;
 2928              		.loc 1 237 5 is_stmt 1 view .LVU932
 238:lvgl/src/widgets/lv_arc.c ****     new_value = new_value < arc->min_value ? arc->min_value : new_value;
 2929              		.loc 1 238 5 view .LVU933
 238:lvgl/src/widgets/lv_arc.c ****     new_value = new_value < arc->min_value ? arc->min_value : new_value;
 2930              		.loc 1 238 28 is_stmt 0 view .LVU934
 2931 000a B0F93230 		ldrsh	r3, [r0, #50]
 238:lvgl/src/widgets/lv_arc.c ****     new_value = new_value < arc->min_value ? arc->min_value : new_value;
 2932              		.loc 1 238 15 view .LVU935
 2933 000e 8B42     		cmp	r3, r1
 2934 0010 A8BF     		it	ge
 2935 0012 0B46     		movge	r3, r1
 2936              	.LVL339:
 239:lvgl/src/widgets/lv_arc.c **** 
 2937              		.loc 1 239 5 is_stmt 1 view .LVU936
 239:lvgl/src/widgets/lv_arc.c **** 
 2938              		.loc 1 239 32 is_stmt 0 view .LVU937
 2939 0014 B0F93010 		ldrsh	r1, [r0, #48]
 2940              	.LVL340:
 239:lvgl/src/widgets/lv_arc.c **** 
 2941              		.loc 1 239 15 view .LVU938
 2942 0018 9942     		cmp	r1, r3
 2943 001a B8BF     		it	lt
 2944 001c 1946     		movlt	r1, r3
 2945              	.LVL341:
 241:lvgl/src/widgets/lv_arc.c ****     arc->value = new_value;
 2946              		.loc 1 241 5 is_stmt 1 view .LVU939
 241:lvgl/src/widgets/lv_arc.c ****     arc->value = new_value;
 2947              		.loc 1 241 7 is_stmt 0 view .LVU940
 2948 001e 8A42     		cmp	r2, r1
 2949 0020 02D0     		beq	.L146
 242:lvgl/src/widgets/lv_arc.c **** 
 2950              		.loc 1 242 5 is_stmt 1 view .LVU941
 242:lvgl/src/widgets/lv_arc.c **** 
 2951              		.loc 1 242 16 is_stmt 0 view .LVU942
 2952 0022 C185     		strh	r1, [r0, #46]	@ movhi
 244:lvgl/src/widgets/lv_arc.c **** }
 2953              		.loc 1 244 5 is_stmt 1 view .LVU943
 2954 0024 FFF7FEFF 		bl	value_update
 2955              	.LVL342:
 2956              	.L146:
 245:lvgl/src/widgets/lv_arc.c **** 
 2957              		.loc 1 245 1 is_stmt 0 view .LVU944
 2958 0028 08BD     		pop	{r3, pc}
 2959              	.LVL343:
ARM GAS  C:\Users\OSD\AppData\Local\Temp\ccR88enE.s 			page 92


 2960              	.L149:
 2961              		.cfi_def_cfa_offset 0
 2962              		.cfi_restore 3
 2963              		.cfi_restore 14
 245:lvgl/src/widgets/lv_arc.c **** 
 2964              		.loc 1 245 1 view .LVU945
 2965 002a 7047     		bx	lr
 2966              		.cfi_endproc
 2967              	.LFE170:
 2969              		.section	.text.lv_arc_set_mode,"ax",%progbits
 2970              		.align	1
 2971              		.global	lv_arc_set_mode
 2972              		.syntax unified
 2973              		.thumb
 2974              		.thumb_func
 2976              	lv_arc_set_mode:
 2977              	.LVL344:
 2978              	.LFB169:
 202:lvgl/src/widgets/lv_arc.c ****     LV_ASSERT_OBJ(obj, MY_CLASS);
 2979              		.loc 1 202 1 is_stmt 1 view -0
 2980              		.cfi_startproc
 2981              		@ args = 0, pretend = 0, frame = 0
 2982              		@ frame_needed = 0, uses_anonymous_args = 0
 202:lvgl/src/widgets/lv_arc.c ****     LV_ASSERT_OBJ(obj, MY_CLASS);
 2983              		.loc 1 202 1 is_stmt 0 view .LVU947
 2984 0000 70B5     		push	{r4, r5, r6, lr}
 2985              		.cfi_def_cfa_offset 16
 2986              		.cfi_offset 4, -16
 2987              		.cfi_offset 5, -12
 2988              		.cfi_offset 6, -8
 2989              		.cfi_offset 14, -4
 2990 0002 0446     		mov	r4, r0
 203:lvgl/src/widgets/lv_arc.c ****     lv_arc_t * arc = (lv_arc_t *)obj;
 2991              		.loc 1 203 5 is_stmt 1 view .LVU948
 203:lvgl/src/widgets/lv_arc.c ****     lv_arc_t * arc = (lv_arc_t *)obj;
 2992              		.loc 1 203 5 view .LVU949
 203:lvgl/src/widgets/lv_arc.c ****     lv_arc_t * arc = (lv_arc_t *)obj;
 2993              		.loc 1 203 5 view .LVU950
 204:lvgl/src/widgets/lv_arc.c **** 
 2994              		.loc 1 204 5 view .LVU951
 2995              	.LVL345:
 206:lvgl/src/widgets/lv_arc.c **** 
 2996              		.loc 1 206 5 view .LVU952
 206:lvgl/src/widgets/lv_arc.c **** 
 2997              		.loc 1 206 13 is_stmt 0 view .LVU953
 2998 0004 B0F92E60 		ldrsh	r6, [r0, #46]
 2999              	.LVL346:
 208:lvgl/src/widgets/lv_arc.c ****     arc->value = -1; /** Force set_value handling*/
 3000              		.loc 1 208 5 is_stmt 1 view .LVU954
 208:lvgl/src/widgets/lv_arc.c ****     arc->value = -1; /** Force set_value handling*/
 3001              		.loc 1 208 15 is_stmt 0 view .LVU955
 3002 0008 01F00303 		and	r3, r1, #3
 3003 000c 90F83420 		ldrb	r2, [r0, #52]	@ zero_extendqisi2
 3004 0010 63F34202 		bfi	r2, r3, #1, #2
 3005 0014 80F83420 		strb	r2, [r0, #52]
 209:lvgl/src/widgets/lv_arc.c **** 
 3006              		.loc 1 209 5 is_stmt 1 view .LVU956
ARM GAS  C:\Users\OSD\AppData\Local\Temp\ccR88enE.s 			page 93


 209:lvgl/src/widgets/lv_arc.c **** 
 3007              		.loc 1 209 16 is_stmt 0 view .LVU957
 3008 0018 4FF6FF72 		movw	r2, #65535
 3009 001c C285     		strh	r2, [r0, #46]	@ movhi
 211:lvgl/src/widgets/lv_arc.c ****     if(arc->bg_angle_end < arc->bg_angle_start) bg_end = arc->bg_angle_end + 360;
 3010              		.loc 1 211 5 is_stmt 1 view .LVU958
 211:lvgl/src/widgets/lv_arc.c ****     if(arc->bg_angle_end < arc->bg_angle_start) bg_end = arc->bg_angle_end + 360;
 3011              		.loc 1 211 38 is_stmt 0 view .LVU959
 3012 001e 818D     		ldrh	r1, [r0, #44]
 3013              	.LVL347:
 211:lvgl/src/widgets/lv_arc.c ****     if(arc->bg_angle_end < arc->bg_angle_start) bg_end = arc->bg_angle_end + 360;
 3014              		.loc 1 211 26 view .LVU960
 3015 0020 B0F92C20 		ldrsh	r2, [r0, #44]
 3016              	.LVL348:
 212:lvgl/src/widgets/lv_arc.c **** 
 3017              		.loc 1 212 5 is_stmt 1 view .LVU961
 212:lvgl/src/widgets/lv_arc.c **** 
 3018              		.loc 1 212 31 is_stmt 0 view .LVU962
 3019 0024 458D     		ldrh	r5, [r0, #42]
 212:lvgl/src/widgets/lv_arc.c **** 
 3020              		.loc 1 212 7 view .LVU963
 3021 0026 A942     		cmp	r1, r5
 3022 0028 02D2     		bcs	.L153
 212:lvgl/src/widgets/lv_arc.c **** 
 3023              		.loc 1 212 49 is_stmt 1 discriminator 1 view .LVU964
 212:lvgl/src/widgets/lv_arc.c **** 
 3024              		.loc 1 212 76 is_stmt 0 discriminator 1 view .LVU965
 3025 002a 01F5B472 		add	r2, r1, #360
 3026              	.LVL349:
 212:lvgl/src/widgets/lv_arc.c **** 
 3027              		.loc 1 212 56 discriminator 1 view .LVU966
 3028 002e 12B2     		sxth	r2, r2
 3029              	.LVL350:
 3030              	.L153:
 214:lvgl/src/widgets/lv_arc.c ****         case LV_ARC_MODE_SYMMETRICAL:
 3031              		.loc 1 214 5 is_stmt 1 view .LVU967
 3032 0030 012B     		cmp	r3, #1
 3033 0032 06D0     		beq	.L154
 214:lvgl/src/widgets/lv_arc.c ****         case LV_ARC_MODE_SYMMETRICAL:
 3034              		.loc 1 214 5 is_stmt 0 view .LVU968
 3035 0034 022B     		cmp	r3, #2
 3036 0036 17D0     		beq	.L155
 224:lvgl/src/widgets/lv_arc.c ****     }
 3037              		.loc 1 224 13 is_stmt 1 view .LVU969
 3038 0038 2946     		mov	r1, r5
 3039 003a 2046     		mov	r0, r4
 3040              	.LVL351:
 224:lvgl/src/widgets/lv_arc.c ****     }
 3041              		.loc 1 224 13 is_stmt 0 view .LVU970
 3042 003c FFF7FEFF 		bl	lv_arc_set_start_angle
 3043              	.LVL352:
 224:lvgl/src/widgets/lv_arc.c ****     }
 3044              		.loc 1 224 13 view .LVU971
 3045 0040 0BE0     		b	.L158
 3046              	.LVL353:
 3047              	.L154:
 216:lvgl/src/widgets/lv_arc.c ****             lv_arc_set_start_angle(obj, bg_midpoint);
ARM GAS  C:\Users\OSD\AppData\Local\Temp\ccR88enE.s 			page 94


 3048              		.loc 1 216 13 is_stmt 1 view .LVU972
 216:lvgl/src/widgets/lv_arc.c ****             lv_arc_set_start_angle(obj, bg_midpoint);
 3049              		.loc 1 216 58 is_stmt 0 view .LVU973
 3050 0042 5219     		adds	r2, r2, r5
 3051              	.LVL354:
 216:lvgl/src/widgets/lv_arc.c ****             lv_arc_set_start_angle(obj, bg_midpoint);
 3052              		.loc 1 216 58 view .LVU974
 3053 0044 0ED4     		bmi	.L161
 3054              	.L157:
 3055              	.LVL355:
 217:lvgl/src/widgets/lv_arc.c ****             lv_arc_set_end_angle(obj, bg_midpoint);
 3056              		.loc 1 217 13 is_stmt 1 view .LVU975
 3057 0046 C2F34F05 		ubfx	r5, r2, #1, #16
 3058 004a 2946     		mov	r1, r5
 3059 004c 2046     		mov	r0, r4
 3060              	.LVL356:
 217:lvgl/src/widgets/lv_arc.c ****             lv_arc_set_end_angle(obj, bg_midpoint);
 3061              		.loc 1 217 13 is_stmt 0 view .LVU976
 3062 004e FFF7FEFF 		bl	lv_arc_set_start_angle
 3063              	.LVL357:
 218:lvgl/src/widgets/lv_arc.c ****             break;
 3064              		.loc 1 218 13 is_stmt 1 view .LVU977
 3065 0052 2946     		mov	r1, r5
 3066 0054 2046     		mov	r0, r4
 3067 0056 FFF7FEFF 		bl	lv_arc_set_end_angle
 3068              	.LVL358:
 219:lvgl/src/widgets/lv_arc.c ****         case LV_ARC_MODE_REVERSE:
 3069              		.loc 1 219 13 view .LVU978
 3070              	.L158:
 227:lvgl/src/widgets/lv_arc.c **** }
 3071              		.loc 1 227 5 view .LVU979
 3072 005a 3146     		mov	r1, r6
 3073 005c 2046     		mov	r0, r4
 3074 005e FFF7FEFF 		bl	lv_arc_set_value
 3075              	.LVL359:
 228:lvgl/src/widgets/lv_arc.c **** 
 3076              		.loc 1 228 1 is_stmt 0 view .LVU980
 3077 0062 70BD     		pop	{r4, r5, r6, pc}
 3078              	.LVL360:
 3079              	.L161:
 216:lvgl/src/widgets/lv_arc.c ****             lv_arc_set_start_angle(obj, bg_midpoint);
 3080              		.loc 1 216 58 view .LVU981
 3081 0064 0132     		adds	r2, r2, #1
 3082 0066 EEE7     		b	.L157
 3083              	.LVL361:
 3084              	.L155:
 221:lvgl/src/widgets/lv_arc.c ****             break;
 3085              		.loc 1 221 13 is_stmt 1 view .LVU982
 3086 0068 2046     		mov	r0, r4
 3087              	.LVL362:
 221:lvgl/src/widgets/lv_arc.c ****             break;
 3088              		.loc 1 221 13 is_stmt 0 view .LVU983
 3089 006a FFF7FEFF 		bl	lv_arc_set_end_angle
 3090              	.LVL363:
 222:lvgl/src/widgets/lv_arc.c ****         default: /** LV_ARC_TYPE_NORMAL*/
 3091              		.loc 1 222 13 is_stmt 1 view .LVU984
 3092 006e F4E7     		b	.L158
ARM GAS  C:\Users\OSD\AppData\Local\Temp\ccR88enE.s 			page 95


 3093              		.cfi_endproc
 3094              	.LFE169:
 3096              		.section	.text.lv_arc_set_range,"ax",%progbits
 3097              		.align	1
 3098              		.global	lv_arc_set_range
 3099              		.syntax unified
 3100              		.thumb
 3101              		.thumb_func
 3103              	lv_arc_set_range:
 3104              	.LVL364:
 3105              	.LFB171:
 248:lvgl/src/widgets/lv_arc.c ****     LV_ASSERT_OBJ(obj, MY_CLASS);
 3106              		.loc 1 248 1 view -0
 3107              		.cfi_startproc
 3108              		@ args = 0, pretend = 0, frame = 0
 3109              		@ frame_needed = 0, uses_anonymous_args = 0
 248:lvgl/src/widgets/lv_arc.c ****     LV_ASSERT_OBJ(obj, MY_CLASS);
 3110              		.loc 1 248 1 is_stmt 0 view .LVU986
 3111 0000 08B5     		push	{r3, lr}
 3112              		.cfi_def_cfa_offset 8
 3113              		.cfi_offset 3, -8
 3114              		.cfi_offset 14, -4
 249:lvgl/src/widgets/lv_arc.c ****     lv_arc_t * arc = (lv_arc_t *)obj;
 3115              		.loc 1 249 5 is_stmt 1 view .LVU987
 249:lvgl/src/widgets/lv_arc.c ****     lv_arc_t * arc = (lv_arc_t *)obj;
 3116              		.loc 1 249 5 view .LVU988
 249:lvgl/src/widgets/lv_arc.c ****     lv_arc_t * arc = (lv_arc_t *)obj;
 3117              		.loc 1 249 5 view .LVU989
 250:lvgl/src/widgets/lv_arc.c **** 
 3118              		.loc 1 250 5 view .LVU990
 3119              	.LVL365:
 252:lvgl/src/widgets/lv_arc.c **** 
 3120              		.loc 1 252 5 view .LVU991
 252:lvgl/src/widgets/lv_arc.c **** 
 3121              		.loc 1 252 11 is_stmt 0 view .LVU992
 3122 0002 B0F93030 		ldrsh	r3, [r0, #48]
 252:lvgl/src/widgets/lv_arc.c **** 
 3123              		.loc 1 252 7 view .LVU993
 3124 0006 8B42     		cmp	r3, r1
 3125 0008 0ED0     		beq	.L168
 3126              	.L163:
 254:lvgl/src/widgets/lv_arc.c ****     arc->max_value = max;
 3127              		.loc 1 254 5 is_stmt 1 view .LVU994
 254:lvgl/src/widgets/lv_arc.c ****     arc->max_value = max;
 3128              		.loc 1 254 20 is_stmt 0 view .LVU995
 3129 000a 0186     		strh	r1, [r0, #48]	@ movhi
 255:lvgl/src/widgets/lv_arc.c **** 
 3130              		.loc 1 255 5 is_stmt 1 view .LVU996
 255:lvgl/src/widgets/lv_arc.c **** 
 3131              		.loc 1 255 20 is_stmt 0 view .LVU997
 3132 000c 4286     		strh	r2, [r0, #50]	@ movhi
 257:lvgl/src/widgets/lv_arc.c ****         arc->value = min;
 3133              		.loc 1 257 5 is_stmt 1 view .LVU998
 257:lvgl/src/widgets/lv_arc.c ****         arc->value = min;
 3134              		.loc 1 257 11 is_stmt 0 view .LVU999
 3135 000e B0F92E30 		ldrsh	r3, [r0, #46]
 257:lvgl/src/widgets/lv_arc.c ****         arc->value = min;
ARM GAS  C:\Users\OSD\AppData\Local\Temp\ccR88enE.s 			page 96


 3136              		.loc 1 257 7 view .LVU1000
 3137 0012 8B42     		cmp	r3, r1
 3138 0014 00DA     		bge	.L165
 258:lvgl/src/widgets/lv_arc.c ****     }
 3139              		.loc 1 258 9 is_stmt 1 view .LVU1001
 258:lvgl/src/widgets/lv_arc.c ****     }
 3140              		.loc 1 258 20 is_stmt 0 view .LVU1002
 3141 0016 C185     		strh	r1, [r0, #46]	@ movhi
 3142              	.L165:
 260:lvgl/src/widgets/lv_arc.c ****         arc->value = max;
 3143              		.loc 1 260 5 is_stmt 1 view .LVU1003
 260:lvgl/src/widgets/lv_arc.c ****         arc->value = max;
 3144              		.loc 1 260 11 is_stmt 0 view .LVU1004
 3145 0018 B0F92E30 		ldrsh	r3, [r0, #46]
 260:lvgl/src/widgets/lv_arc.c ****         arc->value = max;
 3146              		.loc 1 260 7 view .LVU1005
 3147 001c 9342     		cmp	r3, r2
 3148 001e 00DD     		ble	.L166
 261:lvgl/src/widgets/lv_arc.c ****     }
 3149              		.loc 1 261 9 is_stmt 1 view .LVU1006
 261:lvgl/src/widgets/lv_arc.c ****     }
 3150              		.loc 1 261 20 is_stmt 0 view .LVU1007
 3151 0020 C285     		strh	r2, [r0, #46]	@ movhi
 3152              	.L166:
 264:lvgl/src/widgets/lv_arc.c **** }
 3153              		.loc 1 264 5 is_stmt 1 view .LVU1008
 3154 0022 FFF7FEFF 		bl	value_update
 3155              	.LVL366:
 3156              	.L162:
 265:lvgl/src/widgets/lv_arc.c **** 
 3157              		.loc 1 265 1 is_stmt 0 view .LVU1009
 3158 0026 08BD     		pop	{r3, pc}
 3159              	.LVL367:
 3160              	.L168:
 252:lvgl/src/widgets/lv_arc.c **** 
 3161              		.loc 1 252 36 discriminator 1 view .LVU1010
 3162 0028 B0F93230 		ldrsh	r3, [r0, #50]
 252:lvgl/src/widgets/lv_arc.c **** 
 3163              		.loc 1 252 30 discriminator 1 view .LVU1011
 3164 002c 9342     		cmp	r3, r2
 3165 002e ECD1     		bne	.L163
 3166 0030 F9E7     		b	.L162
 3167              		.cfi_endproc
 3168              	.LFE171:
 3170              		.section	.text.lv_arc_set_change_rate,"ax",%progbits
 3171              		.align	1
 3172              		.global	lv_arc_set_change_rate
 3173              		.syntax unified
 3174              		.thumb
 3175              		.thumb_func
 3177              	lv_arc_set_change_rate:
 3178              	.LVL368:
 3179              	.LFB172:
 268:lvgl/src/widgets/lv_arc.c ****     LV_ASSERT_OBJ(obj, MY_CLASS);
 3180              		.loc 1 268 1 is_stmt 1 view -0
 3181              		.cfi_startproc
 3182              		@ args = 0, pretend = 0, frame = 0
ARM GAS  C:\Users\OSD\AppData\Local\Temp\ccR88enE.s 			page 97


 3183              		@ frame_needed = 0, uses_anonymous_args = 0
 3184              		@ link register save eliminated.
 269:lvgl/src/widgets/lv_arc.c ****     lv_arc_t * arc = (lv_arc_t *)obj;
 3185              		.loc 1 269 5 view .LVU1013
 269:lvgl/src/widgets/lv_arc.c ****     lv_arc_t * arc = (lv_arc_t *)obj;
 3186              		.loc 1 269 5 view .LVU1014
 269:lvgl/src/widgets/lv_arc.c ****     lv_arc_t * arc = (lv_arc_t *)obj;
 3187              		.loc 1 269 5 view .LVU1015
 270:lvgl/src/widgets/lv_arc.c **** 
 3188              		.loc 1 270 5 view .LVU1016
 272:lvgl/src/widgets/lv_arc.c **** }
 3189              		.loc 1 272 5 view .LVU1017
 272:lvgl/src/widgets/lv_arc.c **** }
 3190              		.loc 1 272 19 is_stmt 0 view .LVU1018
 3191 0000 8163     		str	r1, [r0, #56]
 273:lvgl/src/widgets/lv_arc.c **** 
 3192              		.loc 1 273 1 view .LVU1019
 3193 0002 7047     		bx	lr
 3194              		.cfi_endproc
 3195              	.LFE172:
 3197              		.section	.text.lv_arc_get_angle_start,"ax",%progbits
 3198              		.align	1
 3199              		.global	lv_arc_get_angle_start
 3200              		.syntax unified
 3201              		.thumb
 3202              		.thumb_func
 3204              	lv_arc_get_angle_start:
 3205              	.LVL369:
 3206              	.LFB173:
 280:lvgl/src/widgets/lv_arc.c ****     LV_ASSERT_OBJ(obj, MY_CLASS);
 3207              		.loc 1 280 1 is_stmt 1 view -0
 3208              		.cfi_startproc
 3209              		@ args = 0, pretend = 0, frame = 0
 3210              		@ frame_needed = 0, uses_anonymous_args = 0
 3211              		@ link register save eliminated.
 281:lvgl/src/widgets/lv_arc.c ****     return ((lv_arc_t *) obj)->indic_angle_start;
 3212              		.loc 1 281 5 view .LVU1021
 281:lvgl/src/widgets/lv_arc.c ****     return ((lv_arc_t *) obj)->indic_angle_start;
 3213              		.loc 1 281 5 view .LVU1022
 281:lvgl/src/widgets/lv_arc.c ****     return ((lv_arc_t *) obj)->indic_angle_start;
 3214              		.loc 1 281 5 view .LVU1023
 282:lvgl/src/widgets/lv_arc.c **** }
 3215              		.loc 1 282 5 view .LVU1024
 283:lvgl/src/widgets/lv_arc.c **** 
 3216              		.loc 1 283 1 is_stmt 0 view .LVU1025
 3217 0000 C08C     		ldrh	r0, [r0, #38]
 3218              	.LVL370:
 283:lvgl/src/widgets/lv_arc.c **** 
 3219              		.loc 1 283 1 view .LVU1026
 3220 0002 7047     		bx	lr
 3221              		.cfi_endproc
 3222              	.LFE173:
 3224              		.section	.text.lv_arc_get_angle_end,"ax",%progbits
 3225              		.align	1
 3226              		.global	lv_arc_get_angle_end
 3227              		.syntax unified
 3228              		.thumb
ARM GAS  C:\Users\OSD\AppData\Local\Temp\ccR88enE.s 			page 98


 3229              		.thumb_func
 3231              	lv_arc_get_angle_end:
 3232              	.LVL371:
 3233              	.LFB174:
 286:lvgl/src/widgets/lv_arc.c ****     LV_ASSERT_OBJ(obj, MY_CLASS);
 3234              		.loc 1 286 1 is_stmt 1 view -0
 3235              		.cfi_startproc
 3236              		@ args = 0, pretend = 0, frame = 0
 3237              		@ frame_needed = 0, uses_anonymous_args = 0
 3238              		@ link register save eliminated.
 287:lvgl/src/widgets/lv_arc.c ****     return ((lv_arc_t *) obj)->indic_angle_end;
 3239              		.loc 1 287 5 view .LVU1028
 287:lvgl/src/widgets/lv_arc.c ****     return ((lv_arc_t *) obj)->indic_angle_end;
 3240              		.loc 1 287 5 view .LVU1029
 287:lvgl/src/widgets/lv_arc.c ****     return ((lv_arc_t *) obj)->indic_angle_end;
 3241              		.loc 1 287 5 view .LVU1030
 288:lvgl/src/widgets/lv_arc.c **** }
 3242              		.loc 1 288 5 view .LVU1031
 289:lvgl/src/widgets/lv_arc.c **** 
 3243              		.loc 1 289 1 is_stmt 0 view .LVU1032
 3244 0000 008D     		ldrh	r0, [r0, #40]
 3245              	.LVL372:
 289:lvgl/src/widgets/lv_arc.c **** 
 3246              		.loc 1 289 1 view .LVU1033
 3247 0002 7047     		bx	lr
 3248              		.cfi_endproc
 3249              	.LFE174:
 3251              		.section	.text.lv_arc_get_bg_angle_start,"ax",%progbits
 3252              		.align	1
 3253              		.global	lv_arc_get_bg_angle_start
 3254              		.syntax unified
 3255              		.thumb
 3256              		.thumb_func
 3258              	lv_arc_get_bg_angle_start:
 3259              	.LVL373:
 3260              	.LFB175:
 292:lvgl/src/widgets/lv_arc.c ****     LV_ASSERT_OBJ(obj, MY_CLASS);
 3261              		.loc 1 292 1 is_stmt 1 view -0
 3262              		.cfi_startproc
 3263              		@ args = 0, pretend = 0, frame = 0
 3264              		@ frame_needed = 0, uses_anonymous_args = 0
 3265              		@ link register save eliminated.
 293:lvgl/src/widgets/lv_arc.c ****     return ((lv_arc_t *) obj)->bg_angle_start;
 3266              		.loc 1 293 5 view .LVU1035
 293:lvgl/src/widgets/lv_arc.c ****     return ((lv_arc_t *) obj)->bg_angle_start;
 3267              		.loc 1 293 5 view .LVU1036
 293:lvgl/src/widgets/lv_arc.c ****     return ((lv_arc_t *) obj)->bg_angle_start;
 3268              		.loc 1 293 5 view .LVU1037
 294:lvgl/src/widgets/lv_arc.c **** }
 3269              		.loc 1 294 5 view .LVU1038
 295:lvgl/src/widgets/lv_arc.c **** 
 3270              		.loc 1 295 1 is_stmt 0 view .LVU1039
 3271 0000 408D     		ldrh	r0, [r0, #42]
 3272              	.LVL374:
 295:lvgl/src/widgets/lv_arc.c **** 
 3273              		.loc 1 295 1 view .LVU1040
 3274 0002 7047     		bx	lr
ARM GAS  C:\Users\OSD\AppData\Local\Temp\ccR88enE.s 			page 99


 3275              		.cfi_endproc
 3276              	.LFE175:
 3278              		.section	.text.lv_arc_get_bg_angle_end,"ax",%progbits
 3279              		.align	1
 3280              		.global	lv_arc_get_bg_angle_end
 3281              		.syntax unified
 3282              		.thumb
 3283              		.thumb_func
 3285              	lv_arc_get_bg_angle_end:
 3286              	.LVL375:
 3287              	.LFB176:
 298:lvgl/src/widgets/lv_arc.c ****     LV_ASSERT_OBJ(obj, MY_CLASS);
 3288              		.loc 1 298 1 is_stmt 1 view -0
 3289              		.cfi_startproc
 3290              		@ args = 0, pretend = 0, frame = 0
 3291              		@ frame_needed = 0, uses_anonymous_args = 0
 3292              		@ link register save eliminated.
 299:lvgl/src/widgets/lv_arc.c ****     return ((lv_arc_t *) obj)->bg_angle_end;
 3293              		.loc 1 299 5 view .LVU1042
 299:lvgl/src/widgets/lv_arc.c ****     return ((lv_arc_t *) obj)->bg_angle_end;
 3294              		.loc 1 299 5 view .LVU1043
 299:lvgl/src/widgets/lv_arc.c ****     return ((lv_arc_t *) obj)->bg_angle_end;
 3295              		.loc 1 299 5 view .LVU1044
 300:lvgl/src/widgets/lv_arc.c **** }
 3296              		.loc 1 300 5 view .LVU1045
 301:lvgl/src/widgets/lv_arc.c **** 
 3297              		.loc 1 301 1 is_stmt 0 view .LVU1046
 3298 0000 808D     		ldrh	r0, [r0, #44]
 3299              	.LVL376:
 301:lvgl/src/widgets/lv_arc.c **** 
 3300              		.loc 1 301 1 view .LVU1047
 3301 0002 7047     		bx	lr
 3302              		.cfi_endproc
 3303              	.LFE176:
 3305              		.section	.text.lv_arc_get_value,"ax",%progbits
 3306              		.align	1
 3307              		.global	lv_arc_get_value
 3308              		.syntax unified
 3309              		.thumb
 3310              		.thumb_func
 3312              	lv_arc_get_value:
 3313              	.LVL377:
 3314              	.LFB177:
 304:lvgl/src/widgets/lv_arc.c ****     LV_ASSERT_OBJ(obj, MY_CLASS);
 3315              		.loc 1 304 1 is_stmt 1 view -0
 3316              		.cfi_startproc
 3317              		@ args = 0, pretend = 0, frame = 0
 3318              		@ frame_needed = 0, uses_anonymous_args = 0
 3319              		@ link register save eliminated.
 305:lvgl/src/widgets/lv_arc.c ****     return ((lv_arc_t *) obj)->value;
 3320              		.loc 1 305 5 view .LVU1049
 305:lvgl/src/widgets/lv_arc.c ****     return ((lv_arc_t *) obj)->value;
 3321              		.loc 1 305 5 view .LVU1050
 305:lvgl/src/widgets/lv_arc.c ****     return ((lv_arc_t *) obj)->value;
 3322              		.loc 1 305 5 view .LVU1051
 306:lvgl/src/widgets/lv_arc.c **** }
 3323              		.loc 1 306 5 view .LVU1052
ARM GAS  C:\Users\OSD\AppData\Local\Temp\ccR88enE.s 			page 100


 307:lvgl/src/widgets/lv_arc.c **** 
 3324              		.loc 1 307 1 is_stmt 0 view .LVU1053
 3325 0000 B0F92E00 		ldrsh	r0, [r0, #46]
 3326              	.LVL378:
 307:lvgl/src/widgets/lv_arc.c **** 
 3327              		.loc 1 307 1 view .LVU1054
 3328 0004 7047     		bx	lr
 3329              		.cfi_endproc
 3330              	.LFE177:
 3332              		.section	.text.lv_arc_event,"ax",%progbits
 3333              		.align	1
 3334              		.syntax unified
 3335              		.thumb
 3336              		.thumb_func
 3338              	lv_arc_event:
 3339              	.LVL379:
 3340              	.LFB184:
 415:lvgl/src/widgets/lv_arc.c ****     LV_UNUSED(class_p);
 3341              		.loc 1 415 1 is_stmt 1 view -0
 3342              		.cfi_startproc
 3343              		@ args = 0, pretend = 0, frame = 16
 3344              		@ frame_needed = 0, uses_anonymous_args = 0
 415:lvgl/src/widgets/lv_arc.c ****     LV_UNUSED(class_p);
 3345              		.loc 1 415 1 is_stmt 0 view .LVU1056
 3346 0000 2DE9F047 		push	{r4, r5, r6, r7, r8, r9, r10, lr}
 3347              		.cfi_def_cfa_offset 32
 3348              		.cfi_offset 4, -32
 3349              		.cfi_offset 5, -28
 3350              		.cfi_offset 6, -24
 3351              		.cfi_offset 7, -20
 3352              		.cfi_offset 8, -16
 3353              		.cfi_offset 9, -12
 3354              		.cfi_offset 10, -8
 3355              		.cfi_offset 14, -4
 3356 0004 86B0     		sub	sp, sp, #24
 3357              		.cfi_def_cfa_offset 56
 3358 0006 0C46     		mov	r4, r1
 416:lvgl/src/widgets/lv_arc.c **** 
 3359              		.loc 1 416 5 is_stmt 1 view .LVU1057
 418:lvgl/src/widgets/lv_arc.c **** 
 3360              		.loc 1 418 5 view .LVU1058
 421:lvgl/src/widgets/lv_arc.c ****     if(res != LV_RES_OK) return;
 3361              		.loc 1 421 5 view .LVU1059
 421:lvgl/src/widgets/lv_arc.c ****     if(res != LV_RES_OK) return;
 3362              		.loc 1 421 11 is_stmt 0 view .LVU1060
 3363 0008 C548     		ldr	r0, .L228
 3364              	.LVL380:
 421:lvgl/src/widgets/lv_arc.c ****     if(res != LV_RES_OK) return;
 3365              		.loc 1 421 11 view .LVU1061
 3366 000a FFF7FEFF 		bl	lv_obj_event_base
 3367              	.LVL381:
 422:lvgl/src/widgets/lv_arc.c **** 
 3368              		.loc 1 422 5 is_stmt 1 view .LVU1062
 422:lvgl/src/widgets/lv_arc.c **** 
 3369              		.loc 1 422 7 is_stmt 0 view .LVU1063
 3370 000e 0128     		cmp	r0, #1
 3371 0010 02D0     		beq	.L212
ARM GAS  C:\Users\OSD\AppData\Local\Temp\ccR88enE.s 			page 101


 3372              	.LVL382:
 3373              	.L175:
 642:lvgl/src/widgets/lv_arc.c **** 
 3374              		.loc 1 642 1 view .LVU1064
 3375 0012 06B0     		add	sp, sp, #24
 3376              		.cfi_remember_state
 3377              		.cfi_def_cfa_offset 32
 3378              		@ sp needed
 3379 0014 BDE8F087 		pop	{r4, r5, r6, r7, r8, r9, r10, pc}
 3380              	.LVL383:
 3381              	.L212:
 3382              		.cfi_restore_state
 424:lvgl/src/widgets/lv_arc.c ****     lv_obj_t * obj = lv_event_get_target(e);
 3383              		.loc 1 424 5 is_stmt 1 view .LVU1065
 424:lvgl/src/widgets/lv_arc.c ****     lv_obj_t * obj = lv_event_get_target(e);
 3384              		.loc 1 424 28 is_stmt 0 view .LVU1066
 3385 0018 2046     		mov	r0, r4
 3386              	.LVL384:
 424:lvgl/src/widgets/lv_arc.c ****     lv_obj_t * obj = lv_event_get_target(e);
 3387              		.loc 1 424 28 view .LVU1067
 3388 001a FFF7FEFF 		bl	lv_event_get_code
 3389              	.LVL385:
 3390 001e 0546     		mov	r5, r0
 3391              	.LVL386:
 425:lvgl/src/widgets/lv_arc.c ****     lv_arc_t * arc = (lv_arc_t *)lv_event_get_target(e);
 3392              		.loc 1 425 5 is_stmt 1 view .LVU1068
 425:lvgl/src/widgets/lv_arc.c ****     lv_arc_t * arc = (lv_arc_t *)lv_event_get_target(e);
 3393              		.loc 1 425 22 is_stmt 0 view .LVU1069
 3394 0020 2046     		mov	r0, r4
 3395 0022 FFF7FEFF 		bl	lv_event_get_target
 3396              	.LVL387:
 3397 0026 0646     		mov	r6, r0
 3398              	.LVL388:
 426:lvgl/src/widgets/lv_arc.c ****     if(code == LV_EVENT_PRESSING) {
 3399              		.loc 1 426 5 is_stmt 1 view .LVU1070
 426:lvgl/src/widgets/lv_arc.c ****     if(code == LV_EVENT_PRESSING) {
 3400              		.loc 1 426 34 is_stmt 0 view .LVU1071
 3401 0028 2046     		mov	r0, r4
 3402              	.LVL389:
 426:lvgl/src/widgets/lv_arc.c ****     if(code == LV_EVENT_PRESSING) {
 3403              		.loc 1 426 34 view .LVU1072
 3404 002a FFF7FEFF 		bl	lv_event_get_target
 3405              	.LVL390:
 3406 002e 0746     		mov	r7, r0
 3407              	.LVL391:
 427:lvgl/src/widgets/lv_arc.c ****         lv_indev_t * indev = lv_indev_get_act();
 3408              		.loc 1 427 5 is_stmt 1 view .LVU1073
 427:lvgl/src/widgets/lv_arc.c ****         lv_indev_t * indev = lv_indev_get_act();
 3409              		.loc 1 427 7 is_stmt 0 view .LVU1074
 3410 0030 022D     		cmp	r5, #2
 3411 0032 13D0     		beq	.L213
 567:lvgl/src/widgets/lv_arc.c ****         arc->dragging = false;
 3412              		.loc 1 567 10 is_stmt 1 view .LVU1075
 567:lvgl/src/widgets/lv_arc.c ****         arc->dragging = false;
 3413              		.loc 1 567 12 is_stmt 0 view .LVU1076
 3414 0034 032D     		cmp	r5, #3
 3415 0036 18BF     		it	ne
ARM GAS  C:\Users\OSD\AppData\Local\Temp\ccR88enE.s 			page 102


 3416 0038 082D     		cmpne	r5, #8
 3417 003a 00F08C81 		beq	.L214
 579:lvgl/src/widgets/lv_arc.c ****         char c = *((char *)lv_event_get_param(e));
 3418              		.loc 1 579 10 is_stmt 1 view .LVU1077
 579:lvgl/src/widgets/lv_arc.c ****         char c = *((char *)lv_event_get_param(e));
 3419              		.loc 1 579 12 is_stmt 0 view .LVU1078
 3420 003e 0D2D     		cmp	r5, #13
 3421 0040 00F0A581 		beq	.L215
 595:lvgl/src/widgets/lv_arc.c ****         lv_hit_test_info_t * info = lv_event_get_param(e);
 3422              		.loc 1 595 10 is_stmt 1 view .LVU1079
 595:lvgl/src/widgets/lv_arc.c ****         lv_hit_test_info_t * info = lv_event_get_param(e);
 3423              		.loc 1 595 12 is_stmt 0 view .LVU1080
 3424 0044 112D     		cmp	r5, #17
 3425 0046 00F0CF81 		beq	.L216
 620:lvgl/src/widgets/lv_arc.c ****         lv_coord_t bg_left = lv_obj_get_style_pad_left(obj, LV_PART_MAIN);
 3426              		.loc 1 620 10 is_stmt 1 view .LVU1081
 620:lvgl/src/widgets/lv_arc.c ****         lv_coord_t bg_left = lv_obj_get_style_pad_left(obj, LV_PART_MAIN);
 3427              		.loc 1 620 12 is_stmt 0 view .LVU1082
 3428 004a 132D     		cmp	r5, #19
 3429 004c 00F01582 		beq	.L217
 639:lvgl/src/widgets/lv_arc.c ****         lv_arc_draw(e);
 3430              		.loc 1 639 10 is_stmt 1 view .LVU1083
 639:lvgl/src/widgets/lv_arc.c ****         lv_arc_draw(e);
 3431              		.loc 1 639 12 is_stmt 0 view .LVU1084
 3432 0050 152D     		cmp	r5, #21
 3433 0052 DED1     		bne	.L175
 640:lvgl/src/widgets/lv_arc.c ****     }
 3434              		.loc 1 640 9 is_stmt 1 view .LVU1085
 3435 0054 2046     		mov	r0, r4
 3436              	.LVL392:
 640:lvgl/src/widgets/lv_arc.c ****     }
 3437              		.loc 1 640 9 is_stmt 0 view .LVU1086
 3438 0056 FFF7FEFF 		bl	lv_arc_draw
 3439              	.LVL393:
 3440 005a DAE7     		b	.L175
 3441              	.LVL394:
 3442              	.L213:
 3443              	.LBB134:
 428:lvgl/src/widgets/lv_arc.c ****         if(indev == NULL) return;
 3444              		.loc 1 428 9 is_stmt 1 view .LVU1087
 428:lvgl/src/widgets/lv_arc.c ****         if(indev == NULL) return;
 3445              		.loc 1 428 30 is_stmt 0 view .LVU1088
 3446 005c FFF7FEFF 		bl	lv_indev_get_act
 3447              	.LVL395:
 429:lvgl/src/widgets/lv_arc.c **** 
 3448              		.loc 1 429 9 is_stmt 1 view .LVU1089
 429:lvgl/src/widgets/lv_arc.c **** 
 3449              		.loc 1 429 11 is_stmt 0 view .LVU1090
 3450 0060 0446     		mov	r4, r0
 3451              	.LVL396:
 429:lvgl/src/widgets/lv_arc.c **** 
 3452              		.loc 1 429 11 view .LVU1091
 3453 0062 0028     		cmp	r0, #0
 3454 0064 D5D0     		beq	.L175
 432:lvgl/src/widgets/lv_arc.c ****         if(indev_type != LV_INDEV_TYPE_POINTER) return;
 3455              		.loc 1 432 9 is_stmt 1 view .LVU1092
 432:lvgl/src/widgets/lv_arc.c ****         if(indev_type != LV_INDEV_TYPE_POINTER) return;
ARM GAS  C:\Users\OSD\AppData\Local\Temp\ccR88enE.s 			page 103


 3456              		.loc 1 432 38 is_stmt 0 view .LVU1093
 3457 0066 FFF7FEFF 		bl	lv_indev_get_type
 3458              	.LVL397:
 433:lvgl/src/widgets/lv_arc.c **** 
 3459              		.loc 1 433 9 is_stmt 1 view .LVU1094
 433:lvgl/src/widgets/lv_arc.c **** 
 3460              		.loc 1 433 11 is_stmt 0 view .LVU1095
 3461 006a 0128     		cmp	r0, #1
 3462 006c D1D1     		bne	.L175
 435:lvgl/src/widgets/lv_arc.c ****         lv_indev_get_point(indev, &p);
 3463              		.loc 1 435 9 is_stmt 1 view .LVU1096
 436:lvgl/src/widgets/lv_arc.c **** 
 3464              		.loc 1 436 9 view .LVU1097
 3465 006e 03A9     		add	r1, sp, #12
 3466 0070 2046     		mov	r0, r4
 3467              	.LVL398:
 436:lvgl/src/widgets/lv_arc.c **** 
 3468              		.loc 1 436 9 is_stmt 0 view .LVU1098
 3469 0072 FFF7FEFF 		bl	lv_indev_get_point
 3470              	.LVL399:
 439:lvgl/src/widgets/lv_arc.c ****         lv_coord_t r;
 3471              		.loc 1 439 9 is_stmt 1 view .LVU1099
 440:lvgl/src/widgets/lv_arc.c ****         get_center(obj, &center, &r);
 3472              		.loc 1 440 9 view .LVU1100
 441:lvgl/src/widgets/lv_arc.c **** 
 3473              		.loc 1 441 9 view .LVU1101
 3474 0076 0DF10A02 		add	r2, sp, #10
 3475 007a 04A9     		add	r1, sp, #16
 3476 007c 3046     		mov	r0, r6
 3477 007e FFF7FEFF 		bl	get_center
 3478              	.LVL400:
 443:lvgl/src/widgets/lv_arc.c ****         p.y -= center.y;
 3479              		.loc 1 443 9 view .LVU1102
 443:lvgl/src/widgets/lv_arc.c ****         p.y -= center.y;
 3480              		.loc 1 443 22 is_stmt 0 view .LVU1103
 3481 0082 BDF81020 		ldrh	r2, [sp, #16]
 443:lvgl/src/widgets/lv_arc.c ****         p.y -= center.y;
 3482              		.loc 1 443 13 view .LVU1104
 3483 0086 BDF80C30 		ldrh	r3, [sp, #12]
 3484 008a 9B1A     		subs	r3, r3, r2
 3485 008c ADF80C30 		strh	r3, [sp, #12]	@ movhi
 444:lvgl/src/widgets/lv_arc.c **** 
 3486              		.loc 1 444 9 is_stmt 1 view .LVU1105
 444:lvgl/src/widgets/lv_arc.c **** 
 3487              		.loc 1 444 22 is_stmt 0 view .LVU1106
 3488 0090 BDF81220 		ldrh	r2, [sp, #18]
 444:lvgl/src/widgets/lv_arc.c **** 
 3489              		.loc 1 444 13 view .LVU1107
 3490 0094 BDF80E30 		ldrh	r3, [sp, #14]
 3491 0098 9B1A     		subs	r3, r3, r2
 3492 009a ADF80E30 		strh	r3, [sp, #14]	@ movhi
 447:lvgl/src/widgets/lv_arc.c ****             lv_coord_t indic_width = lv_obj_get_style_arc_width(obj, LV_PART_INDICATOR);
 3493              		.loc 1 447 9 is_stmt 1 view .LVU1108
 447:lvgl/src/widgets/lv_arc.c ****             lv_coord_t indic_width = lv_obj_get_style_arc_width(obj, LV_PART_INDICATOR);
 3494              		.loc 1 447 26 is_stmt 0 view .LVU1109
 3495 009e 97F83430 		ldrb	r3, [r7, #52]	@ zero_extendqisi2
 447:lvgl/src/widgets/lv_arc.c ****             lv_coord_t indic_width = lv_obj_get_style_arc_width(obj, LV_PART_INDICATOR);
ARM GAS  C:\Users\OSD\AppData\Local\Temp\ccR88enE.s 			page 104


 3496              		.loc 1 447 11 view .LVU1110
 3497 00a2 13F0010F 		tst	r3, #1
 3498 00a6 00F0B580 		beq	.L218
 3499              	.LVL401:
 3500              	.L179:
 468:lvgl/src/widgets/lv_arc.c **** 
 3501              		.loc 1 468 9 is_stmt 1 view .LVU1111
 468:lvgl/src/widgets/lv_arc.c **** 
 3502              		.loc 1 468 26 is_stmt 0 view .LVU1112
 3503 00aa 97F83430 		ldrb	r3, [r7, #52]	@ zero_extendqisi2
 468:lvgl/src/widgets/lv_arc.c **** 
 3504              		.loc 1 468 11 view .LVU1113
 3505 00ae 13F0010F 		tst	r3, #1
 3506 00b2 AED0     		beq	.L175
 471:lvgl/src/widgets/lv_arc.c **** 
 3507              		.loc 1 471 9 is_stmt 1 view .LVU1114
 471:lvgl/src/widgets/lv_arc.c **** 
 3508              		.loc 1 471 13 is_stmt 0 view .LVU1115
 3509 00b4 BDF90C10 		ldrsh	r1, [sp, #12]
 471:lvgl/src/widgets/lv_arc.c **** 
 3510              		.loc 1 471 11 view .LVU1116
 3511 00b8 19B9     		cbnz	r1, .L184
 471:lvgl/src/widgets/lv_arc.c **** 
 3512              		.loc 1 471 25 discriminator 1 view .LVU1117
 3513 00ba BDF90E30 		ldrsh	r3, [sp, #14]
 471:lvgl/src/widgets/lv_arc.c **** 
 3514              		.loc 1 471 21 discriminator 1 view .LVU1118
 3515 00be 002B     		cmp	r3, #0
 3516 00c0 A7D0     		beq	.L175
 3517              	.L184:
 474:lvgl/src/widgets/lv_arc.c ****         int16_t bg_end = arc->bg_angle_end;
 3518              		.loc 1 474 9 is_stmt 1 view .LVU1119
 475:lvgl/src/widgets/lv_arc.c ****         if(arc->bg_angle_end < arc->bg_angle_start) {
 3519              		.loc 1 475 9 view .LVU1120
 475:lvgl/src/widgets/lv_arc.c ****         if(arc->bg_angle_end < arc->bg_angle_start) {
 3520              		.loc 1 475 29 is_stmt 0 view .LVU1121
 3521 00c2 BB8D     		ldrh	r3, [r7, #44]
 475:lvgl/src/widgets/lv_arc.c ****         if(arc->bg_angle_end < arc->bg_angle_start) {
 3522              		.loc 1 475 17 view .LVU1122
 3523 00c4 B7F92C50 		ldrsh	r5, [r7, #44]
 3524              	.LVL402:
 476:lvgl/src/widgets/lv_arc.c ****             bg_end = arc->bg_angle_end + 360;
 3525              		.loc 1 476 9 is_stmt 1 view .LVU1123
 476:lvgl/src/widgets/lv_arc.c ****             bg_end = arc->bg_angle_end + 360;
 3526              		.loc 1 476 35 is_stmt 0 view .LVU1124
 3527 00c8 7A8D     		ldrh	r2, [r7, #42]
 476:lvgl/src/widgets/lv_arc.c ****             bg_end = arc->bg_angle_end + 360;
 3528              		.loc 1 476 11 view .LVU1125
 3529 00ca 9342     		cmp	r3, r2
 3530 00cc 02D2     		bcs	.L185
 477:lvgl/src/widgets/lv_arc.c ****         }
 3531              		.loc 1 477 13 is_stmt 1 view .LVU1126
 477:lvgl/src/widgets/lv_arc.c ****         }
 3532              		.loc 1 477 40 is_stmt 0 view .LVU1127
 3533 00ce 03F5B473 		add	r3, r3, #360
 477:lvgl/src/widgets/lv_arc.c ****         }
 3534              		.loc 1 477 20 view .LVU1128
ARM GAS  C:\Users\OSD\AppData\Local\Temp\ccR88enE.s 			page 105


 3535 00d2 1DB2     		sxth	r5, r3
 3536              	.LVL403:
 3537              	.L185:
 480:lvgl/src/widgets/lv_arc.c ****         angle -= arc->rotation;
 3538              		.loc 1 480 9 is_stmt 1 view .LVU1129
 480:lvgl/src/widgets/lv_arc.c ****         angle -= arc->rotation;
 3539              		.loc 1 480 17 is_stmt 0 view .LVU1130
 3540 00d4 BDF90E00 		ldrsh	r0, [sp, #14]
 3541 00d8 FFF7FEFF 		bl	lv_atan2
 3542              	.LVL404:
 481:lvgl/src/widgets/lv_arc.c ****         angle -= arc->bg_angle_start;  /*Make the angle relative to the start angle*/
 3543              		.loc 1 481 9 is_stmt 1 view .LVU1131
 481:lvgl/src/widgets/lv_arc.c ****         angle -= arc->bg_angle_start;  /*Make the angle relative to the start angle*/
 3544              		.loc 1 481 21 is_stmt 0 view .LVU1132
 3545 00dc BC8C     		ldrh	r4, [r7, #36]
 481:lvgl/src/widgets/lv_arc.c ****         angle -= arc->bg_angle_start;  /*Make the angle relative to the start angle*/
 3546              		.loc 1 481 15 view .LVU1133
 3547 00de 041B     		subs	r4, r0, r4
 3548 00e0 A4B2     		uxth	r4, r4
 3549              	.LVL405:
 482:lvgl/src/widgets/lv_arc.c **** 
 3550              		.loc 1 482 9 is_stmt 1 view .LVU1134
 482:lvgl/src/widgets/lv_arc.c **** 
 3551              		.loc 1 482 21 is_stmt 0 view .LVU1135
 3552 00e2 7B8D     		ldrh	r3, [r7, #42]
 482:lvgl/src/widgets/lv_arc.c **** 
 3553              		.loc 1 482 15 view .LVU1136
 3554 00e4 E41A     		subs	r4, r4, r3
 3555              	.LVL406:
 482:lvgl/src/widgets/lv_arc.c **** 
 3556              		.loc 1 482 15 view .LVU1137
 3557 00e6 A3B2     		uxth	r3, r4
 3558 00e8 24B2     		sxth	r4, r4
 3559              	.LVL407:
 485:lvgl/src/widgets/lv_arc.c **** 
 3560              		.loc 1 485 9 is_stmt 1 view .LVU1138
 485:lvgl/src/widgets/lv_arc.c **** 
 3561              		.loc 1 485 11 is_stmt 0 view .LVU1139
 3562 00ea 002C     		cmp	r4, #0
 3563 00ec C0F2DB80 		blt	.L219
 3564              	.L186:
 487:lvgl/src/widgets/lv_arc.c ****         const uint32_t tolerance_deg = (360U * LV_DPX(50U)) / circumference;
 3565              		.loc 1 487 9 is_stmt 1 view .LVU1140
 487:lvgl/src/widgets/lv_arc.c ****         const uint32_t tolerance_deg = (360U * LV_DPX(50U)) / circumference;
 3566              		.loc 1 487 59 is_stmt 0 view .LVU1141
 3567 00f0 BDF90A80 		ldrsh	r8, [sp, #10]
 3568 00f4 4FF41D73 		mov	r3, #628
 3569 00f8 03FB08F8 		mul	r8, r3, r8
 487:lvgl/src/widgets/lv_arc.c ****         const uint32_t tolerance_deg = (360U * LV_DPX(50U)) / circumference;
 3570              		.loc 1 487 24 view .LVU1142
 3571 00fc 894B     		ldr	r3, .L228+4
 3572 00fe A3FB0838 		umull	r3, r8, r3, r8
 3573 0102 4FEA5818 		lsr	r8, r8, #5
 3574              	.LVL408:
 488:lvgl/src/widgets/lv_arc.c ****         const uint32_t min_close_prev = (uint32_t) arc->min_close;
 3575              		.loc 1 488 9 is_stmt 1 view .LVU1143
 488:lvgl/src/widgets/lv_arc.c ****         const uint32_t min_close_prev = (uint32_t) arc->min_close;
ARM GAS  C:\Users\OSD\AppData\Local\Temp\ccR88enE.s 			page 106


 3576              		.loc 1 488 48 is_stmt 0 view .LVU1144
 3577 0106 0020     		movs	r0, #0
 3578 0108 FFF7FEFF 		bl	lv_disp_get_dpi
 3579              	.LVL409:
 3580 010c 3223     		movs	r3, #50
 3581 010e 00FB03F3 		mul	r3, r0, r3
 3582 0112 5033     		adds	r3, r3, #80
 488:lvgl/src/widgets/lv_arc.c ****         const uint32_t min_close_prev = (uint32_t) arc->min_close;
 3583              		.loc 1 488 46 view .LVU1145
 3584 0114 B3F5A07F 		cmp	r3, #320
 3585 0118 80F0C980 		bcs	.L220
 488:lvgl/src/widgets/lv_arc.c ****         const uint32_t min_close_prev = (uint32_t) arc->min_close;
 3586              		.loc 1 488 46 view .LVU1146
 3587 011c 4FF4B472 		mov	r2, #360
 3588              	.L187:
 3589              	.LVL410:
 489:lvgl/src/widgets/lv_arc.c **** 
 3590              		.loc 1 489 9 is_stmt 1 discriminator 4 view .LVU1147
 489:lvgl/src/widgets/lv_arc.c **** 
 3591              		.loc 1 489 55 is_stmt 0 discriminator 4 view .LVU1148
 3592 0120 97F83490 		ldrb	r9, [r7, #52]	@ zero_extendqisi2
 3593 0124 C9F3C009 		ubfx	r9, r9, #3, #1
 3594              	.LVL411:
 491:lvgl/src/widgets/lv_arc.c ****         if(!is_angle_within_bg_bounds) {
 3595              		.loc 1 491 9 is_stmt 1 discriminator 4 view .LVU1149
 491:lvgl/src/widgets/lv_arc.c ****         if(!is_angle_within_bg_bounds) {
 3596              		.loc 1 491 48 is_stmt 0 discriminator 4 view .LVU1150
 3597 0128 B2FBF8F2 		udiv	r2, r2, r8
 3598              	.LVL412:
 491:lvgl/src/widgets/lv_arc.c ****         if(!is_angle_within_bg_bounds) {
 3599              		.loc 1 491 48 discriminator 4 view .LVU1151
 3600 012c 2146     		mov	r1, r4
 3601 012e 3046     		mov	r0, r6
 3602 0130 FFF7FEFF 		bl	lv_arc_angle_within_bg_bounds
 3603              	.LVL413:
 492:lvgl/src/widgets/lv_arc.c ****             return;
 3604              		.loc 1 492 9 is_stmt 1 discriminator 4 view .LVU1152
 492:lvgl/src/widgets/lv_arc.c ****             return;
 3605              		.loc 1 492 11 is_stmt 0 discriminator 4 view .LVU1153
 3606 0134 0028     		cmp	r0, #0
 3607 0136 3FF46CAF 		beq	.L175
 496:lvgl/src/widgets/lv_arc.c ****         int16_t last_angle_rel = arc->last_angle - arc->bg_angle_start;
 3608              		.loc 1 496 9 is_stmt 1 view .LVU1154
 496:lvgl/src/widgets/lv_arc.c ****         int16_t last_angle_rel = arc->last_angle - arc->bg_angle_start;
 3609              		.loc 1 496 36 is_stmt 0 view .LVU1155
 3610 013a 1FFA85FC 		uxth	ip, r5
 496:lvgl/src/widgets/lv_arc.c ****         int16_t last_angle_rel = arc->last_angle - arc->bg_angle_start;
 3611              		.loc 1 496 41 view .LVU1156
 3612 013e 798D     		ldrh	r1, [r7, #42]
 496:lvgl/src/widgets/lv_arc.c ****         int16_t last_angle_rel = arc->last_angle - arc->bg_angle_start;
 3613              		.loc 1 496 36 view .LVU1157
 3614 0140 ACEB0100 		sub	r0, ip, r1
 3615              	.LVL414:
 496:lvgl/src/widgets/lv_arc.c ****         int16_t last_angle_rel = arc->last_angle - arc->bg_angle_start;
 3616              		.loc 1 496 17 view .LVU1158
 3617 0144 00B2     		sxth	r0, r0
 3618              	.LVL415:
ARM GAS  C:\Users\OSD\AppData\Local\Temp\ccR88enE.s 			page 107


 497:lvgl/src/widgets/lv_arc.c ****         int16_t delta_angle = angle - last_angle_rel;
 3619              		.loc 1 497 9 is_stmt 1 view .LVU1159
 497:lvgl/src/widgets/lv_arc.c ****         int16_t delta_angle = angle - last_angle_rel;
 3620              		.loc 1 497 37 is_stmt 0 view .LVU1160
 3621 0146 B7F84030 		ldrh	r3, [r7, #64]
 497:lvgl/src/widgets/lv_arc.c ****         int16_t delta_angle = angle - last_angle_rel;
 3622              		.loc 1 497 50 view .LVU1161
 3623 014a A3EB0108 		sub	r8, r3, r1
 3624              	.LVL416:
 497:lvgl/src/widgets/lv_arc.c ****         int16_t delta_angle = angle - last_angle_rel;
 3625              		.loc 1 497 50 view .LVU1162
 3626 014e 1FFA88F8 		uxth	r8, r8
 3627              	.LVL417:
 498:lvgl/src/widgets/lv_arc.c **** 
 3628              		.loc 1 498 9 is_stmt 1 view .LVU1163
 3629 0152 CB1A     		subs	r3, r1, r3
 3630 0154 9BB2     		uxth	r3, r3
 498:lvgl/src/widgets/lv_arc.c **** 
 3631              		.loc 1 498 37 is_stmt 0 view .LVU1164
 3632 0156 1A19     		adds	r2, r3, r4
 498:lvgl/src/widgets/lv_arc.c **** 
 3633              		.loc 1 498 17 view .LVU1165
 3634 0158 12B2     		sxth	r2, r2
 3635              	.LVL418:
 503:lvgl/src/widgets/lv_arc.c ****             if(arc->min_close) angle = 0;
 3636              		.loc 1 503 9 is_stmt 1 view .LVU1166
 503:lvgl/src/widgets/lv_arc.c ****             if(arc->min_close) angle = 0;
 3637              		.loc 1 503 12 is_stmt 0 view .LVU1167
 3638 015a 002A     		cmp	r2, #0
 3639 015c B8BF     		it	lt
 3640 015e 5242     		rsblt	r2, r2, #0
 3641              	.LVL419:
 503:lvgl/src/widgets/lv_arc.c ****             if(arc->min_close) angle = 0;
 3642              		.loc 1 503 12 view .LVU1168
 3643 0160 92B2     		uxth	r2, r2
 503:lvgl/src/widgets/lv_arc.c ****             if(arc->min_close) angle = 0;
 3644              		.loc 1 503 11 view .LVU1169
 3645 0162 B2F58C7F 		cmp	r2, #280
 3646 0166 40F2B280 		bls	.L188
 504:lvgl/src/widgets/lv_arc.c ****             else angle = deg_range;
 3647              		.loc 1 504 13 is_stmt 1 view .LVU1170
 504:lvgl/src/widgets/lv_arc.c ****             else angle = deg_range;
 3648              		.loc 1 504 16 is_stmt 0 view .LVU1171
 3649 016a 97F83410 		ldrb	r1, [r7, #52]	@ zero_extendqisi2
 504:lvgl/src/widgets/lv_arc.c ****             else angle = deg_range;
 3650              		.loc 1 504 15 view .LVU1172
 3651 016e 11F0080F 		tst	r1, #8
 3652 0172 00F0B980 		beq	.L206
 504:lvgl/src/widgets/lv_arc.c ****             else angle = deg_range;
 3653              		.loc 1 504 38 view .LVU1173
 3654 0176 0024     		movs	r4, #0
 3655              	.LVL420:
 3656              	.L189:
 512:lvgl/src/widgets/lv_arc.c **** 
 3657              		.loc 1 512 43 is_stmt 1 view .LVU1174
 516:lvgl/src/widgets/lv_arc.c ****            && ((CLICK_OUTSIDE_BG_ANGLES == arc->in_out) && (LV_ABS(delta_angle) > 280))) {
 3658              		.loc 1 516 9 view .LVU1175
ARM GAS  C:\Users\OSD\AppData\Local\Temp\ccR88enE.s 			page 108


 516:lvgl/src/widgets/lv_arc.c ****            && ((CLICK_OUTSIDE_BG_ANGLES == arc->in_out) && (LV_ABS(delta_angle) > 280))) {
 3659              		.loc 1 516 11 is_stmt 0 view .LVU1176
 3660 0178 B9F1000F 		cmp	r9, #0
 3661 017c 40F0B880 		bne	.L221
 3662              	.L190:
 520:lvgl/src/widgets/lv_arc.c ****                 && (CLICK_OUTSIDE_BG_ANGLES == arc->in_out)) {
 3663              		.loc 1 520 14 is_stmt 1 view .LVU1177
 520:lvgl/src/widgets/lv_arc.c ****                 && (CLICK_OUTSIDE_BG_ANGLES == arc->in_out)) {
 3664              		.loc 1 520 16 is_stmt 0 view .LVU1178
 3665 0180 B9F1000F 		cmp	r9, #0
 3666 0184 06D1     		bne	.L191
 521:lvgl/src/widgets/lv_arc.c ****             angle = deg_range;
 3667              		.loc 1 521 17 view .LVU1179
 3668 0186 97F83420 		ldrb	r2, [r7, #52]	@ zero_extendqisi2
 3669 018a 02F01802 		and	r2, r2, #24
 3670 018e 082A     		cmp	r2, #8
 3671 0190 00F0BE80 		beq	.L222
 3672              	.LVL421:
 3673              	.L191:
 524:lvgl/src/widgets/lv_arc.c **** 
 3674              		.loc 1 524 43 is_stmt 1 view .LVU1180
 527:lvgl/src/widgets/lv_arc.c **** 
 3675              		.loc 1 527 9 view .LVU1181
 527:lvgl/src/widgets/lv_arc.c **** 
 3676              		.loc 1 527 29 is_stmt 0 view .LVU1182
 3677 0194 1C44     		add	r4, r4, r3
 3678              	.LVL422:
 527:lvgl/src/widgets/lv_arc.c **** 
 3679              		.loc 1 527 21 view .LVU1183
 3680 0196 24B2     		sxth	r4, r4
 3681              	.LVL423:
 529:lvgl/src/widgets/lv_arc.c ****         /* delta_angle_max can never be signed. delta_tick is always signed, same for ch_rate */
 3682              		.loc 1 529 9 is_stmt 1 view .LVU1184
 529:lvgl/src/widgets/lv_arc.c ****         /* delta_angle_max can never be signed. delta_tick is always signed, same for ch_rate */
 3683              		.loc 1 529 31 is_stmt 0 view .LVU1185
 3684 0198 F86B     		ldr	r0, [r7, #60]
 3685              	.LVL424:
 529:lvgl/src/widgets/lv_arc.c ****         /* delta_angle_max can never be signed. delta_tick is always signed, same for ch_rate */
 3686              		.loc 1 529 31 view .LVU1186
 3687 019a FFF7FEFF 		bl	lv_tick_elaps
 3688              	.LVL425:
 531:lvgl/src/widgets/lv_arc.c **** 
 3689              		.loc 1 531 9 is_stmt 1 view .LVU1187
 531:lvgl/src/widgets/lv_arc.c **** 
 3690              		.loc 1 531 46 is_stmt 0 view .LVU1188
 3691 019e BB6B     		ldr	r3, [r7, #56]
 531:lvgl/src/widgets/lv_arc.c **** 
 3692              		.loc 1 531 57 view .LVU1189
 3693 01a0 00FB03F3 		mul	r3, r0, r3
 531:lvgl/src/widgets/lv_arc.c **** 
 3694              		.loc 1 531 71 view .LVU1190
 3695 01a4 604A     		ldr	r2, .L228+8
 3696 01a6 A2FB0323 		umull	r2, r3, r2, r3
 3697 01aa 9A09     		lsrs	r2, r3, #6
 531:lvgl/src/widgets/lv_arc.c **** 
 3698              		.loc 1 531 24 view .LVU1191
 3699 01ac C3F38F13 		ubfx	r3, r3, #6, #16
ARM GAS  C:\Users\OSD\AppData\Local\Temp\ccR88enE.s 			page 109


 3700              	.LVL426:
 533:lvgl/src/widgets/lv_arc.c ****             delta_angle = delta_angle_max;
 3701              		.loc 1 533 9 is_stmt 1 view .LVU1192
 533:lvgl/src/widgets/lv_arc.c ****             delta_angle = delta_angle_max;
 3702              		.loc 1 533 11 is_stmt 0 view .LVU1193
 3703 01b0 9C42     		cmp	r4, r3
 3704 01b2 40F3AF80 		ble	.L192
 534:lvgl/src/widgets/lv_arc.c ****         }
 3705              		.loc 1 534 13 is_stmt 1 view .LVU1194
 534:lvgl/src/widgets/lv_arc.c ****         }
 3706              		.loc 1 534 25 is_stmt 0 view .LVU1195
 3707 01b6 14B2     		sxth	r4, r2
 3708              	.LVL427:
 3709              	.L193:
 539:lvgl/src/widgets/lv_arc.c **** 
 3710              		.loc 1 539 36 is_stmt 1 view .LVU1196
 541:lvgl/src/widgets/lv_arc.c **** 
 3711              		.loc 1 541 9 view .LVU1197
 541:lvgl/src/widgets/lv_arc.c **** 
 3712              		.loc 1 541 32 is_stmt 0 view .LVU1198
 3713 01b8 08EB0400 		add	r0, r8, r4
 3714              	.LVL428:
 544:lvgl/src/widgets/lv_arc.c ****         round = (round + 4) >> 4;
 3715              		.loc 1 544 9 is_stmt 1 view .LVU1199
 544:lvgl/src/widgets/lv_arc.c ****         round = (round + 4) >> 4;
 3716              		.loc 1 544 39 is_stmt 0 view .LVU1200
 3717 01bc 798D     		ldrh	r1, [r7, #42]
 544:lvgl/src/widgets/lv_arc.c ****         round = (round + 4) >> 4;
 3718              		.loc 1 544 34 view .LVU1201
 3719 01be 6A1A     		subs	r2, r5, r1
 544:lvgl/src/widgets/lv_arc.c ****         round = (round + 4) >> 4;
 3720              		.loc 1 544 57 view .LVU1202
 3721 01c0 D200     		lsls	r2, r2, #3
 544:lvgl/src/widgets/lv_arc.c ****         round = (round + 4) >> 4;
 3722              		.loc 1 544 68 view .LVU1203
 3723 01c2 B7F93240 		ldrsh	r4, [r7, #50]
 3724              	.LVL429:
 544:lvgl/src/widgets/lv_arc.c ****         round = (round + 4) >> 4;
 3725              		.loc 1 544 85 view .LVU1204
 3726 01c6 B7F93030 		ldrsh	r3, [r7, #48]
 3727              	.LVL430:
 544:lvgl/src/widgets/lv_arc.c ****         round = (round + 4) >> 4;
 3728              		.loc 1 544 80 view .LVU1205
 3729 01ca A4EB030C 		sub	ip, r4, r3
 544:lvgl/src/widgets/lv_arc.c ****         round = (round + 4) >> 4;
 3730              		.loc 1 544 17 view .LVU1206
 3731 01ce 92FBFCF2 		sdiv	r2, r2, ip
 3732              	.LVL431:
 545:lvgl/src/widgets/lv_arc.c ****         angle += round;
 3733              		.loc 1 545 9 is_stmt 1 view .LVU1207
 545:lvgl/src/widgets/lv_arc.c ****         angle += round;
 3734              		.loc 1 545 24 is_stmt 0 view .LVU1208
 3735 01d2 0432     		adds	r2, r2, #4
 3736              	.LVL432:
 545:lvgl/src/widgets/lv_arc.c ****         angle += round;
 3737              		.loc 1 545 15 view .LVU1209
 3738 01d4 1211     		asrs	r2, r2, #4
ARM GAS  C:\Users\OSD\AppData\Local\Temp\ccR88enE.s 			page 110


 3739              	.LVL433:
 546:lvgl/src/widgets/lv_arc.c **** 
 3740              		.loc 1 546 9 is_stmt 1 view .LVU1210
 546:lvgl/src/widgets/lv_arc.c **** 
 3741              		.loc 1 546 15 is_stmt 0 view .LVU1211
 3742 01d6 12FA80F2 		uxtah	r2, r2, r0
 3743              	.LVL434:
 548:lvgl/src/widgets/lv_arc.c **** 
 3744              		.loc 1 548 9 is_stmt 1 view .LVU1212
 548:lvgl/src/widgets/lv_arc.c **** 
 3745              		.loc 1 548 15 is_stmt 0 view .LVU1213
 3746 01da 11FA82F0 		uxtah	r0, r1, r2
 3747              	.LVL435:
 551:lvgl/src/widgets/lv_arc.c ****         int16_t new_value = lv_map(angle, arc->bg_angle_start, bg_end, arc->min_value, arc->max_val
 3748              		.loc 1 551 9 is_stmt 1 view .LVU1214
 551:lvgl/src/widgets/lv_arc.c ****         int16_t new_value = lv_map(angle, arc->bg_angle_start, bg_end, arc->min_value, arc->max_val
 3749              		.loc 1 551 17 is_stmt 0 view .LVU1215
 3750 01de B7F92E80 		ldrsh	r8, [r7, #46]
 3751              	.LVL436:
 552:lvgl/src/widgets/lv_arc.c ****         if(new_value != lv_arc_get_value(obj)) {
 3752              		.loc 1 552 9 is_stmt 1 view .LVU1216
 552:lvgl/src/widgets/lv_arc.c ****         if(new_value != lv_arc_get_value(obj)) {
 3753              		.loc 1 552 29 is_stmt 0 view .LVU1217
 3754 01e2 0094     		str	r4, [sp]
 3755 01e4 2A46     		mov	r2, r5
 3756 01e6 00B2     		sxth	r0, r0
 552:lvgl/src/widgets/lv_arc.c ****         if(new_value != lv_arc_get_value(obj)) {
 3757              		.loc 1 552 29 view .LVU1218
 3758 01e8 FFF7FEFF 		bl	lv_map
 3759              	.LVL437:
 552:lvgl/src/widgets/lv_arc.c ****         if(new_value != lv_arc_get_value(obj)) {
 3760              		.loc 1 552 17 view .LVU1219
 3761 01ec 04B2     		sxth	r4, r0
 3762              	.LVL438:
 553:lvgl/src/widgets/lv_arc.c ****             arc->last_tick = lv_tick_get(); /*Cache timestamp for the next iteration*/
 3763              		.loc 1 553 9 is_stmt 1 view .LVU1220
 553:lvgl/src/widgets/lv_arc.c ****             arc->last_tick = lv_tick_get(); /*Cache timestamp for the next iteration*/
 3764              		.loc 1 553 25 is_stmt 0 view .LVU1221
 3765 01ee 3046     		mov	r0, r6
 3766 01f0 FFF7FEFF 		bl	lv_arc_get_value
 3767              	.LVL439:
 553:lvgl/src/widgets/lv_arc.c ****             arc->last_tick = lv_tick_get(); /*Cache timestamp for the next iteration*/
 3768              		.loc 1 553 11 view .LVU1222
 3769 01f4 A042     		cmp	r0, r4
 3770 01f6 40F09B80 		bne	.L223
 3771              	.L194:
 563:lvgl/src/widgets/lv_arc.c ****             arc->last_tick = lv_tick_get(); /*Cache timestamp for the next iteration*/
 3772              		.loc 1 563 9 is_stmt 1 view .LVU1223
 563:lvgl/src/widgets/lv_arc.c ****             arc->last_tick = lv_tick_get(); /*Cache timestamp for the next iteration*/
 3773              		.loc 1 563 28 is_stmt 0 view .LVU1224
 3774 01fa B7F93030 		ldrsh	r3, [r7, #48]
 563:lvgl/src/widgets/lv_arc.c ****             arc->last_tick = lv_tick_get(); /*Cache timestamp for the next iteration*/
 3775              		.loc 1 563 11 view .LVU1225
 3776 01fe A342     		cmp	r3, r4
 3777 0200 04D0     		beq	.L195
 563:lvgl/src/widgets/lv_arc.c ****             arc->last_tick = lv_tick_get(); /*Cache timestamp for the next iteration*/
 3778              		.loc 1 563 59 discriminator 1 view .LVU1226
ARM GAS  C:\Users\OSD\AppData\Local\Temp\ccR88enE.s 			page 111


 3779 0202 B7F93230 		ldrsh	r3, [r7, #50]
 563:lvgl/src/widgets/lv_arc.c ****             arc->last_tick = lv_tick_get(); /*Cache timestamp for the next iteration*/
 3780              		.loc 1 563 40 discriminator 1 view .LVU1227
 3781 0206 A342     		cmp	r3, r4
 3782 0208 7FF403AF 		bne	.L175
 3783              	.L195:
 564:lvgl/src/widgets/lv_arc.c ****         }
 3784              		.loc 1 564 13 is_stmt 1 view .LVU1228
 564:lvgl/src/widgets/lv_arc.c ****         }
 3785              		.loc 1 564 30 is_stmt 0 view .LVU1229
 3786 020c FFF7FEFF 		bl	lv_tick_get
 3787              	.LVL440:
 564:lvgl/src/widgets/lv_arc.c ****         }
 3788              		.loc 1 564 28 view .LVU1230
 3789 0210 F863     		str	r0, [r7, #60]
 3790 0212 FEE6     		b	.L175
 3791              	.LVL441:
 3792              	.L218:
 3793              	.LBB135:
 448:lvgl/src/widgets/lv_arc.c ****             r -= indic_width;
 3794              		.loc 1 448 13 is_stmt 1 view .LVU1231
 3795              	.LBB136:
 3796              	.LBI136:
 409:lvgl/src/widgets/../core/lv_obj_style_gen.h **** {
 3797              		.loc 2 409 26 view .LVU1232
 3798              	.LBB137:
 411:lvgl/src/widgets/../core/lv_obj_style_gen.h ****     return (lv_coord_t)v.num;
 3799              		.loc 2 411 5 view .LVU1233
 411:lvgl/src/widgets/../core/lv_obj_style_gen.h ****     return (lv_coord_t)v.num;
 3800              		.loc 2 411 26 is_stmt 0 view .LVU1234
 3801 0214 5022     		movs	r2, #80
 3802 0216 4FF40031 		mov	r1, #131072
 3803 021a 3046     		mov	r0, r6
 3804 021c FFF7FEFF 		bl	lv_obj_get_style_prop
 3805              	.LVL442:
 412:lvgl/src/widgets/../core/lv_obj_style_gen.h **** }
 3806              		.loc 2 412 5 is_stmt 1 view .LVU1235
 412:lvgl/src/widgets/../core/lv_obj_style_gen.h **** }
 3807              		.loc 2 412 12 is_stmt 0 view .LVU1236
 3808 0220 05B2     		sxth	r5, r0
 3809              	.LVL443:
 412:lvgl/src/widgets/../core/lv_obj_style_gen.h **** }
 3810              		.loc 2 412 12 view .LVU1237
 3811              	.LBE137:
 3812              	.LBE136:
 449:lvgl/src/widgets/lv_arc.c ****             /*Add some more sensitive area if there is no advanced git testing.
 3813              		.loc 1 449 13 is_stmt 1 view .LVU1238
 449:lvgl/src/widgets/lv_arc.c ****             /*Add some more sensitive area if there is no advanced git testing.
 3814              		.loc 1 449 15 is_stmt 0 view .LVU1239
 3815 0222 84B2     		uxth	r4, r0
 3816              	.LVL444:
 449:lvgl/src/widgets/lv_arc.c ****             /*Add some more sensitive area if there is no advanced git testing.
 3817              		.loc 1 449 15 view .LVU1240
 3818 0224 BDF80A30 		ldrh	r3, [sp, #10]
 3819 0228 1B1B     		subs	r3, r3, r4
 3820 022a ADF80A30 		strh	r3, [sp, #10]	@ movhi
 452:lvgl/src/widgets/lv_arc.c ****                 r -= indic_width;
ARM GAS  C:\Users\OSD\AppData\Local\Temp\ccR88enE.s 			page 112


 3821              		.loc 1 452 13 is_stmt 1 view .LVU1241
 452:lvgl/src/widgets/lv_arc.c ****                 r -= indic_width;
 3822              		.loc 1 452 16 is_stmt 0 view .LVU1242
 3823 022e 4FF48031 		mov	r1, #65536
 3824 0232 3046     		mov	r0, r6
 452:lvgl/src/widgets/lv_arc.c ****                 r -= indic_width;
 3825              		.loc 1 452 16 view .LVU1243
 3826 0234 FFF7FEFF 		bl	lv_obj_has_flag
 3827              	.LVL445:
 452:lvgl/src/widgets/lv_arc.c ****                 r -= indic_width;
 3828              		.loc 1 452 15 view .LVU1244
 3829 0238 08B3     		cbz	r0, .L180
 453:lvgl/src/widgets/lv_arc.c **** 
 3830              		.loc 1 453 17 is_stmt 1 view .LVU1245
 453:lvgl/src/widgets/lv_arc.c **** 
 3831              		.loc 1 453 19 is_stmt 0 view .LVU1246
 3832 023a BDF80A00 		ldrh	r0, [sp, #10]
 3833 023e 001B     		subs	r0, r0, r4
 3834 0240 ADF80A00 		strh	r0, [sp, #10]	@ movhi
 3835              	.L181:
 459:lvgl/src/widgets/lv_arc.c **** 
 3836              		.loc 1 459 13 is_stmt 1 view .LVU1247
 459:lvgl/src/widgets/lv_arc.c **** 
 3837              		.loc 1 459 18 is_stmt 0 view .LVU1248
 3838 0244 BDF90A30 		ldrsh	r3, [sp, #10]
 459:lvgl/src/widgets/lv_arc.c **** 
 3839              		.loc 1 459 15 view .LVU1249
 3840 0248 002B     		cmp	r3, #0
 3841 024a 28DD     		ble	.L224
 3842              	.L183:
 461:lvgl/src/widgets/lv_arc.c ****                 arc->dragging = true;
 3843              		.loc 1 461 13 is_stmt 1 view .LVU1250
 461:lvgl/src/widgets/lv_arc.c ****                 arc->dragging = true;
 3844              		.loc 1 461 17 is_stmt 0 view .LVU1251
 3845 024c BDF90C30 		ldrsh	r3, [sp, #12]
 461:lvgl/src/widgets/lv_arc.c ****                 arc->dragging = true;
 3846              		.loc 1 461 29 view .LVU1252
 3847 0250 BDF90E20 		ldrsh	r2, [sp, #14]
 461:lvgl/src/widgets/lv_arc.c ****                 arc->dragging = true;
 3848              		.loc 1 461 32 view .LVU1253
 3849 0254 02FB02F2 		mul	r2, r2, r2
 461:lvgl/src/widgets/lv_arc.c ****                 arc->dragging = true;
 3850              		.loc 1 461 26 view .LVU1254
 3851 0258 03FB0322 		mla	r2, r3, r3, r2
 461:lvgl/src/widgets/lv_arc.c ****                 arc->dragging = true;
 3852              		.loc 1 461 42 view .LVU1255
 3853 025c BDF90A30 		ldrsh	r3, [sp, #10]
 3854 0260 03FB03F3 		mul	r3, r3, r3
 461:lvgl/src/widgets/lv_arc.c ****                 arc->dragging = true;
 3855              		.loc 1 461 15 view .LVU1256
 3856 0264 9A42     		cmp	r2, r3
 3857 0266 7FF720AF 		ble	.L179
 462:lvgl/src/widgets/lv_arc.c ****                 arc->last_tick = lv_tick_get(); /*Capture timestamp at dragging start*/
 3858              		.loc 1 462 17 is_stmt 1 view .LVU1257
 462:lvgl/src/widgets/lv_arc.c ****                 arc->last_tick = lv_tick_get(); /*Capture timestamp at dragging start*/
 3859              		.loc 1 462 31 is_stmt 0 view .LVU1258
 3860 026a 97F83430 		ldrb	r3, [r7, #52]	@ zero_extendqisi2
ARM GAS  C:\Users\OSD\AppData\Local\Temp\ccR88enE.s 			page 113


 3861 026e 43F00103 		orr	r3, r3, #1
 3862 0272 87F83430 		strb	r3, [r7, #52]
 463:lvgl/src/widgets/lv_arc.c ****             }
 3863              		.loc 1 463 17 is_stmt 1 view .LVU1259
 463:lvgl/src/widgets/lv_arc.c ****             }
 3864              		.loc 1 463 34 is_stmt 0 view .LVU1260
 3865 0276 FFF7FEFF 		bl	lv_tick_get
 3866              	.LVL446:
 463:lvgl/src/widgets/lv_arc.c ****             }
 3867              		.loc 1 463 32 view .LVU1261
 3868 027a F863     		str	r0, [r7, #60]
 3869 027c 15E7     		b	.L179
 3870              	.L180:
 457:lvgl/src/widgets/lv_arc.c ****             }
 3871              		.loc 1 457 17 is_stmt 1 view .LVU1262
 457:lvgl/src/widgets/lv_arc.c ****             }
 3872              		.loc 1 457 19 is_stmt 0 view .LVU1263
 3873 027e BDF90A20 		ldrsh	r2, [sp, #10]
 457:lvgl/src/widgets/lv_arc.c ****             }
 3874              		.loc 1 457 22 view .LVU1264
 3875 0282 1346     		mov	r3, r2
 3876 0284 002A     		cmp	r2, #0
 3877 0286 08DB     		blt	.L225
 3878              	.L182:
 3879 0288 9B10     		asrs	r3, r3, #2
 3880 028a AB42     		cmp	r3, r5
 3881 028c B8BF     		it	lt
 3882 028e 2B46     		movlt	r3, r5
 3883 0290 9BB2     		uxth	r3, r3
 457:lvgl/src/widgets/lv_arc.c ****             }
 3884              		.loc 1 457 19 view .LVU1265
 3885 0292 D31A     		subs	r3, r2, r3
 3886 0294 ADF80A30 		strh	r3, [sp, #10]	@ movhi
 3887 0298 D4E7     		b	.L181
 3888              	.L225:
 457:lvgl/src/widgets/lv_arc.c ****             }
 3889              		.loc 1 457 22 view .LVU1266
 3890 029a D31C     		adds	r3, r2, #3
 3891 029c F4E7     		b	.L182
 3892              	.L224:
 459:lvgl/src/widgets/lv_arc.c **** 
 3893              		.loc 1 459 23 is_stmt 1 discriminator 1 view .LVU1267
 459:lvgl/src/widgets/lv_arc.c **** 
 3894              		.loc 1 459 25 is_stmt 0 discriminator 1 view .LVU1268
 3895 029e 0123     		movs	r3, #1
 3896 02a0 ADF80A30 		strh	r3, [sp, #10]	@ movhi
 3897 02a4 D2E7     		b	.L183
 3898              	.LVL447:
 3899              	.L219:
 459:lvgl/src/widgets/lv_arc.c **** 
 3900              		.loc 1 459 25 discriminator 1 view .LVU1269
 3901              	.LBE135:
 485:lvgl/src/widgets/lv_arc.c **** 
 3902              		.loc 1 485 23 is_stmt 1 discriminator 1 view .LVU1270
 485:lvgl/src/widgets/lv_arc.c **** 
 3903              		.loc 1 485 29 is_stmt 0 discriminator 1 view .LVU1271
 3904 02a6 03F5B473 		add	r3, r3, #360
ARM GAS  C:\Users\OSD\AppData\Local\Temp\ccR88enE.s 			page 114


 3905 02aa 1CB2     		sxth	r4, r3
 3906              	.LVL448:
 485:lvgl/src/widgets/lv_arc.c **** 
 3907              		.loc 1 485 29 discriminator 1 view .LVU1272
 3908 02ac 20E7     		b	.L186
 3909              	.LVL449:
 3910              	.L220:
 488:lvgl/src/widgets/lv_arc.c ****         const uint32_t min_close_prev = (uint32_t) arc->min_close;
 3911              		.loc 1 488 48 discriminator 1 view .LVU1273
 3912 02ae 0020     		movs	r0, #0
 3913 02b0 FFF7FEFF 		bl	lv_disp_get_dpi
 3914              	.LVL450:
 3915 02b4 3222     		movs	r2, #50
 3916 02b6 00FB02F2 		mul	r2, r0, r2
 3917 02ba 5032     		adds	r2, r2, #80
 3918 02bc 1B4B     		ldr	r3, .L228+12
 3919 02be A3FB0232 		umull	r3, r2, r3, r2
 3920 02c2 D209     		lsrs	r2, r2, #7
 488:lvgl/src/widgets/lv_arc.c ****         const uint32_t min_close_prev = (uint32_t) arc->min_close;
 3921              		.loc 1 488 46 discriminator 1 view .LVU1274
 3922 02c4 4FF4B473 		mov	r3, #360
 3923 02c8 03FB02F2 		mul	r2, r3, r2
 3924 02cc 28E7     		b	.L187
 3925              	.LVL451:
 3926              	.L188:
 508:lvgl/src/widgets/lv_arc.c ****             if(arc->min_close) angle = -deg_range;
 3927              		.loc 1 508 14 is_stmt 1 view .LVU1275
 508:lvgl/src/widgets/lv_arc.c ****             if(arc->min_close) angle = -deg_range;
 3928              		.loc 1 508 41 is_stmt 0 view .LVU1276
 3929 02ce 97F834E0 		ldrb	lr, [r7, #52]	@ zero_extendqisi2
 508:lvgl/src/widgets/lv_arc.c ****             if(arc->min_close) angle = -deg_range;
 3930              		.loc 1 508 16 view .LVU1277
 3931 02d2 1EF0100F 		tst	lr, #16
 3932 02d6 7FF44FAF 		bne	.L189
 509:lvgl/src/widgets/lv_arc.c ****             else angle = deg_range;
 3933              		.loc 1 509 13 is_stmt 1 view .LVU1278
 509:lvgl/src/widgets/lv_arc.c ****             else angle = deg_range;
 3934              		.loc 1 509 15 is_stmt 0 view .LVU1279
 3935 02da 1EF0080F 		tst	lr, #8
 3936 02de 05D0     		beq	.L207
 509:lvgl/src/widgets/lv_arc.c ****             else angle = deg_range;
 3937              		.loc 1 509 32 is_stmt 1 discriminator 1 view .LVU1280
 509:lvgl/src/widgets/lv_arc.c ****             else angle = deg_range;
 3938              		.loc 1 509 38 is_stmt 0 discriminator 1 view .LVU1281
 3939 02e0 A1EB0C01 		sub	r1, r1, ip
 3940 02e4 0CB2     		sxth	r4, r1
 3941              	.LVL452:
 509:lvgl/src/widgets/lv_arc.c ****             else angle = deg_range;
 3942              		.loc 1 509 38 discriminator 1 view .LVU1282
 3943 02e6 47E7     		b	.L189
 3944              	.LVL453:
 3945              	.L206:
 505:lvgl/src/widgets/lv_arc.c ****         }
 3946              		.loc 1 505 24 view .LVU1283
 3947 02e8 0446     		mov	r4, r0
 3948              	.LVL454:
 505:lvgl/src/widgets/lv_arc.c ****         }
ARM GAS  C:\Users\OSD\AppData\Local\Temp\ccR88enE.s 			page 115


 3949              		.loc 1 505 24 view .LVU1284
 3950 02ea 45E7     		b	.L189
 3951              	.LVL455:
 3952              	.L207:
 510:lvgl/src/widgets/lv_arc.c ****         }
 3953              		.loc 1 510 24 view .LVU1285
 3954 02ec 0446     		mov	r4, r0
 3955              	.LVL456:
 510:lvgl/src/widgets/lv_arc.c ****         }
 3956              		.loc 1 510 24 view .LVU1286
 3957 02ee 43E7     		b	.L189
 3958              	.LVL457:
 3959              	.L221:
 516:lvgl/src/widgets/lv_arc.c ****            && ((CLICK_OUTSIDE_BG_ANGLES == arc->in_out) && (LV_ABS(delta_angle) > 280))) {
 3960              		.loc 1 516 76 discriminator 1 view .LVU1287
 3961 02f0 97F83410 		ldrb	r1, [r7, #52]	@ zero_extendqisi2
 516:lvgl/src/widgets/lv_arc.c ****            && ((CLICK_OUTSIDE_BG_ANGLES == arc->in_out) && (LV_ABS(delta_angle) > 280))) {
 3962              		.loc 1 516 57 discriminator 1 view .LVU1288
 3963 02f4 11F0080F 		tst	r1, #8
 3964 02f8 7FF442AF 		bne	.L190
 517:lvgl/src/widgets/lv_arc.c ****             angle = 0;
 3965              		.loc 1 517 12 view .LVU1289
 3966 02fc 11F0100F 		tst	r1, #16
 3967 0300 7FF43EAF 		bne	.L190
 517:lvgl/src/widgets/lv_arc.c ****             angle = 0;
 3968              		.loc 1 517 57 discriminator 1 view .LVU1290
 3969 0304 B2F58C7F 		cmp	r2, #280
 3970 0308 7FF63AAF 		bls	.L190
 518:lvgl/src/widgets/lv_arc.c ****         }
 3971              		.loc 1 518 19 view .LVU1291
 3972 030c 0024     		movs	r4, #0
 3973              	.LVL458:
 518:lvgl/src/widgets/lv_arc.c ****         }
 3974              		.loc 1 518 19 view .LVU1292
 3975 030e 41E7     		b	.L191
 3976              	.LVL459:
 3977              	.L222:
 522:lvgl/src/widgets/lv_arc.c ****         }
 3978              		.loc 1 522 19 view .LVU1293
 3979 0310 0446     		mov	r4, r0
 3980              	.LVL460:
 522:lvgl/src/widgets/lv_arc.c ****         }
 3981              		.loc 1 522 19 view .LVU1294
 3982 0312 3FE7     		b	.L191
 3983              	.LVL461:
 3984              	.L192:
 536:lvgl/src/widgets/lv_arc.c ****             delta_angle = -delta_angle_max;
 3985              		.loc 1 536 14 is_stmt 1 view .LVU1295
 536:lvgl/src/widgets/lv_arc.c ****             delta_angle = -delta_angle_max;
 3986              		.loc 1 536 31 is_stmt 0 view .LVU1296
 3987 0314 5A42     		rsbs	r2, r3, #0
 536:lvgl/src/widgets/lv_arc.c ****             delta_angle = -delta_angle_max;
 3988              		.loc 1 536 16 view .LVU1297
 3989 0316 9442     		cmp	r4, r2
 3990 0318 BFF64EAF 		bge	.L193
 537:lvgl/src/widgets/lv_arc.c ****         }
 3991              		.loc 1 537 13 is_stmt 1 view .LVU1298
ARM GAS  C:\Users\OSD\AppData\Local\Temp\ccR88enE.s 			page 116


 537:lvgl/src/widgets/lv_arc.c ****         }
 3992              		.loc 1 537 25 is_stmt 0 view .LVU1299
 3993 031c 14B2     		sxth	r4, r2
 3994              	.LVL462:
 537:lvgl/src/widgets/lv_arc.c ****         }
 3995              		.loc 1 537 25 view .LVU1300
 3996 031e 4BE7     		b	.L193
 3997              	.L229:
 3998              		.align	2
 3999              	.L228:
 4000 0320 00000000 		.word	.LANCHOR0
 4001 0324 1F85EB51 		.word	1374389535
 4002 0328 D34D6210 		.word	274877907
 4003 032c CDCCCCCC 		.word	-858993459
 4004              	.LVL463:
 4005              	.L223:
 554:lvgl/src/widgets/lv_arc.c ****             lv_arc_set_value(obj, new_value); /*set_value caches the last_angle for the next iterat
 4006              		.loc 1 554 13 is_stmt 1 view .LVU1301
 554:lvgl/src/widgets/lv_arc.c ****             lv_arc_set_value(obj, new_value); /*set_value caches the last_angle for the next iterat
 4007              		.loc 1 554 30 is_stmt 0 view .LVU1302
 4008 0330 FFF7FEFF 		bl	lv_tick_get
 4009              	.LVL464:
 554:lvgl/src/widgets/lv_arc.c ****             lv_arc_set_value(obj, new_value); /*set_value caches the last_angle for the next iterat
 4010              		.loc 1 554 28 view .LVU1303
 4011 0334 F863     		str	r0, [r7, #60]
 555:lvgl/src/widgets/lv_arc.c ****             if(new_value != old_value) {
 4012              		.loc 1 555 13 is_stmt 1 view .LVU1304
 4013 0336 2146     		mov	r1, r4
 4014 0338 3046     		mov	r0, r6
 4015 033a FFF7FEFF 		bl	lv_arc_set_value
 4016              	.LVL465:
 556:lvgl/src/widgets/lv_arc.c ****                 res = lv_event_send(obj, LV_EVENT_VALUE_CHANGED, NULL);
 4017              		.loc 1 556 13 view .LVU1305
 556:lvgl/src/widgets/lv_arc.c ****                 res = lv_event_send(obj, LV_EVENT_VALUE_CHANGED, NULL);
 4018              		.loc 1 556 15 is_stmt 0 view .LVU1306
 4019 033e A045     		cmp	r8, r4
 4020 0340 3FF45BAF 		beq	.L194
 557:lvgl/src/widgets/lv_arc.c ****                 if(res != LV_RES_OK) return;
 4021              		.loc 1 557 17 is_stmt 1 view .LVU1307
 557:lvgl/src/widgets/lv_arc.c ****                 if(res != LV_RES_OK) return;
 4022              		.loc 1 557 23 is_stmt 0 view .LVU1308
 4023 0344 0022     		movs	r2, #0
 4024 0346 1C21     		movs	r1, #28
 4025 0348 3046     		mov	r0, r6
 4026 034a FFF7FEFF 		bl	lv_event_send
 4027              	.LVL466:
 558:lvgl/src/widgets/lv_arc.c ****             }
 4028              		.loc 1 558 17 is_stmt 1 view .LVU1309
 558:lvgl/src/widgets/lv_arc.c ****             }
 4029              		.loc 1 558 19 is_stmt 0 view .LVU1310
 4030 034e 0128     		cmp	r0, #1
 4031 0350 7FF45FAE 		bne	.L175
 4032 0354 51E7     		b	.L194
 4033              	.LVL467:
 4034              	.L214:
 558:lvgl/src/widgets/lv_arc.c ****             }
 4035              		.loc 1 558 19 view .LVU1311
ARM GAS  C:\Users\OSD\AppData\Local\Temp\ccR88enE.s 			page 117


 4036              	.LBE134:
 4037              	.LBB138:
 568:lvgl/src/widgets/lv_arc.c **** 
 4038              		.loc 1 568 9 is_stmt 1 view .LVU1312
 568:lvgl/src/widgets/lv_arc.c **** 
 4039              		.loc 1 568 23 is_stmt 0 view .LVU1313
 4040 0356 90F83430 		ldrb	r3, [r0, #52]	@ zero_extendqisi2
 4041 035a 6FF30003 		bfc	r3, #0, #1
 4042 035e 80F83430 		strb	r3, [r0, #52]
 571:lvgl/src/widgets/lv_arc.c ****         bool editing               = lv_group_get_editing(g);
 4043              		.loc 1 571 9 is_stmt 1 view .LVU1314
 571:lvgl/src/widgets/lv_arc.c ****         bool editing               = lv_group_get_editing(g);
 4044              		.loc 1 571 38 is_stmt 0 view .LVU1315
 4045 0362 3046     		mov	r0, r6
 4046              	.LVL468:
 571:lvgl/src/widgets/lv_arc.c ****         bool editing               = lv_group_get_editing(g);
 4047              		.loc 1 571 38 view .LVU1316
 4048 0364 FFF7FEFF 		bl	lv_obj_get_group
 4049              	.LVL469:
 4050 0368 0546     		mov	r5, r0
 4051              	.LVL470:
 572:lvgl/src/widgets/lv_arc.c ****         lv_indev_type_t indev_type = lv_indev_get_type(lv_indev_get_act());
 4052              		.loc 1 572 9 is_stmt 1 view .LVU1317
 572:lvgl/src/widgets/lv_arc.c ****         lv_indev_type_t indev_type = lv_indev_get_type(lv_indev_get_act());
 4053              		.loc 1 572 38 is_stmt 0 view .LVU1318
 4054 036a FFF7FEFF 		bl	lv_group_get_editing
 4055              	.LVL471:
 572:lvgl/src/widgets/lv_arc.c ****         lv_indev_type_t indev_type = lv_indev_get_type(lv_indev_get_act());
 4056              		.loc 1 572 38 view .LVU1319
 4057 036e 0446     		mov	r4, r0
 4058              	.LVL472:
 573:lvgl/src/widgets/lv_arc.c ****         if(indev_type == LV_INDEV_TYPE_ENCODER) {
 4059              		.loc 1 573 9 is_stmt 1 view .LVU1320
 573:lvgl/src/widgets/lv_arc.c ****         if(indev_type == LV_INDEV_TYPE_ENCODER) {
 4060              		.loc 1 573 56 is_stmt 0 view .LVU1321
 4061 0370 FFF7FEFF 		bl	lv_indev_get_act
 4062              	.LVL473:
 573:lvgl/src/widgets/lv_arc.c ****         if(indev_type == LV_INDEV_TYPE_ENCODER) {
 4063              		.loc 1 573 38 view .LVU1322
 4064 0374 FFF7FEFF 		bl	lv_indev_get_type
 4065              	.LVL474:
 574:lvgl/src/widgets/lv_arc.c ****             if(editing) lv_group_set_editing(g, false);
 4066              		.loc 1 574 9 is_stmt 1 view .LVU1323
 574:lvgl/src/widgets/lv_arc.c ****             if(editing) lv_group_set_editing(g, false);
 4067              		.loc 1 574 11 is_stmt 0 view .LVU1324
 4068 0378 0428     		cmp	r0, #4
 4069 037a 7FF44AAE 		bne	.L175
 575:lvgl/src/widgets/lv_arc.c ****         }
 4070              		.loc 1 575 13 is_stmt 1 view .LVU1325
 575:lvgl/src/widgets/lv_arc.c ****         }
 4071              		.loc 1 575 15 is_stmt 0 view .LVU1326
 4072 037e 002C     		cmp	r4, #0
 4073 0380 3FF447AE 		beq	.L175
 575:lvgl/src/widgets/lv_arc.c ****         }
 4074              		.loc 1 575 25 is_stmt 1 discriminator 1 view .LVU1327
 4075 0384 0021     		movs	r1, #0
 4076 0386 2846     		mov	r0, r5
ARM GAS  C:\Users\OSD\AppData\Local\Temp\ccR88enE.s 			page 118


 4077              	.LVL475:
 575:lvgl/src/widgets/lv_arc.c ****         }
 4078              		.loc 1 575 25 is_stmt 0 discriminator 1 view .LVU1328
 4079 0388 FFF7FEFF 		bl	lv_group_set_editing
 4080              	.LVL476:
 4081 038c 41E6     		b	.L175
 4082              	.LVL477:
 4083              	.L215:
 575:lvgl/src/widgets/lv_arc.c ****         }
 4084              		.loc 1 575 25 discriminator 1 view .LVU1329
 4085              	.LBE138:
 4086              	.LBB139:
 580:lvgl/src/widgets/lv_arc.c **** 
 4087              		.loc 1 580 9 is_stmt 1 view .LVU1330
 580:lvgl/src/widgets/lv_arc.c **** 
 4088              		.loc 1 580 28 is_stmt 0 view .LVU1331
 4089 038e 2046     		mov	r0, r4
 4090              	.LVL478:
 580:lvgl/src/widgets/lv_arc.c **** 
 4091              		.loc 1 580 28 view .LVU1332
 4092 0390 FFF7FEFF 		bl	lv_event_get_param
 4093              	.LVL479:
 580:lvgl/src/widgets/lv_arc.c **** 
 4094              		.loc 1 580 14 view .LVU1333
 4095 0394 0378     		ldrb	r3, [r0]	@ zero_extendqisi2
 4096              	.LVL480:
 582:lvgl/src/widgets/lv_arc.c ****         if(c == LV_KEY_RIGHT || c == LV_KEY_UP) {
 4097              		.loc 1 582 9 is_stmt 1 view .LVU1334
 582:lvgl/src/widgets/lv_arc.c ****         if(c == LV_KEY_RIGHT || c == LV_KEY_UP) {
 4098              		.loc 1 582 17 is_stmt 0 view .LVU1335
 4099 0396 B7F92E40 		ldrsh	r4, [r7, #46]
 4100              	.LVL481:
 583:lvgl/src/widgets/lv_arc.c ****             lv_arc_set_value(obj, lv_arc_get_value(obj) + 1);
 4101              		.loc 1 583 9 is_stmt 1 view .LVU1336
 583:lvgl/src/widgets/lv_arc.c ****             lv_arc_set_value(obj, lv_arc_get_value(obj) + 1);
 4102              		.loc 1 583 11 is_stmt 0 view .LVU1337
 4103 039a 112B     		cmp	r3, #17
 4104 039c 18BF     		it	ne
 4105 039e 132B     		cmpne	r3, #19
 4106 03a0 0ED0     		beq	.L226
 586:lvgl/src/widgets/lv_arc.c ****             lv_arc_set_value(obj, lv_arc_get_value(obj) - 1);
 4107              		.loc 1 586 14 is_stmt 1 view .LVU1338
 586:lvgl/src/widgets/lv_arc.c ****             lv_arc_set_value(obj, lv_arc_get_value(obj) - 1);
 4108              		.loc 1 586 16 is_stmt 0 view .LVU1339
 4109 03a2 122B     		cmp	r3, #18
 4110 03a4 18BF     		it	ne
 4111 03a6 142B     		cmpne	r3, #20
 4112 03a8 14D0     		beq	.L227
 4113              	.LVL482:
 4114              	.L200:
 590:lvgl/src/widgets/lv_arc.c ****             res = lv_event_send(obj, LV_EVENT_VALUE_CHANGED, NULL);
 4115              		.loc 1 590 9 is_stmt 1 view .LVU1340
 590:lvgl/src/widgets/lv_arc.c ****             res = lv_event_send(obj, LV_EVENT_VALUE_CHANGED, NULL);
 4116              		.loc 1 590 28 is_stmt 0 view .LVU1341
 4117 03aa B7F92E30 		ldrsh	r3, [r7, #46]
 590:lvgl/src/widgets/lv_arc.c ****             res = lv_event_send(obj, LV_EVENT_VALUE_CHANGED, NULL);
 4118              		.loc 1 590 11 view .LVU1342
ARM GAS  C:\Users\OSD\AppData\Local\Temp\ccR88enE.s 			page 119


 4119 03ae A342     		cmp	r3, r4
 4120 03b0 3FF42FAE 		beq	.L175
 591:lvgl/src/widgets/lv_arc.c ****             if(res != LV_RES_OK) return;
 4121              		.loc 1 591 13 is_stmt 1 view .LVU1343
 591:lvgl/src/widgets/lv_arc.c ****             if(res != LV_RES_OK) return;
 4122              		.loc 1 591 19 is_stmt 0 view .LVU1344
 4123 03b4 0022     		movs	r2, #0
 4124 03b6 1C21     		movs	r1, #28
 4125 03b8 3046     		mov	r0, r6
 4126 03ba FFF7FEFF 		bl	lv_event_send
 4127              	.LVL483:
 592:lvgl/src/widgets/lv_arc.c ****         }
 4128              		.loc 1 592 13 is_stmt 1 view .LVU1345
 4129 03be 28E6     		b	.L175
 4130              	.LVL484:
 4131              	.L226:
 584:lvgl/src/widgets/lv_arc.c ****         }
 4132              		.loc 1 584 13 view .LVU1346
 584:lvgl/src/widgets/lv_arc.c ****         }
 4133              		.loc 1 584 35 is_stmt 0 view .LVU1347
 4134 03c0 3046     		mov	r0, r6
 4135 03c2 FFF7FEFF 		bl	lv_arc_get_value
 4136              	.LVL485:
 584:lvgl/src/widgets/lv_arc.c ****         }
 4137              		.loc 1 584 35 view .LVU1348
 4138 03c6 81B2     		uxth	r1, r0
 584:lvgl/src/widgets/lv_arc.c ****         }
 4139              		.loc 1 584 57 view .LVU1349
 4140 03c8 0131     		adds	r1, r1, #1
 584:lvgl/src/widgets/lv_arc.c ****         }
 4141              		.loc 1 584 13 view .LVU1350
 4142 03ca 09B2     		sxth	r1, r1
 4143 03cc 3046     		mov	r0, r6
 4144 03ce FFF7FEFF 		bl	lv_arc_set_value
 4145              	.LVL486:
 4146 03d2 EAE7     		b	.L200
 4147              	.LVL487:
 4148              	.L227:
 587:lvgl/src/widgets/lv_arc.c ****         }
 4149              		.loc 1 587 13 is_stmt 1 view .LVU1351
 587:lvgl/src/widgets/lv_arc.c ****         }
 4150              		.loc 1 587 35 is_stmt 0 view .LVU1352
 4151 03d4 3046     		mov	r0, r6
 4152 03d6 FFF7FEFF 		bl	lv_arc_get_value
 4153              	.LVL488:
 587:lvgl/src/widgets/lv_arc.c ****         }
 4154              		.loc 1 587 35 view .LVU1353
 4155 03da 81B2     		uxth	r1, r0
 587:lvgl/src/widgets/lv_arc.c ****         }
 4156              		.loc 1 587 57 view .LVU1354
 4157 03dc 0139     		subs	r1, r1, #1
 587:lvgl/src/widgets/lv_arc.c ****         }
 4158              		.loc 1 587 13 view .LVU1355
 4159 03de 09B2     		sxth	r1, r1
 4160 03e0 3046     		mov	r0, r6
 4161 03e2 FFF7FEFF 		bl	lv_arc_set_value
 4162              	.LVL489:
ARM GAS  C:\Users\OSD\AppData\Local\Temp\ccR88enE.s 			page 120


 4163 03e6 E0E7     		b	.L200
 4164              	.LVL490:
 4165              	.L216:
 587:lvgl/src/widgets/lv_arc.c ****         }
 4166              		.loc 1 587 13 view .LVU1356
 4167              	.LBE139:
 4168              	.LBB140:
 596:lvgl/src/widgets/lv_arc.c **** 
 4169              		.loc 1 596 9 is_stmt 1 view .LVU1357
 596:lvgl/src/widgets/lv_arc.c **** 
 4170              		.loc 1 596 37 is_stmt 0 view .LVU1358
 4171 03e8 2046     		mov	r0, r4
 4172              	.LVL491:
 596:lvgl/src/widgets/lv_arc.c **** 
 4173              		.loc 1 596 37 view .LVU1359
 4174 03ea FFF7FEFF 		bl	lv_event_get_param
 4175              	.LVL492:
 4176 03ee 0746     		mov	r7, r0
 4177              	.LVL493:
 598:lvgl/src/widgets/lv_arc.c ****         lv_coord_t r;
 4178              		.loc 1 598 9 is_stmt 1 view .LVU1360
 599:lvgl/src/widgets/lv_arc.c ****         get_center(obj, &p, &r);
 4179              		.loc 1 599 9 view .LVU1361
 600:lvgl/src/widgets/lv_arc.c **** 
 4180              		.loc 1 600 9 view .LVU1362
 4181 03f0 0DF10A02 		add	r2, sp, #10
 4182 03f4 03A9     		add	r1, sp, #12
 4183 03f6 3046     		mov	r0, r6
 4184              	.LVL494:
 600:lvgl/src/widgets/lv_arc.c **** 
 4185              		.loc 1 600 9 is_stmt 0 view .LVU1363
 4186 03f8 FFF7FEFF 		bl	get_center
 4187              	.LVL495:
 602:lvgl/src/widgets/lv_arc.c ****         if(obj->spec_attr) ext_click_area = obj->spec_attr->ext_click_pad;
 4188              		.loc 1 602 9 is_stmt 1 view .LVU1364
 603:lvgl/src/widgets/lv_arc.c **** 
 4189              		.loc 1 603 9 view .LVU1365
 603:lvgl/src/widgets/lv_arc.c **** 
 4190              		.loc 1 603 15 is_stmt 0 view .LVU1366
 4191 03fc B368     		ldr	r3, [r6, #8]
 603:lvgl/src/widgets/lv_arc.c **** 
 4192              		.loc 1 603 11 view .LVU1367
 4193 03fe 53B3     		cbz	r3, .L210
 603:lvgl/src/widgets/lv_arc.c **** 
 4194              		.loc 1 603 28 is_stmt 1 discriminator 1 view .LVU1368
 603:lvgl/src/widgets/lv_arc.c **** 
 4195              		.loc 1 603 43 is_stmt 0 discriminator 1 view .LVU1369
 4196 0400 B3F91440 		ldrsh	r4, [r3, #20]
 4197              	.LVL496:
 4198              	.L202:
 605:lvgl/src/widgets/lv_arc.c ****         r -= w + ext_click_area;
 4199              		.loc 1 605 9 is_stmt 1 view .LVU1370
 4200              	.LBB141:
 4201              	.LBI141:
 409:lvgl/src/widgets/../core/lv_obj_style_gen.h **** {
 4202              		.loc 2 409 26 view .LVU1371
 4203              	.LBB142:
ARM GAS  C:\Users\OSD\AppData\Local\Temp\ccR88enE.s 			page 121


 411:lvgl/src/widgets/../core/lv_obj_style_gen.h ****     return (lv_coord_t)v.num;
 4204              		.loc 2 411 5 view .LVU1372
 411:lvgl/src/widgets/../core/lv_obj_style_gen.h ****     return (lv_coord_t)v.num;
 4205              		.loc 2 411 26 is_stmt 0 view .LVU1373
 4206 0404 5022     		movs	r2, #80
 4207 0406 0021     		movs	r1, #0
 4208 0408 3046     		mov	r0, r6
 4209 040a FFF7FEFF 		bl	lv_obj_get_style_prop
 4210              	.LVL497:
 412:lvgl/src/widgets/../core/lv_obj_style_gen.h **** }
 4211              		.loc 2 412 5 is_stmt 1 view .LVU1374
 412:lvgl/src/widgets/../core/lv_obj_style_gen.h **** }
 4212              		.loc 2 412 5 is_stmt 0 view .LVU1375
 4213              	.LBE142:
 4214              	.LBE141:
 606:lvgl/src/widgets/lv_arc.c **** 
 4215              		.loc 1 606 9 is_stmt 1 view .LVU1376
 606:lvgl/src/widgets/lv_arc.c **** 
 4216              		.loc 1 606 16 is_stmt 0 view .LVU1377
 4217 040e 85B2     		uxth	r5, r0
 4218              	.LVL498:
 606:lvgl/src/widgets/lv_arc.c **** 
 4219              		.loc 1 606 16 view .LVU1378
 4220 0410 A6B2     		uxth	r6, r4
 4221              	.LVL499:
 606:lvgl/src/widgets/lv_arc.c **** 
 4222              		.loc 1 606 16 view .LVU1379
 4223 0412 AC19     		adds	r4, r5, r6
 4224              	.LVL500:
 606:lvgl/src/widgets/lv_arc.c **** 
 4225              		.loc 1 606 16 view .LVU1380
 4226 0414 A3B2     		uxth	r3, r4
 606:lvgl/src/widgets/lv_arc.c **** 
 4227              		.loc 1 606 11 view .LVU1381
 4228 0416 BDF80A40 		ldrh	r4, [sp, #10]
 4229 041a E41A     		subs	r4, r4, r3
 4230 041c A4B2     		uxth	r4, r4
 4231 041e ADF80A40 		strh	r4, [sp, #10]	@ movhi
 608:lvgl/src/widgets/lv_arc.c ****         /*Invalid if clicked inside*/
 4232              		.loc 1 608 9 is_stmt 1 view .LVU1382
 610:lvgl/src/widgets/lv_arc.c ****         if(_lv_area_is_point_on(&a, info->point, LV_RADIUS_CIRCLE)) {
 4233              		.loc 1 610 9 view .LVU1383
 610:lvgl/src/widgets/lv_arc.c ****         if(_lv_area_is_point_on(&a, info->point, LV_RADIUS_CIRCLE)) {
 4234              		.loc 1 610 26 is_stmt 0 view .LVU1384
 4235 0422 BDF80C30 		ldrh	r3, [sp, #12]
 610:lvgl/src/widgets/lv_arc.c ****         if(_lv_area_is_point_on(&a, info->point, LV_RADIUS_CIRCLE)) {
 4236              		.loc 1 610 29 view .LVU1385
 4237 0426 191B     		subs	r1, r3, r4
 610:lvgl/src/widgets/lv_arc.c ****         if(_lv_area_is_point_on(&a, info->point, LV_RADIUS_CIRCLE)) {
 4238              		.loc 1 610 35 view .LVU1386
 4239 0428 BDF80E00 		ldrh	r0, [sp, #14]
 4240              	.LVL501:
 610:lvgl/src/widgets/lv_arc.c ****         if(_lv_area_is_point_on(&a, info->point, LV_RADIUS_CIRCLE)) {
 4241              		.loc 1 610 38 view .LVU1387
 4242 042c 021B     		subs	r2, r0, r4
 610:lvgl/src/widgets/lv_arc.c ****         if(_lv_area_is_point_on(&a, info->point, LV_RADIUS_CIRCLE)) {
 4243              		.loc 1 610 47 view .LVU1388
ARM GAS  C:\Users\OSD\AppData\Local\Temp\ccR88enE.s 			page 122


 4244 042e 2344     		add	r3, r3, r4
 610:lvgl/src/widgets/lv_arc.c ****         if(_lv_area_is_point_on(&a, info->point, LV_RADIUS_CIRCLE)) {
 4245              		.loc 1 610 56 view .LVU1389
 4246 0430 0444     		add	r4, r4, r0
 610:lvgl/src/widgets/lv_arc.c ****         if(_lv_area_is_point_on(&a, info->point, LV_RADIUS_CIRCLE)) {
 4247              		.loc 1 610 9 view .LVU1390
 4248 0432 24B2     		sxth	r4, r4
 4249 0434 0094     		str	r4, [sp]
 4250 0436 1BB2     		sxth	r3, r3
 4251 0438 12B2     		sxth	r2, r2
 4252 043a 09B2     		sxth	r1, r1
 4253 043c 04A8     		add	r0, sp, #16
 4254 043e FFF7FEFF 		bl	lv_area_set
 4255              	.LVL502:
 611:lvgl/src/widgets/lv_arc.c ****             info->res = false;
 4256              		.loc 1 611 9 is_stmt 1 view .LVU1391
 611:lvgl/src/widgets/lv_arc.c ****             info->res = false;
 4257              		.loc 1 611 12 is_stmt 0 view .LVU1392
 4258 0442 47F6FF72 		movw	r2, #32767
 4259 0446 3968     		ldr	r1, [r7]
 4260 0448 04A8     		add	r0, sp, #16
 4261 044a FFF7FEFF 		bl	_lv_area_is_point_on
 4262              	.LVL503:
 611:lvgl/src/widgets/lv_arc.c ****             info->res = false;
 4263              		.loc 1 611 11 view .LVU1393
 4264 044e 20B1     		cbz	r0, .L203
 612:lvgl/src/widgets/lv_arc.c ****             return;
 4265              		.loc 1 612 13 is_stmt 1 view .LVU1394
 612:lvgl/src/widgets/lv_arc.c ****             return;
 4266              		.loc 1 612 23 is_stmt 0 view .LVU1395
 4267 0450 0023     		movs	r3, #0
 4268 0452 3B71     		strb	r3, [r7, #4]
 613:lvgl/src/widgets/lv_arc.c ****         }
 4269              		.loc 1 613 13 is_stmt 1 view .LVU1396
 4270 0454 DDE5     		b	.L175
 4271              	.LVL504:
 4272              	.L210:
 602:lvgl/src/widgets/lv_arc.c ****         if(obj->spec_attr) ext_click_area = obj->spec_attr->ext_click_pad;
 4273              		.loc 1 602 20 is_stmt 0 view .LVU1397
 4274 0456 0024     		movs	r4, #0
 4275              	.LVL505:
 602:lvgl/src/widgets/lv_arc.c ****         if(obj->spec_attr) ext_click_area = obj->spec_attr->ext_click_pad;
 4276              		.loc 1 602 20 view .LVU1398
 4277 0458 D4E7     		b	.L202
 4278              	.LVL506:
 4279              	.L203:
 617:lvgl/src/widgets/lv_arc.c ****         info->res = _lv_area_is_point_on(&a, info->point, LV_RADIUS_CIRCLE);
 4280              		.loc 1 617 9 is_stmt 1 view .LVU1399
 617:lvgl/src/widgets/lv_arc.c ****         info->res = _lv_area_is_point_on(&a, info->point, LV_RADIUS_CIRCLE);
 4281              		.loc 1 617 49 is_stmt 0 view .LVU1400
 4282 045a 7100     		lsls	r1, r6, #1
 4283 045c 89B2     		uxth	r1, r1
 617:lvgl/src/widgets/lv_arc.c ****         info->res = _lv_area_is_point_on(&a, info->point, LV_RADIUS_CIRCLE);
 4284              		.loc 1 617 32 view .LVU1401
 4285 045e 2944     		add	r1, r1, r5
 617:lvgl/src/widgets/lv_arc.c ****         info->res = _lv_area_is_point_on(&a, info->point, LV_RADIUS_CIRCLE);
 4286              		.loc 1 617 9 view .LVU1402
ARM GAS  C:\Users\OSD\AppData\Local\Temp\ccR88enE.s 			page 123


 4287 0460 09B2     		sxth	r1, r1
 4288 0462 0A46     		mov	r2, r1
 4289 0464 04A8     		add	r0, sp, #16
 4290 0466 FFF7FEFF 		bl	lv_area_increase
 4291              	.LVL507:
 618:lvgl/src/widgets/lv_arc.c ****     }
 4292              		.loc 1 618 9 is_stmt 1 view .LVU1403
 618:lvgl/src/widgets/lv_arc.c ****     }
 4293              		.loc 1 618 21 is_stmt 0 view .LVU1404
 4294 046a 47F6FF72 		movw	r2, #32767
 4295 046e 3968     		ldr	r1, [r7]
 4296 0470 04A8     		add	r0, sp, #16
 4297 0472 FFF7FEFF 		bl	_lv_area_is_point_on
 4298              	.LVL508:
 618:lvgl/src/widgets/lv_arc.c ****     }
 4299              		.loc 1 618 19 view .LVU1405
 4300 0476 3871     		strb	r0, [r7, #4]
 4301              	.LBE140:
 4302 0478 CBE5     		b	.L175
 4303              	.LVL509:
 4304              	.L217:
 4305              	.LBB143:
 621:lvgl/src/widgets/lv_arc.c ****         lv_coord_t bg_right = lv_obj_get_style_pad_right(obj, LV_PART_MAIN);
 4306              		.loc 1 621 9 is_stmt 1 view .LVU1406
 4307              	.LBB144:
 4308              	.LBI144:
 115:lvgl/src/widgets/../core/lv_obj_style_gen.h **** {
 4309              		.loc 2 115 26 view .LVU1407
 4310              	.LBB145:
 117:lvgl/src/widgets/../core/lv_obj_style_gen.h ****     return (lv_coord_t)v.num;
 4311              		.loc 2 117 5 view .LVU1408
 117:lvgl/src/widgets/../core/lv_obj_style_gen.h ****     return (lv_coord_t)v.num;
 4312              		.loc 2 117 26 is_stmt 0 view .LVU1409
 4313 047a 1222     		movs	r2, #18
 4314 047c 0021     		movs	r1, #0
 4315 047e 3046     		mov	r0, r6
 4316              	.LVL510:
 117:lvgl/src/widgets/../core/lv_obj_style_gen.h ****     return (lv_coord_t)v.num;
 4317              		.loc 2 117 26 view .LVU1410
 4318 0480 FFF7FEFF 		bl	lv_obj_get_style_prop
 4319              	.LVL511:
 118:lvgl/src/widgets/../core/lv_obj_style_gen.h **** }
 4320              		.loc 2 118 5 is_stmt 1 view .LVU1411
 118:lvgl/src/widgets/../core/lv_obj_style_gen.h **** }
 4321              		.loc 2 118 12 is_stmt 0 view .LVU1412
 4322 0484 07B2     		sxth	r7, r0
 4323              	.LVL512:
 118:lvgl/src/widgets/../core/lv_obj_style_gen.h **** }
 4324              		.loc 2 118 12 view .LVU1413
 4325              	.LBE145:
 4326              	.LBE144:
 622:lvgl/src/widgets/lv_arc.c ****         lv_coord_t bg_top = lv_obj_get_style_pad_top(obj, LV_PART_MAIN);
 4327              		.loc 1 622 9 is_stmt 1 view .LVU1414
 4328              	.LBB146:
 4329              	.LBI146:
 121:lvgl/src/widgets/../core/lv_obj_style_gen.h **** {
 4330              		.loc 2 121 26 view .LVU1415
ARM GAS  C:\Users\OSD\AppData\Local\Temp\ccR88enE.s 			page 124


 4331              	.LBB147:
 123:lvgl/src/widgets/../core/lv_obj_style_gen.h ****     return (lv_coord_t)v.num;
 4332              		.loc 2 123 5 view .LVU1416
 123:lvgl/src/widgets/../core/lv_obj_style_gen.h ****     return (lv_coord_t)v.num;
 4333              		.loc 2 123 26 is_stmt 0 view .LVU1417
 4334 0486 1322     		movs	r2, #19
 4335 0488 0021     		movs	r1, #0
 4336 048a 3046     		mov	r0, r6
 4337 048c FFF7FEFF 		bl	lv_obj_get_style_prop
 4338              	.LVL513:
 124:lvgl/src/widgets/../core/lv_obj_style_gen.h **** }
 4339              		.loc 2 124 5 is_stmt 1 view .LVU1418
 124:lvgl/src/widgets/../core/lv_obj_style_gen.h **** }
 4340              		.loc 2 124 12 is_stmt 0 view .LVU1419
 4341 0490 0FFA80F8 		sxth	r8, r0
 4342              	.LVL514:
 124:lvgl/src/widgets/../core/lv_obj_style_gen.h **** }
 4343              		.loc 2 124 12 view .LVU1420
 4344              	.LBE147:
 4345              	.LBE146:
 623:lvgl/src/widgets/lv_arc.c ****         lv_coord_t bg_bottom = lv_obj_get_style_pad_bottom(obj, LV_PART_MAIN);
 4346              		.loc 1 623 9 is_stmt 1 view .LVU1421
 4347              	.LBB148:
 4348              	.LBI148:
 103:lvgl/src/widgets/../core/lv_obj_style_gen.h **** {
 4349              		.loc 2 103 26 view .LVU1422
 4350              	.LBB149:
 105:lvgl/src/widgets/../core/lv_obj_style_gen.h ****     return (lv_coord_t)v.num;
 4351              		.loc 2 105 5 view .LVU1423
 105:lvgl/src/widgets/../core/lv_obj_style_gen.h ****     return (lv_coord_t)v.num;
 4352              		.loc 2 105 26 is_stmt 0 view .LVU1424
 4353 0494 1022     		movs	r2, #16
 4354 0496 0021     		movs	r1, #0
 4355 0498 3046     		mov	r0, r6
 4356 049a FFF7FEFF 		bl	lv_obj_get_style_prop
 4357              	.LVL515:
 106:lvgl/src/widgets/../core/lv_obj_style_gen.h **** }
 4358              		.loc 2 106 5 is_stmt 1 view .LVU1425
 106:lvgl/src/widgets/../core/lv_obj_style_gen.h **** }
 4359              		.loc 2 106 12 is_stmt 0 view .LVU1426
 4360 049e 0FFA80F9 		sxth	r9, r0
 4361              	.LVL516:
 106:lvgl/src/widgets/../core/lv_obj_style_gen.h **** }
 4362              		.loc 2 106 12 view .LVU1427
 4363              	.LBE149:
 4364              	.LBE148:
 624:lvgl/src/widgets/lv_arc.c ****         lv_coord_t bg_pad = LV_MAX4(bg_left, bg_right, bg_top, bg_bottom);
 4365              		.loc 1 624 9 is_stmt 1 view .LVU1428
 4366              	.LBB150:
 4367              	.LBI150:
 109:lvgl/src/widgets/../core/lv_obj_style_gen.h **** {
 4368              		.loc 2 109 26 view .LVU1429
 4369              	.LBB151:
 111:lvgl/src/widgets/../core/lv_obj_style_gen.h ****     return (lv_coord_t)v.num;
 4370              		.loc 2 111 5 view .LVU1430
 111:lvgl/src/widgets/../core/lv_obj_style_gen.h ****     return (lv_coord_t)v.num;
 4371              		.loc 2 111 26 is_stmt 0 view .LVU1431
ARM GAS  C:\Users\OSD\AppData\Local\Temp\ccR88enE.s 			page 125


 4372 04a2 1122     		movs	r2, #17
 4373 04a4 0021     		movs	r1, #0
 4374 04a6 3046     		mov	r0, r6
 4375 04a8 FFF7FEFF 		bl	lv_obj_get_style_prop
 4376              	.LVL517:
 112:lvgl/src/widgets/../core/lv_obj_style_gen.h **** }
 4377              		.loc 2 112 5 is_stmt 1 view .LVU1432
 112:lvgl/src/widgets/../core/lv_obj_style_gen.h **** }
 4378              		.loc 2 112 12 is_stmt 0 view .LVU1433
 4379 04ac 05B2     		sxth	r5, r0
 4380              	.LVL518:
 112:lvgl/src/widgets/../core/lv_obj_style_gen.h **** }
 4381              		.loc 2 112 12 view .LVU1434
 4382              	.LBE151:
 4383              	.LBE150:
 625:lvgl/src/widgets/lv_arc.c **** 
 4384              		.loc 1 625 9 is_stmt 1 view .LVU1435
 625:lvgl/src/widgets/lv_arc.c **** 
 4385              		.loc 1 625 29 is_stmt 0 view .LVU1436
 4386 04ae 4D45     		cmp	r5, r9
 4387 04b0 B8BF     		it	lt
 4388 04b2 4D46     		movlt	r5, r9
 4389              	.LVL519:
 625:lvgl/src/widgets/lv_arc.c **** 
 4390              		.loc 1 625 29 view .LVU1437
 4391 04b4 4745     		cmp	r7, r8
 4392 04b6 B8BF     		it	lt
 4393 04b8 4746     		movlt	r7, r8
 4394              	.LVL520:
 625:lvgl/src/widgets/lv_arc.c **** 
 4395              		.loc 1 625 20 view .LVU1438
 4396 04ba AF42     		cmp	r7, r5
 4397 04bc B8BF     		it	lt
 4398 04be 2F46     		movlt	r7, r5
 4399              	.LVL521:
 627:lvgl/src/widgets/lv_arc.c ****         lv_coord_t knob_right = lv_obj_get_style_pad_right(obj, LV_PART_KNOB);
 4400              		.loc 1 627 9 is_stmt 1 view .LVU1439
 4401              	.LBB152:
 4402              	.LBI152:
 115:lvgl/src/widgets/../core/lv_obj_style_gen.h **** {
 4403              		.loc 2 115 26 view .LVU1440
 4404              	.LBB153:
 117:lvgl/src/widgets/../core/lv_obj_style_gen.h ****     return (lv_coord_t)v.num;
 4405              		.loc 2 117 5 view .LVU1441
 117:lvgl/src/widgets/../core/lv_obj_style_gen.h ****     return (lv_coord_t)v.num;
 4406              		.loc 2 117 26 is_stmt 0 view .LVU1442
 4407 04c0 1222     		movs	r2, #18
 4408 04c2 4FF44031 		mov	r1, #196608
 4409 04c6 3046     		mov	r0, r6
 4410              	.LVL522:
 117:lvgl/src/widgets/../core/lv_obj_style_gen.h ****     return (lv_coord_t)v.num;
 4411              		.loc 2 117 26 view .LVU1443
 4412 04c8 FFF7FEFF 		bl	lv_obj_get_style_prop
 4413              	.LVL523:
 118:lvgl/src/widgets/../core/lv_obj_style_gen.h **** }
 4414              		.loc 2 118 5 is_stmt 1 view .LVU1444
 118:lvgl/src/widgets/../core/lv_obj_style_gen.h **** }
ARM GAS  C:\Users\OSD\AppData\Local\Temp\ccR88enE.s 			page 126


 4415              		.loc 2 118 12 is_stmt 0 view .LVU1445
 4416 04cc 0FFA80F9 		sxth	r9, r0
 4417              	.LVL524:
 118:lvgl/src/widgets/../core/lv_obj_style_gen.h **** }
 4418              		.loc 2 118 12 view .LVU1446
 4419              	.LBE153:
 4420              	.LBE152:
 628:lvgl/src/widgets/lv_arc.c ****         lv_coord_t knob_top = lv_obj_get_style_pad_top(obj, LV_PART_KNOB);
 4421              		.loc 1 628 9 is_stmt 1 view .LVU1447
 4422              	.LBB154:
 4423              	.LBI154:
 121:lvgl/src/widgets/../core/lv_obj_style_gen.h **** {
 4424              		.loc 2 121 26 view .LVU1448
 4425              	.LBB155:
 123:lvgl/src/widgets/../core/lv_obj_style_gen.h ****     return (lv_coord_t)v.num;
 4426              		.loc 2 123 5 view .LVU1449
 123:lvgl/src/widgets/../core/lv_obj_style_gen.h ****     return (lv_coord_t)v.num;
 4427              		.loc 2 123 26 is_stmt 0 view .LVU1450
 4428 04d0 1322     		movs	r2, #19
 4429 04d2 4FF44031 		mov	r1, #196608
 4430 04d6 3046     		mov	r0, r6
 4431 04d8 FFF7FEFF 		bl	lv_obj_get_style_prop
 4432              	.LVL525:
 124:lvgl/src/widgets/../core/lv_obj_style_gen.h **** }
 4433              		.loc 2 124 5 is_stmt 1 view .LVU1451
 124:lvgl/src/widgets/../core/lv_obj_style_gen.h **** }
 4434              		.loc 2 124 12 is_stmt 0 view .LVU1452
 4435 04dc 0FFA80F8 		sxth	r8, r0
 4436              	.LVL526:
 124:lvgl/src/widgets/../core/lv_obj_style_gen.h **** }
 4437              		.loc 2 124 12 view .LVU1453
 4438              	.LBE155:
 4439              	.LBE154:
 629:lvgl/src/widgets/lv_arc.c ****         lv_coord_t knob_bottom = lv_obj_get_style_pad_bottom(obj, LV_PART_KNOB);
 4440              		.loc 1 629 9 is_stmt 1 view .LVU1454
 4441              	.LBB156:
 4442              	.LBI156:
 103:lvgl/src/widgets/../core/lv_obj_style_gen.h **** {
 4443              		.loc 2 103 26 view .LVU1455
 4444              	.LBB157:
 105:lvgl/src/widgets/../core/lv_obj_style_gen.h ****     return (lv_coord_t)v.num;
 4445              		.loc 2 105 5 view .LVU1456
 105:lvgl/src/widgets/../core/lv_obj_style_gen.h ****     return (lv_coord_t)v.num;
 4446              		.loc 2 105 26 is_stmt 0 view .LVU1457
 4447 04e0 1022     		movs	r2, #16
 4448 04e2 4FF44031 		mov	r1, #196608
 4449 04e6 3046     		mov	r0, r6
 4450 04e8 FFF7FEFF 		bl	lv_obj_get_style_prop
 4451              	.LVL527:
 106:lvgl/src/widgets/../core/lv_obj_style_gen.h **** }
 4452              		.loc 2 106 5 is_stmt 1 view .LVU1458
 106:lvgl/src/widgets/../core/lv_obj_style_gen.h **** }
 4453              		.loc 2 106 12 is_stmt 0 view .LVU1459
 4454 04ec 0FFA80FA 		sxth	r10, r0
 4455              	.LVL528:
 106:lvgl/src/widgets/../core/lv_obj_style_gen.h **** }
 4456              		.loc 2 106 12 view .LVU1460
ARM GAS  C:\Users\OSD\AppData\Local\Temp\ccR88enE.s 			page 127


 4457              	.LBE157:
 4458              	.LBE156:
 630:lvgl/src/widgets/lv_arc.c ****         lv_coord_t knob_pad = LV_MAX4(knob_left, knob_right, knob_top, knob_bottom) + 2;
 4459              		.loc 1 630 9 is_stmt 1 view .LVU1461
 4460              	.LBB158:
 4461              	.LBI158:
 109:lvgl/src/widgets/../core/lv_obj_style_gen.h **** {
 4462              		.loc 2 109 26 view .LVU1462
 4463              	.LBB159:
 111:lvgl/src/widgets/../core/lv_obj_style_gen.h ****     return (lv_coord_t)v.num;
 4464              		.loc 2 111 5 view .LVU1463
 111:lvgl/src/widgets/../core/lv_obj_style_gen.h ****     return (lv_coord_t)v.num;
 4465              		.loc 2 111 26 is_stmt 0 view .LVU1464
 4466 04f0 1122     		movs	r2, #17
 4467 04f2 4FF44031 		mov	r1, #196608
 4468 04f6 3046     		mov	r0, r6
 4469 04f8 FFF7FEFF 		bl	lv_obj_get_style_prop
 4470              	.LVL529:
 112:lvgl/src/widgets/../core/lv_obj_style_gen.h **** }
 4471              		.loc 2 112 5 is_stmt 1 view .LVU1465
 112:lvgl/src/widgets/../core/lv_obj_style_gen.h **** }
 4472              		.loc 2 112 12 is_stmt 0 view .LVU1466
 4473 04fc 05B2     		sxth	r5, r0
 4474              	.LVL530:
 112:lvgl/src/widgets/../core/lv_obj_style_gen.h **** }
 4475              		.loc 2 112 12 view .LVU1467
 4476              	.LBE159:
 4477              	.LBE158:
 631:lvgl/src/widgets/lv_arc.c **** 
 4478              		.loc 1 631 9 is_stmt 1 view .LVU1468
 631:lvgl/src/widgets/lv_arc.c **** 
 4479              		.loc 1 631 31 is_stmt 0 view .LVU1469
 4480 04fe 5545     		cmp	r5, r10
 4481 0500 B8BF     		it	lt
 4482 0502 5546     		movlt	r5, r10
 4483              	.LVL531:
 631:lvgl/src/widgets/lv_arc.c **** 
 4484              		.loc 1 631 31 view .LVU1470
 4485 0504 C845     		cmp	r8, r9
 4486 0506 B8BF     		it	lt
 4487 0508 C846     		movlt	r8, r9
 4488              	.LVL532:
 631:lvgl/src/widgets/lv_arc.c **** 
 4489              		.loc 1 631 31 view .LVU1471
 4490 050a 4545     		cmp	r5, r8
 4491 050c B8BF     		it	lt
 4492 050e 4546     		movlt	r5, r8
 4493 0510 ADB2     		uxth	r5, r5
 631:lvgl/src/widgets/lv_arc.c **** 
 4494              		.loc 1 631 85 view .LVU1472
 4495 0512 0235     		adds	r5, r5, #2
 4496 0514 ADB2     		uxth	r5, r5
 4497              	.LVL533:
 633:lvgl/src/widgets/lv_arc.c ****         knob_extra_size += knob_get_extra_size(obj);
 4498              		.loc 1 633 9 is_stmt 1 view .LVU1473
 633:lvgl/src/widgets/lv_arc.c ****         knob_extra_size += knob_get_extra_size(obj);
 4499              		.loc 1 633 47 is_stmt 0 view .LVU1474
ARM GAS  C:\Users\OSD\AppData\Local\Temp\ccR88enE.s 			page 128


 4500 0516 ED1B     		subs	r5, r5, r7
 4501              	.LVL534:
 633:lvgl/src/widgets/lv_arc.c ****         knob_extra_size += knob_get_extra_size(obj);
 4502              		.loc 1 633 47 view .LVU1475
 4503 0518 ADB2     		uxth	r5, r5
 4504              	.LVL535:
 634:lvgl/src/widgets/lv_arc.c **** 
 4505              		.loc 1 634 9 is_stmt 1 view .LVU1476
 634:lvgl/src/widgets/lv_arc.c **** 
 4506              		.loc 1 634 28 is_stmt 0 view .LVU1477
 4507 051a 3046     		mov	r0, r6
 4508              	.LVL536:
 634:lvgl/src/widgets/lv_arc.c **** 
 4509              		.loc 1 634 28 view .LVU1478
 4510 051c FFF7FEFF 		bl	knob_get_extra_size
 4511              	.LVL537:
 634:lvgl/src/widgets/lv_arc.c **** 
 4512              		.loc 1 634 25 view .LVU1479
 4513 0520 15FA80F5 		uxtah	r5, r5, r0
 4514              	.LVL538:
 634:lvgl/src/widgets/lv_arc.c **** 
 4515              		.loc 1 634 25 view .LVU1480
 4516 0524 2DB2     		sxth	r5, r5
 4517              	.LVL539:
 636:lvgl/src/widgets/lv_arc.c ****         *s = LV_MAX(*s, knob_extra_size);
 4518              		.loc 1 636 9 is_stmt 1 view .LVU1481
 636:lvgl/src/widgets/lv_arc.c ****         *s = LV_MAX(*s, knob_extra_size);
 4519              		.loc 1 636 26 is_stmt 0 view .LVU1482
 4520 0526 2046     		mov	r0, r4
 4521 0528 FFF7FEFF 		bl	lv_event_get_param
 4522              	.LVL540:
 637:lvgl/src/widgets/lv_arc.c ****     }
 4523              		.loc 1 637 9 is_stmt 1 view .LVU1483
 637:lvgl/src/widgets/lv_arc.c ****     }
 4524              		.loc 1 637 14 is_stmt 0 view .LVU1484
 4525 052c B0F90030 		ldrsh	r3, [r0]
 4526 0530 9D42     		cmp	r5, r3
 4527 0532 B8BF     		it	lt
 4528 0534 1D46     		movlt	r5, r3
 4529              	.LVL541:
 637:lvgl/src/widgets/lv_arc.c ****     }
 4530              		.loc 1 637 12 view .LVU1485
 4531 0536 0580     		strh	r5, [r0]	@ movhi
 4532              	.LBE143:
 4533 0538 6BE5     		b	.L175
 4534              		.cfi_endproc
 4535              	.LFE184:
 4537 053a 00BF     		.section	.text.lv_arc_get_min_value,"ax",%progbits
 4538              		.align	1
 4539              		.global	lv_arc_get_min_value
 4540              		.syntax unified
 4541              		.thumb
 4542              		.thumb_func
 4544              	lv_arc_get_min_value:
 4545              	.LVL542:
 4546              	.LFB178:
 310:lvgl/src/widgets/lv_arc.c ****     LV_ASSERT_OBJ(obj, MY_CLASS);
ARM GAS  C:\Users\OSD\AppData\Local\Temp\ccR88enE.s 			page 129


 4547              		.loc 1 310 1 is_stmt 1 view -0
 4548              		.cfi_startproc
 4549              		@ args = 0, pretend = 0, frame = 0
 4550              		@ frame_needed = 0, uses_anonymous_args = 0
 4551              		@ link register save eliminated.
 311:lvgl/src/widgets/lv_arc.c ****     return ((lv_arc_t *) obj)->min_value;
 4552              		.loc 1 311 5 view .LVU1487
 311:lvgl/src/widgets/lv_arc.c ****     return ((lv_arc_t *) obj)->min_value;
 4553              		.loc 1 311 5 view .LVU1488
 311:lvgl/src/widgets/lv_arc.c ****     return ((lv_arc_t *) obj)->min_value;
 4554              		.loc 1 311 5 view .LVU1489
 312:lvgl/src/widgets/lv_arc.c **** }
 4555              		.loc 1 312 5 view .LVU1490
 313:lvgl/src/widgets/lv_arc.c **** 
 4556              		.loc 1 313 1 is_stmt 0 view .LVU1491
 4557 0000 B0F93000 		ldrsh	r0, [r0, #48]
 4558              	.LVL543:
 313:lvgl/src/widgets/lv_arc.c **** 
 4559              		.loc 1 313 1 view .LVU1492
 4560 0004 7047     		bx	lr
 4561              		.cfi_endproc
 4562              	.LFE178:
 4564              		.section	.text.lv_arc_get_max_value,"ax",%progbits
 4565              		.align	1
 4566              		.global	lv_arc_get_max_value
 4567              		.syntax unified
 4568              		.thumb
 4569              		.thumb_func
 4571              	lv_arc_get_max_value:
 4572              	.LVL544:
 4573              	.LFB179:
 316:lvgl/src/widgets/lv_arc.c ****     LV_ASSERT_OBJ(obj, MY_CLASS);
 4574              		.loc 1 316 1 is_stmt 1 view -0
 4575              		.cfi_startproc
 4576              		@ args = 0, pretend = 0, frame = 0
 4577              		@ frame_needed = 0, uses_anonymous_args = 0
 4578              		@ link register save eliminated.
 317:lvgl/src/widgets/lv_arc.c ****     return ((lv_arc_t *) obj)->max_value;
 4579              		.loc 1 317 5 view .LVU1494
 317:lvgl/src/widgets/lv_arc.c ****     return ((lv_arc_t *) obj)->max_value;
 4580              		.loc 1 317 5 view .LVU1495
 317:lvgl/src/widgets/lv_arc.c ****     return ((lv_arc_t *) obj)->max_value;
 4581              		.loc 1 317 5 view .LVU1496
 318:lvgl/src/widgets/lv_arc.c **** }
 4582              		.loc 1 318 5 view .LVU1497
 319:lvgl/src/widgets/lv_arc.c **** 
 4583              		.loc 1 319 1 is_stmt 0 view .LVU1498
 4584 0000 B0F93200 		ldrsh	r0, [r0, #50]
 4585              	.LVL545:
 319:lvgl/src/widgets/lv_arc.c **** 
 4586              		.loc 1 319 1 view .LVU1499
 4587 0004 7047     		bx	lr
 4588              		.cfi_endproc
 4589              	.LFE179:
 4591              		.section	.text.lv_arc_get_mode,"ax",%progbits
 4592              		.align	1
 4593              		.global	lv_arc_get_mode
ARM GAS  C:\Users\OSD\AppData\Local\Temp\ccR88enE.s 			page 130


 4594              		.syntax unified
 4595              		.thumb
 4596              		.thumb_func
 4598              	lv_arc_get_mode:
 4599              	.LVL546:
 4600              	.LFB180:
 322:lvgl/src/widgets/lv_arc.c ****     LV_ASSERT_OBJ(obj, MY_CLASS);
 4601              		.loc 1 322 1 is_stmt 1 view -0
 4602              		.cfi_startproc
 4603              		@ args = 0, pretend = 0, frame = 0
 4604              		@ frame_needed = 0, uses_anonymous_args = 0
 4605              		@ link register save eliminated.
 323:lvgl/src/widgets/lv_arc.c ****     return ((lv_arc_t *) obj)->type;
 4606              		.loc 1 323 5 view .LVU1501
 323:lvgl/src/widgets/lv_arc.c ****     return ((lv_arc_t *) obj)->type;
 4607              		.loc 1 323 5 view .LVU1502
 323:lvgl/src/widgets/lv_arc.c ****     return ((lv_arc_t *) obj)->type;
 4608              		.loc 1 323 5 view .LVU1503
 324:lvgl/src/widgets/lv_arc.c **** }
 4609              		.loc 1 324 5 view .LVU1504
 324:lvgl/src/widgets/lv_arc.c **** }
 4610              		.loc 1 324 30 is_stmt 0 view .LVU1505
 4611 0000 90F83400 		ldrb	r0, [r0, #52]	@ zero_extendqisi2
 4612              	.LVL547:
 325:lvgl/src/widgets/lv_arc.c **** 
 4613              		.loc 1 325 1 view .LVU1506
 4614 0004 C0F34100 		ubfx	r0, r0, #1, #2
 4615 0008 7047     		bx	lr
 4616              		.cfi_endproc
 4617              	.LFE180:
 4619              		.section	.text.lv_arc_align_obj_to_angle,"ax",%progbits
 4620              		.align	1
 4621              		.global	lv_arc_align_obj_to_angle
 4622              		.syntax unified
 4623              		.thumb
 4624              		.thumb_func
 4626              	lv_arc_align_obj_to_angle:
 4627              	.LVL548:
 4628              	.LFB181:
 332:lvgl/src/widgets/lv_arc.c ****     LV_ASSERT_OBJ(obj, MY_CLASS);
 4629              		.loc 1 332 1 is_stmt 1 view -0
 4630              		.cfi_startproc
 4631              		@ args = 0, pretend = 0, frame = 8
 4632              		@ frame_needed = 0, uses_anonymous_args = 0
 333:lvgl/src/widgets/lv_arc.c ****     LV_ASSERT_NULL(obj_to_align);
 4633              		.loc 1 333 5 view .LVU1508
 333:lvgl/src/widgets/lv_arc.c ****     LV_ASSERT_NULL(obj_to_align);
 4634              		.loc 1 333 5 view .LVU1509
 333:lvgl/src/widgets/lv_arc.c ****     LV_ASSERT_NULL(obj_to_align);
 4635              		.loc 1 333 5 view .LVU1510
 334:lvgl/src/widgets/lv_arc.c **** 
 4636              		.loc 1 334 5 view .LVU1511
 334:lvgl/src/widgets/lv_arc.c **** 
 4637              		.loc 1 334 5 view .LVU1512
 4638 0000 0029     		cmp	r1, #0
 4639 0002 41D0     		beq	.L235
 332:lvgl/src/widgets/lv_arc.c ****     LV_ASSERT_OBJ(obj, MY_CLASS);
ARM GAS  C:\Users\OSD\AppData\Local\Temp\ccR88enE.s 			page 131


 4640              		.loc 1 332 1 is_stmt 0 discriminator 2 view .LVU1513
 4641 0004 2DE9F041 		push	{r4, r5, r6, r7, r8, lr}
 4642              		.cfi_def_cfa_offset 24
 4643              		.cfi_offset 4, -24
 4644              		.cfi_offset 5, -20
 4645              		.cfi_offset 6, -16
 4646              		.cfi_offset 7, -12
 4647              		.cfi_offset 8, -8
 4648              		.cfi_offset 14, -4
 4649 0008 84B0     		sub	sp, sp, #16
 4650              		.cfi_def_cfa_offset 40
 4651 000a 0546     		mov	r5, r0
 4652 000c 1446     		mov	r4, r2
 4653 000e 0E46     		mov	r6, r1
 334:lvgl/src/widgets/lv_arc.c **** 
 4654              		.loc 1 334 5 is_stmt 1 discriminator 2 view .LVU1514
 334:lvgl/src/widgets/lv_arc.c **** 
 4655              		.loc 1 334 33 discriminator 2 view .LVU1515
 336:lvgl/src/widgets/lv_arc.c **** 
 4656              		.loc 1 336 5 discriminator 2 view .LVU1516
 4657 0010 FFF7FEFF 		bl	lv_obj_update_layout
 4658              	.LVL549:
 338:lvgl/src/widgets/lv_arc.c ****     lv_coord_t arc_r;
 4659              		.loc 1 338 5 discriminator 2 view .LVU1517
 339:lvgl/src/widgets/lv_arc.c ****     get_center(obj, &center, &arc_r);
 4660              		.loc 1 339 5 discriminator 2 view .LVU1518
 340:lvgl/src/widgets/lv_arc.c ****     lv_coord_t indic_width = lv_obj_get_style_arc_width(obj, LV_PART_INDICATOR);
 4661              		.loc 1 340 5 discriminator 2 view .LVU1519
 4662 0014 0DF10A02 		add	r2, sp, #10
 4663 0018 03A9     		add	r1, sp, #12
 4664 001a 2846     		mov	r0, r5
 4665 001c FFF7FEFF 		bl	get_center
 4666              	.LVL550:
 341:lvgl/src/widgets/lv_arc.c ****     lv_coord_t indic_width_half = indic_width / 2;
 4667              		.loc 1 341 5 discriminator 2 view .LVU1520
 4668              	.LBB160:
 4669              	.LBI160:
 409:lvgl/src/widgets/../core/lv_obj_style_gen.h **** {
 4670              		.loc 2 409 26 discriminator 2 view .LVU1521
 4671              	.LBB161:
 411:lvgl/src/widgets/../core/lv_obj_style_gen.h ****     return (lv_coord_t)v.num;
 4672              		.loc 2 411 5 discriminator 2 view .LVU1522
 411:lvgl/src/widgets/../core/lv_obj_style_gen.h ****     return (lv_coord_t)v.num;
 4673              		.loc 2 411 26 is_stmt 0 discriminator 2 view .LVU1523
 4674 0020 5022     		movs	r2, #80
 4675 0022 4FF40031 		mov	r1, #131072
 4676 0026 2846     		mov	r0, r5
 4677 0028 FFF7FEFF 		bl	lv_obj_get_style_prop
 4678              	.LVL551:
 412:lvgl/src/widgets/../core/lv_obj_style_gen.h **** }
 4679              		.loc 2 412 5 is_stmt 1 discriminator 2 view .LVU1524
 412:lvgl/src/widgets/../core/lv_obj_style_gen.h **** }
 4680              		.loc 2 412 12 is_stmt 0 discriminator 2 view .LVU1525
 4681 002c 02B2     		sxth	r2, r0
 4682              	.LVL552:
 412:lvgl/src/widgets/../core/lv_obj_style_gen.h **** }
 4683              		.loc 2 412 12 discriminator 2 view .LVU1526
ARM GAS  C:\Users\OSD\AppData\Local\Temp\ccR88enE.s 			page 132


 4684              	.LBE161:
 4685              	.LBE160:
 342:lvgl/src/widgets/lv_arc.c ****     arc_r -= indic_width_half;
 4686              		.loc 1 342 5 is_stmt 1 discriminator 2 view .LVU1527
 342:lvgl/src/widgets/lv_arc.c ****     arc_r -= indic_width_half;
 4687              		.loc 1 342 16 is_stmt 0 discriminator 2 view .LVU1528
 4688 002e 002A     		cmp	r2, #0
 4689 0030 2BDB     		blt	.L239
 4690              	.L236:
 4691              	.LVL553:
 343:lvgl/src/widgets/lv_arc.c ****     arc_r += r_offset;
 4692              		.loc 1 343 5 is_stmt 1 discriminator 2 view .LVU1529
 343:lvgl/src/widgets/lv_arc.c ****     arc_r += r_offset;
 4693              		.loc 1 343 11 is_stmt 0 discriminator 2 view .LVU1530
 4694 0032 BDF80A30 		ldrh	r3, [sp, #10]
 4695 0036 A3EB6203 		sub	r3, r3, r2, asr #1
 4696 003a 9BB2     		uxth	r3, r3
 4697 003c ADF80A30 		strh	r3, [sp, #10]	@ movhi
 344:lvgl/src/widgets/lv_arc.c **** 
 4698              		.loc 1 344 5 is_stmt 1 discriminator 2 view .LVU1531
 344:lvgl/src/widgets/lv_arc.c **** 
 4699              		.loc 1 344 11 is_stmt 0 discriminator 2 view .LVU1532
 4700 0040 2344     		add	r3, r3, r4
 4701 0042 1CB2     		sxth	r4, r3
 4702 0044 ADF80A40 		strh	r4, [sp, #10]	@ movhi
 346:lvgl/src/widgets/lv_arc.c ****     lv_coord_t knob_x = (arc_r * lv_trigo_sin(angle + 90)) >> LV_TRIGO_SHIFT;
 4703              		.loc 1 346 5 is_stmt 1 discriminator 2 view .LVU1533
 346:lvgl/src/widgets/lv_arc.c ****     lv_coord_t knob_x = (arc_r * lv_trigo_sin(angle + 90)) >> LV_TRIGO_SHIFT;
 4704              		.loc 1 346 22 is_stmt 0 discriminator 2 view .LVU1534
 4705 0048 2846     		mov	r0, r5
 4706 004a FFF7FEFF 		bl	get_angle
 4707              	.LVL554:
 346:lvgl/src/widgets/lv_arc.c ****     lv_coord_t knob_x = (arc_r * lv_trigo_sin(angle + 90)) >> LV_TRIGO_SHIFT;
 4708              		.loc 1 346 22 discriminator 2 view .LVU1535
 4709 004e 8046     		mov	r8, r0
 346:lvgl/src/widgets/lv_arc.c ****     lv_coord_t knob_x = (arc_r * lv_trigo_sin(angle + 90)) >> LV_TRIGO_SHIFT;
 4710              		.loc 1 346 14 discriminator 2 view .LVU1536
 4711 0050 80B2     		uxth	r0, r0
 4712              	.LVL555:
 347:lvgl/src/widgets/lv_arc.c ****     lv_coord_t knob_y = (arc_r * lv_trigo_sin(angle)) >> LV_TRIGO_SHIFT;
 4713              		.loc 1 347 5 is_stmt 1 discriminator 2 view .LVU1537
 347:lvgl/src/widgets/lv_arc.c ****     lv_coord_t knob_y = (arc_r * lv_trigo_sin(angle)) >> LV_TRIGO_SHIFT;
 4714              		.loc 1 347 53 is_stmt 0 discriminator 2 view .LVU1538
 4715 0052 5A30     		adds	r0, r0, #90
 4716              	.LVL556:
 347:lvgl/src/widgets/lv_arc.c ****     lv_coord_t knob_y = (arc_r * lv_trigo_sin(angle)) >> LV_TRIGO_SHIFT;
 4717              		.loc 1 347 34 discriminator 2 view .LVU1539
 4718 0054 00B2     		sxth	r0, r0
 4719              	.LVL557:
 347:lvgl/src/widgets/lv_arc.c ****     lv_coord_t knob_y = (arc_r * lv_trigo_sin(angle)) >> LV_TRIGO_SHIFT;
 4720              		.loc 1 347 34 discriminator 2 view .LVU1540
 4721 0056 FFF7FEFF 		bl	lv_trigo_sin
 4722              	.LVL558:
 347:lvgl/src/widgets/lv_arc.c ****     lv_coord_t knob_y = (arc_r * lv_trigo_sin(angle)) >> LV_TRIGO_SHIFT;
 4723              		.loc 1 347 32 discriminator 2 view .LVU1541
 4724 005a 00FB04F4 		mul	r4, r0, r4
 347:lvgl/src/widgets/lv_arc.c ****     lv_coord_t knob_y = (arc_r * lv_trigo_sin(angle)) >> LV_TRIGO_SHIFT;
ARM GAS  C:\Users\OSD\AppData\Local\Temp\ccR88enE.s 			page 133


 4725              		.loc 1 347 16 discriminator 2 view .LVU1542
 4726 005e 44F3CF34 		sbfx	r4, r4, #15, #16
 4727              	.LVL559:
 348:lvgl/src/widgets/lv_arc.c ****     lv_obj_align_to(obj_to_align, obj, LV_ALIGN_CENTER, knob_x, knob_y);
 4728              		.loc 1 348 5 is_stmt 1 discriminator 2 view .LVU1543
 348:lvgl/src/widgets/lv_arc.c ****     lv_obj_align_to(obj_to_align, obj, LV_ALIGN_CENTER, knob_x, knob_y);
 4729              		.loc 1 348 32 is_stmt 0 discriminator 2 view .LVU1544
 4730 0062 BDF90A70 		ldrsh	r7, [sp, #10]
 348:lvgl/src/widgets/lv_arc.c ****     lv_obj_align_to(obj_to_align, obj, LV_ALIGN_CENTER, knob_x, knob_y);
 4731              		.loc 1 348 34 discriminator 2 view .LVU1545
 4732 0066 4046     		mov	r0, r8
 4733 0068 FFF7FEFF 		bl	lv_trigo_sin
 4734              	.LVL560:
 348:lvgl/src/widgets/lv_arc.c ****     lv_obj_align_to(obj_to_align, obj, LV_ALIGN_CENTER, knob_x, knob_y);
 4735              		.loc 1 348 32 discriminator 2 view .LVU1546
 4736 006c 00FB07F3 		mul	r3, r0, r7
 348:lvgl/src/widgets/lv_arc.c ****     lv_obj_align_to(obj_to_align, obj, LV_ALIGN_CENTER, knob_x, knob_y);
 4737              		.loc 1 348 16 discriminator 2 view .LVU1547
 4738 0070 43F3CF33 		sbfx	r3, r3, #15, #16
 4739              	.LVL561:
 349:lvgl/src/widgets/lv_arc.c **** }
 4740              		.loc 1 349 5 is_stmt 1 discriminator 2 view .LVU1548
 4741 0074 0093     		str	r3, [sp]
 4742 0076 2346     		mov	r3, r4
 4743              	.LVL562:
 349:lvgl/src/widgets/lv_arc.c **** }
 4744              		.loc 1 349 5 is_stmt 0 discriminator 2 view .LVU1549
 4745 0078 0922     		movs	r2, #9
 4746 007a 2946     		mov	r1, r5
 4747 007c 3046     		mov	r0, r6
 4748 007e FFF7FEFF 		bl	lv_obj_align_to
 4749              	.LVL563:
 350:lvgl/src/widgets/lv_arc.c **** 
 4750              		.loc 1 350 1 discriminator 2 view .LVU1550
 4751 0082 04B0     		add	sp, sp, #16
 4752              		.cfi_def_cfa_offset 24
 4753              		@ sp needed
 4754 0084 BDE8F081 		pop	{r4, r5, r6, r7, r8, pc}
 4755              	.LVL564:
 4756              	.L235:
 4757              		.cfi_def_cfa_offset 0
 4758              		.cfi_restore 4
 4759              		.cfi_restore 5
 4760              		.cfi_restore 6
 4761              		.cfi_restore 7
 4762              		.cfi_restore 8
 4763              		.cfi_restore 14
 334:lvgl/src/widgets/lv_arc.c **** 
 4764              		.loc 1 334 5 is_stmt 1 discriminator 1 view .LVU1551
 334:lvgl/src/widgets/lv_arc.c **** 
 4765              		.loc 1 334 5 discriminator 1 view .LVU1552
 334:lvgl/src/widgets/lv_arc.c **** 
 4766              		.loc 1 334 5 discriminator 1 view .LVU1553
 334:lvgl/src/widgets/lv_arc.c **** 
 4767              		.loc 1 334 5 discriminator 1 view .LVU1554
 334:lvgl/src/widgets/lv_arc.c **** 
 4768              		.loc 1 334 5 discriminator 1 view .LVU1555
ARM GAS  C:\Users\OSD\AppData\Local\Temp\ccR88enE.s 			page 134


 334:lvgl/src/widgets/lv_arc.c **** 
 4769              		.loc 1 334 5 discriminator 1 view .LVU1556
 4770 0088 FEE7     		b	.L235
 4771              	.LVL565:
 4772              	.L239:
 4773              		.cfi_def_cfa_offset 40
 4774              		.cfi_offset 4, -24
 4775              		.cfi_offset 5, -20
 4776              		.cfi_offset 6, -16
 4777              		.cfi_offset 7, -12
 4778              		.cfi_offset 8, -8
 4779              		.cfi_offset 14, -4
 342:lvgl/src/widgets/lv_arc.c ****     arc_r -= indic_width_half;
 4780              		.loc 1 342 16 is_stmt 0 discriminator 2 view .LVU1557
 4781 008a 0132     		adds	r2, r2, #1
 4782 008c D1E7     		b	.L236
 4783              		.cfi_endproc
 4784              	.LFE181:
 4786              		.section	.text.lv_arc_rotate_obj_to_angle,"ax",%progbits
 4787              		.align	1
 4788              		.global	lv_arc_rotate_obj_to_angle
 4789              		.syntax unified
 4790              		.thumb
 4791              		.thumb_func
 4793              	lv_arc_rotate_obj_to_angle:
 4794              	.LVL566:
 4795              	.LFB182:
 353:lvgl/src/widgets/lv_arc.c ****     LV_ASSERT_OBJ(obj, MY_CLASS);
 4796              		.loc 1 353 1 is_stmt 1 view -0
 4797              		.cfi_startproc
 4798              		@ args = 0, pretend = 0, frame = 8
 4799              		@ frame_needed = 0, uses_anonymous_args = 0
 354:lvgl/src/widgets/lv_arc.c ****     LV_ASSERT_NULL(obj_to_rotate);
 4800              		.loc 1 354 5 view .LVU1559
 354:lvgl/src/widgets/lv_arc.c ****     LV_ASSERT_NULL(obj_to_rotate);
 4801              		.loc 1 354 5 view .LVU1560
 354:lvgl/src/widgets/lv_arc.c ****     LV_ASSERT_NULL(obj_to_rotate);
 4802              		.loc 1 354 5 view .LVU1561
 355:lvgl/src/widgets/lv_arc.c **** 
 4803              		.loc 1 355 5 view .LVU1562
 355:lvgl/src/widgets/lv_arc.c **** 
 4804              		.loc 1 355 5 view .LVU1563
 4805 0000 0029     		cmp	r1, #0
 4806 0002 4ED0     		beq	.L242
 353:lvgl/src/widgets/lv_arc.c ****     LV_ASSERT_OBJ(obj, MY_CLASS);
 4807              		.loc 1 353 1 is_stmt 0 discriminator 2 view .LVU1564
 4808 0004 F0B5     		push	{r4, r5, r6, r7, lr}
 4809              		.cfi_def_cfa_offset 20
 4810              		.cfi_offset 4, -20
 4811              		.cfi_offset 5, -16
 4812              		.cfi_offset 6, -12
 4813              		.cfi_offset 7, -8
 4814              		.cfi_offset 14, -4
 4815 0006 85B0     		sub	sp, sp, #20
 4816              		.cfi_def_cfa_offset 40
 4817 0008 0446     		mov	r4, r0
 4818 000a 1646     		mov	r6, r2
ARM GAS  C:\Users\OSD\AppData\Local\Temp\ccR88enE.s 			page 135


 4819 000c 0D46     		mov	r5, r1
 355:lvgl/src/widgets/lv_arc.c **** 
 4820              		.loc 1 355 5 is_stmt 1 discriminator 2 view .LVU1565
 355:lvgl/src/widgets/lv_arc.c **** 
 4821              		.loc 1 355 34 discriminator 2 view .LVU1566
 357:lvgl/src/widgets/lv_arc.c **** 
 4822              		.loc 1 357 5 discriminator 2 view .LVU1567
 4823 000e FFF7FEFF 		bl	lv_obj_update_layout
 4824              	.LVL567:
 359:lvgl/src/widgets/lv_arc.c ****     lv_coord_t arc_r;
 4825              		.loc 1 359 5 discriminator 2 view .LVU1568
 360:lvgl/src/widgets/lv_arc.c ****     get_center(obj, &center, &arc_r);
 4826              		.loc 1 360 5 discriminator 2 view .LVU1569
 361:lvgl/src/widgets/lv_arc.c ****     lv_coord_t indic_width = lv_obj_get_style_arc_width(obj, LV_PART_INDICATOR);
 4827              		.loc 1 361 5 discriminator 2 view .LVU1570
 4828 0012 0DF10A02 		add	r2, sp, #10
 4829 0016 03A9     		add	r1, sp, #12
 4830 0018 2046     		mov	r0, r4
 4831 001a FFF7FEFF 		bl	get_center
 4832              	.LVL568:
 362:lvgl/src/widgets/lv_arc.c ****     lv_coord_t indic_width_half = indic_width / 2;
 4833              		.loc 1 362 5 discriminator 2 view .LVU1571
 4834              	.LBB162:
 4835              	.LBI162:
 409:lvgl/src/widgets/../core/lv_obj_style_gen.h **** {
 4836              		.loc 2 409 26 discriminator 2 view .LVU1572
 4837              	.LBB163:
 411:lvgl/src/widgets/../core/lv_obj_style_gen.h ****     return (lv_coord_t)v.num;
 4838              		.loc 2 411 5 discriminator 2 view .LVU1573
 411:lvgl/src/widgets/../core/lv_obj_style_gen.h ****     return (lv_coord_t)v.num;
 4839              		.loc 2 411 26 is_stmt 0 discriminator 2 view .LVU1574
 4840 001e 5022     		movs	r2, #80
 4841 0020 4FF40031 		mov	r1, #131072
 4842 0024 2046     		mov	r0, r4
 4843 0026 FFF7FEFF 		bl	lv_obj_get_style_prop
 4844              	.LVL569:
 412:lvgl/src/widgets/../core/lv_obj_style_gen.h **** }
 4845              		.loc 2 412 5 is_stmt 1 discriminator 2 view .LVU1575
 412:lvgl/src/widgets/../core/lv_obj_style_gen.h **** }
 4846              		.loc 2 412 12 is_stmt 0 discriminator 2 view .LVU1576
 4847 002a 02B2     		sxth	r2, r0
 4848              	.LVL570:
 412:lvgl/src/widgets/../core/lv_obj_style_gen.h **** }
 4849              		.loc 2 412 12 discriminator 2 view .LVU1577
 4850              	.LBE163:
 4851              	.LBE162:
 363:lvgl/src/widgets/lv_arc.c ****     arc_r -= indic_width_half;
 4852              		.loc 1 363 5 is_stmt 1 discriminator 2 view .LVU1578
 363:lvgl/src/widgets/lv_arc.c ****     arc_r -= indic_width_half;
 4853              		.loc 1 363 16 is_stmt 0 discriminator 2 view .LVU1579
 4854 002c 002A     		cmp	r2, #0
 4855 002e 39DB     		blt	.L246
 4856              	.L243:
 4857              	.LVL571:
 364:lvgl/src/widgets/lv_arc.c **** 
 4858              		.loc 1 364 5 is_stmt 1 discriminator 2 view .LVU1580
 364:lvgl/src/widgets/lv_arc.c **** 
ARM GAS  C:\Users\OSD\AppData\Local\Temp\ccR88enE.s 			page 136


 4859              		.loc 1 364 11 is_stmt 0 discriminator 2 view .LVU1581
 4860 0030 BDF80A30 		ldrh	r3, [sp, #10]
 4861 0034 A3EB6203 		sub	r3, r3, r2, asr #1
 4862 0038 9BB2     		uxth	r3, r3
 4863 003a ADF80A30 		strh	r3, [sp, #10]	@ movhi
 366:lvgl/src/widgets/lv_arc.c ****     lv_obj_align_to(obj_to_rotate, obj, LV_ALIGN_CENTER, 0, -arc_r);
 4864              		.loc 1 366 5 is_stmt 1 discriminator 2 view .LVU1582
 366:lvgl/src/widgets/lv_arc.c ****     lv_obj_align_to(obj_to_rotate, obj, LV_ALIGN_CENTER, 0, -arc_r);
 4865              		.loc 1 366 11 is_stmt 0 discriminator 2 view .LVU1583
 4866 003e 3344     		add	r3, r3, r6
 4867 0040 9BB2     		uxth	r3, r3
 4868 0042 ADF80A30 		strh	r3, [sp, #10]	@ movhi
 367:lvgl/src/widgets/lv_arc.c **** 
 4869              		.loc 1 367 5 is_stmt 1 discriminator 2 view .LVU1584
 4870 0046 5B42     		rsbs	r3, r3, #0
 4871 0048 1BB2     		sxth	r3, r3
 4872 004a 0093     		str	r3, [sp]
 4873 004c 0023     		movs	r3, #0
 4874 004e 0922     		movs	r2, #9
 4875              	.LVL572:
 367:lvgl/src/widgets/lv_arc.c **** 
 4876              		.loc 1 367 5 is_stmt 0 discriminator 2 view .LVU1585
 4877 0050 2146     		mov	r1, r4
 4878 0052 2846     		mov	r0, r5
 4879 0054 FFF7FEFF 		bl	lv_obj_align_to
 4880              	.LVL573:
 369:lvgl/src/widgets/lv_arc.c **** 
 4881              		.loc 1 369 5 is_stmt 1 discriminator 2 view .LVU1586
 4882 0058 2046     		mov	r0, r4
 4883 005a FFF7FEFF 		bl	lv_obj_update_layout
 4884              	.LVL574:
 371:lvgl/src/widgets/lv_arc.c ****     lv_coord_t pivot_x = obj_to_rotate->coords.x1 - center.x;
 4885              		.loc 1 371 5 discriminator 2 view .LVU1587
 371:lvgl/src/widgets/lv_arc.c ****     lv_coord_t pivot_x = obj_to_rotate->coords.x1 - center.x;
 4886              		.loc 1 371 22 is_stmt 0 discriminator 2 view .LVU1588
 4887 005e 2046     		mov	r0, r4
 4888 0060 FFF7FEFF 		bl	get_angle
 4889              	.LVL575:
 371:lvgl/src/widgets/lv_arc.c ****     lv_coord_t pivot_x = obj_to_rotate->coords.x1 - center.x;
 4890              		.loc 1 371 14 discriminator 2 view .LVU1589
 4891 0064 84B2     		uxth	r4, r0
 4892              	.LVL576:
 372:lvgl/src/widgets/lv_arc.c ****     lv_coord_t pivot_y = obj_to_rotate->coords.y1 - center.y;
 4893              		.loc 1 372 5 is_stmt 1 discriminator 2 view .LVU1590
 372:lvgl/src/widgets/lv_arc.c ****     lv_coord_t pivot_y = obj_to_rotate->coords.y1 - center.y;
 4894              		.loc 1 372 47 is_stmt 0 discriminator 2 view .LVU1591
 4895 0066 AB8A     		ldrh	r3, [r5, #20]
 372:lvgl/src/widgets/lv_arc.c ****     lv_coord_t pivot_y = obj_to_rotate->coords.y1 - center.y;
 4896              		.loc 1 372 59 discriminator 2 view .LVU1592
 4897 0068 BDF80C10 		ldrh	r1, [sp, #12]
 4898              	.LVL577:
 373:lvgl/src/widgets/lv_arc.c ****     lv_obj_set_style_transform_pivot_x(obj_to_rotate, -pivot_x, 0);
 4899              		.loc 1 373 5 is_stmt 1 discriminator 2 view .LVU1593
 373:lvgl/src/widgets/lv_arc.c ****     lv_obj_set_style_transform_pivot_x(obj_to_rotate, -pivot_x, 0);
 4900              		.loc 1 373 47 is_stmt 0 discriminator 2 view .LVU1594
 4901 006c EF8A     		ldrh	r7, [r5, #22]
 373:lvgl/src/widgets/lv_arc.c ****     lv_obj_set_style_transform_pivot_x(obj_to_rotate, -pivot_x, 0);
ARM GAS  C:\Users\OSD\AppData\Local\Temp\ccR88enE.s 			page 137


 4902              		.loc 1 373 59 discriminator 2 view .LVU1595
 4903 006e BDF80E60 		ldrh	r6, [sp, #14]
 4904              	.LVL578:
 374:lvgl/src/widgets/lv_arc.c ****     lv_obj_set_style_transform_pivot_y(obj_to_rotate, -pivot_y, 0);
 4905              		.loc 1 374 5 is_stmt 1 discriminator 2 view .LVU1596
 4906 0072 C91A     		subs	r1, r1, r3
 4907              	.LVL579:
 374:lvgl/src/widgets/lv_arc.c ****     lv_obj_set_style_transform_pivot_y(obj_to_rotate, -pivot_y, 0);
 4908              		.loc 1 374 5 is_stmt 0 discriminator 2 view .LVU1597
 4909 0074 0022     		movs	r2, #0
 4910 0076 09B2     		sxth	r1, r1
 4911 0078 2846     		mov	r0, r5
 4912 007a FFF7FEFF 		bl	lv_obj_set_style_transform_pivot_x
 4913              	.LVL580:
 375:lvgl/src/widgets/lv_arc.c ****     lv_obj_set_style_transform_angle(obj_to_rotate, angle * 10 + 900, 0);
 4914              		.loc 1 375 5 is_stmt 1 discriminator 2 view .LVU1598
 4915 007e F11B     		subs	r1, r6, r7
 4916 0080 0022     		movs	r2, #0
 4917 0082 09B2     		sxth	r1, r1
 4918 0084 2846     		mov	r0, r5
 4919 0086 FFF7FEFF 		bl	lv_obj_set_style_transform_pivot_y
 4920              	.LVL581:
 376:lvgl/src/widgets/lv_arc.c **** }
 4921              		.loc 1 376 5 discriminator 2 view .LVU1599
 376:lvgl/src/widgets/lv_arc.c **** }
 4922              		.loc 1 376 64 is_stmt 0 discriminator 2 view .LVU1600
 4923 008a 04EB8401 		add	r1, r4, r4, lsl #2
 4924 008e 4900     		lsls	r1, r1, #1
 4925 0090 01F56171 		add	r1, r1, #900
 376:lvgl/src/widgets/lv_arc.c **** }
 4926              		.loc 1 376 5 discriminator 2 view .LVU1601
 4927 0094 0022     		movs	r2, #0
 4928 0096 09B2     		sxth	r1, r1
 4929 0098 2846     		mov	r0, r5
 4930 009a FFF7FEFF 		bl	lv_obj_set_style_transform_angle
 4931              	.LVL582:
 377:lvgl/src/widgets/lv_arc.c **** 
 4932              		.loc 1 377 1 discriminator 2 view .LVU1602
 4933 009e 05B0     		add	sp, sp, #20
 4934              		.cfi_def_cfa_offset 20
 4935              		@ sp needed
 4936 00a0 F0BD     		pop	{r4, r5, r6, r7, pc}
 4937              	.LVL583:
 4938              	.L242:
 4939              		.cfi_def_cfa_offset 0
 4940              		.cfi_restore 4
 4941              		.cfi_restore 5
 4942              		.cfi_restore 6
 4943              		.cfi_restore 7
 4944              		.cfi_restore 14
 355:lvgl/src/widgets/lv_arc.c **** 
 4945              		.loc 1 355 5 is_stmt 1 discriminator 1 view .LVU1603
 355:lvgl/src/widgets/lv_arc.c **** 
 4946              		.loc 1 355 5 discriminator 1 view .LVU1604
 355:lvgl/src/widgets/lv_arc.c **** 
 4947              		.loc 1 355 5 discriminator 1 view .LVU1605
 355:lvgl/src/widgets/lv_arc.c **** 
ARM GAS  C:\Users\OSD\AppData\Local\Temp\ccR88enE.s 			page 138


 4948              		.loc 1 355 5 discriminator 1 view .LVU1606
 355:lvgl/src/widgets/lv_arc.c **** 
 4949              		.loc 1 355 5 discriminator 1 view .LVU1607
 355:lvgl/src/widgets/lv_arc.c **** 
 4950              		.loc 1 355 5 discriminator 1 view .LVU1608
 4951 00a2 FEE7     		b	.L242
 4952              	.LVL584:
 4953              	.L246:
 4954              		.cfi_def_cfa_offset 40
 4955              		.cfi_offset 4, -20
 4956              		.cfi_offset 5, -16
 4957              		.cfi_offset 6, -12
 4958              		.cfi_offset 7, -8
 4959              		.cfi_offset 14, -4
 363:lvgl/src/widgets/lv_arc.c ****     arc_r -= indic_width_half;
 4960              		.loc 1 363 16 is_stmt 0 discriminator 2 view .LVU1609
 4961 00a4 0132     		adds	r2, r2, #1
 4962 00a6 C3E7     		b	.L243
 4963              		.cfi_endproc
 4964              	.LFE182:
 4966              		.global	lv_arc_class
 4967              		.section	.rodata.lv_arc_class,"a"
 4968              		.align	2
 4969              		.set	.LANCHOR0,. + 0
 4972              	lv_arc_class:
 4973 0000 00000000 		.word	lv_obj_class
 4974 0004 00000000 		.word	lv_arc_constructor
 4975 0008 00000000 		.space	8
 4975      00000000 
 4976 0010 00000000 		.word	lv_arc_event
 4977 0014 00000000 		.space	4
 4978 0018 41       		.byte	65
 4979 0019 04       		.byte	4
 4980 001a 00       		.byte	0
 4981 001b 00       		.space	1
 4982              		.text
 4983              	.Letext0:
 4984              		.file 3 "c:\\tools\\gcc-arm-none-eabi\\arm-none-eabi\\include\\machine\\_default_types.h"
 4985              		.file 4 "c:\\tools\\gcc-arm-none-eabi\\arm-none-eabi\\include\\sys\\_stdint.h"
 4986              		.file 5 "c:\\tools\\gcc-arm-none-eabi\\lib\\gcc\\arm-none-eabi\\10.3.1\\include\\stddef.h"
 4987              		.file 6 "d:\\kzc\\stm32\\h743ii_lcd\\lvgl\\src\\misc\\lv_area.h"
 4988              		.file 7 "d:\\kzc\\stm32\\h743ii_lcd\\lvgl\\src\\font\\lv_font.h"
 4989              		.file 8 "lvgl/src/widgets/../core/../misc/lv_types.h"
 4990              		.file 9 "lvgl/src/widgets/../core/../misc/lv_color.h"
 4991              		.file 10 "lvgl/src/widgets/../core/../misc/lv_txt.h"
 4992              		.file 11 "lvgl/src/widgets/../core/../misc/lv_bidi.h"
 4993              		.file 12 "lvgl/src/widgets/../core/../misc/lv_style.h"
 4994              		.file 13 "d:\\kzc\\stm32\\h743ii_lcd\\lvgl\\src\\draw\\lv_img_buf.h"
 4995              		.file 14 "lvgl/src/widgets/../core/lv_obj.h"
 4996              		.file 15 "d:\\kzc\\stm32\\h743ii_lcd\\lvgl\\src\\draw\\lv_draw_rect.h"
 4997              		.file 16 "d:\\kzc\\stm32\\h743ii_lcd\\lvgl\\src\\draw\\lv_draw_label.h"
 4998              		.file 17 "d:\\kzc\\stm32\\h743ii_lcd\\lvgl\\src\\draw\\lv_draw_img.h"
 4999              		.file 18 "d:\\kzc\\stm32\\h743ii_lcd\\lvgl\\src\\draw\\lv_draw_line.h"
 5000              		.file 19 "d:\\kzc\\stm32\\h743ii_lcd\\lvgl\\src\\draw\\lv_draw_arc.h"
 5001              		.file 20 "d:\\kzc\\stm32\\h743ii_lcd\\lvgl\\src\\draw\\lv_draw_layer.h"
 5002              		.file 21 "d:\\kzc\\stm32\\h743ii_lcd\\lvgl\\src\\draw\\lv_draw.h"
 5003              		.file 22 "d:\\kzc\\stm32\\h743ii_lcd\\lvgl\\src\\misc\\lv_ll.h"
ARM GAS  C:\Users\OSD\AppData\Local\Temp\ccR88enE.s 			page 139


 5004              		.file 23 "d:\\kzc\\stm32\\h743ii_lcd\\lvgl\\src\\misc\\lv_timer.h"
 5005              		.file 24 "lvgl/src/widgets/../core/../hal/lv_hal_disp.h"
 5006              		.file 25 "lvgl/src/widgets/../core/../hal/lv_hal_indev.h"
 5007              		.file 26 "lvgl/src/widgets/../core/lv_group.h"
 5008              		.file 27 "lvgl/src/widgets/../core/lv_obj_scroll.h"
 5009              		.file 28 "lvgl/src/widgets/../core/lv_obj_style.h"
 5010              		.file 29 "lvgl/src/widgets/../core/lv_obj_draw.h"
 5011              		.file 30 "lvgl/src/widgets/../core/lv_obj_class.h"
 5012              		.file 31 "lvgl/src/widgets/../core/lv_event.h"
 5013              		.file 32 "lvgl/src/widgets/lv_arc.h"
 5014              		.file 33 "lvgl/src/widgets/../core/../misc/lv_math.h"
 5015              		.file 34 "d:\\kzc\\stm32\\h743ii_lcd\\lvgl\\src\\core\\lv_obj_pos.h"
 5016              		.file 35 "d:\\kzc\\stm32\\h743ii_lcd\\lvgl\\src\\hal\\lv_hal_tick.h"
 5017              		.file 36 "lvgl/src/widgets/../core/lv_indev.h"
ARM GAS  C:\Users\OSD\AppData\Local\Temp\ccR88enE.s 			page 140


DEFINED SYMBOLS
                            *ABS*:00000000 lv_arc.c
C:\Users\OSD\AppData\Local\Temp\ccR88enE.s:19     .text.get_angle:00000000 $t
C:\Users\OSD\AppData\Local\Temp\ccR88enE.s:24     .text.get_angle:00000000 get_angle
C:\Users\OSD\AppData\Local\Temp\ccR88enE.s:197    .text.lv_arc_angle_within_bg_bounds:00000000 $t
C:\Users\OSD\AppData\Local\Temp\ccR88enE.s:202    .text.lv_arc_angle_within_bg_bounds:00000000 lv_arc_angle_within_bg_bounds
C:\Users\OSD\AppData\Local\Temp\ccR88enE.s:447    .text.get_center:00000000 $t
C:\Users\OSD\AppData\Local\Temp\ccR88enE.s:452    .text.get_center:00000000 get_center
C:\Users\OSD\AppData\Local\Temp\ccR88enE.s:657    .text.knob_get_extra_size:00000000 $t
C:\Users\OSD\AppData\Local\Temp\ccR88enE.s:662    .text.knob_get_extra_size:00000000 knob_get_extra_size
C:\Users\OSD\AppData\Local\Temp\ccR88enE.s:915    .text.get_knob_area:00000000 $t
C:\Users\OSD\AppData\Local\Temp\ccR88enE.s:920    .text.get_knob_area:00000000 get_knob_area
C:\Users\OSD\AppData\Local\Temp\ccR88enE.s:1159   .text.lv_arc_draw:00000000 $t
C:\Users\OSD\AppData\Local\Temp\ccR88enE.s:1164   .text.lv_arc_draw:00000000 lv_arc_draw
C:\Users\OSD\AppData\Local\Temp\ccR88enE.s:1554   .text.lv_arc_draw:000001b8 $d
C:\Users\OSD\AppData\Local\Temp\ccR88enE.s:1559   .text.lv_arc_constructor:00000000 $t
C:\Users\OSD\AppData\Local\Temp\ccR88enE.s:1564   .text.lv_arc_constructor:00000000 lv_arc_constructor
C:\Users\OSD\AppData\Local\Temp\ccR88enE.s:1671   .text.inv_arc_area:00000000 $t
C:\Users\OSD\AppData\Local\Temp\ccR88enE.s:1676   .text.inv_arc_area:00000000 inv_arc_area
C:\Users\OSD\AppData\Local\Temp\ccR88enE.s:1851   .text.inv_knob_area:00000000 $t
C:\Users\OSD\AppData\Local\Temp\ccR88enE.s:1856   .text.inv_knob_area:00000000 inv_knob_area
C:\Users\OSD\AppData\Local\Temp\ccR88enE.s:1923   .text.lv_arc_create:00000000 $t
C:\Users\OSD\AppData\Local\Temp\ccR88enE.s:1929   .text.lv_arc_create:00000000 lv_arc_create
C:\Users\OSD\AppData\Local\Temp\ccR88enE.s:1967   .text.lv_arc_create:00000014 $d
C:\Users\OSD\AppData\Local\Temp\ccR88enE.s:1972   .text.lv_arc_set_start_angle:00000000 $t
C:\Users\OSD\AppData\Local\Temp\ccR88enE.s:1978   .text.lv_arc_set_start_angle:00000000 lv_arc_set_start_angle
C:\Users\OSD\AppData\Local\Temp\ccR88enE.s:2124   .text.lv_arc_set_end_angle:00000000 $t
C:\Users\OSD\AppData\Local\Temp\ccR88enE.s:2130   .text.lv_arc_set_end_angle:00000000 lv_arc_set_end_angle
C:\Users\OSD\AppData\Local\Temp\ccR88enE.s:2276   .text.lv_arc_set_angles:00000000 $t
C:\Users\OSD\AppData\Local\Temp\ccR88enE.s:2282   .text.lv_arc_set_angles:00000000 lv_arc_set_angles
C:\Users\OSD\AppData\Local\Temp\ccR88enE.s:2316   .text.value_update:00000000 $t
C:\Users\OSD\AppData\Local\Temp\ccR88enE.s:2321   .text.value_update:00000000 value_update
C:\Users\OSD\AppData\Local\Temp\ccR88enE.s:2529   .text.lv_arc_set_bg_start_angle:00000000 $t
C:\Users\OSD\AppData\Local\Temp\ccR88enE.s:2535   .text.lv_arc_set_bg_start_angle:00000000 lv_arc_set_bg_start_angle
C:\Users\OSD\AppData\Local\Temp\ccR88enE.s:2677   .text.lv_arc_set_bg_end_angle:00000000 $t
C:\Users\OSD\AppData\Local\Temp\ccR88enE.s:2683   .text.lv_arc_set_bg_end_angle:00000000 lv_arc_set_bg_end_angle
C:\Users\OSD\AppData\Local\Temp\ccR88enE.s:2825   .text.lv_arc_set_bg_angles:00000000 $t
C:\Users\OSD\AppData\Local\Temp\ccR88enE.s:2831   .text.lv_arc_set_bg_angles:00000000 lv_arc_set_bg_angles
C:\Users\OSD\AppData\Local\Temp\ccR88enE.s:2865   .text.lv_arc_set_rotation:00000000 $t
C:\Users\OSD\AppData\Local\Temp\ccR88enE.s:2871   .text.lv_arc_set_rotation:00000000 lv_arc_set_rotation
C:\Users\OSD\AppData\Local\Temp\ccR88enE.s:2900   .text.lv_arc_set_value:00000000 $t
C:\Users\OSD\AppData\Local\Temp\ccR88enE.s:2906   .text.lv_arc_set_value:00000000 lv_arc_set_value
C:\Users\OSD\AppData\Local\Temp\ccR88enE.s:2970   .text.lv_arc_set_mode:00000000 $t
C:\Users\OSD\AppData\Local\Temp\ccR88enE.s:2976   .text.lv_arc_set_mode:00000000 lv_arc_set_mode
C:\Users\OSD\AppData\Local\Temp\ccR88enE.s:3097   .text.lv_arc_set_range:00000000 $t
C:\Users\OSD\AppData\Local\Temp\ccR88enE.s:3103   .text.lv_arc_set_range:00000000 lv_arc_set_range
C:\Users\OSD\AppData\Local\Temp\ccR88enE.s:3171   .text.lv_arc_set_change_rate:00000000 $t
C:\Users\OSD\AppData\Local\Temp\ccR88enE.s:3177   .text.lv_arc_set_change_rate:00000000 lv_arc_set_change_rate
C:\Users\OSD\AppData\Local\Temp\ccR88enE.s:3198   .text.lv_arc_get_angle_start:00000000 $t
C:\Users\OSD\AppData\Local\Temp\ccR88enE.s:3204   .text.lv_arc_get_angle_start:00000000 lv_arc_get_angle_start
C:\Users\OSD\AppData\Local\Temp\ccR88enE.s:3225   .text.lv_arc_get_angle_end:00000000 $t
C:\Users\OSD\AppData\Local\Temp\ccR88enE.s:3231   .text.lv_arc_get_angle_end:00000000 lv_arc_get_angle_end
C:\Users\OSD\AppData\Local\Temp\ccR88enE.s:3252   .text.lv_arc_get_bg_angle_start:00000000 $t
C:\Users\OSD\AppData\Local\Temp\ccR88enE.s:3258   .text.lv_arc_get_bg_angle_start:00000000 lv_arc_get_bg_angle_start
C:\Users\OSD\AppData\Local\Temp\ccR88enE.s:3279   .text.lv_arc_get_bg_angle_end:00000000 $t
C:\Users\OSD\AppData\Local\Temp\ccR88enE.s:3285   .text.lv_arc_get_bg_angle_end:00000000 lv_arc_get_bg_angle_end
C:\Users\OSD\AppData\Local\Temp\ccR88enE.s:3306   .text.lv_arc_get_value:00000000 $t
ARM GAS  C:\Users\OSD\AppData\Local\Temp\ccR88enE.s 			page 141


C:\Users\OSD\AppData\Local\Temp\ccR88enE.s:3312   .text.lv_arc_get_value:00000000 lv_arc_get_value
C:\Users\OSD\AppData\Local\Temp\ccR88enE.s:3333   .text.lv_arc_event:00000000 $t
C:\Users\OSD\AppData\Local\Temp\ccR88enE.s:3338   .text.lv_arc_event:00000000 lv_arc_event
C:\Users\OSD\AppData\Local\Temp\ccR88enE.s:4000   .text.lv_arc_event:00000320 $d
C:\Users\OSD\AppData\Local\Temp\ccR88enE.s:4008   .text.lv_arc_event:00000330 $t
C:\Users\OSD\AppData\Local\Temp\ccR88enE.s:4538   .text.lv_arc_get_min_value:00000000 $t
C:\Users\OSD\AppData\Local\Temp\ccR88enE.s:4544   .text.lv_arc_get_min_value:00000000 lv_arc_get_min_value
C:\Users\OSD\AppData\Local\Temp\ccR88enE.s:4565   .text.lv_arc_get_max_value:00000000 $t
C:\Users\OSD\AppData\Local\Temp\ccR88enE.s:4571   .text.lv_arc_get_max_value:00000000 lv_arc_get_max_value
C:\Users\OSD\AppData\Local\Temp\ccR88enE.s:4592   .text.lv_arc_get_mode:00000000 $t
C:\Users\OSD\AppData\Local\Temp\ccR88enE.s:4598   .text.lv_arc_get_mode:00000000 lv_arc_get_mode
C:\Users\OSD\AppData\Local\Temp\ccR88enE.s:4620   .text.lv_arc_align_obj_to_angle:00000000 $t
C:\Users\OSD\AppData\Local\Temp\ccR88enE.s:4626   .text.lv_arc_align_obj_to_angle:00000000 lv_arc_align_obj_to_angle
C:\Users\OSD\AppData\Local\Temp\ccR88enE.s:4787   .text.lv_arc_rotate_obj_to_angle:00000000 $t
C:\Users\OSD\AppData\Local\Temp\ccR88enE.s:4793   .text.lv_arc_rotate_obj_to_angle:00000000 lv_arc_rotate_obj_to_angle
C:\Users\OSD\AppData\Local\Temp\ccR88enE.s:4972   .rodata.lv_arc_class:00000000 lv_arc_class
C:\Users\OSD\AppData\Local\Temp\ccR88enE.s:4968   .rodata.lv_arc_class:00000000 $d

UNDEFINED SYMBOLS
lv_obj_get_style_prop
lv_obj_get_width
lv_obj_get_height
lv_trigo_sin
lv_event_get_target
lv_event_get_draw_ctx
lv_obj_draw_dsc_init
lv_draw_rect_dsc_init
lv_obj_init_draw_rect_dsc
lv_event_send
lv_draw_rect
lv_draw_arc_dsc_init
lv_obj_init_draw_arc_dsc
lv_draw_arc
lv_tick_get
lv_obj_add_flag
lv_obj_clear_flag
lv_obj_set_ext_click_area
lv_obj_is_visible
lv_draw_arc_get_area
lv_obj_invalidate_area
lv_area_increase
lv_obj_class_create_obj
lv_obj_class_init_obj
lv_obj_invalidate
lv_map
lv_obj_event_base
lv_event_get_code
lv_indev_get_act
lv_indev_get_type
lv_indev_get_point
lv_atan2
lv_disp_get_dpi
lv_tick_elaps
lv_obj_has_flag
lv_obj_get_group
lv_group_get_editing
lv_group_set_editing
ARM GAS  C:\Users\OSD\AppData\Local\Temp\ccR88enE.s 			page 142


lv_event_get_param
lv_area_set
_lv_area_is_point_on
lv_obj_update_layout
lv_obj_align_to
lv_obj_set_style_transform_pivot_x
lv_obj_set_style_transform_pivot_y
lv_obj_set_style_transform_angle
lv_obj_class
