ARM GAS  C:\Users\OSD\AppData\Local\Temp\ccnvvkrZ.s 			page 1


   1              		.cpu cortex-m7
   2              		.arch armv7e-m
   3              		.fpu fpv5-d16
   4              		.eabi_attribute 28, 1
   5              		.eabi_attribute 20, 1
   6              		.eabi_attribute 21, 1
   7              		.eabi_attribute 23, 3
   8              		.eabi_attribute 24, 1
   9              		.eabi_attribute 25, 1
  10              		.eabi_attribute 26, 1
  11              		.eabi_attribute 30, 1
  12              		.eabi_attribute 34, 1
  13              		.eabi_attribute 18, 4
  14              		.file	"lv_btnmatrix.c"
  15              		.text
  16              	.Ltext0:
  17              		.cfi_sections	.debug_frame
  18              		.section	.text.get_button_width,"ax",%progbits
  19              		.align	1
  20              		.syntax unified
  21              		.thumb
  22              		.thumb_func
  24              	get_button_width:
  25              	.LVL0:
  26              	.LFB181:
  27              		.file 1 "lvgl/src/widgets/lv_btnmatrix.c"
   1:lvgl/src/widgets/lv_btnmatrix.c **** /**
   2:lvgl/src/widgets/lv_btnmatrix.c ****  * @file lv_btnmatrix.c
   3:lvgl/src/widgets/lv_btnmatrix.c ****  *
   4:lvgl/src/widgets/lv_btnmatrix.c ****  */
   5:lvgl/src/widgets/lv_btnmatrix.c **** 
   6:lvgl/src/widgets/lv_btnmatrix.c **** /*********************
   7:lvgl/src/widgets/lv_btnmatrix.c ****  *      INCLUDES
   8:lvgl/src/widgets/lv_btnmatrix.c ****  *********************/
   9:lvgl/src/widgets/lv_btnmatrix.c **** #include "lv_btnmatrix.h"
  10:lvgl/src/widgets/lv_btnmatrix.c **** #if LV_USE_BTNMATRIX != 0
  11:lvgl/src/widgets/lv_btnmatrix.c **** 
  12:lvgl/src/widgets/lv_btnmatrix.c **** #include "../misc/lv_assert.h"
  13:lvgl/src/widgets/lv_btnmatrix.c **** #include "../core/lv_indev.h"
  14:lvgl/src/widgets/lv_btnmatrix.c **** #include "../core/lv_group.h"
  15:lvgl/src/widgets/lv_btnmatrix.c **** #include "../draw/lv_draw.h"
  16:lvgl/src/widgets/lv_btnmatrix.c **** #include "../core/lv_refr.h"
  17:lvgl/src/widgets/lv_btnmatrix.c **** #include "../misc/lv_txt.h"
  18:lvgl/src/widgets/lv_btnmatrix.c **** #include "../misc/lv_txt_ap.h"
  19:lvgl/src/widgets/lv_btnmatrix.c **** 
  20:lvgl/src/widgets/lv_btnmatrix.c **** /*********************
  21:lvgl/src/widgets/lv_btnmatrix.c ****  *      DEFINES
  22:lvgl/src/widgets/lv_btnmatrix.c ****  *********************/
  23:lvgl/src/widgets/lv_btnmatrix.c **** #define MY_CLASS &lv_btnmatrix_class
  24:lvgl/src/widgets/lv_btnmatrix.c **** 
  25:lvgl/src/widgets/lv_btnmatrix.c **** #define BTN_EXTRA_CLICK_AREA_MAX (LV_DPI_DEF / 10)
  26:lvgl/src/widgets/lv_btnmatrix.c **** #define LV_BTNMATRIX_WIDTH_MASK 0x000F
  27:lvgl/src/widgets/lv_btnmatrix.c **** 
  28:lvgl/src/widgets/lv_btnmatrix.c **** /**********************
  29:lvgl/src/widgets/lv_btnmatrix.c ****  *      TYPEDEFS
  30:lvgl/src/widgets/lv_btnmatrix.c ****  **********************/
  31:lvgl/src/widgets/lv_btnmatrix.c **** 
ARM GAS  C:\Users\OSD\AppData\Local\Temp\ccnvvkrZ.s 			page 2


  32:lvgl/src/widgets/lv_btnmatrix.c **** /**********************
  33:lvgl/src/widgets/lv_btnmatrix.c ****  *  STATIC PROTOTYPES
  34:lvgl/src/widgets/lv_btnmatrix.c ****  **********************/
  35:lvgl/src/widgets/lv_btnmatrix.c **** static void lv_btnmatrix_constructor(const lv_obj_class_t * class_p, lv_obj_t * obj);
  36:lvgl/src/widgets/lv_btnmatrix.c **** static void lv_btnmatrix_destructor(const lv_obj_class_t * class_p, lv_obj_t * obj);
  37:lvgl/src/widgets/lv_btnmatrix.c **** static void lv_btnmatrix_event(const lv_obj_class_t * class_p, lv_event_t * e);
  38:lvgl/src/widgets/lv_btnmatrix.c **** static void draw_main(lv_event_t * e);
  39:lvgl/src/widgets/lv_btnmatrix.c **** 
  40:lvgl/src/widgets/lv_btnmatrix.c **** static uint8_t get_button_width(lv_btnmatrix_ctrl_t ctrl_bits);
  41:lvgl/src/widgets/lv_btnmatrix.c **** static bool button_is_hidden(lv_btnmatrix_ctrl_t ctrl_bits);
  42:lvgl/src/widgets/lv_btnmatrix.c **** static bool button_is_checked(lv_btnmatrix_ctrl_t ctrl_bits);
  43:lvgl/src/widgets/lv_btnmatrix.c **** static bool button_is_repeat_disabled(lv_btnmatrix_ctrl_t ctrl_bits);
  44:lvgl/src/widgets/lv_btnmatrix.c **** static bool button_is_inactive(lv_btnmatrix_ctrl_t ctrl_bits);
  45:lvgl/src/widgets/lv_btnmatrix.c **** static bool button_is_click_trig(lv_btnmatrix_ctrl_t ctrl_bits);
  46:lvgl/src/widgets/lv_btnmatrix.c **** static bool button_is_popover(lv_btnmatrix_ctrl_t ctrl_bits);
  47:lvgl/src/widgets/lv_btnmatrix.c **** static bool button_is_checkable(lv_btnmatrix_ctrl_t ctrl_bits);
  48:lvgl/src/widgets/lv_btnmatrix.c **** static bool button_is_recolor(lv_btnmatrix_ctrl_t ctrl_bits);
  49:lvgl/src/widgets/lv_btnmatrix.c **** static bool button_get_checked(lv_btnmatrix_ctrl_t ctrl_bits);
  50:lvgl/src/widgets/lv_btnmatrix.c **** static uint16_t get_button_from_point(lv_obj_t * obj, lv_point_t * p);
  51:lvgl/src/widgets/lv_btnmatrix.c **** static void allocate_btn_areas_and_controls(const lv_obj_t * obj, const char ** map);
  52:lvgl/src/widgets/lv_btnmatrix.c **** static void invalidate_button_area(const lv_obj_t * obj, uint16_t btn_idx);
  53:lvgl/src/widgets/lv_btnmatrix.c **** static void make_one_button_checked(lv_obj_t * obj, uint16_t btn_idx);
  54:lvgl/src/widgets/lv_btnmatrix.c **** static bool has_popovers_in_top_row(lv_obj_t * obj);
  55:lvgl/src/widgets/lv_btnmatrix.c **** 
  56:lvgl/src/widgets/lv_btnmatrix.c **** /**********************
  57:lvgl/src/widgets/lv_btnmatrix.c ****  *  STATIC VARIABLES
  58:lvgl/src/widgets/lv_btnmatrix.c ****  **********************/
  59:lvgl/src/widgets/lv_btnmatrix.c **** static const char * lv_btnmatrix_def_map[] = {"Btn1", "Btn2", "Btn3", "\n", "Btn4", "Btn5", ""};
  60:lvgl/src/widgets/lv_btnmatrix.c **** 
  61:lvgl/src/widgets/lv_btnmatrix.c **** const lv_obj_class_t lv_btnmatrix_class = {
  62:lvgl/src/widgets/lv_btnmatrix.c ****     .constructor_cb = lv_btnmatrix_constructor,
  63:lvgl/src/widgets/lv_btnmatrix.c ****     .destructor_cb = lv_btnmatrix_destructor,
  64:lvgl/src/widgets/lv_btnmatrix.c ****     .event_cb = lv_btnmatrix_event,
  65:lvgl/src/widgets/lv_btnmatrix.c ****     .width_def = LV_DPI_DEF * 2,
  66:lvgl/src/widgets/lv_btnmatrix.c ****     .height_def = LV_DPI_DEF,
  67:lvgl/src/widgets/lv_btnmatrix.c ****     .instance_size = sizeof(lv_btnmatrix_t),
  68:lvgl/src/widgets/lv_btnmatrix.c ****     .editable = LV_OBJ_CLASS_EDITABLE_TRUE,
  69:lvgl/src/widgets/lv_btnmatrix.c ****     .group_def = LV_OBJ_CLASS_GROUP_DEF_TRUE,
  70:lvgl/src/widgets/lv_btnmatrix.c ****     .base_class = &lv_obj_class
  71:lvgl/src/widgets/lv_btnmatrix.c **** };
  72:lvgl/src/widgets/lv_btnmatrix.c **** 
  73:lvgl/src/widgets/lv_btnmatrix.c **** /**********************
  74:lvgl/src/widgets/lv_btnmatrix.c ****  *      MACROS
  75:lvgl/src/widgets/lv_btnmatrix.c ****  **********************/
  76:lvgl/src/widgets/lv_btnmatrix.c **** 
  77:lvgl/src/widgets/lv_btnmatrix.c **** /**********************
  78:lvgl/src/widgets/lv_btnmatrix.c ****  *   GLOBAL FUNCTIONS
  79:lvgl/src/widgets/lv_btnmatrix.c ****  **********************/
  80:lvgl/src/widgets/lv_btnmatrix.c **** 
  81:lvgl/src/widgets/lv_btnmatrix.c **** lv_obj_t * lv_btnmatrix_create(lv_obj_t * parent)
  82:lvgl/src/widgets/lv_btnmatrix.c **** {
  83:lvgl/src/widgets/lv_btnmatrix.c ****     LV_LOG_INFO("begin");
  84:lvgl/src/widgets/lv_btnmatrix.c ****     lv_obj_t * obj = lv_obj_class_create_obj(MY_CLASS, parent);
  85:lvgl/src/widgets/lv_btnmatrix.c ****     lv_obj_class_init_obj(obj);
  86:lvgl/src/widgets/lv_btnmatrix.c ****     return obj;
  87:lvgl/src/widgets/lv_btnmatrix.c **** }
  88:lvgl/src/widgets/lv_btnmatrix.c **** 
ARM GAS  C:\Users\OSD\AppData\Local\Temp\ccnvvkrZ.s 			page 3


  89:lvgl/src/widgets/lv_btnmatrix.c **** /*=====================
  90:lvgl/src/widgets/lv_btnmatrix.c ****  * Setter functions
  91:lvgl/src/widgets/lv_btnmatrix.c ****  *====================*/
  92:lvgl/src/widgets/lv_btnmatrix.c **** 
  93:lvgl/src/widgets/lv_btnmatrix.c **** void lv_btnmatrix_set_map(lv_obj_t * obj, const char * map[])
  94:lvgl/src/widgets/lv_btnmatrix.c **** {
  95:lvgl/src/widgets/lv_btnmatrix.c ****     LV_ASSERT_OBJ(obj, MY_CLASS);
  96:lvgl/src/widgets/lv_btnmatrix.c ****     if(map == NULL) return;
  97:lvgl/src/widgets/lv_btnmatrix.c **** 
  98:lvgl/src/widgets/lv_btnmatrix.c ****     lv_btnmatrix_t * btnm = (lv_btnmatrix_t *)obj;
  99:lvgl/src/widgets/lv_btnmatrix.c **** 
 100:lvgl/src/widgets/lv_btnmatrix.c ****     /*Analyze the map and create the required number of buttons*/
 101:lvgl/src/widgets/lv_btnmatrix.c ****     allocate_btn_areas_and_controls(obj, map);
 102:lvgl/src/widgets/lv_btnmatrix.c ****     btnm->map_p = map;
 103:lvgl/src/widgets/lv_btnmatrix.c **** 
 104:lvgl/src/widgets/lv_btnmatrix.c ****     lv_base_dir_t base_dir = lv_obj_get_style_base_dir(obj, LV_PART_MAIN);
 105:lvgl/src/widgets/lv_btnmatrix.c **** 
 106:lvgl/src/widgets/lv_btnmatrix.c ****     /*Set size and positions of the buttons*/
 107:lvgl/src/widgets/lv_btnmatrix.c ****     lv_coord_t pleft = lv_obj_get_style_pad_left(obj, LV_PART_MAIN);
 108:lvgl/src/widgets/lv_btnmatrix.c ****     lv_coord_t ptop = lv_obj_get_style_pad_top(obj, LV_PART_MAIN);
 109:lvgl/src/widgets/lv_btnmatrix.c ****     lv_coord_t prow = lv_obj_get_style_pad_row(obj, LV_PART_MAIN);
 110:lvgl/src/widgets/lv_btnmatrix.c ****     lv_coord_t pcol = lv_obj_get_style_pad_column(obj, LV_PART_MAIN);
 111:lvgl/src/widgets/lv_btnmatrix.c **** 
 112:lvgl/src/widgets/lv_btnmatrix.c ****     lv_coord_t max_w            = lv_obj_get_content_width(obj);
 113:lvgl/src/widgets/lv_btnmatrix.c ****     lv_coord_t max_h            = lv_obj_get_content_height(obj);
 114:lvgl/src/widgets/lv_btnmatrix.c **** 
 115:lvgl/src/widgets/lv_btnmatrix.c ****     /*Calculate the position of each row*/
 116:lvgl/src/widgets/lv_btnmatrix.c ****     lv_coord_t max_h_no_gap = max_h - (prow * (btnm->row_cnt - 1));
 117:lvgl/src/widgets/lv_btnmatrix.c **** 
 118:lvgl/src/widgets/lv_btnmatrix.c ****     /*Count the units and the buttons in a line
 119:lvgl/src/widgets/lv_btnmatrix.c ****      *(A button can be 1,2,3... unit wide)*/
 120:lvgl/src/widgets/lv_btnmatrix.c ****     uint32_t txt_tot_i = 0; /*Act. index in the str map*/
 121:lvgl/src/widgets/lv_btnmatrix.c ****     uint32_t btn_tot_i = 0; /*Act. index of button areas*/
 122:lvgl/src/widgets/lv_btnmatrix.c ****     const char ** map_row = map;
 123:lvgl/src/widgets/lv_btnmatrix.c **** 
 124:lvgl/src/widgets/lv_btnmatrix.c ****     /*Count the units and the buttons in a line*/
 125:lvgl/src/widgets/lv_btnmatrix.c ****     uint32_t row;
 126:lvgl/src/widgets/lv_btnmatrix.c ****     for(row = 0; row < btnm->row_cnt; row++) {
 127:lvgl/src/widgets/lv_btnmatrix.c ****         uint16_t unit_cnt = 0;           /*Number of units in a row*/
 128:lvgl/src/widgets/lv_btnmatrix.c ****         uint16_t btn_cnt = 0;            /*Number of buttons in a row*/
 129:lvgl/src/widgets/lv_btnmatrix.c ****         /*Count the buttons and units in this row*/
 130:lvgl/src/widgets/lv_btnmatrix.c ****         while(map_row[btn_cnt] && strcmp(map_row[btn_cnt], "\n") != 0 && map_row[btn_cnt][0] != '\0
 131:lvgl/src/widgets/lv_btnmatrix.c ****             unit_cnt += get_button_width(btnm->ctrl_bits[btn_tot_i + btn_cnt]);
 132:lvgl/src/widgets/lv_btnmatrix.c ****             btn_cnt++;
 133:lvgl/src/widgets/lv_btnmatrix.c ****         }
 134:lvgl/src/widgets/lv_btnmatrix.c **** 
 135:lvgl/src/widgets/lv_btnmatrix.c ****         /*Only deal with the non empty lines*/
 136:lvgl/src/widgets/lv_btnmatrix.c ****         if(btn_cnt == 0) {
 137:lvgl/src/widgets/lv_btnmatrix.c ****             map_row = &map_row[btn_cnt + 1];       /*Set the map to the next row*/
 138:lvgl/src/widgets/lv_btnmatrix.c ****             continue;
 139:lvgl/src/widgets/lv_btnmatrix.c ****         }
 140:lvgl/src/widgets/lv_btnmatrix.c **** 
 141:lvgl/src/widgets/lv_btnmatrix.c ****         lv_coord_t row_y1 = ptop + (max_h_no_gap * row) / btnm->row_cnt + row * prow;
 142:lvgl/src/widgets/lv_btnmatrix.c ****         lv_coord_t row_y2 = ptop + (max_h_no_gap * (row + 1)) / btnm->row_cnt + row * prow - 1;
 143:lvgl/src/widgets/lv_btnmatrix.c **** 
 144:lvgl/src/widgets/lv_btnmatrix.c ****         /*Set the button size and positions*/
 145:lvgl/src/widgets/lv_btnmatrix.c ****         lv_coord_t max_w_no_gap = max_w - (pcol * (btn_cnt - 1));
ARM GAS  C:\Users\OSD\AppData\Local\Temp\ccnvvkrZ.s 			page 4


 146:lvgl/src/widgets/lv_btnmatrix.c ****         if(max_w_no_gap < 0) max_w_no_gap = 0;
 147:lvgl/src/widgets/lv_btnmatrix.c **** 
 148:lvgl/src/widgets/lv_btnmatrix.c ****         uint32_t row_unit_cnt = 0;  /*The current unit position in the row*/
 149:lvgl/src/widgets/lv_btnmatrix.c ****         uint32_t btn;
 150:lvgl/src/widgets/lv_btnmatrix.c ****         for(btn = 0; btn < btn_cnt; btn++, btn_tot_i++, txt_tot_i++) {
 151:lvgl/src/widgets/lv_btnmatrix.c ****             uint32_t btn_u = get_button_width(btnm->ctrl_bits[btn_tot_i]);
 152:lvgl/src/widgets/lv_btnmatrix.c **** 
 153:lvgl/src/widgets/lv_btnmatrix.c ****             lv_coord_t btn_x1 = (max_w_no_gap * row_unit_cnt) / unit_cnt + btn * pcol;
 154:lvgl/src/widgets/lv_btnmatrix.c ****             lv_coord_t btn_x2 = (max_w_no_gap * (row_unit_cnt + btn_u)) / unit_cnt + btn * pcol - 1
 155:lvgl/src/widgets/lv_btnmatrix.c **** 
 156:lvgl/src/widgets/lv_btnmatrix.c ****             /*If RTL start from the right*/
 157:lvgl/src/widgets/lv_btnmatrix.c ****             if(base_dir == LV_BASE_DIR_RTL) {
 158:lvgl/src/widgets/lv_btnmatrix.c ****                 lv_coord_t tmp = btn_x1;
 159:lvgl/src/widgets/lv_btnmatrix.c ****                 btn_x1 = btn_x2;
 160:lvgl/src/widgets/lv_btnmatrix.c ****                 btn_x2 = tmp;
 161:lvgl/src/widgets/lv_btnmatrix.c **** 
 162:lvgl/src/widgets/lv_btnmatrix.c ****                 btn_x1 = max_w - btn_x1;
 163:lvgl/src/widgets/lv_btnmatrix.c ****                 btn_x2 = max_w - btn_x2;
 164:lvgl/src/widgets/lv_btnmatrix.c ****             }
 165:lvgl/src/widgets/lv_btnmatrix.c **** 
 166:lvgl/src/widgets/lv_btnmatrix.c ****             btn_x1 += pleft;
 167:lvgl/src/widgets/lv_btnmatrix.c ****             btn_x2 += pleft;
 168:lvgl/src/widgets/lv_btnmatrix.c **** 
 169:lvgl/src/widgets/lv_btnmatrix.c ****             lv_area_set(&btnm->button_areas[btn_tot_i], btn_x1, row_y1, btn_x2, row_y2);
 170:lvgl/src/widgets/lv_btnmatrix.c **** 
 171:lvgl/src/widgets/lv_btnmatrix.c ****             row_unit_cnt += btn_u;
 172:lvgl/src/widgets/lv_btnmatrix.c ****         }
 173:lvgl/src/widgets/lv_btnmatrix.c **** 
 174:lvgl/src/widgets/lv_btnmatrix.c ****         map_row = &map_row[btn_cnt + 1];       /*Set the map to the next line*/
 175:lvgl/src/widgets/lv_btnmatrix.c ****     }
 176:lvgl/src/widgets/lv_btnmatrix.c **** 
 177:lvgl/src/widgets/lv_btnmatrix.c ****     /*Popovers in the top row will draw outside the widget and the extended draw size depends on
 178:lvgl/src/widgets/lv_btnmatrix.c ****      *the row height which may have changed when setting the new map*/
 179:lvgl/src/widgets/lv_btnmatrix.c ****     lv_obj_refresh_ext_draw_size(obj);
 180:lvgl/src/widgets/lv_btnmatrix.c **** 
 181:lvgl/src/widgets/lv_btnmatrix.c ****     lv_obj_invalidate(obj);
 182:lvgl/src/widgets/lv_btnmatrix.c **** }
 183:lvgl/src/widgets/lv_btnmatrix.c **** 
 184:lvgl/src/widgets/lv_btnmatrix.c **** void lv_btnmatrix_set_ctrl_map(lv_obj_t * obj, const lv_btnmatrix_ctrl_t ctrl_map[])
 185:lvgl/src/widgets/lv_btnmatrix.c **** {
 186:lvgl/src/widgets/lv_btnmatrix.c ****     LV_ASSERT_OBJ(obj, MY_CLASS);
 187:lvgl/src/widgets/lv_btnmatrix.c **** 
 188:lvgl/src/widgets/lv_btnmatrix.c ****     lv_btnmatrix_t * btnm = (lv_btnmatrix_t *)obj;
 189:lvgl/src/widgets/lv_btnmatrix.c ****     lv_memcpy(btnm->ctrl_bits, ctrl_map, sizeof(lv_btnmatrix_ctrl_t) * btnm->btn_cnt);
 190:lvgl/src/widgets/lv_btnmatrix.c **** 
 191:lvgl/src/widgets/lv_btnmatrix.c ****     lv_btnmatrix_set_map(obj, btnm->map_p);
 192:lvgl/src/widgets/lv_btnmatrix.c **** }
 193:lvgl/src/widgets/lv_btnmatrix.c **** 
 194:lvgl/src/widgets/lv_btnmatrix.c **** void lv_btnmatrix_set_selected_btn(lv_obj_t * obj, uint16_t btn_id)
 195:lvgl/src/widgets/lv_btnmatrix.c **** {
 196:lvgl/src/widgets/lv_btnmatrix.c ****     LV_ASSERT_OBJ(obj, MY_CLASS);
 197:lvgl/src/widgets/lv_btnmatrix.c **** 
 198:lvgl/src/widgets/lv_btnmatrix.c ****     lv_btnmatrix_t * btnm = (lv_btnmatrix_t *)obj;
 199:lvgl/src/widgets/lv_btnmatrix.c **** 
 200:lvgl/src/widgets/lv_btnmatrix.c ****     if(btn_id >= btnm->btn_cnt && btn_id != LV_BTNMATRIX_BTN_NONE) return;
 201:lvgl/src/widgets/lv_btnmatrix.c **** 
 202:lvgl/src/widgets/lv_btnmatrix.c ****     invalidate_button_area(obj, btnm->btn_id_sel);
ARM GAS  C:\Users\OSD\AppData\Local\Temp\ccnvvkrZ.s 			page 5


 203:lvgl/src/widgets/lv_btnmatrix.c ****     btnm->btn_id_sel = btn_id;
 204:lvgl/src/widgets/lv_btnmatrix.c ****     invalidate_button_area(obj, btn_id);
 205:lvgl/src/widgets/lv_btnmatrix.c **** }
 206:lvgl/src/widgets/lv_btnmatrix.c **** 
 207:lvgl/src/widgets/lv_btnmatrix.c **** void lv_btnmatrix_set_btn_ctrl(lv_obj_t * obj, uint16_t btn_id, lv_btnmatrix_ctrl_t ctrl)
 208:lvgl/src/widgets/lv_btnmatrix.c **** {
 209:lvgl/src/widgets/lv_btnmatrix.c ****     LV_ASSERT_OBJ(obj, MY_CLASS);
 210:lvgl/src/widgets/lv_btnmatrix.c **** 
 211:lvgl/src/widgets/lv_btnmatrix.c ****     lv_btnmatrix_t * btnm = (lv_btnmatrix_t *)obj;
 212:lvgl/src/widgets/lv_btnmatrix.c **** 
 213:lvgl/src/widgets/lv_btnmatrix.c ****     if(btn_id >= btnm->btn_cnt) return;
 214:lvgl/src/widgets/lv_btnmatrix.c **** 
 215:lvgl/src/widgets/lv_btnmatrix.c ****     if(btnm->one_check && (ctrl & LV_BTNMATRIX_CTRL_CHECKED)) {
 216:lvgl/src/widgets/lv_btnmatrix.c ****         lv_btnmatrix_clear_btn_ctrl_all(obj, LV_BTNMATRIX_CTRL_CHECKED);
 217:lvgl/src/widgets/lv_btnmatrix.c ****     }
 218:lvgl/src/widgets/lv_btnmatrix.c **** 
 219:lvgl/src/widgets/lv_btnmatrix.c ****     /* If we hide a button if all buttons are now hidden hide the whole button matrix to make focus
 220:lvgl/src/widgets/lv_btnmatrix.c ****     if(ctrl & LV_BTNMATRIX_CTRL_HIDDEN) {
 221:lvgl/src/widgets/lv_btnmatrix.c ****         bool all_buttons_hidden = true;
 222:lvgl/src/widgets/lv_btnmatrix.c ****         if(btnm->btn_cnt > 1) {
 223:lvgl/src/widgets/lv_btnmatrix.c ****             for(uint16_t btn_idx = 0; btn_idx < btnm->btn_cnt; btn_idx++) {
 224:lvgl/src/widgets/lv_btnmatrix.c ****                 if(btn_idx == btn_id) continue;
 225:lvgl/src/widgets/lv_btnmatrix.c ****                 if(!(btnm->ctrl_bits[btn_idx] & LV_BTNMATRIX_CTRL_HIDDEN)) all_buttons_hidden = fal
 226:lvgl/src/widgets/lv_btnmatrix.c ****             }
 227:lvgl/src/widgets/lv_btnmatrix.c **** 
 228:lvgl/src/widgets/lv_btnmatrix.c ****         }
 229:lvgl/src/widgets/lv_btnmatrix.c ****         if(all_buttons_hidden) lv_obj_add_flag(obj, LV_OBJ_FLAG_HIDDEN);
 230:lvgl/src/widgets/lv_btnmatrix.c ****     }
 231:lvgl/src/widgets/lv_btnmatrix.c **** 
 232:lvgl/src/widgets/lv_btnmatrix.c ****     btnm->ctrl_bits[btn_id] |= ctrl;
 233:lvgl/src/widgets/lv_btnmatrix.c ****     invalidate_button_area(obj, btn_id);
 234:lvgl/src/widgets/lv_btnmatrix.c **** 
 235:lvgl/src/widgets/lv_btnmatrix.c ****     if(ctrl & LV_BTNMATRIX_CTRL_POPOVER) {
 236:lvgl/src/widgets/lv_btnmatrix.c ****         lv_obj_refresh_ext_draw_size(obj);
 237:lvgl/src/widgets/lv_btnmatrix.c ****     }
 238:lvgl/src/widgets/lv_btnmatrix.c **** }
 239:lvgl/src/widgets/lv_btnmatrix.c **** 
 240:lvgl/src/widgets/lv_btnmatrix.c **** void lv_btnmatrix_clear_btn_ctrl(lv_obj_t * obj, uint16_t btn_id, lv_btnmatrix_ctrl_t ctrl)
 241:lvgl/src/widgets/lv_btnmatrix.c **** {
 242:lvgl/src/widgets/lv_btnmatrix.c ****     LV_ASSERT_OBJ(obj, MY_CLASS);
 243:lvgl/src/widgets/lv_btnmatrix.c **** 
 244:lvgl/src/widgets/lv_btnmatrix.c ****     lv_btnmatrix_t * btnm = (lv_btnmatrix_t *)obj;
 245:lvgl/src/widgets/lv_btnmatrix.c **** 
 246:lvgl/src/widgets/lv_btnmatrix.c ****     if(btn_id >= btnm->btn_cnt) return;
 247:lvgl/src/widgets/lv_btnmatrix.c **** 
 248:lvgl/src/widgets/lv_btnmatrix.c ****     /* If all buttons were hidden the whole button matrix is hidden so we need to check and remove 
 249:lvgl/src/widgets/lv_btnmatrix.c ****     if(ctrl & LV_BTNMATRIX_CTRL_HIDDEN) {
 250:lvgl/src/widgets/lv_btnmatrix.c ****         if(lv_obj_has_flag(obj, LV_OBJ_FLAG_HIDDEN)) lv_obj_clear_flag(obj, LV_OBJ_FLAG_HIDDEN);
 251:lvgl/src/widgets/lv_btnmatrix.c ****     }
 252:lvgl/src/widgets/lv_btnmatrix.c **** 
 253:lvgl/src/widgets/lv_btnmatrix.c ****     btnm->ctrl_bits[btn_id] &= (~ctrl);
 254:lvgl/src/widgets/lv_btnmatrix.c ****     invalidate_button_area(obj, btn_id);
 255:lvgl/src/widgets/lv_btnmatrix.c **** 
 256:lvgl/src/widgets/lv_btnmatrix.c ****     if(ctrl & LV_BTNMATRIX_CTRL_POPOVER) {
 257:lvgl/src/widgets/lv_btnmatrix.c ****         lv_obj_refresh_ext_draw_size(obj);
 258:lvgl/src/widgets/lv_btnmatrix.c ****     }
 259:lvgl/src/widgets/lv_btnmatrix.c **** }
ARM GAS  C:\Users\OSD\AppData\Local\Temp\ccnvvkrZ.s 			page 6


 260:lvgl/src/widgets/lv_btnmatrix.c **** 
 261:lvgl/src/widgets/lv_btnmatrix.c **** void lv_btnmatrix_set_btn_ctrl_all(lv_obj_t * obj, lv_btnmatrix_ctrl_t ctrl)
 262:lvgl/src/widgets/lv_btnmatrix.c **** {
 263:lvgl/src/widgets/lv_btnmatrix.c ****     LV_ASSERT_OBJ(obj, MY_CLASS);
 264:lvgl/src/widgets/lv_btnmatrix.c **** 
 265:lvgl/src/widgets/lv_btnmatrix.c ****     lv_btnmatrix_t * btnm = (lv_btnmatrix_t *)obj;;
 266:lvgl/src/widgets/lv_btnmatrix.c ****     uint16_t i;
 267:lvgl/src/widgets/lv_btnmatrix.c ****     for(i = 0; i < btnm->btn_cnt; i++) {
 268:lvgl/src/widgets/lv_btnmatrix.c ****         lv_btnmatrix_set_btn_ctrl(obj, i, ctrl);
 269:lvgl/src/widgets/lv_btnmatrix.c ****     }
 270:lvgl/src/widgets/lv_btnmatrix.c **** }
 271:lvgl/src/widgets/lv_btnmatrix.c **** 
 272:lvgl/src/widgets/lv_btnmatrix.c **** void lv_btnmatrix_clear_btn_ctrl_all(lv_obj_t * obj, lv_btnmatrix_ctrl_t ctrl)
 273:lvgl/src/widgets/lv_btnmatrix.c **** {
 274:lvgl/src/widgets/lv_btnmatrix.c ****     LV_ASSERT_OBJ(obj, MY_CLASS);
 275:lvgl/src/widgets/lv_btnmatrix.c **** 
 276:lvgl/src/widgets/lv_btnmatrix.c ****     lv_btnmatrix_t * btnm = (lv_btnmatrix_t *)obj;;
 277:lvgl/src/widgets/lv_btnmatrix.c ****     uint16_t i;
 278:lvgl/src/widgets/lv_btnmatrix.c ****     for(i = 0; i < btnm->btn_cnt; i++) {
 279:lvgl/src/widgets/lv_btnmatrix.c ****         lv_btnmatrix_clear_btn_ctrl(obj, i, ctrl);
 280:lvgl/src/widgets/lv_btnmatrix.c ****     }
 281:lvgl/src/widgets/lv_btnmatrix.c **** }
 282:lvgl/src/widgets/lv_btnmatrix.c **** 
 283:lvgl/src/widgets/lv_btnmatrix.c **** void lv_btnmatrix_set_btn_width(lv_obj_t * obj, uint16_t btn_id, uint8_t width)
 284:lvgl/src/widgets/lv_btnmatrix.c **** {
 285:lvgl/src/widgets/lv_btnmatrix.c ****     LV_ASSERT_OBJ(obj, MY_CLASS);
 286:lvgl/src/widgets/lv_btnmatrix.c **** 
 287:lvgl/src/widgets/lv_btnmatrix.c ****     lv_btnmatrix_t * btnm = (lv_btnmatrix_t *)obj;;
 288:lvgl/src/widgets/lv_btnmatrix.c ****     if(btn_id >= btnm->btn_cnt) return;
 289:lvgl/src/widgets/lv_btnmatrix.c ****     btnm->ctrl_bits[btn_id] &= (~LV_BTNMATRIX_WIDTH_MASK);
 290:lvgl/src/widgets/lv_btnmatrix.c ****     btnm->ctrl_bits[btn_id] |= (LV_BTNMATRIX_WIDTH_MASK & width);
 291:lvgl/src/widgets/lv_btnmatrix.c **** 
 292:lvgl/src/widgets/lv_btnmatrix.c ****     lv_btnmatrix_set_map(obj, btnm->map_p);
 293:lvgl/src/widgets/lv_btnmatrix.c **** }
 294:lvgl/src/widgets/lv_btnmatrix.c **** 
 295:lvgl/src/widgets/lv_btnmatrix.c **** void lv_btnmatrix_set_one_checked(lv_obj_t * obj, bool en)
 296:lvgl/src/widgets/lv_btnmatrix.c **** {
 297:lvgl/src/widgets/lv_btnmatrix.c ****     LV_ASSERT_OBJ(obj, MY_CLASS);
 298:lvgl/src/widgets/lv_btnmatrix.c **** 
 299:lvgl/src/widgets/lv_btnmatrix.c ****     lv_btnmatrix_t * btnm = (lv_btnmatrix_t *)obj;;
 300:lvgl/src/widgets/lv_btnmatrix.c ****     btnm->one_check     = en;
 301:lvgl/src/widgets/lv_btnmatrix.c **** 
 302:lvgl/src/widgets/lv_btnmatrix.c ****     /*If more than one button is toggled only the first one should be*/
 303:lvgl/src/widgets/lv_btnmatrix.c ****     make_one_button_checked(obj, 0);
 304:lvgl/src/widgets/lv_btnmatrix.c **** }
 305:lvgl/src/widgets/lv_btnmatrix.c **** 
 306:lvgl/src/widgets/lv_btnmatrix.c **** /*=====================
 307:lvgl/src/widgets/lv_btnmatrix.c ****  * Getter functions
 308:lvgl/src/widgets/lv_btnmatrix.c ****  *====================*/
 309:lvgl/src/widgets/lv_btnmatrix.c **** 
 310:lvgl/src/widgets/lv_btnmatrix.c **** const char ** lv_btnmatrix_get_map(const lv_obj_t * obj)
 311:lvgl/src/widgets/lv_btnmatrix.c **** {
 312:lvgl/src/widgets/lv_btnmatrix.c ****     LV_ASSERT_OBJ(obj, MY_CLASS);
 313:lvgl/src/widgets/lv_btnmatrix.c **** 
 314:lvgl/src/widgets/lv_btnmatrix.c ****     lv_btnmatrix_t * btnm = (lv_btnmatrix_t *)obj;;
 315:lvgl/src/widgets/lv_btnmatrix.c ****     return btnm->map_p;
 316:lvgl/src/widgets/lv_btnmatrix.c **** }
ARM GAS  C:\Users\OSD\AppData\Local\Temp\ccnvvkrZ.s 			page 7


 317:lvgl/src/widgets/lv_btnmatrix.c **** 
 318:lvgl/src/widgets/lv_btnmatrix.c **** uint16_t lv_btnmatrix_get_selected_btn(const lv_obj_t * obj)
 319:lvgl/src/widgets/lv_btnmatrix.c **** {
 320:lvgl/src/widgets/lv_btnmatrix.c ****     LV_ASSERT_OBJ(obj, MY_CLASS);
 321:lvgl/src/widgets/lv_btnmatrix.c **** 
 322:lvgl/src/widgets/lv_btnmatrix.c ****     lv_btnmatrix_t * btnm = (lv_btnmatrix_t *)obj;;
 323:lvgl/src/widgets/lv_btnmatrix.c ****     return btnm->btn_id_sel;
 324:lvgl/src/widgets/lv_btnmatrix.c **** }
 325:lvgl/src/widgets/lv_btnmatrix.c **** 
 326:lvgl/src/widgets/lv_btnmatrix.c **** const char * lv_btnmatrix_get_btn_text(const lv_obj_t * obj, uint16_t btn_id)
 327:lvgl/src/widgets/lv_btnmatrix.c **** {
 328:lvgl/src/widgets/lv_btnmatrix.c ****     LV_ASSERT_OBJ(obj, MY_CLASS);
 329:lvgl/src/widgets/lv_btnmatrix.c **** 
 330:lvgl/src/widgets/lv_btnmatrix.c ****     if(btn_id == LV_BTNMATRIX_BTN_NONE) return NULL;
 331:lvgl/src/widgets/lv_btnmatrix.c **** 
 332:lvgl/src/widgets/lv_btnmatrix.c ****     lv_btnmatrix_t * btnm = (lv_btnmatrix_t *)obj;
 333:lvgl/src/widgets/lv_btnmatrix.c ****     if(btn_id > btnm->btn_cnt) return NULL;
 334:lvgl/src/widgets/lv_btnmatrix.c **** 
 335:lvgl/src/widgets/lv_btnmatrix.c ****     uint16_t txt_i = 0;
 336:lvgl/src/widgets/lv_btnmatrix.c ****     uint16_t btn_i = 0;
 337:lvgl/src/widgets/lv_btnmatrix.c **** 
 338:lvgl/src/widgets/lv_btnmatrix.c ****     /*Search the text of btnm->btn_pr the buttons text in the map
 339:lvgl/src/widgets/lv_btnmatrix.c ****      *Skip "\n"-s*/
 340:lvgl/src/widgets/lv_btnmatrix.c ****     while(btn_i != btn_id) {
 341:lvgl/src/widgets/lv_btnmatrix.c ****         btn_i++;
 342:lvgl/src/widgets/lv_btnmatrix.c ****         txt_i++;
 343:lvgl/src/widgets/lv_btnmatrix.c ****         if(strcmp(btnm->map_p[txt_i], "\n") == 0) txt_i++;
 344:lvgl/src/widgets/lv_btnmatrix.c ****     }
 345:lvgl/src/widgets/lv_btnmatrix.c **** 
 346:lvgl/src/widgets/lv_btnmatrix.c ****     if(btn_i == btnm->btn_cnt) return NULL;
 347:lvgl/src/widgets/lv_btnmatrix.c **** 
 348:lvgl/src/widgets/lv_btnmatrix.c ****     return btnm->map_p[txt_i];
 349:lvgl/src/widgets/lv_btnmatrix.c **** }
 350:lvgl/src/widgets/lv_btnmatrix.c **** 
 351:lvgl/src/widgets/lv_btnmatrix.c **** bool lv_btnmatrix_has_btn_ctrl(lv_obj_t * obj, uint16_t btn_id, lv_btnmatrix_ctrl_t ctrl)
 352:lvgl/src/widgets/lv_btnmatrix.c **** {
 353:lvgl/src/widgets/lv_btnmatrix.c ****     LV_ASSERT_OBJ(obj, MY_CLASS);
 354:lvgl/src/widgets/lv_btnmatrix.c **** 
 355:lvgl/src/widgets/lv_btnmatrix.c ****     lv_btnmatrix_t * btnm = (lv_btnmatrix_t *)obj;;
 356:lvgl/src/widgets/lv_btnmatrix.c ****     if(btn_id >= btnm->btn_cnt) return false;
 357:lvgl/src/widgets/lv_btnmatrix.c **** 
 358:lvgl/src/widgets/lv_btnmatrix.c ****     return ((btnm->ctrl_bits[btn_id] & ctrl) == ctrl) ? true : false;
 359:lvgl/src/widgets/lv_btnmatrix.c **** }
 360:lvgl/src/widgets/lv_btnmatrix.c **** 
 361:lvgl/src/widgets/lv_btnmatrix.c **** bool lv_btnmatrix_get_one_checked(const lv_obj_t * obj)
 362:lvgl/src/widgets/lv_btnmatrix.c **** {
 363:lvgl/src/widgets/lv_btnmatrix.c ****     LV_ASSERT_OBJ(obj, MY_CLASS);
 364:lvgl/src/widgets/lv_btnmatrix.c **** 
 365:lvgl/src/widgets/lv_btnmatrix.c ****     lv_btnmatrix_t * btnm = (lv_btnmatrix_t *)obj;;
 366:lvgl/src/widgets/lv_btnmatrix.c **** 
 367:lvgl/src/widgets/lv_btnmatrix.c ****     return btnm->one_check;
 368:lvgl/src/widgets/lv_btnmatrix.c **** }
 369:lvgl/src/widgets/lv_btnmatrix.c **** 
 370:lvgl/src/widgets/lv_btnmatrix.c **** /**********************
 371:lvgl/src/widgets/lv_btnmatrix.c ****  *   STATIC FUNCTIONS
 372:lvgl/src/widgets/lv_btnmatrix.c ****  **********************/
 373:lvgl/src/widgets/lv_btnmatrix.c **** 
ARM GAS  C:\Users\OSD\AppData\Local\Temp\ccnvvkrZ.s 			page 8


 374:lvgl/src/widgets/lv_btnmatrix.c **** static void lv_btnmatrix_constructor(const lv_obj_class_t * class_p, lv_obj_t * obj)
 375:lvgl/src/widgets/lv_btnmatrix.c **** {
 376:lvgl/src/widgets/lv_btnmatrix.c ****     LV_UNUSED(class_p);
 377:lvgl/src/widgets/lv_btnmatrix.c ****     LV_TRACE_OBJ_CREATE("begin");
 378:lvgl/src/widgets/lv_btnmatrix.c ****     lv_btnmatrix_t * btnm = (lv_btnmatrix_t *)obj;
 379:lvgl/src/widgets/lv_btnmatrix.c ****     btnm->btn_cnt        = 0;
 380:lvgl/src/widgets/lv_btnmatrix.c ****     btnm->row_cnt        = 0;
 381:lvgl/src/widgets/lv_btnmatrix.c ****     btnm->btn_id_sel     = LV_BTNMATRIX_BTN_NONE;
 382:lvgl/src/widgets/lv_btnmatrix.c ****     btnm->button_areas   = NULL;
 383:lvgl/src/widgets/lv_btnmatrix.c ****     btnm->ctrl_bits      = NULL;
 384:lvgl/src/widgets/lv_btnmatrix.c ****     btnm->map_p          = NULL;
 385:lvgl/src/widgets/lv_btnmatrix.c ****     btnm->one_check      = 0;
 386:lvgl/src/widgets/lv_btnmatrix.c **** 
 387:lvgl/src/widgets/lv_btnmatrix.c ****     lv_btnmatrix_set_map(obj, lv_btnmatrix_def_map);
 388:lvgl/src/widgets/lv_btnmatrix.c **** 
 389:lvgl/src/widgets/lv_btnmatrix.c ****     LV_TRACE_OBJ_CREATE("finished");
 390:lvgl/src/widgets/lv_btnmatrix.c **** }
 391:lvgl/src/widgets/lv_btnmatrix.c **** 
 392:lvgl/src/widgets/lv_btnmatrix.c **** static void lv_btnmatrix_destructor(const lv_obj_class_t * class_p, lv_obj_t * obj)
 393:lvgl/src/widgets/lv_btnmatrix.c **** {
 394:lvgl/src/widgets/lv_btnmatrix.c ****     LV_TRACE_OBJ_CREATE("begin");
 395:lvgl/src/widgets/lv_btnmatrix.c ****     LV_UNUSED(class_p);
 396:lvgl/src/widgets/lv_btnmatrix.c ****     lv_btnmatrix_t * btnm = (lv_btnmatrix_t *)obj;
 397:lvgl/src/widgets/lv_btnmatrix.c ****     lv_mem_free(btnm->button_areas);
 398:lvgl/src/widgets/lv_btnmatrix.c ****     lv_mem_free(btnm->ctrl_bits);
 399:lvgl/src/widgets/lv_btnmatrix.c ****     btnm->button_areas = NULL;
 400:lvgl/src/widgets/lv_btnmatrix.c ****     btnm->ctrl_bits = NULL;
 401:lvgl/src/widgets/lv_btnmatrix.c ****     LV_TRACE_OBJ_CREATE("finished");
 402:lvgl/src/widgets/lv_btnmatrix.c **** }
 403:lvgl/src/widgets/lv_btnmatrix.c **** 
 404:lvgl/src/widgets/lv_btnmatrix.c **** static void lv_btnmatrix_event(const lv_obj_class_t * class_p, lv_event_t * e)
 405:lvgl/src/widgets/lv_btnmatrix.c **** {
 406:lvgl/src/widgets/lv_btnmatrix.c ****     LV_UNUSED(class_p);
 407:lvgl/src/widgets/lv_btnmatrix.c **** 
 408:lvgl/src/widgets/lv_btnmatrix.c ****     lv_res_t res;
 409:lvgl/src/widgets/lv_btnmatrix.c **** 
 410:lvgl/src/widgets/lv_btnmatrix.c ****     /*Call the ancestor's event handler*/
 411:lvgl/src/widgets/lv_btnmatrix.c ****     res = lv_obj_event_base(MY_CLASS, e);
 412:lvgl/src/widgets/lv_btnmatrix.c ****     if(res != LV_RES_OK) return;
 413:lvgl/src/widgets/lv_btnmatrix.c **** 
 414:lvgl/src/widgets/lv_btnmatrix.c ****     lv_event_code_t code = lv_event_get_code(e);
 415:lvgl/src/widgets/lv_btnmatrix.c ****     lv_obj_t * obj = lv_event_get_target(e);
 416:lvgl/src/widgets/lv_btnmatrix.c ****     lv_btnmatrix_t * btnm = (lv_btnmatrix_t *)obj;
 417:lvgl/src/widgets/lv_btnmatrix.c ****     lv_point_t p;
 418:lvgl/src/widgets/lv_btnmatrix.c **** 
 419:lvgl/src/widgets/lv_btnmatrix.c ****     if(code == LV_EVENT_REFR_EXT_DRAW_SIZE) {
 420:lvgl/src/widgets/lv_btnmatrix.c ****         if(has_popovers_in_top_row(obj)) {
 421:lvgl/src/widgets/lv_btnmatrix.c ****             /*reserve one row worth of extra space to account for popovers in the top row*/
 422:lvgl/src/widgets/lv_btnmatrix.c ****             lv_coord_t s = btnm->row_cnt > 0 ? lv_obj_get_content_height(obj) / btnm->row_cnt : 0;
 423:lvgl/src/widgets/lv_btnmatrix.c ****             lv_event_set_ext_draw_size(e, s);
 424:lvgl/src/widgets/lv_btnmatrix.c ****         }
 425:lvgl/src/widgets/lv_btnmatrix.c ****     }
 426:lvgl/src/widgets/lv_btnmatrix.c ****     if(code == LV_EVENT_STYLE_CHANGED) {
 427:lvgl/src/widgets/lv_btnmatrix.c ****         lv_btnmatrix_set_map(obj, btnm->map_p);
 428:lvgl/src/widgets/lv_btnmatrix.c ****     }
 429:lvgl/src/widgets/lv_btnmatrix.c ****     else if(code == LV_EVENT_SIZE_CHANGED) {
 430:lvgl/src/widgets/lv_btnmatrix.c ****         lv_btnmatrix_set_map(obj, btnm->map_p);
ARM GAS  C:\Users\OSD\AppData\Local\Temp\ccnvvkrZ.s 			page 9


 431:lvgl/src/widgets/lv_btnmatrix.c ****     }
 432:lvgl/src/widgets/lv_btnmatrix.c ****     else if(code == LV_EVENT_PRESSED) {
 433:lvgl/src/widgets/lv_btnmatrix.c ****         void * param = lv_event_get_param(e);
 434:lvgl/src/widgets/lv_btnmatrix.c ****         invalidate_button_area(obj, btnm->btn_id_sel);
 435:lvgl/src/widgets/lv_btnmatrix.c **** 
 436:lvgl/src/widgets/lv_btnmatrix.c ****         lv_indev_type_t indev_type = lv_indev_get_type(lv_indev_get_act());
 437:lvgl/src/widgets/lv_btnmatrix.c ****         if(indev_type == LV_INDEV_TYPE_POINTER || indev_type == LV_INDEV_TYPE_BUTTON) {
 438:lvgl/src/widgets/lv_btnmatrix.c ****             uint16_t btn_pr;
 439:lvgl/src/widgets/lv_btnmatrix.c ****             /*Search the pressed area*/
 440:lvgl/src/widgets/lv_btnmatrix.c ****             lv_indev_get_point(param, &p);
 441:lvgl/src/widgets/lv_btnmatrix.c ****             btn_pr = get_button_from_point(obj, &p);
 442:lvgl/src/widgets/lv_btnmatrix.c ****             /*Handle the case where there is no button there*/
 443:lvgl/src/widgets/lv_btnmatrix.c ****             btnm->btn_id_sel = LV_BTNMATRIX_BTN_NONE;
 444:lvgl/src/widgets/lv_btnmatrix.c ****             if(btn_pr != LV_BTNMATRIX_BTN_NONE) {
 445:lvgl/src/widgets/lv_btnmatrix.c ****                 if(button_is_inactive(btnm->ctrl_bits[btn_pr]) == false &&
 446:lvgl/src/widgets/lv_btnmatrix.c ****                    button_is_hidden(btnm->ctrl_bits[btn_pr]) == false) {
 447:lvgl/src/widgets/lv_btnmatrix.c ****                     btnm->btn_id_sel = btn_pr;
 448:lvgl/src/widgets/lv_btnmatrix.c ****                     invalidate_button_area(obj, btnm->btn_id_sel); /*Invalidate the new area*/
 449:lvgl/src/widgets/lv_btnmatrix.c ****                 }
 450:lvgl/src/widgets/lv_btnmatrix.c ****             }
 451:lvgl/src/widgets/lv_btnmatrix.c ****             else {
 452:lvgl/src/widgets/lv_btnmatrix.c ****                 btnm->btn_id_sel = LV_BTNMATRIX_BTN_NONE;
 453:lvgl/src/widgets/lv_btnmatrix.c ****             }
 454:lvgl/src/widgets/lv_btnmatrix.c ****         }
 455:lvgl/src/widgets/lv_btnmatrix.c **** 
 456:lvgl/src/widgets/lv_btnmatrix.c ****         if(btnm->btn_id_sel != LV_BTNMATRIX_BTN_NONE) {
 457:lvgl/src/widgets/lv_btnmatrix.c ****             if(button_is_click_trig(btnm->ctrl_bits[btnm->btn_id_sel]) == false &&
 458:lvgl/src/widgets/lv_btnmatrix.c ****                button_is_popover(btnm->ctrl_bits[btnm->btn_id_sel]) == false &&
 459:lvgl/src/widgets/lv_btnmatrix.c ****                button_is_inactive(btnm->ctrl_bits[btnm->btn_id_sel]) == false &&
 460:lvgl/src/widgets/lv_btnmatrix.c ****                button_is_hidden(btnm->ctrl_bits[btnm->btn_id_sel]) == false) {
 461:lvgl/src/widgets/lv_btnmatrix.c ****                 uint32_t b = btnm->btn_id_sel;
 462:lvgl/src/widgets/lv_btnmatrix.c ****                 res        = lv_event_send(obj, LV_EVENT_VALUE_CHANGED, &b);
 463:lvgl/src/widgets/lv_btnmatrix.c ****                 if(res != LV_RES_OK) return;
 464:lvgl/src/widgets/lv_btnmatrix.c ****             }
 465:lvgl/src/widgets/lv_btnmatrix.c ****         }
 466:lvgl/src/widgets/lv_btnmatrix.c ****     }
 467:lvgl/src/widgets/lv_btnmatrix.c ****     else if(code == LV_EVENT_PRESSING) {
 468:lvgl/src/widgets/lv_btnmatrix.c ****         void * param = lv_event_get_param(e);
 469:lvgl/src/widgets/lv_btnmatrix.c ****         uint16_t btn_pr = LV_BTNMATRIX_BTN_NONE;
 470:lvgl/src/widgets/lv_btnmatrix.c ****         /*Search the pressed area*/
 471:lvgl/src/widgets/lv_btnmatrix.c ****         lv_indev_t * indev = lv_indev_get_act();
 472:lvgl/src/widgets/lv_btnmatrix.c ****         lv_indev_type_t indev_type = lv_indev_get_type(indev);
 473:lvgl/src/widgets/lv_btnmatrix.c ****         if(indev_type == LV_INDEV_TYPE_ENCODER || indev_type == LV_INDEV_TYPE_KEYPAD) return;
 474:lvgl/src/widgets/lv_btnmatrix.c **** 
 475:lvgl/src/widgets/lv_btnmatrix.c ****         lv_indev_get_point(indev, &p);
 476:lvgl/src/widgets/lv_btnmatrix.c ****         btn_pr = get_button_from_point(obj, &p);
 477:lvgl/src/widgets/lv_btnmatrix.c ****         /*Invalidate to old and the new areas*/
 478:lvgl/src/widgets/lv_btnmatrix.c ****         if(btn_pr != btnm->btn_id_sel) {
 479:lvgl/src/widgets/lv_btnmatrix.c ****             if(btnm->btn_id_sel != LV_BTNMATRIX_BTN_NONE) {
 480:lvgl/src/widgets/lv_btnmatrix.c ****                 invalidate_button_area(obj, btnm->btn_id_sel);
 481:lvgl/src/widgets/lv_btnmatrix.c ****             }
 482:lvgl/src/widgets/lv_btnmatrix.c **** 
 483:lvgl/src/widgets/lv_btnmatrix.c ****             btnm->btn_id_sel = btn_pr;
 484:lvgl/src/widgets/lv_btnmatrix.c **** 
 485:lvgl/src/widgets/lv_btnmatrix.c ****             lv_indev_reset_long_press(param); /*Start the log press time again on the new button*/
 486:lvgl/src/widgets/lv_btnmatrix.c ****             if(btn_pr != LV_BTNMATRIX_BTN_NONE &&
 487:lvgl/src/widgets/lv_btnmatrix.c ****                button_is_inactive(btnm->ctrl_bits[btn_pr]) == false &&
ARM GAS  C:\Users\OSD\AppData\Local\Temp\ccnvvkrZ.s 			page 10


 488:lvgl/src/widgets/lv_btnmatrix.c ****                button_is_hidden(btnm->ctrl_bits[btn_pr]) == false) {
 489:lvgl/src/widgets/lv_btnmatrix.c ****                 invalidate_button_area(obj, btn_pr);
 490:lvgl/src/widgets/lv_btnmatrix.c ****                 /*Send VALUE_CHANGED for the newly pressed button*/
 491:lvgl/src/widgets/lv_btnmatrix.c ****                 if(button_is_click_trig(btnm->ctrl_bits[btn_pr]) == false &&
 492:lvgl/src/widgets/lv_btnmatrix.c ****                    button_is_popover(btnm->ctrl_bits[btnm->btn_id_sel]) == false) {
 493:lvgl/src/widgets/lv_btnmatrix.c ****                     uint32_t b = btn_pr;
 494:lvgl/src/widgets/lv_btnmatrix.c ****                     res = lv_event_send(obj, LV_EVENT_VALUE_CHANGED, &b);
 495:lvgl/src/widgets/lv_btnmatrix.c ****                     if(res != LV_RES_OK) return;
 496:lvgl/src/widgets/lv_btnmatrix.c ****                 }
 497:lvgl/src/widgets/lv_btnmatrix.c ****             }
 498:lvgl/src/widgets/lv_btnmatrix.c ****         }
 499:lvgl/src/widgets/lv_btnmatrix.c ****     }
 500:lvgl/src/widgets/lv_btnmatrix.c ****     else if(code == LV_EVENT_RELEASED) {
 501:lvgl/src/widgets/lv_btnmatrix.c ****         if(btnm->btn_id_sel != LV_BTNMATRIX_BTN_NONE) {
 502:lvgl/src/widgets/lv_btnmatrix.c ****             /*Toggle the button if enabled*/
 503:lvgl/src/widgets/lv_btnmatrix.c ****             if(button_is_checkable(btnm->ctrl_bits[btnm->btn_id_sel]) &&
 504:lvgl/src/widgets/lv_btnmatrix.c ****                !button_is_inactive(btnm->ctrl_bits[btnm->btn_id_sel])) {
 505:lvgl/src/widgets/lv_btnmatrix.c ****                 if(button_get_checked(btnm->ctrl_bits[btnm->btn_id_sel]) && !btnm->one_check) {
 506:lvgl/src/widgets/lv_btnmatrix.c ****                     btnm->ctrl_bits[btnm->btn_id_sel] &= (~LV_BTNMATRIX_CTRL_CHECKED);
 507:lvgl/src/widgets/lv_btnmatrix.c ****                 }
 508:lvgl/src/widgets/lv_btnmatrix.c ****                 else {
 509:lvgl/src/widgets/lv_btnmatrix.c ****                     btnm->ctrl_bits[btnm->btn_id_sel] |= LV_BTNMATRIX_CTRL_CHECKED;
 510:lvgl/src/widgets/lv_btnmatrix.c ****                 }
 511:lvgl/src/widgets/lv_btnmatrix.c ****                 if(btnm->one_check) make_one_button_checked(obj, btnm->btn_id_sel);
 512:lvgl/src/widgets/lv_btnmatrix.c ****             }
 513:lvgl/src/widgets/lv_btnmatrix.c **** 
 514:lvgl/src/widgets/lv_btnmatrix.c ****             if((button_is_click_trig(btnm->ctrl_bits[btnm->btn_id_sel]) == true ||
 515:lvgl/src/widgets/lv_btnmatrix.c ****                 button_is_popover(btnm->ctrl_bits[btnm->btn_id_sel]) == true) &&
 516:lvgl/src/widgets/lv_btnmatrix.c ****                button_is_inactive(btnm->ctrl_bits[btnm->btn_id_sel]) == false &&
 517:lvgl/src/widgets/lv_btnmatrix.c ****                button_is_hidden(btnm->ctrl_bits[btnm->btn_id_sel]) == false) {
 518:lvgl/src/widgets/lv_btnmatrix.c ****                 uint32_t b = btnm->btn_id_sel;
 519:lvgl/src/widgets/lv_btnmatrix.c ****                 res        = lv_event_send(obj, LV_EVENT_VALUE_CHANGED, &b);
 520:lvgl/src/widgets/lv_btnmatrix.c ****                 if(res != LV_RES_OK) return;
 521:lvgl/src/widgets/lv_btnmatrix.c ****             }
 522:lvgl/src/widgets/lv_btnmatrix.c ****         }
 523:lvgl/src/widgets/lv_btnmatrix.c **** 
 524:lvgl/src/widgets/lv_btnmatrix.c ****         /*Invalidate to old pressed area*/;
 525:lvgl/src/widgets/lv_btnmatrix.c ****         invalidate_button_area(obj, btnm->btn_id_sel);
 526:lvgl/src/widgets/lv_btnmatrix.c **** 
 527:lvgl/src/widgets/lv_btnmatrix.c ****     }
 528:lvgl/src/widgets/lv_btnmatrix.c ****     else if(code == LV_EVENT_LONG_PRESSED_REPEAT) {
 529:lvgl/src/widgets/lv_btnmatrix.c ****         if(btnm->btn_id_sel != LV_BTNMATRIX_BTN_NONE) {
 530:lvgl/src/widgets/lv_btnmatrix.c ****             if(button_is_repeat_disabled(btnm->ctrl_bits[btnm->btn_id_sel]) == false &&
 531:lvgl/src/widgets/lv_btnmatrix.c ****                button_is_inactive(btnm->ctrl_bits[btnm->btn_id_sel]) == false &&
 532:lvgl/src/widgets/lv_btnmatrix.c ****                button_is_hidden(btnm->ctrl_bits[btnm->btn_id_sel]) == false) {
 533:lvgl/src/widgets/lv_btnmatrix.c ****                 uint32_t b = btnm->btn_id_sel;
 534:lvgl/src/widgets/lv_btnmatrix.c ****                 res        = lv_event_send(obj, LV_EVENT_VALUE_CHANGED, &b);
 535:lvgl/src/widgets/lv_btnmatrix.c ****                 if(res != LV_RES_OK) return;
 536:lvgl/src/widgets/lv_btnmatrix.c ****             }
 537:lvgl/src/widgets/lv_btnmatrix.c ****         }
 538:lvgl/src/widgets/lv_btnmatrix.c ****     }
 539:lvgl/src/widgets/lv_btnmatrix.c ****     else if(code == LV_EVENT_PRESS_LOST) {
 540:lvgl/src/widgets/lv_btnmatrix.c ****         invalidate_button_area(obj, btnm->btn_id_sel);
 541:lvgl/src/widgets/lv_btnmatrix.c ****         btnm->btn_id_sel = LV_BTNMATRIX_BTN_NONE;
 542:lvgl/src/widgets/lv_btnmatrix.c ****     }
 543:lvgl/src/widgets/lv_btnmatrix.c ****     else if(code == LV_EVENT_FOCUSED) {
 544:lvgl/src/widgets/lv_btnmatrix.c ****         if(btnm->btn_cnt == 0) return;
ARM GAS  C:\Users\OSD\AppData\Local\Temp\ccnvvkrZ.s 			page 11


 545:lvgl/src/widgets/lv_btnmatrix.c **** 
 546:lvgl/src/widgets/lv_btnmatrix.c ****         lv_indev_t * indev = lv_event_get_param(e);
 547:lvgl/src/widgets/lv_btnmatrix.c ****         lv_indev_type_t indev_type = lv_indev_get_type(indev);
 548:lvgl/src/widgets/lv_btnmatrix.c **** 
 549:lvgl/src/widgets/lv_btnmatrix.c ****         /*If not focused by an input device assume the last input device*/
 550:lvgl/src/widgets/lv_btnmatrix.c ****         if(indev == NULL) {
 551:lvgl/src/widgets/lv_btnmatrix.c ****             indev = lv_indev_get_next(NULL);
 552:lvgl/src/widgets/lv_btnmatrix.c ****             indev_type = lv_indev_get_type(indev);
 553:lvgl/src/widgets/lv_btnmatrix.c ****         }
 554:lvgl/src/widgets/lv_btnmatrix.c **** 
 555:lvgl/src/widgets/lv_btnmatrix.c ****         bool editing = lv_group_get_editing(lv_obj_get_group(obj));
 556:lvgl/src/widgets/lv_btnmatrix.c ****         /*Focus the first button if there is not selected button*/
 557:lvgl/src/widgets/lv_btnmatrix.c ****         if(btnm->btn_id_sel == LV_BTNMATRIX_BTN_NONE) {
 558:lvgl/src/widgets/lv_btnmatrix.c ****             if(indev_type == LV_INDEV_TYPE_KEYPAD || (indev_type == LV_INDEV_TYPE_ENCODER && editin
 559:lvgl/src/widgets/lv_btnmatrix.c ****                 uint32_t b = 0;
 560:lvgl/src/widgets/lv_btnmatrix.c ****                 if(btnm->one_check) {
 561:lvgl/src/widgets/lv_btnmatrix.c ****                     while(button_is_hidden(btnm->ctrl_bits[b]) || button_is_inactive(btnm->ctrl_bit
 562:lvgl/src/widgets/lv_btnmatrix.c ****                           button_is_checked(btnm->ctrl_bits[b]) == false) b++;
 563:lvgl/src/widgets/lv_btnmatrix.c ****                 }
 564:lvgl/src/widgets/lv_btnmatrix.c ****                 else {
 565:lvgl/src/widgets/lv_btnmatrix.c ****                     while(button_is_hidden(btnm->ctrl_bits[b]) || button_is_inactive(btnm->ctrl_bit
 566:lvgl/src/widgets/lv_btnmatrix.c ****                 }
 567:lvgl/src/widgets/lv_btnmatrix.c **** 
 568:lvgl/src/widgets/lv_btnmatrix.c ****                 btnm->btn_id_sel = b;
 569:lvgl/src/widgets/lv_btnmatrix.c ****             }
 570:lvgl/src/widgets/lv_btnmatrix.c ****             else {
 571:lvgl/src/widgets/lv_btnmatrix.c ****                 btnm->btn_id_sel = LV_BTNMATRIX_BTN_NONE;
 572:lvgl/src/widgets/lv_btnmatrix.c ****             }
 573:lvgl/src/widgets/lv_btnmatrix.c ****         }
 574:lvgl/src/widgets/lv_btnmatrix.c ****     }
 575:lvgl/src/widgets/lv_btnmatrix.c ****     else if(code == LV_EVENT_DEFOCUSED || code == LV_EVENT_LEAVE) {
 576:lvgl/src/widgets/lv_btnmatrix.c ****         if(btnm->btn_id_sel != LV_BTNMATRIX_BTN_NONE) invalidate_button_area(obj, btnm->btn_id_sel)
 577:lvgl/src/widgets/lv_btnmatrix.c ****         btnm->btn_id_sel = LV_BTNMATRIX_BTN_NONE;
 578:lvgl/src/widgets/lv_btnmatrix.c ****     }
 579:lvgl/src/widgets/lv_btnmatrix.c ****     else if(code == LV_EVENT_KEY) {
 580:lvgl/src/widgets/lv_btnmatrix.c **** 
 581:lvgl/src/widgets/lv_btnmatrix.c ****         invalidate_button_area(obj, btnm->btn_id_sel);
 582:lvgl/src/widgets/lv_btnmatrix.c **** 
 583:lvgl/src/widgets/lv_btnmatrix.c ****         char c = *((char *)lv_event_get_param(e));
 584:lvgl/src/widgets/lv_btnmatrix.c ****         if(c == LV_KEY_RIGHT) {
 585:lvgl/src/widgets/lv_btnmatrix.c ****             if(btnm->btn_id_sel == LV_BTNMATRIX_BTN_NONE)  btnm->btn_id_sel = 0;
 586:lvgl/src/widgets/lv_btnmatrix.c ****             else btnm->btn_id_sel++;
 587:lvgl/src/widgets/lv_btnmatrix.c ****             if(btnm->btn_id_sel >= btnm->btn_cnt) btnm->btn_id_sel = 0;
 588:lvgl/src/widgets/lv_btnmatrix.c **** 
 589:lvgl/src/widgets/lv_btnmatrix.c ****             uint16_t btn_id_start = btnm->btn_id_sel;
 590:lvgl/src/widgets/lv_btnmatrix.c ****             while(button_is_hidden(btnm->ctrl_bits[btnm->btn_id_sel]) || button_is_inactive(btnm->c
 591:lvgl/src/widgets/lv_btnmatrix.c ****                 btnm->btn_id_sel++;
 592:lvgl/src/widgets/lv_btnmatrix.c ****                 if(btnm->btn_id_sel >= btnm->btn_cnt) btnm->btn_id_sel = 0;
 593:lvgl/src/widgets/lv_btnmatrix.c **** 
 594:lvgl/src/widgets/lv_btnmatrix.c ****                 if(btnm->btn_id_sel == btn_id_start) {
 595:lvgl/src/widgets/lv_btnmatrix.c ****                     btnm->btn_id_sel = LV_BTNMATRIX_BTN_NONE;
 596:lvgl/src/widgets/lv_btnmatrix.c ****                     break;
 597:lvgl/src/widgets/lv_btnmatrix.c ****                 }
 598:lvgl/src/widgets/lv_btnmatrix.c ****             }
 599:lvgl/src/widgets/lv_btnmatrix.c ****         }
 600:lvgl/src/widgets/lv_btnmatrix.c ****         else if(c == LV_KEY_LEFT) {
 601:lvgl/src/widgets/lv_btnmatrix.c ****             if(btnm->btn_id_sel == LV_BTNMATRIX_BTN_NONE) btnm->btn_id_sel = 0;
ARM GAS  C:\Users\OSD\AppData\Local\Temp\ccnvvkrZ.s 			page 12


 602:lvgl/src/widgets/lv_btnmatrix.c **** 
 603:lvgl/src/widgets/lv_btnmatrix.c ****             if(btnm->btn_id_sel == 0) btnm->btn_id_sel = btnm->btn_cnt - 1;
 604:lvgl/src/widgets/lv_btnmatrix.c ****             else if(btnm->btn_id_sel > 0) btnm->btn_id_sel--;
 605:lvgl/src/widgets/lv_btnmatrix.c **** 
 606:lvgl/src/widgets/lv_btnmatrix.c ****             uint16_t btn_id_start = btnm->btn_id_sel;
 607:lvgl/src/widgets/lv_btnmatrix.c ****             while(button_is_hidden(btnm->ctrl_bits[btnm->btn_id_sel]) || button_is_inactive(btnm->c
 608:lvgl/src/widgets/lv_btnmatrix.c ****                 if(btnm->btn_id_sel > 0) btnm->btn_id_sel--;
 609:lvgl/src/widgets/lv_btnmatrix.c ****                 else btnm->btn_id_sel = btnm->btn_cnt - 1;
 610:lvgl/src/widgets/lv_btnmatrix.c **** 
 611:lvgl/src/widgets/lv_btnmatrix.c ****                 if(btnm->btn_id_sel == btn_id_start) {
 612:lvgl/src/widgets/lv_btnmatrix.c ****                     btnm->btn_id_sel = LV_BTNMATRIX_BTN_NONE;
 613:lvgl/src/widgets/lv_btnmatrix.c ****                     break;
 614:lvgl/src/widgets/lv_btnmatrix.c ****                 }
 615:lvgl/src/widgets/lv_btnmatrix.c ****             }
 616:lvgl/src/widgets/lv_btnmatrix.c ****         }
 617:lvgl/src/widgets/lv_btnmatrix.c ****         else if(c == LV_KEY_DOWN) {
 618:lvgl/src/widgets/lv_btnmatrix.c ****             lv_coord_t col_gap = lv_obj_get_style_pad_column(obj, LV_PART_MAIN);
 619:lvgl/src/widgets/lv_btnmatrix.c ****             /*Find the area below the current*/
 620:lvgl/src/widgets/lv_btnmatrix.c ****             if(btnm->btn_id_sel == LV_BTNMATRIX_BTN_NONE) {
 621:lvgl/src/widgets/lv_btnmatrix.c ****                 btnm->btn_id_sel = 0;
 622:lvgl/src/widgets/lv_btnmatrix.c ****                 while(button_is_hidden(btnm->ctrl_bits[btnm->btn_id_sel]) || button_is_inactive(btn
 623:lvgl/src/widgets/lv_btnmatrix.c ****                     btnm->btn_id_sel++;
 624:lvgl/src/widgets/lv_btnmatrix.c ****                     if(btnm->btn_id_sel >= btnm->btn_cnt) {
 625:lvgl/src/widgets/lv_btnmatrix.c ****                         btnm->btn_id_sel = LV_BTNMATRIX_BTN_NONE;
 626:lvgl/src/widgets/lv_btnmatrix.c ****                         break;
 627:lvgl/src/widgets/lv_btnmatrix.c ****                     }
 628:lvgl/src/widgets/lv_btnmatrix.c ****                 }
 629:lvgl/src/widgets/lv_btnmatrix.c ****             }
 630:lvgl/src/widgets/lv_btnmatrix.c ****             else {
 631:lvgl/src/widgets/lv_btnmatrix.c ****                 uint16_t area_below;
 632:lvgl/src/widgets/lv_btnmatrix.c ****                 lv_coord_t pr_center =
 633:lvgl/src/widgets/lv_btnmatrix.c ****                     btnm->button_areas[btnm->btn_id_sel].x1 + (lv_area_get_width(&btnm->button_area
 634:lvgl/src/widgets/lv_btnmatrix.c **** 
 635:lvgl/src/widgets/lv_btnmatrix.c ****                 for(area_below = btnm->btn_id_sel; area_below < btnm->btn_cnt; area_below++) {
 636:lvgl/src/widgets/lv_btnmatrix.c ****                     if(btnm->button_areas[area_below].y1 > btnm->button_areas[btnm->btn_id_sel].y1 
 637:lvgl/src/widgets/lv_btnmatrix.c ****                        pr_center >= btnm->button_areas[area_below].x1 &&
 638:lvgl/src/widgets/lv_btnmatrix.c ****                        pr_center <= btnm->button_areas[area_below].x2 + col_gap &&
 639:lvgl/src/widgets/lv_btnmatrix.c ****                        button_is_inactive(btnm->ctrl_bits[area_below]) == false &&
 640:lvgl/src/widgets/lv_btnmatrix.c ****                        button_is_hidden(btnm->ctrl_bits[area_below]) == false) {
 641:lvgl/src/widgets/lv_btnmatrix.c ****                         break;
 642:lvgl/src/widgets/lv_btnmatrix.c ****                     }
 643:lvgl/src/widgets/lv_btnmatrix.c ****                 }
 644:lvgl/src/widgets/lv_btnmatrix.c **** 
 645:lvgl/src/widgets/lv_btnmatrix.c ****                 if(area_below < btnm->btn_cnt) btnm->btn_id_sel = area_below;
 646:lvgl/src/widgets/lv_btnmatrix.c ****             }
 647:lvgl/src/widgets/lv_btnmatrix.c ****         }
 648:lvgl/src/widgets/lv_btnmatrix.c ****         else if(c == LV_KEY_UP) {
 649:lvgl/src/widgets/lv_btnmatrix.c ****             lv_coord_t col_gap = lv_obj_get_style_pad_column(obj, LV_PART_MAIN);
 650:lvgl/src/widgets/lv_btnmatrix.c ****             /*Find the area below the current*/
 651:lvgl/src/widgets/lv_btnmatrix.c ****             if(btnm->btn_id_sel == LV_BTNMATRIX_BTN_NONE) {
 652:lvgl/src/widgets/lv_btnmatrix.c ****                 btnm->btn_id_sel = 0;
 653:lvgl/src/widgets/lv_btnmatrix.c ****                 while(button_is_hidden(btnm->ctrl_bits[btnm->btn_id_sel]) || button_is_inactive(btn
 654:lvgl/src/widgets/lv_btnmatrix.c ****                     btnm->btn_id_sel++;
 655:lvgl/src/widgets/lv_btnmatrix.c ****                     if(btnm->btn_id_sel >= btnm->btn_cnt) {
 656:lvgl/src/widgets/lv_btnmatrix.c ****                         btnm->btn_id_sel = LV_BTNMATRIX_BTN_NONE;
 657:lvgl/src/widgets/lv_btnmatrix.c ****                         break;
 658:lvgl/src/widgets/lv_btnmatrix.c ****                     }
ARM GAS  C:\Users\OSD\AppData\Local\Temp\ccnvvkrZ.s 			page 13


 659:lvgl/src/widgets/lv_btnmatrix.c ****                 }
 660:lvgl/src/widgets/lv_btnmatrix.c ****             }
 661:lvgl/src/widgets/lv_btnmatrix.c ****             else {
 662:lvgl/src/widgets/lv_btnmatrix.c ****                 int16_t area_above;
 663:lvgl/src/widgets/lv_btnmatrix.c ****                 lv_coord_t pr_center =
 664:lvgl/src/widgets/lv_btnmatrix.c ****                     btnm->button_areas[btnm->btn_id_sel].x1 + (lv_area_get_width(&btnm->button_area
 665:lvgl/src/widgets/lv_btnmatrix.c **** 
 666:lvgl/src/widgets/lv_btnmatrix.c ****                 for(area_above = btnm->btn_id_sel; area_above >= 0; area_above--) {
 667:lvgl/src/widgets/lv_btnmatrix.c ****                     if(btnm->button_areas[area_above].y1 < btnm->button_areas[btnm->btn_id_sel].y1 
 668:lvgl/src/widgets/lv_btnmatrix.c ****                        pr_center >= btnm->button_areas[area_above].x1 - col_gap &&
 669:lvgl/src/widgets/lv_btnmatrix.c ****                        pr_center <= btnm->button_areas[area_above].x2 &&
 670:lvgl/src/widgets/lv_btnmatrix.c ****                        button_is_inactive(btnm->ctrl_bits[area_above]) == false &&
 671:lvgl/src/widgets/lv_btnmatrix.c ****                        button_is_hidden(btnm->ctrl_bits[area_above]) == false) {
 672:lvgl/src/widgets/lv_btnmatrix.c ****                         break;
 673:lvgl/src/widgets/lv_btnmatrix.c ****                     }
 674:lvgl/src/widgets/lv_btnmatrix.c ****                 }
 675:lvgl/src/widgets/lv_btnmatrix.c ****                 if(area_above >= 0) btnm->btn_id_sel = area_above;
 676:lvgl/src/widgets/lv_btnmatrix.c ****             }
 677:lvgl/src/widgets/lv_btnmatrix.c ****         }
 678:lvgl/src/widgets/lv_btnmatrix.c **** 
 679:lvgl/src/widgets/lv_btnmatrix.c ****         invalidate_button_area(obj, btnm->btn_id_sel);
 680:lvgl/src/widgets/lv_btnmatrix.c ****     }
 681:lvgl/src/widgets/lv_btnmatrix.c ****     else if(code == LV_EVENT_DRAW_MAIN) {
 682:lvgl/src/widgets/lv_btnmatrix.c ****         draw_main(e);
 683:lvgl/src/widgets/lv_btnmatrix.c ****     }
 684:lvgl/src/widgets/lv_btnmatrix.c **** 
 685:lvgl/src/widgets/lv_btnmatrix.c **** }
 686:lvgl/src/widgets/lv_btnmatrix.c **** 
 687:lvgl/src/widgets/lv_btnmatrix.c **** static void draw_main(lv_event_t * e)
 688:lvgl/src/widgets/lv_btnmatrix.c **** {
 689:lvgl/src/widgets/lv_btnmatrix.c ****     lv_obj_t * obj = lv_event_get_target(e);
 690:lvgl/src/widgets/lv_btnmatrix.c ****     lv_btnmatrix_t * btnm = (lv_btnmatrix_t *)obj;
 691:lvgl/src/widgets/lv_btnmatrix.c ****     if(btnm->btn_cnt == 0) return;
 692:lvgl/src/widgets/lv_btnmatrix.c **** 
 693:lvgl/src/widgets/lv_btnmatrix.c ****     lv_draw_ctx_t * draw_ctx = lv_event_get_draw_ctx(e);
 694:lvgl/src/widgets/lv_btnmatrix.c ****     obj->skip_trans = 1;
 695:lvgl/src/widgets/lv_btnmatrix.c **** 
 696:lvgl/src/widgets/lv_btnmatrix.c ****     lv_area_t area_obj;
 697:lvgl/src/widgets/lv_btnmatrix.c ****     lv_obj_get_coords(obj, &area_obj);
 698:lvgl/src/widgets/lv_btnmatrix.c **** 
 699:lvgl/src/widgets/lv_btnmatrix.c ****     lv_area_t btn_area;
 700:lvgl/src/widgets/lv_btnmatrix.c **** 
 701:lvgl/src/widgets/lv_btnmatrix.c ****     uint16_t btn_i = 0;
 702:lvgl/src/widgets/lv_btnmatrix.c ****     uint16_t txt_i = 0;
 703:lvgl/src/widgets/lv_btnmatrix.c **** 
 704:lvgl/src/widgets/lv_btnmatrix.c ****     lv_draw_rect_dsc_t draw_rect_dsc_act;
 705:lvgl/src/widgets/lv_btnmatrix.c ****     lv_draw_label_dsc_t draw_label_dsc_act;
 706:lvgl/src/widgets/lv_btnmatrix.c **** 
 707:lvgl/src/widgets/lv_btnmatrix.c ****     lv_draw_rect_dsc_t draw_rect_dsc_def;
 708:lvgl/src/widgets/lv_btnmatrix.c ****     lv_draw_label_dsc_t draw_label_dsc_def;
 709:lvgl/src/widgets/lv_btnmatrix.c **** 
 710:lvgl/src/widgets/lv_btnmatrix.c ****     lv_state_t state_ori = obj->state;
 711:lvgl/src/widgets/lv_btnmatrix.c ****     obj->state = LV_STATE_DEFAULT;
 712:lvgl/src/widgets/lv_btnmatrix.c ****     obj->skip_trans = 1;
 713:lvgl/src/widgets/lv_btnmatrix.c ****     lv_draw_rect_dsc_init(&draw_rect_dsc_def);
 714:lvgl/src/widgets/lv_btnmatrix.c ****     lv_draw_label_dsc_init(&draw_label_dsc_def);
 715:lvgl/src/widgets/lv_btnmatrix.c ****     lv_obj_init_draw_rect_dsc(obj, LV_PART_ITEMS, &draw_rect_dsc_def);
ARM GAS  C:\Users\OSD\AppData\Local\Temp\ccnvvkrZ.s 			page 14


 716:lvgl/src/widgets/lv_btnmatrix.c ****     lv_obj_init_draw_label_dsc(obj, LV_PART_ITEMS, &draw_label_dsc_def);
 717:lvgl/src/widgets/lv_btnmatrix.c ****     obj->skip_trans = 0;
 718:lvgl/src/widgets/lv_btnmatrix.c ****     obj->state = state_ori;
 719:lvgl/src/widgets/lv_btnmatrix.c **** 
 720:lvgl/src/widgets/lv_btnmatrix.c ****     lv_coord_t ptop = lv_obj_get_style_pad_top(obj, LV_PART_MAIN);
 721:lvgl/src/widgets/lv_btnmatrix.c ****     lv_coord_t pbottom = lv_obj_get_style_pad_bottom(obj, LV_PART_MAIN);
 722:lvgl/src/widgets/lv_btnmatrix.c ****     lv_coord_t pleft = lv_obj_get_style_pad_left(obj, LV_PART_MAIN);
 723:lvgl/src/widgets/lv_btnmatrix.c ****     lv_coord_t pright = lv_obj_get_style_pad_right(obj, LV_PART_MAIN);
 724:lvgl/src/widgets/lv_btnmatrix.c **** 
 725:lvgl/src/widgets/lv_btnmatrix.c **** #if LV_USE_ARABIC_PERSIAN_CHARS
 726:lvgl/src/widgets/lv_btnmatrix.c ****     const size_t txt_ap_size = 256 ;
 727:lvgl/src/widgets/lv_btnmatrix.c ****     char * txt_ap = lv_mem_buf_get(txt_ap_size);
 728:lvgl/src/widgets/lv_btnmatrix.c **** #endif
 729:lvgl/src/widgets/lv_btnmatrix.c **** 
 730:lvgl/src/widgets/lv_btnmatrix.c ****     lv_obj_draw_part_dsc_t part_draw_dsc;
 731:lvgl/src/widgets/lv_btnmatrix.c ****     lv_obj_draw_dsc_init(&part_draw_dsc, draw_ctx);
 732:lvgl/src/widgets/lv_btnmatrix.c ****     part_draw_dsc.part = LV_PART_ITEMS;
 733:lvgl/src/widgets/lv_btnmatrix.c ****     part_draw_dsc.class_p = MY_CLASS;
 734:lvgl/src/widgets/lv_btnmatrix.c ****     part_draw_dsc.type = LV_BTNMATRIX_DRAW_PART_BTN;
 735:lvgl/src/widgets/lv_btnmatrix.c ****     part_draw_dsc.rect_dsc = &draw_rect_dsc_act;
 736:lvgl/src/widgets/lv_btnmatrix.c ****     part_draw_dsc.label_dsc = &draw_label_dsc_act;
 737:lvgl/src/widgets/lv_btnmatrix.c **** 
 738:lvgl/src/widgets/lv_btnmatrix.c ****     for(btn_i = 0; btn_i < btnm->btn_cnt; btn_i++, txt_i++) {
 739:lvgl/src/widgets/lv_btnmatrix.c ****         /*Search the next valid text in the map*/
 740:lvgl/src/widgets/lv_btnmatrix.c ****         while(strcmp(btnm->map_p[txt_i], "\n") == 0) {
 741:lvgl/src/widgets/lv_btnmatrix.c ****             txt_i++;
 742:lvgl/src/widgets/lv_btnmatrix.c ****         }
 743:lvgl/src/widgets/lv_btnmatrix.c **** 
 744:lvgl/src/widgets/lv_btnmatrix.c ****         /*Skip hidden buttons*/
 745:lvgl/src/widgets/lv_btnmatrix.c ****         if(button_is_hidden(btnm->ctrl_bits[btn_i])) continue;
 746:lvgl/src/widgets/lv_btnmatrix.c **** 
 747:lvgl/src/widgets/lv_btnmatrix.c ****         /*Get the state of the button*/
 748:lvgl/src/widgets/lv_btnmatrix.c ****         lv_state_t btn_state = LV_STATE_DEFAULT;
 749:lvgl/src/widgets/lv_btnmatrix.c ****         if(button_get_checked(btnm->ctrl_bits[btn_i])) btn_state |= LV_STATE_CHECKED;
 750:lvgl/src/widgets/lv_btnmatrix.c **** 
 751:lvgl/src/widgets/lv_btnmatrix.c ****         if(button_is_inactive(btnm->ctrl_bits[btn_i])) btn_state |= LV_STATE_DISABLED;
 752:lvgl/src/widgets/lv_btnmatrix.c ****         else if(btn_i == btnm->btn_id_sel) {
 753:lvgl/src/widgets/lv_btnmatrix.c ****             if(state_ori & LV_STATE_PRESSED) btn_state |= LV_STATE_PRESSED;
 754:lvgl/src/widgets/lv_btnmatrix.c ****             if(state_ori & LV_STATE_FOCUSED) btn_state |= LV_STATE_FOCUSED;
 755:lvgl/src/widgets/lv_btnmatrix.c ****             if(state_ori & LV_STATE_FOCUS_KEY) btn_state |= LV_STATE_FOCUS_KEY;
 756:lvgl/src/widgets/lv_btnmatrix.c ****             if(state_ori & LV_STATE_EDITED) btn_state |= LV_STATE_EDITED;
 757:lvgl/src/widgets/lv_btnmatrix.c ****         }
 758:lvgl/src/widgets/lv_btnmatrix.c **** 
 759:lvgl/src/widgets/lv_btnmatrix.c ****         /*Get the button's area*/
 760:lvgl/src/widgets/lv_btnmatrix.c ****         lv_area_copy(&btn_area, &btnm->button_areas[btn_i]);
 761:lvgl/src/widgets/lv_btnmatrix.c ****         btn_area.x1 += area_obj.x1;
 762:lvgl/src/widgets/lv_btnmatrix.c ****         btn_area.y1 += area_obj.y1;
 763:lvgl/src/widgets/lv_btnmatrix.c ****         btn_area.x2 += area_obj.x1;
 764:lvgl/src/widgets/lv_btnmatrix.c ****         btn_area.y2 += area_obj.y1;
 765:lvgl/src/widgets/lv_btnmatrix.c **** 
 766:lvgl/src/widgets/lv_btnmatrix.c ****         /*Set up the draw descriptors*/
 767:lvgl/src/widgets/lv_btnmatrix.c ****         if(btn_state == LV_STATE_DEFAULT) {
 768:lvgl/src/widgets/lv_btnmatrix.c ****             lv_memcpy(&draw_rect_dsc_act, &draw_rect_dsc_def, sizeof(lv_draw_rect_dsc_t));
 769:lvgl/src/widgets/lv_btnmatrix.c ****             lv_memcpy(&draw_label_dsc_act, &draw_label_dsc_def, sizeof(lv_draw_label_dsc_t));
 770:lvgl/src/widgets/lv_btnmatrix.c ****         }
 771:lvgl/src/widgets/lv_btnmatrix.c ****         /*In other cases get the styles directly without caching them*/
 772:lvgl/src/widgets/lv_btnmatrix.c ****         else {
ARM GAS  C:\Users\OSD\AppData\Local\Temp\ccnvvkrZ.s 			page 15


 773:lvgl/src/widgets/lv_btnmatrix.c ****             obj->state = btn_state;
 774:lvgl/src/widgets/lv_btnmatrix.c ****             obj->skip_trans = 1;
 775:lvgl/src/widgets/lv_btnmatrix.c ****             lv_draw_rect_dsc_init(&draw_rect_dsc_act);
 776:lvgl/src/widgets/lv_btnmatrix.c ****             lv_draw_label_dsc_init(&draw_label_dsc_act);
 777:lvgl/src/widgets/lv_btnmatrix.c ****             lv_obj_init_draw_rect_dsc(obj, LV_PART_ITEMS, &draw_rect_dsc_act);
 778:lvgl/src/widgets/lv_btnmatrix.c ****             lv_obj_init_draw_label_dsc(obj, LV_PART_ITEMS, &draw_label_dsc_act);
 779:lvgl/src/widgets/lv_btnmatrix.c ****             obj->state = state_ori;
 780:lvgl/src/widgets/lv_btnmatrix.c ****             obj->skip_trans = 0;
 781:lvgl/src/widgets/lv_btnmatrix.c ****         }
 782:lvgl/src/widgets/lv_btnmatrix.c **** 
 783:lvgl/src/widgets/lv_btnmatrix.c ****         bool recolor = button_is_recolor(btnm->ctrl_bits[btn_i]);
 784:lvgl/src/widgets/lv_btnmatrix.c ****         if(recolor) draw_label_dsc_act.flag |= LV_TEXT_FLAG_RECOLOR;
 785:lvgl/src/widgets/lv_btnmatrix.c ****         else draw_label_dsc_act.flag &= ~LV_TEXT_FLAG_RECOLOR;
 786:lvgl/src/widgets/lv_btnmatrix.c **** 
 787:lvgl/src/widgets/lv_btnmatrix.c ****         part_draw_dsc.draw_area = &btn_area;
 788:lvgl/src/widgets/lv_btnmatrix.c ****         part_draw_dsc.id = btn_i;
 789:lvgl/src/widgets/lv_btnmatrix.c ****         lv_event_send(obj, LV_EVENT_DRAW_PART_BEGIN, &part_draw_dsc);
 790:lvgl/src/widgets/lv_btnmatrix.c **** 
 791:lvgl/src/widgets/lv_btnmatrix.c ****         /*Remove borders on the edges if `LV_BORDER_SIDE_INTERNAL`*/
 792:lvgl/src/widgets/lv_btnmatrix.c ****         if(draw_rect_dsc_act.border_side & LV_BORDER_SIDE_INTERNAL) {
 793:lvgl/src/widgets/lv_btnmatrix.c ****             draw_rect_dsc_act.border_side = LV_BORDER_SIDE_FULL;
 794:lvgl/src/widgets/lv_btnmatrix.c ****             if(btn_area.x1 == obj->coords.x1 + pleft) draw_rect_dsc_act.border_side &= ~LV_BORDER_S
 795:lvgl/src/widgets/lv_btnmatrix.c ****             if(btn_area.x2 == obj->coords.x2 - pright) draw_rect_dsc_act.border_side &= ~LV_BORDER_
 796:lvgl/src/widgets/lv_btnmatrix.c ****             if(btn_area.y1 == obj->coords.y1 + ptop) draw_rect_dsc_act.border_side &= ~LV_BORDER_SI
 797:lvgl/src/widgets/lv_btnmatrix.c ****             if(btn_area.y2 == obj->coords.y2 - pbottom) draw_rect_dsc_act.border_side &= ~LV_BORDER
 798:lvgl/src/widgets/lv_btnmatrix.c ****         }
 799:lvgl/src/widgets/lv_btnmatrix.c **** 
 800:lvgl/src/widgets/lv_btnmatrix.c ****         lv_coord_t btn_height = lv_area_get_height(&btn_area);
 801:lvgl/src/widgets/lv_btnmatrix.c **** 
 802:lvgl/src/widgets/lv_btnmatrix.c ****         if((btn_state & LV_STATE_PRESSED) && (btnm->ctrl_bits[btn_i] & LV_BTNMATRIX_CTRL_POPOVER)) 
 803:lvgl/src/widgets/lv_btnmatrix.c ****             /*Push up the upper boundary of the btn area to create the popover*/
 804:lvgl/src/widgets/lv_btnmatrix.c ****             btn_area.y1 -= btn_height;
 805:lvgl/src/widgets/lv_btnmatrix.c ****         }
 806:lvgl/src/widgets/lv_btnmatrix.c **** 
 807:lvgl/src/widgets/lv_btnmatrix.c ****         /*Draw the background*/
 808:lvgl/src/widgets/lv_btnmatrix.c ****         lv_draw_rect(draw_ctx, &draw_rect_dsc_act, &btn_area);
 809:lvgl/src/widgets/lv_btnmatrix.c **** 
 810:lvgl/src/widgets/lv_btnmatrix.c ****         /*Calculate the size of the text*/
 811:lvgl/src/widgets/lv_btnmatrix.c ****         const lv_font_t * font = draw_label_dsc_act.font;
 812:lvgl/src/widgets/lv_btnmatrix.c ****         lv_coord_t letter_space = draw_label_dsc_act.letter_space;
 813:lvgl/src/widgets/lv_btnmatrix.c ****         lv_coord_t line_space = draw_label_dsc_act.line_space;
 814:lvgl/src/widgets/lv_btnmatrix.c ****         const char * txt = btnm->map_p[txt_i];
 815:lvgl/src/widgets/lv_btnmatrix.c **** 
 816:lvgl/src/widgets/lv_btnmatrix.c **** #if LV_USE_ARABIC_PERSIAN_CHARS
 817:lvgl/src/widgets/lv_btnmatrix.c ****         /*Get the size of the Arabic text and process it*/
 818:lvgl/src/widgets/lv_btnmatrix.c ****         size_t len_ap = _lv_txt_ap_calc_bytes_cnt(txt);
 819:lvgl/src/widgets/lv_btnmatrix.c ****         if(len_ap < txt_ap_size) {
 820:lvgl/src/widgets/lv_btnmatrix.c ****             _lv_txt_ap_proc(txt, txt_ap);
 821:lvgl/src/widgets/lv_btnmatrix.c ****             txt = txt_ap;
 822:lvgl/src/widgets/lv_btnmatrix.c ****         }
 823:lvgl/src/widgets/lv_btnmatrix.c **** #endif
 824:lvgl/src/widgets/lv_btnmatrix.c ****         lv_point_t txt_size;
 825:lvgl/src/widgets/lv_btnmatrix.c ****         lv_txt_get_size(&txt_size, txt, font, letter_space,
 826:lvgl/src/widgets/lv_btnmatrix.c ****                         line_space, lv_area_get_width(&area_obj), draw_label_dsc_act.flag);
 827:lvgl/src/widgets/lv_btnmatrix.c **** 
 828:lvgl/src/widgets/lv_btnmatrix.c ****         btn_area.x1 += (lv_area_get_width(&btn_area) - txt_size.x) / 2;
 829:lvgl/src/widgets/lv_btnmatrix.c ****         btn_area.y1 += (lv_area_get_height(&btn_area) - txt_size.y) / 2;
ARM GAS  C:\Users\OSD\AppData\Local\Temp\ccnvvkrZ.s 			page 16


 830:lvgl/src/widgets/lv_btnmatrix.c ****         btn_area.x2 = btn_area.x1 + txt_size.x;
 831:lvgl/src/widgets/lv_btnmatrix.c ****         btn_area.y2 = btn_area.y1 + txt_size.y;
 832:lvgl/src/widgets/lv_btnmatrix.c **** 
 833:lvgl/src/widgets/lv_btnmatrix.c ****         if((btn_state & LV_STATE_PRESSED) && (btnm->ctrl_bits[btn_i] & LV_BTNMATRIX_CTRL_POPOVER)) 
 834:lvgl/src/widgets/lv_btnmatrix.c ****             /*Push up the button text into the popover*/
 835:lvgl/src/widgets/lv_btnmatrix.c ****             btn_area.y1 -= btn_height / 2;
 836:lvgl/src/widgets/lv_btnmatrix.c ****             btn_area.y2 -= btn_height / 2;
 837:lvgl/src/widgets/lv_btnmatrix.c ****         }
 838:lvgl/src/widgets/lv_btnmatrix.c **** 
 839:lvgl/src/widgets/lv_btnmatrix.c ****         /*Draw the text*/
 840:lvgl/src/widgets/lv_btnmatrix.c ****         lv_draw_label(draw_ctx, &draw_label_dsc_act, &btn_area, txt, NULL);
 841:lvgl/src/widgets/lv_btnmatrix.c **** 
 842:lvgl/src/widgets/lv_btnmatrix.c ****         lv_event_send(obj, LV_EVENT_DRAW_PART_END, &part_draw_dsc);
 843:lvgl/src/widgets/lv_btnmatrix.c ****     }
 844:lvgl/src/widgets/lv_btnmatrix.c **** 
 845:lvgl/src/widgets/lv_btnmatrix.c ****     obj->skip_trans = 0;
 846:lvgl/src/widgets/lv_btnmatrix.c **** #if LV_USE_ARABIC_PERSIAN_CHARS
 847:lvgl/src/widgets/lv_btnmatrix.c ****     lv_mem_buf_release(txt_ap);
 848:lvgl/src/widgets/lv_btnmatrix.c **** #endif
 849:lvgl/src/widgets/lv_btnmatrix.c **** }
 850:lvgl/src/widgets/lv_btnmatrix.c **** /**
 851:lvgl/src/widgets/lv_btnmatrix.c ****  * Create the required number of buttons and control bytes according to a map
 852:lvgl/src/widgets/lv_btnmatrix.c ****  * @param obj pointer to button matrix object
 853:lvgl/src/widgets/lv_btnmatrix.c ****  * @param map_p pointer to a string array
 854:lvgl/src/widgets/lv_btnmatrix.c ****  */
 855:lvgl/src/widgets/lv_btnmatrix.c **** static void allocate_btn_areas_and_controls(const lv_obj_t * obj, const char ** map)
 856:lvgl/src/widgets/lv_btnmatrix.c **** {
 857:lvgl/src/widgets/lv_btnmatrix.c ****     lv_btnmatrix_t * btnm = (lv_btnmatrix_t *)obj;
 858:lvgl/src/widgets/lv_btnmatrix.c ****     btnm->row_cnt = 1;
 859:lvgl/src/widgets/lv_btnmatrix.c ****     /*Count the buttons in the map*/
 860:lvgl/src/widgets/lv_btnmatrix.c ****     uint16_t btn_cnt = 0;
 861:lvgl/src/widgets/lv_btnmatrix.c ****     uint16_t i       = 0;
 862:lvgl/src/widgets/lv_btnmatrix.c ****     while(map[i] && map[i][0] != '\0') {
 863:lvgl/src/widgets/lv_btnmatrix.c ****         if(strcmp(map[i], "\n") != 0) { /*Do not count line breaks*/
 864:lvgl/src/widgets/lv_btnmatrix.c ****             btn_cnt++;
 865:lvgl/src/widgets/lv_btnmatrix.c ****         }
 866:lvgl/src/widgets/lv_btnmatrix.c ****         else {
 867:lvgl/src/widgets/lv_btnmatrix.c ****             btnm->row_cnt++;
 868:lvgl/src/widgets/lv_btnmatrix.c ****         }
 869:lvgl/src/widgets/lv_btnmatrix.c ****         i++;
 870:lvgl/src/widgets/lv_btnmatrix.c ****     }
 871:lvgl/src/widgets/lv_btnmatrix.c **** 
 872:lvgl/src/widgets/lv_btnmatrix.c ****     /*Do not allocate memory for the same amount of buttons*/
 873:lvgl/src/widgets/lv_btnmatrix.c ****     if(btn_cnt == btnm->btn_cnt) return;
 874:lvgl/src/widgets/lv_btnmatrix.c **** 
 875:lvgl/src/widgets/lv_btnmatrix.c ****     if(btnm->button_areas != NULL) {
 876:lvgl/src/widgets/lv_btnmatrix.c ****         lv_mem_free(btnm->button_areas);
 877:lvgl/src/widgets/lv_btnmatrix.c ****         btnm->button_areas = NULL;
 878:lvgl/src/widgets/lv_btnmatrix.c ****     }
 879:lvgl/src/widgets/lv_btnmatrix.c ****     if(btnm->ctrl_bits != NULL) {
 880:lvgl/src/widgets/lv_btnmatrix.c ****         lv_mem_free(btnm->ctrl_bits);
 881:lvgl/src/widgets/lv_btnmatrix.c ****         btnm->ctrl_bits = NULL;
 882:lvgl/src/widgets/lv_btnmatrix.c ****     }
 883:lvgl/src/widgets/lv_btnmatrix.c **** 
 884:lvgl/src/widgets/lv_btnmatrix.c ****     btnm->button_areas = lv_mem_alloc(sizeof(lv_area_t) * btn_cnt);
 885:lvgl/src/widgets/lv_btnmatrix.c ****     LV_ASSERT_MALLOC(btnm->button_areas);
 886:lvgl/src/widgets/lv_btnmatrix.c ****     btnm->ctrl_bits = lv_mem_alloc(sizeof(lv_btnmatrix_ctrl_t) * btn_cnt);
ARM GAS  C:\Users\OSD\AppData\Local\Temp\ccnvvkrZ.s 			page 17


 887:lvgl/src/widgets/lv_btnmatrix.c ****     LV_ASSERT_MALLOC(btnm->ctrl_bits);
 888:lvgl/src/widgets/lv_btnmatrix.c ****     if(btnm->button_areas == NULL || btnm->ctrl_bits == NULL) btn_cnt = 0;
 889:lvgl/src/widgets/lv_btnmatrix.c **** 
 890:lvgl/src/widgets/lv_btnmatrix.c ****     lv_memset_00(btnm->ctrl_bits, sizeof(lv_btnmatrix_ctrl_t) * btn_cnt);
 891:lvgl/src/widgets/lv_btnmatrix.c **** 
 892:lvgl/src/widgets/lv_btnmatrix.c ****     btnm->btn_cnt = btn_cnt;
 893:lvgl/src/widgets/lv_btnmatrix.c **** }
 894:lvgl/src/widgets/lv_btnmatrix.c **** 
 895:lvgl/src/widgets/lv_btnmatrix.c **** /**
 896:lvgl/src/widgets/lv_btnmatrix.c ****  * Get the width of a button in units (default is 1).
 897:lvgl/src/widgets/lv_btnmatrix.c ****  * @param ctrl_bits least significant 3 bits used (1..7 valid values)
 898:lvgl/src/widgets/lv_btnmatrix.c ****  * @return the width of the button in units
 899:lvgl/src/widgets/lv_btnmatrix.c ****  */
 900:lvgl/src/widgets/lv_btnmatrix.c **** static uint8_t get_button_width(lv_btnmatrix_ctrl_t ctrl_bits)
 901:lvgl/src/widgets/lv_btnmatrix.c **** {
  28              		.loc 1 901 1 view -0
  29              		.cfi_startproc
  30              		@ args = 0, pretend = 0, frame = 0
  31              		@ frame_needed = 0, uses_anonymous_args = 0
  32              		@ link register save eliminated.
 902:lvgl/src/widgets/lv_btnmatrix.c ****     uint8_t w = ctrl_bits & LV_BTNMATRIX_WIDTH_MASK;
  33              		.loc 1 902 5 view .LVU1
 903:lvgl/src/widgets/lv_btnmatrix.c ****     return w != 0 ? w : 1;
  34              		.loc 1 903 5 view .LVU2
  35              		.loc 1 903 23 is_stmt 0 view .LVU3
  36 0000 10F00F00 		ands	r0, r0, #15
  37              	.LVL1:
  38              		.loc 1 903 23 view .LVU4
  39 0004 00D1     		bne	.L2
  40 0006 0120     		movs	r0, #1
  41              	.L2:
 904:lvgl/src/widgets/lv_btnmatrix.c **** }
  42              		.loc 1 904 1 discriminator 4 view .LVU5
  43 0008 7047     		bx	lr
  44              		.cfi_endproc
  45              	.LFE181:
  47              		.section	.text.button_is_hidden,"ax",%progbits
  48              		.align	1
  49              		.syntax unified
  50              		.thumb
  51              		.thumb_func
  53              	button_is_hidden:
  54              	.LVL2:
  55              	.LFB182:
 905:lvgl/src/widgets/lv_btnmatrix.c **** 
 906:lvgl/src/widgets/lv_btnmatrix.c **** static bool button_is_hidden(lv_btnmatrix_ctrl_t ctrl_bits)
 907:lvgl/src/widgets/lv_btnmatrix.c **** {
  56              		.loc 1 907 1 is_stmt 1 view -0
  57              		.cfi_startproc
  58              		@ args = 0, pretend = 0, frame = 0
  59              		@ frame_needed = 0, uses_anonymous_args = 0
  60              		@ link register save eliminated.
 908:lvgl/src/widgets/lv_btnmatrix.c ****     return (ctrl_bits & LV_BTNMATRIX_CTRL_HIDDEN) ? true : false;
  61              		.loc 1 908 5 view .LVU7
 909:lvgl/src/widgets/lv_btnmatrix.c **** }
  62              		.loc 1 909 1 is_stmt 0 view .LVU8
  63 0000 C0F30010 		ubfx	r0, r0, #4, #1
ARM GAS  C:\Users\OSD\AppData\Local\Temp\ccnvvkrZ.s 			page 18


  64              	.LVL3:
  65              		.loc 1 909 1 view .LVU9
  66 0004 7047     		bx	lr
  67              		.cfi_endproc
  68              	.LFE182:
  70              		.section	.text.button_is_checked,"ax",%progbits
  71              		.align	1
  72              		.syntax unified
  73              		.thumb
  74              		.thumb_func
  76              	button_is_checked:
  77              	.LVL4:
  78              	.LFB183:
 910:lvgl/src/widgets/lv_btnmatrix.c **** 
 911:lvgl/src/widgets/lv_btnmatrix.c **** static bool button_is_checked(lv_btnmatrix_ctrl_t ctrl_bits)
 912:lvgl/src/widgets/lv_btnmatrix.c **** {
  79              		.loc 1 912 1 is_stmt 1 view -0
  80              		.cfi_startproc
  81              		@ args = 0, pretend = 0, frame = 0
  82              		@ frame_needed = 0, uses_anonymous_args = 0
  83              		@ link register save eliminated.
 913:lvgl/src/widgets/lv_btnmatrix.c ****     return (ctrl_bits & LV_BTNMATRIX_CTRL_CHECKED) ? true : false;
  84              		.loc 1 913 5 view .LVU11
 914:lvgl/src/widgets/lv_btnmatrix.c **** }
  85              		.loc 1 914 1 is_stmt 0 view .LVU12
  86 0000 C0F30020 		ubfx	r0, r0, #8, #1
  87              	.LVL5:
  88              		.loc 1 914 1 view .LVU13
  89 0004 7047     		bx	lr
  90              		.cfi_endproc
  91              	.LFE183:
  93              		.section	.text.button_is_repeat_disabled,"ax",%progbits
  94              		.align	1
  95              		.syntax unified
  96              		.thumb
  97              		.thumb_func
  99              	button_is_repeat_disabled:
 100              	.LVL6:
 101              	.LFB184:
 915:lvgl/src/widgets/lv_btnmatrix.c **** 
 916:lvgl/src/widgets/lv_btnmatrix.c **** static bool button_is_repeat_disabled(lv_btnmatrix_ctrl_t ctrl_bits)
 917:lvgl/src/widgets/lv_btnmatrix.c **** {
 102              		.loc 1 917 1 is_stmt 1 view -0
 103              		.cfi_startproc
 104              		@ args = 0, pretend = 0, frame = 0
 105              		@ frame_needed = 0, uses_anonymous_args = 0
 106              		@ link register save eliminated.
 918:lvgl/src/widgets/lv_btnmatrix.c ****     return (ctrl_bits & LV_BTNMATRIX_CTRL_NO_REPEAT) ? true : false;
 107              		.loc 1 918 5 view .LVU15
 919:lvgl/src/widgets/lv_btnmatrix.c **** }
 108              		.loc 1 919 1 is_stmt 0 view .LVU16
 109 0000 C0F34010 		ubfx	r0, r0, #5, #1
 110              	.LVL7:
 111              		.loc 1 919 1 view .LVU17
 112 0004 7047     		bx	lr
 113              		.cfi_endproc
 114              	.LFE184:
ARM GAS  C:\Users\OSD\AppData\Local\Temp\ccnvvkrZ.s 			page 19


 116              		.section	.text.button_is_inactive,"ax",%progbits
 117              		.align	1
 118              		.syntax unified
 119              		.thumb
 120              		.thumb_func
 122              	button_is_inactive:
 123              	.LVL8:
 124              	.LFB185:
 920:lvgl/src/widgets/lv_btnmatrix.c **** 
 921:lvgl/src/widgets/lv_btnmatrix.c **** static bool button_is_inactive(lv_btnmatrix_ctrl_t ctrl_bits)
 922:lvgl/src/widgets/lv_btnmatrix.c **** {
 125              		.loc 1 922 1 is_stmt 1 view -0
 126              		.cfi_startproc
 127              		@ args = 0, pretend = 0, frame = 0
 128              		@ frame_needed = 0, uses_anonymous_args = 0
 129              		@ link register save eliminated.
 923:lvgl/src/widgets/lv_btnmatrix.c ****     return (ctrl_bits & LV_BTNMATRIX_CTRL_DISABLED) ? true : false;
 130              		.loc 1 923 5 view .LVU19
 924:lvgl/src/widgets/lv_btnmatrix.c **** }
 131              		.loc 1 924 1 is_stmt 0 view .LVU20
 132 0000 C0F38010 		ubfx	r0, r0, #6, #1
 133              	.LVL9:
 134              		.loc 1 924 1 view .LVU21
 135 0004 7047     		bx	lr
 136              		.cfi_endproc
 137              	.LFE185:
 139              		.section	.text.button_is_click_trig,"ax",%progbits
 140              		.align	1
 141              		.syntax unified
 142              		.thumb
 143              		.thumb_func
 145              	button_is_click_trig:
 146              	.LVL10:
 147              	.LFB186:
 925:lvgl/src/widgets/lv_btnmatrix.c **** 
 926:lvgl/src/widgets/lv_btnmatrix.c **** static bool button_is_click_trig(lv_btnmatrix_ctrl_t ctrl_bits)
 927:lvgl/src/widgets/lv_btnmatrix.c **** {
 148              		.loc 1 927 1 is_stmt 1 view -0
 149              		.cfi_startproc
 150              		@ args = 0, pretend = 0, frame = 0
 151              		@ frame_needed = 0, uses_anonymous_args = 0
 152              		@ link register save eliminated.
 928:lvgl/src/widgets/lv_btnmatrix.c ****     return (ctrl_bits & LV_BTNMATRIX_CTRL_CLICK_TRIG) ? true : false;
 153              		.loc 1 928 5 view .LVU23
 929:lvgl/src/widgets/lv_btnmatrix.c **** }
 154              		.loc 1 929 1 is_stmt 0 view .LVU24
 155 0000 C0F34020 		ubfx	r0, r0, #9, #1
 156              	.LVL11:
 157              		.loc 1 929 1 view .LVU25
 158 0004 7047     		bx	lr
 159              		.cfi_endproc
 160              	.LFE186:
 162              		.section	.text.button_is_popover,"ax",%progbits
 163              		.align	1
 164              		.syntax unified
 165              		.thumb
 166              		.thumb_func
ARM GAS  C:\Users\OSD\AppData\Local\Temp\ccnvvkrZ.s 			page 20


 168              	button_is_popover:
 169              	.LVL12:
 170              	.LFB187:
 930:lvgl/src/widgets/lv_btnmatrix.c **** 
 931:lvgl/src/widgets/lv_btnmatrix.c **** static bool button_is_popover(lv_btnmatrix_ctrl_t ctrl_bits)
 932:lvgl/src/widgets/lv_btnmatrix.c **** {
 171              		.loc 1 932 1 is_stmt 1 view -0
 172              		.cfi_startproc
 173              		@ args = 0, pretend = 0, frame = 0
 174              		@ frame_needed = 0, uses_anonymous_args = 0
 175              		@ link register save eliminated.
 933:lvgl/src/widgets/lv_btnmatrix.c ****     return (ctrl_bits & LV_BTNMATRIX_CTRL_POPOVER) ? true : false;
 176              		.loc 1 933 5 view .LVU27
 934:lvgl/src/widgets/lv_btnmatrix.c **** }
 177              		.loc 1 934 1 is_stmt 0 view .LVU28
 178 0000 C0F38020 		ubfx	r0, r0, #10, #1
 179              	.LVL13:
 180              		.loc 1 934 1 view .LVU29
 181 0004 7047     		bx	lr
 182              		.cfi_endproc
 183              	.LFE187:
 185              		.section	.text.button_is_checkable,"ax",%progbits
 186              		.align	1
 187              		.syntax unified
 188              		.thumb
 189              		.thumb_func
 191              	button_is_checkable:
 192              	.LVL14:
 193              	.LFB188:
 935:lvgl/src/widgets/lv_btnmatrix.c **** 
 936:lvgl/src/widgets/lv_btnmatrix.c **** static bool button_is_checkable(lv_btnmatrix_ctrl_t ctrl_bits)
 937:lvgl/src/widgets/lv_btnmatrix.c **** {
 194              		.loc 1 937 1 is_stmt 1 view -0
 195              		.cfi_startproc
 196              		@ args = 0, pretend = 0, frame = 0
 197              		@ frame_needed = 0, uses_anonymous_args = 0
 198              		@ link register save eliminated.
 938:lvgl/src/widgets/lv_btnmatrix.c ****     return (ctrl_bits & LV_BTNMATRIX_CTRL_CHECKABLE) ? true : false;
 199              		.loc 1 938 5 view .LVU31
 939:lvgl/src/widgets/lv_btnmatrix.c **** }
 200              		.loc 1 939 1 is_stmt 0 view .LVU32
 201 0000 C0F3C010 		ubfx	r0, r0, #7, #1
 202              	.LVL15:
 203              		.loc 1 939 1 view .LVU33
 204 0004 7047     		bx	lr
 205              		.cfi_endproc
 206              	.LFE188:
 208              		.section	.text.button_get_checked,"ax",%progbits
 209              		.align	1
 210              		.syntax unified
 211              		.thumb
 212              		.thumb_func
 214              	button_get_checked:
 215              	.LVL16:
 216              	.LFB189:
 940:lvgl/src/widgets/lv_btnmatrix.c **** 
 941:lvgl/src/widgets/lv_btnmatrix.c **** static bool button_get_checked(lv_btnmatrix_ctrl_t ctrl_bits)
ARM GAS  C:\Users\OSD\AppData\Local\Temp\ccnvvkrZ.s 			page 21


 942:lvgl/src/widgets/lv_btnmatrix.c **** {
 217              		.loc 1 942 1 is_stmt 1 view -0
 218              		.cfi_startproc
 219              		@ args = 0, pretend = 0, frame = 0
 220              		@ frame_needed = 0, uses_anonymous_args = 0
 221              		@ link register save eliminated.
 943:lvgl/src/widgets/lv_btnmatrix.c ****     return (ctrl_bits & LV_BTNMATRIX_CTRL_CHECKED) ? true : false;
 222              		.loc 1 943 5 view .LVU35
 944:lvgl/src/widgets/lv_btnmatrix.c **** }
 223              		.loc 1 944 1 is_stmt 0 view .LVU36
 224 0000 C0F30020 		ubfx	r0, r0, #8, #1
 225              	.LVL17:
 226              		.loc 1 944 1 view .LVU37
 227 0004 7047     		bx	lr
 228              		.cfi_endproc
 229              	.LFE189:
 231              		.section	.text.button_is_recolor,"ax",%progbits
 232              		.align	1
 233              		.syntax unified
 234              		.thumb
 235              		.thumb_func
 237              	button_is_recolor:
 238              	.LVL18:
 239              	.LFB190:
 945:lvgl/src/widgets/lv_btnmatrix.c **** 
 946:lvgl/src/widgets/lv_btnmatrix.c **** static bool button_is_recolor(lv_btnmatrix_ctrl_t ctrl_bits)
 947:lvgl/src/widgets/lv_btnmatrix.c **** {
 240              		.loc 1 947 1 is_stmt 1 view -0
 241              		.cfi_startproc
 242              		@ args = 0, pretend = 0, frame = 0
 243              		@ frame_needed = 0, uses_anonymous_args = 0
 244              		@ link register save eliminated.
 948:lvgl/src/widgets/lv_btnmatrix.c ****     return (ctrl_bits & LV_BTNMATRIX_CTRL_RECOLOR) ? true : false;
 245              		.loc 1 948 5 view .LVU39
 949:lvgl/src/widgets/lv_btnmatrix.c **** }
 246              		.loc 1 949 1 is_stmt 0 view .LVU40
 247 0000 C0F3C020 		ubfx	r0, r0, #11, #1
 248              	.LVL19:
 249              		.loc 1 949 1 view .LVU41
 250 0004 7047     		bx	lr
 251              		.cfi_endproc
 252              	.LFE190:
 254              		.section	.rodata.has_popovers_in_top_row.str1.4,"aMS",%progbits,1
 255              		.align	2
 256              	.LC0:
 257 0000 0A00     		.ascii	"\012\000"
 258              		.section	.text.has_popovers_in_top_row,"ax",%progbits
 259              		.align	1
 260              		.syntax unified
 261              		.thumb
 262              		.thumb_func
 264              	has_popovers_in_top_row:
 265              	.LVL20:
 266              	.LFB194:
 950:lvgl/src/widgets/lv_btnmatrix.c **** /**
 951:lvgl/src/widgets/lv_btnmatrix.c ****  * Gives the button id of a button under a given point
 952:lvgl/src/widgets/lv_btnmatrix.c ****  * @param obj pointer to a button matrix object
ARM GAS  C:\Users\OSD\AppData\Local\Temp\ccnvvkrZ.s 			page 22


 953:lvgl/src/widgets/lv_btnmatrix.c ****  * @param p a point with absolute coordinates
 954:lvgl/src/widgets/lv_btnmatrix.c ****  * @return the id of the button or LV_BTNMATRIX_BTN_NONE.
 955:lvgl/src/widgets/lv_btnmatrix.c ****  */
 956:lvgl/src/widgets/lv_btnmatrix.c **** static uint16_t get_button_from_point(lv_obj_t * obj, lv_point_t * p)
 957:lvgl/src/widgets/lv_btnmatrix.c **** {
 958:lvgl/src/widgets/lv_btnmatrix.c ****     lv_area_t obj_cords;
 959:lvgl/src/widgets/lv_btnmatrix.c ****     lv_area_t btn_area;
 960:lvgl/src/widgets/lv_btnmatrix.c ****     lv_btnmatrix_t * btnm = (lv_btnmatrix_t *)obj;;
 961:lvgl/src/widgets/lv_btnmatrix.c ****     uint16_t i;
 962:lvgl/src/widgets/lv_btnmatrix.c ****     lv_obj_get_coords(obj, &obj_cords);
 963:lvgl/src/widgets/lv_btnmatrix.c **** 
 964:lvgl/src/widgets/lv_btnmatrix.c ****     lv_coord_t w = lv_obj_get_width(obj);
 965:lvgl/src/widgets/lv_btnmatrix.c ****     lv_coord_t h = lv_obj_get_height(obj);
 966:lvgl/src/widgets/lv_btnmatrix.c ****     lv_coord_t pleft = lv_obj_get_style_pad_left(obj, LV_PART_MAIN);
 967:lvgl/src/widgets/lv_btnmatrix.c ****     lv_coord_t pright = lv_obj_get_style_pad_right(obj, LV_PART_MAIN);
 968:lvgl/src/widgets/lv_btnmatrix.c ****     lv_coord_t ptop = lv_obj_get_style_pad_top(obj, LV_PART_MAIN);
 969:lvgl/src/widgets/lv_btnmatrix.c ****     lv_coord_t pbottom = lv_obj_get_style_pad_bottom(obj, LV_PART_MAIN);
 970:lvgl/src/widgets/lv_btnmatrix.c ****     lv_coord_t prow = lv_obj_get_style_pad_row(obj, LV_PART_MAIN);
 971:lvgl/src/widgets/lv_btnmatrix.c ****     lv_coord_t pcol = lv_obj_get_style_pad_column(obj, LV_PART_MAIN);
 972:lvgl/src/widgets/lv_btnmatrix.c **** 
 973:lvgl/src/widgets/lv_btnmatrix.c ****     /*Get the half gap. Button look larger with this value. (+1 for rounding error)*/
 974:lvgl/src/widgets/lv_btnmatrix.c ****     prow = (prow / 2) + 1 + (prow & 1);
 975:lvgl/src/widgets/lv_btnmatrix.c ****     pcol = (pcol / 2) + 1 + (pcol & 1);
 976:lvgl/src/widgets/lv_btnmatrix.c **** 
 977:lvgl/src/widgets/lv_btnmatrix.c ****     prow = LV_MIN(prow, BTN_EXTRA_CLICK_AREA_MAX);
 978:lvgl/src/widgets/lv_btnmatrix.c ****     pcol = LV_MIN(pcol, BTN_EXTRA_CLICK_AREA_MAX);
 979:lvgl/src/widgets/lv_btnmatrix.c ****     pright = LV_MIN(pright, BTN_EXTRA_CLICK_AREA_MAX);
 980:lvgl/src/widgets/lv_btnmatrix.c ****     ptop = LV_MIN(ptop, BTN_EXTRA_CLICK_AREA_MAX);
 981:lvgl/src/widgets/lv_btnmatrix.c ****     pbottom = LV_MIN(pbottom, BTN_EXTRA_CLICK_AREA_MAX);
 982:lvgl/src/widgets/lv_btnmatrix.c **** 
 983:lvgl/src/widgets/lv_btnmatrix.c ****     for(i = 0; i < btnm->btn_cnt; i++) {
 984:lvgl/src/widgets/lv_btnmatrix.c ****         lv_area_copy(&btn_area, &btnm->button_areas[i]);
 985:lvgl/src/widgets/lv_btnmatrix.c ****         if(btn_area.x1 <= pleft) btn_area.x1 += obj_cords.x1 - LV_MIN(pleft, BTN_EXTRA_CLICK_AREA_M
 986:lvgl/src/widgets/lv_btnmatrix.c ****         else btn_area.x1 += obj_cords.x1 - pcol;
 987:lvgl/src/widgets/lv_btnmatrix.c **** 
 988:lvgl/src/widgets/lv_btnmatrix.c ****         if(btn_area.y1 <= ptop) btn_area.y1 += obj_cords.y1 - LV_MIN(ptop, BTN_EXTRA_CLICK_AREA_MAX
 989:lvgl/src/widgets/lv_btnmatrix.c ****         else btn_area.y1 += obj_cords.y1 - prow;
 990:lvgl/src/widgets/lv_btnmatrix.c **** 
 991:lvgl/src/widgets/lv_btnmatrix.c ****         if(btn_area.x2 >= w - pright - 2) btn_area.x2 += obj_cords.x1 + LV_MIN(pright,
 992:lvgl/src/widgets/lv_btnmatrix.c ****                                                                                    BTN_EXTRA_CLICK_
 993:lvgl/src/widgets/lv_btnmatrix.c ****         else btn_area.x2 += obj_cords.x1 + pcol;
 994:lvgl/src/widgets/lv_btnmatrix.c **** 
 995:lvgl/src/widgets/lv_btnmatrix.c ****         if(btn_area.y2 >= h - pbottom - 2) btn_area.y2 += obj_cords.y1 + LV_MIN(pbottom,
 996:lvgl/src/widgets/lv_btnmatrix.c ****                                                                                     BTN_EXTRA_CLICK
 997:lvgl/src/widgets/lv_btnmatrix.c ****         else btn_area.y2 += obj_cords.y1 + prow;
 998:lvgl/src/widgets/lv_btnmatrix.c **** 
 999:lvgl/src/widgets/lv_btnmatrix.c ****         if(_lv_area_is_point_on(&btn_area, p, 0) != false) {
1000:lvgl/src/widgets/lv_btnmatrix.c ****             break;
1001:lvgl/src/widgets/lv_btnmatrix.c ****         }
1002:lvgl/src/widgets/lv_btnmatrix.c ****     }
1003:lvgl/src/widgets/lv_btnmatrix.c **** 
1004:lvgl/src/widgets/lv_btnmatrix.c ****     if(i == btnm->btn_cnt) i = LV_BTNMATRIX_BTN_NONE;
1005:lvgl/src/widgets/lv_btnmatrix.c **** 
1006:lvgl/src/widgets/lv_btnmatrix.c ****     return i;
1007:lvgl/src/widgets/lv_btnmatrix.c **** }
1008:lvgl/src/widgets/lv_btnmatrix.c **** 
1009:lvgl/src/widgets/lv_btnmatrix.c **** static void invalidate_button_area(const lv_obj_t * obj, uint16_t btn_idx)
ARM GAS  C:\Users\OSD\AppData\Local\Temp\ccnvvkrZ.s 			page 23


1010:lvgl/src/widgets/lv_btnmatrix.c **** {
1011:lvgl/src/widgets/lv_btnmatrix.c ****     if(btn_idx == LV_BTNMATRIX_BTN_NONE) return;
1012:lvgl/src/widgets/lv_btnmatrix.c **** 
1013:lvgl/src/widgets/lv_btnmatrix.c ****     lv_area_t btn_area;
1014:lvgl/src/widgets/lv_btnmatrix.c ****     lv_area_t obj_area;
1015:lvgl/src/widgets/lv_btnmatrix.c **** 
1016:lvgl/src/widgets/lv_btnmatrix.c ****     lv_btnmatrix_t * btnm = (lv_btnmatrix_t *)obj;;
1017:lvgl/src/widgets/lv_btnmatrix.c ****     if(btn_idx >= btnm->btn_cnt) return;
1018:lvgl/src/widgets/lv_btnmatrix.c **** 
1019:lvgl/src/widgets/lv_btnmatrix.c ****     lv_area_copy(&btn_area, &btnm->button_areas[btn_idx]);
1020:lvgl/src/widgets/lv_btnmatrix.c ****     lv_obj_get_coords(obj, &obj_area);
1021:lvgl/src/widgets/lv_btnmatrix.c **** 
1022:lvgl/src/widgets/lv_btnmatrix.c ****     /*The buttons might have outline and shadow so make the invalidation larger with the gaps betwe
1023:lvgl/src/widgets/lv_btnmatrix.c ****      *It assumes that the outline or shadow is smaller than the gaps*/
1024:lvgl/src/widgets/lv_btnmatrix.c ****     lv_coord_t row_gap = lv_obj_get_style_pad_row(obj, LV_PART_MAIN);
1025:lvgl/src/widgets/lv_btnmatrix.c ****     lv_coord_t col_gap = lv_obj_get_style_pad_column(obj, LV_PART_MAIN);
1026:lvgl/src/widgets/lv_btnmatrix.c **** 
1027:lvgl/src/widgets/lv_btnmatrix.c ****     /*Be sure to have a minimal extra space if row/col_gap is small*/
1028:lvgl/src/widgets/lv_btnmatrix.c ****     lv_coord_t dpi = lv_disp_get_dpi(lv_obj_get_disp(obj));
1029:lvgl/src/widgets/lv_btnmatrix.c ****     row_gap = LV_MAX(row_gap, dpi / 10);
1030:lvgl/src/widgets/lv_btnmatrix.c ****     col_gap = LV_MAX(col_gap, dpi / 10);
1031:lvgl/src/widgets/lv_btnmatrix.c **** 
1032:lvgl/src/widgets/lv_btnmatrix.c ****     /*Convert relative coordinates to absolute*/
1033:lvgl/src/widgets/lv_btnmatrix.c ****     btn_area.x1 += obj_area.x1 - row_gap;
1034:lvgl/src/widgets/lv_btnmatrix.c ****     btn_area.y1 += obj_area.y1 - col_gap;
1035:lvgl/src/widgets/lv_btnmatrix.c ****     btn_area.x2 += obj_area.x1 + row_gap;
1036:lvgl/src/widgets/lv_btnmatrix.c ****     btn_area.y2 += obj_area.y1 + col_gap;
1037:lvgl/src/widgets/lv_btnmatrix.c **** 
1038:lvgl/src/widgets/lv_btnmatrix.c ****     if((btn_idx == btnm->btn_id_sel) && (btnm->ctrl_bits[btn_idx] & LV_BTNMATRIX_CTRL_POPOVER)) {
1039:lvgl/src/widgets/lv_btnmatrix.c ****         /*Push up the upper boundary of the btn area to also invalidate the popover*/
1040:lvgl/src/widgets/lv_btnmatrix.c ****         btn_area.y1 -= lv_area_get_height(&btn_area);
1041:lvgl/src/widgets/lv_btnmatrix.c ****     }
1042:lvgl/src/widgets/lv_btnmatrix.c **** 
1043:lvgl/src/widgets/lv_btnmatrix.c ****     lv_obj_invalidate_area(obj, &btn_area);
1044:lvgl/src/widgets/lv_btnmatrix.c **** }
1045:lvgl/src/widgets/lv_btnmatrix.c **** 
1046:lvgl/src/widgets/lv_btnmatrix.c **** /**
1047:lvgl/src/widgets/lv_btnmatrix.c ****  * Enforces a single button being toggled on the button matrix.
1048:lvgl/src/widgets/lv_btnmatrix.c ****  * It simply clears the toggle flag on other buttons.
1049:lvgl/src/widgets/lv_btnmatrix.c ****  * @param obj Button matrix object
1050:lvgl/src/widgets/lv_btnmatrix.c ****  * @param btn_idx Button that should remain toggled
1051:lvgl/src/widgets/lv_btnmatrix.c ****  */
1052:lvgl/src/widgets/lv_btnmatrix.c **** static void make_one_button_checked(lv_obj_t * obj, uint16_t btn_idx)
1053:lvgl/src/widgets/lv_btnmatrix.c **** {
1054:lvgl/src/widgets/lv_btnmatrix.c ****     /*Save whether the button was toggled*/
1055:lvgl/src/widgets/lv_btnmatrix.c ****     bool was_toggled = lv_btnmatrix_has_btn_ctrl(obj, btn_idx, LV_BTNMATRIX_CTRL_CHECKED);
1056:lvgl/src/widgets/lv_btnmatrix.c **** 
1057:lvgl/src/widgets/lv_btnmatrix.c ****     lv_btnmatrix_clear_btn_ctrl_all(obj, LV_BTNMATRIX_CTRL_CHECKED);
1058:lvgl/src/widgets/lv_btnmatrix.c **** 
1059:lvgl/src/widgets/lv_btnmatrix.c ****     if(was_toggled) lv_btnmatrix_set_btn_ctrl(obj, btn_idx, LV_BTNMATRIX_CTRL_CHECKED);
1060:lvgl/src/widgets/lv_btnmatrix.c **** }
1061:lvgl/src/widgets/lv_btnmatrix.c **** 
1062:lvgl/src/widgets/lv_btnmatrix.c **** /**
1063:lvgl/src/widgets/lv_btnmatrix.c ****  * Check if any of the buttons in the first row has the LV_BTNMATRIX_CTRL_POPOVER control flag set.
1064:lvgl/src/widgets/lv_btnmatrix.c ****  * @param obj Button matrix object
1065:lvgl/src/widgets/lv_btnmatrix.c ****  * @return true if at least one button has the flag, false otherwise
1066:lvgl/src/widgets/lv_btnmatrix.c ****  */
ARM GAS  C:\Users\OSD\AppData\Local\Temp\ccnvvkrZ.s 			page 24


1067:lvgl/src/widgets/lv_btnmatrix.c **** static bool has_popovers_in_top_row(lv_obj_t * obj)
1068:lvgl/src/widgets/lv_btnmatrix.c **** {
 267              		.loc 1 1068 1 is_stmt 1 view -0
 268              		.cfi_startproc
 269              		@ args = 0, pretend = 0, frame = 0
 270              		@ frame_needed = 0, uses_anonymous_args = 0
1069:lvgl/src/widgets/lv_btnmatrix.c ****     lv_btnmatrix_t * btnm = (lv_btnmatrix_t *)obj;
 271              		.loc 1 1069 5 view .LVU43
1070:lvgl/src/widgets/lv_btnmatrix.c **** 
1071:lvgl/src/widgets/lv_btnmatrix.c ****     if(btnm->row_cnt <= 0) {
 272              		.loc 1 1071 5 view .LVU44
 273              		.loc 1 1071 12 is_stmt 0 view .LVU45
 274 0000 438E     		ldrh	r3, [r0, #50]
 275              		.loc 1 1071 7 view .LVU46
 276 0002 D3B1     		cbz	r3, .L17
1068:lvgl/src/widgets/lv_btnmatrix.c ****     lv_btnmatrix_t * btnm = (lv_btnmatrix_t *)obj;
 277              		.loc 1 1068 1 view .LVU47
 278 0004 2DE9F041 		push	{r4, r5, r6, r7, r8, lr}
 279              		.cfi_def_cfa_offset 24
 280              		.cfi_offset 4, -24
 281              		.cfi_offset 5, -20
 282              		.cfi_offset 6, -16
 283              		.cfi_offset 7, -12
 284              		.cfi_offset 8, -8
 285              		.cfi_offset 14, -4
 286 0008 0746     		mov	r7, r0
1072:lvgl/src/widgets/lv_btnmatrix.c ****         return false;
1073:lvgl/src/widgets/lv_btnmatrix.c ****     }
1074:lvgl/src/widgets/lv_btnmatrix.c **** 
1075:lvgl/src/widgets/lv_btnmatrix.c ****     const char ** map_row = btnm->map_p;
 287              		.loc 1 1075 5 is_stmt 1 view .LVU48
 288              		.loc 1 1075 19 is_stmt 0 view .LVU49
 289 000a D0F82480 		ldr	r8, [r0, #36]
 290              	.LVL21:
1076:lvgl/src/widgets/lv_btnmatrix.c ****     uint16_t btn_cnt = 0;
 291              		.loc 1 1076 5 is_stmt 1 view .LVU50
1077:lvgl/src/widgets/lv_btnmatrix.c **** 
1078:lvgl/src/widgets/lv_btnmatrix.c ****     while(map_row[btn_cnt] && strcmp(map_row[btn_cnt], "\n") != 0 && map_row[btn_cnt][0] != '\0') {
 292              		.loc 1 1078 5 view .LVU51
1076:lvgl/src/widgets/lv_btnmatrix.c ****     uint16_t btn_cnt = 0;
 293              		.loc 1 1076 14 is_stmt 0 view .LVU52
 294 000e 0024     		movs	r4, #0
 295              	.LVL22:
 296              	.L15:
 297              		.loc 1 1078 10 is_stmt 1 view .LVU53
 298              		.loc 1 1078 18 is_stmt 0 view .LVU54
 299 0010 2646     		mov	r6, r4
 300 0012 58F82450 		ldr	r5, [r8, r4, lsl #2]
 301              		.loc 1 1078 10 view .LVU55
 302 0016 9DB1     		cbz	r5, .L18
 303              		.loc 1 1078 31 discriminator 1 view .LVU56
 304 0018 0C49     		ldr	r1, .L24
 305 001a 2846     		mov	r0, r5
 306 001c FFF7FEFF 		bl	strcmp
 307              	.LVL23:
 308              		.loc 1 1078 28 discriminator 1 view .LVU57
 309 0020 90B1     		cbz	r0, .L19
ARM GAS  C:\Users\OSD\AppData\Local\Temp\ccnvvkrZ.s 			page 25


 310              		.loc 1 1078 86 discriminator 2 view .LVU58
 311 0022 2B78     		ldrb	r3, [r5]	@ zero_extendqisi2
 312              		.loc 1 1078 67 discriminator 2 view .LVU59
 313 0024 6BB1     		cbz	r3, .L14
1079:lvgl/src/widgets/lv_btnmatrix.c ****         if(button_is_popover(btnm->ctrl_bits[btn_cnt])) {
 314              		.loc 1 1079 9 is_stmt 1 view .LVU60
 315              		.loc 1 1079 34 is_stmt 0 view .LVU61
 316 0026 FB6A     		ldr	r3, [r7, #44]
 317              		.loc 1 1079 12 view .LVU62
 318 0028 33F81600 		ldrh	r0, [r3, r6, lsl #1]
 319 002c FFF7FEFF 		bl	button_is_popover
 320              	.LVL24:
 321              		.loc 1 1079 11 view .LVU63
 322 0030 0346     		mov	r3, r0
 323 0032 30B9     		cbnz	r0, .L14
1080:lvgl/src/widgets/lv_btnmatrix.c ****             return true;
1081:lvgl/src/widgets/lv_btnmatrix.c ****         }
1082:lvgl/src/widgets/lv_btnmatrix.c ****         btn_cnt++;
 324              		.loc 1 1082 9 is_stmt 1 view .LVU64
 325              		.loc 1 1082 16 is_stmt 0 view .LVU65
 326 0034 0134     		adds	r4, r4, #1
 327              	.LVL25:
 328              		.loc 1 1082 16 view .LVU66
 329 0036 A4B2     		uxth	r4, r4
 330              	.LVL26:
 331              		.loc 1 1082 16 view .LVU67
 332 0038 EAE7     		b	.L15
 333              	.LVL27:
 334              	.L17:
 335              		.cfi_def_cfa_offset 0
 336              		.cfi_restore 4
 337              		.cfi_restore 5
 338              		.cfi_restore 6
 339              		.cfi_restore 7
 340              		.cfi_restore 8
 341              		.cfi_restore 14
1072:lvgl/src/widgets/lv_btnmatrix.c ****     }
 342              		.loc 1 1072 16 view .LVU68
 343 003a 0023     		movs	r3, #0
1083:lvgl/src/widgets/lv_btnmatrix.c ****     }
1084:lvgl/src/widgets/lv_btnmatrix.c **** 
1085:lvgl/src/widgets/lv_btnmatrix.c ****     return false;
1086:lvgl/src/widgets/lv_btnmatrix.c **** }
 344              		.loc 1 1086 1 view .LVU69
 345 003c 1846     		mov	r0, r3
 346              	.LVL28:
 347              		.loc 1 1086 1 view .LVU70
 348 003e 7047     		bx	lr
 349              	.LVL29:
 350              	.L18:
 351              		.cfi_def_cfa_offset 24
 352              		.cfi_offset 4, -24
 353              		.cfi_offset 5, -20
 354              		.cfi_offset 6, -16
 355              		.cfi_offset 7, -12
 356              		.cfi_offset 8, -8
 357              		.cfi_offset 14, -4
ARM GAS  C:\Users\OSD\AppData\Local\Temp\ccnvvkrZ.s 			page 26


1085:lvgl/src/widgets/lv_btnmatrix.c **** }
 358              		.loc 1 1085 12 view .LVU71
 359 0040 0023     		movs	r3, #0
 360              	.L14:
 361              		.loc 1 1086 1 view .LVU72
 362 0042 1846     		mov	r0, r3
 363 0044 BDE8F081 		pop	{r4, r5, r6, r7, r8, pc}
 364              	.LVL30:
 365              	.L19:
1085:lvgl/src/widgets/lv_btnmatrix.c **** }
 366              		.loc 1 1085 12 view .LVU73
 367 0048 0023     		movs	r3, #0
 368 004a FAE7     		b	.L14
 369              	.L25:
 370              		.align	2
 371              	.L24:
 372 004c 00000000 		.word	.LC0
 373              		.cfi_endproc
 374              	.LFE194:
 376              		.section	.text.get_button_from_point,"ax",%progbits
 377              		.align	1
 378              		.syntax unified
 379              		.thumb
 380              		.thumb_func
 382              	get_button_from_point:
 383              	.LVL31:
 384              	.LFB191:
 957:lvgl/src/widgets/lv_btnmatrix.c ****     lv_area_t obj_cords;
 385              		.loc 1 957 1 is_stmt 1 view -0
 386              		.cfi_startproc
 387              		@ args = 0, pretend = 0, frame = 32
 388              		@ frame_needed = 0, uses_anonymous_args = 0
 957:lvgl/src/widgets/lv_btnmatrix.c ****     lv_area_t obj_cords;
 389              		.loc 1 957 1 is_stmt 0 view .LVU75
 390 0000 2DE9F04F 		push	{r4, r5, r6, r7, r8, r9, r10, fp, lr}
 391              		.cfi_def_cfa_offset 36
 392              		.cfi_offset 4, -36
 393              		.cfi_offset 5, -32
 394              		.cfi_offset 6, -28
 395              		.cfi_offset 7, -24
 396              		.cfi_offset 8, -20
 397              		.cfi_offset 9, -16
 398              		.cfi_offset 10, -12
 399              		.cfi_offset 11, -8
 400              		.cfi_offset 14, -4
 401 0004 89B0     		sub	sp, sp, #36
 402              		.cfi_def_cfa_offset 72
 403 0006 0546     		mov	r5, r0
 404 0008 0391     		str	r1, [sp, #12]
 958:lvgl/src/widgets/lv_btnmatrix.c ****     lv_area_t btn_area;
 405              		.loc 1 958 5 is_stmt 1 view .LVU76
 959:lvgl/src/widgets/lv_btnmatrix.c ****     lv_btnmatrix_t * btnm = (lv_btnmatrix_t *)obj;;
 406              		.loc 1 959 5 view .LVU77
 960:lvgl/src/widgets/lv_btnmatrix.c ****     uint16_t i;
 407              		.loc 1 960 5 view .LVU78
 408              	.LVL32:
 960:lvgl/src/widgets/lv_btnmatrix.c ****     uint16_t i;
ARM GAS  C:\Users\OSD\AppData\Local\Temp\ccnvvkrZ.s 			page 27


 409              		.loc 1 960 51 view .LVU79
 961:lvgl/src/widgets/lv_btnmatrix.c ****     lv_obj_get_coords(obj, &obj_cords);
 410              		.loc 1 961 5 view .LVU80
 962:lvgl/src/widgets/lv_btnmatrix.c **** 
 411              		.loc 1 962 5 view .LVU81
 412 000a 06A9     		add	r1, sp, #24
 413              	.LVL33:
 962:lvgl/src/widgets/lv_btnmatrix.c **** 
 414              		.loc 1 962 5 is_stmt 0 view .LVU82
 415 000c FFF7FEFF 		bl	lv_obj_get_coords
 416              	.LVL34:
 964:lvgl/src/widgets/lv_btnmatrix.c ****     lv_coord_t h = lv_obj_get_height(obj);
 417              		.loc 1 964 5 is_stmt 1 view .LVU83
 964:lvgl/src/widgets/lv_btnmatrix.c ****     lv_coord_t h = lv_obj_get_height(obj);
 418              		.loc 1 964 20 is_stmt 0 view .LVU84
 419 0010 2846     		mov	r0, r5
 420 0012 FFF7FEFF 		bl	lv_obj_get_width
 421              	.LVL35:
 422 0016 0190     		str	r0, [sp, #4]
 423              	.LVL36:
 965:lvgl/src/widgets/lv_btnmatrix.c ****     lv_coord_t pleft = lv_obj_get_style_pad_left(obj, LV_PART_MAIN);
 424              		.loc 1 965 5 is_stmt 1 view .LVU85
 965:lvgl/src/widgets/lv_btnmatrix.c ****     lv_coord_t pleft = lv_obj_get_style_pad_left(obj, LV_PART_MAIN);
 425              		.loc 1 965 20 is_stmt 0 view .LVU86
 426 0018 2846     		mov	r0, r5
 427 001a FFF7FEFF 		bl	lv_obj_get_height
 428              	.LVL37:
 429 001e 0290     		str	r0, [sp, #8]
 430              	.LVL38:
 966:lvgl/src/widgets/lv_btnmatrix.c ****     lv_coord_t pright = lv_obj_get_style_pad_right(obj, LV_PART_MAIN);
 431              		.loc 1 966 5 is_stmt 1 view .LVU87
 432              	.LBB81:
 433              	.LBI81:
 434              		.file 2 "lvgl/src/widgets/../core/lv_obj_style_gen.h"
   1:lvgl/src/widgets/../core/lv_obj_style_gen.h **** static inline lv_coord_t lv_obj_get_style_width(const struct _lv_obj_t * obj, uint32_t part)
   2:lvgl/src/widgets/../core/lv_obj_style_gen.h **** {
   3:lvgl/src/widgets/../core/lv_obj_style_gen.h ****     lv_style_value_t v = lv_obj_get_style_prop(obj, part, LV_STYLE_WIDTH);
   4:lvgl/src/widgets/../core/lv_obj_style_gen.h ****     return (lv_coord_t)v.num;
   5:lvgl/src/widgets/../core/lv_obj_style_gen.h **** }
   6:lvgl/src/widgets/../core/lv_obj_style_gen.h **** 
   7:lvgl/src/widgets/../core/lv_obj_style_gen.h **** static inline lv_coord_t lv_obj_get_style_min_width(const struct _lv_obj_t * obj, uint32_t part)
   8:lvgl/src/widgets/../core/lv_obj_style_gen.h **** {
   9:lvgl/src/widgets/../core/lv_obj_style_gen.h ****     lv_style_value_t v = lv_obj_get_style_prop(obj, part, LV_STYLE_MIN_WIDTH);
  10:lvgl/src/widgets/../core/lv_obj_style_gen.h ****     return (lv_coord_t)v.num;
  11:lvgl/src/widgets/../core/lv_obj_style_gen.h **** }
  12:lvgl/src/widgets/../core/lv_obj_style_gen.h **** 
  13:lvgl/src/widgets/../core/lv_obj_style_gen.h **** static inline lv_coord_t lv_obj_get_style_max_width(const struct _lv_obj_t * obj, uint32_t part)
  14:lvgl/src/widgets/../core/lv_obj_style_gen.h **** {
  15:lvgl/src/widgets/../core/lv_obj_style_gen.h ****     lv_style_value_t v = lv_obj_get_style_prop(obj, part, LV_STYLE_MAX_WIDTH);
  16:lvgl/src/widgets/../core/lv_obj_style_gen.h ****     return (lv_coord_t)v.num;
  17:lvgl/src/widgets/../core/lv_obj_style_gen.h **** }
  18:lvgl/src/widgets/../core/lv_obj_style_gen.h **** 
  19:lvgl/src/widgets/../core/lv_obj_style_gen.h **** static inline lv_coord_t lv_obj_get_style_height(const struct _lv_obj_t * obj, uint32_t part)
  20:lvgl/src/widgets/../core/lv_obj_style_gen.h **** {
  21:lvgl/src/widgets/../core/lv_obj_style_gen.h ****     lv_style_value_t v = lv_obj_get_style_prop(obj, part, LV_STYLE_HEIGHT);
  22:lvgl/src/widgets/../core/lv_obj_style_gen.h ****     return (lv_coord_t)v.num;
  23:lvgl/src/widgets/../core/lv_obj_style_gen.h **** }
ARM GAS  C:\Users\OSD\AppData\Local\Temp\ccnvvkrZ.s 			page 28


  24:lvgl/src/widgets/../core/lv_obj_style_gen.h **** 
  25:lvgl/src/widgets/../core/lv_obj_style_gen.h **** static inline lv_coord_t lv_obj_get_style_min_height(const struct _lv_obj_t * obj, uint32_t part)
  26:lvgl/src/widgets/../core/lv_obj_style_gen.h **** {
  27:lvgl/src/widgets/../core/lv_obj_style_gen.h ****     lv_style_value_t v = lv_obj_get_style_prop(obj, part, LV_STYLE_MIN_HEIGHT);
  28:lvgl/src/widgets/../core/lv_obj_style_gen.h ****     return (lv_coord_t)v.num;
  29:lvgl/src/widgets/../core/lv_obj_style_gen.h **** }
  30:lvgl/src/widgets/../core/lv_obj_style_gen.h **** 
  31:lvgl/src/widgets/../core/lv_obj_style_gen.h **** static inline lv_coord_t lv_obj_get_style_max_height(const struct _lv_obj_t * obj, uint32_t part)
  32:lvgl/src/widgets/../core/lv_obj_style_gen.h **** {
  33:lvgl/src/widgets/../core/lv_obj_style_gen.h ****     lv_style_value_t v = lv_obj_get_style_prop(obj, part, LV_STYLE_MAX_HEIGHT);
  34:lvgl/src/widgets/../core/lv_obj_style_gen.h ****     return (lv_coord_t)v.num;
  35:lvgl/src/widgets/../core/lv_obj_style_gen.h **** }
  36:lvgl/src/widgets/../core/lv_obj_style_gen.h **** 
  37:lvgl/src/widgets/../core/lv_obj_style_gen.h **** static inline lv_coord_t lv_obj_get_style_x(const struct _lv_obj_t * obj, uint32_t part)
  38:lvgl/src/widgets/../core/lv_obj_style_gen.h **** {
  39:lvgl/src/widgets/../core/lv_obj_style_gen.h ****     lv_style_value_t v = lv_obj_get_style_prop(obj, part, LV_STYLE_X);
  40:lvgl/src/widgets/../core/lv_obj_style_gen.h ****     return (lv_coord_t)v.num;
  41:lvgl/src/widgets/../core/lv_obj_style_gen.h **** }
  42:lvgl/src/widgets/../core/lv_obj_style_gen.h **** 
  43:lvgl/src/widgets/../core/lv_obj_style_gen.h **** static inline lv_coord_t lv_obj_get_style_y(const struct _lv_obj_t * obj, uint32_t part)
  44:lvgl/src/widgets/../core/lv_obj_style_gen.h **** {
  45:lvgl/src/widgets/../core/lv_obj_style_gen.h ****     lv_style_value_t v = lv_obj_get_style_prop(obj, part, LV_STYLE_Y);
  46:lvgl/src/widgets/../core/lv_obj_style_gen.h ****     return (lv_coord_t)v.num;
  47:lvgl/src/widgets/../core/lv_obj_style_gen.h **** }
  48:lvgl/src/widgets/../core/lv_obj_style_gen.h **** 
  49:lvgl/src/widgets/../core/lv_obj_style_gen.h **** static inline lv_align_t lv_obj_get_style_align(const struct _lv_obj_t * obj, uint32_t part)
  50:lvgl/src/widgets/../core/lv_obj_style_gen.h **** {
  51:lvgl/src/widgets/../core/lv_obj_style_gen.h ****     lv_style_value_t v = lv_obj_get_style_prop(obj, part, LV_STYLE_ALIGN);
  52:lvgl/src/widgets/../core/lv_obj_style_gen.h ****     return (lv_align_t)v.num;
  53:lvgl/src/widgets/../core/lv_obj_style_gen.h **** }
  54:lvgl/src/widgets/../core/lv_obj_style_gen.h **** 
  55:lvgl/src/widgets/../core/lv_obj_style_gen.h **** static inline lv_coord_t lv_obj_get_style_transform_width(const struct _lv_obj_t * obj, uint32_t pa
  56:lvgl/src/widgets/../core/lv_obj_style_gen.h **** {
  57:lvgl/src/widgets/../core/lv_obj_style_gen.h ****     lv_style_value_t v = lv_obj_get_style_prop(obj, part, LV_STYLE_TRANSFORM_WIDTH);
  58:lvgl/src/widgets/../core/lv_obj_style_gen.h ****     return (lv_coord_t)v.num;
  59:lvgl/src/widgets/../core/lv_obj_style_gen.h **** }
  60:lvgl/src/widgets/../core/lv_obj_style_gen.h **** 
  61:lvgl/src/widgets/../core/lv_obj_style_gen.h **** static inline lv_coord_t lv_obj_get_style_transform_height(const struct _lv_obj_t * obj, uint32_t p
  62:lvgl/src/widgets/../core/lv_obj_style_gen.h **** {
  63:lvgl/src/widgets/../core/lv_obj_style_gen.h ****     lv_style_value_t v = lv_obj_get_style_prop(obj, part, LV_STYLE_TRANSFORM_HEIGHT);
  64:lvgl/src/widgets/../core/lv_obj_style_gen.h ****     return (lv_coord_t)v.num;
  65:lvgl/src/widgets/../core/lv_obj_style_gen.h **** }
  66:lvgl/src/widgets/../core/lv_obj_style_gen.h **** 
  67:lvgl/src/widgets/../core/lv_obj_style_gen.h **** static inline lv_coord_t lv_obj_get_style_translate_x(const struct _lv_obj_t * obj, uint32_t part)
  68:lvgl/src/widgets/../core/lv_obj_style_gen.h **** {
  69:lvgl/src/widgets/../core/lv_obj_style_gen.h ****     lv_style_value_t v = lv_obj_get_style_prop(obj, part, LV_STYLE_TRANSLATE_X);
  70:lvgl/src/widgets/../core/lv_obj_style_gen.h ****     return (lv_coord_t)v.num;
  71:lvgl/src/widgets/../core/lv_obj_style_gen.h **** }
  72:lvgl/src/widgets/../core/lv_obj_style_gen.h **** 
  73:lvgl/src/widgets/../core/lv_obj_style_gen.h **** static inline lv_coord_t lv_obj_get_style_translate_y(const struct _lv_obj_t * obj, uint32_t part)
  74:lvgl/src/widgets/../core/lv_obj_style_gen.h **** {
  75:lvgl/src/widgets/../core/lv_obj_style_gen.h ****     lv_style_value_t v = lv_obj_get_style_prop(obj, part, LV_STYLE_TRANSLATE_Y);
  76:lvgl/src/widgets/../core/lv_obj_style_gen.h ****     return (lv_coord_t)v.num;
  77:lvgl/src/widgets/../core/lv_obj_style_gen.h **** }
  78:lvgl/src/widgets/../core/lv_obj_style_gen.h **** 
  79:lvgl/src/widgets/../core/lv_obj_style_gen.h **** static inline lv_coord_t lv_obj_get_style_transform_zoom(const struct _lv_obj_t * obj, uint32_t par
  80:lvgl/src/widgets/../core/lv_obj_style_gen.h **** {
ARM GAS  C:\Users\OSD\AppData\Local\Temp\ccnvvkrZ.s 			page 29


  81:lvgl/src/widgets/../core/lv_obj_style_gen.h ****     lv_style_value_t v = lv_obj_get_style_prop(obj, part, LV_STYLE_TRANSFORM_ZOOM);
  82:lvgl/src/widgets/../core/lv_obj_style_gen.h ****     return (lv_coord_t)v.num;
  83:lvgl/src/widgets/../core/lv_obj_style_gen.h **** }
  84:lvgl/src/widgets/../core/lv_obj_style_gen.h **** 
  85:lvgl/src/widgets/../core/lv_obj_style_gen.h **** static inline lv_coord_t lv_obj_get_style_transform_angle(const struct _lv_obj_t * obj, uint32_t pa
  86:lvgl/src/widgets/../core/lv_obj_style_gen.h **** {
  87:lvgl/src/widgets/../core/lv_obj_style_gen.h ****     lv_style_value_t v = lv_obj_get_style_prop(obj, part, LV_STYLE_TRANSFORM_ANGLE);
  88:lvgl/src/widgets/../core/lv_obj_style_gen.h ****     return (lv_coord_t)v.num;
  89:lvgl/src/widgets/../core/lv_obj_style_gen.h **** }
  90:lvgl/src/widgets/../core/lv_obj_style_gen.h **** 
  91:lvgl/src/widgets/../core/lv_obj_style_gen.h **** static inline lv_coord_t lv_obj_get_style_transform_pivot_x(const struct _lv_obj_t * obj, uint32_t 
  92:lvgl/src/widgets/../core/lv_obj_style_gen.h **** {
  93:lvgl/src/widgets/../core/lv_obj_style_gen.h ****     lv_style_value_t v = lv_obj_get_style_prop(obj, part, LV_STYLE_TRANSFORM_PIVOT_X);
  94:lvgl/src/widgets/../core/lv_obj_style_gen.h ****     return (lv_coord_t)v.num;
  95:lvgl/src/widgets/../core/lv_obj_style_gen.h **** }
  96:lvgl/src/widgets/../core/lv_obj_style_gen.h **** 
  97:lvgl/src/widgets/../core/lv_obj_style_gen.h **** static inline lv_coord_t lv_obj_get_style_transform_pivot_y(const struct _lv_obj_t * obj, uint32_t 
  98:lvgl/src/widgets/../core/lv_obj_style_gen.h **** {
  99:lvgl/src/widgets/../core/lv_obj_style_gen.h ****     lv_style_value_t v = lv_obj_get_style_prop(obj, part, LV_STYLE_TRANSFORM_PIVOT_Y);
 100:lvgl/src/widgets/../core/lv_obj_style_gen.h ****     return (lv_coord_t)v.num;
 101:lvgl/src/widgets/../core/lv_obj_style_gen.h **** }
 102:lvgl/src/widgets/../core/lv_obj_style_gen.h **** 
 103:lvgl/src/widgets/../core/lv_obj_style_gen.h **** static inline lv_coord_t lv_obj_get_style_pad_top(const struct _lv_obj_t * obj, uint32_t part)
 104:lvgl/src/widgets/../core/lv_obj_style_gen.h **** {
 105:lvgl/src/widgets/../core/lv_obj_style_gen.h ****     lv_style_value_t v = lv_obj_get_style_prop(obj, part, LV_STYLE_PAD_TOP);
 106:lvgl/src/widgets/../core/lv_obj_style_gen.h ****     return (lv_coord_t)v.num;
 107:lvgl/src/widgets/../core/lv_obj_style_gen.h **** }
 108:lvgl/src/widgets/../core/lv_obj_style_gen.h **** 
 109:lvgl/src/widgets/../core/lv_obj_style_gen.h **** static inline lv_coord_t lv_obj_get_style_pad_bottom(const struct _lv_obj_t * obj, uint32_t part)
 110:lvgl/src/widgets/../core/lv_obj_style_gen.h **** {
 111:lvgl/src/widgets/../core/lv_obj_style_gen.h ****     lv_style_value_t v = lv_obj_get_style_prop(obj, part, LV_STYLE_PAD_BOTTOM);
 112:lvgl/src/widgets/../core/lv_obj_style_gen.h ****     return (lv_coord_t)v.num;
 113:lvgl/src/widgets/../core/lv_obj_style_gen.h **** }
 114:lvgl/src/widgets/../core/lv_obj_style_gen.h **** 
 115:lvgl/src/widgets/../core/lv_obj_style_gen.h **** static inline lv_coord_t lv_obj_get_style_pad_left(const struct _lv_obj_t * obj, uint32_t part)
 435              		.loc 2 115 26 view .LVU88
 436              	.LBB82:
 116:lvgl/src/widgets/../core/lv_obj_style_gen.h **** {
 117:lvgl/src/widgets/../core/lv_obj_style_gen.h ****     lv_style_value_t v = lv_obj_get_style_prop(obj, part, LV_STYLE_PAD_LEFT);
 437              		.loc 2 117 5 view .LVU89
 438              		.loc 2 117 26 is_stmt 0 view .LVU90
 439 0020 1222     		movs	r2, #18
 440 0022 0021     		movs	r1, #0
 441 0024 2846     		mov	r0, r5
 442 0026 FFF7FEFF 		bl	lv_obj_get_style_prop
 443              	.LVL39:
 118:lvgl/src/widgets/../core/lv_obj_style_gen.h ****     return (lv_coord_t)v.num;
 444              		.loc 2 118 5 is_stmt 1 view .LVU91
 445              		.loc 2 118 12 is_stmt 0 view .LVU92
 446 002a 0FFA80FB 		sxth	fp, r0
 447              	.LVL40:
 448              		.loc 2 118 12 view .LVU93
 449              	.LBE82:
 450              	.LBE81:
 967:lvgl/src/widgets/lv_btnmatrix.c ****     lv_coord_t ptop = lv_obj_get_style_pad_top(obj, LV_PART_MAIN);
 451              		.loc 1 967 5 is_stmt 1 view .LVU94
 452              	.LBB83:
ARM GAS  C:\Users\OSD\AppData\Local\Temp\ccnvvkrZ.s 			page 30


 453              	.LBI83:
 119:lvgl/src/widgets/../core/lv_obj_style_gen.h **** }
 120:lvgl/src/widgets/../core/lv_obj_style_gen.h **** 
 121:lvgl/src/widgets/../core/lv_obj_style_gen.h **** static inline lv_coord_t lv_obj_get_style_pad_right(const struct _lv_obj_t * obj, uint32_t part)
 454              		.loc 2 121 26 view .LVU95
 455              	.LBB84:
 122:lvgl/src/widgets/../core/lv_obj_style_gen.h **** {
 123:lvgl/src/widgets/../core/lv_obj_style_gen.h ****     lv_style_value_t v = lv_obj_get_style_prop(obj, part, LV_STYLE_PAD_RIGHT);
 456              		.loc 2 123 5 view .LVU96
 457              		.loc 2 123 26 is_stmt 0 view .LVU97
 458 002e 1322     		movs	r2, #19
 459 0030 0021     		movs	r1, #0
 460 0032 2846     		mov	r0, r5
 461 0034 FFF7FEFF 		bl	lv_obj_get_style_prop
 462              	.LVL41:
 124:lvgl/src/widgets/../core/lv_obj_style_gen.h ****     return (lv_coord_t)v.num;
 463              		.loc 2 124 5 is_stmt 1 view .LVU98
 464              		.loc 2 124 12 is_stmt 0 view .LVU99
 465 0038 0FFA80FA 		sxth	r10, r0
 466              	.LVL42:
 467              		.loc 2 124 12 view .LVU100
 468              	.LBE84:
 469              	.LBE83:
 968:lvgl/src/widgets/lv_btnmatrix.c ****     lv_coord_t pbottom = lv_obj_get_style_pad_bottom(obj, LV_PART_MAIN);
 470              		.loc 1 968 5 is_stmt 1 view .LVU101
 471              	.LBB85:
 472              	.LBI85:
 103:lvgl/src/widgets/../core/lv_obj_style_gen.h **** {
 473              		.loc 2 103 26 view .LVU102
 474              	.LBB86:
 105:lvgl/src/widgets/../core/lv_obj_style_gen.h ****     return (lv_coord_t)v.num;
 475              		.loc 2 105 5 view .LVU103
 105:lvgl/src/widgets/../core/lv_obj_style_gen.h ****     return (lv_coord_t)v.num;
 476              		.loc 2 105 26 is_stmt 0 view .LVU104
 477 003c 1022     		movs	r2, #16
 478 003e 0021     		movs	r1, #0
 479 0040 2846     		mov	r0, r5
 480 0042 FFF7FEFF 		bl	lv_obj_get_style_prop
 481              	.LVL43:
 106:lvgl/src/widgets/../core/lv_obj_style_gen.h **** }
 482              		.loc 2 106 5 is_stmt 1 view .LVU105
 106:lvgl/src/widgets/../core/lv_obj_style_gen.h **** }
 483              		.loc 2 106 12 is_stmt 0 view .LVU106
 484 0046 0FFA80F9 		sxth	r9, r0
 485              	.LVL44:
 106:lvgl/src/widgets/../core/lv_obj_style_gen.h **** }
 486              		.loc 2 106 12 view .LVU107
 487              	.LBE86:
 488              	.LBE85:
 969:lvgl/src/widgets/lv_btnmatrix.c ****     lv_coord_t prow = lv_obj_get_style_pad_row(obj, LV_PART_MAIN);
 489              		.loc 1 969 5 is_stmt 1 view .LVU108
 490              	.LBB87:
 491              	.LBI87:
 109:lvgl/src/widgets/../core/lv_obj_style_gen.h **** {
 492              		.loc 2 109 26 view .LVU109
 493              	.LBB88:
 111:lvgl/src/widgets/../core/lv_obj_style_gen.h ****     return (lv_coord_t)v.num;
ARM GAS  C:\Users\OSD\AppData\Local\Temp\ccnvvkrZ.s 			page 31


 494              		.loc 2 111 5 view .LVU110
 111:lvgl/src/widgets/../core/lv_obj_style_gen.h ****     return (lv_coord_t)v.num;
 495              		.loc 2 111 26 is_stmt 0 view .LVU111
 496 004a 1122     		movs	r2, #17
 497 004c 0021     		movs	r1, #0
 498 004e 2846     		mov	r0, r5
 499 0050 FFF7FEFF 		bl	lv_obj_get_style_prop
 500              	.LVL45:
 112:lvgl/src/widgets/../core/lv_obj_style_gen.h **** }
 501              		.loc 2 112 5 is_stmt 1 view .LVU112
 112:lvgl/src/widgets/../core/lv_obj_style_gen.h **** }
 502              		.loc 2 112 12 is_stmt 0 view .LVU113
 503 0054 0FFA80F8 		sxth	r8, r0
 504              	.LVL46:
 112:lvgl/src/widgets/../core/lv_obj_style_gen.h **** }
 505              		.loc 2 112 12 view .LVU114
 506              	.LBE88:
 507              	.LBE87:
 970:lvgl/src/widgets/lv_btnmatrix.c ****     lv_coord_t pcol = lv_obj_get_style_pad_column(obj, LV_PART_MAIN);
 508              		.loc 1 970 5 is_stmt 1 view .LVU115
 509              	.LBB89:
 510              	.LBI89:
 125:lvgl/src/widgets/../core/lv_obj_style_gen.h **** }
 126:lvgl/src/widgets/../core/lv_obj_style_gen.h **** 
 127:lvgl/src/widgets/../core/lv_obj_style_gen.h **** static inline lv_coord_t lv_obj_get_style_pad_row(const struct _lv_obj_t * obj, uint32_t part)
 511              		.loc 2 127 26 view .LVU116
 512              	.LBB90:
 128:lvgl/src/widgets/../core/lv_obj_style_gen.h **** {
 129:lvgl/src/widgets/../core/lv_obj_style_gen.h ****     lv_style_value_t v = lv_obj_get_style_prop(obj, part, LV_STYLE_PAD_ROW);
 513              		.loc 2 129 5 view .LVU117
 514              		.loc 2 129 26 is_stmt 0 view .LVU118
 515 0058 1422     		movs	r2, #20
 516 005a 0021     		movs	r1, #0
 517 005c 2846     		mov	r0, r5
 518 005e FFF7FEFF 		bl	lv_obj_get_style_prop
 519              	.LVL47:
 520 0062 0746     		mov	r7, r0
 521              	.LVL48:
 130:lvgl/src/widgets/../core/lv_obj_style_gen.h ****     return (lv_coord_t)v.num;
 522              		.loc 2 130 5 is_stmt 1 view .LVU119
 523              		.loc 2 130 12 is_stmt 0 view .LVU120
 524 0064 06B2     		sxth	r6, r0
 525              	.LVL49:
 526              		.loc 2 130 12 view .LVU121
 527              	.LBE90:
 528              	.LBE89:
 971:lvgl/src/widgets/lv_btnmatrix.c **** 
 529              		.loc 1 971 5 is_stmt 1 view .LVU122
 530              	.LBB91:
 531              	.LBI91:
 131:lvgl/src/widgets/../core/lv_obj_style_gen.h **** }
 132:lvgl/src/widgets/../core/lv_obj_style_gen.h **** 
 133:lvgl/src/widgets/../core/lv_obj_style_gen.h **** static inline lv_coord_t lv_obj_get_style_pad_column(const struct _lv_obj_t * obj, uint32_t part)
 532              		.loc 2 133 26 view .LVU123
 533              	.LBB92:
 134:lvgl/src/widgets/../core/lv_obj_style_gen.h **** {
 135:lvgl/src/widgets/../core/lv_obj_style_gen.h ****     lv_style_value_t v = lv_obj_get_style_prop(obj, part, LV_STYLE_PAD_COLUMN);
ARM GAS  C:\Users\OSD\AppData\Local\Temp\ccnvvkrZ.s 			page 32


 534              		.loc 2 135 5 view .LVU124
 535              		.loc 2 135 26 is_stmt 0 view .LVU125
 536 0066 1522     		movs	r2, #21
 537 0068 0021     		movs	r1, #0
 538 006a 2846     		mov	r0, r5
 539              		.loc 2 135 26 view .LVU126
 540 006c FFF7FEFF 		bl	lv_obj_get_style_prop
 541              	.LVL50:
 136:lvgl/src/widgets/../core/lv_obj_style_gen.h ****     return (lv_coord_t)v.num;
 542              		.loc 2 136 5 is_stmt 1 view .LVU127
 543              		.loc 2 136 12 is_stmt 0 view .LVU128
 544 0070 03B2     		sxth	r3, r0
 545              	.LVL51:
 546              		.loc 2 136 12 view .LVU129
 547              	.LBE92:
 548              	.LBE91:
 974:lvgl/src/widgets/lv_btnmatrix.c ****     pcol = (pcol / 2) + 1 + (pcol & 1);
 549              		.loc 1 974 5 is_stmt 1 view .LVU130
 974:lvgl/src/widgets/lv_btnmatrix.c ****     pcol = (pcol / 2) + 1 + (pcol & 1);
 550              		.loc 1 974 35 is_stmt 0 view .LVU131
 551 0072 07F00107 		and	r7, r7, #1
 552              	.LVL52:
 974:lvgl/src/widgets/lv_btnmatrix.c ****     pcol = (pcol / 2) + 1 + (pcol & 1);
 553              		.loc 1 974 27 view .LVU132
 554 0076 3446     		mov	r4, r6
 555 0078 002E     		cmp	r6, #0
 556 007a 23DB     		blt	.L43
 557              	.L27:
 558 007c 07EB6407 		add	r7, r7, r4, asr #1
 559 0080 0137     		adds	r7, r7, #1
 974:lvgl/src/widgets/lv_btnmatrix.c ****     pcol = (pcol / 2) + 1 + (pcol & 1);
 560              		.loc 1 974 10 view .LVU133
 561 0082 3FB2     		sxth	r7, r7
 562              	.LVL53:
 975:lvgl/src/widgets/lv_btnmatrix.c **** 
 563              		.loc 1 975 5 is_stmt 1 view .LVU134
 975:lvgl/src/widgets/lv_btnmatrix.c **** 
 564              		.loc 1 975 35 is_stmt 0 view .LVU135
 565 0084 00F00106 		and	r6, r0, #1
 975:lvgl/src/widgets/lv_btnmatrix.c **** 
 566              		.loc 1 975 27 view .LVU136
 567 0088 1846     		mov	r0, r3
 568 008a 002B     		cmp	r3, #0
 569 008c 1CDB     		blt	.L44
 570              	.L28:
 571 008e 06EB6006 		add	r6, r6, r0, asr #1
 572 0092 0136     		adds	r6, r6, #1
 975:lvgl/src/widgets/lv_btnmatrix.c **** 
 573              		.loc 1 975 10 view .LVU137
 574 0094 36B2     		sxth	r6, r6
 575              	.LVL54:
 977:lvgl/src/widgets/lv_btnmatrix.c ****     pcol = LV_MIN(pcol, BTN_EXTRA_CLICK_AREA_MAX);
 576              		.loc 1 977 5 is_stmt 1 view .LVU138
 977:lvgl/src/widgets/lv_btnmatrix.c ****     pcol = LV_MIN(pcol, BTN_EXTRA_CLICK_AREA_MAX);
 577              		.loc 1 977 10 is_stmt 0 view .LVU139
 578 0096 0D2F     		cmp	r7, #13
 579 0098 A8BF     		it	ge
ARM GAS  C:\Users\OSD\AppData\Local\Temp\ccnvvkrZ.s 			page 33


 580 009a 0D27     		movge	r7, #13
 581              	.LVL55:
 978:lvgl/src/widgets/lv_btnmatrix.c ****     pright = LV_MIN(pright, BTN_EXTRA_CLICK_AREA_MAX);
 582              		.loc 1 978 5 is_stmt 1 view .LVU140
 978:lvgl/src/widgets/lv_btnmatrix.c ****     pright = LV_MIN(pright, BTN_EXTRA_CLICK_AREA_MAX);
 583              		.loc 1 978 10 is_stmt 0 view .LVU141
 584 009c 0D2E     		cmp	r6, #13
 585 009e A8BF     		it	ge
 586 00a0 0D26     		movge	r6, #13
 587              	.LVL56:
 979:lvgl/src/widgets/lv_btnmatrix.c ****     ptop = LV_MIN(ptop, BTN_EXTRA_CLICK_AREA_MAX);
 588              		.loc 1 979 5 is_stmt 1 view .LVU142
 979:lvgl/src/widgets/lv_btnmatrix.c ****     ptop = LV_MIN(ptop, BTN_EXTRA_CLICK_AREA_MAX);
 589              		.loc 1 979 12 is_stmt 0 view .LVU143
 590 00a2 BAF10D0F 		cmp	r10, #13
 591 00a6 A8BF     		it	ge
 592 00a8 4FF00D0A 		movge	r10, #13
 593              	.LVL57:
 980:lvgl/src/widgets/lv_btnmatrix.c ****     pbottom = LV_MIN(pbottom, BTN_EXTRA_CLICK_AREA_MAX);
 594              		.loc 1 980 5 is_stmt 1 view .LVU144
 980:lvgl/src/widgets/lv_btnmatrix.c ****     pbottom = LV_MIN(pbottom, BTN_EXTRA_CLICK_AREA_MAX);
 595              		.loc 1 980 10 is_stmt 0 view .LVU145
 596 00ac B9F10D0F 		cmp	r9, #13
 597 00b0 A8BF     		it	ge
 598 00b2 4FF00D09 		movge	r9, #13
 599              	.LVL58:
 981:lvgl/src/widgets/lv_btnmatrix.c **** 
 600              		.loc 1 981 5 is_stmt 1 view .LVU146
 981:lvgl/src/widgets/lv_btnmatrix.c **** 
 601              		.loc 1 981 13 is_stmt 0 view .LVU147
 602 00b6 B8F10D0F 		cmp	r8, #13
 603 00ba A8BF     		it	ge
 604 00bc 4FF00D08 		movge	r8, #13
 605              	.LVL59:
 983:lvgl/src/widgets/lv_btnmatrix.c ****         lv_area_copy(&btn_area, &btnm->button_areas[i]);
 606              		.loc 1 983 5 is_stmt 1 view .LVU148
 983:lvgl/src/widgets/lv_btnmatrix.c ****         lv_area_copy(&btn_area, &btnm->button_areas[i]);
 607              		.loc 1 983 11 is_stmt 0 view .LVU149
 608 00c0 0024     		movs	r4, #0
 983:lvgl/src/widgets/lv_btnmatrix.c ****         lv_area_copy(&btn_area, &btnm->button_areas[i]);
 609              		.loc 1 983 5 view .LVU150
 610 00c2 2BE0     		b	.L29
 611              	.LVL60:
 612              	.L43:
 974:lvgl/src/widgets/lv_btnmatrix.c ****     pcol = (pcol / 2) + 1 + (pcol & 1);
 613              		.loc 1 974 27 view .LVU151
 614 00c4 741C     		adds	r4, r6, #1
 615 00c6 D9E7     		b	.L27
 616              	.LVL61:
 617              	.L44:
 975:lvgl/src/widgets/lv_btnmatrix.c **** 
 618              		.loc 1 975 27 view .LVU152
 619 00c8 581C     		adds	r0, r3, #1
 620 00ca E0E7     		b	.L28
 621              	.LVL62:
 622              	.L30:
 986:lvgl/src/widgets/lv_btnmatrix.c **** 
ARM GAS  C:\Users\OSD\AppData\Local\Temp\ccnvvkrZ.s 			page 34


 623              		.loc 1 986 14 is_stmt 1 view .LVU153
 986:lvgl/src/widgets/lv_btnmatrix.c **** 
 624              		.loc 1 986 38 is_stmt 0 view .LVU154
 625 00cc BDF81830 		ldrh	r3, [sp, #24]
 986:lvgl/src/widgets/lv_btnmatrix.c **** 
 626              		.loc 1 986 42 view .LVU155
 627 00d0 9B1B     		subs	r3, r3, r6
 986:lvgl/src/widgets/lv_btnmatrix.c **** 
 628              		.loc 1 986 26 view .LVU156
 629 00d2 1CFA83FC 		uxtah	ip, ip, r3
 630 00d6 ADF810C0 		strh	ip, [sp, #16]	@ movhi
 631 00da 47E0     		b	.L31
 632              	.L32:
 989:lvgl/src/widgets/lv_btnmatrix.c **** 
 633              		.loc 1 989 14 is_stmt 1 view .LVU157
 989:lvgl/src/widgets/lv_btnmatrix.c **** 
 634              		.loc 1 989 38 is_stmt 0 view .LVU158
 635 00dc BDF81A30 		ldrh	r3, [sp, #26]
 989:lvgl/src/widgets/lv_btnmatrix.c **** 
 636              		.loc 1 989 42 view .LVU159
 637 00e0 DB1B     		subs	r3, r3, r7
 989:lvgl/src/widgets/lv_btnmatrix.c **** 
 638              		.loc 1 989 26 view .LVU160
 639 00e2 10FA83F0 		uxtah	r0, r0, r3
 640 00e6 ADF81200 		strh	r0, [sp, #18]	@ movhi
 641 00ea 51E0     		b	.L33
 642              	.L34:
 993:lvgl/src/widgets/lv_btnmatrix.c **** 
 643              		.loc 1 993 14 is_stmt 1 view .LVU161
 993:lvgl/src/widgets/lv_btnmatrix.c **** 
 644              		.loc 1 993 38 is_stmt 0 view .LVU162
 645 00ec BDF81830 		ldrh	r3, [sp, #24]
 993:lvgl/src/widgets/lv_btnmatrix.c **** 
 646              		.loc 1 993 42 view .LVU163
 647 00f0 3344     		add	r3, r3, r6
 993:lvgl/src/widgets/lv_btnmatrix.c **** 
 648              		.loc 1 993 26 view .LVU164
 649 00f2 11FA83F1 		uxtah	r1, r1, r3
 650 00f6 ADF81410 		strh	r1, [sp, #20]	@ movhi
 651 00fa 5BE0     		b	.L35
 652              	.L36:
 997:lvgl/src/widgets/lv_btnmatrix.c **** 
 653              		.loc 1 997 14 is_stmt 1 view .LVU165
 997:lvgl/src/widgets/lv_btnmatrix.c **** 
 654              		.loc 1 997 38 is_stmt 0 view .LVU166
 655 00fc BDF81A30 		ldrh	r3, [sp, #26]
 997:lvgl/src/widgets/lv_btnmatrix.c **** 
 656              		.loc 1 997 42 view .LVU167
 657 0100 3B44     		add	r3, r3, r7
 997:lvgl/src/widgets/lv_btnmatrix.c **** 
 658              		.loc 1 997 26 view .LVU168
 659 0102 12FA83F2 		uxtah	r2, r2, r3
 660 0106 ADF81620 		strh	r2, [sp, #22]	@ movhi
 661              	.L37:
 999:lvgl/src/widgets/lv_btnmatrix.c ****             break;
 662              		.loc 1 999 9 is_stmt 1 view .LVU169
 999:lvgl/src/widgets/lv_btnmatrix.c ****             break;
ARM GAS  C:\Users\OSD\AppData\Local\Temp\ccnvvkrZ.s 			page 35


 663              		.loc 1 999 12 is_stmt 0 view .LVU170
 664 010a 0022     		movs	r2, #0
 665 010c 0399     		ldr	r1, [sp, #12]
 666 010e 04A8     		add	r0, sp, #16
 667 0110 FFF7FEFF 		bl	_lv_area_is_point_on
 668              	.LVL63:
 999:lvgl/src/widgets/lv_btnmatrix.c ****             break;
 669              		.loc 1 999 11 view .LVU171
 670 0114 0028     		cmp	r0, #0
 671 0116 60D1     		bne	.L38
 983:lvgl/src/widgets/lv_btnmatrix.c ****         lv_area_copy(&btn_area, &btnm->button_areas[i]);
 672              		.loc 1 983 35 is_stmt 1 discriminator 2 view .LVU172
 983:lvgl/src/widgets/lv_btnmatrix.c ****         lv_area_copy(&btn_area, &btnm->button_areas[i]);
 673              		.loc 1 983 36 is_stmt 0 discriminator 2 view .LVU173
 674 0118 0134     		adds	r4, r4, #1
 675              	.LVL64:
 983:lvgl/src/widgets/lv_btnmatrix.c ****         lv_area_copy(&btn_area, &btnm->button_areas[i]);
 676              		.loc 1 983 36 discriminator 2 view .LVU174
 677 011a A4B2     		uxth	r4, r4
 678              	.LVL65:
 679              	.L29:
 983:lvgl/src/widgets/lv_btnmatrix.c ****         lv_area_copy(&btn_area, &btnm->button_areas[i]);
 680              		.loc 1 983 16 is_stmt 1 discriminator 1 view .LVU175
 983:lvgl/src/widgets/lv_btnmatrix.c ****         lv_area_copy(&btn_area, &btnm->button_areas[i]);
 681              		.loc 1 983 24 is_stmt 0 discriminator 1 view .LVU176
 682 011c 2B8E     		ldrh	r3, [r5, #48]
 983:lvgl/src/widgets/lv_btnmatrix.c ****         lv_area_copy(&btn_area, &btnm->button_areas[i]);
 683              		.loc 1 983 5 discriminator 1 view .LVU177
 684 011e A342     		cmp	r3, r4
 685 0120 5BD9     		bls	.L38
 984:lvgl/src/widgets/lv_btnmatrix.c ****         if(btn_area.x1 <= pleft) btn_area.x1 += obj_cords.x1 - LV_MIN(pleft, BTN_EXTRA_CLICK_AREA_M
 686              		.loc 1 984 9 is_stmt 1 view .LVU178
 984:lvgl/src/widgets/lv_btnmatrix.c ****         if(btn_area.x1 <= pleft) btn_area.x1 += obj_cords.x1 - LV_MIN(pleft, BTN_EXTRA_CLICK_AREA_M
 687              		.loc 1 984 38 is_stmt 0 view .LVU179
 688 0122 AA6A     		ldr	r2, [r5, #40]
 984:lvgl/src/widgets/lv_btnmatrix.c ****         if(btn_area.x1 <= pleft) btn_area.x1 += obj_cords.x1 - LV_MIN(pleft, BTN_EXTRA_CLICK_AREA_M
 689              		.loc 1 984 33 view .LVU180
 690 0124 02EBC403 		add	r3, r2, r4, lsl #3
 691              	.LVL66:
 692              	.LBB93:
 693              	.LBI93:
 694              		.file 3 "d:\\kzc\\stm32\\h743ii_lcd\\lvgl\\src\\misc\\lv_area.h"
   1:d:\kzc\stm32\h743ii_lcd\lvgl\src\misc\lv_area.h **** /**
   2:d:\kzc\stm32\h743ii_lcd\lvgl\src\misc\lv_area.h ****  * @file lv_area.h
   3:d:\kzc\stm32\h743ii_lcd\lvgl\src\misc\lv_area.h ****  *
   4:d:\kzc\stm32\h743ii_lcd\lvgl\src\misc\lv_area.h ****  */
   5:d:\kzc\stm32\h743ii_lcd\lvgl\src\misc\lv_area.h **** 
   6:d:\kzc\stm32\h743ii_lcd\lvgl\src\misc\lv_area.h **** #ifndef LV_AREA_H
   7:d:\kzc\stm32\h743ii_lcd\lvgl\src\misc\lv_area.h **** #define LV_AREA_H
   8:d:\kzc\stm32\h743ii_lcd\lvgl\src\misc\lv_area.h **** 
   9:d:\kzc\stm32\h743ii_lcd\lvgl\src\misc\lv_area.h **** #ifdef __cplusplus
  10:d:\kzc\stm32\h743ii_lcd\lvgl\src\misc\lv_area.h **** extern "C" {
  11:d:\kzc\stm32\h743ii_lcd\lvgl\src\misc\lv_area.h **** #endif
  12:d:\kzc\stm32\h743ii_lcd\lvgl\src\misc\lv_area.h **** 
  13:d:\kzc\stm32\h743ii_lcd\lvgl\src\misc\lv_area.h **** /*********************
  14:d:\kzc\stm32\h743ii_lcd\lvgl\src\misc\lv_area.h ****  *      INCLUDES
  15:d:\kzc\stm32\h743ii_lcd\lvgl\src\misc\lv_area.h ****  *********************/
ARM GAS  C:\Users\OSD\AppData\Local\Temp\ccnvvkrZ.s 			page 36


  16:d:\kzc\stm32\h743ii_lcd\lvgl\src\misc\lv_area.h **** #include "../lv_conf_internal.h"
  17:d:\kzc\stm32\h743ii_lcd\lvgl\src\misc\lv_area.h **** #include <stdbool.h>
  18:d:\kzc\stm32\h743ii_lcd\lvgl\src\misc\lv_area.h **** #include <stdint.h>
  19:d:\kzc\stm32\h743ii_lcd\lvgl\src\misc\lv_area.h **** 
  20:d:\kzc\stm32\h743ii_lcd\lvgl\src\misc\lv_area.h **** /*********************
  21:d:\kzc\stm32\h743ii_lcd\lvgl\src\misc\lv_area.h ****  *      DEFINES
  22:d:\kzc\stm32\h743ii_lcd\lvgl\src\misc\lv_area.h ****  *********************/
  23:d:\kzc\stm32\h743ii_lcd\lvgl\src\misc\lv_area.h **** 
  24:d:\kzc\stm32\h743ii_lcd\lvgl\src\misc\lv_area.h **** #if LV_USE_LARGE_COORD
  25:d:\kzc\stm32\h743ii_lcd\lvgl\src\misc\lv_area.h **** typedef int32_t lv_coord_t;
  26:d:\kzc\stm32\h743ii_lcd\lvgl\src\misc\lv_area.h **** #else
  27:d:\kzc\stm32\h743ii_lcd\lvgl\src\misc\lv_area.h **** typedef int16_t lv_coord_t;
  28:d:\kzc\stm32\h743ii_lcd\lvgl\src\misc\lv_area.h **** #endif
  29:d:\kzc\stm32\h743ii_lcd\lvgl\src\misc\lv_area.h **** 
  30:d:\kzc\stm32\h743ii_lcd\lvgl\src\misc\lv_area.h **** /**********************
  31:d:\kzc\stm32\h743ii_lcd\lvgl\src\misc\lv_area.h ****  *      TYPEDEFS
  32:d:\kzc\stm32\h743ii_lcd\lvgl\src\misc\lv_area.h ****  **********************/
  33:d:\kzc\stm32\h743ii_lcd\lvgl\src\misc\lv_area.h **** 
  34:d:\kzc\stm32\h743ii_lcd\lvgl\src\misc\lv_area.h **** /**
  35:d:\kzc\stm32\h743ii_lcd\lvgl\src\misc\lv_area.h ****  * Represents a point on the screen.
  36:d:\kzc\stm32\h743ii_lcd\lvgl\src\misc\lv_area.h ****  */
  37:d:\kzc\stm32\h743ii_lcd\lvgl\src\misc\lv_area.h **** typedef struct {
  38:d:\kzc\stm32\h743ii_lcd\lvgl\src\misc\lv_area.h ****     lv_coord_t x;
  39:d:\kzc\stm32\h743ii_lcd\lvgl\src\misc\lv_area.h ****     lv_coord_t y;
  40:d:\kzc\stm32\h743ii_lcd\lvgl\src\misc\lv_area.h **** } lv_point_t;
  41:d:\kzc\stm32\h743ii_lcd\lvgl\src\misc\lv_area.h **** 
  42:d:\kzc\stm32\h743ii_lcd\lvgl\src\misc\lv_area.h **** /** Represents an area of the screen.*/
  43:d:\kzc\stm32\h743ii_lcd\lvgl\src\misc\lv_area.h **** typedef struct {
  44:d:\kzc\stm32\h743ii_lcd\lvgl\src\misc\lv_area.h ****     lv_coord_t x1;
  45:d:\kzc\stm32\h743ii_lcd\lvgl\src\misc\lv_area.h ****     lv_coord_t y1;
  46:d:\kzc\stm32\h743ii_lcd\lvgl\src\misc\lv_area.h ****     lv_coord_t x2;
  47:d:\kzc\stm32\h743ii_lcd\lvgl\src\misc\lv_area.h ****     lv_coord_t y2;
  48:d:\kzc\stm32\h743ii_lcd\lvgl\src\misc\lv_area.h **** } lv_area_t;
  49:d:\kzc\stm32\h743ii_lcd\lvgl\src\misc\lv_area.h **** 
  50:d:\kzc\stm32\h743ii_lcd\lvgl\src\misc\lv_area.h **** /** Alignments*/
  51:d:\kzc\stm32\h743ii_lcd\lvgl\src\misc\lv_area.h **** enum {
  52:d:\kzc\stm32\h743ii_lcd\lvgl\src\misc\lv_area.h ****     LV_ALIGN_DEFAULT = 0,
  53:d:\kzc\stm32\h743ii_lcd\lvgl\src\misc\lv_area.h ****     LV_ALIGN_TOP_LEFT,
  54:d:\kzc\stm32\h743ii_lcd\lvgl\src\misc\lv_area.h ****     LV_ALIGN_TOP_MID,
  55:d:\kzc\stm32\h743ii_lcd\lvgl\src\misc\lv_area.h ****     LV_ALIGN_TOP_RIGHT,
  56:d:\kzc\stm32\h743ii_lcd\lvgl\src\misc\lv_area.h ****     LV_ALIGN_BOTTOM_LEFT,
  57:d:\kzc\stm32\h743ii_lcd\lvgl\src\misc\lv_area.h ****     LV_ALIGN_BOTTOM_MID,
  58:d:\kzc\stm32\h743ii_lcd\lvgl\src\misc\lv_area.h ****     LV_ALIGN_BOTTOM_RIGHT,
  59:d:\kzc\stm32\h743ii_lcd\lvgl\src\misc\lv_area.h ****     LV_ALIGN_LEFT_MID,
  60:d:\kzc\stm32\h743ii_lcd\lvgl\src\misc\lv_area.h ****     LV_ALIGN_RIGHT_MID,
  61:d:\kzc\stm32\h743ii_lcd\lvgl\src\misc\lv_area.h ****     LV_ALIGN_CENTER,
  62:d:\kzc\stm32\h743ii_lcd\lvgl\src\misc\lv_area.h **** 
  63:d:\kzc\stm32\h743ii_lcd\lvgl\src\misc\lv_area.h ****     LV_ALIGN_OUT_TOP_LEFT,
  64:d:\kzc\stm32\h743ii_lcd\lvgl\src\misc\lv_area.h ****     LV_ALIGN_OUT_TOP_MID,
  65:d:\kzc\stm32\h743ii_lcd\lvgl\src\misc\lv_area.h ****     LV_ALIGN_OUT_TOP_RIGHT,
  66:d:\kzc\stm32\h743ii_lcd\lvgl\src\misc\lv_area.h ****     LV_ALIGN_OUT_BOTTOM_LEFT,
  67:d:\kzc\stm32\h743ii_lcd\lvgl\src\misc\lv_area.h ****     LV_ALIGN_OUT_BOTTOM_MID,
  68:d:\kzc\stm32\h743ii_lcd\lvgl\src\misc\lv_area.h ****     LV_ALIGN_OUT_BOTTOM_RIGHT,
  69:d:\kzc\stm32\h743ii_lcd\lvgl\src\misc\lv_area.h ****     LV_ALIGN_OUT_LEFT_TOP,
  70:d:\kzc\stm32\h743ii_lcd\lvgl\src\misc\lv_area.h ****     LV_ALIGN_OUT_LEFT_MID,
  71:d:\kzc\stm32\h743ii_lcd\lvgl\src\misc\lv_area.h ****     LV_ALIGN_OUT_LEFT_BOTTOM,
  72:d:\kzc\stm32\h743ii_lcd\lvgl\src\misc\lv_area.h ****     LV_ALIGN_OUT_RIGHT_TOP,
ARM GAS  C:\Users\OSD\AppData\Local\Temp\ccnvvkrZ.s 			page 37


  73:d:\kzc\stm32\h743ii_lcd\lvgl\src\misc\lv_area.h ****     LV_ALIGN_OUT_RIGHT_MID,
  74:d:\kzc\stm32\h743ii_lcd\lvgl\src\misc\lv_area.h ****     LV_ALIGN_OUT_RIGHT_BOTTOM,
  75:d:\kzc\stm32\h743ii_lcd\lvgl\src\misc\lv_area.h **** };
  76:d:\kzc\stm32\h743ii_lcd\lvgl\src\misc\lv_area.h **** typedef uint8_t lv_align_t;
  77:d:\kzc\stm32\h743ii_lcd\lvgl\src\misc\lv_area.h **** 
  78:d:\kzc\stm32\h743ii_lcd\lvgl\src\misc\lv_area.h **** enum {
  79:d:\kzc\stm32\h743ii_lcd\lvgl\src\misc\lv_area.h ****     LV_DIR_NONE     = 0x00,
  80:d:\kzc\stm32\h743ii_lcd\lvgl\src\misc\lv_area.h ****     LV_DIR_LEFT     = (1 << 0),
  81:d:\kzc\stm32\h743ii_lcd\lvgl\src\misc\lv_area.h ****     LV_DIR_RIGHT    = (1 << 1),
  82:d:\kzc\stm32\h743ii_lcd\lvgl\src\misc\lv_area.h ****     LV_DIR_TOP      = (1 << 2),
  83:d:\kzc\stm32\h743ii_lcd\lvgl\src\misc\lv_area.h ****     LV_DIR_BOTTOM   = (1 << 3),
  84:d:\kzc\stm32\h743ii_lcd\lvgl\src\misc\lv_area.h ****     LV_DIR_HOR      = LV_DIR_LEFT | LV_DIR_RIGHT,
  85:d:\kzc\stm32\h743ii_lcd\lvgl\src\misc\lv_area.h ****     LV_DIR_VER      = LV_DIR_TOP | LV_DIR_BOTTOM,
  86:d:\kzc\stm32\h743ii_lcd\lvgl\src\misc\lv_area.h ****     LV_DIR_ALL      = LV_DIR_HOR | LV_DIR_VER,
  87:d:\kzc\stm32\h743ii_lcd\lvgl\src\misc\lv_area.h **** };
  88:d:\kzc\stm32\h743ii_lcd\lvgl\src\misc\lv_area.h **** 
  89:d:\kzc\stm32\h743ii_lcd\lvgl\src\misc\lv_area.h **** typedef uint8_t lv_dir_t;
  90:d:\kzc\stm32\h743ii_lcd\lvgl\src\misc\lv_area.h **** 
  91:d:\kzc\stm32\h743ii_lcd\lvgl\src\misc\lv_area.h **** /**********************
  92:d:\kzc\stm32\h743ii_lcd\lvgl\src\misc\lv_area.h ****  * GLOBAL PROTOTYPES
  93:d:\kzc\stm32\h743ii_lcd\lvgl\src\misc\lv_area.h ****  **********************/
  94:d:\kzc\stm32\h743ii_lcd\lvgl\src\misc\lv_area.h **** 
  95:d:\kzc\stm32\h743ii_lcd\lvgl\src\misc\lv_area.h **** /**
  96:d:\kzc\stm32\h743ii_lcd\lvgl\src\misc\lv_area.h ****  * Initialize an area
  97:d:\kzc\stm32\h743ii_lcd\lvgl\src\misc\lv_area.h ****  * @param area_p pointer to an area
  98:d:\kzc\stm32\h743ii_lcd\lvgl\src\misc\lv_area.h ****  * @param x1 left coordinate of the area
  99:d:\kzc\stm32\h743ii_lcd\lvgl\src\misc\lv_area.h ****  * @param y1 top coordinate of the area
 100:d:\kzc\stm32\h743ii_lcd\lvgl\src\misc\lv_area.h ****  * @param x2 right coordinate of the area
 101:d:\kzc\stm32\h743ii_lcd\lvgl\src\misc\lv_area.h ****  * @param y2 bottom coordinate of the area
 102:d:\kzc\stm32\h743ii_lcd\lvgl\src\misc\lv_area.h ****  */
 103:d:\kzc\stm32\h743ii_lcd\lvgl\src\misc\lv_area.h **** void lv_area_set(lv_area_t * area_p, lv_coord_t x1, lv_coord_t y1, lv_coord_t x2, lv_coord_t y2);
 104:d:\kzc\stm32\h743ii_lcd\lvgl\src\misc\lv_area.h **** 
 105:d:\kzc\stm32\h743ii_lcd\lvgl\src\misc\lv_area.h **** /**
 106:d:\kzc\stm32\h743ii_lcd\lvgl\src\misc\lv_area.h ****  * Copy an area
 107:d:\kzc\stm32\h743ii_lcd\lvgl\src\misc\lv_area.h ****  * @param dest pointer to the destination area
 108:d:\kzc\stm32\h743ii_lcd\lvgl\src\misc\lv_area.h ****  * @param src pointer to the source area
 109:d:\kzc\stm32\h743ii_lcd\lvgl\src\misc\lv_area.h ****  */
 110:d:\kzc\stm32\h743ii_lcd\lvgl\src\misc\lv_area.h **** inline static void lv_area_copy(lv_area_t * dest, const lv_area_t * src)
 695              		.loc 3 110 20 is_stmt 1 view .LVU181
 696              	.LBB94:
 111:d:\kzc\stm32\h743ii_lcd\lvgl\src\misc\lv_area.h **** {
 112:d:\kzc\stm32\h743ii_lcd\lvgl\src\misc\lv_area.h ****     dest->x1 = src->x1;
 697              		.loc 3 112 5 view .LVU182
 698              		.loc 3 112 19 is_stmt 0 view .LVU183
 699 0128 32F934C0 		ldrsh	ip, [r2, r4, lsl #3]
 700              		.loc 3 112 14 view .LVU184
 701 012c ADF810C0 		strh	ip, [sp, #16]	@ movhi
 113:d:\kzc\stm32\h743ii_lcd\lvgl\src\misc\lv_area.h ****     dest->y1 = src->y1;
 702              		.loc 3 113 5 is_stmt 1 view .LVU185
 703              		.loc 3 113 19 is_stmt 0 view .LVU186
 704 0130 B3F90200 		ldrsh	r0, [r3, #2]
 705              		.loc 3 113 14 view .LVU187
 706 0134 ADF81200 		strh	r0, [sp, #18]	@ movhi
 114:d:\kzc\stm32\h743ii_lcd\lvgl\src\misc\lv_area.h ****     dest->x2 = src->x2;
 707              		.loc 3 114 5 is_stmt 1 view .LVU188
 708              		.loc 3 114 19 is_stmt 0 view .LVU189
 709 0138 B3F90410 		ldrsh	r1, [r3, #4]
ARM GAS  C:\Users\OSD\AppData\Local\Temp\ccnvvkrZ.s 			page 38


 710              		.loc 3 114 14 view .LVU190
 711 013c ADF81410 		strh	r1, [sp, #20]	@ movhi
 115:d:\kzc\stm32\h743ii_lcd\lvgl\src\misc\lv_area.h ****     dest->y2 = src->y2;
 712              		.loc 3 115 5 is_stmt 1 view .LVU191
 713              		.loc 3 115 19 is_stmt 0 view .LVU192
 714 0140 B3F90620 		ldrsh	r2, [r3, #6]
 715              		.loc 3 115 14 view .LVU193
 716 0144 ADF81620 		strh	r2, [sp, #22]	@ movhi
 717              	.LVL67:
 718              		.loc 3 115 14 view .LVU194
 719              	.LBE94:
 720              	.LBE93:
 985:lvgl/src/widgets/lv_btnmatrix.c ****         else btn_area.x1 += obj_cords.x1 - pcol;
 721              		.loc 1 985 9 is_stmt 1 view .LVU195
 985:lvgl/src/widgets/lv_btnmatrix.c ****         else btn_area.x1 += obj_cords.x1 - pcol;
 722              		.loc 1 985 11 is_stmt 0 view .LVU196
 723 0148 E345     		cmp	fp, ip
 724 014a BFDB     		blt	.L30
 985:lvgl/src/widgets/lv_btnmatrix.c ****         else btn_area.x1 += obj_cords.x1 - pcol;
 725              		.loc 1 985 34 is_stmt 1 discriminator 1 view .LVU197
 985:lvgl/src/widgets/lv_btnmatrix.c ****         else btn_area.x1 += obj_cords.x1 - pcol;
 726              		.loc 1 985 58 is_stmt 0 discriminator 1 view .LVU198
 727 014c BDF81830 		ldrh	r3, [sp, #24]
 985:lvgl/src/widgets/lv_btnmatrix.c ****         else btn_area.x1 += obj_cords.x1 - pcol;
 728              		.loc 1 985 64 discriminator 1 view .LVU199
 729 0150 DE46     		mov	lr, fp
 730 0152 BBF10D0F 		cmp	fp, #13
 731 0156 A8BF     		it	ge
 732 0158 4FF00D0E 		movge	lr, #13
 733 015c 1FFA8EFE 		uxth	lr, lr
 985:lvgl/src/widgets/lv_btnmatrix.c ****         else btn_area.x1 += obj_cords.x1 - pcol;
 734              		.loc 1 985 62 discriminator 1 view .LVU200
 735 0160 A3EB0E03 		sub	r3, r3, lr
 985:lvgl/src/widgets/lv_btnmatrix.c ****         else btn_area.x1 += obj_cords.x1 - pcol;
 736              		.loc 1 985 46 discriminator 1 view .LVU201
 737 0164 1CFA83FC 		uxtah	ip, ip, r3
 738 0168 ADF810C0 		strh	ip, [sp, #16]	@ movhi
 739              	.L31:
 988:lvgl/src/widgets/lv_btnmatrix.c ****         else btn_area.y1 += obj_cords.y1 - prow;
 740              		.loc 1 988 9 is_stmt 1 view .LVU202
 988:lvgl/src/widgets/lv_btnmatrix.c ****         else btn_area.y1 += obj_cords.y1 - prow;
 741              		.loc 1 988 11 is_stmt 0 view .LVU203
 742 016c 8145     		cmp	r9, r0
 743 016e B5DB     		blt	.L32
 988:lvgl/src/widgets/lv_btnmatrix.c ****         else btn_area.y1 += obj_cords.y1 - prow;
 744              		.loc 1 988 33 is_stmt 1 discriminator 1 view .LVU204
 988:lvgl/src/widgets/lv_btnmatrix.c ****         else btn_area.y1 += obj_cords.y1 - prow;
 745              		.loc 1 988 57 is_stmt 0 discriminator 1 view .LVU205
 746 0170 BDF81A30 		ldrh	r3, [sp, #26]
 988:lvgl/src/widgets/lv_btnmatrix.c ****         else btn_area.y1 += obj_cords.y1 - prow;
 747              		.loc 1 988 63 discriminator 1 view .LVU206
 748 0174 CC46     		mov	ip, r9
 749 0176 B9F10D0F 		cmp	r9, #13
 750 017a A8BF     		it	ge
 751 017c 4FF00D0C 		movge	ip, #13
 752 0180 1FFA8CFC 		uxth	ip, ip
 988:lvgl/src/widgets/lv_btnmatrix.c ****         else btn_area.y1 += obj_cords.y1 - prow;
ARM GAS  C:\Users\OSD\AppData\Local\Temp\ccnvvkrZ.s 			page 39


 753              		.loc 1 988 61 discriminator 1 view .LVU207
 754 0184 A3EB0C03 		sub	r3, r3, ip
 988:lvgl/src/widgets/lv_btnmatrix.c ****         else btn_area.y1 += obj_cords.y1 - prow;
 755              		.loc 1 988 45 discriminator 1 view .LVU208
 756 0188 10FA83F0 		uxtah	r0, r0, r3
 757 018c ADF81200 		strh	r0, [sp, #18]	@ movhi
 758              	.L33:
 991:lvgl/src/widgets/lv_btnmatrix.c ****                                                                                    BTN_EXTRA_CLICK_
 759              		.loc 1 991 9 is_stmt 1 view .LVU209
 991:lvgl/src/widgets/lv_btnmatrix.c ****                                                                                    BTN_EXTRA_CLICK_
 760              		.loc 1 991 29 is_stmt 0 view .LVU210
 761 0190 019B     		ldr	r3, [sp, #4]
 762 0192 A3EB0A03 		sub	r3, r3, r10
 991:lvgl/src/widgets/lv_btnmatrix.c ****                                                                                    BTN_EXTRA_CLICK_
 763              		.loc 1 991 38 view .LVU211
 764 0196 023B     		subs	r3, r3, #2
 991:lvgl/src/widgets/lv_btnmatrix.c ****                                                                                    BTN_EXTRA_CLICK_
 765              		.loc 1 991 11 view .LVU212
 766 0198 9942     		cmp	r1, r3
 767 019a A7DB     		blt	.L34
 991:lvgl/src/widgets/lv_btnmatrix.c ****                                                                                    BTN_EXTRA_CLICK_
 768              		.loc 1 991 43 is_stmt 1 discriminator 1 view .LVU213
 991:lvgl/src/widgets/lv_btnmatrix.c ****                                                                                    BTN_EXTRA_CLICK_
 769              		.loc 1 991 67 is_stmt 0 discriminator 1 view .LVU214
 770 019c BDF81800 		ldrh	r0, [sp, #24]
 991:lvgl/src/widgets/lv_btnmatrix.c ****                                                                                    BTN_EXTRA_CLICK_
 771              		.loc 1 991 73 discriminator 1 view .LVU215
 772 01a0 5346     		mov	r3, r10
 773 01a2 0D2B     		cmp	r3, #13
 774 01a4 A8BF     		it	ge
 775 01a6 0D23     		movge	r3, #13
 991:lvgl/src/widgets/lv_btnmatrix.c ****                                                                                    BTN_EXTRA_CLICK_
 776              		.loc 1 991 71 discriminator 1 view .LVU216
 777 01a8 10FA83F3 		uxtah	r3, r0, r3
 991:lvgl/src/widgets/lv_btnmatrix.c ****                                                                                    BTN_EXTRA_CLICK_
 778              		.loc 1 991 55 discriminator 1 view .LVU217
 779 01ac 11FA83F1 		uxtah	r1, r1, r3
 780 01b0 ADF81410 		strh	r1, [sp, #20]	@ movhi
 781              	.L35:
 995:lvgl/src/widgets/lv_btnmatrix.c ****                                                                                     BTN_EXTRA_CLICK
 782              		.loc 1 995 9 is_stmt 1 view .LVU218
 995:lvgl/src/widgets/lv_btnmatrix.c ****                                                                                     BTN_EXTRA_CLICK
 783              		.loc 1 995 29 is_stmt 0 view .LVU219
 784 01b4 029B     		ldr	r3, [sp, #8]
 785 01b6 A3EB0803 		sub	r3, r3, r8
 995:lvgl/src/widgets/lv_btnmatrix.c ****                                                                                     BTN_EXTRA_CLICK
 786              		.loc 1 995 39 view .LVU220
 787 01ba 023B     		subs	r3, r3, #2
 995:lvgl/src/widgets/lv_btnmatrix.c ****                                                                                     BTN_EXTRA_CLICK
 788              		.loc 1 995 11 view .LVU221
 789 01bc 9A42     		cmp	r2, r3
 790 01be 9DDB     		blt	.L36
 995:lvgl/src/widgets/lv_btnmatrix.c ****                                                                                     BTN_EXTRA_CLICK
 791              		.loc 1 995 44 is_stmt 1 discriminator 1 view .LVU222
 995:lvgl/src/widgets/lv_btnmatrix.c ****                                                                                     BTN_EXTRA_CLICK
 792              		.loc 1 995 68 is_stmt 0 discriminator 1 view .LVU223
 793 01c0 BDF81A10 		ldrh	r1, [sp, #26]
ARM GAS  C:\Users\OSD\AppData\Local\Temp\ccnvvkrZ.s 			page 40


 995:lvgl/src/widgets/lv_btnmatrix.c ****                                                                                     BTN_EXTRA_CLICK
 794              		.loc 1 995 74 discriminator 1 view .LVU224
 795 01c4 4346     		mov	r3, r8
 796 01c6 0D2B     		cmp	r3, #13
 797 01c8 A8BF     		it	ge
 798 01ca 0D23     		movge	r3, #13
 995:lvgl/src/widgets/lv_btnmatrix.c ****                                                                                     BTN_EXTRA_CLICK
 799              		.loc 1 995 72 discriminator 1 view .LVU225
 800 01cc 11FA83F3 		uxtah	r3, r1, r3
 995:lvgl/src/widgets/lv_btnmatrix.c ****                                                                                     BTN_EXTRA_CLICK
 801              		.loc 1 995 56 discriminator 1 view .LVU226
 802 01d0 12FA83F2 		uxtah	r2, r2, r3
 803 01d4 ADF81620 		strh	r2, [sp, #22]	@ movhi
 804 01d8 97E7     		b	.L37
 805              	.L38:
1004:lvgl/src/widgets/lv_btnmatrix.c **** 
 806              		.loc 1 1004 5 is_stmt 1 view .LVU227
1004:lvgl/src/widgets/lv_btnmatrix.c **** 
 807              		.loc 1 1004 17 is_stmt 0 view .LVU228
 808 01da 2B8E     		ldrh	r3, [r5, #48]
1004:lvgl/src/widgets/lv_btnmatrix.c **** 
 809              		.loc 1 1004 7 view .LVU229
 810 01dc A342     		cmp	r3, r4
 811 01de 03D0     		beq	.L45
 812              	.LVL68:
 813              	.L40:
1006:lvgl/src/widgets/lv_btnmatrix.c **** }
 814              		.loc 1 1006 5 is_stmt 1 view .LVU230
1007:lvgl/src/widgets/lv_btnmatrix.c **** 
 815              		.loc 1 1007 1 is_stmt 0 view .LVU231
 816 01e0 2046     		mov	r0, r4
 817 01e2 09B0     		add	sp, sp, #36
 818              		.cfi_remember_state
 819              		.cfi_def_cfa_offset 36
 820              		@ sp needed
 821 01e4 BDE8F08F 		pop	{r4, r5, r6, r7, r8, r9, r10, fp, pc}
 822              	.LVL69:
 823              	.L45:
 824              		.cfi_restore_state
1004:lvgl/src/widgets/lv_btnmatrix.c **** 
 825              		.loc 1 1004 30 view .LVU232
 826 01e8 4FF6FF74 		movw	r4, #65535
 827              	.LVL70:
1004:lvgl/src/widgets/lv_btnmatrix.c **** 
 828              		.loc 1 1004 30 view .LVU233
 829 01ec F8E7     		b	.L40
 830              		.cfi_endproc
 831              	.LFE191:
 833              		.section	.text.invalidate_button_area,"ax",%progbits
 834              		.align	1
 835              		.syntax unified
 836              		.thumb
 837              		.thumb_func
 839              	invalidate_button_area:
 840              	.LVL71:
 841              	.LFB192:
1010:lvgl/src/widgets/lv_btnmatrix.c ****     if(btn_idx == LV_BTNMATRIX_BTN_NONE) return;
ARM GAS  C:\Users\OSD\AppData\Local\Temp\ccnvvkrZ.s 			page 41


 842              		.loc 1 1010 1 is_stmt 1 view -0
 843              		.cfi_startproc
 844              		@ args = 0, pretend = 0, frame = 16
 845              		@ frame_needed = 0, uses_anonymous_args = 0
1011:lvgl/src/widgets/lv_btnmatrix.c **** 
 846              		.loc 1 1011 5 view .LVU235
1011:lvgl/src/widgets/lv_btnmatrix.c **** 
 847              		.loc 1 1011 7 is_stmt 0 view .LVU236
 848 0000 4FF6FF73 		movw	r3, #65535
 849 0004 9942     		cmp	r1, r3
 850 0006 76D0     		beq	.L51
1010:lvgl/src/widgets/lv_btnmatrix.c ****     if(btn_idx == LV_BTNMATRIX_BTN_NONE) return;
 851              		.loc 1 1010 1 view .LVU237
 852 0008 F0B5     		push	{r4, r5, r6, r7, lr}
 853              		.cfi_def_cfa_offset 20
 854              		.cfi_offset 4, -20
 855              		.cfi_offset 5, -16
 856              		.cfi_offset 6, -12
 857              		.cfi_offset 7, -8
 858              		.cfi_offset 14, -4
 859 000a 85B0     		sub	sp, sp, #20
 860              		.cfi_def_cfa_offset 40
 861 000c 0446     		mov	r4, r0
 862 000e 0D46     		mov	r5, r1
1013:lvgl/src/widgets/lv_btnmatrix.c ****     lv_area_t obj_area;
 863              		.loc 1 1013 5 is_stmt 1 view .LVU238
1014:lvgl/src/widgets/lv_btnmatrix.c **** 
 864              		.loc 1 1014 5 view .LVU239
1016:lvgl/src/widgets/lv_btnmatrix.c ****     if(btn_idx >= btnm->btn_cnt) return;
 865              		.loc 1 1016 5 view .LVU240
 866              	.LVL72:
1016:lvgl/src/widgets/lv_btnmatrix.c ****     if(btn_idx >= btnm->btn_cnt) return;
 867              		.loc 1 1016 51 view .LVU241
1017:lvgl/src/widgets/lv_btnmatrix.c **** 
 868              		.loc 1 1017 5 view .LVU242
1017:lvgl/src/widgets/lv_btnmatrix.c **** 
 869              		.loc 1 1017 23 is_stmt 0 view .LVU243
 870 0010 038E     		ldrh	r3, [r0, #48]
1017:lvgl/src/widgets/lv_btnmatrix.c **** 
 871              		.loc 1 1017 7 view .LVU244
 872 0012 8B42     		cmp	r3, r1
 873 0014 01D8     		bhi	.L54
 874              	.LVL73:
 875              	.L46:
1044:lvgl/src/widgets/lv_btnmatrix.c **** 
 876              		.loc 1 1044 1 view .LVU245
 877 0016 05B0     		add	sp, sp, #20
 878              		.cfi_remember_state
 879              		.cfi_def_cfa_offset 20
 880              		@ sp needed
 881 0018 F0BD     		pop	{r4, r5, r6, r7, pc}
 882              	.LVL74:
 883              	.L54:
 884              		.cfi_restore_state
1019:lvgl/src/widgets/lv_btnmatrix.c ****     lv_obj_get_coords(obj, &obj_area);
 885              		.loc 1 1019 5 is_stmt 1 view .LVU246
1019:lvgl/src/widgets/lv_btnmatrix.c ****     lv_obj_get_coords(obj, &obj_area);
ARM GAS  C:\Users\OSD\AppData\Local\Temp\ccnvvkrZ.s 			page 42


 886              		.loc 1 1019 34 is_stmt 0 view .LVU247
 887 001a 826A     		ldr	r2, [r0, #40]
1019:lvgl/src/widgets/lv_btnmatrix.c ****     lv_obj_get_coords(obj, &obj_area);
 888              		.loc 1 1019 29 view .LVU248
 889 001c 02EBC103 		add	r3, r2, r1, lsl #3
 890              	.LVL75:
 891              	.LBB95:
 892              	.LBI95:
 110:d:\kzc\stm32\h743ii_lcd\lvgl\src\misc\lv_area.h **** {
 893              		.loc 3 110 20 is_stmt 1 view .LVU249
 894              	.LBB96:
 112:d:\kzc\stm32\h743ii_lcd\lvgl\src\misc\lv_area.h ****     dest->y1 = src->y1;
 895              		.loc 3 112 5 view .LVU250
 112:d:\kzc\stm32\h743ii_lcd\lvgl\src\misc\lv_area.h ****     dest->y1 = src->y1;
 896              		.loc 3 112 19 is_stmt 0 view .LVU251
 897 0020 32F93120 		ldrsh	r2, [r2, r1, lsl #3]
 112:d:\kzc\stm32\h743ii_lcd\lvgl\src\misc\lv_area.h ****     dest->y1 = src->y1;
 898              		.loc 3 112 14 view .LVU252
 899 0024 ADF80820 		strh	r2, [sp, #8]	@ movhi
 113:d:\kzc\stm32\h743ii_lcd\lvgl\src\misc\lv_area.h ****     dest->x2 = src->x2;
 900              		.loc 3 113 5 is_stmt 1 view .LVU253
 113:d:\kzc\stm32\h743ii_lcd\lvgl\src\misc\lv_area.h ****     dest->x2 = src->x2;
 901              		.loc 3 113 19 is_stmt 0 view .LVU254
 902 0028 B3F90220 		ldrsh	r2, [r3, #2]
 113:d:\kzc\stm32\h743ii_lcd\lvgl\src\misc\lv_area.h ****     dest->x2 = src->x2;
 903              		.loc 3 113 14 view .LVU255
 904 002c ADF80A20 		strh	r2, [sp, #10]	@ movhi
 114:d:\kzc\stm32\h743ii_lcd\lvgl\src\misc\lv_area.h ****     dest->y2 = src->y2;
 905              		.loc 3 114 5 is_stmt 1 view .LVU256
 114:d:\kzc\stm32\h743ii_lcd\lvgl\src\misc\lv_area.h ****     dest->y2 = src->y2;
 906              		.loc 3 114 19 is_stmt 0 view .LVU257
 907 0030 B3F90420 		ldrsh	r2, [r3, #4]
 114:d:\kzc\stm32\h743ii_lcd\lvgl\src\misc\lv_area.h ****     dest->y2 = src->y2;
 908              		.loc 3 114 14 view .LVU258
 909 0034 ADF80C20 		strh	r2, [sp, #12]	@ movhi
 910              		.loc 3 115 5 is_stmt 1 view .LVU259
 911              		.loc 3 115 19 is_stmt 0 view .LVU260
 912 0038 B3F90630 		ldrsh	r3, [r3, #6]
 913              	.LVL76:
 914              		.loc 3 115 14 view .LVU261
 915 003c ADF80E30 		strh	r3, [sp, #14]	@ movhi
 916              	.LVL77:
 917              		.loc 3 115 14 view .LVU262
 918              	.LBE96:
 919              	.LBE95:
1020:lvgl/src/widgets/lv_btnmatrix.c **** 
 920              		.loc 1 1020 5 is_stmt 1 view .LVU263
 921 0040 6946     		mov	r1, sp
 922              	.LVL78:
1020:lvgl/src/widgets/lv_btnmatrix.c **** 
 923              		.loc 1 1020 5 is_stmt 0 view .LVU264
 924 0042 FFF7FEFF 		bl	lv_obj_get_coords
 925              	.LVL79:
1024:lvgl/src/widgets/lv_btnmatrix.c ****     lv_coord_t col_gap = lv_obj_get_style_pad_column(obj, LV_PART_MAIN);
 926              		.loc 1 1024 5 is_stmt 1 view .LVU265
 927              	.LBB97:
 928              	.LBI97:
ARM GAS  C:\Users\OSD\AppData\Local\Temp\ccnvvkrZ.s 			page 43


 127:lvgl/src/widgets/../core/lv_obj_style_gen.h **** {
 929              		.loc 2 127 26 view .LVU266
 930              	.LBB98:
 129:lvgl/src/widgets/../core/lv_obj_style_gen.h ****     return (lv_coord_t)v.num;
 931              		.loc 2 129 5 view .LVU267
 129:lvgl/src/widgets/../core/lv_obj_style_gen.h ****     return (lv_coord_t)v.num;
 932              		.loc 2 129 26 is_stmt 0 view .LVU268
 933 0046 1422     		movs	r2, #20
 934 0048 0021     		movs	r1, #0
 935 004a 2046     		mov	r0, r4
 936 004c FFF7FEFF 		bl	lv_obj_get_style_prop
 937              	.LVL80:
 130:lvgl/src/widgets/../core/lv_obj_style_gen.h **** }
 938              		.loc 2 130 5 is_stmt 1 view .LVU269
 130:lvgl/src/widgets/../core/lv_obj_style_gen.h **** }
 939              		.loc 2 130 12 is_stmt 0 view .LVU270
 940 0050 06B2     		sxth	r6, r0
 941              	.LVL81:
 130:lvgl/src/widgets/../core/lv_obj_style_gen.h **** }
 942              		.loc 2 130 12 view .LVU271
 943              	.LBE98:
 944              	.LBE97:
1025:lvgl/src/widgets/lv_btnmatrix.c **** 
 945              		.loc 1 1025 5 is_stmt 1 view .LVU272
 946              	.LBB99:
 947              	.LBI99:
 133:lvgl/src/widgets/../core/lv_obj_style_gen.h **** {
 948              		.loc 2 133 26 view .LVU273
 949              	.LBB100:
 135:lvgl/src/widgets/../core/lv_obj_style_gen.h ****     return (lv_coord_t)v.num;
 950              		.loc 2 135 5 view .LVU274
 135:lvgl/src/widgets/../core/lv_obj_style_gen.h ****     return (lv_coord_t)v.num;
 951              		.loc 2 135 26 is_stmt 0 view .LVU275
 952 0052 1522     		movs	r2, #21
 953 0054 0021     		movs	r1, #0
 954 0056 2046     		mov	r0, r4
 955 0058 FFF7FEFF 		bl	lv_obj_get_style_prop
 956              	.LVL82:
 957              		.loc 2 136 5 is_stmt 1 view .LVU276
 958              		.loc 2 136 12 is_stmt 0 view .LVU277
 959 005c 07B2     		sxth	r7, r0
 960              	.LVL83:
 961              		.loc 2 136 12 view .LVU278
 962              	.LBE100:
 963              	.LBE99:
1028:lvgl/src/widgets/lv_btnmatrix.c ****     row_gap = LV_MAX(row_gap, dpi / 10);
 964              		.loc 1 1028 5 is_stmt 1 view .LVU279
1028:lvgl/src/widgets/lv_btnmatrix.c ****     row_gap = LV_MAX(row_gap, dpi / 10);
 965              		.loc 1 1028 38 is_stmt 0 view .LVU280
 966 005e 2046     		mov	r0, r4
 967 0060 FFF7FEFF 		bl	lv_obj_get_disp
 968              	.LVL84:
1028:lvgl/src/widgets/lv_btnmatrix.c ****     row_gap = LV_MAX(row_gap, dpi / 10);
 969              		.loc 1 1028 22 view .LVU281
 970 0064 FFF7FEFF 		bl	lv_disp_get_dpi
 971              	.LVL85:
1029:lvgl/src/widgets/lv_btnmatrix.c ****     col_gap = LV_MAX(col_gap, dpi / 10);
ARM GAS  C:\Users\OSD\AppData\Local\Temp\ccnvvkrZ.s 			page 44


 972              		.loc 1 1029 5 is_stmt 1 view .LVU282
1029:lvgl/src/widgets/lv_btnmatrix.c ****     col_gap = LV_MAX(col_gap, dpi / 10);
 973              		.loc 1 1029 15 is_stmt 0 view .LVU283
 974 0068 234B     		ldr	r3, .L56
 975 006a 83FB0023 		smull	r2, r3, r3, r0
 976 006e C017     		asrs	r0, r0, #31
 977              	.LVL86:
1029:lvgl/src/widgets/lv_btnmatrix.c ****     col_gap = LV_MAX(col_gap, dpi / 10);
 978              		.loc 1 1029 15 view .LVU284
 979 0070 C0EBA300 		rsb	r0, r0, r3, asr #2
 980 0074 00B2     		sxth	r0, r0
1029:lvgl/src/widgets/lv_btnmatrix.c ****     col_gap = LV_MAX(col_gap, dpi / 10);
 981              		.loc 1 1029 13 view .LVU285
 982 0076 8642     		cmp	r6, r0
 983 0078 B8BF     		it	lt
 984 007a 0646     		movlt	r6, r0
 985              	.LVL87:
1030:lvgl/src/widgets/lv_btnmatrix.c **** 
 986              		.loc 1 1030 5 is_stmt 1 view .LVU286
1030:lvgl/src/widgets/lv_btnmatrix.c **** 
 987              		.loc 1 1030 13 is_stmt 0 view .LVU287
 988 007c B842     		cmp	r0, r7
 989 007e B8BF     		it	lt
 990 0080 3846     		movlt	r0, r7
 991              	.LVL88:
1033:lvgl/src/widgets/lv_btnmatrix.c ****     btn_area.y1 += obj_area.y1 - col_gap;
 992              		.loc 1 1033 5 is_stmt 1 view .LVU288
1033:lvgl/src/widgets/lv_btnmatrix.c ****     btn_area.y1 += obj_area.y1 - col_gap;
 993              		.loc 1 1033 28 is_stmt 0 view .LVU289
 994 0082 BDF80020 		ldrh	r2, [sp]
1033:lvgl/src/widgets/lv_btnmatrix.c ****     btn_area.y1 += obj_area.y1 - col_gap;
 995              		.loc 1 1033 32 view .LVU290
 996 0086 B6B2     		uxth	r6, r6
1033:lvgl/src/widgets/lv_btnmatrix.c ****     btn_area.y1 += obj_area.y1 - col_gap;
 997              		.loc 1 1033 32 view .LVU291
 998 0088 931B     		subs	r3, r2, r6
1033:lvgl/src/widgets/lv_btnmatrix.c ****     btn_area.y1 += obj_area.y1 - col_gap;
 999              		.loc 1 1033 17 view .LVU292
 1000 008a BDF80810 		ldrh	r1, [sp, #8]
 1001 008e 11FA83F3 		uxtah	r3, r1, r3
 1002 0092 ADF80830 		strh	r3, [sp, #8]	@ movhi
1034:lvgl/src/widgets/lv_btnmatrix.c ****     btn_area.x2 += obj_area.x1 + row_gap;
 1003              		.loc 1 1034 5 is_stmt 1 view .LVU293
1034:lvgl/src/widgets/lv_btnmatrix.c ****     btn_area.x2 += obj_area.x1 + row_gap;
 1004              		.loc 1 1034 28 is_stmt 0 view .LVU294
 1005 0096 BDF80230 		ldrh	r3, [sp, #2]
1034:lvgl/src/widgets/lv_btnmatrix.c ****     btn_area.x2 += obj_area.x1 + row_gap;
 1006              		.loc 1 1034 32 view .LVU295
 1007 009a 80B2     		uxth	r0, r0
1034:lvgl/src/widgets/lv_btnmatrix.c ****     btn_area.x2 += obj_area.x1 + row_gap;
 1008              		.loc 1 1034 32 view .LVU296
 1009 009c 191A     		subs	r1, r3, r0
1034:lvgl/src/widgets/lv_btnmatrix.c ****     btn_area.x2 += obj_area.x1 + row_gap;
 1010              		.loc 1 1034 17 view .LVU297
 1011 009e BDF80A70 		ldrh	r7, [sp, #10]
 1012 00a2 17FA81F1 		uxtah	r1, r7, r1
 1013 00a6 89B2     		uxth	r1, r1
ARM GAS  C:\Users\OSD\AppData\Local\Temp\ccnvvkrZ.s 			page 45


 1014 00a8 ADF80A10 		strh	r1, [sp, #10]	@ movhi
1035:lvgl/src/widgets/lv_btnmatrix.c ****     btn_area.y2 += obj_area.y1 + col_gap;
 1015              		.loc 1 1035 5 is_stmt 1 view .LVU298
1035:lvgl/src/widgets/lv_btnmatrix.c ****     btn_area.y2 += obj_area.y1 + col_gap;
 1016              		.loc 1 1035 32 is_stmt 0 view .LVU299
 1017 00ac 3244     		add	r2, r2, r6
1035:lvgl/src/widgets/lv_btnmatrix.c ****     btn_area.y2 += obj_area.y1 + col_gap;
 1018              		.loc 1 1035 17 view .LVU300
 1019 00ae BDF80C60 		ldrh	r6, [sp, #12]
 1020              	.LVL89:
1035:lvgl/src/widgets/lv_btnmatrix.c ****     btn_area.y2 += obj_area.y1 + col_gap;
 1021              		.loc 1 1035 17 view .LVU301
 1022 00b2 16FA82F2 		uxtah	r2, r6, r2
 1023 00b6 ADF80C20 		strh	r2, [sp, #12]	@ movhi
1036:lvgl/src/widgets/lv_btnmatrix.c **** 
 1024              		.loc 1 1036 5 is_stmt 1 view .LVU302
1036:lvgl/src/widgets/lv_btnmatrix.c **** 
 1025              		.loc 1 1036 32 is_stmt 0 view .LVU303
 1026 00ba 0344     		add	r3, r3, r0
1036:lvgl/src/widgets/lv_btnmatrix.c **** 
 1027              		.loc 1 1036 17 view .LVU304
 1028 00bc BDF80E00 		ldrh	r0, [sp, #14]
 1029              	.LVL90:
1036:lvgl/src/widgets/lv_btnmatrix.c **** 
 1030              		.loc 1 1036 17 view .LVU305
 1031 00c0 10FA83F3 		uxtah	r3, r0, r3
 1032 00c4 9BB2     		uxth	r3, r3
 1033 00c6 ADF80E30 		strh	r3, [sp, #14]	@ movhi
1038:lvgl/src/widgets/lv_btnmatrix.c ****         /*Push up the upper boundary of the btn area to also invalidate the popover*/
 1034              		.loc 1 1038 5 is_stmt 1 view .LVU306
1038:lvgl/src/widgets/lv_btnmatrix.c ****         /*Push up the upper boundary of the btn area to also invalidate the popover*/
 1035              		.loc 1 1038 24 is_stmt 0 view .LVU307
 1036 00ca A28E     		ldrh	r2, [r4, #52]
1038:lvgl/src/widgets/lv_btnmatrix.c ****         /*Push up the upper boundary of the btn area to also invalidate the popover*/
 1037              		.loc 1 1038 7 view .LVU308
 1038 00cc AA42     		cmp	r2, r5
1038:lvgl/src/widgets/lv_btnmatrix.c ****         /*Push up the upper boundary of the btn area to also invalidate the popover*/
 1039              		.loc 1 1038 7 view .LVU309
 1040 00ce 04D0     		beq	.L55
 1041              	.L48:
1043:lvgl/src/widgets/lv_btnmatrix.c **** }
 1042              		.loc 1 1043 5 is_stmt 1 view .LVU310
 1043 00d0 02A9     		add	r1, sp, #8
 1044 00d2 2046     		mov	r0, r4
 1045 00d4 FFF7FEFF 		bl	lv_obj_invalidate_area
 1046              	.LVL91:
 1047 00d8 9DE7     		b	.L46
 1048              	.L55:
1038:lvgl/src/widgets/lv_btnmatrix.c ****         /*Push up the upper boundary of the btn area to also invalidate the popover*/
 1049              		.loc 1 1038 46 is_stmt 0 discriminator 1 view .LVU311
 1050 00da E26A     		ldr	r2, [r4, #44]
1038:lvgl/src/widgets/lv_btnmatrix.c ****         /*Push up the upper boundary of the btn area to also invalidate the popover*/
 1051              		.loc 1 1038 57 discriminator 1 view .LVU312
 1052 00dc 32F81520 		ldrh	r2, [r2, r5, lsl #1]
1038:lvgl/src/widgets/lv_btnmatrix.c ****         /*Push up the upper boundary of the btn area to also invalidate the popover*/
 1053              		.loc 1 1038 38 discriminator 1 view .LVU313
 1054 00e0 12F4806F 		tst	r2, #1024
ARM GAS  C:\Users\OSD\AppData\Local\Temp\ccnvvkrZ.s 			page 46


 1055 00e4 F4D0     		beq	.L48
1040:lvgl/src/widgets/lv_btnmatrix.c ****     }
 1056              		.loc 1 1040 9 is_stmt 1 view .LVU314
 1057              	.LVL92:
 1058              	.LBB101:
 1059              	.LBI101:
 116:d:\kzc\stm32\h743ii_lcd\lvgl\src\misc\lv_area.h **** }
 117:d:\kzc\stm32\h743ii_lcd\lvgl\src\misc\lv_area.h **** 
 118:d:\kzc\stm32\h743ii_lcd\lvgl\src\misc\lv_area.h **** /**
 119:d:\kzc\stm32\h743ii_lcd\lvgl\src\misc\lv_area.h ****  * Get the width of an area
 120:d:\kzc\stm32\h743ii_lcd\lvgl\src\misc\lv_area.h ****  * @param area_p pointer to an area
 121:d:\kzc\stm32\h743ii_lcd\lvgl\src\misc\lv_area.h ****  * @return the width of the area (if x1 == x2 -> width = 1)
 122:d:\kzc\stm32\h743ii_lcd\lvgl\src\misc\lv_area.h ****  */
 123:d:\kzc\stm32\h743ii_lcd\lvgl\src\misc\lv_area.h **** static inline lv_coord_t lv_area_get_width(const lv_area_t * area_p)
 124:d:\kzc\stm32\h743ii_lcd\lvgl\src\misc\lv_area.h **** {
 125:d:\kzc\stm32\h743ii_lcd\lvgl\src\misc\lv_area.h ****     return (lv_coord_t)(area_p->x2 - area_p->x1 + 1);
 126:d:\kzc\stm32\h743ii_lcd\lvgl\src\misc\lv_area.h **** }
 127:d:\kzc\stm32\h743ii_lcd\lvgl\src\misc\lv_area.h **** 
 128:d:\kzc\stm32\h743ii_lcd\lvgl\src\misc\lv_area.h **** /**
 129:d:\kzc\stm32\h743ii_lcd\lvgl\src\misc\lv_area.h ****  * Get the height of an area
 130:d:\kzc\stm32\h743ii_lcd\lvgl\src\misc\lv_area.h ****  * @param area_p pointer to an area
 131:d:\kzc\stm32\h743ii_lcd\lvgl\src\misc\lv_area.h ****  * @return the height of the area (if y1 == y2 -> height = 1)
 132:d:\kzc\stm32\h743ii_lcd\lvgl\src\misc\lv_area.h ****  */
 133:d:\kzc\stm32\h743ii_lcd\lvgl\src\misc\lv_area.h **** static inline lv_coord_t lv_area_get_height(const lv_area_t * area_p)
 1060              		.loc 3 133 26 view .LVU315
 1061              	.LBB102:
 134:d:\kzc\stm32\h743ii_lcd\lvgl\src\misc\lv_area.h **** {
 135:d:\kzc\stm32\h743ii_lcd\lvgl\src\misc\lv_area.h ****     return (lv_coord_t)(area_p->y2 - area_p->y1 + 1);
 1062              		.loc 3 135 5 view .LVU316
 1063              		.loc 3 135 36 is_stmt 0 view .LVU317
 1064 00e6 5B1A     		subs	r3, r3, r1
 1065 00e8 9BB2     		uxth	r3, r3
 1066              		.loc 3 135 49 view .LVU318
 1067 00ea 0133     		adds	r3, r3, #1
 1068 00ec 9BB2     		uxth	r3, r3
 1069              	.LVL93:
 1070              		.loc 3 135 49 view .LVU319
 1071              	.LBE102:
 1072              	.LBE101:
1040:lvgl/src/widgets/lv_btnmatrix.c ****     }
 1073              		.loc 1 1040 21 view .LVU320
 1074 00ee CB1A     		subs	r3, r1, r3
 1075 00f0 ADF80A30 		strh	r3, [sp, #10]	@ movhi
 1076 00f4 ECE7     		b	.L48
 1077              	.LVL94:
 1078              	.L51:
 1079              		.cfi_def_cfa_offset 0
 1080              		.cfi_restore 4
 1081              		.cfi_restore 5
 1082              		.cfi_restore 6
 1083              		.cfi_restore 7
 1084              		.cfi_restore 14
1040:lvgl/src/widgets/lv_btnmatrix.c ****     }
 1085              		.loc 1 1040 21 view .LVU321
 1086 00f6 7047     		bx	lr
 1087              	.L57:
 1088              		.align	2
ARM GAS  C:\Users\OSD\AppData\Local\Temp\ccnvvkrZ.s 			page 47


 1089              	.L56:
 1090 00f8 67666666 		.word	1717986919
 1091              		.cfi_endproc
 1092              	.LFE192:
 1094              		.section	.text.draw_main,"ax",%progbits
 1095              		.align	1
 1096              		.syntax unified
 1097              		.thumb
 1098              		.thumb_func
 1100              	draw_main:
 1101              	.LVL95:
 1102              	.LFB179:
 688:lvgl/src/widgets/lv_btnmatrix.c ****     lv_obj_t * obj = lv_event_get_target(e);
 1103              		.loc 1 688 1 is_stmt 1 view -0
 1104              		.cfi_startproc
 1105              		@ args = 0, pretend = 0, frame = 360
 1106              		@ frame_needed = 0, uses_anonymous_args = 0
 688:lvgl/src/widgets/lv_btnmatrix.c ****     lv_obj_t * obj = lv_event_get_target(e);
 1107              		.loc 1 688 1 is_stmt 0 view .LVU323
 1108 0000 2DE9F04F 		push	{r4, r5, r6, r7, r8, r9, r10, fp, lr}
 1109              		.cfi_def_cfa_offset 36
 1110              		.cfi_offset 4, -36
 1111              		.cfi_offset 5, -32
 1112              		.cfi_offset 6, -28
 1113              		.cfi_offset 7, -24
 1114              		.cfi_offset 8, -20
 1115              		.cfi_offset 9, -16
 1116              		.cfi_offset 10, -12
 1117              		.cfi_offset 11, -8
 1118              		.cfi_offset 14, -4
 1119 0004 DFB0     		sub	sp, sp, #380
 1120              		.cfi_def_cfa_offset 416
 1121 0006 0446     		mov	r4, r0
 689:lvgl/src/widgets/lv_btnmatrix.c ****     lv_btnmatrix_t * btnm = (lv_btnmatrix_t *)obj;
 1122              		.loc 1 689 5 is_stmt 1 view .LVU324
 689:lvgl/src/widgets/lv_btnmatrix.c ****     lv_btnmatrix_t * btnm = (lv_btnmatrix_t *)obj;
 1123              		.loc 1 689 22 is_stmt 0 view .LVU325
 1124 0008 FFF7FEFF 		bl	lv_event_get_target
 1125              	.LVL96:
 690:lvgl/src/widgets/lv_btnmatrix.c ****     if(btnm->btn_cnt == 0) return;
 1126              		.loc 1 690 5 is_stmt 1 view .LVU326
 691:lvgl/src/widgets/lv_btnmatrix.c **** 
 1127              		.loc 1 691 5 view .LVU327
 691:lvgl/src/widgets/lv_btnmatrix.c **** 
 1128              		.loc 1 691 12 is_stmt 0 view .LVU328
 1129 000c 038E     		ldrh	r3, [r0, #48]
 691:lvgl/src/widgets/lv_btnmatrix.c **** 
 1130              		.loc 1 691 7 view .LVU329
 1131 000e 13B9     		cbnz	r3, .L88
 1132              	.LVL97:
 1133              	.L58:
 849:lvgl/src/widgets/lv_btnmatrix.c **** /**
 1134              		.loc 1 849 1 view .LVU330
 1135 0010 5FB0     		add	sp, sp, #380
 1136              		.cfi_remember_state
 1137              		.cfi_def_cfa_offset 36
 1138              		@ sp needed
ARM GAS  C:\Users\OSD\AppData\Local\Temp\ccnvvkrZ.s 			page 48


 1139 0012 BDE8F08F 		pop	{r4, r5, r6, r7, r8, r9, r10, fp, pc}
 1140              	.LVL98:
 1141              	.L88:
 1142              		.cfi_restore_state
 849:lvgl/src/widgets/lv_btnmatrix.c **** /**
 1143              		.loc 1 849 1 view .LVU331
 1144 0016 0546     		mov	r5, r0
 693:lvgl/src/widgets/lv_btnmatrix.c ****     obj->skip_trans = 1;
 1145              		.loc 1 693 5 is_stmt 1 view .LVU332
 693:lvgl/src/widgets/lv_btnmatrix.c ****     obj->skip_trans = 1;
 1146              		.loc 1 693 32 is_stmt 0 view .LVU333
 1147 0018 2046     		mov	r0, r4
 1148              	.LVL99:
 693:lvgl/src/widgets/lv_btnmatrix.c ****     obj->skip_trans = 1;
 1149              		.loc 1 693 32 view .LVU334
 1150 001a FFF7FEFF 		bl	lv_event_get_draw_ctx
 1151              	.LVL100:
 1152 001e 0646     		mov	r6, r0
 1153 0020 0490     		str	r0, [sp, #16]
 1154              	.LVL101:
 694:lvgl/src/widgets/lv_btnmatrix.c **** 
 1155              		.loc 1 694 5 is_stmt 1 view .LVU335
 694:lvgl/src/widgets/lv_btnmatrix.c **** 
 1156              		.loc 1 694 21 is_stmt 0 view .LVU336
 1157 0022 95F82230 		ldrb	r3, [r5, #34]	@ zero_extendqisi2
 1158 0026 43F00803 		orr	r3, r3, #8
 1159 002a 85F82230 		strb	r3, [r5, #34]
 696:lvgl/src/widgets/lv_btnmatrix.c ****     lv_obj_get_coords(obj, &area_obj);
 1160              		.loc 1 696 5 is_stmt 1 view .LVU337
 697:lvgl/src/widgets/lv_btnmatrix.c **** 
 1161              		.loc 1 697 5 view .LVU338
 1162 002e 5CA9     		add	r1, sp, #368
 1163 0030 2846     		mov	r0, r5
 1164              	.LVL102:
 697:lvgl/src/widgets/lv_btnmatrix.c **** 
 1165              		.loc 1 697 5 is_stmt 0 view .LVU339
 1166 0032 FFF7FEFF 		bl	lv_obj_get_coords
 1167              	.LVL103:
 699:lvgl/src/widgets/lv_btnmatrix.c **** 
 1168              		.loc 1 699 5 is_stmt 1 view .LVU340
 701:lvgl/src/widgets/lv_btnmatrix.c ****     uint16_t txt_i = 0;
 1169              		.loc 1 701 5 view .LVU341
 702:lvgl/src/widgets/lv_btnmatrix.c **** 
 1170              		.loc 1 702 5 view .LVU342
 704:lvgl/src/widgets/lv_btnmatrix.c ****     lv_draw_label_dsc_t draw_label_dsc_act;
 1171              		.loc 1 704 5 view .LVU343
 705:lvgl/src/widgets/lv_btnmatrix.c **** 
 1172              		.loc 1 705 5 view .LVU344
 707:lvgl/src/widgets/lv_btnmatrix.c ****     lv_draw_label_dsc_t draw_label_dsc_def;
 1173              		.loc 1 707 5 view .LVU345
 708:lvgl/src/widgets/lv_btnmatrix.c **** 
 1174              		.loc 1 708 5 view .LVU346
 710:lvgl/src/widgets/lv_btnmatrix.c ****     obj->state = LV_STATE_DEFAULT;
 1175              		.loc 1 710 5 view .LVU347
 710:lvgl/src/widgets/lv_btnmatrix.c ****     obj->state = LV_STATE_DEFAULT;
 1176              		.loc 1 710 16 is_stmt 0 view .LVU348
 1177 0036 2C8C     		ldrh	r4, [r5, #32]
ARM GAS  C:\Users\OSD\AppData\Local\Temp\ccnvvkrZ.s 			page 49


 1178              	.LVL104:
 710:lvgl/src/widgets/lv_btnmatrix.c ****     obj->state = LV_STATE_DEFAULT;
 1179              		.loc 1 710 16 view .LVU349
 1180 0038 0594     		str	r4, [sp, #20]
 1181              	.LVL105:
 711:lvgl/src/widgets/lv_btnmatrix.c ****     obj->skip_trans = 1;
 1182              		.loc 1 711 5 is_stmt 1 view .LVU350
 711:lvgl/src/widgets/lv_btnmatrix.c ****     obj->skip_trans = 1;
 1183              		.loc 1 711 16 is_stmt 0 view .LVU351
 1184 003a 0027     		movs	r7, #0
 1185 003c 2F84     		strh	r7, [r5, #32]	@ movhi
 712:lvgl/src/widgets/lv_btnmatrix.c ****     lv_draw_rect_dsc_init(&draw_rect_dsc_def);
 1186              		.loc 1 712 5 is_stmt 1 view .LVU352
 712:lvgl/src/widgets/lv_btnmatrix.c ****     lv_draw_rect_dsc_init(&draw_rect_dsc_def);
 1187              		.loc 1 712 21 is_stmt 0 view .LVU353
 1188 003e 95F82230 		ldrb	r3, [r5, #34]	@ zero_extendqisi2
 1189 0042 43F00803 		orr	r3, r3, #8
 1190 0046 85F82230 		strb	r3, [r5, #34]
 713:lvgl/src/widgets/lv_btnmatrix.c ****     lv_draw_label_dsc_init(&draw_label_dsc_def);
 1191              		.loc 1 713 5 is_stmt 1 view .LVU354
 1192 004a 28A8     		add	r0, sp, #160
 1193 004c FFF7FEFF 		bl	lv_draw_rect_dsc_init
 1194              	.LVL106:
 714:lvgl/src/widgets/lv_btnmatrix.c ****     lv_obj_init_draw_rect_dsc(obj, LV_PART_ITEMS, &draw_rect_dsc_def);
 1195              		.loc 1 714 5 view .LVU355
 1196 0050 1EA8     		add	r0, sp, #120
 1197 0052 FFF7FEFF 		bl	lv_draw_label_dsc_init
 1198              	.LVL107:
 715:lvgl/src/widgets/lv_btnmatrix.c ****     lv_obj_init_draw_label_dsc(obj, LV_PART_ITEMS, &draw_label_dsc_def);
 1199              		.loc 1 715 5 view .LVU356
 1200 0056 28AA     		add	r2, sp, #160
 1201 0058 4FF4A021 		mov	r1, #327680
 1202 005c 2846     		mov	r0, r5
 1203 005e FFF7FEFF 		bl	lv_obj_init_draw_rect_dsc
 1204              	.LVL108:
 716:lvgl/src/widgets/lv_btnmatrix.c ****     obj->skip_trans = 0;
 1205              		.loc 1 716 5 view .LVU357
 1206 0062 1EAA     		add	r2, sp, #120
 1207 0064 4FF4A021 		mov	r1, #327680
 1208 0068 2846     		mov	r0, r5
 1209 006a FFF7FEFF 		bl	lv_obj_init_draw_label_dsc
 1210              	.LVL109:
 717:lvgl/src/widgets/lv_btnmatrix.c ****     obj->state = state_ori;
 1211              		.loc 1 717 5 view .LVU358
 717:lvgl/src/widgets/lv_btnmatrix.c ****     obj->state = state_ori;
 1212              		.loc 1 717 21 is_stmt 0 view .LVU359
 1213 006e 95F82230 		ldrb	r3, [r5, #34]	@ zero_extendqisi2
 1214 0072 67F3C303 		bfi	r3, r7, #3, #1
 1215 0076 85F82230 		strb	r3, [r5, #34]
 718:lvgl/src/widgets/lv_btnmatrix.c **** 
 1216              		.loc 1 718 5 is_stmt 1 view .LVU360
 718:lvgl/src/widgets/lv_btnmatrix.c **** 
 1217              		.loc 1 718 16 is_stmt 0 view .LVU361
 1218 007a 2C84     		strh	r4, [r5, #32]	@ movhi
 720:lvgl/src/widgets/lv_btnmatrix.c ****     lv_coord_t pbottom = lv_obj_get_style_pad_bottom(obj, LV_PART_MAIN);
 1219              		.loc 1 720 5 is_stmt 1 view .LVU362
 1220              	.LVL110:
ARM GAS  C:\Users\OSD\AppData\Local\Temp\ccnvvkrZ.s 			page 50


 1221              	.LBB103:
 1222              	.LBI103:
 103:lvgl/src/widgets/../core/lv_obj_style_gen.h **** {
 1223              		.loc 2 103 26 view .LVU363
 1224              	.LBB104:
 105:lvgl/src/widgets/../core/lv_obj_style_gen.h ****     return (lv_coord_t)v.num;
 1225              		.loc 2 105 5 view .LVU364
 105:lvgl/src/widgets/../core/lv_obj_style_gen.h ****     return (lv_coord_t)v.num;
 1226              		.loc 2 105 26 is_stmt 0 view .LVU365
 1227 007c 1022     		movs	r2, #16
 1228 007e 3946     		mov	r1, r7
 1229 0080 2846     		mov	r0, r5
 1230 0082 FFF7FEFF 		bl	lv_obj_get_style_prop
 1231              	.LVL111:
 106:lvgl/src/widgets/../core/lv_obj_style_gen.h **** }
 1232              		.loc 2 106 5 is_stmt 1 view .LVU366
 106:lvgl/src/widgets/../core/lv_obj_style_gen.h **** }
 1233              		.loc 2 106 12 is_stmt 0 view .LVU367
 1234 0086 03B2     		sxth	r3, r0
 1235 0088 0693     		str	r3, [sp, #24]
 1236              	.LVL112:
 106:lvgl/src/widgets/../core/lv_obj_style_gen.h **** }
 1237              		.loc 2 106 12 view .LVU368
 1238              	.LBE104:
 1239              	.LBE103:
 721:lvgl/src/widgets/lv_btnmatrix.c ****     lv_coord_t pleft = lv_obj_get_style_pad_left(obj, LV_PART_MAIN);
 1240              		.loc 1 721 5 is_stmt 1 view .LVU369
 1241              	.LBB105:
 1242              	.LBI105:
 109:lvgl/src/widgets/../core/lv_obj_style_gen.h **** {
 1243              		.loc 2 109 26 view .LVU370
 1244              	.LBB106:
 111:lvgl/src/widgets/../core/lv_obj_style_gen.h ****     return (lv_coord_t)v.num;
 1245              		.loc 2 111 5 view .LVU371
 111:lvgl/src/widgets/../core/lv_obj_style_gen.h ****     return (lv_coord_t)v.num;
 1246              		.loc 2 111 26 is_stmt 0 view .LVU372
 1247 008a 1122     		movs	r2, #17
 1248 008c 3946     		mov	r1, r7
 1249 008e 2846     		mov	r0, r5
 1250 0090 FFF7FEFF 		bl	lv_obj_get_style_prop
 1251              	.LVL113:
 112:lvgl/src/widgets/../core/lv_obj_style_gen.h **** }
 1252              		.loc 2 112 5 is_stmt 1 view .LVU373
 112:lvgl/src/widgets/../core/lv_obj_style_gen.h **** }
 1253              		.loc 2 112 12 is_stmt 0 view .LVU374
 1254 0094 03B2     		sxth	r3, r0
 1255 0096 0793     		str	r3, [sp, #28]
 1256              	.LVL114:
 112:lvgl/src/widgets/../core/lv_obj_style_gen.h **** }
 1257              		.loc 2 112 12 view .LVU375
 1258              	.LBE106:
 1259              	.LBE105:
 722:lvgl/src/widgets/lv_btnmatrix.c ****     lv_coord_t pright = lv_obj_get_style_pad_right(obj, LV_PART_MAIN);
 1260              		.loc 1 722 5 is_stmt 1 view .LVU376
 1261              	.LBB107:
 1262              	.LBI107:
 115:lvgl/src/widgets/../core/lv_obj_style_gen.h **** {
ARM GAS  C:\Users\OSD\AppData\Local\Temp\ccnvvkrZ.s 			page 51


 1263              		.loc 2 115 26 view .LVU377
 1264              	.LBB108:
 117:lvgl/src/widgets/../core/lv_obj_style_gen.h ****     return (lv_coord_t)v.num;
 1265              		.loc 2 117 5 view .LVU378
 117:lvgl/src/widgets/../core/lv_obj_style_gen.h ****     return (lv_coord_t)v.num;
 1266              		.loc 2 117 26 is_stmt 0 view .LVU379
 1267 0098 1222     		movs	r2, #18
 1268 009a 3946     		mov	r1, r7
 1269 009c 2846     		mov	r0, r5
 1270 009e FFF7FEFF 		bl	lv_obj_get_style_prop
 1271              	.LVL115:
 118:lvgl/src/widgets/../core/lv_obj_style_gen.h **** }
 1272              		.loc 2 118 5 is_stmt 1 view .LVU380
 118:lvgl/src/widgets/../core/lv_obj_style_gen.h **** }
 1273              		.loc 2 118 12 is_stmt 0 view .LVU381
 1274 00a2 03B2     		sxth	r3, r0
 1275 00a4 0893     		str	r3, [sp, #32]
 1276              	.LVL116:
 118:lvgl/src/widgets/../core/lv_obj_style_gen.h **** }
 1277              		.loc 2 118 12 view .LVU382
 1278              	.LBE108:
 1279              	.LBE107:
 723:lvgl/src/widgets/lv_btnmatrix.c **** 
 1280              		.loc 1 723 5 is_stmt 1 view .LVU383
 1281              	.LBB109:
 1282              	.LBI109:
 121:lvgl/src/widgets/../core/lv_obj_style_gen.h **** {
 1283              		.loc 2 121 26 view .LVU384
 1284              	.LBB110:
 123:lvgl/src/widgets/../core/lv_obj_style_gen.h ****     return (lv_coord_t)v.num;
 1285              		.loc 2 123 5 view .LVU385
 123:lvgl/src/widgets/../core/lv_obj_style_gen.h ****     return (lv_coord_t)v.num;
 1286              		.loc 2 123 26 is_stmt 0 view .LVU386
 1287 00a6 1322     		movs	r2, #19
 1288 00a8 3946     		mov	r1, r7
 1289 00aa 2846     		mov	r0, r5
 1290 00ac FFF7FEFF 		bl	lv_obj_get_style_prop
 1291              	.LVL117:
 124:lvgl/src/widgets/../core/lv_obj_style_gen.h **** }
 1292              		.loc 2 124 5 is_stmt 1 view .LVU387
 124:lvgl/src/widgets/../core/lv_obj_style_gen.h **** }
 1293              		.loc 2 124 12 is_stmt 0 view .LVU388
 1294 00b0 03B2     		sxth	r3, r0
 1295 00b2 0993     		str	r3, [sp, #36]
 1296              	.LVL118:
 124:lvgl/src/widgets/../core/lv_obj_style_gen.h **** }
 1297              		.loc 2 124 12 view .LVU389
 1298              	.LBE110:
 1299              	.LBE109:
 730:lvgl/src/widgets/lv_btnmatrix.c ****     lv_obj_draw_dsc_init(&part_draw_dsc, draw_ctx);
 1300              		.loc 1 730 5 is_stmt 1 view .LVU390
 731:lvgl/src/widgets/lv_btnmatrix.c ****     part_draw_dsc.part = LV_PART_ITEMS;
 1301              		.loc 1 731 5 view .LVU391
 1302 00b4 3146     		mov	r1, r6
 1303 00b6 0CA8     		add	r0, sp, #48
 1304 00b8 FFF7FEFF 		bl	lv_obj_draw_dsc_init
 1305              	.LVL119:
ARM GAS  C:\Users\OSD\AppData\Local\Temp\ccnvvkrZ.s 			page 52


 732:lvgl/src/widgets/lv_btnmatrix.c ****     part_draw_dsc.class_p = MY_CLASS;
 1306              		.loc 1 732 5 view .LVU392
 732:lvgl/src/widgets/lv_btnmatrix.c ****     part_draw_dsc.class_p = MY_CLASS;
 1307              		.loc 1 732 24 is_stmt 0 view .LVU393
 1308 00bc 4FF4A023 		mov	r3, #327680
 1309 00c0 1993     		str	r3, [sp, #100]
 733:lvgl/src/widgets/lv_btnmatrix.c ****     part_draw_dsc.type = LV_BTNMATRIX_DRAW_PART_BTN;
 1310              		.loc 1 733 5 is_stmt 1 view .LVU394
 733:lvgl/src/widgets/lv_btnmatrix.c ****     part_draw_dsc.type = LV_BTNMATRIX_DRAW_PART_BTN;
 1311              		.loc 1 733 27 is_stmt 0 view .LVU395
 1312 00c2 C94B     		ldr	r3, .L96
 1313 00c4 0D93     		str	r3, [sp, #52]
 734:lvgl/src/widgets/lv_btnmatrix.c ****     part_draw_dsc.rect_dsc = &draw_rect_dsc_act;
 1314              		.loc 1 734 5 is_stmt 1 view .LVU396
 734:lvgl/src/widgets/lv_btnmatrix.c ****     part_draw_dsc.rect_dsc = &draw_rect_dsc_act;
 1315              		.loc 1 734 24 is_stmt 0 view .LVU397
 1316 00c6 0E97     		str	r7, [sp, #56]
 735:lvgl/src/widgets/lv_btnmatrix.c ****     part_draw_dsc.label_dsc = &draw_label_dsc_act;
 1317              		.loc 1 735 5 is_stmt 1 view .LVU398
 735:lvgl/src/widgets/lv_btnmatrix.c ****     part_draw_dsc.label_dsc = &draw_label_dsc_act;
 1318              		.loc 1 735 28 is_stmt 0 view .LVU399
 1319 00c8 46AB     		add	r3, sp, #280
 1320 00ca 1093     		str	r3, [sp, #64]
 736:lvgl/src/widgets/lv_btnmatrix.c **** 
 1321              		.loc 1 736 5 is_stmt 1 view .LVU400
 736:lvgl/src/widgets/lv_btnmatrix.c **** 
 1322              		.loc 1 736 29 is_stmt 0 view .LVU401
 1323 00cc 3CAB     		add	r3, sp, #240
 1324 00ce 1193     		str	r3, [sp, #68]
 738:lvgl/src/widgets/lv_btnmatrix.c ****         /*Search the next valid text in the map*/
 1325              		.loc 1 738 5 is_stmt 1 view .LVU402
 702:lvgl/src/widgets/lv_btnmatrix.c **** 
 1326              		.loc 1 702 14 is_stmt 0 view .LVU403
 1327 00d0 3C46     		mov	r4, r7
 1328              	.LVL120:
 738:lvgl/src/widgets/lv_btnmatrix.c ****         /*Search the next valid text in the map*/
 1329              		.loc 1 738 5 view .LVU404
 1330 00d2 2BE1     		b	.L61
 1331              	.LVL121:
 1332              	.L62:
 1333              	.LBB111:
 741:lvgl/src/widgets/lv_btnmatrix.c ****         }
 1334              		.loc 1 741 13 is_stmt 1 view .LVU405
 741:lvgl/src/widgets/lv_btnmatrix.c ****         }
 1335              		.loc 1 741 18 is_stmt 0 view .LVU406
 1336 00d4 0134     		adds	r4, r4, #1
 1337              	.LVL122:
 741:lvgl/src/widgets/lv_btnmatrix.c ****         }
 1338              		.loc 1 741 18 view .LVU407
 1339 00d6 A4B2     		uxth	r4, r4
 1340              	.LVL123:
 1341              	.L84:
 740:lvgl/src/widgets/lv_btnmatrix.c ****             txt_i++;
 1342              		.loc 1 740 14 is_stmt 1 view .LVU408
 740:lvgl/src/widgets/lv_btnmatrix.c ****             txt_i++;
 1343              		.loc 1 740 26 is_stmt 0 view .LVU409
 1344 00d8 6B6A     		ldr	r3, [r5, #36]
ARM GAS  C:\Users\OSD\AppData\Local\Temp\ccnvvkrZ.s 			page 53


 740:lvgl/src/widgets/lv_btnmatrix.c ****             txt_i++;
 1345              		.loc 1 740 33 view .LVU410
 1346 00da A600     		lsls	r6, r4, #2
 740:lvgl/src/widgets/lv_btnmatrix.c ****             txt_i++;
 1347              		.loc 1 740 15 view .LVU411
 1348 00dc C349     		ldr	r1, .L96+4
 1349 00de 53F82400 		ldr	r0, [r3, r4, lsl #2]
 1350 00e2 FFF7FEFF 		bl	strcmp
 1351              	.LVL124:
 740:lvgl/src/widgets/lv_btnmatrix.c ****             txt_i++;
 1352              		.loc 1 740 14 view .LVU412
 1353 00e6 0028     		cmp	r0, #0
 1354 00e8 F4D0     		beq	.L62
 745:lvgl/src/widgets/lv_btnmatrix.c **** 
 1355              		.loc 1 745 9 is_stmt 1 view .LVU413
 745:lvgl/src/widgets/lv_btnmatrix.c **** 
 1356              		.loc 1 745 33 is_stmt 0 view .LVU414
 1357 00ea EB6A     		ldr	r3, [r5, #44]
 745:lvgl/src/widgets/lv_btnmatrix.c **** 
 1358              		.loc 1 745 44 view .LVU415
 1359 00ec BA46     		mov	r10, r7
 1360 00ee 4FEA470B 		lsl	fp, r7, #1
 745:lvgl/src/widgets/lv_btnmatrix.c **** 
 1361              		.loc 1 745 12 view .LVU416
 1362 00f2 33F81790 		ldrh	r9, [r3, r7, lsl #1]
 1363 00f6 4846     		mov	r0, r9
 1364 00f8 FFF7FEFF 		bl	button_is_hidden
 1365              	.LVL125:
 745:lvgl/src/widgets/lv_btnmatrix.c **** 
 1366              		.loc 1 745 11 view .LVU417
 1367 00fc 0028     		cmp	r0, #0
 1368 00fe 40F01181 		bne	.L64
 748:lvgl/src/widgets/lv_btnmatrix.c ****         if(button_get_checked(btnm->ctrl_bits[btn_i])) btn_state |= LV_STATE_CHECKED;
 1369              		.loc 1 748 9 is_stmt 1 view .LVU418
 1370              	.LVL126:
 749:lvgl/src/widgets/lv_btnmatrix.c **** 
 1371              		.loc 1 749 9 view .LVU419
 749:lvgl/src/widgets/lv_btnmatrix.c **** 
 1372              		.loc 1 749 12 is_stmt 0 view .LVU420
 1373 0102 4846     		mov	r0, r9
 1374 0104 FFF7FEFF 		bl	button_get_checked
 1375              	.LVL127:
 749:lvgl/src/widgets/lv_btnmatrix.c **** 
 1376              		.loc 1 749 11 view .LVU421
 1377 0108 0028     		cmp	r0, #0
 1378 010a 40F01A81 		bne	.L85
 748:lvgl/src/widgets/lv_btnmatrix.c ****         if(button_get_checked(btnm->ctrl_bits[btn_i])) btn_state |= LV_STATE_CHECKED;
 1379              		.loc 1 748 20 view .LVU422
 1380 010e 4FF00008 		mov	r8, #0
 1381              	.L65:
 1382              	.LVL128:
 751:lvgl/src/widgets/lv_btnmatrix.c ****         else if(btn_i == btnm->btn_id_sel) {
 1383              		.loc 1 751 9 is_stmt 1 view .LVU423
 751:lvgl/src/widgets/lv_btnmatrix.c ****         else if(btn_i == btnm->btn_id_sel) {
 1384              		.loc 1 751 12 is_stmt 0 view .LVU424
 1385 0112 4846     		mov	r0, r9
 1386 0114 FFF7FEFF 		bl	button_is_inactive
ARM GAS  C:\Users\OSD\AppData\Local\Temp\ccnvvkrZ.s 			page 54


 1387              	.LVL129:
 751:lvgl/src/widgets/lv_btnmatrix.c ****         else if(btn_i == btnm->btn_id_sel) {
 1388              		.loc 1 751 11 view .LVU425
 1389 0118 0028     		cmp	r0, #0
 1390 011a 00F01581 		beq	.L66
 751:lvgl/src/widgets/lv_btnmatrix.c ****         else if(btn_i == btnm->btn_id_sel) {
 1391              		.loc 1 751 56 is_stmt 1 discriminator 1 view .LVU426
 751:lvgl/src/widgets/lv_btnmatrix.c ****         else if(btn_i == btnm->btn_id_sel) {
 1392              		.loc 1 751 66 is_stmt 0 discriminator 1 view .LVU427
 1393 011e 48F08008 		orr	r8, r8, #128
 1394              	.LVL130:
 1395              	.L67:
 760:lvgl/src/widgets/lv_btnmatrix.c ****         btn_area.x1 += area_obj.x1;
 1396              		.loc 1 760 9 is_stmt 1 view .LVU428
 760:lvgl/src/widgets/lv_btnmatrix.c ****         btn_area.x1 += area_obj.x1;
 1397              		.loc 1 760 38 is_stmt 0 view .LVU429
 1398 0122 AB6A     		ldr	r3, [r5, #40]
 760:lvgl/src/widgets/lv_btnmatrix.c ****         btn_area.x1 += area_obj.x1;
 1399              		.loc 1 760 33 view .LVU430
 1400 0124 03EBCA02 		add	r2, r3, r10, lsl #3
 1401              	.LVL131:
 1402              	.LBB112:
 1403              	.LBI112:
 110:d:\kzc\stm32\h743ii_lcd\lvgl\src\misc\lv_area.h **** {
 1404              		.loc 3 110 20 is_stmt 1 view .LVU431
 1405              	.LBB113:
 112:d:\kzc\stm32\h743ii_lcd\lvgl\src\misc\lv_area.h ****     dest->y1 = src->y1;
 1406              		.loc 3 112 5 view .LVU432
 112:d:\kzc\stm32\h743ii_lcd\lvgl\src\misc\lv_area.h ****     dest->y1 = src->y1;
 1407              		.loc 3 112 19 is_stmt 0 view .LVU433
 1408 0128 33F93A30 		ldrsh	r3, [r3, r10, lsl #3]
 112:d:\kzc\stm32\h743ii_lcd\lvgl\src\misc\lv_area.h ****     dest->y1 = src->y1;
 1409              		.loc 3 112 14 view .LVU434
 1410 012c ADF86831 		strh	r3, [sp, #360]	@ movhi
 113:d:\kzc\stm32\h743ii_lcd\lvgl\src\misc\lv_area.h ****     dest->x2 = src->x2;
 1411              		.loc 3 113 5 is_stmt 1 view .LVU435
 113:d:\kzc\stm32\h743ii_lcd\lvgl\src\misc\lv_area.h ****     dest->x2 = src->x2;
 1412              		.loc 3 113 19 is_stmt 0 view .LVU436
 1413 0130 B2F90210 		ldrsh	r1, [r2, #2]
 113:d:\kzc\stm32\h743ii_lcd\lvgl\src\misc\lv_area.h ****     dest->x2 = src->x2;
 1414              		.loc 3 113 14 view .LVU437
 1415 0134 ADF86A11 		strh	r1, [sp, #362]	@ movhi
 114:d:\kzc\stm32\h743ii_lcd\lvgl\src\misc\lv_area.h ****     dest->y2 = src->y2;
 1416              		.loc 3 114 5 is_stmt 1 view .LVU438
 114:d:\kzc\stm32\h743ii_lcd\lvgl\src\misc\lv_area.h ****     dest->y2 = src->y2;
 1417              		.loc 3 114 19 is_stmt 0 view .LVU439
 1418 0138 B2F904C0 		ldrsh	ip, [r2, #4]
 114:d:\kzc\stm32\h743ii_lcd\lvgl\src\misc\lv_area.h ****     dest->y2 = src->y2;
 1419              		.loc 3 114 14 view .LVU440
 1420 013c ADF86CC1 		strh	ip, [sp, #364]	@ movhi
 115:d:\kzc\stm32\h743ii_lcd\lvgl\src\misc\lv_area.h **** }
 1421              		.loc 3 115 5 is_stmt 1 view .LVU441
 115:d:\kzc\stm32\h743ii_lcd\lvgl\src\misc\lv_area.h **** }
 1422              		.loc 3 115 19 is_stmt 0 view .LVU442
 1423 0140 B2F90600 		ldrsh	r0, [r2, #6]
 115:d:\kzc\stm32\h743ii_lcd\lvgl\src\misc\lv_area.h **** }
 1424              		.loc 3 115 14 view .LVU443
ARM GAS  C:\Users\OSD\AppData\Local\Temp\ccnvvkrZ.s 			page 55


 1425 0144 ADF86E01 		strh	r0, [sp, #366]	@ movhi
 1426              	.LVL132:
 115:d:\kzc\stm32\h743ii_lcd\lvgl\src\misc\lv_area.h **** }
 1427              		.loc 3 115 14 view .LVU444
 1428              	.LBE113:
 1429              	.LBE112:
 761:lvgl/src/widgets/lv_btnmatrix.c ****         btn_area.y1 += area_obj.y1;
 1430              		.loc 1 761 9 is_stmt 1 view .LVU445
 761:lvgl/src/widgets/lv_btnmatrix.c ****         btn_area.y1 += area_obj.y1;
 1431              		.loc 1 761 32 is_stmt 0 view .LVU446
 1432 0148 BDF87021 		ldrh	r2, [sp, #368]
 761:lvgl/src/widgets/lv_btnmatrix.c ****         btn_area.y1 += area_obj.y1;
 1433              		.loc 1 761 21 view .LVU447
 1434 014c 1344     		add	r3, r3, r2
 1435 014e ADF86831 		strh	r3, [sp, #360]	@ movhi
 762:lvgl/src/widgets/lv_btnmatrix.c ****         btn_area.x2 += area_obj.x1;
 1436              		.loc 1 762 9 is_stmt 1 view .LVU448
 762:lvgl/src/widgets/lv_btnmatrix.c ****         btn_area.x2 += area_obj.x1;
 1437              		.loc 1 762 32 is_stmt 0 view .LVU449
 1438 0152 BDF87231 		ldrh	r3, [sp, #370]
 762:lvgl/src/widgets/lv_btnmatrix.c ****         btn_area.x2 += area_obj.x1;
 1439              		.loc 1 762 21 view .LVU450
 1440 0156 1944     		add	r1, r1, r3
 1441 0158 ADF86A11 		strh	r1, [sp, #362]	@ movhi
 763:lvgl/src/widgets/lv_btnmatrix.c ****         btn_area.y2 += area_obj.y1;
 1442              		.loc 1 763 9 is_stmt 1 view .LVU451
 763:lvgl/src/widgets/lv_btnmatrix.c ****         btn_area.y2 += area_obj.y1;
 1443              		.loc 1 763 21 is_stmt 0 view .LVU452
 1444 015c 6244     		add	r2, r2, ip
 1445 015e ADF86C21 		strh	r2, [sp, #364]	@ movhi
 764:lvgl/src/widgets/lv_btnmatrix.c **** 
 1446              		.loc 1 764 9 is_stmt 1 view .LVU453
 764:lvgl/src/widgets/lv_btnmatrix.c **** 
 1447              		.loc 1 764 21 is_stmt 0 view .LVU454
 1448 0162 0344     		add	r3, r3, r0
 1449 0164 ADF86E31 		strh	r3, [sp, #366]	@ movhi
 767:lvgl/src/widgets/lv_btnmatrix.c ****             lv_memcpy(&draw_rect_dsc_act, &draw_rect_dsc_def, sizeof(lv_draw_rect_dsc_t));
 1450              		.loc 1 767 9 is_stmt 1 view .LVU455
 767:lvgl/src/widgets/lv_btnmatrix.c ****             lv_memcpy(&draw_rect_dsc_act, &draw_rect_dsc_def, sizeof(lv_draw_rect_dsc_t));
 1451              		.loc 1 767 11 is_stmt 0 view .LVU456
 1452 0168 B8F1000F 		cmp	r8, #0
 1453 016c 40F00A81 		bne	.L71
 768:lvgl/src/widgets/lv_btnmatrix.c ****             lv_memcpy(&draw_label_dsc_act, &draw_label_dsc_def, sizeof(lv_draw_label_dsc_t));
 1454              		.loc 1 768 13 is_stmt 1 view .LVU457
 1455 0170 5022     		movs	r2, #80
 1456 0172 28A9     		add	r1, sp, #160
 1457 0174 46A8     		add	r0, sp, #280
 1458 0176 FFF7FEFF 		bl	lv_memcpy
 1459              	.LVL133:
 769:lvgl/src/widgets/lv_btnmatrix.c ****         }
 1460              		.loc 1 769 13 view .LVU458
 1461 017a 2822     		movs	r2, #40
 1462 017c 1EA9     		add	r1, sp, #120
 1463 017e 3CA8     		add	r0, sp, #240
 1464 0180 FFF7FEFF 		bl	lv_memcpy
 1465              	.LVL134:
 1466              	.L72:
ARM GAS  C:\Users\OSD\AppData\Local\Temp\ccnvvkrZ.s 			page 56


 783:lvgl/src/widgets/lv_btnmatrix.c ****         if(recolor) draw_label_dsc_act.flag |= LV_TEXT_FLAG_RECOLOR;
 1467              		.loc 1 783 9 view .LVU459
 783:lvgl/src/widgets/lv_btnmatrix.c ****         if(recolor) draw_label_dsc_act.flag |= LV_TEXT_FLAG_RECOLOR;
 1468              		.loc 1 783 46 is_stmt 0 view .LVU460
 1469 0184 EB6A     		ldr	r3, [r5, #44]
 783:lvgl/src/widgets/lv_btnmatrix.c ****         if(recolor) draw_label_dsc_act.flag |= LV_TEXT_FLAG_RECOLOR;
 1470              		.loc 1 783 24 view .LVU461
 1471 0186 33F80B00 		ldrh	r0, [r3, fp]
 1472 018a FFF7FEFF 		bl	button_is_recolor
 1473              	.LVL135:
 784:lvgl/src/widgets/lv_btnmatrix.c ****         else draw_label_dsc_act.flag &= ~LV_TEXT_FLAG_RECOLOR;
 1474              		.loc 1 784 9 is_stmt 1 view .LVU462
 784:lvgl/src/widgets/lv_btnmatrix.c ****         else draw_label_dsc_act.flag &= ~LV_TEXT_FLAG_RECOLOR;
 1475              		.loc 1 784 11 is_stmt 0 view .LVU463
 1476 018e 0028     		cmp	r0, #0
 1477 0190 00F01B81 		beq	.L73
 784:lvgl/src/widgets/lv_btnmatrix.c ****         else draw_label_dsc_act.flag &= ~LV_TEXT_FLAG_RECOLOR;
 1478              		.loc 1 784 21 is_stmt 1 discriminator 1 view .LVU464
 784:lvgl/src/widgets/lv_btnmatrix.c ****         else draw_label_dsc_act.flag &= ~LV_TEXT_FLAG_RECOLOR;
 1479              		.loc 1 784 45 is_stmt 0 discriminator 1 view .LVU465
 1480 0194 9DF81331 		ldrb	r3, [sp, #275]	@ zero_extendqisi2
 1481 0198 43F00103 		orr	r3, r3, #1
 1482 019c 8DF81331 		strb	r3, [sp, #275]
 1483              	.L74:
 787:lvgl/src/widgets/lv_btnmatrix.c ****         part_draw_dsc.id = btn_i;
 1484              		.loc 1 787 9 is_stmt 1 view .LVU466
 787:lvgl/src/widgets/lv_btnmatrix.c ****         part_draw_dsc.id = btn_i;
 1485              		.loc 1 787 33 is_stmt 0 view .LVU467
 1486 01a0 5AAB     		add	r3, sp, #360
 1487 01a2 0F93     		str	r3, [sp, #60]
 788:lvgl/src/widgets/lv_btnmatrix.c ****         lv_event_send(obj, LV_EVENT_DRAW_PART_BEGIN, &part_draw_dsc);
 1488              		.loc 1 788 9 is_stmt 1 view .LVU468
 788:lvgl/src/widgets/lv_btnmatrix.c ****         lv_event_send(obj, LV_EVENT_DRAW_PART_BEGIN, &part_draw_dsc);
 1489              		.loc 1 788 26 is_stmt 0 view .LVU469
 1490 01a4 CDF868A0 		str	r10, [sp, #104]
 789:lvgl/src/widgets/lv_btnmatrix.c **** 
 1491              		.loc 1 789 9 is_stmt 1 view .LVU470
 1492 01a8 0CAA     		add	r2, sp, #48
 1493 01aa 1A21     		movs	r1, #26
 1494 01ac 2846     		mov	r0, r5
 1495              	.LVL136:
 789:lvgl/src/widgets/lv_btnmatrix.c **** 
 1496              		.loc 1 789 9 is_stmt 0 view .LVU471
 1497 01ae FFF7FEFF 		bl	lv_event_send
 1498              	.LVL137:
 792:lvgl/src/widgets/lv_btnmatrix.c ****             draw_rect_dsc_act.border_side = LV_BORDER_SIDE_FULL;
 1499              		.loc 1 792 9 is_stmt 1 view .LVU472
 792:lvgl/src/widgets/lv_btnmatrix.c ****             draw_rect_dsc_act.border_side = LV_BORDER_SIDE_FULL;
 1500              		.loc 1 792 29 is_stmt 0 view .LVU473
 1501 01b2 9DF84B31 		ldrb	r3, [sp, #331]	@ zero_extendqisi2
 792:lvgl/src/widgets/lv_btnmatrix.c ****             draw_rect_dsc_act.border_side = LV_BORDER_SIDE_FULL;
 1502              		.loc 1 792 11 view .LVU474
 1503 01b6 13F0200F 		tst	r3, #32
 1504 01ba 2AD0     		beq	.L75
 793:lvgl/src/widgets/lv_btnmatrix.c ****             if(btn_area.x1 == obj->coords.x1 + pleft) draw_rect_dsc_act.border_side &= ~LV_BORDER_S
 1505              		.loc 1 793 13 is_stmt 1 view .LVU475
 793:lvgl/src/widgets/lv_btnmatrix.c ****             if(btn_area.x1 == obj->coords.x1 + pleft) draw_rect_dsc_act.border_side &= ~LV_BORDER_S
ARM GAS  C:\Users\OSD\AppData\Local\Temp\ccnvvkrZ.s 			page 57


 1506              		.loc 1 793 43 is_stmt 0 view .LVU476
 1507 01bc 9DF84B31 		ldrb	r3, [sp, #331]	@ zero_extendqisi2
 1508 01c0 0F22     		movs	r2, #15
 1509 01c2 62F34503 		bfi	r3, r2, #1, #5
 1510 01c6 8DF84B31 		strb	r3, [sp, #331]
 794:lvgl/src/widgets/lv_btnmatrix.c ****             if(btn_area.x2 == obj->coords.x2 - pright) draw_rect_dsc_act.border_side &= ~LV_BORDER_
 1511              		.loc 1 794 13 is_stmt 1 view .LVU477
 794:lvgl/src/widgets/lv_btnmatrix.c ****             if(btn_area.x2 == obj->coords.x2 - pright) draw_rect_dsc_act.border_side &= ~LV_BORDER_
 1512              		.loc 1 794 24 is_stmt 0 view .LVU478
 1513 01ca BDF96821 		ldrsh	r2, [sp, #360]
 794:lvgl/src/widgets/lv_btnmatrix.c ****             if(btn_area.x2 == obj->coords.x2 - pright) draw_rect_dsc_act.border_side &= ~LV_BORDER_
 1514              		.loc 1 794 42 view .LVU479
 1515 01ce B5F91430 		ldrsh	r3, [r5, #20]
 794:lvgl/src/widgets/lv_btnmatrix.c ****             if(btn_area.x2 == obj->coords.x2 - pright) draw_rect_dsc_act.border_side &= ~LV_BORDER_
 1516              		.loc 1 794 46 view .LVU480
 1517 01d2 0899     		ldr	r1, [sp, #32]
 1518 01d4 0B44     		add	r3, r3, r1
 794:lvgl/src/widgets/lv_btnmatrix.c ****             if(btn_area.x2 == obj->coords.x2 - pright) draw_rect_dsc_act.border_side &= ~LV_BORDER_
 1519              		.loc 1 794 15 view .LVU481
 1520 01d6 9A42     		cmp	r2, r3
 1521 01d8 00F0FE80 		beq	.L89
 1522              	.L76:
 795:lvgl/src/widgets/lv_btnmatrix.c ****             if(btn_area.y1 == obj->coords.y1 + ptop) draw_rect_dsc_act.border_side &= ~LV_BORDER_SI
 1523              		.loc 1 795 13 is_stmt 1 view .LVU482
 795:lvgl/src/widgets/lv_btnmatrix.c ****             if(btn_area.y1 == obj->coords.y1 + ptop) draw_rect_dsc_act.border_side &= ~LV_BORDER_SI
 1524              		.loc 1 795 24 is_stmt 0 view .LVU483
 1525 01dc BDF96C21 		ldrsh	r2, [sp, #364]
 795:lvgl/src/widgets/lv_btnmatrix.c ****             if(btn_area.y1 == obj->coords.y1 + ptop) draw_rect_dsc_act.border_side &= ~LV_BORDER_SI
 1526              		.loc 1 795 42 view .LVU484
 1527 01e0 B5F91830 		ldrsh	r3, [r5, #24]
 795:lvgl/src/widgets/lv_btnmatrix.c ****             if(btn_area.y1 == obj->coords.y1 + ptop) draw_rect_dsc_act.border_side &= ~LV_BORDER_SI
 1528              		.loc 1 795 46 view .LVU485
 1529 01e4 0999     		ldr	r1, [sp, #36]
 1530 01e6 5B1A     		subs	r3, r3, r1
 795:lvgl/src/widgets/lv_btnmatrix.c ****             if(btn_area.y1 == obj->coords.y1 + ptop) draw_rect_dsc_act.border_side &= ~LV_BORDER_SI
 1531              		.loc 1 795 15 view .LVU486
 1532 01e8 9A42     		cmp	r2, r3
 1533 01ea 00F00181 		beq	.L90
 1534              	.L77:
 796:lvgl/src/widgets/lv_btnmatrix.c ****             if(btn_area.y2 == obj->coords.y2 - pbottom) draw_rect_dsc_act.border_side &= ~LV_BORDER
 1535              		.loc 1 796 13 is_stmt 1 view .LVU487
 796:lvgl/src/widgets/lv_btnmatrix.c ****             if(btn_area.y2 == obj->coords.y2 - pbottom) draw_rect_dsc_act.border_side &= ~LV_BORDER
 1536              		.loc 1 796 24 is_stmt 0 view .LVU488
 1537 01ee BDF96A21 		ldrsh	r2, [sp, #362]
 796:lvgl/src/widgets/lv_btnmatrix.c ****             if(btn_area.y2 == obj->coords.y2 - pbottom) draw_rect_dsc_act.border_side &= ~LV_BORDER
 1538              		.loc 1 796 42 view .LVU489
 1539 01f2 B5F91630 		ldrsh	r3, [r5, #22]
 796:lvgl/src/widgets/lv_btnmatrix.c ****             if(btn_area.y2 == obj->coords.y2 - pbottom) draw_rect_dsc_act.border_side &= ~LV_BORDER
 1540              		.loc 1 796 46 view .LVU490
 1541 01f6 0699     		ldr	r1, [sp, #24]
 1542 01f8 0B44     		add	r3, r3, r1
 796:lvgl/src/widgets/lv_btnmatrix.c ****             if(btn_area.y2 == obj->coords.y2 - pbottom) draw_rect_dsc_act.border_side &= ~LV_BORDER
 1543              		.loc 1 796 15 view .LVU491
 1544 01fa 9A42     		cmp	r2, r3
 1545 01fc 00F00381 		beq	.L91
 1546              	.L78:
 797:lvgl/src/widgets/lv_btnmatrix.c ****         }
ARM GAS  C:\Users\OSD\AppData\Local\Temp\ccnvvkrZ.s 			page 58


 1547              		.loc 1 797 13 is_stmt 1 view .LVU492
 797:lvgl/src/widgets/lv_btnmatrix.c ****         }
 1548              		.loc 1 797 24 is_stmt 0 view .LVU493
 1549 0200 BDF96E21 		ldrsh	r2, [sp, #366]
 797:lvgl/src/widgets/lv_btnmatrix.c ****         }
 1550              		.loc 1 797 42 view .LVU494
 1551 0204 B5F91A30 		ldrsh	r3, [r5, #26]
 797:lvgl/src/widgets/lv_btnmatrix.c ****         }
 1552              		.loc 1 797 46 view .LVU495
 1553 0208 0799     		ldr	r1, [sp, #28]
 1554 020a 5B1A     		subs	r3, r3, r1
 797:lvgl/src/widgets/lv_btnmatrix.c ****         }
 1555              		.loc 1 797 15 view .LVU496
 1556 020c 9A42     		cmp	r2, r3
 1557 020e 00F00581 		beq	.L92
 1558              	.L75:
 800:lvgl/src/widgets/lv_btnmatrix.c **** 
 1559              		.loc 1 800 9 is_stmt 1 view .LVU497
 1560              	.LVL138:
 1561              	.LBB114:
 1562              	.LBI114:
 133:d:\kzc\stm32\h743ii_lcd\lvgl\src\misc\lv_area.h **** {
 1563              		.loc 3 133 26 view .LVU498
 1564              	.LBB115:
 1565              		.loc 3 135 5 view .LVU499
 1566              		.loc 3 135 31 is_stmt 0 view .LVU500
 1567 0212 BDF86E91 		ldrh	r9, [sp, #366]
 1568              		.loc 3 135 44 view .LVU501
 1569 0216 BDF86A31 		ldrh	r3, [sp, #362]
 1570              		.loc 3 135 36 view .LVU502
 1571 021a A9EB0309 		sub	r9, r9, r3
 1572 021e 1FFA89F9 		uxth	r9, r9
 1573              		.loc 3 135 49 view .LVU503
 1574 0222 09F10109 		add	r9, r9, #1
 1575 0226 1FFA89F2 		uxth	r2, r9
 1576              		.loc 3 135 12 view .LVU504
 1577 022a 0FFA89F9 		sxth	r9, r9
 1578              	.LVL139:
 1579              		.loc 3 135 12 view .LVU505
 1580              	.LBE115:
 1581              	.LBE114:
 802:lvgl/src/widgets/lv_btnmatrix.c ****             /*Push up the upper boundary of the btn area to create the popover*/
 1582              		.loc 1 802 9 is_stmt 1 view .LVU506
 802:lvgl/src/widgets/lv_btnmatrix.c ****             /*Push up the upper boundary of the btn area to create the popover*/
 1583              		.loc 1 802 11 is_stmt 0 view .LVU507
 1584 022e 18F02008 		ands	r8, r8, #32
 1585              	.LVL140:
 802:lvgl/src/widgets/lv_btnmatrix.c ****             /*Push up the upper boundary of the btn area to create the popover*/
 1586              		.loc 1 802 11 view .LVU508
 1587 0232 08D0     		beq	.L79
 802:lvgl/src/widgets/lv_btnmatrix.c ****             /*Push up the upper boundary of the btn area to create the popover*/
 1588              		.loc 1 802 51 discriminator 1 view .LVU509
 1589 0234 E96A     		ldr	r1, [r5, #44]
 802:lvgl/src/widgets/lv_btnmatrix.c ****             /*Push up the upper boundary of the btn area to create the popover*/
 1590              		.loc 1 802 62 discriminator 1 view .LVU510
 1591 0236 31F80B10 		ldrh	r1, [r1, fp]
 802:lvgl/src/widgets/lv_btnmatrix.c ****             /*Push up the upper boundary of the btn area to create the popover*/
ARM GAS  C:\Users\OSD\AppData\Local\Temp\ccnvvkrZ.s 			page 59


 1592              		.loc 1 802 43 discriminator 1 view .LVU511
 1593 023a 11F4806F 		tst	r1, #1024
 1594 023e 02D0     		beq	.L79
 804:lvgl/src/widgets/lv_btnmatrix.c ****         }
 1595              		.loc 1 804 13 is_stmt 1 view .LVU512
 804:lvgl/src/widgets/lv_btnmatrix.c ****         }
 1596              		.loc 1 804 25 is_stmt 0 view .LVU513
 1597 0240 9B1A     		subs	r3, r3, r2
 1598 0242 ADF86A31 		strh	r3, [sp, #362]	@ movhi
 1599              	.L79:
 808:lvgl/src/widgets/lv_btnmatrix.c **** 
 1600              		.loc 1 808 9 is_stmt 1 view .LVU514
 1601 0246 5AAA     		add	r2, sp, #360
 1602 0248 46A9     		add	r1, sp, #280
 1603 024a 0498     		ldr	r0, [sp, #16]
 1604 024c FFF7FEFF 		bl	lv_draw_rect
 1605              	.LVL141:
 811:lvgl/src/widgets/lv_btnmatrix.c ****         lv_coord_t letter_space = draw_label_dsc_act.letter_space;
 1606              		.loc 1 811 9 view .LVU515
 812:lvgl/src/widgets/lv_btnmatrix.c ****         lv_coord_t line_space = draw_label_dsc_act.line_space;
 1607              		.loc 1 812 9 view .LVU516
 813:lvgl/src/widgets/lv_btnmatrix.c ****         const char * txt = btnm->map_p[txt_i];
 1608              		.loc 1 813 9 view .LVU517
 813:lvgl/src/widgets/lv_btnmatrix.c ****         const char * txt = btnm->map_p[txt_i];
 1609              		.loc 1 813 20 is_stmt 0 view .LVU518
 1610 0250 BDF90821 		ldrsh	r2, [sp, #264]
 1611              	.LVL142:
 814:lvgl/src/widgets/lv_btnmatrix.c **** 
 1612              		.loc 1 814 9 is_stmt 1 view .LVU519
 814:lvgl/src/widgets/lv_btnmatrix.c **** 
 1613              		.loc 1 814 32 is_stmt 0 view .LVU520
 1614 0254 6B6A     		ldr	r3, [r5, #36]
 814:lvgl/src/widgets/lv_btnmatrix.c **** 
 1615              		.loc 1 814 22 view .LVU521
 1616 0256 9E59     		ldr	r6, [r3, r6]
 1617              	.LVL143:
 824:lvgl/src/widgets/lv_btnmatrix.c ****         lv_txt_get_size(&txt_size, txt, font, letter_space,
 1618              		.loc 1 824 9 is_stmt 1 view .LVU522
 825:lvgl/src/widgets/lv_btnmatrix.c ****                         line_space, lv_area_get_width(&area_obj), draw_label_dsc_act.flag);
 1619              		.loc 1 825 9 view .LVU523
 1620              	.LBB116:
 1621              	.LBI116:
 123:d:\kzc\stm32\h743ii_lcd\lvgl\src\misc\lv_area.h **** {
 1622              		.loc 3 123 26 view .LVU524
 1623              	.LBB117:
 125:d:\kzc\stm32\h743ii_lcd\lvgl\src\misc\lv_area.h **** }
 1624              		.loc 3 125 5 view .LVU525
 125:d:\kzc\stm32\h743ii_lcd\lvgl\src\misc\lv_area.h **** }
 1625              		.loc 3 125 31 is_stmt 0 view .LVU526
 1626 0258 BDF87431 		ldrh	r3, [sp, #372]
 125:d:\kzc\stm32\h743ii_lcd\lvgl\src\misc\lv_area.h **** }
 1627              		.loc 3 125 44 view .LVU527
 1628 025c BDF87011 		ldrh	r1, [sp, #368]
 125:d:\kzc\stm32\h743ii_lcd\lvgl\src\misc\lv_area.h **** }
 1629              		.loc 3 125 36 view .LVU528
 1630 0260 5B1A     		subs	r3, r3, r1
 1631 0262 9BB2     		uxth	r3, r3
ARM GAS  C:\Users\OSD\AppData\Local\Temp\ccnvvkrZ.s 			page 60


 125:d:\kzc\stm32\h743ii_lcd\lvgl\src\misc\lv_area.h **** }
 1632              		.loc 3 125 49 view .LVU529
 1633 0264 0133     		adds	r3, r3, #1
 125:d:\kzc\stm32\h743ii_lcd\lvgl\src\misc\lv_area.h **** }
 1634              		.loc 3 125 12 view .LVU530
 1635 0266 1BB2     		sxth	r3, r3
 1636              	.LVL144:
 125:d:\kzc\stm32\h743ii_lcd\lvgl\src\misc\lv_area.h **** }
 1637              		.loc 3 125 12 view .LVU531
 1638              	.LBE117:
 1639              	.LBE116:
 825:lvgl/src/widgets/lv_btnmatrix.c ****                         line_space, lv_area_get_width(&area_obj), draw_label_dsc_act.flag);
 1640              		.loc 1 825 9 view .LVU532
 1641 0268 9DF81311 		ldrb	r1, [sp, #275]	@ zero_extendqisi2
 1642 026c 0291     		str	r1, [sp, #8]
 1643 026e 0193     		str	r3, [sp, #4]
 1644 0270 0092     		str	r2, [sp]
 1645 0272 BDF90A31 		ldrsh	r3, [sp, #266]
 1646 0276 3C9A     		ldr	r2, [sp, #240]
 1647              	.LVL145:
 825:lvgl/src/widgets/lv_btnmatrix.c ****                         line_space, lv_area_get_width(&area_obj), draw_label_dsc_act.flag);
 1648              		.loc 1 825 9 view .LVU533
 1649 0278 3146     		mov	r1, r6
 1650 027a 0BA8     		add	r0, sp, #44
 1651 027c FFF7FEFF 		bl	lv_txt_get_size
 1652              	.LVL146:
 828:lvgl/src/widgets/lv_btnmatrix.c ****         btn_area.y1 += (lv_area_get_height(&btn_area) - txt_size.y) / 2;
 1653              		.loc 1 828 9 is_stmt 1 view .LVU534
 1654              	.LBB118:
 1655              	.LBI118:
 123:d:\kzc\stm32\h743ii_lcd\lvgl\src\misc\lv_area.h **** {
 1656              		.loc 3 123 26 view .LVU535
 1657              	.LBB119:
 125:d:\kzc\stm32\h743ii_lcd\lvgl\src\misc\lv_area.h **** }
 1658              		.loc 3 125 5 view .LVU536
 125:d:\kzc\stm32\h743ii_lcd\lvgl\src\misc\lv_area.h **** }
 1659              		.loc 3 125 31 is_stmt 0 view .LVU537
 1660 0280 BDF86C31 		ldrh	r3, [sp, #364]
 125:d:\kzc\stm32\h743ii_lcd\lvgl\src\misc\lv_area.h **** }
 1661              		.loc 3 125 44 view .LVU538
 1662 0284 BDF86811 		ldrh	r1, [sp, #360]
 125:d:\kzc\stm32\h743ii_lcd\lvgl\src\misc\lv_area.h **** }
 1663              		.loc 3 125 36 view .LVU539
 1664 0288 5B1A     		subs	r3, r3, r1
 1665 028a 9BB2     		uxth	r3, r3
 125:d:\kzc\stm32\h743ii_lcd\lvgl\src\misc\lv_area.h **** }
 1666              		.loc 3 125 49 view .LVU540
 1667 028c 0133     		adds	r3, r3, #1
 125:d:\kzc\stm32\h743ii_lcd\lvgl\src\misc\lv_area.h **** }
 1668              		.loc 3 125 12 view .LVU541
 1669 028e 1BB2     		sxth	r3, r3
 1670              	.LVL147:
 125:d:\kzc\stm32\h743ii_lcd\lvgl\src\misc\lv_area.h **** }
 1671              		.loc 3 125 12 view .LVU542
 1672              	.LBE119:
 1673              	.LBE118:
 828:lvgl/src/widgets/lv_btnmatrix.c ****         btn_area.y1 += (lv_area_get_height(&btn_area) - txt_size.y) / 2;
ARM GAS  C:\Users\OSD\AppData\Local\Temp\ccnvvkrZ.s 			page 61


 1674              		.loc 1 828 64 view .LVU543
 1675 0290 BDF92C00 		ldrsh	r0, [sp, #44]
 828:lvgl/src/widgets/lv_btnmatrix.c ****         btn_area.y1 += (lv_area_get_height(&btn_area) - txt_size.y) / 2;
 1676              		.loc 1 828 68 view .LVU544
 1677 0294 1B1A     		subs	r3, r3, r0
 1678 0296 00F1CC80 		bmi	.L93
 1679              	.L80:
 828:lvgl/src/widgets/lv_btnmatrix.c ****         btn_area.y1 += (lv_area_get_height(&btn_area) - txt_size.y) / 2;
 1680              		.loc 1 828 21 view .LVU545
 1681 029a 01EB6301 		add	r1, r1, r3, asr #1
 1682 029e 89B2     		uxth	r1, r1
 1683 02a0 ADF86811 		strh	r1, [sp, #360]	@ movhi
 829:lvgl/src/widgets/lv_btnmatrix.c ****         btn_area.x2 = btn_area.x1 + txt_size.x;
 1684              		.loc 1 829 9 is_stmt 1 view .LVU546
 1685              	.LVL148:
 1686              	.LBB120:
 1687              	.LBI120:
 133:d:\kzc\stm32\h743ii_lcd\lvgl\src\misc\lv_area.h **** {
 1688              		.loc 3 133 26 view .LVU547
 1689              	.LBB121:
 1690              		.loc 3 135 5 view .LVU548
 1691              		.loc 3 135 31 is_stmt 0 view .LVU549
 1692 02a4 BDF86E31 		ldrh	r3, [sp, #366]
 1693              		.loc 3 135 44 view .LVU550
 1694 02a8 BDF86A21 		ldrh	r2, [sp, #362]
 1695              		.loc 3 135 36 view .LVU551
 1696 02ac 9B1A     		subs	r3, r3, r2
 1697 02ae 9BB2     		uxth	r3, r3
 1698              		.loc 3 135 49 view .LVU552
 1699 02b0 0133     		adds	r3, r3, #1
 1700              		.loc 3 135 12 view .LVU553
 1701 02b2 1BB2     		sxth	r3, r3
 1702              	.LVL149:
 1703              		.loc 3 135 12 view .LVU554
 1704              	.LBE121:
 1705              	.LBE120:
 829:lvgl/src/widgets/lv_btnmatrix.c ****         btn_area.x2 = btn_area.x1 + txt_size.x;
 1706              		.loc 1 829 65 view .LVU555
 1707 02b4 BDF92EC0 		ldrsh	ip, [sp, #46]
 829:lvgl/src/widgets/lv_btnmatrix.c ****         btn_area.x2 = btn_area.x1 + txt_size.x;
 1708              		.loc 1 829 69 view .LVU556
 1709 02b8 B3EB0C03 		subs	r3, r3, ip
 1710 02bc 00F1BB80 		bmi	.L94
 1711              	.L81:
 829:lvgl/src/widgets/lv_btnmatrix.c ****         btn_area.x2 = btn_area.x1 + txt_size.x;
 1712              		.loc 1 829 21 view .LVU557
 1713 02c0 02EB6303 		add	r3, r2, r3, asr #1
 1714 02c4 9BB2     		uxth	r3, r3
 1715 02c6 ADF86A31 		strh	r3, [sp, #362]	@ movhi
 830:lvgl/src/widgets/lv_btnmatrix.c ****         btn_area.y2 = btn_area.y1 + txt_size.y;
 1716              		.loc 1 830 9 is_stmt 1 view .LVU558
 830:lvgl/src/widgets/lv_btnmatrix.c ****         btn_area.y2 = btn_area.y1 + txt_size.y;
 1717              		.loc 1 830 35 is_stmt 0 view .LVU559
 1718 02ca 11FA80F1 		uxtah	r1, r1, r0
 830:lvgl/src/widgets/lv_btnmatrix.c ****         btn_area.y2 = btn_area.y1 + txt_size.y;
 1719              		.loc 1 830 21 view .LVU560
 1720 02ce ADF86C11 		strh	r1, [sp, #364]	@ movhi
ARM GAS  C:\Users\OSD\AppData\Local\Temp\ccnvvkrZ.s 			page 62


 831:lvgl/src/widgets/lv_btnmatrix.c **** 
 1721              		.loc 1 831 9 is_stmt 1 view .LVU561
 831:lvgl/src/widgets/lv_btnmatrix.c **** 
 1722              		.loc 1 831 35 is_stmt 0 view .LVU562
 1723 02d2 13FA8CFC 		uxtah	ip, r3, ip
 1724 02d6 1FFA8CF2 		uxth	r2, ip
 831:lvgl/src/widgets/lv_btnmatrix.c **** 
 1725              		.loc 1 831 21 view .LVU563
 1726 02da ADF86EC1 		strh	ip, [sp, #366]	@ movhi
 833:lvgl/src/widgets/lv_btnmatrix.c ****             /*Push up the button text into the popover*/
 1727              		.loc 1 833 9 is_stmt 1 view .LVU564
 833:lvgl/src/widgets/lv_btnmatrix.c ****             /*Push up the button text into the popover*/
 1728              		.loc 1 833 11 is_stmt 0 view .LVU565
 1729 02de B8F1000F 		cmp	r8, #0
 1730 02e2 12D0     		beq	.L82
 833:lvgl/src/widgets/lv_btnmatrix.c ****             /*Push up the button text into the popover*/
 1731              		.loc 1 833 51 discriminator 1 view .LVU566
 1732 02e4 E96A     		ldr	r1, [r5, #44]
 833:lvgl/src/widgets/lv_btnmatrix.c ****             /*Push up the button text into the popover*/
 1733              		.loc 1 833 62 discriminator 1 view .LVU567
 1734 02e6 31F80B10 		ldrh	r1, [r1, fp]
 833:lvgl/src/widgets/lv_btnmatrix.c ****             /*Push up the button text into the popover*/
 1735              		.loc 1 833 43 discriminator 1 view .LVU568
 1736 02ea 11F4806F 		tst	r1, #1024
 1737 02ee 0CD0     		beq	.L82
 835:lvgl/src/widgets/lv_btnmatrix.c ****             btn_area.y2 -= btn_height / 2;
 1738              		.loc 1 835 13 is_stmt 1 view .LVU569
 835:lvgl/src/widgets/lv_btnmatrix.c ****             btn_area.y2 -= btn_height / 2;
 1739              		.loc 1 835 25 is_stmt 0 view .LVU570
 1740 02f0 4946     		mov	r1, r9
 1741 02f2 B9F1000F 		cmp	r9, #0
 1742 02f6 C0F2A080 		blt	.L95
 1743              	.L83:
 1744 02fa C1F34F01 		ubfx	r1, r1, #1, #16
 1745 02fe 5B1A     		subs	r3, r3, r1
 1746 0300 ADF86A31 		strh	r3, [sp, #362]	@ movhi
 836:lvgl/src/widgets/lv_btnmatrix.c ****         }
 1747              		.loc 1 836 13 is_stmt 1 view .LVU571
 836:lvgl/src/widgets/lv_btnmatrix.c ****         }
 1748              		.loc 1 836 25 is_stmt 0 view .LVU572
 1749 0304 521A     		subs	r2, r2, r1
 1750 0306 ADF86E21 		strh	r2, [sp, #366]	@ movhi
 1751              	.L82:
 840:lvgl/src/widgets/lv_btnmatrix.c **** 
 1752              		.loc 1 840 9 is_stmt 1 view .LVU573
 1753 030a 0023     		movs	r3, #0
 1754 030c 0093     		str	r3, [sp]
 1755 030e 3346     		mov	r3, r6
 1756 0310 5AAA     		add	r2, sp, #360
 1757 0312 3CA9     		add	r1, sp, #240
 1758 0314 0498     		ldr	r0, [sp, #16]
 1759 0316 FFF7FEFF 		bl	lv_draw_label
 1760              	.LVL150:
 842:lvgl/src/widgets/lv_btnmatrix.c ****     }
 1761              		.loc 1 842 9 view .LVU574
 1762 031a 0CAA     		add	r2, sp, #48
 1763 031c 1B21     		movs	r1, #27
ARM GAS  C:\Users\OSD\AppData\Local\Temp\ccnvvkrZ.s 			page 63


 1764 031e 2846     		mov	r0, r5
 1765 0320 FFF7FEFF 		bl	lv_event_send
 1766              	.LVL151:
 1767              	.L64:
 842:lvgl/src/widgets/lv_btnmatrix.c ****     }
 1768              		.loc 1 842 9 is_stmt 0 view .LVU575
 1769              	.LBE111:
 738:lvgl/src/widgets/lv_btnmatrix.c ****         /*Search the next valid text in the map*/
 1770              		.loc 1 738 43 is_stmt 1 discriminator 2 view .LVU576
 738:lvgl/src/widgets/lv_btnmatrix.c ****         /*Search the next valid text in the map*/
 1771              		.loc 1 738 48 is_stmt 0 discriminator 2 view .LVU577
 1772 0324 0137     		adds	r7, r7, #1
 1773              	.LVL152:
 738:lvgl/src/widgets/lv_btnmatrix.c ****         /*Search the next valid text in the map*/
 1774              		.loc 1 738 48 discriminator 2 view .LVU578
 1775 0326 BFB2     		uxth	r7, r7
 1776              	.LVL153:
 738:lvgl/src/widgets/lv_btnmatrix.c ****         /*Search the next valid text in the map*/
 1777              		.loc 1 738 57 discriminator 2 view .LVU579
 1778 0328 0134     		adds	r4, r4, #1
 1779              	.LVL154:
 738:lvgl/src/widgets/lv_btnmatrix.c ****         /*Search the next valid text in the map*/
 1780              		.loc 1 738 57 discriminator 2 view .LVU580
 1781 032a A4B2     		uxth	r4, r4
 1782              	.LVL155:
 1783              	.L61:
 738:lvgl/src/widgets/lv_btnmatrix.c ****         /*Search the next valid text in the map*/
 1784              		.loc 1 738 20 is_stmt 1 discriminator 1 view .LVU581
 738:lvgl/src/widgets/lv_btnmatrix.c ****         /*Search the next valid text in the map*/
 1785              		.loc 1 738 32 is_stmt 0 discriminator 1 view .LVU582
 1786 032c 2B8E     		ldrh	r3, [r5, #48]
 738:lvgl/src/widgets/lv_btnmatrix.c ****         /*Search the next valid text in the map*/
 1787              		.loc 1 738 5 discriminator 1 view .LVU583
 1788 032e BB42     		cmp	r3, r7
 1789 0330 3FF6D2AE 		bhi	.L84
 845:lvgl/src/widgets/lv_btnmatrix.c **** #if LV_USE_ARABIC_PERSIAN_CHARS
 1790              		.loc 1 845 5 is_stmt 1 view .LVU584
 845:lvgl/src/widgets/lv_btnmatrix.c **** #if LV_USE_ARABIC_PERSIAN_CHARS
 1791              		.loc 1 845 21 is_stmt 0 view .LVU585
 1792 0334 95F82230 		ldrb	r3, [r5, #34]	@ zero_extendqisi2
 1793 0338 6FF3C303 		bfc	r3, #3, #1
 1794 033c 85F82230 		strb	r3, [r5, #34]
 1795 0340 66E6     		b	.L58
 1796              	.LVL156:
 1797              	.L85:
 1798              	.LBB122:
 749:lvgl/src/widgets/lv_btnmatrix.c **** 
 1799              		.loc 1 749 66 view .LVU586
 1800 0342 4FF00108 		mov	r8, #1
 1801 0346 E4E6     		b	.L65
 1802              	.LVL157:
 1803              	.L66:
 752:lvgl/src/widgets/lv_btnmatrix.c ****             if(state_ori & LV_STATE_PRESSED) btn_state |= LV_STATE_PRESSED;
 1804              		.loc 1 752 14 is_stmt 1 view .LVU587
 752:lvgl/src/widgets/lv_btnmatrix.c ****             if(state_ori & LV_STATE_PRESSED) btn_state |= LV_STATE_PRESSED;
 1805              		.loc 1 752 30 is_stmt 0 view .LVU588
 1806 0348 AB8E     		ldrh	r3, [r5, #52]
ARM GAS  C:\Users\OSD\AppData\Local\Temp\ccnvvkrZ.s 			page 64


 752:lvgl/src/widgets/lv_btnmatrix.c ****             if(state_ori & LV_STATE_PRESSED) btn_state |= LV_STATE_PRESSED;
 1807              		.loc 1 752 16 view .LVU589
 1808 034a BB42     		cmp	r3, r7
 1809 034c 7FF4E9AE 		bne	.L67
 753:lvgl/src/widgets/lv_btnmatrix.c ****             if(state_ori & LV_STATE_FOCUSED) btn_state |= LV_STATE_FOCUSED;
 1810              		.loc 1 753 13 is_stmt 1 view .LVU590
 753:lvgl/src/widgets/lv_btnmatrix.c ****             if(state_ori & LV_STATE_FOCUSED) btn_state |= LV_STATE_FOCUSED;
 1811              		.loc 1 753 15 is_stmt 0 view .LVU591
 1812 0350 059B     		ldr	r3, [sp, #20]
 1813 0352 13F0200F 		tst	r3, #32
 1814 0356 01D0     		beq	.L68
 753:lvgl/src/widgets/lv_btnmatrix.c ****             if(state_ori & LV_STATE_FOCUSED) btn_state |= LV_STATE_FOCUSED;
 1815              		.loc 1 753 46 is_stmt 1 discriminator 1 view .LVU592
 753:lvgl/src/widgets/lv_btnmatrix.c ****             if(state_ori & LV_STATE_FOCUSED) btn_state |= LV_STATE_FOCUSED;
 1816              		.loc 1 753 56 is_stmt 0 discriminator 1 view .LVU593
 1817 0358 48F02008 		orr	r8, r8, #32
 1818              	.LVL158:
 1819              	.L68:
 754:lvgl/src/widgets/lv_btnmatrix.c ****             if(state_ori & LV_STATE_FOCUS_KEY) btn_state |= LV_STATE_FOCUS_KEY;
 1820              		.loc 1 754 13 is_stmt 1 view .LVU594
 754:lvgl/src/widgets/lv_btnmatrix.c ****             if(state_ori & LV_STATE_FOCUS_KEY) btn_state |= LV_STATE_FOCUS_KEY;
 1821              		.loc 1 754 15 is_stmt 0 view .LVU595
 1822 035c 059B     		ldr	r3, [sp, #20]
 1823 035e 13F0020F 		tst	r3, #2
 1824 0362 01D0     		beq	.L69
 754:lvgl/src/widgets/lv_btnmatrix.c ****             if(state_ori & LV_STATE_FOCUS_KEY) btn_state |= LV_STATE_FOCUS_KEY;
 1825              		.loc 1 754 46 is_stmt 1 discriminator 1 view .LVU596
 754:lvgl/src/widgets/lv_btnmatrix.c ****             if(state_ori & LV_STATE_FOCUS_KEY) btn_state |= LV_STATE_FOCUS_KEY;
 1826              		.loc 1 754 56 is_stmt 0 discriminator 1 view .LVU597
 1827 0364 48F00208 		orr	r8, r8, #2
 1828              	.LVL159:
 1829              	.L69:
 755:lvgl/src/widgets/lv_btnmatrix.c ****             if(state_ori & LV_STATE_EDITED) btn_state |= LV_STATE_EDITED;
 1830              		.loc 1 755 13 is_stmt 1 view .LVU598
 755:lvgl/src/widgets/lv_btnmatrix.c ****             if(state_ori & LV_STATE_EDITED) btn_state |= LV_STATE_EDITED;
 1831              		.loc 1 755 15 is_stmt 0 view .LVU599
 1832 0368 059B     		ldr	r3, [sp, #20]
 1833 036a 13F0040F 		tst	r3, #4
 1834 036e 01D0     		beq	.L70
 755:lvgl/src/widgets/lv_btnmatrix.c ****             if(state_ori & LV_STATE_EDITED) btn_state |= LV_STATE_EDITED;
 1835              		.loc 1 755 48 is_stmt 1 discriminator 1 view .LVU600
 755:lvgl/src/widgets/lv_btnmatrix.c ****             if(state_ori & LV_STATE_EDITED) btn_state |= LV_STATE_EDITED;
 1836              		.loc 1 755 58 is_stmt 0 discriminator 1 view .LVU601
 1837 0370 48F00408 		orr	r8, r8, #4
 1838              	.LVL160:
 1839              	.L70:
 756:lvgl/src/widgets/lv_btnmatrix.c ****         }
 1840              		.loc 1 756 13 is_stmt 1 view .LVU602
 756:lvgl/src/widgets/lv_btnmatrix.c ****         }
 1841              		.loc 1 756 15 is_stmt 0 view .LVU603
 1842 0374 059B     		ldr	r3, [sp, #20]
 1843 0376 13F0080F 		tst	r3, #8
 1844 037a 3FF4D2AE 		beq	.L67
 756:lvgl/src/widgets/lv_btnmatrix.c ****         }
 1845              		.loc 1 756 45 is_stmt 1 discriminator 1 view .LVU604
 756:lvgl/src/widgets/lv_btnmatrix.c ****         }
 1846              		.loc 1 756 55 is_stmt 0 discriminator 1 view .LVU605
ARM GAS  C:\Users\OSD\AppData\Local\Temp\ccnvvkrZ.s 			page 65


 1847 037e 48F00808 		orr	r8, r8, #8
 1848              	.LVL161:
 756:lvgl/src/widgets/lv_btnmatrix.c ****         }
 1849              		.loc 1 756 55 discriminator 1 view .LVU606
 1850 0382 CEE6     		b	.L67
 1851              	.L71:
 773:lvgl/src/widgets/lv_btnmatrix.c ****             obj->skip_trans = 1;
 1852              		.loc 1 773 13 is_stmt 1 view .LVU607
 773:lvgl/src/widgets/lv_btnmatrix.c ****             obj->skip_trans = 1;
 1853              		.loc 1 773 24 is_stmt 0 view .LVU608
 1854 0384 A5F82080 		strh	r8, [r5, #32]	@ movhi
 774:lvgl/src/widgets/lv_btnmatrix.c ****             lv_draw_rect_dsc_init(&draw_rect_dsc_act);
 1855              		.loc 1 774 13 is_stmt 1 view .LVU609
 774:lvgl/src/widgets/lv_btnmatrix.c ****             lv_draw_rect_dsc_init(&draw_rect_dsc_act);
 1856              		.loc 1 774 29 is_stmt 0 view .LVU610
 1857 0388 95F82230 		ldrb	r3, [r5, #34]	@ zero_extendqisi2
 1858 038c 43F00803 		orr	r3, r3, #8
 1859 0390 85F82230 		strb	r3, [r5, #34]
 775:lvgl/src/widgets/lv_btnmatrix.c ****             lv_draw_label_dsc_init(&draw_label_dsc_act);
 1860              		.loc 1 775 13 is_stmt 1 view .LVU611
 1861 0394 46A8     		add	r0, sp, #280
 1862 0396 FFF7FEFF 		bl	lv_draw_rect_dsc_init
 1863              	.LVL162:
 776:lvgl/src/widgets/lv_btnmatrix.c ****             lv_obj_init_draw_rect_dsc(obj, LV_PART_ITEMS, &draw_rect_dsc_act);
 1864              		.loc 1 776 13 view .LVU612
 1865 039a 3CA8     		add	r0, sp, #240
 1866 039c FFF7FEFF 		bl	lv_draw_label_dsc_init
 1867              	.LVL163:
 777:lvgl/src/widgets/lv_btnmatrix.c ****             lv_obj_init_draw_label_dsc(obj, LV_PART_ITEMS, &draw_label_dsc_act);
 1868              		.loc 1 777 13 view .LVU613
 1869 03a0 46AA     		add	r2, sp, #280
 1870 03a2 4FF4A021 		mov	r1, #327680
 1871 03a6 2846     		mov	r0, r5
 1872 03a8 FFF7FEFF 		bl	lv_obj_init_draw_rect_dsc
 1873              	.LVL164:
 778:lvgl/src/widgets/lv_btnmatrix.c ****             obj->state = state_ori;
 1874              		.loc 1 778 13 view .LVU614
 1875 03ac 3CAA     		add	r2, sp, #240
 1876 03ae 4FF4A021 		mov	r1, #327680
 1877 03b2 2846     		mov	r0, r5
 1878 03b4 FFF7FEFF 		bl	lv_obj_init_draw_label_dsc
 1879              	.LVL165:
 779:lvgl/src/widgets/lv_btnmatrix.c ****             obj->skip_trans = 0;
 1880              		.loc 1 779 13 view .LVU615
 779:lvgl/src/widgets/lv_btnmatrix.c ****             obj->skip_trans = 0;
 1881              		.loc 1 779 24 is_stmt 0 view .LVU616
 1882 03b8 059B     		ldr	r3, [sp, #20]
 1883 03ba 2B84     		strh	r3, [r5, #32]	@ movhi
 780:lvgl/src/widgets/lv_btnmatrix.c ****         }
 1884              		.loc 1 780 13 is_stmt 1 view .LVU617
 780:lvgl/src/widgets/lv_btnmatrix.c ****         }
 1885              		.loc 1 780 29 is_stmt 0 view .LVU618
 1886 03bc 95F82230 		ldrb	r3, [r5, #34]	@ zero_extendqisi2
 1887 03c0 6FF3C303 		bfc	r3, #3, #1
 1888 03c4 85F82230 		strb	r3, [r5, #34]
 1889 03c8 DCE6     		b	.L72
 1890              	.LVL166:
ARM GAS  C:\Users\OSD\AppData\Local\Temp\ccnvvkrZ.s 			page 66


 1891              	.L73:
 785:lvgl/src/widgets/lv_btnmatrix.c **** 
 1892              		.loc 1 785 14 is_stmt 1 view .LVU619
 785:lvgl/src/widgets/lv_btnmatrix.c **** 
 1893              		.loc 1 785 38 is_stmt 0 view .LVU620
 1894 03ca 9DF81331 		ldrb	r3, [sp, #275]	@ zero_extendqisi2
 1895 03ce 23F00103 		bic	r3, r3, #1
 1896 03d2 8DF81331 		strb	r3, [sp, #275]
 1897 03d6 E3E6     		b	.L74
 1898              	.LVL167:
 1899              	.L89:
 794:lvgl/src/widgets/lv_btnmatrix.c ****             if(btn_area.x2 == obj->coords.x2 - pright) draw_rect_dsc_act.border_side &= ~LV_BORDER_
 1900              		.loc 1 794 55 is_stmt 1 discriminator 1 view .LVU621
 794:lvgl/src/widgets/lv_btnmatrix.c ****             if(btn_area.x2 == obj->coords.x2 - pright) draw_rect_dsc_act.border_side &= ~LV_BORDER_
 1901              		.loc 1 794 85 is_stmt 0 discriminator 1 view .LVU622
 1902 03d8 9DF84B31 		ldrb	r3, [sp, #331]	@ zero_extendqisi2
 1903 03dc 0B22     		movs	r2, #11
 1904 03de 62F34503 		bfi	r3, r2, #1, #5
 1905 03e2 8DF84B31 		strb	r3, [sp, #331]
 1906 03e6 F9E6     		b	.L76
 1907              	.L97:
 1908              		.align	2
 1909              	.L96:
 1910 03e8 00000000 		.word	.LANCHOR0
 1911 03ec 00000000 		.word	.LC0
 1912              	.L90:
 795:lvgl/src/widgets/lv_btnmatrix.c ****             if(btn_area.y1 == obj->coords.y1 + ptop) draw_rect_dsc_act.border_side &= ~LV_BORDER_SI
 1913              		.loc 1 795 56 is_stmt 1 discriminator 1 view .LVU623
 795:lvgl/src/widgets/lv_btnmatrix.c ****             if(btn_area.y1 == obj->coords.y1 + ptop) draw_rect_dsc_act.border_side &= ~LV_BORDER_SI
 1914              		.loc 1 795 86 is_stmt 0 discriminator 1 view .LVU624
 1915 03f0 9DF84B31 		ldrb	r3, [sp, #331]	@ zero_extendqisi2
 1916 03f4 C3F34402 		ubfx	r2, r3, #1, #5
 1917 03f8 02F01702 		and	r2, r2, #23
 1918 03fc 62F34503 		bfi	r3, r2, #1, #5
 1919 0400 8DF84B31 		strb	r3, [sp, #331]
 1920 0404 F3E6     		b	.L77
 1921              	.L91:
 796:lvgl/src/widgets/lv_btnmatrix.c ****             if(btn_area.y2 == obj->coords.y2 - pbottom) draw_rect_dsc_act.border_side &= ~LV_BORDER
 1922              		.loc 1 796 54 is_stmt 1 discriminator 1 view .LVU625
 796:lvgl/src/widgets/lv_btnmatrix.c ****             if(btn_area.y2 == obj->coords.y2 - pbottom) draw_rect_dsc_act.border_side &= ~LV_BORDER
 1923              		.loc 1 796 84 is_stmt 0 discriminator 1 view .LVU626
 1924 0406 9DF84B31 		ldrb	r3, [sp, #331]	@ zero_extendqisi2
 1925 040a C3F34402 		ubfx	r2, r3, #1, #5
 1926 040e 02F01D02 		and	r2, r2, #29
 1927 0412 62F34503 		bfi	r3, r2, #1, #5
 1928 0416 8DF84B31 		strb	r3, [sp, #331]
 1929 041a F1E6     		b	.L78
 1930              	.L92:
 797:lvgl/src/widgets/lv_btnmatrix.c ****         }
 1931              		.loc 1 797 57 is_stmt 1 discriminator 1 view .LVU627
 797:lvgl/src/widgets/lv_btnmatrix.c ****         }
 1932              		.loc 1 797 87 is_stmt 0 discriminator 1 view .LVU628
 1933 041c 9DF84B31 		ldrb	r3, [sp, #331]	@ zero_extendqisi2
 1934 0420 C3F34402 		ubfx	r2, r3, #1, #5
 1935 0424 02F01E02 		and	r2, r2, #30
 1936 0428 62F34503 		bfi	r3, r2, #1, #5
 1937 042c 8DF84B31 		strb	r3, [sp, #331]
ARM GAS  C:\Users\OSD\AppData\Local\Temp\ccnvvkrZ.s 			page 67


 1938 0430 EFE6     		b	.L75
 1939              	.LVL168:
 1940              	.L93:
 828:lvgl/src/widgets/lv_btnmatrix.c ****         btn_area.y1 += (lv_area_get_height(&btn_area) - txt_size.y) / 2;
 1941              		.loc 1 828 68 view .LVU629
 1942 0432 0133     		adds	r3, r3, #1
 1943 0434 31E7     		b	.L80
 1944              	.L94:
 829:lvgl/src/widgets/lv_btnmatrix.c ****         btn_area.x2 = btn_area.x1 + txt_size.x;
 1945              		.loc 1 829 69 view .LVU630
 1946 0436 0133     		adds	r3, r3, #1
 1947 0438 42E7     		b	.L81
 1948              	.L95:
 835:lvgl/src/widgets/lv_btnmatrix.c ****             btn_area.y2 -= btn_height / 2;
 1949              		.loc 1 835 25 view .LVU631
 1950 043a 09F10101 		add	r1, r9, #1
 1951 043e 5CE7     		b	.L83
 1952              	.LBE122:
 1953              		.cfi_endproc
 1954              	.LFE179:
 1956              		.section	.text.lv_btnmatrix_destructor,"ax",%progbits
 1957              		.align	1
 1958              		.syntax unified
 1959              		.thumb
 1960              		.thumb_func
 1962              	lv_btnmatrix_destructor:
 1963              	.LVL169:
 1964              	.LFB177:
 393:lvgl/src/widgets/lv_btnmatrix.c ****     LV_TRACE_OBJ_CREATE("begin");
 1965              		.loc 1 393 1 is_stmt 1 view -0
 1966              		.cfi_startproc
 1967              		@ args = 0, pretend = 0, frame = 0
 1968              		@ frame_needed = 0, uses_anonymous_args = 0
 393:lvgl/src/widgets/lv_btnmatrix.c ****     LV_TRACE_OBJ_CREATE("begin");
 1969              		.loc 1 393 1 is_stmt 0 view .LVU633
 1970 0000 10B5     		push	{r4, lr}
 1971              		.cfi_def_cfa_offset 8
 1972              		.cfi_offset 4, -8
 1973              		.cfi_offset 14, -4
 1974 0002 0C46     		mov	r4, r1
 394:lvgl/src/widgets/lv_btnmatrix.c ****     LV_UNUSED(class_p);
 1975              		.loc 1 394 33 is_stmt 1 view .LVU634
 395:lvgl/src/widgets/lv_btnmatrix.c ****     lv_btnmatrix_t * btnm = (lv_btnmatrix_t *)obj;
 1976              		.loc 1 395 5 view .LVU635
 396:lvgl/src/widgets/lv_btnmatrix.c ****     lv_mem_free(btnm->button_areas);
 1977              		.loc 1 396 5 view .LVU636
 1978              	.LVL170:
 397:lvgl/src/widgets/lv_btnmatrix.c ****     lv_mem_free(btnm->ctrl_bits);
 1979              		.loc 1 397 5 view .LVU637
 1980 0004 886A     		ldr	r0, [r1, #40]
 1981              	.LVL171:
 397:lvgl/src/widgets/lv_btnmatrix.c ****     lv_mem_free(btnm->ctrl_bits);
 1982              		.loc 1 397 5 is_stmt 0 view .LVU638
 1983 0006 FFF7FEFF 		bl	lv_mem_free
 1984              	.LVL172:
 398:lvgl/src/widgets/lv_btnmatrix.c ****     btnm->button_areas = NULL;
 1985              		.loc 1 398 5 is_stmt 1 view .LVU639
ARM GAS  C:\Users\OSD\AppData\Local\Temp\ccnvvkrZ.s 			page 68


 1986 000a E06A     		ldr	r0, [r4, #44]
 1987 000c FFF7FEFF 		bl	lv_mem_free
 1988              	.LVL173:
 399:lvgl/src/widgets/lv_btnmatrix.c ****     btnm->ctrl_bits = NULL;
 1989              		.loc 1 399 5 view .LVU640
 399:lvgl/src/widgets/lv_btnmatrix.c ****     btnm->ctrl_bits = NULL;
 1990              		.loc 1 399 24 is_stmt 0 view .LVU641
 1991 0010 0023     		movs	r3, #0
 1992 0012 A362     		str	r3, [r4, #40]
 400:lvgl/src/widgets/lv_btnmatrix.c ****     LV_TRACE_OBJ_CREATE("finished");
 1993              		.loc 1 400 5 is_stmt 1 view .LVU642
 400:lvgl/src/widgets/lv_btnmatrix.c ****     LV_TRACE_OBJ_CREATE("finished");
 1994              		.loc 1 400 21 is_stmt 0 view .LVU643
 1995 0014 E362     		str	r3, [r4, #44]
 401:lvgl/src/widgets/lv_btnmatrix.c **** }
 1996              		.loc 1 401 36 is_stmt 1 view .LVU644
 402:lvgl/src/widgets/lv_btnmatrix.c **** 
 1997              		.loc 1 402 1 is_stmt 0 view .LVU645
 1998 0016 10BD     		pop	{r4, pc}
 402:lvgl/src/widgets/lv_btnmatrix.c **** 
 1999              		.loc 1 402 1 view .LVU646
 2000              		.cfi_endproc
 2001              	.LFE177:
 2003              		.section	.text.allocate_btn_areas_and_controls,"ax",%progbits
 2004              		.align	1
 2005              		.syntax unified
 2006              		.thumb
 2007              		.thumb_func
 2009              	allocate_btn_areas_and_controls:
 2010              	.LVL174:
 2011              	.LFB180:
 856:lvgl/src/widgets/lv_btnmatrix.c ****     lv_btnmatrix_t * btnm = (lv_btnmatrix_t *)obj;
 2012              		.loc 1 856 1 is_stmt 1 view -0
 2013              		.cfi_startproc
 2014              		@ args = 0, pretend = 0, frame = 0
 2015              		@ frame_needed = 0, uses_anonymous_args = 0
 856:lvgl/src/widgets/lv_btnmatrix.c ****     lv_btnmatrix_t * btnm = (lv_btnmatrix_t *)obj;
 2016              		.loc 1 856 1 is_stmt 0 view .LVU648
 2017 0000 F8B5     		push	{r3, r4, r5, r6, r7, lr}
 2018              		.cfi_def_cfa_offset 24
 2019              		.cfi_offset 3, -24
 2020              		.cfi_offset 4, -20
 2021              		.cfi_offset 5, -16
 2022              		.cfi_offset 6, -12
 2023              		.cfi_offset 7, -8
 2024              		.cfi_offset 14, -4
 2025 0002 0646     		mov	r6, r0
 2026 0004 0F46     		mov	r7, r1
 857:lvgl/src/widgets/lv_btnmatrix.c ****     btnm->row_cnt = 1;
 2027              		.loc 1 857 5 is_stmt 1 view .LVU649
 2028              	.LVL175:
 858:lvgl/src/widgets/lv_btnmatrix.c ****     /*Count the buttons in the map*/
 2029              		.loc 1 858 5 view .LVU650
 858:lvgl/src/widgets/lv_btnmatrix.c ****     /*Count the buttons in the map*/
 2030              		.loc 1 858 19 is_stmt 0 view .LVU651
 2031 0006 0123     		movs	r3, #1
 2032 0008 4386     		strh	r3, [r0, #50]	@ movhi
ARM GAS  C:\Users\OSD\AppData\Local\Temp\ccnvvkrZ.s 			page 69


 860:lvgl/src/widgets/lv_btnmatrix.c ****     uint16_t i       = 0;
 2033              		.loc 1 860 5 is_stmt 1 view .LVU652
 2034              	.LVL176:
 861:lvgl/src/widgets/lv_btnmatrix.c ****     while(map[i] && map[i][0] != '\0') {
 2035              		.loc 1 861 5 view .LVU653
 862:lvgl/src/widgets/lv_btnmatrix.c ****         if(strcmp(map[i], "\n") != 0) { /*Do not count line breaks*/
 2036              		.loc 1 862 5 view .LVU654
 861:lvgl/src/widgets/lv_btnmatrix.c ****     while(map[i] && map[i][0] != '\0') {
 2037              		.loc 1 861 14 is_stmt 0 view .LVU655
 2038 000a 0024     		movs	r4, #0
 860:lvgl/src/widgets/lv_btnmatrix.c ****     uint16_t i       = 0;
 2039              		.loc 1 860 14 view .LVU656
 2040 000c 2546     		mov	r5, r4
 862:lvgl/src/widgets/lv_btnmatrix.c ****         if(strcmp(map[i], "\n") != 0) { /*Do not count line breaks*/
 2041              		.loc 1 862 10 view .LVU657
 2042 000e 04E0     		b	.L101
 2043              	.LVL177:
 2044              	.L102:
 867:lvgl/src/widgets/lv_btnmatrix.c ****         }
 2045              		.loc 1 867 13 is_stmt 1 view .LVU658
 867:lvgl/src/widgets/lv_btnmatrix.c ****         }
 2046              		.loc 1 867 17 is_stmt 0 view .LVU659
 2047 0010 738E     		ldrh	r3, [r6, #50]
 867:lvgl/src/widgets/lv_btnmatrix.c ****         }
 2048              		.loc 1 867 26 view .LVU660
 2049 0012 0133     		adds	r3, r3, #1
 2050 0014 7386     		strh	r3, [r6, #50]	@ movhi
 2051              	.L103:
 869:lvgl/src/widgets/lv_btnmatrix.c ****     }
 2052              		.loc 1 869 9 is_stmt 1 view .LVU661
 869:lvgl/src/widgets/lv_btnmatrix.c ****     }
 2053              		.loc 1 869 10 is_stmt 0 view .LVU662
 2054 0016 0134     		adds	r4, r4, #1
 2055              	.LVL178:
 869:lvgl/src/widgets/lv_btnmatrix.c ****     }
 2056              		.loc 1 869 10 view .LVU663
 2057 0018 A4B2     		uxth	r4, r4
 2058              	.LVL179:
 2059              	.L101:
 862:lvgl/src/widgets/lv_btnmatrix.c ****         if(strcmp(map[i], "\n") != 0) { /*Do not count line breaks*/
 2060              		.loc 1 862 10 is_stmt 1 view .LVU664
 862:lvgl/src/widgets/lv_btnmatrix.c ****         if(strcmp(map[i], "\n") != 0) { /*Do not count line breaks*/
 2061              		.loc 1 862 14 is_stmt 0 view .LVU665
 2062 001a 57F82400 		ldr	r0, [r7, r4, lsl #2]
 862:lvgl/src/widgets/lv_btnmatrix.c ****         if(strcmp(map[i], "\n") != 0) { /*Do not count line breaks*/
 2063              		.loc 1 862 10 view .LVU666
 2064 001e 48B1     		cbz	r0, .L104
 862:lvgl/src/widgets/lv_btnmatrix.c ****         if(strcmp(map[i], "\n") != 0) { /*Do not count line breaks*/
 2065              		.loc 1 862 27 discriminator 1 view .LVU667
 2066 0020 0378     		ldrb	r3, [r0]	@ zero_extendqisi2
 862:lvgl/src/widgets/lv_btnmatrix.c ****         if(strcmp(map[i], "\n") != 0) { /*Do not count line breaks*/
 2067              		.loc 1 862 18 discriminator 1 view .LVU668
 2068 0022 3BB1     		cbz	r3, .L104
 863:lvgl/src/widgets/lv_btnmatrix.c ****             btn_cnt++;
 2069              		.loc 1 863 9 is_stmt 1 view .LVU669
 863:lvgl/src/widgets/lv_btnmatrix.c ****             btn_cnt++;
 2070              		.loc 1 863 12 is_stmt 0 view .LVU670
ARM GAS  C:\Users\OSD\AppData\Local\Temp\ccnvvkrZ.s 			page 70


 2071 0024 1549     		ldr	r1, .L117
 2072 0026 FFF7FEFF 		bl	strcmp
 2073              	.LVL180:
 863:lvgl/src/widgets/lv_btnmatrix.c ****             btn_cnt++;
 2074              		.loc 1 863 11 view .LVU671
 2075 002a 0028     		cmp	r0, #0
 2076 002c F0D0     		beq	.L102
 864:lvgl/src/widgets/lv_btnmatrix.c ****         }
 2077              		.loc 1 864 13 is_stmt 1 view .LVU672
 864:lvgl/src/widgets/lv_btnmatrix.c ****         }
 2078              		.loc 1 864 20 is_stmt 0 view .LVU673
 2079 002e 0135     		adds	r5, r5, #1
 2080              	.LVL181:
 864:lvgl/src/widgets/lv_btnmatrix.c ****         }
 2081              		.loc 1 864 20 view .LVU674
 2082 0030 ADB2     		uxth	r5, r5
 2083              	.LVL182:
 864:lvgl/src/widgets/lv_btnmatrix.c ****         }
 2084              		.loc 1 864 20 view .LVU675
 2085 0032 F0E7     		b	.L103
 2086              	.L104:
 873:lvgl/src/widgets/lv_btnmatrix.c **** 
 2087              		.loc 1 873 5 is_stmt 1 view .LVU676
 873:lvgl/src/widgets/lv_btnmatrix.c **** 
 2088              		.loc 1 873 23 is_stmt 0 view .LVU677
 2089 0034 338E     		ldrh	r3, [r6, #48]
 873:lvgl/src/widgets/lv_btnmatrix.c **** 
 2090              		.loc 1 873 7 view .LVU678
 2091 0036 AB42     		cmp	r3, r5
 2092 0038 1BD0     		beq	.L100
 875:lvgl/src/widgets/lv_btnmatrix.c ****         lv_mem_free(btnm->button_areas);
 2093              		.loc 1 875 5 is_stmt 1 view .LVU679
 875:lvgl/src/widgets/lv_btnmatrix.c ****         lv_mem_free(btnm->button_areas);
 2094              		.loc 1 875 12 is_stmt 0 view .LVU680
 2095 003a B06A     		ldr	r0, [r6, #40]
 875:lvgl/src/widgets/lv_btnmatrix.c ****         lv_mem_free(btnm->button_areas);
 2096              		.loc 1 875 7 view .LVU681
 2097 003c 18B1     		cbz	r0, .L107
 876:lvgl/src/widgets/lv_btnmatrix.c ****         btnm->button_areas = NULL;
 2098              		.loc 1 876 9 is_stmt 1 view .LVU682
 2099 003e FFF7FEFF 		bl	lv_mem_free
 2100              	.LVL183:
 877:lvgl/src/widgets/lv_btnmatrix.c ****     }
 2101              		.loc 1 877 9 view .LVU683
 877:lvgl/src/widgets/lv_btnmatrix.c ****     }
 2102              		.loc 1 877 28 is_stmt 0 view .LVU684
 2103 0042 0023     		movs	r3, #0
 2104 0044 B362     		str	r3, [r6, #40]
 2105              	.L107:
 879:lvgl/src/widgets/lv_btnmatrix.c ****         lv_mem_free(btnm->ctrl_bits);
 2106              		.loc 1 879 5 is_stmt 1 view .LVU685
 879:lvgl/src/widgets/lv_btnmatrix.c ****         lv_mem_free(btnm->ctrl_bits);
 2107              		.loc 1 879 12 is_stmt 0 view .LVU686
 2108 0046 F06A     		ldr	r0, [r6, #44]
 879:lvgl/src/widgets/lv_btnmatrix.c ****         lv_mem_free(btnm->ctrl_bits);
 2109              		.loc 1 879 7 view .LVU687
 2110 0048 18B1     		cbz	r0, .L108
ARM GAS  C:\Users\OSD\AppData\Local\Temp\ccnvvkrZ.s 			page 71


 880:lvgl/src/widgets/lv_btnmatrix.c ****         btnm->ctrl_bits = NULL;
 2111              		.loc 1 880 9 is_stmt 1 view .LVU688
 2112 004a FFF7FEFF 		bl	lv_mem_free
 2113              	.LVL184:
 881:lvgl/src/widgets/lv_btnmatrix.c ****     }
 2114              		.loc 1 881 9 view .LVU689
 881:lvgl/src/widgets/lv_btnmatrix.c ****     }
 2115              		.loc 1 881 25 is_stmt 0 view .LVU690
 2116 004e 0023     		movs	r3, #0
 2117 0050 F362     		str	r3, [r6, #44]
 2118              	.L108:
 884:lvgl/src/widgets/lv_btnmatrix.c ****     LV_ASSERT_MALLOC(btnm->button_areas);
 2119              		.loc 1 884 5 is_stmt 1 view .LVU691
 884:lvgl/src/widgets/lv_btnmatrix.c ****     LV_ASSERT_MALLOC(btnm->button_areas);
 2120              		.loc 1 884 26 is_stmt 0 view .LVU692
 2121 0052 E800     		lsls	r0, r5, #3
 2122 0054 FFF7FEFF 		bl	lv_mem_alloc
 2123              	.LVL185:
 884:lvgl/src/widgets/lv_btnmatrix.c ****     LV_ASSERT_MALLOC(btnm->button_areas);
 2124              		.loc 1 884 24 view .LVU693
 2125 0058 B062     		str	r0, [r6, #40]
 885:lvgl/src/widgets/lv_btnmatrix.c ****     btnm->ctrl_bits = lv_mem_alloc(sizeof(lv_btnmatrix_ctrl_t) * btn_cnt);
 2126              		.loc 1 885 5 is_stmt 1 view .LVU694
 885:lvgl/src/widgets/lv_btnmatrix.c ****     btnm->ctrl_bits = lv_mem_alloc(sizeof(lv_btnmatrix_ctrl_t) * btn_cnt);
 2127              		.loc 1 885 5 view .LVU695
 2128 005a 58B1     		cbz	r0, .L110
 885:lvgl/src/widgets/lv_btnmatrix.c ****     btnm->ctrl_bits = lv_mem_alloc(sizeof(lv_btnmatrix_ctrl_t) * btn_cnt);
 2129              		.loc 1 885 5 discriminator 2 view .LVU696
 885:lvgl/src/widgets/lv_btnmatrix.c ****     btnm->ctrl_bits = lv_mem_alloc(sizeof(lv_btnmatrix_ctrl_t) * btn_cnt);
 2130              		.loc 1 885 41 discriminator 2 view .LVU697
 886:lvgl/src/widgets/lv_btnmatrix.c ****     LV_ASSERT_MALLOC(btnm->ctrl_bits);
 2131              		.loc 1 886 5 discriminator 2 view .LVU698
 886:lvgl/src/widgets/lv_btnmatrix.c ****     LV_ASSERT_MALLOC(btnm->ctrl_bits);
 2132              		.loc 1 886 23 is_stmt 0 discriminator 2 view .LVU699
 2133 005c 6800     		lsls	r0, r5, #1
 2134 005e FFF7FEFF 		bl	lv_mem_alloc
 2135              	.LVL186:
 886:lvgl/src/widgets/lv_btnmatrix.c ****     LV_ASSERT_MALLOC(btnm->ctrl_bits);
 2136              		.loc 1 886 21 discriminator 2 view .LVU700
 2137 0062 F062     		str	r0, [r6, #44]
 887:lvgl/src/widgets/lv_btnmatrix.c ****     if(btnm->button_areas == NULL || btnm->ctrl_bits == NULL) btn_cnt = 0;
 2138              		.loc 1 887 5 is_stmt 1 discriminator 2 view .LVU701
 887:lvgl/src/widgets/lv_btnmatrix.c ****     if(btnm->button_areas == NULL || btnm->ctrl_bits == NULL) btn_cnt = 0;
 2139              		.loc 1 887 5 discriminator 2 view .LVU702
 2140 0064 38B1     		cbz	r0, .L112
 887:lvgl/src/widgets/lv_btnmatrix.c ****     if(btnm->button_areas == NULL || btnm->ctrl_bits == NULL) btn_cnt = 0;
 2141              		.loc 1 887 5 discriminator 2 view .LVU703
 887:lvgl/src/widgets/lv_btnmatrix.c ****     if(btnm->button_areas == NULL || btnm->ctrl_bits == NULL) btn_cnt = 0;
 2142              		.loc 1 887 38 discriminator 2 view .LVU704
 888:lvgl/src/widgets/lv_btnmatrix.c **** 
 2143              		.loc 1 888 5 discriminator 2 view .LVU705
 888:lvgl/src/widgets/lv_btnmatrix.c **** 
 2144              		.loc 1 888 12 is_stmt 0 discriminator 2 view .LVU706
 2145 0066 B36A     		ldr	r3, [r6, #40]
 888:lvgl/src/widgets/lv_btnmatrix.c **** 
 2146              		.loc 1 888 7 discriminator 2 view .LVU707
 2147 0068 33B1     		cbz	r3, .L116
ARM GAS  C:\Users\OSD\AppData\Local\Temp\ccnvvkrZ.s 			page 72


 2148              	.LVL187:
 2149              	.L113:
 890:lvgl/src/widgets/lv_btnmatrix.c **** 
 2150              		.loc 1 890 5 is_stmt 1 view .LVU708
 2151 006a 6900     		lsls	r1, r5, #1
 2152 006c FFF7FEFF 		bl	lv_memset_00
 2153              	.LVL188:
 892:lvgl/src/widgets/lv_btnmatrix.c **** }
 2154              		.loc 1 892 5 view .LVU709
 892:lvgl/src/widgets/lv_btnmatrix.c **** }
 2155              		.loc 1 892 19 is_stmt 0 view .LVU710
 2156 0070 3586     		strh	r5, [r6, #48]	@ movhi
 2157              	.L100:
 893:lvgl/src/widgets/lv_btnmatrix.c **** 
 2158              		.loc 1 893 1 view .LVU711
 2159 0072 F8BD     		pop	{r3, r4, r5, r6, r7, pc}
 2160              	.LVL189:
 2161              	.L110:
 885:lvgl/src/widgets/lv_btnmatrix.c ****     btnm->ctrl_bits = lv_mem_alloc(sizeof(lv_btnmatrix_ctrl_t) * btn_cnt);
 2162              		.loc 1 885 5 is_stmt 1 discriminator 1 view .LVU712
 885:lvgl/src/widgets/lv_btnmatrix.c ****     btnm->ctrl_bits = lv_mem_alloc(sizeof(lv_btnmatrix_ctrl_t) * btn_cnt);
 2163              		.loc 1 885 5 discriminator 1 view .LVU713
 885:lvgl/src/widgets/lv_btnmatrix.c ****     btnm->ctrl_bits = lv_mem_alloc(sizeof(lv_btnmatrix_ctrl_t) * btn_cnt);
 2164              		.loc 1 885 5 discriminator 1 view .LVU714
 885:lvgl/src/widgets/lv_btnmatrix.c ****     btnm->ctrl_bits = lv_mem_alloc(sizeof(lv_btnmatrix_ctrl_t) * btn_cnt);
 2165              		.loc 1 885 5 discriminator 1 view .LVU715
 885:lvgl/src/widgets/lv_btnmatrix.c ****     btnm->ctrl_bits = lv_mem_alloc(sizeof(lv_btnmatrix_ctrl_t) * btn_cnt);
 2166              		.loc 1 885 5 discriminator 1 view .LVU716
 885:lvgl/src/widgets/lv_btnmatrix.c ****     btnm->ctrl_bits = lv_mem_alloc(sizeof(lv_btnmatrix_ctrl_t) * btn_cnt);
 2167              		.loc 1 885 5 discriminator 1 view .LVU717
 2168 0074 FEE7     		b	.L110
 2169              	.L112:
 887:lvgl/src/widgets/lv_btnmatrix.c ****     if(btnm->button_areas == NULL || btnm->ctrl_bits == NULL) btn_cnt = 0;
 2170              		.loc 1 887 5 discriminator 2 view .LVU718
 887:lvgl/src/widgets/lv_btnmatrix.c ****     if(btnm->button_areas == NULL || btnm->ctrl_bits == NULL) btn_cnt = 0;
 2171              		.loc 1 887 5 discriminator 2 view .LVU719
 887:lvgl/src/widgets/lv_btnmatrix.c ****     if(btnm->button_areas == NULL || btnm->ctrl_bits == NULL) btn_cnt = 0;
 2172              		.loc 1 887 5 discriminator 2 view .LVU720
 887:lvgl/src/widgets/lv_btnmatrix.c ****     if(btnm->button_areas == NULL || btnm->ctrl_bits == NULL) btn_cnt = 0;
 2173              		.loc 1 887 5 discriminator 2 view .LVU721
 887:lvgl/src/widgets/lv_btnmatrix.c ****     if(btnm->button_areas == NULL || btnm->ctrl_bits == NULL) btn_cnt = 0;
 2174              		.loc 1 887 5 discriminator 2 view .LVU722
 887:lvgl/src/widgets/lv_btnmatrix.c ****     if(btnm->button_areas == NULL || btnm->ctrl_bits == NULL) btn_cnt = 0;
 2175              		.loc 1 887 5 discriminator 2 view .LVU723
 2176 0076 FEE7     		b	.L112
 2177              	.L116:
 888:lvgl/src/widgets/lv_btnmatrix.c **** 
 2178              		.loc 1 888 71 is_stmt 0 view .LVU724
 2179 0078 0025     		movs	r5, #0
 2180              	.LVL190:
 888:lvgl/src/widgets/lv_btnmatrix.c **** 
 2181              		.loc 1 888 71 view .LVU725
 2182 007a F6E7     		b	.L113
 2183              	.L118:
 2184              		.align	2
 2185              	.L117:
 2186 007c 00000000 		.word	.LC0
ARM GAS  C:\Users\OSD\AppData\Local\Temp\ccnvvkrZ.s 			page 73


 2187              		.cfi_endproc
 2188              	.LFE180:
 2190              		.section	.text.lv_btnmatrix_create,"ax",%progbits
 2191              		.align	1
 2192              		.global	lv_btnmatrix_create
 2193              		.syntax unified
 2194              		.thumb
 2195              		.thumb_func
 2197              	lv_btnmatrix_create:
 2198              	.LVL191:
 2199              	.LFB161:
  82:lvgl/src/widgets/lv_btnmatrix.c ****     LV_LOG_INFO("begin");
 2200              		.loc 1 82 1 is_stmt 1 view -0
 2201              		.cfi_startproc
 2202              		@ args = 0, pretend = 0, frame = 0
 2203              		@ frame_needed = 0, uses_anonymous_args = 0
  82:lvgl/src/widgets/lv_btnmatrix.c ****     LV_LOG_INFO("begin");
 2204              		.loc 1 82 1 is_stmt 0 view .LVU727
 2205 0000 10B5     		push	{r4, lr}
 2206              		.cfi_def_cfa_offset 8
 2207              		.cfi_offset 4, -8
 2208              		.cfi_offset 14, -4
 2209 0002 0146     		mov	r1, r0
  83:lvgl/src/widgets/lv_btnmatrix.c ****     lv_obj_t * obj = lv_obj_class_create_obj(MY_CLASS, parent);
 2210              		.loc 1 83 5 is_stmt 1 view .LVU728
  83:lvgl/src/widgets/lv_btnmatrix.c ****     lv_obj_t * obj = lv_obj_class_create_obj(MY_CLASS, parent);
 2211              		.loc 1 83 5 view .LVU729
  83:lvgl/src/widgets/lv_btnmatrix.c ****     lv_obj_t * obj = lv_obj_class_create_obj(MY_CLASS, parent);
 2212              		.loc 1 83 5 view .LVU730
  84:lvgl/src/widgets/lv_btnmatrix.c ****     lv_obj_class_init_obj(obj);
 2213              		.loc 1 84 5 view .LVU731
  84:lvgl/src/widgets/lv_btnmatrix.c ****     lv_obj_class_init_obj(obj);
 2214              		.loc 1 84 22 is_stmt 0 view .LVU732
 2215 0004 0348     		ldr	r0, .L121
 2216              	.LVL192:
  84:lvgl/src/widgets/lv_btnmatrix.c ****     lv_obj_class_init_obj(obj);
 2217              		.loc 1 84 22 view .LVU733
 2218 0006 FFF7FEFF 		bl	lv_obj_class_create_obj
 2219              	.LVL193:
  84:lvgl/src/widgets/lv_btnmatrix.c ****     lv_obj_class_init_obj(obj);
 2220              		.loc 1 84 22 view .LVU734
 2221 000a 0446     		mov	r4, r0
 2222              	.LVL194:
  85:lvgl/src/widgets/lv_btnmatrix.c ****     return obj;
 2223              		.loc 1 85 5 is_stmt 1 view .LVU735
 2224 000c FFF7FEFF 		bl	lv_obj_class_init_obj
 2225              	.LVL195:
  86:lvgl/src/widgets/lv_btnmatrix.c **** }
 2226              		.loc 1 86 5 view .LVU736
  87:lvgl/src/widgets/lv_btnmatrix.c **** 
 2227              		.loc 1 87 1 is_stmt 0 view .LVU737
 2228 0010 2046     		mov	r0, r4
 2229 0012 10BD     		pop	{r4, pc}
 2230              	.LVL196:
 2231              	.L122:
  87:lvgl/src/widgets/lv_btnmatrix.c **** 
 2232              		.loc 1 87 1 view .LVU738
ARM GAS  C:\Users\OSD\AppData\Local\Temp\ccnvvkrZ.s 			page 74


 2233              		.align	2
 2234              	.L121:
 2235 0014 00000000 		.word	.LANCHOR0
 2236              		.cfi_endproc
 2237              	.LFE161:
 2239              		.section	.text.lv_btnmatrix_set_map,"ax",%progbits
 2240              		.align	1
 2241              		.global	lv_btnmatrix_set_map
 2242              		.syntax unified
 2243              		.thumb
 2244              		.thumb_func
 2246              	lv_btnmatrix_set_map:
 2247              	.LVL197:
 2248              	.LFB162:
  94:lvgl/src/widgets/lv_btnmatrix.c ****     LV_ASSERT_OBJ(obj, MY_CLASS);
 2249              		.loc 1 94 1 is_stmt 1 view -0
 2250              		.cfi_startproc
 2251              		@ args = 0, pretend = 0, frame = 56
 2252              		@ frame_needed = 0, uses_anonymous_args = 0
  95:lvgl/src/widgets/lv_btnmatrix.c ****     if(map == NULL) return;
 2253              		.loc 1 95 5 view .LVU740
  95:lvgl/src/widgets/lv_btnmatrix.c ****     if(map == NULL) return;
 2254              		.loc 1 95 5 view .LVU741
  95:lvgl/src/widgets/lv_btnmatrix.c ****     if(map == NULL) return;
 2255              		.loc 1 95 5 view .LVU742
  96:lvgl/src/widgets/lv_btnmatrix.c **** 
 2256              		.loc 1 96 5 view .LVU743
  96:lvgl/src/widgets/lv_btnmatrix.c **** 
 2257              		.loc 1 96 7 is_stmt 0 view .LVU744
 2258 0000 0029     		cmp	r1, #0
 2259 0002 00F0DE80 		beq	.L138
  94:lvgl/src/widgets/lv_btnmatrix.c ****     LV_ASSERT_OBJ(obj, MY_CLASS);
 2260              		.loc 1 94 1 view .LVU745
 2261 0006 2DE9F04F 		push	{r4, r5, r6, r7, r8, r9, r10, fp, lr}
 2262              		.cfi_def_cfa_offset 36
 2263              		.cfi_offset 4, -36
 2264              		.cfi_offset 5, -32
 2265              		.cfi_offset 6, -28
 2266              		.cfi_offset 7, -24
 2267              		.cfi_offset 8, -20
 2268              		.cfi_offset 9, -16
 2269              		.cfi_offset 10, -12
 2270              		.cfi_offset 11, -8
 2271              		.cfi_offset 14, -4
 2272 000a 91B0     		sub	sp, sp, #68
 2273              		.cfi_def_cfa_offset 104
 2274 000c 8346     		mov	fp, r0
 2275 000e 8946     		mov	r9, r1
  98:lvgl/src/widgets/lv_btnmatrix.c **** 
 2276              		.loc 1 98 5 is_stmt 1 view .LVU746
 2277              	.LVL198:
 101:lvgl/src/widgets/lv_btnmatrix.c ****     btnm->map_p = map;
 2278              		.loc 1 101 5 view .LVU747
 2279 0010 FFF7FEFF 		bl	allocate_btn_areas_and_controls
 2280              	.LVL199:
 102:lvgl/src/widgets/lv_btnmatrix.c **** 
 2281              		.loc 1 102 5 view .LVU748
ARM GAS  C:\Users\OSD\AppData\Local\Temp\ccnvvkrZ.s 			page 75


 102:lvgl/src/widgets/lv_btnmatrix.c **** 
 2282              		.loc 1 102 17 is_stmt 0 view .LVU749
 2283 0014 CBF82490 		str	r9, [fp, #36]
 104:lvgl/src/widgets/lv_btnmatrix.c **** 
 2284              		.loc 1 104 5 is_stmt 1 view .LVU750
 2285              	.LVL200:
 2286              	.LBB123:
 2287              	.LBI123:
 137:lvgl/src/widgets/../core/lv_obj_style_gen.h **** }
 138:lvgl/src/widgets/../core/lv_obj_style_gen.h **** 
 139:lvgl/src/widgets/../core/lv_obj_style_gen.h **** static inline lv_color_t lv_obj_get_style_bg_color(const struct _lv_obj_t * obj, uint32_t part)
 140:lvgl/src/widgets/../core/lv_obj_style_gen.h **** {
 141:lvgl/src/widgets/../core/lv_obj_style_gen.h ****     lv_style_value_t v = lv_obj_get_style_prop(obj, part, LV_STYLE_BG_COLOR);
 142:lvgl/src/widgets/../core/lv_obj_style_gen.h ****     return v.color;
 143:lvgl/src/widgets/../core/lv_obj_style_gen.h **** }
 144:lvgl/src/widgets/../core/lv_obj_style_gen.h **** 
 145:lvgl/src/widgets/../core/lv_obj_style_gen.h **** static inline lv_color_t lv_obj_get_style_bg_color_filtered(const struct _lv_obj_t * obj, uint32_t 
 146:lvgl/src/widgets/../core/lv_obj_style_gen.h **** {
 147:lvgl/src/widgets/../core/lv_obj_style_gen.h ****     lv_style_value_t v = _lv_obj_style_apply_color_filter(obj, part, lv_obj_get_style_prop(obj, par
 148:lvgl/src/widgets/../core/lv_obj_style_gen.h ****     return v.color;
 149:lvgl/src/widgets/../core/lv_obj_style_gen.h **** }
 150:lvgl/src/widgets/../core/lv_obj_style_gen.h **** 
 151:lvgl/src/widgets/../core/lv_obj_style_gen.h **** static inline lv_opa_t lv_obj_get_style_bg_opa(const struct _lv_obj_t * obj, uint32_t part)
 152:lvgl/src/widgets/../core/lv_obj_style_gen.h **** {
 153:lvgl/src/widgets/../core/lv_obj_style_gen.h ****     lv_style_value_t v = lv_obj_get_style_prop(obj, part, LV_STYLE_BG_OPA);
 154:lvgl/src/widgets/../core/lv_obj_style_gen.h ****     return (lv_opa_t)v.num;
 155:lvgl/src/widgets/../core/lv_obj_style_gen.h **** }
 156:lvgl/src/widgets/../core/lv_obj_style_gen.h **** 
 157:lvgl/src/widgets/../core/lv_obj_style_gen.h **** static inline lv_color_t lv_obj_get_style_bg_grad_color(const struct _lv_obj_t * obj, uint32_t part
 158:lvgl/src/widgets/../core/lv_obj_style_gen.h **** {
 159:lvgl/src/widgets/../core/lv_obj_style_gen.h ****     lv_style_value_t v = lv_obj_get_style_prop(obj, part, LV_STYLE_BG_GRAD_COLOR);
 160:lvgl/src/widgets/../core/lv_obj_style_gen.h ****     return v.color;
 161:lvgl/src/widgets/../core/lv_obj_style_gen.h **** }
 162:lvgl/src/widgets/../core/lv_obj_style_gen.h **** 
 163:lvgl/src/widgets/../core/lv_obj_style_gen.h **** static inline lv_color_t lv_obj_get_style_bg_grad_color_filtered(const struct _lv_obj_t * obj, uint
 164:lvgl/src/widgets/../core/lv_obj_style_gen.h **** {
 165:lvgl/src/widgets/../core/lv_obj_style_gen.h ****     lv_style_value_t v = _lv_obj_style_apply_color_filter(obj, part, lv_obj_get_style_prop(obj, par
 166:lvgl/src/widgets/../core/lv_obj_style_gen.h ****     return v.color;
 167:lvgl/src/widgets/../core/lv_obj_style_gen.h **** }
 168:lvgl/src/widgets/../core/lv_obj_style_gen.h **** 
 169:lvgl/src/widgets/../core/lv_obj_style_gen.h **** static inline lv_grad_dir_t lv_obj_get_style_bg_grad_dir(const struct _lv_obj_t * obj, uint32_t par
 170:lvgl/src/widgets/../core/lv_obj_style_gen.h **** {
 171:lvgl/src/widgets/../core/lv_obj_style_gen.h ****     lv_style_value_t v = lv_obj_get_style_prop(obj, part, LV_STYLE_BG_GRAD_DIR);
 172:lvgl/src/widgets/../core/lv_obj_style_gen.h ****     return (lv_grad_dir_t)v.num;
 173:lvgl/src/widgets/../core/lv_obj_style_gen.h **** }
 174:lvgl/src/widgets/../core/lv_obj_style_gen.h **** 
 175:lvgl/src/widgets/../core/lv_obj_style_gen.h **** static inline lv_coord_t lv_obj_get_style_bg_main_stop(const struct _lv_obj_t * obj, uint32_t part)
 176:lvgl/src/widgets/../core/lv_obj_style_gen.h **** {
 177:lvgl/src/widgets/../core/lv_obj_style_gen.h ****     lv_style_value_t v = lv_obj_get_style_prop(obj, part, LV_STYLE_BG_MAIN_STOP);
 178:lvgl/src/widgets/../core/lv_obj_style_gen.h ****     return (lv_coord_t)v.num;
 179:lvgl/src/widgets/../core/lv_obj_style_gen.h **** }
 180:lvgl/src/widgets/../core/lv_obj_style_gen.h **** 
 181:lvgl/src/widgets/../core/lv_obj_style_gen.h **** static inline lv_coord_t lv_obj_get_style_bg_grad_stop(const struct _lv_obj_t * obj, uint32_t part)
 182:lvgl/src/widgets/../core/lv_obj_style_gen.h **** {
 183:lvgl/src/widgets/../core/lv_obj_style_gen.h ****     lv_style_value_t v = lv_obj_get_style_prop(obj, part, LV_STYLE_BG_GRAD_STOP);
 184:lvgl/src/widgets/../core/lv_obj_style_gen.h ****     return (lv_coord_t)v.num;
 185:lvgl/src/widgets/../core/lv_obj_style_gen.h **** }
ARM GAS  C:\Users\OSD\AppData\Local\Temp\ccnvvkrZ.s 			page 76


 186:lvgl/src/widgets/../core/lv_obj_style_gen.h **** 
 187:lvgl/src/widgets/../core/lv_obj_style_gen.h **** static inline const lv_grad_dsc_t * lv_obj_get_style_bg_grad(const struct _lv_obj_t * obj, uint32_t
 188:lvgl/src/widgets/../core/lv_obj_style_gen.h **** {
 189:lvgl/src/widgets/../core/lv_obj_style_gen.h ****     lv_style_value_t v = lv_obj_get_style_prop(obj, part, LV_STYLE_BG_GRAD);
 190:lvgl/src/widgets/../core/lv_obj_style_gen.h ****     return (const lv_grad_dsc_t *)v.ptr;
 191:lvgl/src/widgets/../core/lv_obj_style_gen.h **** }
 192:lvgl/src/widgets/../core/lv_obj_style_gen.h **** 
 193:lvgl/src/widgets/../core/lv_obj_style_gen.h **** static inline lv_dither_mode_t lv_obj_get_style_bg_dither_mode(const struct _lv_obj_t * obj, uint32
 194:lvgl/src/widgets/../core/lv_obj_style_gen.h **** {
 195:lvgl/src/widgets/../core/lv_obj_style_gen.h ****     lv_style_value_t v = lv_obj_get_style_prop(obj, part, LV_STYLE_BG_DITHER_MODE);
 196:lvgl/src/widgets/../core/lv_obj_style_gen.h ****     return (lv_dither_mode_t)v.num;
 197:lvgl/src/widgets/../core/lv_obj_style_gen.h **** }
 198:lvgl/src/widgets/../core/lv_obj_style_gen.h **** 
 199:lvgl/src/widgets/../core/lv_obj_style_gen.h **** static inline const void * lv_obj_get_style_bg_img_src(const struct _lv_obj_t * obj, uint32_t part)
 200:lvgl/src/widgets/../core/lv_obj_style_gen.h **** {
 201:lvgl/src/widgets/../core/lv_obj_style_gen.h ****     lv_style_value_t v = lv_obj_get_style_prop(obj, part, LV_STYLE_BG_IMG_SRC);
 202:lvgl/src/widgets/../core/lv_obj_style_gen.h ****     return (const void *)v.ptr;
 203:lvgl/src/widgets/../core/lv_obj_style_gen.h **** }
 204:lvgl/src/widgets/../core/lv_obj_style_gen.h **** 
 205:lvgl/src/widgets/../core/lv_obj_style_gen.h **** static inline lv_opa_t lv_obj_get_style_bg_img_opa(const struct _lv_obj_t * obj, uint32_t part)
 206:lvgl/src/widgets/../core/lv_obj_style_gen.h **** {
 207:lvgl/src/widgets/../core/lv_obj_style_gen.h ****     lv_style_value_t v = lv_obj_get_style_prop(obj, part, LV_STYLE_BG_IMG_OPA);
 208:lvgl/src/widgets/../core/lv_obj_style_gen.h ****     return (lv_opa_t)v.num;
 209:lvgl/src/widgets/../core/lv_obj_style_gen.h **** }
 210:lvgl/src/widgets/../core/lv_obj_style_gen.h **** 
 211:lvgl/src/widgets/../core/lv_obj_style_gen.h **** static inline lv_color_t lv_obj_get_style_bg_img_recolor(const struct _lv_obj_t * obj, uint32_t par
 212:lvgl/src/widgets/../core/lv_obj_style_gen.h **** {
 213:lvgl/src/widgets/../core/lv_obj_style_gen.h ****     lv_style_value_t v = lv_obj_get_style_prop(obj, part, LV_STYLE_BG_IMG_RECOLOR);
 214:lvgl/src/widgets/../core/lv_obj_style_gen.h ****     return v.color;
 215:lvgl/src/widgets/../core/lv_obj_style_gen.h **** }
 216:lvgl/src/widgets/../core/lv_obj_style_gen.h **** 
 217:lvgl/src/widgets/../core/lv_obj_style_gen.h **** static inline lv_color_t lv_obj_get_style_bg_img_recolor_filtered(const struct _lv_obj_t * obj, uin
 218:lvgl/src/widgets/../core/lv_obj_style_gen.h **** {
 219:lvgl/src/widgets/../core/lv_obj_style_gen.h ****     lv_style_value_t v = _lv_obj_style_apply_color_filter(obj, part, lv_obj_get_style_prop(obj, par
 220:lvgl/src/widgets/../core/lv_obj_style_gen.h ****     return v.color;
 221:lvgl/src/widgets/../core/lv_obj_style_gen.h **** }
 222:lvgl/src/widgets/../core/lv_obj_style_gen.h **** 
 223:lvgl/src/widgets/../core/lv_obj_style_gen.h **** static inline lv_opa_t lv_obj_get_style_bg_img_recolor_opa(const struct _lv_obj_t * obj, uint32_t p
 224:lvgl/src/widgets/../core/lv_obj_style_gen.h **** {
 225:lvgl/src/widgets/../core/lv_obj_style_gen.h ****     lv_style_value_t v = lv_obj_get_style_prop(obj, part, LV_STYLE_BG_IMG_RECOLOR_OPA);
 226:lvgl/src/widgets/../core/lv_obj_style_gen.h ****     return (lv_opa_t)v.num;
 227:lvgl/src/widgets/../core/lv_obj_style_gen.h **** }
 228:lvgl/src/widgets/../core/lv_obj_style_gen.h **** 
 229:lvgl/src/widgets/../core/lv_obj_style_gen.h **** static inline bool lv_obj_get_style_bg_img_tiled(const struct _lv_obj_t * obj, uint32_t part)
 230:lvgl/src/widgets/../core/lv_obj_style_gen.h **** {
 231:lvgl/src/widgets/../core/lv_obj_style_gen.h ****     lv_style_value_t v = lv_obj_get_style_prop(obj, part, LV_STYLE_BG_IMG_TILED);
 232:lvgl/src/widgets/../core/lv_obj_style_gen.h ****     return (bool)v.num;
 233:lvgl/src/widgets/../core/lv_obj_style_gen.h **** }
 234:lvgl/src/widgets/../core/lv_obj_style_gen.h **** 
 235:lvgl/src/widgets/../core/lv_obj_style_gen.h **** static inline lv_color_t lv_obj_get_style_border_color(const struct _lv_obj_t * obj, uint32_t part)
 236:lvgl/src/widgets/../core/lv_obj_style_gen.h **** {
 237:lvgl/src/widgets/../core/lv_obj_style_gen.h ****     lv_style_value_t v = lv_obj_get_style_prop(obj, part, LV_STYLE_BORDER_COLOR);
 238:lvgl/src/widgets/../core/lv_obj_style_gen.h ****     return v.color;
 239:lvgl/src/widgets/../core/lv_obj_style_gen.h **** }
 240:lvgl/src/widgets/../core/lv_obj_style_gen.h **** 
 241:lvgl/src/widgets/../core/lv_obj_style_gen.h **** static inline lv_color_t lv_obj_get_style_border_color_filtered(const struct _lv_obj_t * obj, uint3
 242:lvgl/src/widgets/../core/lv_obj_style_gen.h **** {
ARM GAS  C:\Users\OSD\AppData\Local\Temp\ccnvvkrZ.s 			page 77


 243:lvgl/src/widgets/../core/lv_obj_style_gen.h ****     lv_style_value_t v = _lv_obj_style_apply_color_filter(obj, part, lv_obj_get_style_prop(obj, par
 244:lvgl/src/widgets/../core/lv_obj_style_gen.h ****     return v.color;
 245:lvgl/src/widgets/../core/lv_obj_style_gen.h **** }
 246:lvgl/src/widgets/../core/lv_obj_style_gen.h **** 
 247:lvgl/src/widgets/../core/lv_obj_style_gen.h **** static inline lv_opa_t lv_obj_get_style_border_opa(const struct _lv_obj_t * obj, uint32_t part)
 248:lvgl/src/widgets/../core/lv_obj_style_gen.h **** {
 249:lvgl/src/widgets/../core/lv_obj_style_gen.h ****     lv_style_value_t v = lv_obj_get_style_prop(obj, part, LV_STYLE_BORDER_OPA);
 250:lvgl/src/widgets/../core/lv_obj_style_gen.h ****     return (lv_opa_t)v.num;
 251:lvgl/src/widgets/../core/lv_obj_style_gen.h **** }
 252:lvgl/src/widgets/../core/lv_obj_style_gen.h **** 
 253:lvgl/src/widgets/../core/lv_obj_style_gen.h **** static inline lv_coord_t lv_obj_get_style_border_width(const struct _lv_obj_t * obj, uint32_t part)
 254:lvgl/src/widgets/../core/lv_obj_style_gen.h **** {
 255:lvgl/src/widgets/../core/lv_obj_style_gen.h ****     lv_style_value_t v = lv_obj_get_style_prop(obj, part, LV_STYLE_BORDER_WIDTH);
 256:lvgl/src/widgets/../core/lv_obj_style_gen.h ****     return (lv_coord_t)v.num;
 257:lvgl/src/widgets/../core/lv_obj_style_gen.h **** }
 258:lvgl/src/widgets/../core/lv_obj_style_gen.h **** 
 259:lvgl/src/widgets/../core/lv_obj_style_gen.h **** static inline lv_border_side_t lv_obj_get_style_border_side(const struct _lv_obj_t * obj, uint32_t 
 260:lvgl/src/widgets/../core/lv_obj_style_gen.h **** {
 261:lvgl/src/widgets/../core/lv_obj_style_gen.h ****     lv_style_value_t v = lv_obj_get_style_prop(obj, part, LV_STYLE_BORDER_SIDE);
 262:lvgl/src/widgets/../core/lv_obj_style_gen.h ****     return (lv_border_side_t)v.num;
 263:lvgl/src/widgets/../core/lv_obj_style_gen.h **** }
 264:lvgl/src/widgets/../core/lv_obj_style_gen.h **** 
 265:lvgl/src/widgets/../core/lv_obj_style_gen.h **** static inline bool lv_obj_get_style_border_post(const struct _lv_obj_t * obj, uint32_t part)
 266:lvgl/src/widgets/../core/lv_obj_style_gen.h **** {
 267:lvgl/src/widgets/../core/lv_obj_style_gen.h ****     lv_style_value_t v = lv_obj_get_style_prop(obj, part, LV_STYLE_BORDER_POST);
 268:lvgl/src/widgets/../core/lv_obj_style_gen.h ****     return (bool)v.num;
 269:lvgl/src/widgets/../core/lv_obj_style_gen.h **** }
 270:lvgl/src/widgets/../core/lv_obj_style_gen.h **** 
 271:lvgl/src/widgets/../core/lv_obj_style_gen.h **** static inline lv_coord_t lv_obj_get_style_outline_width(const struct _lv_obj_t * obj, uint32_t part
 272:lvgl/src/widgets/../core/lv_obj_style_gen.h **** {
 273:lvgl/src/widgets/../core/lv_obj_style_gen.h ****     lv_style_value_t v = lv_obj_get_style_prop(obj, part, LV_STYLE_OUTLINE_WIDTH);
 274:lvgl/src/widgets/../core/lv_obj_style_gen.h ****     return (lv_coord_t)v.num;
 275:lvgl/src/widgets/../core/lv_obj_style_gen.h **** }
 276:lvgl/src/widgets/../core/lv_obj_style_gen.h **** 
 277:lvgl/src/widgets/../core/lv_obj_style_gen.h **** static inline lv_color_t lv_obj_get_style_outline_color(const struct _lv_obj_t * obj, uint32_t part
 278:lvgl/src/widgets/../core/lv_obj_style_gen.h **** {
 279:lvgl/src/widgets/../core/lv_obj_style_gen.h ****     lv_style_value_t v = lv_obj_get_style_prop(obj, part, LV_STYLE_OUTLINE_COLOR);
 280:lvgl/src/widgets/../core/lv_obj_style_gen.h ****     return v.color;
 281:lvgl/src/widgets/../core/lv_obj_style_gen.h **** }
 282:lvgl/src/widgets/../core/lv_obj_style_gen.h **** 
 283:lvgl/src/widgets/../core/lv_obj_style_gen.h **** static inline lv_color_t lv_obj_get_style_outline_color_filtered(const struct _lv_obj_t * obj, uint
 284:lvgl/src/widgets/../core/lv_obj_style_gen.h **** {
 285:lvgl/src/widgets/../core/lv_obj_style_gen.h ****     lv_style_value_t v = _lv_obj_style_apply_color_filter(obj, part, lv_obj_get_style_prop(obj, par
 286:lvgl/src/widgets/../core/lv_obj_style_gen.h ****     return v.color;
 287:lvgl/src/widgets/../core/lv_obj_style_gen.h **** }
 288:lvgl/src/widgets/../core/lv_obj_style_gen.h **** 
 289:lvgl/src/widgets/../core/lv_obj_style_gen.h **** static inline lv_opa_t lv_obj_get_style_outline_opa(const struct _lv_obj_t * obj, uint32_t part)
 290:lvgl/src/widgets/../core/lv_obj_style_gen.h **** {
 291:lvgl/src/widgets/../core/lv_obj_style_gen.h ****     lv_style_value_t v = lv_obj_get_style_prop(obj, part, LV_STYLE_OUTLINE_OPA);
 292:lvgl/src/widgets/../core/lv_obj_style_gen.h ****     return (lv_opa_t)v.num;
 293:lvgl/src/widgets/../core/lv_obj_style_gen.h **** }
 294:lvgl/src/widgets/../core/lv_obj_style_gen.h **** 
 295:lvgl/src/widgets/../core/lv_obj_style_gen.h **** static inline lv_coord_t lv_obj_get_style_outline_pad(const struct _lv_obj_t * obj, uint32_t part)
 296:lvgl/src/widgets/../core/lv_obj_style_gen.h **** {
 297:lvgl/src/widgets/../core/lv_obj_style_gen.h ****     lv_style_value_t v = lv_obj_get_style_prop(obj, part, LV_STYLE_OUTLINE_PAD);
 298:lvgl/src/widgets/../core/lv_obj_style_gen.h ****     return (lv_coord_t)v.num;
 299:lvgl/src/widgets/../core/lv_obj_style_gen.h **** }
ARM GAS  C:\Users\OSD\AppData\Local\Temp\ccnvvkrZ.s 			page 78


 300:lvgl/src/widgets/../core/lv_obj_style_gen.h **** 
 301:lvgl/src/widgets/../core/lv_obj_style_gen.h **** static inline lv_coord_t lv_obj_get_style_shadow_width(const struct _lv_obj_t * obj, uint32_t part)
 302:lvgl/src/widgets/../core/lv_obj_style_gen.h **** {
 303:lvgl/src/widgets/../core/lv_obj_style_gen.h ****     lv_style_value_t v = lv_obj_get_style_prop(obj, part, LV_STYLE_SHADOW_WIDTH);
 304:lvgl/src/widgets/../core/lv_obj_style_gen.h ****     return (lv_coord_t)v.num;
 305:lvgl/src/widgets/../core/lv_obj_style_gen.h **** }
 306:lvgl/src/widgets/../core/lv_obj_style_gen.h **** 
 307:lvgl/src/widgets/../core/lv_obj_style_gen.h **** static inline lv_coord_t lv_obj_get_style_shadow_ofs_x(const struct _lv_obj_t * obj, uint32_t part)
 308:lvgl/src/widgets/../core/lv_obj_style_gen.h **** {
 309:lvgl/src/widgets/../core/lv_obj_style_gen.h ****     lv_style_value_t v = lv_obj_get_style_prop(obj, part, LV_STYLE_SHADOW_OFS_X);
 310:lvgl/src/widgets/../core/lv_obj_style_gen.h ****     return (lv_coord_t)v.num;
 311:lvgl/src/widgets/../core/lv_obj_style_gen.h **** }
 312:lvgl/src/widgets/../core/lv_obj_style_gen.h **** 
 313:lvgl/src/widgets/../core/lv_obj_style_gen.h **** static inline lv_coord_t lv_obj_get_style_shadow_ofs_y(const struct _lv_obj_t * obj, uint32_t part)
 314:lvgl/src/widgets/../core/lv_obj_style_gen.h **** {
 315:lvgl/src/widgets/../core/lv_obj_style_gen.h ****     lv_style_value_t v = lv_obj_get_style_prop(obj, part, LV_STYLE_SHADOW_OFS_Y);
 316:lvgl/src/widgets/../core/lv_obj_style_gen.h ****     return (lv_coord_t)v.num;
 317:lvgl/src/widgets/../core/lv_obj_style_gen.h **** }
 318:lvgl/src/widgets/../core/lv_obj_style_gen.h **** 
 319:lvgl/src/widgets/../core/lv_obj_style_gen.h **** static inline lv_coord_t lv_obj_get_style_shadow_spread(const struct _lv_obj_t * obj, uint32_t part
 320:lvgl/src/widgets/../core/lv_obj_style_gen.h **** {
 321:lvgl/src/widgets/../core/lv_obj_style_gen.h ****     lv_style_value_t v = lv_obj_get_style_prop(obj, part, LV_STYLE_SHADOW_SPREAD);
 322:lvgl/src/widgets/../core/lv_obj_style_gen.h ****     return (lv_coord_t)v.num;
 323:lvgl/src/widgets/../core/lv_obj_style_gen.h **** }
 324:lvgl/src/widgets/../core/lv_obj_style_gen.h **** 
 325:lvgl/src/widgets/../core/lv_obj_style_gen.h **** static inline lv_color_t lv_obj_get_style_shadow_color(const struct _lv_obj_t * obj, uint32_t part)
 326:lvgl/src/widgets/../core/lv_obj_style_gen.h **** {
 327:lvgl/src/widgets/../core/lv_obj_style_gen.h ****     lv_style_value_t v = lv_obj_get_style_prop(obj, part, LV_STYLE_SHADOW_COLOR);
 328:lvgl/src/widgets/../core/lv_obj_style_gen.h ****     return v.color;
 329:lvgl/src/widgets/../core/lv_obj_style_gen.h **** }
 330:lvgl/src/widgets/../core/lv_obj_style_gen.h **** 
 331:lvgl/src/widgets/../core/lv_obj_style_gen.h **** static inline lv_color_t lv_obj_get_style_shadow_color_filtered(const struct _lv_obj_t * obj, uint3
 332:lvgl/src/widgets/../core/lv_obj_style_gen.h **** {
 333:lvgl/src/widgets/../core/lv_obj_style_gen.h ****     lv_style_value_t v = _lv_obj_style_apply_color_filter(obj, part, lv_obj_get_style_prop(obj, par
 334:lvgl/src/widgets/../core/lv_obj_style_gen.h ****     return v.color;
 335:lvgl/src/widgets/../core/lv_obj_style_gen.h **** }
 336:lvgl/src/widgets/../core/lv_obj_style_gen.h **** 
 337:lvgl/src/widgets/../core/lv_obj_style_gen.h **** static inline lv_opa_t lv_obj_get_style_shadow_opa(const struct _lv_obj_t * obj, uint32_t part)
 338:lvgl/src/widgets/../core/lv_obj_style_gen.h **** {
 339:lvgl/src/widgets/../core/lv_obj_style_gen.h ****     lv_style_value_t v = lv_obj_get_style_prop(obj, part, LV_STYLE_SHADOW_OPA);
 340:lvgl/src/widgets/../core/lv_obj_style_gen.h ****     return (lv_opa_t)v.num;
 341:lvgl/src/widgets/../core/lv_obj_style_gen.h **** }
 342:lvgl/src/widgets/../core/lv_obj_style_gen.h **** 
 343:lvgl/src/widgets/../core/lv_obj_style_gen.h **** static inline lv_opa_t lv_obj_get_style_img_opa(const struct _lv_obj_t * obj, uint32_t part)
 344:lvgl/src/widgets/../core/lv_obj_style_gen.h **** {
 345:lvgl/src/widgets/../core/lv_obj_style_gen.h ****     lv_style_value_t v = lv_obj_get_style_prop(obj, part, LV_STYLE_IMG_OPA);
 346:lvgl/src/widgets/../core/lv_obj_style_gen.h ****     return (lv_opa_t)v.num;
 347:lvgl/src/widgets/../core/lv_obj_style_gen.h **** }
 348:lvgl/src/widgets/../core/lv_obj_style_gen.h **** 
 349:lvgl/src/widgets/../core/lv_obj_style_gen.h **** static inline lv_color_t lv_obj_get_style_img_recolor(const struct _lv_obj_t * obj, uint32_t part)
 350:lvgl/src/widgets/../core/lv_obj_style_gen.h **** {
 351:lvgl/src/widgets/../core/lv_obj_style_gen.h ****     lv_style_value_t v = lv_obj_get_style_prop(obj, part, LV_STYLE_IMG_RECOLOR);
 352:lvgl/src/widgets/../core/lv_obj_style_gen.h ****     return v.color;
 353:lvgl/src/widgets/../core/lv_obj_style_gen.h **** }
 354:lvgl/src/widgets/../core/lv_obj_style_gen.h **** 
 355:lvgl/src/widgets/../core/lv_obj_style_gen.h **** static inline lv_color_t lv_obj_get_style_img_recolor_filtered(const struct _lv_obj_t * obj, uint32
 356:lvgl/src/widgets/../core/lv_obj_style_gen.h **** {
ARM GAS  C:\Users\OSD\AppData\Local\Temp\ccnvvkrZ.s 			page 79


 357:lvgl/src/widgets/../core/lv_obj_style_gen.h ****     lv_style_value_t v = _lv_obj_style_apply_color_filter(obj, part, lv_obj_get_style_prop(obj, par
 358:lvgl/src/widgets/../core/lv_obj_style_gen.h ****     return v.color;
 359:lvgl/src/widgets/../core/lv_obj_style_gen.h **** }
 360:lvgl/src/widgets/../core/lv_obj_style_gen.h **** 
 361:lvgl/src/widgets/../core/lv_obj_style_gen.h **** static inline lv_opa_t lv_obj_get_style_img_recolor_opa(const struct _lv_obj_t * obj, uint32_t part
 362:lvgl/src/widgets/../core/lv_obj_style_gen.h **** {
 363:lvgl/src/widgets/../core/lv_obj_style_gen.h ****     lv_style_value_t v = lv_obj_get_style_prop(obj, part, LV_STYLE_IMG_RECOLOR_OPA);
 364:lvgl/src/widgets/../core/lv_obj_style_gen.h ****     return (lv_opa_t)v.num;
 365:lvgl/src/widgets/../core/lv_obj_style_gen.h **** }
 366:lvgl/src/widgets/../core/lv_obj_style_gen.h **** 
 367:lvgl/src/widgets/../core/lv_obj_style_gen.h **** static inline lv_coord_t lv_obj_get_style_line_width(const struct _lv_obj_t * obj, uint32_t part)
 368:lvgl/src/widgets/../core/lv_obj_style_gen.h **** {
 369:lvgl/src/widgets/../core/lv_obj_style_gen.h ****     lv_style_value_t v = lv_obj_get_style_prop(obj, part, LV_STYLE_LINE_WIDTH);
 370:lvgl/src/widgets/../core/lv_obj_style_gen.h ****     return (lv_coord_t)v.num;
 371:lvgl/src/widgets/../core/lv_obj_style_gen.h **** }
 372:lvgl/src/widgets/../core/lv_obj_style_gen.h **** 
 373:lvgl/src/widgets/../core/lv_obj_style_gen.h **** static inline lv_coord_t lv_obj_get_style_line_dash_width(const struct _lv_obj_t * obj, uint32_t pa
 374:lvgl/src/widgets/../core/lv_obj_style_gen.h **** {
 375:lvgl/src/widgets/../core/lv_obj_style_gen.h ****     lv_style_value_t v = lv_obj_get_style_prop(obj, part, LV_STYLE_LINE_DASH_WIDTH);
 376:lvgl/src/widgets/../core/lv_obj_style_gen.h ****     return (lv_coord_t)v.num;
 377:lvgl/src/widgets/../core/lv_obj_style_gen.h **** }
 378:lvgl/src/widgets/../core/lv_obj_style_gen.h **** 
 379:lvgl/src/widgets/../core/lv_obj_style_gen.h **** static inline lv_coord_t lv_obj_get_style_line_dash_gap(const struct _lv_obj_t * obj, uint32_t part
 380:lvgl/src/widgets/../core/lv_obj_style_gen.h **** {
 381:lvgl/src/widgets/../core/lv_obj_style_gen.h ****     lv_style_value_t v = lv_obj_get_style_prop(obj, part, LV_STYLE_LINE_DASH_GAP);
 382:lvgl/src/widgets/../core/lv_obj_style_gen.h ****     return (lv_coord_t)v.num;
 383:lvgl/src/widgets/../core/lv_obj_style_gen.h **** }
 384:lvgl/src/widgets/../core/lv_obj_style_gen.h **** 
 385:lvgl/src/widgets/../core/lv_obj_style_gen.h **** static inline bool lv_obj_get_style_line_rounded(const struct _lv_obj_t * obj, uint32_t part)
 386:lvgl/src/widgets/../core/lv_obj_style_gen.h **** {
 387:lvgl/src/widgets/../core/lv_obj_style_gen.h ****     lv_style_value_t v = lv_obj_get_style_prop(obj, part, LV_STYLE_LINE_ROUNDED);
 388:lvgl/src/widgets/../core/lv_obj_style_gen.h ****     return (bool)v.num;
 389:lvgl/src/widgets/../core/lv_obj_style_gen.h **** }
 390:lvgl/src/widgets/../core/lv_obj_style_gen.h **** 
 391:lvgl/src/widgets/../core/lv_obj_style_gen.h **** static inline lv_color_t lv_obj_get_style_line_color(const struct _lv_obj_t * obj, uint32_t part)
 392:lvgl/src/widgets/../core/lv_obj_style_gen.h **** {
 393:lvgl/src/widgets/../core/lv_obj_style_gen.h ****     lv_style_value_t v = lv_obj_get_style_prop(obj, part, LV_STYLE_LINE_COLOR);
 394:lvgl/src/widgets/../core/lv_obj_style_gen.h ****     return v.color;
 395:lvgl/src/widgets/../core/lv_obj_style_gen.h **** }
 396:lvgl/src/widgets/../core/lv_obj_style_gen.h **** 
 397:lvgl/src/widgets/../core/lv_obj_style_gen.h **** static inline lv_color_t lv_obj_get_style_line_color_filtered(const struct _lv_obj_t * obj, uint32_
 398:lvgl/src/widgets/../core/lv_obj_style_gen.h **** {
 399:lvgl/src/widgets/../core/lv_obj_style_gen.h ****     lv_style_value_t v = _lv_obj_style_apply_color_filter(obj, part, lv_obj_get_style_prop(obj, par
 400:lvgl/src/widgets/../core/lv_obj_style_gen.h ****     return v.color;
 401:lvgl/src/widgets/../core/lv_obj_style_gen.h **** }
 402:lvgl/src/widgets/../core/lv_obj_style_gen.h **** 
 403:lvgl/src/widgets/../core/lv_obj_style_gen.h **** static inline lv_opa_t lv_obj_get_style_line_opa(const struct _lv_obj_t * obj, uint32_t part)
 404:lvgl/src/widgets/../core/lv_obj_style_gen.h **** {
 405:lvgl/src/widgets/../core/lv_obj_style_gen.h ****     lv_style_value_t v = lv_obj_get_style_prop(obj, part, LV_STYLE_LINE_OPA);
 406:lvgl/src/widgets/../core/lv_obj_style_gen.h ****     return (lv_opa_t)v.num;
 407:lvgl/src/widgets/../core/lv_obj_style_gen.h **** }
 408:lvgl/src/widgets/../core/lv_obj_style_gen.h **** 
 409:lvgl/src/widgets/../core/lv_obj_style_gen.h **** static inline lv_coord_t lv_obj_get_style_arc_width(const struct _lv_obj_t * obj, uint32_t part)
 410:lvgl/src/widgets/../core/lv_obj_style_gen.h **** {
 411:lvgl/src/widgets/../core/lv_obj_style_gen.h ****     lv_style_value_t v = lv_obj_get_style_prop(obj, part, LV_STYLE_ARC_WIDTH);
 412:lvgl/src/widgets/../core/lv_obj_style_gen.h ****     return (lv_coord_t)v.num;
 413:lvgl/src/widgets/../core/lv_obj_style_gen.h **** }
ARM GAS  C:\Users\OSD\AppData\Local\Temp\ccnvvkrZ.s 			page 80


 414:lvgl/src/widgets/../core/lv_obj_style_gen.h **** 
 415:lvgl/src/widgets/../core/lv_obj_style_gen.h **** static inline bool lv_obj_get_style_arc_rounded(const struct _lv_obj_t * obj, uint32_t part)
 416:lvgl/src/widgets/../core/lv_obj_style_gen.h **** {
 417:lvgl/src/widgets/../core/lv_obj_style_gen.h ****     lv_style_value_t v = lv_obj_get_style_prop(obj, part, LV_STYLE_ARC_ROUNDED);
 418:lvgl/src/widgets/../core/lv_obj_style_gen.h ****     return (bool)v.num;
 419:lvgl/src/widgets/../core/lv_obj_style_gen.h **** }
 420:lvgl/src/widgets/../core/lv_obj_style_gen.h **** 
 421:lvgl/src/widgets/../core/lv_obj_style_gen.h **** static inline lv_color_t lv_obj_get_style_arc_color(const struct _lv_obj_t * obj, uint32_t part)
 422:lvgl/src/widgets/../core/lv_obj_style_gen.h **** {
 423:lvgl/src/widgets/../core/lv_obj_style_gen.h ****     lv_style_value_t v = lv_obj_get_style_prop(obj, part, LV_STYLE_ARC_COLOR);
 424:lvgl/src/widgets/../core/lv_obj_style_gen.h ****     return v.color;
 425:lvgl/src/widgets/../core/lv_obj_style_gen.h **** }
 426:lvgl/src/widgets/../core/lv_obj_style_gen.h **** 
 427:lvgl/src/widgets/../core/lv_obj_style_gen.h **** static inline lv_color_t lv_obj_get_style_arc_color_filtered(const struct _lv_obj_t * obj, uint32_t
 428:lvgl/src/widgets/../core/lv_obj_style_gen.h **** {
 429:lvgl/src/widgets/../core/lv_obj_style_gen.h ****     lv_style_value_t v = _lv_obj_style_apply_color_filter(obj, part, lv_obj_get_style_prop(obj, par
 430:lvgl/src/widgets/../core/lv_obj_style_gen.h ****     return v.color;
 431:lvgl/src/widgets/../core/lv_obj_style_gen.h **** }
 432:lvgl/src/widgets/../core/lv_obj_style_gen.h **** 
 433:lvgl/src/widgets/../core/lv_obj_style_gen.h **** static inline lv_opa_t lv_obj_get_style_arc_opa(const struct _lv_obj_t * obj, uint32_t part)
 434:lvgl/src/widgets/../core/lv_obj_style_gen.h **** {
 435:lvgl/src/widgets/../core/lv_obj_style_gen.h ****     lv_style_value_t v = lv_obj_get_style_prop(obj, part, LV_STYLE_ARC_OPA);
 436:lvgl/src/widgets/../core/lv_obj_style_gen.h ****     return (lv_opa_t)v.num;
 437:lvgl/src/widgets/../core/lv_obj_style_gen.h **** }
 438:lvgl/src/widgets/../core/lv_obj_style_gen.h **** 
 439:lvgl/src/widgets/../core/lv_obj_style_gen.h **** static inline const void * lv_obj_get_style_arc_img_src(const struct _lv_obj_t * obj, uint32_t part
 440:lvgl/src/widgets/../core/lv_obj_style_gen.h **** {
 441:lvgl/src/widgets/../core/lv_obj_style_gen.h ****     lv_style_value_t v = lv_obj_get_style_prop(obj, part, LV_STYLE_ARC_IMG_SRC);
 442:lvgl/src/widgets/../core/lv_obj_style_gen.h ****     return (const void *)v.ptr;
 443:lvgl/src/widgets/../core/lv_obj_style_gen.h **** }
 444:lvgl/src/widgets/../core/lv_obj_style_gen.h **** 
 445:lvgl/src/widgets/../core/lv_obj_style_gen.h **** static inline lv_color_t lv_obj_get_style_text_color(const struct _lv_obj_t * obj, uint32_t part)
 446:lvgl/src/widgets/../core/lv_obj_style_gen.h **** {
 447:lvgl/src/widgets/../core/lv_obj_style_gen.h ****     lv_style_value_t v = lv_obj_get_style_prop(obj, part, LV_STYLE_TEXT_COLOR);
 448:lvgl/src/widgets/../core/lv_obj_style_gen.h ****     return v.color;
 449:lvgl/src/widgets/../core/lv_obj_style_gen.h **** }
 450:lvgl/src/widgets/../core/lv_obj_style_gen.h **** 
 451:lvgl/src/widgets/../core/lv_obj_style_gen.h **** static inline lv_color_t lv_obj_get_style_text_color_filtered(const struct _lv_obj_t * obj, uint32_
 452:lvgl/src/widgets/../core/lv_obj_style_gen.h **** {
 453:lvgl/src/widgets/../core/lv_obj_style_gen.h ****     lv_style_value_t v = _lv_obj_style_apply_color_filter(obj, part, lv_obj_get_style_prop(obj, par
 454:lvgl/src/widgets/../core/lv_obj_style_gen.h ****     return v.color;
 455:lvgl/src/widgets/../core/lv_obj_style_gen.h **** }
 456:lvgl/src/widgets/../core/lv_obj_style_gen.h **** 
 457:lvgl/src/widgets/../core/lv_obj_style_gen.h **** static inline lv_opa_t lv_obj_get_style_text_opa(const struct _lv_obj_t * obj, uint32_t part)
 458:lvgl/src/widgets/../core/lv_obj_style_gen.h **** {
 459:lvgl/src/widgets/../core/lv_obj_style_gen.h ****     lv_style_value_t v = lv_obj_get_style_prop(obj, part, LV_STYLE_TEXT_OPA);
 460:lvgl/src/widgets/../core/lv_obj_style_gen.h ****     return (lv_opa_t)v.num;
 461:lvgl/src/widgets/../core/lv_obj_style_gen.h **** }
 462:lvgl/src/widgets/../core/lv_obj_style_gen.h **** 
 463:lvgl/src/widgets/../core/lv_obj_style_gen.h **** static inline const lv_font_t * lv_obj_get_style_text_font(const struct _lv_obj_t * obj, uint32_t p
 464:lvgl/src/widgets/../core/lv_obj_style_gen.h **** {
 465:lvgl/src/widgets/../core/lv_obj_style_gen.h ****     lv_style_value_t v = lv_obj_get_style_prop(obj, part, LV_STYLE_TEXT_FONT);
 466:lvgl/src/widgets/../core/lv_obj_style_gen.h ****     return (const lv_font_t *)v.ptr;
 467:lvgl/src/widgets/../core/lv_obj_style_gen.h **** }
 468:lvgl/src/widgets/../core/lv_obj_style_gen.h **** 
 469:lvgl/src/widgets/../core/lv_obj_style_gen.h **** static inline lv_coord_t lv_obj_get_style_text_letter_space(const struct _lv_obj_t * obj, uint32_t 
 470:lvgl/src/widgets/../core/lv_obj_style_gen.h **** {
ARM GAS  C:\Users\OSD\AppData\Local\Temp\ccnvvkrZ.s 			page 81


 471:lvgl/src/widgets/../core/lv_obj_style_gen.h ****     lv_style_value_t v = lv_obj_get_style_prop(obj, part, LV_STYLE_TEXT_LETTER_SPACE);
 472:lvgl/src/widgets/../core/lv_obj_style_gen.h ****     return (lv_coord_t)v.num;
 473:lvgl/src/widgets/../core/lv_obj_style_gen.h **** }
 474:lvgl/src/widgets/../core/lv_obj_style_gen.h **** 
 475:lvgl/src/widgets/../core/lv_obj_style_gen.h **** static inline lv_coord_t lv_obj_get_style_text_line_space(const struct _lv_obj_t * obj, uint32_t pa
 476:lvgl/src/widgets/../core/lv_obj_style_gen.h **** {
 477:lvgl/src/widgets/../core/lv_obj_style_gen.h ****     lv_style_value_t v = lv_obj_get_style_prop(obj, part, LV_STYLE_TEXT_LINE_SPACE);
 478:lvgl/src/widgets/../core/lv_obj_style_gen.h ****     return (lv_coord_t)v.num;
 479:lvgl/src/widgets/../core/lv_obj_style_gen.h **** }
 480:lvgl/src/widgets/../core/lv_obj_style_gen.h **** 
 481:lvgl/src/widgets/../core/lv_obj_style_gen.h **** static inline lv_text_decor_t lv_obj_get_style_text_decor(const struct _lv_obj_t * obj, uint32_t pa
 482:lvgl/src/widgets/../core/lv_obj_style_gen.h **** {
 483:lvgl/src/widgets/../core/lv_obj_style_gen.h ****     lv_style_value_t v = lv_obj_get_style_prop(obj, part, LV_STYLE_TEXT_DECOR);
 484:lvgl/src/widgets/../core/lv_obj_style_gen.h ****     return (lv_text_decor_t)v.num;
 485:lvgl/src/widgets/../core/lv_obj_style_gen.h **** }
 486:lvgl/src/widgets/../core/lv_obj_style_gen.h **** 
 487:lvgl/src/widgets/../core/lv_obj_style_gen.h **** static inline lv_text_align_t lv_obj_get_style_text_align(const struct _lv_obj_t * obj, uint32_t pa
 488:lvgl/src/widgets/../core/lv_obj_style_gen.h **** {
 489:lvgl/src/widgets/../core/lv_obj_style_gen.h ****     lv_style_value_t v = lv_obj_get_style_prop(obj, part, LV_STYLE_TEXT_ALIGN);
 490:lvgl/src/widgets/../core/lv_obj_style_gen.h ****     return (lv_text_align_t)v.num;
 491:lvgl/src/widgets/../core/lv_obj_style_gen.h **** }
 492:lvgl/src/widgets/../core/lv_obj_style_gen.h **** 
 493:lvgl/src/widgets/../core/lv_obj_style_gen.h **** static inline lv_coord_t lv_obj_get_style_radius(const struct _lv_obj_t * obj, uint32_t part)
 494:lvgl/src/widgets/../core/lv_obj_style_gen.h **** {
 495:lvgl/src/widgets/../core/lv_obj_style_gen.h ****     lv_style_value_t v = lv_obj_get_style_prop(obj, part, LV_STYLE_RADIUS);
 496:lvgl/src/widgets/../core/lv_obj_style_gen.h ****     return (lv_coord_t)v.num;
 497:lvgl/src/widgets/../core/lv_obj_style_gen.h **** }
 498:lvgl/src/widgets/../core/lv_obj_style_gen.h **** 
 499:lvgl/src/widgets/../core/lv_obj_style_gen.h **** static inline bool lv_obj_get_style_clip_corner(const struct _lv_obj_t * obj, uint32_t part)
 500:lvgl/src/widgets/../core/lv_obj_style_gen.h **** {
 501:lvgl/src/widgets/../core/lv_obj_style_gen.h ****     lv_style_value_t v = lv_obj_get_style_prop(obj, part, LV_STYLE_CLIP_CORNER);
 502:lvgl/src/widgets/../core/lv_obj_style_gen.h ****     return (bool)v.num;
 503:lvgl/src/widgets/../core/lv_obj_style_gen.h **** }
 504:lvgl/src/widgets/../core/lv_obj_style_gen.h **** 
 505:lvgl/src/widgets/../core/lv_obj_style_gen.h **** static inline lv_opa_t lv_obj_get_style_opa(const struct _lv_obj_t * obj, uint32_t part)
 506:lvgl/src/widgets/../core/lv_obj_style_gen.h **** {
 507:lvgl/src/widgets/../core/lv_obj_style_gen.h ****     lv_style_value_t v = lv_obj_get_style_prop(obj, part, LV_STYLE_OPA);
 508:lvgl/src/widgets/../core/lv_obj_style_gen.h ****     return (lv_opa_t)v.num;
 509:lvgl/src/widgets/../core/lv_obj_style_gen.h **** }
 510:lvgl/src/widgets/../core/lv_obj_style_gen.h **** 
 511:lvgl/src/widgets/../core/lv_obj_style_gen.h **** static inline lv_opa_t lv_obj_get_style_opa_layered(const struct _lv_obj_t * obj, uint32_t part)
 512:lvgl/src/widgets/../core/lv_obj_style_gen.h **** {
 513:lvgl/src/widgets/../core/lv_obj_style_gen.h ****     lv_style_value_t v = lv_obj_get_style_prop(obj, part, LV_STYLE_OPA_LAYERED);
 514:lvgl/src/widgets/../core/lv_obj_style_gen.h ****     return (lv_opa_t)v.num;
 515:lvgl/src/widgets/../core/lv_obj_style_gen.h **** }
 516:lvgl/src/widgets/../core/lv_obj_style_gen.h **** 
 517:lvgl/src/widgets/../core/lv_obj_style_gen.h **** static inline const lv_color_filter_dsc_t * lv_obj_get_style_color_filter_dsc(const struct _lv_obj_
 518:lvgl/src/widgets/../core/lv_obj_style_gen.h **** {
 519:lvgl/src/widgets/../core/lv_obj_style_gen.h ****     lv_style_value_t v = lv_obj_get_style_prop(obj, part, LV_STYLE_COLOR_FILTER_DSC);
 520:lvgl/src/widgets/../core/lv_obj_style_gen.h ****     return (const lv_color_filter_dsc_t *)v.ptr;
 521:lvgl/src/widgets/../core/lv_obj_style_gen.h **** }
 522:lvgl/src/widgets/../core/lv_obj_style_gen.h **** 
 523:lvgl/src/widgets/../core/lv_obj_style_gen.h **** static inline lv_opa_t lv_obj_get_style_color_filter_opa(const struct _lv_obj_t * obj, uint32_t par
 524:lvgl/src/widgets/../core/lv_obj_style_gen.h **** {
 525:lvgl/src/widgets/../core/lv_obj_style_gen.h ****     lv_style_value_t v = lv_obj_get_style_prop(obj, part, LV_STYLE_COLOR_FILTER_OPA);
 526:lvgl/src/widgets/../core/lv_obj_style_gen.h ****     return (lv_opa_t)v.num;
 527:lvgl/src/widgets/../core/lv_obj_style_gen.h **** }
ARM GAS  C:\Users\OSD\AppData\Local\Temp\ccnvvkrZ.s 			page 82


 528:lvgl/src/widgets/../core/lv_obj_style_gen.h **** 
 529:lvgl/src/widgets/../core/lv_obj_style_gen.h **** static inline const lv_anim_t * lv_obj_get_style_anim(const struct _lv_obj_t * obj, uint32_t part)
 530:lvgl/src/widgets/../core/lv_obj_style_gen.h **** {
 531:lvgl/src/widgets/../core/lv_obj_style_gen.h ****     lv_style_value_t v = lv_obj_get_style_prop(obj, part, LV_STYLE_ANIM);
 532:lvgl/src/widgets/../core/lv_obj_style_gen.h ****     return (const lv_anim_t *)v.ptr;
 533:lvgl/src/widgets/../core/lv_obj_style_gen.h **** }
 534:lvgl/src/widgets/../core/lv_obj_style_gen.h **** 
 535:lvgl/src/widgets/../core/lv_obj_style_gen.h **** static inline uint32_t lv_obj_get_style_anim_time(const struct _lv_obj_t * obj, uint32_t part)
 536:lvgl/src/widgets/../core/lv_obj_style_gen.h **** {
 537:lvgl/src/widgets/../core/lv_obj_style_gen.h ****     lv_style_value_t v = lv_obj_get_style_prop(obj, part, LV_STYLE_ANIM_TIME);
 538:lvgl/src/widgets/../core/lv_obj_style_gen.h ****     return (uint32_t)v.num;
 539:lvgl/src/widgets/../core/lv_obj_style_gen.h **** }
 540:lvgl/src/widgets/../core/lv_obj_style_gen.h **** 
 541:lvgl/src/widgets/../core/lv_obj_style_gen.h **** static inline uint32_t lv_obj_get_style_anim_speed(const struct _lv_obj_t * obj, uint32_t part)
 542:lvgl/src/widgets/../core/lv_obj_style_gen.h **** {
 543:lvgl/src/widgets/../core/lv_obj_style_gen.h ****     lv_style_value_t v = lv_obj_get_style_prop(obj, part, LV_STYLE_ANIM_SPEED);
 544:lvgl/src/widgets/../core/lv_obj_style_gen.h ****     return (uint32_t)v.num;
 545:lvgl/src/widgets/../core/lv_obj_style_gen.h **** }
 546:lvgl/src/widgets/../core/lv_obj_style_gen.h **** 
 547:lvgl/src/widgets/../core/lv_obj_style_gen.h **** static inline const lv_style_transition_dsc_t * lv_obj_get_style_transition(const struct _lv_obj_t 
 548:lvgl/src/widgets/../core/lv_obj_style_gen.h **** {
 549:lvgl/src/widgets/../core/lv_obj_style_gen.h ****     lv_style_value_t v = lv_obj_get_style_prop(obj, part, LV_STYLE_TRANSITION);
 550:lvgl/src/widgets/../core/lv_obj_style_gen.h ****     return (const lv_style_transition_dsc_t *)v.ptr;
 551:lvgl/src/widgets/../core/lv_obj_style_gen.h **** }
 552:lvgl/src/widgets/../core/lv_obj_style_gen.h **** 
 553:lvgl/src/widgets/../core/lv_obj_style_gen.h **** static inline lv_blend_mode_t lv_obj_get_style_blend_mode(const struct _lv_obj_t * obj, uint32_t pa
 554:lvgl/src/widgets/../core/lv_obj_style_gen.h **** {
 555:lvgl/src/widgets/../core/lv_obj_style_gen.h ****     lv_style_value_t v = lv_obj_get_style_prop(obj, part, LV_STYLE_BLEND_MODE);
 556:lvgl/src/widgets/../core/lv_obj_style_gen.h ****     return (lv_blend_mode_t)v.num;
 557:lvgl/src/widgets/../core/lv_obj_style_gen.h **** }
 558:lvgl/src/widgets/../core/lv_obj_style_gen.h **** 
 559:lvgl/src/widgets/../core/lv_obj_style_gen.h **** static inline uint16_t lv_obj_get_style_layout(const struct _lv_obj_t * obj, uint32_t part)
 560:lvgl/src/widgets/../core/lv_obj_style_gen.h **** {
 561:lvgl/src/widgets/../core/lv_obj_style_gen.h ****     lv_style_value_t v = lv_obj_get_style_prop(obj, part, LV_STYLE_LAYOUT);
 562:lvgl/src/widgets/../core/lv_obj_style_gen.h ****     return (uint16_t)v.num;
 563:lvgl/src/widgets/../core/lv_obj_style_gen.h **** }
 564:lvgl/src/widgets/../core/lv_obj_style_gen.h **** 
 565:lvgl/src/widgets/../core/lv_obj_style_gen.h **** static inline lv_base_dir_t lv_obj_get_style_base_dir(const struct _lv_obj_t * obj, uint32_t part)
 2288              		.loc 2 565 29 view .LVU751
 2289              	.LBB124:
 566:lvgl/src/widgets/../core/lv_obj_style_gen.h **** {
 567:lvgl/src/widgets/../core/lv_obj_style_gen.h ****     lv_style_value_t v = lv_obj_get_style_prop(obj, part, LV_STYLE_BASE_DIR);
 2290              		.loc 2 567 5 view .LVU752
 2291              		.loc 2 567 26 is_stmt 0 view .LVU753
 2292 0018 1622     		movs	r2, #22
 2293 001a 0021     		movs	r1, #0
 2294 001c 5846     		mov	r0, fp
 2295 001e FFF7FEFF 		bl	lv_obj_get_style_prop
 2296              	.LVL201:
 568:lvgl/src/widgets/../core/lv_obj_style_gen.h ****     return (lv_base_dir_t)v.num;
 2297              		.loc 2 568 5 is_stmt 1 view .LVU754
 2298              		.loc 2 568 12 is_stmt 0 view .LVU755
 2299 0022 C3B2     		uxtb	r3, r0
 2300 0024 0793     		str	r3, [sp, #28]
 2301              	.LVL202:
 2302              		.loc 2 568 12 view .LVU756
 2303              	.LBE124:
ARM GAS  C:\Users\OSD\AppData\Local\Temp\ccnvvkrZ.s 			page 83


 2304              	.LBE123:
 107:lvgl/src/widgets/lv_btnmatrix.c ****     lv_coord_t ptop = lv_obj_get_style_pad_top(obj, LV_PART_MAIN);
 2305              		.loc 1 107 5 is_stmt 1 view .LVU757
 2306              	.LBB125:
 2307              	.LBI125:
 115:lvgl/src/widgets/../core/lv_obj_style_gen.h **** {
 2308              		.loc 2 115 26 view .LVU758
 2309              	.LBB126:
 117:lvgl/src/widgets/../core/lv_obj_style_gen.h ****     return (lv_coord_t)v.num;
 2310              		.loc 2 117 5 view .LVU759
 117:lvgl/src/widgets/../core/lv_obj_style_gen.h ****     return (lv_coord_t)v.num;
 2311              		.loc 2 117 26 is_stmt 0 view .LVU760
 2312 0026 1222     		movs	r2, #18
 2313 0028 0021     		movs	r1, #0
 2314 002a 5846     		mov	r0, fp
 2315 002c FFF7FEFF 		bl	lv_obj_get_style_prop
 2316              	.LVL203:
 2317 0030 0690     		str	r0, [sp, #24]
 118:lvgl/src/widgets/../core/lv_obj_style_gen.h **** }
 2318              		.loc 2 118 5 is_stmt 1 view .LVU761
 2319              	.LVL204:
 118:lvgl/src/widgets/../core/lv_obj_style_gen.h **** }
 2320              		.loc 2 118 5 is_stmt 0 view .LVU762
 2321              	.LBE126:
 2322              	.LBE125:
 108:lvgl/src/widgets/lv_btnmatrix.c ****     lv_coord_t prow = lv_obj_get_style_pad_row(obj, LV_PART_MAIN);
 2323              		.loc 1 108 5 is_stmt 1 view .LVU763
 2324              	.LBB127:
 2325              	.LBI127:
 103:lvgl/src/widgets/../core/lv_obj_style_gen.h **** {
 2326              		.loc 2 103 26 view .LVU764
 2327              	.LBB128:
 105:lvgl/src/widgets/../core/lv_obj_style_gen.h ****     return (lv_coord_t)v.num;
 2328              		.loc 2 105 5 view .LVU765
 105:lvgl/src/widgets/../core/lv_obj_style_gen.h ****     return (lv_coord_t)v.num;
 2329              		.loc 2 105 26 is_stmt 0 view .LVU766
 2330 0032 1022     		movs	r2, #16
 2331 0034 0021     		movs	r1, #0
 2332 0036 5846     		mov	r0, fp
 2333 0038 FFF7FEFF 		bl	lv_obj_get_style_prop
 2334              	.LVL205:
 2335 003c 0F90     		str	r0, [sp, #60]
 106:lvgl/src/widgets/../core/lv_obj_style_gen.h **** }
 2336              		.loc 2 106 5 is_stmt 1 view .LVU767
 2337              	.LVL206:
 106:lvgl/src/widgets/../core/lv_obj_style_gen.h **** }
 2338              		.loc 2 106 5 is_stmt 0 view .LVU768
 2339              	.LBE128:
 2340              	.LBE127:
 109:lvgl/src/widgets/lv_btnmatrix.c ****     lv_coord_t pcol = lv_obj_get_style_pad_column(obj, LV_PART_MAIN);
 2341              		.loc 1 109 5 is_stmt 1 view .LVU769
 2342              	.LBB129:
 2343              	.LBI129:
 127:lvgl/src/widgets/../core/lv_obj_style_gen.h **** {
 2344              		.loc 2 127 26 view .LVU770
 2345              	.LBB130:
 129:lvgl/src/widgets/../core/lv_obj_style_gen.h ****     return (lv_coord_t)v.num;
ARM GAS  C:\Users\OSD\AppData\Local\Temp\ccnvvkrZ.s 			page 84


 2346              		.loc 2 129 5 view .LVU771
 129:lvgl/src/widgets/../core/lv_obj_style_gen.h ****     return (lv_coord_t)v.num;
 2347              		.loc 2 129 26 is_stmt 0 view .LVU772
 2348 003e 1422     		movs	r2, #20
 2349 0040 0021     		movs	r1, #0
 2350 0042 5846     		mov	r0, fp
 2351 0044 FFF7FEFF 		bl	lv_obj_get_style_prop
 2352              	.LVL207:
 2353 0048 0446     		mov	r4, r0
 2354              	.LVL208:
 130:lvgl/src/widgets/../core/lv_obj_style_gen.h **** }
 2355              		.loc 2 130 5 is_stmt 1 view .LVU773
 130:lvgl/src/widgets/../core/lv_obj_style_gen.h **** }
 2356              		.loc 2 130 12 is_stmt 0 view .LVU774
 2357 004a 03B2     		sxth	r3, r0
 2358 004c 0E93     		str	r3, [sp, #56]
 2359              	.LVL209:
 130:lvgl/src/widgets/../core/lv_obj_style_gen.h **** }
 2360              		.loc 2 130 12 view .LVU775
 2361              	.LBE130:
 2362              	.LBE129:
 110:lvgl/src/widgets/lv_btnmatrix.c **** 
 2363              		.loc 1 110 5 is_stmt 1 view .LVU776
 2364              	.LBB131:
 2365              	.LBI131:
 133:lvgl/src/widgets/../core/lv_obj_style_gen.h **** {
 2366              		.loc 2 133 26 view .LVU777
 2367              	.LBB132:
 135:lvgl/src/widgets/../core/lv_obj_style_gen.h ****     return (lv_coord_t)v.num;
 2368              		.loc 2 135 5 view .LVU778
 135:lvgl/src/widgets/../core/lv_obj_style_gen.h ****     return (lv_coord_t)v.num;
 2369              		.loc 2 135 26 is_stmt 0 view .LVU779
 2370 004e 1522     		movs	r2, #21
 2371 0050 0021     		movs	r1, #0
 2372 0052 5846     		mov	r0, fp
 135:lvgl/src/widgets/../core/lv_obj_style_gen.h ****     return (lv_coord_t)v.num;
 2373              		.loc 2 135 26 view .LVU780
 2374 0054 FFF7FEFF 		bl	lv_obj_get_style_prop
 2375              	.LVL210:
 2376 0058 0D90     		str	r0, [sp, #52]
 136:lvgl/src/widgets/../core/lv_obj_style_gen.h **** }
 2377              		.loc 2 136 5 is_stmt 1 view .LVU781
 136:lvgl/src/widgets/../core/lv_obj_style_gen.h **** }
 2378              		.loc 2 136 12 is_stmt 0 view .LVU782
 2379 005a 03B2     		sxth	r3, r0
 2380 005c 0C93     		str	r3, [sp, #48]
 2381              	.LVL211:
 136:lvgl/src/widgets/../core/lv_obj_style_gen.h **** }
 2382              		.loc 2 136 12 view .LVU783
 2383              	.LBE132:
 2384              	.LBE131:
 112:lvgl/src/widgets/lv_btnmatrix.c ****     lv_coord_t max_h            = lv_obj_get_content_height(obj);
 2385              		.loc 1 112 5 is_stmt 1 view .LVU784
 112:lvgl/src/widgets/lv_btnmatrix.c ****     lv_coord_t max_h            = lv_obj_get_content_height(obj);
 2386              		.loc 1 112 35 is_stmt 0 view .LVU785
 2387 005e 5846     		mov	r0, fp
 2388 0060 FFF7FEFF 		bl	lv_obj_get_content_width
ARM GAS  C:\Users\OSD\AppData\Local\Temp\ccnvvkrZ.s 			page 85


 2389              	.LVL212:
 2390 0064 0A90     		str	r0, [sp, #40]
 2391              	.LVL213:
 113:lvgl/src/widgets/lv_btnmatrix.c **** 
 2392              		.loc 1 113 5 is_stmt 1 view .LVU786
 113:lvgl/src/widgets/lv_btnmatrix.c **** 
 2393              		.loc 1 113 35 is_stmt 0 view .LVU787
 2394 0066 5846     		mov	r0, fp
 2395 0068 FFF7FEFF 		bl	lv_obj_get_content_height
 2396              	.LVL214:
 116:lvgl/src/widgets/lv_btnmatrix.c **** 
 2397              		.loc 1 116 5 is_stmt 1 view .LVU788
 116:lvgl/src/widgets/lv_btnmatrix.c **** 
 2398              		.loc 1 116 52 is_stmt 0 view .LVU789
 2399 006c BBF83230 		ldrh	r3, [fp, #50]
 116:lvgl/src/widgets/lv_btnmatrix.c **** 
 2400              		.loc 1 116 37 view .LVU790
 2401 0070 013B     		subs	r3, r3, #1
 116:lvgl/src/widgets/lv_btnmatrix.c **** 
 2402              		.loc 1 116 37 view .LVU791
 2403 0072 13FB04F4 		smulbb	r4, r3, r4
 116:lvgl/src/widgets/lv_btnmatrix.c **** 
 2404              		.loc 1 116 37 view .LVU792
 2405 0076 041B     		subs	r4, r0, r4
 116:lvgl/src/widgets/lv_btnmatrix.c **** 
 2406              		.loc 1 116 16 view .LVU793
 2407 0078 23B2     		sxth	r3, r4
 2408 007a 0B93     		str	r3, [sp, #44]
 2409              	.LVL215:
 120:lvgl/src/widgets/lv_btnmatrix.c ****     uint32_t btn_tot_i = 0; /*Act. index of button areas*/
 2410              		.loc 1 120 5 is_stmt 1 view .LVU794
 121:lvgl/src/widgets/lv_btnmatrix.c ****     const char ** map_row = map;
 2411              		.loc 1 121 5 view .LVU795
 122:lvgl/src/widgets/lv_btnmatrix.c **** 
 2412              		.loc 1 122 5 view .LVU796
 125:lvgl/src/widgets/lv_btnmatrix.c ****     for(row = 0; row < btnm->row_cnt; row++) {
 2413              		.loc 1 125 5 view .LVU797
 126:lvgl/src/widgets/lv_btnmatrix.c ****         uint16_t unit_cnt = 0;           /*Number of units in a row*/
 2414              		.loc 1 126 5 view .LVU798
 126:lvgl/src/widgets/lv_btnmatrix.c ****         uint16_t unit_cnt = 0;           /*Number of units in a row*/
 2415              		.loc 1 126 13 is_stmt 0 view .LVU799
 2416 007c 0023     		movs	r3, #0
 2417 007e 0593     		str	r3, [sp, #20]
 121:lvgl/src/widgets/lv_btnmatrix.c ****     const char ** map_row = map;
 2418              		.loc 1 121 14 view .LVU800
 2419 0080 9A46     		mov	r10, r3
 126:lvgl/src/widgets/lv_btnmatrix.c ****         uint16_t unit_cnt = 0;           /*Number of units in a row*/
 2420              		.loc 1 126 5 view .LVU801
 2421 0082 1EE0     		b	.L125
 2422              	.LVL216:
 2423              	.L127:
 2424              	.LBB133:
 131:lvgl/src/widgets/lv_btnmatrix.c ****             btn_cnt++;
 2425              		.loc 1 131 13 is_stmt 1 view .LVU802
 131:lvgl/src/widgets/lv_btnmatrix.c ****             btn_cnt++;
 2426              		.loc 1 131 46 is_stmt 0 view .LVU803
 2427 0084 DBF82C30 		ldr	r3, [fp, #44]
ARM GAS  C:\Users\OSD\AppData\Local\Temp\ccnvvkrZ.s 			page 86


 131:lvgl/src/widgets/lv_btnmatrix.c ****             btn_cnt++;
 2428              		.loc 1 131 68 view .LVU804
 2429 0088 5644     		add	r6, r6, r10
 131:lvgl/src/widgets/lv_btnmatrix.c ****             btn_cnt++;
 2430              		.loc 1 131 25 view .LVU805
 2431 008a 33F81600 		ldrh	r0, [r3, r6, lsl #1]
 2432 008e FFF7FEFF 		bl	get_button_width
 2433              	.LVL217:
 131:lvgl/src/widgets/lv_btnmatrix.c ****             btn_cnt++;
 2434              		.loc 1 131 22 view .LVU806
 2435 0092 15FA80F0 		uxtah	r0, r5, r0
 2436 0096 85B2     		uxth	r5, r0
 2437              	.LVL218:
 132:lvgl/src/widgets/lv_btnmatrix.c ****         }
 2438              		.loc 1 132 13 is_stmt 1 view .LVU807
 132:lvgl/src/widgets/lv_btnmatrix.c ****         }
 2439              		.loc 1 132 20 is_stmt 0 view .LVU808
 2440 0098 0134     		adds	r4, r4, #1
 2441              	.LVL219:
 132:lvgl/src/widgets/lv_btnmatrix.c ****         }
 2442              		.loc 1 132 20 view .LVU809
 2443 009a A4B2     		uxth	r4, r4
 2444              	.LVL220:
 2445              	.L134:
 130:lvgl/src/widgets/lv_btnmatrix.c ****             unit_cnt += get_button_width(btnm->ctrl_bits[btn_tot_i + btn_cnt]);
 2446              		.loc 1 130 14 is_stmt 1 view .LVU810
 130:lvgl/src/widgets/lv_btnmatrix.c ****             unit_cnt += get_button_width(btnm->ctrl_bits[btn_tot_i + btn_cnt]);
 2447              		.loc 1 130 22 is_stmt 0 view .LVU811
 2448 009c 2646     		mov	r6, r4
 2449 009e 59F82470 		ldr	r7, [r9, r4, lsl #2]
 130:lvgl/src/widgets/lv_btnmatrix.c ****             unit_cnt += get_button_width(btnm->ctrl_bits[btn_tot_i + btn_cnt]);
 2450              		.loc 1 130 14 view .LVU812
 2451 00a2 3FB1     		cbz	r7, .L126
 130:lvgl/src/widgets/lv_btnmatrix.c ****             unit_cnt += get_button_width(btnm->ctrl_bits[btn_tot_i + btn_cnt]);
 2452              		.loc 1 130 35 discriminator 1 view .LVU813
 2453 00a4 4749     		ldr	r1, .L144
 2454 00a6 3846     		mov	r0, r7
 2455 00a8 FFF7FEFF 		bl	strcmp
 2456              	.LVL221:
 130:lvgl/src/widgets/lv_btnmatrix.c ****             unit_cnt += get_button_width(btnm->ctrl_bits[btn_tot_i + btn_cnt]);
 2457              		.loc 1 130 32 discriminator 1 view .LVU814
 2458 00ac 10B1     		cbz	r0, .L126
 130:lvgl/src/widgets/lv_btnmatrix.c ****             unit_cnt += get_button_width(btnm->ctrl_bits[btn_tot_i + btn_cnt]);
 2459              		.loc 1 130 90 discriminator 2 view .LVU815
 2460 00ae 3B78     		ldrb	r3, [r7]	@ zero_extendqisi2
 130:lvgl/src/widgets/lv_btnmatrix.c ****             unit_cnt += get_button_width(btnm->ctrl_bits[btn_tot_i + btn_cnt]);
 2461              		.loc 1 130 71 discriminator 2 view .LVU816
 2462 00b0 002B     		cmp	r3, #0
 2463 00b2 E7D1     		bne	.L127
 2464              	.L126:
 136:lvgl/src/widgets/lv_btnmatrix.c ****             map_row = &map_row[btn_cnt + 1];       /*Set the map to the next row*/
 2465              		.loc 1 136 9 is_stmt 1 view .LVU817
 136:lvgl/src/widgets/lv_btnmatrix.c ****             map_row = &map_row[btn_cnt + 1];       /*Set the map to the next row*/
 2466              		.loc 1 136 11 is_stmt 0 view .LVU818
 2467 00b4 6CB9     		cbnz	r4, .L128
 137:lvgl/src/widgets/lv_btnmatrix.c ****             continue;
 2468              		.loc 1 137 13 is_stmt 1 view .LVU819
ARM GAS  C:\Users\OSD\AppData\Local\Temp\ccnvvkrZ.s 			page 87


 137:lvgl/src/widgets/lv_btnmatrix.c ****             continue;
 2469              		.loc 1 137 31 is_stmt 0 view .LVU820
 2470 00b6 0136     		adds	r6, r6, #1
 137:lvgl/src/widgets/lv_btnmatrix.c ****             continue;
 2471              		.loc 1 137 21 view .LVU821
 2472 00b8 09EB8609 		add	r9, r9, r6, lsl #2
 2473              	.LVL222:
 138:lvgl/src/widgets/lv_btnmatrix.c ****         }
 2474              		.loc 1 138 13 is_stmt 1 view .LVU822
 2475              	.L129:
 138:lvgl/src/widgets/lv_btnmatrix.c ****         }
 2476              		.loc 1 138 13 is_stmt 0 view .LVU823
 2477              	.LBE133:
 126:lvgl/src/widgets/lv_btnmatrix.c ****         uint16_t unit_cnt = 0;           /*Number of units in a row*/
 2478              		.loc 1 126 39 is_stmt 1 discriminator 2 view .LVU824
 126:lvgl/src/widgets/lv_btnmatrix.c ****         uint16_t unit_cnt = 0;           /*Number of units in a row*/
 2479              		.loc 1 126 42 is_stmt 0 discriminator 2 view .LVU825
 2480 00bc 059B     		ldr	r3, [sp, #20]
 2481 00be 0133     		adds	r3, r3, #1
 2482 00c0 0593     		str	r3, [sp, #20]
 2483              	.LVL223:
 2484              	.L125:
 126:lvgl/src/widgets/lv_btnmatrix.c ****         uint16_t unit_cnt = 0;           /*Number of units in a row*/
 2485              		.loc 1 126 18 is_stmt 1 discriminator 1 view .LVU826
 126:lvgl/src/widgets/lv_btnmatrix.c ****         uint16_t unit_cnt = 0;           /*Number of units in a row*/
 2486              		.loc 1 126 28 is_stmt 0 discriminator 1 view .LVU827
 2487 00c2 BBF83280 		ldrh	r8, [fp, #50]
 126:lvgl/src/widgets/lv_btnmatrix.c ****         uint16_t unit_cnt = 0;           /*Number of units in a row*/
 2488              		.loc 1 126 5 discriminator 1 view .LVU828
 2489 00c6 059B     		ldr	r3, [sp, #20]
 2490 00c8 9845     		cmp	r8, r3
 2491 00ca 71D9     		bls	.L141
 2492              	.LBB137:
 128:lvgl/src/widgets/lv_btnmatrix.c ****         /*Count the buttons and units in this row*/
 2493              		.loc 1 128 18 view .LVU829
 2494 00cc 0024     		movs	r4, #0
 127:lvgl/src/widgets/lv_btnmatrix.c ****         uint16_t btn_cnt = 0;            /*Number of buttons in a row*/
 2495              		.loc 1 127 18 view .LVU830
 2496 00ce 2546     		mov	r5, r4
 2497 00d0 E4E7     		b	.L134
 2498              	.LVL224:
 2499              	.L128:
 141:lvgl/src/widgets/lv_btnmatrix.c ****         lv_coord_t row_y2 = ptop + (max_h_no_gap * (row + 1)) / btnm->row_cnt + row * prow - 1;
 2500              		.loc 1 141 9 is_stmt 1 view .LVU831
 141:lvgl/src/widgets/lv_btnmatrix.c ****         lv_coord_t row_y2 = ptop + (max_h_no_gap * (row + 1)) / btnm->row_cnt + row * prow - 1;
 2501              		.loc 1 141 50 is_stmt 0 view .LVU832
 2502 00d2 0B9F     		ldr	r7, [sp, #44]
 2503 00d4 0598     		ldr	r0, [sp, #20]
 2504 00d6 00FB07F2 		mul	r2, r0, r7
 141:lvgl/src/widgets/lv_btnmatrix.c ****         lv_coord_t row_y2 = ptop + (max_h_no_gap * (row + 1)) / btnm->row_cnt + row * prow - 1;
 2505              		.loc 1 141 57 view .LVU833
 2506 00da B2FBF8F2 		udiv	r2, r2, r8
 141:lvgl/src/widgets/lv_btnmatrix.c ****         lv_coord_t row_y2 = ptop + (max_h_no_gap * (row + 1)) / btnm->row_cnt + row * prow - 1;
 2507              		.loc 1 141 34 view .LVU834
 2508 00de BDF83C30 		ldrh	r3, [sp, #60]
 2509 00e2 1A44     		add	r2, r2, r3
 141:lvgl/src/widgets/lv_btnmatrix.c ****         lv_coord_t row_y2 = ptop + (max_h_no_gap * (row + 1)) / btnm->row_cnt + row * prow - 1;
ARM GAS  C:\Users\OSD\AppData\Local\Temp\ccnvvkrZ.s 			page 88


 2510              		.loc 1 141 73 view .LVU835
 2511 00e4 0E99     		ldr	r1, [sp, #56]
 2512 00e6 11FB00F1 		smulbb	r1, r1, r0
 2513 00ea 89B2     		uxth	r1, r1
 2514 00ec 11FA82F2 		uxtah	r2, r1, r2
 141:lvgl/src/widgets/lv_btnmatrix.c ****         lv_coord_t row_y2 = ptop + (max_h_no_gap * (row + 1)) / btnm->row_cnt + row * prow - 1;
 2515              		.loc 1 141 20 view .LVU836
 2516 00f0 12B2     		sxth	r2, r2
 2517 00f2 0392     		str	r2, [sp, #12]
 2518              	.LVL225:
 142:lvgl/src/widgets/lv_btnmatrix.c **** 
 2519              		.loc 1 142 9 is_stmt 1 view .LVU837
 142:lvgl/src/widgets/lv_btnmatrix.c **** 
 2520              		.loc 1 142 50 is_stmt 0 view .LVU838
 2521 00f4 00FB0772 		mla	r2, r0, r7, r7
 142:lvgl/src/widgets/lv_btnmatrix.c **** 
 2522              		.loc 1 142 63 view .LVU839
 2523 00f8 B2FBF8F7 		udiv	r7, r2, r8
 142:lvgl/src/widgets/lv_btnmatrix.c **** 
 2524              		.loc 1 142 34 view .LVU840
 2525 00fc 3B44     		add	r3, r3, r7
 142:lvgl/src/widgets/lv_btnmatrix.c **** 
 2526              		.loc 1 142 79 view .LVU841
 2527 00fe 11FA83F3 		uxtah	r3, r1, r3
 2528 0102 9BB2     		uxth	r3, r3
 142:lvgl/src/widgets/lv_btnmatrix.c **** 
 2529              		.loc 1 142 92 view .LVU842
 2530 0104 013B     		subs	r3, r3, #1
 142:lvgl/src/widgets/lv_btnmatrix.c **** 
 2531              		.loc 1 142 20 view .LVU843
 2532 0106 1BB2     		sxth	r3, r3
 2533 0108 0493     		str	r3, [sp, #16]
 2534              	.LVL226:
 145:lvgl/src/widgets/lv_btnmatrix.c ****         if(max_w_no_gap < 0) max_w_no_gap = 0;
 2535              		.loc 1 145 9 is_stmt 1 view .LVU844
 145:lvgl/src/widgets/lv_btnmatrix.c ****         if(max_w_no_gap < 0) max_w_no_gap = 0;
 2536              		.loc 1 145 41 is_stmt 0 view .LVU845
 2537 010a BDF82830 		ldrh	r3, [sp, #40]
 2538 010e 0893     		str	r3, [sp, #32]
 2539 0110 013C     		subs	r4, r4, #1
 2540              	.LVL227:
 145:lvgl/src/widgets/lv_btnmatrix.c ****         if(max_w_no_gap < 0) max_w_no_gap = 0;
 2541              		.loc 1 145 41 view .LVU846
 2542 0112 0D9A     		ldr	r2, [sp, #52]
 2543 0114 14FB02F4 		smulbb	r4, r4, r2
 2544 0118 1C1B     		subs	r4, r3, r4
 145:lvgl/src/widgets/lv_btnmatrix.c ****         if(max_w_no_gap < 0) max_w_no_gap = 0;
 2545              		.loc 1 145 20 view .LVU847
 2546 011a 24B2     		sxth	r4, r4
 2547              	.LVL228:
 146:lvgl/src/widgets/lv_btnmatrix.c **** 
 2548              		.loc 1 146 9 is_stmt 1 view .LVU848
 146:lvgl/src/widgets/lv_btnmatrix.c **** 
 2549              		.loc 1 146 11 is_stmt 0 view .LVU849
 2550 011c 002C     		cmp	r4, #0
 2551 011e 06DB     		blt	.L142
 2552              	.LVL229:
ARM GAS  C:\Users\OSD\AppData\Local\Temp\ccnvvkrZ.s 			page 89


 2553              	.L130:
 148:lvgl/src/widgets/lv_btnmatrix.c ****         uint32_t btn;
 2554              		.loc 1 148 9 is_stmt 1 view .LVU850
 149:lvgl/src/widgets/lv_btnmatrix.c ****         for(btn = 0; btn < btn_cnt; btn++, btn_tot_i++, txt_tot_i++) {
 2555              		.loc 1 149 9 view .LVU851
 150:lvgl/src/widgets/lv_btnmatrix.c ****             uint32_t btn_u = get_button_width(btnm->ctrl_bits[btn_tot_i]);
 2556              		.loc 1 150 9 view .LVU852
 150:lvgl/src/widgets/lv_btnmatrix.c ****             uint32_t btn_u = get_button_width(btnm->ctrl_bits[btn_tot_i]);
 2557              		.loc 1 150 17 is_stmt 0 view .LVU853
 2558 0120 0027     		movs	r7, #0
 148:lvgl/src/widgets/lv_btnmatrix.c ****         uint32_t btn;
 2559              		.loc 1 148 18 view .LVU854
 2560 0122 B846     		mov	r8, r7
 2561 0124 CDF82490 		str	r9, [sp, #36]
 2562 0128 DDF83090 		ldr	r9, [sp, #48]
 2563              	.LVL230:
 150:lvgl/src/widgets/lv_btnmatrix.c ****             uint32_t btn_u = get_button_width(btnm->ctrl_bits[btn_tot_i]);
 2564              		.loc 1 150 9 view .LVU855
 2565 012c 13E0     		b	.L131
 2566              	.LVL231:
 2567              	.L142:
 146:lvgl/src/widgets/lv_btnmatrix.c **** 
 2568              		.loc 1 146 43 view .LVU856
 2569 012e 0024     		movs	r4, #0
 2570              	.LVL232:
 146:lvgl/src/widgets/lv_btnmatrix.c **** 
 2571              		.loc 1 146 43 view .LVU857
 2572 0130 F6E7     		b	.L130
 2573              	.LVL233:
 2574              	.L132:
 2575              	.LBB134:
 166:lvgl/src/widgets/lv_btnmatrix.c ****             btn_x2 += pleft;
 2576              		.loc 1 166 13 is_stmt 1 discriminator 2 view .LVU858
 166:lvgl/src/widgets/lv_btnmatrix.c ****             btn_x2 += pleft;
 2577              		.loc 1 166 20 is_stmt 0 discriminator 2 view .LVU859
 2578 0132 BDF81820 		ldrh	r2, [sp, #24]
 2579 0136 1144     		add	r1, r1, r2
 2580              	.LVL234:
 167:lvgl/src/widgets/lv_btnmatrix.c **** 
 2581              		.loc 1 167 13 is_stmt 1 discriminator 2 view .LVU860
 167:lvgl/src/widgets/lv_btnmatrix.c **** 
 2582              		.loc 1 167 20 is_stmt 0 discriminator 2 view .LVU861
 2583 0138 1344     		add	r3, r3, r2
 2584              	.LVL235:
 169:lvgl/src/widgets/lv_btnmatrix.c **** 
 2585              		.loc 1 169 13 is_stmt 1 discriminator 2 view .LVU862
 169:lvgl/src/widgets/lv_btnmatrix.c **** 
 2586              		.loc 1 169 30 is_stmt 0 discriminator 2 view .LVU863
 2587 013a DBF82800 		ldr	r0, [fp, #40]
 169:lvgl/src/widgets/lv_btnmatrix.c **** 
 2588              		.loc 1 169 13 discriminator 2 view .LVU864
 2589 013e 049A     		ldr	r2, [sp, #16]
 2590 0140 0092     		str	r2, [sp]
 2591 0142 1BB2     		sxth	r3, r3
 169:lvgl/src/widgets/lv_btnmatrix.c **** 
 2592              		.loc 1 169 13 discriminator 2 view .LVU865
 2593 0144 039A     		ldr	r2, [sp, #12]
ARM GAS  C:\Users\OSD\AppData\Local\Temp\ccnvvkrZ.s 			page 90


 2594 0146 09B2     		sxth	r1, r1
 169:lvgl/src/widgets/lv_btnmatrix.c **** 
 2595              		.loc 1 169 13 discriminator 2 view .LVU866
 2596 0148 00EBCA00 		add	r0, r0, r10, lsl #3
 2597 014c FFF7FEFF 		bl	lv_area_set
 2598              	.LVL236:
 171:lvgl/src/widgets/lv_btnmatrix.c ****         }
 2599              		.loc 1 171 13 is_stmt 1 discriminator 2 view .LVU867
 171:lvgl/src/widgets/lv_btnmatrix.c ****         }
 2600              		.loc 1 171 13 is_stmt 0 discriminator 2 view .LVU868
 2601              	.LBE134:
 150:lvgl/src/widgets/lv_btnmatrix.c ****             uint32_t btn_u = get_button_width(btnm->ctrl_bits[btn_tot_i]);
 2602              		.loc 1 150 37 is_stmt 1 discriminator 2 view .LVU869
 150:lvgl/src/widgets/lv_btnmatrix.c ****             uint32_t btn_u = get_button_width(btnm->ctrl_bits[btn_tot_i]);
 2603              		.loc 1 150 40 is_stmt 0 discriminator 2 view .LVU870
 2604 0150 0137     		adds	r7, r7, #1
 2605              	.LVL237:
 150:lvgl/src/widgets/lv_btnmatrix.c ****             uint32_t btn_u = get_button_width(btnm->ctrl_bits[btn_tot_i]);
 2606              		.loc 1 150 53 discriminator 2 view .LVU871
 2607 0152 0AF1010A 		add	r10, r10, #1
 2608              	.LVL238:
 2609              	.L131:
 150:lvgl/src/widgets/lv_btnmatrix.c ****             uint32_t btn_u = get_button_width(btnm->ctrl_bits[btn_tot_i]);
 2610              		.loc 1 150 22 is_stmt 1 discriminator 1 view .LVU872
 150:lvgl/src/widgets/lv_btnmatrix.c ****             uint32_t btn_u = get_button_width(btnm->ctrl_bits[btn_tot_i]);
 2611              		.loc 1 150 9 is_stmt 0 discriminator 1 view .LVU873
 2612 0156 BE42     		cmp	r6, r7
 2613 0158 24D9     		bls	.L143
 2614              	.LBB136:
 151:lvgl/src/widgets/lv_btnmatrix.c **** 
 2615              		.loc 1 151 13 is_stmt 1 view .LVU874
 151:lvgl/src/widgets/lv_btnmatrix.c **** 
 2616              		.loc 1 151 51 is_stmt 0 view .LVU875
 2617 015a DBF82C30 		ldr	r3, [fp, #44]
 151:lvgl/src/widgets/lv_btnmatrix.c **** 
 2618              		.loc 1 151 30 view .LVU876
 2619 015e 33F81A00 		ldrh	r0, [r3, r10, lsl #1]
 2620 0162 FFF7FEFF 		bl	get_button_width
 2621              	.LVL239:
 153:lvgl/src/widgets/lv_btnmatrix.c ****             lv_coord_t btn_x2 = (max_w_no_gap * (row_unit_cnt + btn_u)) / unit_cnt + btn * pcol - 1
 2622              		.loc 1 153 13 is_stmt 1 view .LVU877
 153:lvgl/src/widgets/lv_btnmatrix.c ****             lv_coord_t btn_x2 = (max_w_no_gap * (row_unit_cnt + btn_u)) / unit_cnt + btn * pcol - 1
 2623              		.loc 1 153 47 is_stmt 0 view .LVU878
 2624 0166 08FB04F1 		mul	r1, r8, r4
 153:lvgl/src/widgets/lv_btnmatrix.c ****             lv_coord_t btn_x2 = (max_w_no_gap * (row_unit_cnt + btn_u)) / unit_cnt + btn * pcol - 1
 2625              		.loc 1 153 63 view .LVU879
 2626 016a B1FBF5F1 		udiv	r1, r1, r5
 153:lvgl/src/widgets/lv_btnmatrix.c ****             lv_coord_t btn_x2 = (max_w_no_gap * (row_unit_cnt + btn_u)) / unit_cnt + btn * pcol - 1
 2627              		.loc 1 153 74 view .LVU880
 2628 016e 19FB07F3 		smulbb	r3, r9, r7
 2629 0172 9BB2     		uxth	r3, r3
 2630 0174 1944     		add	r1, r1, r3
 2631 0176 1FFA81FC 		uxth	ip, r1
 153:lvgl/src/widgets/lv_btnmatrix.c ****             lv_coord_t btn_x2 = (max_w_no_gap * (row_unit_cnt + btn_u)) / unit_cnt + btn * pcol - 1
 2632              		.loc 1 153 24 view .LVU881
 2633 017a 09B2     		sxth	r1, r1
 2634              	.LVL240:
ARM GAS  C:\Users\OSD\AppData\Local\Temp\ccnvvkrZ.s 			page 91


 154:lvgl/src/widgets/lv_btnmatrix.c **** 
 2635              		.loc 1 154 13 is_stmt 1 view .LVU882
 154:lvgl/src/widgets/lv_btnmatrix.c **** 
 2636              		.loc 1 154 63 is_stmt 0 view .LVU883
 2637 017c 8044     		add	r8, r8, r0
 2638              	.LVL241:
 154:lvgl/src/widgets/lv_btnmatrix.c **** 
 2639              		.loc 1 154 47 view .LVU884
 2640 017e 08FB04F0 		mul	r0, r8, r4
 2641              	.LVL242:
 154:lvgl/src/widgets/lv_btnmatrix.c **** 
 2642              		.loc 1 154 73 view .LVU885
 2643 0182 B0FBF5F0 		udiv	r0, r0, r5
 154:lvgl/src/widgets/lv_btnmatrix.c **** 
 2644              		.loc 1 154 84 view .LVU886
 2645 0186 0344     		add	r3, r3, r0
 2646 0188 9BB2     		uxth	r3, r3
 154:lvgl/src/widgets/lv_btnmatrix.c **** 
 2647              		.loc 1 154 97 view .LVU887
 2648 018a 013B     		subs	r3, r3, #1
 2649 018c 98B2     		uxth	r0, r3
 154:lvgl/src/widgets/lv_btnmatrix.c **** 
 2650              		.loc 1 154 24 view .LVU888
 2651 018e 1BB2     		sxth	r3, r3
 2652              	.LVL243:
 157:lvgl/src/widgets/lv_btnmatrix.c ****                 lv_coord_t tmp = btn_x1;
 2653              		.loc 1 157 13 is_stmt 1 view .LVU889
 157:lvgl/src/widgets/lv_btnmatrix.c ****                 lv_coord_t tmp = btn_x1;
 2654              		.loc 1 157 15 is_stmt 0 view .LVU890
 2655 0190 079A     		ldr	r2, [sp, #28]
 2656 0192 012A     		cmp	r2, #1
 2657 0194 CDD1     		bne	.L132
 2658              	.LBB135:
 158:lvgl/src/widgets/lv_btnmatrix.c ****                 btn_x1 = btn_x2;
 2659              		.loc 1 158 17 is_stmt 1 view .LVU891
 2660              	.LVL244:
 159:lvgl/src/widgets/lv_btnmatrix.c ****                 btn_x2 = tmp;
 2661              		.loc 1 159 17 view .LVU892
 160:lvgl/src/widgets/lv_btnmatrix.c **** 
 2662              		.loc 1 160 17 view .LVU893
 162:lvgl/src/widgets/lv_btnmatrix.c ****                 btn_x2 = max_w - btn_x2;
 2663              		.loc 1 162 17 view .LVU894
 162:lvgl/src/widgets/lv_btnmatrix.c ****                 btn_x2 = max_w - btn_x2;
 2664              		.loc 1 162 32 is_stmt 0 view .LVU895
 2665 0196 089B     		ldr	r3, [sp, #32]
 2666 0198 191A     		subs	r1, r3, r0
 2667              	.LVL245:
 162:lvgl/src/widgets/lv_btnmatrix.c ****                 btn_x2 = max_w - btn_x2;
 2668              		.loc 1 162 24 view .LVU896
 2669 019a 09B2     		sxth	r1, r1
 2670              	.LVL246:
 163:lvgl/src/widgets/lv_btnmatrix.c ****             }
 2671              		.loc 1 163 17 is_stmt 1 view .LVU897
 163:lvgl/src/widgets/lv_btnmatrix.c ****             }
 2672              		.loc 1 163 32 is_stmt 0 view .LVU898
 2673 019c A3EB0C03 		sub	r3, r3, ip
 163:lvgl/src/widgets/lv_btnmatrix.c ****             }
ARM GAS  C:\Users\OSD\AppData\Local\Temp\ccnvvkrZ.s 			page 92


 2674              		.loc 1 163 24 view .LVU899
 2675 01a0 1BB2     		sxth	r3, r3
 2676              	.LVL247:
 163:lvgl/src/widgets/lv_btnmatrix.c ****             }
 2677              		.loc 1 163 24 view .LVU900
 2678 01a2 C6E7     		b	.L132
 2679              	.LVL248:
 2680              	.L143:
 163:lvgl/src/widgets/lv_btnmatrix.c ****             }
 2681              		.loc 1 163 24 view .LVU901
 2682              	.LBE135:
 2683              	.LBE136:
 174:lvgl/src/widgets/lv_btnmatrix.c ****     }
 2684              		.loc 1 174 27 view .LVU902
 2685 01a4 DDF82490 		ldr	r9, [sp, #36]
 174:lvgl/src/widgets/lv_btnmatrix.c ****     }
 2686              		.loc 1 174 9 is_stmt 1 view .LVU903
 174:lvgl/src/widgets/lv_btnmatrix.c ****     }
 2687              		.loc 1 174 27 is_stmt 0 view .LVU904
 2688 01a8 0136     		adds	r6, r6, #1
 174:lvgl/src/widgets/lv_btnmatrix.c ****     }
 2689              		.loc 1 174 17 view .LVU905
 2690 01aa 09EB8609 		add	r9, r9, r6, lsl #2
 2691              	.LVL249:
 174:lvgl/src/widgets/lv_btnmatrix.c ****     }
 2692              		.loc 1 174 17 view .LVU906
 2693 01ae 85E7     		b	.L129
 2694              	.LVL250:
 2695              	.L141:
 174:lvgl/src/widgets/lv_btnmatrix.c ****     }
 2696              		.loc 1 174 17 view .LVU907
 2697              	.LBE137:
 179:lvgl/src/widgets/lv_btnmatrix.c **** 
 2698              		.loc 1 179 5 is_stmt 1 view .LVU908
 2699 01b0 5846     		mov	r0, fp
 2700 01b2 FFF7FEFF 		bl	lv_obj_refresh_ext_draw_size
 2701              	.LVL251:
 181:lvgl/src/widgets/lv_btnmatrix.c **** }
 2702              		.loc 1 181 5 view .LVU909
 2703 01b6 5846     		mov	r0, fp
 2704 01b8 FFF7FEFF 		bl	lv_obj_invalidate
 2705              	.LVL252:
 182:lvgl/src/widgets/lv_btnmatrix.c **** 
 2706              		.loc 1 182 1 is_stmt 0 view .LVU910
 2707 01bc 11B0     		add	sp, sp, #68
 2708              		.cfi_def_cfa_offset 36
 2709              		@ sp needed
 2710 01be BDE8F08F 		pop	{r4, r5, r6, r7, r8, r9, r10, fp, pc}
 2711              	.LVL253:
 2712              	.L138:
 2713              		.cfi_def_cfa_offset 0
 2714              		.cfi_restore 4
 2715              		.cfi_restore 5
 2716              		.cfi_restore 6
 2717              		.cfi_restore 7
 2718              		.cfi_restore 8
 2719              		.cfi_restore 9
ARM GAS  C:\Users\OSD\AppData\Local\Temp\ccnvvkrZ.s 			page 93


 2720              		.cfi_restore 10
 2721              		.cfi_restore 11
 2722              		.cfi_restore 14
 182:lvgl/src/widgets/lv_btnmatrix.c **** 
 2723              		.loc 1 182 1 view .LVU911
 2724 01c2 7047     		bx	lr
 2725              	.L145:
 2726              		.align	2
 2727              	.L144:
 2728 01c4 00000000 		.word	.LC0
 2729              		.cfi_endproc
 2730              	.LFE162:
 2732              		.section	.text.lv_btnmatrix_constructor,"ax",%progbits
 2733              		.align	1
 2734              		.syntax unified
 2735              		.thumb
 2736              		.thumb_func
 2738              	lv_btnmatrix_constructor:
 2739              	.LVL254:
 2740              	.LFB176:
 375:lvgl/src/widgets/lv_btnmatrix.c ****     LV_UNUSED(class_p);
 2741              		.loc 1 375 1 is_stmt 1 view -0
 2742              		.cfi_startproc
 2743              		@ args = 0, pretend = 0, frame = 0
 2744              		@ frame_needed = 0, uses_anonymous_args = 0
 375:lvgl/src/widgets/lv_btnmatrix.c ****     LV_UNUSED(class_p);
 2745              		.loc 1 375 1 is_stmt 0 view .LVU913
 2746 0000 08B5     		push	{r3, lr}
 2747              		.cfi_def_cfa_offset 8
 2748              		.cfi_offset 3, -8
 2749              		.cfi_offset 14, -4
 2750 0002 0846     		mov	r0, r1
 2751              	.LVL255:
 376:lvgl/src/widgets/lv_btnmatrix.c ****     LV_TRACE_OBJ_CREATE("begin");
 2752              		.loc 1 376 5 is_stmt 1 view .LVU914
 377:lvgl/src/widgets/lv_btnmatrix.c ****     lv_btnmatrix_t * btnm = (lv_btnmatrix_t *)obj;
 2753              		.loc 1 377 33 view .LVU915
 378:lvgl/src/widgets/lv_btnmatrix.c ****     btnm->btn_cnt        = 0;
 2754              		.loc 1 378 5 view .LVU916
 379:lvgl/src/widgets/lv_btnmatrix.c ****     btnm->row_cnt        = 0;
 2755              		.loc 1 379 5 view .LVU917
 379:lvgl/src/widgets/lv_btnmatrix.c ****     btnm->row_cnt        = 0;
 2756              		.loc 1 379 26 is_stmt 0 view .LVU918
 2757 0004 0023     		movs	r3, #0
 2758 0006 0B86     		strh	r3, [r1, #48]	@ movhi
 380:lvgl/src/widgets/lv_btnmatrix.c ****     btnm->btn_id_sel     = LV_BTNMATRIX_BTN_NONE;
 2759              		.loc 1 380 5 is_stmt 1 view .LVU919
 380:lvgl/src/widgets/lv_btnmatrix.c ****     btnm->btn_id_sel     = LV_BTNMATRIX_BTN_NONE;
 2760              		.loc 1 380 26 is_stmt 0 view .LVU920
 2761 0008 4B86     		strh	r3, [r1, #50]	@ movhi
 381:lvgl/src/widgets/lv_btnmatrix.c ****     btnm->button_areas   = NULL;
 2762              		.loc 1 381 5 is_stmt 1 view .LVU921
 381:lvgl/src/widgets/lv_btnmatrix.c ****     btnm->button_areas   = NULL;
 2763              		.loc 1 381 26 is_stmt 0 view .LVU922
 2764 000a 4FF6FF72 		movw	r2, #65535
 2765 000e 8A86     		strh	r2, [r1, #52]	@ movhi
 382:lvgl/src/widgets/lv_btnmatrix.c ****     btnm->ctrl_bits      = NULL;
ARM GAS  C:\Users\OSD\AppData\Local\Temp\ccnvvkrZ.s 			page 94


 2766              		.loc 1 382 5 is_stmt 1 view .LVU923
 382:lvgl/src/widgets/lv_btnmatrix.c ****     btnm->ctrl_bits      = NULL;
 2767              		.loc 1 382 26 is_stmt 0 view .LVU924
 2768 0010 8B62     		str	r3, [r1, #40]
 383:lvgl/src/widgets/lv_btnmatrix.c ****     btnm->map_p          = NULL;
 2769              		.loc 1 383 5 is_stmt 1 view .LVU925
 383:lvgl/src/widgets/lv_btnmatrix.c ****     btnm->map_p          = NULL;
 2770              		.loc 1 383 26 is_stmt 0 view .LVU926
 2771 0012 CB62     		str	r3, [r1, #44]
 384:lvgl/src/widgets/lv_btnmatrix.c ****     btnm->one_check      = 0;
 2772              		.loc 1 384 5 is_stmt 1 view .LVU927
 384:lvgl/src/widgets/lv_btnmatrix.c ****     btnm->one_check      = 0;
 2773              		.loc 1 384 26 is_stmt 0 view .LVU928
 2774 0014 4B62     		str	r3, [r1, #36]
 385:lvgl/src/widgets/lv_btnmatrix.c **** 
 2775              		.loc 1 385 5 is_stmt 1 view .LVU929
 385:lvgl/src/widgets/lv_btnmatrix.c **** 
 2776              		.loc 1 385 26 is_stmt 0 view .LVU930
 2777 0016 91F83620 		ldrb	r2, [r1, #54]	@ zero_extendqisi2
 2778 001a 63F30002 		bfi	r2, r3, #0, #1
 2779 001e 81F83620 		strb	r2, [r1, #54]
 387:lvgl/src/widgets/lv_btnmatrix.c **** 
 2780              		.loc 1 387 5 is_stmt 1 view .LVU931
 2781 0022 0249     		ldr	r1, .L148
 2782              	.LVL256:
 387:lvgl/src/widgets/lv_btnmatrix.c **** 
 2783              		.loc 1 387 5 is_stmt 0 view .LVU932
 2784 0024 FFF7FEFF 		bl	lv_btnmatrix_set_map
 2785              	.LVL257:
 389:lvgl/src/widgets/lv_btnmatrix.c **** }
 2786              		.loc 1 389 36 is_stmt 1 view .LVU933
 390:lvgl/src/widgets/lv_btnmatrix.c **** 
 2787              		.loc 1 390 1 is_stmt 0 view .LVU934
 2788 0028 08BD     		pop	{r3, pc}
 2789              	.L149:
 2790 002a 00BF     		.align	2
 2791              	.L148:
 2792 002c 00000000 		.word	.LANCHOR1
 2793              		.cfi_endproc
 2794              	.LFE176:
 2796              		.section	.text.lv_btnmatrix_set_ctrl_map,"ax",%progbits
 2797              		.align	1
 2798              		.global	lv_btnmatrix_set_ctrl_map
 2799              		.syntax unified
 2800              		.thumb
 2801              		.thumb_func
 2803              	lv_btnmatrix_set_ctrl_map:
 2804              	.LVL258:
 2805              	.LFB163:
 185:lvgl/src/widgets/lv_btnmatrix.c ****     LV_ASSERT_OBJ(obj, MY_CLASS);
 2806              		.loc 1 185 1 is_stmt 1 view -0
 2807              		.cfi_startproc
 2808              		@ args = 0, pretend = 0, frame = 0
 2809              		@ frame_needed = 0, uses_anonymous_args = 0
 185:lvgl/src/widgets/lv_btnmatrix.c ****     LV_ASSERT_OBJ(obj, MY_CLASS);
 2810              		.loc 1 185 1 is_stmt 0 view .LVU936
 2811 0000 10B5     		push	{r4, lr}
ARM GAS  C:\Users\OSD\AppData\Local\Temp\ccnvvkrZ.s 			page 95


 2812              		.cfi_def_cfa_offset 8
 2813              		.cfi_offset 4, -8
 2814              		.cfi_offset 14, -4
 2815 0002 0446     		mov	r4, r0
 186:lvgl/src/widgets/lv_btnmatrix.c **** 
 2816              		.loc 1 186 5 is_stmt 1 view .LVU937
 186:lvgl/src/widgets/lv_btnmatrix.c **** 
 2817              		.loc 1 186 5 view .LVU938
 186:lvgl/src/widgets/lv_btnmatrix.c **** 
 2818              		.loc 1 186 5 view .LVU939
 188:lvgl/src/widgets/lv_btnmatrix.c ****     lv_memcpy(btnm->ctrl_bits, ctrl_map, sizeof(lv_btnmatrix_ctrl_t) * btnm->btn_cnt);
 2819              		.loc 1 188 5 view .LVU940
 2820              	.LVL259:
 189:lvgl/src/widgets/lv_btnmatrix.c **** 
 2821              		.loc 1 189 5 view .LVU941
 189:lvgl/src/widgets/lv_btnmatrix.c **** 
 2822              		.loc 1 189 76 is_stmt 0 view .LVU942
 2823 0004 028E     		ldrh	r2, [r0, #48]
 189:lvgl/src/widgets/lv_btnmatrix.c **** 
 2824              		.loc 1 189 5 view .LVU943
 2825 0006 5200     		lsls	r2, r2, #1
 2826 0008 C06A     		ldr	r0, [r0, #44]
 2827              	.LVL260:
 189:lvgl/src/widgets/lv_btnmatrix.c **** 
 2828              		.loc 1 189 5 view .LVU944
 2829 000a FFF7FEFF 		bl	lv_memcpy
 2830              	.LVL261:
 191:lvgl/src/widgets/lv_btnmatrix.c **** }
 2831              		.loc 1 191 5 is_stmt 1 view .LVU945
 2832 000e 616A     		ldr	r1, [r4, #36]
 2833 0010 2046     		mov	r0, r4
 2834 0012 FFF7FEFF 		bl	lv_btnmatrix_set_map
 2835              	.LVL262:
 192:lvgl/src/widgets/lv_btnmatrix.c **** 
 2836              		.loc 1 192 1 is_stmt 0 view .LVU946
 2837 0016 10BD     		pop	{r4, pc}
 192:lvgl/src/widgets/lv_btnmatrix.c **** 
 2838              		.loc 1 192 1 view .LVU947
 2839              		.cfi_endproc
 2840              	.LFE163:
 2842              		.section	.text.lv_btnmatrix_set_selected_btn,"ax",%progbits
 2843              		.align	1
 2844              		.global	lv_btnmatrix_set_selected_btn
 2845              		.syntax unified
 2846              		.thumb
 2847              		.thumb_func
 2849              	lv_btnmatrix_set_selected_btn:
 2850              	.LVL263:
 2851              	.LFB164:
 195:lvgl/src/widgets/lv_btnmatrix.c ****     LV_ASSERT_OBJ(obj, MY_CLASS);
 2852              		.loc 1 195 1 is_stmt 1 view -0
 2853              		.cfi_startproc
 2854              		@ args = 0, pretend = 0, frame = 0
 2855              		@ frame_needed = 0, uses_anonymous_args = 0
 195:lvgl/src/widgets/lv_btnmatrix.c ****     LV_ASSERT_OBJ(obj, MY_CLASS);
 2856              		.loc 1 195 1 is_stmt 0 view .LVU949
 2857 0000 38B5     		push	{r3, r4, r5, lr}
ARM GAS  C:\Users\OSD\AppData\Local\Temp\ccnvvkrZ.s 			page 96


 2858              		.cfi_def_cfa_offset 16
 2859              		.cfi_offset 3, -16
 2860              		.cfi_offset 4, -12
 2861              		.cfi_offset 5, -8
 2862              		.cfi_offset 14, -4
 2863 0002 0446     		mov	r4, r0
 2864 0004 0D46     		mov	r5, r1
 196:lvgl/src/widgets/lv_btnmatrix.c **** 
 2865              		.loc 1 196 5 is_stmt 1 view .LVU950
 196:lvgl/src/widgets/lv_btnmatrix.c **** 
 2866              		.loc 1 196 5 view .LVU951
 196:lvgl/src/widgets/lv_btnmatrix.c **** 
 2867              		.loc 1 196 5 view .LVU952
 198:lvgl/src/widgets/lv_btnmatrix.c **** 
 2868              		.loc 1 198 5 view .LVU953
 2869              	.LVL264:
 200:lvgl/src/widgets/lv_btnmatrix.c **** 
 2870              		.loc 1 200 5 view .LVU954
 200:lvgl/src/widgets/lv_btnmatrix.c **** 
 2871              		.loc 1 200 22 is_stmt 0 view .LVU955
 2872 0006 038E     		ldrh	r3, [r0, #48]
 200:lvgl/src/widgets/lv_btnmatrix.c **** 
 2873              		.loc 1 200 7 view .LVU956
 2874 0008 8B42     		cmp	r3, r1
 2875 000a 03D8     		bhi	.L153
 200:lvgl/src/widgets/lv_btnmatrix.c **** 
 2876              		.loc 1 200 32 discriminator 1 view .LVU957
 2877 000c 4FF6FF73 		movw	r3, #65535
 2878 0010 9942     		cmp	r1, r3
 2879 0012 08D1     		bne	.L152
 2880              	.L153:
 202:lvgl/src/widgets/lv_btnmatrix.c ****     btnm->btn_id_sel = btn_id;
 2881              		.loc 1 202 5 is_stmt 1 view .LVU958
 2882 0014 A18E     		ldrh	r1, [r4, #52]
 2883              	.LVL265:
 202:lvgl/src/widgets/lv_btnmatrix.c ****     btnm->btn_id_sel = btn_id;
 2884              		.loc 1 202 5 is_stmt 0 view .LVU959
 2885 0016 2046     		mov	r0, r4
 2886              	.LVL266:
 202:lvgl/src/widgets/lv_btnmatrix.c ****     btnm->btn_id_sel = btn_id;
 2887              		.loc 1 202 5 view .LVU960
 2888 0018 FFF7FEFF 		bl	invalidate_button_area
 2889              	.LVL267:
 203:lvgl/src/widgets/lv_btnmatrix.c ****     invalidate_button_area(obj, btn_id);
 2890              		.loc 1 203 5 is_stmt 1 view .LVU961
 203:lvgl/src/widgets/lv_btnmatrix.c ****     invalidate_button_area(obj, btn_id);
 2891              		.loc 1 203 22 is_stmt 0 view .LVU962
 2892 001c A586     		strh	r5, [r4, #52]	@ movhi
 204:lvgl/src/widgets/lv_btnmatrix.c **** }
 2893              		.loc 1 204 5 is_stmt 1 view .LVU963
 2894 001e 2946     		mov	r1, r5
 2895 0020 2046     		mov	r0, r4
 2896 0022 FFF7FEFF 		bl	invalidate_button_area
 2897              	.LVL268:
 2898              	.L152:
 205:lvgl/src/widgets/lv_btnmatrix.c **** 
 2899              		.loc 1 205 1 is_stmt 0 view .LVU964
ARM GAS  C:\Users\OSD\AppData\Local\Temp\ccnvvkrZ.s 			page 97


 2900 0026 38BD     		pop	{r3, r4, r5, pc}
 205:lvgl/src/widgets/lv_btnmatrix.c **** 
 2901              		.loc 1 205 1 view .LVU965
 2902              		.cfi_endproc
 2903              	.LFE164:
 2905              		.section	.text.lv_btnmatrix_clear_btn_ctrl,"ax",%progbits
 2906              		.align	1
 2907              		.global	lv_btnmatrix_clear_btn_ctrl
 2908              		.syntax unified
 2909              		.thumb
 2910              		.thumb_func
 2912              	lv_btnmatrix_clear_btn_ctrl:
 2913              	.LVL269:
 2914              	.LFB166:
 241:lvgl/src/widgets/lv_btnmatrix.c ****     LV_ASSERT_OBJ(obj, MY_CLASS);
 2915              		.loc 1 241 1 is_stmt 1 view -0
 2916              		.cfi_startproc
 2917              		@ args = 0, pretend = 0, frame = 0
 2918              		@ frame_needed = 0, uses_anonymous_args = 0
 242:lvgl/src/widgets/lv_btnmatrix.c **** 
 2919              		.loc 1 242 5 view .LVU967
 242:lvgl/src/widgets/lv_btnmatrix.c **** 
 2920              		.loc 1 242 5 view .LVU968
 242:lvgl/src/widgets/lv_btnmatrix.c **** 
 2921              		.loc 1 242 5 view .LVU969
 244:lvgl/src/widgets/lv_btnmatrix.c **** 
 2922              		.loc 1 244 5 view .LVU970
 246:lvgl/src/widgets/lv_btnmatrix.c **** 
 2923              		.loc 1 246 5 view .LVU971
 246:lvgl/src/widgets/lv_btnmatrix.c **** 
 2924              		.loc 1 246 22 is_stmt 0 view .LVU972
 2925 0000 038E     		ldrh	r3, [r0, #48]
 246:lvgl/src/widgets/lv_btnmatrix.c **** 
 2926              		.loc 1 246 7 view .LVU973
 2927 0002 8B42     		cmp	r3, r1
 2928 0004 23D9     		bls	.L160
 241:lvgl/src/widgets/lv_btnmatrix.c ****     LV_ASSERT_OBJ(obj, MY_CLASS);
 2929              		.loc 1 241 1 view .LVU974
 2930 0006 70B5     		push	{r4, r5, r6, lr}
 2931              		.cfi_def_cfa_offset 16
 2932              		.cfi_offset 4, -16
 2933              		.cfi_offset 5, -12
 2934              		.cfi_offset 6, -8
 2935              		.cfi_offset 14, -4
 2936 0008 0646     		mov	r6, r0
 2937 000a 0C46     		mov	r4, r1
 2938 000c 1546     		mov	r5, r2
 249:lvgl/src/widgets/lv_btnmatrix.c ****         if(lv_obj_has_flag(obj, LV_OBJ_FLAG_HIDDEN)) lv_obj_clear_flag(obj, LV_OBJ_FLAG_HIDDEN);
 2939              		.loc 1 249 5 is_stmt 1 view .LVU975
 249:lvgl/src/widgets/lv_btnmatrix.c ****         if(lv_obj_has_flag(obj, LV_OBJ_FLAG_HIDDEN)) lv_obj_clear_flag(obj, LV_OBJ_FLAG_HIDDEN);
 2940              		.loc 1 249 7 is_stmt 0 view .LVU976
 2941 000e 12F0100F 		tst	r2, #16
 2942 0012 0ED1     		bne	.L163
 2943              	.LVL270:
 2944              	.L158:
 253:lvgl/src/widgets/lv_btnmatrix.c ****     invalidate_button_area(obj, btn_id);
 2945              		.loc 1 253 5 is_stmt 1 view .LVU977
ARM GAS  C:\Users\OSD\AppData\Local\Temp\ccnvvkrZ.s 			page 98


 253:lvgl/src/widgets/lv_btnmatrix.c ****     invalidate_button_area(obj, btn_id);
 2946              		.loc 1 253 9 is_stmt 0 view .LVU978
 2947 0014 F26A     		ldr	r2, [r6, #44]
 253:lvgl/src/widgets/lv_btnmatrix.c ****     invalidate_button_area(obj, btn_id);
 2948              		.loc 1 253 29 view .LVU979
 2949 0016 32F81430 		ldrh	r3, [r2, r4, lsl #1]
 2950 001a 23EA0503 		bic	r3, r3, r5
 2951 001e 22F81430 		strh	r3, [r2, r4, lsl #1]	@ movhi
 254:lvgl/src/widgets/lv_btnmatrix.c **** 
 2952              		.loc 1 254 5 is_stmt 1 view .LVU980
 2953 0022 2146     		mov	r1, r4
 2954 0024 3046     		mov	r0, r6
 2955 0026 FFF7FEFF 		bl	invalidate_button_area
 2956              	.LVL271:
 256:lvgl/src/widgets/lv_btnmatrix.c ****         lv_obj_refresh_ext_draw_size(obj);
 2957              		.loc 1 256 5 view .LVU981
 256:lvgl/src/widgets/lv_btnmatrix.c ****         lv_obj_refresh_ext_draw_size(obj);
 2958              		.loc 1 256 7 is_stmt 0 view .LVU982
 2959 002a 15F4806F 		tst	r5, #1024
 2960 002e 0AD1     		bne	.L164
 2961              	.L156:
 259:lvgl/src/widgets/lv_btnmatrix.c **** 
 2962              		.loc 1 259 1 view .LVU983
 2963 0030 70BD     		pop	{r4, r5, r6, pc}
 2964              	.LVL272:
 2965              	.L163:
 250:lvgl/src/widgets/lv_btnmatrix.c ****     }
 2966              		.loc 1 250 9 is_stmt 1 view .LVU984
 250:lvgl/src/widgets/lv_btnmatrix.c ****     }
 2967              		.loc 1 250 12 is_stmt 0 view .LVU985
 2968 0032 0121     		movs	r1, #1
 2969              	.LVL273:
 250:lvgl/src/widgets/lv_btnmatrix.c ****     }
 2970              		.loc 1 250 12 view .LVU986
 2971 0034 FFF7FEFF 		bl	lv_obj_has_flag
 2972              	.LVL274:
 250:lvgl/src/widgets/lv_btnmatrix.c ****     }
 2973              		.loc 1 250 11 view .LVU987
 2974 0038 0028     		cmp	r0, #0
 2975 003a EBD0     		beq	.L158
 250:lvgl/src/widgets/lv_btnmatrix.c ****     }
 2976              		.loc 1 250 54 is_stmt 1 discriminator 1 view .LVU988
 2977 003c 0121     		movs	r1, #1
 2978 003e 3046     		mov	r0, r6
 2979 0040 FFF7FEFF 		bl	lv_obj_clear_flag
 2980              	.LVL275:
 2981 0044 E6E7     		b	.L158
 2982              	.L164:
 257:lvgl/src/widgets/lv_btnmatrix.c ****     }
 2983              		.loc 1 257 9 view .LVU989
 2984 0046 3046     		mov	r0, r6
 2985 0048 FFF7FEFF 		bl	lv_obj_refresh_ext_draw_size
 2986              	.LVL276:
 2987 004c F0E7     		b	.L156
 2988              	.LVL277:
 2989              	.L160:
 2990              		.cfi_def_cfa_offset 0
ARM GAS  C:\Users\OSD\AppData\Local\Temp\ccnvvkrZ.s 			page 99


 2991              		.cfi_restore 4
 2992              		.cfi_restore 5
 2993              		.cfi_restore 6
 2994              		.cfi_restore 14
 257:lvgl/src/widgets/lv_btnmatrix.c ****     }
 2995              		.loc 1 257 9 is_stmt 0 view .LVU990
 2996 004e 7047     		bx	lr
 2997              		.cfi_endproc
 2998              	.LFE166:
 3000              		.section	.text.lv_btnmatrix_clear_btn_ctrl_all,"ax",%progbits
 3001              		.align	1
 3002              		.global	lv_btnmatrix_clear_btn_ctrl_all
 3003              		.syntax unified
 3004              		.thumb
 3005              		.thumb_func
 3007              	lv_btnmatrix_clear_btn_ctrl_all:
 3008              	.LVL278:
 3009              	.LFB168:
 273:lvgl/src/widgets/lv_btnmatrix.c ****     LV_ASSERT_OBJ(obj, MY_CLASS);
 3010              		.loc 1 273 1 is_stmt 1 view -0
 3011              		.cfi_startproc
 3012              		@ args = 0, pretend = 0, frame = 0
 3013              		@ frame_needed = 0, uses_anonymous_args = 0
 273:lvgl/src/widgets/lv_btnmatrix.c ****     LV_ASSERT_OBJ(obj, MY_CLASS);
 3014              		.loc 1 273 1 is_stmt 0 view .LVU992
 3015 0000 70B5     		push	{r4, r5, r6, lr}
 3016              		.cfi_def_cfa_offset 16
 3017              		.cfi_offset 4, -16
 3018              		.cfi_offset 5, -12
 3019              		.cfi_offset 6, -8
 3020              		.cfi_offset 14, -4
 3021 0002 0546     		mov	r5, r0
 3022 0004 0E46     		mov	r6, r1
 274:lvgl/src/widgets/lv_btnmatrix.c **** 
 3023              		.loc 1 274 5 is_stmt 1 view .LVU993
 274:lvgl/src/widgets/lv_btnmatrix.c **** 
 3024              		.loc 1 274 5 view .LVU994
 274:lvgl/src/widgets/lv_btnmatrix.c **** 
 3025              		.loc 1 274 5 view .LVU995
 276:lvgl/src/widgets/lv_btnmatrix.c ****     uint16_t i;
 3026              		.loc 1 276 5 view .LVU996
 3027              	.LVL279:
 276:lvgl/src/widgets/lv_btnmatrix.c ****     uint16_t i;
 3028              		.loc 1 276 51 view .LVU997
 277:lvgl/src/widgets/lv_btnmatrix.c ****     for(i = 0; i < btnm->btn_cnt; i++) {
 3029              		.loc 1 277 5 view .LVU998
 278:lvgl/src/widgets/lv_btnmatrix.c ****         lv_btnmatrix_clear_btn_ctrl(obj, i, ctrl);
 3030              		.loc 1 278 5 view .LVU999
 278:lvgl/src/widgets/lv_btnmatrix.c ****         lv_btnmatrix_clear_btn_ctrl(obj, i, ctrl);
 3031              		.loc 1 278 11 is_stmt 0 view .LVU1000
 3032 0006 0024     		movs	r4, #0
 278:lvgl/src/widgets/lv_btnmatrix.c ****         lv_btnmatrix_clear_btn_ctrl(obj, i, ctrl);
 3033              		.loc 1 278 5 view .LVU1001
 3034 0008 06E0     		b	.L166
 3035              	.LVL280:
 3036              	.L167:
 279:lvgl/src/widgets/lv_btnmatrix.c ****     }
ARM GAS  C:\Users\OSD\AppData\Local\Temp\ccnvvkrZ.s 			page 100


 3037              		.loc 1 279 9 is_stmt 1 discriminator 3 view .LVU1002
 3038 000a 3246     		mov	r2, r6
 3039 000c 2146     		mov	r1, r4
 3040 000e 2846     		mov	r0, r5
 3041 0010 FFF7FEFF 		bl	lv_btnmatrix_clear_btn_ctrl
 3042              	.LVL281:
 278:lvgl/src/widgets/lv_btnmatrix.c ****         lv_btnmatrix_clear_btn_ctrl(obj, i, ctrl);
 3043              		.loc 1 278 35 discriminator 3 view .LVU1003
 278:lvgl/src/widgets/lv_btnmatrix.c ****         lv_btnmatrix_clear_btn_ctrl(obj, i, ctrl);
 3044              		.loc 1 278 36 is_stmt 0 discriminator 3 view .LVU1004
 3045 0014 0134     		adds	r4, r4, #1
 3046              	.LVL282:
 278:lvgl/src/widgets/lv_btnmatrix.c ****         lv_btnmatrix_clear_btn_ctrl(obj, i, ctrl);
 3047              		.loc 1 278 36 discriminator 3 view .LVU1005
 3048 0016 A4B2     		uxth	r4, r4
 3049              	.LVL283:
 3050              	.L166:
 278:lvgl/src/widgets/lv_btnmatrix.c ****         lv_btnmatrix_clear_btn_ctrl(obj, i, ctrl);
 3051              		.loc 1 278 16 is_stmt 1 discriminator 1 view .LVU1006
 278:lvgl/src/widgets/lv_btnmatrix.c ****         lv_btnmatrix_clear_btn_ctrl(obj, i, ctrl);
 3052              		.loc 1 278 24 is_stmt 0 discriminator 1 view .LVU1007
 3053 0018 2B8E     		ldrh	r3, [r5, #48]
 278:lvgl/src/widgets/lv_btnmatrix.c ****         lv_btnmatrix_clear_btn_ctrl(obj, i, ctrl);
 3054              		.loc 1 278 5 discriminator 1 view .LVU1008
 3055 001a A342     		cmp	r3, r4
 3056 001c F5D8     		bhi	.L167
 281:lvgl/src/widgets/lv_btnmatrix.c **** 
 3057              		.loc 1 281 1 view .LVU1009
 3058 001e 70BD     		pop	{r4, r5, r6, pc}
 281:lvgl/src/widgets/lv_btnmatrix.c **** 
 3059              		.loc 1 281 1 view .LVU1010
 3060              		.cfi_endproc
 3061              	.LFE168:
 3063              		.section	.text.lv_btnmatrix_set_btn_ctrl,"ax",%progbits
 3064              		.align	1
 3065              		.global	lv_btnmatrix_set_btn_ctrl
 3066              		.syntax unified
 3067              		.thumb
 3068              		.thumb_func
 3070              	lv_btnmatrix_set_btn_ctrl:
 3071              	.LVL284:
 3072              	.LFB165:
 208:lvgl/src/widgets/lv_btnmatrix.c ****     LV_ASSERT_OBJ(obj, MY_CLASS);
 3073              		.loc 1 208 1 is_stmt 1 view -0
 3074              		.cfi_startproc
 3075              		@ args = 0, pretend = 0, frame = 0
 3076              		@ frame_needed = 0, uses_anonymous_args = 0
 209:lvgl/src/widgets/lv_btnmatrix.c **** 
 3077              		.loc 1 209 5 view .LVU1012
 209:lvgl/src/widgets/lv_btnmatrix.c **** 
 3078              		.loc 1 209 5 view .LVU1013
 209:lvgl/src/widgets/lv_btnmatrix.c **** 
 3079              		.loc 1 209 5 view .LVU1014
 211:lvgl/src/widgets/lv_btnmatrix.c **** 
 3080              		.loc 1 211 5 view .LVU1015
 213:lvgl/src/widgets/lv_btnmatrix.c **** 
 3081              		.loc 1 213 5 view .LVU1016
ARM GAS  C:\Users\OSD\AppData\Local\Temp\ccnvvkrZ.s 			page 101


 213:lvgl/src/widgets/lv_btnmatrix.c **** 
 3082              		.loc 1 213 22 is_stmt 0 view .LVU1017
 3083 0000 038E     		ldrh	r3, [r0, #48]
 213:lvgl/src/widgets/lv_btnmatrix.c **** 
 3084              		.loc 1 213 7 view .LVU1018
 3085 0002 8B42     		cmp	r3, r1
 3086 0004 3ED9     		bls	.L180
 208:lvgl/src/widgets/lv_btnmatrix.c ****     LV_ASSERT_OBJ(obj, MY_CLASS);
 3087              		.loc 1 208 1 view .LVU1019
 3088 0006 70B5     		push	{r4, r5, r6, lr}
 3089              		.cfi_def_cfa_offset 16
 3090              		.cfi_offset 4, -16
 3091              		.cfi_offset 5, -12
 3092              		.cfi_offset 6, -8
 3093              		.cfi_offset 14, -4
 3094 0008 0446     		mov	r4, r0
 3095 000a 0D46     		mov	r5, r1
 3096 000c 1646     		mov	r6, r2
 215:lvgl/src/widgets/lv_btnmatrix.c ****         lv_btnmatrix_clear_btn_ctrl_all(obj, LV_BTNMATRIX_CTRL_CHECKED);
 3097              		.loc 1 215 5 is_stmt 1 view .LVU1020
 215:lvgl/src/widgets/lv_btnmatrix.c ****         lv_btnmatrix_clear_btn_ctrl_all(obj, LV_BTNMATRIX_CTRL_CHECKED);
 3098              		.loc 1 215 8 is_stmt 0 view .LVU1021
 3099 000e 90F83630 		ldrb	r3, [r0, #54]	@ zero_extendqisi2
 215:lvgl/src/widgets/lv_btnmatrix.c ****         lv_btnmatrix_clear_btn_ctrl_all(obj, LV_BTNMATRIX_CTRL_CHECKED);
 3100              		.loc 1 215 7 view .LVU1022
 3101 0012 13F0010F 		tst	r3, #1
 3102 0016 02D0     		beq	.L171
 215:lvgl/src/widgets/lv_btnmatrix.c ****         lv_btnmatrix_clear_btn_ctrl_all(obj, LV_BTNMATRIX_CTRL_CHECKED);
 3103              		.loc 1 215 24 discriminator 1 view .LVU1023
 3104 0018 12F4807F 		tst	r2, #256
 3105 001c 08D1     		bne	.L183
 3106              	.LVL285:
 3107              	.L171:
 220:lvgl/src/widgets/lv_btnmatrix.c ****         bool all_buttons_hidden = true;
 3108              		.loc 1 220 5 is_stmt 1 view .LVU1024
 220:lvgl/src/widgets/lv_btnmatrix.c ****         bool all_buttons_hidden = true;
 3109              		.loc 1 220 7 is_stmt 0 view .LVU1025
 3110 001e 16F0100F 		tst	r6, #16
 3111 0022 1DD0     		beq	.L172
 3112              	.LBB138:
 221:lvgl/src/widgets/lv_btnmatrix.c ****         if(btnm->btn_cnt > 1) {
 3113              		.loc 1 221 9 is_stmt 1 view .LVU1026
 3114              	.LVL286:
 222:lvgl/src/widgets/lv_btnmatrix.c ****             for(uint16_t btn_idx = 0; btn_idx < btnm->btn_cnt; btn_idx++) {
 3115              		.loc 1 222 9 view .LVU1027
 222:lvgl/src/widgets/lv_btnmatrix.c ****             for(uint16_t btn_idx = 0; btn_idx < btnm->btn_cnt; btn_idx++) {
 3116              		.loc 1 222 16 is_stmt 0 view .LVU1028
 3117 0024 218E     		ldrh	r1, [r4, #48]
 222:lvgl/src/widgets/lv_btnmatrix.c ****             for(uint16_t btn_idx = 0; btn_idx < btnm->btn_cnt; btn_idx++) {
 3118              		.loc 1 222 11 view .LVU1029
 3119 0026 0129     		cmp	r1, #1
 3120 0028 16D9     		bls	.L174
 3121              	.LBB139:
 223:lvgl/src/widgets/lv_btnmatrix.c ****                 if(btn_idx == btn_id) continue;
 3122              		.loc 1 223 26 view .LVU1030
 3123 002a 0023     		movs	r3, #0
 3124              	.LBE139:
ARM GAS  C:\Users\OSD\AppData\Local\Temp\ccnvvkrZ.s 			page 102


 221:lvgl/src/widgets/lv_btnmatrix.c ****         if(btnm->btn_cnt > 1) {
 3125              		.loc 1 221 14 view .LVU1031
 3126 002c 0120     		movs	r0, #1
 3127 002e 06E0     		b	.L173
 3128              	.LVL287:
 3129              	.L183:
 221:lvgl/src/widgets/lv_btnmatrix.c ****         if(btnm->btn_cnt > 1) {
 3130              		.loc 1 221 14 view .LVU1032
 3131              	.LBE138:
 216:lvgl/src/widgets/lv_btnmatrix.c ****     }
 3132              		.loc 1 216 9 is_stmt 1 view .LVU1033
 3133 0030 4FF48071 		mov	r1, #256
 3134              	.LVL288:
 216:lvgl/src/widgets/lv_btnmatrix.c ****     }
 3135              		.loc 1 216 9 is_stmt 0 view .LVU1034
 3136 0034 FFF7FEFF 		bl	lv_btnmatrix_clear_btn_ctrl_all
 3137              	.LVL289:
 216:lvgl/src/widgets/lv_btnmatrix.c ****     }
 3138              		.loc 1 216 9 view .LVU1035
 3139 0038 F1E7     		b	.L171
 3140              	.LVL290:
 3141              	.L175:
 3142              	.LBB141:
 3143              	.LBB140:
 223:lvgl/src/widgets/lv_btnmatrix.c ****                 if(btn_idx == btn_id) continue;
 3144              		.loc 1 223 64 is_stmt 1 discriminator 2 view .LVU1036
 223:lvgl/src/widgets/lv_btnmatrix.c ****                 if(btn_idx == btn_id) continue;
 3145              		.loc 1 223 71 is_stmt 0 discriminator 2 view .LVU1037
 3146 003a 0133     		adds	r3, r3, #1
 3147              	.LVL291:
 223:lvgl/src/widgets/lv_btnmatrix.c ****                 if(btn_idx == btn_id) continue;
 3148              		.loc 1 223 71 discriminator 2 view .LVU1038
 3149 003c 9BB2     		uxth	r3, r3
 3150              	.LVL292:
 3151              	.L173:
 223:lvgl/src/widgets/lv_btnmatrix.c ****                 if(btn_idx == btn_id) continue;
 3152              		.loc 1 223 39 is_stmt 1 discriminator 1 view .LVU1039
 223:lvgl/src/widgets/lv_btnmatrix.c ****                 if(btn_idx == btn_id) continue;
 3153              		.loc 1 223 13 is_stmt 0 discriminator 1 view .LVU1040
 3154 003e 9942     		cmp	r1, r3
 3155 0040 09D9     		bls	.L184
 224:lvgl/src/widgets/lv_btnmatrix.c ****                 if(!(btnm->ctrl_bits[btn_idx] & LV_BTNMATRIX_CTRL_HIDDEN)) all_buttons_hidden = fal
 3156              		.loc 1 224 17 is_stmt 1 view .LVU1041
 224:lvgl/src/widgets/lv_btnmatrix.c ****                 if(!(btnm->ctrl_bits[btn_idx] & LV_BTNMATRIX_CTRL_HIDDEN)) all_buttons_hidden = fal
 3157              		.loc 1 224 19 is_stmt 0 view .LVU1042
 3158 0042 AB42     		cmp	r3, r5
 3159 0044 F9D0     		beq	.L175
 225:lvgl/src/widgets/lv_btnmatrix.c ****             }
 3160              		.loc 1 225 17 is_stmt 1 view .LVU1043
 225:lvgl/src/widgets/lv_btnmatrix.c ****             }
 3161              		.loc 1 225 26 is_stmt 0 view .LVU1044
 3162 0046 E26A     		ldr	r2, [r4, #44]
 225:lvgl/src/widgets/lv_btnmatrix.c ****             }
 3163              		.loc 1 225 37 view .LVU1045
 3164 0048 32F81320 		ldrh	r2, [r2, r3, lsl #1]
 225:lvgl/src/widgets/lv_btnmatrix.c ****             }
 3165              		.loc 1 225 19 view .LVU1046
ARM GAS  C:\Users\OSD\AppData\Local\Temp\ccnvvkrZ.s 			page 103


 3166 004c 12F0100F 		tst	r2, #16
 3167 0050 F3D1     		bne	.L175
 225:lvgl/src/widgets/lv_btnmatrix.c ****             }
 3168              		.loc 1 225 95 view .LVU1047
 3169 0052 0020     		movs	r0, #0
 3170              	.LVL293:
 225:lvgl/src/widgets/lv_btnmatrix.c ****             }
 3171              		.loc 1 225 95 view .LVU1048
 3172 0054 F1E7     		b	.L175
 3173              	.LVL294:
 3174              	.L184:
 225:lvgl/src/widgets/lv_btnmatrix.c ****             }
 3175              		.loc 1 225 95 view .LVU1049
 3176              	.LBE140:
 229:lvgl/src/widgets/lv_btnmatrix.c ****     }
 3177              		.loc 1 229 9 is_stmt 1 view .LVU1050
 229:lvgl/src/widgets/lv_btnmatrix.c ****     }
 3178              		.loc 1 229 11 is_stmt 0 view .LVU1051
 3179 0056 18B1     		cbz	r0, .L172
 3180              	.LVL295:
 3181              	.L174:
 229:lvgl/src/widgets/lv_btnmatrix.c ****     }
 3182              		.loc 1 229 32 is_stmt 1 discriminator 1 view .LVU1052
 3183 0058 0121     		movs	r1, #1
 3184 005a 2046     		mov	r0, r4
 3185 005c FFF7FEFF 		bl	lv_obj_add_flag
 3186              	.LVL296:
 3187              	.L172:
 229:lvgl/src/widgets/lv_btnmatrix.c ****     }
 3188              		.loc 1 229 32 is_stmt 0 discriminator 1 view .LVU1053
 3189              	.LBE141:
 232:lvgl/src/widgets/lv_btnmatrix.c ****     invalidate_button_area(obj, btn_id);
 3190              		.loc 1 232 5 is_stmt 1 view .LVU1054
 232:lvgl/src/widgets/lv_btnmatrix.c ****     invalidate_button_area(obj, btn_id);
 3191              		.loc 1 232 9 is_stmt 0 view .LVU1055
 3192 0060 E26A     		ldr	r2, [r4, #44]
 232:lvgl/src/widgets/lv_btnmatrix.c ****     invalidate_button_area(obj, btn_id);
 3193              		.loc 1 232 29 view .LVU1056
 3194 0062 32F81530 		ldrh	r3, [r2, r5, lsl #1]
 3195 0066 3343     		orrs	r3, r3, r6
 3196 0068 22F81530 		strh	r3, [r2, r5, lsl #1]	@ movhi
 233:lvgl/src/widgets/lv_btnmatrix.c **** 
 3197              		.loc 1 233 5 is_stmt 1 view .LVU1057
 3198 006c 2946     		mov	r1, r5
 3199 006e 2046     		mov	r0, r4
 3200 0070 FFF7FEFF 		bl	invalidate_button_area
 3201              	.LVL297:
 235:lvgl/src/widgets/lv_btnmatrix.c ****         lv_obj_refresh_ext_draw_size(obj);
 3202              		.loc 1 235 5 view .LVU1058
 235:lvgl/src/widgets/lv_btnmatrix.c ****         lv_obj_refresh_ext_draw_size(obj);
 3203              		.loc 1 235 7 is_stmt 0 view .LVU1059
 3204 0074 16F4806F 		tst	r6, #1024
 3205 0078 00D1     		bne	.L185
 3206              	.L169:
 238:lvgl/src/widgets/lv_btnmatrix.c **** 
 3207              		.loc 1 238 1 view .LVU1060
 3208 007a 70BD     		pop	{r4, r5, r6, pc}
ARM GAS  C:\Users\OSD\AppData\Local\Temp\ccnvvkrZ.s 			page 104


 3209              	.LVL298:
 3210              	.L185:
 236:lvgl/src/widgets/lv_btnmatrix.c ****     }
 3211              		.loc 1 236 9 is_stmt 1 view .LVU1061
 3212 007c 2046     		mov	r0, r4
 3213 007e FFF7FEFF 		bl	lv_obj_refresh_ext_draw_size
 3214              	.LVL299:
 3215 0082 FAE7     		b	.L169
 3216              	.LVL300:
 3217              	.L180:
 3218              		.cfi_def_cfa_offset 0
 3219              		.cfi_restore 4
 3220              		.cfi_restore 5
 3221              		.cfi_restore 6
 3222              		.cfi_restore 14
 236:lvgl/src/widgets/lv_btnmatrix.c ****     }
 3223              		.loc 1 236 9 is_stmt 0 view .LVU1062
 3224 0084 7047     		bx	lr
 3225              		.cfi_endproc
 3226              	.LFE165:
 3228              		.section	.text.lv_btnmatrix_set_btn_ctrl_all,"ax",%progbits
 3229              		.align	1
 3230              		.global	lv_btnmatrix_set_btn_ctrl_all
 3231              		.syntax unified
 3232              		.thumb
 3233              		.thumb_func
 3235              	lv_btnmatrix_set_btn_ctrl_all:
 3236              	.LVL301:
 3237              	.LFB167:
 262:lvgl/src/widgets/lv_btnmatrix.c ****     LV_ASSERT_OBJ(obj, MY_CLASS);
 3238              		.loc 1 262 1 is_stmt 1 view -0
 3239              		.cfi_startproc
 3240              		@ args = 0, pretend = 0, frame = 0
 3241              		@ frame_needed = 0, uses_anonymous_args = 0
 262:lvgl/src/widgets/lv_btnmatrix.c ****     LV_ASSERT_OBJ(obj, MY_CLASS);
 3242              		.loc 1 262 1 is_stmt 0 view .LVU1064
 3243 0000 70B5     		push	{r4, r5, r6, lr}
 3244              		.cfi_def_cfa_offset 16
 3245              		.cfi_offset 4, -16
 3246              		.cfi_offset 5, -12
 3247              		.cfi_offset 6, -8
 3248              		.cfi_offset 14, -4
 3249 0002 0546     		mov	r5, r0
 3250 0004 0E46     		mov	r6, r1
 263:lvgl/src/widgets/lv_btnmatrix.c **** 
 3251              		.loc 1 263 5 is_stmt 1 view .LVU1065
 263:lvgl/src/widgets/lv_btnmatrix.c **** 
 3252              		.loc 1 263 5 view .LVU1066
 263:lvgl/src/widgets/lv_btnmatrix.c **** 
 3253              		.loc 1 263 5 view .LVU1067
 265:lvgl/src/widgets/lv_btnmatrix.c ****     uint16_t i;
 3254              		.loc 1 265 5 view .LVU1068
 3255              	.LVL302:
 265:lvgl/src/widgets/lv_btnmatrix.c ****     uint16_t i;
 3256              		.loc 1 265 51 view .LVU1069
 266:lvgl/src/widgets/lv_btnmatrix.c ****     for(i = 0; i < btnm->btn_cnt; i++) {
 3257              		.loc 1 266 5 view .LVU1070
ARM GAS  C:\Users\OSD\AppData\Local\Temp\ccnvvkrZ.s 			page 105


 267:lvgl/src/widgets/lv_btnmatrix.c ****         lv_btnmatrix_set_btn_ctrl(obj, i, ctrl);
 3258              		.loc 1 267 5 view .LVU1071
 267:lvgl/src/widgets/lv_btnmatrix.c ****         lv_btnmatrix_set_btn_ctrl(obj, i, ctrl);
 3259              		.loc 1 267 11 is_stmt 0 view .LVU1072
 3260 0006 0024     		movs	r4, #0
 267:lvgl/src/widgets/lv_btnmatrix.c ****         lv_btnmatrix_set_btn_ctrl(obj, i, ctrl);
 3261              		.loc 1 267 5 view .LVU1073
 3262 0008 06E0     		b	.L187
 3263              	.LVL303:
 3264              	.L188:
 268:lvgl/src/widgets/lv_btnmatrix.c ****     }
 3265              		.loc 1 268 9 is_stmt 1 discriminator 3 view .LVU1074
 3266 000a 3246     		mov	r2, r6
 3267 000c 2146     		mov	r1, r4
 3268 000e 2846     		mov	r0, r5
 3269 0010 FFF7FEFF 		bl	lv_btnmatrix_set_btn_ctrl
 3270              	.LVL304:
 267:lvgl/src/widgets/lv_btnmatrix.c ****         lv_btnmatrix_set_btn_ctrl(obj, i, ctrl);
 3271              		.loc 1 267 35 discriminator 3 view .LVU1075
 267:lvgl/src/widgets/lv_btnmatrix.c ****         lv_btnmatrix_set_btn_ctrl(obj, i, ctrl);
 3272              		.loc 1 267 36 is_stmt 0 discriminator 3 view .LVU1076
 3273 0014 0134     		adds	r4, r4, #1
 3274              	.LVL305:
 267:lvgl/src/widgets/lv_btnmatrix.c ****         lv_btnmatrix_set_btn_ctrl(obj, i, ctrl);
 3275              		.loc 1 267 36 discriminator 3 view .LVU1077
 3276 0016 A4B2     		uxth	r4, r4
 3277              	.LVL306:
 3278              	.L187:
 267:lvgl/src/widgets/lv_btnmatrix.c ****         lv_btnmatrix_set_btn_ctrl(obj, i, ctrl);
 3279              		.loc 1 267 16 is_stmt 1 discriminator 1 view .LVU1078
 267:lvgl/src/widgets/lv_btnmatrix.c ****         lv_btnmatrix_set_btn_ctrl(obj, i, ctrl);
 3280              		.loc 1 267 24 is_stmt 0 discriminator 1 view .LVU1079
 3281 0018 2B8E     		ldrh	r3, [r5, #48]
 267:lvgl/src/widgets/lv_btnmatrix.c ****         lv_btnmatrix_set_btn_ctrl(obj, i, ctrl);
 3282              		.loc 1 267 5 discriminator 1 view .LVU1080
 3283 001a A342     		cmp	r3, r4
 3284 001c F5D8     		bhi	.L188
 270:lvgl/src/widgets/lv_btnmatrix.c **** 
 3285              		.loc 1 270 1 view .LVU1081
 3286 001e 70BD     		pop	{r4, r5, r6, pc}
 270:lvgl/src/widgets/lv_btnmatrix.c **** 
 3287              		.loc 1 270 1 view .LVU1082
 3288              		.cfi_endproc
 3289              	.LFE167:
 3291              		.section	.text.lv_btnmatrix_set_btn_width,"ax",%progbits
 3292              		.align	1
 3293              		.global	lv_btnmatrix_set_btn_width
 3294              		.syntax unified
 3295              		.thumb
 3296              		.thumb_func
 3298              	lv_btnmatrix_set_btn_width:
 3299              	.LVL307:
 3300              	.LFB169:
 284:lvgl/src/widgets/lv_btnmatrix.c ****     LV_ASSERT_OBJ(obj, MY_CLASS);
 3301              		.loc 1 284 1 is_stmt 1 view -0
 3302              		.cfi_startproc
 3303              		@ args = 0, pretend = 0, frame = 0
ARM GAS  C:\Users\OSD\AppData\Local\Temp\ccnvvkrZ.s 			page 106


 3304              		@ frame_needed = 0, uses_anonymous_args = 0
 285:lvgl/src/widgets/lv_btnmatrix.c **** 
 3305              		.loc 1 285 5 view .LVU1084
 285:lvgl/src/widgets/lv_btnmatrix.c **** 
 3306              		.loc 1 285 5 view .LVU1085
 285:lvgl/src/widgets/lv_btnmatrix.c **** 
 3307              		.loc 1 285 5 view .LVU1086
 287:lvgl/src/widgets/lv_btnmatrix.c ****     if(btn_id >= btnm->btn_cnt) return;
 3308              		.loc 1 287 5 view .LVU1087
 287:lvgl/src/widgets/lv_btnmatrix.c ****     if(btn_id >= btnm->btn_cnt) return;
 3309              		.loc 1 287 51 view .LVU1088
 288:lvgl/src/widgets/lv_btnmatrix.c ****     btnm->ctrl_bits[btn_id] &= (~LV_BTNMATRIX_WIDTH_MASK);
 3310              		.loc 1 288 5 view .LVU1089
 288:lvgl/src/widgets/lv_btnmatrix.c ****     btnm->ctrl_bits[btn_id] &= (~LV_BTNMATRIX_WIDTH_MASK);
 3311              		.loc 1 288 22 is_stmt 0 view .LVU1090
 3312 0000 038E     		ldrh	r3, [r0, #48]
 288:lvgl/src/widgets/lv_btnmatrix.c ****     btnm->ctrl_bits[btn_id] &= (~LV_BTNMATRIX_WIDTH_MASK);
 3313              		.loc 1 288 7 view .LVU1091
 3314 0002 8B42     		cmp	r3, r1
 3315 0004 00D8     		bhi	.L196
 3316 0006 7047     		bx	lr
 3317              	.L196:
 284:lvgl/src/widgets/lv_btnmatrix.c ****     LV_ASSERT_OBJ(obj, MY_CLASS);
 3318              		.loc 1 284 1 view .LVU1092
 3319 0008 10B5     		push	{r4, lr}
 3320              		.cfi_def_cfa_offset 8
 3321              		.cfi_offset 4, -8
 3322              		.cfi_offset 14, -4
 289:lvgl/src/widgets/lv_btnmatrix.c ****     btnm->ctrl_bits[btn_id] |= (LV_BTNMATRIX_WIDTH_MASK & width);
 3323              		.loc 1 289 5 is_stmt 1 view .LVU1093
 289:lvgl/src/widgets/lv_btnmatrix.c ****     btnm->ctrl_bits[btn_id] |= (LV_BTNMATRIX_WIDTH_MASK & width);
 3324              		.loc 1 289 9 is_stmt 0 view .LVU1094
 3325 000a C46A     		ldr	r4, [r0, #44]
 289:lvgl/src/widgets/lv_btnmatrix.c ****     btnm->ctrl_bits[btn_id] |= (LV_BTNMATRIX_WIDTH_MASK & width);
 3326              		.loc 1 289 29 view .LVU1095
 3327 000c 34F81130 		ldrh	r3, [r4, r1, lsl #1]
 3328 0010 23F00F03 		bic	r3, r3, #15
 3329 0014 24F81130 		strh	r3, [r4, r1, lsl #1]	@ movhi
 290:lvgl/src/widgets/lv_btnmatrix.c **** 
 3330              		.loc 1 290 5 is_stmt 1 view .LVU1096
 290:lvgl/src/widgets/lv_btnmatrix.c **** 
 3331              		.loc 1 290 9 is_stmt 0 view .LVU1097
 3332 0018 C36A     		ldr	r3, [r0, #44]
 290:lvgl/src/widgets/lv_btnmatrix.c **** 
 3333              		.loc 1 290 57 view .LVU1098
 3334 001a 02F00F02 		and	r2, r2, #15
 3335              	.LVL308:
 290:lvgl/src/widgets/lv_btnmatrix.c **** 
 3336              		.loc 1 290 29 view .LVU1099
 3337 001e 33F81140 		ldrh	r4, [r3, r1, lsl #1]
 3338 0022 2243     		orrs	r2, r2, r4
 3339 0024 23F81120 		strh	r2, [r3, r1, lsl #1]	@ movhi
 292:lvgl/src/widgets/lv_btnmatrix.c **** }
 3340              		.loc 1 292 5 is_stmt 1 view .LVU1100
 3341 0028 416A     		ldr	r1, [r0, #36]
 3342              	.LVL309:
 292:lvgl/src/widgets/lv_btnmatrix.c **** }
ARM GAS  C:\Users\OSD\AppData\Local\Temp\ccnvvkrZ.s 			page 107


 3343              		.loc 1 292 5 is_stmt 0 view .LVU1101
 3344 002a FFF7FEFF 		bl	lv_btnmatrix_set_map
 3345              	.LVL310:
 293:lvgl/src/widgets/lv_btnmatrix.c **** 
 3346              		.loc 1 293 1 view .LVU1102
 3347 002e 10BD     		pop	{r4, pc}
 3348              		.cfi_endproc
 3349              	.LFE169:
 3351              		.section	.text.lv_btnmatrix_get_map,"ax",%progbits
 3352              		.align	1
 3353              		.global	lv_btnmatrix_get_map
 3354              		.syntax unified
 3355              		.thumb
 3356              		.thumb_func
 3358              	lv_btnmatrix_get_map:
 3359              	.LVL311:
 3360              	.LFB171:
 311:lvgl/src/widgets/lv_btnmatrix.c ****     LV_ASSERT_OBJ(obj, MY_CLASS);
 3361              		.loc 1 311 1 is_stmt 1 view -0
 3362              		.cfi_startproc
 3363              		@ args = 0, pretend = 0, frame = 0
 3364              		@ frame_needed = 0, uses_anonymous_args = 0
 3365              		@ link register save eliminated.
 312:lvgl/src/widgets/lv_btnmatrix.c **** 
 3366              		.loc 1 312 5 view .LVU1104
 312:lvgl/src/widgets/lv_btnmatrix.c **** 
 3367              		.loc 1 312 5 view .LVU1105
 312:lvgl/src/widgets/lv_btnmatrix.c **** 
 3368              		.loc 1 312 5 view .LVU1106
 314:lvgl/src/widgets/lv_btnmatrix.c ****     return btnm->map_p;
 3369              		.loc 1 314 5 view .LVU1107
 314:lvgl/src/widgets/lv_btnmatrix.c ****     return btnm->map_p;
 3370              		.loc 1 314 51 view .LVU1108
 315:lvgl/src/widgets/lv_btnmatrix.c **** }
 3371              		.loc 1 315 5 view .LVU1109
 316:lvgl/src/widgets/lv_btnmatrix.c **** 
 3372              		.loc 1 316 1 is_stmt 0 view .LVU1110
 3373 0000 406A     		ldr	r0, [r0, #36]
 3374              	.LVL312:
 316:lvgl/src/widgets/lv_btnmatrix.c **** 
 3375              		.loc 1 316 1 view .LVU1111
 3376 0002 7047     		bx	lr
 3377              		.cfi_endproc
 3378              	.LFE171:
 3380              		.section	.text.lv_btnmatrix_get_selected_btn,"ax",%progbits
 3381              		.align	1
 3382              		.global	lv_btnmatrix_get_selected_btn
 3383              		.syntax unified
 3384              		.thumb
 3385              		.thumb_func
 3387              	lv_btnmatrix_get_selected_btn:
 3388              	.LVL313:
 3389              	.LFB172:
 319:lvgl/src/widgets/lv_btnmatrix.c ****     LV_ASSERT_OBJ(obj, MY_CLASS);
 3390              		.loc 1 319 1 is_stmt 1 view -0
 3391              		.cfi_startproc
 3392              		@ args = 0, pretend = 0, frame = 0
ARM GAS  C:\Users\OSD\AppData\Local\Temp\ccnvvkrZ.s 			page 108


 3393              		@ frame_needed = 0, uses_anonymous_args = 0
 3394              		@ link register save eliminated.
 320:lvgl/src/widgets/lv_btnmatrix.c **** 
 3395              		.loc 1 320 5 view .LVU1113
 320:lvgl/src/widgets/lv_btnmatrix.c **** 
 3396              		.loc 1 320 5 view .LVU1114
 320:lvgl/src/widgets/lv_btnmatrix.c **** 
 3397              		.loc 1 320 5 view .LVU1115
 322:lvgl/src/widgets/lv_btnmatrix.c ****     return btnm->btn_id_sel;
 3398              		.loc 1 322 5 view .LVU1116
 322:lvgl/src/widgets/lv_btnmatrix.c ****     return btnm->btn_id_sel;
 3399              		.loc 1 322 51 view .LVU1117
 323:lvgl/src/widgets/lv_btnmatrix.c **** }
 3400              		.loc 1 323 5 view .LVU1118
 324:lvgl/src/widgets/lv_btnmatrix.c **** 
 3401              		.loc 1 324 1 is_stmt 0 view .LVU1119
 3402 0000 808E     		ldrh	r0, [r0, #52]
 3403              	.LVL314:
 324:lvgl/src/widgets/lv_btnmatrix.c **** 
 3404              		.loc 1 324 1 view .LVU1120
 3405 0002 7047     		bx	lr
 3406              		.cfi_endproc
 3407              	.LFE172:
 3409              		.section	.text.lv_btnmatrix_get_btn_text,"ax",%progbits
 3410              		.align	1
 3411              		.global	lv_btnmatrix_get_btn_text
 3412              		.syntax unified
 3413              		.thumb
 3414              		.thumb_func
 3416              	lv_btnmatrix_get_btn_text:
 3417              	.LVL315:
 3418              	.LFB173:
 327:lvgl/src/widgets/lv_btnmatrix.c ****     LV_ASSERT_OBJ(obj, MY_CLASS);
 3419              		.loc 1 327 1 is_stmt 1 view -0
 3420              		.cfi_startproc
 3421              		@ args = 0, pretend = 0, frame = 0
 3422              		@ frame_needed = 0, uses_anonymous_args = 0
 327:lvgl/src/widgets/lv_btnmatrix.c ****     LV_ASSERT_OBJ(obj, MY_CLASS);
 3423              		.loc 1 327 1 is_stmt 0 view .LVU1122
 3424 0000 2DE9F843 		push	{r3, r4, r5, r6, r7, r8, r9, lr}
 3425              		.cfi_def_cfa_offset 32
 3426              		.cfi_offset 3, -32
 3427              		.cfi_offset 4, -28
 3428              		.cfi_offset 5, -24
 3429              		.cfi_offset 6, -20
 3430              		.cfi_offset 7, -16
 3431              		.cfi_offset 8, -12
 3432              		.cfi_offset 9, -8
 3433              		.cfi_offset 14, -4
 328:lvgl/src/widgets/lv_btnmatrix.c **** 
 3434              		.loc 1 328 5 is_stmt 1 view .LVU1123
 328:lvgl/src/widgets/lv_btnmatrix.c **** 
 3435              		.loc 1 328 5 view .LVU1124
 328:lvgl/src/widgets/lv_btnmatrix.c **** 
 3436              		.loc 1 328 5 view .LVU1125
 330:lvgl/src/widgets/lv_btnmatrix.c **** 
 3437              		.loc 1 330 5 view .LVU1126
ARM GAS  C:\Users\OSD\AppData\Local\Temp\ccnvvkrZ.s 			page 109


 330:lvgl/src/widgets/lv_btnmatrix.c **** 
 3438              		.loc 1 330 7 is_stmt 0 view .LVU1127
 3439 0004 4FF6FF73 		movw	r3, #65535
 3440 0008 9942     		cmp	r1, r3
 3441 000a 23D0     		beq	.L204
 3442 000c 8046     		mov	r8, r0
 3443 000e 0F46     		mov	r7, r1
 332:lvgl/src/widgets/lv_btnmatrix.c ****     if(btn_id > btnm->btn_cnt) return NULL;
 3444              		.loc 1 332 5 is_stmt 1 view .LVU1128
 3445              	.LVL316:
 333:lvgl/src/widgets/lv_btnmatrix.c **** 
 3446              		.loc 1 333 5 view .LVU1129
 333:lvgl/src/widgets/lv_btnmatrix.c **** 
 3447              		.loc 1 333 21 is_stmt 0 view .LVU1130
 3448 0010 B0F83090 		ldrh	r9, [r0, #48]
 333:lvgl/src/widgets/lv_btnmatrix.c **** 
 3449              		.loc 1 333 7 view .LVU1131
 3450 0014 8945     		cmp	r9, r1
 3451 0016 1FD3     		bcc	.L205
 336:lvgl/src/widgets/lv_btnmatrix.c **** 
 3452              		.loc 1 336 14 view .LVU1132
 3453 0018 0025     		movs	r5, #0
 335:lvgl/src/widgets/lv_btnmatrix.c ****     uint16_t btn_i = 0;
 3454              		.loc 1 335 14 view .LVU1133
 3455 001a 2E46     		mov	r6, r5
 3456 001c 00E0     		b	.L201
 3457              	.LVL317:
 3458              	.L202:
 327:lvgl/src/widgets/lv_btnmatrix.c ****     LV_ASSERT_OBJ(obj, MY_CLASS);
 3459              		.loc 1 327 1 view .LVU1134
 3460 001e 2646     		mov	r6, r4
 3461              	.LVL318:
 3462              	.L201:
 340:lvgl/src/widgets/lv_btnmatrix.c ****         btn_i++;
 3463              		.loc 1 340 10 is_stmt 1 view .LVU1135
 3464 0020 BD42     		cmp	r5, r7
 3465 0022 0FD0     		beq	.L208
 341:lvgl/src/widgets/lv_btnmatrix.c ****         txt_i++;
 3466              		.loc 1 341 9 view .LVU1136
 341:lvgl/src/widgets/lv_btnmatrix.c ****         txt_i++;
 3467              		.loc 1 341 14 is_stmt 0 view .LVU1137
 3468 0024 0135     		adds	r5, r5, #1
 3469              	.LVL319:
 341:lvgl/src/widgets/lv_btnmatrix.c ****         txt_i++;
 3470              		.loc 1 341 14 view .LVU1138
 3471 0026 ADB2     		uxth	r5, r5
 3472              	.LVL320:
 342:lvgl/src/widgets/lv_btnmatrix.c ****         if(strcmp(btnm->map_p[txt_i], "\n") == 0) txt_i++;
 3473              		.loc 1 342 9 is_stmt 1 view .LVU1139
 342:lvgl/src/widgets/lv_btnmatrix.c ****         if(strcmp(btnm->map_p[txt_i], "\n") == 0) txt_i++;
 3474              		.loc 1 342 14 is_stmt 0 view .LVU1140
 3475 0028 741C     		adds	r4, r6, #1
 3476 002a A4B2     		uxth	r4, r4
 3477              	.LVL321:
 343:lvgl/src/widgets/lv_btnmatrix.c ****     }
 3478              		.loc 1 343 9 is_stmt 1 view .LVU1141
 343:lvgl/src/widgets/lv_btnmatrix.c ****     }
ARM GAS  C:\Users\OSD\AppData\Local\Temp\ccnvvkrZ.s 			page 110


 3479              		.loc 1 343 23 is_stmt 0 view .LVU1142
 3480 002c D8F82430 		ldr	r3, [r8, #36]
 343:lvgl/src/widgets/lv_btnmatrix.c ****     }
 3481              		.loc 1 343 12 view .LVU1143
 3482 0030 0B49     		ldr	r1, .L209
 3483 0032 53F82400 		ldr	r0, [r3, r4, lsl #2]
 3484 0036 FFF7FEFF 		bl	strcmp
 3485              	.LVL322:
 343:lvgl/src/widgets/lv_btnmatrix.c ****     }
 3486              		.loc 1 343 11 view .LVU1144
 3487 003a 0028     		cmp	r0, #0
 3488 003c EFD1     		bne	.L202
 343:lvgl/src/widgets/lv_btnmatrix.c ****     }
 3489              		.loc 1 343 51 is_stmt 1 discriminator 1 view .LVU1145
 343:lvgl/src/widgets/lv_btnmatrix.c ****     }
 3490              		.loc 1 343 56 is_stmt 0 discriminator 1 view .LVU1146
 3491 003e B41C     		adds	r4, r6, #2
 3492              	.LVL323:
 343:lvgl/src/widgets/lv_btnmatrix.c ****     }
 3493              		.loc 1 343 56 discriminator 1 view .LVU1147
 3494 0040 A4B2     		uxth	r4, r4
 3495              	.LVL324:
 343:lvgl/src/widgets/lv_btnmatrix.c ****     }
 3496              		.loc 1 343 56 discriminator 1 view .LVU1148
 3497 0042 ECE7     		b	.L202
 3498              	.LVL325:
 3499              	.L208:
 346:lvgl/src/widgets/lv_btnmatrix.c **** 
 3500              		.loc 1 346 5 is_stmt 1 view .LVU1149
 346:lvgl/src/widgets/lv_btnmatrix.c **** 
 3501              		.loc 1 346 7 is_stmt 0 view .LVU1150
 3502 0044 A945     		cmp	r9, r5
 3503 0046 09D0     		beq	.L206
 348:lvgl/src/widgets/lv_btnmatrix.c **** }
 3504              		.loc 1 348 5 is_stmt 1 view .LVU1151
 348:lvgl/src/widgets/lv_btnmatrix.c **** }
 3505              		.loc 1 348 16 is_stmt 0 view .LVU1152
 3506 0048 D8F82430 		ldr	r3, [r8, #36]
 348:lvgl/src/widgets/lv_btnmatrix.c **** }
 3507              		.loc 1 348 23 view .LVU1153
 3508 004c 53F82600 		ldr	r0, [r3, r6, lsl #2]
 3509              	.LVL326:
 3510              	.L199:
 349:lvgl/src/widgets/lv_btnmatrix.c **** 
 3511              		.loc 1 349 1 view .LVU1154
 3512 0050 BDE8F883 		pop	{r3, r4, r5, r6, r7, r8, r9, pc}
 3513              	.LVL327:
 3514              	.L204:
 330:lvgl/src/widgets/lv_btnmatrix.c **** 
 3515              		.loc 1 330 48 view .LVU1155
 3516 0054 0020     		movs	r0, #0
 3517              	.LVL328:
 330:lvgl/src/widgets/lv_btnmatrix.c **** 
 3518              		.loc 1 330 48 view .LVU1156
 3519 0056 FBE7     		b	.L199
 3520              	.LVL329:
 3521              	.L205:
ARM GAS  C:\Users\OSD\AppData\Local\Temp\ccnvvkrZ.s 			page 111


 333:lvgl/src/widgets/lv_btnmatrix.c **** 
 3522              		.loc 1 333 39 view .LVU1157
 3523 0058 0020     		movs	r0, #0
 3524              	.LVL330:
 333:lvgl/src/widgets/lv_btnmatrix.c **** 
 3525              		.loc 1 333 39 view .LVU1158
 3526 005a F9E7     		b	.L199
 3527              	.LVL331:
 3528              	.L206:
 346:lvgl/src/widgets/lv_btnmatrix.c **** 
 3529              		.loc 1 346 39 view .LVU1159
 3530 005c 0020     		movs	r0, #0
 3531 005e F7E7     		b	.L199
 3532              	.L210:
 3533              		.align	2
 3534              	.L209:
 3535 0060 00000000 		.word	.LC0
 3536              		.cfi_endproc
 3537              	.LFE173:
 3539              		.section	.text.lv_btnmatrix_has_btn_ctrl,"ax",%progbits
 3540              		.align	1
 3541              		.global	lv_btnmatrix_has_btn_ctrl
 3542              		.syntax unified
 3543              		.thumb
 3544              		.thumb_func
 3546              	lv_btnmatrix_has_btn_ctrl:
 3547              	.LVL332:
 3548              	.LFB174:
 352:lvgl/src/widgets/lv_btnmatrix.c ****     LV_ASSERT_OBJ(obj, MY_CLASS);
 3549              		.loc 1 352 1 is_stmt 1 view -0
 3550              		.cfi_startproc
 3551              		@ args = 0, pretend = 0, frame = 0
 3552              		@ frame_needed = 0, uses_anonymous_args = 0
 3553              		@ link register save eliminated.
 353:lvgl/src/widgets/lv_btnmatrix.c **** 
 3554              		.loc 1 353 5 view .LVU1161
 353:lvgl/src/widgets/lv_btnmatrix.c **** 
 3555              		.loc 1 353 5 view .LVU1162
 353:lvgl/src/widgets/lv_btnmatrix.c **** 
 3556              		.loc 1 353 5 view .LVU1163
 355:lvgl/src/widgets/lv_btnmatrix.c ****     if(btn_id >= btnm->btn_cnt) return false;
 3557              		.loc 1 355 5 view .LVU1164
 355:lvgl/src/widgets/lv_btnmatrix.c ****     if(btn_id >= btnm->btn_cnt) return false;
 3558              		.loc 1 355 51 view .LVU1165
 356:lvgl/src/widgets/lv_btnmatrix.c **** 
 3559              		.loc 1 356 5 view .LVU1166
 356:lvgl/src/widgets/lv_btnmatrix.c **** 
 3560              		.loc 1 356 22 is_stmt 0 view .LVU1167
 3561 0000 038E     		ldrh	r3, [r0, #48]
 356:lvgl/src/widgets/lv_btnmatrix.c **** 
 3562              		.loc 1 356 7 view .LVU1168
 3563 0002 8B42     		cmp	r3, r1
 3564 0004 08D9     		bls	.L213
 358:lvgl/src/widgets/lv_btnmatrix.c **** }
 3565              		.loc 1 358 5 is_stmt 1 view .LVU1169
 358:lvgl/src/widgets/lv_btnmatrix.c **** }
 3566              		.loc 1 358 18 is_stmt 0 view .LVU1170
ARM GAS  C:\Users\OSD\AppData\Local\Temp\ccnvvkrZ.s 			page 112


 3567 0006 C36A     		ldr	r3, [r0, #44]
 358:lvgl/src/widgets/lv_btnmatrix.c **** }
 3568              		.loc 1 358 29 view .LVU1171
 3569 0008 33F81130 		ldrh	r3, [r3, r1, lsl #1]
 358:lvgl/src/widgets/lv_btnmatrix.c **** }
 3570              		.loc 1 358 62 view .LVU1172
 3571 000c 32EA0303 		bics	r3, r2, r3
 3572 0010 0CBF     		ite	eq
 3573 0012 0120     		moveq	r0, #1
 3574              	.LVL333:
 358:lvgl/src/widgets/lv_btnmatrix.c **** }
 3575              		.loc 1 358 62 view .LVU1173
 3576 0014 0020     		movne	r0, #0
 3577 0016 7047     		bx	lr
 3578              	.LVL334:
 3579              	.L213:
 356:lvgl/src/widgets/lv_btnmatrix.c **** 
 3580              		.loc 1 356 40 view .LVU1174
 3581 0018 0020     		movs	r0, #0
 3582              	.LVL335:
 359:lvgl/src/widgets/lv_btnmatrix.c **** 
 3583              		.loc 1 359 1 view .LVU1175
 3584 001a 7047     		bx	lr
 3585              		.cfi_endproc
 3586              	.LFE174:
 3588              		.section	.text.make_one_button_checked,"ax",%progbits
 3589              		.align	1
 3590              		.syntax unified
 3591              		.thumb
 3592              		.thumb_func
 3594              	make_one_button_checked:
 3595              	.LVL336:
 3596              	.LFB193:
1053:lvgl/src/widgets/lv_btnmatrix.c ****     /*Save whether the button was toggled*/
 3597              		.loc 1 1053 1 is_stmt 1 view -0
 3598              		.cfi_startproc
 3599              		@ args = 0, pretend = 0, frame = 0
 3600              		@ frame_needed = 0, uses_anonymous_args = 0
1053:lvgl/src/widgets/lv_btnmatrix.c ****     /*Save whether the button was toggled*/
 3601              		.loc 1 1053 1 is_stmt 0 view .LVU1177
 3602 0000 70B5     		push	{r4, r5, r6, lr}
 3603              		.cfi_def_cfa_offset 16
 3604              		.cfi_offset 4, -16
 3605              		.cfi_offset 5, -12
 3606              		.cfi_offset 6, -8
 3607              		.cfi_offset 14, -4
 3608 0002 0446     		mov	r4, r0
 3609 0004 0E46     		mov	r6, r1
1055:lvgl/src/widgets/lv_btnmatrix.c **** 
 3610              		.loc 1 1055 5 is_stmt 1 view .LVU1178
1055:lvgl/src/widgets/lv_btnmatrix.c **** 
 3611              		.loc 1 1055 24 is_stmt 0 view .LVU1179
 3612 0006 4FF48072 		mov	r2, #256
 3613 000a FFF7FEFF 		bl	lv_btnmatrix_has_btn_ctrl
 3614              	.LVL337:
1055:lvgl/src/widgets/lv_btnmatrix.c **** 
 3615              		.loc 1 1055 24 view .LVU1180
ARM GAS  C:\Users\OSD\AppData\Local\Temp\ccnvvkrZ.s 			page 113


 3616 000e 0546     		mov	r5, r0
 3617              	.LVL338:
1057:lvgl/src/widgets/lv_btnmatrix.c **** 
 3618              		.loc 1 1057 5 is_stmt 1 view .LVU1181
 3619 0010 4FF48071 		mov	r1, #256
 3620 0014 2046     		mov	r0, r4
 3621 0016 FFF7FEFF 		bl	lv_btnmatrix_clear_btn_ctrl_all
 3622              	.LVL339:
1059:lvgl/src/widgets/lv_btnmatrix.c **** }
 3623              		.loc 1 1059 5 view .LVU1182
1059:lvgl/src/widgets/lv_btnmatrix.c **** }
 3624              		.loc 1 1059 7 is_stmt 0 view .LVU1183
 3625 001a 05B9     		cbnz	r5, .L217
 3626              	.L214:
1060:lvgl/src/widgets/lv_btnmatrix.c **** 
 3627              		.loc 1 1060 1 view .LVU1184
 3628 001c 70BD     		pop	{r4, r5, r6, pc}
 3629              	.LVL340:
 3630              	.L217:
1059:lvgl/src/widgets/lv_btnmatrix.c **** }
 3631              		.loc 1 1059 21 is_stmt 1 discriminator 1 view .LVU1185
 3632 001e 4FF48072 		mov	r2, #256
 3633 0022 3146     		mov	r1, r6
 3634 0024 2046     		mov	r0, r4
 3635 0026 FFF7FEFF 		bl	lv_btnmatrix_set_btn_ctrl
 3636              	.LVL341:
1060:lvgl/src/widgets/lv_btnmatrix.c **** 
 3637              		.loc 1 1060 1 is_stmt 0 discriminator 1 view .LVU1186
 3638 002a F7E7     		b	.L214
 3639              		.cfi_endproc
 3640              	.LFE193:
 3642              		.section	.text.lv_btnmatrix_event,"ax",%progbits
 3643              		.align	1
 3644              		.syntax unified
 3645              		.thumb
 3646              		.thumb_func
 3648              	lv_btnmatrix_event:
 3649              	.LVL342:
 3650              	.LFB178:
 405:lvgl/src/widgets/lv_btnmatrix.c ****     LV_UNUSED(class_p);
 3651              		.loc 1 405 1 is_stmt 1 view -0
 3652              		.cfi_startproc
 3653              		@ args = 0, pretend = 0, frame = 8
 3654              		@ frame_needed = 0, uses_anonymous_args = 0
 405:lvgl/src/widgets/lv_btnmatrix.c ****     LV_UNUSED(class_p);
 3655              		.loc 1 405 1 is_stmt 0 view .LVU1188
 3656 0000 2DE9F04F 		push	{r4, r5, r6, r7, r8, r9, r10, fp, lr}
 3657              		.cfi_def_cfa_offset 36
 3658              		.cfi_offset 4, -36
 3659              		.cfi_offset 5, -32
 3660              		.cfi_offset 6, -28
 3661              		.cfi_offset 7, -24
 3662              		.cfi_offset 8, -20
 3663              		.cfi_offset 9, -16
 3664              		.cfi_offset 10, -12
 3665              		.cfi_offset 11, -8
 3666              		.cfi_offset 14, -4
ARM GAS  C:\Users\OSD\AppData\Local\Temp\ccnvvkrZ.s 			page 114


 3667 0004 83B0     		sub	sp, sp, #12
 3668              		.cfi_def_cfa_offset 48
 3669 0006 0D46     		mov	r5, r1
 406:lvgl/src/widgets/lv_btnmatrix.c **** 
 3670              		.loc 1 406 5 is_stmt 1 view .LVU1189
 408:lvgl/src/widgets/lv_btnmatrix.c **** 
 3671              		.loc 1 408 5 view .LVU1190
 411:lvgl/src/widgets/lv_btnmatrix.c ****     if(res != LV_RES_OK) return;
 3672              		.loc 1 411 5 view .LVU1191
 411:lvgl/src/widgets/lv_btnmatrix.c ****     if(res != LV_RES_OK) return;
 3673              		.loc 1 411 11 is_stmt 0 view .LVU1192
 3674 0008 B648     		ldr	r0, .L319
 3675              	.LVL343:
 411:lvgl/src/widgets/lv_btnmatrix.c ****     if(res != LV_RES_OK) return;
 3676              		.loc 1 411 11 view .LVU1193
 3677 000a FFF7FEFF 		bl	lv_obj_event_base
 3678              	.LVL344:
 412:lvgl/src/widgets/lv_btnmatrix.c **** 
 3679              		.loc 1 412 5 is_stmt 1 view .LVU1194
 412:lvgl/src/widgets/lv_btnmatrix.c **** 
 3680              		.loc 1 412 7 is_stmt 0 view .LVU1195
 3681 000e 0128     		cmp	r0, #1
 3682 0010 02D0     		beq	.L288
 3683              	.LVL345:
 3684              	.L218:
 685:lvgl/src/widgets/lv_btnmatrix.c **** 
 3685              		.loc 1 685 1 view .LVU1196
 3686 0012 03B0     		add	sp, sp, #12
 3687              		.cfi_remember_state
 3688              		.cfi_def_cfa_offset 36
 3689              		@ sp needed
 3690 0014 BDE8F08F 		pop	{r4, r5, r6, r7, r8, r9, r10, fp, pc}
 3691              	.LVL346:
 3692              	.L288:
 3693              		.cfi_restore_state
 414:lvgl/src/widgets/lv_btnmatrix.c ****     lv_obj_t * obj = lv_event_get_target(e);
 3694              		.loc 1 414 5 is_stmt 1 view .LVU1197
 414:lvgl/src/widgets/lv_btnmatrix.c ****     lv_obj_t * obj = lv_event_get_target(e);
 3695              		.loc 1 414 28 is_stmt 0 view .LVU1198
 3696 0018 2846     		mov	r0, r5
 3697              	.LVL347:
 414:lvgl/src/widgets/lv_btnmatrix.c ****     lv_obj_t * obj = lv_event_get_target(e);
 3698              		.loc 1 414 28 view .LVU1199
 3699 001a FFF7FEFF 		bl	lv_event_get_code
 3700              	.LVL348:
 3701 001e 0446     		mov	r4, r0
 3702              	.LVL349:
 415:lvgl/src/widgets/lv_btnmatrix.c ****     lv_btnmatrix_t * btnm = (lv_btnmatrix_t *)obj;
 3703              		.loc 1 415 5 is_stmt 1 view .LVU1200
 415:lvgl/src/widgets/lv_btnmatrix.c ****     lv_btnmatrix_t * btnm = (lv_btnmatrix_t *)obj;
 3704              		.loc 1 415 22 is_stmt 0 view .LVU1201
 3705 0020 2846     		mov	r0, r5
 3706 0022 FFF7FEFF 		bl	lv_event_get_target
 3707              	.LVL350:
 3708 0026 0646     		mov	r6, r0
 3709              	.LVL351:
 416:lvgl/src/widgets/lv_btnmatrix.c ****     lv_point_t p;
ARM GAS  C:\Users\OSD\AppData\Local\Temp\ccnvvkrZ.s 			page 115


 3710              		.loc 1 416 5 is_stmt 1 view .LVU1202
 417:lvgl/src/widgets/lv_btnmatrix.c **** 
 3711              		.loc 1 417 5 view .LVU1203
 419:lvgl/src/widgets/lv_btnmatrix.c ****         if(has_popovers_in_top_row(obj)) {
 3712              		.loc 1 419 5 view .LVU1204
 419:lvgl/src/widgets/lv_btnmatrix.c ****         if(has_popovers_in_top_row(obj)) {
 3713              		.loc 1 419 7 is_stmt 0 view .LVU1205
 3714 0028 132C     		cmp	r4, #19
 3715 002a 23D0     		beq	.L289
 3716              	.LVL352:
 3717              	.L220:
 426:lvgl/src/widgets/lv_btnmatrix.c ****         lv_btnmatrix_set_map(obj, btnm->map_p);
 3718              		.loc 1 426 5 is_stmt 1 view .LVU1206
 426:lvgl/src/widgets/lv_btnmatrix.c ****         lv_btnmatrix_set_map(obj, btnm->map_p);
 3719              		.loc 1 426 7 is_stmt 0 view .LVU1207
 3720 002c 2A2C     		cmp	r4, #42
 3721 002e 34D0     		beq	.L290
 429:lvgl/src/widgets/lv_btnmatrix.c ****         lv_btnmatrix_set_map(obj, btnm->map_p);
 3722              		.loc 1 429 10 is_stmt 1 view .LVU1208
 429:lvgl/src/widgets/lv_btnmatrix.c ****         lv_btnmatrix_set_map(obj, btnm->map_p);
 3723              		.loc 1 429 12 is_stmt 0 view .LVU1209
 3724 0030 292C     		cmp	r4, #41
 3725 0032 37D0     		beq	.L291
 432:lvgl/src/widgets/lv_btnmatrix.c ****         void * param = lv_event_get_param(e);
 3726              		.loc 1 432 10 is_stmt 1 view .LVU1210
 432:lvgl/src/widgets/lv_btnmatrix.c ****         void * param = lv_event_get_param(e);
 3727              		.loc 1 432 12 is_stmt 0 view .LVU1211
 3728 0034 012C     		cmp	r4, #1
 3729 0036 3AD0     		beq	.L292
 467:lvgl/src/widgets/lv_btnmatrix.c ****         void * param = lv_event_get_param(e);
 3730              		.loc 1 467 10 is_stmt 1 view .LVU1212
 467:lvgl/src/widgets/lv_btnmatrix.c ****         void * param = lv_event_get_param(e);
 3731              		.loc 1 467 12 is_stmt 0 view .LVU1213
 3732 0038 022C     		cmp	r4, #2
 3733 003a 00F08C80 		beq	.L293
 500:lvgl/src/widgets/lv_btnmatrix.c ****         if(btnm->btn_id_sel != LV_BTNMATRIX_BTN_NONE) {
 3734              		.loc 1 500 10 is_stmt 1 view .LVU1214
 500:lvgl/src/widgets/lv_btnmatrix.c ****         if(btnm->btn_id_sel != LV_BTNMATRIX_BTN_NONE) {
 3735              		.loc 1 500 12 is_stmt 0 view .LVU1215
 3736 003e 082C     		cmp	r4, #8
 3737 0040 00F0DF80 		beq	.L294
 528:lvgl/src/widgets/lv_btnmatrix.c ****         if(btnm->btn_id_sel != LV_BTNMATRIX_BTN_NONE) {
 3738              		.loc 1 528 10 is_stmt 1 view .LVU1216
 528:lvgl/src/widgets/lv_btnmatrix.c ****         if(btnm->btn_id_sel != LV_BTNMATRIX_BTN_NONE) {
 3739              		.loc 1 528 12 is_stmt 0 view .LVU1217
 3740 0044 062C     		cmp	r4, #6
 3741 0046 00F02B81 		beq	.L295
 539:lvgl/src/widgets/lv_btnmatrix.c ****         invalidate_button_area(obj, btnm->btn_id_sel);
 3742              		.loc 1 539 10 is_stmt 1 view .LVU1218
 539:lvgl/src/widgets/lv_btnmatrix.c ****         invalidate_button_area(obj, btnm->btn_id_sel);
 3743              		.loc 1 539 12 is_stmt 0 view .LVU1219
 3744 004a 032C     		cmp	r4, #3
 3745 004c 00F04C81 		beq	.L296
 543:lvgl/src/widgets/lv_btnmatrix.c ****         if(btnm->btn_cnt == 0) return;
 3746              		.loc 1 543 10 is_stmt 1 view .LVU1220
 543:lvgl/src/widgets/lv_btnmatrix.c ****         if(btnm->btn_cnt == 0) return;
 3747              		.loc 1 543 12 is_stmt 0 view .LVU1221
ARM GAS  C:\Users\OSD\AppData\Local\Temp\ccnvvkrZ.s 			page 116


 3748 0050 0E2C     		cmp	r4, #14
 3749 0052 00F05181 		beq	.L297
 575:lvgl/src/widgets/lv_btnmatrix.c ****         if(btnm->btn_id_sel != LV_BTNMATRIX_BTN_NONE) invalidate_button_area(obj, btnm->btn_id_sel)
 3750              		.loc 1 575 10 is_stmt 1 view .LVU1222
 575:lvgl/src/widgets/lv_btnmatrix.c ****         if(btnm->btn_id_sel != LV_BTNMATRIX_BTN_NONE) invalidate_button_area(obj, btnm->btn_id_sel)
 3751              		.loc 1 575 40 is_stmt 0 view .LVU1223
 3752 0056 A4F10F03 		sub	r3, r4, #15
 3753 005a DBB2     		uxtb	r3, r3
 575:lvgl/src/widgets/lv_btnmatrix.c ****         if(btnm->btn_id_sel != LV_BTNMATRIX_BTN_NONE) invalidate_button_area(obj, btnm->btn_id_sel)
 3754              		.loc 1 575 12 view .LVU1224
 3755 005c 012B     		cmp	r3, #1
 3756 005e 40F2A381 		bls	.L298
 579:lvgl/src/widgets/lv_btnmatrix.c **** 
 3757              		.loc 1 579 10 is_stmt 1 view .LVU1225
 579:lvgl/src/widgets/lv_btnmatrix.c **** 
 3758              		.loc 1 579 12 is_stmt 0 view .LVU1226
 3759 0062 0D2C     		cmp	r4, #13
 3760 0064 00F0AD81 		beq	.L299
 681:lvgl/src/widgets/lv_btnmatrix.c ****         draw_main(e);
 3761              		.loc 1 681 10 is_stmt 1 view .LVU1227
 681:lvgl/src/widgets/lv_btnmatrix.c ****         draw_main(e);
 3762              		.loc 1 681 12 is_stmt 0 view .LVU1228
 3763 0068 152C     		cmp	r4, #21
 3764 006a D2D1     		bne	.L218
 682:lvgl/src/widgets/lv_btnmatrix.c ****     }
 3765              		.loc 1 682 9 is_stmt 1 view .LVU1229
 3766 006c 2846     		mov	r0, r5
 3767 006e FFF7FEFF 		bl	draw_main
 3768              	.LVL353:
 3769 0072 CEE7     		b	.L218
 3770              	.LVL354:
 3771              	.L289:
 420:lvgl/src/widgets/lv_btnmatrix.c ****             /*reserve one row worth of extra space to account for popovers in the top row*/
 3772              		.loc 1 420 9 view .LVU1230
 420:lvgl/src/widgets/lv_btnmatrix.c ****             /*reserve one row worth of extra space to account for popovers in the top row*/
 3773              		.loc 1 420 12 is_stmt 0 view .LVU1231
 3774 0074 FFF7FEFF 		bl	has_popovers_in_top_row
 3775              	.LVL355:
 420:lvgl/src/widgets/lv_btnmatrix.c ****             /*reserve one row worth of extra space to account for popovers in the top row*/
 3776              		.loc 1 420 11 view .LVU1232
 3777 0078 0028     		cmp	r0, #0
 3778 007a D7D0     		beq	.L220
 3779              	.LBB142:
 422:lvgl/src/widgets/lv_btnmatrix.c ****             lv_event_set_ext_draw_size(e, s);
 3780              		.loc 1 422 13 is_stmt 1 view .LVU1233
 422:lvgl/src/widgets/lv_btnmatrix.c ****             lv_event_set_ext_draw_size(e, s);
 3781              		.loc 1 422 32 is_stmt 0 view .LVU1234
 3782 007c 738E     		ldrh	r3, [r6, #50]
 422:lvgl/src/widgets/lv_btnmatrix.c ****             lv_event_set_ext_draw_size(e, s);
 3783              		.loc 1 422 24 view .LVU1235
 3784 007e 23B9     		cbnz	r3, .L300
 3785 0080 0021     		movs	r1, #0
 3786              	.L221:
 3787              	.LVL356:
 423:lvgl/src/widgets/lv_btnmatrix.c ****         }
 3788              		.loc 1 423 13 is_stmt 1 discriminator 4 view .LVU1236
 3789 0082 2846     		mov	r0, r5
ARM GAS  C:\Users\OSD\AppData\Local\Temp\ccnvvkrZ.s 			page 117


 3790 0084 FFF7FEFF 		bl	lv_event_set_ext_draw_size
 3791              	.LVL357:
 423:lvgl/src/widgets/lv_btnmatrix.c ****         }
 3792              		.loc 1 423 13 is_stmt 0 discriminator 4 view .LVU1237
 3793 0088 D0E7     		b	.L220
 3794              	.L300:
 422:lvgl/src/widgets/lv_btnmatrix.c ****             lv_event_set_ext_draw_size(e, s);
 3795              		.loc 1 422 48 discriminator 1 view .LVU1238
 3796 008a 3046     		mov	r0, r6
 3797 008c FFF7FEFF 		bl	lv_obj_get_content_height
 3798              	.LVL358:
 422:lvgl/src/widgets/lv_btnmatrix.c ****             lv_event_set_ext_draw_size(e, s);
 3799              		.loc 1 422 85 discriminator 1 view .LVU1239
 3800 0090 718E     		ldrh	r1, [r6, #50]
 422:lvgl/src/widgets/lv_btnmatrix.c ****             lv_event_set_ext_draw_size(e, s);
 3801              		.loc 1 422 79 discriminator 1 view .LVU1240
 3802 0092 90FBF1F1 		sdiv	r1, r0, r1
 422:lvgl/src/widgets/lv_btnmatrix.c ****             lv_event_set_ext_draw_size(e, s);
 3803              		.loc 1 422 24 discriminator 1 view .LVU1241
 3804 0096 09B2     		sxth	r1, r1
 3805 0098 F3E7     		b	.L221
 3806              	.L290:
 422:lvgl/src/widgets/lv_btnmatrix.c ****             lv_event_set_ext_draw_size(e, s);
 3807              		.loc 1 422 24 discriminator 1 view .LVU1242
 3808              	.LBE142:
 427:lvgl/src/widgets/lv_btnmatrix.c ****     }
 3809              		.loc 1 427 9 is_stmt 1 view .LVU1243
 3810 009a 716A     		ldr	r1, [r6, #36]
 3811 009c 3046     		mov	r0, r6
 3812 009e FFF7FEFF 		bl	lv_btnmatrix_set_map
 3813              	.LVL359:
 3814 00a2 B6E7     		b	.L218
 3815              	.L291:
 430:lvgl/src/widgets/lv_btnmatrix.c ****     }
 3816              		.loc 1 430 9 view .LVU1244
 3817 00a4 716A     		ldr	r1, [r6, #36]
 3818 00a6 3046     		mov	r0, r6
 3819 00a8 FFF7FEFF 		bl	lv_btnmatrix_set_map
 3820              	.LVL360:
 3821 00ac B1E7     		b	.L218
 3822              	.L292:
 3823              	.LBB143:
 433:lvgl/src/widgets/lv_btnmatrix.c ****         invalidate_button_area(obj, btnm->btn_id_sel);
 3824              		.loc 1 433 9 view .LVU1245
 433:lvgl/src/widgets/lv_btnmatrix.c ****         invalidate_button_area(obj, btnm->btn_id_sel);
 3825              		.loc 1 433 24 is_stmt 0 view .LVU1246
 3826 00ae 2846     		mov	r0, r5
 3827 00b0 FFF7FEFF 		bl	lv_event_get_param
 3828              	.LVL361:
 3829 00b4 0446     		mov	r4, r0
 3830              	.LVL362:
 434:lvgl/src/widgets/lv_btnmatrix.c **** 
 3831              		.loc 1 434 9 is_stmt 1 view .LVU1247
 3832 00b6 B18E     		ldrh	r1, [r6, #52]
 3833 00b8 3046     		mov	r0, r6
 3834              	.LVL363:
 434:lvgl/src/widgets/lv_btnmatrix.c **** 
ARM GAS  C:\Users\OSD\AppData\Local\Temp\ccnvvkrZ.s 			page 118


 3835              		.loc 1 434 9 is_stmt 0 view .LVU1248
 3836 00ba FFF7FEFF 		bl	invalidate_button_area
 3837              	.LVL364:
 436:lvgl/src/widgets/lv_btnmatrix.c ****         if(indev_type == LV_INDEV_TYPE_POINTER || indev_type == LV_INDEV_TYPE_BUTTON) {
 3838              		.loc 1 436 9 is_stmt 1 view .LVU1249
 436:lvgl/src/widgets/lv_btnmatrix.c ****         if(indev_type == LV_INDEV_TYPE_POINTER || indev_type == LV_INDEV_TYPE_BUTTON) {
 3839              		.loc 1 436 56 is_stmt 0 view .LVU1250
 3840 00be FFF7FEFF 		bl	lv_indev_get_act
 3841              	.LVL365:
 436:lvgl/src/widgets/lv_btnmatrix.c ****         if(indev_type == LV_INDEV_TYPE_POINTER || indev_type == LV_INDEV_TYPE_BUTTON) {
 3842              		.loc 1 436 38 view .LVU1251
 3843 00c2 FFF7FEFF 		bl	lv_indev_get_type
 3844              	.LVL366:
 437:lvgl/src/widgets/lv_btnmatrix.c ****             uint16_t btn_pr;
 3845              		.loc 1 437 9 is_stmt 1 view .LVU1252
 437:lvgl/src/widgets/lv_btnmatrix.c ****             uint16_t btn_pr;
 3846              		.loc 1 437 11 is_stmt 0 view .LVU1253
 3847 00c6 0328     		cmp	r0, #3
 3848 00c8 18BF     		it	ne
 3849 00ca 0128     		cmpne	r0, #1
 3850 00cc 22D0     		beq	.L301
 3851              	.LVL367:
 3852              	.L226:
 456:lvgl/src/widgets/lv_btnmatrix.c ****             if(button_is_click_trig(btnm->ctrl_bits[btnm->btn_id_sel]) == false &&
 3853              		.loc 1 456 9 is_stmt 1 view .LVU1254
 456:lvgl/src/widgets/lv_btnmatrix.c ****             if(button_is_click_trig(btnm->ctrl_bits[btnm->btn_id_sel]) == false &&
 3854              		.loc 1 456 16 is_stmt 0 view .LVU1255
 3855 00ce B48E     		ldrh	r4, [r6, #52]
 456:lvgl/src/widgets/lv_btnmatrix.c ****             if(button_is_click_trig(btnm->ctrl_bits[btnm->btn_id_sel]) == false &&
 3856              		.loc 1 456 11 view .LVU1256
 3857 00d0 4FF6FF73 		movw	r3, #65535
 3858 00d4 9C42     		cmp	r4, r3
 3859 00d6 9CD0     		beq	.L218
 457:lvgl/src/widgets/lv_btnmatrix.c ****                button_is_popover(btnm->ctrl_bits[btnm->btn_id_sel]) == false &&
 3860              		.loc 1 457 13 is_stmt 1 view .LVU1257
 457:lvgl/src/widgets/lv_btnmatrix.c ****                button_is_popover(btnm->ctrl_bits[btnm->btn_id_sel]) == false &&
 3861              		.loc 1 457 41 is_stmt 0 view .LVU1258
 3862 00d8 F36A     		ldr	r3, [r6, #44]
 457:lvgl/src/widgets/lv_btnmatrix.c ****                button_is_popover(btnm->ctrl_bits[btnm->btn_id_sel]) == false &&
 3863              		.loc 1 457 16 view .LVU1259
 3864 00da 33F81450 		ldrh	r5, [r3, r4, lsl #1]
 3865 00de 2846     		mov	r0, r5
 3866 00e0 FFF7FEFF 		bl	button_is_click_trig
 3867              	.LVL368:
 457:lvgl/src/widgets/lv_btnmatrix.c ****                button_is_popover(btnm->ctrl_bits[btnm->btn_id_sel]) == false &&
 3868              		.loc 1 457 15 view .LVU1260
 3869 00e4 0028     		cmp	r0, #0
 3870 00e6 94D1     		bne	.L218
 458:lvgl/src/widgets/lv_btnmatrix.c ****                button_is_inactive(btnm->ctrl_bits[btnm->btn_id_sel]) == false &&
 3871              		.loc 1 458 16 discriminator 1 view .LVU1261
 3872 00e8 2846     		mov	r0, r5
 3873 00ea FFF7FEFF 		bl	button_is_popover
 3874              	.LVL369:
 457:lvgl/src/widgets/lv_btnmatrix.c ****                button_is_popover(btnm->ctrl_bits[btnm->btn_id_sel]) == false &&
 3875              		.loc 1 457 81 discriminator 1 view .LVU1262
 3876 00ee 0028     		cmp	r0, #0
 3877 00f0 8FD1     		bne	.L218
ARM GAS  C:\Users\OSD\AppData\Local\Temp\ccnvvkrZ.s 			page 119


 459:lvgl/src/widgets/lv_btnmatrix.c ****                button_is_hidden(btnm->ctrl_bits[btnm->btn_id_sel]) == false) {
 3878              		.loc 1 459 16 view .LVU1263
 3879 00f2 2846     		mov	r0, r5
 3880 00f4 FFF7FEFF 		bl	button_is_inactive
 3881              	.LVL370:
 458:lvgl/src/widgets/lv_btnmatrix.c ****                button_is_inactive(btnm->ctrl_bits[btnm->btn_id_sel]) == false &&
 3882              		.loc 1 458 78 view .LVU1264
 3883 00f8 0028     		cmp	r0, #0
 3884 00fa 8AD1     		bne	.L218
 460:lvgl/src/widgets/lv_btnmatrix.c ****                 uint32_t b = btnm->btn_id_sel;
 3885              		.loc 1 460 16 view .LVU1265
 3886 00fc 2846     		mov	r0, r5
 3887 00fe FFF7FEFF 		bl	button_is_hidden
 3888              	.LVL371:
 459:lvgl/src/widgets/lv_btnmatrix.c ****                button_is_hidden(btnm->ctrl_bits[btnm->btn_id_sel]) == false) {
 3889              		.loc 1 459 79 view .LVU1266
 3890 0102 0028     		cmp	r0, #0
 3891 0104 85D1     		bne	.L218
 3892              	.LBB144:
 461:lvgl/src/widgets/lv_btnmatrix.c ****                 res        = lv_event_send(obj, LV_EVENT_VALUE_CHANGED, &b);
 3893              		.loc 1 461 17 is_stmt 1 view .LVU1267
 461:lvgl/src/widgets/lv_btnmatrix.c ****                 res        = lv_event_send(obj, LV_EVENT_VALUE_CHANGED, &b);
 3894              		.loc 1 461 26 is_stmt 0 view .LVU1268
 3895 0106 0094     		str	r4, [sp]
 462:lvgl/src/widgets/lv_btnmatrix.c ****                 if(res != LV_RES_OK) return;
 3896              		.loc 1 462 17 is_stmt 1 view .LVU1269
 462:lvgl/src/widgets/lv_btnmatrix.c ****                 if(res != LV_RES_OK) return;
 3897              		.loc 1 462 30 is_stmt 0 view .LVU1270
 3898 0108 6A46     		mov	r2, sp
 3899 010a 1C21     		movs	r1, #28
 3900 010c 3046     		mov	r0, r6
 3901 010e FFF7FEFF 		bl	lv_event_send
 3902              	.LVL372:
 463:lvgl/src/widgets/lv_btnmatrix.c ****             }
 3903              		.loc 1 463 17 is_stmt 1 view .LVU1271
 3904 0112 7EE7     		b	.L218
 3905              	.LVL373:
 3906              	.L301:
 463:lvgl/src/widgets/lv_btnmatrix.c ****             }
 3907              		.loc 1 463 17 is_stmt 0 view .LVU1272
 3908              	.LBE144:
 3909              	.LBB145:
 438:lvgl/src/widgets/lv_btnmatrix.c ****             /*Search the pressed area*/
 3910              		.loc 1 438 13 is_stmt 1 view .LVU1273
 440:lvgl/src/widgets/lv_btnmatrix.c ****             btn_pr = get_button_from_point(obj, &p);
 3911              		.loc 1 440 13 view .LVU1274
 3912 0114 01A9     		add	r1, sp, #4
 3913 0116 2046     		mov	r0, r4
 3914              	.LVL374:
 440:lvgl/src/widgets/lv_btnmatrix.c ****             btn_pr = get_button_from_point(obj, &p);
 3915              		.loc 1 440 13 is_stmt 0 view .LVU1275
 3916 0118 FFF7FEFF 		bl	lv_indev_get_point
 3917              	.LVL375:
 441:lvgl/src/widgets/lv_btnmatrix.c ****             /*Handle the case where there is no button there*/
 3918              		.loc 1 441 13 is_stmt 1 view .LVU1276
 441:lvgl/src/widgets/lv_btnmatrix.c ****             /*Handle the case where there is no button there*/
 3919              		.loc 1 441 22 is_stmt 0 view .LVU1277
ARM GAS  C:\Users\OSD\AppData\Local\Temp\ccnvvkrZ.s 			page 120


 3920 011c 01A9     		add	r1, sp, #4
 3921 011e 3046     		mov	r0, r6
 3922 0120 FFF7FEFF 		bl	get_button_from_point
 3923              	.LVL376:
 3924 0124 0446     		mov	r4, r0
 3925              	.LVL377:
 443:lvgl/src/widgets/lv_btnmatrix.c ****             if(btn_pr != LV_BTNMATRIX_BTN_NONE) {
 3926              		.loc 1 443 13 is_stmt 1 view .LVU1278
 443:lvgl/src/widgets/lv_btnmatrix.c ****             if(btn_pr != LV_BTNMATRIX_BTN_NONE) {
 3927              		.loc 1 443 30 is_stmt 0 view .LVU1279
 3928 0126 4FF6FF73 		movw	r3, #65535
 3929 012a B386     		strh	r3, [r6, #52]	@ movhi
 444:lvgl/src/widgets/lv_btnmatrix.c ****                 if(button_is_inactive(btnm->ctrl_bits[btn_pr]) == false &&
 3930              		.loc 1 444 13 is_stmt 1 view .LVU1280
 444:lvgl/src/widgets/lv_btnmatrix.c ****                 if(button_is_inactive(btnm->ctrl_bits[btn_pr]) == false &&
 3931              		.loc 1 444 15 is_stmt 0 view .LVU1281
 3932 012c 9842     		cmp	r0, r3
 3933 012e CED0     		beq	.L226
 445:lvgl/src/widgets/lv_btnmatrix.c ****                    button_is_hidden(btnm->ctrl_bits[btn_pr]) == false) {
 3934              		.loc 1 445 17 is_stmt 1 view .LVU1282
 445:lvgl/src/widgets/lv_btnmatrix.c ****                    button_is_hidden(btnm->ctrl_bits[btn_pr]) == false) {
 3935              		.loc 1 445 43 is_stmt 0 view .LVU1283
 3936 0130 F36A     		ldr	r3, [r6, #44]
 445:lvgl/src/widgets/lv_btnmatrix.c ****                    button_is_hidden(btnm->ctrl_bits[btn_pr]) == false) {
 3937              		.loc 1 445 20 view .LVU1284
 3938 0132 33F81050 		ldrh	r5, [r3, r0, lsl #1]
 3939              	.LVL378:
 445:lvgl/src/widgets/lv_btnmatrix.c ****                    button_is_hidden(btnm->ctrl_bits[btn_pr]) == false) {
 3940              		.loc 1 445 20 view .LVU1285
 3941 0136 2846     		mov	r0, r5
 3942              	.LVL379:
 445:lvgl/src/widgets/lv_btnmatrix.c ****                    button_is_hidden(btnm->ctrl_bits[btn_pr]) == false) {
 3943              		.loc 1 445 20 view .LVU1286
 3944 0138 FFF7FEFF 		bl	button_is_inactive
 3945              	.LVL380:
 445:lvgl/src/widgets/lv_btnmatrix.c ****                    button_is_hidden(btnm->ctrl_bits[btn_pr]) == false) {
 3946              		.loc 1 445 19 view .LVU1287
 3947 013c 0028     		cmp	r0, #0
 3948 013e C6D1     		bne	.L226
 446:lvgl/src/widgets/lv_btnmatrix.c ****                     btnm->btn_id_sel = btn_pr;
 3949              		.loc 1 446 20 discriminator 1 view .LVU1288
 3950 0140 2846     		mov	r0, r5
 3951 0142 FFF7FEFF 		bl	button_is_hidden
 3952              	.LVL381:
 445:lvgl/src/widgets/lv_btnmatrix.c ****                    button_is_hidden(btnm->ctrl_bits[btn_pr]) == false) {
 3953              		.loc 1 445 73 discriminator 1 view .LVU1289
 3954 0146 0028     		cmp	r0, #0
 3955 0148 C1D1     		bne	.L226
 447:lvgl/src/widgets/lv_btnmatrix.c ****                     invalidate_button_area(obj, btnm->btn_id_sel); /*Invalidate the new area*/
 3956              		.loc 1 447 21 is_stmt 1 view .LVU1290
 447:lvgl/src/widgets/lv_btnmatrix.c ****                     invalidate_button_area(obj, btnm->btn_id_sel); /*Invalidate the new area*/
 3957              		.loc 1 447 38 is_stmt 0 view .LVU1291
 3958 014a B486     		strh	r4, [r6, #52]	@ movhi
 448:lvgl/src/widgets/lv_btnmatrix.c ****                 }
 3959              		.loc 1 448 21 is_stmt 1 view .LVU1292
 3960 014c 2146     		mov	r1, r4
 3961 014e 3046     		mov	r0, r6
ARM GAS  C:\Users\OSD\AppData\Local\Temp\ccnvvkrZ.s 			page 121


 3962 0150 FFF7FEFF 		bl	invalidate_button_area
 3963              	.LVL382:
 3964 0154 BBE7     		b	.L226
 3965              	.LVL383:
 3966              	.L293:
 448:lvgl/src/widgets/lv_btnmatrix.c ****                 }
 3967              		.loc 1 448 21 is_stmt 0 view .LVU1293
 3968              	.LBE145:
 3969              	.LBE143:
 3970              	.LBB146:
 468:lvgl/src/widgets/lv_btnmatrix.c ****         uint16_t btn_pr = LV_BTNMATRIX_BTN_NONE;
 3971              		.loc 1 468 9 is_stmt 1 view .LVU1294
 468:lvgl/src/widgets/lv_btnmatrix.c ****         uint16_t btn_pr = LV_BTNMATRIX_BTN_NONE;
 3972              		.loc 1 468 24 is_stmt 0 view .LVU1295
 3973 0156 2846     		mov	r0, r5
 3974 0158 FFF7FEFF 		bl	lv_event_get_param
 3975              	.LVL384:
 3976 015c 0546     		mov	r5, r0
 3977              	.LVL385:
 469:lvgl/src/widgets/lv_btnmatrix.c ****         /*Search the pressed area*/
 3978              		.loc 1 469 9 is_stmt 1 view .LVU1296
 471:lvgl/src/widgets/lv_btnmatrix.c ****         lv_indev_type_t indev_type = lv_indev_get_type(indev);
 3979              		.loc 1 471 9 view .LVU1297
 471:lvgl/src/widgets/lv_btnmatrix.c ****         lv_indev_type_t indev_type = lv_indev_get_type(indev);
 3980              		.loc 1 471 30 is_stmt 0 view .LVU1298
 3981 015e FFF7FEFF 		bl	lv_indev_get_act
 3982              	.LVL386:
 471:lvgl/src/widgets/lv_btnmatrix.c ****         lv_indev_type_t indev_type = lv_indev_get_type(indev);
 3983              		.loc 1 471 30 view .LVU1299
 3984 0162 0446     		mov	r4, r0
 3985              	.LVL387:
 472:lvgl/src/widgets/lv_btnmatrix.c ****         if(indev_type == LV_INDEV_TYPE_ENCODER || indev_type == LV_INDEV_TYPE_KEYPAD) return;
 3986              		.loc 1 472 9 is_stmt 1 view .LVU1300
 472:lvgl/src/widgets/lv_btnmatrix.c ****         if(indev_type == LV_INDEV_TYPE_ENCODER || indev_type == LV_INDEV_TYPE_KEYPAD) return;
 3987              		.loc 1 472 38 is_stmt 0 view .LVU1301
 3988 0164 FFF7FEFF 		bl	lv_indev_get_type
 3989              	.LVL388:
 473:lvgl/src/widgets/lv_btnmatrix.c **** 
 3990              		.loc 1 473 9 is_stmt 1 view .LVU1302
 473:lvgl/src/widgets/lv_btnmatrix.c **** 
 3991              		.loc 1 473 11 is_stmt 0 view .LVU1303
 3992 0168 0228     		cmp	r0, #2
 3993 016a 18BF     		it	ne
 3994 016c 0428     		cmpne	r0, #4
 3995 016e 3FF450AF 		beq	.L218
 475:lvgl/src/widgets/lv_btnmatrix.c ****         btn_pr = get_button_from_point(obj, &p);
 3996              		.loc 1 475 9 is_stmt 1 view .LVU1304
 3997 0172 01A9     		add	r1, sp, #4
 3998 0174 2046     		mov	r0, r4
 3999              	.LVL389:
 475:lvgl/src/widgets/lv_btnmatrix.c ****         btn_pr = get_button_from_point(obj, &p);
 4000              		.loc 1 475 9 is_stmt 0 view .LVU1305
 4001 0176 FFF7FEFF 		bl	lv_indev_get_point
 4002              	.LVL390:
 476:lvgl/src/widgets/lv_btnmatrix.c ****         /*Invalidate to old and the new areas*/
 4003              		.loc 1 476 9 is_stmt 1 view .LVU1306
 476:lvgl/src/widgets/lv_btnmatrix.c ****         /*Invalidate to old and the new areas*/
ARM GAS  C:\Users\OSD\AppData\Local\Temp\ccnvvkrZ.s 			page 122


 4004              		.loc 1 476 18 is_stmt 0 view .LVU1307
 4005 017a 01A9     		add	r1, sp, #4
 4006 017c 3046     		mov	r0, r6
 4007 017e FFF7FEFF 		bl	get_button_from_point
 4008              	.LVL391:
 4009 0182 0446     		mov	r4, r0
 4010              	.LVL392:
 478:lvgl/src/widgets/lv_btnmatrix.c ****             if(btnm->btn_id_sel != LV_BTNMATRIX_BTN_NONE) {
 4011              		.loc 1 478 9 is_stmt 1 view .LVU1308
 478:lvgl/src/widgets/lv_btnmatrix.c ****             if(btnm->btn_id_sel != LV_BTNMATRIX_BTN_NONE) {
 4012              		.loc 1 478 26 is_stmt 0 view .LVU1309
 4013 0184 B18E     		ldrh	r1, [r6, #52]
 478:lvgl/src/widgets/lv_btnmatrix.c ****             if(btnm->btn_id_sel != LV_BTNMATRIX_BTN_NONE) {
 4014              		.loc 1 478 11 view .LVU1310
 4015 0186 8142     		cmp	r1, r0
 4016 0188 3FF443AF 		beq	.L218
 479:lvgl/src/widgets/lv_btnmatrix.c ****                 invalidate_button_area(obj, btnm->btn_id_sel);
 4017              		.loc 1 479 13 is_stmt 1 view .LVU1311
 479:lvgl/src/widgets/lv_btnmatrix.c ****                 invalidate_button_area(obj, btnm->btn_id_sel);
 4018              		.loc 1 479 15 is_stmt 0 view .LVU1312
 4019 018c 4FF6FF73 		movw	r3, #65535
 4020 0190 9942     		cmp	r1, r3
 4021 0192 32D1     		bne	.L302
 4022              	.LVL393:
 4023              	.L229:
 483:lvgl/src/widgets/lv_btnmatrix.c **** 
 4024              		.loc 1 483 13 is_stmt 1 view .LVU1313
 483:lvgl/src/widgets/lv_btnmatrix.c **** 
 4025              		.loc 1 483 30 is_stmt 0 view .LVU1314
 4026 0194 B486     		strh	r4, [r6, #52]	@ movhi
 485:lvgl/src/widgets/lv_btnmatrix.c ****             if(btn_pr != LV_BTNMATRIX_BTN_NONE &&
 4027              		.loc 1 485 13 is_stmt 1 view .LVU1315
 4028 0196 2846     		mov	r0, r5
 4029 0198 FFF7FEFF 		bl	lv_indev_reset_long_press
 4030              	.LVL394:
 486:lvgl/src/widgets/lv_btnmatrix.c ****                button_is_inactive(btnm->ctrl_bits[btn_pr]) == false &&
 4031              		.loc 1 486 13 view .LVU1316
 486:lvgl/src/widgets/lv_btnmatrix.c ****                button_is_inactive(btnm->ctrl_bits[btn_pr]) == false &&
 4032              		.loc 1 486 15 is_stmt 0 view .LVU1317
 4033 019c 4FF6FF73 		movw	r3, #65535
 4034 01a0 9C42     		cmp	r4, r3
 4035 01a2 3FF436AF 		beq	.L218
 487:lvgl/src/widgets/lv_btnmatrix.c ****                button_is_hidden(btnm->ctrl_bits[btn_pr]) == false) {
 4036              		.loc 1 487 39 discriminator 1 view .LVU1318
 4037 01a6 F36A     		ldr	r3, [r6, #44]
 487:lvgl/src/widgets/lv_btnmatrix.c ****                button_is_hidden(btnm->ctrl_bits[btn_pr]) == false) {
 4038              		.loc 1 487 16 discriminator 1 view .LVU1319
 4039 01a8 33F81450 		ldrh	r5, [r3, r4, lsl #1]
 4040              	.LVL395:
 487:lvgl/src/widgets/lv_btnmatrix.c ****                button_is_hidden(btnm->ctrl_bits[btn_pr]) == false) {
 4041              		.loc 1 487 16 discriminator 1 view .LVU1320
 4042 01ac 2846     		mov	r0, r5
 4043 01ae FFF7FEFF 		bl	button_is_inactive
 4044              	.LVL396:
 486:lvgl/src/widgets/lv_btnmatrix.c ****                button_is_inactive(btnm->ctrl_bits[btn_pr]) == false &&
 4045              		.loc 1 486 48 discriminator 1 view .LVU1321
 4046 01b2 0028     		cmp	r0, #0
ARM GAS  C:\Users\OSD\AppData\Local\Temp\ccnvvkrZ.s 			page 123


 4047 01b4 7FF42DAF 		bne	.L218
 488:lvgl/src/widgets/lv_btnmatrix.c ****                 invalidate_button_area(obj, btn_pr);
 4048              		.loc 1 488 16 view .LVU1322
 4049 01b8 2846     		mov	r0, r5
 4050 01ba FFF7FEFF 		bl	button_is_hidden
 4051              	.LVL397:
 487:lvgl/src/widgets/lv_btnmatrix.c ****                button_is_hidden(btnm->ctrl_bits[btn_pr]) == false) {
 4052              		.loc 1 487 69 view .LVU1323
 4053 01be 0028     		cmp	r0, #0
 4054 01c0 7FF427AF 		bne	.L218
 489:lvgl/src/widgets/lv_btnmatrix.c ****                 /*Send VALUE_CHANGED for the newly pressed button*/
 4055              		.loc 1 489 17 is_stmt 1 view .LVU1324
 4056 01c4 2146     		mov	r1, r4
 4057 01c6 3046     		mov	r0, r6
 4058 01c8 FFF7FEFF 		bl	invalidate_button_area
 4059              	.LVL398:
 491:lvgl/src/widgets/lv_btnmatrix.c ****                    button_is_popover(btnm->ctrl_bits[btnm->btn_id_sel]) == false) {
 4060              		.loc 1 491 17 view .LVU1325
 491:lvgl/src/widgets/lv_btnmatrix.c ****                    button_is_popover(btnm->ctrl_bits[btnm->btn_id_sel]) == false) {
 4061              		.loc 1 491 45 is_stmt 0 view .LVU1326
 4062 01cc F56A     		ldr	r5, [r6, #44]
 491:lvgl/src/widgets/lv_btnmatrix.c ****                    button_is_popover(btnm->ctrl_bits[btnm->btn_id_sel]) == false) {
 4063              		.loc 1 491 20 view .LVU1327
 4064 01ce 35F81400 		ldrh	r0, [r5, r4, lsl #1]
 4065 01d2 FFF7FEFF 		bl	button_is_click_trig
 4066              	.LVL399:
 491:lvgl/src/widgets/lv_btnmatrix.c ****                    button_is_popover(btnm->ctrl_bits[btnm->btn_id_sel]) == false) {
 4067              		.loc 1 491 19 view .LVU1328
 4068 01d6 0028     		cmp	r0, #0
 4069 01d8 7FF41BAF 		bne	.L218
 492:lvgl/src/widgets/lv_btnmatrix.c ****                     uint32_t b = btn_pr;
 4070              		.loc 1 492 58 discriminator 1 view .LVU1329
 4071 01dc B38E     		ldrh	r3, [r6, #52]
 492:lvgl/src/widgets/lv_btnmatrix.c ****                     uint32_t b = btn_pr;
 4072              		.loc 1 492 20 discriminator 1 view .LVU1330
 4073 01de 35F81300 		ldrh	r0, [r5, r3, lsl #1]
 4074 01e2 FFF7FEFF 		bl	button_is_popover
 4075              	.LVL400:
 491:lvgl/src/widgets/lv_btnmatrix.c ****                    button_is_popover(btnm->ctrl_bits[btnm->btn_id_sel]) == false) {
 4076              		.loc 1 491 75 discriminator 1 view .LVU1331
 4077 01e6 0028     		cmp	r0, #0
 4078 01e8 7FF413AF 		bne	.L218
 4079              	.LBB147:
 493:lvgl/src/widgets/lv_btnmatrix.c ****                     res = lv_event_send(obj, LV_EVENT_VALUE_CHANGED, &b);
 4080              		.loc 1 493 21 is_stmt 1 view .LVU1332
 493:lvgl/src/widgets/lv_btnmatrix.c ****                     res = lv_event_send(obj, LV_EVENT_VALUE_CHANGED, &b);
 4081              		.loc 1 493 30 is_stmt 0 view .LVU1333
 4082 01ec 0094     		str	r4, [sp]
 494:lvgl/src/widgets/lv_btnmatrix.c ****                     if(res != LV_RES_OK) return;
 4083              		.loc 1 494 21 is_stmt 1 view .LVU1334
 494:lvgl/src/widgets/lv_btnmatrix.c ****                     if(res != LV_RES_OK) return;
 4084              		.loc 1 494 27 is_stmt 0 view .LVU1335
 4085 01ee 6A46     		mov	r2, sp
 4086 01f0 1C21     		movs	r1, #28
 4087 01f2 3046     		mov	r0, r6
 4088 01f4 FFF7FEFF 		bl	lv_event_send
 4089              	.LVL401:
ARM GAS  C:\Users\OSD\AppData\Local\Temp\ccnvvkrZ.s 			page 124


 495:lvgl/src/widgets/lv_btnmatrix.c ****                 }
 4090              		.loc 1 495 21 is_stmt 1 view .LVU1336
 4091 01f8 0BE7     		b	.L218
 4092              	.LVL402:
 4093              	.L302:
 495:lvgl/src/widgets/lv_btnmatrix.c ****                 }
 4094              		.loc 1 495 21 is_stmt 0 view .LVU1337
 4095              	.LBE147:
 480:lvgl/src/widgets/lv_btnmatrix.c ****             }
 4096              		.loc 1 480 17 is_stmt 1 view .LVU1338
 4097 01fa 3046     		mov	r0, r6
 4098              	.LVL403:
 480:lvgl/src/widgets/lv_btnmatrix.c ****             }
 4099              		.loc 1 480 17 is_stmt 0 view .LVU1339
 4100 01fc FFF7FEFF 		bl	invalidate_button_area
 4101              	.LVL404:
 4102 0200 C8E7     		b	.L229
 4103              	.LVL405:
 4104              	.L294:
 480:lvgl/src/widgets/lv_btnmatrix.c ****             }
 4105              		.loc 1 480 17 view .LVU1340
 4106              	.LBE146:
 501:lvgl/src/widgets/lv_btnmatrix.c ****             /*Toggle the button if enabled*/
 4107              		.loc 1 501 9 is_stmt 1 view .LVU1341
 501:lvgl/src/widgets/lv_btnmatrix.c ****             /*Toggle the button if enabled*/
 4108              		.loc 1 501 16 is_stmt 0 view .LVU1342
 4109 0202 B48E     		ldrh	r4, [r6, #52]
 4110              	.LVL406:
 501:lvgl/src/widgets/lv_btnmatrix.c ****             /*Toggle the button if enabled*/
 4111              		.loc 1 501 11 view .LVU1343
 4112 0204 4FF6FF73 		movw	r3, #65535
 4113 0208 9C42     		cmp	r4, r3
 4114 020a 35D0     		beq	.L232
 503:lvgl/src/widgets/lv_btnmatrix.c ****                !button_is_inactive(btnm->ctrl_bits[btnm->btn_id_sel])) {
 4115              		.loc 1 503 13 is_stmt 1 view .LVU1344
 503:lvgl/src/widgets/lv_btnmatrix.c ****                !button_is_inactive(btnm->ctrl_bits[btnm->btn_id_sel])) {
 4116              		.loc 1 503 40 is_stmt 0 view .LVU1345
 4117 020c F76A     		ldr	r7, [r6, #44]
 503:lvgl/src/widgets/lv_btnmatrix.c ****                !button_is_inactive(btnm->ctrl_bits[btnm->btn_id_sel])) {
 4118              		.loc 1 503 16 view .LVU1346
 4119 020e 37F81450 		ldrh	r5, [r7, r4, lsl #1]
 4120              	.LVL407:
 503:lvgl/src/widgets/lv_btnmatrix.c ****                !button_is_inactive(btnm->ctrl_bits[btnm->btn_id_sel])) {
 4121              		.loc 1 503 16 view .LVU1347
 4122 0212 2846     		mov	r0, r5
 4123 0214 FFF7FEFF 		bl	button_is_checkable
 4124              	.LVL408:
 503:lvgl/src/widgets/lv_btnmatrix.c ****                !button_is_inactive(btnm->ctrl_bits[btnm->btn_id_sel])) {
 4125              		.loc 1 503 15 view .LVU1348
 4126 0218 D0B1     		cbz	r0, .L233
 504:lvgl/src/widgets/lv_btnmatrix.c ****                 if(button_get_checked(btnm->ctrl_bits[btnm->btn_id_sel]) && !btnm->one_check) {
 4127              		.loc 1 504 17 discriminator 1 view .LVU1349
 4128 021a 2846     		mov	r0, r5
 4129 021c FFF7FEFF 		bl	button_is_inactive
 4130              	.LVL409:
 503:lvgl/src/widgets/lv_btnmatrix.c ****                !button_is_inactive(btnm->ctrl_bits[btnm->btn_id_sel])) {
 4131              		.loc 1 503 71 discriminator 1 view .LVU1350
ARM GAS  C:\Users\OSD\AppData\Local\Temp\ccnvvkrZ.s 			page 125


 4132 0220 B0B9     		cbnz	r0, .L233
 505:lvgl/src/widgets/lv_btnmatrix.c ****                     btnm->ctrl_bits[btnm->btn_id_sel] &= (~LV_BTNMATRIX_CTRL_CHECKED);
 4133              		.loc 1 505 17 is_stmt 1 view .LVU1351
 505:lvgl/src/widgets/lv_btnmatrix.c ****                     btnm->ctrl_bits[btnm->btn_id_sel] &= (~LV_BTNMATRIX_CTRL_CHECKED);
 4134              		.loc 1 505 20 is_stmt 0 view .LVU1352
 4135 0222 2846     		mov	r0, r5
 4136 0224 FFF7FEFF 		bl	button_get_checked
 4137              	.LVL410:
 505:lvgl/src/widgets/lv_btnmatrix.c ****                     btnm->ctrl_bits[btnm->btn_id_sel] &= (~LV_BTNMATRIX_CTRL_CHECKED);
 4138              		.loc 1 505 19 view .LVU1353
 4139 0228 48B1     		cbz	r0, .L234
 505:lvgl/src/widgets/lv_btnmatrix.c ****                     btnm->ctrl_bits[btnm->btn_id_sel] &= (~LV_BTNMATRIX_CTRL_CHECKED);
 4140              		.loc 1 505 77 discriminator 1 view .LVU1354
 4141 022a 96F83630 		ldrb	r3, [r6, #54]	@ zero_extendqisi2
 505:lvgl/src/widgets/lv_btnmatrix.c ****                     btnm->ctrl_bits[btnm->btn_id_sel] &= (~LV_BTNMATRIX_CTRL_CHECKED);
 4142              		.loc 1 505 74 discriminator 1 view .LVU1355
 4143 022e 13F0010F 		tst	r3, #1
 4144 0232 04D1     		bne	.L234
 506:lvgl/src/widgets/lv_btnmatrix.c ****                 }
 4145              		.loc 1 506 21 is_stmt 1 view .LVU1356
 506:lvgl/src/widgets/lv_btnmatrix.c ****                 }
 4146              		.loc 1 506 55 is_stmt 0 view .LVU1357
 4147 0234 25F48075 		bic	r5, r5, #256
 4148 0238 27F81450 		strh	r5, [r7, r4, lsl #1]	@ movhi
 4149 023c 03E0     		b	.L235
 4150              	.L234:
 509:lvgl/src/widgets/lv_btnmatrix.c ****                 }
 4151              		.loc 1 509 21 is_stmt 1 view .LVU1358
 509:lvgl/src/widgets/lv_btnmatrix.c ****                 }
 4152              		.loc 1 509 55 is_stmt 0 view .LVU1359
 4153 023e 45F48075 		orr	r5, r5, #256
 4154 0242 27F81450 		strh	r5, [r7, r4, lsl #1]	@ movhi
 4155              	.L235:
 511:lvgl/src/widgets/lv_btnmatrix.c ****             }
 4156              		.loc 1 511 17 is_stmt 1 view .LVU1360
 511:lvgl/src/widgets/lv_btnmatrix.c ****             }
 4157              		.loc 1 511 20 is_stmt 0 view .LVU1361
 4158 0246 96F83630 		ldrb	r3, [r6, #54]	@ zero_extendqisi2
 511:lvgl/src/widgets/lv_btnmatrix.c ****             }
 4159              		.loc 1 511 19 view .LVU1362
 4160 024a 13F0010F 		tst	r3, #1
 4161 024e 18D1     		bne	.L303
 4162              	.L233:
 514:lvgl/src/widgets/lv_btnmatrix.c ****                 button_is_popover(btnm->ctrl_bits[btnm->btn_id_sel]) == true) &&
 4163              		.loc 1 514 13 is_stmt 1 view .LVU1363
 514:lvgl/src/widgets/lv_btnmatrix.c ****                 button_is_popover(btnm->ctrl_bits[btnm->btn_id_sel]) == true) &&
 4164              		.loc 1 514 42 is_stmt 0 view .LVU1364
 4165 0250 F36A     		ldr	r3, [r6, #44]
 514:lvgl/src/widgets/lv_btnmatrix.c ****                 button_is_popover(btnm->ctrl_bits[btnm->btn_id_sel]) == true) &&
 4166              		.loc 1 514 58 view .LVU1365
 4167 0252 B58E     		ldrh	r5, [r6, #52]
 514:lvgl/src/widgets/lv_btnmatrix.c ****                 button_is_popover(btnm->ctrl_bits[btnm->btn_id_sel]) == true) &&
 4168              		.loc 1 514 17 view .LVU1366
 4169 0254 33F81540 		ldrh	r4, [r3, r5, lsl #1]
 4170 0258 2046     		mov	r0, r4
 4171 025a FFF7FEFF 		bl	button_is_click_trig
 4172              	.LVL411:
ARM GAS  C:\Users\OSD\AppData\Local\Temp\ccnvvkrZ.s 			page 126


 514:lvgl/src/widgets/lv_btnmatrix.c ****                 button_is_popover(btnm->ctrl_bits[btnm->btn_id_sel]) == true) &&
 4173              		.loc 1 514 15 view .LVU1367
 4174 025e 18B9     		cbnz	r0, .L236
 515:lvgl/src/widgets/lv_btnmatrix.c ****                button_is_inactive(btnm->ctrl_bits[btnm->btn_id_sel]) == false &&
 4175              		.loc 1 515 17 discriminator 1 view .LVU1368
 4176 0260 2046     		mov	r0, r4
 4177 0262 FFF7FEFF 		bl	button_is_popover
 4178              	.LVL412:
 514:lvgl/src/widgets/lv_btnmatrix.c ****                 button_is_popover(btnm->ctrl_bits[btnm->btn_id_sel]) == true) &&
 4179              		.loc 1 514 81 discriminator 1 view .LVU1369
 4180 0266 38B1     		cbz	r0, .L232
 4181              	.L236:
 516:lvgl/src/widgets/lv_btnmatrix.c ****                button_is_hidden(btnm->ctrl_bits[btnm->btn_id_sel]) == false) {
 4182              		.loc 1 516 16 view .LVU1370
 4183 0268 2046     		mov	r0, r4
 4184 026a FFF7FEFF 		bl	button_is_inactive
 4185              	.LVL413:
 515:lvgl/src/widgets/lv_btnmatrix.c ****                button_is_inactive(btnm->ctrl_bits[btnm->btn_id_sel]) == false &&
 4186              		.loc 1 515 79 view .LVU1371
 4187 026e 18B9     		cbnz	r0, .L232
 517:lvgl/src/widgets/lv_btnmatrix.c ****                 uint32_t b = btnm->btn_id_sel;
 4188              		.loc 1 517 16 view .LVU1372
 4189 0270 2046     		mov	r0, r4
 4190 0272 FFF7FEFF 		bl	button_is_hidden
 4191              	.LVL414:
 516:lvgl/src/widgets/lv_btnmatrix.c ****                button_is_hidden(btnm->ctrl_bits[btnm->btn_id_sel]) == false) {
 4192              		.loc 1 516 79 view .LVU1373
 4193 0276 48B1     		cbz	r0, .L304
 4194              	.L232:
 524:lvgl/src/widgets/lv_btnmatrix.c ****         invalidate_button_area(obj, btnm->btn_id_sel);
 4195              		.loc 1 524 43 is_stmt 1 view .LVU1374
 525:lvgl/src/widgets/lv_btnmatrix.c **** 
 4196              		.loc 1 525 9 view .LVU1375
 4197 0278 B18E     		ldrh	r1, [r6, #52]
 4198 027a 3046     		mov	r0, r6
 4199 027c FFF7FEFF 		bl	invalidate_button_area
 4200              	.LVL415:
 4201 0280 C7E6     		b	.L218
 4202              	.L303:
 511:lvgl/src/widgets/lv_btnmatrix.c ****             }
 4203              		.loc 1 511 37 discriminator 1 view .LVU1376
 4204 0282 B18E     		ldrh	r1, [r6, #52]
 4205 0284 3046     		mov	r0, r6
 4206 0286 FFF7FEFF 		bl	make_one_button_checked
 4207              	.LVL416:
 4208 028a E1E7     		b	.L233
 4209              	.L304:
 4210              	.LBB148:
 518:lvgl/src/widgets/lv_btnmatrix.c ****                 res        = lv_event_send(obj, LV_EVENT_VALUE_CHANGED, &b);
 4211              		.loc 1 518 17 view .LVU1377
 518:lvgl/src/widgets/lv_btnmatrix.c ****                 res        = lv_event_send(obj, LV_EVENT_VALUE_CHANGED, &b);
 4212              		.loc 1 518 26 is_stmt 0 view .LVU1378
 4213 028c 0095     		str	r5, [sp]
 519:lvgl/src/widgets/lv_btnmatrix.c ****                 if(res != LV_RES_OK) return;
 4214              		.loc 1 519 17 is_stmt 1 view .LVU1379
 519:lvgl/src/widgets/lv_btnmatrix.c ****                 if(res != LV_RES_OK) return;
 4215              		.loc 1 519 30 is_stmt 0 view .LVU1380
ARM GAS  C:\Users\OSD\AppData\Local\Temp\ccnvvkrZ.s 			page 127


 4216 028e 6A46     		mov	r2, sp
 4217 0290 1C21     		movs	r1, #28
 4218 0292 3046     		mov	r0, r6
 4219 0294 FFF7FEFF 		bl	lv_event_send
 4220              	.LVL417:
 520:lvgl/src/widgets/lv_btnmatrix.c ****             }
 4221              		.loc 1 520 17 is_stmt 1 view .LVU1381
 520:lvgl/src/widgets/lv_btnmatrix.c ****             }
 4222              		.loc 1 520 19 is_stmt 0 view .LVU1382
 4223 0298 0128     		cmp	r0, #1
 4224 029a 7FF4BAAE 		bne	.L218
 4225 029e EBE7     		b	.L232
 4226              	.LVL418:
 4227              	.L295:
 520:lvgl/src/widgets/lv_btnmatrix.c ****             }
 4228              		.loc 1 520 19 view .LVU1383
 4229              	.LBE148:
 529:lvgl/src/widgets/lv_btnmatrix.c ****             if(button_is_repeat_disabled(btnm->ctrl_bits[btnm->btn_id_sel]) == false &&
 4230              		.loc 1 529 9 is_stmt 1 view .LVU1384
 529:lvgl/src/widgets/lv_btnmatrix.c ****             if(button_is_repeat_disabled(btnm->ctrl_bits[btnm->btn_id_sel]) == false &&
 4231              		.loc 1 529 16 is_stmt 0 view .LVU1385
 4232 02a0 B48E     		ldrh	r4, [r6, #52]
 4233              	.LVL419:
 529:lvgl/src/widgets/lv_btnmatrix.c ****             if(button_is_repeat_disabled(btnm->ctrl_bits[btnm->btn_id_sel]) == false &&
 4234              		.loc 1 529 11 view .LVU1386
 4235 02a2 4FF6FF73 		movw	r3, #65535
 4236 02a6 9C42     		cmp	r4, r3
 4237 02a8 3FF4B3AE 		beq	.L218
 530:lvgl/src/widgets/lv_btnmatrix.c ****                button_is_inactive(btnm->ctrl_bits[btnm->btn_id_sel]) == false &&
 4238              		.loc 1 530 13 is_stmt 1 view .LVU1387
 530:lvgl/src/widgets/lv_btnmatrix.c ****                button_is_inactive(btnm->ctrl_bits[btnm->btn_id_sel]) == false &&
 4239              		.loc 1 530 46 is_stmt 0 view .LVU1388
 4240 02ac F36A     		ldr	r3, [r6, #44]
 530:lvgl/src/widgets/lv_btnmatrix.c ****                button_is_inactive(btnm->ctrl_bits[btnm->btn_id_sel]) == false &&
 4241              		.loc 1 530 16 view .LVU1389
 4242 02ae 33F81450 		ldrh	r5, [r3, r4, lsl #1]
 4243              	.LVL420:
 530:lvgl/src/widgets/lv_btnmatrix.c ****                button_is_inactive(btnm->ctrl_bits[btnm->btn_id_sel]) == false &&
 4244              		.loc 1 530 16 view .LVU1390
 4245 02b2 2846     		mov	r0, r5
 4246 02b4 FFF7FEFF 		bl	button_is_repeat_disabled
 4247              	.LVL421:
 530:lvgl/src/widgets/lv_btnmatrix.c ****                button_is_inactive(btnm->ctrl_bits[btnm->btn_id_sel]) == false &&
 4248              		.loc 1 530 15 view .LVU1391
 4249 02b8 0028     		cmp	r0, #0
 4250 02ba 7FF4AAAE 		bne	.L218
 531:lvgl/src/widgets/lv_btnmatrix.c ****                button_is_hidden(btnm->ctrl_bits[btnm->btn_id_sel]) == false) {
 4251              		.loc 1 531 16 discriminator 1 view .LVU1392
 4252 02be 2846     		mov	r0, r5
 4253 02c0 FFF7FEFF 		bl	button_is_inactive
 4254              	.LVL422:
 530:lvgl/src/widgets/lv_btnmatrix.c ****                button_is_inactive(btnm->ctrl_bits[btnm->btn_id_sel]) == false &&
 4255              		.loc 1 530 86 discriminator 1 view .LVU1393
 4256 02c4 0028     		cmp	r0, #0
 4257 02c6 7FF4A4AE 		bne	.L218
 532:lvgl/src/widgets/lv_btnmatrix.c ****                 uint32_t b = btnm->btn_id_sel;
 4258              		.loc 1 532 16 view .LVU1394
ARM GAS  C:\Users\OSD\AppData\Local\Temp\ccnvvkrZ.s 			page 128


 4259 02ca 2846     		mov	r0, r5
 4260 02cc FFF7FEFF 		bl	button_is_hidden
 4261              	.LVL423:
 531:lvgl/src/widgets/lv_btnmatrix.c ****                button_is_hidden(btnm->ctrl_bits[btnm->btn_id_sel]) == false) {
 4262              		.loc 1 531 79 view .LVU1395
 4263 02d0 0028     		cmp	r0, #0
 4264 02d2 7FF49EAE 		bne	.L218
 4265              	.LBB149:
 533:lvgl/src/widgets/lv_btnmatrix.c ****                 res        = lv_event_send(obj, LV_EVENT_VALUE_CHANGED, &b);
 4266              		.loc 1 533 17 is_stmt 1 view .LVU1396
 533:lvgl/src/widgets/lv_btnmatrix.c ****                 res        = lv_event_send(obj, LV_EVENT_VALUE_CHANGED, &b);
 4267              		.loc 1 533 26 is_stmt 0 view .LVU1397
 4268 02d6 0094     		str	r4, [sp]
 534:lvgl/src/widgets/lv_btnmatrix.c ****                 if(res != LV_RES_OK) return;
 4269              		.loc 1 534 17 is_stmt 1 view .LVU1398
 534:lvgl/src/widgets/lv_btnmatrix.c ****                 if(res != LV_RES_OK) return;
 4270              		.loc 1 534 30 is_stmt 0 view .LVU1399
 4271 02d8 6A46     		mov	r2, sp
 4272 02da 1C21     		movs	r1, #28
 4273 02dc 3046     		mov	r0, r6
 4274 02de FFF7FEFF 		bl	lv_event_send
 4275              	.LVL424:
 535:lvgl/src/widgets/lv_btnmatrix.c ****             }
 4276              		.loc 1 535 17 is_stmt 1 view .LVU1400
 4277 02e2 96E6     		b	.L218
 4278              	.L320:
 4279              		.align	2
 4280              	.L319:
 4281 02e4 00000000 		.word	.LANCHOR0
 4282              	.LVL425:
 4283              	.L296:
 535:lvgl/src/widgets/lv_btnmatrix.c ****             }
 4284              		.loc 1 535 17 is_stmt 0 view .LVU1401
 4285              	.LBE149:
 540:lvgl/src/widgets/lv_btnmatrix.c ****         btnm->btn_id_sel = LV_BTNMATRIX_BTN_NONE;
 4286              		.loc 1 540 9 is_stmt 1 view .LVU1402
 4287 02e8 B18E     		ldrh	r1, [r6, #52]
 4288 02ea 3046     		mov	r0, r6
 4289 02ec FFF7FEFF 		bl	invalidate_button_area
 4290              	.LVL426:
 541:lvgl/src/widgets/lv_btnmatrix.c ****     }
 4291              		.loc 1 541 9 view .LVU1403
 541:lvgl/src/widgets/lv_btnmatrix.c ****     }
 4292              		.loc 1 541 26 is_stmt 0 view .LVU1404
 4293 02f0 4FF6FF73 		movw	r3, #65535
 4294 02f4 B386     		strh	r3, [r6, #52]	@ movhi
 4295 02f6 8CE6     		b	.L218
 4296              	.L297:
 4297              	.LBB150:
 544:lvgl/src/widgets/lv_btnmatrix.c **** 
 4298              		.loc 1 544 9 is_stmt 1 view .LVU1405
 544:lvgl/src/widgets/lv_btnmatrix.c **** 
 4299              		.loc 1 544 16 is_stmt 0 view .LVU1406
 4300 02f8 338E     		ldrh	r3, [r6, #48]
 544:lvgl/src/widgets/lv_btnmatrix.c **** 
 4301              		.loc 1 544 11 view .LVU1407
 4302 02fa 002B     		cmp	r3, #0
ARM GAS  C:\Users\OSD\AppData\Local\Temp\ccnvvkrZ.s 			page 129


 4303 02fc 3FF489AE 		beq	.L218
 546:lvgl/src/widgets/lv_btnmatrix.c ****         lv_indev_type_t indev_type = lv_indev_get_type(indev);
 4304              		.loc 1 546 9 is_stmt 1 view .LVU1408
 546:lvgl/src/widgets/lv_btnmatrix.c ****         lv_indev_type_t indev_type = lv_indev_get_type(indev);
 4305              		.loc 1 546 30 is_stmt 0 view .LVU1409
 4306 0300 2846     		mov	r0, r5
 4307 0302 FFF7FEFF 		bl	lv_event_get_param
 4308              	.LVL427:
 4309 0306 0446     		mov	r4, r0
 4310              	.LVL428:
 547:lvgl/src/widgets/lv_btnmatrix.c **** 
 4311              		.loc 1 547 9 is_stmt 1 view .LVU1410
 547:lvgl/src/widgets/lv_btnmatrix.c **** 
 4312              		.loc 1 547 38 is_stmt 0 view .LVU1411
 4313 0308 FFF7FEFF 		bl	lv_indev_get_type
 4314              	.LVL429:
 547:lvgl/src/widgets/lv_btnmatrix.c **** 
 4315              		.loc 1 547 38 view .LVU1412
 4316 030c 0546     		mov	r5, r0
 4317              	.LVL430:
 550:lvgl/src/widgets/lv_btnmatrix.c ****             indev = lv_indev_get_next(NULL);
 4318              		.loc 1 550 9 is_stmt 1 view .LVU1413
 550:lvgl/src/widgets/lv_btnmatrix.c ****             indev = lv_indev_get_next(NULL);
 4319              		.loc 1 550 11 is_stmt 0 view .LVU1414
 4320 030e D4B1     		cbz	r4, .L305
 4321              	.LVL431:
 4322              	.L242:
 555:lvgl/src/widgets/lv_btnmatrix.c ****         /*Focus the first button if there is not selected button*/
 4323              		.loc 1 555 9 is_stmt 1 view .LVU1415
 555:lvgl/src/widgets/lv_btnmatrix.c ****         /*Focus the first button if there is not selected button*/
 4324              		.loc 1 555 45 is_stmt 0 view .LVU1416
 4325 0310 3046     		mov	r0, r6
 4326 0312 FFF7FEFF 		bl	lv_obj_get_group
 4327              	.LVL432:
 555:lvgl/src/widgets/lv_btnmatrix.c ****         /*Focus the first button if there is not selected button*/
 4328              		.loc 1 555 24 view .LVU1417
 4329 0316 FFF7FEFF 		bl	lv_group_get_editing
 4330              	.LVL433:
 557:lvgl/src/widgets/lv_btnmatrix.c ****             if(indev_type == LV_INDEV_TYPE_KEYPAD || (indev_type == LV_INDEV_TYPE_ENCODER && editin
 4331              		.loc 1 557 9 is_stmt 1 view .LVU1418
 557:lvgl/src/widgets/lv_btnmatrix.c ****             if(indev_type == LV_INDEV_TYPE_KEYPAD || (indev_type == LV_INDEV_TYPE_ENCODER && editin
 4332              		.loc 1 557 16 is_stmt 0 view .LVU1419
 4333 031a B28E     		ldrh	r2, [r6, #52]
 557:lvgl/src/widgets/lv_btnmatrix.c ****             if(indev_type == LV_INDEV_TYPE_KEYPAD || (indev_type == LV_INDEV_TYPE_ENCODER && editin
 4334              		.loc 1 557 11 view .LVU1420
 4335 031c 4FF6FF73 		movw	r3, #65535
 4336 0320 9A42     		cmp	r2, r3
 4337 0322 7FF476AE 		bne	.L218
 558:lvgl/src/widgets/lv_btnmatrix.c ****                 uint32_t b = 0;
 4338              		.loc 1 558 13 is_stmt 1 view .LVU1421
 558:lvgl/src/widgets/lv_btnmatrix.c ****                 uint32_t b = 0;
 4339              		.loc 1 558 15 is_stmt 0 view .LVU1422
 4340 0326 022D     		cmp	r5, #2
 4341 0328 06D0     		beq	.L243
 558:lvgl/src/widgets/lv_btnmatrix.c ****                 uint32_t b = 0;
 4342              		.loc 1 558 91 discriminator 1 view .LVU1423
 4343 032a 042D     		cmp	r5, #4
ARM GAS  C:\Users\OSD\AppData\Local\Temp\ccnvvkrZ.s 			page 130


 4344 032c 14BF     		ite	ne
 4345 032e 0020     		movne	r0, #0
 4346 0330 00F00100 		andeq	r0, r0, #1
 4347              	.LVL434:
 558:lvgl/src/widgets/lv_btnmatrix.c ****                 uint32_t b = 0;
 4348              		.loc 1 558 51 discriminator 1 view .LVU1424
 4349 0334 0028     		cmp	r0, #0
 4350 0336 33D0     		beq	.L244
 4351              	.L243:
 4352              	.LBB151:
 559:lvgl/src/widgets/lv_btnmatrix.c ****                 if(btnm->one_check) {
 4353              		.loc 1 559 17 is_stmt 1 view .LVU1425
 4354              	.LVL435:
 560:lvgl/src/widgets/lv_btnmatrix.c ****                     while(button_is_hidden(btnm->ctrl_bits[b]) || button_is_inactive(btnm->ctrl_bit
 4355              		.loc 1 560 17 view .LVU1426
 560:lvgl/src/widgets/lv_btnmatrix.c ****                     while(button_is_hidden(btnm->ctrl_bits[b]) || button_is_inactive(btnm->ctrl_bit
 4356              		.loc 1 560 20 is_stmt 0 view .LVU1427
 4357 0338 96F83630 		ldrb	r3, [r6, #54]	@ zero_extendqisi2
 560:lvgl/src/widgets/lv_btnmatrix.c ****                     while(button_is_hidden(btnm->ctrl_bits[b]) || button_is_inactive(btnm->ctrl_bit
 4358              		.loc 1 560 19 view .LVU1428
 4359 033c 13F0010F 		tst	r3, #1
 4360 0340 1DD1     		bne	.L286
 559:lvgl/src/widgets/lv_btnmatrix.c ****                 if(btnm->one_check) {
 4361              		.loc 1 559 26 view .LVU1429
 4362 0342 0024     		movs	r4, #0
 4363 0344 1EE0     		b	.L246
 4364              	.LVL436:
 4365              	.L305:
 559:lvgl/src/widgets/lv_btnmatrix.c ****                 if(btnm->one_check) {
 4366              		.loc 1 559 26 view .LVU1430
 4367              	.LBE151:
 551:lvgl/src/widgets/lv_btnmatrix.c ****             indev_type = lv_indev_get_type(indev);
 4368              		.loc 1 551 13 is_stmt 1 view .LVU1431
 551:lvgl/src/widgets/lv_btnmatrix.c ****             indev_type = lv_indev_get_type(indev);
 4369              		.loc 1 551 21 is_stmt 0 view .LVU1432
 4370 0346 0020     		movs	r0, #0
 4371 0348 FFF7FEFF 		bl	lv_indev_get_next
 4372              	.LVL437:
 552:lvgl/src/widgets/lv_btnmatrix.c ****         }
 4373              		.loc 1 552 13 is_stmt 1 view .LVU1433
 552:lvgl/src/widgets/lv_btnmatrix.c ****         }
 4374              		.loc 1 552 26 is_stmt 0 view .LVU1434
 4375 034c FFF7FEFF 		bl	lv_indev_get_type
 4376              	.LVL438:
 552:lvgl/src/widgets/lv_btnmatrix.c ****         }
 4377              		.loc 1 552 26 view .LVU1435
 4378 0350 0546     		mov	r5, r0
 4379              	.LVL439:
 552:lvgl/src/widgets/lv_btnmatrix.c ****         }
 4380              		.loc 1 552 26 view .LVU1436
 4381 0352 DDE7     		b	.L242
 4382              	.LVL440:
 4383              	.L247:
 4384              	.LBB152:
 562:lvgl/src/widgets/lv_btnmatrix.c ****                 }
 4385              		.loc 1 562 75 is_stmt 1 view .LVU1437
 562:lvgl/src/widgets/lv_btnmatrix.c ****                 }
ARM GAS  C:\Users\OSD\AppData\Local\Temp\ccnvvkrZ.s 			page 131


 4386              		.loc 1 562 76 is_stmt 0 view .LVU1438
 4387 0354 0134     		adds	r4, r4, #1
 4388              	.LVL441:
 4389              	.L245:
 561:lvgl/src/widgets/lv_btnmatrix.c ****                           button_is_checked(btnm->ctrl_bits[b]) == false) b++;
 4390              		.loc 1 561 26 is_stmt 1 view .LVU1439
 561:lvgl/src/widgets/lv_btnmatrix.c ****                           button_is_checked(btnm->ctrl_bits[b]) == false) b++;
 4391              		.loc 1 561 48 is_stmt 0 view .LVU1440
 4392 0356 F36A     		ldr	r3, [r6, #44]
 561:lvgl/src/widgets/lv_btnmatrix.c ****                           button_is_checked(btnm->ctrl_bits[b]) == false) b++;
 4393              		.loc 1 561 27 view .LVU1441
 4394 0358 33F81450 		ldrh	r5, [r3, r4, lsl #1]
 4395 035c 2846     		mov	r0, r5
 4396 035e FFF7FEFF 		bl	button_is_hidden
 4397              	.LVL442:
 561:lvgl/src/widgets/lv_btnmatrix.c ****                           button_is_checked(btnm->ctrl_bits[b]) == false) b++;
 4398              		.loc 1 561 26 view .LVU1442
 4399 0362 0028     		cmp	r0, #0
 4400 0364 F6D1     		bne	.L247
 561:lvgl/src/widgets/lv_btnmatrix.c ****                           button_is_checked(btnm->ctrl_bits[b]) == false) b++;
 4401              		.loc 1 561 67 discriminator 1 view .LVU1443
 4402 0366 2846     		mov	r0, r5
 4403 0368 FFF7FEFF 		bl	button_is_inactive
 4404              	.LVL443:
 561:lvgl/src/widgets/lv_btnmatrix.c ****                           button_is_checked(btnm->ctrl_bits[b]) == false) b++;
 4405              		.loc 1 561 64 discriminator 1 view .LVU1444
 4406 036c 0028     		cmp	r0, #0
 4407 036e F1D1     		bne	.L247
 562:lvgl/src/widgets/lv_btnmatrix.c ****                 }
 4408              		.loc 1 562 27 discriminator 2 view .LVU1445
 4409 0370 2846     		mov	r0, r5
 4410 0372 FFF7FEFF 		bl	button_is_checked
 4411              	.LVL444:
 561:lvgl/src/widgets/lv_btnmatrix.c ****                           button_is_checked(btnm->ctrl_bits[b]) == false) b++;
 4412              		.loc 1 561 106 discriminator 2 view .LVU1446
 4413 0376 0028     		cmp	r0, #0
 4414 0378 ECD0     		beq	.L247
 4415              	.L248:
 568:lvgl/src/widgets/lv_btnmatrix.c ****             }
 4416              		.loc 1 568 17 is_stmt 1 view .LVU1447
 568:lvgl/src/widgets/lv_btnmatrix.c ****             }
 4417              		.loc 1 568 34 is_stmt 0 view .LVU1448
 4418 037a B486     		strh	r4, [r6, #52]	@ movhi
 4419              	.LBE152:
 558:lvgl/src/widgets/lv_btnmatrix.c ****                 uint32_t b = 0;
 4420              		.loc 1 558 104 view .LVU1449
 4421 037c 49E6     		b	.L218
 4422              	.LVL445:
 4423              	.L286:
 4424              	.LBB153:
 559:lvgl/src/widgets/lv_btnmatrix.c ****                 if(btnm->one_check) {
 4425              		.loc 1 559 26 view .LVU1450
 4426 037e 0024     		movs	r4, #0
 4427 0380 E9E7     		b	.L245
 4428              	.LVL446:
 4429              	.L249:
 565:lvgl/src/widgets/lv_btnmatrix.c ****                 }
ARM GAS  C:\Users\OSD\AppData\Local\Temp\ccnvvkrZ.s 			page 132


 4430              		.loc 1 565 107 is_stmt 1 discriminator 4 view .LVU1451
 565:lvgl/src/widgets/lv_btnmatrix.c ****                 }
 4431              		.loc 1 565 108 is_stmt 0 discriminator 4 view .LVU1452
 4432 0382 0134     		adds	r4, r4, #1
 4433              	.LVL447:
 4434              	.L246:
 565:lvgl/src/widgets/lv_btnmatrix.c ****                 }
 4435              		.loc 1 565 26 is_stmt 1 discriminator 1 view .LVU1453
 565:lvgl/src/widgets/lv_btnmatrix.c ****                 }
 4436              		.loc 1 565 48 is_stmt 0 discriminator 1 view .LVU1454
 4437 0384 F36A     		ldr	r3, [r6, #44]
 565:lvgl/src/widgets/lv_btnmatrix.c ****                 }
 4438              		.loc 1 565 27 discriminator 1 view .LVU1455
 4439 0386 33F81450 		ldrh	r5, [r3, r4, lsl #1]
 4440 038a 2846     		mov	r0, r5
 4441 038c FFF7FEFF 		bl	button_is_hidden
 4442              	.LVL448:
 565:lvgl/src/widgets/lv_btnmatrix.c ****                 }
 4443              		.loc 1 565 26 discriminator 1 view .LVU1456
 4444 0390 0028     		cmp	r0, #0
 4445 0392 F6D1     		bne	.L249
 565:lvgl/src/widgets/lv_btnmatrix.c ****                 }
 4446              		.loc 1 565 67 discriminator 3 view .LVU1457
 4447 0394 2846     		mov	r0, r5
 4448 0396 FFF7FEFF 		bl	button_is_inactive
 4449              	.LVL449:
 565:lvgl/src/widgets/lv_btnmatrix.c ****                 }
 4450              		.loc 1 565 64 discriminator 3 view .LVU1458
 4451 039a 0028     		cmp	r0, #0
 4452 039c F1D1     		bne	.L249
 4453 039e ECE7     		b	.L248
 4454              	.LVL450:
 4455              	.L244:
 565:lvgl/src/widgets/lv_btnmatrix.c ****                 }
 4456              		.loc 1 565 64 discriminator 3 view .LVU1459
 4457              	.LBE153:
 571:lvgl/src/widgets/lv_btnmatrix.c ****             }
 4458              		.loc 1 571 17 is_stmt 1 view .LVU1460
 571:lvgl/src/widgets/lv_btnmatrix.c ****             }
 4459              		.loc 1 571 34 is_stmt 0 view .LVU1461
 4460 03a0 4FF6FF73 		movw	r3, #65535
 4461 03a4 B386     		strh	r3, [r6, #52]	@ movhi
 4462 03a6 34E6     		b	.L218
 4463              	.LVL451:
 4464              	.L298:
 571:lvgl/src/widgets/lv_btnmatrix.c ****             }
 4465              		.loc 1 571 34 view .LVU1462
 4466              	.LBE150:
 576:lvgl/src/widgets/lv_btnmatrix.c ****         btnm->btn_id_sel = LV_BTNMATRIX_BTN_NONE;
 4467              		.loc 1 576 9 is_stmt 1 view .LVU1463
 576:lvgl/src/widgets/lv_btnmatrix.c ****         btnm->btn_id_sel = LV_BTNMATRIX_BTN_NONE;
 4468              		.loc 1 576 16 is_stmt 0 view .LVU1464
 4469 03a8 B18E     		ldrh	r1, [r6, #52]
 576:lvgl/src/widgets/lv_btnmatrix.c ****         btnm->btn_id_sel = LV_BTNMATRIX_BTN_NONE;
 4470              		.loc 1 576 11 view .LVU1465
 4471 03aa 4FF6FF73 		movw	r3, #65535
 4472 03ae 9942     		cmp	r1, r3
ARM GAS  C:\Users\OSD\AppData\Local\Temp\ccnvvkrZ.s 			page 133


 4473 03b0 03D1     		bne	.L306
 4474              	.L251:
 577:lvgl/src/widgets/lv_btnmatrix.c ****     }
 4475              		.loc 1 577 9 is_stmt 1 view .LVU1466
 577:lvgl/src/widgets/lv_btnmatrix.c ****     }
 4476              		.loc 1 577 26 is_stmt 0 view .LVU1467
 4477 03b2 4FF6FF73 		movw	r3, #65535
 4478 03b6 B386     		strh	r3, [r6, #52]	@ movhi
 4479 03b8 2BE6     		b	.L218
 4480              	.L306:
 576:lvgl/src/widgets/lv_btnmatrix.c ****         btnm->btn_id_sel = LV_BTNMATRIX_BTN_NONE;
 4481              		.loc 1 576 55 is_stmt 1 discriminator 1 view .LVU1468
 4482 03ba 3046     		mov	r0, r6
 4483 03bc FFF7FEFF 		bl	invalidate_button_area
 4484              	.LVL452:
 4485 03c0 F7E7     		b	.L251
 4486              	.L299:
 4487              	.LBB154:
 581:lvgl/src/widgets/lv_btnmatrix.c **** 
 4488              		.loc 1 581 9 view .LVU1469
 4489 03c2 B18E     		ldrh	r1, [r6, #52]
 4490 03c4 3046     		mov	r0, r6
 4491 03c6 FFF7FEFF 		bl	invalidate_button_area
 4492              	.LVL453:
 583:lvgl/src/widgets/lv_btnmatrix.c ****         if(c == LV_KEY_RIGHT) {
 4493              		.loc 1 583 9 view .LVU1470
 583:lvgl/src/widgets/lv_btnmatrix.c ****         if(c == LV_KEY_RIGHT) {
 4494              		.loc 1 583 28 is_stmt 0 view .LVU1471
 4495 03ca 2846     		mov	r0, r5
 4496 03cc FFF7FEFF 		bl	lv_event_get_param
 4497              	.LVL454:
 583:lvgl/src/widgets/lv_btnmatrix.c ****         if(c == LV_KEY_RIGHT) {
 4498              		.loc 1 583 14 view .LVU1472
 4499 03d0 0378     		ldrb	r3, [r0]	@ zero_extendqisi2
 4500              	.LVL455:
 584:lvgl/src/widgets/lv_btnmatrix.c ****             if(btnm->btn_id_sel == LV_BTNMATRIX_BTN_NONE)  btnm->btn_id_sel = 0;
 4501              		.loc 1 584 9 is_stmt 1 view .LVU1473
 584:lvgl/src/widgets/lv_btnmatrix.c ****             if(btnm->btn_id_sel == LV_BTNMATRIX_BTN_NONE)  btnm->btn_id_sel = 0;
 4502              		.loc 1 584 11 is_stmt 0 view .LVU1474
 4503 03d2 132B     		cmp	r3, #19
 4504 03d4 0BD0     		beq	.L307
 600:lvgl/src/widgets/lv_btnmatrix.c ****             if(btnm->btn_id_sel == LV_BTNMATRIX_BTN_NONE) btnm->btn_id_sel = 0;
 4505              		.loc 1 600 14 is_stmt 1 view .LVU1475
 600:lvgl/src/widgets/lv_btnmatrix.c ****             if(btnm->btn_id_sel == LV_BTNMATRIX_BTN_NONE) btnm->btn_id_sel = 0;
 4506              		.loc 1 600 16 is_stmt 0 view .LVU1476
 4507 03d6 142B     		cmp	r3, #20
 4508 03d8 39D0     		beq	.L308
 617:lvgl/src/widgets/lv_btnmatrix.c ****             lv_coord_t col_gap = lv_obj_get_style_pad_column(obj, LV_PART_MAIN);
 4509              		.loc 1 617 14 is_stmt 1 view .LVU1477
 617:lvgl/src/widgets/lv_btnmatrix.c ****             lv_coord_t col_gap = lv_obj_get_style_pad_column(obj, LV_PART_MAIN);
 4510              		.loc 1 617 16 is_stmt 0 view .LVU1478
 4511 03da 122B     		cmp	r3, #18
 4512 03dc 66D0     		beq	.L309
 648:lvgl/src/widgets/lv_btnmatrix.c ****             lv_coord_t col_gap = lv_obj_get_style_pad_column(obj, LV_PART_MAIN);
 4513              		.loc 1 648 14 is_stmt 1 view .LVU1479
 648:lvgl/src/widgets/lv_btnmatrix.c ****             lv_coord_t col_gap = lv_obj_get_style_pad_column(obj, LV_PART_MAIN);
 4514              		.loc 1 648 16 is_stmt 0 view .LVU1480
ARM GAS  C:\Users\OSD\AppData\Local\Temp\ccnvvkrZ.s 			page 134


 4515 03de 112B     		cmp	r3, #17
 4516 03e0 00F0C480 		beq	.L310
 4517              	.LVL456:
 4518              	.L259:
 679:lvgl/src/widgets/lv_btnmatrix.c ****     }
 4519              		.loc 1 679 9 is_stmt 1 view .LVU1481
 4520 03e4 B18E     		ldrh	r1, [r6, #52]
 4521 03e6 3046     		mov	r0, r6
 4522 03e8 FFF7FEFF 		bl	invalidate_button_area
 4523              	.LVL457:
 4524              	.LBE154:
 4525 03ec 11E6     		b	.L218
 4526              	.LVL458:
 4527              	.L307:
 4528              	.LBB171:
 4529              	.LBB155:
 585:lvgl/src/widgets/lv_btnmatrix.c ****             else btnm->btn_id_sel++;
 4530              		.loc 1 585 13 view .LVU1482
 585:lvgl/src/widgets/lv_btnmatrix.c ****             else btnm->btn_id_sel++;
 4531              		.loc 1 585 20 is_stmt 0 view .LVU1483
 4532 03ee B38E     		ldrh	r3, [r6, #52]
 4533              	.LVL459:
 585:lvgl/src/widgets/lv_btnmatrix.c ****             else btnm->btn_id_sel++;
 4534              		.loc 1 585 15 view .LVU1484
 4535 03f0 4FF6FF72 		movw	r2, #65535
 4536 03f4 9342     		cmp	r3, r2
 4537 03f6 0AD0     		beq	.L311
 586:lvgl/src/widgets/lv_btnmatrix.c ****             if(btnm->btn_id_sel >= btnm->btn_cnt) btnm->btn_id_sel = 0;
 4538              		.loc 1 586 18 is_stmt 1 view .LVU1485
 586:lvgl/src/widgets/lv_btnmatrix.c ****             if(btnm->btn_id_sel >= btnm->btn_cnt) btnm->btn_id_sel = 0;
 4539              		.loc 1 586 34 is_stmt 0 view .LVU1486
 4540 03f8 0133     		adds	r3, r3, #1
 4541 03fa B386     		strh	r3, [r6, #52]	@ movhi
 4542              	.LVL460:
 4543              	.L255:
 587:lvgl/src/widgets/lv_btnmatrix.c **** 
 4544              		.loc 1 587 13 is_stmt 1 view .LVU1487
 587:lvgl/src/widgets/lv_btnmatrix.c **** 
 4545              		.loc 1 587 20 is_stmt 0 view .LVU1488
 4546 03fc B38E     		ldrh	r3, [r6, #52]
 587:lvgl/src/widgets/lv_btnmatrix.c **** 
 4547              		.loc 1 587 40 view .LVU1489
 4548 03fe 378E     		ldrh	r7, [r6, #48]
 587:lvgl/src/widgets/lv_btnmatrix.c **** 
 4549              		.loc 1 587 15 view .LVU1490
 4550 0400 BB42     		cmp	r3, r7
 4551 0402 01D3     		bcc	.L256
 587:lvgl/src/widgets/lv_btnmatrix.c **** 
 4552              		.loc 1 587 51 is_stmt 1 discriminator 1 view .LVU1491
 587:lvgl/src/widgets/lv_btnmatrix.c **** 
 4553              		.loc 1 587 68 is_stmt 0 discriminator 1 view .LVU1492
 4554 0404 0023     		movs	r3, #0
 4555 0406 B386     		strh	r3, [r6, #52]	@ movhi
 4556              	.L256:
 589:lvgl/src/widgets/lv_btnmatrix.c ****             while(button_is_hidden(btnm->ctrl_bits[btnm->btn_id_sel]) || button_is_inactive(btnm->c
 4557              		.loc 1 589 13 is_stmt 1 view .LVU1493
 589:lvgl/src/widgets/lv_btnmatrix.c ****             while(button_is_hidden(btnm->ctrl_bits[btnm->btn_id_sel]) || button_is_inactive(btnm->c
ARM GAS  C:\Users\OSD\AppData\Local\Temp\ccnvvkrZ.s 			page 135


 4558              		.loc 1 589 22 is_stmt 0 view .LVU1494
 4559 0408 B6F83480 		ldrh	r8, [r6, #52]
 4560              	.LVL461:
 590:lvgl/src/widgets/lv_btnmatrix.c ****                 btnm->btn_id_sel++;
 4561              		.loc 1 590 13 is_stmt 1 view .LVU1495
 590:lvgl/src/widgets/lv_btnmatrix.c ****                 btnm->btn_id_sel++;
 4562              		.loc 1 590 18 is_stmt 0 view .LVU1496
 4563 040c 0CE0     		b	.L257
 4564              	.LVL462:
 4565              	.L311:
 585:lvgl/src/widgets/lv_btnmatrix.c ****             else btnm->btn_id_sel++;
 4566              		.loc 1 585 60 is_stmt 1 discriminator 1 view .LVU1497
 585:lvgl/src/widgets/lv_btnmatrix.c ****             else btnm->btn_id_sel++;
 4567              		.loc 1 585 77 is_stmt 0 discriminator 1 view .LVU1498
 4568 040e 0023     		movs	r3, #0
 4569 0410 B386     		strh	r3, [r6, #52]	@ movhi
 4570              	.LVL463:
 585:lvgl/src/widgets/lv_btnmatrix.c ****             else btnm->btn_id_sel++;
 4571              		.loc 1 585 77 discriminator 1 view .LVU1499
 4572 0412 F3E7     		b	.L255
 4573              	.LVL464:
 4574              	.L260:
 591:lvgl/src/widgets/lv_btnmatrix.c ****                 if(btnm->btn_id_sel >= btnm->btn_cnt) btnm->btn_id_sel = 0;
 4575              		.loc 1 591 17 is_stmt 1 view .LVU1500
 591:lvgl/src/widgets/lv_btnmatrix.c ****                 if(btnm->btn_id_sel >= btnm->btn_cnt) btnm->btn_id_sel = 0;
 4576              		.loc 1 591 33 is_stmt 0 view .LVU1501
 4577 0414 631C     		adds	r3, r4, #1
 4578 0416 9BB2     		uxth	r3, r3
 4579 0418 B386     		strh	r3, [r6, #52]	@ movhi
 592:lvgl/src/widgets/lv_btnmatrix.c **** 
 4580              		.loc 1 592 17 is_stmt 1 view .LVU1502
 592:lvgl/src/widgets/lv_btnmatrix.c **** 
 4581              		.loc 1 592 19 is_stmt 0 view .LVU1503
 4582 041a 9F42     		cmp	r7, r3
 4583 041c 01D8     		bhi	.L258
 592:lvgl/src/widgets/lv_btnmatrix.c **** 
 4584              		.loc 1 592 55 is_stmt 1 discriminator 1 view .LVU1504
 592:lvgl/src/widgets/lv_btnmatrix.c **** 
 4585              		.loc 1 592 72 is_stmt 0 discriminator 1 view .LVU1505
 4586 041e 0023     		movs	r3, #0
 4587 0420 B386     		strh	r3, [r6, #52]	@ movhi
 4588              	.L258:
 594:lvgl/src/widgets/lv_btnmatrix.c ****                     btnm->btn_id_sel = LV_BTNMATRIX_BTN_NONE;
 4589              		.loc 1 594 17 is_stmt 1 view .LVU1506
 594:lvgl/src/widgets/lv_btnmatrix.c ****                     btnm->btn_id_sel = LV_BTNMATRIX_BTN_NONE;
 4590              		.loc 1 594 24 is_stmt 0 view .LVU1507
 4591 0422 B38E     		ldrh	r3, [r6, #52]
 594:lvgl/src/widgets/lv_btnmatrix.c ****                     btnm->btn_id_sel = LV_BTNMATRIX_BTN_NONE;
 4592              		.loc 1 594 19 view .LVU1508
 4593 0424 4345     		cmp	r3, r8
 4594 0426 0ED0     		beq	.L312
 4595              	.L257:
 590:lvgl/src/widgets/lv_btnmatrix.c ****                 btnm->btn_id_sel++;
 4596              		.loc 1 590 18 is_stmt 1 view .LVU1509
 590:lvgl/src/widgets/lv_btnmatrix.c ****                 btnm->btn_id_sel++;
 4597              		.loc 1 590 40 is_stmt 0 view .LVU1510
 4598 0428 F36A     		ldr	r3, [r6, #44]
ARM GAS  C:\Users\OSD\AppData\Local\Temp\ccnvvkrZ.s 			page 136


 590:lvgl/src/widgets/lv_btnmatrix.c ****                 btnm->btn_id_sel++;
 4599              		.loc 1 590 56 view .LVU1511
 4600 042a B48E     		ldrh	r4, [r6, #52]
 590:lvgl/src/widgets/lv_btnmatrix.c ****                 btnm->btn_id_sel++;
 4601              		.loc 1 590 19 view .LVU1512
 4602 042c 33F81450 		ldrh	r5, [r3, r4, lsl #1]
 4603 0430 2846     		mov	r0, r5
 4604 0432 FFF7FEFF 		bl	button_is_hidden
 4605              	.LVL465:
 590:lvgl/src/widgets/lv_btnmatrix.c ****                 btnm->btn_id_sel++;
 4606              		.loc 1 590 18 view .LVU1513
 4607 0436 0028     		cmp	r0, #0
 4608 0438 ECD1     		bne	.L260
 590:lvgl/src/widgets/lv_btnmatrix.c ****                 btnm->btn_id_sel++;
 4609              		.loc 1 590 74 discriminator 1 view .LVU1514
 4610 043a 2846     		mov	r0, r5
 4611 043c FFF7FEFF 		bl	button_is_inactive
 4612              	.LVL466:
 590:lvgl/src/widgets/lv_btnmatrix.c ****                 btnm->btn_id_sel++;
 4613              		.loc 1 590 71 discriminator 1 view .LVU1515
 4614 0440 0028     		cmp	r0, #0
 4615 0442 E7D1     		bne	.L260
 4616 0444 CEE7     		b	.L259
 4617              	.L312:
 595:lvgl/src/widgets/lv_btnmatrix.c ****                     break;
 4618              		.loc 1 595 21 is_stmt 1 view .LVU1516
 595:lvgl/src/widgets/lv_btnmatrix.c ****                     break;
 4619              		.loc 1 595 38 is_stmt 0 view .LVU1517
 4620 0446 4FF6FF73 		movw	r3, #65535
 4621 044a B386     		strh	r3, [r6, #52]	@ movhi
 596:lvgl/src/widgets/lv_btnmatrix.c ****                 }
 4622              		.loc 1 596 21 is_stmt 1 view .LVU1518
 4623 044c CAE7     		b	.L259
 4624              	.LVL467:
 4625              	.L308:
 596:lvgl/src/widgets/lv_btnmatrix.c ****                 }
 4626              		.loc 1 596 21 is_stmt 0 view .LVU1519
 4627              	.LBE155:
 4628              	.LBB156:
 601:lvgl/src/widgets/lv_btnmatrix.c **** 
 4629              		.loc 1 601 13 is_stmt 1 view .LVU1520
 601:lvgl/src/widgets/lv_btnmatrix.c **** 
 4630              		.loc 1 601 20 is_stmt 0 view .LVU1521
 4631 044e B28E     		ldrh	r2, [r6, #52]
 601:lvgl/src/widgets/lv_btnmatrix.c **** 
 4632              		.loc 1 601 15 view .LVU1522
 4633 0450 4FF6FF73 		movw	r3, #65535
 4634              	.LVL468:
 601:lvgl/src/widgets/lv_btnmatrix.c **** 
 4635              		.loc 1 601 15 view .LVU1523
 4636 0454 9A42     		cmp	r2, r3
 4637 0456 06D0     		beq	.L313
 4638              	.LVL469:
 4639              	.L262:
 603:lvgl/src/widgets/lv_btnmatrix.c ****             else if(btnm->btn_id_sel > 0) btnm->btn_id_sel--;
 4640              		.loc 1 603 13 is_stmt 1 view .LVU1524
 603:lvgl/src/widgets/lv_btnmatrix.c ****             else if(btnm->btn_id_sel > 0) btnm->btn_id_sel--;
ARM GAS  C:\Users\OSD\AppData\Local\Temp\ccnvvkrZ.s 			page 137


 4641              		.loc 1 603 20 is_stmt 0 view .LVU1525
 4642 0458 B38E     		ldrh	r3, [r6, #52]
 603:lvgl/src/widgets/lv_btnmatrix.c ****             else if(btnm->btn_id_sel > 0) btnm->btn_id_sel--;
 4643              		.loc 1 603 15 view .LVU1526
 4644 045a 3BB9     		cbnz	r3, .L263
 603:lvgl/src/widgets/lv_btnmatrix.c ****             else if(btnm->btn_id_sel > 0) btnm->btn_id_sel--;
 4645              		.loc 1 603 39 is_stmt 1 discriminator 1 view .LVU1527
 603:lvgl/src/widgets/lv_btnmatrix.c ****             else if(btnm->btn_id_sel > 0) btnm->btn_id_sel--;
 4646              		.loc 1 603 62 is_stmt 0 discriminator 1 view .LVU1528
 4647 045c 338E     		ldrh	r3, [r6, #48]
 603:lvgl/src/widgets/lv_btnmatrix.c ****             else if(btnm->btn_id_sel > 0) btnm->btn_id_sel--;
 4648              		.loc 1 603 72 discriminator 1 view .LVU1529
 4649 045e 013B     		subs	r3, r3, #1
 603:lvgl/src/widgets/lv_btnmatrix.c ****             else if(btnm->btn_id_sel > 0) btnm->btn_id_sel--;
 4650              		.loc 1 603 56 discriminator 1 view .LVU1530
 4651 0460 B386     		strh	r3, [r6, #52]	@ movhi
 4652              	.L264:
 606:lvgl/src/widgets/lv_btnmatrix.c ****             while(button_is_hidden(btnm->ctrl_bits[btnm->btn_id_sel]) || button_is_inactive(btnm->c
 4653              		.loc 1 606 13 is_stmt 1 view .LVU1531
 606:lvgl/src/widgets/lv_btnmatrix.c ****             while(button_is_hidden(btnm->ctrl_bits[btnm->btn_id_sel]) || button_is_inactive(btnm->c
 4654              		.loc 1 606 22 is_stmt 0 view .LVU1532
 4655 0462 B78E     		ldrh	r7, [r6, #52]
 4656              	.LVL470:
 607:lvgl/src/widgets/lv_btnmatrix.c ****                 if(btnm->btn_id_sel > 0) btnm->btn_id_sel--;
 4657              		.loc 1 607 13 is_stmt 1 view .LVU1533
 607:lvgl/src/widgets/lv_btnmatrix.c ****                 if(btnm->btn_id_sel > 0) btnm->btn_id_sel--;
 4658              		.loc 1 607 18 is_stmt 0 view .LVU1534
 4659 0464 0BE0     		b	.L265
 4660              	.LVL471:
 4661              	.L313:
 601:lvgl/src/widgets/lv_btnmatrix.c **** 
 4662              		.loc 1 601 59 is_stmt 1 discriminator 1 view .LVU1535
 601:lvgl/src/widgets/lv_btnmatrix.c **** 
 4663              		.loc 1 601 76 is_stmt 0 discriminator 1 view .LVU1536
 4664 0466 0023     		movs	r3, #0
 4665 0468 B386     		strh	r3, [r6, #52]	@ movhi
 4666              	.LVL472:
 601:lvgl/src/widgets/lv_btnmatrix.c **** 
 4667              		.loc 1 601 76 discriminator 1 view .LVU1537
 4668 046a F5E7     		b	.L262
 4669              	.L263:
 604:lvgl/src/widgets/lv_btnmatrix.c **** 
 4670              		.loc 1 604 18 is_stmt 1 discriminator 1 view .LVU1538
 604:lvgl/src/widgets/lv_btnmatrix.c **** 
 4671              		.loc 1 604 43 discriminator 1 view .LVU1539
 604:lvgl/src/widgets/lv_btnmatrix.c **** 
 4672              		.loc 1 604 59 is_stmt 0 discriminator 1 view .LVU1540
 4673 046c 013B     		subs	r3, r3, #1
 4674 046e B386     		strh	r3, [r6, #52]	@ movhi
 4675 0470 F7E7     		b	.L264
 4676              	.LVL473:
 4677              	.L268:
 608:lvgl/src/widgets/lv_btnmatrix.c ****                 else btnm->btn_id_sel = btnm->btn_cnt - 1;
 4678              		.loc 1 608 17 is_stmt 1 view .LVU1541
 608:lvgl/src/widgets/lv_btnmatrix.c ****                 else btnm->btn_id_sel = btnm->btn_cnt - 1;
 4679              		.loc 1 608 19 is_stmt 0 view .LVU1542
 4680 0472 9CB1     		cbz	r4, .L266
ARM GAS  C:\Users\OSD\AppData\Local\Temp\ccnvvkrZ.s 			page 138


 608:lvgl/src/widgets/lv_btnmatrix.c ****                 else btnm->btn_id_sel = btnm->btn_cnt - 1;
 4681              		.loc 1 608 42 is_stmt 1 discriminator 1 view .LVU1543
 608:lvgl/src/widgets/lv_btnmatrix.c ****                 else btnm->btn_id_sel = btnm->btn_cnt - 1;
 4682              		.loc 1 608 58 is_stmt 0 discriminator 1 view .LVU1544
 4683 0474 013C     		subs	r4, r4, #1
 4684 0476 B486     		strh	r4, [r6, #52]	@ movhi
 4685              	.L267:
 611:lvgl/src/widgets/lv_btnmatrix.c ****                     btnm->btn_id_sel = LV_BTNMATRIX_BTN_NONE;
 4686              		.loc 1 611 17 is_stmt 1 view .LVU1545
 611:lvgl/src/widgets/lv_btnmatrix.c ****                     btnm->btn_id_sel = LV_BTNMATRIX_BTN_NONE;
 4687              		.loc 1 611 24 is_stmt 0 view .LVU1546
 4688 0478 B38E     		ldrh	r3, [r6, #52]
 611:lvgl/src/widgets/lv_btnmatrix.c ****                     btnm->btn_id_sel = LV_BTNMATRIX_BTN_NONE;
 4689              		.loc 1 611 19 view .LVU1547
 4690 047a BB42     		cmp	r3, r7
 4691 047c 12D0     		beq	.L314
 4692              	.L265:
 607:lvgl/src/widgets/lv_btnmatrix.c ****                 if(btnm->btn_id_sel > 0) btnm->btn_id_sel--;
 4693              		.loc 1 607 18 is_stmt 1 view .LVU1548
 607:lvgl/src/widgets/lv_btnmatrix.c ****                 if(btnm->btn_id_sel > 0) btnm->btn_id_sel--;
 4694              		.loc 1 607 40 is_stmt 0 view .LVU1549
 4695 047e F36A     		ldr	r3, [r6, #44]
 607:lvgl/src/widgets/lv_btnmatrix.c ****                 if(btnm->btn_id_sel > 0) btnm->btn_id_sel--;
 4696              		.loc 1 607 56 view .LVU1550
 4697 0480 B48E     		ldrh	r4, [r6, #52]
 607:lvgl/src/widgets/lv_btnmatrix.c ****                 if(btnm->btn_id_sel > 0) btnm->btn_id_sel--;
 4698              		.loc 1 607 19 view .LVU1551
 4699 0482 33F81450 		ldrh	r5, [r3, r4, lsl #1]
 4700 0486 2846     		mov	r0, r5
 4701 0488 FFF7FEFF 		bl	button_is_hidden
 4702              	.LVL474:
 607:lvgl/src/widgets/lv_btnmatrix.c ****                 if(btnm->btn_id_sel > 0) btnm->btn_id_sel--;
 4703              		.loc 1 607 18 view .LVU1552
 4704 048c 0028     		cmp	r0, #0
 4705 048e F0D1     		bne	.L268
 607:lvgl/src/widgets/lv_btnmatrix.c ****                 if(btnm->btn_id_sel > 0) btnm->btn_id_sel--;
 4706              		.loc 1 607 74 discriminator 1 view .LVU1553
 4707 0490 2846     		mov	r0, r5
 4708 0492 FFF7FEFF 		bl	button_is_inactive
 4709              	.LVL475:
 607:lvgl/src/widgets/lv_btnmatrix.c ****                 if(btnm->btn_id_sel > 0) btnm->btn_id_sel--;
 4710              		.loc 1 607 71 discriminator 1 view .LVU1554
 4711 0496 0028     		cmp	r0, #0
 4712 0498 EBD1     		bne	.L268
 4713 049a A3E7     		b	.L259
 4714              	.L266:
 609:lvgl/src/widgets/lv_btnmatrix.c **** 
 4715              		.loc 1 609 22 is_stmt 1 view .LVU1555
 609:lvgl/src/widgets/lv_btnmatrix.c **** 
 4716              		.loc 1 609 45 is_stmt 0 view .LVU1556
 4717 049c 338E     		ldrh	r3, [r6, #48]
 609:lvgl/src/widgets/lv_btnmatrix.c **** 
 4718              		.loc 1 609 55 view .LVU1557
 4719 049e 013B     		subs	r3, r3, #1
 609:lvgl/src/widgets/lv_btnmatrix.c **** 
 4720              		.loc 1 609 39 view .LVU1558
 4721 04a0 B386     		strh	r3, [r6, #52]	@ movhi
ARM GAS  C:\Users\OSD\AppData\Local\Temp\ccnvvkrZ.s 			page 139


 4722 04a2 E9E7     		b	.L267
 4723              	.L314:
 612:lvgl/src/widgets/lv_btnmatrix.c ****                     break;
 4724              		.loc 1 612 21 is_stmt 1 view .LVU1559
 612:lvgl/src/widgets/lv_btnmatrix.c ****                     break;
 4725              		.loc 1 612 38 is_stmt 0 view .LVU1560
 4726 04a4 4FF6FF73 		movw	r3, #65535
 4727 04a8 B386     		strh	r3, [r6, #52]	@ movhi
 613:lvgl/src/widgets/lv_btnmatrix.c ****                 }
 4728              		.loc 1 613 21 is_stmt 1 view .LVU1561
 4729 04aa 9BE7     		b	.L259
 4730              	.LVL476:
 4731              	.L309:
 613:lvgl/src/widgets/lv_btnmatrix.c ****                 }
 4732              		.loc 1 613 21 is_stmt 0 view .LVU1562
 4733              	.LBE156:
 4734              	.LBB157:
 618:lvgl/src/widgets/lv_btnmatrix.c ****             /*Find the area below the current*/
 4735              		.loc 1 618 13 is_stmt 1 view .LVU1563
 4736              	.LBB158:
 4737              	.LBI158:
 133:lvgl/src/widgets/../core/lv_obj_style_gen.h **** {
 4738              		.loc 2 133 26 view .LVU1564
 4739              	.LBB159:
 135:lvgl/src/widgets/../core/lv_obj_style_gen.h ****     return (lv_coord_t)v.num;
 4740              		.loc 2 135 5 view .LVU1565
 135:lvgl/src/widgets/../core/lv_obj_style_gen.h ****     return (lv_coord_t)v.num;
 4741              		.loc 2 135 26 is_stmt 0 view .LVU1566
 4742 04ac 1522     		movs	r2, #21
 4743 04ae 0021     		movs	r1, #0
 4744 04b0 3046     		mov	r0, r6
 4745 04b2 FFF7FEFF 		bl	lv_obj_get_style_prop
 4746              	.LVL477:
 136:lvgl/src/widgets/../core/lv_obj_style_gen.h **** }
 4747              		.loc 2 136 5 is_stmt 1 view .LVU1567
 136:lvgl/src/widgets/../core/lv_obj_style_gen.h **** }
 4748              		.loc 2 136 12 is_stmt 0 view .LVU1568
 4749 04b6 0FFA80F8 		sxth	r8, r0
 4750              	.LVL478:
 136:lvgl/src/widgets/../core/lv_obj_style_gen.h **** }
 4751              		.loc 2 136 12 view .LVU1569
 4752              	.LBE159:
 4753              	.LBE158:
 620:lvgl/src/widgets/lv_btnmatrix.c ****                 btnm->btn_id_sel = 0;
 4754              		.loc 1 620 13 is_stmt 1 view .LVU1570
 620:lvgl/src/widgets/lv_btnmatrix.c ****                 btnm->btn_id_sel = 0;
 4755              		.loc 1 620 20 is_stmt 0 view .LVU1571
 4756 04ba B48E     		ldrh	r4, [r6, #52]
 4757              	.LVL479:
 620:lvgl/src/widgets/lv_btnmatrix.c ****                 btnm->btn_id_sel = 0;
 4758              		.loc 1 620 15 view .LVU1572
 4759 04bc 4FF6FF73 		movw	r3, #65535
 4760 04c0 9C42     		cmp	r4, r3
 4761 04c2 0ED0     		beq	.L315
 4762              	.LBB160:
 631:lvgl/src/widgets/lv_btnmatrix.c ****                 lv_coord_t pr_center =
 4763              		.loc 1 631 17 is_stmt 1 view .LVU1573
ARM GAS  C:\Users\OSD\AppData\Local\Temp\ccnvvkrZ.s 			page 140


 632:lvgl/src/widgets/lv_btnmatrix.c ****                     btnm->button_areas[btnm->btn_id_sel].x1 + (lv_area_get_width(&btnm->button_area
 4764              		.loc 1 632 17 view .LVU1574
 633:lvgl/src/widgets/lv_btnmatrix.c **** 
 4765              		.loc 1 633 25 is_stmt 0 view .LVU1575
 4766 04c4 B56A     		ldr	r5, [r6, #40]
 4767              	.LVL480:
 633:lvgl/src/widgets/lv_btnmatrix.c **** 
 4768              		.loc 1 633 39 view .LVU1576
 4769 04c6 05EBC407 		add	r7, r5, r4, lsl #3
 633:lvgl/src/widgets/lv_btnmatrix.c **** 
 4770              		.loc 1 633 57 view .LVU1577
 4771 04ca 35F83420 		ldrh	r2, [r5, r4, lsl #3]
 4772              	.LVL481:
 4773              	.LBB161:
 4774              	.LBI161:
 123:d:\kzc\stm32\h743ii_lcd\lvgl\src\misc\lv_area.h **** {
 4775              		.loc 3 123 26 is_stmt 1 view .LVU1578
 4776              	.LBB162:
 125:d:\kzc\stm32\h743ii_lcd\lvgl\src\misc\lv_area.h **** }
 4777              		.loc 3 125 5 view .LVU1579
 125:d:\kzc\stm32\h743ii_lcd\lvgl\src\misc\lv_area.h **** }
 4778              		.loc 3 125 31 is_stmt 0 view .LVU1580
 4779 04ce BB88     		ldrh	r3, [r7, #4]
 125:d:\kzc\stm32\h743ii_lcd\lvgl\src\misc\lv_area.h **** }
 4780              		.loc 3 125 36 view .LVU1581
 4781 04d0 9B1A     		subs	r3, r3, r2
 4782 04d2 9BB2     		uxth	r3, r3
 125:d:\kzc\stm32\h743ii_lcd\lvgl\src\misc\lv_area.h **** }
 4783              		.loc 3 125 49 view .LVU1582
 4784 04d4 0133     		adds	r3, r3, #1
 4785              	.LVL482:
 125:d:\kzc\stm32\h743ii_lcd\lvgl\src\misc\lv_area.h **** }
 4786              		.loc 3 125 49 view .LVU1583
 4787              	.LBE162:
 4788              	.LBE161:
 633:lvgl/src/widgets/lv_btnmatrix.c **** 
 4789              		.loc 1 633 61 view .LVU1584
 4790 04d6 43F34E03 		sbfx	r3, r3, #1, #15
 4791 04da 1344     		add	r3, r3, r2
 632:lvgl/src/widgets/lv_btnmatrix.c ****                     btnm->button_areas[btnm->btn_id_sel].x1 + (lv_area_get_width(&btnm->button_area
 4792              		.loc 1 632 28 view .LVU1585
 4793 04dc 0FFA83F9 		sxth	r9, r3
 4794              	.LVL483:
 635:lvgl/src/widgets/lv_btnmatrix.c ****                     if(btnm->button_areas[area_below].y1 > btnm->button_areas[btnm->btn_id_sel].y1 
 4795              		.loc 1 635 17 is_stmt 1 view .LVU1586
 635:lvgl/src/widgets/lv_btnmatrix.c ****                     if(btnm->button_areas[area_below].y1 > btnm->button_areas[btnm->btn_id_sel].y1 
 4796              		.loc 1 635 17 is_stmt 0 view .LVU1587
 4797 04e0 1DE0     		b	.L273
 4798              	.LVL484:
 4799              	.L315:
 635:lvgl/src/widgets/lv_btnmatrix.c ****                     if(btnm->button_areas[area_below].y1 > btnm->button_areas[btnm->btn_id_sel].y1 
 4800              		.loc 1 635 17 view .LVU1588
 4801              	.LBE160:
 621:lvgl/src/widgets/lv_btnmatrix.c ****                 while(button_is_hidden(btnm->ctrl_bits[btnm->btn_id_sel]) || button_is_inactive(btn
 4802              		.loc 1 621 17 is_stmt 1 view .LVU1589
 621:lvgl/src/widgets/lv_btnmatrix.c ****                 while(button_is_hidden(btnm->ctrl_bits[btnm->btn_id_sel]) || button_is_inactive(btn
 4803              		.loc 1 621 34 is_stmt 0 view .LVU1590
ARM GAS  C:\Users\OSD\AppData\Local\Temp\ccnvvkrZ.s 			page 141


 4804 04e2 0023     		movs	r3, #0
 4805 04e4 B386     		strh	r3, [r6, #52]	@ movhi
 622:lvgl/src/widgets/lv_btnmatrix.c ****                     btnm->btn_id_sel++;
 4806              		.loc 1 622 17 is_stmt 1 view .LVU1591
 622:lvgl/src/widgets/lv_btnmatrix.c ****                     btnm->btn_id_sel++;
 4807              		.loc 1 622 22 is_stmt 0 view .LVU1592
 4808 04e6 05E0     		b	.L271
 4809              	.LVL485:
 4810              	.L272:
 623:lvgl/src/widgets/lv_btnmatrix.c ****                     if(btnm->btn_id_sel >= btnm->btn_cnt) {
 4811              		.loc 1 623 21 is_stmt 1 view .LVU1593
 623:lvgl/src/widgets/lv_btnmatrix.c ****                     if(btnm->btn_id_sel >= btnm->btn_cnt) {
 4812              		.loc 1 623 37 is_stmt 0 view .LVU1594
 4813 04e8 631C     		adds	r3, r4, #1
 4814 04ea 9BB2     		uxth	r3, r3
 4815 04ec B386     		strh	r3, [r6, #52]	@ movhi
 624:lvgl/src/widgets/lv_btnmatrix.c ****                         btnm->btn_id_sel = LV_BTNMATRIX_BTN_NONE;
 4816              		.loc 1 624 21 is_stmt 1 view .LVU1595
 624:lvgl/src/widgets/lv_btnmatrix.c ****                         btnm->btn_id_sel = LV_BTNMATRIX_BTN_NONE;
 4817              		.loc 1 624 48 is_stmt 0 view .LVU1596
 4818 04ee 328E     		ldrh	r2, [r6, #48]
 624:lvgl/src/widgets/lv_btnmatrix.c ****                         btnm->btn_id_sel = LV_BTNMATRIX_BTN_NONE;
 4819              		.loc 1 624 23 view .LVU1597
 4820 04f0 9342     		cmp	r3, r2
 4821 04f2 0ED2     		bcs	.L316
 4822              	.L271:
 622:lvgl/src/widgets/lv_btnmatrix.c ****                     btnm->btn_id_sel++;
 4823              		.loc 1 622 22 is_stmt 1 view .LVU1598
 622:lvgl/src/widgets/lv_btnmatrix.c ****                     btnm->btn_id_sel++;
 4824              		.loc 1 622 44 is_stmt 0 view .LVU1599
 4825 04f4 F36A     		ldr	r3, [r6, #44]
 622:lvgl/src/widgets/lv_btnmatrix.c ****                     btnm->btn_id_sel++;
 4826              		.loc 1 622 60 view .LVU1600
 4827 04f6 B48E     		ldrh	r4, [r6, #52]
 622:lvgl/src/widgets/lv_btnmatrix.c ****                     btnm->btn_id_sel++;
 4828              		.loc 1 622 23 view .LVU1601
 4829 04f8 33F81450 		ldrh	r5, [r3, r4, lsl #1]
 4830 04fc 2846     		mov	r0, r5
 4831 04fe FFF7FEFF 		bl	button_is_hidden
 4832              	.LVL486:
 622:lvgl/src/widgets/lv_btnmatrix.c ****                     btnm->btn_id_sel++;
 4833              		.loc 1 622 22 view .LVU1602
 4834 0502 0028     		cmp	r0, #0
 4835 0504 F0D1     		bne	.L272
 622:lvgl/src/widgets/lv_btnmatrix.c ****                     btnm->btn_id_sel++;
 4836              		.loc 1 622 78 discriminator 1 view .LVU1603
 4837 0506 2846     		mov	r0, r5
 4838 0508 FFF7FEFF 		bl	button_is_inactive
 4839              	.LVL487:
 622:lvgl/src/widgets/lv_btnmatrix.c ****                     btnm->btn_id_sel++;
 4840              		.loc 1 622 75 discriminator 1 view .LVU1604
 4841 050c 0028     		cmp	r0, #0
 4842 050e EBD1     		bne	.L272
 4843 0510 68E7     		b	.L259
 4844              	.L316:
 625:lvgl/src/widgets/lv_btnmatrix.c ****                         break;
 4845              		.loc 1 625 25 is_stmt 1 view .LVU1605
ARM GAS  C:\Users\OSD\AppData\Local\Temp\ccnvvkrZ.s 			page 142


 625:lvgl/src/widgets/lv_btnmatrix.c ****                         break;
 4846              		.loc 1 625 42 is_stmt 0 view .LVU1606
 4847 0512 4FF6FF73 		movw	r3, #65535
 4848 0516 B386     		strh	r3, [r6, #52]	@ movhi
 626:lvgl/src/widgets/lv_btnmatrix.c ****                     }
 4849              		.loc 1 626 25 is_stmt 1 view .LVU1607
 4850 0518 64E7     		b	.L259
 4851              	.LVL488:
 4852              	.L274:
 4853              	.LBB163:
 635:lvgl/src/widgets/lv_btnmatrix.c ****                     if(btnm->button_areas[area_below].y1 > btnm->button_areas[btnm->btn_id_sel].y1 
 4854              		.loc 1 635 80 discriminator 2 view .LVU1608
 635:lvgl/src/widgets/lv_btnmatrix.c ****                     if(btnm->button_areas[area_below].y1 > btnm->button_areas[btnm->btn_id_sel].y1 
 4855              		.loc 1 635 90 is_stmt 0 discriminator 2 view .LVU1609
 4856 051a 0134     		adds	r4, r4, #1
 4857              	.LVL489:
 635:lvgl/src/widgets/lv_btnmatrix.c ****                     if(btnm->button_areas[area_below].y1 > btnm->button_areas[btnm->btn_id_sel].y1 
 4858              		.loc 1 635 90 discriminator 2 view .LVU1610
 4859 051c A4B2     		uxth	r4, r4
 4860              	.LVL490:
 4861              	.L273:
 635:lvgl/src/widgets/lv_btnmatrix.c ****                     if(btnm->button_areas[area_below].y1 > btnm->button_areas[btnm->btn_id_sel].y1 
 4862              		.loc 1 635 52 is_stmt 1 discriminator 1 view .LVU1611
 635:lvgl/src/widgets/lv_btnmatrix.c ****                     if(btnm->button_areas[area_below].y1 > btnm->button_areas[btnm->btn_id_sel].y1 
 4863              		.loc 1 635 69 is_stmt 0 discriminator 1 view .LVU1612
 4864 051e B6F830A0 		ldrh	r10, [r6, #48]
 635:lvgl/src/widgets/lv_btnmatrix.c ****                     if(btnm->button_areas[area_below].y1 > btnm->button_areas[btnm->btn_id_sel].y1 
 4865              		.loc 1 635 17 discriminator 1 view .LVU1613
 4866 0522 A245     		cmp	r10, r4
 4867 0524 1DD9     		bls	.L275
 636:lvgl/src/widgets/lv_btnmatrix.c ****                        pr_center >= btnm->button_areas[area_below].x1 &&
 4868              		.loc 1 636 21 is_stmt 1 view .LVU1614
 636:lvgl/src/widgets/lv_btnmatrix.c ****                        pr_center >= btnm->button_areas[area_below].x1 &&
 4869              		.loc 1 636 42 is_stmt 0 view .LVU1615
 4870 0526 05EBC403 		add	r3, r5, r4, lsl #3
 636:lvgl/src/widgets/lv_btnmatrix.c ****                        pr_center >= btnm->button_areas[area_below].x1 &&
 4871              		.loc 1 636 54 view .LVU1616
 4872 052a B3F90210 		ldrsh	r1, [r3, #2]
 636:lvgl/src/widgets/lv_btnmatrix.c ****                        pr_center >= btnm->button_areas[area_below].x1 &&
 4873              		.loc 1 636 96 view .LVU1617
 4874 052e B7F90220 		ldrsh	r2, [r7, #2]
 636:lvgl/src/widgets/lv_btnmatrix.c ****                        pr_center >= btnm->button_areas[area_below].x1 &&
 4875              		.loc 1 636 23 view .LVU1618
 4876 0532 9142     		cmp	r1, r2
 4877 0534 F1DD     		ble	.L274
 637:lvgl/src/widgets/lv_btnmatrix.c ****                        pr_center <= btnm->button_areas[area_below].x2 + col_gap &&
 4878              		.loc 1 637 67 discriminator 1 view .LVU1619
 4879 0536 35F93420 		ldrsh	r2, [r5, r4, lsl #3]
 636:lvgl/src/widgets/lv_btnmatrix.c ****                        pr_center >= btnm->button_areas[area_below].x1 &&
 4880              		.loc 1 636 100 discriminator 1 view .LVU1620
 4881 053a 4A45     		cmp	r2, r9
 4882 053c EDDC     		bgt	.L274
 638:lvgl/src/widgets/lv_btnmatrix.c ****                        button_is_inactive(btnm->ctrl_bits[area_below]) == false &&
 4883              		.loc 1 638 67 view .LVU1621
 4884 053e B3F90430 		ldrsh	r3, [r3, #4]
 638:lvgl/src/widgets/lv_btnmatrix.c ****                        button_is_inactive(btnm->ctrl_bits[area_below]) == false &&
 4885              		.loc 1 638 71 view .LVU1622
ARM GAS  C:\Users\OSD\AppData\Local\Temp\ccnvvkrZ.s 			page 143


 4886 0542 4344     		add	r3, r3, r8
 637:lvgl/src/widgets/lv_btnmatrix.c ****                        pr_center <= btnm->button_areas[area_below].x2 + col_gap &&
 4887              		.loc 1 637 71 view .LVU1623
 4888 0544 9945     		cmp	r9, r3
 4889 0546 E8DC     		bgt	.L274
 639:lvgl/src/widgets/lv_btnmatrix.c ****                        button_is_hidden(btnm->ctrl_bits[area_below]) == false) {
 4890              		.loc 1 639 47 view .LVU1624
 4891 0548 F36A     		ldr	r3, [r6, #44]
 639:lvgl/src/widgets/lv_btnmatrix.c ****                        button_is_hidden(btnm->ctrl_bits[area_below]) == false) {
 4892              		.loc 1 639 24 view .LVU1625
 4893 054a 33F814B0 		ldrh	fp, [r3, r4, lsl #1]
 4894 054e 5846     		mov	r0, fp
 4895 0550 FFF7FEFF 		bl	button_is_inactive
 4896              	.LVL491:
 638:lvgl/src/widgets/lv_btnmatrix.c ****                        button_is_inactive(btnm->ctrl_bits[area_below]) == false &&
 4897              		.loc 1 638 81 view .LVU1626
 4898 0554 0028     		cmp	r0, #0
 4899 0556 E0D1     		bne	.L274
 640:lvgl/src/widgets/lv_btnmatrix.c ****                         break;
 4900              		.loc 1 640 24 view .LVU1627
 4901 0558 5846     		mov	r0, fp
 4902 055a FFF7FEFF 		bl	button_is_hidden
 4903              	.LVL492:
 639:lvgl/src/widgets/lv_btnmatrix.c ****                        button_is_hidden(btnm->ctrl_bits[area_below]) == false) {
 4904              		.loc 1 639 81 view .LVU1628
 4905 055e 0028     		cmp	r0, #0
 4906 0560 DBD1     		bne	.L274
 4907              	.L275:
 645:lvgl/src/widgets/lv_btnmatrix.c ****             }
 4908              		.loc 1 645 17 is_stmt 1 view .LVU1629
 645:lvgl/src/widgets/lv_btnmatrix.c ****             }
 4909              		.loc 1 645 19 is_stmt 0 view .LVU1630
 4910 0562 A245     		cmp	r10, r4
 4911 0564 7FF63EAF 		bls	.L259
 645:lvgl/src/widgets/lv_btnmatrix.c ****             }
 4912              		.loc 1 645 48 is_stmt 1 discriminator 1 view .LVU1631
 645:lvgl/src/widgets/lv_btnmatrix.c ****             }
 4913              		.loc 1 645 65 is_stmt 0 discriminator 1 view .LVU1632
 4914 0568 B486     		strh	r4, [r6, #52]	@ movhi
 4915 056a 3BE7     		b	.L259
 4916              	.LVL493:
 4917              	.L310:
 645:lvgl/src/widgets/lv_btnmatrix.c ****             }
 4918              		.loc 1 645 65 discriminator 1 view .LVU1633
 4919              	.LBE163:
 4920              	.LBE157:
 4921              	.LBB164:
 649:lvgl/src/widgets/lv_btnmatrix.c ****             /*Find the area below the current*/
 4922              		.loc 1 649 13 is_stmt 1 view .LVU1634
 4923              	.LBB165:
 4924              	.LBI165:
 133:lvgl/src/widgets/../core/lv_obj_style_gen.h **** {
 4925              		.loc 2 133 26 view .LVU1635
 4926              	.LBB166:
 135:lvgl/src/widgets/../core/lv_obj_style_gen.h ****     return (lv_coord_t)v.num;
 4927              		.loc 2 135 5 view .LVU1636
 135:lvgl/src/widgets/../core/lv_obj_style_gen.h ****     return (lv_coord_t)v.num;
ARM GAS  C:\Users\OSD\AppData\Local\Temp\ccnvvkrZ.s 			page 144


 4928              		.loc 2 135 26 is_stmt 0 view .LVU1637
 4929 056c 1522     		movs	r2, #21
 4930 056e 0021     		movs	r1, #0
 4931 0570 3046     		mov	r0, r6
 4932 0572 FFF7FEFF 		bl	lv_obj_get_style_prop
 4933              	.LVL494:
 136:lvgl/src/widgets/../core/lv_obj_style_gen.h **** }
 4934              		.loc 2 136 5 is_stmt 1 view .LVU1638
 136:lvgl/src/widgets/../core/lv_obj_style_gen.h **** }
 4935              		.loc 2 136 12 is_stmt 0 view .LVU1639
 4936 0576 0FFA80F8 		sxth	r8, r0
 4937              	.LVL495:
 136:lvgl/src/widgets/../core/lv_obj_style_gen.h **** }
 4938              		.loc 2 136 12 view .LVU1640
 4939              	.LBE166:
 4940              	.LBE165:
 651:lvgl/src/widgets/lv_btnmatrix.c ****                 btnm->btn_id_sel = 0;
 4941              		.loc 1 651 13 is_stmt 1 view .LVU1641
 651:lvgl/src/widgets/lv_btnmatrix.c ****                 btnm->btn_id_sel = 0;
 4942              		.loc 1 651 20 is_stmt 0 view .LVU1642
 4943 057a B48E     		ldrh	r4, [r6, #52]
 4944              	.LVL496:
 651:lvgl/src/widgets/lv_btnmatrix.c ****                 btnm->btn_id_sel = 0;
 4945              		.loc 1 651 15 view .LVU1643
 4946 057c 4FF6FF73 		movw	r3, #65535
 4947 0580 9C42     		cmp	r4, r3
 4948 0582 0FD0     		beq	.L317
 4949              	.LBB167:
 662:lvgl/src/widgets/lv_btnmatrix.c ****                 lv_coord_t pr_center =
 4950              		.loc 1 662 17 is_stmt 1 view .LVU1644
 663:lvgl/src/widgets/lv_btnmatrix.c ****                     btnm->button_areas[btnm->btn_id_sel].x1 + (lv_area_get_width(&btnm->button_area
 4951              		.loc 1 663 17 view .LVU1645
 664:lvgl/src/widgets/lv_btnmatrix.c **** 
 4952              		.loc 1 664 25 is_stmt 0 view .LVU1646
 4953 0584 B56A     		ldr	r5, [r6, #40]
 4954              	.LVL497:
 664:lvgl/src/widgets/lv_btnmatrix.c **** 
 4955              		.loc 1 664 39 view .LVU1647
 4956 0586 05EBC407 		add	r7, r5, r4, lsl #3
 664:lvgl/src/widgets/lv_btnmatrix.c **** 
 4957              		.loc 1 664 57 view .LVU1648
 4958 058a 35F83420 		ldrh	r2, [r5, r4, lsl #3]
 4959              	.LVL498:
 4960              	.LBB168:
 4961              	.LBI168:
 123:d:\kzc\stm32\h743ii_lcd\lvgl\src\misc\lv_area.h **** {
 4962              		.loc 3 123 26 is_stmt 1 view .LVU1649
 4963              	.LBB169:
 125:d:\kzc\stm32\h743ii_lcd\lvgl\src\misc\lv_area.h **** }
 4964              		.loc 3 125 5 view .LVU1650
 125:d:\kzc\stm32\h743ii_lcd\lvgl\src\misc\lv_area.h **** }
 4965              		.loc 3 125 31 is_stmt 0 view .LVU1651
 4966 058e BB88     		ldrh	r3, [r7, #4]
 125:d:\kzc\stm32\h743ii_lcd\lvgl\src\misc\lv_area.h **** }
 4967              		.loc 3 125 36 view .LVU1652
 4968 0590 9B1A     		subs	r3, r3, r2
 4969 0592 9BB2     		uxth	r3, r3
ARM GAS  C:\Users\OSD\AppData\Local\Temp\ccnvvkrZ.s 			page 145


 125:d:\kzc\stm32\h743ii_lcd\lvgl\src\misc\lv_area.h **** }
 4970              		.loc 3 125 49 view .LVU1653
 4971 0594 0133     		adds	r3, r3, #1
 4972              	.LVL499:
 125:d:\kzc\stm32\h743ii_lcd\lvgl\src\misc\lv_area.h **** }
 4973              		.loc 3 125 49 view .LVU1654
 4974              	.LBE169:
 4975              	.LBE168:
 664:lvgl/src/widgets/lv_btnmatrix.c **** 
 4976              		.loc 1 664 61 view .LVU1655
 4977 0596 43F34E03 		sbfx	r3, r3, #1, #15
 4978 059a 1344     		add	r3, r3, r2
 663:lvgl/src/widgets/lv_btnmatrix.c ****                     btnm->button_areas[btnm->btn_id_sel].x1 + (lv_area_get_width(&btnm->button_area
 4979              		.loc 1 663 28 view .LVU1656
 4980 059c 0FFA83F9 		sxth	r9, r3
 4981              	.LVL500:
 666:lvgl/src/widgets/lv_btnmatrix.c ****                     if(btnm->button_areas[area_above].y1 < btnm->button_areas[btnm->btn_id_sel].y1 
 4982              		.loc 1 666 17 is_stmt 1 view .LVU1657
 666:lvgl/src/widgets/lv_btnmatrix.c ****                     if(btnm->button_areas[area_above].y1 < btnm->button_areas[btnm->btn_id_sel].y1 
 4983              		.loc 1 666 32 is_stmt 0 view .LVU1658
 4984 05a0 24B2     		sxth	r4, r4
 4985              	.LVL501:
 666:lvgl/src/widgets/lv_btnmatrix.c ****                     if(btnm->button_areas[area_above].y1 < btnm->button_areas[btnm->btn_id_sel].y1 
 4986              		.loc 1 666 17 view .LVU1659
 4987 05a2 1DE0     		b	.L280
 4988              	.LVL502:
 4989              	.L317:
 666:lvgl/src/widgets/lv_btnmatrix.c ****                     if(btnm->button_areas[area_above].y1 < btnm->button_areas[btnm->btn_id_sel].y1 
 4990              		.loc 1 666 17 view .LVU1660
 4991              	.LBE167:
 652:lvgl/src/widgets/lv_btnmatrix.c ****                 while(button_is_hidden(btnm->ctrl_bits[btnm->btn_id_sel]) || button_is_inactive(btn
 4992              		.loc 1 652 17 is_stmt 1 view .LVU1661
 652:lvgl/src/widgets/lv_btnmatrix.c ****                 while(button_is_hidden(btnm->ctrl_bits[btnm->btn_id_sel]) || button_is_inactive(btn
 4993              		.loc 1 652 34 is_stmt 0 view .LVU1662
 4994 05a4 0023     		movs	r3, #0
 4995 05a6 B386     		strh	r3, [r6, #52]	@ movhi
 653:lvgl/src/widgets/lv_btnmatrix.c ****                     btnm->btn_id_sel++;
 4996              		.loc 1 653 17 is_stmt 1 view .LVU1663
 653:lvgl/src/widgets/lv_btnmatrix.c ****                     btnm->btn_id_sel++;
 4997              		.loc 1 653 22 is_stmt 0 view .LVU1664
 4998 05a8 05E0     		b	.L278
 4999              	.LVL503:
 5000              	.L279:
 654:lvgl/src/widgets/lv_btnmatrix.c ****                     if(btnm->btn_id_sel >= btnm->btn_cnt) {
 5001              		.loc 1 654 21 is_stmt 1 view .LVU1665
 654:lvgl/src/widgets/lv_btnmatrix.c ****                     if(btnm->btn_id_sel >= btnm->btn_cnt) {
 5002              		.loc 1 654 37 is_stmt 0 view .LVU1666
 5003 05aa 631C     		adds	r3, r4, #1
 5004 05ac 9BB2     		uxth	r3, r3
 5005 05ae B386     		strh	r3, [r6, #52]	@ movhi
 655:lvgl/src/widgets/lv_btnmatrix.c ****                         btnm->btn_id_sel = LV_BTNMATRIX_BTN_NONE;
 5006              		.loc 1 655 21 is_stmt 1 view .LVU1667
 655:lvgl/src/widgets/lv_btnmatrix.c ****                         btnm->btn_id_sel = LV_BTNMATRIX_BTN_NONE;
 5007              		.loc 1 655 48 is_stmt 0 view .LVU1668
 5008 05b0 328E     		ldrh	r2, [r6, #48]
 655:lvgl/src/widgets/lv_btnmatrix.c ****                         btnm->btn_id_sel = LV_BTNMATRIX_BTN_NONE;
 5009              		.loc 1 655 23 view .LVU1669
ARM GAS  C:\Users\OSD\AppData\Local\Temp\ccnvvkrZ.s 			page 146


 5010 05b2 9342     		cmp	r3, r2
 5011 05b4 0ED2     		bcs	.L318
 5012              	.L278:
 653:lvgl/src/widgets/lv_btnmatrix.c ****                     btnm->btn_id_sel++;
 5013              		.loc 1 653 22 is_stmt 1 view .LVU1670
 653:lvgl/src/widgets/lv_btnmatrix.c ****                     btnm->btn_id_sel++;
 5014              		.loc 1 653 44 is_stmt 0 view .LVU1671
 5015 05b6 F36A     		ldr	r3, [r6, #44]
 653:lvgl/src/widgets/lv_btnmatrix.c ****                     btnm->btn_id_sel++;
 5016              		.loc 1 653 60 view .LVU1672
 5017 05b8 B48E     		ldrh	r4, [r6, #52]
 653:lvgl/src/widgets/lv_btnmatrix.c ****                     btnm->btn_id_sel++;
 5018              		.loc 1 653 23 view .LVU1673
 5019 05ba 33F81450 		ldrh	r5, [r3, r4, lsl #1]
 5020 05be 2846     		mov	r0, r5
 5021 05c0 FFF7FEFF 		bl	button_is_hidden
 5022              	.LVL504:
 653:lvgl/src/widgets/lv_btnmatrix.c ****                     btnm->btn_id_sel++;
 5023              		.loc 1 653 22 view .LVU1674
 5024 05c4 0028     		cmp	r0, #0
 5025 05c6 F0D1     		bne	.L279
 653:lvgl/src/widgets/lv_btnmatrix.c ****                     btnm->btn_id_sel++;
 5026              		.loc 1 653 78 discriminator 1 view .LVU1675
 5027 05c8 2846     		mov	r0, r5
 5028 05ca FFF7FEFF 		bl	button_is_inactive
 5029              	.LVL505:
 653:lvgl/src/widgets/lv_btnmatrix.c ****                     btnm->btn_id_sel++;
 5030              		.loc 1 653 75 discriminator 1 view .LVU1676
 5031 05ce 0028     		cmp	r0, #0
 5032 05d0 EBD1     		bne	.L279
 5033 05d2 07E7     		b	.L259
 5034              	.L318:
 656:lvgl/src/widgets/lv_btnmatrix.c ****                         break;
 5035              		.loc 1 656 25 is_stmt 1 view .LVU1677
 656:lvgl/src/widgets/lv_btnmatrix.c ****                         break;
 5036              		.loc 1 656 42 is_stmt 0 view .LVU1678
 5037 05d4 4FF6FF73 		movw	r3, #65535
 5038 05d8 B386     		strh	r3, [r6, #52]	@ movhi
 657:lvgl/src/widgets/lv_btnmatrix.c ****                     }
 5039              		.loc 1 657 25 is_stmt 1 view .LVU1679
 5040 05da 03E7     		b	.L259
 5041              	.LVL506:
 5042              	.L281:
 5043              	.LBB170:
 666:lvgl/src/widgets/lv_btnmatrix.c ****                     if(btnm->button_areas[area_above].y1 < btnm->button_areas[btnm->btn_id_sel].y1 
 5044              		.loc 1 666 69 discriminator 2 view .LVU1680
 666:lvgl/src/widgets/lv_btnmatrix.c ****                     if(btnm->button_areas[area_above].y1 < btnm->button_areas[btnm->btn_id_sel].y1 
 5045              		.loc 1 666 79 is_stmt 0 discriminator 2 view .LVU1681
 5046 05dc 013C     		subs	r4, r4, #1
 5047              	.LVL507:
 666:lvgl/src/widgets/lv_btnmatrix.c ****                     if(btnm->button_areas[area_above].y1 < btnm->button_areas[btnm->btn_id_sel].y1 
 5048              		.loc 1 666 79 discriminator 2 view .LVU1682
 5049 05de 24B2     		sxth	r4, r4
 5050              	.LVL508:
 5051              	.L280:
 666:lvgl/src/widgets/lv_btnmatrix.c ****                     if(btnm->button_areas[area_above].y1 < btnm->button_areas[btnm->btn_id_sel].y1 
 5052              		.loc 1 666 52 is_stmt 1 discriminator 1 view .LVU1683
ARM GAS  C:\Users\OSD\AppData\Local\Temp\ccnvvkrZ.s 			page 147


 666:lvgl/src/widgets/lv_btnmatrix.c ****                     if(btnm->button_areas[area_above].y1 < btnm->button_areas[btnm->btn_id_sel].y1 
 5053              		.loc 1 666 17 is_stmt 0 discriminator 1 view .LVU1684
 5054 05e0 002C     		cmp	r4, #0
 5055 05e2 1EDB     		blt	.L282
 667:lvgl/src/widgets/lv_btnmatrix.c ****                        pr_center >= btnm->button_areas[area_above].x1 - col_gap &&
 5056              		.loc 1 667 21 is_stmt 1 view .LVU1685
 667:lvgl/src/widgets/lv_btnmatrix.c ****                        pr_center >= btnm->button_areas[area_above].x1 - col_gap &&
 5057              		.loc 1 667 42 is_stmt 0 view .LVU1686
 5058 05e4 05EBC403 		add	r3, r5, r4, lsl #3
 667:lvgl/src/widgets/lv_btnmatrix.c ****                        pr_center >= btnm->button_areas[area_above].x1 - col_gap &&
 5059              		.loc 1 667 54 view .LVU1687
 5060 05e8 B3F90210 		ldrsh	r1, [r3, #2]
 667:lvgl/src/widgets/lv_btnmatrix.c ****                        pr_center >= btnm->button_areas[area_above].x1 - col_gap &&
 5061              		.loc 1 667 96 view .LVU1688
 5062 05ec B7F90220 		ldrsh	r2, [r7, #2]
 667:lvgl/src/widgets/lv_btnmatrix.c ****                        pr_center >= btnm->button_areas[area_above].x1 - col_gap &&
 5063              		.loc 1 667 23 view .LVU1689
 5064 05f0 9142     		cmp	r1, r2
 5065 05f2 F3DA     		bge	.L281
 668:lvgl/src/widgets/lv_btnmatrix.c ****                        pr_center <= btnm->button_areas[area_above].x2 &&
 5066              		.loc 1 668 67 discriminator 1 view .LVU1690
 5067 05f4 35F93420 		ldrsh	r2, [r5, r4, lsl #3]
 668:lvgl/src/widgets/lv_btnmatrix.c ****                        pr_center <= btnm->button_areas[area_above].x2 &&
 5068              		.loc 1 668 71 discriminator 1 view .LVU1691
 5069 05f8 A2EB0802 		sub	r2, r2, r8
 667:lvgl/src/widgets/lv_btnmatrix.c ****                        pr_center >= btnm->button_areas[area_above].x1 - col_gap &&
 5070              		.loc 1 667 100 discriminator 1 view .LVU1692
 5071 05fc 9145     		cmp	r9, r2
 5072 05fe EDDB     		blt	.L281
 669:lvgl/src/widgets/lv_btnmatrix.c ****                        button_is_inactive(btnm->ctrl_bits[area_above]) == false &&
 5073              		.loc 1 669 67 view .LVU1693
 5074 0600 B3F90430 		ldrsh	r3, [r3, #4]
 668:lvgl/src/widgets/lv_btnmatrix.c ****                        pr_center <= btnm->button_areas[area_above].x2 &&
 5075              		.loc 1 668 81 view .LVU1694
 5076 0604 4B45     		cmp	r3, r9
 5077 0606 E9DB     		blt	.L281
 670:lvgl/src/widgets/lv_btnmatrix.c ****                        button_is_hidden(btnm->ctrl_bits[area_above]) == false) {
 5078              		.loc 1 670 47 view .LVU1695
 5079 0608 F36A     		ldr	r3, [r6, #44]
 670:lvgl/src/widgets/lv_btnmatrix.c ****                        button_is_hidden(btnm->ctrl_bits[area_above]) == false) {
 5080              		.loc 1 670 24 view .LVU1696
 5081 060a 33F814A0 		ldrh	r10, [r3, r4, lsl #1]
 5082 060e 5046     		mov	r0, r10
 5083 0610 FFF7FEFF 		bl	button_is_inactive
 5084              	.LVL509:
 669:lvgl/src/widgets/lv_btnmatrix.c ****                        button_is_inactive(btnm->ctrl_bits[area_above]) == false &&
 5085              		.loc 1 669 71 view .LVU1697
 5086 0614 0028     		cmp	r0, #0
 5087 0616 E1D1     		bne	.L281
 671:lvgl/src/widgets/lv_btnmatrix.c ****                         break;
 5088              		.loc 1 671 24 view .LVU1698
 5089 0618 5046     		mov	r0, r10
 5090 061a FFF7FEFF 		bl	button_is_hidden
 5091              	.LVL510:
 670:lvgl/src/widgets/lv_btnmatrix.c ****                        button_is_hidden(btnm->ctrl_bits[area_above]) == false) {
 5092              		.loc 1 670 81 view .LVU1699
 5093 061e 0028     		cmp	r0, #0
ARM GAS  C:\Users\OSD\AppData\Local\Temp\ccnvvkrZ.s 			page 148


 5094 0620 DCD1     		bne	.L281
 5095              	.L282:
 675:lvgl/src/widgets/lv_btnmatrix.c ****             }
 5096              		.loc 1 675 17 is_stmt 1 view .LVU1700
 675:lvgl/src/widgets/lv_btnmatrix.c ****             }
 5097              		.loc 1 675 19 is_stmt 0 view .LVU1701
 5098 0622 002C     		cmp	r4, #0
 5099 0624 FFF6DEAE 		blt	.L259
 675:lvgl/src/widgets/lv_btnmatrix.c ****             }
 5100              		.loc 1 675 37 is_stmt 1 discriminator 1 view .LVU1702
 675:lvgl/src/widgets/lv_btnmatrix.c ****             }
 5101              		.loc 1 675 54 is_stmt 0 discriminator 1 view .LVU1703
 5102 0628 B486     		strh	r4, [r6, #52]	@ movhi
 5103 062a DBE6     		b	.L259
 5104              	.LBE170:
 5105              	.LBE164:
 5106              	.LBE171:
 5107              		.cfi_endproc
 5108              	.LFE178:
 5110              		.section	.text.lv_btnmatrix_set_one_checked,"ax",%progbits
 5111              		.align	1
 5112              		.global	lv_btnmatrix_set_one_checked
 5113              		.syntax unified
 5114              		.thumb
 5115              		.thumb_func
 5117              	lv_btnmatrix_set_one_checked:
 5118              	.LVL511:
 5119              	.LFB170:
 296:lvgl/src/widgets/lv_btnmatrix.c ****     LV_ASSERT_OBJ(obj, MY_CLASS);
 5120              		.loc 1 296 1 is_stmt 1 view -0
 5121              		.cfi_startproc
 5122              		@ args = 0, pretend = 0, frame = 0
 5123              		@ frame_needed = 0, uses_anonymous_args = 0
 296:lvgl/src/widgets/lv_btnmatrix.c ****     LV_ASSERT_OBJ(obj, MY_CLASS);
 5124              		.loc 1 296 1 is_stmt 0 view .LVU1705
 5125 0000 08B5     		push	{r3, lr}
 5126              		.cfi_def_cfa_offset 8
 5127              		.cfi_offset 3, -8
 5128              		.cfi_offset 14, -4
 297:lvgl/src/widgets/lv_btnmatrix.c **** 
 5129              		.loc 1 297 5 is_stmt 1 view .LVU1706
 297:lvgl/src/widgets/lv_btnmatrix.c **** 
 5130              		.loc 1 297 5 view .LVU1707
 297:lvgl/src/widgets/lv_btnmatrix.c **** 
 5131              		.loc 1 297 5 view .LVU1708
 299:lvgl/src/widgets/lv_btnmatrix.c ****     btnm->one_check     = en;
 5132              		.loc 1 299 5 view .LVU1709
 5133              	.LVL512:
 299:lvgl/src/widgets/lv_btnmatrix.c ****     btnm->one_check     = en;
 5134              		.loc 1 299 51 view .LVU1710
 300:lvgl/src/widgets/lv_btnmatrix.c **** 
 5135              		.loc 1 300 5 view .LVU1711
 300:lvgl/src/widgets/lv_btnmatrix.c **** 
 5136              		.loc 1 300 25 is_stmt 0 view .LVU1712
 5137 0002 90F83620 		ldrb	r2, [r0, #54]	@ zero_extendqisi2
 5138 0006 61F30002 		bfi	r2, r1, #0, #1
 5139 000a 80F83620 		strb	r2, [r0, #54]
ARM GAS  C:\Users\OSD\AppData\Local\Temp\ccnvvkrZ.s 			page 149


 303:lvgl/src/widgets/lv_btnmatrix.c **** }
 5140              		.loc 1 303 5 is_stmt 1 view .LVU1713
 5141 000e 0021     		movs	r1, #0
 5142              	.LVL513:
 303:lvgl/src/widgets/lv_btnmatrix.c **** }
 5143              		.loc 1 303 5 is_stmt 0 view .LVU1714
 5144 0010 FFF7FEFF 		bl	make_one_button_checked
 5145              	.LVL514:
 304:lvgl/src/widgets/lv_btnmatrix.c **** 
 5146              		.loc 1 304 1 view .LVU1715
 5147 0014 08BD     		pop	{r3, pc}
 5148              		.cfi_endproc
 5149              	.LFE170:
 5151              		.section	.text.lv_btnmatrix_get_one_checked,"ax",%progbits
 5152              		.align	1
 5153              		.global	lv_btnmatrix_get_one_checked
 5154              		.syntax unified
 5155              		.thumb
 5156              		.thumb_func
 5158              	lv_btnmatrix_get_one_checked:
 5159              	.LVL515:
 5160              	.LFB175:
 362:lvgl/src/widgets/lv_btnmatrix.c ****     LV_ASSERT_OBJ(obj, MY_CLASS);
 5161              		.loc 1 362 1 is_stmt 1 view -0
 5162              		.cfi_startproc
 5163              		@ args = 0, pretend = 0, frame = 0
 5164              		@ frame_needed = 0, uses_anonymous_args = 0
 5165              		@ link register save eliminated.
 363:lvgl/src/widgets/lv_btnmatrix.c **** 
 5166              		.loc 1 363 5 view .LVU1717
 363:lvgl/src/widgets/lv_btnmatrix.c **** 
 5167              		.loc 1 363 5 view .LVU1718
 363:lvgl/src/widgets/lv_btnmatrix.c **** 
 5168              		.loc 1 363 5 view .LVU1719
 365:lvgl/src/widgets/lv_btnmatrix.c **** 
 5169              		.loc 1 365 5 view .LVU1720
 365:lvgl/src/widgets/lv_btnmatrix.c **** 
 5170              		.loc 1 365 51 view .LVU1721
 367:lvgl/src/widgets/lv_btnmatrix.c **** }
 5171              		.loc 1 367 5 view .LVU1722
 367:lvgl/src/widgets/lv_btnmatrix.c **** }
 5172              		.loc 1 367 16 is_stmt 0 view .LVU1723
 5173 0000 90F83600 		ldrb	r0, [r0, #54]	@ zero_extendqisi2
 5174              	.LVL516:
 368:lvgl/src/widgets/lv_btnmatrix.c **** 
 5175              		.loc 1 368 1 view .LVU1724
 5176 0004 00F00100 		and	r0, r0, #1
 5177 0008 7047     		bx	lr
 5178              		.cfi_endproc
 5179              	.LFE175:
 5181              		.global	lv_btnmatrix_class
 5182              		.section	.rodata.str1.4,"aMS",%progbits,1
 5183              		.align	2
 5184              	.LC1:
 5185 0000 42746E31 		.ascii	"Btn1\000"
 5185      00
 5186 0005 000000   		.align	2
ARM GAS  C:\Users\OSD\AppData\Local\Temp\ccnvvkrZ.s 			page 150


 5187              	.LC2:
 5188 0008 42746E32 		.ascii	"Btn2\000"
 5188      00
 5189 000d 000000   		.align	2
 5190              	.LC3:
 5191 0010 42746E33 		.ascii	"Btn3\000"
 5191      00
 5192 0015 000000   		.align	2
 5193              	.LC4:
 5194 0018 42746E34 		.ascii	"Btn4\000"
 5194      00
 5195 001d 000000   		.align	2
 5196              	.LC5:
 5197 0020 42746E35 		.ascii	"Btn5\000"
 5197      00
 5198 0025 000000   		.align	2
 5199              	.LC6:
 5200 0028 00       		.ascii	"\000"
 5201              		.section	.data.lv_btnmatrix_def_map,"aw"
 5202              		.align	2
 5203              		.set	.LANCHOR1,. + 0
 5206              	lv_btnmatrix_def_map:
 5207 0000 00000000 		.word	.LC1
 5208 0004 08000000 		.word	.LC2
 5209 0008 10000000 		.word	.LC3
 5210 000c 00000000 		.word	.LC0
 5211 0010 18000000 		.word	.LC4
 5212 0014 20000000 		.word	.LC5
 5213 0018 28000000 		.word	.LC6
 5214              		.section	.rodata.lv_btnmatrix_class,"a"
 5215              		.align	2
 5216              		.set	.LANCHOR0,. + 0
 5219              	lv_btnmatrix_class:
 5220 0000 00000000 		.word	lv_obj_class
 5221 0004 00000000 		.word	lv_btnmatrix_constructor
 5222 0008 00000000 		.word	lv_btnmatrix_destructor
 5223 000c 00000000 		.space	4
 5224 0010 00000000 		.word	lv_btnmatrix_event
 5225 0014 0401     		.short	260
 5226 0016 8200     		.short	130
 5227 0018 85       		.byte	133
 5228 0019 03       		.byte	3
 5229 001a 00       		.byte	0
 5230 001b 00       		.space	1
 5231              		.text
 5232              	.Letext0:
 5233              		.file 4 "c:\\tools\\gcc-arm-none-eabi\\arm-none-eabi\\include\\machine\\_default_types.h"
 5234              		.file 5 "c:\\tools\\gcc-arm-none-eabi\\arm-none-eabi\\include\\sys\\_stdint.h"
 5235              		.file 6 "c:\\tools\\gcc-arm-none-eabi\\lib\\gcc\\arm-none-eabi\\10.3.1\\include\\stddef.h"
 5236              		.file 7 "d:\\kzc\\stm32\\h743ii_lcd\\lvgl\\src\\font\\lv_font.h"
 5237              		.file 8 "lvgl/src/widgets/../core/../misc/lv_types.h"
 5238              		.file 9 "lvgl/src/widgets/../core/../misc/lv_color.h"
 5239              		.file 10 "lvgl/src/widgets/../core/../misc/lv_txt.h"
 5240              		.file 11 "lvgl/src/widgets/../core/../misc/lv_bidi.h"
 5241              		.file 12 "lvgl/src/widgets/../core/../misc/lv_style.h"
 5242              		.file 13 "d:\\kzc\\stm32\\h743ii_lcd\\lvgl\\src\\draw\\lv_img_buf.h"
 5243              		.file 14 "lvgl/src/widgets/../core/lv_obj.h"
ARM GAS  C:\Users\OSD\AppData\Local\Temp\ccnvvkrZ.s 			page 151


 5244              		.file 15 "d:\\kzc\\stm32\\h743ii_lcd\\lvgl\\src\\draw\\lv_draw_rect.h"
 5245              		.file 16 "d:\\kzc\\stm32\\h743ii_lcd\\lvgl\\src\\draw\\lv_draw_label.h"
 5246              		.file 17 "d:\\kzc\\stm32\\h743ii_lcd\\lvgl\\src\\draw\\lv_draw_img.h"
 5247              		.file 18 "d:\\kzc\\stm32\\h743ii_lcd\\lvgl\\src\\draw\\lv_draw_line.h"
 5248              		.file 19 "d:\\kzc\\stm32\\h743ii_lcd\\lvgl\\src\\draw\\lv_draw_arc.h"
 5249              		.file 20 "d:\\kzc\\stm32\\h743ii_lcd\\lvgl\\src\\draw\\lv_draw_layer.h"
 5250              		.file 21 "d:\\kzc\\stm32\\h743ii_lcd\\lvgl\\src\\draw\\lv_draw.h"
 5251              		.file 22 "d:\\kzc\\stm32\\h743ii_lcd\\lvgl\\src\\misc\\lv_ll.h"
 5252              		.file 23 "d:\\kzc\\stm32\\h743ii_lcd\\lvgl\\src\\misc\\lv_timer.h"
 5253              		.file 24 "lvgl/src/widgets/../core/../hal/lv_hal_disp.h"
 5254              		.file 25 "lvgl/src/widgets/../core/../hal/lv_hal_indev.h"
 5255              		.file 26 "lvgl/src/widgets/../core/lv_group.h"
 5256              		.file 27 "lvgl/src/widgets/../core/lv_obj_scroll.h"
 5257              		.file 28 "lvgl/src/widgets/../core/lv_obj_style.h"
 5258              		.file 29 "lvgl/src/widgets/../core/lv_obj_draw.h"
 5259              		.file 30 "lvgl/src/widgets/../core/lv_obj_class.h"
 5260              		.file 31 "lvgl/src/widgets/../core/lv_event.h"
 5261              		.file 32 "lvgl/src/widgets/lv_btnmatrix.h"
 5262              		.file 33 "c:\\tools\\gcc-arm-none-eabi\\arm-none-eabi\\include\\string.h"
 5263              		.file 34 "d:\\kzc\\stm32\\h743ii_lcd\\lvgl\\src\\core\\lv_obj_pos.h"
 5264              		.file 35 "lvgl/src/widgets/../core/lv_obj_tree.h"
 5265              		.file 36 "lvgl/src/widgets/../core/../misc/lv_mem.h"
 5266              		.file 37 "lvgl/src/widgets/../core/lv_indev.h"
ARM GAS  C:\Users\OSD\AppData\Local\Temp\ccnvvkrZ.s 			page 152


DEFINED SYMBOLS
                            *ABS*:00000000 lv_btnmatrix.c
C:\Users\OSD\AppData\Local\Temp\ccnvvkrZ.s:19     .text.get_button_width:00000000 $t
C:\Users\OSD\AppData\Local\Temp\ccnvvkrZ.s:24     .text.get_button_width:00000000 get_button_width
C:\Users\OSD\AppData\Local\Temp\ccnvvkrZ.s:48     .text.button_is_hidden:00000000 $t
C:\Users\OSD\AppData\Local\Temp\ccnvvkrZ.s:53     .text.button_is_hidden:00000000 button_is_hidden
C:\Users\OSD\AppData\Local\Temp\ccnvvkrZ.s:71     .text.button_is_checked:00000000 $t
C:\Users\OSD\AppData\Local\Temp\ccnvvkrZ.s:76     .text.button_is_checked:00000000 button_is_checked
C:\Users\OSD\AppData\Local\Temp\ccnvvkrZ.s:94     .text.button_is_repeat_disabled:00000000 $t
C:\Users\OSD\AppData\Local\Temp\ccnvvkrZ.s:99     .text.button_is_repeat_disabled:00000000 button_is_repeat_disabled
C:\Users\OSD\AppData\Local\Temp\ccnvvkrZ.s:117    .text.button_is_inactive:00000000 $t
C:\Users\OSD\AppData\Local\Temp\ccnvvkrZ.s:122    .text.button_is_inactive:00000000 button_is_inactive
C:\Users\OSD\AppData\Local\Temp\ccnvvkrZ.s:140    .text.button_is_click_trig:00000000 $t
C:\Users\OSD\AppData\Local\Temp\ccnvvkrZ.s:145    .text.button_is_click_trig:00000000 button_is_click_trig
C:\Users\OSD\AppData\Local\Temp\ccnvvkrZ.s:163    .text.button_is_popover:00000000 $t
C:\Users\OSD\AppData\Local\Temp\ccnvvkrZ.s:168    .text.button_is_popover:00000000 button_is_popover
C:\Users\OSD\AppData\Local\Temp\ccnvvkrZ.s:186    .text.button_is_checkable:00000000 $t
C:\Users\OSD\AppData\Local\Temp\ccnvvkrZ.s:191    .text.button_is_checkable:00000000 button_is_checkable
C:\Users\OSD\AppData\Local\Temp\ccnvvkrZ.s:209    .text.button_get_checked:00000000 $t
C:\Users\OSD\AppData\Local\Temp\ccnvvkrZ.s:214    .text.button_get_checked:00000000 button_get_checked
C:\Users\OSD\AppData\Local\Temp\ccnvvkrZ.s:232    .text.button_is_recolor:00000000 $t
C:\Users\OSD\AppData\Local\Temp\ccnvvkrZ.s:237    .text.button_is_recolor:00000000 button_is_recolor
C:\Users\OSD\AppData\Local\Temp\ccnvvkrZ.s:255    .rodata.has_popovers_in_top_row.str1.4:00000000 $d
C:\Users\OSD\AppData\Local\Temp\ccnvvkrZ.s:259    .text.has_popovers_in_top_row:00000000 $t
C:\Users\OSD\AppData\Local\Temp\ccnvvkrZ.s:264    .text.has_popovers_in_top_row:00000000 has_popovers_in_top_row
C:\Users\OSD\AppData\Local\Temp\ccnvvkrZ.s:372    .text.has_popovers_in_top_row:0000004c $d
C:\Users\OSD\AppData\Local\Temp\ccnvvkrZ.s:377    .text.get_button_from_point:00000000 $t
C:\Users\OSD\AppData\Local\Temp\ccnvvkrZ.s:382    .text.get_button_from_point:00000000 get_button_from_point
C:\Users\OSD\AppData\Local\Temp\ccnvvkrZ.s:834    .text.invalidate_button_area:00000000 $t
C:\Users\OSD\AppData\Local\Temp\ccnvvkrZ.s:839    .text.invalidate_button_area:00000000 invalidate_button_area
C:\Users\OSD\AppData\Local\Temp\ccnvvkrZ.s:1090   .text.invalidate_button_area:000000f8 $d
C:\Users\OSD\AppData\Local\Temp\ccnvvkrZ.s:1095   .text.draw_main:00000000 $t
C:\Users\OSD\AppData\Local\Temp\ccnvvkrZ.s:1100   .text.draw_main:00000000 draw_main
C:\Users\OSD\AppData\Local\Temp\ccnvvkrZ.s:1910   .text.draw_main:000003e8 $d
C:\Users\OSD\AppData\Local\Temp\ccnvvkrZ.s:1915   .text.draw_main:000003f0 $t
C:\Users\OSD\AppData\Local\Temp\ccnvvkrZ.s:1957   .text.lv_btnmatrix_destructor:00000000 $t
C:\Users\OSD\AppData\Local\Temp\ccnvvkrZ.s:1962   .text.lv_btnmatrix_destructor:00000000 lv_btnmatrix_destructor
C:\Users\OSD\AppData\Local\Temp\ccnvvkrZ.s:2004   .text.allocate_btn_areas_and_controls:00000000 $t
C:\Users\OSD\AppData\Local\Temp\ccnvvkrZ.s:2009   .text.allocate_btn_areas_and_controls:00000000 allocate_btn_areas_and_controls
C:\Users\OSD\AppData\Local\Temp\ccnvvkrZ.s:2186   .text.allocate_btn_areas_and_controls:0000007c $d
C:\Users\OSD\AppData\Local\Temp\ccnvvkrZ.s:2191   .text.lv_btnmatrix_create:00000000 $t
C:\Users\OSD\AppData\Local\Temp\ccnvvkrZ.s:2197   .text.lv_btnmatrix_create:00000000 lv_btnmatrix_create
C:\Users\OSD\AppData\Local\Temp\ccnvvkrZ.s:2235   .text.lv_btnmatrix_create:00000014 $d
C:\Users\OSD\AppData\Local\Temp\ccnvvkrZ.s:2240   .text.lv_btnmatrix_set_map:00000000 $t
C:\Users\OSD\AppData\Local\Temp\ccnvvkrZ.s:2246   .text.lv_btnmatrix_set_map:00000000 lv_btnmatrix_set_map
C:\Users\OSD\AppData\Local\Temp\ccnvvkrZ.s:2728   .text.lv_btnmatrix_set_map:000001c4 $d
C:\Users\OSD\AppData\Local\Temp\ccnvvkrZ.s:2733   .text.lv_btnmatrix_constructor:00000000 $t
C:\Users\OSD\AppData\Local\Temp\ccnvvkrZ.s:2738   .text.lv_btnmatrix_constructor:00000000 lv_btnmatrix_constructor
C:\Users\OSD\AppData\Local\Temp\ccnvvkrZ.s:2792   .text.lv_btnmatrix_constructor:0000002c $d
C:\Users\OSD\AppData\Local\Temp\ccnvvkrZ.s:2797   .text.lv_btnmatrix_set_ctrl_map:00000000 $t
C:\Users\OSD\AppData\Local\Temp\ccnvvkrZ.s:2803   .text.lv_btnmatrix_set_ctrl_map:00000000 lv_btnmatrix_set_ctrl_map
C:\Users\OSD\AppData\Local\Temp\ccnvvkrZ.s:2843   .text.lv_btnmatrix_set_selected_btn:00000000 $t
C:\Users\OSD\AppData\Local\Temp\ccnvvkrZ.s:2849   .text.lv_btnmatrix_set_selected_btn:00000000 lv_btnmatrix_set_selected_btn
C:\Users\OSD\AppData\Local\Temp\ccnvvkrZ.s:2906   .text.lv_btnmatrix_clear_btn_ctrl:00000000 $t
C:\Users\OSD\AppData\Local\Temp\ccnvvkrZ.s:2912   .text.lv_btnmatrix_clear_btn_ctrl:00000000 lv_btnmatrix_clear_btn_ctrl
C:\Users\OSD\AppData\Local\Temp\ccnvvkrZ.s:3001   .text.lv_btnmatrix_clear_btn_ctrl_all:00000000 $t
C:\Users\OSD\AppData\Local\Temp\ccnvvkrZ.s:3007   .text.lv_btnmatrix_clear_btn_ctrl_all:00000000 lv_btnmatrix_clear_btn_ctrl_all
ARM GAS  C:\Users\OSD\AppData\Local\Temp\ccnvvkrZ.s 			page 153


C:\Users\OSD\AppData\Local\Temp\ccnvvkrZ.s:3064   .text.lv_btnmatrix_set_btn_ctrl:00000000 $t
C:\Users\OSD\AppData\Local\Temp\ccnvvkrZ.s:3070   .text.lv_btnmatrix_set_btn_ctrl:00000000 lv_btnmatrix_set_btn_ctrl
C:\Users\OSD\AppData\Local\Temp\ccnvvkrZ.s:3229   .text.lv_btnmatrix_set_btn_ctrl_all:00000000 $t
C:\Users\OSD\AppData\Local\Temp\ccnvvkrZ.s:3235   .text.lv_btnmatrix_set_btn_ctrl_all:00000000 lv_btnmatrix_set_btn_ctrl_all
C:\Users\OSD\AppData\Local\Temp\ccnvvkrZ.s:3292   .text.lv_btnmatrix_set_btn_width:00000000 $t
C:\Users\OSD\AppData\Local\Temp\ccnvvkrZ.s:3298   .text.lv_btnmatrix_set_btn_width:00000000 lv_btnmatrix_set_btn_width
C:\Users\OSD\AppData\Local\Temp\ccnvvkrZ.s:3352   .text.lv_btnmatrix_get_map:00000000 $t
C:\Users\OSD\AppData\Local\Temp\ccnvvkrZ.s:3358   .text.lv_btnmatrix_get_map:00000000 lv_btnmatrix_get_map
C:\Users\OSD\AppData\Local\Temp\ccnvvkrZ.s:3381   .text.lv_btnmatrix_get_selected_btn:00000000 $t
C:\Users\OSD\AppData\Local\Temp\ccnvvkrZ.s:3387   .text.lv_btnmatrix_get_selected_btn:00000000 lv_btnmatrix_get_selected_btn
C:\Users\OSD\AppData\Local\Temp\ccnvvkrZ.s:3410   .text.lv_btnmatrix_get_btn_text:00000000 $t
C:\Users\OSD\AppData\Local\Temp\ccnvvkrZ.s:3416   .text.lv_btnmatrix_get_btn_text:00000000 lv_btnmatrix_get_btn_text
C:\Users\OSD\AppData\Local\Temp\ccnvvkrZ.s:3535   .text.lv_btnmatrix_get_btn_text:00000060 $d
C:\Users\OSD\AppData\Local\Temp\ccnvvkrZ.s:3540   .text.lv_btnmatrix_has_btn_ctrl:00000000 $t
C:\Users\OSD\AppData\Local\Temp\ccnvvkrZ.s:3546   .text.lv_btnmatrix_has_btn_ctrl:00000000 lv_btnmatrix_has_btn_ctrl
C:\Users\OSD\AppData\Local\Temp\ccnvvkrZ.s:3589   .text.make_one_button_checked:00000000 $t
C:\Users\OSD\AppData\Local\Temp\ccnvvkrZ.s:3594   .text.make_one_button_checked:00000000 make_one_button_checked
C:\Users\OSD\AppData\Local\Temp\ccnvvkrZ.s:3643   .text.lv_btnmatrix_event:00000000 $t
C:\Users\OSD\AppData\Local\Temp\ccnvvkrZ.s:3648   .text.lv_btnmatrix_event:00000000 lv_btnmatrix_event
C:\Users\OSD\AppData\Local\Temp\ccnvvkrZ.s:4281   .text.lv_btnmatrix_event:000002e4 $d
C:\Users\OSD\AppData\Local\Temp\ccnvvkrZ.s:4287   .text.lv_btnmatrix_event:000002e8 $t
C:\Users\OSD\AppData\Local\Temp\ccnvvkrZ.s:5111   .text.lv_btnmatrix_set_one_checked:00000000 $t
C:\Users\OSD\AppData\Local\Temp\ccnvvkrZ.s:5117   .text.lv_btnmatrix_set_one_checked:00000000 lv_btnmatrix_set_one_checked
C:\Users\OSD\AppData\Local\Temp\ccnvvkrZ.s:5152   .text.lv_btnmatrix_get_one_checked:00000000 $t
C:\Users\OSD\AppData\Local\Temp\ccnvvkrZ.s:5158   .text.lv_btnmatrix_get_one_checked:00000000 lv_btnmatrix_get_one_checked
C:\Users\OSD\AppData\Local\Temp\ccnvvkrZ.s:5219   .rodata.lv_btnmatrix_class:00000000 lv_btnmatrix_class
C:\Users\OSD\AppData\Local\Temp\ccnvvkrZ.s:5183   .rodata.str1.4:00000000 $d
C:\Users\OSD\AppData\Local\Temp\ccnvvkrZ.s:5202   .data.lv_btnmatrix_def_map:00000000 $d
C:\Users\OSD\AppData\Local\Temp\ccnvvkrZ.s:5206   .data.lv_btnmatrix_def_map:00000000 lv_btnmatrix_def_map
C:\Users\OSD\AppData\Local\Temp\ccnvvkrZ.s:5215   .rodata.lv_btnmatrix_class:00000000 $d

UNDEFINED SYMBOLS
strcmp
lv_obj_get_coords
lv_obj_get_width
lv_obj_get_height
lv_obj_get_style_prop
_lv_area_is_point_on
lv_obj_get_disp
lv_disp_get_dpi
lv_obj_invalidate_area
lv_event_get_target
lv_event_get_draw_ctx
lv_draw_rect_dsc_init
lv_draw_label_dsc_init
lv_obj_init_draw_rect_dsc
lv_obj_init_draw_label_dsc
lv_obj_draw_dsc_init
lv_memcpy
lv_event_send
lv_draw_rect
lv_txt_get_size
lv_draw_label
lv_mem_free
lv_mem_alloc
lv_memset_00
lv_obj_class_create_obj
ARM GAS  C:\Users\OSD\AppData\Local\Temp\ccnvvkrZ.s 			page 154


lv_obj_class_init_obj
lv_obj_get_content_width
lv_obj_get_content_height
lv_area_set
lv_obj_refresh_ext_draw_size
lv_obj_invalidate
lv_obj_has_flag
lv_obj_clear_flag
lv_obj_add_flag
lv_obj_event_base
lv_event_get_code
lv_event_set_ext_draw_size
lv_event_get_param
lv_indev_get_act
lv_indev_get_type
lv_indev_get_point
lv_indev_reset_long_press
lv_obj_get_group
lv_group_get_editing
lv_indev_get_next
lv_obj_class
