ARM GAS  C:\Users\OSD\AppData\Local\Temp\ccnvvkrZ.s 			page 1


   1              		.cpu cortex-m7
   2              		.arch armv7e-m
   3              		.fpu fpv5-d16
   4              		.eabi_attribute 28, 1
   5              		.eabi_attribute 20, 1
   6              		.eabi_attribute 21, 1
   7              		.eabi_attribute 23, 3
   8              		.eabi_attribute 24, 1
   9              		.eabi_attribute 25, 1
  10              		.eabi_attribute 26, 1
  11              		.eabi_attribute 30, 1
  12              		.eabi_attribute 34, 1
  13              		.eabi_attribute 18, 4
  14              		.file	"lv_btnmatrix.c"
  15              		.text
  16              	.Ltext0:
  17              		.cfi_sections	.debug_frame
  18              		.section	.text.get_button_width,"ax",%progbits
  19              		.align	1
  20              		.syntax unified
  21              		.thumb
  22              		.thumb_func
  24              	get_button_width:
  25              	.LVL0:
  26              	.LFB181:
  27              		.file 1 "lvgl/src/widgets/lv_btnmatrix.c"
   1:lvgl/src/widgets/lv_btnmatrix.c **** /**
   2:lvgl/src/widgets/lv_btnmatrix.c ****  * @file lv_btnmatrix.c
   3:lvgl/src/widgets/lv_btnmatrix.c ****  *
   4:lvgl/src/widgets/lv_btnmatrix.c ****  */
   5:lvgl/src/widgets/lv_btnmatrix.c **** 
   6:lvgl/src/widgets/lv_btnmatrix.c **** /*********************
   7:lvgl/src/widgets/lv_btnmatrix.c ****  *      INCLUDES
   8:lvgl/src/widgets/lv_btnmatrix.c ****  *********************/
   9:lvgl/src/widgets/lv_btnmatrix.c **** #include "lv_btnmatrix.h"
  10:lvgl/src/widgets/lv_btnmatrix.c **** #if LV_USE_BTNMATRIX != 0
  11:lvgl/src/widgets/lv_btnmatrix.c **** 
  12:lvgl/src/widgets/lv_btnmatrix.c **** #include "../misc/lv_assert.h"
  13:lvgl/src/widgets/lv_btnmatrix.c **** #include "../core/lv_indev.h"
  14:lvgl/src/widgets/lv_btnmatrix.c **** #include "../core/lv_group.h"
  15:lvgl/src/widgets/lv_btnmatrix.c **** #include "../draw/lv_draw.h"
  16:lvgl/src/widgets/lv_btnmatrix.c **** #include "../core/lv_refr.h"
  17:lvgl/src/widgets/lv_btnmatrix.c **** #include "../misc/lv_txt.h"
  18:lvgl/src/widgets/lv_btnmatrix.c **** #include "../misc/lv_txt_ap.h"
  19:lvgl/src/widgets/lv_btnmatrix.c **** 
  20:lvgl/src/widgets/lv_btnmatrix.c **** /*********************
  21:lvgl/src/widgets/lv_btnmatrix.c ****  *      DEFINES
  22:lvgl/src/widgets/lv_btnmatrix.c ****  *********************/
  23:lvgl/src/widgets/lv_btnmatrix.c **** #define MY_CLASS &lv_btnmatrix_class
  24:lvgl/src/widgets/lv_btnmatrix.c **** 
  25:lvgl/src/widgets/lv_btnmatrix.c **** #define BTN_EXTRA_CLICK_AREA_MAX (LV_DPI_DEF / 10)
  26:lvgl/src/widgets/lv_btnmatrix.c **** #define LV_BTNMATRIX_WIDTH_MASK 0x000F
  27:lvgl/src/widgets/lv_btnmatrix.c **** 
  28:lvgl/src/widgets/lv_btnmatrix.c **** /**********************
  29:lvgl/src/widgets/lv_btnmatrix.c ****  *      TYPEDEFS
  30:lvgl/src/widgets/lv_btnmatrix.c ****  **********************/
  31:lvgl/src/widgets/lv_btnmatrix.c **** 
ARM GAS  C:\Users\OSD\AppData\Local\Temp\ccnvvkrZ.s 			page 2


  32:lvgl/src/widgets/lv_btnmatrix.c **** /**********************
  33:lvgl/src/widgets/lv_btnmatrix.c ****  *  STATIC PROTOTYPES
  34:lvgl/src/widgets/lv_btnmatrix.c ****  **********************/
  35:lvgl/src/widgets/lv_btnmatrix.c **** static void lv_btnmatrix_constructor(const lv_obj_class_t * class_p, lv_obj_t * obj);
  36:lvgl/src/widgets/lv_btnmatrix.c **** static void lv_btnmatrix_destructor(const lv_obj_class_t * class_p, lv_obj_t * obj);
  37:lvgl/src/widgets/lv_btnmatrix.c **** static void lv_btnmatrix_event(const lv_obj_class_t * class_p, lv_event_t * e);
  38:lvgl/src/widgets/lv_btnmatrix.c **** static void draw_main(lv_event_t * e);
  39:lvgl/src/widgets/lv_btnmatrix.c **** 
  40:lvgl/src/widgets/lv_btnmatrix.c **** static uint8_t get_button_width(lv_btnmatrix_ctrl_t ctrl_bits);
  41:lvgl/src/widgets/lv_btnmatrix.c **** static bool button_is_hidden(lv_btnmatrix_ctrl_t ctrl_bits);
  42:lvgl/src/widgets/lv_btnmatrix.c **** static bool button_is_checked(lv_btnmatrix_ctrl_t ctrl_bits);
  43:lvgl/src/widgets/lv_btnmatrix.c **** static bool button_is_repeat_disabled(lv_btnmatrix_ctrl_t ctrl_bits);
  44:lvgl/src/widgets/lv_btnmatrix.c **** static bool button_is_inactive(lv_btnmatrix_ctrl_t ctrl_bits);
  45:lvgl/src/widgets/lv_btnmatrix.c **** static bool button_is_click_trig(lv_btnmatrix_ctrl_t ctrl_bits);
  46:lvgl/src/widgets/lv_btnmatrix.c **** static bool button_is_popover(lv_btnmatrix_ctrl_t ctrl_bits);
  47:lvgl/src/widgets/lv_btnmatrix.c **** static bool button_is_checkable(lv_btnmatrix_ctrl_t ctrl_bits);
  48:lvgl/src/widgets/lv_btnmatrix.c **** static bool button_is_recolor(lv_btnmatrix_ctrl_t ctrl_bits);
  49:lvgl/src/widgets/lv_btnmatrix.c **** static bool button_get_checked(lv_btnmatrix_ctrl_t ctrl_bits);
  50:lvgl/src/widgets/lv_btnmatrix.c **** static uint16_t get_button_from_point(lv_obj_t * obj, lv_point_t * p);
  51:lvgl/src/widgets/lv_btnmatrix.c **** static void allocate_btn_areas_and_controls(const lv_obj_t * obj, const char ** map);
  52:lvgl/src/widgets/lv_btnmatrix.c **** static void invalidate_button_area(const lv_obj_t * obj, uint16_t btn_idx);
  53:lvgl/src/widgets/lv_btnmatrix.c **** static void make_one_button_checked(lv_obj_t * obj, uint16_t btn_idx);
  54:lvgl/src/widgets/lv_btnmatrix.c **** static bool has_popovers_in_top_row(lv_obj_t * obj);
  55:lvgl/src/widgets/lv_btnmatrix.c **** 
  56:lvgl/src/widgets/lv_btnmatrix.c **** /**********************
  57:lvgl/src/widgets/lv_btnmatrix.c ****  *  STATIC VARIABLES
  58:lvgl/src/widgets/lv_btnmatrix.c ****  **********************/
  59:lvgl/src/widgets/lv_btnmatrix.c **** static const char * lv_btnmatrix_def_map[] = {"Btn1", "Btn2", "Btn3", "\n", "Btn4", "Btn5", ""};
  60:lvgl/src/widgets/lv_btnmatrix.c **** 
  61:lvgl/src/widgets/lv_btnmatrix.c **** const lv_obj_class_t lv_btnmatrix_class = {
  62:lvgl/src/widgets/lv_btnmatrix.c ****     .constructor_cb = lv_btnmatrix_constructor,
  63:lvgl/src/widgets/lv_btnmatrix.c ****     .destructor_cb = lv_btnmatrix_destructor,
  64:lvgl/src/widgets/lv_btnmatrix.c ****     .event_cb = lv_btnmatrix_event,
  65:lvgl/src/widgets/lv_btnmatrix.c ****     .width_def = LV_DPI_DEF * 2,
  66:lvgl/src/widgets/lv_btnmatrix.c ****     .height_def = LV_DPI_DEF,
  67:lvgl/src/widgets/lv_btnmatrix.c ****     .instance_size = sizeof(lv_btnmatrix_t),
  68:lvgl/src/widgets/lv_btnmatrix.c ****     .editable = LV_OBJ_CLASS_EDITABLE_TRUE,
  69:lvgl/src/widgets/lv_btnmatrix.c ****     .group_def = LV_OBJ_CLASS_GROUP_DEF_TRUE,
  70:lvgl/src/widgets/lv_btnmatrix.c ****     .base_class = &lv_obj_class
  71:lvgl/src/widgets/lv_btnmatrix.c **** };
  72:lvgl/src/widgets/lv_btnmatrix.c **** 
  73:lvgl/src/widgets/lv_btnmatrix.c **** /**********************
  74:lvgl/src/widgets/lv_btnmatrix.c ****  *      MACROS
  75:lvgl/src/widgets/lv_btnmatrix.c ****  **********************/
  76:lvgl/src/widgets/lv_btnmatrix.c **** 
  77:lvgl/src/widgets/lv_btnmatrix.c **** /**********************
  78:lvgl/src/widgets/lv_btnmatrix.c ****  *   GLOBAL FUNCTIONS
  79:lvgl/src/widgets/lv_btnmatrix.c ****  **********************/
  80:lvgl/src/widgets/lv_btnmatrix.c **** 
  81:lvgl/src/widgets/lv_btnmatrix.c **** lv_obj_t * lv_btnmatrix_create(lv_obj_t * parent)
  82:lvgl/src/widgets/lv_btnmatrix.c **** {
  83:lvgl/src/widgets/lv_btnmatrix.c ****     LV_LOG_INFO("begin");
  84:lvgl/src/widgets/lv_btnmatrix.c ****     lv_obj_t * obj = lv_obj_class_create_obj(MY_CLASS, parent);
  85:lvgl/src/widgets/lv_btnmatrix.c ****     lv_obj_class_init_obj(obj);
  86:lvgl/src/widgets/lv_btnmatrix.c ****     return obj;
  87:lvgl/src/widgets/lv_btnmatrix.c **** }
  88:lvgl/src/widgets/lv_btnmatrix.c **** 
ARM GAS  C:\Users\OSD\AppData\Local\Temp\ccnvvkrZ.s 			page 3


  89:lvgl/src/widgets/lv_btnmatrix.c **** /*=====================
  90:lvgl/src/widgets/lv_btnmatrix.c ****  * Setter functions
  91:lvgl/src/widgets/lv_btnmatrix.c ****  *====================*/
  92:lvgl/src/widgets/lv_btnmatrix.c **** 
  93:lvgl/src/widgets/lv_btnmatrix.c **** void lv_btnmatrix_set_map(lv_obj_t * obj, const char * map[])
  94:lvgl/src/widgets/lv_btnmatrix.c **** {
  95:lvgl/src/widgets/lv_btnmatrix.c ****     LV_ASSERT_OBJ(obj, MY_CLASS);
  96:lvgl/src/widgets/lv_btnmatrix.c ****     if(map == NULL) return;
  97:lvgl/src/widgets/lv_btnmatrix.c **** 
  98:lvgl/src/widgets/lv_btnmatrix.c ****     lv_btnmatrix_t * btnm = (lv_btnmatrix_t *)obj;
  99:lvgl/src/widgets/lv_btnmatrix.c **** 
 100:lvgl/src/widgets/lv_btnmatrix.c ****     /*Analyze the map and create the required number of buttons*/
 101:lvgl/src/widgets/lv_btnmatrix.c ****     allocate_btn_areas_and_controls(obj, map);
 102:lvgl/src/widgets/lv_btnmatrix.c ****     btnm->map_p = map;
 103:lvgl/src/widgets/lv_btnmatrix.c **** 
 104:lvgl/src/widgets/lv_btnmatrix.c ****     lv_base_dir_t base_dir = lv_obj_get_style_base_dir(obj, LV_PART_MAIN);
 105:lvgl/src/widgets/lv_btnmatrix.c **** 
 106:lvgl/src/widgets/lv_btnmatrix.c ****     /*Set size and positions of the buttons*/
 107:lvgl/src/widgets/lv_btnmatrix.c ****     lv_coord_t pleft = lv_obj_get_style_pad_left(obj, LV_PART_MAIN);
 108:lvgl/src/widgets/lv_btnmatrix.c ****     lv_coord_t ptop = lv_obj_get_style_pad_top(obj, LV_PART_MAIN);
 109:lvgl/src/widgets/lv_btnmatrix.c ****     lv_coord_t prow = lv_obj_get_style_pad_row(obj, LV_PART_MAIN);
 110:lvgl/src/widgets/lv_btnmatrix.c ****     lv_coord_t pcol = lv_obj_get_style_pad_column(obj, LV_PART_MAIN);
 111:lvgl/src/widgets/lv_btnmatrix.c **** 
 112:lvgl/src/widgets/lv_btnmatrix.c ****     lv_coord_t max_w            = lv_obj_get_content_width(obj);
 113:lvgl/src/widgets/lv_btnmatrix.c ****     lv_coord_t max_h            = lv_obj_get_content_height(obj);
 114:lvgl/src/widgets/lv_btnmatrix.c **** 
 115:lvgl/src/widgets/lv_btnmatrix.c ****     /*Calculate the position of each row*/
 116:lvgl/src/widgets/lv_btnmatrix.c ****     lv_coord_t max_h_no_gap = max_h - (prow * (btnm->row_cnt - 1));
 117:lvgl/src/widgets/lv_btnmatrix.c **** 
 118:lvgl/src/widgets/lv_btnmatrix.c ****     /*Count the units and the buttons in a line
 119:lvgl/src/widgets/lv_btnmatrix.c ****      *(A button can be 1,2,3... unit wide)*/
 120:lvgl/src/widgets/lv_btnmatrix.c ****     uint32_t txt_tot_i = 0; /*Act. index in the str map*/
 121:lvgl/src/widgets/lv_btnmatrix.c ****     uint32_t btn_tot_i = 0; /*Act. index of button areas*/
 122:lvgl/src/widgets/lv_btnmatrix.c ****     const char ** map_row = map;
 123:lvgl/src/widgets/lv_btnmatrix.c **** 
 124:lvgl/src/widgets/lv_btnmatrix.c ****     /*Count the units and the buttons in a line*/
 125:lvgl/src/widgets/lv_btnmatrix.c ****     uint32_t row;
 126:lvgl/src/widgets/lv_btnmatrix.c ****     for(row = 0; row < btnm->row_cnt; row++) {
 127:lvgl/src/widgets/lv_btnmatrix.c ****         uint16_t unit_cnt = 0;           /*Number of units in a row*/
 128:lvgl/src/widgets/lv_btnmatrix.c ****         uint16_t btn_cnt = 0;            /*Number of buttons in a row*/
 129:lvgl/src/widgets/lv_btnmatrix.c ****         /*Count the buttons and units in this row*/
 130:lvgl/src/widgets/lv_btnmatrix.c ****         while(map_row[btn_cnt] && strcmp(map_row[btn_cnt], "\n") != 0 && map_row[btn_cnt][0] != '\0
 131:lvgl/src/widgets/lv_btnmatrix.c ****             unit_cnt += get_button_width(btnm->ctrl_bits[btn_tot_i + btn_cnt]);
 132:lvgl/src/widgets/lv_btnmatrix.c ****             btn_cnt++;
 133:lvgl/src/widgets/lv_btnmatrix.c ****         }
 134:lvgl/src/widgets/lv_btnmatrix.c **** 
 135:lvgl/src/widgets/lv_btnmatrix.c ****         /*Only deal with the non empty lines*/
 136:lvgl/src/widgets/lv_btnmatrix.c ****         if(btn_cnt == 0) {
 137:lvgl/src/widgets/lv_btnmatrix.c ****             map_row = &map_row[btn_cnt + 1];       /*Set the map to the next row*/
 138:lvgl/src/widgets/lv_btnmatrix.c ****             continue;
 139:lvgl/src/widgets/lv_btnmatrix.c ****         }
 140:lvgl/src/widgets/lv_btnmatrix.c **** 
 141:lvgl/src/widgets/lv_btnmatrix.c ****         lv_coord_t row_y1 = ptop + (max_h_no_gap * row) / btnm->row_cnt + row * prow;
 142:lvgl/src/widgets/lv_btnmatrix.c ****         lv_coord_t row_y2 = ptop + (max_h_no_gap * (row + 1)) / btnm->row_cnt + row * prow - 1;
 143:lvgl/src/widgets/lv_btnmatrix.c **** 
 144:lvgl/src/widgets/lv_btnmatrix.c ****         /*Set the button size and positions*/
 145:lvgl/src/widgets/lv_btnmatrix.c ****         lv_coord_t max_w_no_gap = max_w - (pcol * (btn_cnt - 1));
ARM GAS  C:\Users\OSD\AppData\Local\Temp\ccnvvkrZ.s 			page 4


 146:lvgl/src/widgets/lv_btnmatrix.c ****         if(max_w_no_gap < 0) max_w_no_gap = 0;
 147:lvgl/src/widgets/lv_btnmatrix.c **** 
 148:lvgl/src/widgets/lv_btnmatrix.c ****         uint32_t row_unit_cnt = 0;  /*The current unit position in the row*/
 149:lvgl/src/widgets/lv_btnmatrix.c ****         uint32_t btn;
 150:lvgl/src/widgets/lv_btnmatrix.c ****         for(btn = 0; btn < btn_cnt; btn++, btn_tot_i++, txt_tot_i++) {
 151:lvgl/src/widgets/lv_btnmatrix.c ****             uint32_t btn_u = get_button_width(btnm->ctrl_bits[btn_tot_i]);
 152:lvgl/src/widgets/lv_btnmatrix.c **** 
 153:lvgl/src/widgets/lv_btnmatrix.c ****             lv_coord_t btn_x1 = (max_w_no_gap * row_unit_cnt) / unit_cnt + btn * pcol;
 154:lvgl/src/widgets/lv_btnmatrix.c ****             lv_coord_t btn_x2 = (max_w_no_gap * (row_unit_cnt + btn_u)) / unit_cnt + btn * pcol - 1
 155:lvgl/src/widgets/lv_btnmatrix.c **** 
 156:lvgl/src/widgets/lv_btnmatrix.c ****             /*If RTL start from the right*/
 157:lvgl/src/widgets/lv_btnmatrix.c ****             if(base_dir == LV_BASE_DIR_RTL) {
 158:lvgl/src/widgets/lv_btnmatrix.c ****                 lv_coord_t tmp = btn_x1;
 159:lvgl/src/widgets/lv_btnmatrix.c ****                 btn_x1 = btn_x2;
 160:lvgl/src/widgets/lv_btnmatrix.c ****                 btn_x2 = tmp;
 161:lvgl/src/widgets/lv_btnmatrix.c **** 
 162:lvgl/src/widgets/lv_btnmatrix.c ****                 btn_x1 = max_w - btn_x1;
 163:lvgl/src/widgets/lv_btnmatrix.c ****                 btn_x2 = max_w - btn_x2;
 164:lvgl/src/widgets/lv_btnmatrix.c ****             }
 165:lvgl/src/widgets/lv_btnmatrix.c **** 
 166:lvgl/src/widgets/lv_btnmatrix.c ****             btn_x1 += pleft;
 167:lvgl/src/widgets/lv_btnmatrix.c ****             btn_x2 += pleft;
 168:lvgl/src/widgets/lv_btnmatrix.c **** 
 169:lvgl/src/widgets/lv_btnmatrix.c ****             lv_area_set(&btnm->button_areas[btn_tot_i], btn_x1, row_y1, btn_x2, row_y2);
 170:lvgl/src/widgets/lv_btnmatrix.c **** 
 171:lvgl/src/widgets/lv_btnmatrix.c ****             row_unit_cnt += btn_u;
 172:lvgl/src/widgets/lv_btnmatrix.c ****         }
 173:lvgl/src/widgets/lv_btnmatrix.c **** 
 174:lvgl/src/widgets/lv_btnmatrix.c ****         map_row = &map_row[btn_cnt + 1];       /*Set the map to the next line*/
 175:lvgl/src/widgets/lv_btnmatrix.c ****     }
 176:lvgl/src/widgets/lv_btnmatrix.c **** 
 177:lvgl/src/widgets/lv_btnmatrix.c ****     /*Popovers in the top row will draw outside the widget and the extended draw size depends on
 178:lvgl/src/widgets/lv_btnmatrix.c ****      *the row height which may have changed when setting the new map*/
 179:lvgl/src/widgets/lv_btnmatrix.c ****     lv_obj_refresh_ext_draw_size(obj);
 180:lvgl/src/widgets/lv_btnmatrix.c **** 
 181:lvgl/src/widgets/lv_btnmatrix.c ****     lv_obj_invalidate(obj);
 182:lvgl/src/widgets/lv_btnmatrix.c **** }
 183:lvgl/src/widgets/lv_btnmatrix.c **** 
 184:lvgl/src/widgets/lv_btnmatrix.c **** void lv_btnmatrix_set_ctrl_map(lv_obj_t * obj, const lv_btnmatrix_ctrl_t ctrl_map[])
 185:lvgl/src/widgets/lv_btnmatrix.c **** {
 186:lvgl/src/widgets/lv_btnmatrix.c ****     LV_ASSERT_OBJ(obj, MY_CLASS);
 187:lvgl/src/widgets/lv_btnmatrix.c **** 
 188:lvgl/src/widgets/lv_btnmatrix.c ****     lv_btnmatrix_t * btnm = (lv_btnmatrix_t *)obj;
 189:lvgl/src/widgets/lv_btnmatrix.c ****     lv_memcpy(btnm->ctrl_bits, ctrl_map, sizeof(lv_btnmatrix_ctrl_t) * btnm->btn_cnt);
 190:lvgl/src/widgets/lv_btnmatrix.c **** 
 191:lvgl/src/widgets/lv_btnmatrix.c ****     lv_btnmatrix_set_map(obj, btnm->map_p);
 192:lvgl/src/widgets/lv_btnmatrix.c **** }
 193:lvgl/src/widgets/lv_btnmatrix.c **** 
 194:lvgl/src/widgets/lv_btnmatrix.c **** void lv_btnmatrix_set_selected_btn(lv_obj_t * obj, uint16_t btn_id)
 195:lvgl/src/widgets/lv_btnmatrix.c **** {
 196:lvgl/src/widgets/lv_btnmatrix.c ****     LV_ASSERT_OBJ(obj, MY_CLASS);
 197:lvgl/src/widgets/lv_btnmatrix.c **** 
 198:lvgl/src/widgets/lv_btnmatrix.c ****     lv_btnmatrix_t * btnm = (lv_btnmatrix_t *)obj;
 199:lvgl/src/widgets/lv_btnmatrix.c **** 
 200:lvgl/src/widgets/lv_btnmatrix.c ****     if(btn_id >= btnm->btn_cnt && btn_id != LV_BTNMATRIX_BTN_NONE) return;
 201:lvgl/src/widgets/lv_btnmatrix.c **** 
 202:lvgl/src/widgets/lv_btnmatrix.c ****     invalidate_button_area(obj, btnm->btn_id_sel);
ARM GAS  C:\Users\OSD\AppData\Local\Temp\ccnvvkrZ.s 			page 5


 203:lvgl/src/widgets/lv_btnmatrix.c ****     btnm->btn_id_sel = btn_id;
 204:lvgl/src/widgets/lv_btnmatrix.c ****     invalidate_button_area(obj, btn_id);
 205:lvgl/src/widgets/lv_btnmatrix.c **** }
 206:lvgl/src/widgets/lv_btnmatrix.c **** 
 207:lvgl/src/widgets/lv_btnmatrix.c **** void lv_btnmatrix_set_btn_ctrl(lv_obj_t * obj, uint16_t btn_id, lv_btnmatrix_ctrl_t ctrl)
 208:lvgl/src/widgets/lv_btnmatrix.c **** {
 209:lvgl/src/widgets/lv_btnmatrix.c ****     LV_ASSERT_OBJ(obj, MY_CLASS);
 210:lvgl/src/widgets/lv_btnmatrix.c **** 
 211:lvgl/src/widgets/lv_btnmatrix.c ****     lv_btnmatrix_t * btnm = (lv_btnmatrix_t *)obj;
 212:lvgl/src/widgets/lv_btnmatrix.c **** 
 213:lvgl/src/widgets/lv_btnmatrix.c ****     if(btn_id >= btnm->btn_cnt) return;
 214:lvgl/src/widgets/lv_btnmatrix.c **** 
 215:lvgl/src/widgets/lv_btnmatrix.c ****     if(btnm->one_check && (ctrl & LV_BTNMATRIX_CTRL_CHECKED)) {
 216:lvgl/src/widgets/lv_btnmatrix.c ****         lv_btnmatrix_clear_btn_ctrl_all(obj, LV_BTNMATRIX_CTRL_CHECKED);
 217:lvgl/src/widgets/lv_btnmatrix.c ****     }
 218:lvgl/src/widgets/lv_btnmatrix.c **** 
 219:lvgl/src/widgets/lv_btnmatrix.c ****     /* If we hide a button if all buttons are now hidden hide the whole button matrix to make focus
 220:lvgl/src/widgets/lv_btnmatrix.c ****     if(ctrl & LV_BTNMATRIX_CTRL_HIDDEN) {
 221:lvgl/src/widgets/lv_btnmatrix.c ****         bool all_buttons_hidden = true;
 222:lvgl/src/widgets/lv_btnmatrix.c ****         if(btnm->btn_cnt > 1) {
 223:lvgl/src/widgets/lv_btnmatrix.c ****             for(uint16_t btn_idx = 0; btn_idx < btnm->btn_cnt; btn_idx++) {
 224:lvgl/src/widgets/lv_btnmatrix.c ****                 if(btn_idx == btn_id) continue;
 225:lvgl/src/widgets/lv_btnmatrix.c ****                 if(!(btnm->ctrl_bits[btn_idx] & LV_BTNMATRIX_CTRL_HIDDEN)) all_buttons_hidden = fal
 226:lvgl/src/widgets/lv_btnmatrix.c ****             }
 227:lvgl/src/widgets/lv_btnmatrix.c **** 
 228:lvgl/src/widgets/lv_btnmatrix.c ****         }
 229:lvgl/src/widgets/lv_btnmatrix.c ****         if(all_buttons_hidden) lv_obj_add_flag(obj, LV_OBJ_FLAG_HIDDEN);
 230:lvgl/src/widgets/lv_btnmatrix.c ****     }
 231:lvgl/src/widgets/lv_btnmatrix.c **** 
 232:lvgl/src/widgets/lv_btnmatrix.c ****     btnm->ctrl_bits[btn_id] |= ctrl;
 233:lvgl/src/widgets/lv_btnmatrix.c ****     invalidate_button_area(obj, btn_id);
 234:lvgl/src/widgets/lv_btnmatrix.c **** 
 235:lvgl/src/widgets/lv_btnmatrix.c ****     if(ctrl & LV_BTNMATRIX_CTRL_POPOVER) {
 236:lvgl/src/widgets/lv_btnmatrix.c ****         lv_obj_refresh_ext_draw_size(obj);
 237:lvgl/src/widgets/lv_btnmatrix.c ****     }
 238:lvgl/src/widgets/lv_btnmatrix.c **** }
 239:lvgl/src/widgets/lv_btnmatrix.c **** 
 240:lvgl/src/widgets/lv_btnmatrix.c **** void lv_btnmatrix_clear_btn_ctrl(lv_obj_t * obj, uint16_t btn_id, lv_btnmatrix_ctrl_t ctrl)
 241:lvgl/src/widgets/lv_btnmatrix.c **** {
 242:lvgl/src/widgets/lv_btnmatrix.c ****     LV_ASSERT_OBJ(obj, MY_CLASS);
 243:lvgl/src/widgets/lv_btnmatrix.c **** 
 244:lvgl/src/widgets/lv_btnmatrix.c ****     lv_btnmatrix_t * btnm = (lv_btnmatrix_t *)obj;
 245:lvgl/src/widgets/lv_btnmatrix.c **** 
 246:lvgl/src/widgets/lv_btnmatrix.c ****     if(btn_id >= btnm->btn_cnt) return;
 247:lvgl/src/widgets/lv_btnmatrix.c **** 
 248:lvgl/src/widgets/lv_btnmatrix.c ****     /* If all buttons were hidden the whole button matrix is hidden so we need to check and remove 
 249:lvgl/src/widgets/lv_btnmatrix.c ****     if(ctrl & LV_BTNMATRIX_CTRL_HIDDEN) {
 250:lvgl/src/widgets/lv_btnmatrix.c ****         if(lv_obj_has_flag(obj, LV_OBJ_FLAG_HIDDEN)) lv_obj_clear_flag(obj, LV_OBJ_FLAG_HIDDEN);
 251:lvgl/src/widgets/lv_btnmatrix.c ****     }
 252:lvgl/src/widgets/lv_btnmatrix.c **** 
 253:lvgl/src/widgets/lv_btnmatrix.c ****     btnm->ctrl_bits[btn_id] &= (~ctrl);
 254:lvgl/src/widgets/lv_btnmatrix.c ****     invalidate_button_area(obj, btn_id);
 255:lvgl/src/widgets/lv_btnmatrix.c **** 
 256:lvgl/src/widgets/lv_btnmatrix.c ****     if(ctrl & LV_BTNMATRIX_CTRL_POPOVER) {
 257:lvgl/src/widgets/lv_btnmatrix.c ****         lv_obj_refresh_ext_draw_size(obj);
 258:lvgl/src/widgets/lv_btnmatrix.c ****     }
 259:lvgl/src/widgets/lv_btnmatrix.c **** }
ARM GAS  C:\Users\OSD\AppData\Local\Temp\ccnvvkrZ.s 			page 6


 260:lvgl/src/widgets/lv_btnmatrix.c **** 
 261:lvgl/src/widgets/lv_btnmatrix.c **** void lv_btnmatrix_set_btn_ctrl_all(lv_obj_t * obj, lv_btnmatrix_ctrl_t ctrl)
 262:lvgl/src/widgets/lv_btnmatrix.c **** {
 263:lvgl/src/widgets/lv_btnmatrix.c ****     LV_ASSERT_OBJ(obj, MY_CLASS);
 264:lvgl/src/widgets/lv_btnmatrix.c **** 
 265:lvgl/src/widgets/lv_btnmatrix.c ****     lv_btnmatrix_t * btnm = (lv_btnmatrix_t *)obj;;
 266:lvgl/src/widgets/lv_btnmatrix.c ****     uint16_t i;
 267:lvgl/src/widgets/lv_btnmatrix.c ****     for(i = 0; i < btnm->btn_cnt; i++) {
 268:lvgl/src/widgets/lv_btnmatrix.c ****         lv_btnmatrix_set_btn_ctrl(obj, i, ctrl);
 269:lvgl/src/widgets/lv_btnmatrix.c ****     }
 270:lvgl/src/widgets/lv_btnmatrix.c **** }
 271:lvgl/src/widgets/lv_btnmatrix.c **** 
 272:lvgl/src/widgets/lv_btnmatrix.c **** void lv_btnmatrix_clear_btn_ctrl_all(lv_obj_t * obj, lv_btnmatrix_ctrl_t ctrl)
 273:lvgl/src/widgets/lv_btnmatrix.c **** {
 274:lvgl/src/widgets/lv_btnmatrix.c ****     LV_ASSERT_OBJ(obj, MY_CLASS);
 275:lvgl/src/widgets/lv_btnmatrix.c **** 
 276:lvgl/src/widgets/lv_btnmatrix.c ****     lv_btnmatrix_t * btnm = (lv_btnmatrix_t *)obj;;
 277:lvgl/src/widgets/lv_btnmatrix.c ****     uint16_t i;
 278:lvgl/src/widgets/lv_btnmatrix.c ****     for(i = 0; i < btnm->btn_cnt; i++) {
 279:lvgl/src/widgets/lv_btnmatrix.c ****         lv_btnmatrix_clear_btn_ctrl(obj, i, ctrl);
 280:lvgl/src/widgets/lv_btnmatrix.c ****     }
 281:lvgl/src/widgets/lv_btnmatrix.c **** }
 282:lvgl/src/widgets/lv_btnmatrix.c **** 
 283:lvgl/src/widgets/lv_btnmatrix.c **** void lv_btnmatrix_set_btn_width(lv_obj_t * obj, uint16_t btn_id, uint8_t width)
 284:lvgl/src/widgets/lv_btnmatrix.c **** {
 285:lvgl/src/widgets/lv_btnmatrix.c ****     LV_ASSERT_OBJ(obj, MY_CLASS);
 286:lvgl/src/widgets/lv_btnmatrix.c **** 
 287:lvgl/src/widgets/lv_btnmatrix.c ****     lv_btnmatrix_t * btnm = (lv_btnmatrix_t *)obj;;
 288:lvgl/src/widgets/lv_btnmatrix.c ****     if(btn_id >= btnm->btn_cnt) return;
 289:lvgl/src/widgets/lv_btnmatrix.c ****     btnm->ctrl_bits[btn_id] &= (~LV_BTNMATRIX_WIDTH_MASK);
 290:lvgl/src/widgets/lv_btnmatrix.c ****     btnm->ctrl_bits[btn_id] |= (LV_BTNMATRIX_WIDTH_MASK & width);
 291:lvgl/src/widgets/lv_btnmatrix.c **** 
 292:lvgl/src/widgets/lv_btnmatrix.c ****     lv_btnmatrix_set_map(obj, btnm->map_p);
 293:lvgl/src/widgets/lv_btnmatrix.c **** }
 294:lvgl/src/widgets/lv_btnmatrix.c **** 
 295:lvgl/src/widgets/lv_btnmatrix.c **** void lv_btnmatrix_set_one_checked(lv_obj_t * obj, bool en)
 296:lvgl/src/widgets/lv_btnmatrix.c **** {
 297:lvgl/src/widgets/lv_btnmatrix.c ****     LV_ASSERT_OBJ(obj, MY_CLASS);
 298:lvgl/src/widgets/lv_btnmatrix.c **** 
 299:lvgl/src/widgets/lv_btnmatrix.c ****     lv_btnmatrix_t * btnm = (lv_btnmatrix_t *)obj;;
 300:lvgl/src/widgets/lv_btnmatrix.c ****     btnm->one_check     = en;
 301:lvgl/src/widgets/lv_btnmatrix.c **** 
 302:lvgl/src/widgets/lv_btnmatrix.c ****     /*If more than one button is toggled only the first one should be*/
 303:lvgl/src/widgets/lv_btnmatrix.c ****     make_one_button_checked(obj, 0);
 304:lvgl/src/widgets/lv_btnmatrix.c **** }
 305:lvgl/src/widgets/lv_btnmatrix.c **** 
 306:lvgl/src/widgets/lv_btnmatrix.c **** /*=====================
 307:lvgl/src/widgets/lv_btnmatrix.c ****  * Getter functions
 308:lvgl/src/widgets/lv_btnmatrix.c ****  *====================*/
 309:lvgl/src/widgets/lv_btnmatrix.c **** 
 310:lvgl/src/widgets/lv_btnmatrix.c **** const char ** lv_btnmatrix_get_map(const lv_obj_t * obj)
 311:lvgl/src/widgets/lv_btnmatrix.c **** {
 312:lvgl/src/widgets/lv_btnmatrix.c ****     LV_ASSERT_OBJ(obj, MY_CLASS);
 313:lvgl/src/widgets/lv_btnmatrix.c **** 
 314:lvgl/src/widgets/lv_btnmatrix.c ****     lv_btnmatrix_t * btnm = (lv_btnmatrix_t *)obj;;
 315:lvgl/src/widgets/lv_btnmatrix.c ****     return btnm->map_p;
 316:lvgl/src/widgets/lv_btnmatrix.c **** }
ARM GAS  C:\Users\OSD\AppData\Local\Temp\ccnvvkrZ.s 			page 7


 317:lvgl/src/widgets/lv_btnmatrix.c **** 
 318:lvgl/src/widgets/lv_btnmatrix.c **** uint16_t lv_btnmatrix_get_selected_btn(const lv_obj_t * obj)
 319:lvgl/src/widgets/lv_btnmatrix.c **** {
 320:lvgl/src/widgets/lv_btnmatrix.c ****     LV_ASSERT_OBJ(obj, MY_CLASS);
 321:lvgl/src/widgets/lv_btnmatrix.c **** 
 322:lvgl/src/widgets/lv_btnmatrix.c ****     lv_btnmatrix_t * btnm = (lv_btnmatrix_t *)obj;;
 323:lvgl/src/widgets/lv_btnmatrix.c ****     return btnm->btn_id_sel;
 324:lvgl/src/widgets/lv_btnmatrix.c **** }
 325:lvgl/src/widgets/lv_btnmatrix.c **** 
 326:lvgl/src/widgets/lv_btnmatrix.c **** const char * lv_btnmatrix_get_btn_text(const lv_obj_t * obj, uint16_t btn_id)
 327:lvgl/src/widgets/lv_btnmatrix.c **** {
 328:lvgl/src/widgets/lv_btnmatrix.c ****     LV_ASSERT_OBJ(obj, MY_CLASS);
 329:lvgl/src/widgets/lv_btnmatrix.c **** 
 330:lvgl/src/widgets/lv_btnmatrix.c ****     if(btn_id == LV_BTNMATRIX_BTN_NONE) return NULL;
 331:lvgl/src/widgets/lv_btnmatrix.c **** 
 332:lvgl/src/widgets/lv_btnmatrix.c ****     lv_btnmatrix_t * btnm = (lv_btnmatrix_t *)obj;
 333:lvgl/src/widgets/lv_btnmatrix.c ****     if(btn_id > btnm->btn_cnt) return NULL;
 334:lvgl/src/widgets/lv_btnmatrix.c **** 
 335:lvgl/src/widgets/lv_btnmatrix.c ****     uint16_t txt_i = 0;
 336:lvgl/src/widgets/lv_btnmatrix.c ****     uint16_t btn_i = 0;
 337:lvgl/src/widgets/lv_btnmatrix.c **** 
 338:lvgl/src/widgets/lv_btnmatrix.c ****     /*Search the text of btnm->btn_pr the buttons text in the map
 339:lvgl/src/widgets/lv_btnmatrix.c ****      *Skip "\n"-s*/
 340:lvgl/src/widgets/lv_btnmatrix.c ****     while(btn_i != btn_id) {
 341:lvgl/src/widgets/lv_btnmatrix.c ****         btn_i++;
 342:lvgl/src/widgets/lv_btnmatrix.c ****         txt_i++;
 343:lvgl/src/widgets/lv_btnmatrix.c ****         if(strcmp(btnm->map_p[txt_i], "\n") == 0) txt_i++;
 344:lvgl/src/widgets/lv_btnmatrix.c ****     }
 345:lvgl/src/widgets/lv_btnmatrix.c **** 
 346:lvgl/src/widgets/lv_btnmatrix.c ****     if(btn_i == btnm->btn_cnt) return NULL;
 347:lvgl/src/widgets/lv_btnmatrix.c **** 
 348:lvgl/src/widgets/lv_btnmatrix.c ****     return btnm->map_p[txt_i];
 349:lvgl/src/widgets/lv_btnmatrix.c **** }
 350:lvgl/src/widgets/lv_btnmatrix.c **** 
 351:lvgl/src/widgets/lv_btnmatrix.c **** bool lv_btnmatrix_has_btn_ctrl(lv_obj_t * obj, uint16_t btn_id, lv_btnmatrix_ctrl_t ctrl)
 352:lvgl/src/widgets/lv_btnmatrix.c **** {
 353:lvgl/src/widgets/lv_btnmatrix.c ****     LV_ASSERT_OBJ(obj, MY_CLASS);
 354:lvgl/src/widgets/lv_btnmatrix.c **** 
 355:lvgl/src/widgets/lv_btnmatrix.c ****     lv_btnmatrix_t * btnm = (lv_btnmatrix_t *)obj;;
 356:lvgl/src/widgets/lv_btnmatrix.c ****     if(btn_id >= btnm->btn_cnt) return false;
 357:lvgl/src/widgets/lv_btnmatrix.c **** 
 358:lvgl/src/widgets/lv_btnmatrix.c ****     return ((btnm->ctrl_bits[btn_id] & ctrl) == ctrl) ? true : false;
 359:lvgl/src/widgets/lv_btnmatrix.c **** }
 360:lvgl/src/widgets/lv_btnmatrix.c **** 
 361:lvgl/src/widgets/lv_btnmatrix.c **** bool lv_btnmatrix_get_one_checked(const lv_obj_t * obj)
 362:lvgl/src/widgets/lv_btnmatrix.c **** {
 363:lvgl/src/widgets/lv_btnmatrix.c ****     LV_ASSERT_OBJ(obj, MY_CLASS);
 364:lvgl/src/widgets/lv_btnmatrix.c **** 
 365:lvgl/src/widgets/lv_btnmatrix.c ****     lv_btnmatrix_t * btnm = (lv_btnmatrix_t *)obj;;
 366:lvgl/src/widgets/lv_btnmatrix.c **** 
 367:lvgl/src/widgets/lv_btnmatrix.c ****     return btnm->one_check;
 368:lvgl/src/widgets/lv_btnmatrix.c **** }
 369:lvgl/src/widgets/lv_btnmatrix.c **** 
 370:lvgl/src/widgets/lv_btnmatrix.c **** /**********************
 371:lvgl/src/widgets/lv_btnmatrix.c ****  *   STATIC FUNCTIONS
 372:lvgl/src/widgets/lv_btnmatrix.c ****  **********************/
 373:lvgl/src/widgets/lv_btnmatrix.c **** 
ARM GAS  C:\Users\OSD\AppData\Local\Temp\ccnvvkrZ.s 			page 8


 374:lvgl/src/widgets/lv_btnmatrix.c **** static void lv_btnmatrix_constructor(const lv_obj_class_t * class_p, lv_obj_t * obj)
 375:lvgl/src/widgets/lv_btnmatrix.c **** {
 376:lvgl/src/widgets/lv_btnmatrix.c ****     LV_UNUSED(class_p);
 377:lvgl/src/widgets/lv_btnmatrix.c ****     LV_TRACE_OBJ_CREATE("begin");
 378:lvgl/src/widgets/lv_btnmatrix.c ****     lv_btnmatrix_t * btnm = (lv_btnmatrix_t *)obj;
 379:lvgl/src/widgets/lv_btnmatrix.c ****     btnm->btn_cnt        = 0;
 380:lvgl/src/widgets/lv_btnmatrix.c ****     btnm->row_cnt        = 0;
 381:lvgl/src/widgets/lv_btnmatrix.c ****     btnm->btn_id_sel     = LV_BTNMATRIX_BTN_NONE;
 382:lvgl/src/widgets/lv_btnmatrix.c ****     btnm->button_areas   = NULL;
 383:lvgl/src/widgets/lv_btnmatrix.c ****     btnm->ctrl_bits      = NULL;
 384:lvgl/src/widgets/lv_btnmatrix.c ****     btnm->map_p          = NULL;
 385:lvgl/src/widgets/lv_btnmatrix.c ****     btnm->one_check      = 0;
 386:lvgl/src/widgets/lv_btnmatrix.c **** 
 387:lvgl/src/widgets/lv_btnmatrix.c ****     lv_btnmatrix_set_map(obj, lv_btnmatrix_def_map);
 388:lvgl/src/widgets/lv_btnmatrix.c **** 
 389:lvgl/src/widgets/lv_btnmatrix.c ****     LV_TRACE_OBJ_CREATE("finished");
 390:lvgl/src/widgets/lv_btnmatrix.c **** }
 391:lvgl/src/widgets/lv_btnmatrix.c **** 
 392:lvgl/src/widgets/lv_btnmatrix.c **** static void lv_btnmatrix_destructor(const lv_obj_class_t * class_p, lv_obj_t * obj)
 393:lvgl/src/widgets/lv_btnmatrix.c **** {
 394:lvgl/src/widgets/lv_btnmatrix.c ****     LV_TRACE_OBJ_CREATE("begin");
 395:lvgl/src/widgets/lv_btnmatrix.c ****     LV_UNUSED(class_p);
 396:lvgl/src/widgets/lv_btnmatrix.c ****     lv_btnmatrix_t * btnm = (lv_btnmatrix_t *)obj;
 397:lvgl/src/widgets/lv_btnmatrix.c ****     lv_mem_free(btnm->button_areas);
 398:lvgl/src/widgets/lv_btnmatrix.c ****     lv_mem_free(btnm->ctrl_bits);
 399:lvgl/src/widgets/lv_btnmatrix.c ****     btnm->button_areas = NULL;
 400:lvgl/src/widgets/lv_btnmatrix.c ****     btnm->ctrl_bits = NULL;
 401:lvgl/src/widgets/lv_btnmatrix.c ****     LV_TRACE_OBJ_CREATE("finished");
 402:lvgl/src/widgets/lv_btnmatrix.c **** }
 403:lvgl/src/widgets/lv_btnmatrix.c **** 
 404:lvgl/src/widgets/lv_btnmatrix.c **** static void lv_btnmatrix_event(const lv_obj_class_t * class_p, lv_event_t * e)
 405:lvgl/src/widgets/lv_btnmatrix.c **** {
 406:lvgl/src/widgets/lv_btnmatrix.c ****     LV_UNUSED(class_p);
 407:lvgl/src/widgets/lv_btnmatrix.c **** 
 408:lvgl/src/widgets/lv_btnmatrix.c ****     lv_res_t res;
 409:lvgl/src/widgets/lv_btnmatrix.c **** 
 410:lvgl/src/widgets/lv_btnmatrix.c ****     /*Call the ancestor's event handler*/
 411:lvgl/src/widgets/lv_btnmatrix.c ****     res = lv_obj_event_base(MY_CLASS, e);
 412:lvgl/src/widgets/lv_btnmatrix.c ****     if(res != LV_RES_OK) return;
 413:lvgl/src/widgets/lv_btnmatrix.c **** 
 414:lvgl/src/widgets/lv_btnmatrix.c ****     lv_event_code_t code = lv_event_get_code(e);
 415:lvgl/src/widgets/lv_btnmatrix.c ****     lv_obj_t * obj = lv_event_get_target(e);
 416:lvgl/src/widgets/lv_btnmatrix.c ****     lv_btnmatrix_t * btnm = (lv_btnmatrix_t *)obj;
 417:lvgl/src/widgets/lv_btnmatrix.c ****     lv_point_t p;
 418:lvgl/src/widgets/lv_btnmatrix.c **** 
 419:lvgl/src/widgets/lv_btnmatrix.c ****     if(code == LV_EVENT_REFR_EXT_DRAW_SIZE) {
 420:lvgl/src/widgets/lv_btnmatrix.c ****         if(has_popovers_in_top_row(obj)) {
 421:lvgl/src/widgets/lv_btnmatrix.c ****             /*reserve one row worth of extra space to account for popovers in the top row*/
 422:lvgl/src/widgets/lv_btnmatrix.c ****             lv_coord_t s = btnm->row_cnt > 0 ? lv_obj_get_content_height(obj) / btnm->row_cnt : 0;
 423:lvgl/src/widgets/lv_btnmatrix.c ****             lv_event_set_ext_draw_size(e, s);
 424:lvgl/src/widgets/lv_btnmatrix.c ****         }
 425:lvgl/src/widgets/lv_btnmatrix.c ****     }
 426:lvgl/src/widgets/lv_btnmatrix.c ****     if(code == LV_EVENT_STYLE_CHANGED) {
 427:lvgl/src/widgets/lv_btnmatrix.c ****         lv_btnmatrix_set_map(obj, btnm->map_p);
 428:lvgl/src/widgets/lv_btnmatrix.c ****     }
 429:lvgl/src/widgets/lv_btnmatrix.c ****     else if(code == LV_EVENT_SIZE_CHANGED) {
 430:lvgl/src/widgets/lv_btnmatrix.c ****         lv_btnmatrix_set_map(obj, btnm->map_p);
ARM GAS  C:\Users\OSD\AppData\Local\Temp\ccnvvkrZ.s 			page 9


 431:lvgl/src/widgets/lv_btnmatrix.c ****     }
 432:lvgl/src/widgets/lv_btnmatrix.c ****     else if(code == LV_EVENT_PRESSED) {
 433:lvgl/src/widgets/lv_btnmatrix.c ****         void * param = lv_event_get_param(e);
 434:lvgl/src/widgets/lv_btnmatrix.c ****         invalidate_button_area(obj, btnm->btn_id_sel);
 435:lvgl/src/widgets/lv_btnmatrix.c **** 
 436:lvgl/src/widgets/lv_btnmatrix.c ****         lv_indev_type_t indev_type = lv_indev_get_type(lv_indev_get_act());
 437:lvgl/src/widgets/lv_btnmatrix.c ****         if(indev_type == LV_INDEV_TYPE_POINTER || indev_type == LV_INDEV_TYPE_BUTTON) {
 438:lvgl/src/widgets/lv_btnmatrix.c ****             uint16_t btn_pr;
 439:lvgl/src/widgets/lv_btnmatrix.c ****             /*Search the pressed area*/
 440:lvgl/src/widgets/lv_btnmatrix.c ****             lv_indev_get_point(param, &p);
 441:lvgl/src/widgets/lv_btnmatrix.c ****             btn_pr = get_button_from_point(obj, &p);
 442:lvgl/src/widgets/lv_btnmatrix.c ****             /*Handle the case where there is no button there*/
 443:lvgl/src/widgets/lv_btnmatrix.c ****             btnm->btn_id_sel = LV_BTNMATRIX_BTN_NONE;
 444:lvgl/src/widgets/lv_btnmatrix.c ****             if(btn_pr != LV_BTNMATRIX_BTN_NONE) {
 445:lvgl/src/widgets/lv_btnmatrix.c ****                 if(button_is_inactive(btnm->ctrl_bits[btn_pr]) == false &&
 446:lvgl/src/widgets/lv_btnmatrix.c ****                    button_is_hidden(btnm->ctrl_bits[btn_pr]) == false) {
 447:lvgl/src/widgets/lv_btnmatrix.c ****                     btnm->btn_id_sel = btn_pr;
 448:lvgl/src/widgets/lv_btnmatrix.c ****                     invalidate_button_area(obj, btnm->btn_id_sel); /*Invalidate the new area*/
 449:lvgl/src/widgets/lv_btnmatrix.c ****                 }
 450:lvgl/src/widgets/lv_btnmatrix.c ****             }
 451:lvgl/src/widgets/lv_btnmatrix.c ****             else {
 452:lvgl/src/widgets/lv_btnmatrix.c ****                 btnm->btn_id_sel = LV_BTNMATRIX_BTN_NONE;
 453:lvgl/src/widgets/lv_btnmatrix.c ****             }
 454:lvgl/src/widgets/lv_btnmatrix.c ****         }
 455:lvgl/src/widgets/lv_btnmatrix.c **** 
 456:lvgl/src/widgets/lv_btnmatrix.c ****         if(btnm->btn_id_sel != LV_BTNMATRIX_BTN_NONE) {
 457:lvgl/src/widgets/lv_btnmatrix.c ****             if(button_is_click_trig(btnm->ctrl_bits[btnm->btn_id_sel]) == false &&
 458:lvgl/src/widgets/lv_btnmatrix.c ****                button_is_popover(btnm->ctrl_bits[btnm->btn_id_sel]) == false &&
 459:lvgl/src/widgets/lv_btnmatrix.c ****                button_is_inactive(btnm->ctrl_bits[btnm->btn_id_sel]) == false &&
 460:lvgl/src/widgets/lv_btnmatrix.c ****                button_is_hidden(btnm->ctrl_bits[btnm->btn_id_sel]) == false) {
 461:lvgl/src/widgets/lv_btnmatrix.c ****                 uint32_t b = btnm->btn_id_sel;
 462:lvgl/src/widgets/lv_btnmatrix.c ****                 res        = lv_event_send(obj, LV_EVENT_VALUE_CHANGED, &b);
 463:lvgl/src/widgets/lv_btnmatrix.c ****                 if(res != LV_RES_OK) return;
 464:lvgl/src/widgets/lv_btnmatrix.c ****             }
 465:lvgl/src/widgets/lv_btnmatrix.c ****         }
 466:lvgl/src/widgets/lv_btnmatrix.c ****     }
 467:lvgl/src/widgets/lv_btnmatrix.c ****     else if(code == LV_EVENT_PRESSING) {
 468:lvgl/src/widgets/lv_btnmatrix.c ****         void * param = lv_event_get_param(e);
 469:lvgl/src/widgets/lv_btnmatrix.c ****         uint16_t btn_pr = LV_BTNMATRIX_BTN_NONE;
 470:lvgl/src/widgets/lv_btnmatrix.c ****         /*Search the pressed area*/
 471:lvgl/src/widgets/lv_btnmatrix.c ****         lv_indev_t * indev = lv_indev_get_act();
 472:lvgl/src/widgets/lv_btnmatrix.c ****         lv_indev_type_t indev_type = lv_indev_get_type(indev);
 473:lvgl/src/widgets/lv_btnmatrix.c ****         if(indev_type == LV_INDEV_TYPE_ENCODER || indev_type == LV_INDEV_TYPE_KEYPAD) return;
 474:lvgl/src/widgets/lv_btnmatrix.c **** 
 475:lvgl/src/widgets/lv_btnmatrix.c ****         lv_indev_get_point(indev, &p);
 476:lvgl/src/widgets/lv_btnmatrix.c ****         btn_pr = get_button_from_point(obj, &p);
 477:lvgl/src/widgets/lv_btnmatrix.c ****         /*Invalidate to old and the new areas*/
 478:lvgl/src/widgets/lv_btnmatrix.c ****         if(btn_pr != btnm->btn_id_sel) {
 479:lvgl/src/widgets/lv_btnmatrix.c ****             if(btnm->btn_id_sel != LV_BTNMATRIX_BTN_NONE) {
 480:lvgl/src/widgets/lv_btnmatrix.c ****                 invalidate_button_area(obj, btnm->btn_id_sel);
 481:lvgl/src/widgets/lv_btnmatrix.c ****             }
 482:lvgl/src/widgets/lv_btnmatrix.c **** 
 483:lvgl/src/widgets/lv_btnmatrix.c ****             btnm->btn_id_sel = btn_pr;
 484:lvgl/src/widgets/lv_btnmatrix.c **** 
 485:lvgl/src/widgets/lv_btnmatrix.c ****             lv_indev_reset_long_press(param); /*Start the log press time again on the new button*/
 486:lvgl/src/widgets/lv_btnmatrix.c ****             if(btn_pr != LV_BTNMATRIX_BTN_NONE &&
 487:lvgl/src/widgets/lv_btnmatrix.c ****                button_is_inactive(btnm->ctrl_bits[btn_pr]) == false &&
ARM GAS  C:\Users\OSD\AppData\Local\Temp\ccnvvkrZ.s 			page 10


 488:lvgl/src/widgets/lv_btnmatrix.c ****                button_is_hidden(btnm->ctrl_bits[btn_pr]) == false) {
 489:lvgl/src/widgets/lv_btnmatrix.c ****                 invalidate_button_area(obj, btn_pr);
 490:lvgl/src/widgets/lv_btnmatrix.c ****                 /*Send VALUE_CHANGED for the newly pressed button*/
 491:lvgl/src/widgets/lv_btnmatrix.c ****                 if(button_is_click_trig(btnm->ctrl_bits[btn_pr]) == false &&
 492:lvgl/src/widgets/lv_btnmatrix.c ****                    button_is_popover(btnm->ctrl_bits[btnm->btn_id_sel]) == false) {
 493:lvgl/src/widgets/lv_btnmatrix.c ****                     uint32_t b = btn_pr;
 494:lvgl/src/widgets/lv_btnmatrix.c ****                     res = lv_event_send(obj, LV_EVENT_VALUE_CHANGED, &b);
 495:lvgl/src/widgets/lv_btnmatrix.c ****                     if(res != LV_RES_OK) return;
 496:lvgl/src/widgets/lv_btnmatrix.c ****                 }
 497:lvgl/src/widgets/lv_btnmatrix.c ****             }
 498:lvgl/src/widgets/lv_btnmatrix.c ****         }
 499:lvgl/src/widgets/lv_btnmatrix.c ****     }
 500:lvgl/src/widgets/lv_btnmatrix.c ****     else if(code == LV_EVENT_RELEASED) {
 501:lvgl/src/widgets/lv_btnmatrix.c ****         if(btnm->btn_id_sel != LV_BTNMATRIX_BTN_NONE) {
 502:lvgl/src/widgets/lv_btnmatrix.c ****             /*Toggle the button if enabled*/
 503:lvgl/src/widgets/lv_btnmatrix.c ****             if(button_is_checkable(btnm->ctrl_bits[btnm->btn_id_sel]) &&
 504:lvgl/src/widgets/lv_btnmatrix.c ****                !button_is_inactive(btnm->ctrl_bits[btnm->btn_id_sel])) {
 505:lvgl/src/widgets/lv_btnmatrix.c ****                 if(button_get_checked(btnm->ctrl_bits[btnm->btn_id_sel]) && !btnm->one_check) {
 506:lvgl/src/widgets/lv_btnmatrix.c ****                     btnm->ctrl_bits[btnm->btn_id_sel] &= (~LV_BTNMATRIX_CTRL_CHECKED);
 507:lvgl/src/widgets/lv_btnmatrix.c ****                 }
 508:lvgl/src/widgets/lv_btnmatrix.c ****                 else {
 509:lvgl/src/widgets/lv_btnmatrix.c ****                     btnm->ctrl_bits[btnm->btn_id_sel] |= LV_BTNMATRIX_CTRL_CHECKED;
 510:lvgl/src/widgets/lv_btnmatrix.c ****                 }
 511:lvgl/src/widgets/lv_btnmatrix.c ****                 if(btnm->one_check) make_one_button_checked(obj, btnm->btn_id_sel);
 512:lvgl/src/widgets/lv_btnmatrix.c ****             }
 513:lvgl/src/widgets/lv_btnmatrix.c **** 
 514:lvgl/src/widgets/lv_btnmatrix.c ****             if((button_is_click_trig(btnm->ctrl_bits[btnm->btn_id_sel]) == true ||
 515:lvgl/src/widgets/lv_btnmatrix.c ****                 button_is_popover(btnm->ctrl_bits[btnm->btn_id_sel]) == true) &&
 516:lvgl/src/widgets/lv_btnmatrix.c ****                button_is_inactive(btnm->ctrl_bits[btnm->btn_id_sel]) == false &&
 517:lvgl/src/widgets/lv_btnmatrix.c ****                button_is_hidden(btnm->ctrl_bits[btnm->btn_id_sel]) == false) {
 518:lvgl/src/widgets/lv_btnmatrix.c ****                 uint32_t b = btnm->btn_id_sel;
 519:lvgl/src/widgets/lv_btnmatrix.c ****                 res        = lv_event_send(obj, LV_EVENT_VALUE_CHANGED, &b);
 520:lvgl/src/widgets/lv_btnmatrix.c ****                 if(res != LV_RES_OK) return;
 521:lvgl/src/widgets/lv_btnmatrix.c ****             }
 522:lvgl/src/widgets/lv_btnmatrix.c ****         }
 523:lvgl/src/widgets/lv_btnmatrix.c **** 
 524:lvgl/src/widgets/lv_btnmatrix.c ****         /*Invalidate to old pressed area*/;
 525:lvgl/src/widgets/lv_btnmatrix.c ****         invalidate_button_area(obj, btnm->btn_id_sel);
 526:lvgl/src/widgets/lv_btnmatrix.c **** 
 527:lvgl/src/widgets/lv_btnmatrix.c ****     }
 528:lvgl/src/widgets/lv_btnmatrix.c ****     else if(code == LV_EVENT_LONG_PRESSED_REPEAT) {
 529:lvgl/src/widgets/lv_btnmatrix.c ****         if(btnm->btn_id_sel != LV_BTNMATRIX_BTN_NONE) {
 530:lvgl/src/widgets/lv_btnmatrix.c ****             if(button_is_repeat_disabled(btnm->ctrl_bits[btnm->btn_id_sel]) == false &&
 531:lvgl/src/widgets/lv_btnmatrix.c ****                button_is_inactive(btnm->ctrl_bits[btnm->btn_id_sel]) == false &&
 532:lvgl/src/widgets/lv_btnmatrix.c ****                button_is_hidden(btnm->ctrl_bits[btnm->btn_id_sel]) == false) {
 533:lvgl/src/widgets/lv_btnmatrix.c ****                 uint32_t b = btnm->btn_id_sel;
 534:lvgl/src/widgets/lv_btnmatrix.c ****                 res        = lv_event_send(obj, LV_EVENT_VALUE_CHANGED, &b);
 535:lvgl/src/widgets/lv_btnmatrix.c ****                 if(res != LV_RES_OK) return;
 536:lvgl/src/widgets/lv_btnmatrix.c ****             }
 537:lvgl/src/widgets/lv_btnmatrix.c ****         }
 538:lvgl/src/widgets/lv_btnmatrix.c ****     }
 539:lvgl/src/widgets/lv_btnmatrix.c ****     else if(code == LV_EVENT_PRESS_LOST) {
 540:lvgl/src/widgets/lv_btnmatrix.c ****         invalidate_button_area(obj, btnm->btn_id_sel);
 541:lvgl/src/widgets/lv_btnmatrix.c ****         btnm->btn_id_sel = LV_BTNMATRIX_BTN_NONE;
 542:lvgl/src/widgets/lv_btnmatrix.c ****     }
 543:lvgl/src/widgets/lv_btnmatrix.c ****     else if(code == LV_EVENT_FOCUSED) {
 544:lvgl/src/widgets/lv_btnmatrix.c ****         if(btnm->btn_cnt == 0) return;
ARM GAS  C:\Users\OSD\AppData\Local\Temp\ccnvvkrZ.s 			page 11


 545:lvgl/src/widgets/lv_btnmatrix.c **** 
 546:lvgl/src/widgets/lv_btnmatrix.c ****         lv_indev_t * indev = lv_event_get_param(e);
 547:lvgl/src/widgets/lv_btnmatrix.c ****         lv_indev_type_t indev_type = lv_indev_get_type(indev);
 548:lvgl/src/widgets/lv_btnmatrix.c **** 
 549:lvgl/src/widgets/lv_btnmatrix.c ****         /*If not focused by an input device assume the last input device*/
 550:lvgl/src/widgets/lv_btnmatrix.c ****         if(indev == NULL) {
 551:lvgl/src/widgets/lv_btnmatrix.c ****             indev = lv_indev_get_next(NULL);
 552:lvgl/src/widgets/lv_btnmatrix.c ****             indev_type = lv_indev_get_type(indev);
 553:lvgl/src/widgets/lv_btnmatrix.c ****         }
 554:lvgl/src/widgets/lv_btnmatrix.c **** 
 555:lvgl/src/widgets/lv_btnmatrix.c ****         bool editing = lv_group_get_editing(lv_obj_get_group(obj));
 556:lvgl/src/widgets/lv_btnmatrix.c ****         /*Focus the first button if there is not selected button*/
 557:lvgl/src/widgets/lv_btnmatrix.c ****         if(btnm->btn_id_sel == LV_BTNMATRIX_BTN_NONE) {
 558:lvgl/src/widgets/lv_btnmatrix.c ****             if(indev_type == LV_INDEV_TYPE_KEYPAD || (indev_type == LV_INDEV_TYPE_ENCODER && editin
 559:lvgl/src/widgets/lv_btnmatrix.c ****                 uint32_t b = 0;
 560:lvgl/src/widgets/lv_btnmatrix.c ****                 if(btnm->one_check) {
 561:lvgl/src/widgets/lv_btnmatrix.c ****                     while(button_is_hidden(btnm->ctrl_bits[b]) || button_is_inactive(btnm->ctrl_bit
 562:lvgl/src/widgets/lv_btnmatrix.c ****                           button_is_checked(btnm->ctrl_bits[b]) == false) b++;
 563:lvgl/src/widgets/lv_btnmatrix.c ****                 }
 564:lvgl/src/widgets/lv_btnmatrix.c ****                 else {
 565:lvgl/src/widgets/lv_btnmatrix.c ****                     while(button_is_hidden(btnm->ctrl_bits[b]) || button_is_inactive(btnm->ctrl_bit
 566:lvgl/src/widgets/lv_btnmatrix.c ****                 }
 567:lvgl/src/widgets/lv_btnmatrix.c **** 
 568:lvgl/src/widgets/lv_btnmatrix.c ****                 btnm->btn_id_sel = b;
 569:lvgl/src/widgets/lv_btnmatrix.c ****             }
 570:lvgl/src/widgets/lv_btnmatrix.c ****             else {
 571:lvgl/src/widgets/lv_btnmatrix.c ****                 btnm->btn_id_sel = LV_BTNMATRIX_BTN_NONE;
 572:lvgl/src/widgets/lv_btnmatrix.c ****             }
 573:lvgl/src/widgets/lv_btnmatrix.c ****         }
 574:lvgl/src/widgets/lv_btnmatrix.c ****     }
 575:lvgl/src/widgets/lv_btnmatrix.c ****     else if(code == LV_EVENT_DEFOCUSED || code == LV_EVENT_LEAVE) {
 576:lvgl/src/widgets/lv_btnmatrix.c ****         if(btnm->btn_id_sel != LV_BTNMATRIX_BTN_NONE) invalidate_button_area(obj, btnm->btn_id_sel)
 577:lvgl/src/widgets/lv_btnmatrix.c ****         btnm->btn_id_sel = LV_BTNMATRIX_BTN_NONE;
 578:lvgl/src/widgets/lv_btnmatrix.c ****     }
 579:lvgl/src/widgets/lv_btnmatrix.c ****     else if(code == LV_EVENT_KEY) {
 580:lvgl/src/widgets/lv_btnmatrix.c **** 
 581:lvgl/src/widgets/lv_btnmatrix.c ****         invalidate_button_area(obj, btnm->btn_id_sel);
 582:lvgl/src/widgets/lv_btnmatrix.c **** 
 583:lvgl/src/widgets/lv_btnmatrix.c ****         char c = *((char *)lv_event_get_param(e));
 584:lvgl/src/widgets/lv_btnmatrix.c ****         if(c == LV_KEY_RIGHT) {
 585:lvgl/src/widgets/lv_btnmatrix.c ****             if(btnm->btn_id_sel == LV_BTNMATRIX_BTN_NONE)  btnm->btn_id_sel = 0;
 586:lvgl/src/widgets/lv_btnmatrix.c ****             else btnm->btn_id_sel++;
 587:lvgl/src/widgets/lv_btnmatrix.c ****             if(btnm->btn_id_sel >= btnm->btn_cnt) btnm->btn_id_sel = 0;
 588:lvgl/src/widgets/lv_btnmatrix.c **** 
 589:lvgl/src/widgets/lv_btnmatrix.c ****             uint16_t btn_id_start = btnm->btn_id_sel;
 590:lvgl/src/widgets/lv_btnmatrix.c ****             while(button_is_hidden(btnm->ctrl_bits[btnm->btn_id_sel]) || button_is_inactive(btnm->c
 591:lvgl/src/widgets/lv_btnmatrix.c ****                 btnm->btn_id_sel++;
 592:lvgl/src/widgets/lv_btnmatrix.c ****                 if(btnm->btn_id_sel >= btnm->btn_cnt) btnm->btn_id_sel = 0;
 593:lvgl/src/widgets/lv_btnmatrix.c **** 
 594:lvgl/src/widgets/lv_btnmatrix.c ****                 if(btnm->btn_id_sel == btn_id_start) {
 595:lvgl/src/widgets/lv_btnmatrix.c ****                     btnm->btn_id_sel = LV_BTNMATRIX_BTN_NONE;
 596:lvgl/src/widgets/lv_btnmatrix.c ****                     break;
 597:lvgl/src/widgets/lv_btnmatrix.c ****                 }
 598:lvgl/src/widgets/lv_btnmatrix.c ****             }
 599:lvgl/src/widgets/lv_btnmatrix.c ****         }
 600:lvgl/src/widgets/lv_btnmatrix.c ****         else if(c == LV_KEY_LEFT) {
 601:lvgl/src/widgets/lv_btnmatrix.c ****             if(btnm->btn_id_sel == LV_BTNMATRIX_BTN_NONE) btnm->btn_id_sel = 0;
ARM GAS  C:\Users\OSD\AppData\Local\Temp\ccnvvkrZ.s 			page 12


 602:lvgl/src/widgets/lv_btnmatrix.c **** 
 603:lvgl/src/widgets/lv_btnmatrix.c ****             if(btnm->btn_id_sel == 0) btnm->btn_id_sel = btnm->btn_cnt - 1;
 604:lvgl/src/widgets/lv_btnmatrix.c ****             else if(btnm->btn_id_sel > 0) btnm->btn_id_sel--;
 605:lvgl/src/widgets/lv_btnmatrix.c **** 
 606:lvgl/src/widgets/lv_btnmatrix.c ****             uint16_t btn_id_start = btnm->btn_id_sel;
 607:lvgl/src/widgets/lv_btnmatrix.c ****             while(button_is_hidden(btnm->ctrl_bits[btnm->btn_id_sel]) || button_is_inactive(btnm->c
 608:lvgl/src/widgets/lv_btnmatrix.c ****                 if(btnm->btn_id_sel > 0) btnm->btn_id_sel--;
 609:lvgl/src/widgets/lv_btnmatrix.c ****                 else btnm->btn_id_sel = btnm->btn_cnt - 1;
 610:lvgl/src/widgets/lv_btnmatrix.c **** 
 611:lvgl/src/widgets/lv_btnmatrix.c ****                 if(btnm->btn_id_sel == btn_id_start) {
 612:lvgl/src/widgets/lv_btnmatrix.c ****                     btnm->btn_id_sel = LV_BTNMATRIX_BTN_NONE;
 613:lvgl/src/widgets/lv_btnmatrix.c ****                     break;
 614:lvgl/src/widgets/lv_btnmatrix.c ****                 }
 615:lvgl/src/widgets/lv_btnmatrix.c ****             }
 616:lvgl/src/widgets/lv_btnmatrix.c ****         }
 617:lvgl/src/widgets/lv_btnmatrix.c ****         else if(c == LV_KEY_DOWN) {
 618:lvgl/src/widgets/lv_btnmatrix.c ****             lv_coord_t col_gap = lv_obj_get_style_pad_column(obj, LV_PART_MAIN);
 619:lvgl/src/widgets/lv_btnmatrix.c ****             /*Find the area below the current*/
 620:lvgl/src/widgets/lv_btnmatrix.c ****             if(btnm->btn_id_sel == LV_BTNMATRIX_BTN_NONE) {
 621:lvgl/src/widgets/lv_btnmatrix.c ****                 btnm->btn_id_sel = 0;
 622:lvgl/src/widgets/lv_btnmatrix.c ****                 while(button_is_hidden(btnm->ctrl_bits[btnm->btn_id_sel]) || button_is_inactive(btn
 623:lvgl/src/widgets/lv_btnmatrix.c ****                     btnm->btn_id_sel++;
 624:lvgl/src/widgets/lv_btnmatrix.c ****                     if(btnm->btn_id_sel >= btnm->btn_cnt) {
 625:lvgl/src/widgets/lv_btnmatrix.c ****                         btnm->btn_id_sel = LV_BTNMATRIX_BTN_NONE;
 626:lvgl/src/widgets/lv_btnmatrix.c ****                         break;
 627:lvgl/src/widgets/lv_btnmatrix.c ****                     }
 628:lvgl/src/widgets/lv_btnmatrix.c ****                 }
 629:lvgl/src/widgets/lv_btnmatrix.c ****             }
 630:lvgl/src/widgets/lv_btnmatrix.c ****             else {
 631:lvgl/src/widgets/lv_btnmatrix.c ****                 uint16_t area_below;
 632:lvgl/src/widgets/lv_btnmatrix.c ****                 lv_coord_t pr_center =
 633:lvgl/src/widgets/lv_btnmatrix.c ****                     btnm->button_areas[btnm->btn_id_sel].x1 + (lv_area_get_width(&btnm->button_area
 634:lvgl/src/widgets/lv_btnmatrix.c **** 
 635:lvgl/src/widgets/lv_btnmatrix.c ****                 for(area_below = btnm->btn_id_sel; area_below < btnm->btn_cnt; area_below++) {
 636:lvgl/src/widgets/lv_btnmatrix.c ****                     if(btnm->button_areas[area_below].y1 > btnm->button_areas[btnm->btn_id_sel].y1 
 637:lvgl/src/widgets/lv_btnmatrix.c ****                        pr_center >= btnm->button_areas[area_below].x1 &&
 638:lvgl/src/widgets/lv_btnmatrix.c ****                        pr_center <= btnm->button_areas[area_below].x2 + col_gap &&
 639:lvgl/src/widgets/lv_btnmatrix.c ****                        button_is_inactive(btnm->ctrl_bits[area_below]) == false &&
 640:lvgl/src/widgets/lv_btnmatrix.c ****                        button_is_hidden(btnm->ctrl_bits[area_below]) == false) {
 641:lvgl/src/widgets/lv_btnmatrix.c ****                         break;
 642:lvgl/src/widgets/lv_btnmatrix.c ****                     }
 643:lvgl/src/widgets/lv_btnmatrix.c ****                 }
 644:lvgl/src/widgets/lv_btnmatrix.c **** 
 645:lvgl/src/widgets/lv_btnmatrix.c ****                 if(area_below < btnm->btn_cnt) btnm->btn_id_sel = area_below;
 646:lvgl/src/widgets/lv_btnmatrix.c ****             }
 647:lvgl/src/widgets/lv_btnmatrix.c ****         }
 648:lvgl/src/widgets/lv_btnmatrix.c ****         else if(c == LV_KEY_UP) {
 649:lvgl/src/widgets/lv_btnmatrix.c ****             lv_coord_t col_gap = lv_obj_get_style_pad_column(obj, LV_PART_MAIN);
 650:lvgl/src/widgets/lv_btnmatrix.c ****             /*Find the area below the current*/
 651:lvgl/src/widgets/lv_btnmatrix.c ****             if(btnm->btn_id_sel == LV_BTNMATRIX_BTN_NONE) {
 652:lvgl/src/widgets/lv_btnmatrix.c ****                 btnm->btn_id_sel = 0;
 653:lvgl/src/widgets/lv_btnmatrix.c ****                 while(button_is_hidden(btnm->ctrl_bits[btnm->btn_id_sel]) || button_is_inactive(btn
 654:lvgl/src/widgets/lv_btnmatrix.c ****                     btnm->btn_id_sel++;
 655:lvgl/src/widgets/lv_btnmatrix.c ****                     if(btnm->btn_id_sel >= btnm->btn_cnt) {
 656:lvgl/src/widgets/lv_btnmatrix.c ****                         btnm->btn_id_sel = LV_BTNMATRIX_BTN_NONE;
 657:lvgl/src/widgets/lv_btnmatrix.c ****                         break;
 658:lvgl/src/widgets/lv_btnmatrix.c ****                     }
ARM GAS  C:\Users\OSD\AppData\Local\Temp\ccnvvkrZ.s 			page 13


 659:lvgl/src/widgets/lv_btnmatrix.c ****                 }
 660:lvgl/src/widgets/lv_btnmatrix.c ****             }
 661:lvgl/src/widgets/lv_btnmatrix.c ****             else {
 662:lvgl/src/widgets/lv_btnmatrix.c ****                 int16_t area_above;
 663:lvgl/src/widgets/lv_btnmatrix.c ****                 lv_coord_t pr_center =
 664:lvgl/src/widgets/lv_btnmatrix.c ****                     btnm->button_areas[btnm->btn_id_sel].x1 + (lv_area_get_width(&btnm->button_area
 665:lvgl/src/widgets/lv_btnmatrix.c **** 
 666:lvgl/src/widgets/lv_btnmatrix.c ****                 for(area_above = btnm->btn_id_sel; area_above >= 0; area_above--) {
 667:lvgl/src/widgets/lv_btnmatrix.c ****                     if(btnm->button_areas[area_above].y1 < btnm->button_areas[btnm->btn_id_sel].y1 
 668:lvgl/src/widgets/lv_btnmatrix.c ****                        pr_center >= btnm->button_areas[area_above].x1 - col_gap &&
 669:lvgl/src/widgets/lv_btnmatrix.c ****                        pr_center <= btnm->button_areas[area_above].x2 &&
 670:lvgl/src/widgets/lv_btnmatrix.c ****                        button_is_inactive(btnm->ctrl_bits[area_above]) == false &&
 671:lvgl/src/widgets/lv_btnmatrix.c ****                        button_is_hidden(btnm->ctrl_bits[area_above]) == false) {
 672:lvgl/src/widgets/lv_btnmatrix.c ****                         break;
 673:lvgl/src/widgets/lv_btnmatrix.c ****                     }
 674:lvgl/src/widgets/lv_btnmatrix.c ****                 }
 675:lvgl/src/widgets/lv_btnmatrix.c ****                 if(area_above >= 0) btnm->btn_id_sel = area_above;
 676:lvgl/src/widgets/lv_btnmatrix.c ****             }
 677:lvgl/src/widgets/lv_btnmatrix.c ****         }
 678:lvgl/src/widgets/lv_btnmatrix.c **** 
 679:lvgl/src/widgets/lv_btnmatrix.c ****         invalidate_button_area(obj, btnm->btn_id_sel);
 680:lvgl/src/widgets/lv_btnmatrix.c ****     }
 681:lvgl/src/widgets/lv_btnmatrix.c ****     else if(code == LV_EVENT_DRAW_MAIN) {
 682:lvgl/src/widgets/lv_btnmatrix.c ****         draw_main(e);
 683:lvgl/src/widgets/lv_btnmatrix.c ****     }
 684:lvgl/src/widgets/lv_btnmatrix.c **** 
 685:lvgl/src/widgets/lv_btnmatrix.c **** }
 686:lvgl/src/widgets/lv_btnmatrix.c **** 
 687:lvgl/src/widgets/lv_btnmatrix.c **** static void draw_main(lv_event_t * e)
 688:lvgl/src/widgets/lv_btnmatrix.c **** {
 689:lvgl/src/widgets/lv_btnmatrix.c ****     lv_obj_t * obj = lv_event_get_target(e);
 690:lvgl/src/widgets/lv_btnmatrix.c ****     lv_btnmatrix_t * btnm = (lv_btnmatrix_t *)obj;
 691:lvgl/src/widgets/lv_btnmatrix.c ****     if(btnm->btn_cnt == 0) return;
 692:lvgl/src/widgets/lv_btnmatrix.c **** 
 693:lvgl/src/widgets/lv_btnmatrix.c ****     lv_draw_ctx_t * draw_ctx = lv_event_get_draw_ctx(e);
 694:lvgl/src/widgets/lv_btnmatrix.c ****     obj->skip_trans = 1;
 695:lvgl/src/widgets/lv_btnmatrix.c **** 
 696:lvgl/src/widgets/lv_btnmatrix.c ****     lv_area_t area_obj;
 697:lvgl/src/widgets/lv_btnmatrix.c ****     lv_obj_get_coords(obj, &area_obj);
 698:lvgl/src/widgets/lv_btnmatrix.c **** 
 699:lvgl/src/widgets/lv_btnmatrix.c ****     lv_area_t btn_area;
 700:lvgl/src/widgets/lv_btnmatrix.c **** 
 701:lvgl/src/widgets/lv_btnmatrix.c ****     uint16_t btn_i = 0;
 702:lvgl/src/widgets/lv_btnmatrix.c ****     uint16_t txt_i = 0;
 703:lvgl/src/widgets/lv_btnmatrix.c **** 
 704:lvgl/src/widgets/lv_btnmatrix.c ****     lv_draw_rect_dsc_t draw_rect_dsc_act;
 705:lvgl/src/widgets/lv_btnmatrix.c ****     lv_draw_label_dsc_t draw_label_dsc_act;
 706:lvgl/src/widgets/lv_btnmatrix.c **** 
 707:lvgl/src/widgets/lv_btnmatrix.c ****     lv_draw_rect_dsc_t draw_rect_dsc_def;
 708:lvgl/src/widgets/lv_btnmatrix.c ****     lv_draw_label_dsc_t draw_label_dsc_def;
 709:lvgl/src/widgets/lv_btnmatrix.c **** 
 710:lvgl/src/widgets/lv_btnmatrix.c ****     lv_state_t state_ori = obj->state;
 711:lvgl/src/widgets/lv_btnmatrix.c ****     obj->state = LV_STATE_DEFAULT;
 712:lvgl/src/widgets/lv_btnmatrix.c ****     obj->skip_trans = 1;
 713:lvgl/src/widgets/lv_btnmatrix.c ****     lv_draw_rect_dsc_init(&draw_rect_dsc_def);
 714:lvgl/src/widgets/lv_btnmatrix.c ****     lv_draw_label_dsc_init(&draw_label_dsc_def);
 715:lvgl/src/widgets/lv_btnmatrix.c ****     lv_obj_init_draw_rect_dsc(obj, LV_PART_ITEMS, &draw_rect_dsc_def);
ARM GAS  C:\Users\OSD\AppData\Local\Temp\ccnvvkrZ.s 			page 14


 716:lvgl/src/widgets/lv_btnmatrix.c ****     lv_obj_init_draw_label_dsc(obj, LV_PART_ITEMS, &draw_label_dsc_def);
 717:lvgl/src/widgets/lv_btnmatrix.c ****     obj->skip_trans = 0;
 718:lvgl/src/widgets/lv_btnmatrix.c ****     obj->state = state_ori;
 719:lvgl/src/widgets/lv_btnmatrix.c **** 
 720:lvgl/src/widgets/lv_btnmatrix.c ****     lv_coord_t ptop = lv_obj_get_style_pad_top(obj, LV_PART_MAIN);
 721:lvgl/src/widgets/lv_btnmatrix.c ****     lv_coord_t pbottom = lv_obj_get_style_pad_bottom(obj, LV_PART_MAIN);
 722:lvgl/src/widgets/lv_btnmatrix.c ****     lv_coord_t pleft = lv_obj_get_style_pad_left(obj, LV_PART_MAIN);
 723:lvgl/src/widgets/lv_btnmatrix.c ****     lv_coord_t pright = lv_obj_get_style_pad_right(obj, LV_PART_MAIN);
 724:lvgl/src/widgets/lv_btnmatrix.c **** 
 725:lvgl/src/widgets/lv_btnmatrix.c **** #if LV_USE_ARABIC_PERSIAN_CHARS
 726:lvgl/src/widgets/lv_btnmatrix.c ****     const size_t txt_ap_size = 256 ;
 727:lvgl/src/widgets/lv_btnmatrix.c ****     char * txt_ap = lv_mem_buf_get(txt_ap_size);
 728:lvgl/src/widgets/lv_btnmatrix.c **** #endif
 729:lvgl/src/widgets/lv_btnmatrix.c **** 
 730:lvgl/src/widgets/lv_btnmatrix.c ****     lv_obj_draw_part_dsc_t part_draw_dsc;
 731:lvgl/src/widgets/lv_btnmatrix.c ****     lv_obj_draw_dsc_init(&part_draw_dsc, draw_ctx);
 732:lvgl/src/widgets/lv_btnmatrix.c ****     part_draw_dsc.part = LV_PART_ITEMS;
 733:lvgl/src/widgets/lv_btnmatrix.c ****     part_draw_dsc.class_p = MY_CLASS;
 734:lvgl/src/widgets/lv_btnmatrix.c ****     part_draw_dsc.type = LV_BTNMATRIX_DRAW_PART_BTN;
 735:lvgl/src/widgets/lv_btnmatrix.c ****     part_draw_dsc.rect_dsc = &draw_rect_dsc_act;
 736:lvgl/src/widgets/lv_btnmatrix.c ****     part_draw_dsc.label_dsc = &draw_label_dsc_act;
 737:lvgl/src/widgets/lv_btnmatrix.c **** 
 738:lvgl/src/widgets/lv_btnmatrix.c ****     for(btn_i = 0; btn_i < btnm->btn_cnt; btn_i++, txt_i++) {
 739:lvgl/src/widgets/lv_btnmatrix.c ****         /*Search the next valid text in the map*/
 740:lvgl/src/widgets/lv_btnmatrix.c ****         while(strcmp(btnm->map_p[txt_i], "\n") == 0) {
 741:lvgl/src/widgets/lv_btnmatrix.c ****             txt_i++;
 742:lvgl/src/widgets/lv_btnmatrix.c ****         }
 743:lvgl/src/widgets/lv_btnmatrix.c **** 
 744:lvgl/src/widgets/lv_btnmatrix.c ****         /*Skip hidden buttons*/
 745:lvgl/src/widgets/lv_btnmatrix.c ****         if(button_is_hidden(btnm->ctrl_bits[btn_i])) continue;
 746:lvgl/src/widgets/lv_btnmatrix.c **** 
 747:lvgl/src/widgets/lv_btnmatrix.c ****         /*Get the state of the button*/
 748:lvgl/src/widgets/lv_btnmatrix.c ****         lv_state_t btn_state = LV_STATE_DEFAULT;
 749:lvgl/src/widgets/lv_btnmatrix.c ****         if(button_get_checked(btnm->ctrl_bits[btn_i])) btn_state |= LV_STATE_CHECKED;
 750:lvgl/src/widgets/lv_btnmatrix.c **** 
 751:lvgl/src/widgets/lv_btnmatrix.c ****         if(button_is_inactive(btnm->ctrl_bits[btn_i])) btn_state |= LV_STATE_DISABLED;
 752:lvgl/src/widgets/lv_btnmatrix.c ****         else if(btn_i == btnm->btn_id_sel) {
 753:lvgl/src/widgets/lv_btnmatrix.c ****             if(state_ori & LV_STATE_PRESSED) btn_state |= LV_STATE_PRESSED;
 754:lvgl/src/widgets/lv_btnmatrix.c ****             if(state_ori & LV_STATE_FOCUSED) btn_state |= LV_STATE_FOCUSED;
 755:lvgl/src/widgets/lv_btnmatrix.c ****             if(state_ori & LV_STATE_FOCUS_KEY) btn_state |= LV_STATE_FOCUS_KEY;
 756:lvgl/src/widgets/lv_btnmatrix.c ****             if(state_ori & LV_STATE_EDITED) btn_state |= LV_STATE_EDITED;
 757:lvgl/src/widgets/lv_btnmatrix.c ****         }
 758:lvgl/src/widgets/lv_btnmatrix.c **** 
 759:lvgl/src/widgets/lv_btnmatrix.c ****         /*Get the button's area*/
 760:lvgl/src/widgets/lv_btnmatrix.c ****         lv_area_copy(&btn_area, &btnm->button_areas[btn_i]);
 761:lvgl/src/widgets/lv_btnmatrix.c ****         btn_area.x1 += area_obj.x1;
 762:lvgl/src/widgets/lv_btnmatrix.c ****         btn_area.y1 += area_obj.y1;
 763:lvgl/src/widgets/lv_btnmatrix.c ****         btn_area.x2 += area_obj.x1;
 764:lvgl/src/widgets/lv_btnmatrix.c ****         btn_area.y2 += area_obj.y1;
 765:lvgl/src/widgets/lv_btnmatrix.c **** 
 766:lvgl/src/widgets/lv_btnmatrix.c ****         /*Set up the draw descriptors*/
 767:lvgl/src/widgets/lv_btnmatrix.c ****         if(btn_state == LV_STATE_DEFAULT) {
 768:lvgl/src/widgets/lv_btnmatrix.c ****             lv_memcpy(&draw_rect_dsc_act, &draw_rect_dsc_def, sizeof(lv_draw_rect_dsc_t));
 769:lvgl/src/widgets/lv_btnmatrix.c ****             lv_memcpy(&draw_label_dsc_act, &draw_label_dsc_def, sizeof(lv_draw_label_dsc_t));
 770:lvgl/src/widgets/lv_btnmatrix.c ****         }
 771:lvgl/src/widgets/lv_btnmatrix.c ****         /*In other cases get the styles directly without caching them*/
 772:lvgl/src/widgets/lv_btnmatrix.c ****         else {
ARM GAS  C:\Users\OSD\AppData\Local\Temp\ccnvvkrZ.s 			page 15


 773:lvgl/src/widgets/lv_btnmatrix.c ****             obj->state = btn_state;
 774:lvgl/src/widgets/lv_btnmatrix.c ****             obj->skip_trans = 1;
 775:lvgl/src/widgets/lv_btnmatrix.c ****             lv_draw_rect_dsc_init(&draw_rect_dsc_act);
 776:lvgl/src/widgets/lv_btnmatrix.c ****             lv_draw_label_dsc_init(&draw_label_dsc_act);
 777:lvgl/src/widgets/lv_btnmatrix.c ****             lv_obj_init_draw_rect_dsc(obj, LV_PART_ITEMS, &draw_rect_dsc_act);
 778:lvgl/src/widgets/lv_btnmatrix.c ****             lv_obj_init_draw_label_dsc(obj, LV_PART_ITEMS, &draw_label_dsc_act);
 779:lvgl/src/widgets/lv_btnmatrix.c ****             obj->state = state_ori;
 780:lvgl/src/widgets/lv_btnmatrix.c ****             obj->skip_trans = 0;
 781:lvgl/src/widgets/lv_btnmatrix.c ****         }
 782:lvgl/src/widgets/lv_btnmatrix.c **** 
 783:lvgl/src/widgets/lv_btnmatrix.c ****         bool recolor = button_is_recolor(btnm->ctrl_bits[btn_i]);
 784:lvgl/src/widgets/lv_btnmatrix.c ****         if(recolor) draw_label_dsc_act.flag |= LV_TEXT_FLAG_RECOLOR;
 785:lvgl/src/widgets/lv_btnmatrix.c ****         else draw_label_dsc_act.flag &= ~LV_TEXT_FLAG_RECOLOR;
 786:lvgl/src/widgets/lv_btnmatrix.c **** 
 787:lvgl/src/widgets/lv_btnmatrix.c ****         part_draw_dsc.draw_area = &btn_area;
 788:lvgl/src/widgets/lv_btnmatrix.c ****         part_draw_dsc.id = btn_i;
 789:lvgl/src/widgets/lv_btnmatrix.c ****         lv_event_send(obj, LV_EVENT_DRAW_PART_BEGIN, &part_draw_dsc);
 790:lvgl/src/widgets/lv_btnmatrix.c **** 
 791:lvgl/src/widgets/lv_btnmatrix.c ****         /*Remove borders on the edges if `LV_BORDER_SIDE_INTERNAL`*/
 792:lvgl/src/widgets/lv_btnmatrix.c ****         if(draw_rect_dsc_act.border_side & LV_BORDER_SIDE_INTERNAL) {
 793:lvgl/src/widgets/lv_btnmatrix.c ****             draw_rect_dsc_act.border_side = LV_BORDER_SIDE_FULL;
 794:lvgl/src/widgets/lv_btnmatrix.c ****             if(btn_area.x1 == obj->coords.x1 + pleft) draw_rect_dsc_act.border_side &= ~LV_BORDER_S
 795:lvgl/src/widgets/lv_btnmatrix.c ****             if(btn_area.x2 == obj->coords.x2 - pright) draw_rect_dsc_act.border_side &= ~LV_BORDER_
 796:lvgl/src/widgets/lv_btnmatrix.c ****             if(btn_area.y1 == obj->coords.y1 + ptop) draw_rect_dsc_act.border_side &= ~LV_BORDER_SI
 797:lvgl/src/widgets/lv_btnmatrix.c ****             if(btn_area.y2 == obj->coords.y2 - pbottom) draw_rect_dsc_act.border_side &= ~LV_BORDER
 798:lvgl/src/widgets/lv_btnmatrix.c ****         }
 799:lvgl/src/widgets/lv_btnmatrix.c **** 
 800:lvgl/src/widgets/lv_btnmatrix.c ****         lv_coord_t btn_height = lv_area_get_height(&btn_area);
 801:lvgl/src/widgets/lv_btnmatrix.c **** 
 802:lvgl/src/widgets/lv_btnmatrix.c ****         if((btn_state & LV_STATE_PRESSED) && (btnm->ctrl_bits[btn_i] & LV_BTNMATRIX_CTRL_POPOVER)) 
 803:lvgl/src/widgets/lv_btnmatrix.c ****             /*Push up the upper boundary of the btn area to create the popover*/
 804:lvgl/src/widgets/lv_btnmatrix.c ****             btn_area.y1 -= btn_height;
 805:lvgl/src/widgets/lv_btnmatrix.c ****         }
 806:lvgl/src/widgets/lv_btnmatrix.c **** 
 807:lvgl/src/widgets/lv_btnmatrix.c ****         /*Draw the background*/
 808:lvgl/src/widgets/lv_btnmatrix.c ****         lv_draw_rect(draw_ctx, &draw_rect_dsc_act, &btn_area);
 809:lvgl/src/widgets/lv_btnmatrix.c **** 
 810:lvgl/src/widgets/lv_btnmatrix.c ****         /*Calculate the size of the text*/
 811:lvgl/src/widgets/lv_btnmatrix.c ****         const lv_font_t * font = draw_label_dsc_act.font;
 812:lvgl/src/widgets/lv_btnmatrix.c ****         lv_coord_t letter_space = draw_label_dsc_act.letter_space;
 813:lvgl/src/widgets/lv_btnmatrix.c ****         lv_coord_t line_space = draw_label_dsc_act.line_space;
 814:lvgl/src/widgets/lv_btnmatrix.c ****         const char * txt = btnm->map_p[txt_i];
 815:lvgl/src/widgets/lv_btnmatrix.c **** 
 816:lvgl/src/widgets/lv_btnmatrix.c **** #if LV_USE_ARABIC_PERSIAN_CHARS
 817:lvgl/src/widgets/lv_btnmatrix.c ****         /*Get the size of the Arabic text and process it*/
 818:lvgl/src/widgets/lv_btnmatrix.c ****         size_t len_ap = _lv_txt_ap_calc_bytes_cnt(txt);
 819:lvgl/src/widgets/lv_btnmatrix.c ****         if(len_ap < txt_ap_size) {
 820:lvgl/src/widgets/lv_btnmatrix.c ****             _lv_txt_ap_proc(txt, txt_ap);
 821:lvgl/src/widgets/lv_btnmatrix.c ****             txt = txt_ap;
 822:lvgl/src/widgets/lv_btnmatrix.c ****         }
 823:lvgl/src/widgets/lv_btnmatrix.c **** #endif
 824:lvgl/src/widgets/lv_btnmatrix.c ****         lv_point_t txt_size;
 825:lvgl/src/widgets/lv_btnmatrix.c ****         lv_txt_get_size(&txt_size, txt, font, letter_space,
 826:lvgl/src/widgets/lv_btnmatrix.c ****                         line_space, lv_area_get_width(&area_obj), draw_label_dsc_act.flag);
 827:lvgl/src/widgets/lv_btnmatrix.c **** 
 828:lvgl/src/widgets/lv_btnmatrix.c ****         btn_area.x1 += (lv_area_get_width(&btn_area) - txt_size.x) / 2;
 829:lvgl/src/widgets/lv_btnmatrix.c ****         btn_area.y1 += (lv_area_get_height(&btn_area) - txt_size.y) / 2;
ARM GAS  C:\Users\OSD\AppData\Local\Temp\ccnvvkrZ.s 			page 16


 830:lvgl/src/widgets/lv_btnmatrix.c ****         btn_area.x2 = btn_area.x1 + txt_size.x;
 831:lvgl/src/widgets/lv_btnmatrix.c ****         btn_area.y2 = btn_area.y1 + txt_size.y;
 832:lvgl/src/widgets/lv_btnmatrix.c **** 
 833:lvgl/src/widgets/lv_btnmatrix.c ****         if((btn_state & LV_STATE_PRESSED) && (btnm->ctrl_bits[btn_i] & LV_BTNMATRIX_CTRL_POPOVER)) 
 834:lvgl/src/widgets/lv_btnmatrix.c ****             /*Push up the button text into the popover*/
 835:lvgl/src/widgets/lv_btnmatrix.c ****             btn_area.y1 -= btn_height / 2;
 836:lvgl/src/widgets/lv_btnmatrix.c ****             btn_area.y2 -= btn_height / 2;
 837:lvgl/src/widgets/lv_btnmatrix.c ****         }
 838:lvgl/src/widgets/lv_btnmatrix.c **** 
 839:lvgl/src/widgets/lv_btnmatrix.c ****         /*Draw the text*/
 840:lvgl/src/widgets/lv_btnmatrix.c ****         lv_draw_label(draw_ctx, &draw_label_dsc_act, &btn_area, txt, NULL);
 841:lvgl/src/widgets/lv_btnmatrix.c **** 
 842:lvgl/src/widgets/lv_btnmatrix.c ****         lv_event_send(obj, LV_EVENT_DRAW_PART_END, &part_draw_dsc);
 843:lvgl/src/widgets/lv_btnmatrix.c ****     }
 844:lvgl/src/widgets/lv_btnmatrix.c **** 
 845:lvgl/src/widgets/lv_btnmatrix.c ****     obj->skip_trans = 0;
 846:lvgl/src/widgets/lv_btnmatrix.c **** #if LV_USE_ARABIC_PERSIAN_CHARS
 847:lvgl/src/widgets/lv_btnmatrix.c ****     lv_mem_buf_release(txt_ap);
 848:lvgl/src/widgets/lv_btnmatrix.c **** #endif
 849:lvgl/src/widgets/lv_btnmatrix.c **** }
 850:lvgl/src/widgets/lv_btnmatrix.c **** /**
 851:lvgl/src/widgets/lv_btnmatrix.c ****  * Create the required number of buttons and control bytes according to a map
 852:lvgl/src/widgets/lv_btnmatrix.c ****  * @param obj pointer to button matrix object
 853:lvgl/src/widgets/lv_btnmatrix.c ****  * @param map_p pointer to a string array
 854:lvgl/src/widgets/lv_btnmatrix.c ****  */
 855:lvgl/src/widgets/lv_btnmatrix.c **** static void allocate_btn_areas_and_controls(const lv_obj_t * obj, const char ** map)
 856:lvgl/src/widgets/lv_btnmatrix.c **** {
 857:lvgl/src/widgets/lv_btnmatrix.c ****     lv_btnmatrix_t * btnm = (lv_btnmatrix_t *)obj;
 858:lvgl/src/widgets/lv_btnmatrix.c ****     btnm->row_cnt = 1;
 859:lvgl/src/widgets/lv_btnmatrix.c ****     /*Count the buttons in the map*/
 860:lvgl/src/widgets/lv_btnmatrix.c ****     uint16_t btn_cnt = 0;
 861:lvgl/src/widgets/lv_btnmatrix.c ****     uint16_t i       = 0;
 862:lvgl/src/widgets/lv_btnmatrix.c ****     while(map[i] && map[i][0] != '\0') {
 863:lvgl/src/widgets/lv_btnmatrix.c ****         if(strcmp(map[i], "\n") != 0) { /*Do not count line breaks*/
 864:lvgl/src/widgets/lv_btnmatrix.c ****             btn_cnt++;
 865:lvgl/src/widgets/lv_btnmatrix.c ****         }
 866:lvgl/src/widgets/lv_btnmatrix.c ****         else {
 867:lvgl/src/widgets/lv_btnmatrix.c ****             btnm->row_cnt++;
 868:lvgl/src/widgets/lv_btnmatrix.c ****         }
 869:lvgl/src/widgets/lv_btnmatrix.c ****         i++;
 870:lvgl/src/widgets/lv_btnmatrix.c ****     }
 871:lvgl/src/widgets/lv_btnmatrix.c **** 
 872:lvgl/src/widgets/lv_btnmatrix.c ****     /*Do not allocate memory for the same amount of buttons*/
 873:lvgl/src/widgets/lv_btnmatrix.c ****     if(btn_cnt == btnm->btn_cnt) return;
 874:lvgl/src/widgets/lv_btnmatrix.c **** 
 875:lvgl/src/widgets/lv_btnmatrix.c ****     if(btnm->button_areas != NULL) {
 876:lvgl/src/widgets/lv_btnmatrix.c ****         lv_mem_free(btnm->button_areas);
 877:lvgl/src/widgets/lv_btnmatrix.c ****         btnm->button_areas = NULL;
 878:lvgl/src/widgets/lv_btnmatrix.c ****     }
 879:lvgl/src/widgets/lv_btnmatrix.c ****     if(btnm->ctrl_bits != NULL) {
 880:lvgl/src/widgets/lv_btnmatrix.c ****         lv_mem_free(btnm->ctrl_bits);
 881:lvgl/src/widgets/lv_btnmatrix.c ****         btnm->ctrl_bits = NULL;
 882:lvgl/src/widgets/lv_btnmatrix.c ****     }
 883:lvgl/src/widgets/lv_btnmatrix.c **** 
 884:lvgl/src/widgets/lv_btnmatrix.c ****     btnm->button_areas = lv_mem_alloc(sizeof(lv_area_t) * btn_cnt);
 885:lvgl/src/widgets/lv_btnmatrix.c ****     LV_ASSERT_MALLOC(btnm->button_areas);
 886:lvgl/src/widgets/lv_btnmatrix.c ****     btnm->ctrl_bits = lv_mem_alloc(sizeof(lv_btnmatrix_ctrl_t) * btn_cnt);
ARM GAS  C:\Users\OSD\AppData\Local\Temp\ccnvvkrZ.s 			page 17


 887:lvgl/src/widgets/lv_btnmatrix.c ****     LV_ASSERT_MALLOC(btnm->ctrl_bits);
 888:lvgl/src/widgets/lv_btnmatrix.c ****     if(btnm->button_areas == NULL || btnm->ctrl_bits == NULL) btn_cnt = 0;
 889:lvgl/src/widgets/lv_btnmatrix.c **** 
 890:lvgl/src/widgets/lv_btnmatrix.c ****     lv_memset_00(btnm->ctrl_bits, sizeof(lv_btnmatrix_ctrl_t) * btn_cnt);
 891:lvgl/src/widgets/lv_btnmatrix.c **** 
 892:lvgl/src/widgets/lv_btnmatrix.c ****     btnm->btn_cnt = btn_cnt;
 893:lvgl/src/widgets/lv_btnmatrix.c **** }
 894:lvgl/src/widgets/lv_btnmatrix.c **** 
 895:lvgl/src/widgets/lv_btnmatrix.c **** /**
 896:lvgl/src/widgets/lv_btnmatrix.c ****  * Get the width of a button in units (default is 1).
 897:lvgl/src/widgets/lv_btnmatrix.c ****  * @param ctrl_bits least significant 3 bits used (1..7 valid values)
 898:lvgl/src/widgets/lv_btnmatrix.c ****  * @return the width of the button in units
 899:lvgl/src/widgets/lv_btnmatrix.c ****  */
 900:lvgl/src/widgets/lv_btnmatrix.c **** static uint8_t get_button_width(lv_btnmatrix_ctrl_t ctrl_bits)
 901:lvgl/src/widgets/lv_btnmatrix.c **** {
  28              		.loc 1 901 1 view -0
  29              		.cfi_startproc
  30              		@ args = 0, pretend = 0, frame = 0
  31              		@ frame_needed = 0, uses_anonymous_args = 0
  32              		@ link register save eliminated.
 902:lvgl/src/widgets/lv_btnmatrix.c ****     uint8_t w = ctrl_bits & LV_BTNMATRIX_WIDTH_MASK;
  33              		.loc 1 902 5 view .LVU1
 903:lvgl/src/widgets/lv_btnmatrix.c ****     return w != 0 ? w : 1;
  34              		.loc 1 903 5 view .LVU2
  35              		.loc 1 903 23 is_stmt 0 view .LVU3
  36 0000 10F00F00 		ands	r0, r0, #15
  37              	.LVL1:
  38              		.loc 1 903 23 view .LVU4
  39 0004 00D1     		bne	.L2
  40 0006 0120     		movs	r0, #1
  41              	.L2:
 904:lvgl/src/widgets/lv_btnmatrix.c **** }
  42              		.loc 1 904 1 discriminator 4 view .LVU5
  43 0008 7047     		bx	lr
  44              		.cfi_endproc
  45              	.LFE181:
  47              		.section	.text.button_is_hidden,"ax",%progbits
  48              		.align	1
  49              		.syntax unified
  50              		.thumb
  51              		.thumb_func
  53              	button_is_hidden:
  54              	.LVL2:
  55              	.LFB182:
 905:lvgl/src/widgets/lv_btnmatrix.c **** 
 906:lvgl/src/widgets/lv_btnmatrix.c **** static bool button_is_hidden(lv_btnmatrix_ctrl_t ctrl_bits)
 907:lvgl/src/widgets/lv_btnmatrix.c **** {
  56              		.loc 1 907 1 is_stmt 1 view -0
  57              		.cfi_startproc
  58              		@ args = 0, pretend = 0, frame = 0
  59              		@ frame_needed = 0, uses_anonymous_args = 0
  60              		@ link register save eliminated.
 908:lvgl/src/widgets/lv_btnmatrix.c ****     return (ctrl_bits & LV_BTNMATRIX_CTRL_HIDDEN) ? true : false;
  61              		.loc 1 908 5 view .LVU7
 909:lvgl/src/widgets/lv_btnmatrix.c **** }
  62              		.loc 1 909 1 is_stmt 0 view .LVU8
  63 0000 C0F30010 		ubfx	r0, r0, #4, #1
ARM GAS  C:\Users\OSD\AppData\Local\Temp\ccnvvkrZ.s 			page 18


  64              	.LVL3:
  65              		.loc 1 909 1 view .LVU9
  66 0004 7047     		bx	lr
  67              		.cfi_endproc
  68              	.LFE182:
  70              		.section	.text.button_is_checked,"ax",%progbits
  71              		.align	1
  72              		.syntax unified
  73              		.thumb
  74              		.thumb_func
  76              	button_is_checked:
  77              	.LVL4:
  78              	.LFB183:
 910:lvgl/src/widgets/lv_btnmatrix.c **** 
 911:lvgl/src/widgets/lv_btnmatrix.c **** static bool button_is_checked(lv_btnmatrix_ctrl_t ctrl_bits)
 912:lvgl/src/widgets/lv_btnmatrix.c **** {
  79              		.loc 1 912 1 is_stmt 1 view -0
  80              		.cfi_startproc
  81              		@ args = 0, pretend = 0, frame = 0
  82              		@ frame_needed = 0, uses_anonymous_args = 0
  83              		@ link register save eliminated.
 913:lvgl/src/widgets/lv_btnmatrix.c ****     return (ctrl_bits & LV_BTNMATRIX_CTRL_CHECKED) ? true : false;
  84              		.loc 1 913 5 view .LVU11
 914:lvgl/src/widgets/lv_btnmatrix.c **** }
  85              		.loc 1 914 1 is_stmt 0 view .LVU12
  86 0000 C0F30020 		ubfx	r0, r0, #8, #1
  87              	.LVL5:
  88              		.loc 1 914 1 view .LVU13
  89 0004 7047     		bx	lr
  90              		.cfi_endproc
  91              	.LFE183:
  93              		.section	.text.button_is_repeat_disabled,"ax",%progbits
  94              		.align	1
  95              		.syntax unified
  96              		.thumb
  97              		.thumb_func
  99              	button_is_repeat_disabled:
 100              	.LVL6:
 101              	.LFB184:
 915:lvgl/src/widgets/lv_btnmatrix.c **** 
 916:lvgl/src/widgets/lv_btnmatrix.c **** static bool button_is_repeat_disabled(lv_btnmatrix_ctrl_t ctrl_bits)
 917:lvgl/src/widgets/lv_btnmatrix.c **** {
 102              		.loc 1 917 1 is_stmt 1 view -0
 103              		.cfi_startproc
 104              		@ args = 0, pretend = 0, frame = 0
 105              		@ frame_needed = 0, uses_anonymous_args = 0
 106              		@ link register save eliminated.
 918:lvgl/src/widgets/lv_btnmatrix.c ****     return (ctrl_bits & LV_BTNMATRIX_CTRL_NO_REPEAT) ? true : false;
 107              		.loc 1 918 5 view .LVU15
 919:lvgl/src/widgets/lv_btnmatrix.c **** }
 108              		.loc 1 919 1 is_stmt 0 view .LVU16
 109 0000 C0F34010 		ubfx	r0, r0, #5, #1
 110              	.LVL7:
 111              		.loc 1 919 1 view .LVU17
 112 0004 7047     		bx	lr
 113              		.cfi_endproc
 114              	.LFE184:
ARM GAS  C:\Users\OSD\AppData\Local\Temp\ccnvvkrZ.s 			page 19


 116              		.section	.text.button_is_inactive,"ax",%progbits
 117              		.align	1
 118              		.syntax unified
 119              		.thumb
 120              		.thumb_func
 122              	button_is_inactive:
 123              	.LVL8:
 124              	.LFB185:
 920:lvgl/src/widgets/lv_btnmatrix.c **** 
 921:lvgl/src/widgets/lv_btnmatrix.c **** static bool button_is_inactive(lv_btnmatrix_ctrl_t ctrl_bits)
 922:lvgl/src/widgets/lv_btnmatrix.c **** {
 125              		.loc 1 922 1 is_stmt 1 view -0
 126              		.cfi_startproc
 127              		@ args = 0, pretend = 0, frame = 0
 128              		@ frame_needed = 0, uses_anonymous_args = 0
 129              		@ link register save eliminated.
 923:lvgl/src/widgets/lv_btnmatrix.c ****     return (ctrl_bits & LV_BTNMATRIX_CTRL_DISABLED) ? true : false;
 130              		.loc 1 923 5 view .LVU19
 924:lvgl/src/widgets/lv_btnmatrix.c **** }
 131              		.loc 1 924 1 is_stmt 0 view .LVU20
 132 0000 C0F38010 		ubfx	r0, r0, #6, #1
 133              	.LVL9:
 134              		.loc 1 924 1 view .LVU21
 135 0004 7047     		bx	lr
 136              		.cfi_endproc
 137              	.LFE185:
 139              		.section	.text.button_is_click_trig,"ax",%progbits
 140              		.align	1
 141              		.syntax unified
 142              		.thumb
 143              		.thumb_func
 145              	button_is_click_trig:
 146              	.LVL10:
 147              	.LFB186:
 925:lvgl/src/widgets/lv_btnmatrix.c **** 
 926:lvgl/src/widgets/lv_btnmatrix.c **** static bool button_is_click_trig(lv_btnmatrix_ctrl_t ctrl_bits)
 927:lvgl/src/widgets/lv_btnmatrix.c **** {
 148              		.loc 1 927 1 is_stmt 1 view -0
 149              		.cfi_startproc
 150              		@ args = 0, pretend = 0, frame = 0
 151              		@ frame_needed = 0, uses_anonymous_args = 0
 152              		@ link register save eliminated.
 928:lvgl/src/widgets/lv_btnmatrix.c ****     return (ctrl_bits & LV_BTNMATRIX_CTRL_CLICK_TRIG) ? true : false;
 153              		.loc 1 928 5 view .LVU23
 929:lvgl/src/widgets/lv_btnmatrix.c **** }
 154              		.loc 1 929 1 is_stmt 0 view .LVU24
 155 0000 C0F34020 		ubfx	r0, r0, #9, #1
 156              	.LVL11:
 157              		.loc 1 929 1 view .LVU25
 158 0004 7047     		bx	lr
 159              		.cfi_endproc
 160              	.LFE186:
 162              		.section	.text.button_is_popover,"ax",%progbits
 163              		.align	1
 164              		.syntax unified
 165              		.thumb
 166              		.thumb_func
ARM GAS  C:\Users\OSD\AppData\Local\Temp\ccnvvkrZ.s 			page 20


 168              	button_is_popover:
 169              	.LVL12:
 170              	.LFB187:
 930:lvgl/src/widgets/lv_btnmatrix.c **** 
 931:lvgl/src/widgets/lv_btnmatrix.c **** static bool button_is_popover(lv_btnmatrix_ctrl_t ctrl_bits)
 932:lvgl/src/widgets/lv_btnmatrix.c **** {
 171              		.loc 1 932 1 is_stmt 1 view -0
 172              		.cfi_startproc
 173              		@ args = 0, pretend = 0, frame = 0
 174              		@ frame_needed = 0, uses_anonymous_args = 0
 175              		@ link register save eliminated.
 933:lvgl/src/widgets/lv_btnmatrix.c ****     return (ctrl_bits & LV_BTNMATRIX_CTRL_POPOVER) ? true : false;
 176              		.loc 1 933 5 view .LVU27
 934:lvgl/src/widgets/lv_btnmatrix.c **** }
 177              		.loc 1 934 1 is_stmt 0 view .LVU28
 178 0000 C0F38020 		ubfx	r0, r0, #10, #1
 179              	.LVL13:
 180              		.loc 1 934 1 view .LVU29
 181 0004 7047     		bx	lr
 182              		.cfi_endproc
 183              	.LFE187:
 185              		.section	.text.button_is_checkable,"ax",%progbits
 186              		.align	1
 187              		.syntax unified
 188              		.thumb
 189              		.thumb_func
 191              	button_is_checkable:
 192              	.LVL14:
 193              	.LFB188:
 935:lvgl/src/widgets/lv_btnmatrix.c **** 
 936:lvgl/src/widgets/lv_btnmatrix.c **** static bool button_is_checkable(lv_btnmatrix_ctrl_t ctrl_bits)
 937:lvgl/src/widgets/lv_btnmatrix.c **** {
 194              		.loc 1 937 1 is_stmt 1 view -0
 195              		.cfi_startproc
 196              		@ args = 0, pretend = 0, frame = 0
 197              		@ frame_needed = 0, uses_anonymous_args = 0
 198              		@ link register save eliminated.
 938:lvgl/src/widgets/lv_btnmatrix.c ****     return (ctrl_bits & LV_BTNMATRIX_CTRL_CHECKABLE) ? true : false;
 199              		.loc 1 938 5 view .LVU31
 939:lvgl/src/widgets/lv_btnmatrix.c **** }
 200              		.loc 1 939 1 is_stmt 0 view .LVU32
 201 0000 C0F3C010 		ubfx	r0, r0, #7, #1
 202              	.LVL15:
 203              		.loc 1 939 1 view .LVU33
 204 0004 7047     		bx	lr
 205              		.cfi_endproc
 206              	.LFE188:
 208              		.section	.text.button_get_checked,"ax",%progbits
 209              		.align	1
 210              		.syntax unified
 211              		.thumb
 212              		.thumb_func
 214              	button_get_checked:
 215              	.LVL16:
 216              	.LFB189:
 940:lvgl/src/widgets/lv_btnmatrix.c **** 
 941:lvgl/src/widgets/lv_btnmatrix.c **** static bool button_get_checked(lv_btnmatrix_ctrl_t ctrl_bits)
ARM GAS  C:\Users\OSD\AppData\Local\Temp\ccnvvkrZ.s 			page 21


 942:lvgl/src/widgets/lv_btnmatrix.c **** {
 217              		.loc 1 942 1 is_stmt 1 view -0
 218              		.cfi_startproc
 219              		@ args = 0, pretend = 0, frame = 0
 220              		@ frame_needed = 0, uses_anonymous_args = 0
 221              		@ link register save eliminated.
 943:lvgl/src/widgets/lv_btnmatrix.c ****     return (ctrl_bits & LV_BTNMATRIX_CTRL_CHECKED) ? true : false;
 222              		.loc 1 943 5 view .LVU35
 944:lvgl/src/widgets/lv_btnmatrix.c **** }
 223              		.loc 1 944 1 is_stmt 0 view .LVU36
 224 0000 C0F30020 		ubfx	r0, r0, #8, #1
 225              	.LVL17:
 226              		.loc 1 944 1 view .LVU37
 227 0004 7047     		bx	lr
 228              		.cfi_endproc
 229              	.LFE189:
 231              		.section	.text.button_is_recolor,"ax",%progbits
 232              		.align	1
 233              		.syntax unified
 234              		.thumb
 235              		.thumb_func
 237              	button_is_recolor:
 238              	.LVL18:
 239              	.LFB190:
 945:lvgl/src/widgets/lv_btnmatrix.c **** 
 946:lvgl/src/widgets/lv_btnmatrix.c **** static bool button_is_recolor(lv_btnmatrix_ctrl_t ctrl_bits)
 947:lvgl/src/widgets/lv_btnmatrix.c **** {
 240              		.loc 1 947 1 is_stmt 1 view -0
 241              		.cfi_startproc
 242              		@ args = 0, pretend = 0, frame = 0
 243              		@ frame_needed = 0, uses_anonymous_args = 0
 244              		@ link register save eliminated.
 948:lvgl/src/widgets/lv_btnmatrix.c ****     return (ctrl_bits & LV_BTNMATRIX_CTRL_RECOLOR) ? true : false;
 245              		.loc 1 948 5 view .LVU39
 949:lvgl/src/widgets/lv_btnmatrix.c **** }
 246              		.loc 1 949 1 is_stmt 0 view .LVU40
 247 0000 C0F3C020 		ubfx	r0, r0, #11, #1
 248              	.LVL19:
 249              		.loc 1 949 1 view .LVU41
 250 0004 7047     		bx	lr
 251              		.cfi_endproc
 252              	.LFE190:
 254              		.section	.rodata.has_popovers_in_top_row.str1.4,"aMS",%progbits,1
 255              		.align	2
 256              	.LC0:
 257 0000 0A00     		.ascii	"\012\000"
 258              		.section	.text.has_popovers_in_top_row,"ax",%progbits
 259              		.align	1
 260              		.syntax unified
 261              		.thumb
 262              		.thumb_func
 264              	has_popovers_in_top_row:
 265              	.LVL20:
 266              	.LFB194:
 950:lvgl/src/widgets/lv_btnmatrix.c **** /**
 951:lvgl/src/widgets/lv_btnmatrix.c ****  * Gives the button id of a button under a given point
 952:lvgl/src/widgets/lv_btnmatrix.c ****  * @param obj pointer to a button matrix object
ARM GAS  C:\Users\OSD\AppData\Local\Temp\ccnvvkrZ.s 			page 22


 953:lvgl/src/widgets/lv_btnmatrix.c ****  * @param p a point with absolute coordinates
 954:lvgl/src/widgets/lv_btnmatrix.c ****  * @return the id of the button or LV_BTNMATRIX_BTN_NONE.
 955:lvgl/src/widgets/lv_btnmatrix.c ****  */
 956:lvgl/src/widgets/lv_btnmatrix.c **** static uint16_t get_button_from_point(lv_obj_t * obj, lv_point_t * p)
 957:lvgl/src/widgets/lv_btnmatrix.c **** {
 958:lvgl/src/widgets/lv_btnmatrix.c ****     lv_area_t obj_cords;
 959:lvgl/src/widgets/lv_btnmatrix.c ****     lv_area_t btn_area;
 960:lvgl/src/widgets/lv_btnmatrix.c ****     lv_btnmatrix_t * btnm = (lv_btnmatrix_t *)obj;;
 961:lvgl/src/widgets/lv_btnmatrix.c ****     uint16_t i;
 962:lvgl/src/widgets/lv_btnmatrix.c ****     lv_obj_get_coords(obj, &obj_cords);
 963:lvgl/src/widgets/lv_btnmatrix.c **** 
 964:lvgl/src/widgets/lv_btnmatrix.c ****     lv_coord_t w = lv_obj_get_width(obj);
 965:lvgl/src/widgets/lv_btnmatrix.c ****     lv_coord_t h = lv_obj_get_height(obj);
 966:lvgl/src/widgets/lv_btnmatrix.c ****     lv_coord_t pleft = lv_obj_get_style_pad_left(obj, LV_PART_MAIN);
 967:lvgl/src/widgets/lv_btnmatrix.c ****     lv_coord_t pright = lv_obj_get_style_pad_right(obj, LV_PART_MAIN);
 968:lvgl/src/widgets/lv_btnmatrix.c ****     lv_coord_t ptop = lv_obj_get_style_pad_top(obj, LV_PART_MAIN);
 969:lvgl/src/widgets/lv_btnmatrix.c ****     lv_coord_t pbottom = lv_obj_get_style_pad_bottom(obj, LV_PART_MAIN);
 970:lvgl/src/widgets/lv_btnmatrix.c ****     lv_coord_t prow = lv_obj_get_style_pad_row(obj, LV_PART_MAIN);
 971:lvgl/src/widgets/lv_btnmatrix.c ****     lv_coord_t pcol = lv_obj_get_style_pad_column(obj, LV_PART_MAIN);
 972:lvgl/src/widgets/lv_btnmatrix.c **** 
 973:lvgl/src/widgets/lv_btnmatrix.c ****     /*Get the half gap. Button look larger with this value. (+1 for rounding error)*/
 974:lvgl/src/widgets/lv_btnmatrix.c ****     prow = (prow / 2) + 1 + (prow & 1);
 975:lvgl/src/widgets/lv_btnmatrix.c ****     pcol = (pcol / 2) + 1 + (pcol & 1);
 976:lvgl/src/widgets/lv_btnmatrix.c **** 
 977:lvgl/src/widgets/lv_btnmatrix.c ****     prow = LV_MIN(prow, BTN_EXTRA_CLICK_AREA_MAX);
 978:lvgl/src/widgets/lv_btnmatrix.c ****     pcol = LV_MIN(pcol, BTN_EXTRA_CLICK_AREA_MAX);
 979:lvgl/src/widgets/lv_btnmatrix.c ****     pright = LV_MIN(pright, BTN_EXTRA_CLICK_AREA_MAX);
 980:lvgl/src/widgets/lv_btnmatrix.c ****     ptop = LV_MIN(ptop, BTN_EXTRA_CLICK_AREA_MAX);
 981:lvgl/src/widgets/lv_btnmatrix.c ****     pbottom = LV_MIN(pbottom, BTN_EXTRA_CLICK_AREA_MAX);
 982:lvgl/src/widgets/lv_btnmatrix.c **** 
 983:lvgl/src/widgets/lv_btnmatrix.c ****     for(i = 0; i < btnm->btn_cnt; i++) {
 984:lvgl/src/widgets/lv_btnmatrix.c ****         lv_area_copy(&btn_area, &btnm->button_areas[i]);
 985:lvgl/src/widgets/lv_btnmatrix.c ****         if(btn_area.x1 <= pleft) btn_area.x1 += obj_cords.x1 - LV_MIN(pleft, BTN_EXTRA_CLICK_AREA_M
 986:lvgl/src/widgets/lv_btnmatrix.c ****         else btn_area.x1 += obj_cords.x1 - pcol;
 987:lvgl/src/widgets/lv_btnmatrix.c **** 
 988:lvgl/src/widgets/lv_btnmatrix.c ****         if(btn_area.y1 <= ptop) btn_area.y1 += obj_cords.y1 - LV_MIN(ptop, BTN_EXTRA_CLICK_AREA_MAX
 989:lvgl/src/widgets/lv_btnmatrix.c ****         else btn_area.y1 += obj_cords.y1 - prow;
 990:lvgl/src/widgets/lv_btnmatrix.c **** 
 991:lvgl/src/widgets/lv_btnmatrix.c ****         if(btn_area.x2 >= w - pright - 2) btn_area.x2 += obj_cords.x1 + LV_MIN(pright,
 992:lvgl/src/widgets/lv_btnmatrix.c ****                                                                                    BTN_EXTRA_CLICK_
 993:lvgl/src/widgets/lv_btnmatrix.c ****         else btn_area.x2 += obj_cords.x1 + pcol;
 994:lvgl/src/widgets/lv_btnmatrix.c **** 
 995:lvgl/src/widgets/lv_btnmatrix.c ****         if(btn_area.y2 >= h - pbottom - 2) btn_area.y2 += obj_cords.y1 + LV_MIN(pbottom,
 996:lvgl/src/widgets/lv_btnmatrix.c ****                                                                                     BTN_EXTRA_CLICK
 997:lvgl/src/widgets/lv_btnmatrix.c ****         else btn_area.y2 += obj_cords.y1 + prow;
 998:lvgl/src/widgets/lv_btnmatrix.c **** 
 999:lvgl/src/widgets/lv_btnmatrix.c ****         if(_lv_area_is_point_on(&btn_area, p, 0) != false) {
1000:lvgl/src/widgets/lv_btnmatrix.c ****             break;
1001:lvgl/src/widgets/lv_btnmatrix.c ****         }
1002:lvgl/src/widgets/lv_btnmatrix.c ****     }
1003:lvgl/src/widgets/lv_btnmatrix.c **** 
1004:lvgl/src/widgets/lv_btnmatrix.c ****     if(i == btnm->btn_cnt) i = LV_BTNMATRIX_BTN_NONE;
1005:lvgl/src/widgets/lv_btnmatrix.c **** 
1006:lvgl/src/widgets/lv_btnmatrix.c ****     return i;
1007:lvgl/src/widgets/lv_btnmatrix.c **** }
1008:lvgl/src/widgets/lv_btnmatrix.c **** 
1009:lvgl/src/widgets/lv_btnmatrix.c **** static void invalidate_button_area(const lv_obj_t * obj, uint16_t btn_idx)
ARM GAS  C:\Users\OSD\AppData\Local\Temp\ccnvvkrZ.s 			page 23


1010:lvgl/src/widgets/lv_btnmatrix.c **** {
1011:lvgl/src/widgets/lv_btnmatrix.c ****     if(btn_idx == LV_BTNMATRIX_BTN_NONE) return;
1012:lvgl/src/widgets/lv_btnmatrix.c **** 
1013:lvgl/src/widgets/lv_btnmatrix.c ****     lv_area_t btn_area;
1014:lvgl/src/widgets/lv_btnmatrix.c ****     lv_area_t obj_area;
1015:lvgl/src/widgets/lv_btnmatrix.c **** 
1016:lvgl/src/widgets/lv_btnmatrix.c ****     lv_btnmatrix_t * btnm = (lv_btnmatrix_t *)obj;;
1017:lvgl/src/widgets/lv_btnmatrix.c ****     if(btn_idx >= btnm->btn_cnt) return;
1018:lvgl/src/widgets/lv_btnmatrix.c **** 
1019:lvgl/src/widgets/lv_btnmatrix.c ****     lv_area_copy(&btn_area, &btnm->button_areas[btn_idx]);
1020:lvgl/src/widgets/lv_btnmatrix.c ****     lv_obj_get_coords(obj, &obj_area);
1021:lvgl/src/widgets/lv_btnmatrix.c **** 
1022:lvgl/src/widgets/lv_btnmatrix.c ****     /*The buttons might have outline and shadow so make the invalidation larger with the gaps betwe
1023:lvgl/src/widgets/lv_btnmatrix.c ****      *It assumes that the outline or shadow is smaller than the gaps*/
1024:lvgl/src/widgets/lv_btnmatrix.c ****     lv_coord_t row_gap = lv_obj_get_style_pad_row(obj, LV_PART_MAIN);
1025:lvgl/src/widgets/lv_btnmatrix.c ****     lv_coord_t col_gap = lv_obj_get_style_pad_column(obj, LV_PART_MAIN);
1026:lvgl/src/widgets/lv_btnmatrix.c **** 
1027:lvgl/src/widgets/lv_btnmatrix.c ****     /*Be sure to have a minimal extra space if row/col_gap is small*/
1028:lvgl/src/widgets/lv_btnmatrix.c ****     lv_coord_t dpi = lv_disp_get_dpi(lv_obj_get_disp(obj));
1029:lvgl/src/widgets/lv_btnmatrix.c ****     row_gap = LV_MAX(row_gap, dpi / 10);
1030:lvgl/src/widgets/lv_btnmatrix.c ****     col_gap = LV_MAX(col_gap, dpi / 10);
1031:lvgl/src/widgets/lv_btnmatrix.c **** 
1032:lvgl/src/widgets/lv_btnmatrix.c ****     /*Convert relative coordinates to absolute*/
1033:lvgl/src/widgets/lv_btnmatrix.c ****     btn_area.x1 += obj_area.x1 - row_gap;
1034:lvgl/src/widgets/lv_btnmatrix.c ****     btn_area.y1 += obj_area.y1 - col_gap;
1035:lvgl/src/widgets/lv_btnmatrix.c ****     btn_area.x2 += obj_area.x1 + row_gap;
1036:lvgl/src/widgets/lv_btnmatrix.c ****     btn_area.y2 += obj_area.y1 + col_gap;
1037:lvgl/src/widgets/lv_btnmatrix.c **** 
1038:lvgl/src/widgets/lv_btnmatrix.c ****     if((btn_idx == btnm->btn_id_sel) && (btnm->ctrl_bits[btn_idx] & LV_BTNMATRIX_CTRL_POPOVER)) {
1039:lvgl/src/widgets/lv_btnmatrix.c ****         /*Push up the upper boundary of the btn area to also invalidate the popover*/
1040:lvgl/src/widgets/lv_btnmatrix.c ****         btn_area.y1 -= lv_area_get_height(&btn_area);
1041:lvgl/src/widgets/lv_btnmatrix.c ****     }
1042:lvgl/src/widgets/lv_btnmatrix.c **** 
1043:lvgl/src/widgets/lv_btnmatrix.c ****     lv_obj_invalidate_area(obj, &btn_area);
1044:lvgl/src/widgets/lv_btnmatrix.c **** }
1045:lvgl/src/widgets/lv_btnmatrix.c **** 
1046:lvgl/src/widgets/lv_btnmatrix.c **** /**
1047:lvgl/src/widgets/lv_btnmatrix.c ****  * Enforces a single button being toggled on the button matrix.
1048:lvgl/src/widgets/lv_btnmatrix.c ****  * It simply clears the toggle flag on other buttons.
1049:lvgl/src/widgets/lv_btnmatrix.c ****  * @param obj Button matrix object
1050:lvgl/src/widgets/lv_btnmatrix.c ****  * @param btn_idx Button that should remain toggled
1051:lvgl/src/widgets/lv_btnmatrix.c ****  */
1052:lvgl/src/widgets/lv_btnmatrix.c **** static void make_one_button_checked(lv_obj_t * obj, uint16_t btn_idx)
1053:lvgl/src/widgets/lv_btnmatrix.c **** {
1054:lvgl/src/widgets/lv_btnmatrix.c ****     /*Save whether the button was toggled*/
1055:lvgl/src/widgets/lv_btnmatrix.c ****     bool was_toggled = lv_btnmatrix_has_btn_ctrl(obj, btn_idx, LV_BTNMATRIX_CTRL_CHECKED);
1056:lvgl/src/widgets/lv_btnmatrix.c **** 
1057:lvgl/src/widgets/lv_btnmatrix.c ****     lv_btnmatrix_clear_btn_ctrl_all(obj, LV_BTNMATRIX_CTRL_CHECKED);
1058:lvgl/src/widgets/lv_btnmatrix.c **** 
1059:lvgl/src/widgets/lv_btnmatrix.c ****     if(was_toggled) lv_btnmatrix_set_btn_ctrl(obj, btn_idx, LV_BTNMATRIX_CTRL_CHECKED);
1060:lvgl/src/widgets/lv_btnmatrix.c **** }
1061:lvgl/src/widgets/lv_btnmatrix.c **** 
1062:lvgl/src/widgets/lv_btnmatrix.c **** /**
1063:lvgl/src/widgets/lv_btnmatrix.c ****  * Check if any of the buttons in the first row has the LV_BTNMATRIX_CTRL_POPOVER control flag set.
1064:lvgl/src/widgets/lv_btnmatrix.c ****  * @param obj Button matrix object
1065:lvgl/src/widgets/lv_btnmatrix.c ****  * @return true if at least one button has the flag, false otherwise
1066:lvgl/src/widgets/lv_btnmatrix.c ****  */
ARM GAS  C:\Users\OSD\AppData\Local\Temp\ccnvvkrZ.s 			page 24


1067:lvgl/src/widgets/lv_btnmatrix.c **** static bool has_popovers_in_top_row(lv_obj_t * obj)
1068:lvgl/src/widgets/lv_btnmatrix.c **** {
 267              		.loc 1 1068 1 is_stmt 1 view -0
 268              		.cfi_startproc
 269              		@ args = 0, pretend = 0, frame = 0
 270              		@ frame_needed = 0, uses_anonymous_args = 0
1069:lvgl/src/widgets/lv_btnmatrix.c ****     lv_btnmatrix_t * btnm = (lv_btnmatrix_t *)obj;
 271              		.loc 1 1069 5 view .LVU43
1070:lvgl/src/widgets/lv_btnmatrix.c **** 
1071:lvgl/src/widgets/lv_btnmatrix.c ****     if(btnm->row_cnt <= 0) {
 272              		.loc 1 1071 5 view .LVU44
 273              		.loc 1 1071 12 is_stmt 0 view .LVU45
 274 0000 438E     		ldrh	r3, [r0, #50]
 275              		.loc 1 1071 7 view .LVU46
 276 0002 D3B1     		cbz	r3, .L17
1068:lvgl/src/widgets/lv_btnmatrix.c ****     lv_btnmatrix_t * btnm = (lv_btnmatrix_t *)obj;
 277              		.loc 1 1068 1 view .LVU47
 278 0004 2DE9F041 		push	{r4, r5, r6, r7, r8, lr}
 279              		.cfi_def_cfa_offset 24
 280              		.cfi_offset 4, -24
 281              		.cfi_offset 5, -20
 282              		.cfi_offset 6, -16
 283              		.cfi_offset 7, -12
 284              		.cfi_offset 8, -8
 285              		.cfi_offset 14, -4
 286 0008 0746     		mov	r7, r0
1072:lvgl/src/widgets/lv_btnmatrix.c ****         return false;
1073:lvgl/src/widgets/lv_btnmatrix.c ****     }
1074:lvgl/src/widgets/lv_btnmatrix.c **** 
1075:lvgl/src/widgets/lv_btnmatrix.c ****     const char ** map_row = btnm->map_p;
 287              		.loc 1 1075 5 is_stmt 1 view .LVU48
 288              		.loc 1 1075 19 is_stmt 0 view .LVU49
 289 000a D0F82480 		ldr	r8, [r0, #36]
 290              	.LVL21:
1076:lvgl/src/widgets/lv_btnmatrix.c ****     uint16_t btn_cnt = 0;
 291              		.loc 1 1076 5 is_stmt 1 view .LVU50
1077:lvgl/src/widgets/lv_btnmatrix.c **** 
1078:lvgl/src/widgets/lv_btnmatrix.c ****     while(map_row[btn_cnt] && strcmp(map_row[btn_cnt], "\n") != 0 && map_row[btn_cnt][0] != '\0') {
 292              		.loc 1 1078 5 view .LVU51
1076:lvgl/src/widgets/lv_btnmatrix.c ****     uint16_t btn_cnt = 0;
 293              		.loc 1 1076 14 is_stmt 0 view .LVU52
 294 000e 0024     		movs	r4, #0
 295              	.LVL22:
 296              	.L15:
 297              		.loc 1 1078 10 is_stmt 1 view .LVU53
 298              		.loc 1 1078 18 is_stmt 0 view .LVU54
 299 0010 2646     		mov	r6, r4
 300 0012 58F82450 		ldr	r5, [r8, r4, lsl #2]
 301              		.loc 1 1078 10 view .LVU55
 302 0016 9DB1     		cbz	r5, .L18
 303              		.loc 1 1078 31 discriminator 1 view .LVU56
 304 0018 0C49     		ldr	r1, .L24
 305 001a 2846     		mov	r0, r5
 306 001c FFF7FEFF 		bl	strcmp
 307              	.LVL23:
 308              		.loc 1 1078 28 discriminator 1 view .LVU57
 309 0020 90B1     		cbz	r0, .L19
ARM GAS  C:\Users\OSD\AppData\Local\Temp\ccnvvkrZ.s 			page 25


 310              		.loc 1 1078 86 discriminator 2 view .LVU58
 311 0022 2B78     		ldrb	r3, [r5]	@ zero_extendqisi2
 312              		.loc 1 1078 67 discriminator 2 view .LVU59
 313 0024 6BB1     		cbz	r3, .L14
1079:lvgl/src/widgets/lv_btnmatrix.c ****         if(button_is_popover(btnm->ctrl_bits[btn_cnt])) {
 314              		.loc 1 1079 9 is_stmt 1 view .LVU60
 315              		.loc 1 1079 34 is_stmt 0 view .LVU61
 316 0026 FB6A     		ldr	r3, [r7, #44]
 317              		.loc 1 1079 12 view .LVU62
 318 0028 33F81600 		ldrh	r0, [r3, r6, lsl #1]
 319 002c FFF7FEFF 		bl	button_is_popover
 320              	.LVL24:
 321              		.loc 1 1079 11 view .LVU63
 322 0030 0346     		mov	r3, r0
 323 0032 30B9     		cbnz	r0, .L14
1080:lvgl/src/widgets/lv_btnmatrix.c ****             return true;
1081:lvgl/src/widgets/lv_btnmatrix.c ****         }
1082:lvgl/src/widgets/lv_btnmatrix.c ****         btn_cnt++;
 324              		.loc 1 1082 9 is_stmt 1 view .LVU64
 325              		.loc 1 1082 16 is_stmt 0 view .LVU65
 326 0034 0134     		adds	r4, r4, #1
 327              	.LVL25:
 328              		.loc 1 1082 16 view .LVU66
 329 0036 A4B2     		uxth	r4, r4
 330              	.LVL26:
 331              		.loc 1 1082 16 view .LVU67
 332 0038 EAE7     		b	.L15
 333              	.LVL27:
 334              	.L17:
 335              		.cfi_def_cfa_offset 0
 336              		.cfi_restore 4
 337              		.cfi_restore 5
 338              		.cfi_restore 6
 339              		.cfi_restore 7
 340              		.cfi_restore 8
 341              		.cfi_restore 14
1072:lvgl/src/widgets/lv_btnmatrix.c ****     }
 342              		.loc 1 1072 16 view .LVU68
 343 003a 0023     		movs	r3, #0
1083:lvgl/src/widgets/lv_btnmatrix.c ****     }
1084:lvgl/src/widgets/lv_btnmatrix.c **** 
1085:lvgl/src/widgets/lv_btnmatrix.c ****     return false;
1086:lvgl/src/widgets/lv_btnmatrix.c **** }
 344              		.loc 1 1086 1 view .LVU69
 345 003c 1846     		mov	r0, r3
 346              	.LVL28:
 347              		.loc 1 1086 1 view .LVU70
 348 003e 7047     		bx	lr
 349              	.LVL29:
 350              	.L18:
 351              		.cfi_def_cfa_offset 24
 352              		.cfi_offset 4, -24
 353              		.cfi_offset 5, -20
 354              		.cfi_offset 6, -16
 355              		.cfi_offset 7, -12
 356              		.cfi_offset 8, -8
 357              		.cfi_offset 14, -4
ARM GAS  C:\Users\OSD\AppData\Local\Temp\ccnvvkrZ.s 			page 26


1085:lvgl/src/widgets/lv_btnmatrix.c **** }
 358              		.loc 1 1085 12 view .LVU71
 359 0040 0023     		movs	r3, #0
 360              	.L14:
 361              		.loc 1 1086 1 view .LVU72
 362 0042 1846     		mov	r0, r3
 363 0044 BDE8F081 		pop	{r4, r5, r6, r7, r8, pc}
 364              	.LVL30:
 365              	.L19:
1085:lvgl/src/widgets/lv_btnmatrix.c **** }
 366              		.loc 1 1085 12 view .LVU73
 367 0048 0023     		movs	r3, #0
 368 004a FAE7     		b	.L14
 369              	.L25:
 370              		.align	2
 371              	.L24:
 372 004c 00000000 		.word	.LC0
 373              		.cfi_endproc
 374              	.LFE194:
 376              		.section	.text.get_button_from_point,"ax",%progbits
 377              		.align	1
 378              		.syntax unified
 379              		.thumb
 380              		.thumb_func
 382              	get_button_from_point:
 383              	.LVL31:
 384              	.LFB191:
 957:lvgl/src/widgets/lv_btnmatrix.c ****     lv_area_t obj_cords;
 385              		.loc 1 957 1 is_stmt 1 view -0
 386              		.cfi_startproc
 387              		@ args = 0, pretend = 0, frame = 32
 388              		@ frame_needed = 0, uses_anonymous_args = 0
 957:lvgl/src/widgets/lv_btnmatrix.c ****     lv_area_t obj_cords;
 389              		.loc 1 957 1 is_stmt 0 view .LVU75
 390 0000 2DE9F04F 		push	{r4, r5, r6, r7, r8, r9, r10, fp, lr}
 391              		.cfi_def_cfa_offset 36
 392              		.cfi_offset 4, -36
 393              		.cfi_offset 5, -32
 394              		.cfi_offset 6, -28
 395              		.cfi_offset 7, -24
 396              		.cfi_offset 8, -20
 397              		.cfi_offset 9, -16
 398              		.cfi_offset 10, -12
 399              		.cfi_offset 11, -8
 400              		.cfi_offset 14, -4
 401 0004 89B0     		sub	sp, sp, #36
 402              		.cfi_def_cfa_offset 72
 403 0006 0546     		mov	r5, r0
 404 0008 0391     		str	r1, [sp, #12]
 958:lvgl/src/widgets/lv_btnmatrix.c ****     lv_area_t btn_area;
 405              		.loc 1 958 5 is_stmt 1 view .LVU76
 959:lvgl/src/widgets/lv_btnmatrix.c ****     lv_btnmatrix_t * btnm = (lv_btnmatrix_t *)obj;;
 406              		.loc 1 959 5 view .LVU77
 960:lvgl/src/widgets/lv_btnmatrix.c ****     uint16_t i;
 407              		.loc 1 960 5 view .LVU78
 408              	.LVL32:
 960:lvgl/src/widgets/lv_btnmatrix.c ****     uint16_t i;
ARM GAS  C:\Users\OSD\AppData\Local\Temp\ccnvvkrZ.s 			page 27


 409              		.loc 1 960 51 view .LVU79
 961:lvgl/src/widgets/lv_btnmatrix.c ****     lv_obj_get_coords(obj, &obj_cords);
 410              		.loc 1 961 5 view .LVU80
 962:lvgl/src/widgets/lv_btnmatrix.c **** 
 411              		.loc 1 962 5 view .LVU81
 412 000a 06A9     		add	r1, sp, #24
 413              	.LVL33:
 962:lvgl/src/widgets/lv_btnmatrix.c **** 
 414              		.loc 1 962 5 is_stmt 0 view .LVU82
 415 000c FFF7FEFF 		bl	lv_obj_get_coords
 416              	.LVL34:
 964:lvgl/src/widgets/lv_btnmatrix.c ****     lv_coord_t h = lv_obj_get_height(obj);
 417              		.loc 1 964 5 is_stmt 1 view .LVU83
 964:lvgl/src/widgets/lv_btnmatrix.c ****     lv_coord_t h = lv_obj_get_height(obj);
 418              		.loc 1 964 20 is_stmt 0 view .LVU84
 419 0010 2846     		mov	r0, r5
 420 0012 FFF7FEFF 		bl	lv_obj_get_width
 421              	.LVL35:
 422 0016 0190     		str	r0, [sp, #4]
 423              	.LVL36:
 965:lvgl/src/widgets/lv_btnmatrix.c ****     lv_coord_t pleft = lv_obj_get_style_pad_left(obj, LV_PART_MAIN);
 424              		.loc 1 965 5 is_stmt 1 view .LVU85
 965:lvgl/src/widgets/lv_btnmatrix.c ****     lv_coord_t pleft = lv_obj_get_style_pad_left(obj, LV_PART_MAIN);
 425              		.loc 1 965 20 is_stmt 0 view .LVU86
 426 0018 2846     		mov	r0, r5
 427 001a FFF7FEFF 		bl	lv_obj_get_height
 428              	.LVL37:
 429 001e 0290     		str	r0, [sp, #8]
 430              	.LVL38:
 966:lvgl/src/widgets/lv_btnmatrix.c ****     lv_coord_t pright = lv_obj_get_style_pad_right(obj, LV_PART_MAIN);
 431              		.loc 1 966 5 is_stmt 1 view .LVU87
 432              	.LBB81:
 433              	.LBI81:
 434              		.file 2 "lvgl/src/widgets/../core/lv_obj_style_gen.h"
   1:lvgl/src/widgets/../core/lv_obj_style_gen.h **** static inline lv_coord_t lv_obj_get_style_width(const struct _lv_obj_t * obj, uint32_t part)
   2:lvgl/src/widgets/../core/lv_obj_style_gen.h **** {
   3:lvgl/src/widgets/../core/lv_obj_style_gen.h ****     lv_style_value_t v = lv_obj_get_style_prop(obj, part, LV_STYLE_WIDTH);
   4:lvgl/src/widgets/../core/lv_obj_style_gen.h ****     return (lv_coord_t)v.num;
   5:lvgl/src/widgets/../core/lv_obj_style_gen.h **** }
   6:lvgl/src/widgets/../core/lv_obj_style_gen.h **** 
   7:lvgl/src/widgets/../core/lv_obj_style_gen.h **** static inline lv_coord_t lv_obj_get_style_min_width(const struct _lv_obj_t * obj, uint32_t part)
   8:lvgl/src/widgets/../core/lv_obj_style_gen.h **** {
   9:lvgl/src/widgets/../core/lv_obj_style_gen.h ****     lv_style_value_t v = lv_obj_get_style_prop(obj, part, LV_STYLE_MIN_WIDTH);
  10:lvgl/src/widgets/../core/lv_obj_style_gen.h ****     return (lv_coord_t)v.num;
  11:lvgl/src/widgets/../core/lv_obj_style_gen.h **** }
  12:lvgl/src/widgets/../core/lv_obj_style_gen.h **** 
  13:lvgl/src/widgets/../core/lv_obj_style_gen.h **** static inline lv_coord_t lv_obj_get_style_max_width(const struct _lv_obj_t * obj, uint32_t part)
  14:lvgl/src/widgets/../core/lv_obj_style_gen.h **** {
  15:lvgl/src/widgets/../core/lv_obj_style_gen.h ****     lv_style_value_t v = lv_obj_get_style_prop(obj, part, LV_STYLE_MAX_WIDTH);
  16:lvgl/src/widgets/../core/lv_obj_style_gen.h ****     return (lv_coord_t)v.num;
  17:lvgl/src/widgets/../core/lv_obj_style_gen.h **** }
  18:lvgl/src/widgets/../core/lv_obj_style_gen.h **** 
  19:lvgl/src/widgets/../core/lv_obj_style_gen.h **** static inline lv_coord_t lv_obj_get_style_height(const struct _lv_obj_t * obj, uint32_t part)
  20:lvgl/src/widgets/../core/lv_obj_style_gen.h **** {
  21:lvgl/src/widgets/../core/lv_obj_style_gen.h ****     lv_style_value_t v = lv_obj_get_style_prop(obj, part, LV_STYLE_HEIGHT);
  22:lvgl/src/widgets/../core/lv_obj_style_gen.h ****     return (lv_coord_t)v.num;
  23:lvgl/src/widgets/../core/lv_obj_style_gen.h **** }
ARM GAS  C:\Users\OSD\AppData\Local\Temp\ccnvvkrZ.s 			page 28


  24:lvgl/src/widgets/../core/lv_obj_style_gen.h **** 
  25:lvgl/src/widgets/../core/lv_obj_style_gen.h **** static inline lv_coord_t lv_obj_get_style_min_height(const struct _lv_obj_t * obj, uint32_t part)
  26:lvgl/src/widgets/../core/lv_obj_style_gen.h **** {
  27:lvgl/src/widgets/../core/lv_obj_style_gen.h ****     lv_style_value_t v = lv_obj_get_style_prop(obj, part, LV_STYLE_MIN_HEIGHT);
  28:lvgl/src/widgets/../core/lv_obj_style_gen.h ****     return (lv_coord_t)v.num;
  29:lvgl/src/widgets/../core/lv_obj_style_gen.h **** }
  30:lvgl/src/widgets/../core/lv_obj_style_gen.h **** 
  31:lvgl/src/widgets/../core/lv_obj_style_gen.h **** static inline lv_coord_t lv_obj_get_style_max_height(const struct _lv_obj_t * obj, uint32_t part)
  32:lvgl/src/widgets/../core/lv_obj_style_gen.h **** {
  33:lvgl/src/widgets/../core/lv_obj_style_gen.h ****     lv_style_value_t v = lv_obj_get_style_prop(obj, part, LV_STYLE_MAX_HEIGHT);
  34:lvgl/src/widgets/../core/lv_obj_style_gen.h ****     return (lv_coord_t)v.num;
  35:lvgl/src/widgets/../core/lv_obj_style_gen.h **** }
  36:lvgl/src/widgets/../core/lv_obj_style_gen.h **** 
  37:lvgl/src/widgets/../core/lv_obj_style_gen.h **** static inline lv_coord_t lv_obj_get_style_x(const struct _lv_obj_t * obj, uint32_t part)
  38:lvgl/src/widgets/../core/lv_obj_style_gen.h **** {
  39:lvgl/src/widgets/../core/lv_obj_style_gen.h ****     lv_style_value_t v = lv_obj_get_style_prop(obj, part, LV_STYLE_X);
  40:lvgl/src/widgets/../core/lv_obj_style_gen.h ****     return (lv_coord_t)v.num;
  41:lvgl/src/widgets/../core/lv_obj_style_gen.h **** }
  42:lvgl/src/widgets/../core/lv_obj_style_gen.h **** 
  43:lvgl/src/widgets/../core/lv_obj_style_gen.h **** static inline lv_coord_t lv_obj_get_style_y(const struct _lv_obj_t * obj, uint32_t part)
  44:lvgl/src/widgets/../core/lv_obj_style_gen.h **** {
  45:lvgl/src/widgets/../core/lv_obj_style_gen.h ****     lv_style_value_t v = lv_obj_get_style_prop(obj, part, LV_STYLE_Y);
  46:lvgl/src/widgets/../core/lv_obj_style_gen.h ****     return (lv_coord_t)v.num;
  47:lvgl/src/widgets/../core/lv_obj_style_gen.h **** }
  48:lvgl/src/widgets/../core/lv_obj_style_gen.h **** 
  49:lvgl/src/widgets/../core/lv_obj_style_gen.h **** static inline lv_align_t lv_obj_get_style_align(const struct _lv_obj_t * obj, uint32_t part)
  50:lvgl/src/widgets/../core/lv_obj_style_gen.h **** {
  51:lvgl/src/widgets/../core/lv_obj_style_gen.h ****     lv_style_value_t v = lv_obj_get_style_prop(obj, part, LV_STYLE_ALIGN);
  52:lvgl/src/widgets/../core/lv_obj_style_gen.h ****     return (lv_align_t)v.num;
  53:lvgl/src/widgets/../core/lv_obj_style_gen.h **** }
  54:lvgl/src/widgets/../core/lv_obj_style_gen.h **** 
  55:lvgl/src/widgets/../core/lv_obj_style_gen.h **** static inline lv_coord_t lv_obj_get_style_transform_width(const struct _lv_obj_t * obj, uint32_t pa
  56:lvgl/src/widgets/../core/lv_obj_style_gen.h **** {
  57:lvgl/src/widgets/../core/lv_obj_style_gen.h ****     lv_style_value_t v = lv_obj_get_style_prop(obj, part, LV_STYLE_TRANSFORM_WIDTH);
  58:lvgl/src/widgets/../core/lv_obj_style_gen.h ****     return (lv_coord_t)v.num;
  59:lvgl/src/widgets/../core/lv_obj_style_gen.h **** }
  60:lvgl/src/widgets/../core/lv_obj_style_gen.h **** 
  61:lvgl/src/widgets/../core/lv_obj_style_gen.h **** static inline lv_coord_t lv_obj_get_style_transform_height(const struct _lv_obj_t * obj, uint32_t p
  62:lvgl/src/widgets/../core/lv_obj_style_gen.h **** {
  63:lvgl/src/widgets/../core/lv_obj_style_gen.h ****     lv_style_value_t v = lv_obj_get_style_prop(obj, part, LV_STYLE_TRANSFORM_HEIGHT);
  64:lvgl/src/widgets/../core/lv_obj_style_gen.h ****     return (lv_coord_t)v.num;
  65:lvgl/src/widgets/../core/lv_obj_style_gen.h **** }
  66:lvgl/src/widgets/../core/lv_obj_style_gen.h **** 
  67:lvgl/src/widgets/../core/lv_obj_style_gen.h **** static inline lv_coord_t lv_obj_get_style_translate_x(const struct _lv_obj_t * obj, uint32_t part)
  68:lvgl/src/widgets/../core/lv_obj_style_gen.h **** {
  69:lvgl/src/widgets/../core/lv_obj_style_gen.h ****     lv_style_value_t v = lv_obj_get_style_prop(obj, part, LV_STYLE_TRANSLATE_X);
  70:lvgl/src/widgets/../core/lv_obj_style_gen.h ****     return (lv_coord_t)v.num;
  71:lvgl/src/widgets/../core/lv_obj_style_gen.h **** }
  72:lvgl/src/widgets/../core/lv_obj_style_gen.h **** 
  73:lvgl/src/widgets/../core/lv_obj_style_gen.h **** static inline lv_coord_t lv_obj_get_style_translate_y(const struct _lv_obj_t * obj, uint32_t part)
  74:lvgl/src/widgets/../core/lv_obj_style_gen.h **** {
  75:lvgl/src/widgets/../core/lv_obj_style_gen.h ****     lv_style_value_t v = lv_obj_get_style_prop(obj, part, LV_STYLE_TRANSLATE_Y);
  76:lvgl/src/widgets/../core/lv_obj_style_gen.h ****     return (lv_coord_t)v.num;
  77:lvgl/src/widgets/../core/lv_obj_style_gen.h **** }
  78:lvgl/src/widgets/../core/lv_obj_style_gen.h **** 
  79:lvgl/src/widgets/../core/lv_obj_style_gen.h **** static inline lv_coord_t lv_obj_get_style_transform_zoom(const struct _lv_obj_t * obj, uint32_t par
  80:lvgl/src/widgets/../core/lv_obj_style_gen.h **** {
ARM GAS  C:\Users\OSD\AppData\Local\Temp\ccnvvkrZ.s 			page 29


  81:lvgl/src/widgets/../core/lv_obj_style_gen.h ****     lv_style_value_t v = lv_obj_get_style_prop(obj, part, LV_STYLE_TRANSFORM_ZOOM);
  82:lvgl/src/widgets/../core/lv_obj_style_gen.h ****     return (lv_coord_t)v.num;
  83:lvgl/src/widgets/../core/lv_obj_style_gen.h **** }
  84:lvgl/src/widgets/../core/lv_obj_style_gen.h **** 
  85:lvgl/src/widgets/../core/lv_obj_style_gen.h **** static inline lv_coord_t lv_obj_get_style_transform_angle(const struct _lv_obj_t * obj, uint32_t pa
  86:lvgl/src/widgets/../core/lv_obj_style_gen.h **** {
  87:lvgl/src/widgets/../core/lv_obj_style_gen.h ****     lv_style_value_t v = lv_obj_get_style_prop(obj, part, LV_STYLE_TRANSFORM_ANGLE);
  88:lvgl/src/widgets/../core/lv_obj_style_gen.h ****     return (lv_coord_t)v.num;
  89:lvgl/src/widgets/../core/lv_obj_style_gen.h **** }
  90:lvgl/src/widgets/../core/lv_obj_style_gen.h **** 
  91:lvgl/src/widgets/../core/lv_obj_style_gen.h **** static inline lv_coord_t lv_obj_get_style_transform_pivot_x(const struct _lv_obj_t * obj, uint32_t 
  92:lvgl/src/widgets/../core/lv_obj_style_gen.h **** {
  93:lvgl/src/widgets/../core/lv_obj_style_gen.h ****     lv_style_value_t v = lv_obj_get_style_prop(obj, part, LV_STYLE_TRANSFORM_PIVOT_X);
  94:lvgl/src/widgets/../core/lv_obj_style_gen.h ****     return (lv_coord_t)v.num;
  95:lvgl/src/widgets/../core/lv_obj_style_gen.h **** }
  96:lvgl/src/widgets/../core/lv_obj_style_gen.h **** 
  97:lvgl/src/widgets/../core/lv_obj_style_gen.h **** static inline lv_coord_t lv_obj_get_style_transform_pivot_y(const struct _lv_obj_t * obj, uint32_t 
  98:lvgl/src/widgets/../core/lv_obj_style_gen.h **** {
  99:lvgl/src/widgets/../core/lv_obj_style_gen.h ****     lv_style_value_t v = lv_obj_get_style_prop(obj, part, LV_STYLE_TRANSFORM_PIVOT_Y);
 100:lvgl/src/widgets/../core/lv_obj_style_gen.h ****     return (lv_coord_t)v.num;
 101:lvgl/src/widgets/../core/lv_obj_style_gen.h **** }
 102:lvgl/src/widgets/../core/lv_obj_style_gen.h **** 
 103:lvgl/src/widgets/../core/lv_obj_style_gen.h **** static inline lv_coord_t lv_obj_get_style_pad_top(const struct _lv_obj_t * obj, uint32_t part)
 104:lvgl/src/widgets/../core/lv_obj_style_gen.h **** {
 105:lvgl/src/widgets/../core/lv_obj_style_gen.h ****     lv_style_value_t v = lv_obj_get_style_prop(obj, part, LV_STYLE_PAD_TOP);
 106:lvgl/src/widgets/../core/lv_obj_style_gen.h ****     return (lv_coord_t)v.num;
 107:lvgl/src/widgets/../core/lv_obj_style_gen.h **** }
 108:lvgl/src/widgets/../core/lv_obj_style_gen.h **** 
 109:lvgl/src/widgets/../core/lv_obj_style_gen.h **** static inline lv_coord_t lv_obj_get_style_pad_bottom(const struct _lv_obj_t * obj, uint32_t part)
 110:lvgl/src/widgets/../core/lv_obj_style_gen.h **** {
 111:lvgl/src/widgets/../core/lv_obj_style_gen.h ****     lv_style_value_t v = lv_obj_get_style_prop(obj, part, LV_STYLE_PAD_BOTTOM);
 112:lvgl/src/widgets/../core/lv_obj_style_gen.h ****     return (lv_coord_t)v.num;
 113:lvgl/src/widgets/../core/lv_obj_style_gen.h **** }
 114:lvgl/src/widgets/../core/lv_obj_style_gen.h **** 
 115:lvgl/src/widgets/../core/lv_obj_style_gen.h **** static inline lv_coord_t lv_obj_get_style_pad_left(const struct _lv_obj_t * obj, uint32_t part)
 435              		.loc 2 115 26 view .LVU88
 436              	.LBB82:
 116:lvgl/src/widgets/../core/lv_obj_style_gen.h **** {
 117:lvgl/src/widgets/../core/lv_obj_style_gen.h ****     lv_style_value_t v = lv_obj_get_style_prop(obj, part, LV_STYLE_PAD_LEFT);
 437              		.loc 2 117 5 view .LVU89
 438              		.loc 2 117 26 is_stmt 0 view .LVU90
 439 0020 1222     		movs	r2, #18
 440 0022 0021     		movs	r1, #0
 441 0024 2846     		mov	r0, r5
 442 0026 FFF7FEFF 		bl	lv_obj_get_style_prop
 443              	.LVL39:
 118:lvgl/src/widgets/../core/lv_obj_style_gen.h ****     return (lv_coord_t)v.num;
 444              		.loc 2 118 5 is_stmt 1 view .LVU91
 445              		.loc 2 118 12 is_stmt 0 view .LVU92
 446 002a 0FFA80FB 		sxth	fp, r0
 447              	.LVL40:
 448              		.loc 2 118 12 view .LVU93
 449              	.LBE82:
 450              	.LBE81:
 967:lvgl/src/widgets/lv_btnmatrix.c ****     lv_coord_t ptop = lv_obj_get_style_pad_top(obj, LV_PART_MAIN);
 451              		.loc 1 967 5 is_stmt 1 view .LVU94
 452              	.LBB83:
ARM GAS  C:\Users\OSD\AppData\Local\Temp\ccnvvkrZ.s 			page 30


 453              	.LBI83:
 119:lvgl/src/widgets/../core/lv_obj_style_gen.h **** }
 120:lvgl/src/widgets/../core/lv_obj_style_gen.h **** 
 121:lvgl/src/widgets/../core/lv_obj_style_gen.h **** static inline lv_coord_t lv_obj_get_style_pad_right(const struct _lv_obj_t * obj, uint32_t part)
 454              		.loc 2 121 26 view .LVU95
 455              	.LBB84:
 122:lvgl/src/widgets/../core/lv_obj_style_gen.h **** {
 123:lvgl/src/widgets/../core/lv_obj_style_gen.h ****     lv_style_value_t v = lv_obj_get_style_prop(obj, part, LV_STYLE_PAD_RIGHT);
 456              		.loc 2 123 5 view .LVU96
 457              		.loc 2 123 26 is_stmt 0 view .LVU97
 458 002e 1322     		movs	r2, #19
 459 0030 0021     		movs	r1, #0
 460 0032 2846     		mov	r0, r5
 461 0034 FFF7FEFF 		bl	lv_obj_get_style_prop
 462              	.LVL41:
 124:lvgl/src/widgets/../core/lv_obj_style_gen.h ****     return (lv_coord_t)v.num;
 463              		.loc 2 124 5 is_stmt 1 view .LVU98
 464              		.loc 2 124 12 is_stmt 0 view .LVU99
 465 0038 0FFA80FA 		sxth	r10, r0
 466              	.LVL42:
 467              		.loc 2 124 12 view .LVU100
 468              	.LBE84:
 469              	.LBE83:
 968:lvgl/src/widgets/lv_btnmatrix.c ****     lv_coord_t pbottom = lv_obj_get_style_pad_bottom(obj, LV_PART_MAIN);
 470              		.loc 1 968 5 is_stmt 1 view .LVU101
 471              	.LBB85:
 472              	.LBI85:
 103:lvgl/src/widgets/../core/lv_obj_style_gen.h **** {
 473              		.loc 2 103 26 view .LVU102
 474              	.LBB86:
 105:lvgl/src/widgets/../core/lv_obj_style_gen.h ****     return (lv_coord_t)v.num;
 475              		.loc 2 105 5 view .LVU103
 105:lvgl/src/widgets/../core/lv_obj_style_gen.h ****     return (lv_coord_t)v.num;
 476              		.loc 2 105 26 is_stmt 0 view .LVU104
 477 003c 1022     		movs	r2, #16
 478 003e 0021     		movs	r1, #0
 479 0040 2846     		mov	r0, r5
 480 0042 FFF7FEFF 		bl	lv_obj_get_style_prop
 481              	.LVL43:
 106:lvgl/src/widgets/../core/lv_obj_style_gen.h **** }
 482              		.loc 2 106 5 is_stmt 1 view .LVU105
 106:lvgl/src/widgets/../core/lv_obj_style_gen.h **** }
 483              		.loc 2 106 12 is_stmt 0 view .LVU106
 484 0046 0FFA80F9 		sxth	r9, r0
 485              	.LVL44:
 106:lvgl/src/widgets/../core/lv_obj_style_gen.h **** }
 486              		.loc 2 106 12 view .LVU107
 487              	.LBE86:
 488              	.LBE85:
 969:lvgl/src/widgets/lv_btnmatrix.c ****     lv_coord_t prow = lv_obj_get_style_pad_row(obj, LV_PART_MAIN);
 489              		.loc 1 969 5 is_stmt 1 view .LVU108
 490              	.LBB87:
 491              	.LBI87:
 109:lvgl/src/widgets/../core/lv_obj_style_gen.h **** {
 492              		.loc 2 109 26 view .LVU109
 493              	.LBB88:
 111:lvgl/src/widgets/../core/lv_obj_style_gen.h ****     return (lv_coord_t)v.num;
ARM GAS  C:\Users\OSD\AppData\Local\Temp\ccnvvkrZ.s 			page 31


 494              		.loc 2 111 5 view .LVU110
 111:lvgl/src/widgets/../core/lv_obj_style_gen.h ****     return (lv_coord_t)v.num;
 495              		.loc 2 111 26 is_stmt 0 view .LVU111
 496 004a 1122     		movs	r2, #17
 497 004c 0021     		movs	r1, #0
 498 004e 2846     		mov	r0, r5
 499 0050 FFF7FEFF 		bl	lv_obj_get_style_prop
 500              	.LVL45:
 112:lvgl/src/widgets/../core/lv_obj_style_gen.h **** }
 501              		.loc 2 112 5 is_stmt 1 view .LVU112
 112:lvgl/src/widgets/../core/lv_obj_style_gen.h **** }
 502              		.loc 2 112 12 is_stmt 0 view .LVU113
 503 0054 0FFA80F8 		sxth	r8, r0
 504              	.LVL46:
 112:lvgl/src/widgets/../core/lv_obj_style_gen.h **** }
 505              		.loc 2 112 12 view .LVU114
 506              	.LBE88:
 507              	.LBE87:
 970:lvgl/src/widgets/lv_btnmatrix.c ****     lv_coord_t pcol = lv_obj_get_style_pad_column(obj, LV_PART_MAIN);
 508              		.loc 1 970 5 is_stmt 1 view .LVU115
 509              	.LBB89:
 510              	.LBI89:
 125:lvgl/src/widgets/../core/lv_obj_style_gen.h **** }
 126:lvgl/src/widgets/../core/lv_obj_style_gen.h **** 
 127:lvgl/src/widgets/../core/lv_obj_style_gen.h **** static inline lv_coord_t lv_obj_get_style_pad_row(const struct _lv_obj_t * obj, uint32_t part)
 511              		.loc 2 127 26 view .LVU116
 512              	.LBB90:
 128:lvgl/src/widgets/../core/lv_obj_style_gen.h **** {
 129:lvgl/src/widgets/../core/lv_obj_style_gen.h ****     lv_style_value_t v = lv_obj_get_style_prop(obj, part, LV_STYLE_PAD_ROW);
 513              		.loc 2 129 5 view .LVU117
 514              		.loc 2 129 26 is_stmt 0 view .LVU118
 515 0058 1422     		movs	r2, #20
 516 005a 0021     		movs	r1, #0
 517 005c 2846     		mov	r0, r5
 518 005e FFF7FEFF 		bl	lv_obj_get_style_prop
 519              	.LVL47:
 520 0062 0746     		mov	r7, r0
 521              	.LVL48:
 130:lvgl/src/widgets/../core/lv_obj_style_gen.h ****     return (lv_coord_t)v.num;
 522              		.loc 2 130 5 is_stmt 1 view .LVU119
 523              		.loc 2 130 12 is_stmt 0 view .LVU120
 524 0064 06B2     		sxth	r6, r0
 525              	.LVL49:
 526              		.loc 2 130 12 view .LVU121
 527              	.LBE90:
 528              	.LBE89:
 971:lvgl/src/widgets/lv_btnmatrix.c **** 
 529              		.loc 1 971 5 is_stmt 1 view .LVU122
 530              	.LBB91:
 531              	.LBI91:
 131:lvgl/src/widgets/../core/lv_obj_style_gen.h **** }
 132:lvgl/src/widgets/../core/lv_obj_style_gen.h **** 
 133:lvgl/src/widgets/../core/lv_obj_style_gen.h **** static inline lv_coord_t lv_obj_get_style_pad_column(const struct _lv_obj_t * obj, uint32_t part)
 532              		.loc 2 133 26 view .LVU123
 533              	.LBB92:
 134:lvgl/src/widgets/../core/lv_obj_style_gen.h **** {
 135:lvgl/src/widgets/../core/lv_obj_style_gen.h ****     lv_style_value_t v = lv_obj_get_style_prop(obj, part, LV_STYLE_PAD_COLUMN);
ARM GAS  C:\Users\OSD\AppData\Local\Temp\ccnvvkrZ.s 			page 32


 534              		.loc 2 135 5 view .LVU124
 535              		.loc 2 135 26 is_stmt 0 view .LVU125
 536 0066 1522     		movs	r2, #21
 537 0068 0021     		movs	r1, #0
 538 006a 2846     		mov	r0, r5
 539              		.loc 2 135 26 view .LVU126
 540 006c FFF7FEFF 		bl	lv_obj_get_style_prop
 541              	.LVL50:
 136:lvgl/src/widgets/../core/lv_obj_style_gen.h ****     return (lv_coord_t)v.num;
 542              		.loc 2 136 5 is_stmt 1 view .LVU127
 543              		.loc 2 136 12 is_stmt 0 view .LVU128
 544 0070 03B2     		sxth	r3, r0
 545              	.LVL51:
 546              		.loc 2 136 12 view .LVU129
 547              	.LBE92:
 548              	.LBE91:
 974:lvgl/src/widgets/lv_btnmatrix.c ****     pcol = (pcol / 2) + 1 + (pcol & 1);
 549              		.loc 1 974 5 is_stmt 1 view .LVU130
 974:lvgl/src/widgets/lv_btnmatrix.c ****     pcol = (pcol / 2) + 1 + (pcol & 1);
 550              		.loc 1 974 35 is_stmt 0 view .LVU131
 551 0072 07F00107 		and	r7, r7, #1
 552              	.LVL52:
 974:lvgl/src/widgets/lv_btnmatrix.c ****     pcol = (pcol / 2) + 1 + (pcol & 1);
 553              		.loc 1 974 27 view .LVU132
 554 0076 3446     		mov	r4, r6
 555 0078 002E     		cmp	r6, #0
 556 007a 23DB     		blt	.L43
 557              	.L27:
 558 007c 07EB6407 		add	r7, r7, r4, asr #1
 559 0080 0137     		adds	r7, r7, #1
 974:lvgl/src/widgets/lv_btnmatrix.c ****     pcol = (pcol / 2) + 1 + (pcol & 1);
 560              		.loc 1 974 10 view .LVU133
 561 0082 3FB2     		sxth	r7, r7
 562              	.LVL53:
 975:lvgl/src/widgets/lv_btnmatrix.c **** 
 563              		.loc 1 975 5 is_stmt 1 view .LVU134
 975:lvgl/src/widgets/lv_btnmatrix.c **** 
 564              		.loc 1 975 35 is_stmt 0 view .LVU135
 565 0084 00F00106 		and	r6, r0, #1
 975:lvgl/src/widgets/lv_btnmatrix.c **** 
 566              		.loc 1 975 27 view .LVU136
 567 0088 1846     		mov	r0, r3
 568 008a 002B     		cmp	r3, #0
 569 008c 1CDB     		blt	.L44
 570              	.L28:
 571 008e 06EB6006 		add	r6, r6, r0, asr #1
 572 0092 0136     		adds	r6, r6, #1
 975:lvgl/src/widgets/lv_btnmatrix.c **** 
 573              		.loc 1 975 10 view .LVU137
 574 0094 36B2     		sxth	r6, r6
 575              	.LVL54:
 977:lvgl/src/widgets/lv_btnmatrix.c ****     pcol = LV_MIN(pcol, BTN_EXTRA_CLICK_AREA_MAX);
 576              		.loc 1 977 5 is_stmt 1 view .LVU138
 977:lvgl/src/widgets/lv_btnmatrix.c ****     pcol = LV_MIN(pcol, BTN_EXTRA_CLICK_AREA_MAX);
 577              		.loc 1 977 10 is_stmt 0 view .LVU139
 578 0096 0D2F     		cmp	r7, #13
 579 0098 A8BF     		it	ge
ARM GAS  C:\Users\OSD\AppData\Local\Temp\ccnvvkrZ.s 			page 33


 580 009a 0D27     		movge	r7, #13
 581              	.LVL55:
 978:lvgl/src/widgets/lv_btnmatrix.c ****     pright = LV_MIN(pright, BTN_EXTRA_CLICK_AREA_MAX);
 582              		.loc 1 978 5 is_stmt 1 view .LVU140
 978:lvgl/src/widgets/lv_btnmatrix.c ****     pright = LV_MIN(pright, BTN_EXTRA_CLICK_AREA_MAX);
 583              		.loc 1 978 10 is_stmt 0 view .LVU141
 584 009c 0D2E     		cmp	r6, #13
 585 009e A8BF     		it	ge
 586 00a0 0D26     		movge	r6, #13
 587              	.LVL56:
 979:lvgl/src/widgets/lv_btnmatrix.c ****     ptop = LV_MIN(ptop, BTN_EXTRA_CLICK_AREA_MAX);
 588              		.loc 1 979 5 is_stmt 1 view .LVU142
 979:lvgl/src/widgets/lv_btnmatrix.c ****     ptop = LV_MIN(ptop, BTN_EXTRA_CLICK_AREA_MAX);
 589              		.loc 1 979 12 is_stmt 0 view .LVU143
 590 00a2 BAF10D0F 		cmp	r10, #13
 591 00a6 A8BF     		it	ge
 592 00a8 4FF00D0A 		movge	r10, #13
 593              	.LVL57:
 980:lvgl/src/widgets/lv_btnmatrix.c ****     pbottom = LV_MIN(pbottom, BTN_EXTRA_CLICK_AREA_MAX);
 594              		.loc 1 980 5 is_stmt 1 view .LVU144
 980:lvgl/src/widgets/lv_btnmatrix.c ****     pbottom = LV_MIN(pbottom, BTN_EXTRA_CLICK_AREA_MAX);
 595              		.loc 1 980 10 is_stmt 0 view .LVU145
 596 00ac B9F10D0F 		cmp	r9, #13
 597 00b0 A8BF     		it	ge
 598 00b2 4FF00D09 		movge	r9, #13
 599              	.LVL58:
 981:lvgl/src/widgets/lv_btnmatrix.c **** 
 600              		.loc 1 981 5 is_stmt 1 view .LVU146
 981:lvgl/src/widgets/lv_btnmatrix.c **** 
 601              		.loc 1 981 13 is_stmt 0 view .LVU147
 602 00b6 B8F10D0F 		cmp	r8, #13
 603 00ba A8BF     		it	ge
 604 00bc 4FF00D08 		movge	r8, #13
 605              	.LVL59:
 983:lvgl/src/widgets/lv_btnmatrix.c ****         lv_area_copy(&btn_area, &btnm->button_areas[i]);
 606              		.loc 1 983 5 is_stmt 1 view .LVU148
 983:lvgl/src/widgets/lv_btnmatrix.c ****         lv_area_copy(&btn_area, &btnm->button_areas[i]);
 607              		.loc 1 983 11 is_stmt 0 view .LVU149
 608 00c0 0024     		movs	r4, #0
 983:lvgl/src/widgets/lv_btnmatrix.c ****         lv_area_copy(&btn_area, &btnm->button_areas[i]);
 609              		.loc 1 983 5 view .LVU150
 610 00c2 2BE0     		b	.L29
 611              	.LVL60:
 612              	.L43:
 974:lvgl/src/widgets/lv_btnmatrix.c ****     pcol = (pcol / 2) + 1 + (pcol & 1);
 613              		.loc 1 974 27 view .LVU151
 614 00c4 741C     		adds	r4, r6, #1
 615 00c6 D9E7     		b	.L27
 616              	.LVL61:
 617              	.L44:
 975:lvgl/src/widgets/lv_btnmatrix.c **** 
 618              		.loc 1 975 27 view .LVU152
 619 00c8 581C     		adds	r0, r3, #1
 620 00ca E0E7     		b	.L28
 621              	.LVL62:
 622              	.L30:
 986:lvgl/src/widgets/lv_btnmatrix.c **** 
ARM GAS  C:\Users\OSD\AppData\Local\Temp\ccnvvkrZ.s 			page 34


 623              		.loc 1 986 14 is_stmt 1 view .LVU153
 986:lvgl/src/widgets/lv_btnmatrix.c **** 
 624              		.loc 1 986 38 is_stmt 0 view .LVU154
 625 00cc BDF81830 		ldrh	r3, [sp, #24]
 986:lvgl/src/widgets/lv_btnmatrix.c **** 
 626              		.loc 1 986 42 view .LVU155
 627 00d0 9B1B     		subs	r3, r3, r6
 986:lvgl/src/widgets/lv_btnmatrix.c **** 
 628              		.loc 1 986 26 view .LVU156
 629 00d2 1CFA83FC 		uxtah	ip, ip, r3
 630 00d6 ADF810C0 		strh	ip, [sp, #16]	@ movhi
 631 00da 47E0     		b	.L31
 632              	.L32:
 989:lvgl/src/widgets/lv_btnmatrix.c **** 
 633              		.loc 1 989 14 is_stmt 1 view .LVU157
 989:lvgl/src/widgets/lv_btnmatrix.c **** 
 634              		.loc 1 989 38 is_stmt 0 view .LVU158
 635 00dc BDF81A30 		ldrh	r3, [sp, #26]
 989:lvgl/src/widgets/lv_btnmatrix.c **** 
 636              		.loc 1 989 42 view .LVU159
 637 00e0 DB1B     		subs	r3, r3, r7
 989:lvgl/src/widgets/lv_btnmatrix.c **** 
 638              		.loc 1 989 26 view .LVU160
 639 00e2 10FA83F0 		uxtah	r0, r0, r3
 640 00e6 ADF81200 		strh	r0, [sp, #18]	@ movhi
 641 00ea 51E0     		b	.L33
 642              	.L34:
 993:lvgl/src/widgets/lv_btnmatrix.c **** 
 643              		.loc 1 993 14 is_stmt 1 view .LVU161
 993:lvgl/src/widgets/lv_btnmatrix.c **** 
 644              		.loc 1 993 38 is_stmt 0 view .LVU162
 645 00ec BDF81830 		ldrh	r3, [sp, #24]
 993:lvgl/src/widgets/lv_btnmatrix.c **** 
 646              		.loc 1 993 42 view .LVU163
 647 00f0 3344     		add	r3, r3, r6
 993:lvgl/src/widgets/lv_btnmatrix.c **** 
 648              		.loc 1 993 26 view .LVU164
 649 00f2 11FA83F1 		uxtah	r1, r1, r3
 650 00f6 ADF81410 		strh	r1, [sp, #20]	@ movhi
 651 00fa 5BE0     		b	.L35
 652              	.L36:
 997:lvgl/src/widgets/lv_btnmatrix.c **** 
 653              		.loc 1 997 14 is_stmt 1 view .LVU165
 997:lvgl/src/widgets/lv_btnmatrix.c **** 
 654              		.loc 1 997 38 is_stmt 0 view .LVU166
 655 00fc BDF81A30 		ldrh	r3, [sp, #26]
 997:lvgl/src/widgets/lv_btnmatrix.c **** 
 656              		.loc 1 997 42 view .LVU167
 657 0100 3B44     		add	r3, r3, r7
 997:lvgl/src/widgets/lv_btnmatrix.c **** 
 658              		.loc 1 997 26 view .LVU168
 659 0102 12FA83F2 		uxtah	r2, r2, r3
 660 0106 ADF81620 		strh	r2, [sp, #22]	@ movhi
 661              	.L37:
 999:lvgl/src/widgets/lv_btnmatrix.c ****             break;
 662              		.loc 1 999 9 is_stmt 1 view .LVU169
 999:lvgl/src/widgets/lv_btnmatrix.c ****             break;
ARM GAS  C:\Users\OSD\AppData\Local\Temp\ccnvvkrZ.s 			page 35


 663              		.loc 1 999 12 is_stmt 0 view .LVU170
 664 010a 0022     		movs	r2, #0
 665 010c 0399     		ldr	r1, [sp, #12]
 666 010e 04A8     		add	r0, sp, #16
 667 0110 FFF7FEFF 		bl	_lv_area_is_point_on
 668              	.LVL63:
 999:lvgl/src/widgets/lv_btnmatrix.c ****             break;
 669              		.loc 1 999 11 view .LVU171
 670 0114 0028     		cmp	r0, #0
 671 0116 60D1     		bne	.L38
 983:lvgl/src/widgets/lv_btnmatrix.c ****         lv_area_copy(&btn_area, &btnm->button_areas[i]);
 672              		.loc 1 983 35 is_stmt 1 discriminator 2 view .LVU172
 983:lvgl/src/widgets/lv_btnmatrix.c ****         lv_area_copy(&btn_area, &btnm->button_areas[i]);
 673              		.loc 1 983 36 is_stmt 0 discriminator 2 view .LVU173
 674 0118 0134     		adds	r4, r4, #1
 675              	.LVL64:
 983:lvgl/src/widgets/lv_btnmatrix.c ****         lv_area_copy(&btn_area, &btnm->button_areas[i]);
 676              		.loc 1 983 36 discriminator 2 view .LVU174
 677 011a A4B2     		uxth	r4, r4
 678              	.LVL65:
 679              	.L29:
 983:lvgl/src/widgets/lv_btnmatrix.c ****         lv_area_copy(&btn_area, &btnm->button_areas[i]);
 680              		.loc 1 983 16 is_stmt 1 discriminator 1 view .LVU175
 983:lvgl/src/widgets/lv_btnmatrix.c ****         lv_area_copy(&btn_area, &btnm->button_areas[i]);
 681              		.loc 1 983 24 is_stmt 0 discriminator 1 view .LVU176
 682 011c 2B8E     		ldrh	r3, [r5, #48]
 983:lvgl/src/widgets/lv_btnmatrix.c ****         lv_area_copy(&btn_area, &btnm->button_areas[i]);
 683              		.loc 1 983 5 discriminator 1 view .LVU177
 684 011e A342     		cmp	r3, r4
 685 0120 5BD9     		bls	.L38
 984:lvgl/src/widgets/lv_btnmatrix.c ****         if(btn_area.x1 <= pleft) btn_area.x1 += obj_cords.x1 - LV_MIN(pleft, BTN_EXTRA_CLICK_AREA_M
 686              		.loc 1 984 9 is_stmt 1 view .LVU178
 984:lvgl/src/widgets/lv_btnmatrix.c ****         if(btn_area.x1 <= pleft) btn_area.x1 += obj_cords.x1 - LV_MIN(pleft, BTN_EXTRA_CLICK_AREA_M
 687              		.loc 1 984 38 is_stmt 0 view .LVU179
 688 0122 AA6A     		ldr	r2, [r5, #40]
 984:lvgl/src/widgets/lv_btnmatrix.c ****         if(btn_area.x1 <= pleft) btn_area.x1 += obj_cords.x1 - LV_MIN(pleft, BTN_EXTRA_CLICK_AREA_M
 689              		.loc 1 984 33 view .LVU180
 690 0124 02EBC403 		add	r3, r2, r4, lsl #3
 691              	.LVL66:
 692              	.LBB93:
 693              	.LBI93:
 694              		.file 3 "d:\\kzc\\stm32\\h743ii_lcd\\lvgl\\src\\misc\\lv_area.h"
   1:d:\kzc\stm32\h743ii_lcd\lvgl\src\misc\lv_area.h **** /**
   2:d:\kzc\stm32\h743ii_lcd\lvgl\src\misc\lv_area.h ****  * @file lv_area.h
   3:d:\kzc\stm32\h743ii_lcd\lvgl\src\misc\lv_area.h ****  *
   4:d:\kzc\stm32\h743ii_lcd\lvgl\src\misc\lv_area.h ****  */
   5:d:\kzc\stm32\h743ii_lcd\lvgl\src\misc\lv_area.h **** 
   6:d:\kzc\stm32\h743ii_lcd\lvgl\src\misc\lv_area.h **** #ifndef LV_AREA_H
   7:d:\kzc\stm32\h743ii_lcd\lvgl\src\misc\lv_area.h **** #define LV_AREA_H
   8:d:\kzc\stm32\h743ii_lcd\lvgl\src\misc\lv_area.h **** 
   9:d:\kzc\stm32\h743ii_lcd\lvgl\src\misc\lv_area.h **** #ifdef __cplusplus
  10:d:\kzc\stm32\h743ii_lcd\lvgl\src\misc\lv_area.h **** extern "C" {
  11:d:\kzc\stm32\h743ii_lcd\lvgl\src\misc\lv_area.h **** #endif
  12:d:\kzc\stm32\h743ii_lcd\lvgl\src\misc\lv_area.h **** 
  13:d:\kzc\stm32\h743ii_lcd\lvgl\src\misc\lv_area.h **** /*********************
  14:d:\kzc\stm32\h743ii_lcd\lvgl\src\misc\lv_area.h ****  *      INCLUDES
  15:d:\kzc\stm32\h743ii_lcd\lvgl\src\misc\lv_area.h ****  *********************/
ARM GAS  C:\Users\OSD\AppData\Local\Temp\ccnvvkrZ.s 			page 36


  16:d:\kzc\stm32\h743ii_lcd\lvgl\src\misc\lv_area.h **** #include "../lv_conf_internal.h"
  17:d:\kzc\stm32\h743ii_lcd\lvgl\src\misc\lv_area.h **** #include <stdbool.h>
  18:d:\kzc\stm32\h743ii_lcd\lvgl\src\misc\lv_area.h **** #include <stdint.h>
  19:d:\kzc\stm32\h743ii_lcd\lvgl\src\misc\lv_area.h **** 
  20:d:\kzc\stm32\h743ii_lcd\lvgl\src\misc\lv_area.h **** /*********************
  21:d:\kzc\stm32\h743ii_lcd\lvgl\src\misc\lv_area.h ****  *      DEFINES
  22:d:\kzc\stm32\h743ii_lcd\lvgl\src\misc\lv_area.h ****  *********************/
  23:d:\kzc\stm32\h743ii_lcd\lvgl\src\misc\lv_area.h **** 
  24:d:\kzc\stm32\h743ii_lcd\lvgl\src\misc\lv_area.h **** #if LV_USE_LARGE_COORD
  25:d:\kzc\stm32\h743ii_lcd\lvgl\src\misc\lv_area.h **** typedef int32_t lv_coord_t;
  26:d:\kzc\stm32\h743ii_lcd\lvgl\src\misc\lv_area.h **** #else
  27:d:\kzc\stm32\h743ii_lcd\lvgl\src\misc\lv_area.h **** typedef int16_t lv_coord_t;
  28:d:\kzc\stm32\h743ii_lcd\lvgl\src\misc\lv_area.h **** #endif
  29:d:\kzc\stm32\h743ii_lcd\lvgl\src\misc\lv_area.h **** 
  30:d:\kzc\stm32\h743ii_lcd\lvgl\src\misc\lv_area.h **** /**********************
  31:d:\kzc\stm32\h743ii_lcd\lvgl\src\misc\lv_area.h ****  *      TYPEDEFS
  32:d:\kzc\stm32\h743ii_lcd\lvgl\src\misc\lv_area.h ****  **********************/
  33:d:\kzc\stm32\h743ii_lcd\lvgl\src\misc\lv_area.h **** 
  34:d:\kzc\stm32\h743ii_lcd\lvgl\src\misc\lv_area.h **** /**
  35:d:\kzc\stm32\h743ii_lcd\lvgl\src\misc\lv_area.h ****  * Represents a point on the screen.
  36:d:\kzc\stm32\h743ii_lcd\lvgl\src\misc\lv_area.h ****  */
  37:d:\kzc\stm32\h743ii_lcd\lvgl\src\misc\lv_area.h **** typedef struct {
  38:d:\kzc\stm32\h743ii_lcd\lvgl\src\misc\lv_area.h ****     lv_coord_t x;
  39:d:\kzc\stm32\h743ii_lcd\lvgl\src\misc\lv_area.h ****     lv_coord_t y;
  40:d:\kzc\stm32\h743ii_lcd\lvgl\src\misc\lv_area.h **** } lv_point_t;
  41:d:\kzc\stm32\h743ii_lcd\lvgl\src\misc\lv_area.h **** 
  42:d:\kzc\stm32\h743ii_lcd\lvgl\src\misc\lv_area.h **** /** Represents an area of the screen.*/
  43:d:\kzc\stm32\h743ii_lcd\lvgl\src\misc\lv_area.h **** typedef struct {
  44:d:\kzc\stm32\h743ii_lcd\lvgl\src\misc\lv_area.h ****     lv_coord_t x1;
  45:d:\kzc\stm32\h743ii_lcd\lvgl\src\misc\lv_area.h ****     lv_coord_t y1;
  46:d:\kzc\stm32\h743ii_lcd\lvgl\src\misc\lv_area.h ****     lv_coord_t x2;
  47:d:\kzc\stm32\h743ii_lcd\lvgl\src\misc\lv_area.h ****     lv_coord_t y2;
  48:d:\kzc\stm32\h743ii_lcd\lvgl\src\misc\lv_area.h **** } lv_area_t;
  49:d:\kzc\stm32\h743ii_lcd\lvgl\src\misc\lv_area.h **** 
  50:d:\kzc\stm32\h743ii_lcd\lvgl\src\misc\lv_area.h **** /** Alignments*/
  51:d:\kzc\stm32\h743ii_lcd\lvgl\src\misc\lv_area.h **** enum {
  52:d:\kzc\stm32\h743ii_lcd\lvgl\src\misc\lv_area.h ****     LV_ALIGN_DEFAULT = 0,
  53:d:\kzc\stm32\h743ii_lcd\lvgl\src\misc\lv_area.h ****     LV_ALIGN_TOP_LEFT,
  54:d:\kzc\stm32\h743ii_lcd\lvgl\src\misc\lv_area.h ****     LV_ALIGN_TOP_MID,
  55:d:\kzc\stm32\h743ii_lcd\lvgl\src\misc\lv_area.h ****     LV_ALIGN_TOP_RIGHT,
  56:d:\kzc\stm32\h743ii_lcd\lvgl\src\misc\lv_area.h ****     LV_ALIGN_BOTTOM_LEFT,
  57:d:\kzc\stm32\h743ii_lcd\lvgl\src\misc\lv_area.h ****     LV_ALIGN_BOTTOM_MID,
  58:d:\kzc\stm32\h743ii_lcd\lvgl\src\misc\lv_area.h ****     LV_ALIGN_BOTTOM_RIGHT,
  59:d:\kzc\stm32\h743ii_lcd\lvgl\src\misc\lv_area.h ****     LV_ALIGN_LEFT_MID,
  60:d:\kzc\stm32\h743ii_lcd\lvgl\src\misc\lv_area.h ****     LV_ALIGN_RIGHT_MID,
  61:d:\kzc\stm32\h743ii_lcd\lvgl\src\misc\lv_area.h ****     LV_ALIGN_CENTER,
  62:d:\kzc\stm32\h743ii_lcd\lvgl\src\misc\lv_area.h **** 
  63:d:\kzc\stm32\h743ii_lcd\lvgl\src\misc\lv_area.h ****     LV_ALIGN_OUT_TOP_LEFT,
  64:d:\kzc\stm32\h743ii_lcd\lvgl\src\misc\lv_area.h ****     LV_ALIGN_OUT_TOP_MID,
  65:d:\kzc\stm32\h743ii_lcd\lvgl\src\misc\lv_area.h ****     LV_ALIGN_OUT_TOP_RIGHT,
  66:d:\kzc\stm32\h743ii_lcd\lvgl\src\misc\lv_area.h ****     LV_ALIGN_OUT_BOTTOM_LEFT,
  67:d:\kzc\stm32\h743ii_lcd\lvgl\src\misc\lv_area.h ****     LV_ALIGN_OUT_BOTTOM_MID,
  68:d:\kzc\stm32\h743ii_lcd\lvgl\src\misc\lv_area.h ****     LV_ALIGN_OUT_BOTTOM_RIGHT,
  69:d:\kzc\stm32\h743ii_lcd\lvgl\src\misc\lv_area.h ****     LV_ALIGN_OUT_LEFT_TOP,
  70:d:\kzc\stm32\h743ii_lcd\lvgl\src\misc\lv_area.h ****     LV_ALIGN_OUT_LEFT_MID,
  71:d:\kzc\stm32\h743ii_lcd\lvgl\src\misc\lv_area.h ****     LV_ALIGN_OUT_LEFT_BOTTOM,
  72:d:\kzc\stm32\h743ii_lcd\lvgl\src\misc\lv_area.h ****     LV_ALIGN_OUT_RIGHT_TOP,
ARM GAS  C:\Users\OSD\AppData\Local\Temp\ccnvvkrZ.s 			page 37


  73:d:\kzc\stm32\h743ii_lcd\lvgl\src\misc\lv_area.h ****     LV_ALIGN_OUT_RIGHT_MID,
  74:d:\kzc\stm32\h743ii_lcd\lvgl\src\misc\lv_area.h ****     LV_ALIGN_OUT_RIGHT_BOTTOM,
  75:d:\kzc\stm32\h743ii_lcd\lvgl\src\misc\lv_area.h **** };
  76:d:\kzc\stm32\h743ii_lcd\lvgl\src\misc\lv_area.h **** typedef uint8_t lv_align_t;
  77:d:\kzc\stm32\h743ii_lcd\lvgl\src\misc\lv_area.h **** 
  78:d:\kzc\stm32\h743ii_lcd\lvgl\src\misc\lv_area.h **** enum {
  79:d:\kzc\stm32\h743ii_lcd\lvgl\src\misc\lv_area.h ****     LV_DIR_NONE     = 0x00,
  80:d:\kzc\stm32\h743ii_lcd\lvgl\src\misc\lv_area.h ****     LV_DIR_LEFT     = (1 << 0),
  81:d:\kzc\stm32\h743ii_lcd\lvgl\src\misc\lv_area.h ****     LV_DIR_RIGHT    = (1 << 1),
  82:d:\kzc\stm32\h743ii_lcd\lvgl\src\misc\lv_area.h ****     LV_DIR_TOP      = (1 << 2),
  83:d:\kzc\stm32\h743ii_lcd\lvgl\src\misc\lv_area.h ****     LV_DIR_BOTTOM   = (1 << 3),
  84:d:\kzc\stm32\h743ii_lcd\lvgl\src\misc\lv_area.h ****     LV_DIR_HOR      = LV_DIR_LEFT | LV_DIR_RIGHT,
  85:d:\kzc\stm32\h743ii_lcd\lvgl\src\misc\lv_area.h ****     LV_DIR_VER      = LV_DIR_TOP | LV_DIR_BOTTOM,
  86:d:\kzc\stm32\h743ii_lcd\lvgl\src\misc\lv_area.h ****     LV_DIR_ALL      = LV_DIR_HOR | LV_DIR_VER,
  87:d:\kzc\stm32\h743ii_lcd\lvgl\src\misc\lv_area.h **** };
  88:d:\kzc\stm32\h743ii_lcd\lvgl\src\misc\lv_area.h **** 
  89:d:\kzc\stm32\h743ii_lcd\lvgl\src\misc\lv_area.h **** typedef uint8_t lv_dir_t;
  90:d:\kzc\stm32\h743ii_lcd\lvgl\src\misc\lv_area.h **** 
  91:d:\kzc\stm32\h743ii_lcd\lvgl\src\misc\lv_area.h **** /**********************
  92:d:\kzc\stm32\h743ii_lcd\lvgl\src\misc\lv_area.h ****  * GLOBAL PROTOTYPES
  93:d:\kzc\stm32\h743ii_lcd\lvgl\src\misc\lv_area.h ****  **********************/
  94:d:\kzc\stm32\h743ii_lcd\lvgl\src\misc\lv_area.h **** 
  95:d:\kzc\stm32\h743ii_lcd\lvgl\src\misc\lv_area.h **** /**
  96:d:\kzc\stm32\h743ii_lcd\lvgl\src\misc\lv_area.h ****  * Initialize an area
  97:d:\kzc\stm32\h743ii_lcd\lvgl\src\misc\lv_area.h ****  * @param area_p pointer to an area
  98:d:\kzc\stm32\h743ii_lcd\lvgl\src\misc\lv_area.h ****  * @param x1 left coordinate of the area
  99:d:\kzc\stm32\h743ii_lcd\lvgl\src\misc\lv_area.h ****  * @param y1 top coordinate of the area
 100:d:\kzc\stm32\h743ii_lcd\lvgl\src\misc\lv_area.h ****  * @param x2 right coordinate of the area
 101:d:\kzc\stm32\h743ii_lcd\lvgl\src\misc\lv_area.h ****  * @param y2 bottom coordinate of the area
 102:d:\kzc\stm32\h743ii_lcd\lvgl\src\misc\lv_area.h ****  */
 103:d:\kzc\stm32\h743ii_lcd\lvgl\src\misc\lv_area.h **** void lv_area_set(lv_area_t * area_p, lv_coord_t x1, lv_coord_t y1, lv_coord_t x2, lv_coord_t y2);
 104:d:\kzc\stm32\h743ii_lcd\lvgl\src\misc\lv_area.h **** 
 105:d:\kzc\stm32\h743ii_lcd\lvgl\src\misc\lv_area.h **** /**
 106:d:\kzc\stm32\h743ii_lcd\lvgl\src\misc\lv_area.h ****  * Copy an area
 107:d:\kzc\stm32\h743ii_lcd\lvgl\src\misc\lv_area.h ****  * @param dest pointer to the destination area
 108:d:\kzc\stm32\h743ii_lcd\lvgl\src\misc\lv_area.h ****  * @param src pointer to the source area
 109:d:\kzc\stm32\h743ii_lcd\lvgl\src\misc\lv_area.h ****  */
 110:d:\kzc\stm32\h743ii_lcd\lvgl\src\misc\lv_area.h **** inline static void lv_area_copy(lv_area_t * dest, const lv_area_t * src)
 695              		.loc 3 110 20 is_stmt 1 view .LVU181
 696              	.LBB94:
 111:d:\kzc\stm32\h743ii_lcd\lvgl\src\misc\lv_area.h **** {
 112:d:\kzc\stm32\h743ii_lcd\lvgl\src\misc\lv_area.h ****     dest->x1 = src->x1;
 697              		.loc 3 112 5 view .LVU182
 698              		.loc 3 112 19 is_stmt 0 view .LVU183
 699 0128 32F934C0 		ldrsh	ip, [r2, r4, lsl #3]
 700              		.loc 3 112 14 view .LVU184
 701 012c ADF810C0 		strh	ip, [sp, #16]	@ movhi
 113:d:\kzc\stm32\h743ii_lcd\lvgl\src\misc\lv_area.h ****     dest->y1 = src->y1;
 702              		.loc 3 113 5 is_stmt 1 view .LVU185
 703              		.loc 3 113 19 is_stmt 0 view .LVU186
 704 0130 B3F90200 		ldrsh	r0, [r3, #2]
 705              		.loc 3 113 14 view .LVU187
 706 0134 ADF81200 		strh	r0, [sp, #18]	@ movhi
 114:d:\kzc\stm32\h743ii_lcd\lvgl\src\misc\lv_area.h ****     dest->x2 = src->x2;
 707              		.loc 3 114 5 is_stmt 1 view .LVU188
 708              		.loc 3 114 19 is_stmt 0 view .LVU189
 709 0138 B3F90410 		ldrsh	r1, [r3, #4]
ARM GAS  C:\Users\OSD\AppData\Local\Temp\ccnvvkrZ.s 			page 38


 710              		.loc 3 114 14 view .LVU190
 711 013c ADF81410 		strh	r1, [sp, #20]	@ movhi
 115:d:\kzc\stm32\h743ii_lcd\lvgl\src\misc\lv_area.h ****     dest->y2 = src->y2;
 712              		.loc 3 115 5 is_stmt 1 view .LVU191
 713              		.loc 3 115 19 is_stmt 0 view .LVU192
 714 0140 B3F90620 		ldrsh	r2, [r3, #6]
 715              		.loc 3 115 14 view .LVU193
 716 0144 ADF81620 		strh	r2, [sp, #22]	@ movhi
 717              	.LVL67:
 718              		.loc 3 115 14 view .LVU194
 719              	.LBE94:
 720              	.LBE93:
 985:lvgl/src/widgets/lv_btnmatrix.c ****         else btn_area.x1 += obj_cords.x1 - pcol;
 721              		.loc 1 985 9 is_stmt 1 view .LVU195
 985:lvgl/src/widgets/lv_btnmatrix.c ****         else btn_area.x1 += obj_cords.x1 - pcol;
 722              		.loc 1 985 11 is_stmt 0 view .LVU196
 723 0148 E345     		cmp	fp, ip
 724 014a BFDB     		blt	.L30
 985:lvgl/src/widgets/lv_btnmatrix.c ****         else btn_area.x1 += obj_cords.x1 - pcol;
 725              		.loc 1 985 34 is_stmt 1 discriminator 1 view .LVU197
 985:lvgl/src/widgets/lv_btnmatrix.c ****         else btn_area.x1 += obj_cords.x1 - pcol;
 726              		.loc 1 985 58 is_stmt 0 discriminator 1 view .LVU198
 727 014c BDF81830 		ldrh	r3, [sp, #24]
 985:lvgl/src/widgets/lv_btnmatrix.c ****         else btn_area.x1 += obj_cords.x1 - pcol;
 728              		.loc 1 985 64 discriminator 1 view .LVU199
 729 0150 DE46     		mov	lr, fp
 730 0152 BBF10D0F 		cmp	fp, #13
 731 0156 A8BF     		it	ge
 732 0158 4FF00D0E 		movge	lr, #13
 733 015c 1FFA8EFE 		uxth	lr, lr
 985:lvgl/src/widgets/lv_btnmatrix.c ****         else btn_area.x1 += obj_cords.x1 - pcol;
 734              		.loc 1 985 62 discriminator 1 view .LVU200
 735 0160 A3EB0E03 		sub	r3, r3, lr
 985:lvgl/src/widgets/lv_btnmatrix.c ****         else btn_area.x1 += obj_cords.x1 - pcol;
 736              		.loc 1 985 46 discriminator 1 view .LVU201
 737 0164 1CFA83FC 		uxtah	ip, ip, r3
 738 0168 ADF810C0 		strh	ip, [sp, #16]	@ movhi
 739              	.L31:
 988:lvgl/src/widgets/lv_btnmatrix.c ****         else btn_area.y1 += obj_cords.y1 - prow;
 740              		.loc 1 988 9 is_stmt 1 view .LVU202
 988:lvgl/src/widgets/lv_btnmatrix.c ****         else btn_area.y1 += obj_cords.y1 - prow;
 741              		.loc 1 988 11 is_stmt 0 view .LVU203
 742 016c 8145     		cmp	r9, r0
 743 016e B5DB     		blt	.L32
 988:lvgl/src/widgets/lv_btnmatrix.c ****         else btn_area.y1 += obj_cords.y1 - prow;
 744              		.loc 1 988 33 is_stmt 1 discriminator 1 view .LVU204
 988:lvgl/src/widgets/lv_btnmatrix.c ****         else btn_area.y1 += obj_cords.y1 - prow;
 745              		.loc 1 988 57 is_stmt 0 discriminator 1 view .LVU205
 746 0170 BDF81A30 		ldrh	r3, [sp, #26]
 988:lvgl/src/widgets/lv_btnmatrix.c ****         else btn_area.y1 += obj_cords.y1 - prow;
 747              		.loc 1 988 63 discriminator 1 view .LVU206
 748 0174 CC46     		mov	ip, r9
 749 0176 B9F10D0F 		cmp	r9, #13
 750 017a A8BF     		it	ge
 751 017c 4FF00D0C 		movge	ip, #13
 752 0180 1FFA8CFC 		uxth	ip, ip
 988:lvgl/src/widgets/lv_btnmatrix.c ****         else btn_area.y1 += obj_cords.y1 - prow;
ARM GAS  C:\Users\OSD\AppData\Local\Temp\ccnvvkrZ.s 			page 39


 753              		.loc 1 988 61 discriminator 1 view .LVU207
 754 0184 A3EB0C03 		sub	r3, r3, ip
 988:lvgl/src/widgets/lv_btnmatrix.c ****         else btn_area.y1 += obj_cords.y1 - prow;
 755              		.loc 1 988 45 discriminator 1 view .LVU208
 756 0188 10FA83F0 		uxtah	r0, r0, r3
 757 018c ADF81200 		strh	r0, [sp, #18]	@ movhi
 758              	.L33:
 991:lvgl/src/widgets/lv_btnmatrix.c ****                                                                                    BTN_EXTRA_CLICK_
 759              		.loc 1 991 9 is_stmt 1 view .LVU209
 991:lvgl/src/widgets/lv_btnmatrix.c ****                                                                                    BTN_EXTRA_CLICK_
 760              		.loc 1 991 29 is_stmt 0 view .LVU210
 761 0190 019B     		ldr	r3, [sp, #4]
 762 0192 A3EB0A03 		sub	r3, r3, r10
 991:lvgl/src/widgets/lv_btnmatrix.c ****                                                                                    BTN_EXTRA_CLICK_
 763              		.loc 1 991 38 view .LVU211
 764 0196 023B     		subs	r3, r3, #2
 991:lvgl/src/widgets/lv_btnmatrix.c ****                                                                                    BTN_EXTRA_CLICK_
 765              		.loc 1 991 11 view .LVU212
 766 0198 9942     		cmp	r1, r3
 767 019a A7DB     		blt	.L34
 991:lvgl/src/widgets/lv_btnmatrix.c ****                                                                                    BTN_EXTRA_CLICK_
 768              		.loc 1 991 43 is_stmt 1 discriminator 1 view .LVU213
 991:lvgl/src/widgets/lv_btnmatrix.c ****                                                                                    BTN_EXTRA_CLICK_
 769              		.loc 1 991 67 is_stmt 0 discriminator 1 view .LVU214
 770 019c BDF81800 		ldrh	r0, [sp, #24]
 991:lvgl/src/widgets/lv_btnmatrix.c ****                                                                                    BTN_EXTRA_CLICK_
 771              		.loc 1 991 73 discriminator 1 view .LVU215
 772 01a0 5346     		mov	r3, r10
 773 01a2 0D2B     		cmp	r3, #13
 774 01a4 A8BF     		it	ge
 775 01a6 0D23     		movge	r3, #13
 991:lvgl/src/widgets/lv_btnmatrix.c ****                                                                                    BTN_EXTRA_CLICK_
 776              		.loc 1 991 71 discriminator 1 view .LVU216
 777 01a8 10FA83F3 		uxtah	r3, r0, r3
 991:lvgl/src/widgets/lv_btnmatrix.c ****                                                                                    BTN_EXTRA_CLICK_
 778              		.loc 1 991 55 discriminator 1 view .LVU217
 779 01ac 11FA83F1 		uxtah	r1, r1, r3
 780 01b0 ADF81410 		strh	r1, [sp, #20]	@ movhi
 781              	.L35:
 995:lvgl/src/widgets/lv_btnmatrix.c ****                                                                                     BTN_EXTRA_CLICK
 782              		.loc 1 995 9 is_stmt 1 view .LVU218
 995:lvgl/src/widgets/lv_btnmatrix.c ****                                                                                     BTN_EXTRA_CLICK
 783              		.loc 1 995 29 is_stmt 0 view .LVU219
 784 01b4 029B     		ldr	r3, [sp, #8]
 785 01b6 A3EB0803 		sub	r3, r3, r8
 995:lvgl/src/widgets/lv_btnmatrix.c ****                                                                                     BTN_EXTRA_CLICK
 786              		.loc 1 995 39 view .LVU220
 787 01ba 023B     		subs	r3, r3, #2
 995:lvgl/src/widgets/lv_btnmatrix.c ****                                                                                     BTN_EXTRA_CLICK
 788              		.loc 1 995 11 view .LVU221
 789 01bc 9A42     		cmp	r2, r3
 790 01be 9DDB     		blt	.L36
 995:lvgl/src/widgets/lv_btnmatrix.c ****                                                                                     BTN_EXTRA_CLICK
 791              		.loc 1 995 44 is_stmt 1 discriminator 1 view .LVU222
 995:lvgl/src/widgets/lv_btnmatrix.c ****                                                                                     BTN_EXTRA_CLICK
 792              		.loc 1 995 68 is_stmt 0 discriminator 1 view .LVU223
 793 01c0 BDF81A10 		ldrh	r1, [sp, #26]
ARM GAS  C:\Users\OSD\AppData\Local\Temp\ccnvvkrZ.s 			page 40


 995:lvgl/src/widgets/lv_btnmatrix.c ****                                                                                     BTN_EXTRA_CLICK
 794              		.loc 1 995 74 discriminator 1 view .LVU224
 795 01c4 4346     		mov	r3, r8
 796 01c6 0D2B     		cmp	r3, #13
 797 01c8 A8BF     		it	ge
 798 01ca 0D23     		movge	r3, #13
 995:lvgl/src/widgets/lv_btnmatrix.c ****                                                                                     BTN_EXTRA_CLICK
 799              		.loc 1 995 72 discriminator 1 view .LVU225
 800 01cc 11FA83F3 		uxtah	r3, r1, r3
 995:lvgl/src/widgets/lv_btnmatrix.c ****                                                                                     BTN_EXTRA_CLICK
 801              		.loc 1 995 56 discriminator 1 view .LVU226
 802 01d0 12FA83F2 		uxtah	r2, r2, r3
 803 01d4 ADF81620 		strh	r2, [sp, #22]	@ movhi
 804 01d8 97E7     		b	.L37
 805              	.L38:
1004:lvgl/src/widgets/lv_btnmatrix.c **** 
 806              		.loc 1 1004 5 is_stmt 1 view .LVU227
1004:lvgl/src/widgets/lv_btnmatrix.c **** 
 807              		.loc 1 1004 17 is_stmt 0 view .LVU228
 808 01da 2B8E     		ldrh	r3, [r5, #48]
1004:lvgl/src/widgets/lv_btnmatrix.c **** 
 809              		.loc 1 1004 7 view .LVU229
 810 01dc A342     		cmp	r3, r4
 811 01de 03D0     		beq	.L45
 812              	.LVL68:
 813              	.L40:
1006:lvgl/src/widgets/lv_btnmatrix.c **** }
 814              		.loc 1 1006 5 is_stmt 1 view .LVU230
1007:lvgl/src/widgets/lv_btnmatrix.c **** 
 815              		.loc 1 1007 1 is_stmt 0 view .LVU231
 816 01e0 2046     		mov	r0, r4
 817 01e2 09B0     		add	sp, sp, #36
 818              		.cfi_remember_state
 819              		.cfi_def_cfa_offset 36
 820              		@ sp needed
 821 01e4 BDE8F08F 		pop	{r4, r5, r6, r7, r8, r9, r10, fp, pc}
 822              	.LVL69:
 823              	.L45:
 824              		.cfi_restore_state
1004:lvgl/src/widgets/lv_btnmatrix.c **** 
 825              		.loc 1 1004 30 view .LVU232
 826 01e8 4FF6FF74 		movw	r4, #65535
 827              	.LVL70:
1004:lvgl/src/widgets/lv_btnmatrix.c **** 
 828              		.loc 1 1004 30 view .LVU233
 829 01ec F8E7     		b	.L40
 830              		.cfi_endproc
 831              	.LFE191:
 833              		.section	.text.invalidate_button_area,"ax",%progbits
 834              		.align	1
 835              		.syntax unified
 836              		.thumb
 837              		.thumb_func
 839              	invalidate_button_area:
 840              	.LVL71:
 841              	.LFB192:
1010:lvgl/src/widgets/lv_btnmatrix.c ****     if(btn_idx == LV_BTNMATRIX_BTN_NONE) return;
ARM GAS  C:\Users\OSD\AppData\Local\Temp\ccnvvkrZ.s 			page 41


 842              		.loc 1 1010 1 is_stmt 1 view -0
 843              		.cfi_startproc
 844              		@ args = 0, pretend = 0, frame = 16
 845              		@ frame_needed = 0, uses_anonymous_args = 0
1011:lvgl/src/widgets/lv_btnmatrix.c **** 
 846              		.loc 1 1011 5 view .LVU235
1011:lvgl/src/widgets/lv_btnmatrix.c **** 
 847              		.loc 1 1011 7 is_stmt 0 view .LVU236
 848 0000 4FF6FF73 		movw	r3, #65535
 849 0004 9942     		cmp	r1, r3
 850 0006 76D0     		beq	.L51
1010:lvgl/src/widgets/lv_btnmatrix.c ****     if(btn_idx == LV_BTNMATRIX_BTN_NONE) return;
 851              		.loc 1 1010 1 view .LVU237
 852 0008 F0B5     		push	{r4, r5, r6, r7, lr}
 853              		.cfi_def_cfa_offset 20
 854              		.cfi_offset 4, -20
 855              		.cfi_offset 5, -16
 856              		.cfi_offset 6, -12
 857              		.cfi_offset 7, -8
 858              		.cfi_offset 14, -4
 859 000a 85B0     		sub	sp, sp, #20
 860              		.cfi_def_cfa_offset 40
 861 000c 0446     		mov	r4, r0
 862 000e 0D46     		mov	r5, r1
1013:lvgl/src/widgets/lv_btnmatrix.c ****     lv_area_t obj_area;
 863              		.loc 1 1013 5 is_stmt 1 view .LVU238
1014:lvgl/src/widgets/lv_btnmatrix.c **** 
 864              		.loc 1 1014 5 view .LVU239
1016:lvgl/src/widgets/lv_btnmatrix.c ****     if(btn_idx >= btnm->btn_cnt) return;
 865              		.loc 1 1016 5 view .LVU240
 866              	.LVL72:
1016:lvgl/src/widgets/lv_btnmatrix.c ****     if(btn_idx >= btnm->btn_cnt) return;
 867              		.loc 1 1016 51 view .LVU241
1017:lvgl/src/widgets/lv_btnmatrix.c **** 
 868              		.loc 1 1017 5 view .LVU242
1017:lvgl/src/widgets/lv_btnmatrix.c **** 
 869              		.loc 1 1017 23 is_stmt 0 view .LVU243
 870 0010 038E     		ldrh	r3, [r0, #48]
1017:lvgl/src/widgets/lv_btnmatrix.c **** 
 871              		.loc 1 1017 7 view .LVU244
 872 0012 8B42     		cmp	r3, r1
 873 0014 01D8     		bhi	.L54
 874              	.LVL73:
 875              	.L46:
1044:lvgl/src/widgets/lv_btnmatrix.c **** 
 876              		.loc 1 1044 1 view .LVU245
 877 0016 05B0     		add	sp, sp, #20
 878              		.cfi_remember_state
 879              		.cfi_def_cfa_offset 20
 880              		@ sp needed
 881 0018 F0BD     		pop	{r4, r5, r6, r7, pc}
 882              	.LVL74:
 883              	.L54:
 884              		.cfi_restore_state
1019:lvgl/src/widgets/lv_btnmatrix.c ****     lv_obj_get_coords(obj, &obj_area);
 885              		.loc 1 1019 5 is_stmt 1 view .LVU246
1019:lvgl/src/widgets/lv_btnmatrix.c ****     lv_obj_get_coords(obj, &obj_area);
ARM GAS  C:\Users\OSD\AppData\Local\Temp\ccnvvkrZ.s 			page 42


 886              		.loc 1 1019 34 is_stmt 0 view .LVU247
 887 001a 826A     		ldr	r2, [r0, #40]
1019:lvgl/src/widgets/lv_btnmatrix.c ****     lv_obj_get_coords(obj, &obj_area);
 888              		.loc 1 1019 29 view .LVU248
 889 001c 02EBC103 		add	r3, r2, r1, lsl #3
 890              	.LVL75:
 891              	.LBB95:
 892              	.LBI95:
 110:d:\kzc\stm32\h743ii_lcd\lvgl\src\misc\lv_area.h **** {
 893              		.loc 3 110 20 is_stmt 1 view .LVU249
 894              	.LBB96:
 112:d:\kzc\stm32\h743ii_lcd\lvgl\src\misc\lv_area.h ****     dest->y1 = src->y1;
 895              		.loc 3 112 5 view .LVU250
 112:d:\kzc\stm32\h743ii_lcd\lvgl\src\misc\lv_area.h ****     dest->y1 = src->y1;
 896              		.loc 3 112 19 is_stmt 0 view .LVU251
 897 0020 32F93120 		ldrsh	r2, [r2, r1, lsl #3]
 112:d:\kzc\stm32\h743ii_lcd\lvgl\src\misc\lv_area.h ****     dest->y1 = src->y1;
 898              		.loc 3 112 14 view .LVU252
 899 0024 ADF80820 		strh	r2, [sp, #8]	@ movhi
 113:d:\kzc\stm32\h743ii_lcd\lvgl\src\misc\lv_area.h ****     dest->x2 = src->x2;
 900              		.loc 3 113 5 is_stmt 1 view .LVU253
 113:d:\kzc\stm32\h743ii_lcd\lvgl\src\misc\lv_area.h ****     dest->x2 = src->x2;
 901              		.loc 3 113 19 is_stmt 0 view .LVU254
 902 0028 B3F90220 		ldrsh	r2, [r3, #2]
 113:d:\kzc\stm32\h743ii_lcd\lvgl\src\misc\lv_area.h ****     dest->x2 = src->x2;
 903              		.loc 3 113 14 view .LVU255
 904 002c ADF80A20 		strh	r2, [sp, #10]	@ movhi
 114:d:\kzc\stm32\h743ii_lcd\lvgl\src\misc\lv_area.h ****     dest->y2 = src->y2;
 905              		.loc 3 114 5 is_stmt 1 view .LVU256
 114:d:\kzc\stm32\h743ii_lcd\lvgl\src\misc\lv_area.h ****     dest->y2 = src->y2;
 906              		.loc 3 114 19 is_stmt 0 view .LVU257
 907 0030 B3F90420 		ldrsh	r2, [r3, #4]
 114:d:\kzc\stm32\h743ii_lcd\lvgl\src\misc\lv_area.h ****     dest->y2 = src->y2;
 908              		.loc 3 114 14 view .LVU258
 909 0034 ADF80C20 		strh	r2, [sp, #12]	@ movhi
 910              		.loc 3 115 5 is_stmt 1 view .LVU259
 911              		.loc 3 115 19 is_stmt 0 view .LVU260
 912 0038 B3F90630 		ldrsh	r3, [r3, #6]
 913              	.LVL76:
 914              		.loc 3 115 14 view .LVU261
 915 003c ADF80E30 		strh	r3, [sp, #14]	@ movhi
 916              	.LVL77:
 917              		.loc 3 115 14 view .LVU262
 918              	.LBE96:
 919              	.LBE95:
1020:lvgl/src/widgets/lv_btnmatrix.c **** 
 920              		.loc 1 1020 5 is_stmt 1 view .LVU263
 921 0040 6946     		mov	r1, sp
 922              	.LVL78:
1020:lvgl/src/widgets/lv_btnmatrix.c **** 
 923              		.loc 1 1020 5 is_stmt 0 view .LVU264
 924 0042 FFF7FEFF 		bl	lv_obj_get_coords
 925              	.LVL79:
1024:lvgl/src/widgets/lv_btnmatrix.c ****     lv_coord_t col_gap = lv_obj_get_style_pad_column(obj, LV_PART_MAIN);
 926              		.loc 1 1024 5 is_stmt 1 view .LVU265
 927              	.LBB97:
 928              	.LBI97:
ARM GAS  C:\Users\OSD\AppData\Local\Temp\ccnvvkrZ.s 			page 43


 127:lvgl/src/widgets/../core/lv_obj_style_gen.h **** {
 929              		.loc 2 127 26 view .LVU266
 930              	.LBB98:
 129:lvgl/src/widgets/../core/lv_obj_style_gen.h ****     return (lv_coord_t)v.num;
 931              		.loc 2 129 5 view .LVU267
 129:lvgl/src/widgets/../core/lv_obj_style_gen.h ****     return (lv_coord_t)v.num;
 932              		.loc 2 129 26 is_stmt 0 view .LVU268
 933 0046 1422     		movs	r2, #20
 934 0048 0021     		movs	r1, #0
 935 004a 2046     		mov	r0, r4
 936 004c FFF7FEFF 		bl	lv_obj_get_style_prop
 937              	.LVL80:
 130:lvgl/src/widgets/../core/lv_obj_style_gen.h **** }
 938              		.loc 2 130 5 is_stmt 1 view .LVU269
 130:lvgl/src/widgets/../core/lv_obj_style_gen.h **** }
 939              		.loc 2 130 12 is_stmt 0 view .LVU270
 940 0050 06B2     		sxth	r6, r0
 941              	.LVL81:
 130:lvgl/src/widgets/../core/lv_obj_style_gen.h **** }
 942              		.loc 2 130 12 view .LVU271
 943              	.LBE98:
 944              	.LBE97:
1025:lvgl/src/widgets/lv_btnmatrix.c **** 
 945              		.loc 1 1025 5 is_stmt 1 view .LVU272
 946              	.LBB99:
 947              	.LBI99:
 133:lvgl/src/widgets/../core/lv_obj_style_gen.h **** {
 948              		.loc 2 133 26 view .LVU273
 949              	.LBB100:
 135:lvgl/src/widgets/../core/lv_obj_style_gen.h ****     return (lv_coord_t)v.num;
 950              		.loc 2 135 5 view .LVU274
 135:lvgl/src/widgets/../core/lv_obj_style_gen.h ****     return (lv_coord_t)v.num;
 951              		.loc 2 135 26 is_stmt 0 view .LVU275
 952 0052 1522     		movs	r2, #21
 953 0054 0021     		movs	r1, #0
 954 0056 2046     		mov	r0, r4
 955 0058 FFF7FEFF 		bl	lv_obj_get_style_prop
 956              	.LVL82:
 957              		.loc 2 136 5 is_stmt 1 view .LVU276
 958              		.loc 2 136 12 is_stmt 0 view .LVU277
 959 005c 07B2     		sxth	r7, r0
 960              	.LVL83:
 961              		.loc 2 136 12 view .LVU278
 962              	.LBE100:
 963              	.LBE99:
1028:lvgl/src/widgets/lv_btnmatrix.c ****     row_gap = LV_MAX(row_gap, dpi / 10);
 964              		.loc 1 1028 5 is_stmt 1 view .LVU279
1028:lvgl/src/widgets/lv_btnmatrix.c ****     row_gap = LV_MAX(row_gap, dpi / 10);
 965              		.loc 1 1028 38 is_stmt 0 view .LVU280
 966 005e 2046     		mov	r0, r4
 967 0060 FFF7FEFF 		bl	lv_obj_get_disp
 968              	.LVL84:
1028:lvgl/src/widgets/lv_btnmatrix.c ****     row_gap = LV_MAX(row_gap, dpi / 10);
 969              		.loc 1 1028 22 view .LVU281
 970 0064 FFF7FEFF 		bl	lv_disp_get_dpi
 971              	.LVL85:
1029:lvgl/src/widgets/lv_btnmatrix.c ****     col_gap = LV_MAX(col_gap, dpi / 10);
ARM GAS  C:\Users\OSD\AppData\Local\Temp\ccnvvkrZ.s 			page 44


 972              		.loc 1 1029 5 is_stmt 1 view .LVU282
1029:lvgl/src/widgets/lv_btnmatrix.c ****     col_gap = LV_MAX(col_gap, dpi / 10);
 973              		.loc 1 1029 15 is_stmt 0 view .LVU283
 974 0068 234B     		ldr	r3, .L56
 975 006a 83FB0023 		smull	r2, r3, r3, r0
 976 006e C017     		asrs	r0, r0, #31
 977              	.LVL86:
1029:lvgl/src/widgets/lv_btnmatrix.c ****     col_gap = LV_MAX(col_gap, dpi / 10);
 978              		.loc 1 1029 15 view .LVU284
 979 0070 C0EBA300 		rsb	r0, r0, r3, asr #2
 980 0074 00B2     		sxth	r0, r0
1029:lvgl/src/widgets/lv_btnmatrix.c ****     col_gap = LV_MAX(col_gap, dpi / 10);
 981              		.loc 1 1029 13 view .LVU285
 982 0076 8642     		cmp	r6, r0
 983 0078 B8BF     		it	lt
 984 007a 0646     		movlt	r6, r0
 985              	.LVL87:
1030:lvgl/src/widgets/lv_btnmatrix.c **** 
 986              		.loc 1 1030 5 is_stmt 1 view .LVU286
1030:lvgl/src/widgets/lv_btnmatrix.c **** 
 987              		.loc 1 1030 13 is_stmt 0 view .LVU287
 988 007c B842     		cmp	r0, r7
 989 007e B8BF     		it	lt
 990 0080 3846     		movlt	r0, r7
 991              	.LVL88:
1033:lvgl/src/widgets/lv_btnmatrix.c ****     btn_area.y1 += obj_area.y1 - col_gap;
 992              		.loc 1 1033 5 is_stmt 1 view .LVU288
1033:lvgl/src/widgets/lv_btnmatrix.c ****     btn_area.y1 += obj_area.y1 - col_gap;
 993              		.loc 1 1033 28 is_stmt 0 view .LVU289
 994 0082 BDF80020 		ldrh	r2, [sp]
1033:lvgl/src/widgets/lv_btnmatrix.c ****     btn_area.y1 += obj_area.y1 - col_gap;
 995              		.loc 1 1033 32 view .LVU290
 996 0086 B6B2     		uxth	r6, r6
1033:lvgl/src/widgets/lv_btnmatrix.c ****     btn_area.y1 += obj_area.y1 - col_gap;
 997              		.loc 1 1033 32 view .LVU291
 998 0088 931B     		subs	r3, r2, r6
1033:lvgl/src/widgets/lv_btnmatrix.c ****     btn_area.y1 += obj_area.y1 - col_gap;
 999              		.loc 1 1033 17 view .LVU292
 1000 008a BDF80810 		ldrh	r1, [sp, #8]
 1001 008e 11FA83F3 		uxtah	r3, r1, r3
 1002 0092 ADF80830 		strh	r3, [sp, #8]	@ movhi
1034:lvgl/src/widgets/lv_btnmatrix.c ****     btn_area.x2 += obj_area.x1 + row_gap;
 1003              		.loc 1 1034 5 is_stmt 1 view .LVU293
1034:lvgl/src/widgets/lv_btnmatrix.c ****     btn_area.x2 += obj_area.x1 + row_gap;
 1004              		.loc 1 1034 28 is_stmt 0 view .LVU294
 1005 0096 BDF80230 		ldrh	r3, [sp, #2]
1034:lvgl/src/widgets/lv_btnmatrix.c ****     btn_area.x2 += obj_area.x1 + row_gap;
 1006              		.loc 1 1034 32 view .LVU295
 1007 009a 80B2     		uxth	r0, r0
1034:lvgl/src/widgets/lv_btnmatrix.c ****     btn_area.x2 += obj_area.x1 + row_gap;
 1008              		.loc 1 1034 32 view .LVU296
 1009 009c 191A     		subs	r1, r3, r0
1034:lvgl/src/widgets/lv_btnmatrix.c ****     btn_area.x2 += obj_area.x1 + row_gap;
 1010              		.loc 1 1034 17 view .LVU297
 1011 009e BDF80A70 		ldrh	r7, [sp, #10]
 1012 00a2 17FA81F1 		uxtah	r1, r7, r1
 1013 00a6 89B2     		uxth	r1, r1
ARM GAS  C:\Users\OSD\AppData\Local\Temp\ccnvvkrZ.s 			page 45


 1014 00a8 ADF80A10 		strh	r1, [sp, #10]	@ movhi
1035:lvgl/src/widgets/lv_btnmatrix.c ****     btn_area.y2 += obj_area.y1 + col_gap;
 1015              		.loc 1 1035 5 is_stmt 1 view .LVU298
1035:lvgl/src/widgets/lv_btnmatrix.c ****     btn_area.y2 += obj_area.y1 + col_gap;
 1016              		.loc 1 1035 32 is_stmt 0 view .LVU299
 1017 00ac 3244     		add	r2, r2, r6
1035:lvgl/src/widgets/lv_btnmatrix.c ****     btn_area.y2 += obj_area.y1 + col_gap;
 1018              		.loc 1 1035 17 view .LVU300
 1019 00ae BDF80C60 		ldrh	r6, [sp, #12]
 1020              	.LVL89:
1035:lvgl/src/widgets/lv_btnmatrix.c ****     btn_area.y2 += obj_area.y1 + col_gap;
 1021              		.loc 1 1035 17 view .LVU301
 1022 00b2 16FA82F2 		uxtah	r2, r6, r2
 1023 00b6 ADF80C20 		strh	r2, [sp, #12]	@ movhi
1036:lvgl/src/widgets/lv_btnmatrix.c **** 
 1024              		.loc 1 1036 5 is_stmt 1 view .LVU302
1036:lvgl/src/widgets/lv_btnmatrix.c **** 
 1025              		.loc 1 1036 32 is_stmt 0 view .LVU303
 1026 00ba 0344     		add	r3, r3, r0
1036:lvgl/src/widgets/lv_btnmatrix.c **** 
 1027              		.loc 1 1036 17 view .LVU304
 1028 00bc BDF80E00 		ldrh	r0, [sp, #14]
 1029              	.LVL90:
1036:lvgl/src/widgets/lv_btnmatrix.c **** 
 1030              		.loc 1 1036 17 view .LVU305
 1031 00c0 10FA83F3 		uxtah	r3, r0, r3
 1032 00c4 9BB2     		uxth	r3, r3
 1033 00c6 ADF80E30 		strh	r3, [sp, #14]	@ movhi
1038:lvgl/src/widgets/lv_btnmatrix.c ****         /*Push up the upper boundary of the btn area to also invalidate the popover*/
 1034              		.loc 1 1038 5 is_stmt 1 view .LVU306
1038:lvgl/src/widgets/lv_btnmatrix.c ****         /*Push up the upper boundary of the btn area to also invalidate the popover*/
 1035              		.loc 1 1038 24 is_stmt 0 view .LVU307
 1036 00ca A28E     		ldrh	r2, [r4, #52]
1038:lvgl/src/widgets/lv_btnmatrix.c ****         /*Push up the upper boundary of the btn area to also invalidate the popover*/
 1037              		.loc 1 1038 7 view .LVU308
 1038 00cc AA42     		cmp	r2, r5
1038:lvgl/src/widgets/lv_btnmatrix.c ****         /*Push up the upper boundary of the btn area to also invalidate the popover*/
 1039              		.loc 1 1038 7 view .LVU309
 1040 00ce 04D0     		beq	.L55
 1041              	.L48:
1043:lvgl/src/widgets/lv_btnmatrix.c **** }
 1042              		.loc 1 1043 5 is_stmt 1 view .LVU310
 1043 00d0 02A9     		add	r1, sp, #8
 1044 00d2 2046     		mov	r0, r4
 1045 00d4 FFF7FEFF 		bl	lv_obj_invalidate_area
 1046              	.LVL91:
 1047 00d8 9DE7     		b	.L46
 1048              	.L55:
1038:lvgl/src/widgets/lv_btnmatrix.c ****         /*Push up the upper boundary of the btn area to also invalidate the popover*/
 1049              		.loc 1 1038 46 is_stmt 0 discriminator 1 view .LVU311
 1050 00da E26A     		ldr	r2, [r4, #44]
1038:lvgl/src/widgets/lv_btnmatrix.c ****         /*Push up the upper boundary of the btn area to also invalidate the popover*/
 1051              		.loc 1 1038 57 discriminator 1 view .LVU312
 1052 00dc 32F81520 		ldrh	r2, [r2, r5, lsl #1]
1038:lvgl/src/widgets/lv_btnmatrix.c ****         /*Push up the upper boundary of the btn area to also invalidate the popover*/
 1053              		.loc 1 1038 38 discriminator 1 view .LVU313
 1054 00e0 12F4806F 		tst	r2, #1024
ARM GAS  C:\Users\OSD\AppData\Local\Temp\ccnvvkrZ.s 			page 46


 1055 00e4 F4D0     		beq	.L48
1040:lvgl/src/widgets/lv_btnmatrix.c ****     }
 1056              		.loc 1 1040 9 is_stmt 1 view .LVU314
 1057              	.LVL92:
 1058              	.LBB101:
 1059              	.LBI101:
 116:d:\kzc\stm32\h743ii_lcd\lvgl\src\misc\lv_area.h **** }
 117:d:\kzc\stm32\h743ii_lcd\lvgl\src\misc\lv_area.h **** 
 118:d:\kzc\stm32\h743ii_lcd\lvgl\src\misc\lv_area.h **** /**
 119:d:\kzc\stm32\h743ii_lcd\lvgl\src\misc\lv_area.h ****  * Get the width of an area
 120:d:\kzc\stm32\h743ii_lcd\lvgl\src\misc\lv_area.h ****  * @param area_p pointer to an area
 121:d:\kzc\stm32\h743ii_lcd\lvgl\src\misc\lv_area.h ****  * @return the width of the area (if x1 == x2 -> width = 1)
 122:d:\kzc\stm32\h743ii_lcd\lvgl\src\misc\lv_area.h ****  */
 123:d:\kzc\stm32\h743ii_lcd\lvgl\src\misc\lv_area.h **** static inline lv_coord_t lv_area_get_width(const lv_area_t * area_p)
 124:d:\kzc\stm32\h743ii_lcd\lvgl\src\misc\lv_area.h **** {
 125:d:\kzc\stm32\h743ii_lcd\lvgl\src\misc\lv_area.h ****     return (lv_coord_t)(area_p->x2 - area_p->x1 + 1);
 126:d:\kzc\stm32\h743ii_lcd\lvgl\src\misc\lv_area.h **** }
 127:d:\kzc\stm32\h743ii_lcd\lvgl\src\misc\lv_area.h **** 
 128:d:\kzc\stm32\h743ii_lcd\lvgl\src\misc\lv_area.h **** /**
 129:d:\kzc\stm32\h743ii_lcd\lvgl\src\misc\lv_area.h ****  * Get the height of an area
 130:d:\kzc\stm32\h743ii_lcd\lvgl\src\misc\lv_area.h ****  * @param area_p pointer to an area
 131:d:\kzc\stm32\h743ii_lcd\lvgl\src\misc\lv_area.h ****  * @return the height of the area (if y1 == y2 -> height = 1)
 132:d:\kzc\stm32\h743ii_lcd\lvgl\src\misc\lv_area.h ****  */
 133:d:\kzc\stm32\h743ii_lcd\lvgl\src\misc\lv_area.h **** static inline lv_coord_t lv_area_get_height(const lv_area_t * area_p)
 1060              		.loc 3 133 26 view .LVU315
 1061              	.LBB102:
 134:d:\kzc\stm32\h743ii_lcd\lvgl\src\misc\lv_area.h **** {
 135:d:\kzc\stm32\h743ii_lcd\lvgl\src\misc\lv_area.h ****     return (lv_coord_t)(area_p->y2 - area_p->y1 + 1);
 1062              		.loc 3 135 5 view .LVU316
 1063              		.loc 3 135 36 is_stmt 0 view .LVU317
 1064 00e6 5B1A     		subs	r3, r3, r1
 1065 00e8 9BB2     		uxth	r3, r3
 1066              		.loc 3 135 49 view .LVU318
 1067 00ea 0133     		adds	r3, r3, #1
 1068 00ec 9BB2     		uxth	r3, r3
 1069              	.LVL93:
 1070              		.loc 3 135 49 view .LVU319
 1071              	.LBE102:
 1072              	.LBE101:
1040:lvgl/src/widgets/lv_btnmatrix.c ****     }
 1073              		.loc 1 1040 21 view .LVU320
 1074 00ee CB1A     		subs	r3, r1, r3
 1075 00f0 ADF80A30 		strh	r3, [sp, #10]	@ movhi
 1076 00f4 ECE7     		b	.L48
 1077              	.LVL94:
 1078              	.L51:
 1079              		.cfi_def_cfa_offset 0
 1080              		.cfi_restore 4
 1081              		.cfi_restore 5
 1082              		.cfi_restore 6
 1083              		.cfi_restore 7
 1084              		.cfi_restore 14
1040:lvgl/src/widgets/lv_btnmatrix.c ****     }
 1085              		.loc 1 1040 21 view .LVU321
 1086 00f6 7047     		bx	lr
 1087              	.L57:
 1088              		.align	2
ARM GAS  C:\Users\OSD\AppData\Local\Temp\ccnvvkrZ.s 			page 47


 1089              	.L56:
 1090 00f8 67666666 		.word	1717986919
 1091              		.cfi_endproc
 1092              	.LFE192:
 1094              		.section	.text.draw_main,"ax",%progbits
 1095              		.align	1
 1096              		.syntax unified
 1097              		.thumb
 1098              		.thumb_func
 1100              	draw_main:
 1101              	.LVL95:
 1102              	.LFB179:
 688:lvgl/src/widgets/lv_btnmatrix.c ****     lv_obj_t * obj = lv_event_get_target(e);
 1103              		.loc 1 688 1 is_stmt 1 view -0
 1104              		.cfi_startproc
 1105              		@ args = 0, pretend = 0, frame = 360
 1106              		@ frame_needed = 0, uses_anonymous_args = 0
 688:lvgl/src/widgets/lv_btnmatrix.c ****     lv_obj_t * obj = lv_event_get_target(e);
 1107              		.loc 1 688 1 is_stmt 0 view .LVU323
 1108 0000 2DE9F04F 		push	{r4, r5, r6, r7, r8, r9, r10, fp, lr}
 1109              		.cfi_def_cfa_offset 36
 1110              		.cfi_offset 4, -36
 1111              		.cfi_offset 5, -32
 1112              		.cfi_offset 6, -28
 1113              		.cfi_offset 7, -24
 1114              		.cfi_offset 8, -20
 1115              		.cfi_offset 9, -16
 1116              		.cfi_offset 10, -12
 1117              		.cfi_offset 11, -8
 1118              		.cfi_offset 14, -4
 1119 0004 DFB0     		sub	sp, sp, #380
 1120              		.cfi_def_cfa_offset 416
 1121 0006 0446     		mov	r4, r0
 689:lvgl/src/widgets/lv_btnmatrix.c ****     lv_btnmatrix_t * btnm = (lv_btnmatrix_t *)obj;
 1122              		.loc 1 689 5 is_stmt 1 view .LVU324
 689:lvgl/src/widgets/lv_btnmatrix.c ****     lv_btnmatrix_t * btnm = (lv_btnmatrix_t *)obj;
 1123              		.loc 1 689 22 is_stmt 0 view .LVU325
 1124 0008 FFF7FEFF 		bl	lv_event_get_target
 1125              	.LVL96:
 690:lvgl/src/widgets/lv_btnmatrix.c ****     if(btnm->btn_cnt == 0) return;
 1126              		.loc 1 690 5 is_stmt 1 view .LVU326
 691:lvgl/src/widgets/lv_btnmatrix.c **** 
 1127              		.loc 1 691 5 view .LVU327
 691:lvgl/src/widgets/lv_btnmatrix.c **** 
 1128              		.loc 1 691 12 is_stmt 0 view .LVU328
 1129 000c 038E     		ldrh	r3, [r0, #48]
 691:lvgl/src/widgets/lv_btnmatrix.c **** 
 1130              		.loc 1 691 7 view .LVU329
 1131 000e 13B9     		cbnz	r3, .L88
 1132              	.LVL97:
 1133              	.L58:
 849:lvgl/src/widgets/lv_btnmatrix.c **** /**
 1134              		.loc 1 849 1 view .LVU330
 1135 0010 5FB0     		add	sp, sp, #380
 1136              		.cfi_remember_state
 1137              		.cfi_def_cfa_offset 36
 1138              		@ sp needed
ARM GAS  C:\Users\OSD\AppData\Local\Temp\ccnvvkrZ.s 			page 48


 1139 0012 BDE8F08F 		pop	{r4, r5, r6, r7, r8, r9, r10, fp, pc}
 1140              	.LVL98:
 1141              	.L88:
 1142              		.cfi_restore_state
 849:lvgl/src/widgets/lv_btnmatrix.c **** /**
 1143              		.loc 1 849 1 view .LVU331
 1144 0016 0546     		mov	r5, r0
 693:lvgl/src/widgets/lv_btnmatrix.c ****     obj->skip_trans = 1;
 1145              		.loc 1 693 5 is_stmt 1 view .LVU332
 693:lvgl/src/widgets/lv_btnmatrix.c ****     obj->skip_trans = 1;
 1146              		.loc 1 693 32 is_stmt 0 view .LVU333
 1147 0018 2046     		mov	r0, r4
 1148              	.LVL99:
 693:lvgl/src/widgets/lv_btnmatrix.c ****     obj->skip_trans = 1;
 1149              		.loc 1 693 32 view .LVU334
 1150 001a FFF7FEFF 		bl	lv_event_get_draw_ctx
 1151              	.LVL100:
 1152 001e 0646     		mov	r6, r0
 1153 0020 0490     		str	r0, [sp, #16]
 1154              	.LVL101:
 694:lvgl/src/widgets/lv_btnmatrix.c **** 
 1155              		.loc 1 694 5 is_stmt 1 view .LVU335
 694:lvgl/src/widgets/lv_btnmatrix.c **** 
 1156              		.loc 1 694 21 is_stmt 0 view .LVU336
 1157 0022 95F82230 		ldrb	r3, [r5, #34]	@ zero_extendqisi2
 1158 0026 43F00803 		orr	r3, r3, #8
 1159 002a 85F82230 		strb	r3, [r5, #34]
 696:lvgl/src/widgets/lv_btnmatrix.c ****     lv_obj_get_coords(obj, &area_obj);
 1160              		.loc 1 696 5 is_stmt 1 view .LVU337
 697:lvgl/src/widgets/lv_btnmatrix.c **** 
 1161              		.loc 1 697 5 view .LVU338
 1162 002e 5CA9     		add	r1, sp, #368
 1163 0030 2846     		mov	r0, r5
 1164              	.LVL102:
 697:lvgl/src/widgets/lv_btnmatrix.c **** 
 1165              		.loc 1 697 5 is_stmt 0 view .LVU339
 1166 0032 FFF7FEFF 		bl	lv_obj_get_coords
 1167              	.LVL103:
 699:lvgl/src/widgets/lv_btnmatrix.c **** 
 1168              		.loc 1 699 5 is_stmt 1 view .LVU340
 701:lvgl/src/widgets/lv_btnmatrix.c ****     uint16_t txt_i = 0;
 1169              		.loc 1 701 5 view .LVU341
 702:lvgl/src/widgets/lv_btnmatrix.c **** 
 1170              		.loc 1 702 5 view .LVU342
 704:lvgl/src/widgets/lv_btnmatrix.c ****     lv_draw_label_dsc_t draw_label_dsc_act;
 1171              		.loc 1 704 5 view .LVU343
 705:lvgl/src/widgets/lv_btnmatrix.c **** 
 1172              		.loc 1 705 5 view .LVU344
 707:lvgl/src/widgets/lv_btnmatrix.c ****     lv_draw_label_dsc_t draw_label_dsc_def;
 1173              		.loc 1 707 5 view .LVU345
 708:lvgl/src/widgets/lv_btnmatrix.c **** 
 1174              		.loc 1 708 5 view .LVU346
 710:lvgl/src/widgets/lv_btnmatrix.c ****     obj->state = LV_STATE_DEFAULT;
 1175              		.loc 1 710 5 view .LVU347
 710:lvgl/src/widgets/lv_btnmatrix.c ****     obj->state = LV_STATE_DEFAULT;
 1176              		.loc 1 710 16 is_stmt 0 view .LVU348
 1177 0036 2C8C     		ldrh	r4, [r5, #32]
ARM GAS  C:\Users\OSD\AppData\Local\Temp\ccnvvkrZ.s 			page 49


 1178              	.LVL104:
 710:lvgl/src/widgets/lv_btnmatrix.c ****     obj->state = LV_STATE_DEFAULT;
 1179              		.loc 1 710 16 view .LVU349
 1180 0038 0594     		str	r4, [sp, #20]
 1181              	.LVL105:
 711:lvgl/src/widgets/lv_btnmatrix.c ****     obj->skip_trans = 1;
 1182              		.loc 1 711 5 is_stmt 1 view .LVU350
 711:lvgl/src/widgets/lv_btnmatrix.c ****     obj->skip_trans = 1;
 1183              		.loc 1 711 16 is_stmt 0 view .LVU351
 1184 003a 0027     		movs	r7, #0
 1185 003c 2F84     		strh	r7, [r5, #32]	@ movhi
 712:lvgl/src/widgets/lv_btnmatrix.c ****     lv_draw_rect_dsc_init(&draw_rect_dsc_def);
 1186              		.loc 1 712 5 is_stmt 1 view .LVU352
 712:lvgl/src/widgets/lv_btnmatrix.c ****     lv_draw_rect_dsc_init(&draw_rect_dsc_def);
 1187              		.loc 1 712 21 is_stmt 0 view .LVU353
 1188 003e 95F82230 		ldrb	r3, [r5, #34]	@ zero_extendqisi2
 1189 0042 43F00803 		orr	r3, r3, #8
 1190 0046 85F82230 		strb	r3, [r5, #34]
 713:lvgl/src/widgets/lv_btnmatrix.c ****     lv_draw_label_dsc_init(&draw_label_dsc_def);
 1191              		.loc 1 713 5 is_stmt 1 view .LVU354
 1192 004a 28A8     		add	r0, sp, #160
 1193 004c FFF7FEFF 		bl	lv_draw_rect_dsc_init
 1194              	.LVL106:
 714:lvgl/src/widgets/lv_btnmatrix.c ****     lv_obj_init_draw_rect_dsc(obj, LV_PART_ITEMS, &draw_rect_dsc_def);
 1195              		.loc 1 714 5 view .LVU355
 1196 0050 1EA8     		add	r0, sp, #120
 1197 0052 FFF7FEFF 		bl	lv_draw_label_dsc_init
 1198              	.LVL107:
 715:lvgl/src/widgets/lv_btnmatrix.c ****     lv_obj_init_draw_label_dsc(obj, LV_PART_ITEMS, &draw_label_dsc_def);
 1199              		.loc 1 715 5 view .LVU356
 1200 0056 28AA     		add	r2, sp, #160
 1201 0058 4FF4A021 		mov	r1, #327680
 1202 005c 2846     		mov	r0, r5
 1203 005e FFF7FEFF 		bl	lv_obj_init_draw_rect_dsc
 1204              	.LVL108:
 716:lvgl/src/widgets/lv_btnmatrix.c ****     obj->skip_trans = 0;
 1205              		.loc 1 716 5 view .LVU357
 1206 0062 1EAA     		add	r2, sp, #120
 1207 0064 4FF4A021 		mov	r1, #327680
 1208 0068 2846     		mov	r0, r5
 1209 006a FFF7FEFF 		bl	lv_obj_init_draw_label_dsc
 1210              	.LVL109:
 717:lvgl/src/widgets/lv_btnmatrix.c ****     obj->state = state_ori;
 1211              		.loc 1 717 5 view .LVU358
 717:lvgl/src/widgets/lv_btnmatrix.c ****     obj->state = state_ori;
 1212              		.loc 1 717 21 is_stmt 0 view .LVU359
 1213 006e 95F82230 		ldrb	r3, [r5, #34]	@ zero_extendqisi2
 1214 0072 67F3C303 		bfi	r3, r7, #3, #1
 1215 0076 85F82230 		strb	r3, [r5, #34]
 718:lvgl/src/widgets/lv_btnmatrix.c **** 
 1216              		.loc 1 718 5 is_stmt 1 view .LVU360
 718:lvgl/src/widgets/lv_btnmatrix.c **** 
 1217              		.loc 1 718 16 is_stmt 0 view .LVU361
 1218 007a 2C84     		strh	r4, [r5, #32]	@ movhi
 720:lvgl/src/widgets/lv_btnmatrix.c ****     lv_coord_t pbottom = lv_obj_get_style_pad_bottom(obj, LV_PART_MAIN);
 1219              		.loc 1 720 5 is_stmt 1 view .LVU362
 1220              	.LVL110:
ARM GAS  C:\Users\OSD\AppData\Local\Temp\ccnvvkrZ.s 			page 50


 1221              	.LBB103:
 1222              	.LBI103:
 103:lvgl/src/widgets/../core/lv_obj_style_gen.h **** {
 1223              		.loc 2 103 26 view .LVU363
 1224              	.LBB104:
 105:lvgl/src/widgets/../core/lv_obj_style_gen.h ****     return (lv_coord_t)v.num;
 1225              		.loc 2 105 5 view .LVU364
 105:lvgl/src/widgets/../core/lv_obj_style_gen.h ****     return (lv_coord_t)v.num;
 1226              		.loc 2 105 26 is_stmt 0 view .LVU365
 1227 007c 1022     		movs	r2, #16
 1228 007e 3946     		mov	r1, r7
 1229 0080 2846     		mov	r0, r5
 1230 0082 FFF7FEFF 		bl	lv_obj_get_style_prop
 1231              	.LVL111:
 106:lvgl/src/widgets/../core/lv_obj_style_gen.h **** }
 1232              		.loc 2 106 5 is_stmt 1 view .LVU366
 106:lvgl/src/widgets/../core/lv_obj_style_gen.h **** }
 1233              		.loc 2 106 12 is_stmt 0 view .LVU367
 1234 0086 03B2     		sxth	r3, r0
 1235 0088 0693     		str	r3, [sp, #24]
 1236              	.LVL112:
 106:lvgl/src/widgets/../core/lv_obj_style_gen.h **** }
 1237              		.loc 2 106 12 view .LVU368
 1238              	.LBE104:
 1239              	.LBE103:
 721:lvgl/src/widgets/lv_btnmatrix.c ****     lv_coord_t pleft = lv_obj_get_style_pad_left(obj, LV_PART_MAIN);
 1240              		.loc 1 721 5 is_stmt 1 view .LVU369
 1241              	.LBB105:
 1242              	.LBI105:
 109:lvgl/src/widgets/../core/lv_obj_style_gen.h **** {
 1243              		.loc 2 109 26 view .LVU370
 1244              	.LBB106:
 111:lvgl/src/widgets/../core/lv_obj_style_gen.h ****     return (lv_coord_t)v.num;
 1245              		.loc 2 111 5 view .LVU371
 111:lvgl/src/widgets/../core/lv_obj_style_gen.h ****     return (lv_coord_t)v.num;
 1246              		.loc 2 111 26 is_stmt 0 view .LVU372
 1247 008a 1122     		movs	r2, #17
 1248 008c 3946     		mov	r1, r7
 1249 008e 2846     		mov	r0, r5
 1250 0090 FFF7FEFF 		bl	lv_obj_get_style_prop
 1251              	.LVL113:
 112:lvgl/src/widgets/../core/lv_obj_style_gen.h **** }
 1252              		.loc 2 112 5 is_stmt 1 view .LVU373
 112:lvgl/src/widgets/../core/lv_obj_style_gen.h **** }
 1253              		.loc 2 112 12 is_stmt 0 view .LVU374
 1254 0094 03B2     		sxth	r3, r0
 1255 0096 0793     		str	r3, [sp, #28]
 1256              	.LVL114:
 112:lvgl/src/widgets/../core/lv_obj_style_gen.h **** }
 1257              		.loc 2 112 12 view .LVU375
 1258              	.LBE106:
 1259              	.LBE105:
 722:lvgl/src/widgets/lv_btnmatrix.c ****     lv_coord_t pright = lv_obj_get_style_pad_right(obj, LV_PART_MAIN);
 1260              		.loc 1 722 5 is_stmt 1 view .LVU376
 1261              	.LBB107:
 1262              	.LBI107:
 115:lvgl/src/widgets/../core/lv_obj_style_gen.h **** {
ARM GAS  C:\Users\OSD\AppData\Local\Temp\ccnvvkrZ.s 			page 51


 1263              		.loc 2 115 26 view .LVU377
 1264              	.LBB108:
 117:lvgl/src/widgets/../core/lv_obj_style_gen.h ****     return (lv_coord_t)v.num;
 1265              		.loc 2 117 5 view .LVU378
 117:lvgl/src/widgets/../core/lv_obj_style_gen.h ****     return (lv_coord_t)v.num;
 1266              		.loc 2 117 26 is_stmt 0 view .LVU379
 1267 0098 1222     		movs	r2, #18
 1268 009a 3946     		mov	r1, r7
 1269 009c 2846     		mov	r0, r5
 1270 009e FFF7FEFF 		bl	lv_obj_get_style_prop
 1271              	.LVL115:
 118:lvgl/src/widgets/../core/lv_obj_style_gen.h **** }
 1272              		.loc 2 118 5 is_stmt 1 view .LVU380
 118:lvgl/src/widgets/../core/lv_obj_style_gen.h **** }
 1273              		.loc 2 118 12 is_stmt 0 view .LVU381
 1274 00a2 03B2     		sxth	r3, r0
 1275 00a4 0893     		str	r3, [sp, #32]
 1276              	.LVL116:
 118:lvgl/src/widgets/../core/lv_obj_style_gen.h **** }
 1277              		.loc 2 118 12 view .LVU382
 1278              	.LBE108:
 1279              	.LBE107:
 723:lvgl/src/widgets/lv_btnmatrix.c **** 
 1280              		.loc 1 723 5 is_stmt 1 view .LVU383
 1281              	.LBB109:
 1282              	.LBI109:
 121:lvgl/src/widgets/../core/lv_obj_style_gen.h **** {
 1283              		.loc 2 121 26 view .LVU384
 1284              	.LBB110:
 123:lvgl/src/widgets/../core/lv_obj_style_gen.h ****     return (lv_coord_t)v.num;
 1285              		.loc 2 123 5 view .LVU385
 123:lvgl/src/widgets/../core/lv_obj_style_gen.h ****     return (lv_coord_t)v.num;
 1286              		.loc 2 123 26 is_stmt 0 view .LVU386
 1287 00a6 1322     		movs	r2, #19
 1288 00a8 3946     		mov	r1, r7
 1289 00aa 2846     		mov	r0, r5
 1290 00ac FFF7FEFF 		bl	lv_obj_get_style_prop
 1291              	.LVL117:
 124:lvgl/src/widgets/../core/lv_obj_style_gen.h **** }
 1292              		.loc 2 124 5 is_stmt 1 view .LVU387
 124:lvgl/src/widgets/../core/lv_obj_style_gen.h **** }
 1293              		.loc 2 124 12 is_stmt 0 view .LVU388
 1294 00b0 03B2     		sxth	r3, r0
 1295 00b2 0993     		str	r3, [sp, #36]
 1296              	.LVL118:
 124:lvgl/src/widgets/../core/lv_obj_style_gen.h **** }
 1297              		.loc 2 124 12 view .LVU389
 1298              	.LBE110:
 1299              	.LBE109:
 730:lvgl/src/widgets/lv_btnmatrix.c ****     lv_obj_draw_dsc_init(&part_draw_dsc, draw_ctx);
 1300              		.loc 1 730 5 is_stmt 1 view .LVU390
 731:lvgl/src/widgets/lv_btnmatrix.c ****     part_draw_dsc.part = LV_PART_ITEMS;
 1301              		.loc 1 731 5 view .LVU391
 1302 00b4 3146     		mov	r1, r6
 1303 00b6 0CA8     		add	r0, sp, #48
 1304 00b8 FFF7FEFF 		bl	lv_obj_draw_dsc_init
 1305              	.LVL119:
ARM GAS  C:\Users\OSD\AppData\Local\Temp\ccnvvkrZ.s 			page 52


 732:lvgl/src/widgets/lv_btnmatrix.c ****     part_draw_dsc.class_p = MY_CLASS;
 1306              		.loc 1 732 5 view .LVU392
 732:lvgl/src/widgets/lv_btnmatrix.c ****     part_draw_dsc.class_p = MY_CLASS;
 1307              		.loc 1 732 24 is_stmt 0 view .LVU393
 1308 00bc 4FF4A023 		mov	r3, #327680
 1309 00c0 1993     		str	r3, [sp, #100]
 733:lvgl/src/widgets/lv_btnmatrix.c ****     part_draw_dsc.type = LV_BTNMATRIX_DRAW_PART_BTN;
 1310              		.loc 1 733 5 is_stmt 1 view .LVU394
 733:lvgl/src/widgets/lv_btnmatrix.c ****     part_draw_dsc.type = LV_BTNMATRIX_DRAW_PART_BTN;
 1311              		.loc 1 733 27 is_stmt 0 view .LVU395
 1312 00c2 C94B     		ldr	r3, .L96
 1313 00c4 0D93     		str	r3, [sp, #52]
 734:lvgl/src/widgets/lv_btnmatrix.c ****     part_draw_dsc.rect_dsc = &draw_rect_dsc_act;
 1314              		.loc 1 734 5 is_stmt 1 view .LVU396
 734:lvgl/src/widgets/lv_btnmatrix.c ****     part_draw_dsc.rect_dsc = &draw_rect_dsc_act;
 1315              		.loc 1 734 24 is_stmt 0 view .LVU397
 1316 00c6 0E97     		str	r7, [sp, #56]
 735:lvgl/src/widgets/lv_btnmatrix.c ****     part_draw_dsc.label_dsc = &draw_label_dsc_act;
 1317              		.loc 1 735 5 is_stmt 1 view .LVU398
 735:lvgl/src/widgets/lv_btnmatrix.c ****     part_draw_dsc.label_dsc = &draw_label_dsc_act;
 1318              		.loc 1 735 28 is_stmt 0 view .LVU399
 1319 00c8 46AB     		add	r3, sp, #280
 1320 00ca 1093     		str	r3, [sp, #64]
 736:lvgl/src/widgets/lv_btnmatrix.c **** 
 1321              		.loc 1 736 5 is_stmt 1 view .LVU400
 736:lvgl/src/widgets/lv_btnmatrix.c **** 
 1322              		.loc 1 736 29 is_stmt 0 view .LVU401
 1323 00cc 3CAB     		add	r3, sp, #240
 1324 00ce 1193     		str	r3, [sp, #68]
 738:lvgl/src/widgets/lv_btnmatrix.c ****         /*Search the next valid text in the map*/
 1325              		.loc 1 738 5 is_stmt 1 view .LVU402
 702:lvgl/src/widgets/lv_btnmatrix.c **** 
 1326              		.loc 1 702 14 is_stmt 0 view .LVU403
 1327 00d0 3C46     		mov	r4, r7
 1328              	.LVL120:
 738:lvgl/src/widgets/lv_btnmatrix.c ****         /*Search the next valid text in the map*/
 1329              		.loc 1 738 5 view .LVU404
 1330 00d2 2BE1     		b	.L61
 1331              	.LVL121:
 1332              	.L62:
 1333              	.LBB111:
 741:lvgl/src/widgets/lv_btnmatrix.c ****         }
 1334              		.loc 1 741 13 is_stmt 1 view .LVU405
 741:lvgl/src/widgets/lv_btnmatrix.c ****         }
 1335              		.loc 1 741 18 is_stmt 0 view .LVU406
 1336 00d4 0134     		adds	r4, r4, #1
 1337              	.LVL122:
 741:lvgl/src/widgets/lv_btnmatrix.c ****         }
 1338              		.loc 1 741 18 view .LVU407
 1339 00d6 A4B2     		uxth	r4, r4
 1340              	.LVL123:
 1341              	.L84:
 740:lvgl/src/widgets/lv_btnmatrix.c ****             txt_i++;
 1342              		.loc 1 740 14 is_stmt 1 view .LVU408
 740:lvgl/src/widgets/lv_btnmatrix.c ****             txt_i++;
 1343              		.loc 1 740 26 is_stmt 0 view .LVU409
 1344 00d8 6B6A     		ldr	r3, [r5, #36]
ARM GAS  C:\Users\OSD\AppData\Local\Temp\ccnvvkrZ.s 			page 53


 740:lvgl/src/widgets/lv_btnmatrix.c ****             txt_i++;
 1345              		.loc 1 740 33 view .LVU410
 1346 00da A600     		lsls	r6, r4, #2
 740:lvgl/src/widgets/lv_btnmatrix.c ****             txt_i++;
 1347              		.loc 1 740 15 view .LVU411
 1348 00dc C349     		ldr	r1, .L96+4
 1349 00de 53F82400 		ldr	r0, [r3, r4, lsl #2]
 1350 00e2 FFF7FEFF 		bl	strcmp
 1351              	.LVL124:
 740:lvgl/src/widgets/lv_btnmatrix.c ****             txt_i++;
 1352              		.loc 1 740 14 view .LVU412
 1353 00e6 0028     		cmp	r0, #0
 1354 00e8 F4D0     		beq	.L62
 745:lvgl/src/widgets/lv_btnmatrix.c **** 
 1355              		.loc 1 745 9 is_stmt 1 view .LVU413
 745:lvgl/src/widgets/lv_btnmatrix.c **** 
 1356              		.loc 1 745 33 is_stmt 0 view .LVU414
 1357 00ea EB6A     		ldr	r3, [r5, #44]
 745:lvgl/src/widgets/lv_btnmatrix.c **** 
 1358              		.loc 1 745 44 view .LVU415
 1359 00ec BA46     		mov	r10, r7
 1360 00ee 4FEA470B 		lsl	fp, r7, #1
 745:lvgl/src/widgets/lv_btnmatrix.c **** 
 1361              		.loc 1 745 12 view .LVU416
 1362 00f2 33F81790 		ldrh	r9, [r3, r7, lsl #1]
 1363 00f6 4846     		mov	r0, r9
 1364 00f8 FFF7FEFF 		bl	button_is_hidden
 1365              	.LVL125:
 745:lvgl/src/widgets/lv_btnmatrix.c **** 
 1366              		.loc 1 745 11 view .LVU417
 1367 00fc 0028     		cmp	r0, #0
 1368 00fe 40F01181 		bne	.L64
 748:lvgl/src/widgets/lv_btnmatrix.c ****         if(button_get_checked(btnm->ctrl_bits[btn_i])) btn_state |= LV_STATE_CHECKED;
 1369              		.loc 1 748 9 is_stmt 1 view .LVU418
 1370              	.LVL126:
 749:lvgl/src/widgets/lv_btnmatrix.c **** 
 1371              		.loc 1 749 9 view .LVU419
 749:lvgl/src/widgets/lv_btnmatrix.c **** 
 1372              		.loc 1 749 12 is_stmt 0 view .LVU420
 1373 0102 4846     		mov	r0, r9
 1374 0104 FFF7FEFF 		bl	button_get_checked
 1375              	.LVL127:
 749:lvgl/src/widgets/lv_btnmatrix.c **** 
 1376              		.loc 1 749 11 view .LVU421
 1377 0108 0028     		cmp	r0, #0
 1378 010a 40F01A81 		bne	.L85
 748:lvgl/src/widgets/lv_btnmatrix.c ****         if(button_get_checked(btnm->ctrl_bits[btn_i])) btn_state |= LV_STATE_CHECKED;
 1379              		.loc 1 748 20 view .LVU422
 1380 010e 4FF00008 		mov	r8, #0
 1381              	.L65:
 1382              	.LVL128:
 751:lvgl/src/widgets/lv_btnmatrix.c ****         else if(btn_i == btnm->btn_id_sel) {
 1383              		.loc 1 751 9 is_stmt 1 view .LVU423
 751:lvgl/src/widgets/lv_btnmatrix.c ****         else if(btn_i == btnm->btn_id_sel) {
 1384              		.loc 1 751 12 is_stmt 0 view .LVU424
 1385 0112 4846     		mov	r0, r9
 1386 0114 FFF7FEFF 		bl	button_is_inactive
ARM GAS  C:\Users\OSD\AppData\Local\Temp\ccnvvkrZ.s 			page 54


 1387              	.LVL129:
 751:lvgl/src/widgets/lv_btnmatrix.c ****         else if(btn_i == btnm->btn_id_sel) {
 1388              		.loc 1 751 11 view .LVU425
 1389 0118 0028     		cmp	r0, #0
 1390 011a 00F01581 		beq	.L66
 751:lvgl/src/widgets/lv_btnmatrix.c ****         else if(btn_i == btnm->btn_id_sel) {
 1391              		.loc 1 751 56 is_stmt 1 discriminator 1 view .LVU426
 751:lvgl/src/widgets/lv_btnmatrix.c ****         else if(btn_i == btnm->btn_id_sel) {
 1392              		.loc 1 751 66 is_stmt 0 discriminator 1 view .LVU427
 1393 011e 48F08008 		orr	r8, r8, #128
 1394              	.LVL130:
 1395              	.L67:
 760:lvgl/src/widgets/lv_btnmatrix.c ****         btn_area.x1 += area_obj.x1;
 1396              		.loc 1 760 9 is_stmt 1 view .LVU428
 760:lvgl/src/widgets/lv_btnmatrix.c ****         btn_area.x1 += area_obj.x1;
 1397              		.loc 1 760 38 is_stmt 0 view .LVU429
 1398 0122 AB6A     		ldr	r3, [r5, #40]
 760:lvgl/src/widgets/lv_btnmatrix.c ****         btn_area.x1 += area_obj.x1;
 1399              		.loc 1 760 33 view .LVU430
 1400 0124 03EBCA02 		add	r2, r3, r10, lsl #3
 1401              	.LVL131:
 1402              	.LBB112:
 1403              	.LBI112:
 110:d:\kzc\stm32\h743ii_lcd\lvgl\src\misc\lv_area.h **** {
 1404              		.loc 3 110 20 is_stmt 1 view .LVU431
 1405              	.LBB113:
 112:d:\kzc\stm32\h743ii_lcd\lvgl\src\misc\lv_area.h ****     dest->y1 = src->y1;
 1406              		.loc 3 112 5 view .LVU432
 112:d:\kzc\stm32\h743ii_lcd\lvgl\src\misc\lv_area.h ****     dest->y1 = src->y1;
 1407              		.loc 3 112 19 is_stmt 0 view .LVU433
 1408 0128 33F93A30 		ldrsh	r3, [r3, r10, lsl #3]
 112:d:\kzc\stm32\h743ii_lcd\lvgl\src\misc\lv_area.h ****     dest->y1 = src->y1;
 1409              		.loc 3 112 14 view .LVU434
 1410 012c ADF86831 		strh	r3, [sp, #360]	@ movhi
 113:d:\kzc\stm32\h743ii_lcd\lvgl\src\misc\lv_area.h ****     dest->x2 = src->x2;
 1411              		.loc 3 113 5 is_stmt 1 view .LVU435
 113:d:\kzc\stm32\h743ii_lcd\lvgl\src\misc\lv_area.h ****     dest->x2 = src->x2;
 1412              		.loc 3 113 19 is_stmt 0 view .LVU436
 1413 0130 B2F90210 		ldrsh	r1, [r2, #2]
 113:d:\kzc\stm32\h743ii_lcd\lvgl\src\misc\lv_area.h ****     dest->x2 = src->x2;
 1414              		.loc 3 113 14 view .LVU437
 1415 0134 ADF86A11 		strh	r1, [sp, #362]	@ movhi
 114:d:\kzc\stm32\h743ii_lcd\lvgl\src\misc\lv_area.h ****     dest->y2 = src->y2;
 1416              		.loc 3 114 5 is_stmt 1 view .LVU438
 114:d:\kzc\stm32\h743ii_lcd\lvgl\src\misc\lv_area.h ****     dest->y2 = src->y2;
 1417              		.loc 3 114 19 is_stmt 0 view .LVU439
 1418 0138 B2F904C0 		ldrsh	ip, [r2, #4]
 114:d:\kzc\stm32\h743ii_lcd\lvgl\src\misc\lv_area.h ****     dest->y2 = src->y2;
 1419              		.loc 3 114 14 view .LVU440
 1420 013c ADF86CC1 		strh	ip, [sp, #364]	@ movhi
 115:d:\kzc\stm32\h743ii_lcd\lvgl\src\misc\lv_area.h **** }
 1421              		.loc 3 115 5 is_stmt 1 view .LVU441
 115:d:\kzc\stm32\h743ii_lcd\lvgl\src\misc\lv_area.h **** }
 1422              		.loc 3 115 19 is_stmt 0 view .LVU442
 1423 0140 B2F90600 		ldrsh	r0, [r2, #6]
 115:d:\kzc\stm32\h743ii_lcd\lvgl\src\misc\lv_area.h **** }
 1424              		.loc 3 115 14 view .LVU443
ARM GAS  C:\Users\OSD\AppData\Local\Temp\ccnvvkrZ.s 			page 55


 1425 0144 ADF86E01 		strh	r0, [sp, #366]	@ movhi
 1426              	.LVL132:
 115:d:\kzc\stm32\h743ii_lcd\lvgl\src\misc\lv_area.h **** }
 1427              		.loc 3 115 14 view .LVU444
 1428              	.LBE113:
 1429              	.LBE112:
 761:lvgl/src/widgets/lv_btnmatrix.c ****         btn_area.y1 += area_obj.y1;
 1430              		.loc 1 761 9 is_stmt 1 view .LVU445
 761:lvgl/src/widgets/lv_btnmatrix.c ****         btn_area.y1 += area_obj.y1;
 1431              		.loc 1 761 32 is_stmt 0 view .LVU446
 1432 0148 BDF87021 		ldrh	r2, [sp, #368]
 761:lvgl/src/widgets/lv_btnmatrix.c ****         btn_area.y1 += area_obj.y1;
 1433              		.loc 1 761 21 view .LVU447
 1434 014c 1344     		add	r3, r3, r2
 1435 014e ADF86831 		strh	r3, [sp, #360]	@ movhi
 762:lvgl/src/widgets/lv_btnmatrix.c ****         btn_area.x2 += area_obj.x1;
 1436              		.loc 1 762 9 is_stmt 1 view .LVU448
 762:lvgl/src/widgets/lv_btnmatrix.c ****         btn_area.x2 += area_obj.x1;
 1437              		.loc 1 762 32 is_stmt 0 view .LVU449
 1438 0152 BDF87231 		ldrh	r3, [sp, #370]
 762:lvgl/src/widgets/lv_btnmatrix.c ****         btn_area.x2 += area_obj.x1;
 1439              		.loc 1 762 21 view .LVU450
 1440 0156 1944     		add	r1, r1, r3
 1441 0158 ADF86A11 		strh	r1, [sp, #362]	@ movhi
 763:lvgl/src/widgets/lv_btnmatrix.c ****         btn_area.y2 += area_obj.y1;
 1442              		.loc 1 763 9 is_stmt 1 view .LVU451
 763:lvgl/src/widgets/lv_btnmatrix.c ****         btn_area.y2 += area_obj.y1;
 1443              		.loc 1 763 21 is_stmt 0 view .LVU452
 1444 015c 6244     		add	r2, r2, ip
 1445 015e ADF86C21 		strh	r2, [sp, #364]	@ movhi
 764:lvgl/src/widgets/lv_btnmatrix.c **** 
 1446              		.loc 1 764 9 is_stmt 1 view .LVU453
 764:lvgl/src/widgets/lv_btnmatrix.c **** 
 1447              		.loc 1 764 21 is_stmt 0 view .LVU454
 1448 0162 0344     		add	r3, r3, r0
 1449 0164 ADF86E31 		strh	r3, [sp, #366]	@ movhi
 767:lvgl/src/widgets/lv_btnmatrix.c ****             lv_memcpy(&draw_rect_dsc_act, &draw_rect_dsc_def, sizeof(lv_draw_rect_dsc_t));
 1450              		.loc 1 767 9 is_stmt 1 view .LVU455
 767:lvgl/src/widgets/lv_btnmatrix.c ****             lv_memcpy(&draw_rect_dsc_act, &draw_rect_dsc_def, sizeof(lv_draw_rect_dsc_t));
 1451              		.loc 1 767 11 is_stmt 0 view .LVU456
 1452 0168 B8F1000F 		cmp	r8, #0
 1453 016c 40F00A81 		bne	.L71
 768:lvgl/src/widgets/lv_btnmatrix.c ****             lv_memcpy(&draw_label_dsc_act, &draw_label_dsc_def, sizeof(lv_draw_label_dsc_t));
 1454              		.loc 1 768 13 is_stmt 1 view .LVU457
 1455 0170 5022     		movs	r2, #80
 1456 0172 28A9     		add	r1, sp, #160
 1457 0174 46A8     		add	r0, sp, #280
 1458 0176 FFF7FEFF 		bl	lv_memcpy
 1459              	.LVL133:
 769:lvgl/src/widgets/lv_btnmatrix.c ****         }
 1460              		.loc 1 769 13 view .LVU458
 1461 017a 2822     		movs	r2, #40
 1462 017c 1EA9     		add	r1, sp, #120
 1463 017e 3CA8     		add	r0, sp, #240
 1464 0180 FFF7FEFF 		bl	lv_memcpy
 1465              	.LVL134:
 1466              	.L72:
ARM GAS  C:\Users\OSD\AppData\Local\Temp\ccnvvkrZ.s 			page 56


 783:lvgl/src/widgets/lv_btnmatrix.c ****         if(recolor) draw_label_dsc_act.flag |= LV_TEXT_FLAG_RECOLOR;
 1467              		.loc 1 783 9 view .LVU459
 783:lvgl/src/widgets/lv_btnmatrix.c ****         if(recolor) draw_label_dsc_act.flag |= LV_TEXT_FLAG_RECOLOR;
 1468              		.loc 1 783 46 is_stmt 0 view .LVU460
 1469 0184 EB6A     		ldr	r3, [r5, #44]
 783:lvgl/src/widgets/lv_btnmatrix.c ****         if(recolor) draw_label_dsc_act.flag |= LV_TEXT_FLAG_RECOLOR;
 1470              		.loc 1 783 24 view .LVU461
 1471 0186 33F80B00 		ldrh	r0, [r3, fp]
 1472 018a FFF7FEFF 		bl	button_is_recolor
 1473              	.LVL135:
 784:lvgl/src/widgets/lv_btnmatrix.c ****         else draw_label_dsc_act.flag &= ~LV_TEXT_FLAG_RECOLOR;
 1474              		.loc 1 784 9 is_stmt 1 view .LVU462
 784:lvgl/src/widgets/lv_btnmatrix.c ****         else draw_label_dsc_act.flag &= ~LV_TEXT_FLAG_RECOLOR;
 1475              		.loc 1 784 11 is_stmt 0 view .LVU463
 1476 018e 0028     		cmp	r0, #0
 1477 0190 00F01B81 		beq	.L73
 784:lvgl/src/widgets/lv_btnmatrix.c ****         else draw_label_dsc_act.flag &= ~LV_TEXT_FLAG_RECOLOR;
 1478              		.loc 1 784 21 is_stmt 1 discriminator 1 view .LVU464
 784:lvgl/src/widgets/lv_btnmatrix.c ****         else draw_label_dsc_act.flag &= ~LV_TEXT_FLAG_RECOLOR;
 1479              		.loc 1 784 45 is_stmt 0 discriminator 1 view .LVU465
 1480 0194 9DF81331 		ldrb	r3, [sp, #275]	@ zero_extendqisi2
 1481 0198 43F00103 		orr	r3, r3, #1
 1482 019c 8DF81331 		strb	r3, [sp, #275]
 1483              	.L74:
 787:lvgl/src/widgets/lv_btnmatrix.c ****         part_draw_dsc.id = btn_i;
 1484              		.loc 1 787 9 is_stmt 1 view .LVU466
 787:lvgl/src/widgets/lv_btnmatrix.c ****         part_draw_dsc.id = btn_i;
 1485              		.loc 1 787 33 is_stmt 0 view .LVU467
 1486 01a0 5AAB     		add	r3, sp, #360
 1487 01a2 0F93     		str	r3, [sp, #60]
 788:lvgl/src/widgets/lv_btnmatrix.c ****         lv_event_send(obj, LV_EVENT_DRAW_PART_BEGIN, &part_draw_dsc);
 1488              		.loc 1 788 9 is_stmt 1 view .LVU468
 788:lvgl/src/widgets/lv_btnmatrix.c ****         lv_event_send(obj, LV_EVENT_DRAW_PART_BEGIN, &part_draw_dsc);
 1489              		.loc 1 788 26 is_stmt 0 view .LVU469
 1490 01a4 CDF868A0 		str	r10, [sp, #104]
 789:lvgl/src/widgets/lv_btnmatrix.c **** 
 1491              		.loc 1 789 9 is_stmt 1 view .LVU470
 1492 01a8 0CAA     		add	r2, sp, #48
 1493 01aa 1A21     		movs	r1, #26
 1494 01ac 2846     		mov	r0, r5
 1495              	.LVL136:
 789:lvgl/src/widgets/lv_btnmatrix.c **** 
 1496              		.loc 1 789 9 is_stmt 0 view .LVU471
 1497 01ae FFF7FEFF 		bl	lv_event_send
 1498              	.LVL137:
 792:lvgl/src/widgets/lv_btnmatrix.c ****             draw_rect_dsc_act.border_side = LV_BORDER_SIDE_FULL;
 1499              		.loc 1 792 9 is_stmt 1 view .LVU472
 792:lvgl/src/widgets/lv_btnmatrix.c ****             draw_rect_dsc_act.border_side = LV_BORDER_SIDE_FULL;
 1500              		.loc 1 792 29 is_stmt 0 view .LVU473
 1501 01b2 9DF84B31 		ldrb	r3, [sp, #331]	@ zero_extendqisi2
 792:lvgl/src/widgets/lv_btnmatrix.c ****             draw_rect_dsc_act.border_side = LV_BORDER_SIDE_FULL;
 1502              		.loc 1 792 11 view .LVU474
 1503 01b6 13F0200F 		tst	r3, #32
 1504 01ba 2AD0     		beq	.L75
 793:lvgl/src/widgets/lv_btnmatrix.c ****             if(btn_area.x1 == obj->coords.x1 + pleft) draw_rect_dsc_act.border_side &= ~LV_BORDER_S
 1505              		.loc 1 793 13 is_stmt 1 view .LVU475
 793:lvgl/src/widgets/lv_btnmatrix.c ****             if(btn_area.x1 == obj->coords.x1 + pleft) draw_rect_dsc_act.border_side &= ~LV_BORDER_S
ARM GAS  C:\Users\OSD\AppData\Local\Temp\ccnvvkrZ.s 			page 57


 1506              		.loc 1 793 43 is_stmt 0 view .LVU476
 1507 01bc 9DF84B31 		ldrb	r3, [sp, #331]	@ zero_extendqisi2
 1508 01c0 0F22     		movs	r2, #15
 1509 01c2 62F34503 		bfi	r3, r2, #1, #5
 1510 01c6 8DF84B31 		strb	r3, [sp, #331]
 794:lvgl/src/widgets/lv_btnmatrix.c ****             if(btn_area.x2 == obj->coords.x2 - pright) draw_rect_dsc_act.border_side &= ~LV_BORDER_
 1511              		.loc 1 794 13 is_stmt 1 view .LVU477
 794:lvgl/src/widgets/lv_btnmatrix.c ****             if(btn_area.x2 == obj->coords.x2 - pright) draw_rect_dsc_act.border_side &= ~LV_BORDER_
 1512              		.loc 1 794 24 is_stmt 0 view .LVU478
 1513 01ca BDF96821 		ldrsh	r2, [sp, #360]
 794:lvgl/src/widgets/lv_btnmatrix.c ****             if(btn_area.x2 == obj->coords.x2 - pright) draw_rect_dsc_act.border_side &= ~LV_BORDER_
 1514              		.loc 1 794 42 view .LVU479
 1515 01ce B5F91430 		ldrsh	r3, [r5, #20]
 794:lvgl/src/widgets/lv_btnmatrix.c ****             if(btn_area.x2 == obj->coords.x2 - pright) draw_rect_dsc_act.border_side &= ~LV_BORDER_
 1516              		.loc 1 794 46 view .LVU480
 1517 01d2 0899     		ldr	r1, [sp, #32]
 1518 01d4 0B44     		add	r3, r3, r1
 794:lvgl/src/widgets/lv_btnmatrix.c ****             if(btn_area.x2 == obj->coords.x2 - pright) draw_rect_dsc_act.border_side &= ~LV_BORDER_
 1519              		.loc 1 794 15 view .LVU481
 1520 01d6 9A42     		cmp	r2, r3
 1521 01d8 00F0FE80 		beq	.L89
 1522              	.L76:
 795:lvgl/src/widgets/lv_btnmatrix.c ****             if(btn_area.y1 == obj->coords.y1 + ptop) draw_rect_dsc_act.border_side &= ~LV_BORDER_SI
 1523              		.loc 1 795 13 is_stmt 1 view .LVU482
 795:lvgl/src/widgets/lv_btnmatrix.c ****             if(btn_area.y1 == obj->coords.y1 + ptop) draw_rect_dsc_act.border_side &= ~LV_BORDER_SI
 1524              		.loc 1 795 24 is_stmt 0 view .LVU483
 1525 01dc BDF96C21 		ldrsh	r2, [sp, #364]
 795:lvgl/src/widgets/lv_btnmatrix.c ****             if(btn_area.y1 == obj->coords.y1 + ptop) draw_rect_dsc_act.border_side &= ~LV_BORDER_SI
 1526              		.loc 1 795 42 view .LVU484
 1527 01e0 B5F91830 		ldrsh	r3, [r5, #24]
 795:lvgl/src/widgets/lv_btnmatrix.c ****             if(btn_area.y1 == obj->coords.y1 + ptop) draw_rect_dsc_act.border_side &= ~LV_BORDER_SI
 1528              		.loc 1 795 46 view .LVU485
 1529 01e4 0999     		ldr	r1, [sp, #36]
 1530 01e6 5B1A     		subs	r3, r3, r1
 795:lvgl/src/widgets/lv_btnmatrix.c ****             if(btn_area.y1 == obj->coords.y1 + ptop) draw_rect_dsc_act.border_side &= ~LV_BORDER_SI
 1531              		.loc 1 795 15 view .LVU486
 1532 01e8 9A42     		cmp	r2, r3
 1533 01ea 00F00181 		beq	.L90
 1534              	.L77:
 796:lvgl/src/widgets/lv_btnmatrix.c ****             if(btn_area.y2 == obj->coords.y2 - pbottom) draw_rect_dsc_act.border_side &= ~LV_BORDER
 1535              		.loc 1 796 13 is_stmt 1 view .LVU487
 796:lvgl/src/widgets/lv_btnmatrix.c ****             if(btn_area.y2 == obj->coords.y2 - pbottom) draw_rect_dsc_act.border_side &= ~LV_BORDER
 1536              		.loc 1 796 24 is_stmt 0 view .LVU488
 1537 01ee BDF96A21 		ldrsh	r2, [sp, #362]
 796:lvgl/src/widgets/lv_btnmatrix.c ****             if(btn_area.y2 == obj->coords.y2 - pbottom) draw_rect_dsc_act.border_side &= ~LV_BORDER
 1538              		.loc 1 796 42 view .LVU489
 1539 01f2 B5F91630 		ldrsh	r3, [r5, #22]
 796:lvgl/src/widgets/lv_btnmatrix.c ****             if(btn_area.y2 == obj->coords.y2 - pbottom) draw_rect_dsc_act.border_side &= ~LV_BORDER
 1540              		.loc 1 796 46 view .LVU490
 1541 01f6 0699     		ldr	r1, [sp, #24]
 1542 01f8 0B44     		add	r3, r3, r1
 796:lvgl/src/widgets/lv_btnmatrix.c ****             if(btn_area.y2 == obj->coords.y2 - pbottom) draw_rect_dsc_act.border_side &= ~LV_BORDER
 1543              		.loc 1 796 15 view .LVU491
 1544 01fa 9A42     		cmp	r2, r3
 1545 01fc 00F00381 		beq	.L91
 1546              	.L78:
 797:lvgl/src/widgets/lv_btnmatrix.c ****         }
ARM GAS  C:\Users\OSD\AppData\Local\Temp\ccnvvkrZ.s 			page 58


 1547              		.loc 1 797 13 is_stmt 1 view .LVU492
 797:lvgl/src/widgets/lv_btnmatrix.c ****         }
 1548              		.loc 1 797 24 is_stmt 0 view .LVU493
 1549 0200 BDF96E21 		ldrsh	r2, [sp, #366]
 797:lvgl/src/widgets/lv_btnmatrix.c ****         }
 1550              		.loc 1 797 42 view .LVU494
 1551 0204 B5F91A30 		ldrsh	r3, [r5, #26]
 797:lvgl/src/widgets/lv_btnmatrix.c ****         }
 1552              		.loc 1 797 46 view .LVU495
 1553 0208 0799     		ldr	r1, [sp, #28]
 1554 020a 5B1A     		subs	r3, r3, r1
 797:lvgl/src/widgets/lv_btnmatrix.c ****         }
 1555              		.loc 1 797 15 view .LVU496
 1556 020c 9A42     		cmp	r2, r3
 1557 020e 00F00581 		beq	.L92
 1558              	.L75:
 800:lvgl/src/widgets/lv_btnmatrix.c **** 
 1559              		.loc 1 800 9 is_stmt 1 view .LVU497
 1560              	.LVL138:
 1561              	.LBB114:
 1562              	.LBI114:
 133:d:\kzc\stm32\h743ii_lcd\lvgl\src\misc\lv_area.h **** {
 1563              		.loc 3 133 26 view .LVU498
 1564              	.LBB115:
 1565              		.loc 3 135 5 view .LVU499
 1566              		.loc 3 135 31 is_stmt 0 view .LVU500
 1567 0212 BDF86E91 		ldrh	r9, [sp, #366]
 1568              		.loc 3 135 44 view .LVU501
 1569 0216 BDF86A31 		ldrh	r3, [sp, #362]
 1570              		.loc 3 135 36 view .LVU502
 1571 021a A9EB0309 		sub	r9, r9, r3
 1572 021e 1FFA89F9 		uxth	r9, r9
 1573              		.loc 3 135 49 view .LVU503
 1574 0222 09F10109 		add	r9, r9, #1
 1575 0226 1FFA89F2 		uxth	r2, r9
 1576              		.loc 3 135 12 view .LVU504
 1577 022a 0FFA89F9 		sxth	r9, r9
 1578              	.LVL139:
 1579              		.loc 3 135 12 view .LVU505
 1580              	.LBE115:
 1581              	.LBE114:
 802:lvgl/src/widgets/lv_btnmatrix.c ****             /*Push up the upper boundary of the btn area to create the popover*/
 1582              		.loc 1 802 9 is_stmt 1 view .LVU506
 802:lvgl/src/widgets/lv_btnmatrix.c ****             /*Push up the upper boundary of the btn area to create the popover*/
 1583              		.loc 1 802 11 is_stmt 0 view .LVU507
 1584 022e 18F02008 		ands	r8, r8, #32
 1585              	.LVL140:
 802:lvgl/src/widgets/lv_btnmatrix.c ****             /*Push up the upper boundary of the btn area to create the popover*/
 1586              		.loc 1 802 11 view .LVU508
 1587 0232 08D0     		beq	.L79
 802:lvgl/src/widgets/lv_btnmatrix.c ****             /*Push up the upper boundary of the btn area to create the popover*/
 1588              		.loc 1 802 51 discriminator 1 view .LVU509
 1589 0234 E96A     		ldr	r1, [r5, #44]
 802:lvgl/src/widgets/lv_btnmatrix.c ****             /*Push up the upper boundary of the btn area to create the popover*/
 1590              		.loc 1 802 62 discriminator 1 view .LVU510
 1591 0236 31F80B10 		ldrh	r1, [r1, fp]
 802:lvgl/src/widgets/lv_btnmatrix.c ****             /*Push up the upper boundary of the btn area to create the popover*/
ARM GAS  C:\Users\OSD\AppData\Local\Temp\ccnvvkrZ.s 			page 59


 1592              		.loc 1 802 43 discriminator 1 view .LVU511
 1593 023a 11F4806F 		tst	r1, #1024
 1594 023e 02D0     		beq	.L79
 804:lvgl/src/widgets/lv_btnmatrix.c ****         }
 1595              		.loc 1 804 13 is_stmt 1 view .LVU512
 804:lvgl/src/widgets/lv_btnmatrix.c ****         }
 1596              		.loc 1 804 25 is_stmt 0 view .LVU513
 1597 0240 9B1A     		subs	r3, r3, r2
 1598 0242 ADF86A31 		strh	r3, [sp, #362]	@ movhi
 1599              	.L79:
 808:lvgl/src/widgets/lv_btnmatrix.c **** 
 1600              		.loc 1 808 9 is_stmt 1 view .LVU514
 1601 0246 5AAA     		add	r2, sp, #360
 1602 0248 46A9     		add	r1, sp, #280
 1603 024a 0498     		ldr	r0, [sp, #16]
 1604 024c FFF7FEFF 		bl	lv_draw_rect
 1605              	.LVL141:
 811:lvgl/src/widgets/lv_btnmatrix.c ****         lv_coord_t letter_space = draw_label_dsc_act.letter_space;
 1606              		.loc 1 811 9 view .LVU515
 812:lvgl/src/widgets/lv_btnmatrix.c ****         lv_coord_t line_space = draw_label_dsc_act.line_space;
 1607              		.loc 1 812 9 view .LVU516
 813:lvgl/src/widgets/lv_btnmatrix.c ****         const char * txt = btnm->map_p[txt_i];
 1608              		.loc 1 813 9 view .LVU517
 813:lvgl/src/widgets/lv_btnmatrix.c ****         const char * txt = btnm->map_p[txt_i];
 1609              		.loc 1 813 20 is_stmt 0 view .LVU518
 1610 0250 BDF90821 		ldrsh	r2, [sp, #264]
 1611              	.LVL142:
 814:lvgl/src/widgets/lv_btnmatrix.c **** 
 1612              		.loc 1 814 9 is_stmt 1 view .LVU519
 814:lvgl/src/widgets/lv_btnmatrix.c **** 
 1613              		.loc 1 814 32 is_stmt 0 view .LVU520
 1614 0254 6B6A     		ldr	r3, [r5, #36]
 814:lvgl/src/widgets/lv_btnmatrix.c **** 
 1615              		.loc 1 814 22 view .LVU521
 1616 0256 9E59     		ldr	r6, [r3, r6]
 1617              	.LVL143:
 824:lvgl/src/widgets/lv_btnmatrix.c ****         lv_txt_get_size(&txt_size, txt, font, letter_space,
 1618              		.loc 1 824 9 is_stmt 1 view .LVU522
 825:lvgl/src/widgets/lv_btnmatrix.c ****                         line_space, lv_area_get_width(&area_obj), draw_label_dsc_act.flag);
 1619              		.loc 1 825 9 view .LVU523
 1620              	.LBB116:
 1621              	.LBI116:
 123:d:\kzc\stm32\h743ii_lcd\lvgl\src\misc\lv_area.h **** {
 1622              		.loc 3 123 26 view .LVU524
 1623              	.LBB117:
 125:d:\kzc\stm32\h743ii_lcd\lvgl\src\misc\lv_area.h **** }
 1624              		.loc 3 125 5 view .LVU525
 125:d:\kzc\stm32\h743ii_lcd\lvgl\src\misc\lv_area.h **** }
 1625              		.loc 3 125 31 is_stmt 0 view .LVU526
 1626 0258 BDF87431 		ldrh	r3, [sp, #372]
 125:d:\kzc\stm32\h743ii_lcd\lvgl\src\misc\lv_area.h **** }
 1627              		.loc 3 125 44 view .LVU527
 1628 025c BDF87011 		ldrh	r1, [sp, #368]
 125:d:\kzc\stm32\h743ii_lcd\lvgl\src\misc\lv_area.h **** }
 1629              		.loc 3 125 36 view .LVU528
 1630 0260 5B1A     		subs	r3, r3, r1
 1631 0262 9BB2     		uxth	r3, r3
ARM GAS  C:\Users\OSD\AppData\Local\Temp\ccnvvkrZ.s 			page 60


 125:d:\kzc\stm32\h743ii_lcd\lvgl\src\misc\lv_area.h **** }
 1632              		.loc 3 125 49 view .LVU529
 1633 0264 0133     		adds	r3, r3, #1
 125:d:\kzc\stm32\h743ii_lcd\lvgl\src\misc\lv_area.h **** }
 1634              		.loc 3 125 12 view .LVU530
 1635 0266 1BB2     		sxth	r3, r3
 1636              	.LVL144:
 125:d:\kzc\stm32\h743ii_lcd\lvgl\src\misc\lv_area.h **** }
 1637              		.loc 3 125 12 view .LVU531
 1638              	.LBE117:
 1639              	.LBE116:
 825:lvgl/src/widgets/lv_btnmatrix.c ****                         line_space, lv_area_get_width(&area_obj), draw_label_dsc_act.flag);
 1640              		.loc 1 825 9 view .LVU532
 1641 0268 9DF81311 		ldrb	r1, [sp, #275]	@ zero_extendqisi2
 1642 026c 0291     		str	r1, [sp, #8]
 1643 026e 0193     		str	r3, [sp, #4]
 1644 0270 0092     		str	r2, [sp]
 1645 0272 BDF90A31 		ldrsh	r3, [sp, #266]
 1646 0276 3C9A     		ldr	r2, [sp, #240]
 1647              	.LVL145:
 825:lvgl/src/widgets/lv_btnmatrix.c ****                         line_space, lv_area_get_width(&area_obj), draw_label_dsc_act.flag);
 1648              		.loc 1 825 9 view .LVU533
 1649 0278 3146     		mov	r1, r6
 1650 027a 0BA8     		add	r0, sp, #44
 1651 027c FFF7FEFF 		bl	lv_txt_get_size
 1652              	.LVL146:
 828:lvgl/src/widgets/lv_btnmatrix.c ****         btn_area.y1 += (lv_area_get_height(&btn_area) - txt_size.y) / 2;
 1653              		.loc 1 828 9 is_stmt 1 view .LVU534
 1654              	.LBB118:
 1655              	.LBI118:
 123:d:\kzc\stm32\h743ii_lcd\lvgl\src\misc\lv_area.h **** {
 1656              		.loc 3 123 26 view .LVU535
 1657              	.LBB119:
 125:d:\kzc\stm32\h743ii_lcd\lvgl\src\misc\lv_area.h **** }
 1658              		.loc 3 125 5 view .LVU536
 125:d:\kzc\stm32\h743ii_lcd\lvgl\src\misc\lv_area.h **** }
 1659              		.loc 3 125 31 is_stmt 0 view .LVU537
 1660 0280 BDF86C31 		ldrh	r3, [sp, #364]
 125:d:\kzc\stm32\h743ii_lcd\lvgl\src\misc\lv_area.h **** }
 1661              		.loc 3 125 44 view .LVU538
 1662 0284 BDF86811 		ldrh	r1, [sp, #360]
 125:d:\kzc\stm32\h743ii_lcd\lvgl\src\misc\lv_area.h **** }
 1663              		.loc 3 125 36 view .LVU539
 1664 0288 5B1A     		subs	r3, r3, r1
 1665 028a 9BB2     		uxth	r3, r3
 125:d:\kzc\stm32\h743ii_lcd\lvgl\src\misc\lv_area.h **** }
 1666              		.loc 3 125 49 view .LVU540
 1667 028c 0133     		adds	r3, r3, #1
 125:d:\kzc\stm32\h743ii_lcd\lvgl\src\misc\lv_area.h **** }
 1668              		.loc 3 125 12 view .LVU541
 1669 028e 1BB2     		sxth	r3, r3
 1670              	.LVL147:
 125:d:\kzc\stm32\h743ii_lcd\lvgl\src\misc\lv_area.h **** }
 1671              		.loc 3 125 12 view .LVU542
 1672              	.LBE119:
 1673              	.LBE118:
 828:lvgl/src/widgets/lv_btnmatrix.c ****         btn_area.y1 += (lv_area_get_height(&btn_area) - txt_size.y) / 2;
ARM GAS  C:\Users\OSD\AppData\Local\Temp\ccnvvkrZ.s 			page 61


 1674              		.loc 1 828 64 view .LVU543
 1675 0290 BDF92C00 		ldrsh	r0, [sp, #44]
 828:lvgl/src/widgets/lv_btnmatrix.c ****         btn_area.y1 += (lv_area_get_height(&btn_area) - txt_size.y) / 2;
 1676              		.loc 1 828 68 view .LVU544
 1677 0294 1B1A     		subs	r3, r3, r0
 1678 0296 00F1CC80 		bmi	.L93
 1679              	.L80:
 828:lvgl/src/widgets/lv_btnmatrix.c ****         btn_area.y1 += (lv_area_get_height(&btn_area) - txt_size.y) / 2;
 1680              		.loc 1 828 21 view .LVU545
 1681 029a 01EB6301 		add	r1, r1, r3, asr #1
 1682 029e 89B2     		uxth	r1, r1
 1683 02a0 ADF86811 		strh	r1, [sp, #360]	@ movhi
 829:lvgl/src/widgets/lv_btnmatrix.c ****         btn_area.x2 = btn_area.x1 + txt_size.x;
 1684              		.loc 1 829 9 is_stmt 1 view .LVU546
 1685              	.LVL148:
 1686              	.LBB120:
 1687              	.LBI120:
 133:d:\kzc\stm32\h743ii_lcd\lvgl\src\misc\lv_area.h **** {
 1688              		.loc 3 133 26 view .LVU547
 1689              	.LBB121:
 1690              		.loc 3 135 5 view .LVU548
 1691              		.loc 3 135 31 is_stmt 0 view .LVU549
 1692 02a4 BDF86E31 		ldrh	r3, [sp, #366]
 1693              		.loc 3 135 44 view .LVU550
 1694 02a8 BDF86A21 		ldrh	r2, [sp, #362]
 1695              		.loc 3 135 36 view .LVU551
 1696 02ac 9B1A     		subs	r3, r3, r2
 1697 02ae 9BB2     		uxth	r3, r3
 1698              		.loc 3 135 49 view .LVU552
 1699 02b0 0133     		adds	r3, r3, #1
 1700              		.loc 3 135 12 view .LVU553
 1701 02b2 1BB2     		sxth	r3, r3
 1702              	.LVL149:
 1703              		.loc 3 135 12 view .LVU554
 1704              	.LBE121:
 1705              	.LBE120:
 829:lvgl/src/widgets/lv_btnmatrix.c ****         btn_area.x2 = btn_area.x1 + txt_size.x;
 1706              		.loc 1 829 65 view .LVU555
 1707 02b4 BDF92EC0 		ldrsh	ip, [sp, #46]
 829:lvgl/src/widgets/lv_btnmatrix.c ****         btn_area.x2 = btn_area.x1 + txt_size.x;
 1708              		.loc 1 829 69 view .LVU556
 1709 02b8 B3EB0C03 		subs	r3, r3, ip
 1710 02bc 00F1BB80 		bmi	.L94
 1711              	.L81:
 829:lvgl/src/widgets/lv_btnmatrix.c ****         btn_area.x2 = btn_area.x1 + txt_size.x;
 1712              		.loc 1 829 21 view .LVU557
 1713 02c0 02EB6303 		add	r3, r2, r3, asr #1
 1714 02c4 9BB2     		uxth	r3, r3
 1715 02c6 ADF86A31 		strh	r3, [sp, #362]	@ movhi
 830:lvgl/src/widgets/lv_btnmatrix.c ****         btn_area.y2 = btn_area.y1 + txt_size.y;
 1716              		.loc 1 830 9 is_stmt 1 view .LVU558
 830:lvgl/src/widgets/lv_btnmatrix.c ****         btn_area.y2 = btn_area.y1 + txt_size.y;
 1717              		.loc 1 830 35 is_stmt 0 view .LVU559
 1718 02ca 11FA80F1 		uxtah	r1, r1, r0
 830:lvgl/src/widgets/lv_btnmatrix.c ****         btn_area.y2 = btn_area.y1 + txt_size.y;
 1719              		.loc 1 830 21 view .LVU560
 1720 02ce ADF86C11 		strh	r1, [sp, #364]	@ movhi
ARM GAS  C:\Users\OSD\AppData\Local\Temp\ccnvvkrZ.s 			page 62


 831:lvgl/src/widgets/lv_btnmatrix.c **** 
 1721              		.loc 1 831 9 is_stmt 1 view .LVU561
 831:lvgl/src/widgets/lv_btnmatrix.c **** 
 1722              		.loc 1 831 35 is_stmt 0 view .LVU562
 1723 02d2 13FA8CFC 		uxtah	ip, r3, ip
 1724 02d6 1FFA8CF2 		uxth	r2, ip
 831:lvgl/src/widgets/lv_btnmatrix.c **** 
 1725              		.loc 1 831 21 view .LVU563
 1726 02da ADF86EC1 		strh	ip, [sp, #366]	@ movhi
 833:lvgl/src/widgets/lv_btnmatrix.c ****             /*Push up the button text into the popover*/
 1727              		.loc 1 833 9 is_stmt 1 view .LVU564
 833:lvgl/src/widgets/lv_btnmatrix.c ****             /*Push up the button text into the popover*/
 1728              		.loc 1 833 11 is_stmt 0 view .LVU565
 1729 02de B8F1000F 		cmp	r8, #0
 1730 02e2 12D0     		beq	.L82
 833:lvgl/src/widgets/lv_btnmatrix.c ****             /*Push up the button text into the popover*/
 1731              		.loc 1 833 51 discriminator 1 view .LVU566
 1732 02e4 E96A     		ldr	r1, [r5, #44]
 833:lvgl/src/widgets/lv_btnmatrix.c ****             /*Push up the button text into the popover*/
 1733              		.loc 1 833 62 discriminator 1 view .LVU567
 1734 02e6 31F80B10 		ldrh	r1, [r1, fp]
 833:lvgl/src/widgets/lv_btnmatrix.c ****             /*Push up the button text into the popover*/
 1735              		.loc 1 833 43 discriminator 1 view .LVU568
 1736 02ea 11F4806F 		tst	r1, #1024
 1737 02ee 0CD0     		beq	.L82
 835:lvgl/src/widgets/lv_btnmatrix.c ****             btn_area.y2 -= btn_height / 2;
 1738              		.loc 1 835 13 is_stmt 1 view .LVU569
 835:lvgl/src/widgets/lv_btnmatrix.c ****             btn_area.y2 -= btn_height / 2;
 1739              		.loc 1 835 25 is_stmt 0 view .LVU570
 1740 02f0 4946     		mov	r1, r9
 1741 02f2 B9F1000F 		cmp	r9, #0
 1742 02f6 C0F2A080 		blt	.L95
 1743              	.L83:
 1744 02fa C1F34F01 		ubfx	r1, r1, #1, #16
 1745 02fe 5B1A     		subs	r3, r3, r1
 1746 0300 ADF86A31 		strh	r3, [sp, #362]	@ movhi
 836:lvgl/src/widgets/lv_btnmatrix.c ****         }
 1747              		.loc 1 836 13 is_stmt 1 view .LVU571
 836:lvgl/src/widgets/lv_btnmatrix.c ****         }
 1748              		.loc 1 836 25 is_stmt 0 view .LVU572
 1749 0304 521A     		subs	r2, r2, r1
 1750 0306 ADF86E21 		strh	r2, [sp, #366]	@ movhi
 1751              	.L82:
 840:lvgl/src/widgets/lv_btnmatrix.c **** 
 1752              		.loc 1 840 9 is_stmt 1 view .LVU573
 1753 030a 0023     		movs	r3, #0
 1754 030c 0093     		str	r3, [sp]
 1755 030e 3346     		mov	r3, r6
 1756 0310 5AAA     		add	r2, sp, #360
 1757 0312 3CA9     		add	r1, sp, #240
 1758 0314 0498     		ldr	r0, [sp, #16]
 1759 0316 FFF7FEFF 		bl	lv_draw_label
 1760              	.LVL150:
 842:lvgl/src/widgets/lv_btnmatrix.c ****     }
 1761              		.loc 1 842 9 view .LVU574
 1762 031a 0CAA     		add	r2, sp, #48
 1763 031c 1B21     		movs	r1, #27
ARM GAS  C:\Users\OSD\AppData\Local\Temp\ccnvvkrZ.s 			page 63


 1764 031e 2846     		mov	r0, r5
 1765 0320 FFF7FEFF 		bl	lv_event_send
 1766              	.LVL151:
 1767              	.L64:
 842:lvgl/src/widgets/lv_btnmatrix.c ****     }
 1768              		.loc 1 842 9 is_stmt 0 view .LVU575
 1769              	.LBE111:
 738:lvgl/src/widgets/lv_btnmatrix.c ****         /*Search the next valid text in the map*/
 1770              		.loc 1 738 43 is_stmt 1 discriminator 2 view .LVU576
 738:lvgl/src/widgets/lv_btnmatrix.c ****         /*Search the next valid text in the map*/
 1771              		.loc 1 738 48 is_stmt 0 discriminator 2 view .LVU577
 1772 0324 0137     		adds	r7, r7, #1
 1773              	.LVL152:
 738:lvgl/src/widgets/lv_btnmatrix.c ****         /*Search the next valid text in the map*/
 1774              		.loc 1 738 48 discriminator 2 view .LVU578
 1775 0326 BFB2     		uxth	r7, r7
 1776              	.LVL153:
 738:lvgl/src/widgets/lv_btnmatrix.c ****         /*Search the next valid text in the map*/
 1777              		.loc 1 738 57 discriminator 2 view .LVU579
 1778 0328 0134     		adds	r4, r4, #1
 1779              	.LVL154:
 738:lvgl/src/widgets/lv_btnmatrix.c ****         /*Search the next valid text in the map*/
 1780              		.loc 1 738 57 discriminator 2 view .LVU580
 1781 032a A4B2     		uxth	r4, r4
 1782              	.LVL155:
 1783              	.L61:
 738:lvgl/src/widgets/lv_btnmatrix.c ****         /*Search the next valid text in the map*/
 1784              		.loc 1 738 20 is_stmt 1 discriminator 1 view .LVU581
 738:lvgl/src/widgets/lv_btnmatrix.c ****         /*Search the next valid text in the map*/
 1785              		.loc 1 738 32 is_stmt 0 discriminator 1 view .LVU582
 1786 032c 2B8E     		ldrh	r3, [r5, #48]
 738:lvgl/src/widgets/lv_btnmatrix.c ****         /*Search the next valid text in the map*/
 1787              		.loc 1 738 5 discriminator 1 view .LVU583
 1788 032e BB42     		cmp	r3, r7
 1789 0330 3FF6D2AE 		bhi	.L84
 845:lvgl/src/widgets/lv_btnmatrix.c **** #if LV_USE_ARABIC_PERSIAN_CHARS
 1790              		.loc 1 845 5 is_stmt 1 view .LVU584
 845:lvgl/src/widgets/lv_btnmatrix.c **** #if LV_USE_ARABIC_PERSIAN_CHARS
 1791              		.loc 1 845 21 is_stmt 0 view .LVU585
 1792 0334 95F82230 		ldrb	r3, [r5, #34]	@ zero_extendqisi2
 1793 0338 6FF3C303 		bfc	r3, #3, #1
 1794 033c 85F82230 		strb	r3, [r5, #34]
 1795 0340 66E6     		b	.L58
 1796              	.LVL156:
 1797              	.L85:
 1798              	.LBB122:
 749:lvgl/src/widgets/lv_btnmatrix.c **** 
 1799              		.loc 1 749 66 view .LVU586
 1800 0342 4FF00108 		mov	r8, #1
 1801 0346 E4E6     		b	.L65
 1802              	.LVL157:
 1803              	.L66:
 752:lvgl/src/widgets/lv_btnmatrix.c ****             if(state_ori & LV_STATE_PRESSED) btn_state |= LV_STATE_PRESSED;
 1804              		.loc 1 752 14 is_stmt 1 view .LVU587
 752:lvgl/src/widgets/lv_btnmatrix.c ****             if(state_ori & LV_STATE_PRESSED) btn_state |= LV_STATE_PRESSED;
 1805              		.loc 1 752 30 is_stmt 0 view .LVU588
 1806 0348 AB8E     		ldrh	r3, [r5, #52]
ARM GAS  C:\Users\OSD\AppData\Local\Temp\ccnvvkrZ.s 			page 64


 752:lvgl/src/widgets/lv_btnmatrix.c ****             if(state_ori & LV_STATE_PRESSED) btn_state |= LV_STATE_PRESSED;
 1807              		.loc 1 752 16 view .LVU589
 1808 034a BB42     		cmp	r3, r7
 1809 034c 7FF4E9AE 		bne	.L67
 753:lvgl/src/widgets/lv_btnmatrix.c ****             if(state_ori & LV_STATE_FOCUSED) btn_state |= LV_STATE_FOCUSED;
 1810              		.loc 1 753 13 is_stmt 1 view .LVU590
 753:lvgl/src/widgets/lv_btnmatrix.c ****             if(state_ori & LV_STATE_FOCUSED) btn_state |= LV_STATE_FOCUSED;
 1811              		.loc 1 753 15 is_stmt 0 view .LVU591
 1812 0350 059B     		ldr	r3, [sp, #20]
 1813 0352 13F0200F 		tst	r3, #32
 1814 0356 01D0     		beq	.L68
 753:lvgl/src/widgets/lv_btnmatrix.c ****             if(state_ori & LV_STATE_FOCUSED) btn_state |= LV_STATE_FOCUSED;
 1815              		.loc 1 753 46 is_stmt 1 discriminator 1 view .LVU592
 753:lvgl/src/widgets/lv_btnmatrix.c ****             if(state_ori & LV_STATE_FOCUSED) btn_state |= LV_STATE_FOCUSED;
 1816              		.loc 1 753 56 is_stmt 0 discriminator 1 view .LVU593
 1817 0358 48F02008 		orr	r8, r8, #32
 1818              	.LVL158:
 1819              	.L68:
 754:lvgl/src/widgets/lv_btnmatrix.c ****             if(state_ori & LV_STATE_FOCUS_KEY) btn_state |= LV_STATE_FOCUS_KEY;
 1820              		.loc 1 754 13 is_stmt 1 view .LVU594
 754:lvgl/src/widgets/lv_btnmatrix.c ****             if(state_ori & LV_STATE_FOCUS_KEY) btn_state |= LV_STATE_FOCUS_KEY;
 1821              		.loc 1 754 15 is_stmt 0 view .LVU595
 1822 035c 059B     		ldr	r3, [sp, #20]
 1823 035e 13F0020F 		tst	r3, #2
 1824 0362 01D0     		beq	.L69
 754:lvgl/src/widgets/lv_btnmatrix.c ****             if(state_ori & LV_STATE_FOCUS_KEY) btn_state |= LV_STATE_FOCUS_KEY;
 1825              		.loc 1 754 46 is_stmt 1 discriminator 1 view .LVU596
 754:lvgl/src/widgets/lv_btnmatrix.c ****             if(state_ori & LV_STATE_FOCUS_KEY) btn_state |= LV_STATE_FOCUS_KEY;
 1826              		.loc 1 754 56 is_stmt 0 discriminator 1 view .LVU597
 1827 0364 48F00208 		orr	r8, r8, #2
 1828              	.LVL159:
 1829              	.L69:
 755:lvgl/src/widgets/lv_btnmatrix.c ****             if(state_ori & LV_STATE_EDITED) btn_state |= LV_STATE_EDITED;
 1830              		.loc 1 755 13 is_stmt 1 view .LVU598
 755:lvgl/src/widgets/lv_btnmatrix.c ****             if(state_ori & LV_STATE_EDITED) btn_state |= LV_STATE_EDITED;
 1831              		.loc 1 755 15 is_stmt 0 view .LVU599
 1832 0368 059B     		ldr	r3, [sp, #20]
 1833 036a 13F0040F 		tst	r3, #4
 1834 036e 01D0     		beq	.L70
 755:lvgl/src/widgets/lv_btnmatrix.c ****             if(state_ori & LV_STATE_EDITED) btn_state |= LV_STATE_EDITED;
 1835              		.loc 1 755 48 is_stmt 1 discriminator 1 view .LVU600
 755:lvgl/src/widgets/lv_btnmatrix.c ****             if(state_ori & LV_STATE_EDITED) btn_state |= LV_STATE_EDITED;
 1836              		.loc 1 755 58 is_stmt 0 discriminator 1 view .LVU601
 1837 0370 48F00408 		orr	r8, r8, #4
 1838              	.LVL160:
 1839              	.L70:
 756:lvgl/src/widgets/lv_btnmatrix.c ****         }
 1840              		.loc 1 756 13 is_stmt 1 view .LVU602
 756:lvgl/src/widgets/lv_btnmatrix.c ****         }
 1841              		.loc 1 756 15 is_stmt 0 view .LVU603
 1842 0374 059B     		ldr	r3, [sp, #20]
 1843 0376 13F0080F 		tst	r3, #8
 1844 037a 3FF4D2AE 		beq	.L67
 756:lvgl/src/widgets/lv_btnmatrix.c ****         }
 1845              		.loc 1 756 45 is_stmt 1 discriminator 1 view .LVU604
 756:lvgl/src/widgets/lv_btnmatrix.c ****         }
 1846              		.loc 1 756 55 is_stmt 0 discriminator 1 view .LVU605
ARM GAS  C:\Users\OSD\AppData\Local\Temp\ccnvvkrZ.s 			page 65


 1847 037e 48F00808 		orr	r8, r8, #8
 1848              	.LVL161:
 756:lvgl/src/widgets/lv_btnmatrix.c ****         }
 1849              		.loc 1 756 55 discriminator 1 view .LVU606
 1850 0382 CEE6     		b	.L67
 1851              	.L71:
 773:lvgl/src/widgets/lv_btnmatrix.c ****             obj->skip_trans = 1;
 1852              		.loc 1 773 13 is_stmt 1 view .LVU607
 773:lvgl/src/widgets/lv_btnmatrix.c ****             obj->skip_trans = 1;
 1853              		.loc 1 773 24 is_stmt 0 view .LVU608
 1854 0384 A5F82080 		strh	r8, [r5, #32]	@ movhi
 774:lvgl/src/widgets/lv_btnmatrix.c ****             lv_draw_rect_dsc_init(&draw_rect_dsc_act);
 1855              		.loc 1 774 13 is_stmt 1 view .LVU609
 774:lvgl/src/widgets/lv_btnmatrix.c ****             lv_draw_rect_dsc_init(&draw_rect_dsc_act);
 1856              		.loc 1 774 29 is_stmt 0 view .LVU610
 1857 0388 95F82230 		ldrb	r3, [r5, #34]	@ zero_extendqisi2
 1858 038c 43F00803 		orr	r3, r3, #8
 1859 0390 85F82230 		strb	r3, [r5, #34]
 775:lvgl/src/widgets/lv_btnmatrix.c ****             lv_draw_label_dsc_init(&draw_label_dsc_act);
 1860              		.loc 1 775 13 is_stmt 1 view .LVU611
 1861 0394 46A8     		add	r0, sp, #280
 1862 0396 FFF7FEFF 		bl	lv_draw_rect_dsc_init
 1863              	.LVL162:
 776:lvgl/src/widgets/lv_btnmatrix.c ****             lv_obj_init_draw_rect_dsc(obj, LV_PART_ITEMS, &draw_rect_dsc_act);
 1864              		.loc 1 776 13 view .LVU612
 1865 039a 3CA8     		add	r0, sp, #240
 1866 039c FFF7FEFF 		bl	lv_draw_label_dsc_init
 1867              	.LVL163:
 777:lvgl/src/widgets/lv_btnmatrix.c ****             lv_obj_init_draw_label_dsc(obj, LV_PART_ITEMS, &draw_label_dsc_act);
 1868              		.loc 1 777 13 view .LVU613
 1869 03a0 46AA     		add	r2, sp, #280
 1870 03a2 4FF4A021 		mov	r1, #327680
 1871 03a6 2846     		mov	r0, r5
 1872 03a8 FFF7FEFF 		bl	lv_obj_init_draw_rect_dsc
 1873              	.LVL164:
 778:lvgl/src/widgets/lv_btnmatrix.c ****             obj->state = state_ori;
 1874              		.loc 1 778 13 view .LVU614
 1875 03ac 3CAA     		add	r2, sp, #240
 1876 03ae 4FF4A021 		mov	r1, #327680
 1877 03b2 2846     		mov	r0, r5
 1878 03b4 FFF7FEFF 		bl	lv_obj_init_draw_label_dsc
 1879              	.LVL165:
 779:lvgl/src/widgets/lv_btnmatrix.c ****             obj->skip_trans = 0;
 1880              		.loc 1 779 13 view .LVU615
 779:lvgl/src/widgets/lv_btnmatrix.c ****             obj->skip_trans = 0;
 1881              		.loc 1 779 24 is_stmt 0 view .LVU616
 1882 03b8 059B     		ldr	r3, [sp, #20]
 1883 03ba 2B84     		strh	r3, [r5, #32]	@ movhi
 780:lvgl/src/widgets/lv_btnmatrix.c ****         }
 1884              		.loc 1 780 13 is_stmt 1 view .LVU617
 780:lvgl/src/widgets/lv_btnmatrix.c ****         }
 1885              		.loc 1 780 29 is_stmt 0 view .LVU618
 1886 03bc 95F82230 		ldrb	r3, [r5, #34]	@ zero_extendqisi2
 1887 03c0 6FF3C303 		bfc	r3, #3, #1
 1888 03c4 85F82230 		strb	r3, [r5, #34]
 1889 03c8 DCE6     		b	.L72
 1890              	.LVL166:
ARM GAS  C:\Users\OSD\AppData\Local\Temp\ccnvvkrZ.s 			page 66


 1891              	.L73:
 785:lvgl/src/widgets/lv_btnmatrix.c **** 
 1892              		.loc 1 785 14 is_stmt 1 view .LVU619
 785:lvgl/src/widgets/lv_btnmatrix.c **** 
 1893              		.loc 1 785 38 is_stmt 0 view .LVU620
 1894 03ca 9DF81331 		ldrb	r3, [sp, #275]	@ zero_extendqisi2
 1895 03ce 23F00103 		bic	r3, r3, #1
 1896 03d2 8DF81331 		strb	r3, [sp, #275]
 1897 03d6 E3E6     		b	.L74
 1898              	.LVL167:
 1899              	.L89:
 794:lvgl/src/widgets/lv_btnmatrix.c ****             if(btn_area.x2 == obj->coords.x2 - pright) draw_rect_dsc_act.border_side &= ~LV_BORDER_
 1900              		.loc 1 794 55 is_stmt 1 discriminator 1 view .LVU621
 794:lvgl/src/widgets/lv_btnmatrix.c ****             if(btn_area.x2 == obj->coords.x2 - pright) draw_rect_dsc_act.border_side &= ~LV_BORDER_
 1901              		.loc 1 794 85 is_stmt 0 discriminator 1 view .LVU622
 1902 03d8 9DF84B31 		ldrb	r3, [sp, #331]	@ zero_extendqisi2
 1903 03dc 0B22     		movs	r2, #11
 1904 03de 62F34503 		bfi	r3, r2, #1, #5
 1905 03e2 8DF84B31 		strb	r3, [sp, #331]
 1906 03e6 F9E6     		b	.L76
 1907              	.L97:
 1908              		.align	2
 1909              	.L96:
 1910 03e8 00000000 		.word	.LANCHOR0
 1911 03ec 00000000 		.word	.LC0
 1912              	.L90:
 795:lvgl/src/widgets/lv_btnmatrix.c ****             if(btn_area.y1 == obj->coords.y1 + ptop) draw_rect_dsc_act.border_side &= ~LV_BORDER_SI
 1913              		.loc 1 795 56 is_stmt 1 discriminator 1 view .LVU623
 795:lvgl/src/widgets/lv_btnmatrix.c ****             if(btn_area.y1 == obj->coords.y1 + ptop) draw_rect_dsc_act.border_side &= ~LV_BORDER_SI
 1914              		.loc 1 795 86 is_stmt 0 discriminator 1 view .LVU624
 1915 03f0 9DF84B31 		ldrb	r3, [sp, #331]	@ zero_extendqisi2
 1916 03f4 C3F34402 		ubfx	r2, r3, #1, #5
 1917 03f8 02F01702 		and	r2, r2, #23
 1918 03fc 62F34503 		bfi	r3, r2, #1, #5
 1919 0400 8DF84B31 		strb	r3, [sp, #331]
 1920 0404 F3E6     		b	.L77
 1921              	.L91:
 796:lvgl/src/widgets/lv_btnmatrix.c ****             if(btn_area.y2 == obj->coords.y2 - pbottom) draw_rect_dsc_act.border_side &= ~LV_BORDER
 1922              		.loc 1 796 54 is_stmt 1 discriminator 1 view .LVU625
 796:lvgl/src/widgets/lv_btnmatrix.c ****             if(btn_area.y2 == obj->coords.y2 - pbottom) draw_rect_dsc_act.border_side &= ~LV_BORDER
 1923              		.loc 1 796 84 is_stmt 0 discriminator 1 view .LVU626
 1924 0406 9DF84B31 		ldrb	r3, [sp, #331]	@ zero_extendqisi2
 1925 040a C3F34402 		ubfx	r2, r3, #1, #5
 1926 040e 02F01D02 		and	r2, r2, #29
 1927 0412 62F34503 		bfi	r3, r2, #1, #5
 1928 0416 8DF84B31 		strb	r3, [sp, #331]
 1929 041a F1E6     		b	.L78
 1930              	.L92:
 797:lvgl/src/widgets/lv_btnmatrix.c ****         }
 1931              		.loc 1 797 57 is_stmt 1 discriminator 1 view .LVU627
 797:lvgl/src/widgets/lv_btnmatrix.c ****         }
 1932              		.loc 1 797 87 is_stmt 0 discriminator 1 view .LVU628
 1933 041c 9DF84B31 		ldrb	r3, [sp, #331]	@ zero_extendqisi2
 1934 0420 C3F34402 		ubfx	r2, r3, #1, #5
 1935 0424 02F01E02 		and	r2, r2, #30
 1936 0428 62F34503 		bfi	r3, r2, #1, #5
 1937 042c 8DF84B31 		strb	r3, [sp, #331]
ARM GAS  C:\Users\OSD\AppData\Local\Temp\ccnvvkrZ.s 			page 67


 1938 0430 EFE6     		b	.L75
 1939              	.LVL168:
 1940              	.L93:
 828:lvgl/src/widgets/lv_btnmatrix.c ****         btn_area.y1 += (lv_area_get_height(&btn_area) - txt_size.y) / 2;
 1941              		.loc 1 828 68 view .LVU629
 1942 0432 0133     		adds	r3, r3, #1
 1943 0434 31E7     		b	.L80
 1944              	.L94:
 829:lvgl/src/widgets/lv_btnmatrix.c ****         btn_area.x2 = btn_area.x1 + txt_size.x;
 1945              		.loc 1 829 69 view .LVU630
 1946 0436 0133     		adds	r3, r3, #1
 1947 0438 42E7     		b	.L81
 1948              	.L95:
 835:lvgl/src/widgets/lv_btnmatrix.c ****             btn_area.y2 -= btn_height / 2;
 1949              		.loc 1 835 25 view .LVU631
 1950 043a 09F10101 		add	r1, r9, #1
 1951 043e 5CE7     		b	.L83
 1952              	.LBE122:
 1953              		.cfi_endproc
 1954              	.LFE179:
 1956              		.section	.text.lv_btnmatrix_destructor,"ax",%progbits
 1957              		.align	1
 1958              		.syntax unified
 1959              		.thumb
 1960              		.thumb_func
 1962              	lv_btnmatrix_destructor:
 1963              	.LVL169:
 1964              	.LFB177:
 393:lvgl/src/widgets/lv_btnmatrix.c ****     LV_TRACE_OBJ_CREATE("begin");
 1965              		.loc 1 393 1 is_stmt 1 view -0
 1966              		.cfi_startproc
 1967              		@ args = 0, pretend = 0, frame = 0
 1968              		@ frame_needed = 0, uses_anonymous_args = 0
 393:lvgl/src/widgets/lv_btnmatrix.c ****     LV_TRACE_OBJ_CREATE("begin");
 1969              		.loc 1 393 1 is_stmt 0 view .LVU633
 1970 0000 10B5     		push	{r4, lr}
 1971              		.cfi_def_cfa_offset 8
 1972              		.cfi_offset 4, -8
 1973              		.cfi_offset 14, -4
 1974 0002 0C46     		mov	r4, r1
 394:lvgl/src/widgets/lv_btnmatrix.c ****     LV_UNUSED(class_p);
 1975              		.loc 1 394 33 is_stmt 1 view .LVU634
 395:lvgl/src/widgets/lv_btnmatrix.c ****     lv_btnmatrix_t * btnm = (lv_btnmatrix_t *)obj;
 1976              		.loc 1 395 5 view .LVU635
 396:lvgl/src/widgets/lv_btnmatrix.c ****     lv_mem_free(btnm->button_areas);
 1977              		.loc 1 396 5 view .LVU636
 1978              	.LVL170:
 397:lvgl/src/widgets/lv_btnmatrix.c ****     lv_mem_free(btnm->ctrl_bits);
 1979              		.loc 1 397 5 view .LVU637
 1980 0004 886A     		ldr	r0, [r1, #40]
 1981              	.LVL171:
 397:lvgl/src/widgets/lv_btnmatrix.c ****     lv_mem_free(btnm->ctrl_bits);
 1982              		.loc 1 397 5 is_stmt 0 view .LVU638
 1983 0006 FFF7FEFF 		bl	lv_mem_free
 1984              	.LVL172:
 398:lvgl/src/widgets/lv_btnmatrix.c ****     btnm->button_areas = NULL;
 1985              		.loc 1 398 5 is_stmt 1 view .LVU639
ARM GAS  C:\Users\OSD\AppData\Local\Temp\ccnvvkrZ.s 			page 68


 1986 000a E06A     		ldr	r0, [r4, #44]
 1987 000c FFF7FEFF 		bl	lv_mem_free
 1988              	.LVL173:
 399:lvgl/src/widgets/lv_btnmatrix.c ****     btnm->ctrl_bits = NULL;
 1989              		.loc 1 399 5 view .LVU640
 399:lvgl/src/widgets/lv_btnmatrix.c ****     btnm->ctrl_bits = NULL;
 1990              		.loc 1 399 24 is_stmt 0 view .LVU641
 1991 0010 0023     		movs	r3, #0
 1992 0012 A362     		str	r3, [r4, #40]
 400:lvgl/src/widgets/lv_btnmatrix.c ****     LV_TRACE_OBJ_CREATE("finished");
 1993              		.loc 1 400 5 is_stmt 1 view .LVU642
 400:lvgl/src/widgets/lv_btnmatrix.c ****     LV_TRACE_OBJ_CREATE("finished");
 1994              		.loc 1 400 21 is_stmt 0 view .LVU643
 1995 0014 E362     		str	r3, [r4, #44]
 401:lvgl/src/widgets/lv_btnmatrix.c **** }
 1996              		.loc 1 401 36 is_stmt 1 view .LVU644
 402:lvgl/src/widgets/lv_btnmatrix.c **** 
 1997              		.loc 1 402 1 is_stmt 0 view .LVU645
 1998 0016 10BD     		pop	{r4, pc}
 402:lvgl/src/widgets/lv_btnmatrix.c **** 
 1999              		.loc 1 402 1 view .LVU646
 2000              		.cfi_endproc
 2001              	.LFE177:
 2003              		.section	.text.allocate_btn_areas_and_controls,"ax",%progbits
 2004              		.align	1
 2005              		.syntax unified
 2006              		.thumb
 2007              		.thumb_func
 2009              	allocate_btn_areas_and_controls:
 2010              	.LVL174:
 2011              	.LFB180:
 856:lvgl/src/widgets/lv_btnmatrix.c ****     lv_btnmatrix_t * btnm = (lv_btnmatrix_t *)obj;
 2012              		.loc 1 856 1 is_stmt 1 view -0
 2013              		.cfi_startproc
 2014              		@ args = 0, pretend = 0, frame = 0
 2015              		@ frame_needed = 0, uses_anonymous_args = 0
 856:lvgl/src/widgets/lv_btnmatrix.c ****     lv_btnmatrix_t * btnm = (lv_btnmatrix_t *)obj;
 2016              		.loc 1 856 1 is_stmt 0 view .LVU648
 2017 0000 F8B5     		push	{r3, r4, r5, r6, r7, lr}
 2018              		.cfi_def_cfa_offset 24
 2019              		.cfi_offset 3, -24
 2020              		.cfi_offset 4, -20
 2021              		.cfi_offset 5, -16
 2022              		.cfi_offset 6, -12
 2023              		.cfi_offset 7, -8
 2024              		.cfi_offset 14, -4
 2025 0002 0646     		mov	r6, r0
 2026 0004 0F46     		mov	r7, r1
 857:lvgl/src/widgets/lv_btnmatrix.c ****     btnm->row_cnt = 1;
 2027              		.loc 1 857 5 is_stmt 1 view .LVU649
 2028              	.LVL175:
 858:lvgl/src/widgets/lv_btnmatrix.c ****     /*Count the buttons in the map*/
 2029              		.loc 1 858 5 view .LVU650
 858:lvgl/src/widgets/lv_btnmatrix.c ****     /*Count the buttons in the map*/
 2030              		.loc 1 858 19 is_stmt 0 view .LVU651
 2031 0006 0123     		movs	r3, #1
 2032 0008 4386     		strh	r3, [r0, #50]	@ movhi
ARM GAS  C:\Users\OSD\AppData\Local\Temp\ccnvvkrZ.s 			page 69


 860:lvgl/src/widgets/lv_btnmatrix.c ****     uint16_t i       = 0;
 2033              		.loc 1 860 5 is_stmt 1 view .LVU652
 2034              	.LVL176:
 861:lvgl/src/widgets/lv_btnmatrix.c ****     while(map[i] && map[i][0] != '\0') {
 2035              		.loc 1 861 5 view .LVU653
 862:lvgl/src/widgets/lv_btnmatrix.c ****         if(strcmp(map[i], "\n") != 0) { /*Do not count line breaks*/
 2036              		.loc 1 862 5 view .LVU654
 861:lvgl/src/widgets/lv_btnmatrix.c ****     while(map[i] && map[i][0] != '\0') {
 2037              		.loc 1 861 14 is_stmt 0 view .LVU655
 2038 000a 0024     		movs	r4, #0
 860:lvgl/src/widgets/lv_btnmatrix.c ****     uint16_t i       = 0;
 2039              		.loc 1 860 14 view .LVU656
 2040 000c 2546     		mov	r5, r4
 862:lvgl/src/widgets/lv_btnmatrix.c ****         if(strcmp(map[i], "\n") != 0) { /*Do not count line breaks*/
 2041              		.loc 1 862 10 view .LVU657
 2042 000e 04E0     		b	.L101
 2043              	.LVL177:
 2044              	.L102:
 867:lvgl/src/widgets/lv_btnmatrix.c ****         }
 2045              		.loc 1 867 13 is_stmt 1 view .LVU658
 867:lvgl/src/widgets/lv_btnmatrix.c ****         }
 2046              		.loc 1 867 17 is_stmt 0 view .LVU659
 2047 0010 738E     		ldrh	r3, [r6, #50]
 867:lvgl/src/widgets/lv_btnmatrix.c ****         }
 2048              		.loc 1 867 26 view .LVU660
 2049 0012 0133     		adds	r3, r3, #1
 2050 0014 7386     		strh	r3, [r6, #50]	@ movhi
 2051              	.L103:
 869:lvgl/src/widgets/lv_btnmatrix.c ****     }
 2052              		.loc 1 869 9 is_stmt 1 view .LVU661
 869:lvgl/src/widgets/lv_btnmatrix.c ****     }
 2053              		.loc 1 869 10 is_stmt 0 view .LVU662
 2054 0016 0134     		adds	r4, r4, #1
 2055              	.LVL178:
 869:lvgl/src/widgets/lv_btnmatrix.c ****     }
 2056              		.loc 1 869 10 view .LVU663
 2057 0018 A4B2     		uxth	r4, r4
 2058              	.LVL179:
 2059              	.L101:
 862:lvgl/src/widgets/lv_btnmatrix.c ****         if(strcmp(map[i], "\n") != 0) { /*Do not count line breaks*/
 2060              		.loc 1 862 10 is_stmt 1 view .LVU664
 862:lvgl/src/widgets/lv_btnmatrix.c ****         if(strcmp(map[i], "\n") != 0) { /*Do not count line breaks*/
 2061              		.loc 1 862 14 is_stmt 0 view .LVU665
 2062 001a 57F82400 		ldr	r0, [r7, r4, lsl #2]
 862:lvgl/src/widgets/lv_btnmatrix.c ****         if(strcmp(map[i], "\n") != 0) { /*Do not count line breaks*/
 2063              		.loc 1 862 10 view .LVU666
 2064 001e 48B1     		cbz	r0, .L104
 862:lvgl/src/widgets/lv_btnmatrix.c ****         if(strcmp(map[i], "\n") != 0) { /*Do not count line breaks*/
 2065              		.loc 1 862 27 discriminator 1 view .LVU667
 2066 0020 0378     		ldrb	r3, [r0]	@ zero_extendqisi2
 862:lvgl/src/widgets/lv_btnmatrix.c ****         if(strcmp(map[i], "\n") != 0) { /*Do not count line breaks*/
 2067              		.loc 1 862 18 discriminator 1 view .LVU668
 2068 0022 3BB1     		cbz	r3, .L104
 863:lvgl/src/widgets/lv_btnmatrix.c ****             btn_cnt++;
 2069              		.loc 1 863 9 is_stmt 1 view .LVU669
 863:lvgl/src/widgets/lv_btnmatrix.c ****             btn_cnt++;
 2070              		.loc 1 863 12 is_stmt 0 view .LVU670
ARM GAS  C:\Users\OSD\AppData\Local\Temp\ccnvvkrZ.s 			page 70


 2071 0024 1549     		ldr	r1, .L117
 2072 0026 FFF7FEFF 		bl	strcmp
 2073              	.LVL180:
 863:lvgl/src/widgets/lv_btnmatrix.c ****             btn_cnt++;
 2074              		.loc 1 863 11 view .LVU671
 2075 002a 0028     		cmp	r0, #0
 2076 002c F0D0     		beq	.L102
 864:lvgl/src/widgets/lv_btnmatrix.c ****         }
 2077              		.loc 1 864 13 is_stmt 1 view .LVU672
 864:lvgl/src/widgets/lv_btnmatrix.c ****         }
 2078              		.loc 1 864 20 is_stmt 0 view .LVU673
 2079 002e 0135     		adds	r5, r5, #1
 2080              	.LVL181:
 864:lvgl/src/widgets/lv_btnmatrix.c ****         }
 2081              		.loc 1 864 20 view .LVU674
 2082 0030 ADB2     		uxth	r5, r5
 2083              	.LVL182:
 864:lvgl/src/widgets/lv_btnmatrix.c ****         }
 2084              		.loc 1 864 20 view .LVU675
 2085 0032 F0E7     		b	.L103
 2086              	.L104:
 873:lvgl/src/widgets/lv_btnmatrix.c **** 
 2087              		.loc 1 873 5 is_stmt 1 view .LVU676
 873:lvgl/src/widgets/lv_btnmatrix.c **** 
 2088              		.loc 1 873 23 is_stmt 0 view .LVU677
 2089 0034 338E     		ldrh	r3, [r6, #48]
 873:lvgl/src/widgets/lv_btnmatrix.c **** 
 2090              		.loc 1 873 7 view .LVU678
 2091 0036 AB42     		cmp	r3, r5
 2092 0038 1BD0     		beq	.L100
 875:lvgl/src/widgets/lv_btnmatrix.c ****         lv_mem_free(btnm->button_areas);
 2093              		.loc 1 875 5 is_stmt 1 view .LVU679
 875:lvgl/src/widgets/lv_btnmatrix.c ****         lv_mem_free(btnm->button_areas);
 2094              		.loc 1 875 12 is_stmt 0 view .LVU680
 2095 003a B06A     		ldr	r0, [r6, #40]
 875:lvgl/src/widgets/lv_btnmatrix.c ****         lv_mem_free(btnm->button_areas);
 2096              		.loc 1 875 7 view .LVU681
 2097 003c 18B1     		cbz	r0, .L107
 876:lvgl/src/widgets/lv_btnmatrix.c ****         btnm->button_areas = NULL;
 2098              		.loc 1 876 9 is_stmt 1 view .LVU682
 2099 003e FFF7FEFF 		bl	lv_mem_free
 2100              	.LVL183:
 877:lvgl/src/widgets/lv_btnmatrix.c ****     }
 2101              		.loc 1 877 9 view .LVU683
 877:lvgl/src/widgets/lv_btnmatrix.c ****     }
 2102              		.loc 1 877 28 is_stmt 0 view .LVU684
 2103 0042 0023     		movs	r3, #0
 2104 0044 B362     		str	r3, [r6, #40]
 2105              	.L107:
 879:lvgl/src/widgets/lv_btnmatrix.c ****         lv_mem_free(btnm->ctrl_bits);
 2106              		.loc 1 879 5 is_stmt 1 view .LVU685
 879:lvgl/src/widgets/lv_btnmatrix.c ****         lv_mem_free(btnm->ctrl_bits);
 2107              		.loc 1 879 12 is_stmt 0 view .LVU686
 2108 0046 F06A     		ldr	r0, [r6, #44]
 879:lvgl/src/widgets/lv_btnmatrix.c ****         lv_mem_free(btnm->ctrl_bits);
 2109              		.loc 1 879 7 view .LVU687
 2110 0048 18B1     		cbz	r0, .L108
ARM GAS  C:\Users\OSD\AppData\Local\Temp\ccnvvkrZ.s 			page 71


 880:lvgl/src/widgets/lv_btnmatrix.c ****         btnm->ctrl_bits = NULL;
 2111              		.loc 1 880 9 is_stmt 1 view .LVU688
 2112 004a FFF7FEFF 		bl	lv_mem_free
 2113              	.LVL184:
 881:lvgl/src/widgets/lv_btnmatrix.c ****     }
 2114              		.loc 1 881 9 view .LVU689
 881:lvgl/src/widgets/lv_btnmatrix.c ****     }
 2115              		.loc 1 881 25 is_stmt 0 view .LVU690
 2116 004e 0023     		movs	r3, #0
 2117 0050 F362     		str	r3, [r6, #44]
 2118              	.L108:
 884:lvgl/src/widgets/lv_btnmatrix.c ****     LV_ASSERT_MALLOC(btnm->button_areas);
 2119              		.loc 1 884 5 is_stmt 1 view .LVU691
 884:lvgl/src/widgets/lv_btnmatrix.c ****     LV_ASSERT_MALLOC(btnm->button_areas);
 2120              		.loc 1 884 26 is_stmt 0 view .LVU692
 2121 0052 E800     		lsls	r0, r5, #3
 2122 0054 FFF7FEFF 		bl	lv_mem_alloc
 2123              	.LVL185:
 884:lvgl/src/widgets/lv_btnmatrix.c ****     LV_ASSERT_MALLOC(btnm->button_areas);
 2124              		.loc 1 884 24 view .LVU693
 2125 0058 B062     		str	r0, [r6, #40]
 885:lvgl/src/widgets/lv_btnmatrix.c ****     btnm->ctrl_bits = lv_mem_alloc(sizeof(lv_btnmatrix_ctrl_t) * btn_cnt);
 2126              		.loc 1 885 5 is_stmt 1 view .LVU694
 885:lvgl/src/widgets/lv_btnmatrix.c ****     btnm->ctrl_bits = lv_mem_alloc(sizeof(lv_btnmatrix_ctrl_t) * btn_cnt);
 2127              		.loc 1 885 5 view .LVU695
 2128 005a 58B1     		cbz	r0, .L110
 885:lvgl/src/widgets/lv_btnmatrix.c ****     btnm->ctrl_bits = lv_mem_alloc(sizeof(lv_btnmatrix_ctrl_t) * btn_cnt);
 2129              		.loc 1 885 5 discriminator 2 view .LVU696
 885:lvgl/src/widgets/lv_btnmatrix.c ****     btnm->ctrl_bits = lv_mem_alloc(sizeof(lv_btnmatrix_ctrl_t) * btn_cnt);
 2130              		.loc 1 885 41 discriminator 2 view .LVU697
 886:lvgl/src/widgets/lv_btnmatrix.c ****     LV_ASSERT_MALLOC(btnm->ctrl_bits);
 2131              		.loc 1 886 5 discriminator 2 view .LVU698
 886:lvgl/src/widgets/lv_btnmatrix.c ****     LV_ASSERT_MALLOC(btnm->ctrl_bits);
 2132              		.loc 1 886 23 is_stmt 0 discriminator 2 view .LVU699
 2133 005c 6800     		lsls	r0, r5, #1
 2134 005e FFF7FEFF 		bl	lv_mem_alloc
 2135              	.LVL186:
 886:lvgl/src/widgets/lv_btnmatrix.c ****     LV_ASSERT_MALLOC(btnm->ctrl_bits);
 2136              		.loc 1 886 21 discriminator 2 view .LVU700
 2137 0062 F062     		str	r0, [r6, #44]
 887:lvgl/src/widgets/lv_btnmatrix.c ****     if(btnm->button_areas == NULL || btnm->ctrl_bits == NULL) btn_cnt = 0;
 2138              		.loc 1 887 5 is_stmt 1 discriminator 2 view .LVU701
 887:lvgl/src/widgets/lv_btnmatrix.c ****     if(btnm->button_areas == NULL || btnm->ctrl_bits == NULL) btn_cnt = 0;
 2139              		.loc 1 887 5 discriminator 2 view .LVU702
 2140 0064 38B1     		cbz	r0, .L112
 887:lvgl/src/widgets/lv_btnmatrix.c ****     if(btnm->button_areas == NULL || btnm->ctrl_bits == NULL) btn_cnt = 0;
 2141              		.loc 1 887 5 discriminator 2 view .LVU703
 887:lvgl/src/widgets/lv_btnmatrix.c ****     if(btnm->button_areas == NULL || btnm->ctrl_bits == NULL) btn_cnt = 0;
 2142              		.loc 1 887 38 discriminator 2 view .LVU704
 888:lvgl/src/widgets/lv_btnmatrix.c **** 
 2143              		.loc 1 888 5 discriminator 2 view .LVU705
 888:lvgl/src/widgets/lv_btnmatrix.c **** 
 2144              		.loc 1 888 12 is_stmt 0 discriminator 2 view .LVU706
 2145 0066 B36A     		ldr	r3, [r6, #40]
 888:lvgl/src/widgets/lv_btnmatrix.c **** 
 2146              		.loc 1 888 7 discriminator 2 view .LVU707
 2147 0068 33B1     		cbz	r3, .L116
ARM GAS  C:\Users\OSD\AppData\Local\Temp\ccnvvkrZ.s 			page 72


 2148              	.LVL187:
 2149              	.L113:
 890:lvgl/src/widgets/lv_btnmatrix.c **** 
 2150              		.loc 1 890 5 is_stmt 1 view .LVU708
 2151 006a 6900     		lsls	r1, r5, #1
 2152 006c FFF7FEFF 		bl	lv_memset_00
 2153              	.LVL188:
 892:lvgl/src/widgets/lv_btnmatrix.c **** }
 2154              		.loc 1 892 5 view .LVU709
 892:lvgl/src/widgets/lv_btnmatrix.c **** }
 2155              		.loc 1 892 19 is_stmt 0 view .LVU710
 2156 0070 3586     		strh	r5, [r6, #48]	@ movhi
 2157              	.L100:
 893:lvgl/src/widgets/lv_btnmatrix.c **** 
 2158              		.loc 1 893 1 view .LVU711
 2159 0072 F8BD     		pop	{r3, r4, r5, r6, r7, pc}
 2160              	.LVL189:
 2161              	.L110:
 885:lvgl/src/widgets/lv_btnmatrix.c ****     btnm->ctrl_bits = lv_mem_alloc(sizeof(lv_btnmatrix_ctrl_t) * btn_cnt);
 2162              		.loc 1 885 5 is_stmt 1 discriminator 1 view .LVU712
 885:lvgl/src/widgets/lv_btnmatrix.c ****     btnm->ctrl_bits = lv_mem_alloc(sizeof(lv_btnmatrix_ctrl_t) * btn_cnt);
 2163              		.loc 1 885 5 discriminator 1 view .LVU713
 885:lvgl/src/widgets/lv_btnmatrix.c ****     btnm->ctrl_bits = lv_mem_alloc(sizeof(lv_btnmatrix_ctrl_t) * btn_cnt);
 2164              		.loc 1 885 5 discriminator 1 view .LVU714
 885:lvgl/src/widgets/lv_btnmatrix.c ****     btnm->ctrl_bits = lv_mem_alloc(sizeof(lv_btnmatrix_ctrl_t) * btn_cnt);
 2165              		.loc 1 885 5 discriminator 1 view .LVU715
 885:lvgl/src/widgets/lv_btnmatrix.c ****     btnm->ctrl_bits = lv_mem_alloc(sizeof(lv_btnmatrix_ctrl_t) * btn_cnt);
 2166              		.loc 1 885 5 discriminator 1 view .LVU716
 885:lvgl/src/widgets/lv_btnmatrix.c ****     btnm->ctrl_bits = lv_mem_alloc(sizeof(lv_btnmatrix_ctrl_t) * btn_cnt);
 2167              		.loc 1 885 5 discriminator 1 view .LVU717
 2168 0074 FEE7     		b	.L110
 2169              	.L112:
 887:lvgl/src/widgets/lv_btnmatrix.c ****     if(btnm->button_areas == NULL || btnm->ctrl_bits == NULL) btn_cnt = 0;
