ARM GAS  C:\Users\OSD\AppData\Local\Temp\ccCs5vco.s 			page 1


   1              		.cpu cortex-m7
   2              		.arch armv7e-m
   3              		.fpu fpv5-d16
   4              		.eabi_attribute 28, 1
   5              		.eabi_attribute 20, 1
   6              		.eabi_attribute 21, 1
   7              		.eabi_attribute 23, 3
   8              		.eabi_attribute 24, 1
   9              		.eabi_attribute 25, 1
  10              		.eabi_attribute 26, 1
  11              		.eabi_attribute 30, 1
  12              		.eabi_attribute 34, 1
  13              		.eabi_attribute 18, 4
  14              		.file	"lv_color.c"
  15              		.text
  16              	.Ltext0:
  17              		.cfi_sections	.debug_frame
  18              		.section	.text.lv_color_fill,"ax",%progbits
  19              		.align	1
  20              		.global	lv_color_fill
  21              		.syntax unified
  22              		.thumb
  23              		.thumb_func
  25              	lv_color_fill:
  26              	.LVL0:
  27              	.LFB18:
  28              		.file 1 "lvgl/src/misc/lv_color.c"
   1:lvgl/src/misc/lv_color.c **** /**
   2:lvgl/src/misc/lv_color.c ****  * @file lv_color.c
   3:lvgl/src/misc/lv_color.c ****  *
   4:lvgl/src/misc/lv_color.c ****  */
   5:lvgl/src/misc/lv_color.c **** 
   6:lvgl/src/misc/lv_color.c **** /*********************
   7:lvgl/src/misc/lv_color.c ****  *      INCLUDES
   8:lvgl/src/misc/lv_color.c ****  *********************/
   9:lvgl/src/misc/lv_color.c **** #include "lv_color.h"
  10:lvgl/src/misc/lv_color.c **** #include "lv_log.h"
  11:lvgl/src/misc/lv_color.c **** 
  12:lvgl/src/misc/lv_color.c **** /*********************
  13:lvgl/src/misc/lv_color.c ****  *      DEFINES
  14:lvgl/src/misc/lv_color.c ****  *********************/
  15:lvgl/src/misc/lv_color.c **** 
  16:lvgl/src/misc/lv_color.c **** /**********************
  17:lvgl/src/misc/lv_color.c ****  *      TYPEDEFS
  18:lvgl/src/misc/lv_color.c ****  **********************/
  19:lvgl/src/misc/lv_color.c **** 
  20:lvgl/src/misc/lv_color.c **** /**********************
  21:lvgl/src/misc/lv_color.c ****  *  STATIC PROTOTYPES
  22:lvgl/src/misc/lv_color.c ****  **********************/
  23:lvgl/src/misc/lv_color.c **** 
  24:lvgl/src/misc/lv_color.c **** /**********************
  25:lvgl/src/misc/lv_color.c ****  *  STATIC VARIABLES
  26:lvgl/src/misc/lv_color.c ****  **********************/
  27:lvgl/src/misc/lv_color.c **** 
  28:lvgl/src/misc/lv_color.c **** /**********************
  29:lvgl/src/misc/lv_color.c ****  *      MACROS
  30:lvgl/src/misc/lv_color.c ****  **********************/
ARM GAS  C:\Users\OSD\AppData\Local\Temp\ccCs5vco.s 			page 2


  31:lvgl/src/misc/lv_color.c **** 
  32:lvgl/src/misc/lv_color.c **** /**********************
  33:lvgl/src/misc/lv_color.c ****  *   GLOBAL FUNCTIONS
  34:lvgl/src/misc/lv_color.c ****  **********************/
  35:lvgl/src/misc/lv_color.c **** 
  36:lvgl/src/misc/lv_color.c **** void LV_ATTRIBUTE_FAST_MEM lv_color_fill(lv_color_t * buf, lv_color_t color, uint32_t px_num)
  37:lvgl/src/misc/lv_color.c **** {
  29              		.loc 1 37 1 view -0
  30              		.cfi_startproc
  31              		@ args = 0, pretend = 0, frame = 0
  32              		@ frame_needed = 0, uses_anonymous_args = 0
  33              		@ link register save eliminated.
  38:lvgl/src/misc/lv_color.c **** #if LV_COLOR_DEPTH == 16
  39:lvgl/src/misc/lv_color.c ****     uintptr_t buf_int = (uintptr_t)buf;
  40:lvgl/src/misc/lv_color.c ****     if(buf_int & 0x3) {
  41:lvgl/src/misc/lv_color.c ****         *buf = color;
  42:lvgl/src/misc/lv_color.c ****         buf++;
  43:lvgl/src/misc/lv_color.c ****         px_num--;
  44:lvgl/src/misc/lv_color.c ****     }
  45:lvgl/src/misc/lv_color.c **** 
  46:lvgl/src/misc/lv_color.c ****     uint32_t c32 = (uint32_t)color.full + ((uint32_t)color.full << 16);
  47:lvgl/src/misc/lv_color.c ****     uint32_t * buf32 = (uint32_t *)buf;
  48:lvgl/src/misc/lv_color.c **** 
  49:lvgl/src/misc/lv_color.c ****     while(px_num > 16) {
  50:lvgl/src/misc/lv_color.c ****         *buf32 = c32;
  51:lvgl/src/misc/lv_color.c ****         buf32++;
  52:lvgl/src/misc/lv_color.c ****         *buf32 = c32;
  53:lvgl/src/misc/lv_color.c ****         buf32++;
  54:lvgl/src/misc/lv_color.c ****         *buf32 = c32;
  55:lvgl/src/misc/lv_color.c ****         buf32++;
  56:lvgl/src/misc/lv_color.c ****         *buf32 = c32;
  57:lvgl/src/misc/lv_color.c ****         buf32++;
  58:lvgl/src/misc/lv_color.c **** 
  59:lvgl/src/misc/lv_color.c ****         *buf32 = c32;
  60:lvgl/src/misc/lv_color.c ****         buf32++;
  61:lvgl/src/misc/lv_color.c ****         *buf32 = c32;
  62:lvgl/src/misc/lv_color.c ****         buf32++;
  63:lvgl/src/misc/lv_color.c ****         *buf32 = c32;
  64:lvgl/src/misc/lv_color.c ****         buf32++;
  65:lvgl/src/misc/lv_color.c ****         *buf32 = c32;
  66:lvgl/src/misc/lv_color.c ****         buf32++;
  67:lvgl/src/misc/lv_color.c **** 
  68:lvgl/src/misc/lv_color.c ****         px_num -= 16;
  69:lvgl/src/misc/lv_color.c ****     }
  70:lvgl/src/misc/lv_color.c **** 
  71:lvgl/src/misc/lv_color.c ****     buf = (lv_color_t *)buf32;
  72:lvgl/src/misc/lv_color.c **** 
  73:lvgl/src/misc/lv_color.c ****     while(px_num) {
  74:lvgl/src/misc/lv_color.c ****         *buf = color;
  75:lvgl/src/misc/lv_color.c ****         buf++;
  76:lvgl/src/misc/lv_color.c ****         px_num--;
  77:lvgl/src/misc/lv_color.c ****     }
  78:lvgl/src/misc/lv_color.c **** #else
  79:lvgl/src/misc/lv_color.c ****     while(px_num > 16) {
  34              		.loc 1 79 5 view .LVU1
  35              		.loc 1 79 10 is_stmt 0 view .LVU2
  36 0000 11E0     		b	.L2
ARM GAS  C:\Users\OSD\AppData\Local\Temp\ccCs5vco.s 			page 3


  37              	.L3:
  80:lvgl/src/misc/lv_color.c ****         *buf = color;
  38              		.loc 1 80 9 is_stmt 1 view .LVU3
  39              		.loc 1 80 14 is_stmt 0 view .LVU4
  40 0002 0160     		str	r1, [r0]
  81:lvgl/src/misc/lv_color.c ****         buf++;
  41              		.loc 1 81 9 is_stmt 1 view .LVU5
  42              	.LVL1:
  82:lvgl/src/misc/lv_color.c ****         *buf = color;
  43              		.loc 1 82 9 view .LVU6
  44              		.loc 1 82 14 is_stmt 0 view .LVU7
  45 0004 4160     		str	r1, [r0, #4]
  83:lvgl/src/misc/lv_color.c ****         buf++;
  46              		.loc 1 83 9 is_stmt 1 view .LVU8
  47              	.LVL2:
  84:lvgl/src/misc/lv_color.c ****         *buf = color;
  48              		.loc 1 84 9 view .LVU9
  49              		.loc 1 84 14 is_stmt 0 view .LVU10
  50 0006 8160     		str	r1, [r0, #8]
  85:lvgl/src/misc/lv_color.c ****         buf++;
  51              		.loc 1 85 9 is_stmt 1 view .LVU11
  52              	.LVL3:
  86:lvgl/src/misc/lv_color.c ****         *buf = color;
  53              		.loc 1 86 9 view .LVU12
  54              		.loc 1 86 14 is_stmt 0 view .LVU13
  55 0008 C160     		str	r1, [r0, #12]
  87:lvgl/src/misc/lv_color.c ****         buf++;
  56              		.loc 1 87 9 is_stmt 1 view .LVU14
  57              	.LVL4:
  88:lvgl/src/misc/lv_color.c **** 
  89:lvgl/src/misc/lv_color.c ****         *buf = color;
  58              		.loc 1 89 9 view .LVU15
  59              		.loc 1 89 14 is_stmt 0 view .LVU16
  60 000a 0161     		str	r1, [r0, #16]
  90:lvgl/src/misc/lv_color.c ****         buf++;
  61              		.loc 1 90 9 is_stmt 1 view .LVU17
  62              	.LVL5:
  91:lvgl/src/misc/lv_color.c ****         *buf = color;
  63              		.loc 1 91 9 view .LVU18
  64              		.loc 1 91 14 is_stmt 0 view .LVU19
  65 000c 4161     		str	r1, [r0, #20]
  92:lvgl/src/misc/lv_color.c ****         buf++;
  66              		.loc 1 92 9 is_stmt 1 view .LVU20
  67              	.LVL6:
  93:lvgl/src/misc/lv_color.c ****         *buf = color;
  68              		.loc 1 93 9 view .LVU21
  69              		.loc 1 93 14 is_stmt 0 view .LVU22
  70 000e 8161     		str	r1, [r0, #24]
  94:lvgl/src/misc/lv_color.c ****         buf++;
  71              		.loc 1 94 9 is_stmt 1 view .LVU23
  72              	.LVL7:
  95:lvgl/src/misc/lv_color.c ****         *buf = color;
  73              		.loc 1 95 9 view .LVU24
  74              		.loc 1 95 14 is_stmt 0 view .LVU25
  75 0010 C161     		str	r1, [r0, #28]
  96:lvgl/src/misc/lv_color.c ****         buf++;
  76              		.loc 1 96 9 is_stmt 1 view .LVU26
ARM GAS  C:\Users\OSD\AppData\Local\Temp\ccCs5vco.s 			page 4


  77              	.LVL8:
  97:lvgl/src/misc/lv_color.c **** 
  98:lvgl/src/misc/lv_color.c ****         *buf = color;
  78              		.loc 1 98 9 view .LVU27
  79              		.loc 1 98 14 is_stmt 0 view .LVU28
  80 0012 0162     		str	r1, [r0, #32]
  99:lvgl/src/misc/lv_color.c ****         buf++;
  81              		.loc 1 99 9 is_stmt 1 view .LVU29
  82              	.LVL9:
 100:lvgl/src/misc/lv_color.c ****         *buf = color;
  83              		.loc 1 100 9 view .LVU30
  84              		.loc 1 100 14 is_stmt 0 view .LVU31
  85 0014 4162     		str	r1, [r0, #36]
 101:lvgl/src/misc/lv_color.c ****         buf++;
  86              		.loc 1 101 9 is_stmt 1 view .LVU32
  87              	.LVL10:
 102:lvgl/src/misc/lv_color.c ****         *buf = color;
  88              		.loc 1 102 9 view .LVU33
  89              		.loc 1 102 14 is_stmt 0 view .LVU34
  90 0016 8162     		str	r1, [r0, #40]
 103:lvgl/src/misc/lv_color.c ****         buf++;
  91              		.loc 1 103 9 is_stmt 1 view .LVU35
  92              	.LVL11:
 104:lvgl/src/misc/lv_color.c ****         *buf = color;
  93              		.loc 1 104 9 view .LVU36
  94              		.loc 1 104 14 is_stmt 0 view .LVU37
  95 0018 C162     		str	r1, [r0, #44]
 105:lvgl/src/misc/lv_color.c ****         buf++;
  96              		.loc 1 105 9 is_stmt 1 view .LVU38
  97              	.LVL12:
 106:lvgl/src/misc/lv_color.c **** 
 107:lvgl/src/misc/lv_color.c ****         *buf = color;
  98              		.loc 1 107 9 view .LVU39
  99              		.loc 1 107 14 is_stmt 0 view .LVU40
 100 001a 0163     		str	r1, [r0, #48]
 108:lvgl/src/misc/lv_color.c ****         buf++;
 101              		.loc 1 108 9 is_stmt 1 view .LVU41
 102              	.LVL13:
 109:lvgl/src/misc/lv_color.c ****         *buf = color;
 103              		.loc 1 109 9 view .LVU42
 104              		.loc 1 109 14 is_stmt 0 view .LVU43
 105 001c 4163     		str	r1, [r0, #52]
 110:lvgl/src/misc/lv_color.c ****         buf++;
 106              		.loc 1 110 9 is_stmt 1 view .LVU44
 107              	.LVL14:
 111:lvgl/src/misc/lv_color.c ****         *buf = color;
 108              		.loc 1 111 9 view .LVU45
 109              		.loc 1 111 14 is_stmt 0 view .LVU46
 110 001e 8163     		str	r1, [r0, #56]
 112:lvgl/src/misc/lv_color.c ****         buf++;
 111              		.loc 1 112 9 is_stmt 1 view .LVU47
 112              	.LVL15:
 113:lvgl/src/misc/lv_color.c ****         *buf = color;
 113              		.loc 1 113 9 view .LVU48
 114              		.loc 1 113 14 is_stmt 0 view .LVU49
 115 0020 C163     		str	r1, [r0, #60]
 114:lvgl/src/misc/lv_color.c ****         buf++;
ARM GAS  C:\Users\OSD\AppData\Local\Temp\ccCs5vco.s 			page 5


 116              		.loc 1 114 9 is_stmt 1 view .LVU50
 117              		.loc 1 114 12 is_stmt 0 view .LVU51
 118 0022 4030     		adds	r0, r0, #64
 119              	.LVL16:
 115:lvgl/src/misc/lv_color.c **** 
 116:lvgl/src/misc/lv_color.c ****         px_num -= 16;
 120              		.loc 1 116 9 is_stmt 1 view .LVU52
 121              		.loc 1 116 16 is_stmt 0 view .LVU53
 122 0024 103A     		subs	r2, r2, #16
 123              	.LVL17:
 124              	.L2:
  79:lvgl/src/misc/lv_color.c ****         *buf = color;
 125              		.loc 1 79 10 is_stmt 1 view .LVU54
 126 0026 102A     		cmp	r2, #16
 127 0028 EBD8     		bhi	.L3
  79:lvgl/src/misc/lv_color.c ****         *buf = color;
 128              		.loc 1 79 10 is_stmt 0 view .LVU55
 129 002a 02E0     		b	.L4
 130              	.L5:
 117:lvgl/src/misc/lv_color.c ****     }
 118:lvgl/src/misc/lv_color.c ****     while(px_num) {
 119:lvgl/src/misc/lv_color.c ****         *buf = color;
 131              		.loc 1 119 9 is_stmt 1 view .LVU56
 132              		.loc 1 119 14 is_stmt 0 view .LVU57
 133 002c 40F8041B 		str	r1, [r0], #4
 134              	.LVL18:
 120:lvgl/src/misc/lv_color.c ****         buf++;
 135              		.loc 1 120 9 is_stmt 1 view .LVU58
 121:lvgl/src/misc/lv_color.c ****         px_num--;
 136              		.loc 1 121 9 view .LVU59
 137              		.loc 1 121 15 is_stmt 0 view .LVU60
 138 0030 013A     		subs	r2, r2, #1
 139              	.LVL19:
 140              	.L4:
 118:lvgl/src/misc/lv_color.c ****         *buf = color;
 141              		.loc 1 118 10 is_stmt 1 view .LVU61
 142 0032 002A     		cmp	r2, #0
 143 0034 FAD1     		bne	.L5
 122:lvgl/src/misc/lv_color.c ****     }
 123:lvgl/src/misc/lv_color.c **** #endif
 124:lvgl/src/misc/lv_color.c **** }
 144              		.loc 1 124 1 is_stmt 0 view .LVU62
 145 0036 7047     		bx	lr
 146              		.cfi_endproc
 147              	.LFE18:
 149              		.section	.text.lv_color_lighten,"ax",%progbits
 150              		.align	1
 151              		.global	lv_color_lighten
 152              		.syntax unified
 153              		.thumb
 154              		.thumb_func
 156              	lv_color_lighten:
 157              	.LVL20:
 158              	.LFB19:
 125:lvgl/src/misc/lv_color.c **** 
 126:lvgl/src/misc/lv_color.c **** lv_color_t lv_color_lighten(lv_color_t c, lv_opa_t lvl)
 127:lvgl/src/misc/lv_color.c **** {
ARM GAS  C:\Users\OSD\AppData\Local\Temp\ccCs5vco.s 			page 6


 159              		.loc 1 127 1 is_stmt 1 view -0
 160              		.cfi_startproc
 161              		@ args = 0, pretend = 0, frame = 0
 162              		@ frame_needed = 0, uses_anonymous_args = 0
 163              		.loc 1 127 1 is_stmt 0 view .LVU64
 164 0000 10B5     		push	{r4, lr}
 165              		.cfi_def_cfa_offset 8
 166              		.cfi_offset 4, -8
 167              		.cfi_offset 14, -4
 128:lvgl/src/misc/lv_color.c ****     return lv_color_mix(lv_color_white(), c, lvl);
 168              		.loc 1 128 5 is_stmt 1 view .LVU65
 169              	.LBB45:
 170              	.LBI45:
 171              		.file 2 "lvgl/src/misc/lv_color.h"
   1:lvgl/src/misc/lv_color.h **** /**
   2:lvgl/src/misc/lv_color.h ****  * @file lv_color.h
   3:lvgl/src/misc/lv_color.h ****  *
   4:lvgl/src/misc/lv_color.h ****  */
   5:lvgl/src/misc/lv_color.h **** 
   6:lvgl/src/misc/lv_color.h **** #ifndef LV_COLOR_H
   7:lvgl/src/misc/lv_color.h **** #define LV_COLOR_H
   8:lvgl/src/misc/lv_color.h **** 
   9:lvgl/src/misc/lv_color.h **** #ifdef __cplusplus
  10:lvgl/src/misc/lv_color.h **** extern "C" {
  11:lvgl/src/misc/lv_color.h **** #endif
  12:lvgl/src/misc/lv_color.h **** 
  13:lvgl/src/misc/lv_color.h **** /*********************
  14:lvgl/src/misc/lv_color.h ****  *      INCLUDES
  15:lvgl/src/misc/lv_color.h ****  *********************/
  16:lvgl/src/misc/lv_color.h **** #include "../lv_conf_internal.h"
  17:lvgl/src/misc/lv_color.h **** #include "lv_assert.h"
  18:lvgl/src/misc/lv_color.h **** #include "lv_math.h"
  19:lvgl/src/misc/lv_color.h **** #include "lv_types.h"
  20:lvgl/src/misc/lv_color.h **** 
  21:lvgl/src/misc/lv_color.h **** /*Error checking*/
  22:lvgl/src/misc/lv_color.h **** #if LV_COLOR_DEPTH == 24
  23:lvgl/src/misc/lv_color.h **** #error "LV_COLOR_DEPTH 24 is deprecated. Use LV_COLOR_DEPTH 32 instead (lv_conf.h)"
  24:lvgl/src/misc/lv_color.h **** #endif
  25:lvgl/src/misc/lv_color.h **** 
  26:lvgl/src/misc/lv_color.h **** #if LV_COLOR_DEPTH != 16 && LV_COLOR_16_SWAP != 0
  27:lvgl/src/misc/lv_color.h **** #error "LV_COLOR_16_SWAP requires LV_COLOR_DEPTH == 16. Set it in lv_conf.h"
  28:lvgl/src/misc/lv_color.h **** #endif
  29:lvgl/src/misc/lv_color.h **** 
  30:lvgl/src/misc/lv_color.h **** #include <stdint.h>
  31:lvgl/src/misc/lv_color.h **** 
  32:lvgl/src/misc/lv_color.h **** /*********************
  33:lvgl/src/misc/lv_color.h ****  *      DEFINES
  34:lvgl/src/misc/lv_color.h ****  *********************/
  35:lvgl/src/misc/lv_color.h **** LV_EXPORT_CONST_INT(LV_COLOR_DEPTH);
  36:lvgl/src/misc/lv_color.h **** LV_EXPORT_CONST_INT(LV_COLOR_16_SWAP);
  37:lvgl/src/misc/lv_color.h **** 
  38:lvgl/src/misc/lv_color.h **** /**
  39:lvgl/src/misc/lv_color.h ****  * Opacity percentages.
  40:lvgl/src/misc/lv_color.h ****  */
  41:lvgl/src/misc/lv_color.h **** enum {
  42:lvgl/src/misc/lv_color.h ****     LV_OPA_TRANSP = 0,
  43:lvgl/src/misc/lv_color.h ****     LV_OPA_0      = 0,
ARM GAS  C:\Users\OSD\AppData\Local\Temp\ccCs5vco.s 			page 7


  44:lvgl/src/misc/lv_color.h ****     LV_OPA_10     = 25,
  45:lvgl/src/misc/lv_color.h ****     LV_OPA_20     = 51,
  46:lvgl/src/misc/lv_color.h ****     LV_OPA_30     = 76,
  47:lvgl/src/misc/lv_color.h ****     LV_OPA_40     = 102,
  48:lvgl/src/misc/lv_color.h ****     LV_OPA_50     = 127,
  49:lvgl/src/misc/lv_color.h ****     LV_OPA_60     = 153,
  50:lvgl/src/misc/lv_color.h ****     LV_OPA_70     = 178,
  51:lvgl/src/misc/lv_color.h ****     LV_OPA_80     = 204,
  52:lvgl/src/misc/lv_color.h ****     LV_OPA_90     = 229,
  53:lvgl/src/misc/lv_color.h ****     LV_OPA_100    = 255,
  54:lvgl/src/misc/lv_color.h ****     LV_OPA_COVER  = 255,
  55:lvgl/src/misc/lv_color.h **** };
  56:lvgl/src/misc/lv_color.h **** 
  57:lvgl/src/misc/lv_color.h **** #define LV_OPA_MIN 2    /*Opacities below this will be transparent*/
  58:lvgl/src/misc/lv_color.h **** #define LV_OPA_MAX 253  /*Opacities above this will fully cover*/
  59:lvgl/src/misc/lv_color.h **** 
  60:lvgl/src/misc/lv_color.h **** #if LV_COLOR_DEPTH == 1
  61:lvgl/src/misc/lv_color.h **** #define LV_COLOR_SIZE 8
  62:lvgl/src/misc/lv_color.h **** #elif LV_COLOR_DEPTH == 8
  63:lvgl/src/misc/lv_color.h **** #define LV_COLOR_SIZE 8
  64:lvgl/src/misc/lv_color.h **** #elif LV_COLOR_DEPTH == 16
  65:lvgl/src/misc/lv_color.h **** #define LV_COLOR_SIZE 16
  66:lvgl/src/misc/lv_color.h **** #elif LV_COLOR_DEPTH == 32
  67:lvgl/src/misc/lv_color.h **** #define LV_COLOR_SIZE 32
  68:lvgl/src/misc/lv_color.h **** #else
  69:lvgl/src/misc/lv_color.h **** #error "Invalid LV_COLOR_DEPTH in lv_conf.h! Set it to 1, 8, 16 or 32!"
  70:lvgl/src/misc/lv_color.h **** #endif
  71:lvgl/src/misc/lv_color.h **** 
  72:lvgl/src/misc/lv_color.h **** #if defined(__cplusplus) && !defined(_LV_COLOR_HAS_MODERN_CPP)
  73:lvgl/src/misc/lv_color.h **** /**
  74:lvgl/src/misc/lv_color.h **** * MSVC compiler's definition of the __cplusplus indicating 199711L regardless to C++ standard versi
  75:lvgl/src/misc/lv_color.h **** * see https://devblogs.microsoft.com/cppblog/msvc-now-correctly-reports-cplusplus
  76:lvgl/src/misc/lv_color.h **** * so we use _MSC_VER macro instead of __cplusplus
  77:lvgl/src/misc/lv_color.h **** */
  78:lvgl/src/misc/lv_color.h **** #ifdef _MSC_VER
  79:lvgl/src/misc/lv_color.h **** #if _MSC_VER >= 1900 /*Visual Studio 2015*/
  80:lvgl/src/misc/lv_color.h **** #define _LV_COLOR_HAS_MODERN_CPP 1
  81:lvgl/src/misc/lv_color.h **** #endif
  82:lvgl/src/misc/lv_color.h **** #else
  83:lvgl/src/misc/lv_color.h **** #if __cplusplus >= 201103L
  84:lvgl/src/misc/lv_color.h **** #define _LV_COLOR_HAS_MODERN_CPP 1
  85:lvgl/src/misc/lv_color.h **** #endif
  86:lvgl/src/misc/lv_color.h **** #endif
  87:lvgl/src/misc/lv_color.h **** #endif /*__cplusplus*/
  88:lvgl/src/misc/lv_color.h **** 
  89:lvgl/src/misc/lv_color.h **** #ifndef _LV_COLOR_HAS_MODERN_CPP
  90:lvgl/src/misc/lv_color.h **** #define _LV_COLOR_HAS_MODERN_CPP 0
  91:lvgl/src/misc/lv_color.h **** #endif
  92:lvgl/src/misc/lv_color.h **** 
  93:lvgl/src/misc/lv_color.h **** #if _LV_COLOR_HAS_MODERN_CPP
  94:lvgl/src/misc/lv_color.h **** /*Fix msvc compiler error C4576 inside C++ code*/
  95:lvgl/src/misc/lv_color.h **** #define _LV_COLOR_MAKE_TYPE_HELPER lv_color_t
  96:lvgl/src/misc/lv_color.h **** #else
  97:lvgl/src/misc/lv_color.h **** #define _LV_COLOR_MAKE_TYPE_HELPER (lv_color_t)
  98:lvgl/src/misc/lv_color.h **** #endif
  99:lvgl/src/misc/lv_color.h **** 
 100:lvgl/src/misc/lv_color.h **** /*---------------------------------------
ARM GAS  C:\Users\OSD\AppData\Local\Temp\ccCs5vco.s 			page 8


 101:lvgl/src/misc/lv_color.h ****  * Macros for all existing color depths
 102:lvgl/src/misc/lv_color.h ****  * to set/get values of the color channels
 103:lvgl/src/misc/lv_color.h ****  *------------------------------------------*/
 104:lvgl/src/misc/lv_color.h **** # define LV_COLOR_SET_R1(c, v) (c).ch.red = (uint8_t)((v) & 0x1)
 105:lvgl/src/misc/lv_color.h **** # define LV_COLOR_SET_G1(c, v) (c).ch.green = (uint8_t)((v) & 0x1)
 106:lvgl/src/misc/lv_color.h **** # define LV_COLOR_SET_B1(c, v) (c).ch.blue = (uint8_t)((v) & 0x1)
 107:lvgl/src/misc/lv_color.h **** # define LV_COLOR_SET_A1(c, v) do {} while(0)
 108:lvgl/src/misc/lv_color.h **** 
 109:lvgl/src/misc/lv_color.h **** # define LV_COLOR_GET_R1(c) (c).ch.red
 110:lvgl/src/misc/lv_color.h **** # define LV_COLOR_GET_G1(c) (c).ch.green
 111:lvgl/src/misc/lv_color.h **** # define LV_COLOR_GET_B1(c) (c).ch.blue
 112:lvgl/src/misc/lv_color.h **** # define LV_COLOR_GET_A1(c) 0xFF
 113:lvgl/src/misc/lv_color.h **** 
 114:lvgl/src/misc/lv_color.h **** # define _LV_COLOR_ZERO_INITIALIZER1 {0x00}
 115:lvgl/src/misc/lv_color.h **** # define LV_COLOR_MAKE1(r8, g8, b8)  {(uint8_t)((b8 >> 7) | (g8 >> 7) | (r8 >> 7))}
 116:lvgl/src/misc/lv_color.h **** 
 117:lvgl/src/misc/lv_color.h **** # define LV_COLOR_SET_R8(c, v) (c).ch.red = (uint8_t)((v) & 0x7U)
 118:lvgl/src/misc/lv_color.h **** # define LV_COLOR_SET_G8(c, v) (c).ch.green = (uint8_t)((v) & 0x7U)
 119:lvgl/src/misc/lv_color.h **** # define LV_COLOR_SET_B8(c, v) (c).ch.blue = (uint8_t)((v) & 0x3U)
 120:lvgl/src/misc/lv_color.h **** # define LV_COLOR_SET_A8(c, v) do {} while(0)
 121:lvgl/src/misc/lv_color.h **** 
 122:lvgl/src/misc/lv_color.h **** # define LV_COLOR_GET_R8(c) (c).ch.red
 123:lvgl/src/misc/lv_color.h **** # define LV_COLOR_GET_G8(c) (c).ch.green
 124:lvgl/src/misc/lv_color.h **** # define LV_COLOR_GET_B8(c) (c).ch.blue
 125:lvgl/src/misc/lv_color.h **** # define LV_COLOR_GET_A8(c) 0xFF
 126:lvgl/src/misc/lv_color.h **** 
 127:lvgl/src/misc/lv_color.h **** # define _LV_COLOR_ZERO_INITIALIZER8 {{0x00, 0x00, 0x00}}
 128:lvgl/src/misc/lv_color.h **** # define LV_COLOR_MAKE8(r8, g8, b8) {{(uint8_t)((b8 >> 6) & 0x3U), (uint8_t)((g8 >> 5) & 0x7U), (ui
 129:lvgl/src/misc/lv_color.h **** 
 130:lvgl/src/misc/lv_color.h **** # define LV_COLOR_SET_R16(c, v) (c).ch.red = (uint8_t)((v) & 0x1FU)
 131:lvgl/src/misc/lv_color.h **** #if LV_COLOR_16_SWAP == 0
 132:lvgl/src/misc/lv_color.h **** # define LV_COLOR_SET_G16(c, v) (c).ch.green = (uint8_t)((v) & 0x3FU)
 133:lvgl/src/misc/lv_color.h **** #else
 134:lvgl/src/misc/lv_color.h **** # define LV_COLOR_SET_G16(c, v) {(c).ch.green_h = (uint8_t)(((v) >> 3) & 0x7); (c).ch.green_l = (ui
 135:lvgl/src/misc/lv_color.h **** #endif
 136:lvgl/src/misc/lv_color.h **** # define LV_COLOR_SET_B16(c, v) (c).ch.blue = (uint8_t)((v) & 0x1FU)
 137:lvgl/src/misc/lv_color.h **** # define LV_COLOR_SET_A16(c, v) do {} while(0)
 138:lvgl/src/misc/lv_color.h **** 
 139:lvgl/src/misc/lv_color.h **** # define LV_COLOR_GET_R16(c) (c).ch.red
 140:lvgl/src/misc/lv_color.h **** #if LV_COLOR_16_SWAP == 0
 141:lvgl/src/misc/lv_color.h **** # define LV_COLOR_GET_G16(c) (c).ch.green
 142:lvgl/src/misc/lv_color.h **** #else
 143:lvgl/src/misc/lv_color.h **** # define LV_COLOR_GET_G16(c) (((c).ch.green_h << 3) + (c).ch.green_l)
 144:lvgl/src/misc/lv_color.h **** #endif
 145:lvgl/src/misc/lv_color.h **** # define LV_COLOR_GET_B16(c) (c).ch.blue
 146:lvgl/src/misc/lv_color.h **** # define LV_COLOR_GET_A16(c) 0xFF
 147:lvgl/src/misc/lv_color.h **** 
 148:lvgl/src/misc/lv_color.h **** #if LV_COLOR_16_SWAP == 0
 149:lvgl/src/misc/lv_color.h **** # define _LV_COLOR_ZERO_INITIALIZER16  {{0x00, 0x00, 0x00}}
 150:lvgl/src/misc/lv_color.h **** # define LV_COLOR_MAKE16(r8, g8, b8) {{(uint8_t)((b8 >> 3) & 0x1FU), (uint8_t)((g8 >> 2) & 0x3FU), 
 151:lvgl/src/misc/lv_color.h **** #else
 152:lvgl/src/misc/lv_color.h **** # define _LV_COLOR_ZERO_INITIALIZER16 {{0x00, 0x00, 0x00, 0x00}}
 153:lvgl/src/misc/lv_color.h **** # define LV_COLOR_MAKE16(r8, g8, b8) {{(uint8_t)((g8 >> 5) & 0x7U), (uint8_t)((r8 >> 3) & 0x1FU), (
 154:lvgl/src/misc/lv_color.h **** #endif
 155:lvgl/src/misc/lv_color.h **** 
 156:lvgl/src/misc/lv_color.h **** # define LV_COLOR_SET_R32(c, v) (c).ch.red = (uint8_t)((v) & 0xFF)
 157:lvgl/src/misc/lv_color.h **** # define LV_COLOR_SET_G32(c, v) (c).ch.green = (uint8_t)((v) & 0xFF)
ARM GAS  C:\Users\OSD\AppData\Local\Temp\ccCs5vco.s 			page 9


 158:lvgl/src/misc/lv_color.h **** # define LV_COLOR_SET_B32(c, v) (c).ch.blue = (uint8_t)((v) & 0xFF)
 159:lvgl/src/misc/lv_color.h **** # define LV_COLOR_SET_A32(c, v) (c).ch.alpha = (uint8_t)((v) & 0xFF)
 160:lvgl/src/misc/lv_color.h **** 
 161:lvgl/src/misc/lv_color.h **** # define LV_COLOR_GET_R32(c) (c).ch.red
 162:lvgl/src/misc/lv_color.h **** # define LV_COLOR_GET_G32(c) (c).ch.green
 163:lvgl/src/misc/lv_color.h **** # define LV_COLOR_GET_B32(c) (c).ch.blue
 164:lvgl/src/misc/lv_color.h **** # define LV_COLOR_GET_A32(c) (c).ch.alpha
 165:lvgl/src/misc/lv_color.h **** 
 166:lvgl/src/misc/lv_color.h **** # define _LV_COLOR_ZERO_INITIALIZER32  {{0x00, 0x00, 0x00, 0x00}}
 167:lvgl/src/misc/lv_color.h **** # define LV_COLOR_MAKE32(r8, g8, b8) {{b8, g8, r8, 0xff}} /*Fix 0xff alpha*/
 168:lvgl/src/misc/lv_color.h **** 
 169:lvgl/src/misc/lv_color.h **** /*---------------------------------------
 170:lvgl/src/misc/lv_color.h ****  * Macros for the current color depth
 171:lvgl/src/misc/lv_color.h ****  * to set/get values of the color channels
 172:lvgl/src/misc/lv_color.h ****  *------------------------------------------*/
 173:lvgl/src/misc/lv_color.h **** #define LV_COLOR_SET_R(c, v) LV_CONCAT(LV_COLOR_SET_R, LV_COLOR_DEPTH)(c, v)
 174:lvgl/src/misc/lv_color.h **** #define LV_COLOR_SET_G(c, v) LV_CONCAT(LV_COLOR_SET_G, LV_COLOR_DEPTH)(c, v)
 175:lvgl/src/misc/lv_color.h **** #define LV_COLOR_SET_B(c, v) LV_CONCAT(LV_COLOR_SET_B, LV_COLOR_DEPTH)(c, v)
 176:lvgl/src/misc/lv_color.h **** #define LV_COLOR_SET_A(c, v) LV_CONCAT(LV_COLOR_SET_A, LV_COLOR_DEPTH)(c, v)
 177:lvgl/src/misc/lv_color.h **** 
 178:lvgl/src/misc/lv_color.h **** #define LV_COLOR_GET_R(c) LV_CONCAT(LV_COLOR_GET_R, LV_COLOR_DEPTH)(c)
 179:lvgl/src/misc/lv_color.h **** #define LV_COLOR_GET_G(c) LV_CONCAT(LV_COLOR_GET_G, LV_COLOR_DEPTH)(c)
 180:lvgl/src/misc/lv_color.h **** #define LV_COLOR_GET_B(c) LV_CONCAT(LV_COLOR_GET_B, LV_COLOR_DEPTH)(c)
 181:lvgl/src/misc/lv_color.h **** #define LV_COLOR_GET_A(c) LV_CONCAT(LV_COLOR_GET_A, LV_COLOR_DEPTH)(c)
 182:lvgl/src/misc/lv_color.h **** 
 183:lvgl/src/misc/lv_color.h **** #define _LV_COLOR_ZERO_INITIALIZER LV_CONCAT(_LV_COLOR_ZERO_INITIALIZER, LV_COLOR_DEPTH)
 184:lvgl/src/misc/lv_color.h **** #define LV_COLOR_MAKE(r8, g8, b8) LV_CONCAT(LV_COLOR_MAKE, LV_COLOR_DEPTH)(r8, g8, b8)
 185:lvgl/src/misc/lv_color.h **** 
 186:lvgl/src/misc/lv_color.h **** /**********************
 187:lvgl/src/misc/lv_color.h ****  *      TYPEDEFS
 188:lvgl/src/misc/lv_color.h ****  **********************/
 189:lvgl/src/misc/lv_color.h **** 
 190:lvgl/src/misc/lv_color.h **** typedef union {
 191:lvgl/src/misc/lv_color.h ****     uint8_t full; /*must be declared first to set all bits of byte via initializer list*/
 192:lvgl/src/misc/lv_color.h ****     union {
 193:lvgl/src/misc/lv_color.h ****         uint8_t blue : 1;
 194:lvgl/src/misc/lv_color.h ****         uint8_t green : 1;
 195:lvgl/src/misc/lv_color.h ****         uint8_t red : 1;
 196:lvgl/src/misc/lv_color.h ****     } ch;
 197:lvgl/src/misc/lv_color.h **** } lv_color1_t;
 198:lvgl/src/misc/lv_color.h **** 
 199:lvgl/src/misc/lv_color.h **** typedef union {
 200:lvgl/src/misc/lv_color.h ****     struct {
 201:lvgl/src/misc/lv_color.h ****         uint8_t blue : 2;
 202:lvgl/src/misc/lv_color.h ****         uint8_t green : 3;
 203:lvgl/src/misc/lv_color.h ****         uint8_t red : 3;
 204:lvgl/src/misc/lv_color.h ****     } ch;
 205:lvgl/src/misc/lv_color.h ****     uint8_t full;
 206:lvgl/src/misc/lv_color.h **** } lv_color8_t;
 207:lvgl/src/misc/lv_color.h **** 
 208:lvgl/src/misc/lv_color.h **** typedef union {
 209:lvgl/src/misc/lv_color.h ****     struct {
 210:lvgl/src/misc/lv_color.h **** #if LV_COLOR_16_SWAP == 0
 211:lvgl/src/misc/lv_color.h ****         uint16_t blue : 5;
 212:lvgl/src/misc/lv_color.h ****         uint16_t green : 6;
 213:lvgl/src/misc/lv_color.h ****         uint16_t red : 5;
 214:lvgl/src/misc/lv_color.h **** #else
ARM GAS  C:\Users\OSD\AppData\Local\Temp\ccCs5vco.s 			page 10


 215:lvgl/src/misc/lv_color.h ****         uint16_t green_h : 3;
 216:lvgl/src/misc/lv_color.h ****         uint16_t red : 5;
 217:lvgl/src/misc/lv_color.h ****         uint16_t blue : 5;
 218:lvgl/src/misc/lv_color.h ****         uint16_t green_l : 3;
 219:lvgl/src/misc/lv_color.h **** #endif
 220:lvgl/src/misc/lv_color.h ****     } ch;
 221:lvgl/src/misc/lv_color.h ****     uint16_t full;
 222:lvgl/src/misc/lv_color.h **** } lv_color16_t;
 223:lvgl/src/misc/lv_color.h **** 
 224:lvgl/src/misc/lv_color.h **** typedef union {
 225:lvgl/src/misc/lv_color.h ****     struct {
 226:lvgl/src/misc/lv_color.h ****         uint8_t blue;
 227:lvgl/src/misc/lv_color.h ****         uint8_t green;
 228:lvgl/src/misc/lv_color.h ****         uint8_t red;
 229:lvgl/src/misc/lv_color.h ****         uint8_t alpha;
 230:lvgl/src/misc/lv_color.h ****     } ch;
 231:lvgl/src/misc/lv_color.h ****     uint32_t full;
 232:lvgl/src/misc/lv_color.h **** } lv_color32_t;
 233:lvgl/src/misc/lv_color.h **** 
 234:lvgl/src/misc/lv_color.h **** typedef LV_CONCAT3(uint, LV_COLOR_SIZE, _t) lv_color_int_t;
 235:lvgl/src/misc/lv_color.h **** typedef LV_CONCAT3(lv_color, LV_COLOR_DEPTH, _t) lv_color_t;
 236:lvgl/src/misc/lv_color.h **** 
 237:lvgl/src/misc/lv_color.h **** typedef struct {
 238:lvgl/src/misc/lv_color.h ****     uint16_t h;
 239:lvgl/src/misc/lv_color.h ****     uint8_t s;
 240:lvgl/src/misc/lv_color.h ****     uint8_t v;
 241:lvgl/src/misc/lv_color.h **** } lv_color_hsv_t;
 242:lvgl/src/misc/lv_color.h **** 
 243:lvgl/src/misc/lv_color.h **** //! @cond Doxygen_Suppress
 244:lvgl/src/misc/lv_color.h **** /*No idea where the guard is required but else throws warnings in the docs*/
 245:lvgl/src/misc/lv_color.h **** typedef uint8_t lv_opa_t;
 246:lvgl/src/misc/lv_color.h **** //! @endcond
 247:lvgl/src/misc/lv_color.h **** 
 248:lvgl/src/misc/lv_color.h **** struct _lv_color_filter_dsc_t;
 249:lvgl/src/misc/lv_color.h **** 
 250:lvgl/src/misc/lv_color.h **** typedef lv_color_t (*lv_color_filter_cb_t)(const struct _lv_color_filter_dsc_t *, lv_color_t, lv_op
 251:lvgl/src/misc/lv_color.h **** 
 252:lvgl/src/misc/lv_color.h **** typedef struct _lv_color_filter_dsc_t {
 253:lvgl/src/misc/lv_color.h ****     lv_color_filter_cb_t filter_cb;
 254:lvgl/src/misc/lv_color.h ****     void * user_data;
 255:lvgl/src/misc/lv_color.h **** } lv_color_filter_dsc_t;
 256:lvgl/src/misc/lv_color.h **** 
 257:lvgl/src/misc/lv_color.h **** typedef enum {
 258:lvgl/src/misc/lv_color.h ****     LV_PALETTE_RED,
 259:lvgl/src/misc/lv_color.h ****     LV_PALETTE_PINK,
 260:lvgl/src/misc/lv_color.h ****     LV_PALETTE_PURPLE,
 261:lvgl/src/misc/lv_color.h ****     LV_PALETTE_DEEP_PURPLE,
 262:lvgl/src/misc/lv_color.h ****     LV_PALETTE_INDIGO,
 263:lvgl/src/misc/lv_color.h ****     LV_PALETTE_BLUE,
 264:lvgl/src/misc/lv_color.h ****     LV_PALETTE_LIGHT_BLUE,
 265:lvgl/src/misc/lv_color.h ****     LV_PALETTE_CYAN,
 266:lvgl/src/misc/lv_color.h ****     LV_PALETTE_TEAL,
 267:lvgl/src/misc/lv_color.h ****     LV_PALETTE_GREEN,
 268:lvgl/src/misc/lv_color.h ****     LV_PALETTE_LIGHT_GREEN,
 269:lvgl/src/misc/lv_color.h ****     LV_PALETTE_LIME,
 270:lvgl/src/misc/lv_color.h ****     LV_PALETTE_YELLOW,
 271:lvgl/src/misc/lv_color.h ****     LV_PALETTE_AMBER,
ARM GAS  C:\Users\OSD\AppData\Local\Temp\ccCs5vco.s 			page 11


 272:lvgl/src/misc/lv_color.h ****     LV_PALETTE_ORANGE,
 273:lvgl/src/misc/lv_color.h ****     LV_PALETTE_DEEP_ORANGE,
 274:lvgl/src/misc/lv_color.h ****     LV_PALETTE_BROWN,
 275:lvgl/src/misc/lv_color.h ****     LV_PALETTE_BLUE_GREY,
 276:lvgl/src/misc/lv_color.h ****     LV_PALETTE_GREY,
 277:lvgl/src/misc/lv_color.h ****     _LV_PALETTE_LAST,
 278:lvgl/src/misc/lv_color.h ****     LV_PALETTE_NONE = 0xff,
 279:lvgl/src/misc/lv_color.h **** } lv_palette_t;
 280:lvgl/src/misc/lv_color.h **** 
 281:lvgl/src/misc/lv_color.h **** /**********************
 282:lvgl/src/misc/lv_color.h ****  * GLOBAL PROTOTYPES
 283:lvgl/src/misc/lv_color.h ****  **********************/
 284:lvgl/src/misc/lv_color.h **** 
 285:lvgl/src/misc/lv_color.h **** /*In color conversations:
 286:lvgl/src/misc/lv_color.h ****  * - When converting to bigger color type the LSB weight of 1 LSB is calculated
 287:lvgl/src/misc/lv_color.h ****  *   E.g. 16 bit Red has 5 bits
 288:lvgl/src/misc/lv_color.h ****  *         8 bit Red has 3 bits
 289:lvgl/src/misc/lv_color.h ****  *        ----------------------
 290:lvgl/src/misc/lv_color.h ****  *        8 bit red LSB = (2^5 - 1) / (2^3 - 1) = 31 / 7 = 4
 291:lvgl/src/misc/lv_color.h ****  *
 292:lvgl/src/misc/lv_color.h ****  * - When calculating to smaller color type simply shift out the LSBs
 293:lvgl/src/misc/lv_color.h ****  *   E.g.  8 bit Red has 3 bits
 294:lvgl/src/misc/lv_color.h ****  *        16 bit Red has 5 bits
 295:lvgl/src/misc/lv_color.h ****  *        ----------------------
 296:lvgl/src/misc/lv_color.h ****  *         Shift right with 5 - 3 = 2
 297:lvgl/src/misc/lv_color.h ****  */
 298:lvgl/src/misc/lv_color.h **** static inline uint8_t lv_color_to1(lv_color_t color)
 299:lvgl/src/misc/lv_color.h **** {
 300:lvgl/src/misc/lv_color.h **** #if LV_COLOR_DEPTH == 1
 301:lvgl/src/misc/lv_color.h ****     return color.full;
 302:lvgl/src/misc/lv_color.h **** #elif LV_COLOR_DEPTH == 8
 303:lvgl/src/misc/lv_color.h ****     if((LV_COLOR_GET_R(color) & 0x4) || (LV_COLOR_GET_G(color) & 0x4) || (LV_COLOR_GET_B(color) & 0
 304:lvgl/src/misc/lv_color.h ****         return 1;
 305:lvgl/src/misc/lv_color.h ****     }
 306:lvgl/src/misc/lv_color.h ****     else {
 307:lvgl/src/misc/lv_color.h ****         return 0;
 308:lvgl/src/misc/lv_color.h ****     }
 309:lvgl/src/misc/lv_color.h **** #elif LV_COLOR_DEPTH == 16
 310:lvgl/src/misc/lv_color.h ****     if((LV_COLOR_GET_R(color) & 0x10) || (LV_COLOR_GET_G(color) & 0x20) || (LV_COLOR_GET_B(color) &
 311:lvgl/src/misc/lv_color.h ****         return 1;
 312:lvgl/src/misc/lv_color.h ****     }
 313:lvgl/src/misc/lv_color.h ****     else {
 314:lvgl/src/misc/lv_color.h ****         return 0;
 315:lvgl/src/misc/lv_color.h ****     }
 316:lvgl/src/misc/lv_color.h **** #elif LV_COLOR_DEPTH == 32
 317:lvgl/src/misc/lv_color.h ****     if((LV_COLOR_GET_R(color) & 0x80) || (LV_COLOR_GET_G(color) & 0x80) || (LV_COLOR_GET_B(color) &
 318:lvgl/src/misc/lv_color.h ****         return 1;
 319:lvgl/src/misc/lv_color.h ****     }
 320:lvgl/src/misc/lv_color.h ****     else {
 321:lvgl/src/misc/lv_color.h ****         return 0;
 322:lvgl/src/misc/lv_color.h ****     }
 323:lvgl/src/misc/lv_color.h **** #endif
 324:lvgl/src/misc/lv_color.h **** }
 325:lvgl/src/misc/lv_color.h **** 
 326:lvgl/src/misc/lv_color.h **** static inline uint8_t lv_color_to8(lv_color_t color)
 327:lvgl/src/misc/lv_color.h **** {
 328:lvgl/src/misc/lv_color.h **** #if LV_COLOR_DEPTH == 1
ARM GAS  C:\Users\OSD\AppData\Local\Temp\ccCs5vco.s 			page 12


 329:lvgl/src/misc/lv_color.h ****     if(color.full == 0)
 330:lvgl/src/misc/lv_color.h ****         return 0;
 331:lvgl/src/misc/lv_color.h ****     else
 332:lvgl/src/misc/lv_color.h ****         return 0xFF;
 333:lvgl/src/misc/lv_color.h **** #elif LV_COLOR_DEPTH == 8
 334:lvgl/src/misc/lv_color.h ****     return color.full;
 335:lvgl/src/misc/lv_color.h **** #elif LV_COLOR_DEPTH == 16
 336:lvgl/src/misc/lv_color.h ****     lv_color8_t ret;
 337:lvgl/src/misc/lv_color.h ****     LV_COLOR_SET_R8(ret, LV_COLOR_GET_R(color) >> 2); /*5 - 3  = 2*/
 338:lvgl/src/misc/lv_color.h ****     LV_COLOR_SET_G8(ret, LV_COLOR_GET_G(color) >> 3); /*6 - 3  = 3*/
 339:lvgl/src/misc/lv_color.h ****     LV_COLOR_SET_B8(ret, LV_COLOR_GET_B(color) >> 3); /*5 - 2  = 3*/
 340:lvgl/src/misc/lv_color.h ****     return ret.full;
 341:lvgl/src/misc/lv_color.h **** #elif LV_COLOR_DEPTH == 32
 342:lvgl/src/misc/lv_color.h ****     lv_color8_t ret;
 343:lvgl/src/misc/lv_color.h ****     LV_COLOR_SET_R8(ret, LV_COLOR_GET_R(color) >> 5); /*8 - 3  = 5*/
 344:lvgl/src/misc/lv_color.h ****     LV_COLOR_SET_G8(ret, LV_COLOR_GET_G(color) >> 5); /*8 - 3  = 5*/
 345:lvgl/src/misc/lv_color.h ****     LV_COLOR_SET_B8(ret, LV_COLOR_GET_B(color) >> 6); /*8 - 2  = 6*/
 346:lvgl/src/misc/lv_color.h ****     return ret.full;
 347:lvgl/src/misc/lv_color.h **** #endif
 348:lvgl/src/misc/lv_color.h **** }
 349:lvgl/src/misc/lv_color.h **** 
 350:lvgl/src/misc/lv_color.h **** static inline uint16_t lv_color_to16(lv_color_t color)
 351:lvgl/src/misc/lv_color.h **** {
 352:lvgl/src/misc/lv_color.h **** #if LV_COLOR_DEPTH == 1
 353:lvgl/src/misc/lv_color.h ****     if(color.full == 0)
 354:lvgl/src/misc/lv_color.h ****         return 0;
 355:lvgl/src/misc/lv_color.h ****     else
 356:lvgl/src/misc/lv_color.h ****         return 0xFFFF;
 357:lvgl/src/misc/lv_color.h **** #elif LV_COLOR_DEPTH == 8
 358:lvgl/src/misc/lv_color.h ****     lv_color16_t ret;
 359:lvgl/src/misc/lv_color.h ****     LV_COLOR_SET_R16(ret, LV_COLOR_GET_R(color) * 4);  /*(2^5 - 1)/(2^3 - 1) = 31/7 = 4*/
 360:lvgl/src/misc/lv_color.h ****     LV_COLOR_SET_G16(ret, LV_COLOR_GET_G(color) * 9);  /*(2^6 - 1)/(2^3 - 1) = 63/7 = 9*/
 361:lvgl/src/misc/lv_color.h ****     LV_COLOR_SET_B16(ret, LV_COLOR_GET_B(color) * 10); /*(2^5 - 1)/(2^2 - 1) = 31/3 = 10*/
 362:lvgl/src/misc/lv_color.h ****     return ret.full;
 363:lvgl/src/misc/lv_color.h **** #elif LV_COLOR_DEPTH == 16
 364:lvgl/src/misc/lv_color.h ****     return color.full;
 365:lvgl/src/misc/lv_color.h **** #elif LV_COLOR_DEPTH == 32
 366:lvgl/src/misc/lv_color.h ****     lv_color16_t ret;
 367:lvgl/src/misc/lv_color.h ****     LV_COLOR_SET_R16(ret, LV_COLOR_GET_R(color) >> 3); /*8 - 5  = 3*/
 368:lvgl/src/misc/lv_color.h ****     LV_COLOR_SET_G16(ret, LV_COLOR_GET_G(color) >> 2); /*8 - 6  = 2*/
 369:lvgl/src/misc/lv_color.h ****     LV_COLOR_SET_B16(ret, LV_COLOR_GET_B(color) >> 3); /*8 - 5  = 3*/
 370:lvgl/src/misc/lv_color.h ****     return ret.full;
 371:lvgl/src/misc/lv_color.h **** #endif
 372:lvgl/src/misc/lv_color.h **** }
 373:lvgl/src/misc/lv_color.h **** 
 374:lvgl/src/misc/lv_color.h **** static inline uint32_t lv_color_to32(lv_color_t color)
 375:lvgl/src/misc/lv_color.h **** {
 376:lvgl/src/misc/lv_color.h **** #if LV_COLOR_DEPTH == 1
 377:lvgl/src/misc/lv_color.h ****     if(color.full == 0)
 378:lvgl/src/misc/lv_color.h ****         return 0xFF000000;
 379:lvgl/src/misc/lv_color.h ****     else
 380:lvgl/src/misc/lv_color.h ****         return 0xFFFFFFFF;
 381:lvgl/src/misc/lv_color.h **** #elif LV_COLOR_DEPTH == 8
 382:lvgl/src/misc/lv_color.h ****     lv_color32_t ret;
 383:lvgl/src/misc/lv_color.h ****     LV_COLOR_SET_R32(ret, LV_COLOR_GET_R(color) * 36); /*(2^8 - 1)/(2^3 - 1) = 255/7 = 36*/
 384:lvgl/src/misc/lv_color.h ****     LV_COLOR_SET_G32(ret, LV_COLOR_GET_G(color) * 36); /*(2^8 - 1)/(2^3 - 1) = 255/7 = 36*/
 385:lvgl/src/misc/lv_color.h ****     LV_COLOR_SET_B32(ret, LV_COLOR_GET_B(color) * 85); /*(2^8 - 1)/(2^2 - 1) = 255/3 = 85*/
ARM GAS  C:\Users\OSD\AppData\Local\Temp\ccCs5vco.s 			page 13


 386:lvgl/src/misc/lv_color.h ****     LV_COLOR_SET_A32(ret, 0xFF);
 387:lvgl/src/misc/lv_color.h ****     return ret.full;
 388:lvgl/src/misc/lv_color.h **** #elif LV_COLOR_DEPTH == 16
 389:lvgl/src/misc/lv_color.h ****     /**
 390:lvgl/src/misc/lv_color.h ****      * The floating point math for conversion is:
 391:lvgl/src/misc/lv_color.h ****      *  valueto = valuefrom * ( (2^bitsto - 1) / (float)(2^bitsfrom - 1) )
 392:lvgl/src/misc/lv_color.h ****      * The faster integer math for conversion is:
 393:lvgl/src/misc/lv_color.h ****      *  valueto = ( valuefrom * multiplier + adder ) >> divisor
 394:lvgl/src/misc/lv_color.h ****      *   multiplier = FLOOR( ( (2^bitsto - 1) << divisor ) / (float)(2^bitsfrom - 1) )
 395:lvgl/src/misc/lv_color.h ****      *
 396:lvgl/src/misc/lv_color.h ****      * Find the first divisor where ( adder >> divisor ) <= 0
 397:lvgl/src/misc/lv_color.h ****      *
 398:lvgl/src/misc/lv_color.h ****      * 5-bit to 8-bit: ( 31 * multiplier + adder ) >> divisor = 255
 399:lvgl/src/misc/lv_color.h ****      * divisor  multiplier  adder  min (0)  max (31)
 400:lvgl/src/misc/lv_color.h ****      *       0           8      7        7       255
 401:lvgl/src/misc/lv_color.h ****      *       1          16     14        7       255
 402:lvgl/src/misc/lv_color.h ****      *       2          32     28        7       255
 403:lvgl/src/misc/lv_color.h ****      *       3          65     25        3       255
 404:lvgl/src/misc/lv_color.h ****      *       4         131     19        1       255
 405:lvgl/src/misc/lv_color.h ****      *       5         263      7        0       255
 406:lvgl/src/misc/lv_color.h ****      *
 407:lvgl/src/misc/lv_color.h ****      * 6-bit to 8-bit: 255 = ( 63 * multiplier + adder ) >> divisor
 408:lvgl/src/misc/lv_color.h ****      * divisor  multiplier  adder  min (0)  max (63)
 409:lvgl/src/misc/lv_color.h ****      *       0           4      3        3       255
 410:lvgl/src/misc/lv_color.h ****      *       1           8      6        3       255
 411:lvgl/src/misc/lv_color.h ****      *       2          16     12        3       255
 412:lvgl/src/misc/lv_color.h ****      *       3          32     24        3       255
 413:lvgl/src/misc/lv_color.h ****      *       4          64     48        3       255
 414:lvgl/src/misc/lv_color.h ****      *       5         129     33        1       255
 415:lvgl/src/misc/lv_color.h ****      *       6         259      3        0       255
 416:lvgl/src/misc/lv_color.h ****      */
 417:lvgl/src/misc/lv_color.h **** 
 418:lvgl/src/misc/lv_color.h ****     lv_color32_t ret;
 419:lvgl/src/misc/lv_color.h ****     LV_COLOR_SET_R32(ret, (LV_COLOR_GET_R(color) * 263 + 7) >> 5);
 420:lvgl/src/misc/lv_color.h ****     LV_COLOR_SET_G32(ret, (LV_COLOR_GET_G(color) * 259 + 3) >> 6);
 421:lvgl/src/misc/lv_color.h ****     LV_COLOR_SET_B32(ret, (LV_COLOR_GET_B(color) * 263 + 7) >> 5);
 422:lvgl/src/misc/lv_color.h ****     LV_COLOR_SET_A32(ret, 0xFF);
 423:lvgl/src/misc/lv_color.h ****     return ret.full;
 424:lvgl/src/misc/lv_color.h **** #elif LV_COLOR_DEPTH == 32
 425:lvgl/src/misc/lv_color.h ****     return color.full;
 426:lvgl/src/misc/lv_color.h **** #endif
 427:lvgl/src/misc/lv_color.h **** }
 428:lvgl/src/misc/lv_color.h **** 
 429:lvgl/src/misc/lv_color.h **** //! @cond Doxygen_Suppress
 430:lvgl/src/misc/lv_color.h **** 
 431:lvgl/src/misc/lv_color.h **** /**
 432:lvgl/src/misc/lv_color.h ****  * Mix two colors with a given ratio.
 433:lvgl/src/misc/lv_color.h ****  * @param c1 the first color to mix (usually the foreground)
 434:lvgl/src/misc/lv_color.h ****  * @param c2 the second color to mix (usually the background)
 435:lvgl/src/misc/lv_color.h ****  * @param mix The ratio of the colors. 0: full `c2`, 255: full `c1`, 127: half `c1` and half`c2`
 436:lvgl/src/misc/lv_color.h ****  * @return the mixed color
 437:lvgl/src/misc/lv_color.h ****  */
 438:lvgl/src/misc/lv_color.h **** static inline lv_color_t LV_ATTRIBUTE_FAST_MEM lv_color_mix(lv_color_t c1, lv_color_t c2, uint8_t m
 439:lvgl/src/misc/lv_color.h **** {
 440:lvgl/src/misc/lv_color.h ****     lv_color_t ret;
 441:lvgl/src/misc/lv_color.h **** 
 442:lvgl/src/misc/lv_color.h **** #if LV_COLOR_DEPTH == 16 && LV_COLOR_MIX_ROUND_OFS == 0
ARM GAS  C:\Users\OSD\AppData\Local\Temp\ccCs5vco.s 			page 14


 443:lvgl/src/misc/lv_color.h **** #if LV_COLOR_16_SWAP == 1
 444:lvgl/src/misc/lv_color.h ****     c1.full = c1.full << 8 | c1.full >> 8;
 445:lvgl/src/misc/lv_color.h ****     c2.full = c2.full << 8 | c2.full >> 8;
 446:lvgl/src/misc/lv_color.h **** #endif
 447:lvgl/src/misc/lv_color.h ****     /*Source: https://stackoverflow.com/a/50012418/1999969*/
 448:lvgl/src/misc/lv_color.h ****     mix = (uint32_t)((uint32_t)mix + 4) >> 3;
 449:lvgl/src/misc/lv_color.h ****     uint32_t bg = (uint32_t)((uint32_t)c2.full | ((uint32_t)c2.full << 16)) &
 450:lvgl/src/misc/lv_color.h ****                   0x7E0F81F; /*0b00000111111000001111100000011111*/
 451:lvgl/src/misc/lv_color.h ****     uint32_t fg = (uint32_t)((uint32_t)c1.full | ((uint32_t)c1.full << 16)) & 0x7E0F81F;
 452:lvgl/src/misc/lv_color.h ****     uint32_t result = ((((fg - bg) * mix) >> 5) + bg) & 0x7E0F81F;
 453:lvgl/src/misc/lv_color.h ****     ret.full = (uint16_t)((result >> 16) | result);
 454:lvgl/src/misc/lv_color.h **** #if LV_COLOR_16_SWAP == 1
 455:lvgl/src/misc/lv_color.h ****     ret.full = ret.full << 8 | ret.full >> 8;
 456:lvgl/src/misc/lv_color.h **** #endif
 457:lvgl/src/misc/lv_color.h **** #elif LV_COLOR_DEPTH != 1
 458:lvgl/src/misc/lv_color.h ****     /*LV_COLOR_DEPTH == 8, 16 or 32*/
 459:lvgl/src/misc/lv_color.h ****     LV_COLOR_SET_R(ret, LV_UDIV255((uint16_t)LV_COLOR_GET_R(c1) * mix + LV_COLOR_GET_R(c2) *
 460:lvgl/src/misc/lv_color.h ****                                    (255 - mix) + LV_COLOR_MIX_ROUND_OFS));
 461:lvgl/src/misc/lv_color.h ****     LV_COLOR_SET_G(ret, LV_UDIV255((uint16_t)LV_COLOR_GET_G(c1) * mix + LV_COLOR_GET_G(c2) *
 462:lvgl/src/misc/lv_color.h ****                                    (255 - mix) + LV_COLOR_MIX_ROUND_OFS));
 463:lvgl/src/misc/lv_color.h ****     LV_COLOR_SET_B(ret, LV_UDIV255((uint16_t)LV_COLOR_GET_B(c1) * mix + LV_COLOR_GET_B(c2) *
 464:lvgl/src/misc/lv_color.h ****                                    (255 - mix) + LV_COLOR_MIX_ROUND_OFS));
 465:lvgl/src/misc/lv_color.h ****     LV_COLOR_SET_A(ret, 0xFF);
 466:lvgl/src/misc/lv_color.h **** #else
 467:lvgl/src/misc/lv_color.h ****     /*LV_COLOR_DEPTH == 1*/
 468:lvgl/src/misc/lv_color.h ****     ret.full = mix > LV_OPA_50 ? c1.full : c2.full;
 469:lvgl/src/misc/lv_color.h **** #endif
 470:lvgl/src/misc/lv_color.h **** 
 471:lvgl/src/misc/lv_color.h ****     return ret;
 472:lvgl/src/misc/lv_color.h **** }
 473:lvgl/src/misc/lv_color.h **** 
 474:lvgl/src/misc/lv_color.h **** static inline void LV_ATTRIBUTE_FAST_MEM lv_color_premult(lv_color_t c, uint8_t mix, uint16_t * out
 475:lvgl/src/misc/lv_color.h **** {
 476:lvgl/src/misc/lv_color.h **** #if LV_COLOR_DEPTH != 1
 477:lvgl/src/misc/lv_color.h ****     out[0] = (uint16_t)LV_COLOR_GET_R(c) * mix;
 478:lvgl/src/misc/lv_color.h ****     out[1] = (uint16_t)LV_COLOR_GET_G(c) * mix;
 479:lvgl/src/misc/lv_color.h ****     out[2] = (uint16_t)LV_COLOR_GET_B(c) * mix;
 480:lvgl/src/misc/lv_color.h **** #else
 481:lvgl/src/misc/lv_color.h ****     (void) mix;
 482:lvgl/src/misc/lv_color.h ****     /*Pre-multiplication can't be used with 1 bpp*/
 483:lvgl/src/misc/lv_color.h ****     out[0] = LV_COLOR_GET_R(c);
 484:lvgl/src/misc/lv_color.h ****     out[1] = LV_COLOR_GET_G(c);
 485:lvgl/src/misc/lv_color.h ****     out[2] = LV_COLOR_GET_B(c);
 486:lvgl/src/misc/lv_color.h **** #endif
 487:lvgl/src/misc/lv_color.h **** 
 488:lvgl/src/misc/lv_color.h **** }
 489:lvgl/src/misc/lv_color.h **** 
 490:lvgl/src/misc/lv_color.h **** /**
 491:lvgl/src/misc/lv_color.h ****  * Mix two colors with a given ratio. It runs faster then `lv_color_mix` but requires some pre comp
 492:lvgl/src/misc/lv_color.h ****  * @param premult_c1 The first color. Should be preprocessed with `lv_color_premult(c1)`
 493:lvgl/src/misc/lv_color.h ****  * @param c2 The second color. As it is no pre computation required on it
 494:lvgl/src/misc/lv_color.h ****  * @param mix The ratio of the colors. 0: full `c1`, 255: full `c2`, 127: half `c1` and half `c2`.
 495:lvgl/src/misc/lv_color.h ****  *            Should be modified like mix = `255 - mix`
 496:lvgl/src/misc/lv_color.h ****  * @return the mixed color
 497:lvgl/src/misc/lv_color.h ****  * @note 255 won't give clearly `c1`.
 498:lvgl/src/misc/lv_color.h ****  */
 499:lvgl/src/misc/lv_color.h **** static inline lv_color_t LV_ATTRIBUTE_FAST_MEM lv_color_mix_premult(uint16_t * premult_c1, lv_color
ARM GAS  C:\Users\OSD\AppData\Local\Temp\ccCs5vco.s 			page 15


 500:lvgl/src/misc/lv_color.h **** {
 501:lvgl/src/misc/lv_color.h ****     lv_color_t ret;
 502:lvgl/src/misc/lv_color.h **** #if LV_COLOR_DEPTH != 1
 503:lvgl/src/misc/lv_color.h ****     /*LV_COLOR_DEPTH == 8 or 32*/
 504:lvgl/src/misc/lv_color.h ****     LV_COLOR_SET_R(ret, LV_UDIV255(premult_c1[0] + LV_COLOR_GET_R(c2) * mix + LV_COLOR_MIX_ROUND_OF
 505:lvgl/src/misc/lv_color.h ****     LV_COLOR_SET_G(ret, LV_UDIV255(premult_c1[1] + LV_COLOR_GET_G(c2) * mix + LV_COLOR_MIX_ROUND_OF
 506:lvgl/src/misc/lv_color.h ****     LV_COLOR_SET_B(ret, LV_UDIV255(premult_c1[2] + LV_COLOR_GET_B(c2) * mix + LV_COLOR_MIX_ROUND_OF
 507:lvgl/src/misc/lv_color.h ****     LV_COLOR_SET_A(ret, 0xFF);
 508:lvgl/src/misc/lv_color.h **** #else
 509:lvgl/src/misc/lv_color.h ****     /*LV_COLOR_DEPTH == 1*/
 510:lvgl/src/misc/lv_color.h ****     /*Restore color1*/
 511:lvgl/src/misc/lv_color.h ****     lv_color_t c1;
 512:lvgl/src/misc/lv_color.h ****     LV_COLOR_SET_R(c1, premult_c1[0]);
 513:lvgl/src/misc/lv_color.h ****     LV_COLOR_SET_G(c1, premult_c1[1]);
 514:lvgl/src/misc/lv_color.h ****     LV_COLOR_SET_B(c1, premult_c1[2]);
 515:lvgl/src/misc/lv_color.h ****     ret.full = mix > LV_OPA_50 ? c2.full : c1.full;
 516:lvgl/src/misc/lv_color.h **** #endif
 517:lvgl/src/misc/lv_color.h **** 
 518:lvgl/src/misc/lv_color.h ****     return ret;
 519:lvgl/src/misc/lv_color.h **** }
 520:lvgl/src/misc/lv_color.h **** 
 521:lvgl/src/misc/lv_color.h **** /**
 522:lvgl/src/misc/lv_color.h ****  * Mix two colors. Both color can have alpha value.
 523:lvgl/src/misc/lv_color.h ****  * @param bg_color background color
 524:lvgl/src/misc/lv_color.h ****  * @param bg_opa alpha of the background color
 525:lvgl/src/misc/lv_color.h ****  * @param fg_color foreground color
 526:lvgl/src/misc/lv_color.h ****  * @param fg_opa alpha of the foreground color
 527:lvgl/src/misc/lv_color.h ****  * @param res_color the result color
 528:lvgl/src/misc/lv_color.h ****  * @param res_opa the result opacity
 529:lvgl/src/misc/lv_color.h ****  */
 530:lvgl/src/misc/lv_color.h **** static inline void LV_ATTRIBUTE_FAST_MEM lv_color_mix_with_alpha(lv_color_t bg_color, lv_opa_t bg_o
 531:lvgl/src/misc/lv_color.h ****                                                                  lv_color_t fg_color, lv_opa_t fg_o
 532:lvgl/src/misc/lv_color.h ****                                                                  lv_color_t * res_color, lv_opa_t *
 533:lvgl/src/misc/lv_color.h **** {
 534:lvgl/src/misc/lv_color.h ****     /*Pick the foreground if it's fully opaque or the Background is fully transparent*/
 535:lvgl/src/misc/lv_color.h ****     if(fg_opa >= LV_OPA_MAX || bg_opa <= LV_OPA_MIN) {
 536:lvgl/src/misc/lv_color.h ****         res_color->full = fg_color.full;
 537:lvgl/src/misc/lv_color.h ****         *res_opa = fg_opa;
 538:lvgl/src/misc/lv_color.h ****     }
 539:lvgl/src/misc/lv_color.h ****     /*Transparent foreground: use the Background*/
 540:lvgl/src/misc/lv_color.h ****     else if(fg_opa <= LV_OPA_MIN) {
 541:lvgl/src/misc/lv_color.h ****         res_color->full = bg_color.full;
 542:lvgl/src/misc/lv_color.h ****         *res_opa = bg_opa;
 543:lvgl/src/misc/lv_color.h ****     }
 544:lvgl/src/misc/lv_color.h ****     /*Opaque background: use simple mix*/
 545:lvgl/src/misc/lv_color.h ****     else if(bg_opa >= LV_OPA_MAX) {
 546:lvgl/src/misc/lv_color.h ****         *res_color = lv_color_mix(fg_color, bg_color, fg_opa);
 547:lvgl/src/misc/lv_color.h ****         *res_opa = LV_OPA_COVER;
 548:lvgl/src/misc/lv_color.h ****     }
 549:lvgl/src/misc/lv_color.h ****     /*Both colors have alpha. Expensive calculation need to be applied*/
 550:lvgl/src/misc/lv_color.h ****     else {
 551:lvgl/src/misc/lv_color.h ****         /*Save the parameters and the result. If they will be asked again don't compute again*/
 552:lvgl/src/misc/lv_color.h ****         static lv_opa_t fg_opa_save     = 0;
 553:lvgl/src/misc/lv_color.h ****         static lv_opa_t bg_opa_save     = 0;
 554:lvgl/src/misc/lv_color.h ****         static lv_color_t fg_color_save = _LV_COLOR_ZERO_INITIALIZER;
 555:lvgl/src/misc/lv_color.h ****         static lv_color_t bg_color_save = _LV_COLOR_ZERO_INITIALIZER;
 556:lvgl/src/misc/lv_color.h ****         static lv_color_t res_color_saved = _LV_COLOR_ZERO_INITIALIZER;
ARM GAS  C:\Users\OSD\AppData\Local\Temp\ccCs5vco.s 			page 16


 557:lvgl/src/misc/lv_color.h ****         static lv_opa_t res_opa_saved = 0;
 558:lvgl/src/misc/lv_color.h **** 
 559:lvgl/src/misc/lv_color.h ****         if(fg_opa != fg_opa_save || bg_opa != bg_opa_save || fg_color.full != fg_color_save.full ||
 560:lvgl/src/misc/lv_color.h ****            bg_color.full != bg_color_save.full) {
 561:lvgl/src/misc/lv_color.h ****             fg_opa_save        = fg_opa;
 562:lvgl/src/misc/lv_color.h ****             bg_opa_save        = bg_opa;
 563:lvgl/src/misc/lv_color.h ****             fg_color_save.full = fg_color.full;
 564:lvgl/src/misc/lv_color.h ****             bg_color_save.full = bg_color.full;
 565:lvgl/src/misc/lv_color.h ****             /*Info:
 566:lvgl/src/misc/lv_color.h ****              * https://en.wikipedia.org/wiki/Alpha_compositing#Analytical_derivation_of_the_over_op
 567:lvgl/src/misc/lv_color.h ****             res_opa_saved = 255 - ((uint16_t)((uint16_t)(255 - fg_opa) * (255 - bg_opa)) >> 8);
 568:lvgl/src/misc/lv_color.h ****             LV_ASSERT(res_opa_saved != 0);
 569:lvgl/src/misc/lv_color.h ****             lv_opa_t ratio = (uint16_t)((uint16_t)fg_opa * 255) / res_opa_saved;
 570:lvgl/src/misc/lv_color.h ****             res_color_saved = lv_color_mix(fg_color, bg_color, ratio);
 571:lvgl/src/misc/lv_color.h **** 
 572:lvgl/src/misc/lv_color.h ****         }
 573:lvgl/src/misc/lv_color.h **** 
 574:lvgl/src/misc/lv_color.h ****         res_color->full = res_color_saved.full;
 575:lvgl/src/misc/lv_color.h ****         *res_opa = res_opa_saved;
 576:lvgl/src/misc/lv_color.h ****     }
 577:lvgl/src/misc/lv_color.h **** }
 578:lvgl/src/misc/lv_color.h **** 
 579:lvgl/src/misc/lv_color.h **** //! @endcond
 580:lvgl/src/misc/lv_color.h **** 
 581:lvgl/src/misc/lv_color.h **** /**
 582:lvgl/src/misc/lv_color.h ****  * Get the brightness of a color
 583:lvgl/src/misc/lv_color.h ****  * @param color a color
 584:lvgl/src/misc/lv_color.h ****  * @return the brightness [0..255]
 585:lvgl/src/misc/lv_color.h ****  */
 586:lvgl/src/misc/lv_color.h **** static inline uint8_t lv_color_brightness(lv_color_t color)
 587:lvgl/src/misc/lv_color.h **** {
 588:lvgl/src/misc/lv_color.h ****     lv_color32_t c32;
 589:lvgl/src/misc/lv_color.h ****     c32.full        = lv_color_to32(color);
 590:lvgl/src/misc/lv_color.h ****     uint16_t bright = (uint16_t)(3u * LV_COLOR_GET_R32(c32) + LV_COLOR_GET_B32(c32) + 4u * LV_COLOR
 591:lvgl/src/misc/lv_color.h ****     return (uint8_t)(bright >> 3);
 592:lvgl/src/misc/lv_color.h **** }
 593:lvgl/src/misc/lv_color.h **** 
 594:lvgl/src/misc/lv_color.h **** static inline lv_color_t lv_color_make(uint8_t r, uint8_t g, uint8_t b)
 595:lvgl/src/misc/lv_color.h **** {
 596:lvgl/src/misc/lv_color.h ****     return _LV_COLOR_MAKE_TYPE_HELPER LV_COLOR_MAKE(r, g, b);
 597:lvgl/src/misc/lv_color.h **** }
 598:lvgl/src/misc/lv_color.h **** 
 599:lvgl/src/misc/lv_color.h **** static inline lv_color_t lv_color_hex(uint32_t c)
 600:lvgl/src/misc/lv_color.h **** {
 601:lvgl/src/misc/lv_color.h **** #if LV_COLOR_DEPTH == 16
 602:lvgl/src/misc/lv_color.h ****     lv_color_t r;
 603:lvgl/src/misc/lv_color.h **** #if LV_COLOR_16_SWAP == 0
 604:lvgl/src/misc/lv_color.h ****     /* Convert a 4 bytes per pixel in format ARGB32 to R5G6B5 format
 605:lvgl/src/misc/lv_color.h ****         naive way (by calling lv_color_make with components):
 606:lvgl/src/misc/lv_color.h ****                     r = ((c & 0xFF0000) >> 19)
 607:lvgl/src/misc/lv_color.h ****                     g = ((c & 0xFF00) >> 10)
 608:lvgl/src/misc/lv_color.h ****                     b = ((c & 0xFF) >> 3)
 609:lvgl/src/misc/lv_color.h ****                     rgb565 = (r << 11) | (g << 5) | b
 610:lvgl/src/misc/lv_color.h ****         That's 3 mask, 5 bitshift and 2 or operations
 611:lvgl/src/misc/lv_color.h **** 
 612:lvgl/src/misc/lv_color.h ****         A bit better:
 613:lvgl/src/misc/lv_color.h ****                     r = ((c & 0xF80000) >> 8)
ARM GAS  C:\Users\OSD\AppData\Local\Temp\ccCs5vco.s 			page 17


 614:lvgl/src/misc/lv_color.h ****                     g = ((c & 0xFC00) >> 5)
 615:lvgl/src/misc/lv_color.h ****                     b = ((c & 0xFF) >> 3)
 616:lvgl/src/misc/lv_color.h ****                     rgb565 = r | g | b
 617:lvgl/src/misc/lv_color.h ****         That's 3 mask, 3 bitshifts and 2 or operations */
 618:lvgl/src/misc/lv_color.h ****     r.full = (uint16_t)(((c & 0xF80000) >> 8) | ((c & 0xFC00) >> 5) | ((c & 0xFF) >> 3));
 619:lvgl/src/misc/lv_color.h **** #else
 620:lvgl/src/misc/lv_color.h ****     /* We want: rrrr rrrr GGGg gggg bbbb bbbb => gggb bbbb rrrr rGGG */
 621:lvgl/src/misc/lv_color.h ****     r.full = (uint16_t)(((c & 0xF80000) >> 16) | ((c & 0xFC00) >> 13) | ((c & 0x1C00) << 3) | ((c &
 622:lvgl/src/misc/lv_color.h **** #endif
 623:lvgl/src/misc/lv_color.h ****     return r;
 624:lvgl/src/misc/lv_color.h **** #elif LV_COLOR_DEPTH == 32
 625:lvgl/src/misc/lv_color.h ****     lv_color_t r;
 626:lvgl/src/misc/lv_color.h ****     r.full = c | 0xFF000000;
 627:lvgl/src/misc/lv_color.h ****     return r;
 628:lvgl/src/misc/lv_color.h **** #else /*LV_COLOR_DEPTH == 8*/
 629:lvgl/src/misc/lv_color.h ****     return lv_color_make((uint8_t)((c >> 16) & 0xFF), (uint8_t)((c >> 8) & 0xFF), (uint8_t)(c & 0xF
 630:lvgl/src/misc/lv_color.h **** #endif
 631:lvgl/src/misc/lv_color.h **** }
 632:lvgl/src/misc/lv_color.h **** 
 633:lvgl/src/misc/lv_color.h **** static inline lv_color_t lv_color_hex3(uint32_t c)
 634:lvgl/src/misc/lv_color.h **** {
 635:lvgl/src/misc/lv_color.h ****     return lv_color_make((uint8_t)(((c >> 4) & 0xF0) | ((c >> 8) & 0xF)), (uint8_t)((c & 0xF0) | ((
 636:lvgl/src/misc/lv_color.h ****                          (uint8_t)((c & 0xF) | ((c & 0xF) << 4)));
 637:lvgl/src/misc/lv_color.h **** }
 638:lvgl/src/misc/lv_color.h **** 
 639:lvgl/src/misc/lv_color.h **** static inline void lv_color_filter_dsc_init(lv_color_filter_dsc_t * dsc, lv_color_filter_cb_t cb)
 640:lvgl/src/misc/lv_color.h **** {
 641:lvgl/src/misc/lv_color.h ****     dsc->filter_cb = cb;
 642:lvgl/src/misc/lv_color.h **** }
 643:lvgl/src/misc/lv_color.h **** 
 644:lvgl/src/misc/lv_color.h **** //! @cond Doxygen_Suppress
 645:lvgl/src/misc/lv_color.h **** //!
 646:lvgl/src/misc/lv_color.h **** void /* LV_ATTRIBUTE_FAST_MEM */ lv_color_fill(lv_color_t * buf, lv_color_t color, uint32_t px_num)
 647:lvgl/src/misc/lv_color.h **** 
 648:lvgl/src/misc/lv_color.h **** //! @endcond
 649:lvgl/src/misc/lv_color.h **** lv_color_t lv_color_lighten(lv_color_t c, lv_opa_t lvl);
 650:lvgl/src/misc/lv_color.h **** 
 651:lvgl/src/misc/lv_color.h **** lv_color_t lv_color_darken(lv_color_t c, lv_opa_t lvl);
 652:lvgl/src/misc/lv_color.h **** 
 653:lvgl/src/misc/lv_color.h **** lv_color_t lv_color_change_lightness(lv_color_t c, lv_opa_t lvl);
 654:lvgl/src/misc/lv_color.h **** 
 655:lvgl/src/misc/lv_color.h **** /**
 656:lvgl/src/misc/lv_color.h ****  * Convert a HSV color to RGB
 657:lvgl/src/misc/lv_color.h ****  * @param h hue [0..359]
 658:lvgl/src/misc/lv_color.h ****  * @param s saturation [0..100]
 659:lvgl/src/misc/lv_color.h ****  * @param v value [0..100]
 660:lvgl/src/misc/lv_color.h ****  * @return the given RGB color in RGB (with LV_COLOR_DEPTH depth)
 661:lvgl/src/misc/lv_color.h ****  */
 662:lvgl/src/misc/lv_color.h **** lv_color_t lv_color_hsv_to_rgb(uint16_t h, uint8_t s, uint8_t v);
 663:lvgl/src/misc/lv_color.h **** 
 664:lvgl/src/misc/lv_color.h **** /**
 665:lvgl/src/misc/lv_color.h ****  * Convert a 32-bit RGB color to HSV
 666:lvgl/src/misc/lv_color.h ****  * @param r8 8-bit red
 667:lvgl/src/misc/lv_color.h ****  * @param g8 8-bit green
 668:lvgl/src/misc/lv_color.h ****  * @param b8 8-bit blue
 669:lvgl/src/misc/lv_color.h ****  * @return the given RGB color in HSV
 670:lvgl/src/misc/lv_color.h ****  */
ARM GAS  C:\Users\OSD\AppData\Local\Temp\ccCs5vco.s 			page 18


 671:lvgl/src/misc/lv_color.h **** lv_color_hsv_t lv_color_rgb_to_hsv(uint8_t r8, uint8_t g8, uint8_t b8);
 672:lvgl/src/misc/lv_color.h **** 
 673:lvgl/src/misc/lv_color.h **** /**
 674:lvgl/src/misc/lv_color.h ****  * Convert a color to HSV
 675:lvgl/src/misc/lv_color.h ****  * @param color color
 676:lvgl/src/misc/lv_color.h ****  * @return the given color in HSV
 677:lvgl/src/misc/lv_color.h ****  */
 678:lvgl/src/misc/lv_color.h **** lv_color_hsv_t lv_color_to_hsv(lv_color_t color);
 679:lvgl/src/misc/lv_color.h **** 
 680:lvgl/src/misc/lv_color.h **** /**
 681:lvgl/src/misc/lv_color.h ****  * Just a wrapper around LV_COLOR_CHROMA_KEY because it might be more convenient to use a function 
 682:lvgl/src/misc/lv_color.h ****  * @return LV_COLOR_CHROMA_KEY
 683:lvgl/src/misc/lv_color.h ****  */
 684:lvgl/src/misc/lv_color.h **** static inline lv_color_t lv_color_chroma_key(void)
 685:lvgl/src/misc/lv_color.h **** {
 686:lvgl/src/misc/lv_color.h ****     return LV_COLOR_CHROMA_KEY;
 687:lvgl/src/misc/lv_color.h **** }
 688:lvgl/src/misc/lv_color.h **** 
 689:lvgl/src/misc/lv_color.h **** /**********************
 690:lvgl/src/misc/lv_color.h ****  *  PREDEFINED COLORS
 691:lvgl/src/misc/lv_color.h ****  **********************/
 692:lvgl/src/misc/lv_color.h **** /*Source: https://vuetifyjs.com/en/styles/colors/#material-colors*/
 693:lvgl/src/misc/lv_color.h **** 
 694:lvgl/src/misc/lv_color.h **** lv_color_t lv_palette_main(lv_palette_t p);
 695:lvgl/src/misc/lv_color.h **** static inline lv_color_t lv_color_white(void)
 172              		.loc 2 695 26 view .LVU66
 173              	.LBE45:
 696:lvgl/src/misc/lv_color.h **** {
 697:lvgl/src/misc/lv_color.h ****     return lv_color_make(0xff, 0xff, 0xff);
 174              		.loc 2 697 5 view .LVU67
 175              	.LVL21:
 176              	.LBB48:
 177              	.LBB46:
 178              	.LBI46:
 594:lvgl/src/misc/lv_color.h **** {
 179              		.loc 2 594 26 view .LVU68
 180              	.LBB47:
 596:lvgl/src/misc/lv_color.h **** }
 181              		.loc 2 596 5 view .LVU69
 596:lvgl/src/misc/lv_color.h **** }
 182              		.loc 2 596 12 is_stmt 0 view .LVU70
 183 0002 4FF0FF3E 		mov	lr, #-1
 184              	.LVL22:
 596:lvgl/src/misc/lv_color.h **** }
 185              		.loc 2 596 12 view .LVU71
 186              	.LBE47:
 187              	.LBE46:
 188              	.LBE48:
 189              	.LBB49:
 190              	.LBI49:
 438:lvgl/src/misc/lv_color.h **** {
 191              		.loc 2 438 48 is_stmt 1 view .LVU72
 192              	.LBB50:
 440:lvgl/src/misc/lv_color.h **** 
 193              		.loc 2 440 5 view .LVU73
 459:lvgl/src/misc/lv_color.h ****                                    (255 - mix) + LV_COLOR_MIX_ROUND_OFS));
 194              		.loc 2 459 5 view .LVU74
ARM GAS  C:\Users\OSD\AppData\Local\Temp\ccCs5vco.s 			page 19


 195 0006 4FEA1E64 		lsr	r4, lr, #24
 196 000a C0F30742 		ubfx	r2, r0, #16, #8
 197 000e C1F1FF03 		rsb	r3, r1, #255
 198 0012 03FB02F2 		mul	r2, r3, r2
 199 0016 01FB0422 		mla	r2, r1, r4, r2
 200 001a 02EB0224 		add	r4, r2, r2, lsl #8
 201 001e 02EBC412 		add	r2, r2, r4, lsl #7
 202 0022 C2F3C752 		ubfx	r2, r2, #23, #8
 203 0026 4FF0000C 		mov	ip, #0
 204              	.LVL23:
 459:lvgl/src/misc/lv_color.h ****                                    (255 - mix) + LV_COLOR_MIX_ROUND_OFS));
 205              		.loc 2 459 5 is_stmt 0 view .LVU75
 206 002a 62F3174C 		bfi	ip, r2, #16, #8
 207              	.LVL24:
 461:lvgl/src/misc/lv_color.h ****                                    (255 - mix) + LV_COLOR_MIX_ROUND_OFS));
 208              		.loc 2 461 5 is_stmt 1 view .LVU76
 209 002e 4FEA1E64 		lsr	r4, lr, #24
 210 0032 C0F30722 		ubfx	r2, r0, #8, #8
 211 0036 03FB02F2 		mul	r2, r3, r2
 212 003a 04FB0122 		mla	r2, r4, r1, r2
 213 003e 02EB0224 		add	r4, r2, r2, lsl #8
 214 0042 02EBC412 		add	r2, r2, r4, lsl #7
 215 0046 C2F3C752 		ubfx	r2, r2, #23, #8
 216 004a 62F30F2C 		bfi	ip, r2, #8, #8
 463:lvgl/src/misc/lv_color.h ****                                    (255 - mix) + LV_COLOR_MIX_ROUND_OFS));
 217              		.loc 2 463 5 view .LVU77
 218 004e 5FFA8EFE 		uxtb	lr, lr
 219 0052 C0B2     		uxtb	r0, r0
 220              	.LVL25:
 463:lvgl/src/misc/lv_color.h ****                                    (255 - mix) + LV_COLOR_MIX_ROUND_OFS));
 221              		.loc 2 463 5 is_stmt 0 view .LVU78
 222 0054 00FB03F3 		mul	r3, r0, r3
 223 0058 0EFB0131 		mla	r1, lr, r1, r3
 224              	.LVL26:
 463:lvgl/src/misc/lv_color.h ****                                    (255 - mix) + LV_COLOR_MIX_ROUND_OFS));
 225              		.loc 2 463 5 view .LVU79
 226 005c 01EB0123 		add	r3, r1, r1, lsl #8
 227 0060 01EBC311 		add	r1, r1, r3, lsl #7
 228 0064 C1F3C751 		ubfx	r1, r1, #23, #8
 229 0068 61F3070C 		bfi	ip, r1, #0, #8
 465:lvgl/src/misc/lv_color.h **** #else
 230              		.loc 2 465 5 is_stmt 1 view .LVU80
 471:lvgl/src/misc/lv_color.h **** }
 231              		.loc 2 471 5 view .LVU81
 232              	.LVL27:
 471:lvgl/src/misc/lv_color.h **** }
 233              		.loc 2 471 5 is_stmt 0 view .LVU82
 234              	.LBE50:
 235              	.LBE49:
 129:lvgl/src/misc/lv_color.c **** }
 236              		.loc 1 129 1 view .LVU83
 237 006c 4CF07F40 		orr	r0, ip, #-16777216
 238 0070 10BD     		pop	{r4, pc}
 239              		.cfi_endproc
 240              	.LFE19:
 242              		.section	.text.lv_color_darken,"ax",%progbits
 243              		.align	1
ARM GAS  C:\Users\OSD\AppData\Local\Temp\ccCs5vco.s 			page 20


 244              		.global	lv_color_darken
 245              		.syntax unified
 246              		.thumb
 247              		.thumb_func
 249              	lv_color_darken:
 250              	.LVL28:
 251              	.LFB20:
 130:lvgl/src/misc/lv_color.c **** 
 131:lvgl/src/misc/lv_color.c **** lv_color_t lv_color_darken(lv_color_t c, lv_opa_t lvl)
 132:lvgl/src/misc/lv_color.c **** {
 252              		.loc 1 132 1 is_stmt 1 view -0
 253              		.cfi_startproc
 254              		@ args = 0, pretend = 0, frame = 0
 255              		@ frame_needed = 0, uses_anonymous_args = 0
 256              		.loc 1 132 1 is_stmt 0 view .LVU85
 257 0000 10B5     		push	{r4, lr}
 258              		.cfi_def_cfa_offset 8
 259              		.cfi_offset 4, -8
 260              		.cfi_offset 14, -4
 133:lvgl/src/misc/lv_color.c ****     return lv_color_mix(lv_color_black(), c, lvl);
 261              		.loc 1 133 5 is_stmt 1 view .LVU86
 262              	.LBB56:
 263              	.LBI56:
 698:lvgl/src/misc/lv_color.h **** }
 699:lvgl/src/misc/lv_color.h **** static inline lv_color_t lv_color_black(void)
 264              		.loc 2 699 26 view .LVU87
 265              	.LBE56:
 700:lvgl/src/misc/lv_color.h **** {
 701:lvgl/src/misc/lv_color.h ****     return lv_color_make(0x00, 0x0, 0x00);
 266              		.loc 2 701 5 view .LVU88
 267              	.LVL29:
 268              	.LBB59:
 269              	.LBB57:
 270              	.LBI57:
 594:lvgl/src/misc/lv_color.h **** {
 271              		.loc 2 594 26 view .LVU89
 272              	.LBB58:
 596:lvgl/src/misc/lv_color.h **** }
 273              		.loc 2 596 5 view .LVU90
 596:lvgl/src/misc/lv_color.h **** }
 274              		.loc 2 596 12 is_stmt 0 view .LVU91
 275 0002 4FF0000E 		mov	lr, #0
 276 0006 6FF3070E 		bfc	lr, #0, #8
 277 000a 6FF30F2E 		bfc	lr, #8, #8
 278 000e 6FF3174E 		bfc	lr, #16, #8
 279 0012 4EF07F4E 		orr	lr, lr, #-16777216
 280              	.LVL30:
 596:lvgl/src/misc/lv_color.h **** }
 281              		.loc 2 596 12 view .LVU92
 282              	.LBE58:
 283              	.LBE57:
 284              	.LBE59:
 285              	.LBB60:
 286              	.LBI60:
 438:lvgl/src/misc/lv_color.h **** {
 287              		.loc 2 438 48 is_stmt 1 view .LVU93
 288              	.LBB61:
ARM GAS  C:\Users\OSD\AppData\Local\Temp\ccCs5vco.s 			page 21


 440:lvgl/src/misc/lv_color.h **** 
 289              		.loc 2 440 5 view .LVU94
 459:lvgl/src/misc/lv_color.h ****                                    (255 - mix) + LV_COLOR_MIX_ROUND_OFS));
 290              		.loc 2 459 5 view .LVU95
 291 0016 CEF30744 		ubfx	r4, lr, #16, #8
 292 001a C0F30742 		ubfx	r2, r0, #16, #8
 293 001e C1F1FF03 		rsb	r3, r1, #255
 294 0022 03FB02F2 		mul	r2, r3, r2
 295 0026 01FB0422 		mla	r2, r1, r4, r2
 296 002a 02EB0224 		add	r4, r2, r2, lsl #8
 297 002e 02EBC412 		add	r2, r2, r4, lsl #7
 298 0032 C2F3C752 		ubfx	r2, r2, #23, #8
 299 0036 4FF0000C 		mov	ip, #0
 300              	.LVL31:
 459:lvgl/src/misc/lv_color.h ****                                    (255 - mix) + LV_COLOR_MIX_ROUND_OFS));
 301              		.loc 2 459 5 is_stmt 0 view .LVU96
 302 003a 62F3174C 		bfi	ip, r2, #16, #8
 303              	.LVL32:
 461:lvgl/src/misc/lv_color.h ****                                    (255 - mix) + LV_COLOR_MIX_ROUND_OFS));
 304              		.loc 2 461 5 is_stmt 1 view .LVU97
 305 003e CEF30724 		ubfx	r4, lr, #8, #8
 306 0042 C0F30722 		ubfx	r2, r0, #8, #8
 307 0046 03FB02F2 		mul	r2, r3, r2
 308 004a 04FB0122 		mla	r2, r4, r1, r2
 309 004e 02EB0224 		add	r4, r2, r2, lsl #8
 310 0052 02EBC412 		add	r2, r2, r4, lsl #7
 311 0056 C2F3C752 		ubfx	r2, r2, #23, #8
 312 005a 62F30F2C 		bfi	ip, r2, #8, #8
 463:lvgl/src/misc/lv_color.h ****                                    (255 - mix) + LV_COLOR_MIX_ROUND_OFS));
 313              		.loc 2 463 5 view .LVU98
 314 005e 5FFA8EFE 		uxtb	lr, lr
 315 0062 C0B2     		uxtb	r0, r0
 316              	.LVL33:
 463:lvgl/src/misc/lv_color.h ****                                    (255 - mix) + LV_COLOR_MIX_ROUND_OFS));
 317              		.loc 2 463 5 is_stmt 0 view .LVU99
 318 0064 00FB03F3 		mul	r3, r0, r3
 319 0068 0EFB0131 		mla	r1, lr, r1, r3
 320              	.LVL34:
 463:lvgl/src/misc/lv_color.h ****                                    (255 - mix) + LV_COLOR_MIX_ROUND_OFS));
 321              		.loc 2 463 5 view .LVU100
 322 006c 01EB0123 		add	r3, r1, r1, lsl #8
 323 0070 01EBC311 		add	r1, r1, r3, lsl #7
 324 0074 C1F3C751 		ubfx	r1, r1, #23, #8
 325 0078 61F3070C 		bfi	ip, r1, #0, #8
 465:lvgl/src/misc/lv_color.h **** #else
 326              		.loc 2 465 5 is_stmt 1 view .LVU101
 471:lvgl/src/misc/lv_color.h **** }
 327              		.loc 2 471 5 view .LVU102
 328              	.LVL35:
 471:lvgl/src/misc/lv_color.h **** }
 329              		.loc 2 471 5 is_stmt 0 view .LVU103
 330              	.LBE61:
 331              	.LBE60:
 134:lvgl/src/misc/lv_color.c **** }
 332              		.loc 1 134 1 view .LVU104
 333 007c 4CF07F40 		orr	r0, ip, #-16777216
 334 0080 10BD     		pop	{r4, pc}
ARM GAS  C:\Users\OSD\AppData\Local\Temp\ccCs5vco.s 			page 22


 335              		.cfi_endproc
 336              	.LFE20:
 338              		.section	.text.lv_color_change_lightness,"ax",%progbits
 339              		.align	1
 340              		.global	lv_color_change_lightness
 341              		.syntax unified
 342              		.thumb
 343              		.thumb_func
 345              	lv_color_change_lightness:
 346              	.LVL36:
 347              	.LFB21:
 135:lvgl/src/misc/lv_color.c **** 
 136:lvgl/src/misc/lv_color.c **** lv_color_t lv_color_change_lightness(lv_color_t c, lv_opa_t lvl)
 137:lvgl/src/misc/lv_color.c **** {
 348              		.loc 1 137 1 is_stmt 1 view -0
 349              		.cfi_startproc
 350              		@ args = 0, pretend = 0, frame = 0
 351              		@ frame_needed = 0, uses_anonymous_args = 0
 138:lvgl/src/misc/lv_color.c ****     /*It'd be better to convert the color to HSL, change L and convert back to RGB.*/
 139:lvgl/src/misc/lv_color.c ****     if(lvl == LV_OPA_50) return c;
 352              		.loc 1 139 5 view .LVU106
 353              		.loc 1 139 7 is_stmt 0 view .LVU107
 354 0000 7F29     		cmp	r1, #127
 355 0002 11D0     		beq	.L15
 137:lvgl/src/misc/lv_color.c ****     /*It'd be better to convert the color to HSL, change L and convert back to RGB.*/
 356              		.loc 1 137 1 view .LVU108
 357 0004 08B5     		push	{r3, lr}
 358              		.cfi_def_cfa_offset 8
 359              		.cfi_offset 3, -8
 360              		.cfi_offset 14, -4
 140:lvgl/src/misc/lv_color.c ****     else if(lvl < LV_OPA_50) return lv_color_darken(c, (LV_OPA_50 - lvl) * 2);
 361              		.loc 1 140 10 is_stmt 1 view .LVU109
 362              		.loc 1 140 12 is_stmt 0 view .LVU110
 363 0006 7E29     		cmp	r1, #126
 364 0008 07D8     		bhi	.L13
 365              		.loc 1 140 30 is_stmt 1 discriminator 1 view .LVU111
 366              		.loc 1 140 67 is_stmt 0 discriminator 1 view .LVU112
 367 000a C1F17F01 		rsb	r1, r1, #127
 368              	.LVL37:
 369              		.loc 1 140 37 discriminator 1 view .LVU113
 370 000e 4900     		lsls	r1, r1, #1
 371 0010 01F0FE01 		and	r1, r1, #254
 372 0014 FFF7FEFF 		bl	lv_color_darken
 373              	.LVL38:
 374              	.L12:
 141:lvgl/src/misc/lv_color.c ****     else return lv_color_lighten(c, (lvl - LV_OPA_50) * 2);
 142:lvgl/src/misc/lv_color.c **** }
 375              		.loc 1 142 1 view .LVU114
 376 0018 08BD     		pop	{r3, pc}
 377              	.LVL39:
 378              	.L13:
 141:lvgl/src/misc/lv_color.c ****     else return lv_color_lighten(c, (lvl - LV_OPA_50) * 2);
 379              		.loc 1 141 10 is_stmt 1 view .LVU115
 141:lvgl/src/misc/lv_color.c ****     else return lv_color_lighten(c, (lvl - LV_OPA_50) * 2);
 380              		.loc 1 141 17 is_stmt 0 view .LVU116
 381 001a 7F39     		subs	r1, r1, #127
 382              	.LVL40:
ARM GAS  C:\Users\OSD\AppData\Local\Temp\ccCs5vco.s 			page 23


 141:lvgl/src/misc/lv_color.c ****     else return lv_color_lighten(c, (lvl - LV_OPA_50) * 2);
 383              		.loc 1 141 17 view .LVU117
 384 001c 4900     		lsls	r1, r1, #1
 385 001e 01F0FE01 		and	r1, r1, #254
 386 0022 FFF7FEFF 		bl	lv_color_lighten
 387              	.LVL41:
 141:lvgl/src/misc/lv_color.c ****     else return lv_color_lighten(c, (lvl - LV_OPA_50) * 2);
 388              		.loc 1 141 17 view .LVU118
 389 0026 F7E7     		b	.L12
 390              	.LVL42:
 391              	.L15:
 392              		.cfi_def_cfa_offset 0
 393              		.cfi_restore 3
 394              		.cfi_restore 14
 395              	.LVL43:
 396              		.loc 1 142 1 view .LVU119
 397 0028 7047     		bx	lr
 398              		.cfi_endproc
 399              	.LFE21:
 401              		.section	.text.lv_color_hsv_to_rgb,"ax",%progbits
 402              		.align	1
 403              		.global	lv_color_hsv_to_rgb
 404              		.syntax unified
 405              		.thumb
 406              		.thumb_func
 408              	lv_color_hsv_to_rgb:
 409              	.LVL44:
 410              	.LFB22:
 143:lvgl/src/misc/lv_color.c **** 
 144:lvgl/src/misc/lv_color.c **** /**
 145:lvgl/src/misc/lv_color.c ****  * Convert a HSV color to RGB
 146:lvgl/src/misc/lv_color.c ****  * @param h hue [0..359]
 147:lvgl/src/misc/lv_color.c ****  * @param s saturation [0..100]
 148:lvgl/src/misc/lv_color.c ****  * @param v value [0..100]
 149:lvgl/src/misc/lv_color.c ****  * @return the given RGB color in RGB (with LV_COLOR_DEPTH depth)
 150:lvgl/src/misc/lv_color.c ****  */
 151:lvgl/src/misc/lv_color.c **** lv_color_t lv_color_hsv_to_rgb(uint16_t h, uint8_t s, uint8_t v)
 152:lvgl/src/misc/lv_color.c **** {
 411              		.loc 1 152 1 is_stmt 1 view -0
 412              		.cfi_startproc
 413              		@ args = 0, pretend = 0, frame = 0
 414              		@ frame_needed = 0, uses_anonymous_args = 0
 415              		.loc 1 152 1 is_stmt 0 view .LVU121
 416 0000 10B5     		push	{r4, lr}
 417              		.cfi_def_cfa_offset 8
 418              		.cfi_offset 4, -8
 419              		.cfi_offset 14, -4
 153:lvgl/src/misc/lv_color.c ****     h = (uint32_t)((uint32_t)h * 255) / 360;
 420              		.loc 1 153 5 is_stmt 1 view .LVU122
 421              		.loc 1 153 9 is_stmt 0 view .LVU123
 422 0002 C0EB0020 		rsb	r0, r0, r0, lsl #8
 423              	.LVL45:
 424              		.loc 1 153 39 view .LVU124
 425 0006 C008     		lsrs	r0, r0, #3
 426 0008 374B     		ldr	r3, .L30
 427 000a A3FB0030 		umull	r3, r0, r3, r0
 428 000e 4FEA900C 		lsr	ip, r0, #2
ARM GAS  C:\Users\OSD\AppData\Local\Temp\ccCs5vco.s 			page 24


 429              		.loc 1 153 7 view .LVU125
 430 0012 C0F38F00 		ubfx	r0, r0, #2, #16
 431              	.LVL46:
 154:lvgl/src/misc/lv_color.c ****     s = (uint16_t)((uint16_t)s * 255) / 100;
 432              		.loc 1 154 5 is_stmt 1 view .LVU126
 433              		.loc 1 154 9 is_stmt 0 view .LVU127
 434 0016 C1EB0121 		rsb	r1, r1, r1, lsl #8
 435              	.LVL47:
 436              		.loc 1 154 9 view .LVU128
 437 001a 8BB2     		uxth	r3, r1
 438              		.loc 1 154 7 view .LVU129
 439 001c 334C     		ldr	r4, .L30+4
 440 001e A4FB0313 		umull	r1, r3, r4, r3
 441 0022 C3F34713 		ubfx	r3, r3, #5, #8
 442              	.LVL48:
 155:lvgl/src/misc/lv_color.c ****     v = (uint16_t)((uint16_t)v * 255) / 100;
 443              		.loc 1 155 5 is_stmt 1 view .LVU130
 444              		.loc 1 155 9 is_stmt 0 view .LVU131
 445 0026 C2EB0222 		rsb	r2, r2, r2, lsl #8
 446              	.LVL49:
 447              		.loc 1 155 9 view .LVU132
 448 002a 91B2     		uxth	r1, r2
 449              		.loc 1 155 7 view .LVU133
 450 002c A4FB0121 		umull	r2, r1, r4, r1
 451 0030 C1F34711 		ubfx	r1, r1, #5, #8
 452              	.LVL50:
 156:lvgl/src/misc/lv_color.c **** 
 157:lvgl/src/misc/lv_color.c ****     uint8_t r, g, b;
 453              		.loc 1 157 5 is_stmt 1 view .LVU134
 158:lvgl/src/misc/lv_color.c **** 
 159:lvgl/src/misc/lv_color.c ****     uint8_t region, remainder, p, q, t;
 454              		.loc 1 159 5 view .LVU135
 160:lvgl/src/misc/lv_color.c **** 
 161:lvgl/src/misc/lv_color.c ****     if(s == 0) {
 455              		.loc 1 161 5 view .LVU136
 456              		.loc 1 161 7 is_stmt 0 view .LVU137
 457 0034 83B3     		cbz	r3, .L29
 162:lvgl/src/misc/lv_color.c ****         return lv_color_make(v, v, v);
 163:lvgl/src/misc/lv_color.c ****     }
 164:lvgl/src/misc/lv_color.c **** 
 165:lvgl/src/misc/lv_color.c ****     region    = h / 43;
 458              		.loc 1 165 5 is_stmt 1 view .LVU138
 459              		.loc 1 165 15 is_stmt 0 view .LVU139
 460 0036 2E4A     		ldr	r2, .L30+8
 461 0038 A2FB0020 		umull	r2, r0, r2, r0
 462              	.LVL51:
 463              		.loc 1 165 15 view .LVU140
 464 003c C0F3C700 		ubfx	r0, r0, #3, #8
 465              	.LVL52:
 166:lvgl/src/misc/lv_color.c ****     remainder = (h - (region * 43)) * 6;
 466              		.loc 1 166 5 is_stmt 1 view .LVU141
 467              		.loc 1 166 20 is_stmt 0 view .LVU142
 468 0040 1FFA8CF2 		uxth	r2, ip
 469 0044 6FF02A04 		mvn	r4, #42
 470 0048 04FB0022 		mla	r2, r4, r0, r2
 471              		.loc 1 166 15 view .LVU143
 472 004c 02EB4202 		add	r2, r2, r2, lsl #1
ARM GAS  C:\Users\OSD\AppData\Local\Temp\ccCs5vco.s 			page 25


 473 0050 5200     		lsls	r2, r2, #1
 474 0052 D2B2     		uxtb	r2, r2
 475              	.LVL53:
 167:lvgl/src/misc/lv_color.c **** 
 168:lvgl/src/misc/lv_color.c ****     p = (v * (255 - s)) >> 8;
 476              		.loc 1 168 5 is_stmt 1 view .LVU144
 477              		.loc 1 168 19 is_stmt 0 view .LVU145
 478 0054 C3F1FF0E 		rsb	lr, r3, #255
 479              		.loc 1 168 12 view .LVU146
 480 0058 0EFB01FE 		mul	lr, lr, r1
 481              		.loc 1 168 7 view .LVU147
 482 005c CEF3072E 		ubfx	lr, lr, #8, #8
 483              	.LVL54:
 169:lvgl/src/misc/lv_color.c ****     q = (v * (255 - ((s * remainder) >> 8))) >> 8;
 484              		.loc 1 169 5 is_stmt 1 view .LVU148
 485              		.loc 1 169 25 is_stmt 0 view .LVU149
 486 0060 02FB03FC 		mul	ip, r2, r3
 487              		.loc 1 169 38 view .LVU150
 488 0064 4FEA2C2C 		asr	ip, ip, #8
 489              		.loc 1 169 19 view .LVU151
 490 0068 CCF1FF0C 		rsb	ip, ip, #255
 491              		.loc 1 169 12 view .LVU152
 492 006c 0CFB01FC 		mul	ip, ip, r1
 493              		.loc 1 169 7 view .LVU153
 494 0070 CCF3072C 		ubfx	ip, ip, #8, #8
 495              	.LVL55:
 170:lvgl/src/misc/lv_color.c ****     t = (v * (255 - ((s * (255 - remainder)) >> 8))) >> 8;
 496              		.loc 1 170 5 is_stmt 1 view .LVU154
 497              		.loc 1 170 32 is_stmt 0 view .LVU155
 498 0074 C2F1FF02 		rsb	r2, r2, #255
 499              	.LVL56:
 500              		.loc 1 170 25 view .LVU156
 501 0078 03FB02F2 		mul	r2, r3, r2
 502              		.loc 1 170 46 view .LVU157
 503 007c 1212     		asrs	r2, r2, #8
 504              		.loc 1 170 19 view .LVU158
 505 007e C2F1FF02 		rsb	r2, r2, #255
 506              		.loc 1 170 12 view .LVU159
 507 0082 01FB02F2 		mul	r2, r1, r2
 508              		.loc 1 170 7 view .LVU160
 509 0086 C2F30722 		ubfx	r2, r2, #8, #8
 510              	.LVL57:
 171:lvgl/src/misc/lv_color.c **** 
 172:lvgl/src/misc/lv_color.c ****     switch(region) {
 511              		.loc 1 172 5 is_stmt 1 view .LVU161
 512 008a 0428     		cmp	r0, #4
 513 008c 27D8     		bhi	.L21
 514 008e DFE800F0 		tbb	[pc, r0]
 515              	.LVL58:
 516              	.L23:
 517 0092 0D       		.byte	(.L27-.L23)/2
 518 0093 0F       		.byte	(.L26-.L23)/2
 519 0094 19       		.byte	(.L25-.L23)/2
 520 0095 1C       		.byte	(.L24-.L23)/2
 521 0096 21       		.byte	(.L22-.L23)/2
 522 0097 00       		.p2align 1
 523              	.L29:
ARM GAS  C:\Users\OSD\AppData\Local\Temp\ccCs5vco.s 			page 26


 162:lvgl/src/misc/lv_color.c ****     }
 524              		.loc 1 162 9 view .LVU162
 525              	.LBB62:
 526              	.LBI62:
 594:lvgl/src/misc/lv_color.h **** {
 527              		.loc 2 594 26 view .LVU163
 528              	.LBB63:
 596:lvgl/src/misc/lv_color.h **** }
 529              		.loc 2 596 5 view .LVU164
 596:lvgl/src/misc/lv_color.h **** }
 530              		.loc 2 596 12 is_stmt 0 view .LVU165
 531 0098 0020     		movs	r0, #0
 532              	.LVL59:
 596:lvgl/src/misc/lv_color.h **** }
 533              		.loc 2 596 12 view .LVU166
 534 009a 61F30700 		bfi	r0, r1, #0, #8
 535 009e 61F30F20 		bfi	r0, r1, #8, #8
 536 00a2 61F31740 		bfi	r0, r1, #16, #8
 537 00a6 40F07F40 		orr	r0, r0, #-16777216
 538              	.LVL60:
 596:lvgl/src/misc/lv_color.h **** }
 539              		.loc 2 596 12 view .LVU167
 540              	.LBE63:
 541              	.LBE62:
 162:lvgl/src/misc/lv_color.c ****     }
 542              		.loc 1 162 16 view .LVU168
 543 00aa 0AE0     		b	.L20
 544              	.LVL61:
 545              	.L27:
 546              		.loc 1 172 5 view .LVU169
 547 00ac 8C46     		mov	ip, r1
 548              	.LVL62:
 549              		.loc 1 172 5 view .LVU170
 550 00ae 1146     		mov	r1, r2
 551              	.LVL63:
 552              	.L26:
 173:lvgl/src/misc/lv_color.c ****         case 0:
 174:lvgl/src/misc/lv_color.c ****             r = v;
 175:lvgl/src/misc/lv_color.c ****             g = t;
 176:lvgl/src/misc/lv_color.c ****             b = p;
 177:lvgl/src/misc/lv_color.c ****             break;
 178:lvgl/src/misc/lv_color.c ****         case 1:
 179:lvgl/src/misc/lv_color.c ****             r = q;
 180:lvgl/src/misc/lv_color.c ****             g = v;
 181:lvgl/src/misc/lv_color.c ****             b = p;
 182:lvgl/src/misc/lv_color.c ****             break;
 183:lvgl/src/misc/lv_color.c ****         case 2:
 184:lvgl/src/misc/lv_color.c ****             r = p;
 185:lvgl/src/misc/lv_color.c ****             g = v;
 186:lvgl/src/misc/lv_color.c ****             b = t;
 187:lvgl/src/misc/lv_color.c ****             break;
 188:lvgl/src/misc/lv_color.c ****         case 3:
 189:lvgl/src/misc/lv_color.c ****             r = p;
 190:lvgl/src/misc/lv_color.c ****             g = q;
 191:lvgl/src/misc/lv_color.c ****             b = v;
 192:lvgl/src/misc/lv_color.c ****             break;
 193:lvgl/src/misc/lv_color.c ****         case 4:
ARM GAS  C:\Users\OSD\AppData\Local\Temp\ccCs5vco.s 			page 27


 194:lvgl/src/misc/lv_color.c ****             r = t;
 195:lvgl/src/misc/lv_color.c ****             g = p;
 196:lvgl/src/misc/lv_color.c ****             b = v;
 197:lvgl/src/misc/lv_color.c ****             break;
 198:lvgl/src/misc/lv_color.c ****         default:
 199:lvgl/src/misc/lv_color.c ****             r = v;
 200:lvgl/src/misc/lv_color.c ****             g = p;
 201:lvgl/src/misc/lv_color.c ****             b = q;
 202:lvgl/src/misc/lv_color.c ****             break;
 203:lvgl/src/misc/lv_color.c ****     }
 204:lvgl/src/misc/lv_color.c **** 
 205:lvgl/src/misc/lv_color.c ****     lv_color_t result = lv_color_make(r, g, b);
 553              		.loc 1 205 5 is_stmt 1 view .LVU171
 554              	.LBB64:
 555              	.LBI64:
 594:lvgl/src/misc/lv_color.h **** {
 556              		.loc 2 594 26 view .LVU172
 557              	.LBB65:
 596:lvgl/src/misc/lv_color.h **** }
 558              		.loc 2 596 5 view .LVU173
 596:lvgl/src/misc/lv_color.h **** }
 559              		.loc 2 596 12 is_stmt 0 view .LVU174
 560 00b0 0020     		movs	r0, #0
 561              	.LVL64:
 596:lvgl/src/misc/lv_color.h **** }
 562              		.loc 2 596 12 view .LVU175
 563 00b2 6EF30700 		bfi	r0, lr, #0, #8
 564 00b6 61F30F20 		bfi	r0, r1, #8, #8
 565 00ba 6CF31740 		bfi	r0, ip, #16, #8
 566              	.LVL65:
 596:lvgl/src/misc/lv_color.h **** }
 567              		.loc 2 596 12 view .LVU176
 568              	.LBE65:
 569              	.LBE64:
 206:lvgl/src/misc/lv_color.c ****     return result;
 570              		.loc 1 206 5 is_stmt 1 view .LVU177
 571              		.loc 1 206 12 is_stmt 0 view .LVU178
 572 00be 40F07F40 		orr	r0, r0, #-16777216
 573              	.LVL66:
 574              	.L20:
 207:lvgl/src/misc/lv_color.c **** }
 575              		.loc 1 207 1 view .LVU179
 576 00c2 10BD     		pop	{r4, pc}
 577              	.LVL67:
 578              	.L25:
 184:lvgl/src/misc/lv_color.c ****             g = v;
 579              		.loc 1 184 13 is_stmt 1 view .LVU180
 185:lvgl/src/misc/lv_color.c ****             b = t;
 580              		.loc 1 185 13 view .LVU181
 186:lvgl/src/misc/lv_color.c ****             break;
 581              		.loc 1 186 13 view .LVU182
 187:lvgl/src/misc/lv_color.c ****         case 3:
 582              		.loc 1 187 13 view .LVU183
 184:lvgl/src/misc/lv_color.c ****             g = v;
 583              		.loc 1 184 15 is_stmt 0 view .LVU184
 584 00c4 F446     		mov	ip, lr
 585              	.LVL68:
ARM GAS  C:\Users\OSD\AppData\Local\Temp\ccCs5vco.s 			page 28


 186:lvgl/src/misc/lv_color.c ****             break;
 586              		.loc 1 186 15 view .LVU185
 587 00c6 9646     		mov	lr, r2
 588              	.LVL69:
 187:lvgl/src/misc/lv_color.c ****         case 3:
 589              		.loc 1 187 13 view .LVU186
 590 00c8 F2E7     		b	.L26
 591              	.LVL70:
 592              	.L24:
 189:lvgl/src/misc/lv_color.c ****             g = q;
 593              		.loc 1 189 13 is_stmt 1 view .LVU187
 190:lvgl/src/misc/lv_color.c ****             b = v;
 594              		.loc 1 190 13 view .LVU188
 191:lvgl/src/misc/lv_color.c ****             break;
 595              		.loc 1 191 13 view .LVU189
 192:lvgl/src/misc/lv_color.c ****         case 4:
 596              		.loc 1 192 13 view .LVU190
 597 00ca 6346     		mov	r3, ip
 189:lvgl/src/misc/lv_color.c ****             g = q;
 598              		.loc 1 189 15 is_stmt 0 view .LVU191
 599 00cc F446     		mov	ip, lr
 600              	.LVL71:
 191:lvgl/src/misc/lv_color.c ****             break;
 601              		.loc 1 191 15 view .LVU192
 602 00ce 8E46     		mov	lr, r1
 603              	.LVL72:
 190:lvgl/src/misc/lv_color.c ****             b = v;
 604              		.loc 1 190 15 view .LVU193
 605 00d0 1946     		mov	r1, r3
 606              	.LVL73:
 192:lvgl/src/misc/lv_color.c ****         case 4:
 607              		.loc 1 192 13 view .LVU194
 608 00d2 EDE7     		b	.L26
 609              	.LVL74:
 610              	.L22:
 194:lvgl/src/misc/lv_color.c ****             g = p;
 611              		.loc 1 194 13 is_stmt 1 view .LVU195
 195:lvgl/src/misc/lv_color.c ****             b = v;
 612              		.loc 1 195 13 view .LVU196
 196:lvgl/src/misc/lv_color.c ****             break;
 613              		.loc 1 196 13 view .LVU197
 197:lvgl/src/misc/lv_color.c ****         default:
 614              		.loc 1 197 13 view .LVU198
 615 00d4 0B46     		mov	r3, r1
 195:lvgl/src/misc/lv_color.c ****             b = v;
 616              		.loc 1 195 15 is_stmt 0 view .LVU199
 617 00d6 7146     		mov	r1, lr
 618              	.LVL75:
 196:lvgl/src/misc/lv_color.c ****             break;
 619              		.loc 1 196 15 view .LVU200
 620 00d8 9E46     		mov	lr, r3
 621              	.LVL76:
 194:lvgl/src/misc/lv_color.c ****             g = p;
 622              		.loc 1 194 15 view .LVU201
 623 00da 9446     		mov	ip, r2
 624              	.LVL77:
 197:lvgl/src/misc/lv_color.c ****         default:
ARM GAS  C:\Users\OSD\AppData\Local\Temp\ccCs5vco.s 			page 29


 625              		.loc 1 197 13 view .LVU202
 626 00dc E8E7     		b	.L26
 627              	.LVL78:
 628              	.L21:
 199:lvgl/src/misc/lv_color.c ****             g = p;
 629              		.loc 1 199 13 is_stmt 1 view .LVU203
 200:lvgl/src/misc/lv_color.c ****             b = q;
 630              		.loc 1 200 13 view .LVU204
 201:lvgl/src/misc/lv_color.c ****             break;
 631              		.loc 1 201 13 view .LVU205
 202:lvgl/src/misc/lv_color.c ****     }
 632              		.loc 1 202 13 view .LVU206
 633 00de 6346     		mov	r3, ip
 199:lvgl/src/misc/lv_color.c ****             g = p;
 634              		.loc 1 199 15 is_stmt 0 view .LVU207
 635 00e0 8C46     		mov	ip, r1
 636              	.LVL79:
 200:lvgl/src/misc/lv_color.c ****             b = q;
 637              		.loc 1 200 15 view .LVU208
 638 00e2 7146     		mov	r1, lr
 639              	.LVL80:
 201:lvgl/src/misc/lv_color.c ****             break;
 640              		.loc 1 201 15 view .LVU209
 641 00e4 9E46     		mov	lr, r3
 642              	.LVL81:
 202:lvgl/src/misc/lv_color.c ****     }
 643              		.loc 1 202 13 view .LVU210
 644 00e6 E3E7     		b	.L26
 645              	.L31:
 646              		.align	2
 647              	.L30:
 648 00e8 176CC116 		.word	381774871
 649 00ec 1F85EB51 		.word	1374389535
 650 00f0 83BEA02F 		.word	799063683
 651              		.cfi_endproc
 652              	.LFE22:
 654              		.section	.text.lv_color_rgb_to_hsv,"ax",%progbits
 655              		.align	1
 656              		.global	lv_color_rgb_to_hsv
 657              		.syntax unified
 658              		.thumb
 659              		.thumb_func
 661              	lv_color_rgb_to_hsv:
 662              	.LVL82:
 663              	.LFB23:
 208:lvgl/src/misc/lv_color.c **** 
 209:lvgl/src/misc/lv_color.c **** /**
 210:lvgl/src/misc/lv_color.c ****  * Convert a 32-bit RGB color to HSV
 211:lvgl/src/misc/lv_color.c ****  * @param r8 8-bit red
 212:lvgl/src/misc/lv_color.c ****  * @param g8 8-bit green
 213:lvgl/src/misc/lv_color.c ****  * @param b8 8-bit blue
 214:lvgl/src/misc/lv_color.c ****  * @return the given RGB color in HSV
 215:lvgl/src/misc/lv_color.c ****  */
 216:lvgl/src/misc/lv_color.c **** lv_color_hsv_t lv_color_rgb_to_hsv(uint8_t r8, uint8_t g8, uint8_t b8)
 217:lvgl/src/misc/lv_color.c **** {
 664              		.loc 1 217 1 is_stmt 1 view -0
 665              		.cfi_startproc
ARM GAS  C:\Users\OSD\AppData\Local\Temp\ccCs5vco.s 			page 30


 666              		@ args = 0, pretend = 0, frame = 8
 667              		@ frame_needed = 0, uses_anonymous_args = 0
 668              		.loc 1 217 1 is_stmt 0 view .LVU212
 669 0000 70B5     		push	{r4, r5, r6, lr}
 670              		.cfi_def_cfa_offset 16
 671              		.cfi_offset 4, -16
 672              		.cfi_offset 5, -12
 673              		.cfi_offset 6, -8
 674              		.cfi_offset 14, -4
 675 0002 82B0     		sub	sp, sp, #8
 676              		.cfi_def_cfa_offset 24
 218:lvgl/src/misc/lv_color.c ****     uint16_t r = ((uint32_t)r8 << 10) / 255;
 677              		.loc 1 218 5 is_stmt 1 view .LVU213
 678              		.loc 1 218 32 is_stmt 0 view .LVU214
 679 0004 8002     		lsls	r0, r0, #10
 680              	.LVL83:
 681              		.loc 1 218 39 view .LVU215
 682 0006 494B     		ldr	r3, .L54
 683 0008 A3FB0040 		umull	r4, r0, r3, r0
 684 000c 4FEAD01C 		lsr	ip, r0, #7
 685              		.loc 1 218 14 view .LVU216
 686 0010 6446     		mov	r4, ip
 687              	.LVL84:
 219:lvgl/src/misc/lv_color.c ****     uint16_t g = ((uint32_t)g8 << 10) / 255;
 688              		.loc 1 219 5 is_stmt 1 view .LVU217
 689              		.loc 1 219 32 is_stmt 0 view .LVU218
 690 0012 8902     		lsls	r1, r1, #10
 691              	.LVL85:
 692              		.loc 1 219 39 view .LVU219
 693 0014 A3FB0151 		umull	r5, r1, r3, r1
 694 0018 CD09     		lsrs	r5, r1, #7
 695              		.loc 1 219 14 view .LVU220
 696 001a 2946     		mov	r1, r5
 697              	.LVL86:
 220:lvgl/src/misc/lv_color.c ****     uint16_t b = ((uint32_t)b8 << 10) / 255;
 698              		.loc 1 220 5 is_stmt 1 view .LVU221
 699              		.loc 1 220 32 is_stmt 0 view .LVU222
 700 001c 9202     		lsls	r2, r2, #10
 701              	.LVL87:
 702              		.loc 1 220 39 view .LVU223
 703 001e A3FB0232 		umull	r3, r2, r3, r2
 704 0022 D609     		lsrs	r6, r2, #7
 705              		.loc 1 220 14 view .LVU224
 706 0024 3246     		mov	r2, r6
 707              	.LVL88:
 221:lvgl/src/misc/lv_color.c **** 
 222:lvgl/src/misc/lv_color.c ****     uint16_t rgbMin = r < g ? (r < b ? r : b) : (g < b ? g : b);
 708              		.loc 1 222 5 is_stmt 1 view .LVU225
 709              		.loc 1 222 14 is_stmt 0 view .LVU226
 710 0026 B5EBD01F 		cmp	r5, r0, lsr #7
 711 002a 2BD9     		bls	.L33
 712              		.loc 1 222 14 discriminator 1 view .LVU227
 713 002c 6346     		mov	r3, ip
 714 002e B445     		cmp	ip, r6
 715 0030 28BF     		it	cs
 716 0032 3346     		movcs	r3, r6
 717 0034 9BB2     		uxth	r3, r3
ARM GAS  C:\Users\OSD\AppData\Local\Temp\ccCs5vco.s 			page 31


 718              	.L34:
 719              	.LVL89:
 223:lvgl/src/misc/lv_color.c ****     uint16_t rgbMax = r > g ? (r > b ? r : b) : (g > b ? g : b);
 720              		.loc 1 223 5 is_stmt 1 discriminator 4 view .LVU228
 721              		.loc 1 223 14 is_stmt 0 discriminator 4 view .LVU229
 722 0036 8C42     		cmp	r4, r1
 723 0038 2AD9     		bls	.L35
 724              		.loc 1 223 14 discriminator 1 view .LVU230
 725 003a 2046     		mov	r0, r4
 726 003c 9442     		cmp	r4, r2
 727 003e 38BF     		it	cc
 728 0040 1046     		movcc	r0, r2
 729 0042 80B2     		uxth	r0, r0
 730              	.L36:
 731              	.LVL90:
 224:lvgl/src/misc/lv_color.c **** 
 225:lvgl/src/misc/lv_color.c ****     lv_color_hsv_t hsv;
 732              		.loc 1 225 5 is_stmt 1 discriminator 4 view .LVU231
 226:lvgl/src/misc/lv_color.c **** 
 227:lvgl/src/misc/lv_color.c ****     // https://en.wikipedia.org/wiki/HSL_and_HSV#Lightness
 228:lvgl/src/misc/lv_color.c ****     hsv.v = (100 * rgbMax) >> 10;
 733              		.loc 1 228 5 discriminator 4 view .LVU232
 734              		.loc 1 228 18 is_stmt 0 discriminator 4 view .LVU233
 735 0044 4FF0640E 		mov	lr, #100
 736 0048 0EFB00FE 		mul	lr, lr, r0
 737              		.loc 1 228 28 discriminator 4 view .LVU234
 738 004c 4FEAAE2E 		asr	lr, lr, #10
 739              		.loc 1 228 11 discriminator 4 view .LVU235
 740 0050 8DF803E0 		strb	lr, [sp, #3]
 229:lvgl/src/misc/lv_color.c **** 
 230:lvgl/src/misc/lv_color.c ****     int32_t delta = rgbMax - rgbMin;
 741              		.loc 1 230 5 is_stmt 1 discriminator 4 view .LVU236
 742              		.loc 1 230 13 is_stmt 0 discriminator 4 view .LVU237
 743 0054 C31A     		subs	r3, r0, r3
 744              	.LVL91:
 231:lvgl/src/misc/lv_color.c ****     if(delta < 3) {
 745              		.loc 1 231 5 is_stmt 1 discriminator 4 view .LVU238
 746              		.loc 1 231 7 is_stmt 0 discriminator 4 view .LVU239
 747 0056 022B     		cmp	r3, #2
 748 0058 20DD     		ble	.L48
 232:lvgl/src/misc/lv_color.c ****         hsv.h = 0;
 233:lvgl/src/misc/lv_color.c ****         hsv.s = 0;
 234:lvgl/src/misc/lv_color.c ****         return hsv;
 235:lvgl/src/misc/lv_color.c ****     }
 236:lvgl/src/misc/lv_color.c **** 
 237:lvgl/src/misc/lv_color.c ****     // https://en.wikipedia.org/wiki/HSL_and_HSV#Saturation
 238:lvgl/src/misc/lv_color.c ****     hsv.s = 100 * delta / rgbMax;
 749              		.loc 1 238 5 is_stmt 1 view .LVU240
 750              		.loc 1 238 17 is_stmt 0 view .LVU241
 751 005a 4FF0640E 		mov	lr, #100
 752 005e 0EFB03FE 		mul	lr, lr, r3
 753              		.loc 1 238 25 view .LVU242
 754 0062 9EFBF0FE 		sdiv	lr, lr, r0
 755              		.loc 1 238 11 view .LVU243
 756 0066 5FFA8EFE 		uxtb	lr, lr
 757 006a 8DF802E0 		strb	lr, [sp, #2]
 239:lvgl/src/misc/lv_color.c ****     if(hsv.s < 3) {
ARM GAS  C:\Users\OSD\AppData\Local\Temp\ccCs5vco.s 			page 32


 758              		.loc 1 239 5 is_stmt 1 view .LVU244
 759              		.loc 1 239 7 is_stmt 0 view .LVU245
 760 006e BEF1020F 		cmp	lr, #2
 761 0072 1BD9     		bls	.L49
 240:lvgl/src/misc/lv_color.c ****         hsv.h = 0;
 241:lvgl/src/misc/lv_color.c ****         return hsv;
 242:lvgl/src/misc/lv_color.c ****     }
 243:lvgl/src/misc/lv_color.c **** 
 244:lvgl/src/misc/lv_color.c ****     // https://en.wikipedia.org/wiki/HSL_and_HSV#Hue_and_chroma
 245:lvgl/src/misc/lv_color.c ****     int32_t h;
 762              		.loc 1 245 5 is_stmt 1 view .LVU246
 246:lvgl/src/misc/lv_color.c ****     if(rgbMax == r)
 763              		.loc 1 246 5 view .LVU247
 764              		.loc 1 246 7 is_stmt 0 view .LVU248
 765 0074 A042     		cmp	r0, r4
 766 0076 1FD0     		beq	.L50
 247:lvgl/src/misc/lv_color.c ****         h = (((g - b) << 10) / delta) + (g < b ? (6 << 10) : 0); // between yellow & magenta
 248:lvgl/src/misc/lv_color.c ****     else if(rgbMax == g)
 767              		.loc 1 248 10 is_stmt 1 view .LVU249
 768              		.loc 1 248 12 is_stmt 0 view .LVU250
 769 0078 8842     		cmp	r0, r1
 770 007a 3FD0     		beq	.L51
 249:lvgl/src/misc/lv_color.c ****         h = (((b - r) << 10) / delta) + (2 << 10); // between cyan & yellow
 250:lvgl/src/misc/lv_color.c ****     else if(rgbMax == b)
 771              		.loc 1 250 10 is_stmt 1 view .LVU251
 772              		.loc 1 250 12 is_stmt 0 view .LVU252
 773 007c 9042     		cmp	r0, r2
 774 007e 47D0     		beq	.L52
 251:lvgl/src/misc/lv_color.c ****         h = (((r - g) << 10) / delta) + (4 << 10); // between magenta & cyan
 252:lvgl/src/misc/lv_color.c ****     else
 253:lvgl/src/misc/lv_color.c ****         h = 0;
 775              		.loc 1 253 11 view .LVU253
 776 0080 0023     		movs	r3, #0
 777              	.LVL92:
 778              		.loc 1 253 11 view .LVU254
 779 0082 24E0     		b	.L42
 780              	.LVL93:
 781              	.L33:
 222:lvgl/src/misc/lv_color.c ****     uint16_t rgbMax = r > g ? (r > b ? r : b) : (g > b ? g : b);
 782              		.loc 1 222 14 discriminator 2 view .LVU255
 783 0084 2B46     		mov	r3, r5
 784 0086 B542     		cmp	r5, r6
 785 0088 28BF     		it	cs
 786 008a 3346     		movcs	r3, r6
 787 008c 9BB2     		uxth	r3, r3
 788 008e D2E7     		b	.L34
 789              	.LVL94:
 790              	.L35:
 223:lvgl/src/misc/lv_color.c **** 
 791              		.loc 1 223 14 discriminator 2 view .LVU256
 792 0090 0846     		mov	r0, r1
 793 0092 9142     		cmp	r1, r2
 794 0094 38BF     		it	cc
 795 0096 1046     		movcc	r0, r2
 796 0098 80B2     		uxth	r0, r0
 797 009a D3E7     		b	.L36
 798              	.LVL95:
ARM GAS  C:\Users\OSD\AppData\Local\Temp\ccCs5vco.s 			page 33


 799              	.L48:
 232:lvgl/src/misc/lv_color.c ****         hsv.s = 0;
 800              		.loc 1 232 9 is_stmt 1 view .LVU257
 232:lvgl/src/misc/lv_color.c ****         hsv.s = 0;
 801              		.loc 1 232 15 is_stmt 0 view .LVU258
 802 009c 0023     		movs	r3, #0
 803              	.LVL96:
 232:lvgl/src/misc/lv_color.c ****         hsv.s = 0;
 804              		.loc 1 232 15 view .LVU259
 805 009e ADF80030 		strh	r3, [sp]	@ movhi
 233:lvgl/src/misc/lv_color.c ****         return hsv;
 806              		.loc 1 233 9 is_stmt 1 view .LVU260
 233:lvgl/src/misc/lv_color.c ****         return hsv;
 807              		.loc 1 233 15 is_stmt 0 view .LVU261
 808 00a2 8DF80230 		strb	r3, [sp, #2]
 234:lvgl/src/misc/lv_color.c ****     }
 809              		.loc 1 234 9 is_stmt 1 view .LVU262
 234:lvgl/src/misc/lv_color.c ****     }
 810              		.loc 1 234 16 is_stmt 0 view .LVU263
 811 00a6 009B     		ldr	r3, [sp]
 812 00a8 0193     		str	r3, [sp, #4]
 813 00aa 1AE0     		b	.L38
 814              	.LVL97:
 815              	.L49:
 240:lvgl/src/misc/lv_color.c ****         return hsv;
 816              		.loc 1 240 9 is_stmt 1 view .LVU264
 240:lvgl/src/misc/lv_color.c ****         return hsv;
 817              		.loc 1 240 15 is_stmt 0 view .LVU265
 818 00ac 0023     		movs	r3, #0
 819              	.LVL98:
 240:lvgl/src/misc/lv_color.c ****         return hsv;
 820              		.loc 1 240 15 view .LVU266
 821 00ae ADF80030 		strh	r3, [sp]	@ movhi
 241:lvgl/src/misc/lv_color.c ****     }
 822              		.loc 1 241 9 is_stmt 1 view .LVU267
 241:lvgl/src/misc/lv_color.c ****     }
 823              		.loc 1 241 16 is_stmt 0 view .LVU268
 824 00b2 009B     		ldr	r3, [sp]
 825 00b4 0193     		str	r3, [sp, #4]
 826 00b6 14E0     		b	.L38
 827              	.LVL99:
 828              	.L50:
 247:lvgl/src/misc/lv_color.c ****     else if(rgbMax == g)
 829              		.loc 1 247 9 is_stmt 1 view .LVU269
 247:lvgl/src/misc/lv_color.c ****     else if(rgbMax == g)
 830              		.loc 1 247 18 is_stmt 0 view .LVU270
 831 00b8 A8B2     		uxth	r0, r5
 832              	.LVL100:
 247:lvgl/src/misc/lv_color.c ****     else if(rgbMax == g)
 833              		.loc 1 247 18 view .LVU271
 834 00ba B6B2     		uxth	r6, r6
 247:lvgl/src/misc/lv_color.c ****     else if(rgbMax == g)
 835              		.loc 1 247 18 view .LVU272
 836 00bc 801B     		subs	r0, r0, r6
 247:lvgl/src/misc/lv_color.c ****     else if(rgbMax == g)
 837              		.loc 1 247 23 view .LVU273
 838 00be 8002     		lsls	r0, r0, #10
ARM GAS  C:\Users\OSD\AppData\Local\Temp\ccCs5vco.s 			page 34


 247:lvgl/src/misc/lv_color.c ****     else if(rgbMax == g)
 839              		.loc 1 247 30 view .LVU274
 840 00c0 90FBF3F3 		sdiv	r3, r0, r3
 841              	.LVL101:
 247:lvgl/src/misc/lv_color.c ****     else if(rgbMax == g)
 842              		.loc 1 247 60 view .LVU275
 843 00c4 9142     		cmp	r1, r2
 844 00c6 17D2     		bcs	.L45
 845 00c8 4FF4C052 		mov	r2, #6144
 846              	.L41:
 247:lvgl/src/misc/lv_color.c ****     else if(rgbMax == g)
 847              		.loc 1 247 11 discriminator 4 view .LVU276
 848 00cc 1344     		add	r3, r3, r2
 849              	.LVL102:
 850              	.L42:
 254:lvgl/src/misc/lv_color.c ****     h *= 60;
 851              		.loc 1 254 5 is_stmt 1 view .LVU277
 852              		.loc 1 254 7 is_stmt 0 view .LVU278
 853 00ce C3EB0313 		rsb	r3, r3, r3, lsl #4
 854              	.LVL103:
 255:lvgl/src/misc/lv_color.c ****     h >>= 10;
 855              		.loc 1 255 5 is_stmt 1 view .LVU279
 856              		.loc 1 255 7 is_stmt 0 view .LVU280
 857 00d2 43F31523 		sbfx	r3, r3, #8, #22
 858              	.LVL104:
 256:lvgl/src/misc/lv_color.c ****     if(h < 0) h += 360;
 859              		.loc 1 256 5 is_stmt 1 view .LVU281
 860              		.loc 1 256 7 is_stmt 0 view .LVU282
 861 00d6 002B     		cmp	r3, #0
 862 00d8 24DB     		blt	.L53
 863              	.L44:
 257:lvgl/src/misc/lv_color.c **** 
 258:lvgl/src/misc/lv_color.c ****     hsv.h = h;
 864              		.loc 1 258 5 is_stmt 1 view .LVU283
 865              		.loc 1 258 11 is_stmt 0 view .LVU284
 866 00da ADF80030 		strh	r3, [sp]	@ movhi
 259:lvgl/src/misc/lv_color.c ****     return hsv;
 867              		.loc 1 259 5 is_stmt 1 view .LVU285
 868              		.loc 1 259 12 is_stmt 0 view .LVU286
 869 00de 009B     		ldr	r3, [sp]
 870              	.LVL105:
 871              		.loc 1 259 12 view .LVU287
 872 00e0 0193     		str	r3, [sp, #4]
 873              	.L38:
 260:lvgl/src/misc/lv_color.c **** }
 874              		.loc 1 260 1 view .LVU288
 875 00e2 0020     		movs	r0, #0
 876 00e4 BDF80430 		ldrh	r3, [sp, #4]
 877 00e8 63F30F00 		bfi	r0, r3, #0, #16
 878 00ec BDF80630 		ldrh	r3, [sp, #6]
 879 00f0 63F31F40 		bfi	r0, r3, #16, #16
 880 00f4 02B0     		add	sp, sp, #8
 881              		.cfi_remember_state
 882              		.cfi_def_cfa_offset 16
 883              		@ sp needed
 884 00f6 70BD     		pop	{r4, r5, r6, pc}
 885              	.LVL106:
ARM GAS  C:\Users\OSD\AppData\Local\Temp\ccCs5vco.s 			page 35


 886              	.L45:
 887              		.cfi_restore_state
 247:lvgl/src/misc/lv_color.c ****     else if(rgbMax == g)
 888              		.loc 1 247 60 view .LVU289
 889 00f8 0022     		movs	r2, #0
 890 00fa E7E7     		b	.L41
 891              	.LVL107:
 892              	.L51:
 249:lvgl/src/misc/lv_color.c ****     else if(rgbMax == b)
 893              		.loc 1 249 9 is_stmt 1 view .LVU290
 249:lvgl/src/misc/lv_color.c ****     else if(rgbMax == b)
 894              		.loc 1 249 18 is_stmt 0 view .LVU291
 895 00fc B6B2     		uxth	r6, r6
 249:lvgl/src/misc/lv_color.c ****     else if(rgbMax == b)
 896              		.loc 1 249 18 view .LVU292
 897 00fe A6EB0C0C 		sub	ip, r6, ip
 898              	.LVL108:
 249:lvgl/src/misc/lv_color.c ****     else if(rgbMax == b)
 899              		.loc 1 249 23 view .LVU293
 900 0102 4FEA8C2C 		lsl	ip, ip, #10
 249:lvgl/src/misc/lv_color.c ****     else if(rgbMax == b)
 901              		.loc 1 249 30 view .LVU294
 902 0106 9CFBF3F3 		sdiv	r3, ip, r3
 903              	.LVL109:
 249:lvgl/src/misc/lv_color.c ****     else if(rgbMax == b)
 904              		.loc 1 249 11 view .LVU295
 905 010a 03F50063 		add	r3, r3, #2048
 906              	.LVL110:
 249:lvgl/src/misc/lv_color.c ****     else if(rgbMax == b)
 907              		.loc 1 249 11 view .LVU296
 908 010e DEE7     		b	.L42
 909              	.LVL111:
 910              	.L52:
 251:lvgl/src/misc/lv_color.c ****     else
 911              		.loc 1 251 9 is_stmt 1 view .LVU297
 251:lvgl/src/misc/lv_color.c ****     else
 912              		.loc 1 251 18 is_stmt 0 view .LVU298
 913 0110 A8B2     		uxth	r0, r5
 914              	.LVL112:
 251:lvgl/src/misc/lv_color.c ****     else
 915              		.loc 1 251 18 view .LVU299
 916 0112 ACEB000C 		sub	ip, ip, r0
 917              	.LVL113:
 251:lvgl/src/misc/lv_color.c ****     else
 918              		.loc 1 251 23 view .LVU300
 919 0116 4FEA8C2C 		lsl	ip, ip, #10
 251:lvgl/src/misc/lv_color.c ****     else
 920              		.loc 1 251 30 view .LVU301
 921 011a 9CFBF3F3 		sdiv	r3, ip, r3
 922              	.LVL114:
 251:lvgl/src/misc/lv_color.c ****     else
 923              		.loc 1 251 11 view .LVU302
 924 011e 03F58053 		add	r3, r3, #4096
 925              	.LVL115:
 251:lvgl/src/misc/lv_color.c ****     else
 926              		.loc 1 251 11 view .LVU303
 927 0122 D4E7     		b	.L42
ARM GAS  C:\Users\OSD\AppData\Local\Temp\ccCs5vco.s 			page 36


 928              	.LVL116:
 929              	.L53:
 256:lvgl/src/misc/lv_color.c **** 
 930              		.loc 1 256 15 is_stmt 1 discriminator 1 view .LVU304
 256:lvgl/src/misc/lv_color.c **** 
 931              		.loc 1 256 17 is_stmt 0 discriminator 1 view .LVU305
 932 0124 03F5B473 		add	r3, r3, #360
 933              	.LVL117:
 256:lvgl/src/misc/lv_color.c **** 
 934              		.loc 1 256 17 discriminator 1 view .LVU306
 935 0128 D7E7     		b	.L44
 936              	.L55:
 937 012a 00BF     		.align	2
 938              	.L54:
 939 012c 81808080 		.word	-2139062143
 940              		.cfi_endproc
 941              	.LFE23:
 943              		.section	.text.lv_color_to_hsv,"ax",%progbits
 944              		.align	1
 945              		.global	lv_color_to_hsv
 946              		.syntax unified
 947              		.thumb
 948              		.thumb_func
 950              	lv_color_to_hsv:
 951              	.LVL118:
 952              	.LFB24:
 261:lvgl/src/misc/lv_color.c **** 
 262:lvgl/src/misc/lv_color.c **** /**
 263:lvgl/src/misc/lv_color.c ****  * Convert a color to HSV
 264:lvgl/src/misc/lv_color.c ****  * @param color color
 265:lvgl/src/misc/lv_color.c ****  * @return the given color in HSV
 266:lvgl/src/misc/lv_color.c ****  */
 267:lvgl/src/misc/lv_color.c **** lv_color_hsv_t lv_color_to_hsv(lv_color_t color)
 268:lvgl/src/misc/lv_color.c **** {
 953              		.loc 1 268 1 is_stmt 1 view -0
 954              		.cfi_startproc
 955              		@ args = 0, pretend = 0, frame = 8
 956              		@ frame_needed = 0, uses_anonymous_args = 0
 957              		.loc 1 268 1 is_stmt 0 view .LVU308
 958 0000 00B5     		push	{lr}
 959              		.cfi_def_cfa_offset 4
 960              		.cfi_offset 14, -4
 961 0002 83B0     		sub	sp, sp, #12
 962              		.cfi_def_cfa_offset 16
 269:lvgl/src/misc/lv_color.c ****     lv_color32_t color32;
 963              		.loc 1 269 5 is_stmt 1 view .LVU309
 270:lvgl/src/misc/lv_color.c ****     color32.full = lv_color_to32(color);
 964              		.loc 1 270 5 view .LVU310
 965              	.LBB66:
 966              	.LBI66:
 374:lvgl/src/misc/lv_color.h **** {
 967              		.loc 2 374 24 view .LVU311
 968              	.LBB67:
 425:lvgl/src/misc/lv_color.h **** #endif
 969              		.loc 2 425 5 view .LVU312
 970              	.LBE67:
 971              	.LBE66:
ARM GAS  C:\Users\OSD\AppData\Local\Temp\ccCs5vco.s 			page 37


 271:lvgl/src/misc/lv_color.c ****     return lv_color_rgb_to_hsv(color32.ch.red, color32.ch.green, color32.ch.blue);
 972              		.loc 1 271 5 view .LVU313
 973              		.loc 1 271 12 is_stmt 0 view .LVU314
 974 0004 C2B2     		uxtb	r2, r0
 975 0006 C0F30721 		ubfx	r1, r0, #8, #8
 976 000a C0F30740 		ubfx	r0, r0, #16, #8
 977              	.LVL119:
 978              		.loc 1 271 12 view .LVU315
 979 000e FFF7FEFF 		bl	lv_color_rgb_to_hsv
 980              	.LVL120:
 981 0012 0190     		str	r0, [sp, #4]
 982 0014 0020     		movs	r0, #0
 983 0016 BDF80430 		ldrh	r3, [sp, #4]
 984 001a 63F30F00 		bfi	r0, r3, #0, #16
 985 001e BDF80630 		ldrh	r3, [sp, #6]
 986 0022 63F31F40 		bfi	r0, r3, #16, #16
 272:lvgl/src/misc/lv_color.c **** }
 987              		.loc 1 272 1 view .LVU316
 988 0026 03B0     		add	sp, sp, #12
 989              		.cfi_def_cfa_offset 4
 990              		@ sp needed
 991 0028 5DF804FB 		ldr	pc, [sp], #4
 992              		.cfi_endproc
 993              	.LFE24:
 995              		.section	.text.lv_palette_main,"ax",%progbits
 996              		.align	1
 997              		.global	lv_palette_main
 998              		.syntax unified
 999              		.thumb
 1000              		.thumb_func
 1002              	lv_palette_main:
 1003              	.LVL121:
 1004              	.LFB25:
 273:lvgl/src/misc/lv_color.c **** 
 274:lvgl/src/misc/lv_color.c **** lv_color_t lv_palette_main(lv_palette_t p)
 275:lvgl/src/misc/lv_color.c **** {
 1005              		.loc 1 275 1 is_stmt 1 view -0
 1006              		.cfi_startproc
 1007              		@ args = 0, pretend = 0, frame = 0
 1008              		@ frame_needed = 0, uses_anonymous_args = 0
 1009              		@ link register save eliminated.
 276:lvgl/src/misc/lv_color.c ****     static const lv_color_t colors[] = {
 1010              		.loc 1 276 5 view .LVU318
 277:lvgl/src/misc/lv_color.c ****         LV_COLOR_MAKE(0xF4, 0x43, 0x36), LV_COLOR_MAKE(0xE9, 0x1E, 0x63), LV_COLOR_MAKE(0x9C, 0x27,
 278:lvgl/src/misc/lv_color.c ****         LV_COLOR_MAKE(0x3F, 0x51, 0xB5), LV_COLOR_MAKE(0x21, 0x96, 0xF3), LV_COLOR_MAKE(0x03, 0xA9,
 279:lvgl/src/misc/lv_color.c ****         LV_COLOR_MAKE(0x00, 0x96, 0x88), LV_COLOR_MAKE(0x4C, 0xAF, 0x50), LV_COLOR_MAKE(0x8B, 0xC3,
 280:lvgl/src/misc/lv_color.c ****         LV_COLOR_MAKE(0xFF, 0xEB, 0x3B), LV_COLOR_MAKE(0xFF, 0xC1, 0x07), LV_COLOR_MAKE(0xFF, 0x98,
 281:lvgl/src/misc/lv_color.c ****         LV_COLOR_MAKE(0x79, 0x55, 0x48), LV_COLOR_MAKE(0x60, 0x7D, 0x8B), LV_COLOR_MAKE(0x9E, 0x9E,
 282:lvgl/src/misc/lv_color.c ****     };
 283:lvgl/src/misc/lv_color.c **** 
 284:lvgl/src/misc/lv_color.c ****     if(p >= _LV_PALETTE_LAST) {
 1011              		.loc 1 284 5 view .LVU319
 1012              		.loc 1 284 7 is_stmt 0 view .LVU320
 1013 0000 1228     		cmp	r0, #18
 1014 0002 03D8     		bhi	.L61
 285:lvgl/src/misc/lv_color.c ****         LV_LOG_WARN("Invalid palette: %d", p);
 286:lvgl/src/misc/lv_color.c ****         return lv_color_black();
ARM GAS  C:\Users\OSD\AppData\Local\Temp\ccCs5vco.s 			page 38


 287:lvgl/src/misc/lv_color.c ****     }
 288:lvgl/src/misc/lv_color.c **** 
 289:lvgl/src/misc/lv_color.c ****     return colors[p];
 1015              		.loc 1 289 5 is_stmt 1 view .LVU321
 1016              		.loc 1 289 18 is_stmt 0 view .LVU322
 1017 0004 064B     		ldr	r3, .L62
 1018 0006 53F82000 		ldr	r0, [r3, r0, lsl #2]
 1019              	.LVL122:
 290:lvgl/src/misc/lv_color.c **** 
 291:lvgl/src/misc/lv_color.c **** }
 1020              		.loc 1 291 1 view .LVU323
 1021 000a 7047     		bx	lr
 1022              	.LVL123:
 1023              	.L61:
 285:lvgl/src/misc/lv_color.c ****         LV_LOG_WARN("Invalid palette: %d", p);
 1024              		.loc 1 285 9 is_stmt 1 view .LVU324
 285:lvgl/src/misc/lv_color.c ****         LV_LOG_WARN("Invalid palette: %d", p);
 1025              		.loc 1 285 9 view .LVU325
 285:lvgl/src/misc/lv_color.c ****         LV_LOG_WARN("Invalid palette: %d", p);
 1026              		.loc 1 285 9 view .LVU326
 286:lvgl/src/misc/lv_color.c ****     }
 1027              		.loc 1 286 9 view .LVU327
 1028              	.LBB68:
 1029              	.LBI68:
 699:lvgl/src/misc/lv_color.h **** {
 1030              		.loc 2 699 26 view .LVU328
 1031              	.LBE68:
 1032              		.loc 2 701 5 view .LVU329
 1033              	.LBB71:
 1034              	.LBB69:
 1035              	.LBI69:
 594:lvgl/src/misc/lv_color.h **** {
 1036              		.loc 2 594 26 view .LVU330
 1037              	.LBB70:
 596:lvgl/src/misc/lv_color.h **** }
 1038              		.loc 2 596 5 view .LVU331
 596:lvgl/src/misc/lv_color.h **** }
 1039              		.loc 2 596 12 is_stmt 0 view .LVU332
 1040 000c 0020     		movs	r0, #0
 1041              	.LVL124:
 596:lvgl/src/misc/lv_color.h **** }
 1042              		.loc 2 596 12 view .LVU333
 1043 000e 6FF30700 		bfc	r0, #0, #8
 1044 0012 6FF30F20 		bfc	r0, #8, #8
 1045 0016 6FF31740 		bfc	r0, #16, #8
 1046              	.LVL125:
 596:lvgl/src/misc/lv_color.h **** }
 1047              		.loc 2 596 12 view .LVU334
 1048 001a 40F07F40 		orr	r0, r0, #-16777216
 1049              	.LBE70:
 1050              	.LBE69:
 1051              	.LBE71:
 286:lvgl/src/misc/lv_color.c ****     }
 1052              		.loc 1 286 16 view .LVU335
 1053 001e 7047     		bx	lr
 1054              	.L63:
 1055              		.align	2
ARM GAS  C:\Users\OSD\AppData\Local\Temp\ccCs5vco.s 			page 39


 1056              	.L62:
 1057 0020 00000000 		.word	.LANCHOR0
 1058              		.cfi_endproc
 1059              	.LFE25:
 1061              		.section	.text.lv_palette_lighten,"ax",%progbits
 1062              		.align	1
 1063              		.global	lv_palette_lighten
 1064              		.syntax unified
 1065              		.thumb
 1066              		.thumb_func
 1068              	lv_palette_lighten:
 1069              	.LVL126:
 1070              	.LFB26:
 292:lvgl/src/misc/lv_color.c **** 
 293:lvgl/src/misc/lv_color.c **** lv_color_t lv_palette_lighten(lv_palette_t p, uint8_t lvl)
 294:lvgl/src/misc/lv_color.c **** {
 1071              		.loc 1 294 1 is_stmt 1 view -0
 1072              		.cfi_startproc
 1073              		@ args = 0, pretend = 0, frame = 0
 1074              		@ frame_needed = 0, uses_anonymous_args = 0
 1075              		@ link register save eliminated.
 295:lvgl/src/misc/lv_color.c ****     static const lv_color_t colors[][5] = {
 1076              		.loc 1 295 5 view .LVU337
 296:lvgl/src/misc/lv_color.c ****         {LV_COLOR_MAKE(0xEF, 0x53, 0x50), LV_COLOR_MAKE(0xE5, 0x73, 0x73), LV_COLOR_MAKE(0xEF, 0x9A
 297:lvgl/src/misc/lv_color.c ****         {LV_COLOR_MAKE(0xEC, 0x40, 0x7A), LV_COLOR_MAKE(0xF0, 0x62, 0x92), LV_COLOR_MAKE(0xF4, 0x8F
 298:lvgl/src/misc/lv_color.c ****         {LV_COLOR_MAKE(0xAB, 0x47, 0xBC), LV_COLOR_MAKE(0xBA, 0x68, 0xC8), LV_COLOR_MAKE(0xCE, 0x93
 299:lvgl/src/misc/lv_color.c ****         {LV_COLOR_MAKE(0x7E, 0x57, 0xC2), LV_COLOR_MAKE(0x95, 0x75, 0xCD), LV_COLOR_MAKE(0xB3, 0x9D
 300:lvgl/src/misc/lv_color.c ****         {LV_COLOR_MAKE(0x5C, 0x6B, 0xC0), LV_COLOR_MAKE(0x79, 0x86, 0xCB), LV_COLOR_MAKE(0x9F, 0xA8
 301:lvgl/src/misc/lv_color.c ****         {LV_COLOR_MAKE(0x42, 0xA5, 0xF5), LV_COLOR_MAKE(0x64, 0xB5, 0xF6), LV_COLOR_MAKE(0x90, 0xCA
 302:lvgl/src/misc/lv_color.c ****         {LV_COLOR_MAKE(0x29, 0xB6, 0xF6), LV_COLOR_MAKE(0x4F, 0xC3, 0xF7), LV_COLOR_MAKE(0x81, 0xD4
 303:lvgl/src/misc/lv_color.c ****         {LV_COLOR_MAKE(0x26, 0xC6, 0xDA), LV_COLOR_MAKE(0x4D, 0xD0, 0xE1), LV_COLOR_MAKE(0x80, 0xDE
 304:lvgl/src/misc/lv_color.c ****         {LV_COLOR_MAKE(0x26, 0xA6, 0x9A), LV_COLOR_MAKE(0x4D, 0xB6, 0xAC), LV_COLOR_MAKE(0x80, 0xCB
 305:lvgl/src/misc/lv_color.c ****         {LV_COLOR_MAKE(0x66, 0xBB, 0x6A), LV_COLOR_MAKE(0x81, 0xC7, 0x84), LV_COLOR_MAKE(0xA5, 0xD6
 306:lvgl/src/misc/lv_color.c ****         {LV_COLOR_MAKE(0x9C, 0xCC, 0x65), LV_COLOR_MAKE(0xAE, 0xD5, 0x81), LV_COLOR_MAKE(0xC5, 0xE1
 307:lvgl/src/misc/lv_color.c ****         {LV_COLOR_MAKE(0xD4, 0xE1, 0x57), LV_COLOR_MAKE(0xDC, 0xE7, 0x75), LV_COLOR_MAKE(0xE6, 0xEE
 308:lvgl/src/misc/lv_color.c ****         {LV_COLOR_MAKE(0xFF, 0xEE, 0x58), LV_COLOR_MAKE(0xFF, 0xF1, 0x76), LV_COLOR_MAKE(0xFF, 0xF5
 309:lvgl/src/misc/lv_color.c ****         {LV_COLOR_MAKE(0xFF, 0xCA, 0x28), LV_COLOR_MAKE(0xFF, 0xD5, 0x4F), LV_COLOR_MAKE(0xFF, 0xE0
 310:lvgl/src/misc/lv_color.c ****         {LV_COLOR_MAKE(0xFF, 0xA7, 0x26), LV_COLOR_MAKE(0xFF, 0xB7, 0x4D), LV_COLOR_MAKE(0xFF, 0xCC
 311:lvgl/src/misc/lv_color.c ****         {LV_COLOR_MAKE(0xFF, 0x70, 0x43), LV_COLOR_MAKE(0xFF, 0x8A, 0x65), LV_COLOR_MAKE(0xFF, 0xAB
 312:lvgl/src/misc/lv_color.c ****         {LV_COLOR_MAKE(0x8D, 0x6E, 0x63), LV_COLOR_MAKE(0xA1, 0x88, 0x7F), LV_COLOR_MAKE(0xBC, 0xAA
 313:lvgl/src/misc/lv_color.c ****         {LV_COLOR_MAKE(0x78, 0x90, 0x9C), LV_COLOR_MAKE(0x90, 0xA4, 0xAE), LV_COLOR_MAKE(0xB0, 0xBE
 314:lvgl/src/misc/lv_color.c ****         {LV_COLOR_MAKE(0xBD, 0xBD, 0xBD), LV_COLOR_MAKE(0xE0, 0xE0, 0xE0), LV_COLOR_MAKE(0xEE, 0xEE
 315:lvgl/src/misc/lv_color.c ****     };
 316:lvgl/src/misc/lv_color.c **** 
 317:lvgl/src/misc/lv_color.c ****     if(p >= _LV_PALETTE_LAST) {
 1077              		.loc 1 317 5 view .LVU338
 1078              		.loc 1 317 7 is_stmt 0 view .LVU339
 1079 0000 1228     		cmp	r0, #18
 1080 0002 0AD8     		bhi	.L68
 318:lvgl/src/misc/lv_color.c ****         LV_LOG_WARN("Invalid palette: %d", p);
 319:lvgl/src/misc/lv_color.c ****         return lv_color_black();
 320:lvgl/src/misc/lv_color.c ****     }
 321:lvgl/src/misc/lv_color.c **** 
 322:lvgl/src/misc/lv_color.c ****     if(lvl == 0 || lvl > 5) {
 1081              		.loc 1 322 5 is_stmt 1 view .LVU340
 1082              		.loc 1 322 17 is_stmt 0 view .LVU341
 1083 0004 0139     		subs	r1, r1, #1
ARM GAS  C:\Users\OSD\AppData\Local\Temp\ccCs5vco.s 			page 40


 1084              	.LVL127:
 1085              		.loc 1 322 17 view .LVU342
 1086 0006 C9B2     		uxtb	r1, r1
 1087              		.loc 1 322 7 view .LVU343
 1088 0008 0429     		cmp	r1, #4
 1089 000a 10D8     		bhi	.L69
 323:lvgl/src/misc/lv_color.c ****         LV_LOG_WARN("Invalid level: %d. Must be 1..5", lvl);
 324:lvgl/src/misc/lv_color.c ****         return lv_color_black();
 325:lvgl/src/misc/lv_color.c ****     }
 326:lvgl/src/misc/lv_color.c **** 
 327:lvgl/src/misc/lv_color.c ****     lvl--;
 1090              		.loc 1 327 5 is_stmt 1 view .LVU344
 1091              	.LVL128:
 328:lvgl/src/misc/lv_color.c **** 
 329:lvgl/src/misc/lv_color.c ****     return colors[p][lvl];
 1092              		.loc 1 329 5 view .LVU345
 1093              		.loc 1 329 21 is_stmt 0 view .LVU346
 1094 000c 00EB8000 		add	r0, r0, r0, lsl #2
 1095              	.LVL129:
 1096              		.loc 1 329 21 view .LVU347
 1097 0010 0144     		add	r1, r1, r0
 1098              	.LVL130:
 1099              		.loc 1 329 21 view .LVU348
 1100 0012 0C4B     		ldr	r3, .L70
 1101 0014 53F82100 		ldr	r0, [r3, r1, lsl #2]
 330:lvgl/src/misc/lv_color.c **** }
 1102              		.loc 1 330 1 view .LVU349
 1103 0018 7047     		bx	lr
 1104              	.LVL131:
 1105              	.L68:
 318:lvgl/src/misc/lv_color.c ****         return lv_color_black();
 1106              		.loc 1 318 9 is_stmt 1 view .LVU350
 318:lvgl/src/misc/lv_color.c ****         return lv_color_black();
 1107              		.loc 1 318 9 view .LVU351
 318:lvgl/src/misc/lv_color.c ****         return lv_color_black();
 1108              		.loc 1 318 9 view .LVU352
 319:lvgl/src/misc/lv_color.c ****     }
 1109              		.loc 1 319 9 view .LVU353
 1110              	.LBB72:
 1111              	.LBI72:
 699:lvgl/src/misc/lv_color.h **** {
 1112              		.loc 2 699 26 view .LVU354
 1113              	.LBE72:
 1114              		.loc 2 701 5 view .LVU355
 1115              	.LBB75:
 1116              	.LBB73:
 1117              	.LBI73:
 594:lvgl/src/misc/lv_color.h **** {
 1118              		.loc 2 594 26 view .LVU356
 1119              	.LBB74:
 596:lvgl/src/misc/lv_color.h **** }
 1120              		.loc 2 596 5 view .LVU357
 596:lvgl/src/misc/lv_color.h **** }
 1121              		.loc 2 596 12 is_stmt 0 view .LVU358
 1122 001a 0020     		movs	r0, #0
 1123              	.LVL132:
 596:lvgl/src/misc/lv_color.h **** }
ARM GAS  C:\Users\OSD\AppData\Local\Temp\ccCs5vco.s 			page 41


 1124              		.loc 2 596 12 view .LVU359
 1125 001c 6FF30700 		bfc	r0, #0, #8
 1126 0020 6FF30F20 		bfc	r0, #8, #8
 1127 0024 6FF31740 		bfc	r0, #16, #8
 1128              	.LVL133:
 596:lvgl/src/misc/lv_color.h **** }
 1129              		.loc 2 596 12 view .LVU360
 1130 0028 40F07F40 		orr	r0, r0, #-16777216
 1131              	.LBE74:
 1132              	.LBE73:
 1133              	.LBE75:
 319:lvgl/src/misc/lv_color.c ****     }
 1134              		.loc 1 319 16 view .LVU361
 1135 002c 7047     		bx	lr
 1136              	.LVL134:
 1137              	.L69:
 323:lvgl/src/misc/lv_color.c ****         return lv_color_black();
 1138              		.loc 1 323 9 is_stmt 1 view .LVU362
 323:lvgl/src/misc/lv_color.c ****         return lv_color_black();
 1139              		.loc 1 323 9 view .LVU363
 323:lvgl/src/misc/lv_color.c ****         return lv_color_black();
 1140              		.loc 1 323 9 view .LVU364
 324:lvgl/src/misc/lv_color.c ****     }
 1141              		.loc 1 324 9 view .LVU365
 1142              	.LBB76:
 1143              	.LBI76:
 699:lvgl/src/misc/lv_color.h **** {
 1144              		.loc 2 699 26 view .LVU366
 1145              	.LBE76:
 1146              		.loc 2 701 5 view .LVU367
 1147              	.LBB79:
 1148              	.LBB77:
 1149              	.LBI77:
 594:lvgl/src/misc/lv_color.h **** {
 1150              		.loc 2 594 26 view .LVU368
 1151              	.LBB78:
 596:lvgl/src/misc/lv_color.h **** }
 1152              		.loc 2 596 5 view .LVU369
 596:lvgl/src/misc/lv_color.h **** }
 1153              		.loc 2 596 12 is_stmt 0 view .LVU370
 1154 002e 0020     		movs	r0, #0
 1155              	.LVL135:
 596:lvgl/src/misc/lv_color.h **** }
 1156              		.loc 2 596 12 view .LVU371
 1157 0030 6FF30700 		bfc	r0, #0, #8
 1158 0034 6FF30F20 		bfc	r0, #8, #8
 1159 0038 6FF31740 		bfc	r0, #16, #8
 1160              	.LVL136:
 596:lvgl/src/misc/lv_color.h **** }
 1161              		.loc 2 596 12 view .LVU372
 1162 003c 40F07F40 		orr	r0, r0, #-16777216
 1163              	.LBE78:
 1164              	.LBE77:
 1165              	.LBE79:
 324:lvgl/src/misc/lv_color.c ****     }
 1166              		.loc 1 324 16 view .LVU373
 1167 0040 7047     		bx	lr
ARM GAS  C:\Users\OSD\AppData\Local\Temp\ccCs5vco.s 			page 42


 1168              	.L71:
 1169 0042 00BF     		.align	2
 1170              	.L70:
 1171 0044 00000000 		.word	.LANCHOR1
 1172              		.cfi_endproc
 1173              	.LFE26:
 1175              		.section	.text.lv_palette_darken,"ax",%progbits
 1176              		.align	1
 1177              		.global	lv_palette_darken
 1178              		.syntax unified
 1179              		.thumb
 1180              		.thumb_func
 1182              	lv_palette_darken:
 1183              	.LVL137:
 1184              	.LFB27:
 331:lvgl/src/misc/lv_color.c **** 
 332:lvgl/src/misc/lv_color.c **** lv_color_t lv_palette_darken(lv_palette_t p, uint8_t lvl)
 333:lvgl/src/misc/lv_color.c **** {
 1185              		.loc 1 333 1 is_stmt 1 view -0
 1186              		.cfi_startproc
 1187              		@ args = 0, pretend = 0, frame = 0
 1188              		@ frame_needed = 0, uses_anonymous_args = 0
 1189              		@ link register save eliminated.
 334:lvgl/src/misc/lv_color.c ****     static const lv_color_t colors[][4] = {
 1190              		.loc 1 334 5 view .LVU375
 335:lvgl/src/misc/lv_color.c ****         {LV_COLOR_MAKE(0xE5, 0x39, 0x35), LV_COLOR_MAKE(0xD3, 0x2F, 0x2F), LV_COLOR_MAKE(0xC6, 0x28
 336:lvgl/src/misc/lv_color.c ****         {LV_COLOR_MAKE(0xD8, 0x1B, 0x60), LV_COLOR_MAKE(0xC2, 0x18, 0x5B), LV_COLOR_MAKE(0xAD, 0x14
 337:lvgl/src/misc/lv_color.c ****         {LV_COLOR_MAKE(0x8E, 0x24, 0xAA), LV_COLOR_MAKE(0x7B, 0x1F, 0xA2), LV_COLOR_MAKE(0x6A, 0x1B
 338:lvgl/src/misc/lv_color.c ****         {LV_COLOR_MAKE(0x5E, 0x35, 0xB1), LV_COLOR_MAKE(0x51, 0x2D, 0xA8), LV_COLOR_MAKE(0x45, 0x27
 339:lvgl/src/misc/lv_color.c ****         {LV_COLOR_MAKE(0x39, 0x49, 0xAB), LV_COLOR_MAKE(0x30, 0x3F, 0x9F), LV_COLOR_MAKE(0x28, 0x35
 340:lvgl/src/misc/lv_color.c ****         {LV_COLOR_MAKE(0x1E, 0x88, 0xE5), LV_COLOR_MAKE(0x19, 0x76, 0xD2), LV_COLOR_MAKE(0x15, 0x65
 341:lvgl/src/misc/lv_color.c ****         {LV_COLOR_MAKE(0x03, 0x9B, 0xE5), LV_COLOR_MAKE(0x02, 0x88, 0xD1), LV_COLOR_MAKE(0x02, 0x77
 342:lvgl/src/misc/lv_color.c ****         {LV_COLOR_MAKE(0x00, 0xAC, 0xC1), LV_COLOR_MAKE(0x00, 0x97, 0xA7), LV_COLOR_MAKE(0x00, 0x83
 343:lvgl/src/misc/lv_color.c ****         {LV_COLOR_MAKE(0x00, 0x89, 0x7B), LV_COLOR_MAKE(0x00, 0x79, 0x6B), LV_COLOR_MAKE(0x00, 0x69
 344:lvgl/src/misc/lv_color.c ****         {LV_COLOR_MAKE(0x43, 0xA0, 0x47), LV_COLOR_MAKE(0x38, 0x8E, 0x3C), LV_COLOR_MAKE(0x2E, 0x7D
 345:lvgl/src/misc/lv_color.c ****         {LV_COLOR_MAKE(0x7C, 0xB3, 0x42), LV_COLOR_MAKE(0x68, 0x9F, 0x38), LV_COLOR_MAKE(0x55, 0x8B
 346:lvgl/src/misc/lv_color.c ****         {LV_COLOR_MAKE(0xC0, 0xCA, 0x33), LV_COLOR_MAKE(0xAF, 0xB4, 0x2B), LV_COLOR_MAKE(0x9E, 0x9D
 347:lvgl/src/misc/lv_color.c ****         {LV_COLOR_MAKE(0xFD, 0xD8, 0x35), LV_COLOR_MAKE(0xFB, 0xC0, 0x2D), LV_COLOR_MAKE(0xF9, 0xA8
 348:lvgl/src/misc/lv_color.c ****         {LV_COLOR_MAKE(0xFF, 0xB3, 0x00), LV_COLOR_MAKE(0xFF, 0xA0, 0x00), LV_COLOR_MAKE(0xFF, 0x8F
 349:lvgl/src/misc/lv_color.c ****         {LV_COLOR_MAKE(0xFB, 0x8C, 0x00), LV_COLOR_MAKE(0xF5, 0x7C, 0x00), LV_COLOR_MAKE(0xEF, 0x6C
 350:lvgl/src/misc/lv_color.c ****         {LV_COLOR_MAKE(0xF4, 0x51, 0x1E), LV_COLOR_MAKE(0xE6, 0x4A, 0x19), LV_COLOR_MAKE(0xD8, 0x43
 351:lvgl/src/misc/lv_color.c ****         {LV_COLOR_MAKE(0x6D, 0x4C, 0x41), LV_COLOR_MAKE(0x5D, 0x40, 0x37), LV_COLOR_MAKE(0x4E, 0x34
 352:lvgl/src/misc/lv_color.c ****         {LV_COLOR_MAKE(0x54, 0x6E, 0x7A), LV_COLOR_MAKE(0x45, 0x5A, 0x64), LV_COLOR_MAKE(0x37, 0x47
 353:lvgl/src/misc/lv_color.c ****         {LV_COLOR_MAKE(0x75, 0x75, 0x75), LV_COLOR_MAKE(0x61, 0x61, 0x61), LV_COLOR_MAKE(0x42, 0x42
 354:lvgl/src/misc/lv_color.c ****     };
 355:lvgl/src/misc/lv_color.c **** 
 356:lvgl/src/misc/lv_color.c ****     if(p >= _LV_PALETTE_LAST) {
 1191              		.loc 1 356 5 view .LVU376
 1192              		.loc 1 356 7 is_stmt 0 view .LVU377
 1193 0000 1228     		cmp	r0, #18
 1194 0002 09D8     		bhi	.L76
 357:lvgl/src/misc/lv_color.c ****         LV_LOG_WARN("Invalid palette: %d", p);
 358:lvgl/src/misc/lv_color.c ****         return lv_color_black();
 359:lvgl/src/misc/lv_color.c ****     }
 360:lvgl/src/misc/lv_color.c **** 
 361:lvgl/src/misc/lv_color.c ****     if(lvl == 0 || lvl > 4) {
 1195              		.loc 1 361 5 is_stmt 1 view .LVU378
ARM GAS  C:\Users\OSD\AppData\Local\Temp\ccCs5vco.s 			page 43


 1196              		.loc 1 361 17 is_stmt 0 view .LVU379
 1197 0004 0139     		subs	r1, r1, #1
 1198              	.LVL138:
 1199              		.loc 1 361 17 view .LVU380
 1200 0006 C9B2     		uxtb	r1, r1
 1201              		.loc 1 361 7 view .LVU381
 1202 0008 0329     		cmp	r1, #3
 1203 000a 0FD8     		bhi	.L77
 362:lvgl/src/misc/lv_color.c ****         LV_LOG_WARN("Invalid level: %d. Must be 1..4", lvl);
 363:lvgl/src/misc/lv_color.c ****         return lv_color_black();
 364:lvgl/src/misc/lv_color.c ****     }
 365:lvgl/src/misc/lv_color.c **** 
 366:lvgl/src/misc/lv_color.c ****     lvl--;
 1204              		.loc 1 366 5 is_stmt 1 view .LVU382
 1205              	.LVL139:
 367:lvgl/src/misc/lv_color.c **** 
 368:lvgl/src/misc/lv_color.c ****     return colors[p][lvl];
 1206              		.loc 1 368 5 view .LVU383
 1207              		.loc 1 368 21 is_stmt 0 view .LVU384
 1208 000c 01EB8001 		add	r1, r1, r0, lsl #2
 1209              	.LVL140:
 1210              		.loc 1 368 21 view .LVU385
 1211 0010 0B4B     		ldr	r3, .L78
 1212 0012 53F82100 		ldr	r0, [r3, r1, lsl #2]
 1213              	.LVL141:
 369:lvgl/src/misc/lv_color.c **** }
 1214              		.loc 1 369 1 view .LVU386
 1215 0016 7047     		bx	lr
 1216              	.LVL142:
 1217              	.L76:
 357:lvgl/src/misc/lv_color.c ****         return lv_color_black();
 1218              		.loc 1 357 9 is_stmt 1 view .LVU387
 357:lvgl/src/misc/lv_color.c ****         return lv_color_black();
 1219              		.loc 1 357 9 view .LVU388
 357:lvgl/src/misc/lv_color.c ****         return lv_color_black();
 1220              		.loc 1 357 9 view .LVU389
 358:lvgl/src/misc/lv_color.c ****     }
 1221              		.loc 1 358 9 view .LVU390
 1222              	.LBB80:
 1223              	.LBI80:
 699:lvgl/src/misc/lv_color.h **** {
 1224              		.loc 2 699 26 view .LVU391
 1225              	.LBE80:
 1226              		.loc 2 701 5 view .LVU392
 1227              	.LBB83:
 1228              	.LBB81:
 1229              	.LBI81:
 594:lvgl/src/misc/lv_color.h **** {
 1230              		.loc 2 594 26 view .LVU393
 1231              	.LBB82:
 596:lvgl/src/misc/lv_color.h **** }
 1232              		.loc 2 596 5 view .LVU394
 596:lvgl/src/misc/lv_color.h **** }
 1233              		.loc 2 596 12 is_stmt 0 view .LVU395
 1234 0018 0020     		movs	r0, #0
 1235              	.LVL143:
 596:lvgl/src/misc/lv_color.h **** }
ARM GAS  C:\Users\OSD\AppData\Local\Temp\ccCs5vco.s 			page 44


 1236              		.loc 2 596 12 view .LVU396
 1237 001a 6FF30700 		bfc	r0, #0, #8
 1238 001e 6FF30F20 		bfc	r0, #8, #8
 1239 0022 6FF31740 		bfc	r0, #16, #8
 1240              	.LVL144:
 596:lvgl/src/misc/lv_color.h **** }
 1241              		.loc 2 596 12 view .LVU397
 1242 0026 40F07F40 		orr	r0, r0, #-16777216
 1243              	.LBE82:
 1244              	.LBE81:
 1245              	.LBE83:
 358:lvgl/src/misc/lv_color.c ****     }
 1246              		.loc 1 358 16 view .LVU398
 1247 002a 7047     		bx	lr
 1248              	.LVL145:
 1249              	.L77:
 362:lvgl/src/misc/lv_color.c ****         return lv_color_black();
 1250              		.loc 1 362 9 is_stmt 1 view .LVU399
 362:lvgl/src/misc/lv_color.c ****         return lv_color_black();
 1251              		.loc 1 362 9 view .LVU400
 362:lvgl/src/misc/lv_color.c ****         return lv_color_black();
 1252              		.loc 1 362 9 view .LVU401
 363:lvgl/src/misc/lv_color.c ****     }
 1253              		.loc 1 363 9 view .LVU402
 1254              	.LBB84:
 1255              	.LBI84:
 699:lvgl/src/misc/lv_color.h **** {
 1256              		.loc 2 699 26 view .LVU403
 1257              	.LBE84:
 1258              		.loc 2 701 5 view .LVU404
 1259              	.LBB87:
 1260              	.LBB85:
 1261              	.LBI85:
 594:lvgl/src/misc/lv_color.h **** {
 1262              		.loc 2 594 26 view .LVU405
 1263              	.LBB86:
 596:lvgl/src/misc/lv_color.h **** }
 1264              		.loc 2 596 5 view .LVU406
 596:lvgl/src/misc/lv_color.h **** }
 1265              		.loc 2 596 12 is_stmt 0 view .LVU407
 1266 002c 0020     		movs	r0, #0
 1267              	.LVL146:
 596:lvgl/src/misc/lv_color.h **** }
 1268              		.loc 2 596 12 view .LVU408
 1269 002e 6FF30700 		bfc	r0, #0, #8
 1270 0032 6FF30F20 		bfc	r0, #8, #8
 1271 0036 6FF31740 		bfc	r0, #16, #8
 1272              	.LVL147:
 596:lvgl/src/misc/lv_color.h **** }
 1273              		.loc 2 596 12 view .LVU409
 1274 003a 40F07F40 		orr	r0, r0, #-16777216
 1275              	.LBE86:
 1276              	.LBE85:
 1277              	.LBE87:
 363:lvgl/src/misc/lv_color.c ****     }
 1278              		.loc 1 363 16 view .LVU410
 1279 003e 7047     		bx	lr
ARM GAS  C:\Users\OSD\AppData\Local\Temp\ccCs5vco.s 			page 45


 1280              	.L79:
 1281              		.align	2
 1282              	.L78:
 1283 0040 00000000 		.word	.LANCHOR2
 1284              		.cfi_endproc
 1285              	.LFE27:
 1287              		.section	.rodata.colors.0,"a"
 1288              		.align	2
 1289              		.set	.LANCHOR2,. + 0
 1292              	colors.0:
 1293 0000 35       		.byte	53
 1294 0001 39       		.byte	57
 1295 0002 E5       		.byte	-27
 1296 0003 FF       		.byte	-1
 1297 0004 2F       		.byte	47
 1298 0005 2F       		.byte	47
 1299 0006 D3       		.byte	-45
 1300 0007 FF       		.byte	-1
 1301 0008 28       		.byte	40
 1302 0009 28       		.byte	40
 1303 000a C6       		.byte	-58
 1304 000b FF       		.byte	-1
 1305 000c 1C       		.byte	28
 1306 000d 1C       		.byte	28
 1307 000e B7       		.byte	-73
 1308 000f FF       		.byte	-1
 1309 0010 60       		.byte	96
 1310 0011 1B       		.byte	27
 1311 0012 D8       		.byte	-40
 1312 0013 FF       		.byte	-1
 1313 0014 5B       		.byte	91
 1314 0015 18       		.byte	24
 1315 0016 C2       		.byte	-62
 1316 0017 FF       		.byte	-1
 1317 0018 57       		.byte	87
 1318 0019 14       		.byte	20
 1319 001a AD       		.byte	-83
 1320 001b FF       		.byte	-1
 1321 001c 4F       		.byte	79
 1322 001d 0E       		.byte	14
 1323 001e 88       		.byte	-120
 1324 001f FF       		.byte	-1
 1325 0020 AA       		.byte	-86
 1326 0021 24       		.byte	36
 1327 0022 8E       		.byte	-114
 1328 0023 FF       		.byte	-1
 1329 0024 A2       		.byte	-94
 1330 0025 1F       		.byte	31
 1331 0026 7B       		.byte	123
 1332 0027 FF       		.byte	-1
 1333 0028 9A       		.byte	-102
 1334 0029 1B       		.byte	27
 1335 002a 6A       		.byte	106
 1336 002b FF       		.byte	-1
 1337 002c 8C       		.byte	-116
 1338 002d 14       		.byte	20
 1339 002e 4A       		.byte	74
ARM GAS  C:\Users\OSD\AppData\Local\Temp\ccCs5vco.s 			page 46


 1340 002f FF       		.byte	-1
 1341 0030 B1       		.byte	-79
 1342 0031 35       		.byte	53
 1343 0032 5E       		.byte	94
 1344 0033 FF       		.byte	-1
 1345 0034 A8       		.byte	-88
 1346 0035 2D       		.byte	45
 1347 0036 51       		.byte	81
 1348 0037 FF       		.byte	-1
 1349 0038 A0       		.byte	-96
 1350 0039 27       		.byte	39
 1351 003a 45       		.byte	69
 1352 003b FF       		.byte	-1
 1353 003c 92       		.byte	-110
 1354 003d 1B       		.byte	27
 1355 003e 31       		.byte	49
 1356 003f FF       		.byte	-1
 1357 0040 AB       		.byte	-85
 1358 0041 49       		.byte	73
 1359 0042 39       		.byte	57
 1360 0043 FF       		.byte	-1
 1361 0044 9F       		.byte	-97
 1362 0045 3F       		.byte	63
 1363 0046 30       		.byte	48
 1364 0047 FF       		.byte	-1
 1365 0048 93       		.byte	-109
 1366 0049 35       		.byte	53
 1367 004a 28       		.byte	40
 1368 004b FF       		.byte	-1
 1369 004c 7E       		.byte	126
 1370 004d 23       		.byte	35
 1371 004e 1A       		.byte	26
 1372 004f FF       		.byte	-1
 1373 0050 E5       		.byte	-27
 1374 0051 88       		.byte	-120
 1375 0052 1E       		.byte	30
 1376 0053 FF       		.byte	-1
 1377 0054 D2       		.byte	-46
 1378 0055 76       		.byte	118
 1379 0056 19       		.byte	25
 1380 0057 FF       		.byte	-1
 1381 0058 C0       		.byte	-64
 1382 0059 65       		.byte	101
 1383 005a 15       		.byte	21
 1384 005b FF       		.byte	-1
 1385 005c A1       		.byte	-95
 1386 005d 47       		.byte	71
 1387 005e 0D       		.byte	13
 1388 005f FF       		.byte	-1
 1389 0060 E5       		.byte	-27
 1390 0061 9B       		.byte	-101
 1391 0062 03       		.byte	3
 1392 0063 FF       		.byte	-1
 1393 0064 D1       		.byte	-47
 1394 0065 88       		.byte	-120
 1395 0066 02       		.byte	2
 1396 0067 FF       		.byte	-1
ARM GAS  C:\Users\OSD\AppData\Local\Temp\ccCs5vco.s 			page 47


 1397 0068 BD       		.byte	-67
 1398 0069 77       		.byte	119
 1399 006a 02       		.byte	2
 1400 006b FF       		.byte	-1
 1401 006c 9B       		.byte	-101
 1402 006d 57       		.byte	87
 1403 006e 01       		.byte	1
 1404 006f FF       		.byte	-1
 1405 0070 C1       		.byte	-63
 1406 0071 AC       		.byte	-84
 1407 0072 00       		.byte	0
 1408 0073 FF       		.byte	-1
 1409 0074 A7       		.byte	-89
 1410 0075 97       		.byte	-105
 1411 0076 00       		.byte	0
 1412 0077 FF       		.byte	-1
 1413 0078 8F       		.byte	-113
 1414 0079 83       		.byte	-125
 1415 007a 00       		.byte	0
 1416 007b FF       		.byte	-1
 1417 007c 64       		.byte	100
 1418 007d 60       		.byte	96
 1419 007e 00       		.byte	0
 1420 007f FF       		.byte	-1
 1421 0080 7B       		.byte	123
 1422 0081 89       		.byte	-119
 1423 0082 00       		.byte	0
 1424 0083 FF       		.byte	-1
 1425 0084 6B       		.byte	107
 1426 0085 79       		.byte	121
 1427 0086 00       		.byte	0
 1428 0087 FF       		.byte	-1
 1429 0088 5C       		.byte	92
 1430 0089 69       		.byte	105
 1431 008a 00       		.byte	0
 1432 008b FF       		.byte	-1
 1433 008c 40       		.byte	64
 1434 008d 4D       		.byte	77
 1435 008e 00       		.byte	0
 1436 008f FF       		.byte	-1
 1437 0090 47       		.byte	71
 1438 0091 A0       		.byte	-96
 1439 0092 43       		.byte	67
 1440 0093 FF       		.byte	-1
 1441 0094 3C       		.byte	60
 1442 0095 8E       		.byte	-114
 1443 0096 38       		.byte	56
 1444 0097 FF       		.byte	-1
 1445 0098 32       		.byte	50
 1446 0099 7D       		.byte	125
 1447 009a 2E       		.byte	46
 1448 009b FF       		.byte	-1
 1449 009c 20       		.byte	32
 1450 009d 5E       		.byte	94
 1451 009e 1B       		.byte	27
 1452 009f FF       		.byte	-1
 1453 00a0 42       		.byte	66
ARM GAS  C:\Users\OSD\AppData\Local\Temp\ccCs5vco.s 			page 48


 1454 00a1 B3       		.byte	-77
 1455 00a2 7C       		.byte	124
 1456 00a3 FF       		.byte	-1
 1457 00a4 38       		.byte	56
 1458 00a5 9F       		.byte	-97
 1459 00a6 68       		.byte	104
 1460 00a7 FF       		.byte	-1
 1461 00a8 2F       		.byte	47
 1462 00a9 8B       		.byte	-117
 1463 00aa 55       		.byte	85
 1464 00ab FF       		.byte	-1
 1465 00ac 1E       		.byte	30
 1466 00ad 69       		.byte	105
 1467 00ae 33       		.byte	51
 1468 00af FF       		.byte	-1
 1469 00b0 33       		.byte	51
 1470 00b1 CA       		.byte	-54
 1471 00b2 C0       		.byte	-64
 1472 00b3 FF       		.byte	-1
 1473 00b4 2B       		.byte	43
 1474 00b5 B4       		.byte	-76
 1475 00b6 AF       		.byte	-81
 1476 00b7 FF       		.byte	-1
 1477 00b8 24       		.byte	36
 1478 00b9 9D       		.byte	-99
 1479 00ba 9E       		.byte	-98
 1480 00bb FF       		.byte	-1
 1481 00bc 17       		.byte	23
 1482 00bd 77       		.byte	119
 1483 00be 82       		.byte	-126
 1484 00bf FF       		.byte	-1
 1485 00c0 35       		.byte	53
 1486 00c1 D8       		.byte	-40
 1487 00c2 FD       		.byte	-3
 1488 00c3 FF       		.byte	-1
 1489 00c4 2D       		.byte	45
 1490 00c5 C0       		.byte	-64
 1491 00c6 FB       		.byte	-5
 1492 00c7 FF       		.byte	-1
 1493 00c8 25       		.byte	37
 1494 00c9 A8       		.byte	-88
 1495 00ca F9       		.byte	-7
 1496 00cb FF       		.byte	-1
 1497 00cc 17       		.byte	23
 1498 00cd 7F       		.byte	127
 1499 00ce F5       		.byte	-11
 1500 00cf FF       		.byte	-1
 1501 00d0 00       		.byte	0
 1502 00d1 B3       		.byte	-77
 1503 00d2 FF       		.byte	-1
 1504 00d3 FF       		.byte	-1
 1505 00d4 00       		.byte	0
 1506 00d5 A0       		.byte	-96
 1507 00d6 FF       		.byte	-1
 1508 00d7 FF       		.byte	-1
 1509 00d8 00       		.byte	0
 1510 00d9 8F       		.byte	-113
ARM GAS  C:\Users\OSD\AppData\Local\Temp\ccCs5vco.s 			page 49


 1511 00da FF       		.byte	-1
 1512 00db FF       		.byte	-1
 1513 00dc 00       		.byte	0
 1514 00dd 6F       		.byte	111
 1515 00de FF       		.byte	-1
 1516 00df FF       		.byte	-1
 1517 00e0 00       		.byte	0
 1518 00e1 8C       		.byte	-116
 1519 00e2 FB       		.byte	-5
 1520 00e3 FF       		.byte	-1
 1521 00e4 00       		.byte	0
 1522 00e5 7C       		.byte	124
 1523 00e6 F5       		.byte	-11
 1524 00e7 FF       		.byte	-1
 1525 00e8 00       		.byte	0
 1526 00e9 6C       		.byte	108
 1527 00ea EF       		.byte	-17
 1528 00eb FF       		.byte	-1
 1529 00ec 00       		.byte	0
 1530 00ed 51       		.byte	81
 1531 00ee E6       		.byte	-26
 1532 00ef FF       		.byte	-1
 1533 00f0 1E       		.byte	30
 1534 00f1 51       		.byte	81
 1535 00f2 F4       		.byte	-12
 1536 00f3 FF       		.byte	-1
 1537 00f4 19       		.byte	25
 1538 00f5 4A       		.byte	74
 1539 00f6 E6       		.byte	-26
 1540 00f7 FF       		.byte	-1
 1541 00f8 15       		.byte	21
 1542 00f9 43       		.byte	67
 1543 00fa D8       		.byte	-40
 1544 00fb FF       		.byte	-1
 1545 00fc 0C       		.byte	12
 1546 00fd 36       		.byte	54
 1547 00fe BF       		.byte	-65
 1548 00ff FF       		.byte	-1
 1549 0100 41       		.byte	65
 1550 0101 4C       		.byte	76
 1551 0102 6D       		.byte	109
 1552 0103 FF       		.byte	-1
 1553 0104 37       		.byte	55
 1554 0105 40       		.byte	64
 1555 0106 5D       		.byte	93
 1556 0107 FF       		.byte	-1
 1557 0108 2E       		.byte	46
 1558 0109 34       		.byte	52
 1559 010a 4E       		.byte	78
 1560 010b FF       		.byte	-1
 1561 010c 23       		.byte	35
 1562 010d 27       		.byte	39
 1563 010e 3E       		.byte	62
 1564 010f FF       		.byte	-1
 1565 0110 7A       		.byte	122
 1566 0111 6E       		.byte	110
 1567 0112 54       		.byte	84
ARM GAS  C:\Users\OSD\AppData\Local\Temp\ccCs5vco.s 			page 50


 1568 0113 FF       		.byte	-1
 1569 0114 64       		.byte	100
 1570 0115 5A       		.byte	90
 1571 0116 45       		.byte	69
 1572 0117 FF       		.byte	-1
 1573 0118 4F       		.byte	79
 1574 0119 47       		.byte	71
 1575 011a 37       		.byte	55
 1576 011b FF       		.byte	-1
 1577 011c 38       		.byte	56
 1578 011d 32       		.byte	50
 1579 011e 26       		.byte	38
 1580 011f FF       		.byte	-1
 1581 0120 75       		.byte	117
 1582 0121 75       		.byte	117
 1583 0122 75       		.byte	117
 1584 0123 FF       		.byte	-1
 1585 0124 61       		.byte	97
 1586 0125 61       		.byte	97
 1587 0126 61       		.byte	97
 1588 0127 FF       		.byte	-1
 1589 0128 42       		.byte	66
 1590 0129 42       		.byte	66
 1591 012a 42       		.byte	66
 1592 012b FF       		.byte	-1
 1593 012c 21       		.byte	33
 1594 012d 21       		.byte	33
 1595 012e 21       		.byte	33
 1596 012f FF       		.byte	-1
 1597              		.section	.rodata.colors.1,"a"
 1598              		.align	2
 1599              		.set	.LANCHOR1,. + 0
 1602              	colors.1:
 1603 0000 50       		.byte	80
 1604 0001 53       		.byte	83
 1605 0002 EF       		.byte	-17
 1606 0003 FF       		.byte	-1
 1607 0004 73       		.byte	115
 1608 0005 73       		.byte	115
 1609 0006 E5       		.byte	-27
 1610 0007 FF       		.byte	-1
 1611 0008 9A       		.byte	-102
 1612 0009 9A       		.byte	-102
 1613 000a EF       		.byte	-17
 1614 000b FF       		.byte	-1
 1615 000c D2       		.byte	-46
 1616 000d CD       		.byte	-51
 1617 000e FF       		.byte	-1
 1618 000f FF       		.byte	-1
 1619 0010 EE       		.byte	-18
 1620 0011 EB       		.byte	-21
 1621 0012 FF       		.byte	-1
 1622 0013 FF       		.byte	-1
 1623 0014 7A       		.byte	122
 1624 0015 40       		.byte	64
 1625 0016 EC       		.byte	-20
 1626 0017 FF       		.byte	-1
ARM GAS  C:\Users\OSD\AppData\Local\Temp\ccCs5vco.s 			page 51


 1627 0018 92       		.byte	-110
 1628 0019 62       		.byte	98
 1629 001a F0       		.byte	-16
 1630 001b FF       		.byte	-1
 1631 001c B1       		.byte	-79
 1632 001d 8F       		.byte	-113
 1633 001e F4       		.byte	-12
 1634 001f FF       		.byte	-1
 1635 0020 D0       		.byte	-48
 1636 0021 BB       		.byte	-69
 1637 0022 F8       		.byte	-8
 1638 0023 FF       		.byte	-1
 1639 0024 EC       		.byte	-20
 1640 0025 E4       		.byte	-28
 1641 0026 FC       		.byte	-4
 1642 0027 FF       		.byte	-1
 1643 0028 BC       		.byte	-68
 1644 0029 47       		.byte	71
 1645 002a AB       		.byte	-85
 1646 002b FF       		.byte	-1
 1647 002c C8       		.byte	-56
 1648 002d 68       		.byte	104
 1649 002e BA       		.byte	-70
 1650 002f FF       		.byte	-1
 1651 0030 D8       		.byte	-40
 1652 0031 93       		.byte	-109
 1653 0032 CE       		.byte	-50
 1654 0033 FF       		.byte	-1
 1655 0034 E7       		.byte	-25
 1656 0035 BE       		.byte	-66
 1657 0036 E1       		.byte	-31
 1658 0037 FF       		.byte	-1
 1659 0038 F5       		.byte	-11
 1660 0039 E5       		.byte	-27
 1661 003a F3       		.byte	-13
 1662 003b FF       		.byte	-1
 1663 003c C2       		.byte	-62
 1664 003d 57       		.byte	87
 1665 003e 7E       		.byte	126
 1666 003f FF       		.byte	-1
 1667 0040 CD       		.byte	-51
 1668 0041 75       		.byte	117
 1669 0042 95       		.byte	-107
 1670 0043 FF       		.byte	-1
 1671 0044 DB       		.byte	-37
 1672 0045 9D       		.byte	-99
 1673 0046 B3       		.byte	-77
 1674 0047 FF       		.byte	-1
 1675 0048 E9       		.byte	-23
 1676 0049 C4       		.byte	-60
 1677 004a D1       		.byte	-47
 1678 004b FF       		.byte	-1
 1679 004c F6       		.byte	-10
 1680 004d E7       		.byte	-25
 1681 004e ED       		.byte	-19
 1682 004f FF       		.byte	-1
 1683 0050 C0       		.byte	-64
ARM GAS  C:\Users\OSD\AppData\Local\Temp\ccCs5vco.s 			page 52


 1684 0051 6B       		.byte	107
 1685 0052 5C       		.byte	92
 1686 0053 FF       		.byte	-1
 1687 0054 CB       		.byte	-53
 1688 0055 86       		.byte	-122
 1689 0056 79       		.byte	121
 1690 0057 FF       		.byte	-1
 1691 0058 DA       		.byte	-38
 1692 0059 A8       		.byte	-88
 1693 005a 9F       		.byte	-97
 1694 005b FF       		.byte	-1
 1695 005c E9       		.byte	-23
 1696 005d CA       		.byte	-54
 1697 005e C5       		.byte	-59
 1698 005f FF       		.byte	-1
 1699 0060 F6       		.byte	-10
 1700 0061 EA       		.byte	-22
 1701 0062 E8       		.byte	-24
 1702 0063 FF       		.byte	-1
 1703 0064 F5       		.byte	-11
 1704 0065 A5       		.byte	-91
 1705 0066 42       		.byte	66
 1706 0067 FF       		.byte	-1
 1707 0068 F6       		.byte	-10
 1708 0069 B5       		.byte	-75
 1709 006a 64       		.byte	100
 1710 006b FF       		.byte	-1
 1711 006c F9       		.byte	-7
 1712 006d CA       		.byte	-54
 1713 006e 90       		.byte	-112
 1714 006f FF       		.byte	-1
 1715 0070 FB       		.byte	-5
 1716 0071 DE       		.byte	-34
 1717 0072 BB       		.byte	-69
 1718 0073 FF       		.byte	-1
 1719 0074 FD       		.byte	-3
 1720 0075 F2       		.byte	-14
 1721 0076 E3       		.byte	-29
 1722 0077 FF       		.byte	-1
 1723 0078 F6       		.byte	-10
 1724 0079 B6       		.byte	-74
 1725 007a 29       		.byte	41
 1726 007b FF       		.byte	-1
 1727 007c F7       		.byte	-9
 1728 007d C3       		.byte	-61
 1729 007e 4F       		.byte	79
 1730 007f FF       		.byte	-1
 1731 0080 FA       		.byte	-6
 1732 0081 D4       		.byte	-44
 1733 0082 81       		.byte	-127
 1734 0083 FF       		.byte	-1
 1735 0084 FC       		.byte	-4
 1736 0085 E5       		.byte	-27
 1737 0086 B3       		.byte	-77
 1738 0087 FF       		.byte	-1
 1739 0088 FE       		.byte	-2
 1740 0089 F5       		.byte	-11
ARM GAS  C:\Users\OSD\AppData\Local\Temp\ccCs5vco.s 			page 53


 1741 008a E1       		.byte	-31
 1742 008b FF       		.byte	-1
 1743 008c DA       		.byte	-38
 1744 008d C6       		.byte	-58
 1745 008e 26       		.byte	38
 1746 008f FF       		.byte	-1
 1747 0090 E1       		.byte	-31
 1748 0091 D0       		.byte	-48
 1749 0092 4D       		.byte	77
 1750 0093 FF       		.byte	-1
 1751 0094 EA       		.byte	-22
 1752 0095 DE       		.byte	-34
 1753 0096 80       		.byte	-128
 1754 0097 FF       		.byte	-1
 1755 0098 F2       		.byte	-14
 1756 0099 EB       		.byte	-21
 1757 009a B2       		.byte	-78
 1758 009b FF       		.byte	-1
 1759 009c FA       		.byte	-6
 1760 009d F7       		.byte	-9
 1761 009e E0       		.byte	-32
 1762 009f FF       		.byte	-1
 1763 00a0 9A       		.byte	-102
 1764 00a1 A6       		.byte	-90
 1765 00a2 26       		.byte	38
 1766 00a3 FF       		.byte	-1
 1767 00a4 AC       		.byte	-84
 1768 00a5 B6       		.byte	-74
 1769 00a6 4D       		.byte	77
 1770 00a7 FF       		.byte	-1
 1771 00a8 C4       		.byte	-60
 1772 00a9 CB       		.byte	-53
 1773 00aa 80       		.byte	-128
 1774 00ab FF       		.byte	-1
 1775 00ac DB       		.byte	-37
 1776 00ad DF       		.byte	-33
 1777 00ae B2       		.byte	-78
 1778 00af FF       		.byte	-1
 1779 00b0 F1       		.byte	-15
 1780 00b1 F2       		.byte	-14
 1781 00b2 E0       		.byte	-32
 1782 00b3 FF       		.byte	-1
 1783 00b4 6A       		.byte	106
 1784 00b5 BB       		.byte	-69
 1785 00b6 66       		.byte	102
 1786 00b7 FF       		.byte	-1
 1787 00b8 84       		.byte	-124
 1788 00b9 C7       		.byte	-57
 1789 00ba 81       		.byte	-127
 1790 00bb FF       		.byte	-1
 1791 00bc A7       		.byte	-89
 1792 00bd D6       		.byte	-42
 1793 00be A5       		.byte	-91
 1794 00bf FF       		.byte	-1
 1795 00c0 C9       		.byte	-55
 1796 00c1 E6       		.byte	-26
 1797 00c2 C8       		.byte	-56
ARM GAS  C:\Users\OSD\AppData\Local\Temp\ccCs5vco.s 			page 54


 1798 00c3 FF       		.byte	-1
 1799 00c4 E9       		.byte	-23
 1800 00c5 F5       		.byte	-11
 1801 00c6 E8       		.byte	-24
 1802 00c7 FF       		.byte	-1
 1803 00c8 65       		.byte	101
 1804 00c9 CC       		.byte	-52
 1805 00ca 9C       		.byte	-100
 1806 00cb FF       		.byte	-1
 1807 00cc 81       		.byte	-127
 1808 00cd D5       		.byte	-43
 1809 00ce AE       		.byte	-82
 1810 00cf FF       		.byte	-1
 1811 00d0 A5       		.byte	-91
 1812 00d1 E1       		.byte	-31
 1813 00d2 C5       		.byte	-59
 1814 00d3 FF       		.byte	-1
 1815 00d4 C8       		.byte	-56
 1816 00d5 ED       		.byte	-19
 1817 00d6 DC       		.byte	-36
 1818 00d7 FF       		.byte	-1
 1819 00d8 E9       		.byte	-23
 1820 00d9 F8       		.byte	-8
 1821 00da F1       		.byte	-15
 1822 00db FF       		.byte	-1
 1823 00dc 57       		.byte	87
 1824 00dd E1       		.byte	-31
 1825 00de D4       		.byte	-44
 1826 00df FF       		.byte	-1
 1827 00e0 75       		.byte	117
 1828 00e1 E7       		.byte	-25
 1829 00e2 DC       		.byte	-36
 1830 00e3 FF       		.byte	-1
 1831 00e4 9C       		.byte	-100
 1832 00e5 EE       		.byte	-18
 1833 00e6 E6       		.byte	-26
 1834 00e7 FF       		.byte	-1
 1835 00e8 C3       		.byte	-61
 1836 00e9 F4       		.byte	-12
 1837 00ea F0       		.byte	-16
 1838 00eb FF       		.byte	-1
 1839 00ec E7       		.byte	-25
 1840 00ed FB       		.byte	-5
 1841 00ee F9       		.byte	-7
 1842 00ef FF       		.byte	-1
 1843 00f0 58       		.byte	88
 1844 00f1 EE       		.byte	-18
 1845 00f2 FF       		.byte	-1
 1846 00f3 FF       		.byte	-1
 1847 00f4 76       		.byte	118
 1848 00f5 F1       		.byte	-15
 1849 00f6 FF       		.byte	-1
 1850 00f7 FF       		.byte	-1
 1851 00f8 9D       		.byte	-99
 1852 00f9 F5       		.byte	-11
 1853 00fa FF       		.byte	-1
 1854 00fb FF       		.byte	-1
ARM GAS  C:\Users\OSD\AppData\Local\Temp\ccCs5vco.s 			page 55


 1855 00fc C4       		.byte	-60
 1856 00fd F9       		.byte	-7
 1857 00fe FF       		.byte	-1
 1858 00ff FF       		.byte	-1
 1859 0100 E7       		.byte	-25
 1860 0101 FD       		.byte	-3
 1861 0102 FF       		.byte	-1
 1862 0103 FF       		.byte	-1
 1863 0104 28       		.byte	40
 1864 0105 CA       		.byte	-54
 1865 0106 FF       		.byte	-1
 1866 0107 FF       		.byte	-1
 1867 0108 4F       		.byte	79
 1868 0109 D5       		.byte	-43
 1869 010a FF       		.byte	-1
 1870 010b FF       		.byte	-1
 1871 010c 82       		.byte	-126
 1872 010d E0       		.byte	-32
 1873 010e FF       		.byte	-1
 1874 010f FF       		.byte	-1
 1875 0110 B3       		.byte	-77
 1876 0111 EC       		.byte	-20
 1877 0112 FF       		.byte	-1
 1878 0113 FF       		.byte	-1
 1879 0114 E1       		.byte	-31
 1880 0115 F8       		.byte	-8
 1881 0116 FF       		.byte	-1
 1882 0117 FF       		.byte	-1
 1883 0118 26       		.byte	38
 1884 0119 A7       		.byte	-89
 1885 011a FF       		.byte	-1
 1886 011b FF       		.byte	-1
 1887 011c 4D       		.byte	77
 1888 011d B7       		.byte	-73
 1889 011e FF       		.byte	-1
 1890 011f FF       		.byte	-1
 1891 0120 80       		.byte	-128
 1892 0121 CC       		.byte	-52
 1893 0122 FF       		.byte	-1
 1894 0123 FF       		.byte	-1
 1895 0124 B2       		.byte	-78
 1896 0125 E0       		.byte	-32
 1897 0126 FF       		.byte	-1
 1898 0127 FF       		.byte	-1
 1899 0128 E0       		.byte	-32
 1900 0129 F3       		.byte	-13
 1901 012a FF       		.byte	-1
 1902 012b FF       		.byte	-1
 1903 012c 43       		.byte	67
 1904 012d 70       		.byte	112
 1905 012e FF       		.byte	-1
 1906 012f FF       		.byte	-1
 1907 0130 65       		.byte	101
 1908 0131 8A       		.byte	-118
 1909 0132 FF       		.byte	-1
 1910 0133 FF       		.byte	-1
 1911 0134 91       		.byte	-111
ARM GAS  C:\Users\OSD\AppData\Local\Temp\ccCs5vco.s 			page 56


 1912 0135 AB       		.byte	-85
 1913 0136 FF       		.byte	-1
 1914 0137 FF       		.byte	-1
 1915 0138 BC       		.byte	-68
 1916 0139 CC       		.byte	-52
 1917 013a FF       		.byte	-1
 1918 013b FF       		.byte	-1
 1919 013c E7       		.byte	-25
 1920 013d E9       		.byte	-23
 1921 013e FB       		.byte	-5
 1922 013f FF       		.byte	-1
 1923 0140 63       		.byte	99
 1924 0141 6E       		.byte	110
 1925 0142 8D       		.byte	-115
 1926 0143 FF       		.byte	-1
 1927 0144 7F       		.byte	127
 1928 0145 88       		.byte	-120
 1929 0146 A1       		.byte	-95
 1930 0147 FF       		.byte	-1
 1931 0148 A4       		.byte	-92
 1932 0149 AA       		.byte	-86
 1933 014a BC       		.byte	-68
 1934 014b FF       		.byte	-1
 1935 014c C8       		.byte	-56
 1936 014d CC       		.byte	-52
 1937 014e D7       		.byte	-41
 1938 014f FF       		.byte	-1
 1939 0150 E9       		.byte	-23
 1940 0151 EB       		.byte	-21
 1941 0152 EF       		.byte	-17
 1942 0153 FF       		.byte	-1
 1943 0154 9C       		.byte	-100
 1944 0155 90       		.byte	-112
 1945 0156 78       		.byte	120
 1946 0157 FF       		.byte	-1
 1947 0158 AE       		.byte	-82
 1948 0159 A4       		.byte	-92
 1949 015a 90       		.byte	-112
 1950 015b FF       		.byte	-1
 1951 015c C5       		.byte	-59
 1952 015d BE       		.byte	-66
 1953 015e B0       		.byte	-80
 1954 015f FF       		.byte	-1
 1955 0160 DC       		.byte	-36
 1956 0161 D8       		.byte	-40
 1957 0162 CF       		.byte	-49
 1958 0163 FF       		.byte	-1
 1959 0164 F1       		.byte	-15
 1960 0165 EF       		.byte	-17
 1961 0166 EC       		.byte	-20
 1962 0167 FF       		.byte	-1
 1963 0168 BD       		.byte	-67
 1964 0169 BD       		.byte	-67
 1965 016a BD       		.byte	-67
 1966 016b FF       		.byte	-1
 1967 016c E0       		.byte	-32
 1968 016d E0       		.byte	-32
ARM GAS  C:\Users\OSD\AppData\Local\Temp\ccCs5vco.s 			page 57


 1969 016e E0       		.byte	-32
 1970 016f FF       		.byte	-1
 1971 0170 EE       		.byte	-18
 1972 0171 EE       		.byte	-18
 1973 0172 EE       		.byte	-18
 1974 0173 FF       		.byte	-1
 1975 0174 F5       		.byte	-11
 1976 0175 F5       		.byte	-11
 1977 0176 F5       		.byte	-11
 1978 0177 FF       		.byte	-1
 1979 0178 FA       		.byte	-6
 1980 0179 FA       		.byte	-6
 1981 017a FA       		.byte	-6
 1982 017b FF       		.byte	-1
 1983              		.section	.rodata.colors.2,"a"
 1984              		.align	2
 1985              		.set	.LANCHOR0,. + 0
 1988              	colors.2:
 1989 0000 36       		.byte	54
 1990 0001 43       		.byte	67
 1991 0002 F4       		.byte	-12
 1992 0003 FF       		.byte	-1
 1993 0004 63       		.byte	99
 1994 0005 1E       		.byte	30
 1995 0006 E9       		.byte	-23
 1996 0007 FF       		.byte	-1
 1997 0008 B0       		.byte	-80
 1998 0009 27       		.byte	39
 1999 000a 9C       		.byte	-100
 2000 000b FF       		.byte	-1
 2001 000c B7       		.byte	-73
 2002 000d 3A       		.byte	58
 2003 000e 67       		.byte	103
 2004 000f FF       		.byte	-1
 2005 0010 B5       		.byte	-75
 2006 0011 51       		.byte	81
 2007 0012 3F       		.byte	63
 2008 0013 FF       		.byte	-1
 2009 0014 F3       		.byte	-13
 2010 0015 96       		.byte	-106
 2011 0016 21       		.byte	33
 2012 0017 FF       		.byte	-1
 2013 0018 F4       		.byte	-12
 2014 0019 A9       		.byte	-87
 2015 001a 03       		.byte	3
 2016 001b FF       		.byte	-1
 2017 001c D4       		.byte	-44
 2018 001d BC       		.byte	-68
 2019 001e 00       		.byte	0
 2020 001f FF       		.byte	-1
 2021 0020 88       		.byte	-120
 2022 0021 96       		.byte	-106
 2023 0022 00       		.byte	0
 2024 0023 FF       		.byte	-1
 2025 0024 50       		.byte	80
 2026 0025 AF       		.byte	-81
 2027 0026 4C       		.byte	76
ARM GAS  C:\Users\OSD\AppData\Local\Temp\ccCs5vco.s 			page 58


 2028 0027 FF       		.byte	-1
 2029 0028 4A       		.byte	74
 2030 0029 C3       		.byte	-61
 2031 002a 8B       		.byte	-117
 2032 002b FF       		.byte	-1
 2033 002c 39       		.byte	57
 2034 002d DC       		.byte	-36
 2035 002e CD       		.byte	-51
 2036 002f FF       		.byte	-1
 2037 0030 3B       		.byte	59
 2038 0031 EB       		.byte	-21
 2039 0032 FF       		.byte	-1
 2040 0033 FF       		.byte	-1
 2041 0034 07       		.byte	7
 2042 0035 C1       		.byte	-63
 2043 0036 FF       		.byte	-1
 2044 0037 FF       		.byte	-1
 2045 0038 00       		.byte	0
 2046 0039 98       		.byte	-104
 2047 003a FF       		.byte	-1
 2048 003b FF       		.byte	-1
 2049 003c 22       		.byte	34
 2050 003d 57       		.byte	87
 2051 003e FF       		.byte	-1
 2052 003f FF       		.byte	-1
 2053 0040 48       		.byte	72
 2054 0041 55       		.byte	85
 2055 0042 79       		.byte	121
 2056 0043 FF       		.byte	-1
 2057 0044 8B       		.byte	-117
 2058 0045 7D       		.byte	125
 2059 0046 60       		.byte	96
 2060 0047 FF       		.byte	-1
 2061 0048 9E       		.byte	-98
 2062 0049 9E       		.byte	-98
 2063 004a 9E       		.byte	-98
 2064 004b FF       		.byte	-1
 2065              		.text
 2066              	.Letext0:
 2067              		.file 3 "c:\\tools\\gcc-arm-none-eabi\\arm-none-eabi\\include\\machine\\_default_types.h"
 2068              		.file 4 "c:\\tools\\gcc-arm-none-eabi\\arm-none-eabi\\include\\sys\\_stdint.h"
ARM GAS  C:\Users\OSD\AppData\Local\Temp\ccCs5vco.s 			page 59

