ARM GAS  C:\Users\OSD\AppData\Local\Temp\ccZwg2pL.s 			page 1


   1              		.cpu cortex-m7
   2              		.arch armv7e-m
   3              		.fpu fpv5-d16
   4              		.eabi_attribute 28, 1
   5              		.eabi_attribute 20, 1
   6              		.eabi_attribute 21, 1
   7              		.eabi_attribute 23, 3
   8              		.eabi_attribute 24, 1
   9              		.eabi_attribute 25, 1
  10              		.eabi_attribute 26, 1
  11              		.eabi_attribute 30, 1
  12              		.eabi_attribute 34, 1
  13              		.eabi_attribute 18, 4
  14              		.file	"lv_calendar_header_arrow.c"
  15              		.text
  16              	.Ltext0:
  17              		.cfi_sections	.debug_frame
  18              		.section	.rodata.my_constructor.str1.4,"aMS",%progbits,1
  19              		.align	2
  20              	.LC0:
  21 0000 EF819300 		.ascii	"\357\201\223\000"
  22              		.align	2
  23              	.LC1:
  24 0004 EF819400 		.ascii	"\357\201\224\000"
  25              		.section	.text.my_constructor,"ax",%progbits
  26              		.align	1
  27              		.syntax unified
  28              		.thumb
  29              		.thumb_func
  31              	my_constructor:
  32              	.LVL0:
  33              	.LFB167:
  34              		.file 1 "lvgl/src/extra/widgets/calendar/lv_calendar_header_arrow.c"
   1:lvgl/src/extra/widgets/calendar/lv_calendar_header_arrow.c **** /**
   2:lvgl/src/extra/widgets/calendar/lv_calendar_header_arrow.c ****  * @file lv_calendar_header_arrow.c
   3:lvgl/src/extra/widgets/calendar/lv_calendar_header_arrow.c ****  *
   4:lvgl/src/extra/widgets/calendar/lv_calendar_header_arrow.c ****  */
   5:lvgl/src/extra/widgets/calendar/lv_calendar_header_arrow.c **** 
   6:lvgl/src/extra/widgets/calendar/lv_calendar_header_arrow.c **** /*********************
   7:lvgl/src/extra/widgets/calendar/lv_calendar_header_arrow.c ****  *      INCLUDES
   8:lvgl/src/extra/widgets/calendar/lv_calendar_header_arrow.c ****  *********************/
   9:lvgl/src/extra/widgets/calendar/lv_calendar_header_arrow.c **** #include "lv_calendar_header_arrow.h"
  10:lvgl/src/extra/widgets/calendar/lv_calendar_header_arrow.c **** #if LV_USE_CALENDAR_HEADER_ARROW
  11:lvgl/src/extra/widgets/calendar/lv_calendar_header_arrow.c **** 
  12:lvgl/src/extra/widgets/calendar/lv_calendar_header_arrow.c **** #include "lv_calendar.h"
  13:lvgl/src/extra/widgets/calendar/lv_calendar_header_arrow.c **** #include "../../../widgets/lv_btn.h"
  14:lvgl/src/extra/widgets/calendar/lv_calendar_header_arrow.c **** #include "../../../widgets/lv_label.h"
  15:lvgl/src/extra/widgets/calendar/lv_calendar_header_arrow.c **** #include "../../layouts/flex/lv_flex.h"
  16:lvgl/src/extra/widgets/calendar/lv_calendar_header_arrow.c **** 
  17:lvgl/src/extra/widgets/calendar/lv_calendar_header_arrow.c **** /*********************
  18:lvgl/src/extra/widgets/calendar/lv_calendar_header_arrow.c ****  *      DEFINES
  19:lvgl/src/extra/widgets/calendar/lv_calendar_header_arrow.c ****  *********************/
  20:lvgl/src/extra/widgets/calendar/lv_calendar_header_arrow.c **** 
  21:lvgl/src/extra/widgets/calendar/lv_calendar_header_arrow.c **** /**********************
  22:lvgl/src/extra/widgets/calendar/lv_calendar_header_arrow.c ****  *      TYPEDEFS
  23:lvgl/src/extra/widgets/calendar/lv_calendar_header_arrow.c ****  **********************/
  24:lvgl/src/extra/widgets/calendar/lv_calendar_header_arrow.c **** 
ARM GAS  C:\Users\OSD\AppData\Local\Temp\ccZwg2pL.s 			page 2


  25:lvgl/src/extra/widgets/calendar/lv_calendar_header_arrow.c **** /**********************
  26:lvgl/src/extra/widgets/calendar/lv_calendar_header_arrow.c ****  *  STATIC PROTOTYPES
  27:lvgl/src/extra/widgets/calendar/lv_calendar_header_arrow.c ****  **********************/
  28:lvgl/src/extra/widgets/calendar/lv_calendar_header_arrow.c **** static void my_constructor(const lv_obj_class_t * class_p, lv_obj_t * obj);
  29:lvgl/src/extra/widgets/calendar/lv_calendar_header_arrow.c **** static void month_event_cb(lv_event_t * e);
  30:lvgl/src/extra/widgets/calendar/lv_calendar_header_arrow.c **** static void value_changed_event_cb(lv_event_t * e);
  31:lvgl/src/extra/widgets/calendar/lv_calendar_header_arrow.c **** 
  32:lvgl/src/extra/widgets/calendar/lv_calendar_header_arrow.c **** /**********************
  33:lvgl/src/extra/widgets/calendar/lv_calendar_header_arrow.c ****  *  STATIC VARIABLES
  34:lvgl/src/extra/widgets/calendar/lv_calendar_header_arrow.c ****  **********************/
  35:lvgl/src/extra/widgets/calendar/lv_calendar_header_arrow.c **** const lv_obj_class_t lv_calendar_header_arrow_class = {
  36:lvgl/src/extra/widgets/calendar/lv_calendar_header_arrow.c ****     .base_class = &lv_obj_class,
  37:lvgl/src/extra/widgets/calendar/lv_calendar_header_arrow.c ****     .constructor_cb = my_constructor,
  38:lvgl/src/extra/widgets/calendar/lv_calendar_header_arrow.c ****     .width_def = LV_PCT(100),
  39:lvgl/src/extra/widgets/calendar/lv_calendar_header_arrow.c ****     .height_def = LV_DPI_DEF / 3
  40:lvgl/src/extra/widgets/calendar/lv_calendar_header_arrow.c **** };
  41:lvgl/src/extra/widgets/calendar/lv_calendar_header_arrow.c **** 
  42:lvgl/src/extra/widgets/calendar/lv_calendar_header_arrow.c **** static const char * month_names_def[12] = LV_CALENDAR_DEFAULT_MONTH_NAMES;
  43:lvgl/src/extra/widgets/calendar/lv_calendar_header_arrow.c **** 
  44:lvgl/src/extra/widgets/calendar/lv_calendar_header_arrow.c **** /**********************
  45:lvgl/src/extra/widgets/calendar/lv_calendar_header_arrow.c ****  *      MACROS
  46:lvgl/src/extra/widgets/calendar/lv_calendar_header_arrow.c ****  **********************/
  47:lvgl/src/extra/widgets/calendar/lv_calendar_header_arrow.c **** 
  48:lvgl/src/extra/widgets/calendar/lv_calendar_header_arrow.c **** /**********************
  49:lvgl/src/extra/widgets/calendar/lv_calendar_header_arrow.c ****  *   GLOBAL FUNCTIONS
  50:lvgl/src/extra/widgets/calendar/lv_calendar_header_arrow.c ****  **********************/
  51:lvgl/src/extra/widgets/calendar/lv_calendar_header_arrow.c **** 
  52:lvgl/src/extra/widgets/calendar/lv_calendar_header_arrow.c **** lv_obj_t * lv_calendar_header_arrow_create(lv_obj_t * parent)
  53:lvgl/src/extra/widgets/calendar/lv_calendar_header_arrow.c **** {
  54:lvgl/src/extra/widgets/calendar/lv_calendar_header_arrow.c ****     lv_obj_t * obj = lv_obj_class_create_obj(&lv_calendar_header_arrow_class, parent);
  55:lvgl/src/extra/widgets/calendar/lv_calendar_header_arrow.c ****     lv_obj_class_init_obj(obj);
  56:lvgl/src/extra/widgets/calendar/lv_calendar_header_arrow.c ****     return obj;
  57:lvgl/src/extra/widgets/calendar/lv_calendar_header_arrow.c **** }
  58:lvgl/src/extra/widgets/calendar/lv_calendar_header_arrow.c **** 
  59:lvgl/src/extra/widgets/calendar/lv_calendar_header_arrow.c **** /**********************
  60:lvgl/src/extra/widgets/calendar/lv_calendar_header_arrow.c ****  *  STATIC FUNCTIONS
  61:lvgl/src/extra/widgets/calendar/lv_calendar_header_arrow.c ****  **********************/
  62:lvgl/src/extra/widgets/calendar/lv_calendar_header_arrow.c **** 
  63:lvgl/src/extra/widgets/calendar/lv_calendar_header_arrow.c **** static void my_constructor(const lv_obj_class_t * class_p, lv_obj_t * obj)
  64:lvgl/src/extra/widgets/calendar/lv_calendar_header_arrow.c **** {
  35              		.loc 1 64 1 view -0
  36              		.cfi_startproc
  37              		@ args = 0, pretend = 0, frame = 0
  38              		@ frame_needed = 0, uses_anonymous_args = 0
  39              		.loc 1 64 1 is_stmt 0 view .LVU1
  40 0000 F8B5     		push	{r3, r4, r5, r6, r7, lr}
  41              		.cfi_def_cfa_offset 24
  42              		.cfi_offset 3, -24
  43              		.cfi_offset 4, -20
  44              		.cfi_offset 5, -16
  45              		.cfi_offset 6, -12
  46              		.cfi_offset 7, -8
  47              		.cfi_offset 14, -4
  48 0002 0C46     		mov	r4, r1
  65:lvgl/src/extra/widgets/calendar/lv_calendar_header_arrow.c ****     LV_TRACE_OBJ_CREATE("begin");
  49              		.loc 1 65 33 is_stmt 1 view .LVU2
  66:lvgl/src/extra/widgets/calendar/lv_calendar_header_arrow.c **** 
ARM GAS  C:\Users\OSD\AppData\Local\Temp\ccZwg2pL.s 			page 3


  67:lvgl/src/extra/widgets/calendar/lv_calendar_header_arrow.c ****     LV_UNUSED(class_p);
  50              		.loc 1 67 5 view .LVU3
  68:lvgl/src/extra/widgets/calendar/lv_calendar_header_arrow.c **** 
  69:lvgl/src/extra/widgets/calendar/lv_calendar_header_arrow.c ****     lv_obj_move_to_index(obj, 0);
  51              		.loc 1 69 5 view .LVU4
  52 0004 0021     		movs	r1, #0
  53              	.LVL1:
  54              		.loc 1 69 5 is_stmt 0 view .LVU5
  55 0006 2046     		mov	r0, r4
  56              	.LVL2:
  57              		.loc 1 69 5 view .LVU6
  58 0008 FFF7FEFF 		bl	lv_obj_move_to_index
  59              	.LVL3:
  70:lvgl/src/extra/widgets/calendar/lv_calendar_header_arrow.c **** 
  71:lvgl/src/extra/widgets/calendar/lv_calendar_header_arrow.c ****     lv_obj_set_flex_flow(obj, LV_FLEX_FLOW_ROW);
  60              		.loc 1 71 5 is_stmt 1 view .LVU7
  61 000c 0021     		movs	r1, #0
  62 000e 2046     		mov	r0, r4
  63 0010 FFF7FEFF 		bl	lv_obj_set_flex_flow
  64              	.LVL4:
  72:lvgl/src/extra/widgets/calendar/lv_calendar_header_arrow.c ****     lv_obj_set_flex_align(obj, LV_FLEX_ALIGN_START, LV_FLEX_ALIGN_CENTER, LV_FLEX_ALIGN_START);
  65              		.loc 1 72 5 view .LVU8
  66 0014 0023     		movs	r3, #0
  67 0016 0222     		movs	r2, #2
  68 0018 1946     		mov	r1, r3
  69 001a 2046     		mov	r0, r4
  70 001c FFF7FEFF 		bl	lv_obj_set_flex_align
  71              	.LVL5:
  73:lvgl/src/extra/widgets/calendar/lv_calendar_header_arrow.c **** 
  74:lvgl/src/extra/widgets/calendar/lv_calendar_header_arrow.c ****     lv_obj_t * mo_prev = lv_btn_create(obj);
  72              		.loc 1 74 5 view .LVU9
  73              		.loc 1 74 26 is_stmt 0 view .LVU10
  74 0020 2046     		mov	r0, r4
  75 0022 FFF7FEFF 		bl	lv_btn_create
  76              	.LVL6:
  77 0026 0546     		mov	r5, r0
  78              	.LVL7:
  75:lvgl/src/extra/widgets/calendar/lv_calendar_header_arrow.c ****     lv_obj_set_style_bg_img_src(mo_prev, LV_SYMBOL_LEFT, 0);
  79              		.loc 1 75 5 is_stmt 1 view .LVU11
  80 0028 0022     		movs	r2, #0
  81 002a 2849     		ldr	r1, .L3
  82 002c FFF7FEFF 		bl	lv_obj_set_style_bg_img_src
  83              	.LVL8:
  76:lvgl/src/extra/widgets/calendar/lv_calendar_header_arrow.c ****     lv_obj_set_height(mo_prev, lv_pct(100));
  84              		.loc 1 76 5 view .LVU12
  85              		.file 2 "d:\\kzc\\stm32\\h743ii_lcd\\lvgl\\src\\misc\\lv_area.h"
   1:d:\kzc\stm32\h743ii_lcd\lvgl\src\misc\lv_area.h **** /**
   2:d:\kzc\stm32\h743ii_lcd\lvgl\src\misc\lv_area.h ****  * @file lv_area.h
   3:d:\kzc\stm32\h743ii_lcd\lvgl\src\misc\lv_area.h ****  *
   4:d:\kzc\stm32\h743ii_lcd\lvgl\src\misc\lv_area.h ****  */
   5:d:\kzc\stm32\h743ii_lcd\lvgl\src\misc\lv_area.h **** 
   6:d:\kzc\stm32\h743ii_lcd\lvgl\src\misc\lv_area.h **** #ifndef LV_AREA_H
   7:d:\kzc\stm32\h743ii_lcd\lvgl\src\misc\lv_area.h **** #define LV_AREA_H
   8:d:\kzc\stm32\h743ii_lcd\lvgl\src\misc\lv_area.h **** 
   9:d:\kzc\stm32\h743ii_lcd\lvgl\src\misc\lv_area.h **** #ifdef __cplusplus
  10:d:\kzc\stm32\h743ii_lcd\lvgl\src\misc\lv_area.h **** extern "C" {
  11:d:\kzc\stm32\h743ii_lcd\lvgl\src\misc\lv_area.h **** #endif
ARM GAS  C:\Users\OSD\AppData\Local\Temp\ccZwg2pL.s 			page 4


  12:d:\kzc\stm32\h743ii_lcd\lvgl\src\misc\lv_area.h **** 
  13:d:\kzc\stm32\h743ii_lcd\lvgl\src\misc\lv_area.h **** /*********************
  14:d:\kzc\stm32\h743ii_lcd\lvgl\src\misc\lv_area.h ****  *      INCLUDES
  15:d:\kzc\stm32\h743ii_lcd\lvgl\src\misc\lv_area.h ****  *********************/
  16:d:\kzc\stm32\h743ii_lcd\lvgl\src\misc\lv_area.h **** #include "../lv_conf_internal.h"
  17:d:\kzc\stm32\h743ii_lcd\lvgl\src\misc\lv_area.h **** #include <stdbool.h>
  18:d:\kzc\stm32\h743ii_lcd\lvgl\src\misc\lv_area.h **** #include <stdint.h>
  19:d:\kzc\stm32\h743ii_lcd\lvgl\src\misc\lv_area.h **** 
  20:d:\kzc\stm32\h743ii_lcd\lvgl\src\misc\lv_area.h **** /*********************
  21:d:\kzc\stm32\h743ii_lcd\lvgl\src\misc\lv_area.h ****  *      DEFINES
  22:d:\kzc\stm32\h743ii_lcd\lvgl\src\misc\lv_area.h ****  *********************/
  23:d:\kzc\stm32\h743ii_lcd\lvgl\src\misc\lv_area.h **** 
  24:d:\kzc\stm32\h743ii_lcd\lvgl\src\misc\lv_area.h **** #if LV_USE_LARGE_COORD
  25:d:\kzc\stm32\h743ii_lcd\lvgl\src\misc\lv_area.h **** typedef int32_t lv_coord_t;
  26:d:\kzc\stm32\h743ii_lcd\lvgl\src\misc\lv_area.h **** #else
  27:d:\kzc\stm32\h743ii_lcd\lvgl\src\misc\lv_area.h **** typedef int16_t lv_coord_t;
  28:d:\kzc\stm32\h743ii_lcd\lvgl\src\misc\lv_area.h **** #endif
  29:d:\kzc\stm32\h743ii_lcd\lvgl\src\misc\lv_area.h **** 
  30:d:\kzc\stm32\h743ii_lcd\lvgl\src\misc\lv_area.h **** /**********************
  31:d:\kzc\stm32\h743ii_lcd\lvgl\src\misc\lv_area.h ****  *      TYPEDEFS
  32:d:\kzc\stm32\h743ii_lcd\lvgl\src\misc\lv_area.h ****  **********************/
  33:d:\kzc\stm32\h743ii_lcd\lvgl\src\misc\lv_area.h **** 
  34:d:\kzc\stm32\h743ii_lcd\lvgl\src\misc\lv_area.h **** /**
  35:d:\kzc\stm32\h743ii_lcd\lvgl\src\misc\lv_area.h ****  * Represents a point on the screen.
  36:d:\kzc\stm32\h743ii_lcd\lvgl\src\misc\lv_area.h ****  */
  37:d:\kzc\stm32\h743ii_lcd\lvgl\src\misc\lv_area.h **** typedef struct {
  38:d:\kzc\stm32\h743ii_lcd\lvgl\src\misc\lv_area.h ****     lv_coord_t x;
  39:d:\kzc\stm32\h743ii_lcd\lvgl\src\misc\lv_area.h ****     lv_coord_t y;
  40:d:\kzc\stm32\h743ii_lcd\lvgl\src\misc\lv_area.h **** } lv_point_t;
  41:d:\kzc\stm32\h743ii_lcd\lvgl\src\misc\lv_area.h **** 
  42:d:\kzc\stm32\h743ii_lcd\lvgl\src\misc\lv_area.h **** /** Represents an area of the screen.*/
  43:d:\kzc\stm32\h743ii_lcd\lvgl\src\misc\lv_area.h **** typedef struct {
  44:d:\kzc\stm32\h743ii_lcd\lvgl\src\misc\lv_area.h ****     lv_coord_t x1;
  45:d:\kzc\stm32\h743ii_lcd\lvgl\src\misc\lv_area.h ****     lv_coord_t y1;
  46:d:\kzc\stm32\h743ii_lcd\lvgl\src\misc\lv_area.h ****     lv_coord_t x2;
  47:d:\kzc\stm32\h743ii_lcd\lvgl\src\misc\lv_area.h ****     lv_coord_t y2;
  48:d:\kzc\stm32\h743ii_lcd\lvgl\src\misc\lv_area.h **** } lv_area_t;
  49:d:\kzc\stm32\h743ii_lcd\lvgl\src\misc\lv_area.h **** 
  50:d:\kzc\stm32\h743ii_lcd\lvgl\src\misc\lv_area.h **** /** Alignments*/
  51:d:\kzc\stm32\h743ii_lcd\lvgl\src\misc\lv_area.h **** enum {
  52:d:\kzc\stm32\h743ii_lcd\lvgl\src\misc\lv_area.h ****     LV_ALIGN_DEFAULT = 0,
  53:d:\kzc\stm32\h743ii_lcd\lvgl\src\misc\lv_area.h ****     LV_ALIGN_TOP_LEFT,
  54:d:\kzc\stm32\h743ii_lcd\lvgl\src\misc\lv_area.h ****     LV_ALIGN_TOP_MID,
  55:d:\kzc\stm32\h743ii_lcd\lvgl\src\misc\lv_area.h ****     LV_ALIGN_TOP_RIGHT,
  56:d:\kzc\stm32\h743ii_lcd\lvgl\src\misc\lv_area.h ****     LV_ALIGN_BOTTOM_LEFT,
  57:d:\kzc\stm32\h743ii_lcd\lvgl\src\misc\lv_area.h ****     LV_ALIGN_BOTTOM_MID,
  58:d:\kzc\stm32\h743ii_lcd\lvgl\src\misc\lv_area.h ****     LV_ALIGN_BOTTOM_RIGHT,
  59:d:\kzc\stm32\h743ii_lcd\lvgl\src\misc\lv_area.h ****     LV_ALIGN_LEFT_MID,
  60:d:\kzc\stm32\h743ii_lcd\lvgl\src\misc\lv_area.h ****     LV_ALIGN_RIGHT_MID,
  61:d:\kzc\stm32\h743ii_lcd\lvgl\src\misc\lv_area.h ****     LV_ALIGN_CENTER,
  62:d:\kzc\stm32\h743ii_lcd\lvgl\src\misc\lv_area.h **** 
  63:d:\kzc\stm32\h743ii_lcd\lvgl\src\misc\lv_area.h ****     LV_ALIGN_OUT_TOP_LEFT,
  64:d:\kzc\stm32\h743ii_lcd\lvgl\src\misc\lv_area.h ****     LV_ALIGN_OUT_TOP_MID,
  65:d:\kzc\stm32\h743ii_lcd\lvgl\src\misc\lv_area.h ****     LV_ALIGN_OUT_TOP_RIGHT,
  66:d:\kzc\stm32\h743ii_lcd\lvgl\src\misc\lv_area.h ****     LV_ALIGN_OUT_BOTTOM_LEFT,
  67:d:\kzc\stm32\h743ii_lcd\lvgl\src\misc\lv_area.h ****     LV_ALIGN_OUT_BOTTOM_MID,
  68:d:\kzc\stm32\h743ii_lcd\lvgl\src\misc\lv_area.h ****     LV_ALIGN_OUT_BOTTOM_RIGHT,
ARM GAS  C:\Users\OSD\AppData\Local\Temp\ccZwg2pL.s 			page 5


  69:d:\kzc\stm32\h743ii_lcd\lvgl\src\misc\lv_area.h ****     LV_ALIGN_OUT_LEFT_TOP,
  70:d:\kzc\stm32\h743ii_lcd\lvgl\src\misc\lv_area.h ****     LV_ALIGN_OUT_LEFT_MID,
  71:d:\kzc\stm32\h743ii_lcd\lvgl\src\misc\lv_area.h ****     LV_ALIGN_OUT_LEFT_BOTTOM,
  72:d:\kzc\stm32\h743ii_lcd\lvgl\src\misc\lv_area.h ****     LV_ALIGN_OUT_RIGHT_TOP,
  73:d:\kzc\stm32\h743ii_lcd\lvgl\src\misc\lv_area.h ****     LV_ALIGN_OUT_RIGHT_MID,
  74:d:\kzc\stm32\h743ii_lcd\lvgl\src\misc\lv_area.h ****     LV_ALIGN_OUT_RIGHT_BOTTOM,
  75:d:\kzc\stm32\h743ii_lcd\lvgl\src\misc\lv_area.h **** };
  76:d:\kzc\stm32\h743ii_lcd\lvgl\src\misc\lv_area.h **** typedef uint8_t lv_align_t;
  77:d:\kzc\stm32\h743ii_lcd\lvgl\src\misc\lv_area.h **** 
  78:d:\kzc\stm32\h743ii_lcd\lvgl\src\misc\lv_area.h **** enum {
  79:d:\kzc\stm32\h743ii_lcd\lvgl\src\misc\lv_area.h ****     LV_DIR_NONE     = 0x00,
  80:d:\kzc\stm32\h743ii_lcd\lvgl\src\misc\lv_area.h ****     LV_DIR_LEFT     = (1 << 0),
  81:d:\kzc\stm32\h743ii_lcd\lvgl\src\misc\lv_area.h ****     LV_DIR_RIGHT    = (1 << 1),
  82:d:\kzc\stm32\h743ii_lcd\lvgl\src\misc\lv_area.h ****     LV_DIR_TOP      = (1 << 2),
  83:d:\kzc\stm32\h743ii_lcd\lvgl\src\misc\lv_area.h ****     LV_DIR_BOTTOM   = (1 << 3),
  84:d:\kzc\stm32\h743ii_lcd\lvgl\src\misc\lv_area.h ****     LV_DIR_HOR      = LV_DIR_LEFT | LV_DIR_RIGHT,
  85:d:\kzc\stm32\h743ii_lcd\lvgl\src\misc\lv_area.h ****     LV_DIR_VER      = LV_DIR_TOP | LV_DIR_BOTTOM,
  86:d:\kzc\stm32\h743ii_lcd\lvgl\src\misc\lv_area.h ****     LV_DIR_ALL      = LV_DIR_HOR | LV_DIR_VER,
  87:d:\kzc\stm32\h743ii_lcd\lvgl\src\misc\lv_area.h **** };
  88:d:\kzc\stm32\h743ii_lcd\lvgl\src\misc\lv_area.h **** 
  89:d:\kzc\stm32\h743ii_lcd\lvgl\src\misc\lv_area.h **** typedef uint8_t lv_dir_t;
  90:d:\kzc\stm32\h743ii_lcd\lvgl\src\misc\lv_area.h **** 
  91:d:\kzc\stm32\h743ii_lcd\lvgl\src\misc\lv_area.h **** /**********************
  92:d:\kzc\stm32\h743ii_lcd\lvgl\src\misc\lv_area.h ****  * GLOBAL PROTOTYPES
  93:d:\kzc\stm32\h743ii_lcd\lvgl\src\misc\lv_area.h ****  **********************/
  94:d:\kzc\stm32\h743ii_lcd\lvgl\src\misc\lv_area.h **** 
  95:d:\kzc\stm32\h743ii_lcd\lvgl\src\misc\lv_area.h **** /**
  96:d:\kzc\stm32\h743ii_lcd\lvgl\src\misc\lv_area.h ****  * Initialize an area
  97:d:\kzc\stm32\h743ii_lcd\lvgl\src\misc\lv_area.h ****  * @param area_p pointer to an area
  98:d:\kzc\stm32\h743ii_lcd\lvgl\src\misc\lv_area.h ****  * @param x1 left coordinate of the area
  99:d:\kzc\stm32\h743ii_lcd\lvgl\src\misc\lv_area.h ****  * @param y1 top coordinate of the area
 100:d:\kzc\stm32\h743ii_lcd\lvgl\src\misc\lv_area.h ****  * @param x2 right coordinate of the area
 101:d:\kzc\stm32\h743ii_lcd\lvgl\src\misc\lv_area.h ****  * @param y2 bottom coordinate of the area
 102:d:\kzc\stm32\h743ii_lcd\lvgl\src\misc\lv_area.h ****  */
 103:d:\kzc\stm32\h743ii_lcd\lvgl\src\misc\lv_area.h **** void lv_area_set(lv_area_t * area_p, lv_coord_t x1, lv_coord_t y1, lv_coord_t x2, lv_coord_t y2);
 104:d:\kzc\stm32\h743ii_lcd\lvgl\src\misc\lv_area.h **** 
 105:d:\kzc\stm32\h743ii_lcd\lvgl\src\misc\lv_area.h **** /**
 106:d:\kzc\stm32\h743ii_lcd\lvgl\src\misc\lv_area.h ****  * Copy an area
 107:d:\kzc\stm32\h743ii_lcd\lvgl\src\misc\lv_area.h ****  * @param dest pointer to the destination area
 108:d:\kzc\stm32\h743ii_lcd\lvgl\src\misc\lv_area.h ****  * @param src pointer to the source area
 109:d:\kzc\stm32\h743ii_lcd\lvgl\src\misc\lv_area.h ****  */
 110:d:\kzc\stm32\h743ii_lcd\lvgl\src\misc\lv_area.h **** inline static void lv_area_copy(lv_area_t * dest, const lv_area_t * src)
 111:d:\kzc\stm32\h743ii_lcd\lvgl\src\misc\lv_area.h **** {
 112:d:\kzc\stm32\h743ii_lcd\lvgl\src\misc\lv_area.h ****     dest->x1 = src->x1;
 113:d:\kzc\stm32\h743ii_lcd\lvgl\src\misc\lv_area.h ****     dest->y1 = src->y1;
 114:d:\kzc\stm32\h743ii_lcd\lvgl\src\misc\lv_area.h ****     dest->x2 = src->x2;
 115:d:\kzc\stm32\h743ii_lcd\lvgl\src\misc\lv_area.h ****     dest->y2 = src->y2;
 116:d:\kzc\stm32\h743ii_lcd\lvgl\src\misc\lv_area.h **** }
 117:d:\kzc\stm32\h743ii_lcd\lvgl\src\misc\lv_area.h **** 
 118:d:\kzc\stm32\h743ii_lcd\lvgl\src\misc\lv_area.h **** /**
 119:d:\kzc\stm32\h743ii_lcd\lvgl\src\misc\lv_area.h ****  * Get the width of an area
 120:d:\kzc\stm32\h743ii_lcd\lvgl\src\misc\lv_area.h ****  * @param area_p pointer to an area
 121:d:\kzc\stm32\h743ii_lcd\lvgl\src\misc\lv_area.h ****  * @return the width of the area (if x1 == x2 -> width = 1)
 122:d:\kzc\stm32\h743ii_lcd\lvgl\src\misc\lv_area.h ****  */
 123:d:\kzc\stm32\h743ii_lcd\lvgl\src\misc\lv_area.h **** static inline lv_coord_t lv_area_get_width(const lv_area_t * area_p)
 124:d:\kzc\stm32\h743ii_lcd\lvgl\src\misc\lv_area.h **** {
 125:d:\kzc\stm32\h743ii_lcd\lvgl\src\misc\lv_area.h ****     return (lv_coord_t)(area_p->x2 - area_p->x1 + 1);
ARM GAS  C:\Users\OSD\AppData\Local\Temp\ccZwg2pL.s 			page 6


 126:d:\kzc\stm32\h743ii_lcd\lvgl\src\misc\lv_area.h **** }
 127:d:\kzc\stm32\h743ii_lcd\lvgl\src\misc\lv_area.h **** 
 128:d:\kzc\stm32\h743ii_lcd\lvgl\src\misc\lv_area.h **** /**
 129:d:\kzc\stm32\h743ii_lcd\lvgl\src\misc\lv_area.h ****  * Get the height of an area
 130:d:\kzc\stm32\h743ii_lcd\lvgl\src\misc\lv_area.h ****  * @param area_p pointer to an area
 131:d:\kzc\stm32\h743ii_lcd\lvgl\src\misc\lv_area.h ****  * @return the height of the area (if y1 == y2 -> height = 1)
 132:d:\kzc\stm32\h743ii_lcd\lvgl\src\misc\lv_area.h ****  */
 133:d:\kzc\stm32\h743ii_lcd\lvgl\src\misc\lv_area.h **** static inline lv_coord_t lv_area_get_height(const lv_area_t * area_p)
 134:d:\kzc\stm32\h743ii_lcd\lvgl\src\misc\lv_area.h **** {
 135:d:\kzc\stm32\h743ii_lcd\lvgl\src\misc\lv_area.h ****     return (lv_coord_t)(area_p->y2 - area_p->y1 + 1);
 136:d:\kzc\stm32\h743ii_lcd\lvgl\src\misc\lv_area.h **** }
 137:d:\kzc\stm32\h743ii_lcd\lvgl\src\misc\lv_area.h **** 
 138:d:\kzc\stm32\h743ii_lcd\lvgl\src\misc\lv_area.h **** /**
 139:d:\kzc\stm32\h743ii_lcd\lvgl\src\misc\lv_area.h ****  * Set the width of an area
 140:d:\kzc\stm32\h743ii_lcd\lvgl\src\misc\lv_area.h ****  * @param area_p pointer to an area
 141:d:\kzc\stm32\h743ii_lcd\lvgl\src\misc\lv_area.h ****  * @param w the new width of the area (w == 1 makes x1 == x2)
 142:d:\kzc\stm32\h743ii_lcd\lvgl\src\misc\lv_area.h ****  */
 143:d:\kzc\stm32\h743ii_lcd\lvgl\src\misc\lv_area.h **** void lv_area_set_width(lv_area_t * area_p, lv_coord_t w);
 144:d:\kzc\stm32\h743ii_lcd\lvgl\src\misc\lv_area.h **** 
 145:d:\kzc\stm32\h743ii_lcd\lvgl\src\misc\lv_area.h **** /**
 146:d:\kzc\stm32\h743ii_lcd\lvgl\src\misc\lv_area.h ****  * Set the height of an area
 147:d:\kzc\stm32\h743ii_lcd\lvgl\src\misc\lv_area.h ****  * @param area_p pointer to an area
 148:d:\kzc\stm32\h743ii_lcd\lvgl\src\misc\lv_area.h ****  * @param h the new height of the area (h == 1 makes y1 == y2)
 149:d:\kzc\stm32\h743ii_lcd\lvgl\src\misc\lv_area.h ****  */
 150:d:\kzc\stm32\h743ii_lcd\lvgl\src\misc\lv_area.h **** void lv_area_set_height(lv_area_t * area_p, lv_coord_t h);
 151:d:\kzc\stm32\h743ii_lcd\lvgl\src\misc\lv_area.h **** 
 152:d:\kzc\stm32\h743ii_lcd\lvgl\src\misc\lv_area.h **** /**
 153:d:\kzc\stm32\h743ii_lcd\lvgl\src\misc\lv_area.h ****  * Set the position of an area (width and height will be kept)
 154:d:\kzc\stm32\h743ii_lcd\lvgl\src\misc\lv_area.h ****  * @param area_p pointer to an area
 155:d:\kzc\stm32\h743ii_lcd\lvgl\src\misc\lv_area.h ****  * @param x the new x coordinate of the area
 156:d:\kzc\stm32\h743ii_lcd\lvgl\src\misc\lv_area.h ****  * @param y the new y coordinate of the area
 157:d:\kzc\stm32\h743ii_lcd\lvgl\src\misc\lv_area.h ****  */
 158:d:\kzc\stm32\h743ii_lcd\lvgl\src\misc\lv_area.h **** void _lv_area_set_pos(lv_area_t * area_p, lv_coord_t x, lv_coord_t y);
 159:d:\kzc\stm32\h743ii_lcd\lvgl\src\misc\lv_area.h **** 
 160:d:\kzc\stm32\h743ii_lcd\lvgl\src\misc\lv_area.h **** /**
 161:d:\kzc\stm32\h743ii_lcd\lvgl\src\misc\lv_area.h ****  * Return with area of an area (x * y)
 162:d:\kzc\stm32\h743ii_lcd\lvgl\src\misc\lv_area.h ****  * @param area_p pointer to an area
 163:d:\kzc\stm32\h743ii_lcd\lvgl\src\misc\lv_area.h ****  * @return size of area
 164:d:\kzc\stm32\h743ii_lcd\lvgl\src\misc\lv_area.h ****  */
 165:d:\kzc\stm32\h743ii_lcd\lvgl\src\misc\lv_area.h **** uint32_t lv_area_get_size(const lv_area_t * area_p);
 166:d:\kzc\stm32\h743ii_lcd\lvgl\src\misc\lv_area.h **** 
 167:d:\kzc\stm32\h743ii_lcd\lvgl\src\misc\lv_area.h **** void lv_area_increase(lv_area_t * area, lv_coord_t w_extra, lv_coord_t h_extra);
 168:d:\kzc\stm32\h743ii_lcd\lvgl\src\misc\lv_area.h **** 
 169:d:\kzc\stm32\h743ii_lcd\lvgl\src\misc\lv_area.h **** void lv_area_move(lv_area_t * area, lv_coord_t x_ofs, lv_coord_t y_ofs);
 170:d:\kzc\stm32\h743ii_lcd\lvgl\src\misc\lv_area.h **** 
 171:d:\kzc\stm32\h743ii_lcd\lvgl\src\misc\lv_area.h **** /**
 172:d:\kzc\stm32\h743ii_lcd\lvgl\src\misc\lv_area.h ****  * Get the common parts of two areas
 173:d:\kzc\stm32\h743ii_lcd\lvgl\src\misc\lv_area.h ****  * @param res_p pointer to an area, the result will be stored her
 174:d:\kzc\stm32\h743ii_lcd\lvgl\src\misc\lv_area.h ****  * @param a1_p pointer to the first area
 175:d:\kzc\stm32\h743ii_lcd\lvgl\src\misc\lv_area.h ****  * @param a2_p pointer to the second area
 176:d:\kzc\stm32\h743ii_lcd\lvgl\src\misc\lv_area.h ****  * @return false: the two area has NO common parts, res_p is invalid
 177:d:\kzc\stm32\h743ii_lcd\lvgl\src\misc\lv_area.h ****  */
 178:d:\kzc\stm32\h743ii_lcd\lvgl\src\misc\lv_area.h **** bool _lv_area_intersect(lv_area_t * res_p, const lv_area_t * a1_p, const lv_area_t * a2_p);
 179:d:\kzc\stm32\h743ii_lcd\lvgl\src\misc\lv_area.h **** 
 180:d:\kzc\stm32\h743ii_lcd\lvgl\src\misc\lv_area.h **** /**
 181:d:\kzc\stm32\h743ii_lcd\lvgl\src\misc\lv_area.h ****  * Get resulting sub areas after removing the common parts of two areas from the first area
 182:d:\kzc\stm32\h743ii_lcd\lvgl\src\misc\lv_area.h ****  * @param res_p pointer to an array of areas with a count of 4, the resulting areas will be stored 
ARM GAS  C:\Users\OSD\AppData\Local\Temp\ccZwg2pL.s 			page 7


 183:d:\kzc\stm32\h743ii_lcd\lvgl\src\misc\lv_area.h ****  * @param a1_p pointer to the first area
 184:d:\kzc\stm32\h743ii_lcd\lvgl\src\misc\lv_area.h ****  * @param a2_p pointer to the second area
 185:d:\kzc\stm32\h743ii_lcd\lvgl\src\misc\lv_area.h ****  * @return number of results (max 4) or -1 if no intersect
 186:d:\kzc\stm32\h743ii_lcd\lvgl\src\misc\lv_area.h ****  */
 187:d:\kzc\stm32\h743ii_lcd\lvgl\src\misc\lv_area.h **** int8_t _lv_area_diff(lv_area_t * res_p, const lv_area_t * a1_p, const lv_area_t * a2_p);
 188:d:\kzc\stm32\h743ii_lcd\lvgl\src\misc\lv_area.h **** 
 189:d:\kzc\stm32\h743ii_lcd\lvgl\src\misc\lv_area.h **** /**
 190:d:\kzc\stm32\h743ii_lcd\lvgl\src\misc\lv_area.h ****  * Join two areas into a third which involves the other two
 191:d:\kzc\stm32\h743ii_lcd\lvgl\src\misc\lv_area.h ****  * @param res_p pointer to an area, the result will be stored here
 192:d:\kzc\stm32\h743ii_lcd\lvgl\src\misc\lv_area.h ****  * @param a1_p pointer to the first area
 193:d:\kzc\stm32\h743ii_lcd\lvgl\src\misc\lv_area.h ****  * @param a2_p pointer to the second area
 194:d:\kzc\stm32\h743ii_lcd\lvgl\src\misc\lv_area.h ****  */
 195:d:\kzc\stm32\h743ii_lcd\lvgl\src\misc\lv_area.h **** void _lv_area_join(lv_area_t * a_res_p, const lv_area_t * a1_p, const lv_area_t * a2_p);
 196:d:\kzc\stm32\h743ii_lcd\lvgl\src\misc\lv_area.h **** 
 197:d:\kzc\stm32\h743ii_lcd\lvgl\src\misc\lv_area.h **** /**
 198:d:\kzc\stm32\h743ii_lcd\lvgl\src\misc\lv_area.h ****  * Check if a point is on an area
 199:d:\kzc\stm32\h743ii_lcd\lvgl\src\misc\lv_area.h ****  * @param a_p pointer to an area
 200:d:\kzc\stm32\h743ii_lcd\lvgl\src\misc\lv_area.h ****  * @param p_p pointer to a point
 201:d:\kzc\stm32\h743ii_lcd\lvgl\src\misc\lv_area.h ****  * @param radius radius of area (e.g. for rounded rectangle)
 202:d:\kzc\stm32\h743ii_lcd\lvgl\src\misc\lv_area.h ****  * @return false:the point is out of the area
 203:d:\kzc\stm32\h743ii_lcd\lvgl\src\misc\lv_area.h ****  */
 204:d:\kzc\stm32\h743ii_lcd\lvgl\src\misc\lv_area.h **** bool _lv_area_is_point_on(const lv_area_t * a_p, const lv_point_t * p_p, lv_coord_t radius);
 205:d:\kzc\stm32\h743ii_lcd\lvgl\src\misc\lv_area.h **** 
 206:d:\kzc\stm32\h743ii_lcd\lvgl\src\misc\lv_area.h **** /**
 207:d:\kzc\stm32\h743ii_lcd\lvgl\src\misc\lv_area.h ****  * Check if two area has common parts
 208:d:\kzc\stm32\h743ii_lcd\lvgl\src\misc\lv_area.h ****  * @param a1_p pointer to an area.
 209:d:\kzc\stm32\h743ii_lcd\lvgl\src\misc\lv_area.h ****  * @param a2_p pointer to an other area
 210:d:\kzc\stm32\h743ii_lcd\lvgl\src\misc\lv_area.h ****  * @return false: a1_p and a2_p has no common parts
 211:d:\kzc\stm32\h743ii_lcd\lvgl\src\misc\lv_area.h ****  */
 212:d:\kzc\stm32\h743ii_lcd\lvgl\src\misc\lv_area.h **** bool _lv_area_is_on(const lv_area_t * a1_p, const lv_area_t * a2_p);
 213:d:\kzc\stm32\h743ii_lcd\lvgl\src\misc\lv_area.h **** 
 214:d:\kzc\stm32\h743ii_lcd\lvgl\src\misc\lv_area.h **** /**
 215:d:\kzc\stm32\h743ii_lcd\lvgl\src\misc\lv_area.h ****  * Check if an area is fully on an other
 216:d:\kzc\stm32\h743ii_lcd\lvgl\src\misc\lv_area.h ****  * @param ain_p pointer to an area which could be in 'aholder_p'
 217:d:\kzc\stm32\h743ii_lcd\lvgl\src\misc\lv_area.h ****  * @param aholder_p pointer to an area which could involve 'ain_p'
 218:d:\kzc\stm32\h743ii_lcd\lvgl\src\misc\lv_area.h ****  * @param radius radius of `aholder_p` (e.g. for rounded rectangle)
 219:d:\kzc\stm32\h743ii_lcd\lvgl\src\misc\lv_area.h ****  * @return true: `ain_p` is fully inside `aholder_p`
 220:d:\kzc\stm32\h743ii_lcd\lvgl\src\misc\lv_area.h ****  */
 221:d:\kzc\stm32\h743ii_lcd\lvgl\src\misc\lv_area.h **** bool _lv_area_is_in(const lv_area_t * ain_p, const lv_area_t * aholder_p, lv_coord_t radius);
 222:d:\kzc\stm32\h743ii_lcd\lvgl\src\misc\lv_area.h **** 
 223:d:\kzc\stm32\h743ii_lcd\lvgl\src\misc\lv_area.h **** /**
 224:d:\kzc\stm32\h743ii_lcd\lvgl\src\misc\lv_area.h ****  * Check if an area is fully out of an other
 225:d:\kzc\stm32\h743ii_lcd\lvgl\src\misc\lv_area.h ****  * @param aout_p pointer to an area which could be in 'aholder_p'
 226:d:\kzc\stm32\h743ii_lcd\lvgl\src\misc\lv_area.h ****  * @param aholder_p pointer to an area which could involve 'ain_p'
 227:d:\kzc\stm32\h743ii_lcd\lvgl\src\misc\lv_area.h ****  * @param radius radius of `aholder_p` (e.g. for rounded rectangle)
 228:d:\kzc\stm32\h743ii_lcd\lvgl\src\misc\lv_area.h ****  * @return true: `aout_p` is fully outside `aholder_p`
 229:d:\kzc\stm32\h743ii_lcd\lvgl\src\misc\lv_area.h ****  */
 230:d:\kzc\stm32\h743ii_lcd\lvgl\src\misc\lv_area.h **** bool _lv_area_is_out(const lv_area_t * aout_p, const lv_area_t * aholder_p, lv_coord_t radius);
 231:d:\kzc\stm32\h743ii_lcd\lvgl\src\misc\lv_area.h **** 
 232:d:\kzc\stm32\h743ii_lcd\lvgl\src\misc\lv_area.h **** /**
 233:d:\kzc\stm32\h743ii_lcd\lvgl\src\misc\lv_area.h ****  * Check if 2 area is the same
 234:d:\kzc\stm32\h743ii_lcd\lvgl\src\misc\lv_area.h ****  * @param a pointer to an area
 235:d:\kzc\stm32\h743ii_lcd\lvgl\src\misc\lv_area.h ****  * @param b pointer to another area
 236:d:\kzc\stm32\h743ii_lcd\lvgl\src\misc\lv_area.h ****  */
 237:d:\kzc\stm32\h743ii_lcd\lvgl\src\misc\lv_area.h **** bool _lv_area_is_equal(const lv_area_t * a, const lv_area_t * b);
 238:d:\kzc\stm32\h743ii_lcd\lvgl\src\misc\lv_area.h **** 
 239:d:\kzc\stm32\h743ii_lcd\lvgl\src\misc\lv_area.h **** /**
ARM GAS  C:\Users\OSD\AppData\Local\Temp\ccZwg2pL.s 			page 8


 240:d:\kzc\stm32\h743ii_lcd\lvgl\src\misc\lv_area.h ****  * Align an area to an other
 241:d:\kzc\stm32\h743ii_lcd\lvgl\src\misc\lv_area.h ****  * @param base an are where the other will be aligned
 242:d:\kzc\stm32\h743ii_lcd\lvgl\src\misc\lv_area.h ****  * @param to_align the area to align
 243:d:\kzc\stm32\h743ii_lcd\lvgl\src\misc\lv_area.h ****  * @param align `LV_ALIGN_...`
 244:d:\kzc\stm32\h743ii_lcd\lvgl\src\misc\lv_area.h ****  */
 245:d:\kzc\stm32\h743ii_lcd\lvgl\src\misc\lv_area.h **** void lv_area_align(const lv_area_t * base, lv_area_t * to_align, lv_align_t align, lv_coord_t ofs_x
 246:d:\kzc\stm32\h743ii_lcd\lvgl\src\misc\lv_area.h **** 
 247:d:\kzc\stm32\h743ii_lcd\lvgl\src\misc\lv_area.h **** void lv_point_transform(lv_point_t * p, int32_t angle, int32_t zoom, const lv_point_t * pivot);
 248:d:\kzc\stm32\h743ii_lcd\lvgl\src\misc\lv_area.h **** 
 249:d:\kzc\stm32\h743ii_lcd\lvgl\src\misc\lv_area.h **** /**********************
 250:d:\kzc\stm32\h743ii_lcd\lvgl\src\misc\lv_area.h ****  *      MACROS
 251:d:\kzc\stm32\h743ii_lcd\lvgl\src\misc\lv_area.h ****  **********************/
 252:d:\kzc\stm32\h743ii_lcd\lvgl\src\misc\lv_area.h **** 
 253:d:\kzc\stm32\h743ii_lcd\lvgl\src\misc\lv_area.h **** #if LV_USE_LARGE_COORD
 254:d:\kzc\stm32\h743ii_lcd\lvgl\src\misc\lv_area.h **** #define _LV_COORD_TYPE_SHIFT    (29U)
 255:d:\kzc\stm32\h743ii_lcd\lvgl\src\misc\lv_area.h **** #else
 256:d:\kzc\stm32\h743ii_lcd\lvgl\src\misc\lv_area.h **** #define _LV_COORD_TYPE_SHIFT    (13U)
 257:d:\kzc\stm32\h743ii_lcd\lvgl\src\misc\lv_area.h **** #endif
 258:d:\kzc\stm32\h743ii_lcd\lvgl\src\misc\lv_area.h **** 
 259:d:\kzc\stm32\h743ii_lcd\lvgl\src\misc\lv_area.h **** #define _LV_COORD_TYPE_MASK     (3 << _LV_COORD_TYPE_SHIFT)
 260:d:\kzc\stm32\h743ii_lcd\lvgl\src\misc\lv_area.h **** #define _LV_COORD_TYPE(x)       ((x) & _LV_COORD_TYPE_MASK)  /*Extract type specifiers*/
 261:d:\kzc\stm32\h743ii_lcd\lvgl\src\misc\lv_area.h **** #define _LV_COORD_PLAIN(x)      ((x) & ~_LV_COORD_TYPE_MASK) /*Remove type specifiers*/
 262:d:\kzc\stm32\h743ii_lcd\lvgl\src\misc\lv_area.h **** 
 263:d:\kzc\stm32\h743ii_lcd\lvgl\src\misc\lv_area.h **** #define _LV_COORD_TYPE_PX       (0 << _LV_COORD_TYPE_SHIFT)
 264:d:\kzc\stm32\h743ii_lcd\lvgl\src\misc\lv_area.h **** #define _LV_COORD_TYPE_SPEC     (1 << _LV_COORD_TYPE_SHIFT)
 265:d:\kzc\stm32\h743ii_lcd\lvgl\src\misc\lv_area.h **** #define _LV_COORD_TYPE_PX_NEG   (3 << _LV_COORD_TYPE_SHIFT)
 266:d:\kzc\stm32\h743ii_lcd\lvgl\src\misc\lv_area.h **** 
 267:d:\kzc\stm32\h743ii_lcd\lvgl\src\misc\lv_area.h **** #define LV_COORD_IS_PX(x)       (_LV_COORD_TYPE(x) == _LV_COORD_TYPE_PX || \
 268:d:\kzc\stm32\h743ii_lcd\lvgl\src\misc\lv_area.h ****                                  _LV_COORD_TYPE(x) == _LV_COORD_TYPE_PX_NEG ? true : false)
 269:d:\kzc\stm32\h743ii_lcd\lvgl\src\misc\lv_area.h **** #define LV_COORD_IS_SPEC(x)     (_LV_COORD_TYPE(x) == _LV_COORD_TYPE_SPEC ? true : false)
 270:d:\kzc\stm32\h743ii_lcd\lvgl\src\misc\lv_area.h **** 
 271:d:\kzc\stm32\h743ii_lcd\lvgl\src\misc\lv_area.h **** #define LV_COORD_SET_SPEC(x)    ((x) | _LV_COORD_TYPE_SPEC)
 272:d:\kzc\stm32\h743ii_lcd\lvgl\src\misc\lv_area.h **** 
 273:d:\kzc\stm32\h743ii_lcd\lvgl\src\misc\lv_area.h **** /*Special coordinates*/
 274:d:\kzc\stm32\h743ii_lcd\lvgl\src\misc\lv_area.h **** #define LV_PCT(x)               (x < 0 ? LV_COORD_SET_SPEC(1000 - (x)) : LV_COORD_SET_SPEC(x))
 275:d:\kzc\stm32\h743ii_lcd\lvgl\src\misc\lv_area.h **** #define LV_COORD_IS_PCT(x)      ((LV_COORD_IS_SPEC(x) && _LV_COORD_PLAIN(x) <= 2000) ? true : false
 276:d:\kzc\stm32\h743ii_lcd\lvgl\src\misc\lv_area.h **** #define LV_COORD_GET_PCT(x)     (_LV_COORD_PLAIN(x) > 1000 ? 1000 - _LV_COORD_PLAIN(x) : _LV_COORD_
 277:d:\kzc\stm32\h743ii_lcd\lvgl\src\misc\lv_area.h **** #define LV_SIZE_CONTENT         LV_COORD_SET_SPEC(2001)
 278:d:\kzc\stm32\h743ii_lcd\lvgl\src\misc\lv_area.h **** 
 279:d:\kzc\stm32\h743ii_lcd\lvgl\src\misc\lv_area.h **** LV_EXPORT_CONST_INT(LV_SIZE_CONTENT);
 280:d:\kzc\stm32\h743ii_lcd\lvgl\src\misc\lv_area.h **** 
 281:d:\kzc\stm32\h743ii_lcd\lvgl\src\misc\lv_area.h **** /*Max coordinate value*/
 282:d:\kzc\stm32\h743ii_lcd\lvgl\src\misc\lv_area.h **** #define LV_COORD_MAX            ((1 << _LV_COORD_TYPE_SHIFT) - 1)
 283:d:\kzc\stm32\h743ii_lcd\lvgl\src\misc\lv_area.h **** #define LV_COORD_MIN            (-LV_COORD_MAX)
 284:d:\kzc\stm32\h743ii_lcd\lvgl\src\misc\lv_area.h **** 
 285:d:\kzc\stm32\h743ii_lcd\lvgl\src\misc\lv_area.h **** LV_EXPORT_CONST_INT(LV_COORD_MAX);
 286:d:\kzc\stm32\h743ii_lcd\lvgl\src\misc\lv_area.h **** LV_EXPORT_CONST_INT(LV_COORD_MIN);
 287:d:\kzc\stm32\h743ii_lcd\lvgl\src\misc\lv_area.h **** 
 288:d:\kzc\stm32\h743ii_lcd\lvgl\src\misc\lv_area.h **** /**
 289:d:\kzc\stm32\h743ii_lcd\lvgl\src\misc\lv_area.h ****  * Convert a percentage value to `lv_coord_t`.
 290:d:\kzc\stm32\h743ii_lcd\lvgl\src\misc\lv_area.h ****  * Percentage values are stored in special range
 291:d:\kzc\stm32\h743ii_lcd\lvgl\src\misc\lv_area.h ****  * @param x the percentage (0..1000)
 292:d:\kzc\stm32\h743ii_lcd\lvgl\src\misc\lv_area.h ****  * @return a coordinate that stores the percentage
 293:d:\kzc\stm32\h743ii_lcd\lvgl\src\misc\lv_area.h ****  */
 294:d:\kzc\stm32\h743ii_lcd\lvgl\src\misc\lv_area.h **** static inline lv_coord_t lv_pct(lv_coord_t x)
 295:d:\kzc\stm32\h743ii_lcd\lvgl\src\misc\lv_area.h **** {
 296:d:\kzc\stm32\h743ii_lcd\lvgl\src\misc\lv_area.h ****     return LV_PCT(x);
ARM GAS  C:\Users\OSD\AppData\Local\Temp\ccZwg2pL.s 			page 9


  86              		.loc 2 296 5 view .LVU13
  87              		.loc 1 76 5 is_stmt 0 view .LVU14
  88 0030 42F26401 		movw	r1, #8292
  89 0034 2846     		mov	r0, r5
  90 0036 FFF7FEFF 		bl	lv_obj_set_height
  91              	.LVL9:
  77:lvgl/src/extra/widgets/calendar/lv_calendar_header_arrow.c ****     lv_obj_update_layout(mo_prev);
  92              		.loc 1 77 5 is_stmt 1 view .LVU15
  93 003a 2846     		mov	r0, r5
  94 003c FFF7FEFF 		bl	lv_obj_update_layout
  95              	.LVL10:
  78:lvgl/src/extra/widgets/calendar/lv_calendar_header_arrow.c ****     lv_coord_t btn_size = lv_obj_get_height(mo_prev);
  96              		.loc 1 78 5 view .LVU16
  97              		.loc 1 78 27 is_stmt 0 view .LVU17
  98 0040 2846     		mov	r0, r5
  99 0042 FFF7FEFF 		bl	lv_obj_get_height
 100              	.LVL11:
 101 0046 0646     		mov	r6, r0
 102              	.LVL12:
  79:lvgl/src/extra/widgets/calendar/lv_calendar_header_arrow.c ****     lv_obj_set_width(mo_prev, btn_size);
 103              		.loc 1 79 5 is_stmt 1 view .LVU18
 104 0048 0146     		mov	r1, r0
 105 004a 2846     		mov	r0, r5
 106              	.LVL13:
 107              		.loc 1 79 5 is_stmt 0 view .LVU19
 108 004c FFF7FEFF 		bl	lv_obj_set_width
 109              	.LVL14:
  80:lvgl/src/extra/widgets/calendar/lv_calendar_header_arrow.c **** 
  81:lvgl/src/extra/widgets/calendar/lv_calendar_header_arrow.c ****     lv_obj_add_event_cb(mo_prev, month_event_cb, LV_EVENT_CLICKED, NULL);
 110              		.loc 1 81 5 is_stmt 1 view .LVU20
 111 0050 1F4F     		ldr	r7, .L3+4
 112 0052 0023     		movs	r3, #0
 113 0054 0722     		movs	r2, #7
 114 0056 3946     		mov	r1, r7
 115 0058 2846     		mov	r0, r5
 116 005a FFF7FEFF 		bl	lv_obj_add_event_cb
 117              	.LVL15:
  82:lvgl/src/extra/widgets/calendar/lv_calendar_header_arrow.c ****     lv_obj_clear_flag(mo_prev, LV_OBJ_FLAG_CLICK_FOCUSABLE);
 118              		.loc 1 82 5 view .LVU21
 119 005e 0421     		movs	r1, #4
 120 0060 2846     		mov	r0, r5
 121 0062 FFF7FEFF 		bl	lv_obj_clear_flag
 122              	.LVL16:
  83:lvgl/src/extra/widgets/calendar/lv_calendar_header_arrow.c **** 
  84:lvgl/src/extra/widgets/calendar/lv_calendar_header_arrow.c ****     lv_obj_t * label = lv_label_create(obj);
 123              		.loc 1 84 5 view .LVU22
 124              		.loc 1 84 24 is_stmt 0 view .LVU23
 125 0066 2046     		mov	r0, r4
 126 0068 FFF7FEFF 		bl	lv_label_create
 127              	.LVL17:
 128 006c 0546     		mov	r5, r0
 129              	.LVL18:
  85:lvgl/src/extra/widgets/calendar/lv_calendar_header_arrow.c ****     lv_label_set_long_mode(label, LV_LABEL_LONG_SCROLL_CIRCULAR);
 130              		.loc 1 85 5 is_stmt 1 view .LVU24
 131 006e 0321     		movs	r1, #3
 132 0070 FFF7FEFF 		bl	lv_label_set_long_mode
 133              	.LVL19:
ARM GAS  C:\Users\OSD\AppData\Local\Temp\ccZwg2pL.s 			page 10


  86:lvgl/src/extra/widgets/calendar/lv_calendar_header_arrow.c ****     lv_obj_set_style_text_align(label, LV_TEXT_ALIGN_CENTER, 0);
 134              		.loc 1 86 5 view .LVU25
 135 0074 0022     		movs	r2, #0
 136 0076 0221     		movs	r1, #2
 137 0078 2846     		mov	r0, r5
 138 007a FFF7FEFF 		bl	lv_obj_set_style_text_align
 139              	.LVL20:
  87:lvgl/src/extra/widgets/calendar/lv_calendar_header_arrow.c ****     lv_obj_set_flex_grow(label, 1);
 140              		.loc 1 87 5 view .LVU26
 141 007e 0121     		movs	r1, #1
 142 0080 2846     		mov	r0, r5
 143 0082 FFF7FEFF 		bl	lv_obj_set_flex_grow
 144              	.LVL21:
  88:lvgl/src/extra/widgets/calendar/lv_calendar_header_arrow.c **** 
  89:lvgl/src/extra/widgets/calendar/lv_calendar_header_arrow.c ****     lv_obj_t * mo_next = lv_btn_create(obj);
 145              		.loc 1 89 5 view .LVU27
 146              		.loc 1 89 26 is_stmt 0 view .LVU28
 147 0086 2046     		mov	r0, r4
 148 0088 FFF7FEFF 		bl	lv_btn_create
 149              	.LVL22:
 150 008c 0546     		mov	r5, r0
 151              	.LVL23:
  90:lvgl/src/extra/widgets/calendar/lv_calendar_header_arrow.c ****     lv_obj_set_style_bg_img_src(mo_next, LV_SYMBOL_RIGHT, 0);
 152              		.loc 1 90 5 is_stmt 1 view .LVU29
 153 008e 0022     		movs	r2, #0
 154 0090 1049     		ldr	r1, .L3+8
 155 0092 FFF7FEFF 		bl	lv_obj_set_style_bg_img_src
 156              	.LVL24:
  91:lvgl/src/extra/widgets/calendar/lv_calendar_header_arrow.c ****     lv_obj_set_size(mo_next, btn_size, btn_size);
 157              		.loc 1 91 5 view .LVU30
 158 0096 3246     		mov	r2, r6
 159 0098 3146     		mov	r1, r6
 160 009a 2846     		mov	r0, r5
 161 009c FFF7FEFF 		bl	lv_obj_set_size
 162              	.LVL25:
  92:lvgl/src/extra/widgets/calendar/lv_calendar_header_arrow.c **** 
  93:lvgl/src/extra/widgets/calendar/lv_calendar_header_arrow.c ****     lv_obj_add_event_cb(mo_next, month_event_cb, LV_EVENT_CLICKED, NULL);
 163              		.loc 1 93 5 view .LVU31
 164 00a0 0023     		movs	r3, #0
 165 00a2 0722     		movs	r2, #7
 166 00a4 3946     		mov	r1, r7
 167 00a6 2846     		mov	r0, r5
 168 00a8 FFF7FEFF 		bl	lv_obj_add_event_cb
 169              	.LVL26:
  94:lvgl/src/extra/widgets/calendar/lv_calendar_header_arrow.c ****     lv_obj_clear_flag(mo_next, LV_OBJ_FLAG_CLICK_FOCUSABLE);
 170              		.loc 1 94 5 view .LVU32
 171 00ac 0421     		movs	r1, #4
 172 00ae 2846     		mov	r0, r5
 173 00b0 FFF7FEFF 		bl	lv_obj_clear_flag
 174              	.LVL27:
  95:lvgl/src/extra/widgets/calendar/lv_calendar_header_arrow.c **** 
  96:lvgl/src/extra/widgets/calendar/lv_calendar_header_arrow.c ****     lv_obj_add_event_cb(obj, value_changed_event_cb, LV_EVENT_VALUE_CHANGED, NULL);
 175              		.loc 1 96 5 view .LVU33
 176 00b4 0023     		movs	r3, #0
 177 00b6 1C22     		movs	r2, #28
 178 00b8 0749     		ldr	r1, .L3+12
 179 00ba 2046     		mov	r0, r4
ARM GAS  C:\Users\OSD\AppData\Local\Temp\ccZwg2pL.s 			page 11


 180 00bc FFF7FEFF 		bl	lv_obj_add_event_cb
 181              	.LVL28:
  97:lvgl/src/extra/widgets/calendar/lv_calendar_header_arrow.c ****     /*Refresh the drop downs*/
  98:lvgl/src/extra/widgets/calendar/lv_calendar_header_arrow.c ****     lv_event_send(obj, LV_EVENT_VALUE_CHANGED, NULL);
 182              		.loc 1 98 5 view .LVU34
 183 00c0 0022     		movs	r2, #0
 184 00c2 1C21     		movs	r1, #28
 185 00c4 2046     		mov	r0, r4
 186 00c6 FFF7FEFF 		bl	lv_event_send
 187              	.LVL29:
  99:lvgl/src/extra/widgets/calendar/lv_calendar_header_arrow.c **** }
 188              		.loc 1 99 1 is_stmt 0 view .LVU35
 189 00ca F8BD     		pop	{r3, r4, r5, r6, r7, pc}
 190              	.LVL30:
 191              	.L4:
 192              		.loc 1 99 1 view .LVU36
 193              		.align	2
 194              	.L3:
 195 00cc 00000000 		.word	.LC0
 196 00d0 00000000 		.word	month_event_cb
 197 00d4 04000000 		.word	.LC1
 198 00d8 00000000 		.word	value_changed_event_cb
 199              		.cfi_endproc
 200              	.LFE167:
 202              		.section	.rodata.value_changed_event_cb.str1.4,"aMS",%progbits,1
 203              		.align	2
 204              	.LC2:
 205 0000 25642025 		.ascii	"%d %s\000"
 205      7300
 206              		.section	.text.value_changed_event_cb,"ax",%progbits
 207              		.align	1
 208              		.syntax unified
 209              		.thumb
 210              		.thumb_func
 212              	value_changed_event_cb:
 213              	.LVL31:
 214              	.LFB169:
 100:lvgl/src/extra/widgets/calendar/lv_calendar_header_arrow.c **** 
 101:lvgl/src/extra/widgets/calendar/lv_calendar_header_arrow.c **** static void month_event_cb(lv_event_t * e)
 102:lvgl/src/extra/widgets/calendar/lv_calendar_header_arrow.c **** {
 103:lvgl/src/extra/widgets/calendar/lv_calendar_header_arrow.c ****     lv_obj_t * btn = lv_event_get_target(e);
 104:lvgl/src/extra/widgets/calendar/lv_calendar_header_arrow.c **** 
 105:lvgl/src/extra/widgets/calendar/lv_calendar_header_arrow.c ****     lv_obj_t * header = lv_obj_get_parent(btn);
 106:lvgl/src/extra/widgets/calendar/lv_calendar_header_arrow.c ****     lv_obj_t * calendar = lv_obj_get_parent(header);
 107:lvgl/src/extra/widgets/calendar/lv_calendar_header_arrow.c **** 
 108:lvgl/src/extra/widgets/calendar/lv_calendar_header_arrow.c ****     const lv_calendar_date_t * d;
 109:lvgl/src/extra/widgets/calendar/lv_calendar_header_arrow.c ****     d = lv_calendar_get_showed_date(calendar);
 110:lvgl/src/extra/widgets/calendar/lv_calendar_header_arrow.c ****     lv_calendar_date_t newd = *d;
 111:lvgl/src/extra/widgets/calendar/lv_calendar_header_arrow.c **** 
 112:lvgl/src/extra/widgets/calendar/lv_calendar_header_arrow.c ****     /*The last child is the right button*/
 113:lvgl/src/extra/widgets/calendar/lv_calendar_header_arrow.c ****     if(lv_obj_get_child(header, 0) == btn) {
 114:lvgl/src/extra/widgets/calendar/lv_calendar_header_arrow.c ****         if(newd.month == 1) {
 115:lvgl/src/extra/widgets/calendar/lv_calendar_header_arrow.c ****             newd.month = 12;
 116:lvgl/src/extra/widgets/calendar/lv_calendar_header_arrow.c ****             newd.year --;
 117:lvgl/src/extra/widgets/calendar/lv_calendar_header_arrow.c ****         }
 118:lvgl/src/extra/widgets/calendar/lv_calendar_header_arrow.c ****         else {
 119:lvgl/src/extra/widgets/calendar/lv_calendar_header_arrow.c ****             newd.month --;
ARM GAS  C:\Users\OSD\AppData\Local\Temp\ccZwg2pL.s 			page 12


 120:lvgl/src/extra/widgets/calendar/lv_calendar_header_arrow.c ****         }
 121:lvgl/src/extra/widgets/calendar/lv_calendar_header_arrow.c ****     }
 122:lvgl/src/extra/widgets/calendar/lv_calendar_header_arrow.c ****     else {
 123:lvgl/src/extra/widgets/calendar/lv_calendar_header_arrow.c ****         if(newd.month == 12) {
 124:lvgl/src/extra/widgets/calendar/lv_calendar_header_arrow.c ****             newd.month = 1;
 125:lvgl/src/extra/widgets/calendar/lv_calendar_header_arrow.c ****             newd.year ++;
 126:lvgl/src/extra/widgets/calendar/lv_calendar_header_arrow.c ****         }
 127:lvgl/src/extra/widgets/calendar/lv_calendar_header_arrow.c ****         else {
 128:lvgl/src/extra/widgets/calendar/lv_calendar_header_arrow.c ****             newd.month ++;
 129:lvgl/src/extra/widgets/calendar/lv_calendar_header_arrow.c ****         }
 130:lvgl/src/extra/widgets/calendar/lv_calendar_header_arrow.c ****     }
 131:lvgl/src/extra/widgets/calendar/lv_calendar_header_arrow.c **** 
 132:lvgl/src/extra/widgets/calendar/lv_calendar_header_arrow.c ****     lv_calendar_set_showed_date(calendar, newd.year, newd.month);
 133:lvgl/src/extra/widgets/calendar/lv_calendar_header_arrow.c **** 
 134:lvgl/src/extra/widgets/calendar/lv_calendar_header_arrow.c ****     lv_obj_t * label = lv_obj_get_child(header, 1);
 135:lvgl/src/extra/widgets/calendar/lv_calendar_header_arrow.c ****     lv_label_set_text_fmt(label, "%d %s", newd.year, month_names_def[newd.month - 1]);
 136:lvgl/src/extra/widgets/calendar/lv_calendar_header_arrow.c **** }
 137:lvgl/src/extra/widgets/calendar/lv_calendar_header_arrow.c **** 
 138:lvgl/src/extra/widgets/calendar/lv_calendar_header_arrow.c **** static void value_changed_event_cb(lv_event_t * e)
 139:lvgl/src/extra/widgets/calendar/lv_calendar_header_arrow.c **** {
 215              		.loc 1 139 1 is_stmt 1 view -0
 216              		.cfi_startproc
 217              		@ args = 0, pretend = 0, frame = 0
 218              		@ frame_needed = 0, uses_anonymous_args = 0
 219              		.loc 1 139 1 is_stmt 0 view .LVU38
 220 0000 38B5     		push	{r3, r4, r5, lr}
 221              		.cfi_def_cfa_offset 16
 222              		.cfi_offset 3, -16
 223              		.cfi_offset 4, -12
 224              		.cfi_offset 5, -8
 225              		.cfi_offset 14, -4
 140:lvgl/src/extra/widgets/calendar/lv_calendar_header_arrow.c ****     lv_obj_t * header = lv_event_get_target(e);
 226              		.loc 1 140 5 is_stmt 1 view .LVU39
 227              		.loc 1 140 25 is_stmt 0 view .LVU40
 228 0002 FFF7FEFF 		bl	lv_event_get_target
 229              	.LVL32:
 230              		.loc 1 140 25 view .LVU41
 231 0006 0546     		mov	r5, r0
 232              	.LVL33:
 141:lvgl/src/extra/widgets/calendar/lv_calendar_header_arrow.c ****     lv_obj_t * calendar = lv_obj_get_parent(header);
 233              		.loc 1 141 5 is_stmt 1 view .LVU42
 234              		.loc 1 141 27 is_stmt 0 view .LVU43
 235 0008 FFF7FEFF 		bl	lv_obj_get_parent
 236              	.LVL34:
 142:lvgl/src/extra/widgets/calendar/lv_calendar_header_arrow.c **** 
 143:lvgl/src/extra/widgets/calendar/lv_calendar_header_arrow.c ****     const lv_calendar_date_t * cur_date = lv_calendar_get_showed_date(calendar);
 237              		.loc 1 143 5 is_stmt 1 view .LVU44
 238              		.loc 1 143 43 is_stmt 0 view .LVU45
 239 000c FFF7FEFF 		bl	lv_calendar_get_showed_date
 240              	.LVL35:
 241              		.loc 1 143 43 view .LVU46
 242 0010 0446     		mov	r4, r0
 243              	.LVL36:
 144:lvgl/src/extra/widgets/calendar/lv_calendar_header_arrow.c ****     lv_obj_t * label = lv_obj_get_child(header, 1);
 244              		.loc 1 144 5 is_stmt 1 view .LVU47
 245              		.loc 1 144 24 is_stmt 0 view .LVU48
 246 0012 0121     		movs	r1, #1
ARM GAS  C:\Users\OSD\AppData\Local\Temp\ccZwg2pL.s 			page 13


 247 0014 2846     		mov	r0, r5
 248              	.LVL37:
 249              		.loc 1 144 24 view .LVU49
 250 0016 FFF7FEFF 		bl	lv_obj_get_child
 251              	.LVL38:
 145:lvgl/src/extra/widgets/calendar/lv_calendar_header_arrow.c ****     lv_label_set_text_fmt(label, "%d %s", cur_date->year, month_names_def[cur_date->month - 1]);
 252              		.loc 1 145 5 is_stmt 1 view .LVU50
 253              		.loc 1 145 83 is_stmt 0 view .LVU51
 254 001a 94F90230 		ldrsb	r3, [r4, #2]
 255              		.loc 1 145 91 view .LVU52
 256 001e 013B     		subs	r3, r3, #1
 257              		.loc 1 145 5 view .LVU53
 258 0020 034A     		ldr	r2, .L7
 259 0022 52F82330 		ldr	r3, [r2, r3, lsl #2]
 260 0026 2288     		ldrh	r2, [r4]
 261 0028 0249     		ldr	r1, .L7+4
 262 002a FFF7FEFF 		bl	lv_label_set_text_fmt
 263              	.LVL39:
 146:lvgl/src/extra/widgets/calendar/lv_calendar_header_arrow.c **** }
 264              		.loc 1 146 1 view .LVU54
 265 002e 38BD     		pop	{r3, r4, r5, pc}
 266              	.LVL40:
 267              	.L8:
 268              		.loc 1 146 1 view .LVU55
 269              		.align	2
 270              	.L7:
 271 0030 00000000 		.word	.LANCHOR0
 272 0034 00000000 		.word	.LC2
 273              		.cfi_endproc
 274              	.LFE169:
 276              		.section	.text.month_event_cb,"ax",%progbits
 277              		.align	1
 278              		.syntax unified
 279              		.thumb
 280              		.thumb_func
 282              	month_event_cb:
 283              	.LVL41:
 284              	.LFB168:
 102:lvgl/src/extra/widgets/calendar/lv_calendar_header_arrow.c ****     lv_obj_t * btn = lv_event_get_target(e);
 285              		.loc 1 102 1 is_stmt 1 view -0
 286              		.cfi_startproc
 287              		@ args = 0, pretend = 0, frame = 8
 288              		@ frame_needed = 0, uses_anonymous_args = 0
 102:lvgl/src/extra/widgets/calendar/lv_calendar_header_arrow.c ****     lv_obj_t * btn = lv_event_get_target(e);
 289              		.loc 1 102 1 is_stmt 0 view .LVU57
 290 0000 F0B5     		push	{r4, r5, r6, r7, lr}
 291              		.cfi_def_cfa_offset 20
 292              		.cfi_offset 4, -20
 293              		.cfi_offset 5, -16
 294              		.cfi_offset 6, -12
 295              		.cfi_offset 7, -8
 296              		.cfi_offset 14, -4
 297 0002 83B0     		sub	sp, sp, #12
 298              		.cfi_def_cfa_offset 32
 103:lvgl/src/extra/widgets/calendar/lv_calendar_header_arrow.c **** 
 299              		.loc 1 103 5 is_stmt 1 view .LVU58
 103:lvgl/src/extra/widgets/calendar/lv_calendar_header_arrow.c **** 
ARM GAS  C:\Users\OSD\AppData\Local\Temp\ccZwg2pL.s 			page 14


 300              		.loc 1 103 22 is_stmt 0 view .LVU59
 301 0004 FFF7FEFF 		bl	lv_event_get_target
 302              	.LVL42:
 103:lvgl/src/extra/widgets/calendar/lv_calendar_header_arrow.c **** 
 303              		.loc 1 103 22 view .LVU60
 304 0008 0446     		mov	r4, r0
 305              	.LVL43:
 105:lvgl/src/extra/widgets/calendar/lv_calendar_header_arrow.c ****     lv_obj_t * calendar = lv_obj_get_parent(header);
 306              		.loc 1 105 5 is_stmt 1 view .LVU61
 105:lvgl/src/extra/widgets/calendar/lv_calendar_header_arrow.c ****     lv_obj_t * calendar = lv_obj_get_parent(header);
 307              		.loc 1 105 25 is_stmt 0 view .LVU62
 308 000a FFF7FEFF 		bl	lv_obj_get_parent
 309              	.LVL44:
 105:lvgl/src/extra/widgets/calendar/lv_calendar_header_arrow.c ****     lv_obj_t * calendar = lv_obj_get_parent(header);
 310              		.loc 1 105 25 view .LVU63
 311 000e 0546     		mov	r5, r0
 312              	.LVL45:
 106:lvgl/src/extra/widgets/calendar/lv_calendar_header_arrow.c **** 
 313              		.loc 1 106 5 is_stmt 1 view .LVU64
 106:lvgl/src/extra/widgets/calendar/lv_calendar_header_arrow.c **** 
 314              		.loc 1 106 27 is_stmt 0 view .LVU65
 315 0010 FFF7FEFF 		bl	lv_obj_get_parent
 316              	.LVL46:
 106:lvgl/src/extra/widgets/calendar/lv_calendar_header_arrow.c **** 
 317              		.loc 1 106 27 view .LVU66
 318 0014 0646     		mov	r6, r0
 319              	.LVL47:
 108:lvgl/src/extra/widgets/calendar/lv_calendar_header_arrow.c ****     d = lv_calendar_get_showed_date(calendar);
 320              		.loc 1 108 5 is_stmt 1 view .LVU67
 109:lvgl/src/extra/widgets/calendar/lv_calendar_header_arrow.c ****     lv_calendar_date_t newd = *d;
 321              		.loc 1 109 5 view .LVU68
 109:lvgl/src/extra/widgets/calendar/lv_calendar_header_arrow.c ****     lv_calendar_date_t newd = *d;
 322              		.loc 1 109 9 is_stmt 0 view .LVU69
 323 0016 FFF7FEFF 		bl	lv_calendar_get_showed_date
 324              	.LVL48:
 110:lvgl/src/extra/widgets/calendar/lv_calendar_header_arrow.c **** 
 325              		.loc 1 110 5 is_stmt 1 view .LVU70
 110:lvgl/src/extra/widgets/calendar/lv_calendar_header_arrow.c **** 
 326              		.loc 1 110 24 is_stmt 0 view .LVU71
 327 001a 0068     		ldr	r0, [r0]	@ unaligned
 328              	.LVL49:
 110:lvgl/src/extra/widgets/calendar/lv_calendar_header_arrow.c **** 
 329              		.loc 1 110 24 view .LVU72
 330 001c 0190     		str	r0, [sp, #4]
 113:lvgl/src/extra/widgets/calendar/lv_calendar_header_arrow.c ****         if(newd.month == 1) {
 331              		.loc 1 113 5 is_stmt 1 view .LVU73
 113:lvgl/src/extra/widgets/calendar/lv_calendar_header_arrow.c ****         if(newd.month == 1) {
 332              		.loc 1 113 8 is_stmt 0 view .LVU74
 333 001e 0021     		movs	r1, #0
 334 0020 2846     		mov	r0, r5
 335 0022 FFF7FEFF 		bl	lv_obj_get_child
 336              	.LVL50:
 113:lvgl/src/extra/widgets/calendar/lv_calendar_header_arrow.c ****         if(newd.month == 1) {
 337              		.loc 1 113 7 view .LVU75
 338 0026 8442     		cmp	r4, r0
 339 0028 1DD0     		beq	.L15
 123:lvgl/src/extra/widgets/calendar/lv_calendar_header_arrow.c ****             newd.month = 1;
ARM GAS  C:\Users\OSD\AppData\Local\Temp\ccZwg2pL.s 			page 15


 340              		.loc 1 123 9 is_stmt 1 view .LVU76
 123:lvgl/src/extra/widgets/calendar/lv_calendar_header_arrow.c ****             newd.month = 1;
 341              		.loc 1 123 16 is_stmt 0 view .LVU77
 342 002a 9DF90630 		ldrsb	r3, [sp, #6]
 123:lvgl/src/extra/widgets/calendar/lv_calendar_header_arrow.c ****             newd.month = 1;
 343              		.loc 1 123 11 view .LVU78
 344 002e 0C2B     		cmp	r3, #12
 345 0030 2AD0     		beq	.L16
 128:lvgl/src/extra/widgets/calendar/lv_calendar_header_arrow.c ****         }
 346              		.loc 1 128 13 is_stmt 1 view .LVU79
 128:lvgl/src/extra/widgets/calendar/lv_calendar_header_arrow.c ****         }
 347              		.loc 1 128 24 is_stmt 0 view .LVU80
 348 0032 0133     		adds	r3, r3, #1
 349 0034 8DF80630 		strb	r3, [sp, #6]
 350              	.L12:
 132:lvgl/src/extra/widgets/calendar/lv_calendar_header_arrow.c **** 
 351              		.loc 1 132 5 is_stmt 1 view .LVU81
 132:lvgl/src/extra/widgets/calendar/lv_calendar_header_arrow.c **** 
 352              		.loc 1 132 47 is_stmt 0 view .LVU82
 353 0038 BDF80470 		ldrh	r7, [sp, #4]
 132:lvgl/src/extra/widgets/calendar/lv_calendar_header_arrow.c **** 
 354              		.loc 1 132 58 view .LVU83
 355 003c 9DF90640 		ldrsb	r4, [sp, #6]
 356              	.LVL51:
 132:lvgl/src/extra/widgets/calendar/lv_calendar_header_arrow.c **** 
 357              		.loc 1 132 5 view .LVU84
 358 0040 2246     		mov	r2, r4
 359 0042 3946     		mov	r1, r7
 360 0044 3046     		mov	r0, r6
 361 0046 FFF7FEFF 		bl	lv_calendar_set_showed_date
 362              	.LVL52:
 134:lvgl/src/extra/widgets/calendar/lv_calendar_header_arrow.c ****     lv_label_set_text_fmt(label, "%d %s", newd.year, month_names_def[newd.month - 1]);
 363              		.loc 1 134 5 is_stmt 1 view .LVU85
 134:lvgl/src/extra/widgets/calendar/lv_calendar_header_arrow.c ****     lv_label_set_text_fmt(label, "%d %s", newd.year, month_names_def[newd.month - 1]);
 364              		.loc 1 134 24 is_stmt 0 view .LVU86
 365 004a 0121     		movs	r1, #1
 366 004c 2846     		mov	r0, r5
 367 004e FFF7FEFF 		bl	lv_obj_get_child
 368              	.LVL53:
 135:lvgl/src/extra/widgets/calendar/lv_calendar_header_arrow.c **** }
 369              		.loc 1 135 5 is_stmt 1 view .LVU87
 135:lvgl/src/extra/widgets/calendar/lv_calendar_header_arrow.c **** }
 370              		.loc 1 135 81 is_stmt 0 view .LVU88
 371 0052 013C     		subs	r4, r4, #1
 135:lvgl/src/extra/widgets/calendar/lv_calendar_header_arrow.c **** }
 372              		.loc 1 135 5 view .LVU89
 373 0054 114B     		ldr	r3, .L18
 374 0056 53F82430 		ldr	r3, [r3, r4, lsl #2]
 375 005a 3A46     		mov	r2, r7
 376 005c 1049     		ldr	r1, .L18+4
 377 005e FFF7FEFF 		bl	lv_label_set_text_fmt
 378              	.LVL54:
 136:lvgl/src/extra/widgets/calendar/lv_calendar_header_arrow.c **** 
 379              		.loc 1 136 1 view .LVU90
 380 0062 03B0     		add	sp, sp, #12
 381              		.cfi_remember_state
 382              		.cfi_def_cfa_offset 20
ARM GAS  C:\Users\OSD\AppData\Local\Temp\ccZwg2pL.s 			page 16


 383              		@ sp needed
 384 0064 F0BD     		pop	{r4, r5, r6, r7, pc}
 385              	.LVL55:
 386              	.L15:
 387              		.cfi_restore_state
 114:lvgl/src/extra/widgets/calendar/lv_calendar_header_arrow.c ****             newd.month = 12;
 388              		.loc 1 114 9 is_stmt 1 view .LVU91
 114:lvgl/src/extra/widgets/calendar/lv_calendar_header_arrow.c ****             newd.month = 12;
 389              		.loc 1 114 16 is_stmt 0 view .LVU92
 390 0066 9DF90630 		ldrsb	r3, [sp, #6]
 114:lvgl/src/extra/widgets/calendar/lv_calendar_header_arrow.c ****             newd.month = 12;
 391              		.loc 1 114 11 view .LVU93
 392 006a 012B     		cmp	r3, #1
 393 006c 03D0     		beq	.L17
 119:lvgl/src/extra/widgets/calendar/lv_calendar_header_arrow.c ****         }
 394              		.loc 1 119 13 is_stmt 1 view .LVU94
 119:lvgl/src/extra/widgets/calendar/lv_calendar_header_arrow.c ****         }
 395              		.loc 1 119 24 is_stmt 0 view .LVU95
 396 006e 013B     		subs	r3, r3, #1
 397 0070 8DF80630 		strb	r3, [sp, #6]
 398 0074 E0E7     		b	.L12
 399              	.L17:
 115:lvgl/src/extra/widgets/calendar/lv_calendar_header_arrow.c ****             newd.year --;
 400              		.loc 1 115 13 is_stmt 1 view .LVU96
 115:lvgl/src/extra/widgets/calendar/lv_calendar_header_arrow.c ****             newd.year --;
 401              		.loc 1 115 24 is_stmt 0 view .LVU97
 402 0076 0C23     		movs	r3, #12
 403 0078 8DF80630 		strb	r3, [sp, #6]
 116:lvgl/src/extra/widgets/calendar/lv_calendar_header_arrow.c ****         }
 404              		.loc 1 116 13 is_stmt 1 view .LVU98
 116:lvgl/src/extra/widgets/calendar/lv_calendar_header_arrow.c ****         }
 405              		.loc 1 116 17 is_stmt 0 view .LVU99
 406 007c BDF80430 		ldrh	r3, [sp, #4]
 116:lvgl/src/extra/widgets/calendar/lv_calendar_header_arrow.c ****         }
 407              		.loc 1 116 23 view .LVU100
 408 0080 013B     		subs	r3, r3, #1
 409 0082 ADF80430 		strh	r3, [sp, #4]	@ movhi
 410 0086 D7E7     		b	.L12
 411              	.L16:
 124:lvgl/src/extra/widgets/calendar/lv_calendar_header_arrow.c ****             newd.year ++;
 412              		.loc 1 124 13 is_stmt 1 view .LVU101
 124:lvgl/src/extra/widgets/calendar/lv_calendar_header_arrow.c ****             newd.year ++;
 413              		.loc 1 124 24 is_stmt 0 view .LVU102
 414 0088 0123     		movs	r3, #1
 415 008a 8DF80630 		strb	r3, [sp, #6]
 125:lvgl/src/extra/widgets/calendar/lv_calendar_header_arrow.c ****         }
 416              		.loc 1 125 13 is_stmt 1 view .LVU103
 125:lvgl/src/extra/widgets/calendar/lv_calendar_header_arrow.c ****         }
 417              		.loc 1 125 17 is_stmt 0 view .LVU104
 418 008e BDF80430 		ldrh	r3, [sp, #4]
 125:lvgl/src/extra/widgets/calendar/lv_calendar_header_arrow.c ****         }
 419              		.loc 1 125 23 view .LVU105
 420 0092 0133     		adds	r3, r3, #1
 421 0094 ADF80430 		strh	r3, [sp, #4]	@ movhi
 422 0098 CEE7     		b	.L12
 423              	.L19:
 424 009a 00BF     		.align	2
ARM GAS  C:\Users\OSD\AppData\Local\Temp\ccZwg2pL.s 			page 17


 425              	.L18:
 426 009c 00000000 		.word	.LANCHOR0
 427 00a0 00000000 		.word	.LC2
 428              		.cfi_endproc
 429              	.LFE168:
 431              		.section	.text.lv_calendar_header_arrow_create,"ax",%progbits
 432              		.align	1
 433              		.global	lv_calendar_header_arrow_create
 434              		.syntax unified
 435              		.thumb
 436              		.thumb_func
 438              	lv_calendar_header_arrow_create:
 439              	.LVL56:
 440              	.LFB166:
  53:lvgl/src/extra/widgets/calendar/lv_calendar_header_arrow.c ****     lv_obj_t * obj = lv_obj_class_create_obj(&lv_calendar_header_arrow_class, parent);
 441              		.loc 1 53 1 is_stmt 1 view -0
 442              		.cfi_startproc
 443              		@ args = 0, pretend = 0, frame = 0
 444              		@ frame_needed = 0, uses_anonymous_args = 0
  53:lvgl/src/extra/widgets/calendar/lv_calendar_header_arrow.c ****     lv_obj_t * obj = lv_obj_class_create_obj(&lv_calendar_header_arrow_class, parent);
 445              		.loc 1 53 1 is_stmt 0 view .LVU107
 446 0000 10B5     		push	{r4, lr}
 447              		.cfi_def_cfa_offset 8
 448              		.cfi_offset 4, -8
 449              		.cfi_offset 14, -4
 450 0002 0146     		mov	r1, r0
  54:lvgl/src/extra/widgets/calendar/lv_calendar_header_arrow.c ****     lv_obj_class_init_obj(obj);
 451              		.loc 1 54 5 is_stmt 1 view .LVU108
  54:lvgl/src/extra/widgets/calendar/lv_calendar_header_arrow.c ****     lv_obj_class_init_obj(obj);
 452              		.loc 1 54 22 is_stmt 0 view .LVU109
 453 0004 0348     		ldr	r0, .L22
 454              	.LVL57:
  54:lvgl/src/extra/widgets/calendar/lv_calendar_header_arrow.c ****     lv_obj_class_init_obj(obj);
 455              		.loc 1 54 22 view .LVU110
 456 0006 FFF7FEFF 		bl	lv_obj_class_create_obj
 457              	.LVL58:
  54:lvgl/src/extra/widgets/calendar/lv_calendar_header_arrow.c ****     lv_obj_class_init_obj(obj);
 458              		.loc 1 54 22 view .LVU111
 459 000a 0446     		mov	r4, r0
 460              	.LVL59:
  55:lvgl/src/extra/widgets/calendar/lv_calendar_header_arrow.c ****     return obj;
 461              		.loc 1 55 5 is_stmt 1 view .LVU112
 462 000c FFF7FEFF 		bl	lv_obj_class_init_obj
 463              	.LVL60:
  56:lvgl/src/extra/widgets/calendar/lv_calendar_header_arrow.c **** }
 464              		.loc 1 56 5 view .LVU113
  57:lvgl/src/extra/widgets/calendar/lv_calendar_header_arrow.c **** 
 465              		.loc 1 57 1 is_stmt 0 view .LVU114
 466 0010 2046     		mov	r0, r4
 467 0012 10BD     		pop	{r4, pc}
 468              	.LVL61:
 469              	.L23:
  57:lvgl/src/extra/widgets/calendar/lv_calendar_header_arrow.c **** 
 470              		.loc 1 57 1 view .LVU115
 471              		.align	2
 472              	.L22:
 473 0014 00000000 		.word	.LANCHOR1
ARM GAS  C:\Users\OSD\AppData\Local\Temp\ccZwg2pL.s 			page 18


 474              		.cfi_endproc
 475              	.LFE166:
 477              		.section	.rodata.str1.4,"aMS",%progbits,1
 478              		.align	2
 479              	.LC3:
 480 0000 4A616E75 		.ascii	"January\000"
 480      61727900 
 481              		.align	2
 482              	.LC4:
 483 0008 46656272 		.ascii	"February\000"
 483      75617279 
 483      00
 484 0011 000000   		.align	2
 485              	.LC5:
 486 0014 4D617263 		.ascii	"March\000"
 486      6800
 487 001a 0000     		.align	2
 488              	.LC6:
 489 001c 41707269 		.ascii	"April\000"
 489      6C00
 490 0022 0000     		.align	2
 491              	.LC7:
 492 0024 4D617900 		.ascii	"May\000"
 493              		.align	2
 494              	.LC8:
 495 0028 4A756E65 		.ascii	"June\000"
 495      00
 496 002d 000000   		.align	2
 497              	.LC9:
 498 0030 4A756C79 		.ascii	"July\000"
 498      00
 499 0035 000000   		.align	2
 500              	.LC10:
 501 0038 41756775 		.ascii	"August\000"
 501      737400
 502 003f 00       		.align	2
 503              	.LC11:
 504 0040 53657074 		.ascii	"September\000"
 504      656D6265 
 504      7200
 505 004a 0000     		.align	2
 506              	.LC12:
 507 004c 4F63746F 		.ascii	"October\000"
 507      62657200 
 508              		.align	2
 509              	.LC13:
 510 0054 4E6F7665 		.ascii	"November\000"
 510      6D626572 
 510      00
 511 005d 000000   		.align	2
 512              	.LC14:
 513 0060 44656365 		.ascii	"December\000"
 513      6D626572 
 513      00
 514              		.global	lv_calendar_header_arrow_class
 515              		.section	.rodata.lv_calendar_header_arrow_class,"a"
 516              		.align	2
ARM GAS  C:\Users\OSD\AppData\Local\Temp\ccZwg2pL.s 			page 19


 517              		.set	.LANCHOR1,. + 0
 520              	lv_calendar_header_arrow_class:
 521 0000 00000000 		.word	lv_obj_class
 522 0004 00000000 		.word	my_constructor
 523 0008 00000000 		.space	12
 523      00000000 
 523      00000000 
 524 0014 6420     		.short	8292
 525 0016 2B00     		.short	43
 526 0018 00000000 		.space	4
 527              		.section	.rodata.month_names_def,"a"
 528              		.align	2
 529              		.set	.LANCHOR0,. + 0
 532              	month_names_def:
 533 0000 00000000 		.word	.LC3
 534 0004 08000000 		.word	.LC4
 535 0008 14000000 		.word	.LC5
 536 000c 1C000000 		.word	.LC6
 537 0010 24000000 		.word	.LC7
 538 0014 28000000 		.word	.LC8
 539 0018 30000000 		.word	.LC9
 540 001c 38000000 		.word	.LC10
 541 0020 40000000 		.word	.LC11
 542 0024 4C000000 		.word	.LC12
 543 0028 54000000 		.word	.LC13
 544 002c 60000000 		.word	.LC14
 545              		.text
 546              	.Letext0:
 547              		.file 3 "c:\\tools\\gcc-arm-none-eabi\\arm-none-eabi\\include\\machine\\_default_types.h"
 548              		.file 4 "c:\\tools\\gcc-arm-none-eabi\\arm-none-eabi\\include\\sys\\_stdint.h"
 549              		.file 5 "d:\\kzc\\stm32\\h743ii_lcd\\lvgl\\src\\misc\\lv_color.h"
 550              		.file 6 "d:\\kzc\\stm32\\h743ii_lcd\\lvgl\\src\\misc\\lv_style.h"
 551              		.file 7 "d:\\kzc\\stm32\\h743ii_lcd\\lvgl\\src\\misc\\lv_txt.h"
 552              		.file 8 "d:\\kzc\\stm32\\h743ii_lcd\\lvgl\\src\\core\\lv_obj.h"
 553              		.file 9 "d:\\kzc\\stm32\\h743ii_lcd\\lvgl\\src\\misc\\lv_ll.h"
 554              		.file 10 "d:\\kzc\\stm32\\h743ii_lcd\\lvgl\\src\\core\\lv_group.h"
 555              		.file 11 "d:\\kzc\\stm32\\h743ii_lcd\\lvgl\\src\\core\\lv_obj_scroll.h"
 556              		.file 12 "d:\\kzc\\stm32\\h743ii_lcd\\lvgl\\src\\core\\lv_obj_style.h"
 557              		.file 13 "d:\\kzc\\stm32\\h743ii_lcd\\lvgl\\src\\core\\lv_obj_class.h"
 558              		.file 14 "d:\\kzc\\stm32\\h743ii_lcd\\lvgl\\src\\core\\lv_event.h"
 559              		.file 15 "lvgl/src/extra/widgets/calendar/lv_calendar_header_arrow.h"
 560              		.file 16 "lvgl/src/extra/widgets/calendar/lv_calendar.h"
 561              		.file 17 "d:\\kzc\\stm32\\h743ii_lcd\\lvgl\\src\\widgets\\lv_label.h"
 562              		.file 18 "lvgl/src/extra/widgets/calendar/../../layouts/flex/lv_flex.h"
 563              		.file 19 "d:\\kzc\\stm32\\h743ii_lcd\\lvgl\\src\\core\\lv_obj_tree.h"
 564              		.file 20 "d:\\kzc\\stm32\\h743ii_lcd\\lvgl\\src\\widgets\\lv_btn.h"
 565              		.file 21 "d:\\kzc\\stm32\\h743ii_lcd\\lvgl\\src\\core\\lv_obj_style_gen.h"
 566              		.file 22 "d:\\kzc\\stm32\\h743ii_lcd\\lvgl\\src\\core\\lv_obj_pos.h"
ARM GAS  C:\Users\OSD\AppData\Local\Temp\ccZwg2pL.s 			page 20

