ARM GAS  C:\Users\OSD\AppData\Local\Temp\cc5XjPm4.s 			page 1


   1              		.cpu cortex-m7
   2              		.arch armv7e-m
   3              		.fpu fpv5-d16
   4              		.eabi_attribute 28, 1
   5              		.eabi_attribute 20, 1
   6              		.eabi_attribute 21, 1
   7              		.eabi_attribute 23, 3
   8              		.eabi_attribute 24, 1
   9              		.eabi_attribute 25, 1
  10              		.eabi_attribute 26, 1
  11              		.eabi_attribute 30, 1
  12              		.eabi_attribute 34, 1
  13              		.eabi_attribute 18, 4
  14              		.file	"lv_colorwheel.c"
  15              		.text
  16              	.Ltext0:
  17              		.cfi_sections	.debug_frame
  18              		.section	.text.fast_hsv2rgb,"ax",%progbits
  19              		.align	1
  20              		.syntax unified
  21              		.thumb
  22              		.thumb_func
  24              	fast_hsv2rgb:
  25              	.LVL0:
  26              	.LFB222:
  27              		.file 1 "lvgl/src/extra/widgets/colorwheel/lv_colorwheel.c"
   1:lvgl/src/extra/widgets/colorwheel/lv_colorwheel.c **** /**
   2:lvgl/src/extra/widgets/colorwheel/lv_colorwheel.c ****  * @file lv_colorwheel.c
   3:lvgl/src/extra/widgets/colorwheel/lv_colorwheel.c ****  *
   4:lvgl/src/extra/widgets/colorwheel/lv_colorwheel.c ****  * Based on the work of @AloyseTech and @paulpv.
   5:lvgl/src/extra/widgets/colorwheel/lv_colorwheel.c ****  */
   6:lvgl/src/extra/widgets/colorwheel/lv_colorwheel.c **** 
   7:lvgl/src/extra/widgets/colorwheel/lv_colorwheel.c **** /*********************
   8:lvgl/src/extra/widgets/colorwheel/lv_colorwheel.c ****  *      INCLUDES
   9:lvgl/src/extra/widgets/colorwheel/lv_colorwheel.c ****  *********************/
  10:lvgl/src/extra/widgets/colorwheel/lv_colorwheel.c **** #include "lv_colorwheel.h"
  11:lvgl/src/extra/widgets/colorwheel/lv_colorwheel.c **** #if LV_USE_COLORWHEEL
  12:lvgl/src/extra/widgets/colorwheel/lv_colorwheel.c **** 
  13:lvgl/src/extra/widgets/colorwheel/lv_colorwheel.c **** #include "../../../misc/lv_assert.h"
  14:lvgl/src/extra/widgets/colorwheel/lv_colorwheel.c **** 
  15:lvgl/src/extra/widgets/colorwheel/lv_colorwheel.c **** /*********************
  16:lvgl/src/extra/widgets/colorwheel/lv_colorwheel.c ****  *      DEFINES
  17:lvgl/src/extra/widgets/colorwheel/lv_colorwheel.c ****  *********************/
  18:lvgl/src/extra/widgets/colorwheel/lv_colorwheel.c **** #define MY_CLASS &lv_colorwheel_class
  19:lvgl/src/extra/widgets/colorwheel/lv_colorwheel.c **** 
  20:lvgl/src/extra/widgets/colorwheel/lv_colorwheel.c **** #define LV_CPICKER_DEF_QF 3
  21:lvgl/src/extra/widgets/colorwheel/lv_colorwheel.c **** 
  22:lvgl/src/extra/widgets/colorwheel/lv_colorwheel.c **** /**
  23:lvgl/src/extra/widgets/colorwheel/lv_colorwheel.c ****  * The OUTER_MASK_WIDTH define is required to assist with the placing of a mask over the outer ring
  24:lvgl/src/extra/widgets/colorwheel/lv_colorwheel.c ****  * multicoloured radial lines are calculated for the outer ring of the widget their lengths are jit
  25:lvgl/src/extra/widgets/colorwheel/lv_colorwheel.c ****  * integer based arithmetic. From tests the maximum delta was found to be 2 so the current value is
  26:lvgl/src/extra/widgets/colorwheel/lv_colorwheel.c ****  * appropriate masking.
  27:lvgl/src/extra/widgets/colorwheel/lv_colorwheel.c ****  */
  28:lvgl/src/extra/widgets/colorwheel/lv_colorwheel.c **** #define OUTER_MASK_WIDTH 3
  29:lvgl/src/extra/widgets/colorwheel/lv_colorwheel.c **** 
  30:lvgl/src/extra/widgets/colorwheel/lv_colorwheel.c **** /**********************
  31:lvgl/src/extra/widgets/colorwheel/lv_colorwheel.c ****  *      TYPEDEFS
ARM GAS  C:\Users\OSD\AppData\Local\Temp\cc5XjPm4.s 			page 2


  32:lvgl/src/extra/widgets/colorwheel/lv_colorwheel.c ****  **********************/
  33:lvgl/src/extra/widgets/colorwheel/lv_colorwheel.c **** 
  34:lvgl/src/extra/widgets/colorwheel/lv_colorwheel.c **** /**********************
  35:lvgl/src/extra/widgets/colorwheel/lv_colorwheel.c ****  *  STATIC PROTOTYPES
  36:lvgl/src/extra/widgets/colorwheel/lv_colorwheel.c ****  **********************/
  37:lvgl/src/extra/widgets/colorwheel/lv_colorwheel.c **** static void lv_colorwheel_constructor(const lv_obj_class_t * class_p, lv_obj_t * obj);
  38:lvgl/src/extra/widgets/colorwheel/lv_colorwheel.c **** static void lv_colorwheel_event(const lv_obj_class_t * class_p, lv_event_t * e);
  39:lvgl/src/extra/widgets/colorwheel/lv_colorwheel.c **** 
  40:lvgl/src/extra/widgets/colorwheel/lv_colorwheel.c **** static void draw_disc_grad(lv_event_t * e);
  41:lvgl/src/extra/widgets/colorwheel/lv_colorwheel.c **** static void draw_knob(lv_event_t * e);
  42:lvgl/src/extra/widgets/colorwheel/lv_colorwheel.c **** static void invalidate_knob(lv_obj_t * obj);
  43:lvgl/src/extra/widgets/colorwheel/lv_colorwheel.c **** static lv_area_t get_knob_area(lv_obj_t * obj);
  44:lvgl/src/extra/widgets/colorwheel/lv_colorwheel.c **** 
  45:lvgl/src/extra/widgets/colorwheel/lv_colorwheel.c **** static void next_color_mode(lv_obj_t * obj);
  46:lvgl/src/extra/widgets/colorwheel/lv_colorwheel.c **** static lv_res_t double_click_reset(lv_obj_t * obj);
  47:lvgl/src/extra/widgets/colorwheel/lv_colorwheel.c **** static void refr_knob_pos(lv_obj_t * obj);
  48:lvgl/src/extra/widgets/colorwheel/lv_colorwheel.c **** static lv_color_t angle_to_mode_color_fast(lv_obj_t * obj, uint16_t angle);
  49:lvgl/src/extra/widgets/colorwheel/lv_colorwheel.c **** static uint16_t get_angle(lv_obj_t * obj);
  50:lvgl/src/extra/widgets/colorwheel/lv_colorwheel.c **** 
  51:lvgl/src/extra/widgets/colorwheel/lv_colorwheel.c **** /**********************
  52:lvgl/src/extra/widgets/colorwheel/lv_colorwheel.c ****  *  STATIC VARIABLES
  53:lvgl/src/extra/widgets/colorwheel/lv_colorwheel.c ****  **********************/
  54:lvgl/src/extra/widgets/colorwheel/lv_colorwheel.c **** const lv_obj_class_t lv_colorwheel_class = {.instance_size = sizeof(lv_colorwheel_t), .base_class =
  55:lvgl/src/extra/widgets/colorwheel/lv_colorwheel.c ****                                             .constructor_cb = lv_colorwheel_constructor,
  56:lvgl/src/extra/widgets/colorwheel/lv_colorwheel.c ****                                             .event_cb = lv_colorwheel_event,
  57:lvgl/src/extra/widgets/colorwheel/lv_colorwheel.c ****                                             .width_def = LV_DPI_DEF * 2,
  58:lvgl/src/extra/widgets/colorwheel/lv_colorwheel.c ****                                             .height_def = LV_DPI_DEF * 2,
  59:lvgl/src/extra/widgets/colorwheel/lv_colorwheel.c ****                                             .editable = LV_OBJ_CLASS_EDITABLE_TRUE,
  60:lvgl/src/extra/widgets/colorwheel/lv_colorwheel.c ****                                            };
  61:lvgl/src/extra/widgets/colorwheel/lv_colorwheel.c **** 
  62:lvgl/src/extra/widgets/colorwheel/lv_colorwheel.c **** static bool create_knob_recolor;
  63:lvgl/src/extra/widgets/colorwheel/lv_colorwheel.c **** 
  64:lvgl/src/extra/widgets/colorwheel/lv_colorwheel.c **** /**********************
  65:lvgl/src/extra/widgets/colorwheel/lv_colorwheel.c ****  *      MACROS
  66:lvgl/src/extra/widgets/colorwheel/lv_colorwheel.c ****  **********************/
  67:lvgl/src/extra/widgets/colorwheel/lv_colorwheel.c **** 
  68:lvgl/src/extra/widgets/colorwheel/lv_colorwheel.c **** /**********************
  69:lvgl/src/extra/widgets/colorwheel/lv_colorwheel.c ****  *   GLOBAL FUNCTIONS
  70:lvgl/src/extra/widgets/colorwheel/lv_colorwheel.c ****  **********************/
  71:lvgl/src/extra/widgets/colorwheel/lv_colorwheel.c **** 
  72:lvgl/src/extra/widgets/colorwheel/lv_colorwheel.c **** /**
  73:lvgl/src/extra/widgets/colorwheel/lv_colorwheel.c ****  * Create a color_picker object
  74:lvgl/src/extra/widgets/colorwheel/lv_colorwheel.c ****  * @param parent pointer to an object, it will be the parent of the new color_picker
  75:lvgl/src/extra/widgets/colorwheel/lv_colorwheel.c ****  * @return pointer to the created color_picker
  76:lvgl/src/extra/widgets/colorwheel/lv_colorwheel.c ****  */
  77:lvgl/src/extra/widgets/colorwheel/lv_colorwheel.c **** lv_obj_t * lv_colorwheel_create(lv_obj_t * parent, bool knob_recolor)
  78:lvgl/src/extra/widgets/colorwheel/lv_colorwheel.c **** {
  79:lvgl/src/extra/widgets/colorwheel/lv_colorwheel.c ****     LV_LOG_INFO("begin");
  80:lvgl/src/extra/widgets/colorwheel/lv_colorwheel.c ****     create_knob_recolor = knob_recolor;
  81:lvgl/src/extra/widgets/colorwheel/lv_colorwheel.c **** 
  82:lvgl/src/extra/widgets/colorwheel/lv_colorwheel.c ****     lv_obj_t * obj = lv_obj_class_create_obj(MY_CLASS, parent);
  83:lvgl/src/extra/widgets/colorwheel/lv_colorwheel.c ****     lv_obj_class_init_obj(obj);
  84:lvgl/src/extra/widgets/colorwheel/lv_colorwheel.c ****     return obj;
  85:lvgl/src/extra/widgets/colorwheel/lv_colorwheel.c **** }
  86:lvgl/src/extra/widgets/colorwheel/lv_colorwheel.c **** 
  87:lvgl/src/extra/widgets/colorwheel/lv_colorwheel.c **** /*=====================
  88:lvgl/src/extra/widgets/colorwheel/lv_colorwheel.c ****  * Setter functions
ARM GAS  C:\Users\OSD\AppData\Local\Temp\cc5XjPm4.s 			page 3


  89:lvgl/src/extra/widgets/colorwheel/lv_colorwheel.c ****  *====================*/
  90:lvgl/src/extra/widgets/colorwheel/lv_colorwheel.c **** 
  91:lvgl/src/extra/widgets/colorwheel/lv_colorwheel.c **** /**
  92:lvgl/src/extra/widgets/colorwheel/lv_colorwheel.c ****  * Set the current hsv of a color wheel.
  93:lvgl/src/extra/widgets/colorwheel/lv_colorwheel.c ****  * @param colorwheel pointer to color wheel object
  94:lvgl/src/extra/widgets/colorwheel/lv_colorwheel.c ****  * @param color current selected hsv
  95:lvgl/src/extra/widgets/colorwheel/lv_colorwheel.c ****  * @return true if changed, otherwise false
  96:lvgl/src/extra/widgets/colorwheel/lv_colorwheel.c ****  */
  97:lvgl/src/extra/widgets/colorwheel/lv_colorwheel.c **** bool lv_colorwheel_set_hsv(lv_obj_t * obj, lv_color_hsv_t hsv)
  98:lvgl/src/extra/widgets/colorwheel/lv_colorwheel.c **** {
  99:lvgl/src/extra/widgets/colorwheel/lv_colorwheel.c ****     if(hsv.h > 360) hsv.h %= 360;
 100:lvgl/src/extra/widgets/colorwheel/lv_colorwheel.c ****     if(hsv.s > 100) hsv.s = 100;
 101:lvgl/src/extra/widgets/colorwheel/lv_colorwheel.c ****     if(hsv.v > 100) hsv.v = 100;
 102:lvgl/src/extra/widgets/colorwheel/lv_colorwheel.c **** 
 103:lvgl/src/extra/widgets/colorwheel/lv_colorwheel.c ****     LV_ASSERT_OBJ(obj, MY_CLASS);
 104:lvgl/src/extra/widgets/colorwheel/lv_colorwheel.c ****     lv_colorwheel_t * colorwheel = (lv_colorwheel_t *)obj;
 105:lvgl/src/extra/widgets/colorwheel/lv_colorwheel.c **** 
 106:lvgl/src/extra/widgets/colorwheel/lv_colorwheel.c ****     if(colorwheel->hsv.h == hsv.h && colorwheel->hsv.s == hsv.s && colorwheel->hsv.v == hsv.v) retu
 107:lvgl/src/extra/widgets/colorwheel/lv_colorwheel.c **** 
 108:lvgl/src/extra/widgets/colorwheel/lv_colorwheel.c ****     colorwheel->hsv = hsv;
 109:lvgl/src/extra/widgets/colorwheel/lv_colorwheel.c **** 
 110:lvgl/src/extra/widgets/colorwheel/lv_colorwheel.c ****     refr_knob_pos(obj);
 111:lvgl/src/extra/widgets/colorwheel/lv_colorwheel.c **** 
 112:lvgl/src/extra/widgets/colorwheel/lv_colorwheel.c ****     lv_obj_invalidate(obj);
 113:lvgl/src/extra/widgets/colorwheel/lv_colorwheel.c **** 
 114:lvgl/src/extra/widgets/colorwheel/lv_colorwheel.c ****     return true;
 115:lvgl/src/extra/widgets/colorwheel/lv_colorwheel.c **** }
 116:lvgl/src/extra/widgets/colorwheel/lv_colorwheel.c **** 
 117:lvgl/src/extra/widgets/colorwheel/lv_colorwheel.c **** /**
 118:lvgl/src/extra/widgets/colorwheel/lv_colorwheel.c ****  * Set the current color of a color wheel.
 119:lvgl/src/extra/widgets/colorwheel/lv_colorwheel.c ****  * @param colorwheel pointer to color wheel object
 120:lvgl/src/extra/widgets/colorwheel/lv_colorwheel.c ****  * @param color current selected color
 121:lvgl/src/extra/widgets/colorwheel/lv_colorwheel.c ****  * @return true if changed, otherwise false
 122:lvgl/src/extra/widgets/colorwheel/lv_colorwheel.c ****  */
 123:lvgl/src/extra/widgets/colorwheel/lv_colorwheel.c **** bool lv_colorwheel_set_rgb(lv_obj_t * obj, lv_color_t color)
 124:lvgl/src/extra/widgets/colorwheel/lv_colorwheel.c **** {
 125:lvgl/src/extra/widgets/colorwheel/lv_colorwheel.c ****     lv_color32_t c32;
 126:lvgl/src/extra/widgets/colorwheel/lv_colorwheel.c ****     c32.full = lv_color_to32(color);
 127:lvgl/src/extra/widgets/colorwheel/lv_colorwheel.c **** 
 128:lvgl/src/extra/widgets/colorwheel/lv_colorwheel.c ****     return lv_colorwheel_set_hsv(obj,  lv_color_rgb_to_hsv(c32.ch.red, c32.ch.green, c32.ch.blue));
 129:lvgl/src/extra/widgets/colorwheel/lv_colorwheel.c **** }
 130:lvgl/src/extra/widgets/colorwheel/lv_colorwheel.c **** 
 131:lvgl/src/extra/widgets/colorwheel/lv_colorwheel.c **** /**
 132:lvgl/src/extra/widgets/colorwheel/lv_colorwheel.c ****  * Set the current color mode.
 133:lvgl/src/extra/widgets/colorwheel/lv_colorwheel.c ****  * @param colorwheel pointer to color wheel object
 134:lvgl/src/extra/widgets/colorwheel/lv_colorwheel.c ****  * @param mode color mode (hue/sat/val)
 135:lvgl/src/extra/widgets/colorwheel/lv_colorwheel.c ****  */
 136:lvgl/src/extra/widgets/colorwheel/lv_colorwheel.c **** void lv_colorwheel_set_mode(lv_obj_t * obj, lv_colorwheel_mode_t mode)
 137:lvgl/src/extra/widgets/colorwheel/lv_colorwheel.c **** {
 138:lvgl/src/extra/widgets/colorwheel/lv_colorwheel.c ****     LV_ASSERT_OBJ(obj, MY_CLASS);
 139:lvgl/src/extra/widgets/colorwheel/lv_colorwheel.c ****     lv_colorwheel_t * colorwheel = (lv_colorwheel_t *)obj;
 140:lvgl/src/extra/widgets/colorwheel/lv_colorwheel.c **** 
 141:lvgl/src/extra/widgets/colorwheel/lv_colorwheel.c ****     colorwheel->mode = mode;
 142:lvgl/src/extra/widgets/colorwheel/lv_colorwheel.c ****     refr_knob_pos(obj);
 143:lvgl/src/extra/widgets/colorwheel/lv_colorwheel.c ****     lv_obj_invalidate(obj);
 144:lvgl/src/extra/widgets/colorwheel/lv_colorwheel.c **** }
 145:lvgl/src/extra/widgets/colorwheel/lv_colorwheel.c **** 
ARM GAS  C:\Users\OSD\AppData\Local\Temp\cc5XjPm4.s 			page 4


 146:lvgl/src/extra/widgets/colorwheel/lv_colorwheel.c **** /**
 147:lvgl/src/extra/widgets/colorwheel/lv_colorwheel.c ****  * Set if the color mode is changed on long press on center
 148:lvgl/src/extra/widgets/colorwheel/lv_colorwheel.c ****  * @param colorwheel pointer to color wheel object
 149:lvgl/src/extra/widgets/colorwheel/lv_colorwheel.c ****  * @param fixed color mode cannot be changed on long press
 150:lvgl/src/extra/widgets/colorwheel/lv_colorwheel.c ****  */
 151:lvgl/src/extra/widgets/colorwheel/lv_colorwheel.c **** void lv_colorwheel_set_mode_fixed(lv_obj_t * obj, bool fixed)
 152:lvgl/src/extra/widgets/colorwheel/lv_colorwheel.c **** {
 153:lvgl/src/extra/widgets/colorwheel/lv_colorwheel.c ****     LV_ASSERT_OBJ(obj, MY_CLASS);
 154:lvgl/src/extra/widgets/colorwheel/lv_colorwheel.c ****     lv_colorwheel_t * colorwheel = (lv_colorwheel_t *)obj;
 155:lvgl/src/extra/widgets/colorwheel/lv_colorwheel.c **** 
 156:lvgl/src/extra/widgets/colorwheel/lv_colorwheel.c ****     colorwheel->mode_fixed = fixed;
 157:lvgl/src/extra/widgets/colorwheel/lv_colorwheel.c **** }
 158:lvgl/src/extra/widgets/colorwheel/lv_colorwheel.c **** 
 159:lvgl/src/extra/widgets/colorwheel/lv_colorwheel.c **** /*=====================
 160:lvgl/src/extra/widgets/colorwheel/lv_colorwheel.c ****  * Getter functions
 161:lvgl/src/extra/widgets/colorwheel/lv_colorwheel.c ****  *====================*/
 162:lvgl/src/extra/widgets/colorwheel/lv_colorwheel.c **** 
 163:lvgl/src/extra/widgets/colorwheel/lv_colorwheel.c **** /**
 164:lvgl/src/extra/widgets/colorwheel/lv_colorwheel.c ****  * Get the current selected hsv of a color wheel.
 165:lvgl/src/extra/widgets/colorwheel/lv_colorwheel.c ****  * @param colorwheel pointer to color wheel object
 166:lvgl/src/extra/widgets/colorwheel/lv_colorwheel.c ****  * @return current selected hsv
 167:lvgl/src/extra/widgets/colorwheel/lv_colorwheel.c ****  */
 168:lvgl/src/extra/widgets/colorwheel/lv_colorwheel.c **** lv_color_hsv_t lv_colorwheel_get_hsv(lv_obj_t * obj)
 169:lvgl/src/extra/widgets/colorwheel/lv_colorwheel.c **** {
 170:lvgl/src/extra/widgets/colorwheel/lv_colorwheel.c ****     LV_ASSERT_OBJ(obj, MY_CLASS);
 171:lvgl/src/extra/widgets/colorwheel/lv_colorwheel.c ****     lv_colorwheel_t * colorwheel = (lv_colorwheel_t *)obj;
 172:lvgl/src/extra/widgets/colorwheel/lv_colorwheel.c **** 
 173:lvgl/src/extra/widgets/colorwheel/lv_colorwheel.c ****     return colorwheel->hsv;
 174:lvgl/src/extra/widgets/colorwheel/lv_colorwheel.c **** }
 175:lvgl/src/extra/widgets/colorwheel/lv_colorwheel.c **** 
 176:lvgl/src/extra/widgets/colorwheel/lv_colorwheel.c **** /**
 177:lvgl/src/extra/widgets/colorwheel/lv_colorwheel.c ****  * Get the current selected color of a color wheel.
 178:lvgl/src/extra/widgets/colorwheel/lv_colorwheel.c ****  * @param colorwheel pointer to color wheel object
 179:lvgl/src/extra/widgets/colorwheel/lv_colorwheel.c ****  * @return color current selected color
 180:lvgl/src/extra/widgets/colorwheel/lv_colorwheel.c ****  */
 181:lvgl/src/extra/widgets/colorwheel/lv_colorwheel.c **** lv_color_t lv_colorwheel_get_rgb(lv_obj_t * obj)
 182:lvgl/src/extra/widgets/colorwheel/lv_colorwheel.c **** {
 183:lvgl/src/extra/widgets/colorwheel/lv_colorwheel.c ****     LV_ASSERT_OBJ(obj, MY_CLASS);
 184:lvgl/src/extra/widgets/colorwheel/lv_colorwheel.c ****     lv_colorwheel_t * colorwheel = (lv_colorwheel_t *)obj;
 185:lvgl/src/extra/widgets/colorwheel/lv_colorwheel.c **** 
 186:lvgl/src/extra/widgets/colorwheel/lv_colorwheel.c ****     return lv_color_hsv_to_rgb(colorwheel->hsv.h, colorwheel->hsv.s, colorwheel->hsv.v);
 187:lvgl/src/extra/widgets/colorwheel/lv_colorwheel.c **** }
 188:lvgl/src/extra/widgets/colorwheel/lv_colorwheel.c **** 
 189:lvgl/src/extra/widgets/colorwheel/lv_colorwheel.c **** /**
 190:lvgl/src/extra/widgets/colorwheel/lv_colorwheel.c ****  * Get the current color mode.
 191:lvgl/src/extra/widgets/colorwheel/lv_colorwheel.c ****  * @param colorwheel pointer to color wheel object
 192:lvgl/src/extra/widgets/colorwheel/lv_colorwheel.c ****  * @return color mode (hue/sat/val)
 193:lvgl/src/extra/widgets/colorwheel/lv_colorwheel.c ****  */
 194:lvgl/src/extra/widgets/colorwheel/lv_colorwheel.c **** lv_colorwheel_mode_t lv_colorwheel_get_color_mode(lv_obj_t * obj)
 195:lvgl/src/extra/widgets/colorwheel/lv_colorwheel.c **** {
 196:lvgl/src/extra/widgets/colorwheel/lv_colorwheel.c ****     LV_ASSERT_OBJ(obj, MY_CLASS);
 197:lvgl/src/extra/widgets/colorwheel/lv_colorwheel.c ****     lv_colorwheel_t * colorwheel = (lv_colorwheel_t *)obj;
 198:lvgl/src/extra/widgets/colorwheel/lv_colorwheel.c **** 
 199:lvgl/src/extra/widgets/colorwheel/lv_colorwheel.c ****     return colorwheel->mode;
 200:lvgl/src/extra/widgets/colorwheel/lv_colorwheel.c **** }
 201:lvgl/src/extra/widgets/colorwheel/lv_colorwheel.c **** 
 202:lvgl/src/extra/widgets/colorwheel/lv_colorwheel.c **** /**
ARM GAS  C:\Users\OSD\AppData\Local\Temp\cc5XjPm4.s 			page 5


 203:lvgl/src/extra/widgets/colorwheel/lv_colorwheel.c ****  * Get if the color mode is changed on long press on center
 204:lvgl/src/extra/widgets/colorwheel/lv_colorwheel.c ****  * @param colorwheel pointer to color wheel object
 205:lvgl/src/extra/widgets/colorwheel/lv_colorwheel.c ****  * @return mode cannot be changed on long press
 206:lvgl/src/extra/widgets/colorwheel/lv_colorwheel.c ****  */
 207:lvgl/src/extra/widgets/colorwheel/lv_colorwheel.c **** bool lv_colorwheel_get_color_mode_fixed(lv_obj_t * obj)
 208:lvgl/src/extra/widgets/colorwheel/lv_colorwheel.c **** {
 209:lvgl/src/extra/widgets/colorwheel/lv_colorwheel.c ****     LV_ASSERT_OBJ(obj, MY_CLASS);
 210:lvgl/src/extra/widgets/colorwheel/lv_colorwheel.c ****     lv_colorwheel_t * colorwheel = (lv_colorwheel_t *)obj;
 211:lvgl/src/extra/widgets/colorwheel/lv_colorwheel.c **** 
 212:lvgl/src/extra/widgets/colorwheel/lv_colorwheel.c ****     return colorwheel->mode_fixed;
 213:lvgl/src/extra/widgets/colorwheel/lv_colorwheel.c **** }
 214:lvgl/src/extra/widgets/colorwheel/lv_colorwheel.c **** 
 215:lvgl/src/extra/widgets/colorwheel/lv_colorwheel.c **** /*=====================
 216:lvgl/src/extra/widgets/colorwheel/lv_colorwheel.c ****  * Other functions
 217:lvgl/src/extra/widgets/colorwheel/lv_colorwheel.c ****  *====================*/
 218:lvgl/src/extra/widgets/colorwheel/lv_colorwheel.c **** 
 219:lvgl/src/extra/widgets/colorwheel/lv_colorwheel.c **** /**********************
 220:lvgl/src/extra/widgets/colorwheel/lv_colorwheel.c ****  *   STATIC FUNCTIONS
 221:lvgl/src/extra/widgets/colorwheel/lv_colorwheel.c ****  **********************/
 222:lvgl/src/extra/widgets/colorwheel/lv_colorwheel.c **** 
 223:lvgl/src/extra/widgets/colorwheel/lv_colorwheel.c **** static void lv_colorwheel_constructor(const lv_obj_class_t * class_p, lv_obj_t * obj)
 224:lvgl/src/extra/widgets/colorwheel/lv_colorwheel.c **** {
 225:lvgl/src/extra/widgets/colorwheel/lv_colorwheel.c ****     LV_UNUSED(class_p);
 226:lvgl/src/extra/widgets/colorwheel/lv_colorwheel.c ****     lv_colorwheel_t * colorwheel = (lv_colorwheel_t *)obj;
 227:lvgl/src/extra/widgets/colorwheel/lv_colorwheel.c ****     colorwheel->hsv.h = 0;
 228:lvgl/src/extra/widgets/colorwheel/lv_colorwheel.c ****     colorwheel->hsv.s = 100;
 229:lvgl/src/extra/widgets/colorwheel/lv_colorwheel.c ****     colorwheel->hsv.v = 100;
 230:lvgl/src/extra/widgets/colorwheel/lv_colorwheel.c ****     colorwheel->mode = LV_COLORWHEEL_MODE_HUE;
 231:lvgl/src/extra/widgets/colorwheel/lv_colorwheel.c ****     colorwheel->mode_fixed = 0;
 232:lvgl/src/extra/widgets/colorwheel/lv_colorwheel.c ****     colorwheel->last_click_time = 0;
 233:lvgl/src/extra/widgets/colorwheel/lv_colorwheel.c ****     colorwheel->last_change_time = 0;
 234:lvgl/src/extra/widgets/colorwheel/lv_colorwheel.c ****     colorwheel->knob.recolor = create_knob_recolor;
 235:lvgl/src/extra/widgets/colorwheel/lv_colorwheel.c **** 
 236:lvgl/src/extra/widgets/colorwheel/lv_colorwheel.c ****     lv_obj_add_flag(obj, LV_OBJ_FLAG_ADV_HITTEST);
 237:lvgl/src/extra/widgets/colorwheel/lv_colorwheel.c ****     lv_obj_clear_flag(obj, LV_OBJ_FLAG_SCROLL_CHAIN);
 238:lvgl/src/extra/widgets/colorwheel/lv_colorwheel.c ****     refr_knob_pos(obj);
 239:lvgl/src/extra/widgets/colorwheel/lv_colorwheel.c **** }
 240:lvgl/src/extra/widgets/colorwheel/lv_colorwheel.c **** 
 241:lvgl/src/extra/widgets/colorwheel/lv_colorwheel.c **** static void draw_disc_grad(lv_event_t * e)
 242:lvgl/src/extra/widgets/colorwheel/lv_colorwheel.c **** {
 243:lvgl/src/extra/widgets/colorwheel/lv_colorwheel.c ****     lv_obj_t * obj = lv_event_get_target(e);
 244:lvgl/src/extra/widgets/colorwheel/lv_colorwheel.c ****     lv_draw_ctx_t * draw_ctx = lv_event_get_draw_ctx(e);
 245:lvgl/src/extra/widgets/colorwheel/lv_colorwheel.c ****     lv_coord_t w = lv_obj_get_width(obj);
 246:lvgl/src/extra/widgets/colorwheel/lv_colorwheel.c ****     lv_coord_t h = lv_obj_get_height(obj);
 247:lvgl/src/extra/widgets/colorwheel/lv_colorwheel.c ****     lv_coord_t cx = obj->coords.x1 + w / 2;
 248:lvgl/src/extra/widgets/colorwheel/lv_colorwheel.c ****     lv_coord_t cy = obj->coords.y1 + h / 2;
 249:lvgl/src/extra/widgets/colorwheel/lv_colorwheel.c ****     lv_coord_t r = w / 2;
 250:lvgl/src/extra/widgets/colorwheel/lv_colorwheel.c **** 
 251:lvgl/src/extra/widgets/colorwheel/lv_colorwheel.c ****     lv_draw_line_dsc_t line_dsc;
 252:lvgl/src/extra/widgets/colorwheel/lv_colorwheel.c ****     lv_draw_line_dsc_init(&line_dsc);
 253:lvgl/src/extra/widgets/colorwheel/lv_colorwheel.c ****     lv_obj_init_draw_line_dsc(obj, LV_PART_MAIN, &line_dsc);
 254:lvgl/src/extra/widgets/colorwheel/lv_colorwheel.c **** 
 255:lvgl/src/extra/widgets/colorwheel/lv_colorwheel.c ****     line_dsc.width = (r * 628 / (256 / LV_CPICKER_DEF_QF)) / 100;
 256:lvgl/src/extra/widgets/colorwheel/lv_colorwheel.c ****     line_dsc.width += 2;
 257:lvgl/src/extra/widgets/colorwheel/lv_colorwheel.c ****     uint16_t i;
 258:lvgl/src/extra/widgets/colorwheel/lv_colorwheel.c ****     uint32_t a = 0;
 259:lvgl/src/extra/widgets/colorwheel/lv_colorwheel.c ****     lv_coord_t cir_w = lv_obj_get_style_arc_width(obj, LV_PART_MAIN);
ARM GAS  C:\Users\OSD\AppData\Local\Temp\cc5XjPm4.s 			page 6


 260:lvgl/src/extra/widgets/colorwheel/lv_colorwheel.c **** 
 261:lvgl/src/extra/widgets/colorwheel/lv_colorwheel.c **** #if LV_DRAW_COMPLEX
 262:lvgl/src/extra/widgets/colorwheel/lv_colorwheel.c ****     /*Mask outer and inner ring of widget to tidy up ragged edges of lines while drawing outer ring
 263:lvgl/src/extra/widgets/colorwheel/lv_colorwheel.c ****     lv_draw_mask_radius_param_t mask_out_param;
 264:lvgl/src/extra/widgets/colorwheel/lv_colorwheel.c ****     lv_draw_mask_radius_init(&mask_out_param, &obj->coords, LV_RADIUS_CIRCLE, false);
 265:lvgl/src/extra/widgets/colorwheel/lv_colorwheel.c ****     int16_t mask_out_id = lv_draw_mask_add(&mask_out_param, 0);
 266:lvgl/src/extra/widgets/colorwheel/lv_colorwheel.c **** 
 267:lvgl/src/extra/widgets/colorwheel/lv_colorwheel.c ****     lv_area_t mask_area;
 268:lvgl/src/extra/widgets/colorwheel/lv_colorwheel.c ****     lv_area_copy(&mask_area, &obj->coords);
 269:lvgl/src/extra/widgets/colorwheel/lv_colorwheel.c ****     mask_area.x1 += cir_w;
 270:lvgl/src/extra/widgets/colorwheel/lv_colorwheel.c ****     mask_area.x2 -= cir_w;
 271:lvgl/src/extra/widgets/colorwheel/lv_colorwheel.c ****     mask_area.y1 += cir_w;
 272:lvgl/src/extra/widgets/colorwheel/lv_colorwheel.c ****     mask_area.y2 -= cir_w;
 273:lvgl/src/extra/widgets/colorwheel/lv_colorwheel.c ****     lv_draw_mask_radius_param_t mask_in_param;
 274:lvgl/src/extra/widgets/colorwheel/lv_colorwheel.c ****     lv_draw_mask_radius_init(&mask_in_param, &mask_area, LV_RADIUS_CIRCLE, true);
 275:lvgl/src/extra/widgets/colorwheel/lv_colorwheel.c ****     int16_t mask_in_id = lv_draw_mask_add(&mask_in_param, 0);
 276:lvgl/src/extra/widgets/colorwheel/lv_colorwheel.c **** 
 277:lvgl/src/extra/widgets/colorwheel/lv_colorwheel.c ****     /*The inner and outer line ends will be masked out.
 278:lvgl/src/extra/widgets/colorwheel/lv_colorwheel.c ****      *So make lines a little bit longer because the masking makes a more even result*/
 279:lvgl/src/extra/widgets/colorwheel/lv_colorwheel.c ****     lv_coord_t cir_w_extra = line_dsc.width;
 280:lvgl/src/extra/widgets/colorwheel/lv_colorwheel.c **** #else
 281:lvgl/src/extra/widgets/colorwheel/lv_colorwheel.c ****     lv_coord_t cir_w_extra = 0;
 282:lvgl/src/extra/widgets/colorwheel/lv_colorwheel.c **** #endif
 283:lvgl/src/extra/widgets/colorwheel/lv_colorwheel.c **** 
 284:lvgl/src/extra/widgets/colorwheel/lv_colorwheel.c ****     for(i = 0; i <= 256; i += LV_CPICKER_DEF_QF, a += 360 * LV_CPICKER_DEF_QF) {
 285:lvgl/src/extra/widgets/colorwheel/lv_colorwheel.c ****         line_dsc.color = angle_to_mode_color_fast(obj, i);
 286:lvgl/src/extra/widgets/colorwheel/lv_colorwheel.c ****         uint16_t angle_trigo = (uint16_t)(a >> 8); /*i * 360 / 256 is the scale to apply, but we ca
 287:lvgl/src/extra/widgets/colorwheel/lv_colorwheel.c **** 
 288:lvgl/src/extra/widgets/colorwheel/lv_colorwheel.c ****         lv_point_t p[2];
 289:lvgl/src/extra/widgets/colorwheel/lv_colorwheel.c ****         p[0].x = cx + ((r + cir_w_extra) * lv_trigo_sin(angle_trigo) >> LV_TRIGO_SHIFT);
 290:lvgl/src/extra/widgets/colorwheel/lv_colorwheel.c ****         p[0].y = cy + ((r + cir_w_extra) * lv_trigo_cos(angle_trigo) >> LV_TRIGO_SHIFT);
 291:lvgl/src/extra/widgets/colorwheel/lv_colorwheel.c ****         p[1].x = cx + ((r - cir_w - cir_w_extra) * lv_trigo_sin(angle_trigo) >> LV_TRIGO_SHIFT);
 292:lvgl/src/extra/widgets/colorwheel/lv_colorwheel.c ****         p[1].y = cy + ((r - cir_w - cir_w_extra) * lv_trigo_cos(angle_trigo) >> LV_TRIGO_SHIFT);
 293:lvgl/src/extra/widgets/colorwheel/lv_colorwheel.c **** 
 294:lvgl/src/extra/widgets/colorwheel/lv_colorwheel.c ****         lv_draw_line(draw_ctx, &line_dsc, &p[0], &p[1]);
 295:lvgl/src/extra/widgets/colorwheel/lv_colorwheel.c ****     }
 296:lvgl/src/extra/widgets/colorwheel/lv_colorwheel.c **** 
 297:lvgl/src/extra/widgets/colorwheel/lv_colorwheel.c **** #if LV_DRAW_COMPLEX
 298:lvgl/src/extra/widgets/colorwheel/lv_colorwheel.c ****     lv_draw_mask_free_param(&mask_out_param);
 299:lvgl/src/extra/widgets/colorwheel/lv_colorwheel.c ****     lv_draw_mask_free_param(&mask_in_param);
 300:lvgl/src/extra/widgets/colorwheel/lv_colorwheel.c ****     lv_draw_mask_remove_id(mask_out_id);
 301:lvgl/src/extra/widgets/colorwheel/lv_colorwheel.c ****     lv_draw_mask_remove_id(mask_in_id);
 302:lvgl/src/extra/widgets/colorwheel/lv_colorwheel.c **** #endif
 303:lvgl/src/extra/widgets/colorwheel/lv_colorwheel.c **** }
 304:lvgl/src/extra/widgets/colorwheel/lv_colorwheel.c **** 
 305:lvgl/src/extra/widgets/colorwheel/lv_colorwheel.c **** static void draw_knob(lv_event_t * e)
 306:lvgl/src/extra/widgets/colorwheel/lv_colorwheel.c **** {
 307:lvgl/src/extra/widgets/colorwheel/lv_colorwheel.c ****     lv_obj_t * obj = lv_event_get_target(e);
 308:lvgl/src/extra/widgets/colorwheel/lv_colorwheel.c ****     lv_draw_ctx_t * draw_ctx = lv_event_get_draw_ctx(e);
 309:lvgl/src/extra/widgets/colorwheel/lv_colorwheel.c ****     lv_colorwheel_t * colorwheel = (lv_colorwheel_t *)obj;
 310:lvgl/src/extra/widgets/colorwheel/lv_colorwheel.c **** 
 311:lvgl/src/extra/widgets/colorwheel/lv_colorwheel.c ****     lv_draw_rect_dsc_t cir_dsc;
 312:lvgl/src/extra/widgets/colorwheel/lv_colorwheel.c ****     lv_draw_rect_dsc_init(&cir_dsc);
 313:lvgl/src/extra/widgets/colorwheel/lv_colorwheel.c ****     lv_obj_init_draw_rect_dsc(obj, LV_PART_KNOB, &cir_dsc);
 314:lvgl/src/extra/widgets/colorwheel/lv_colorwheel.c **** 
 315:lvgl/src/extra/widgets/colorwheel/lv_colorwheel.c ****     cir_dsc.radius = LV_RADIUS_CIRCLE;
 316:lvgl/src/extra/widgets/colorwheel/lv_colorwheel.c **** 
ARM GAS  C:\Users\OSD\AppData\Local\Temp\cc5XjPm4.s 			page 7


 317:lvgl/src/extra/widgets/colorwheel/lv_colorwheel.c ****     if(colorwheel->knob.recolor) {
 318:lvgl/src/extra/widgets/colorwheel/lv_colorwheel.c ****         cir_dsc.bg_color = lv_colorwheel_get_rgb(obj);
 319:lvgl/src/extra/widgets/colorwheel/lv_colorwheel.c ****     }
 320:lvgl/src/extra/widgets/colorwheel/lv_colorwheel.c **** 
 321:lvgl/src/extra/widgets/colorwheel/lv_colorwheel.c ****     lv_area_t knob_area = get_knob_area(obj);
 322:lvgl/src/extra/widgets/colorwheel/lv_colorwheel.c **** 
 323:lvgl/src/extra/widgets/colorwheel/lv_colorwheel.c ****     lv_draw_rect(draw_ctx, &cir_dsc, &knob_area);
 324:lvgl/src/extra/widgets/colorwheel/lv_colorwheel.c **** }
 325:lvgl/src/extra/widgets/colorwheel/lv_colorwheel.c **** 
 326:lvgl/src/extra/widgets/colorwheel/lv_colorwheel.c **** static void invalidate_knob(lv_obj_t * obj)
 327:lvgl/src/extra/widgets/colorwheel/lv_colorwheel.c **** {
 328:lvgl/src/extra/widgets/colorwheel/lv_colorwheel.c ****     lv_area_t knob_area = get_knob_area(obj);
 329:lvgl/src/extra/widgets/colorwheel/lv_colorwheel.c **** 
 330:lvgl/src/extra/widgets/colorwheel/lv_colorwheel.c ****     lv_obj_invalidate_area(obj, &knob_area);
 331:lvgl/src/extra/widgets/colorwheel/lv_colorwheel.c **** }
 332:lvgl/src/extra/widgets/colorwheel/lv_colorwheel.c **** 
 333:lvgl/src/extra/widgets/colorwheel/lv_colorwheel.c **** static lv_area_t get_knob_area(lv_obj_t * obj)
 334:lvgl/src/extra/widgets/colorwheel/lv_colorwheel.c **** {
 335:lvgl/src/extra/widgets/colorwheel/lv_colorwheel.c ****     lv_colorwheel_t * colorwheel = (lv_colorwheel_t *)obj;
 336:lvgl/src/extra/widgets/colorwheel/lv_colorwheel.c **** 
 337:lvgl/src/extra/widgets/colorwheel/lv_colorwheel.c ****     /*Get knob's radius*/
 338:lvgl/src/extra/widgets/colorwheel/lv_colorwheel.c ****     uint16_t r = 0;
 339:lvgl/src/extra/widgets/colorwheel/lv_colorwheel.c ****     r = lv_obj_get_style_arc_width(obj, LV_PART_MAIN) / 2;
 340:lvgl/src/extra/widgets/colorwheel/lv_colorwheel.c **** 
 341:lvgl/src/extra/widgets/colorwheel/lv_colorwheel.c ****     lv_coord_t left = lv_obj_get_style_pad_left(obj, LV_PART_KNOB);
 342:lvgl/src/extra/widgets/colorwheel/lv_colorwheel.c ****     lv_coord_t right = lv_obj_get_style_pad_right(obj, LV_PART_KNOB);
 343:lvgl/src/extra/widgets/colorwheel/lv_colorwheel.c ****     lv_coord_t top = lv_obj_get_style_pad_top(obj, LV_PART_KNOB);
 344:lvgl/src/extra/widgets/colorwheel/lv_colorwheel.c ****     lv_coord_t bottom = lv_obj_get_style_pad_bottom(obj, LV_PART_KNOB);
 345:lvgl/src/extra/widgets/colorwheel/lv_colorwheel.c **** 
 346:lvgl/src/extra/widgets/colorwheel/lv_colorwheel.c ****     lv_area_t knob_area;
 347:lvgl/src/extra/widgets/colorwheel/lv_colorwheel.c ****     knob_area.x1 = obj->coords.x1 + colorwheel->knob.pos.x - r - left;
 348:lvgl/src/extra/widgets/colorwheel/lv_colorwheel.c ****     knob_area.y1 = obj->coords.y1 + colorwheel->knob.pos.y - r - right;
 349:lvgl/src/extra/widgets/colorwheel/lv_colorwheel.c ****     knob_area.x2 = obj->coords.x1 + colorwheel->knob.pos.x + r + top;
 350:lvgl/src/extra/widgets/colorwheel/lv_colorwheel.c ****     knob_area.y2 = obj->coords.y1 + colorwheel->knob.pos.y + r + bottom;
 351:lvgl/src/extra/widgets/colorwheel/lv_colorwheel.c **** 
 352:lvgl/src/extra/widgets/colorwheel/lv_colorwheel.c ****     return knob_area;
 353:lvgl/src/extra/widgets/colorwheel/lv_colorwheel.c **** }
 354:lvgl/src/extra/widgets/colorwheel/lv_colorwheel.c **** 
 355:lvgl/src/extra/widgets/colorwheel/lv_colorwheel.c **** static void lv_colorwheel_event(const lv_obj_class_t * class_p, lv_event_t * e)
 356:lvgl/src/extra/widgets/colorwheel/lv_colorwheel.c **** {
 357:lvgl/src/extra/widgets/colorwheel/lv_colorwheel.c ****     LV_UNUSED(class_p);
 358:lvgl/src/extra/widgets/colorwheel/lv_colorwheel.c **** 
 359:lvgl/src/extra/widgets/colorwheel/lv_colorwheel.c ****     /*Call the ancestor's event handler*/
 360:lvgl/src/extra/widgets/colorwheel/lv_colorwheel.c ****     lv_res_t res = lv_obj_event_base(MY_CLASS, e);
 361:lvgl/src/extra/widgets/colorwheel/lv_colorwheel.c **** 
 362:lvgl/src/extra/widgets/colorwheel/lv_colorwheel.c ****     if(res != LV_RES_OK) return;
 363:lvgl/src/extra/widgets/colorwheel/lv_colorwheel.c **** 
 364:lvgl/src/extra/widgets/colorwheel/lv_colorwheel.c ****     lv_event_code_t code = lv_event_get_code(e);
 365:lvgl/src/extra/widgets/colorwheel/lv_colorwheel.c ****     lv_obj_t * obj = lv_event_get_target(e);
 366:lvgl/src/extra/widgets/colorwheel/lv_colorwheel.c ****     lv_colorwheel_t * colorwheel = (lv_colorwheel_t *)obj;
 367:lvgl/src/extra/widgets/colorwheel/lv_colorwheel.c **** 
 368:lvgl/src/extra/widgets/colorwheel/lv_colorwheel.c ****     if(code == LV_EVENT_REFR_EXT_DRAW_SIZE) {
 369:lvgl/src/extra/widgets/colorwheel/lv_colorwheel.c ****         lv_coord_t left = lv_obj_get_style_pad_left(obj, LV_PART_KNOB);
 370:lvgl/src/extra/widgets/colorwheel/lv_colorwheel.c ****         lv_coord_t right = lv_obj_get_style_pad_right(obj, LV_PART_KNOB);
 371:lvgl/src/extra/widgets/colorwheel/lv_colorwheel.c ****         lv_coord_t top = lv_obj_get_style_pad_top(obj, LV_PART_KNOB);
 372:lvgl/src/extra/widgets/colorwheel/lv_colorwheel.c ****         lv_coord_t bottom = lv_obj_get_style_pad_bottom(obj, LV_PART_KNOB);
 373:lvgl/src/extra/widgets/colorwheel/lv_colorwheel.c **** 
ARM GAS  C:\Users\OSD\AppData\Local\Temp\cc5XjPm4.s 			page 8


 374:lvgl/src/extra/widgets/colorwheel/lv_colorwheel.c ****         lv_coord_t knob_pad = LV_MAX4(left, right, top, bottom) + 2;
 375:lvgl/src/extra/widgets/colorwheel/lv_colorwheel.c ****         lv_coord_t * s = lv_event_get_param(e);
 376:lvgl/src/extra/widgets/colorwheel/lv_colorwheel.c ****         *s = LV_MAX(*s, knob_pad);
 377:lvgl/src/extra/widgets/colorwheel/lv_colorwheel.c ****     }
 378:lvgl/src/extra/widgets/colorwheel/lv_colorwheel.c ****     else if(code == LV_EVENT_SIZE_CHANGED) {
 379:lvgl/src/extra/widgets/colorwheel/lv_colorwheel.c ****         void * param = lv_event_get_param(e);
 380:lvgl/src/extra/widgets/colorwheel/lv_colorwheel.c ****         /*Refresh extended draw area to make knob visible*/
 381:lvgl/src/extra/widgets/colorwheel/lv_colorwheel.c ****         if(lv_obj_get_width(obj) != lv_area_get_width(param) ||
 382:lvgl/src/extra/widgets/colorwheel/lv_colorwheel.c ****            lv_obj_get_height(obj) != lv_area_get_height(param)) {
 383:lvgl/src/extra/widgets/colorwheel/lv_colorwheel.c ****             refr_knob_pos(obj);
 384:lvgl/src/extra/widgets/colorwheel/lv_colorwheel.c ****         }
 385:lvgl/src/extra/widgets/colorwheel/lv_colorwheel.c ****     }
 386:lvgl/src/extra/widgets/colorwheel/lv_colorwheel.c ****     else if(code == LV_EVENT_STYLE_CHANGED) {
 387:lvgl/src/extra/widgets/colorwheel/lv_colorwheel.c ****         /*Refresh extended draw area to make knob visible*/
 388:lvgl/src/extra/widgets/colorwheel/lv_colorwheel.c ****         refr_knob_pos(obj);
 389:lvgl/src/extra/widgets/colorwheel/lv_colorwheel.c ****     }
 390:lvgl/src/extra/widgets/colorwheel/lv_colorwheel.c ****     else if(code == LV_EVENT_KEY) {
 391:lvgl/src/extra/widgets/colorwheel/lv_colorwheel.c ****         uint32_t c = *((uint32_t *)lv_event_get_param(e)); /*uint32_t because can be UTF-8*/
 392:lvgl/src/extra/widgets/colorwheel/lv_colorwheel.c **** 
 393:lvgl/src/extra/widgets/colorwheel/lv_colorwheel.c ****         if(c == LV_KEY_RIGHT || c == LV_KEY_UP) {
 394:lvgl/src/extra/widgets/colorwheel/lv_colorwheel.c ****             lv_color_hsv_t hsv_cur;
 395:lvgl/src/extra/widgets/colorwheel/lv_colorwheel.c ****             hsv_cur = colorwheel->hsv;
 396:lvgl/src/extra/widgets/colorwheel/lv_colorwheel.c **** 
 397:lvgl/src/extra/widgets/colorwheel/lv_colorwheel.c ****             switch(colorwheel->mode) {
 398:lvgl/src/extra/widgets/colorwheel/lv_colorwheel.c ****                 case LV_COLORWHEEL_MODE_HUE:
 399:lvgl/src/extra/widgets/colorwheel/lv_colorwheel.c ****                     hsv_cur.h = (colorwheel->hsv.h + 1) % 360;
 400:lvgl/src/extra/widgets/colorwheel/lv_colorwheel.c ****                     break;
 401:lvgl/src/extra/widgets/colorwheel/lv_colorwheel.c ****                 case LV_COLORWHEEL_MODE_SATURATION:
 402:lvgl/src/extra/widgets/colorwheel/lv_colorwheel.c ****                     hsv_cur.s = (colorwheel->hsv.s + 1) % 100;
 403:lvgl/src/extra/widgets/colorwheel/lv_colorwheel.c ****                     break;
 404:lvgl/src/extra/widgets/colorwheel/lv_colorwheel.c ****                 case LV_COLORWHEEL_MODE_VALUE:
 405:lvgl/src/extra/widgets/colorwheel/lv_colorwheel.c ****                     hsv_cur.v = (colorwheel->hsv.v + 1) % 100;
 406:lvgl/src/extra/widgets/colorwheel/lv_colorwheel.c ****                     break;
 407:lvgl/src/extra/widgets/colorwheel/lv_colorwheel.c ****             }
 408:lvgl/src/extra/widgets/colorwheel/lv_colorwheel.c **** 
 409:lvgl/src/extra/widgets/colorwheel/lv_colorwheel.c ****             if(lv_colorwheel_set_hsv(obj, hsv_cur)) {
 410:lvgl/src/extra/widgets/colorwheel/lv_colorwheel.c ****                 res = lv_event_send(obj, LV_EVENT_VALUE_CHANGED, NULL);
 411:lvgl/src/extra/widgets/colorwheel/lv_colorwheel.c ****                 if(res != LV_RES_OK) return;
 412:lvgl/src/extra/widgets/colorwheel/lv_colorwheel.c ****             }
 413:lvgl/src/extra/widgets/colorwheel/lv_colorwheel.c ****         }
 414:lvgl/src/extra/widgets/colorwheel/lv_colorwheel.c ****         else if(c == LV_KEY_LEFT || c == LV_KEY_DOWN) {
 415:lvgl/src/extra/widgets/colorwheel/lv_colorwheel.c ****             lv_color_hsv_t hsv_cur;
 416:lvgl/src/extra/widgets/colorwheel/lv_colorwheel.c ****             hsv_cur = colorwheel->hsv;
 417:lvgl/src/extra/widgets/colorwheel/lv_colorwheel.c **** 
 418:lvgl/src/extra/widgets/colorwheel/lv_colorwheel.c ****             switch(colorwheel->mode) {
 419:lvgl/src/extra/widgets/colorwheel/lv_colorwheel.c ****                 case LV_COLORWHEEL_MODE_HUE:
 420:lvgl/src/extra/widgets/colorwheel/lv_colorwheel.c ****                     hsv_cur.h = colorwheel->hsv.h > 0 ? (colorwheel->hsv.h - 1) : 360;
 421:lvgl/src/extra/widgets/colorwheel/lv_colorwheel.c ****                     break;
 422:lvgl/src/extra/widgets/colorwheel/lv_colorwheel.c ****                 case LV_COLORWHEEL_MODE_SATURATION:
 423:lvgl/src/extra/widgets/colorwheel/lv_colorwheel.c ****                     hsv_cur.s = colorwheel->hsv.s > 0 ? (colorwheel->hsv.s - 1) : 100;
 424:lvgl/src/extra/widgets/colorwheel/lv_colorwheel.c ****                     break;
 425:lvgl/src/extra/widgets/colorwheel/lv_colorwheel.c ****                 case LV_COLORWHEEL_MODE_VALUE:
 426:lvgl/src/extra/widgets/colorwheel/lv_colorwheel.c ****                     hsv_cur.v = colorwheel->hsv.v > 0 ? (colorwheel->hsv.v - 1) : 100;
 427:lvgl/src/extra/widgets/colorwheel/lv_colorwheel.c ****                     break;
 428:lvgl/src/extra/widgets/colorwheel/lv_colorwheel.c ****             }
 429:lvgl/src/extra/widgets/colorwheel/lv_colorwheel.c **** 
 430:lvgl/src/extra/widgets/colorwheel/lv_colorwheel.c ****             if(lv_colorwheel_set_hsv(obj, hsv_cur)) {
ARM GAS  C:\Users\OSD\AppData\Local\Temp\cc5XjPm4.s 			page 9


 431:lvgl/src/extra/widgets/colorwheel/lv_colorwheel.c ****                 res = lv_event_send(obj, LV_EVENT_VALUE_CHANGED, NULL);
 432:lvgl/src/extra/widgets/colorwheel/lv_colorwheel.c ****                 if(res != LV_RES_OK) return;
 433:lvgl/src/extra/widgets/colorwheel/lv_colorwheel.c ****             }
 434:lvgl/src/extra/widgets/colorwheel/lv_colorwheel.c ****         }
 435:lvgl/src/extra/widgets/colorwheel/lv_colorwheel.c ****     }
 436:lvgl/src/extra/widgets/colorwheel/lv_colorwheel.c ****     else if(code == LV_EVENT_PRESSED) {
 437:lvgl/src/extra/widgets/colorwheel/lv_colorwheel.c ****         colorwheel->last_change_time = lv_tick_get();
 438:lvgl/src/extra/widgets/colorwheel/lv_colorwheel.c ****         lv_indev_get_point(lv_indev_get_act(), &colorwheel->last_press_point);
 439:lvgl/src/extra/widgets/colorwheel/lv_colorwheel.c ****         res = double_click_reset(obj);
 440:lvgl/src/extra/widgets/colorwheel/lv_colorwheel.c ****         if(res != LV_RES_OK) return;
 441:lvgl/src/extra/widgets/colorwheel/lv_colorwheel.c ****     }
 442:lvgl/src/extra/widgets/colorwheel/lv_colorwheel.c ****     else if(code == LV_EVENT_PRESSING) {
 443:lvgl/src/extra/widgets/colorwheel/lv_colorwheel.c ****         lv_indev_t * indev = lv_indev_get_act();
 444:lvgl/src/extra/widgets/colorwheel/lv_colorwheel.c ****         if(indev == NULL) return;
 445:lvgl/src/extra/widgets/colorwheel/lv_colorwheel.c **** 
 446:lvgl/src/extra/widgets/colorwheel/lv_colorwheel.c ****         lv_indev_type_t indev_type = lv_indev_get_type(indev);
 447:lvgl/src/extra/widgets/colorwheel/lv_colorwheel.c ****         lv_point_t p;
 448:lvgl/src/extra/widgets/colorwheel/lv_colorwheel.c ****         if(indev_type == LV_INDEV_TYPE_ENCODER || indev_type == LV_INDEV_TYPE_KEYPAD) {
 449:lvgl/src/extra/widgets/colorwheel/lv_colorwheel.c ****             p.x = obj->coords.x1 + lv_obj_get_width(obj) / 2;
 450:lvgl/src/extra/widgets/colorwheel/lv_colorwheel.c ****             p.y = obj->coords.y1 + lv_obj_get_height(obj) / 2;
 451:lvgl/src/extra/widgets/colorwheel/lv_colorwheel.c ****         }
 452:lvgl/src/extra/widgets/colorwheel/lv_colorwheel.c ****         else {
 453:lvgl/src/extra/widgets/colorwheel/lv_colorwheel.c ****             lv_indev_get_point(indev, &p);
 454:lvgl/src/extra/widgets/colorwheel/lv_colorwheel.c ****         }
 455:lvgl/src/extra/widgets/colorwheel/lv_colorwheel.c **** 
 456:lvgl/src/extra/widgets/colorwheel/lv_colorwheel.c ****         lv_coord_t drag_limit = indev->driver->scroll_limit;
 457:lvgl/src/extra/widgets/colorwheel/lv_colorwheel.c ****         if((LV_ABS(p.x - colorwheel->last_press_point.x) > drag_limit) ||
 458:lvgl/src/extra/widgets/colorwheel/lv_colorwheel.c ****            (LV_ABS(p.y - colorwheel->last_press_point.y) > drag_limit)) {
 459:lvgl/src/extra/widgets/colorwheel/lv_colorwheel.c ****             colorwheel->last_change_time = lv_tick_get();
 460:lvgl/src/extra/widgets/colorwheel/lv_colorwheel.c ****             colorwheel->last_press_point.x = p.x;
 461:lvgl/src/extra/widgets/colorwheel/lv_colorwheel.c ****             colorwheel->last_press_point.y = p.y;
 462:lvgl/src/extra/widgets/colorwheel/lv_colorwheel.c ****         }
 463:lvgl/src/extra/widgets/colorwheel/lv_colorwheel.c **** 
 464:lvgl/src/extra/widgets/colorwheel/lv_colorwheel.c ****         p.x -= obj->coords.x1;
 465:lvgl/src/extra/widgets/colorwheel/lv_colorwheel.c ****         p.y -= obj->coords.y1;
 466:lvgl/src/extra/widgets/colorwheel/lv_colorwheel.c **** 
 467:lvgl/src/extra/widgets/colorwheel/lv_colorwheel.c ****         /*Ignore pressing in the inner area*/
 468:lvgl/src/extra/widgets/colorwheel/lv_colorwheel.c ****         uint16_t w = lv_obj_get_width(obj);
 469:lvgl/src/extra/widgets/colorwheel/lv_colorwheel.c **** 
 470:lvgl/src/extra/widgets/colorwheel/lv_colorwheel.c ****         int16_t angle = 0;
 471:lvgl/src/extra/widgets/colorwheel/lv_colorwheel.c ****         lv_coord_t cir_w = lv_obj_get_style_arc_width(obj, LV_PART_MAIN);
 472:lvgl/src/extra/widgets/colorwheel/lv_colorwheel.c **** 
 473:lvgl/src/extra/widgets/colorwheel/lv_colorwheel.c ****         lv_coord_t r_in = w / 2;
 474:lvgl/src/extra/widgets/colorwheel/lv_colorwheel.c ****         p.x -= r_in;
 475:lvgl/src/extra/widgets/colorwheel/lv_colorwheel.c ****         p.y -= r_in;
 476:lvgl/src/extra/widgets/colorwheel/lv_colorwheel.c ****         bool on_ring = true;
 477:lvgl/src/extra/widgets/colorwheel/lv_colorwheel.c ****         r_in -= cir_w;
 478:lvgl/src/extra/widgets/colorwheel/lv_colorwheel.c ****         if(r_in > LV_DPI_DEF / 2) {
 479:lvgl/src/extra/widgets/colorwheel/lv_colorwheel.c ****             lv_coord_t inner = cir_w / 2;
 480:lvgl/src/extra/widgets/colorwheel/lv_colorwheel.c ****             r_in -= inner;
 481:lvgl/src/extra/widgets/colorwheel/lv_colorwheel.c **** 
 482:lvgl/src/extra/widgets/colorwheel/lv_colorwheel.c ****             if(r_in < LV_DPI_DEF / 2) r_in = LV_DPI_DEF / 2;
 483:lvgl/src/extra/widgets/colorwheel/lv_colorwheel.c ****         }
 484:lvgl/src/extra/widgets/colorwheel/lv_colorwheel.c **** 
 485:lvgl/src/extra/widgets/colorwheel/lv_colorwheel.c ****         if(p.x * p.x + p.y * p.y < r_in * r_in) {
 486:lvgl/src/extra/widgets/colorwheel/lv_colorwheel.c ****             on_ring = false;
 487:lvgl/src/extra/widgets/colorwheel/lv_colorwheel.c ****         }
ARM GAS  C:\Users\OSD\AppData\Local\Temp\cc5XjPm4.s 			page 10


 488:lvgl/src/extra/widgets/colorwheel/lv_colorwheel.c **** 
 489:lvgl/src/extra/widgets/colorwheel/lv_colorwheel.c ****         /*If the inner area is being pressed, go to the next color mode on long press*/
 490:lvgl/src/extra/widgets/colorwheel/lv_colorwheel.c ****         uint32_t diff = lv_tick_elaps(colorwheel->last_change_time);
 491:lvgl/src/extra/widgets/colorwheel/lv_colorwheel.c ****         if(!on_ring && diff > indev->driver->long_press_time && !colorwheel->mode_fixed) {
 492:lvgl/src/extra/widgets/colorwheel/lv_colorwheel.c ****             next_color_mode(obj);
 493:lvgl/src/extra/widgets/colorwheel/lv_colorwheel.c ****             lv_indev_wait_release(lv_indev_get_act());
 494:lvgl/src/extra/widgets/colorwheel/lv_colorwheel.c ****             return;
 495:lvgl/src/extra/widgets/colorwheel/lv_colorwheel.c ****         }
 496:lvgl/src/extra/widgets/colorwheel/lv_colorwheel.c **** 
 497:lvgl/src/extra/widgets/colorwheel/lv_colorwheel.c ****         /*Set the angle only if pressed on the ring*/
 498:lvgl/src/extra/widgets/colorwheel/lv_colorwheel.c ****         if(!on_ring) return;
 499:lvgl/src/extra/widgets/colorwheel/lv_colorwheel.c **** 
 500:lvgl/src/extra/widgets/colorwheel/lv_colorwheel.c ****         angle = lv_atan2(p.x, p.y) % 360;
 501:lvgl/src/extra/widgets/colorwheel/lv_colorwheel.c **** 
 502:lvgl/src/extra/widgets/colorwheel/lv_colorwheel.c ****         lv_color_hsv_t hsv_cur;
 503:lvgl/src/extra/widgets/colorwheel/lv_colorwheel.c ****         hsv_cur = colorwheel->hsv;
 504:lvgl/src/extra/widgets/colorwheel/lv_colorwheel.c **** 
 505:lvgl/src/extra/widgets/colorwheel/lv_colorwheel.c ****         switch(colorwheel->mode) {
 506:lvgl/src/extra/widgets/colorwheel/lv_colorwheel.c ****             case LV_COLORWHEEL_MODE_HUE:
 507:lvgl/src/extra/widgets/colorwheel/lv_colorwheel.c ****                 hsv_cur.h = angle;
 508:lvgl/src/extra/widgets/colorwheel/lv_colorwheel.c ****                 break;
 509:lvgl/src/extra/widgets/colorwheel/lv_colorwheel.c ****             case LV_COLORWHEEL_MODE_SATURATION:
 510:lvgl/src/extra/widgets/colorwheel/lv_colorwheel.c ****                 hsv_cur.s = (angle * 100) / 360;
 511:lvgl/src/extra/widgets/colorwheel/lv_colorwheel.c ****                 break;
 512:lvgl/src/extra/widgets/colorwheel/lv_colorwheel.c ****             case LV_COLORWHEEL_MODE_VALUE:
 513:lvgl/src/extra/widgets/colorwheel/lv_colorwheel.c ****                 hsv_cur.v = (angle * 100) / 360;
 514:lvgl/src/extra/widgets/colorwheel/lv_colorwheel.c ****                 break;
 515:lvgl/src/extra/widgets/colorwheel/lv_colorwheel.c ****         }
 516:lvgl/src/extra/widgets/colorwheel/lv_colorwheel.c **** 
 517:lvgl/src/extra/widgets/colorwheel/lv_colorwheel.c ****         if(lv_colorwheel_set_hsv(obj, hsv_cur)) {
 518:lvgl/src/extra/widgets/colorwheel/lv_colorwheel.c ****             res = lv_event_send(obj, LV_EVENT_VALUE_CHANGED, NULL);
 519:lvgl/src/extra/widgets/colorwheel/lv_colorwheel.c ****             if(res != LV_RES_OK) return;
 520:lvgl/src/extra/widgets/colorwheel/lv_colorwheel.c ****         }
 521:lvgl/src/extra/widgets/colorwheel/lv_colorwheel.c ****     }
 522:lvgl/src/extra/widgets/colorwheel/lv_colorwheel.c ****     else if(code == LV_EVENT_HIT_TEST) {
 523:lvgl/src/extra/widgets/colorwheel/lv_colorwheel.c ****         lv_hit_test_info_t * info = lv_event_get_param(e);;
 524:lvgl/src/extra/widgets/colorwheel/lv_colorwheel.c **** 
 525:lvgl/src/extra/widgets/colorwheel/lv_colorwheel.c ****         /*Valid clicks can be only in the circle*/
 526:lvgl/src/extra/widgets/colorwheel/lv_colorwheel.c ****         info->res = _lv_area_is_point_on(&obj->coords, info->point, LV_RADIUS_CIRCLE);
 527:lvgl/src/extra/widgets/colorwheel/lv_colorwheel.c ****     }
 528:lvgl/src/extra/widgets/colorwheel/lv_colorwheel.c ****     else if(code == LV_EVENT_DRAW_MAIN) {
 529:lvgl/src/extra/widgets/colorwheel/lv_colorwheel.c ****         draw_disc_grad(e);
 530:lvgl/src/extra/widgets/colorwheel/lv_colorwheel.c ****         draw_knob(e);
 531:lvgl/src/extra/widgets/colorwheel/lv_colorwheel.c ****     }
 532:lvgl/src/extra/widgets/colorwheel/lv_colorwheel.c ****     else if(code == LV_EVENT_COVER_CHECK) {
 533:lvgl/src/extra/widgets/colorwheel/lv_colorwheel.c ****         lv_cover_check_info_t * info = lv_event_get_param(e);
 534:lvgl/src/extra/widgets/colorwheel/lv_colorwheel.c ****         if(info->res != LV_COVER_RES_MASKED) info->res = LV_COVER_RES_NOT_COVER;
 535:lvgl/src/extra/widgets/colorwheel/lv_colorwheel.c ****     }
 536:lvgl/src/extra/widgets/colorwheel/lv_colorwheel.c **** }
 537:lvgl/src/extra/widgets/colorwheel/lv_colorwheel.c **** 
 538:lvgl/src/extra/widgets/colorwheel/lv_colorwheel.c **** static void next_color_mode(lv_obj_t * obj)
 539:lvgl/src/extra/widgets/colorwheel/lv_colorwheel.c **** {
 540:lvgl/src/extra/widgets/colorwheel/lv_colorwheel.c ****     lv_colorwheel_t * colorwheel = (lv_colorwheel_t *)obj;
 541:lvgl/src/extra/widgets/colorwheel/lv_colorwheel.c ****     colorwheel->mode = (colorwheel->mode + 1) % 3;
 542:lvgl/src/extra/widgets/colorwheel/lv_colorwheel.c ****     refr_knob_pos(obj);
 543:lvgl/src/extra/widgets/colorwheel/lv_colorwheel.c ****     lv_obj_invalidate(obj);
 544:lvgl/src/extra/widgets/colorwheel/lv_colorwheel.c **** }
ARM GAS  C:\Users\OSD\AppData\Local\Temp\cc5XjPm4.s 			page 11


 545:lvgl/src/extra/widgets/colorwheel/lv_colorwheel.c **** 
 546:lvgl/src/extra/widgets/colorwheel/lv_colorwheel.c **** static void refr_knob_pos(lv_obj_t * obj)
 547:lvgl/src/extra/widgets/colorwheel/lv_colorwheel.c **** {
 548:lvgl/src/extra/widgets/colorwheel/lv_colorwheel.c ****     invalidate_knob(obj);
 549:lvgl/src/extra/widgets/colorwheel/lv_colorwheel.c **** 
 550:lvgl/src/extra/widgets/colorwheel/lv_colorwheel.c ****     lv_colorwheel_t * colorwheel = (lv_colorwheel_t *)obj;
 551:lvgl/src/extra/widgets/colorwheel/lv_colorwheel.c ****     lv_coord_t w = lv_obj_get_width(obj);
 552:lvgl/src/extra/widgets/colorwheel/lv_colorwheel.c **** 
 553:lvgl/src/extra/widgets/colorwheel/lv_colorwheel.c ****     lv_coord_t scale_w = lv_obj_get_style_arc_width(obj, LV_PART_MAIN);
 554:lvgl/src/extra/widgets/colorwheel/lv_colorwheel.c ****     lv_coord_t r = (w - scale_w) / 2;
 555:lvgl/src/extra/widgets/colorwheel/lv_colorwheel.c ****     uint16_t angle = get_angle(obj);
 556:lvgl/src/extra/widgets/colorwheel/lv_colorwheel.c ****     colorwheel->knob.pos.x = (((int32_t)r * lv_trigo_sin(angle)) >> LV_TRIGO_SHIFT);
 557:lvgl/src/extra/widgets/colorwheel/lv_colorwheel.c ****     colorwheel->knob.pos.y = (((int32_t)r * lv_trigo_cos(angle)) >> LV_TRIGO_SHIFT);
 558:lvgl/src/extra/widgets/colorwheel/lv_colorwheel.c ****     colorwheel->knob.pos.x = colorwheel->knob.pos.x + w / 2;
 559:lvgl/src/extra/widgets/colorwheel/lv_colorwheel.c ****     colorwheel->knob.pos.y = colorwheel->knob.pos.y + w / 2;
 560:lvgl/src/extra/widgets/colorwheel/lv_colorwheel.c **** 
 561:lvgl/src/extra/widgets/colorwheel/lv_colorwheel.c ****     invalidate_knob(obj);
 562:lvgl/src/extra/widgets/colorwheel/lv_colorwheel.c **** }
 563:lvgl/src/extra/widgets/colorwheel/lv_colorwheel.c **** 
 564:lvgl/src/extra/widgets/colorwheel/lv_colorwheel.c **** static lv_res_t double_click_reset(lv_obj_t * obj)
 565:lvgl/src/extra/widgets/colorwheel/lv_colorwheel.c **** {
 566:lvgl/src/extra/widgets/colorwheel/lv_colorwheel.c ****     lv_colorwheel_t * colorwheel = (lv_colorwheel_t *)obj;
 567:lvgl/src/extra/widgets/colorwheel/lv_colorwheel.c ****     lv_indev_t * indev = lv_indev_get_act();
 568:lvgl/src/extra/widgets/colorwheel/lv_colorwheel.c ****     /*Double clicked? Use long press time as double click time out*/
 569:lvgl/src/extra/widgets/colorwheel/lv_colorwheel.c ****     if(lv_tick_elaps(colorwheel->last_click_time) < indev->driver->long_press_time) {
 570:lvgl/src/extra/widgets/colorwheel/lv_colorwheel.c ****         lv_color_hsv_t hsv_cur;
 571:lvgl/src/extra/widgets/colorwheel/lv_colorwheel.c ****         hsv_cur = colorwheel->hsv;
 572:lvgl/src/extra/widgets/colorwheel/lv_colorwheel.c **** 
 573:lvgl/src/extra/widgets/colorwheel/lv_colorwheel.c ****         switch(colorwheel->mode) {
 574:lvgl/src/extra/widgets/colorwheel/lv_colorwheel.c ****             case LV_COLORWHEEL_MODE_HUE:
 575:lvgl/src/extra/widgets/colorwheel/lv_colorwheel.c ****                 hsv_cur.h = 0;
 576:lvgl/src/extra/widgets/colorwheel/lv_colorwheel.c ****                 break;
 577:lvgl/src/extra/widgets/colorwheel/lv_colorwheel.c ****             case LV_COLORWHEEL_MODE_SATURATION:
 578:lvgl/src/extra/widgets/colorwheel/lv_colorwheel.c ****                 hsv_cur.s = 100;
 579:lvgl/src/extra/widgets/colorwheel/lv_colorwheel.c ****                 break;
 580:lvgl/src/extra/widgets/colorwheel/lv_colorwheel.c ****             case LV_COLORWHEEL_MODE_VALUE:
 581:lvgl/src/extra/widgets/colorwheel/lv_colorwheel.c ****                 hsv_cur.v = 100;
 582:lvgl/src/extra/widgets/colorwheel/lv_colorwheel.c ****                 break;
 583:lvgl/src/extra/widgets/colorwheel/lv_colorwheel.c ****         }
 584:lvgl/src/extra/widgets/colorwheel/lv_colorwheel.c **** 
 585:lvgl/src/extra/widgets/colorwheel/lv_colorwheel.c ****         lv_indev_wait_release(indev);
 586:lvgl/src/extra/widgets/colorwheel/lv_colorwheel.c **** 
 587:lvgl/src/extra/widgets/colorwheel/lv_colorwheel.c ****         if(lv_colorwheel_set_hsv(obj, hsv_cur)) {
 588:lvgl/src/extra/widgets/colorwheel/lv_colorwheel.c ****             lv_res_t res = lv_event_send(obj, LV_EVENT_VALUE_CHANGED, NULL);
 589:lvgl/src/extra/widgets/colorwheel/lv_colorwheel.c ****             if(res != LV_RES_OK) return res;
 590:lvgl/src/extra/widgets/colorwheel/lv_colorwheel.c ****         }
 591:lvgl/src/extra/widgets/colorwheel/lv_colorwheel.c ****     }
 592:lvgl/src/extra/widgets/colorwheel/lv_colorwheel.c ****     colorwheel->last_click_time = lv_tick_get();
 593:lvgl/src/extra/widgets/colorwheel/lv_colorwheel.c **** 
 594:lvgl/src/extra/widgets/colorwheel/lv_colorwheel.c ****     return LV_RES_OK;
 595:lvgl/src/extra/widgets/colorwheel/lv_colorwheel.c **** }
 596:lvgl/src/extra/widgets/colorwheel/lv_colorwheel.c **** 
 597:lvgl/src/extra/widgets/colorwheel/lv_colorwheel.c **** #define SWAPPTR(A, B) do { uint8_t * t = A; A = B; B = t; } while(0)
 598:lvgl/src/extra/widgets/colorwheel/lv_colorwheel.c **** #define HSV_PTR_SWAP(sextant,r,g,b)     if((sextant) & 2) { SWAPPTR((r), (b)); } if((sextant) & 4) 
 599:lvgl/src/extra/widgets/colorwheel/lv_colorwheel.c ****         if(!((sextant) & 1)) { SWAPPTR((r), (g)); } } else { if((sextant) & 1) { SWAPPTR((r), (g));
 600:lvgl/src/extra/widgets/colorwheel/lv_colorwheel.c **** 
 601:lvgl/src/extra/widgets/colorwheel/lv_colorwheel.c **** /**
ARM GAS  C:\Users\OSD\AppData\Local\Temp\cc5XjPm4.s 			page 12


 602:lvgl/src/extra/widgets/colorwheel/lv_colorwheel.c ****  * Based on the idea from https://www.vagrearg.org/content/hsvrgb
 603:lvgl/src/extra/widgets/colorwheel/lv_colorwheel.c ****  * Here we want to compute an approximate RGB value from a HSV input color space. We don't want to 
 604:lvgl/src/extra/widgets/colorwheel/lv_colorwheel.c ****  * (for that, there's lv_color_hsv_to_rgb), but we want to be fast.
 605:lvgl/src/extra/widgets/colorwheel/lv_colorwheel.c ****  *
 606:lvgl/src/extra/widgets/colorwheel/lv_colorwheel.c ****  * Few tricks are used here: Hue is in range [0; 6 * 256] (so that the sextant is in the high byte 
 607:lvgl/src/extra/widgets/colorwheel/lv_colorwheel.c ****  * both s and v are in [0; 255] range (very convenient to avoid divisions).
 608:lvgl/src/extra/widgets/colorwheel/lv_colorwheel.c ****  *
 609:lvgl/src/extra/widgets/colorwheel/lv_colorwheel.c ****  * We fold all symmetry by swapping the R, G, B pointers so that the code is the same for all sexta
 610:lvgl/src/extra/widgets/colorwheel/lv_colorwheel.c ****  * We replace division by 255 by a division by 256, a.k.a a shift right by 8 bits.
 611:lvgl/src/extra/widgets/colorwheel/lv_colorwheel.c ****  * This is wrong, but since this is only used to compute the pixels on the screen and not the final
 612:lvgl/src/extra/widgets/colorwheel/lv_colorwheel.c ****  */
 613:lvgl/src/extra/widgets/colorwheel/lv_colorwheel.c **** static void fast_hsv2rgb(uint16_t h, uint8_t s, uint8_t v, uint8_t * r, uint8_t * g, uint8_t * b)
 614:lvgl/src/extra/widgets/colorwheel/lv_colorwheel.c **** {
  28              		.loc 1 614 1 view -0
  29              		.cfi_startproc
  30              		@ args = 8, pretend = 0, frame = 0
  31              		@ frame_needed = 0, uses_anonymous_args = 0
  32              		.loc 1 614 1 is_stmt 0 view .LVU1
  33 0000 70B5     		push	{r4, r5, r6, lr}
  34              		.cfi_def_cfa_offset 16
  35              		.cfi_offset 4, -16
  36              		.cfi_offset 5, -12
  37              		.cfi_offset 6, -8
  38              		.cfi_offset 14, -4
  39 0002 049C     		ldr	r4, [sp, #16]
  40 0004 059E     		ldr	r6, [sp, #20]
 615:lvgl/src/extra/widgets/colorwheel/lv_colorwheel.c ****     if(!s) {
  41              		.loc 1 615 5 is_stmt 1 view .LVU2
  42              		.loc 1 615 7 is_stmt 0 view .LVU3
  43 0006 41B3     		cbz	r1, .L12
  44 0008 8C46     		mov	ip, r1
 616:lvgl/src/extra/widgets/colorwheel/lv_colorwheel.c ****         *r = *g = *b = v;
 617:lvgl/src/extra/widgets/colorwheel/lv_colorwheel.c ****         return;
 618:lvgl/src/extra/widgets/colorwheel/lv_colorwheel.c ****     }
 619:lvgl/src/extra/widgets/colorwheel/lv_colorwheel.c **** 
 620:lvgl/src/extra/widgets/colorwheel/lv_colorwheel.c ****     uint8_t sextant = h >> 8;
  45              		.loc 1 620 5 is_stmt 1 view .LVU4
  46              		.loc 1 620 13 is_stmt 0 view .LVU5
  47 000a 050A     		lsrs	r5, r0, #8
  48              	.LVL1:
 621:lvgl/src/extra/widgets/colorwheel/lv_colorwheel.c ****     HSV_PTR_SWAP(sextant, r, g, b); /*Swap pointers so the conversion code is the same*/
  49              		.loc 1 621 5 is_stmt 1 view .LVU6
  50 000c 10F4007F 		tst	r0, #512
  51 0010 02D1     		bne	.L4
  52 0012 3146     		mov	r1, r6
  53              	.LVL2:
  54              		.loc 1 621 5 is_stmt 0 view .LVU7
  55 0014 1E46     		mov	r6, r3
  56 0016 0B46     		mov	r3, r1
  57              	.LVL3:
  58              	.L4:
  59              		.loc 1 621 5 is_stmt 1 discriminator 3 view .LVU8
  60              		.loc 1 621 5 discriminator 3 view .LVU9
  61 0018 15F0040F 		tst	r5, #4
  62 001c 02D1     		bne	.L5
  63              		.loc 1 621 5 is_stmt 0 view .LVU10
  64 001e 1946     		mov	r1, r3
ARM GAS  C:\Users\OSD\AppData\Local\Temp\cc5XjPm4.s 			page 13


  65 0020 2346     		mov	r3, r4
  66              	.LVL4:
  67              		.loc 1 621 5 view .LVU11
  68 0022 0C46     		mov	r4, r1
  69              	.LVL5:
  70              	.L5:
  71              		.loc 1 621 5 is_stmt 1 discriminator 6 view .LVU12
  72              		.loc 1 621 5 discriminator 6 view .LVU13
  73 0024 15F0060F 		tst	r5, #6
  74 0028 1BD1     		bne	.L6
  75              		.loc 1 621 5 discriminator 7 view .LVU14
  76 002a 15F0010F 		tst	r5, #1
  77 002e 02D0     		beq	.L7
  78              		.loc 1 621 5 is_stmt 0 view .LVU15
  79 0030 1946     		mov	r1, r3
  80 0032 3346     		mov	r3, r6
  81              	.LVL6:
  82              		.loc 1 621 5 view .LVU16
  83 0034 0E46     		mov	r6, r1
  84              	.LVL7:
  85              	.L7:
  86              		.loc 1 621 5 is_stmt 1 discriminator 14 view .LVU17
  87              		.loc 1 621 35 discriminator 14 view .LVU18
 622:lvgl/src/extra/widgets/colorwheel/lv_colorwheel.c **** 
 623:lvgl/src/extra/widgets/colorwheel/lv_colorwheel.c ****     *g = v;
  88              		.loc 1 623 5 discriminator 14 view .LVU19
  89              		.loc 1 623 8 is_stmt 0 discriminator 14 view .LVU20
  90 0036 3270     		strb	r2, [r6]
 624:lvgl/src/extra/widgets/colorwheel/lv_colorwheel.c **** 
 625:lvgl/src/extra/widgets/colorwheel/lv_colorwheel.c ****     uint8_t bb = ~s;
  91              		.loc 1 625 5 is_stmt 1 discriminator 14 view .LVU21
  92              		.loc 1 625 13 is_stmt 0 discriminator 14 view .LVU22
  93 0038 6FEA0C01 		mvn	r1, ip
 626:lvgl/src/extra/widgets/colorwheel/lv_colorwheel.c ****     uint16_t ww = v * bb; /*Don't try to be precise, but instead, be fast*/
  94              		.loc 1 626 5 is_stmt 1 discriminator 14 view .LVU23
  95              		.loc 1 626 21 is_stmt 0 discriminator 14 view .LVU24
  96 003c 1FFA82FE 		uxth	lr, r2
  97 0040 C9B2     		uxtb	r1, r1
  98              		.loc 1 626 14 discriminator 14 view .LVU25
  99 0042 02FB01F1 		mul	r1, r2, r1
 100              	.LVL8:
 627:lvgl/src/extra/widgets/colorwheel/lv_colorwheel.c ****     *b = ww >> 8;
 101              		.loc 1 627 5 is_stmt 1 discriminator 14 view .LVU26
 102              		.loc 1 627 8 is_stmt 0 discriminator 14 view .LVU27
 103 0046 090A     		lsrs	r1, r1, #8
 104              	.LVL9:
 105              		.loc 1 627 8 discriminator 14 view .LVU28
 106 0048 2170     		strb	r1, [r4]
 628:lvgl/src/extra/widgets/colorwheel/lv_colorwheel.c **** 
 629:lvgl/src/extra/widgets/colorwheel/lv_colorwheel.c ****     uint8_t h_frac = h & 0xff;
 107              		.loc 1 629 5 is_stmt 1 discriminator 14 view .LVU29
 108              		.loc 1 629 13 is_stmt 0 discriminator 14 view .LVU30
 109 004a C2B2     		uxtb	r2, r0
 110              	.LVL10:
 630:lvgl/src/extra/widgets/colorwheel/lv_colorwheel.c **** 
 631:lvgl/src/extra/widgets/colorwheel/lv_colorwheel.c ****     if(!(sextant & 1)) {
 111              		.loc 1 631 5 is_stmt 1 discriminator 14 view .LVU31
ARM GAS  C:\Users\OSD\AppData\Local\Temp\cc5XjPm4.s 			page 14


 112              		.loc 1 631 7 is_stmt 0 discriminator 14 view .LVU32
 113 004c 15F0010F 		tst	r5, #1
 114 0050 13D1     		bne	.L8
 632:lvgl/src/extra/widgets/colorwheel/lv_colorwheel.c ****         /*Up slope*/
 633:lvgl/src/extra/widgets/colorwheel/lv_colorwheel.c ****         ww = !h_frac ? ((uint16_t)s << 8) : (s * (uint8_t)(-h_frac)); /*Skip multiply if not requir
 115              		.loc 1 633 9 is_stmt 1 view .LVU33
 116              		.loc 1 633 12 is_stmt 0 view .LVU34
 117 0052 6AB9     		cbnz	r2, .L9
 118              		.loc 1 633 12 discriminator 1 view .LVU35
 119 0054 4FEA0C22 		lsl	r2, ip, #8
 120              	.LVL11:
 121              		.loc 1 633 12 discriminator 1 view .LVU36
 122 0058 12E0     		b	.L10
 123              	.LVL12:
 124              	.L12:
 616:lvgl/src/extra/widgets/colorwheel/lv_colorwheel.c ****         return;
 125              		.loc 1 616 9 is_stmt 1 view .LVU37
 616:lvgl/src/extra/widgets/colorwheel/lv_colorwheel.c ****         return;
 126              		.loc 1 616 22 is_stmt 0 view .LVU38
 127 005a 3270     		strb	r2, [r6]
 616:lvgl/src/extra/widgets/colorwheel/lv_colorwheel.c ****         return;
 128              		.loc 1 616 17 view .LVU39
 129 005c 2270     		strb	r2, [r4]
 616:lvgl/src/extra/widgets/colorwheel/lv_colorwheel.c ****         return;
 130              		.loc 1 616 12 view .LVU40
 131 005e 1A70     		strb	r2, [r3]
 617:lvgl/src/extra/widgets/colorwheel/lv_colorwheel.c ****     }
 132              		.loc 1 617 9 is_stmt 1 view .LVU41
 133 0060 15E0     		b	.L1
 134              	.LVL13:
 135              	.L6:
 621:lvgl/src/extra/widgets/colorwheel/lv_colorwheel.c **** 
 136              		.loc 1 621 5 discriminator 8 view .LVU42
 137 0062 15F0010F 		tst	r5, #1
 138 0066 E6D1     		bne	.L7
 621:lvgl/src/extra/widgets/colorwheel/lv_colorwheel.c **** 
 139              		.loc 1 621 5 is_stmt 0 view .LVU43
 140 0068 1946     		mov	r1, r3
 141 006a 3346     		mov	r3, r6
 142              	.LVL14:
 621:lvgl/src/extra/widgets/colorwheel/lv_colorwheel.c **** 
 143              		.loc 1 621 5 view .LVU44
 144 006c 0E46     		mov	r6, r1
 145              	.LVL15:
 621:lvgl/src/extra/widgets/colorwheel/lv_colorwheel.c **** 
 146              		.loc 1 621 5 view .LVU45
 147 006e E2E7     		b	.L7
 148              	.LVL16:
 149              	.L9:
 150              		.loc 1 633 50 discriminator 2 view .LVU46
 151 0070 5242     		rsbs	r2, r2, #0
 152              	.LVL17:
 153              		.loc 1 633 50 discriminator 2 view .LVU47
 154 0072 D2B2     		uxtb	r2, r2
 155              	.LVL18:
 156              		.loc 1 633 12 discriminator 2 view .LVU48
 157 0074 0CFB02F2 		mul	r2, ip, r2
ARM GAS  C:\Users\OSD\AppData\Local\Temp\cc5XjPm4.s 			page 15


 158 0078 02E0     		b	.L10
 159              	.LVL19:
 160              	.L8:
 634:lvgl/src/extra/widgets/colorwheel/lv_colorwheel.c ****     }
 635:lvgl/src/extra/widgets/colorwheel/lv_colorwheel.c ****     else {
 636:lvgl/src/extra/widgets/colorwheel/lv_colorwheel.c ****         /*Down slope*/
 637:lvgl/src/extra/widgets/colorwheel/lv_colorwheel.c ****         ww = s * h_frac;
 161              		.loc 1 637 9 is_stmt 1 view .LVU49
 162              		.loc 1 637 12 is_stmt 0 view .LVU50
 163 007a C2B2     		uxtb	r2, r0
 164              	.LVL20:
 165              		.loc 1 637 12 view .LVU51
 166 007c 02FB0CF2 		mul	r2, r2, ip
 167              	.LVL21:
 168              	.L10:
 638:lvgl/src/extra/widgets/colorwheel/lv_colorwheel.c ****     }
 639:lvgl/src/extra/widgets/colorwheel/lv_colorwheel.c ****     bb = ww >> 8;
 169              		.loc 1 639 5 is_stmt 1 view .LVU52
 640:lvgl/src/extra/widgets/colorwheel/lv_colorwheel.c ****     bb = ~bb;
 170              		.loc 1 640 5 view .LVU53
 171              		.loc 1 640 8 is_stmt 0 view .LVU54
 172 0080 6FEA1222 		mvn	r2, r2, lsr #8
 173              	.LVL22:
 641:lvgl/src/extra/widgets/colorwheel/lv_colorwheel.c ****     ww = v * bb;
 174              		.loc 1 641 5 is_stmt 1 view .LVU55
 175              		.loc 1 641 12 is_stmt 0 view .LVU56
 176 0084 D2B2     		uxtb	r2, r2
 177              		.loc 1 641 8 view .LVU57
 178 0086 0EFB02F2 		mul	r2, lr, r2
 179              	.LVL23:
 642:lvgl/src/extra/widgets/colorwheel/lv_colorwheel.c ****     *r = ww >> 8;
 180              		.loc 1 642 5 is_stmt 1 view .LVU58
 181              		.loc 1 642 8 is_stmt 0 view .LVU59
 182 008a 120A     		lsrs	r2, r2, #8
 183              	.LVL24:
 184              		.loc 1 642 8 view .LVU60
 185 008c 1A70     		strb	r2, [r3]
 186              	.LVL25:
 187              	.L1:
 643:lvgl/src/extra/widgets/colorwheel/lv_colorwheel.c **** }
 188              		.loc 1 643 1 view .LVU61
 189 008e 70BD     		pop	{r4, r5, r6, pc}
 190              		.cfi_endproc
 191              	.LFE222:
 193              		.section	.text.angle_to_mode_color_fast,"ax",%progbits
 194              		.align	1
 195              		.syntax unified
 196              		.thumb
 197              		.thumb_func
 199              	angle_to_mode_color_fast:
 200              	.LVL26:
 201              	.LFB223:
 644:lvgl/src/extra/widgets/colorwheel/lv_colorwheel.c **** 
 645:lvgl/src/extra/widgets/colorwheel/lv_colorwheel.c **** static lv_color_t angle_to_mode_color_fast(lv_obj_t * obj, uint16_t angle)
 646:lvgl/src/extra/widgets/colorwheel/lv_colorwheel.c **** {
 202              		.loc 1 646 1 is_stmt 1 view -0
 203              		.cfi_startproc
ARM GAS  C:\Users\OSD\AppData\Local\Temp\cc5XjPm4.s 			page 16


 204              		@ args = 0, pretend = 0, frame = 8
 205              		@ frame_needed = 0, uses_anonymous_args = 0
 206              		.loc 1 646 1 is_stmt 0 view .LVU63
 207 0000 10B5     		push	{r4, lr}
 208              		.cfi_def_cfa_offset 8
 209              		.cfi_offset 4, -8
 210              		.cfi_offset 14, -4
 211 0002 84B0     		sub	sp, sp, #16
 212              		.cfi_def_cfa_offset 24
 647:lvgl/src/extra/widgets/colorwheel/lv_colorwheel.c ****     lv_colorwheel_t * ext = (lv_colorwheel_t *)obj;
 213              		.loc 1 647 5 is_stmt 1 view .LVU64
 214              	.LVL27:
 648:lvgl/src/extra/widgets/colorwheel/lv_colorwheel.c ****     uint8_t r = 0, g = 0, b = 0;
 215              		.loc 1 648 5 view .LVU65
 216              		.loc 1 648 13 is_stmt 0 view .LVU66
 217 0004 0023     		movs	r3, #0
 218 0006 8DF80F30 		strb	r3, [sp, #15]
 219              		.loc 1 648 20 view .LVU67
 220 000a 8DF80E30 		strb	r3, [sp, #14]
 221              		.loc 1 648 27 view .LVU68
 222 000e 8DF80D30 		strb	r3, [sp, #13]
 649:lvgl/src/extra/widgets/colorwheel/lv_colorwheel.c ****     static uint16_t h = 0;
 223              		.loc 1 649 5 is_stmt 1 view .LVU69
 650:lvgl/src/extra/widgets/colorwheel/lv_colorwheel.c ****     static uint8_t s = 0, v = 0, m = 255;
 224              		.loc 1 650 5 view .LVU70
 651:lvgl/src/extra/widgets/colorwheel/lv_colorwheel.c ****     static uint16_t angle_saved = 0xffff;
 225              		.loc 1 651 5 view .LVU71
 652:lvgl/src/extra/widgets/colorwheel/lv_colorwheel.c **** 
 653:lvgl/src/extra/widgets/colorwheel/lv_colorwheel.c ****     /*If the angle is different recalculate scaling*/
 654:lvgl/src/extra/widgets/colorwheel/lv_colorwheel.c ****     if(angle_saved != angle) m = 255;
 226              		.loc 1 654 5 view .LVU72
 227              		.loc 1 654 20 is_stmt 0 view .LVU73
 228 0012 594B     		ldr	r3, .L22
 229 0014 1B88     		ldrh	r3, [r3]
 230              		.loc 1 654 7 view .LVU74
 231 0016 8B42     		cmp	r3, r1
 232 0018 02D0     		beq	.L14
 233              		.loc 1 654 30 is_stmt 1 discriminator 1 view .LVU75
 234              		.loc 1 654 32 is_stmt 0 discriminator 1 view .LVU76
 235 001a 584B     		ldr	r3, .L22+4
 236 001c FF22     		movs	r2, #255
 237 001e 1A70     		strb	r2, [r3]
 238              	.L14:
 655:lvgl/src/extra/widgets/colorwheel/lv_colorwheel.c ****     angle_saved = angle;
 239              		.loc 1 655 5 is_stmt 1 view .LVU77
 240              		.loc 1 655 17 is_stmt 0 view .LVU78
 241 0020 554B     		ldr	r3, .L22
 242 0022 1980     		strh	r1, [r3]	@ movhi
 656:lvgl/src/extra/widgets/colorwheel/lv_colorwheel.c **** 
 657:lvgl/src/extra/widgets/colorwheel/lv_colorwheel.c ****     switch(ext->mode) {
 243              		.loc 1 657 5 is_stmt 1 view .LVU79
 244              		.loc 1 657 15 is_stmt 0 view .LVU80
 245 0024 90F83C30 		ldrb	r3, [r0, #60]	@ zero_extendqisi2
 246 0028 C3F30102 		ubfx	r2, r3, #0, #2
 247 002c 03F00303 		and	r3, r3, #3
 248              		.loc 1 657 5 view .LVU81
 249 0030 012B     		cmp	r3, #1
ARM GAS  C:\Users\OSD\AppData\Local\Temp\cc5XjPm4.s 			page 17


 250 0032 44D0     		beq	.L15
 251              		.loc 1 657 5 view .LVU82
 252 0034 022B     		cmp	r3, #2
 253 0036 70D0     		beq	.L16
 658:lvgl/src/extra/widgets/colorwheel/lv_colorwheel.c ****         default:
 659:lvgl/src/extra/widgets/colorwheel/lv_colorwheel.c ****         case LV_COLORWHEEL_MODE_HUE:
 660:lvgl/src/extra/widgets/colorwheel/lv_colorwheel.c ****             /*Don't recompute costly scaling if it does not change*/
 661:lvgl/src/extra/widgets/colorwheel/lv_colorwheel.c ****             if(m != ext->mode) {
 254              		.loc 1 661 13 is_stmt 1 view .LVU83
 255              		.loc 1 661 18 is_stmt 0 view .LVU84
 256 0038 504C     		ldr	r4, .L22+4
 257 003a 2478     		ldrb	r4, [r4]	@ zero_extendqisi2
 258              		.loc 1 661 15 view .LVU85
 259 003c A342     		cmp	r3, r4
 260 003e 1BD0     		beq	.L17
 662:lvgl/src/extra/widgets/colorwheel/lv_colorwheel.c ****                 s = (uint8_t)(((uint16_t)ext->hsv.s * 51) / 20);
 261              		.loc 1 662 17 is_stmt 1 view .LVU86
 262              		.loc 1 662 50 is_stmt 0 view .LVU87
 263 0040 90F82630 		ldrb	r3, [r0, #38]	@ zero_extendqisi2
 264              		.loc 1 662 53 view .LVU88
 265 0044 03EB4303 		add	r3, r3, r3, lsl #1
 266 0048 03EB031C 		add	ip, r3, r3, lsl #4
 267              		.loc 1 662 59 view .LVU89
 268 004c 4C4C     		ldr	r4, .L22+8
 269 004e 84FB0C3C 		smull	r3, ip, r4, ip
 270              		.loc 1 662 21 view .LVU90
 271 0052 CCF3C70C 		ubfx	ip, ip, #3, #8
 272              		.loc 1 662 19 view .LVU91
 273 0056 4B4B     		ldr	r3, .L22+12
 274 0058 83F800C0 		strb	ip, [r3]
 663:lvgl/src/extra/widgets/colorwheel/lv_colorwheel.c ****                 v = (uint8_t)(((uint16_t)ext->hsv.v * 51) / 20);
 275              		.loc 1 663 17 is_stmt 1 view .LVU92
 276              		.loc 1 663 50 is_stmt 0 view .LVU93
 277 005c 90F82730 		ldrb	r3, [r0, #39]	@ zero_extendqisi2
 278              		.loc 1 663 53 view .LVU94
 279 0060 03EB4303 		add	r3, r3, r3, lsl #1
 280 0064 03EB0313 		add	r3, r3, r3, lsl #4
 281              		.loc 1 663 59 view .LVU95
 282 0068 84FB0303 		smull	r0, r3, r4, r3
 283              	.LVL28:
 284              		.loc 1 663 21 view .LVU96
 285 006c C3F3C703 		ubfx	r3, r3, #3, #8
 286              		.loc 1 663 19 view .LVU97
 287 0070 4548     		ldr	r0, .L22+16
 288 0072 0370     		strb	r3, [r0]
 664:lvgl/src/extra/widgets/colorwheel/lv_colorwheel.c ****                 m = ext->mode;
 289              		.loc 1 664 17 is_stmt 1 view .LVU98
 290              		.loc 1 664 19 is_stmt 0 view .LVU99
 291 0074 414B     		ldr	r3, .L22+4
 292 0076 1A70     		strb	r2, [r3]
 293              	.L17:
 665:lvgl/src/extra/widgets/colorwheel/lv_colorwheel.c ****             }
 666:lvgl/src/extra/widgets/colorwheel/lv_colorwheel.c ****             fast_hsv2rgb(angle * 6, s, v, &r, &g,
 294              		.loc 1 666 13 is_stmt 1 view .LVU100
 295 0078 01EB4101 		add	r1, r1, r1, lsl #1
 296              	.LVL29:
 297              		.loc 1 666 13 is_stmt 0 view .LVU101
ARM GAS  C:\Users\OSD\AppData\Local\Temp\cc5XjPm4.s 			page 18


 298 007c 4800     		lsls	r0, r1, #1
 299 007e 80B2     		uxth	r0, r0
 300 0080 0DF10D03 		add	r3, sp, #13
 301 0084 0193     		str	r3, [sp, #4]
 302 0086 0DF10E03 		add	r3, sp, #14
 303 008a 0093     		str	r3, [sp]
 304 008c 0DF10F03 		add	r3, sp, #15
 305 0090 3D4A     		ldr	r2, .L22+16
 306 0092 1278     		ldrb	r2, [r2]	@ zero_extendqisi2
 307 0094 3B49     		ldr	r1, .L22+12
 308 0096 0978     		ldrb	r1, [r1]	@ zero_extendqisi2
 309 0098 FFF7FEFF 		bl	fast_hsv2rgb
 310              	.LVL30:
 667:lvgl/src/extra/widgets/colorwheel/lv_colorwheel.c ****                          &b); /*A smart compiler will replace x * 6 by (x << 2) + (x << 1) if it's 
 668:lvgl/src/extra/widgets/colorwheel/lv_colorwheel.c ****             break;
 311              		.loc 1 668 13 is_stmt 1 view .LVU102
 312              	.L18:
 669:lvgl/src/extra/widgets/colorwheel/lv_colorwheel.c ****         case LV_COLORWHEEL_MODE_SATURATION:
 670:lvgl/src/extra/widgets/colorwheel/lv_colorwheel.c ****             /*Don't recompute costly scaling if it does not change*/
 671:lvgl/src/extra/widgets/colorwheel/lv_colorwheel.c ****             if(m != ext->mode) {
 672:lvgl/src/extra/widgets/colorwheel/lv_colorwheel.c ****                 h = (uint16_t)(((uint32_t)ext->hsv.h * 6 * 256) / 360);
 673:lvgl/src/extra/widgets/colorwheel/lv_colorwheel.c ****                 v = (uint8_t)(((uint16_t)ext->hsv.v * 51) / 20);
 674:lvgl/src/extra/widgets/colorwheel/lv_colorwheel.c ****                 m = ext->mode;
 675:lvgl/src/extra/widgets/colorwheel/lv_colorwheel.c ****             }
 676:lvgl/src/extra/widgets/colorwheel/lv_colorwheel.c ****             fast_hsv2rgb(h, angle, v, &r, &g, &b);
 677:lvgl/src/extra/widgets/colorwheel/lv_colorwheel.c ****             break;
 678:lvgl/src/extra/widgets/colorwheel/lv_colorwheel.c ****         case LV_COLORWHEEL_MODE_VALUE:
 679:lvgl/src/extra/widgets/colorwheel/lv_colorwheel.c ****             /*Don't recompute costly scaling if it does not change*/
 680:lvgl/src/extra/widgets/colorwheel/lv_colorwheel.c ****             if(m != ext->mode) {
 681:lvgl/src/extra/widgets/colorwheel/lv_colorwheel.c ****                 h = (uint16_t)(((uint32_t)ext->hsv.h * 6 * 256) / 360);
 682:lvgl/src/extra/widgets/colorwheel/lv_colorwheel.c ****                 s = (uint8_t)(((uint16_t)ext->hsv.s * 51) / 20);
 683:lvgl/src/extra/widgets/colorwheel/lv_colorwheel.c ****                 m = ext->mode;
 684:lvgl/src/extra/widgets/colorwheel/lv_colorwheel.c ****             }
 685:lvgl/src/extra/widgets/colorwheel/lv_colorwheel.c ****             fast_hsv2rgb(h, s, angle, &r, &g, &b);
 686:lvgl/src/extra/widgets/colorwheel/lv_colorwheel.c ****             break;
 687:lvgl/src/extra/widgets/colorwheel/lv_colorwheel.c ****     }
 688:lvgl/src/extra/widgets/colorwheel/lv_colorwheel.c ****     return lv_color_make(r, g, b);
 313              		.loc 1 688 5 view .LVU103
 314              		.loc 1 688 12 is_stmt 0 view .LVU104
 315 009c 9DF80F30 		ldrb	r3, [sp, #15]	@ zero_extendqisi2
 316 00a0 9DF80E20 		ldrb	r2, [sp, #14]	@ zero_extendqisi2
 317 00a4 9DF80D10 		ldrb	r1, [sp, #13]	@ zero_extendqisi2
 318              	.LVL31:
 319              	.LBB52:
 320              	.LBI52:
 321              		.file 2 "d:\\kzc\\stm32\\h743ii_lcd\\lvgl\\src\\misc\\lv_color.h"
   1:d:\kzc\stm32\h743ii_lcd\lvgl\src\misc\lv_color.h **** /**
   2:d:\kzc\stm32\h743ii_lcd\lvgl\src\misc\lv_color.h ****  * @file lv_color.h
   3:d:\kzc\stm32\h743ii_lcd\lvgl\src\misc\lv_color.h ****  *
   4:d:\kzc\stm32\h743ii_lcd\lvgl\src\misc\lv_color.h ****  */
   5:d:\kzc\stm32\h743ii_lcd\lvgl\src\misc\lv_color.h **** 
   6:d:\kzc\stm32\h743ii_lcd\lvgl\src\misc\lv_color.h **** #ifndef LV_COLOR_H
   7:d:\kzc\stm32\h743ii_lcd\lvgl\src\misc\lv_color.h **** #define LV_COLOR_H
   8:d:\kzc\stm32\h743ii_lcd\lvgl\src\misc\lv_color.h **** 
   9:d:\kzc\stm32\h743ii_lcd\lvgl\src\misc\lv_color.h **** #ifdef __cplusplus
  10:d:\kzc\stm32\h743ii_lcd\lvgl\src\misc\lv_color.h **** extern "C" {
  11:d:\kzc\stm32\h743ii_lcd\lvgl\src\misc\lv_color.h **** #endif
ARM GAS  C:\Users\OSD\AppData\Local\Temp\cc5XjPm4.s 			page 19


  12:d:\kzc\stm32\h743ii_lcd\lvgl\src\misc\lv_color.h **** 
  13:d:\kzc\stm32\h743ii_lcd\lvgl\src\misc\lv_color.h **** /*********************
  14:d:\kzc\stm32\h743ii_lcd\lvgl\src\misc\lv_color.h ****  *      INCLUDES
  15:d:\kzc\stm32\h743ii_lcd\lvgl\src\misc\lv_color.h ****  *********************/
  16:d:\kzc\stm32\h743ii_lcd\lvgl\src\misc\lv_color.h **** #include "../lv_conf_internal.h"
  17:d:\kzc\stm32\h743ii_lcd\lvgl\src\misc\lv_color.h **** #include "lv_assert.h"
  18:d:\kzc\stm32\h743ii_lcd\lvgl\src\misc\lv_color.h **** #include "lv_math.h"
  19:d:\kzc\stm32\h743ii_lcd\lvgl\src\misc\lv_color.h **** #include "lv_types.h"
  20:d:\kzc\stm32\h743ii_lcd\lvgl\src\misc\lv_color.h **** 
  21:d:\kzc\stm32\h743ii_lcd\lvgl\src\misc\lv_color.h **** /*Error checking*/
  22:d:\kzc\stm32\h743ii_lcd\lvgl\src\misc\lv_color.h **** #if LV_COLOR_DEPTH == 24
  23:d:\kzc\stm32\h743ii_lcd\lvgl\src\misc\lv_color.h **** #error "LV_COLOR_DEPTH 24 is deprecated. Use LV_COLOR_DEPTH 32 instead (lv_conf.h)"
  24:d:\kzc\stm32\h743ii_lcd\lvgl\src\misc\lv_color.h **** #endif
  25:d:\kzc\stm32\h743ii_lcd\lvgl\src\misc\lv_color.h **** 
  26:d:\kzc\stm32\h743ii_lcd\lvgl\src\misc\lv_color.h **** #if LV_COLOR_DEPTH != 16 && LV_COLOR_16_SWAP != 0
  27:d:\kzc\stm32\h743ii_lcd\lvgl\src\misc\lv_color.h **** #error "LV_COLOR_16_SWAP requires LV_COLOR_DEPTH == 16. Set it in lv_conf.h"
  28:d:\kzc\stm32\h743ii_lcd\lvgl\src\misc\lv_color.h **** #endif
  29:d:\kzc\stm32\h743ii_lcd\lvgl\src\misc\lv_color.h **** 
  30:d:\kzc\stm32\h743ii_lcd\lvgl\src\misc\lv_color.h **** #include <stdint.h>
  31:d:\kzc\stm32\h743ii_lcd\lvgl\src\misc\lv_color.h **** 
  32:d:\kzc\stm32\h743ii_lcd\lvgl\src\misc\lv_color.h **** /*********************
  33:d:\kzc\stm32\h743ii_lcd\lvgl\src\misc\lv_color.h ****  *      DEFINES
  34:d:\kzc\stm32\h743ii_lcd\lvgl\src\misc\lv_color.h ****  *********************/
  35:d:\kzc\stm32\h743ii_lcd\lvgl\src\misc\lv_color.h **** LV_EXPORT_CONST_INT(LV_COLOR_DEPTH);
  36:d:\kzc\stm32\h743ii_lcd\lvgl\src\misc\lv_color.h **** LV_EXPORT_CONST_INT(LV_COLOR_16_SWAP);
  37:d:\kzc\stm32\h743ii_lcd\lvgl\src\misc\lv_color.h **** 
  38:d:\kzc\stm32\h743ii_lcd\lvgl\src\misc\lv_color.h **** /**
  39:d:\kzc\stm32\h743ii_lcd\lvgl\src\misc\lv_color.h ****  * Opacity percentages.
  40:d:\kzc\stm32\h743ii_lcd\lvgl\src\misc\lv_color.h ****  */
  41:d:\kzc\stm32\h743ii_lcd\lvgl\src\misc\lv_color.h **** enum {
  42:d:\kzc\stm32\h743ii_lcd\lvgl\src\misc\lv_color.h ****     LV_OPA_TRANSP = 0,
  43:d:\kzc\stm32\h743ii_lcd\lvgl\src\misc\lv_color.h ****     LV_OPA_0      = 0,
  44:d:\kzc\stm32\h743ii_lcd\lvgl\src\misc\lv_color.h ****     LV_OPA_10     = 25,
  45:d:\kzc\stm32\h743ii_lcd\lvgl\src\misc\lv_color.h ****     LV_OPA_20     = 51,
  46:d:\kzc\stm32\h743ii_lcd\lvgl\src\misc\lv_color.h ****     LV_OPA_30     = 76,
  47:d:\kzc\stm32\h743ii_lcd\lvgl\src\misc\lv_color.h ****     LV_OPA_40     = 102,
  48:d:\kzc\stm32\h743ii_lcd\lvgl\src\misc\lv_color.h ****     LV_OPA_50     = 127,
  49:d:\kzc\stm32\h743ii_lcd\lvgl\src\misc\lv_color.h ****     LV_OPA_60     = 153,
  50:d:\kzc\stm32\h743ii_lcd\lvgl\src\misc\lv_color.h ****     LV_OPA_70     = 178,
  51:d:\kzc\stm32\h743ii_lcd\lvgl\src\misc\lv_color.h ****     LV_OPA_80     = 204,
  52:d:\kzc\stm32\h743ii_lcd\lvgl\src\misc\lv_color.h ****     LV_OPA_90     = 229,
  53:d:\kzc\stm32\h743ii_lcd\lvgl\src\misc\lv_color.h ****     LV_OPA_100    = 255,
  54:d:\kzc\stm32\h743ii_lcd\lvgl\src\misc\lv_color.h ****     LV_OPA_COVER  = 255,
  55:d:\kzc\stm32\h743ii_lcd\lvgl\src\misc\lv_color.h **** };
  56:d:\kzc\stm32\h743ii_lcd\lvgl\src\misc\lv_color.h **** 
  57:d:\kzc\stm32\h743ii_lcd\lvgl\src\misc\lv_color.h **** #define LV_OPA_MIN 2    /*Opacities below this will be transparent*/
  58:d:\kzc\stm32\h743ii_lcd\lvgl\src\misc\lv_color.h **** #define LV_OPA_MAX 253  /*Opacities above this will fully cover*/
  59:d:\kzc\stm32\h743ii_lcd\lvgl\src\misc\lv_color.h **** 
  60:d:\kzc\stm32\h743ii_lcd\lvgl\src\misc\lv_color.h **** #if LV_COLOR_DEPTH == 1
  61:d:\kzc\stm32\h743ii_lcd\lvgl\src\misc\lv_color.h **** #define LV_COLOR_SIZE 8
  62:d:\kzc\stm32\h743ii_lcd\lvgl\src\misc\lv_color.h **** #elif LV_COLOR_DEPTH == 8
  63:d:\kzc\stm32\h743ii_lcd\lvgl\src\misc\lv_color.h **** #define LV_COLOR_SIZE 8
  64:d:\kzc\stm32\h743ii_lcd\lvgl\src\misc\lv_color.h **** #elif LV_COLOR_DEPTH == 16
  65:d:\kzc\stm32\h743ii_lcd\lvgl\src\misc\lv_color.h **** #define LV_COLOR_SIZE 16
  66:d:\kzc\stm32\h743ii_lcd\lvgl\src\misc\lv_color.h **** #elif LV_COLOR_DEPTH == 32
  67:d:\kzc\stm32\h743ii_lcd\lvgl\src\misc\lv_color.h **** #define LV_COLOR_SIZE 32
  68:d:\kzc\stm32\h743ii_lcd\lvgl\src\misc\lv_color.h **** #else
ARM GAS  C:\Users\OSD\AppData\Local\Temp\cc5XjPm4.s 			page 20


  69:d:\kzc\stm32\h743ii_lcd\lvgl\src\misc\lv_color.h **** #error "Invalid LV_COLOR_DEPTH in lv_conf.h! Set it to 1, 8, 16 or 32!"
  70:d:\kzc\stm32\h743ii_lcd\lvgl\src\misc\lv_color.h **** #endif
  71:d:\kzc\stm32\h743ii_lcd\lvgl\src\misc\lv_color.h **** 
  72:d:\kzc\stm32\h743ii_lcd\lvgl\src\misc\lv_color.h **** #if defined(__cplusplus) && !defined(_LV_COLOR_HAS_MODERN_CPP)
  73:d:\kzc\stm32\h743ii_lcd\lvgl\src\misc\lv_color.h **** /**
  74:d:\kzc\stm32\h743ii_lcd\lvgl\src\misc\lv_color.h **** * MSVC compiler's definition of the __cplusplus indicating 199711L regardless to C++ standard versi
  75:d:\kzc\stm32\h743ii_lcd\lvgl\src\misc\lv_color.h **** * see https://devblogs.microsoft.com/cppblog/msvc-now-correctly-reports-cplusplus
  76:d:\kzc\stm32\h743ii_lcd\lvgl\src\misc\lv_color.h **** * so we use _MSC_VER macro instead of __cplusplus
  77:d:\kzc\stm32\h743ii_lcd\lvgl\src\misc\lv_color.h **** */
  78:d:\kzc\stm32\h743ii_lcd\lvgl\src\misc\lv_color.h **** #ifdef _MSC_VER
  79:d:\kzc\stm32\h743ii_lcd\lvgl\src\misc\lv_color.h **** #if _MSC_VER >= 1900 /*Visual Studio 2015*/
  80:d:\kzc\stm32\h743ii_lcd\lvgl\src\misc\lv_color.h **** #define _LV_COLOR_HAS_MODERN_CPP 1
  81:d:\kzc\stm32\h743ii_lcd\lvgl\src\misc\lv_color.h **** #endif
  82:d:\kzc\stm32\h743ii_lcd\lvgl\src\misc\lv_color.h **** #else
  83:d:\kzc\stm32\h743ii_lcd\lvgl\src\misc\lv_color.h **** #if __cplusplus >= 201103L
  84:d:\kzc\stm32\h743ii_lcd\lvgl\src\misc\lv_color.h **** #define _LV_COLOR_HAS_MODERN_CPP 1
  85:d:\kzc\stm32\h743ii_lcd\lvgl\src\misc\lv_color.h **** #endif
  86:d:\kzc\stm32\h743ii_lcd\lvgl\src\misc\lv_color.h **** #endif
  87:d:\kzc\stm32\h743ii_lcd\lvgl\src\misc\lv_color.h **** #endif /*__cplusplus*/
  88:d:\kzc\stm32\h743ii_lcd\lvgl\src\misc\lv_color.h **** 
  89:d:\kzc\stm32\h743ii_lcd\lvgl\src\misc\lv_color.h **** #ifndef _LV_COLOR_HAS_MODERN_CPP
  90:d:\kzc\stm32\h743ii_lcd\lvgl\src\misc\lv_color.h **** #define _LV_COLOR_HAS_MODERN_CPP 0
  91:d:\kzc\stm32\h743ii_lcd\lvgl\src\misc\lv_color.h **** #endif
  92:d:\kzc\stm32\h743ii_lcd\lvgl\src\misc\lv_color.h **** 
  93:d:\kzc\stm32\h743ii_lcd\lvgl\src\misc\lv_color.h **** #if _LV_COLOR_HAS_MODERN_CPP
  94:d:\kzc\stm32\h743ii_lcd\lvgl\src\misc\lv_color.h **** /*Fix msvc compiler error C4576 inside C++ code*/
  95:d:\kzc\stm32\h743ii_lcd\lvgl\src\misc\lv_color.h **** #define _LV_COLOR_MAKE_TYPE_HELPER lv_color_t
  96:d:\kzc\stm32\h743ii_lcd\lvgl\src\misc\lv_color.h **** #else
  97:d:\kzc\stm32\h743ii_lcd\lvgl\src\misc\lv_color.h **** #define _LV_COLOR_MAKE_TYPE_HELPER (lv_color_t)
  98:d:\kzc\stm32\h743ii_lcd\lvgl\src\misc\lv_color.h **** #endif
  99:d:\kzc\stm32\h743ii_lcd\lvgl\src\misc\lv_color.h **** 
 100:d:\kzc\stm32\h743ii_lcd\lvgl\src\misc\lv_color.h **** /*---------------------------------------
 101:d:\kzc\stm32\h743ii_lcd\lvgl\src\misc\lv_color.h ****  * Macros for all existing color depths
 102:d:\kzc\stm32\h743ii_lcd\lvgl\src\misc\lv_color.h ****  * to set/get values of the color channels
 103:d:\kzc\stm32\h743ii_lcd\lvgl\src\misc\lv_color.h ****  *------------------------------------------*/
 104:d:\kzc\stm32\h743ii_lcd\lvgl\src\misc\lv_color.h **** # define LV_COLOR_SET_R1(c, v) (c).ch.red = (uint8_t)((v) & 0x1)
 105:d:\kzc\stm32\h743ii_lcd\lvgl\src\misc\lv_color.h **** # define LV_COLOR_SET_G1(c, v) (c).ch.green = (uint8_t)((v) & 0x1)
 106:d:\kzc\stm32\h743ii_lcd\lvgl\src\misc\lv_color.h **** # define LV_COLOR_SET_B1(c, v) (c).ch.blue = (uint8_t)((v) & 0x1)
 107:d:\kzc\stm32\h743ii_lcd\lvgl\src\misc\lv_color.h **** # define LV_COLOR_SET_A1(c, v) do {} while(0)
 108:d:\kzc\stm32\h743ii_lcd\lvgl\src\misc\lv_color.h **** 
 109:d:\kzc\stm32\h743ii_lcd\lvgl\src\misc\lv_color.h **** # define LV_COLOR_GET_R1(c) (c).ch.red
 110:d:\kzc\stm32\h743ii_lcd\lvgl\src\misc\lv_color.h **** # define LV_COLOR_GET_G1(c) (c).ch.green
 111:d:\kzc\stm32\h743ii_lcd\lvgl\src\misc\lv_color.h **** # define LV_COLOR_GET_B1(c) (c).ch.blue
 112:d:\kzc\stm32\h743ii_lcd\lvgl\src\misc\lv_color.h **** # define LV_COLOR_GET_A1(c) 0xFF
 113:d:\kzc\stm32\h743ii_lcd\lvgl\src\misc\lv_color.h **** 
 114:d:\kzc\stm32\h743ii_lcd\lvgl\src\misc\lv_color.h **** # define _LV_COLOR_ZERO_INITIALIZER1 {0x00}
 115:d:\kzc\stm32\h743ii_lcd\lvgl\src\misc\lv_color.h **** # define LV_COLOR_MAKE1(r8, g8, b8)  {(uint8_t)((b8 >> 7) | (g8 >> 7) | (r8 >> 7))}
 116:d:\kzc\stm32\h743ii_lcd\lvgl\src\misc\lv_color.h **** 
 117:d:\kzc\stm32\h743ii_lcd\lvgl\src\misc\lv_color.h **** # define LV_COLOR_SET_R8(c, v) (c).ch.red = (uint8_t)((v) & 0x7U)
 118:d:\kzc\stm32\h743ii_lcd\lvgl\src\misc\lv_color.h **** # define LV_COLOR_SET_G8(c, v) (c).ch.green = (uint8_t)((v) & 0x7U)
 119:d:\kzc\stm32\h743ii_lcd\lvgl\src\misc\lv_color.h **** # define LV_COLOR_SET_B8(c, v) (c).ch.blue = (uint8_t)((v) & 0x3U)
 120:d:\kzc\stm32\h743ii_lcd\lvgl\src\misc\lv_color.h **** # define LV_COLOR_SET_A8(c, v) do {} while(0)
 121:d:\kzc\stm32\h743ii_lcd\lvgl\src\misc\lv_color.h **** 
 122:d:\kzc\stm32\h743ii_lcd\lvgl\src\misc\lv_color.h **** # define LV_COLOR_GET_R8(c) (c).ch.red
 123:d:\kzc\stm32\h743ii_lcd\lvgl\src\misc\lv_color.h **** # define LV_COLOR_GET_G8(c) (c).ch.green
 124:d:\kzc\stm32\h743ii_lcd\lvgl\src\misc\lv_color.h **** # define LV_COLOR_GET_B8(c) (c).ch.blue
 125:d:\kzc\stm32\h743ii_lcd\lvgl\src\misc\lv_color.h **** # define LV_COLOR_GET_A8(c) 0xFF
ARM GAS  C:\Users\OSD\AppData\Local\Temp\cc5XjPm4.s 			page 21


 126:d:\kzc\stm32\h743ii_lcd\lvgl\src\misc\lv_color.h **** 
 127:d:\kzc\stm32\h743ii_lcd\lvgl\src\misc\lv_color.h **** # define _LV_COLOR_ZERO_INITIALIZER8 {{0x00, 0x00, 0x00}}
 128:d:\kzc\stm32\h743ii_lcd\lvgl\src\misc\lv_color.h **** # define LV_COLOR_MAKE8(r8, g8, b8) {{(uint8_t)((b8 >> 6) & 0x3U), (uint8_t)((g8 >> 5) & 0x7U), (ui
 129:d:\kzc\stm32\h743ii_lcd\lvgl\src\misc\lv_color.h **** 
 130:d:\kzc\stm32\h743ii_lcd\lvgl\src\misc\lv_color.h **** # define LV_COLOR_SET_R16(c, v) (c).ch.red = (uint8_t)((v) & 0x1FU)
 131:d:\kzc\stm32\h743ii_lcd\lvgl\src\misc\lv_color.h **** #if LV_COLOR_16_SWAP == 0
 132:d:\kzc\stm32\h743ii_lcd\lvgl\src\misc\lv_color.h **** # define LV_COLOR_SET_G16(c, v) (c).ch.green = (uint8_t)((v) & 0x3FU)
 133:d:\kzc\stm32\h743ii_lcd\lvgl\src\misc\lv_color.h **** #else
 134:d:\kzc\stm32\h743ii_lcd\lvgl\src\misc\lv_color.h **** # define LV_COLOR_SET_G16(c, v) {(c).ch.green_h = (uint8_t)(((v) >> 3) & 0x7); (c).ch.green_l = (ui
 135:d:\kzc\stm32\h743ii_lcd\lvgl\src\misc\lv_color.h **** #endif
 136:d:\kzc\stm32\h743ii_lcd\lvgl\src\misc\lv_color.h **** # define LV_COLOR_SET_B16(c, v) (c).ch.blue = (uint8_t)((v) & 0x1FU)
 137:d:\kzc\stm32\h743ii_lcd\lvgl\src\misc\lv_color.h **** # define LV_COLOR_SET_A16(c, v) do {} while(0)
 138:d:\kzc\stm32\h743ii_lcd\lvgl\src\misc\lv_color.h **** 
 139:d:\kzc\stm32\h743ii_lcd\lvgl\src\misc\lv_color.h **** # define LV_COLOR_GET_R16(c) (c).ch.red
 140:d:\kzc\stm32\h743ii_lcd\lvgl\src\misc\lv_color.h **** #if LV_COLOR_16_SWAP == 0
 141:d:\kzc\stm32\h743ii_lcd\lvgl\src\misc\lv_color.h **** # define LV_COLOR_GET_G16(c) (c).ch.green
 142:d:\kzc\stm32\h743ii_lcd\lvgl\src\misc\lv_color.h **** #else
 143:d:\kzc\stm32\h743ii_lcd\lvgl\src\misc\lv_color.h **** # define LV_COLOR_GET_G16(c) (((c).ch.green_h << 3) + (c).ch.green_l)
 144:d:\kzc\stm32\h743ii_lcd\lvgl\src\misc\lv_color.h **** #endif
 145:d:\kzc\stm32\h743ii_lcd\lvgl\src\misc\lv_color.h **** # define LV_COLOR_GET_B16(c) (c).ch.blue
 146:d:\kzc\stm32\h743ii_lcd\lvgl\src\misc\lv_color.h **** # define LV_COLOR_GET_A16(c) 0xFF
 147:d:\kzc\stm32\h743ii_lcd\lvgl\src\misc\lv_color.h **** 
 148:d:\kzc\stm32\h743ii_lcd\lvgl\src\misc\lv_color.h **** #if LV_COLOR_16_SWAP == 0
 149:d:\kzc\stm32\h743ii_lcd\lvgl\src\misc\lv_color.h **** # define _LV_COLOR_ZERO_INITIALIZER16  {{0x00, 0x00, 0x00}}
 150:d:\kzc\stm32\h743ii_lcd\lvgl\src\misc\lv_color.h **** # define LV_COLOR_MAKE16(r8, g8, b8) {{(uint8_t)((b8 >> 3) & 0x1FU), (uint8_t)((g8 >> 2) & 0x3FU), 
 151:d:\kzc\stm32\h743ii_lcd\lvgl\src\misc\lv_color.h **** #else
 152:d:\kzc\stm32\h743ii_lcd\lvgl\src\misc\lv_color.h **** # define _LV_COLOR_ZERO_INITIALIZER16 {{0x00, 0x00, 0x00, 0x00}}
 153:d:\kzc\stm32\h743ii_lcd\lvgl\src\misc\lv_color.h **** # define LV_COLOR_MAKE16(r8, g8, b8) {{(uint8_t)((g8 >> 5) & 0x7U), (uint8_t)((r8 >> 3) & 0x1FU), (
 154:d:\kzc\stm32\h743ii_lcd\lvgl\src\misc\lv_color.h **** #endif
 155:d:\kzc\stm32\h743ii_lcd\lvgl\src\misc\lv_color.h **** 
 156:d:\kzc\stm32\h743ii_lcd\lvgl\src\misc\lv_color.h **** # define LV_COLOR_SET_R32(c, v) (c).ch.red = (uint8_t)((v) & 0xFF)
 157:d:\kzc\stm32\h743ii_lcd\lvgl\src\misc\lv_color.h **** # define LV_COLOR_SET_G32(c, v) (c).ch.green = (uint8_t)((v) & 0xFF)
 158:d:\kzc\stm32\h743ii_lcd\lvgl\src\misc\lv_color.h **** # define LV_COLOR_SET_B32(c, v) (c).ch.blue = (uint8_t)((v) & 0xFF)
 159:d:\kzc\stm32\h743ii_lcd\lvgl\src\misc\lv_color.h **** # define LV_COLOR_SET_A32(c, v) (c).ch.alpha = (uint8_t)((v) & 0xFF)
 160:d:\kzc\stm32\h743ii_lcd\lvgl\src\misc\lv_color.h **** 
 161:d:\kzc\stm32\h743ii_lcd\lvgl\src\misc\lv_color.h **** # define LV_COLOR_GET_R32(c) (c).ch.red
 162:d:\kzc\stm32\h743ii_lcd\lvgl\src\misc\lv_color.h **** # define LV_COLOR_GET_G32(c) (c).ch.green
 163:d:\kzc\stm32\h743ii_lcd\lvgl\src\misc\lv_color.h **** # define LV_COLOR_GET_B32(c) (c).ch.blue
 164:d:\kzc\stm32\h743ii_lcd\lvgl\src\misc\lv_color.h **** # define LV_COLOR_GET_A32(c) (c).ch.alpha
 165:d:\kzc\stm32\h743ii_lcd\lvgl\src\misc\lv_color.h **** 
 166:d:\kzc\stm32\h743ii_lcd\lvgl\src\misc\lv_color.h **** # define _LV_COLOR_ZERO_INITIALIZER32  {{0x00, 0x00, 0x00, 0x00}}
 167:d:\kzc\stm32\h743ii_lcd\lvgl\src\misc\lv_color.h **** # define LV_COLOR_MAKE32(r8, g8, b8) {{b8, g8, r8, 0xff}} /*Fix 0xff alpha*/
 168:d:\kzc\stm32\h743ii_lcd\lvgl\src\misc\lv_color.h **** 
 169:d:\kzc\stm32\h743ii_lcd\lvgl\src\misc\lv_color.h **** /*---------------------------------------
 170:d:\kzc\stm32\h743ii_lcd\lvgl\src\misc\lv_color.h ****  * Macros for the current color depth
 171:d:\kzc\stm32\h743ii_lcd\lvgl\src\misc\lv_color.h ****  * to set/get values of the color channels
 172:d:\kzc\stm32\h743ii_lcd\lvgl\src\misc\lv_color.h ****  *------------------------------------------*/
 173:d:\kzc\stm32\h743ii_lcd\lvgl\src\misc\lv_color.h **** #define LV_COLOR_SET_R(c, v) LV_CONCAT(LV_COLOR_SET_R, LV_COLOR_DEPTH)(c, v)
 174:d:\kzc\stm32\h743ii_lcd\lvgl\src\misc\lv_color.h **** #define LV_COLOR_SET_G(c, v) LV_CONCAT(LV_COLOR_SET_G, LV_COLOR_DEPTH)(c, v)
 175:d:\kzc\stm32\h743ii_lcd\lvgl\src\misc\lv_color.h **** #define LV_COLOR_SET_B(c, v) LV_CONCAT(LV_COLOR_SET_B, LV_COLOR_DEPTH)(c, v)
 176:d:\kzc\stm32\h743ii_lcd\lvgl\src\misc\lv_color.h **** #define LV_COLOR_SET_A(c, v) LV_CONCAT(LV_COLOR_SET_A, LV_COLOR_DEPTH)(c, v)
 177:d:\kzc\stm32\h743ii_lcd\lvgl\src\misc\lv_color.h **** 
 178:d:\kzc\stm32\h743ii_lcd\lvgl\src\misc\lv_color.h **** #define LV_COLOR_GET_R(c) LV_CONCAT(LV_COLOR_GET_R, LV_COLOR_DEPTH)(c)
 179:d:\kzc\stm32\h743ii_lcd\lvgl\src\misc\lv_color.h **** #define LV_COLOR_GET_G(c) LV_CONCAT(LV_COLOR_GET_G, LV_COLOR_DEPTH)(c)
 180:d:\kzc\stm32\h743ii_lcd\lvgl\src\misc\lv_color.h **** #define LV_COLOR_GET_B(c) LV_CONCAT(LV_COLOR_GET_B, LV_COLOR_DEPTH)(c)
 181:d:\kzc\stm32\h743ii_lcd\lvgl\src\misc\lv_color.h **** #define LV_COLOR_GET_A(c) LV_CONCAT(LV_COLOR_GET_A, LV_COLOR_DEPTH)(c)
 182:d:\kzc\stm32\h743ii_lcd\lvgl\src\misc\lv_color.h **** 
ARM GAS  C:\Users\OSD\AppData\Local\Temp\cc5XjPm4.s 			page 22


 183:d:\kzc\stm32\h743ii_lcd\lvgl\src\misc\lv_color.h **** #define _LV_COLOR_ZERO_INITIALIZER LV_CONCAT(_LV_COLOR_ZERO_INITIALIZER, LV_COLOR_DEPTH)
 184:d:\kzc\stm32\h743ii_lcd\lvgl\src\misc\lv_color.h **** #define LV_COLOR_MAKE(r8, g8, b8) LV_CONCAT(LV_COLOR_MAKE, LV_COLOR_DEPTH)(r8, g8, b8)
 185:d:\kzc\stm32\h743ii_lcd\lvgl\src\misc\lv_color.h **** 
 186:d:\kzc\stm32\h743ii_lcd\lvgl\src\misc\lv_color.h **** /**********************
 187:d:\kzc\stm32\h743ii_lcd\lvgl\src\misc\lv_color.h ****  *      TYPEDEFS
 188:d:\kzc\stm32\h743ii_lcd\lvgl\src\misc\lv_color.h ****  **********************/
 189:d:\kzc\stm32\h743ii_lcd\lvgl\src\misc\lv_color.h **** 
 190:d:\kzc\stm32\h743ii_lcd\lvgl\src\misc\lv_color.h **** typedef union {
 191:d:\kzc\stm32\h743ii_lcd\lvgl\src\misc\lv_color.h ****     uint8_t full; /*must be declared first to set all bits of byte via initializer list*/
 192:d:\kzc\stm32\h743ii_lcd\lvgl\src\misc\lv_color.h ****     union {
 193:d:\kzc\stm32\h743ii_lcd\lvgl\src\misc\lv_color.h ****         uint8_t blue : 1;
 194:d:\kzc\stm32\h743ii_lcd\lvgl\src\misc\lv_color.h ****         uint8_t green : 1;
 195:d:\kzc\stm32\h743ii_lcd\lvgl\src\misc\lv_color.h ****         uint8_t red : 1;
 196:d:\kzc\stm32\h743ii_lcd\lvgl\src\misc\lv_color.h ****     } ch;
 197:d:\kzc\stm32\h743ii_lcd\lvgl\src\misc\lv_color.h **** } lv_color1_t;
 198:d:\kzc\stm32\h743ii_lcd\lvgl\src\misc\lv_color.h **** 
 199:d:\kzc\stm32\h743ii_lcd\lvgl\src\misc\lv_color.h **** typedef union {
 200:d:\kzc\stm32\h743ii_lcd\lvgl\src\misc\lv_color.h ****     struct {
 201:d:\kzc\stm32\h743ii_lcd\lvgl\src\misc\lv_color.h ****         uint8_t blue : 2;
 202:d:\kzc\stm32\h743ii_lcd\lvgl\src\misc\lv_color.h ****         uint8_t green : 3;
 203:d:\kzc\stm32\h743ii_lcd\lvgl\src\misc\lv_color.h ****         uint8_t red : 3;
 204:d:\kzc\stm32\h743ii_lcd\lvgl\src\misc\lv_color.h ****     } ch;
 205:d:\kzc\stm32\h743ii_lcd\lvgl\src\misc\lv_color.h ****     uint8_t full;
 206:d:\kzc\stm32\h743ii_lcd\lvgl\src\misc\lv_color.h **** } lv_color8_t;
 207:d:\kzc\stm32\h743ii_lcd\lvgl\src\misc\lv_color.h **** 
 208:d:\kzc\stm32\h743ii_lcd\lvgl\src\misc\lv_color.h **** typedef union {
 209:d:\kzc\stm32\h743ii_lcd\lvgl\src\misc\lv_color.h ****     struct {
 210:d:\kzc\stm32\h743ii_lcd\lvgl\src\misc\lv_color.h **** #if LV_COLOR_16_SWAP == 0
 211:d:\kzc\stm32\h743ii_lcd\lvgl\src\misc\lv_color.h ****         uint16_t blue : 5;
 212:d:\kzc\stm32\h743ii_lcd\lvgl\src\misc\lv_color.h ****         uint16_t green : 6;
 213:d:\kzc\stm32\h743ii_lcd\lvgl\src\misc\lv_color.h ****         uint16_t red : 5;
 214:d:\kzc\stm32\h743ii_lcd\lvgl\src\misc\lv_color.h **** #else
 215:d:\kzc\stm32\h743ii_lcd\lvgl\src\misc\lv_color.h ****         uint16_t green_h : 3;
 216:d:\kzc\stm32\h743ii_lcd\lvgl\src\misc\lv_color.h ****         uint16_t red : 5;
 217:d:\kzc\stm32\h743ii_lcd\lvgl\src\misc\lv_color.h ****         uint16_t blue : 5;
 218:d:\kzc\stm32\h743ii_lcd\lvgl\src\misc\lv_color.h ****         uint16_t green_l : 3;
 219:d:\kzc\stm32\h743ii_lcd\lvgl\src\misc\lv_color.h **** #endif
 220:d:\kzc\stm32\h743ii_lcd\lvgl\src\misc\lv_color.h ****     } ch;
 221:d:\kzc\stm32\h743ii_lcd\lvgl\src\misc\lv_color.h ****     uint16_t full;
 222:d:\kzc\stm32\h743ii_lcd\lvgl\src\misc\lv_color.h **** } lv_color16_t;
 223:d:\kzc\stm32\h743ii_lcd\lvgl\src\misc\lv_color.h **** 
 224:d:\kzc\stm32\h743ii_lcd\lvgl\src\misc\lv_color.h **** typedef union {
 225:d:\kzc\stm32\h743ii_lcd\lvgl\src\misc\lv_color.h ****     struct {
 226:d:\kzc\stm32\h743ii_lcd\lvgl\src\misc\lv_color.h ****         uint8_t blue;
 227:d:\kzc\stm32\h743ii_lcd\lvgl\src\misc\lv_color.h ****         uint8_t green;
 228:d:\kzc\stm32\h743ii_lcd\lvgl\src\misc\lv_color.h ****         uint8_t red;
 229:d:\kzc\stm32\h743ii_lcd\lvgl\src\misc\lv_color.h ****         uint8_t alpha;
 230:d:\kzc\stm32\h743ii_lcd\lvgl\src\misc\lv_color.h ****     } ch;
 231:d:\kzc\stm32\h743ii_lcd\lvgl\src\misc\lv_color.h ****     uint32_t full;
 232:d:\kzc\stm32\h743ii_lcd\lvgl\src\misc\lv_color.h **** } lv_color32_t;
 233:d:\kzc\stm32\h743ii_lcd\lvgl\src\misc\lv_color.h **** 
 234:d:\kzc\stm32\h743ii_lcd\lvgl\src\misc\lv_color.h **** typedef LV_CONCAT3(uint, LV_COLOR_SIZE, _t) lv_color_int_t;
 235:d:\kzc\stm32\h743ii_lcd\lvgl\src\misc\lv_color.h **** typedef LV_CONCAT3(lv_color, LV_COLOR_DEPTH, _t) lv_color_t;
 236:d:\kzc\stm32\h743ii_lcd\lvgl\src\misc\lv_color.h **** 
 237:d:\kzc\stm32\h743ii_lcd\lvgl\src\misc\lv_color.h **** typedef struct {
 238:d:\kzc\stm32\h743ii_lcd\lvgl\src\misc\lv_color.h ****     uint16_t h;
 239:d:\kzc\stm32\h743ii_lcd\lvgl\src\misc\lv_color.h ****     uint8_t s;
ARM GAS  C:\Users\OSD\AppData\Local\Temp\cc5XjPm4.s 			page 23


 240:d:\kzc\stm32\h743ii_lcd\lvgl\src\misc\lv_color.h ****     uint8_t v;
 241:d:\kzc\stm32\h743ii_lcd\lvgl\src\misc\lv_color.h **** } lv_color_hsv_t;
 242:d:\kzc\stm32\h743ii_lcd\lvgl\src\misc\lv_color.h **** 
 243:d:\kzc\stm32\h743ii_lcd\lvgl\src\misc\lv_color.h **** //! @cond Doxygen_Suppress
 244:d:\kzc\stm32\h743ii_lcd\lvgl\src\misc\lv_color.h **** /*No idea where the guard is required but else throws warnings in the docs*/
 245:d:\kzc\stm32\h743ii_lcd\lvgl\src\misc\lv_color.h **** typedef uint8_t lv_opa_t;
 246:d:\kzc\stm32\h743ii_lcd\lvgl\src\misc\lv_color.h **** //! @endcond
 247:d:\kzc\stm32\h743ii_lcd\lvgl\src\misc\lv_color.h **** 
 248:d:\kzc\stm32\h743ii_lcd\lvgl\src\misc\lv_color.h **** struct _lv_color_filter_dsc_t;
 249:d:\kzc\stm32\h743ii_lcd\lvgl\src\misc\lv_color.h **** 
 250:d:\kzc\stm32\h743ii_lcd\lvgl\src\misc\lv_color.h **** typedef lv_color_t (*lv_color_filter_cb_t)(const struct _lv_color_filter_dsc_t *, lv_color_t, lv_op
 251:d:\kzc\stm32\h743ii_lcd\lvgl\src\misc\lv_color.h **** 
 252:d:\kzc\stm32\h743ii_lcd\lvgl\src\misc\lv_color.h **** typedef struct _lv_color_filter_dsc_t {
 253:d:\kzc\stm32\h743ii_lcd\lvgl\src\misc\lv_color.h ****     lv_color_filter_cb_t filter_cb;
 254:d:\kzc\stm32\h743ii_lcd\lvgl\src\misc\lv_color.h ****     void * user_data;
 255:d:\kzc\stm32\h743ii_lcd\lvgl\src\misc\lv_color.h **** } lv_color_filter_dsc_t;
 256:d:\kzc\stm32\h743ii_lcd\lvgl\src\misc\lv_color.h **** 
 257:d:\kzc\stm32\h743ii_lcd\lvgl\src\misc\lv_color.h **** typedef enum {
 258:d:\kzc\stm32\h743ii_lcd\lvgl\src\misc\lv_color.h ****     LV_PALETTE_RED,
 259:d:\kzc\stm32\h743ii_lcd\lvgl\src\misc\lv_color.h ****     LV_PALETTE_PINK,
 260:d:\kzc\stm32\h743ii_lcd\lvgl\src\misc\lv_color.h ****     LV_PALETTE_PURPLE,
 261:d:\kzc\stm32\h743ii_lcd\lvgl\src\misc\lv_color.h ****     LV_PALETTE_DEEP_PURPLE,
 262:d:\kzc\stm32\h743ii_lcd\lvgl\src\misc\lv_color.h ****     LV_PALETTE_INDIGO,
 263:d:\kzc\stm32\h743ii_lcd\lvgl\src\misc\lv_color.h ****     LV_PALETTE_BLUE,
 264:d:\kzc\stm32\h743ii_lcd\lvgl\src\misc\lv_color.h ****     LV_PALETTE_LIGHT_BLUE,
 265:d:\kzc\stm32\h743ii_lcd\lvgl\src\misc\lv_color.h ****     LV_PALETTE_CYAN,
 266:d:\kzc\stm32\h743ii_lcd\lvgl\src\misc\lv_color.h ****     LV_PALETTE_TEAL,
 267:d:\kzc\stm32\h743ii_lcd\lvgl\src\misc\lv_color.h ****     LV_PALETTE_GREEN,
 268:d:\kzc\stm32\h743ii_lcd\lvgl\src\misc\lv_color.h ****     LV_PALETTE_LIGHT_GREEN,
 269:d:\kzc\stm32\h743ii_lcd\lvgl\src\misc\lv_color.h ****     LV_PALETTE_LIME,
 270:d:\kzc\stm32\h743ii_lcd\lvgl\src\misc\lv_color.h ****     LV_PALETTE_YELLOW,
 271:d:\kzc\stm32\h743ii_lcd\lvgl\src\misc\lv_color.h ****     LV_PALETTE_AMBER,
 272:d:\kzc\stm32\h743ii_lcd\lvgl\src\misc\lv_color.h ****     LV_PALETTE_ORANGE,
 273:d:\kzc\stm32\h743ii_lcd\lvgl\src\misc\lv_color.h ****     LV_PALETTE_DEEP_ORANGE,
 274:d:\kzc\stm32\h743ii_lcd\lvgl\src\misc\lv_color.h ****     LV_PALETTE_BROWN,
 275:d:\kzc\stm32\h743ii_lcd\lvgl\src\misc\lv_color.h ****     LV_PALETTE_BLUE_GREY,
 276:d:\kzc\stm32\h743ii_lcd\lvgl\src\misc\lv_color.h ****     LV_PALETTE_GREY,
 277:d:\kzc\stm32\h743ii_lcd\lvgl\src\misc\lv_color.h ****     _LV_PALETTE_LAST,
 278:d:\kzc\stm32\h743ii_lcd\lvgl\src\misc\lv_color.h ****     LV_PALETTE_NONE = 0xff,
 279:d:\kzc\stm32\h743ii_lcd\lvgl\src\misc\lv_color.h **** } lv_palette_t;
 280:d:\kzc\stm32\h743ii_lcd\lvgl\src\misc\lv_color.h **** 
 281:d:\kzc\stm32\h743ii_lcd\lvgl\src\misc\lv_color.h **** /**********************
 282:d:\kzc\stm32\h743ii_lcd\lvgl\src\misc\lv_color.h ****  * GLOBAL PROTOTYPES
 283:d:\kzc\stm32\h743ii_lcd\lvgl\src\misc\lv_color.h ****  **********************/
 284:d:\kzc\stm32\h743ii_lcd\lvgl\src\misc\lv_color.h **** 
 285:d:\kzc\stm32\h743ii_lcd\lvgl\src\misc\lv_color.h **** /*In color conversations:
 286:d:\kzc\stm32\h743ii_lcd\lvgl\src\misc\lv_color.h ****  * - When converting to bigger color type the LSB weight of 1 LSB is calculated
 287:d:\kzc\stm32\h743ii_lcd\lvgl\src\misc\lv_color.h ****  *   E.g. 16 bit Red has 5 bits
 288:d:\kzc\stm32\h743ii_lcd\lvgl\src\misc\lv_color.h ****  *         8 bit Red has 3 bits
 289:d:\kzc\stm32\h743ii_lcd\lvgl\src\misc\lv_color.h ****  *        ----------------------
 290:d:\kzc\stm32\h743ii_lcd\lvgl\src\misc\lv_color.h ****  *        8 bit red LSB = (2^5 - 1) / (2^3 - 1) = 31 / 7 = 4
 291:d:\kzc\stm32\h743ii_lcd\lvgl\src\misc\lv_color.h ****  *
 292:d:\kzc\stm32\h743ii_lcd\lvgl\src\misc\lv_color.h ****  * - When calculating to smaller color type simply shift out the LSBs
 293:d:\kzc\stm32\h743ii_lcd\lvgl\src\misc\lv_color.h ****  *   E.g.  8 bit Red has 3 bits
 294:d:\kzc\stm32\h743ii_lcd\lvgl\src\misc\lv_color.h ****  *        16 bit Red has 5 bits
 295:d:\kzc\stm32\h743ii_lcd\lvgl\src\misc\lv_color.h ****  *        ----------------------
 296:d:\kzc\stm32\h743ii_lcd\lvgl\src\misc\lv_color.h ****  *         Shift right with 5 - 3 = 2
ARM GAS  C:\Users\OSD\AppData\Local\Temp\cc5XjPm4.s 			page 24


 297:d:\kzc\stm32\h743ii_lcd\lvgl\src\misc\lv_color.h ****  */
 298:d:\kzc\stm32\h743ii_lcd\lvgl\src\misc\lv_color.h **** static inline uint8_t lv_color_to1(lv_color_t color)
 299:d:\kzc\stm32\h743ii_lcd\lvgl\src\misc\lv_color.h **** {
 300:d:\kzc\stm32\h743ii_lcd\lvgl\src\misc\lv_color.h **** #if LV_COLOR_DEPTH == 1
 301:d:\kzc\stm32\h743ii_lcd\lvgl\src\misc\lv_color.h ****     return color.full;
 302:d:\kzc\stm32\h743ii_lcd\lvgl\src\misc\lv_color.h **** #elif LV_COLOR_DEPTH == 8
 303:d:\kzc\stm32\h743ii_lcd\lvgl\src\misc\lv_color.h ****     if((LV_COLOR_GET_R(color) & 0x4) || (LV_COLOR_GET_G(color) & 0x4) || (LV_COLOR_GET_B(color) & 0
 304:d:\kzc\stm32\h743ii_lcd\lvgl\src\misc\lv_color.h ****         return 1;
 305:d:\kzc\stm32\h743ii_lcd\lvgl\src\misc\lv_color.h ****     }
 306:d:\kzc\stm32\h743ii_lcd\lvgl\src\misc\lv_color.h ****     else {
 307:d:\kzc\stm32\h743ii_lcd\lvgl\src\misc\lv_color.h ****         return 0;
 308:d:\kzc\stm32\h743ii_lcd\lvgl\src\misc\lv_color.h ****     }
 309:d:\kzc\stm32\h743ii_lcd\lvgl\src\misc\lv_color.h **** #elif LV_COLOR_DEPTH == 16
 310:d:\kzc\stm32\h743ii_lcd\lvgl\src\misc\lv_color.h ****     if((LV_COLOR_GET_R(color) & 0x10) || (LV_COLOR_GET_G(color) & 0x20) || (LV_COLOR_GET_B(color) &
 311:d:\kzc\stm32\h743ii_lcd\lvgl\src\misc\lv_color.h ****         return 1;
 312:d:\kzc\stm32\h743ii_lcd\lvgl\src\misc\lv_color.h ****     }
 313:d:\kzc\stm32\h743ii_lcd\lvgl\src\misc\lv_color.h ****     else {
 314:d:\kzc\stm32\h743ii_lcd\lvgl\src\misc\lv_color.h ****         return 0;
 315:d:\kzc\stm32\h743ii_lcd\lvgl\src\misc\lv_color.h ****     }
 316:d:\kzc\stm32\h743ii_lcd\lvgl\src\misc\lv_color.h **** #elif LV_COLOR_DEPTH == 32
 317:d:\kzc\stm32\h743ii_lcd\lvgl\src\misc\lv_color.h ****     if((LV_COLOR_GET_R(color) & 0x80) || (LV_COLOR_GET_G(color) & 0x80) || (LV_COLOR_GET_B(color) &
 318:d:\kzc\stm32\h743ii_lcd\lvgl\src\misc\lv_color.h ****         return 1;
 319:d:\kzc\stm32\h743ii_lcd\lvgl\src\misc\lv_color.h ****     }
 320:d:\kzc\stm32\h743ii_lcd\lvgl\src\misc\lv_color.h ****     else {
 321:d:\kzc\stm32\h743ii_lcd\lvgl\src\misc\lv_color.h ****         return 0;
 322:d:\kzc\stm32\h743ii_lcd\lvgl\src\misc\lv_color.h ****     }
 323:d:\kzc\stm32\h743ii_lcd\lvgl\src\misc\lv_color.h **** #endif
 324:d:\kzc\stm32\h743ii_lcd\lvgl\src\misc\lv_color.h **** }
 325:d:\kzc\stm32\h743ii_lcd\lvgl\src\misc\lv_color.h **** 
 326:d:\kzc\stm32\h743ii_lcd\lvgl\src\misc\lv_color.h **** static inline uint8_t lv_color_to8(lv_color_t color)
 327:d:\kzc\stm32\h743ii_lcd\lvgl\src\misc\lv_color.h **** {
 328:d:\kzc\stm32\h743ii_lcd\lvgl\src\misc\lv_color.h **** #if LV_COLOR_DEPTH == 1
 329:d:\kzc\stm32\h743ii_lcd\lvgl\src\misc\lv_color.h ****     if(color.full == 0)
 330:d:\kzc\stm32\h743ii_lcd\lvgl\src\misc\lv_color.h ****         return 0;
 331:d:\kzc\stm32\h743ii_lcd\lvgl\src\misc\lv_color.h ****     else
 332:d:\kzc\stm32\h743ii_lcd\lvgl\src\misc\lv_color.h ****         return 0xFF;
 333:d:\kzc\stm32\h743ii_lcd\lvgl\src\misc\lv_color.h **** #elif LV_COLOR_DEPTH == 8
 334:d:\kzc\stm32\h743ii_lcd\lvgl\src\misc\lv_color.h ****     return color.full;
 335:d:\kzc\stm32\h743ii_lcd\lvgl\src\misc\lv_color.h **** #elif LV_COLOR_DEPTH == 16
 336:d:\kzc\stm32\h743ii_lcd\lvgl\src\misc\lv_color.h ****     lv_color8_t ret;
 337:d:\kzc\stm32\h743ii_lcd\lvgl\src\misc\lv_color.h ****     LV_COLOR_SET_R8(ret, LV_COLOR_GET_R(color) >> 2); /*5 - 3  = 2*/
 338:d:\kzc\stm32\h743ii_lcd\lvgl\src\misc\lv_color.h ****     LV_COLOR_SET_G8(ret, LV_COLOR_GET_G(color) >> 3); /*6 - 3  = 3*/
 339:d:\kzc\stm32\h743ii_lcd\lvgl\src\misc\lv_color.h ****     LV_COLOR_SET_B8(ret, LV_COLOR_GET_B(color) >> 3); /*5 - 2  = 3*/
 340:d:\kzc\stm32\h743ii_lcd\lvgl\src\misc\lv_color.h ****     return ret.full;
 341:d:\kzc\stm32\h743ii_lcd\lvgl\src\misc\lv_color.h **** #elif LV_COLOR_DEPTH == 32
 342:d:\kzc\stm32\h743ii_lcd\lvgl\src\misc\lv_color.h ****     lv_color8_t ret;
 343:d:\kzc\stm32\h743ii_lcd\lvgl\src\misc\lv_color.h ****     LV_COLOR_SET_R8(ret, LV_COLOR_GET_R(color) >> 5); /*8 - 3  = 5*/
 344:d:\kzc\stm32\h743ii_lcd\lvgl\src\misc\lv_color.h ****     LV_COLOR_SET_G8(ret, LV_COLOR_GET_G(color) >> 5); /*8 - 3  = 5*/
 345:d:\kzc\stm32\h743ii_lcd\lvgl\src\misc\lv_color.h ****     LV_COLOR_SET_B8(ret, LV_COLOR_GET_B(color) >> 6); /*8 - 2  = 6*/
 346:d:\kzc\stm32\h743ii_lcd\lvgl\src\misc\lv_color.h ****     return ret.full;
 347:d:\kzc\stm32\h743ii_lcd\lvgl\src\misc\lv_color.h **** #endif
 348:d:\kzc\stm32\h743ii_lcd\lvgl\src\misc\lv_color.h **** }
 349:d:\kzc\stm32\h743ii_lcd\lvgl\src\misc\lv_color.h **** 
 350:d:\kzc\stm32\h743ii_lcd\lvgl\src\misc\lv_color.h **** static inline uint16_t lv_color_to16(lv_color_t color)
 351:d:\kzc\stm32\h743ii_lcd\lvgl\src\misc\lv_color.h **** {
 352:d:\kzc\stm32\h743ii_lcd\lvgl\src\misc\lv_color.h **** #if LV_COLOR_DEPTH == 1
 353:d:\kzc\stm32\h743ii_lcd\lvgl\src\misc\lv_color.h ****     if(color.full == 0)
ARM GAS  C:\Users\OSD\AppData\Local\Temp\cc5XjPm4.s 			page 25


 354:d:\kzc\stm32\h743ii_lcd\lvgl\src\misc\lv_color.h ****         return 0;
 355:d:\kzc\stm32\h743ii_lcd\lvgl\src\misc\lv_color.h ****     else
 356:d:\kzc\stm32\h743ii_lcd\lvgl\src\misc\lv_color.h ****         return 0xFFFF;
 357:d:\kzc\stm32\h743ii_lcd\lvgl\src\misc\lv_color.h **** #elif LV_COLOR_DEPTH == 8
 358:d:\kzc\stm32\h743ii_lcd\lvgl\src\misc\lv_color.h ****     lv_color16_t ret;
 359:d:\kzc\stm32\h743ii_lcd\lvgl\src\misc\lv_color.h ****     LV_COLOR_SET_R16(ret, LV_COLOR_GET_R(color) * 4);  /*(2^5 - 1)/(2^3 - 1) = 31/7 = 4*/
 360:d:\kzc\stm32\h743ii_lcd\lvgl\src\misc\lv_color.h ****     LV_COLOR_SET_G16(ret, LV_COLOR_GET_G(color) * 9);  /*(2^6 - 1)/(2^3 - 1) = 63/7 = 9*/
 361:d:\kzc\stm32\h743ii_lcd\lvgl\src\misc\lv_color.h ****     LV_COLOR_SET_B16(ret, LV_COLOR_GET_B(color) * 10); /*(2^5 - 1)/(2^2 - 1) = 31/3 = 10*/
 362:d:\kzc\stm32\h743ii_lcd\lvgl\src\misc\lv_color.h ****     return ret.full;
 363:d:\kzc\stm32\h743ii_lcd\lvgl\src\misc\lv_color.h **** #elif LV_COLOR_DEPTH == 16
 364:d:\kzc\stm32\h743ii_lcd\lvgl\src\misc\lv_color.h ****     return color.full;
 365:d:\kzc\stm32\h743ii_lcd\lvgl\src\misc\lv_color.h **** #elif LV_COLOR_DEPTH == 32
 366:d:\kzc\stm32\h743ii_lcd\lvgl\src\misc\lv_color.h ****     lv_color16_t ret;
 367:d:\kzc\stm32\h743ii_lcd\lvgl\src\misc\lv_color.h ****     LV_COLOR_SET_R16(ret, LV_COLOR_GET_R(color) >> 3); /*8 - 5  = 3*/
 368:d:\kzc\stm32\h743ii_lcd\lvgl\src\misc\lv_color.h ****     LV_COLOR_SET_G16(ret, LV_COLOR_GET_G(color) >> 2); /*8 - 6  = 2*/
 369:d:\kzc\stm32\h743ii_lcd\lvgl\src\misc\lv_color.h ****     LV_COLOR_SET_B16(ret, LV_COLOR_GET_B(color) >> 3); /*8 - 5  = 3*/
 370:d:\kzc\stm32\h743ii_lcd\lvgl\src\misc\lv_color.h ****     return ret.full;
 371:d:\kzc\stm32\h743ii_lcd\lvgl\src\misc\lv_color.h **** #endif
 372:d:\kzc\stm32\h743ii_lcd\lvgl\src\misc\lv_color.h **** }
 373:d:\kzc\stm32\h743ii_lcd\lvgl\src\misc\lv_color.h **** 
 374:d:\kzc\stm32\h743ii_lcd\lvgl\src\misc\lv_color.h **** static inline uint32_t lv_color_to32(lv_color_t color)
 375:d:\kzc\stm32\h743ii_lcd\lvgl\src\misc\lv_color.h **** {
 376:d:\kzc\stm32\h743ii_lcd\lvgl\src\misc\lv_color.h **** #if LV_COLOR_DEPTH == 1
 377:d:\kzc\stm32\h743ii_lcd\lvgl\src\misc\lv_color.h ****     if(color.full == 0)
 378:d:\kzc\stm32\h743ii_lcd\lvgl\src\misc\lv_color.h ****         return 0xFF000000;
 379:d:\kzc\stm32\h743ii_lcd\lvgl\src\misc\lv_color.h ****     else
 380:d:\kzc\stm32\h743ii_lcd\lvgl\src\misc\lv_color.h ****         return 0xFFFFFFFF;
 381:d:\kzc\stm32\h743ii_lcd\lvgl\src\misc\lv_color.h **** #elif LV_COLOR_DEPTH == 8
 382:d:\kzc\stm32\h743ii_lcd\lvgl\src\misc\lv_color.h ****     lv_color32_t ret;
 383:d:\kzc\stm32\h743ii_lcd\lvgl\src\misc\lv_color.h ****     LV_COLOR_SET_R32(ret, LV_COLOR_GET_R(color) * 36); /*(2^8 - 1)/(2^3 - 1) = 255/7 = 36*/
 384:d:\kzc\stm32\h743ii_lcd\lvgl\src\misc\lv_color.h ****     LV_COLOR_SET_G32(ret, LV_COLOR_GET_G(color) * 36); /*(2^8 - 1)/(2^3 - 1) = 255/7 = 36*/
 385:d:\kzc\stm32\h743ii_lcd\lvgl\src\misc\lv_color.h ****     LV_COLOR_SET_B32(ret, LV_COLOR_GET_B(color) * 85); /*(2^8 - 1)/(2^2 - 1) = 255/3 = 85*/
 386:d:\kzc\stm32\h743ii_lcd\lvgl\src\misc\lv_color.h ****     LV_COLOR_SET_A32(ret, 0xFF);
 387:d:\kzc\stm32\h743ii_lcd\lvgl\src\misc\lv_color.h ****     return ret.full;
 388:d:\kzc\stm32\h743ii_lcd\lvgl\src\misc\lv_color.h **** #elif LV_COLOR_DEPTH == 16
 389:d:\kzc\stm32\h743ii_lcd\lvgl\src\misc\lv_color.h ****     /**
 390:d:\kzc\stm32\h743ii_lcd\lvgl\src\misc\lv_color.h ****      * The floating point math for conversion is:
 391:d:\kzc\stm32\h743ii_lcd\lvgl\src\misc\lv_color.h ****      *  valueto = valuefrom * ( (2^bitsto - 1) / (float)(2^bitsfrom - 1) )
 392:d:\kzc\stm32\h743ii_lcd\lvgl\src\misc\lv_color.h ****      * The faster integer math for conversion is:
 393:d:\kzc\stm32\h743ii_lcd\lvgl\src\misc\lv_color.h ****      *  valueto = ( valuefrom * multiplier + adder ) >> divisor
 394:d:\kzc\stm32\h743ii_lcd\lvgl\src\misc\lv_color.h ****      *   multiplier = FLOOR( ( (2^bitsto - 1) << divisor ) / (float)(2^bitsfrom - 1) )
 395:d:\kzc\stm32\h743ii_lcd\lvgl\src\misc\lv_color.h ****      *
 396:d:\kzc\stm32\h743ii_lcd\lvgl\src\misc\lv_color.h ****      * Find the first divisor where ( adder >> divisor ) <= 0
 397:d:\kzc\stm32\h743ii_lcd\lvgl\src\misc\lv_color.h ****      *
 398:d:\kzc\stm32\h743ii_lcd\lvgl\src\misc\lv_color.h ****      * 5-bit to 8-bit: ( 31 * multiplier + adder ) >> divisor = 255
 399:d:\kzc\stm32\h743ii_lcd\lvgl\src\misc\lv_color.h ****      * divisor  multiplier  adder  min (0)  max (31)
 400:d:\kzc\stm32\h743ii_lcd\lvgl\src\misc\lv_color.h ****      *       0           8      7        7       255
 401:d:\kzc\stm32\h743ii_lcd\lvgl\src\misc\lv_color.h ****      *       1          16     14        7       255
 402:d:\kzc\stm32\h743ii_lcd\lvgl\src\misc\lv_color.h ****      *       2          32     28        7       255
 403:d:\kzc\stm32\h743ii_lcd\lvgl\src\misc\lv_color.h ****      *       3          65     25        3       255
 404:d:\kzc\stm32\h743ii_lcd\lvgl\src\misc\lv_color.h ****      *       4         131     19        1       255
 405:d:\kzc\stm32\h743ii_lcd\lvgl\src\misc\lv_color.h ****      *       5         263      7        0       255
 406:d:\kzc\stm32\h743ii_lcd\lvgl\src\misc\lv_color.h ****      *
 407:d:\kzc\stm32\h743ii_lcd\lvgl\src\misc\lv_color.h ****      * 6-bit to 8-bit: 255 = ( 63 * multiplier + adder ) >> divisor
 408:d:\kzc\stm32\h743ii_lcd\lvgl\src\misc\lv_color.h ****      * divisor  multiplier  adder  min (0)  max (63)
 409:d:\kzc\stm32\h743ii_lcd\lvgl\src\misc\lv_color.h ****      *       0           4      3        3       255
 410:d:\kzc\stm32\h743ii_lcd\lvgl\src\misc\lv_color.h ****      *       1           8      6        3       255
ARM GAS  C:\Users\OSD\AppData\Local\Temp\cc5XjPm4.s 			page 26


 411:d:\kzc\stm32\h743ii_lcd\lvgl\src\misc\lv_color.h ****      *       2          16     12        3       255
 412:d:\kzc\stm32\h743ii_lcd\lvgl\src\misc\lv_color.h ****      *       3          32     24        3       255
 413:d:\kzc\stm32\h743ii_lcd\lvgl\src\misc\lv_color.h ****      *       4          64     48        3       255
 414:d:\kzc\stm32\h743ii_lcd\lvgl\src\misc\lv_color.h ****      *       5         129     33        1       255
 415:d:\kzc\stm32\h743ii_lcd\lvgl\src\misc\lv_color.h ****      *       6         259      3        0       255
 416:d:\kzc\stm32\h743ii_lcd\lvgl\src\misc\lv_color.h ****      */
 417:d:\kzc\stm32\h743ii_lcd\lvgl\src\misc\lv_color.h **** 
 418:d:\kzc\stm32\h743ii_lcd\lvgl\src\misc\lv_color.h ****     lv_color32_t ret;
 419:d:\kzc\stm32\h743ii_lcd\lvgl\src\misc\lv_color.h ****     LV_COLOR_SET_R32(ret, (LV_COLOR_GET_R(color) * 263 + 7) >> 5);
 420:d:\kzc\stm32\h743ii_lcd\lvgl\src\misc\lv_color.h ****     LV_COLOR_SET_G32(ret, (LV_COLOR_GET_G(color) * 259 + 3) >> 6);
 421:d:\kzc\stm32\h743ii_lcd\lvgl\src\misc\lv_color.h ****     LV_COLOR_SET_B32(ret, (LV_COLOR_GET_B(color) * 263 + 7) >> 5);
 422:d:\kzc\stm32\h743ii_lcd\lvgl\src\misc\lv_color.h ****     LV_COLOR_SET_A32(ret, 0xFF);
 423:d:\kzc\stm32\h743ii_lcd\lvgl\src\misc\lv_color.h ****     return ret.full;
 424:d:\kzc\stm32\h743ii_lcd\lvgl\src\misc\lv_color.h **** #elif LV_COLOR_DEPTH == 32
 425:d:\kzc\stm32\h743ii_lcd\lvgl\src\misc\lv_color.h ****     return color.full;
 426:d:\kzc\stm32\h743ii_lcd\lvgl\src\misc\lv_color.h **** #endif
 427:d:\kzc\stm32\h743ii_lcd\lvgl\src\misc\lv_color.h **** }
 428:d:\kzc\stm32\h743ii_lcd\lvgl\src\misc\lv_color.h **** 
 429:d:\kzc\stm32\h743ii_lcd\lvgl\src\misc\lv_color.h **** //! @cond Doxygen_Suppress
 430:d:\kzc\stm32\h743ii_lcd\lvgl\src\misc\lv_color.h **** 
 431:d:\kzc\stm32\h743ii_lcd\lvgl\src\misc\lv_color.h **** /**
 432:d:\kzc\stm32\h743ii_lcd\lvgl\src\misc\lv_color.h ****  * Mix two colors with a given ratio.
 433:d:\kzc\stm32\h743ii_lcd\lvgl\src\misc\lv_color.h ****  * @param c1 the first color to mix (usually the foreground)
 434:d:\kzc\stm32\h743ii_lcd\lvgl\src\misc\lv_color.h ****  * @param c2 the second color to mix (usually the background)
 435:d:\kzc\stm32\h743ii_lcd\lvgl\src\misc\lv_color.h ****  * @param mix The ratio of the colors. 0: full `c2`, 255: full `c1`, 127: half `c1` and half`c2`
 436:d:\kzc\stm32\h743ii_lcd\lvgl\src\misc\lv_color.h ****  * @return the mixed color
 437:d:\kzc\stm32\h743ii_lcd\lvgl\src\misc\lv_color.h ****  */
 438:d:\kzc\stm32\h743ii_lcd\lvgl\src\misc\lv_color.h **** static inline lv_color_t LV_ATTRIBUTE_FAST_MEM lv_color_mix(lv_color_t c1, lv_color_t c2, uint8_t m
 439:d:\kzc\stm32\h743ii_lcd\lvgl\src\misc\lv_color.h **** {
 440:d:\kzc\stm32\h743ii_lcd\lvgl\src\misc\lv_color.h ****     lv_color_t ret;
 441:d:\kzc\stm32\h743ii_lcd\lvgl\src\misc\lv_color.h **** 
 442:d:\kzc\stm32\h743ii_lcd\lvgl\src\misc\lv_color.h **** #if LV_COLOR_DEPTH == 16 && LV_COLOR_MIX_ROUND_OFS == 0
 443:d:\kzc\stm32\h743ii_lcd\lvgl\src\misc\lv_color.h **** #if LV_COLOR_16_SWAP == 1
 444:d:\kzc\stm32\h743ii_lcd\lvgl\src\misc\lv_color.h ****     c1.full = c1.full << 8 | c1.full >> 8;
 445:d:\kzc\stm32\h743ii_lcd\lvgl\src\misc\lv_color.h ****     c2.full = c2.full << 8 | c2.full >> 8;
 446:d:\kzc\stm32\h743ii_lcd\lvgl\src\misc\lv_color.h **** #endif
 447:d:\kzc\stm32\h743ii_lcd\lvgl\src\misc\lv_color.h ****     /*Source: https://stackoverflow.com/a/50012418/1999969*/
 448:d:\kzc\stm32\h743ii_lcd\lvgl\src\misc\lv_color.h ****     mix = (uint32_t)((uint32_t)mix + 4) >> 3;
 449:d:\kzc\stm32\h743ii_lcd\lvgl\src\misc\lv_color.h ****     uint32_t bg = (uint32_t)((uint32_t)c2.full | ((uint32_t)c2.full << 16)) &
 450:d:\kzc\stm32\h743ii_lcd\lvgl\src\misc\lv_color.h ****                   0x7E0F81F; /*0b00000111111000001111100000011111*/
 451:d:\kzc\stm32\h743ii_lcd\lvgl\src\misc\lv_color.h ****     uint32_t fg = (uint32_t)((uint32_t)c1.full | ((uint32_t)c1.full << 16)) & 0x7E0F81F;
 452:d:\kzc\stm32\h743ii_lcd\lvgl\src\misc\lv_color.h ****     uint32_t result = ((((fg - bg) * mix) >> 5) + bg) & 0x7E0F81F;
 453:d:\kzc\stm32\h743ii_lcd\lvgl\src\misc\lv_color.h ****     ret.full = (uint16_t)((result >> 16) | result);
 454:d:\kzc\stm32\h743ii_lcd\lvgl\src\misc\lv_color.h **** #if LV_COLOR_16_SWAP == 1
 455:d:\kzc\stm32\h743ii_lcd\lvgl\src\misc\lv_color.h ****     ret.full = ret.full << 8 | ret.full >> 8;
 456:d:\kzc\stm32\h743ii_lcd\lvgl\src\misc\lv_color.h **** #endif
 457:d:\kzc\stm32\h743ii_lcd\lvgl\src\misc\lv_color.h **** #elif LV_COLOR_DEPTH != 1
 458:d:\kzc\stm32\h743ii_lcd\lvgl\src\misc\lv_color.h ****     /*LV_COLOR_DEPTH == 8, 16 or 32*/
 459:d:\kzc\stm32\h743ii_lcd\lvgl\src\misc\lv_color.h ****     LV_COLOR_SET_R(ret, LV_UDIV255((uint16_t)LV_COLOR_GET_R(c1) * mix + LV_COLOR_GET_R(c2) *
 460:d:\kzc\stm32\h743ii_lcd\lvgl\src\misc\lv_color.h ****                                    (255 - mix) + LV_COLOR_MIX_ROUND_OFS));
 461:d:\kzc\stm32\h743ii_lcd\lvgl\src\misc\lv_color.h ****     LV_COLOR_SET_G(ret, LV_UDIV255((uint16_t)LV_COLOR_GET_G(c1) * mix + LV_COLOR_GET_G(c2) *
 462:d:\kzc\stm32\h743ii_lcd\lvgl\src\misc\lv_color.h ****                                    (255 - mix) + LV_COLOR_MIX_ROUND_OFS));
 463:d:\kzc\stm32\h743ii_lcd\lvgl\src\misc\lv_color.h ****     LV_COLOR_SET_B(ret, LV_UDIV255((uint16_t)LV_COLOR_GET_B(c1) * mix + LV_COLOR_GET_B(c2) *
 464:d:\kzc\stm32\h743ii_lcd\lvgl\src\misc\lv_color.h ****                                    (255 - mix) + LV_COLOR_MIX_ROUND_OFS));
 465:d:\kzc\stm32\h743ii_lcd\lvgl\src\misc\lv_color.h ****     LV_COLOR_SET_A(ret, 0xFF);
 466:d:\kzc\stm32\h743ii_lcd\lvgl\src\misc\lv_color.h **** #else
 467:d:\kzc\stm32\h743ii_lcd\lvgl\src\misc\lv_color.h ****     /*LV_COLOR_DEPTH == 1*/
ARM GAS  C:\Users\OSD\AppData\Local\Temp\cc5XjPm4.s 			page 27


 468:d:\kzc\stm32\h743ii_lcd\lvgl\src\misc\lv_color.h ****     ret.full = mix > LV_OPA_50 ? c1.full : c2.full;
 469:d:\kzc\stm32\h743ii_lcd\lvgl\src\misc\lv_color.h **** #endif
 470:d:\kzc\stm32\h743ii_lcd\lvgl\src\misc\lv_color.h **** 
 471:d:\kzc\stm32\h743ii_lcd\lvgl\src\misc\lv_color.h ****     return ret;
 472:d:\kzc\stm32\h743ii_lcd\lvgl\src\misc\lv_color.h **** }
 473:d:\kzc\stm32\h743ii_lcd\lvgl\src\misc\lv_color.h **** 
 474:d:\kzc\stm32\h743ii_lcd\lvgl\src\misc\lv_color.h **** static inline void LV_ATTRIBUTE_FAST_MEM lv_color_premult(lv_color_t c, uint8_t mix, uint16_t * out
 475:d:\kzc\stm32\h743ii_lcd\lvgl\src\misc\lv_color.h **** {
 476:d:\kzc\stm32\h743ii_lcd\lvgl\src\misc\lv_color.h **** #if LV_COLOR_DEPTH != 1
 477:d:\kzc\stm32\h743ii_lcd\lvgl\src\misc\lv_color.h ****     out[0] = (uint16_t)LV_COLOR_GET_R(c) * mix;
 478:d:\kzc\stm32\h743ii_lcd\lvgl\src\misc\lv_color.h ****     out[1] = (uint16_t)LV_COLOR_GET_G(c) * mix;
 479:d:\kzc\stm32\h743ii_lcd\lvgl\src\misc\lv_color.h ****     out[2] = (uint16_t)LV_COLOR_GET_B(c) * mix;
 480:d:\kzc\stm32\h743ii_lcd\lvgl\src\misc\lv_color.h **** #else
 481:d:\kzc\stm32\h743ii_lcd\lvgl\src\misc\lv_color.h ****     (void) mix;
 482:d:\kzc\stm32\h743ii_lcd\lvgl\src\misc\lv_color.h ****     /*Pre-multiplication can't be used with 1 bpp*/
 483:d:\kzc\stm32\h743ii_lcd\lvgl\src\misc\lv_color.h ****     out[0] = LV_COLOR_GET_R(c);
 484:d:\kzc\stm32\h743ii_lcd\lvgl\src\misc\lv_color.h ****     out[1] = LV_COLOR_GET_G(c);
 485:d:\kzc\stm32\h743ii_lcd\lvgl\src\misc\lv_color.h ****     out[2] = LV_COLOR_GET_B(c);
 486:d:\kzc\stm32\h743ii_lcd\lvgl\src\misc\lv_color.h **** #endif
 487:d:\kzc\stm32\h743ii_lcd\lvgl\src\misc\lv_color.h **** 
 488:d:\kzc\stm32\h743ii_lcd\lvgl\src\misc\lv_color.h **** }
 489:d:\kzc\stm32\h743ii_lcd\lvgl\src\misc\lv_color.h **** 
 490:d:\kzc\stm32\h743ii_lcd\lvgl\src\misc\lv_color.h **** /**
 491:d:\kzc\stm32\h743ii_lcd\lvgl\src\misc\lv_color.h ****  * Mix two colors with a given ratio. It runs faster then `lv_color_mix` but requires some pre comp
 492:d:\kzc\stm32\h743ii_lcd\lvgl\src\misc\lv_color.h ****  * @param premult_c1 The first color. Should be preprocessed with `lv_color_premult(c1)`
 493:d:\kzc\stm32\h743ii_lcd\lvgl\src\misc\lv_color.h ****  * @param c2 The second color. As it is no pre computation required on it
 494:d:\kzc\stm32\h743ii_lcd\lvgl\src\misc\lv_color.h ****  * @param mix The ratio of the colors. 0: full `c1`, 255: full `c2`, 127: half `c1` and half `c2`.
 495:d:\kzc\stm32\h743ii_lcd\lvgl\src\misc\lv_color.h ****  *            Should be modified like mix = `255 - mix`
 496:d:\kzc\stm32\h743ii_lcd\lvgl\src\misc\lv_color.h ****  * @return the mixed color
 497:d:\kzc\stm32\h743ii_lcd\lvgl\src\misc\lv_color.h ****  * @note 255 won't give clearly `c1`.
 498:d:\kzc\stm32\h743ii_lcd\lvgl\src\misc\lv_color.h ****  */
 499:d:\kzc\stm32\h743ii_lcd\lvgl\src\misc\lv_color.h **** static inline lv_color_t LV_ATTRIBUTE_FAST_MEM lv_color_mix_premult(uint16_t * premult_c1, lv_color
 500:d:\kzc\stm32\h743ii_lcd\lvgl\src\misc\lv_color.h **** {
 501:d:\kzc\stm32\h743ii_lcd\lvgl\src\misc\lv_color.h ****     lv_color_t ret;
 502:d:\kzc\stm32\h743ii_lcd\lvgl\src\misc\lv_color.h **** #if LV_COLOR_DEPTH != 1
 503:d:\kzc\stm32\h743ii_lcd\lvgl\src\misc\lv_color.h ****     /*LV_COLOR_DEPTH == 8 or 32*/
 504:d:\kzc\stm32\h743ii_lcd\lvgl\src\misc\lv_color.h ****     LV_COLOR_SET_R(ret, LV_UDIV255(premult_c1[0] + LV_COLOR_GET_R(c2) * mix + LV_COLOR_MIX_ROUND_OF
 505:d:\kzc\stm32\h743ii_lcd\lvgl\src\misc\lv_color.h ****     LV_COLOR_SET_G(ret, LV_UDIV255(premult_c1[1] + LV_COLOR_GET_G(c2) * mix + LV_COLOR_MIX_ROUND_OF
 506:d:\kzc\stm32\h743ii_lcd\lvgl\src\misc\lv_color.h ****     LV_COLOR_SET_B(ret, LV_UDIV255(premult_c1[2] + LV_COLOR_GET_B(c2) * mix + LV_COLOR_MIX_ROUND_OF
 507:d:\kzc\stm32\h743ii_lcd\lvgl\src\misc\lv_color.h ****     LV_COLOR_SET_A(ret, 0xFF);
 508:d:\kzc\stm32\h743ii_lcd\lvgl\src\misc\lv_color.h **** #else
 509:d:\kzc\stm32\h743ii_lcd\lvgl\src\misc\lv_color.h ****     /*LV_COLOR_DEPTH == 1*/
 510:d:\kzc\stm32\h743ii_lcd\lvgl\src\misc\lv_color.h ****     /*Restore color1*/
 511:d:\kzc\stm32\h743ii_lcd\lvgl\src\misc\lv_color.h ****     lv_color_t c1;
 512:d:\kzc\stm32\h743ii_lcd\lvgl\src\misc\lv_color.h ****     LV_COLOR_SET_R(c1, premult_c1[0]);
 513:d:\kzc\stm32\h743ii_lcd\lvgl\src\misc\lv_color.h ****     LV_COLOR_SET_G(c1, premult_c1[1]);
 514:d:\kzc\stm32\h743ii_lcd\lvgl\src\misc\lv_color.h ****     LV_COLOR_SET_B(c1, premult_c1[2]);
 515:d:\kzc\stm32\h743ii_lcd\lvgl\src\misc\lv_color.h ****     ret.full = mix > LV_OPA_50 ? c2.full : c1.full;
 516:d:\kzc\stm32\h743ii_lcd\lvgl\src\misc\lv_color.h **** #endif
 517:d:\kzc\stm32\h743ii_lcd\lvgl\src\misc\lv_color.h **** 
 518:d:\kzc\stm32\h743ii_lcd\lvgl\src\misc\lv_color.h ****     return ret;
 519:d:\kzc\stm32\h743ii_lcd\lvgl\src\misc\lv_color.h **** }
 520:d:\kzc\stm32\h743ii_lcd\lvgl\src\misc\lv_color.h **** 
 521:d:\kzc\stm32\h743ii_lcd\lvgl\src\misc\lv_color.h **** /**
 522:d:\kzc\stm32\h743ii_lcd\lvgl\src\misc\lv_color.h ****  * Mix two colors. Both color can have alpha value.
 523:d:\kzc\stm32\h743ii_lcd\lvgl\src\misc\lv_color.h ****  * @param bg_color background color
 524:d:\kzc\stm32\h743ii_lcd\lvgl\src\misc\lv_color.h ****  * @param bg_opa alpha of the background color
ARM GAS  C:\Users\OSD\AppData\Local\Temp\cc5XjPm4.s 			page 28


 525:d:\kzc\stm32\h743ii_lcd\lvgl\src\misc\lv_color.h ****  * @param fg_color foreground color
 526:d:\kzc\stm32\h743ii_lcd\lvgl\src\misc\lv_color.h ****  * @param fg_opa alpha of the foreground color
 527:d:\kzc\stm32\h743ii_lcd\lvgl\src\misc\lv_color.h ****  * @param res_color the result color
 528:d:\kzc\stm32\h743ii_lcd\lvgl\src\misc\lv_color.h ****  * @param res_opa the result opacity
 529:d:\kzc\stm32\h743ii_lcd\lvgl\src\misc\lv_color.h ****  */
 530:d:\kzc\stm32\h743ii_lcd\lvgl\src\misc\lv_color.h **** static inline void LV_ATTRIBUTE_FAST_MEM lv_color_mix_with_alpha(lv_color_t bg_color, lv_opa_t bg_o
 531:d:\kzc\stm32\h743ii_lcd\lvgl\src\misc\lv_color.h ****                                                                  lv_color_t fg_color, lv_opa_t fg_o
 532:d:\kzc\stm32\h743ii_lcd\lvgl\src\misc\lv_color.h ****                                                                  lv_color_t * res_color, lv_opa_t *
 533:d:\kzc\stm32\h743ii_lcd\lvgl\src\misc\lv_color.h **** {
 534:d:\kzc\stm32\h743ii_lcd\lvgl\src\misc\lv_color.h ****     /*Pick the foreground if it's fully opaque or the Background is fully transparent*/
 535:d:\kzc\stm32\h743ii_lcd\lvgl\src\misc\lv_color.h ****     if(fg_opa >= LV_OPA_MAX || bg_opa <= LV_OPA_MIN) {
 536:d:\kzc\stm32\h743ii_lcd\lvgl\src\misc\lv_color.h ****         res_color->full = fg_color.full;
 537:d:\kzc\stm32\h743ii_lcd\lvgl\src\misc\lv_color.h ****         *res_opa = fg_opa;
 538:d:\kzc\stm32\h743ii_lcd\lvgl\src\misc\lv_color.h ****     }
 539:d:\kzc\stm32\h743ii_lcd\lvgl\src\misc\lv_color.h ****     /*Transparent foreground: use the Background*/
 540:d:\kzc\stm32\h743ii_lcd\lvgl\src\misc\lv_color.h ****     else if(fg_opa <= LV_OPA_MIN) {
 541:d:\kzc\stm32\h743ii_lcd\lvgl\src\misc\lv_color.h ****         res_color->full = bg_color.full;
 542:d:\kzc\stm32\h743ii_lcd\lvgl\src\misc\lv_color.h ****         *res_opa = bg_opa;
 543:d:\kzc\stm32\h743ii_lcd\lvgl\src\misc\lv_color.h ****     }
 544:d:\kzc\stm32\h743ii_lcd\lvgl\src\misc\lv_color.h ****     /*Opaque background: use simple mix*/
 545:d:\kzc\stm32\h743ii_lcd\lvgl\src\misc\lv_color.h ****     else if(bg_opa >= LV_OPA_MAX) {
 546:d:\kzc\stm32\h743ii_lcd\lvgl\src\misc\lv_color.h ****         *res_color = lv_color_mix(fg_color, bg_color, fg_opa);
 547:d:\kzc\stm32\h743ii_lcd\lvgl\src\misc\lv_color.h ****         *res_opa = LV_OPA_COVER;
 548:d:\kzc\stm32\h743ii_lcd\lvgl\src\misc\lv_color.h ****     }
 549:d:\kzc\stm32\h743ii_lcd\lvgl\src\misc\lv_color.h ****     /*Both colors have alpha. Expensive calculation need to be applied*/
 550:d:\kzc\stm32\h743ii_lcd\lvgl\src\misc\lv_color.h ****     else {
 551:d:\kzc\stm32\h743ii_lcd\lvgl\src\misc\lv_color.h ****         /*Save the parameters and the result. If they will be asked again don't compute again*/
 552:d:\kzc\stm32\h743ii_lcd\lvgl\src\misc\lv_color.h ****         static lv_opa_t fg_opa_save     = 0;
 553:d:\kzc\stm32\h743ii_lcd\lvgl\src\misc\lv_color.h ****         static lv_opa_t bg_opa_save     = 0;
 554:d:\kzc\stm32\h743ii_lcd\lvgl\src\misc\lv_color.h ****         static lv_color_t fg_color_save = _LV_COLOR_ZERO_INITIALIZER;
 555:d:\kzc\stm32\h743ii_lcd\lvgl\src\misc\lv_color.h ****         static lv_color_t bg_color_save = _LV_COLOR_ZERO_INITIALIZER;
 556:d:\kzc\stm32\h743ii_lcd\lvgl\src\misc\lv_color.h ****         static lv_color_t res_color_saved = _LV_COLOR_ZERO_INITIALIZER;
 557:d:\kzc\stm32\h743ii_lcd\lvgl\src\misc\lv_color.h ****         static lv_opa_t res_opa_saved = 0;
 558:d:\kzc\stm32\h743ii_lcd\lvgl\src\misc\lv_color.h **** 
 559:d:\kzc\stm32\h743ii_lcd\lvgl\src\misc\lv_color.h ****         if(fg_opa != fg_opa_save || bg_opa != bg_opa_save || fg_color.full != fg_color_save.full ||
 560:d:\kzc\stm32\h743ii_lcd\lvgl\src\misc\lv_color.h ****            bg_color.full != bg_color_save.full) {
 561:d:\kzc\stm32\h743ii_lcd\lvgl\src\misc\lv_color.h ****             fg_opa_save        = fg_opa;
 562:d:\kzc\stm32\h743ii_lcd\lvgl\src\misc\lv_color.h ****             bg_opa_save        = bg_opa;
 563:d:\kzc\stm32\h743ii_lcd\lvgl\src\misc\lv_color.h ****             fg_color_save.full = fg_color.full;
 564:d:\kzc\stm32\h743ii_lcd\lvgl\src\misc\lv_color.h ****             bg_color_save.full = bg_color.full;
 565:d:\kzc\stm32\h743ii_lcd\lvgl\src\misc\lv_color.h ****             /*Info:
 566:d:\kzc\stm32\h743ii_lcd\lvgl\src\misc\lv_color.h ****              * https://en.wikipedia.org/wiki/Alpha_compositing#Analytical_derivation_of_the_over_op
 567:d:\kzc\stm32\h743ii_lcd\lvgl\src\misc\lv_color.h ****             res_opa_saved = 255 - ((uint16_t)((uint16_t)(255 - fg_opa) * (255 - bg_opa)) >> 8);
 568:d:\kzc\stm32\h743ii_lcd\lvgl\src\misc\lv_color.h ****             LV_ASSERT(res_opa_saved != 0);
 569:d:\kzc\stm32\h743ii_lcd\lvgl\src\misc\lv_color.h ****             lv_opa_t ratio = (uint16_t)((uint16_t)fg_opa * 255) / res_opa_saved;
 570:d:\kzc\stm32\h743ii_lcd\lvgl\src\misc\lv_color.h ****             res_color_saved = lv_color_mix(fg_color, bg_color, ratio);
 571:d:\kzc\stm32\h743ii_lcd\lvgl\src\misc\lv_color.h **** 
 572:d:\kzc\stm32\h743ii_lcd\lvgl\src\misc\lv_color.h ****         }
 573:d:\kzc\stm32\h743ii_lcd\lvgl\src\misc\lv_color.h **** 
 574:d:\kzc\stm32\h743ii_lcd\lvgl\src\misc\lv_color.h ****         res_color->full = res_color_saved.full;
 575:d:\kzc\stm32\h743ii_lcd\lvgl\src\misc\lv_color.h ****         *res_opa = res_opa_saved;
 576:d:\kzc\stm32\h743ii_lcd\lvgl\src\misc\lv_color.h ****     }
 577:d:\kzc\stm32\h743ii_lcd\lvgl\src\misc\lv_color.h **** }
 578:d:\kzc\stm32\h743ii_lcd\lvgl\src\misc\lv_color.h **** 
 579:d:\kzc\stm32\h743ii_lcd\lvgl\src\misc\lv_color.h **** //! @endcond
 580:d:\kzc\stm32\h743ii_lcd\lvgl\src\misc\lv_color.h **** 
 581:d:\kzc\stm32\h743ii_lcd\lvgl\src\misc\lv_color.h **** /**
ARM GAS  C:\Users\OSD\AppData\Local\Temp\cc5XjPm4.s 			page 29


 582:d:\kzc\stm32\h743ii_lcd\lvgl\src\misc\lv_color.h ****  * Get the brightness of a color
 583:d:\kzc\stm32\h743ii_lcd\lvgl\src\misc\lv_color.h ****  * @param color a color
 584:d:\kzc\stm32\h743ii_lcd\lvgl\src\misc\lv_color.h ****  * @return the brightness [0..255]
 585:d:\kzc\stm32\h743ii_lcd\lvgl\src\misc\lv_color.h ****  */
 586:d:\kzc\stm32\h743ii_lcd\lvgl\src\misc\lv_color.h **** static inline uint8_t lv_color_brightness(lv_color_t color)
 587:d:\kzc\stm32\h743ii_lcd\lvgl\src\misc\lv_color.h **** {
 588:d:\kzc\stm32\h743ii_lcd\lvgl\src\misc\lv_color.h ****     lv_color32_t c32;
 589:d:\kzc\stm32\h743ii_lcd\lvgl\src\misc\lv_color.h ****     c32.full        = lv_color_to32(color);
 590:d:\kzc\stm32\h743ii_lcd\lvgl\src\misc\lv_color.h ****     uint16_t bright = (uint16_t)(3u * LV_COLOR_GET_R32(c32) + LV_COLOR_GET_B32(c32) + 4u * LV_COLOR
 591:d:\kzc\stm32\h743ii_lcd\lvgl\src\misc\lv_color.h ****     return (uint8_t)(bright >> 3);
 592:d:\kzc\stm32\h743ii_lcd\lvgl\src\misc\lv_color.h **** }
 593:d:\kzc\stm32\h743ii_lcd\lvgl\src\misc\lv_color.h **** 
 594:d:\kzc\stm32\h743ii_lcd\lvgl\src\misc\lv_color.h **** static inline lv_color_t lv_color_make(uint8_t r, uint8_t g, uint8_t b)
 322              		.loc 2 594 26 is_stmt 1 view .LVU105
 323              	.LBB53:
 595:d:\kzc\stm32\h743ii_lcd\lvgl\src\misc\lv_color.h **** {
 596:d:\kzc\stm32\h743ii_lcd\lvgl\src\misc\lv_color.h ****     return _LV_COLOR_MAKE_TYPE_HELPER LV_COLOR_MAKE(r, g, b);
 324              		.loc 2 596 5 view .LVU106
 325              		.loc 2 596 12 is_stmt 0 view .LVU107
 326 00a8 0020     		movs	r0, #0
 327 00aa 61F30700 		bfi	r0, r1, #0, #8
 328 00ae 62F30F20 		bfi	r0, r2, #8, #8
 329 00b2 63F31740 		bfi	r0, r3, #16, #8
 330              	.LVL32:
 331              		.loc 2 596 12 view .LVU108
 332              	.LBE53:
 333              	.LBE52:
 689:lvgl/src/extra/widgets/colorwheel/lv_colorwheel.c **** }
 334              		.loc 1 689 1 view .LVU109
 335 00b6 40F07F40 		orr	r0, r0, #-16777216
 336 00ba 04B0     		add	sp, sp, #16
 337              		.cfi_remember_state
 338              		.cfi_def_cfa_offset 8
 339              		@ sp needed
 340 00bc 10BD     		pop	{r4, pc}
 341              	.LVL33:
 342              	.L15:
 343              		.cfi_restore_state
 671:lvgl/src/extra/widgets/colorwheel/lv_colorwheel.c ****                 h = (uint16_t)(((uint32_t)ext->hsv.h * 6 * 256) / 360);
 344              		.loc 1 671 13 is_stmt 1 view .LVU110
 671:lvgl/src/extra/widgets/colorwheel/lv_colorwheel.c ****                 h = (uint16_t)(((uint32_t)ext->hsv.h * 6 * 256) / 360);
 345              		.loc 1 671 18 is_stmt 0 view .LVU111
 346 00be 2F4C     		ldr	r4, .L22+4
 347 00c0 2478     		ldrb	r4, [r4]	@ zero_extendqisi2
 671:lvgl/src/extra/widgets/colorwheel/lv_colorwheel.c ****                 h = (uint16_t)(((uint32_t)ext->hsv.h * 6 * 256) / 360);
 348              		.loc 1 671 15 view .LVU112
 349 00c2 A342     		cmp	r3, r4
 350 00c4 19D0     		beq	.L19
 672:lvgl/src/extra/widgets/colorwheel/lv_colorwheel.c ****                 v = (uint8_t)(((uint16_t)ext->hsv.v * 51) / 20);
 351              		.loc 1 672 17 is_stmt 1 view .LVU113
 672:lvgl/src/extra/widgets/colorwheel/lv_colorwheel.c ****                 v = (uint8_t)(((uint16_t)ext->hsv.v * 51) / 20);
 352              		.loc 1 672 51 is_stmt 0 view .LVU114
 353 00c6 838C     		ldrh	r3, [r0, #36]
 672:lvgl/src/extra/widgets/colorwheel/lv_colorwheel.c ****                 v = (uint8_t)(((uint16_t)ext->hsv.v * 51) / 20);
 354              		.loc 1 672 58 view .LVU115
 355 00c8 03EB4303 		add	r3, r3, r3, lsl #1
 672:lvgl/src/extra/widgets/colorwheel/lv_colorwheel.c ****                 v = (uint8_t)(((uint16_t)ext->hsv.v * 51) / 20);
ARM GAS  C:\Users\OSD\AppData\Local\Temp\cc5XjPm4.s 			page 30


 356              		.loc 1 672 65 view .LVU116
 357 00cc 9B01     		lsls	r3, r3, #6
 358 00ce 2F4C     		ldr	r4, .L22+20
 359 00d0 A4FB0343 		umull	r4, r3, r4, r3
 672:lvgl/src/extra/widgets/colorwheel/lv_colorwheel.c ****                 v = (uint8_t)(((uint16_t)ext->hsv.v * 51) / 20);
 360              		.loc 1 672 21 view .LVU117
 361 00d4 C3F38F03 		ubfx	r3, r3, #2, #16
 672:lvgl/src/extra/widgets/colorwheel/lv_colorwheel.c ****                 v = (uint8_t)(((uint16_t)ext->hsv.v * 51) / 20);
 362              		.loc 1 672 19 view .LVU118
 363 00d8 2D4C     		ldr	r4, .L22+24
 364 00da 2380     		strh	r3, [r4]	@ movhi
 673:lvgl/src/extra/widgets/colorwheel/lv_colorwheel.c ****                 m = ext->mode;
 365              		.loc 1 673 17 is_stmt 1 view .LVU119
 673:lvgl/src/extra/widgets/colorwheel/lv_colorwheel.c ****                 m = ext->mode;
 366              		.loc 1 673 50 is_stmt 0 view .LVU120
 367 00dc 90F82730 		ldrb	r3, [r0, #39]	@ zero_extendqisi2
 673:lvgl/src/extra/widgets/colorwheel/lv_colorwheel.c ****                 m = ext->mode;
 368              		.loc 1 673 53 view .LVU121
 369 00e0 03EB4303 		add	r3, r3, r3, lsl #1
 370 00e4 03EB0313 		add	r3, r3, r3, lsl #4
 673:lvgl/src/extra/widgets/colorwheel/lv_colorwheel.c ****                 m = ext->mode;
 371              		.loc 1 673 59 view .LVU122
 372 00e8 2548     		ldr	r0, .L22+8
 373              	.LVL34:
 673:lvgl/src/extra/widgets/colorwheel/lv_colorwheel.c ****                 m = ext->mode;
 374              		.loc 1 673 59 view .LVU123
 375 00ea 80FB0303 		smull	r0, r3, r0, r3
 673:lvgl/src/extra/widgets/colorwheel/lv_colorwheel.c ****                 m = ext->mode;
 376              		.loc 1 673 21 view .LVU124
 377 00ee C3F3C703 		ubfx	r3, r3, #3, #8
 673:lvgl/src/extra/widgets/colorwheel/lv_colorwheel.c ****                 m = ext->mode;
 378              		.loc 1 673 19 view .LVU125
 379 00f2 2548     		ldr	r0, .L22+16
 380 00f4 0370     		strb	r3, [r0]
 674:lvgl/src/extra/widgets/colorwheel/lv_colorwheel.c ****             }
 381              		.loc 1 674 17 is_stmt 1 view .LVU126
 674:lvgl/src/extra/widgets/colorwheel/lv_colorwheel.c ****             }
 382              		.loc 1 674 19 is_stmt 0 view .LVU127
 383 00f6 214B     		ldr	r3, .L22+4
 384 00f8 1A70     		strb	r2, [r3]
 385              	.L19:
 676:lvgl/src/extra/widgets/colorwheel/lv_colorwheel.c ****             break;
 386              		.loc 1 676 13 is_stmt 1 view .LVU128
 387 00fa 0DF10D03 		add	r3, sp, #13
 388 00fe 0193     		str	r3, [sp, #4]
 389 0100 0DF10E03 		add	r3, sp, #14
 390 0104 0093     		str	r3, [sp]
 391 0106 0DF10F03 		add	r3, sp, #15
 392 010a 1F4A     		ldr	r2, .L22+16
 393 010c 1278     		ldrb	r2, [r2]	@ zero_extendqisi2
 394 010e C9B2     		uxtb	r1, r1
 395              	.LVL35:
 676:lvgl/src/extra/widgets/colorwheel/lv_colorwheel.c ****             break;
 396              		.loc 1 676 13 is_stmt 0 view .LVU129
 397 0110 1F48     		ldr	r0, .L22+24
 398 0112 0088     		ldrh	r0, [r0]
 399 0114 FFF7FEFF 		bl	fast_hsv2rgb
ARM GAS  C:\Users\OSD\AppData\Local\Temp\cc5XjPm4.s 			page 31


 400              	.LVL36:
 677:lvgl/src/extra/widgets/colorwheel/lv_colorwheel.c ****         case LV_COLORWHEEL_MODE_VALUE:
 401              		.loc 1 677 13 is_stmt 1 view .LVU130
 402 0118 C0E7     		b	.L18
 403              	.LVL37:
 404              	.L16:
 680:lvgl/src/extra/widgets/colorwheel/lv_colorwheel.c ****                 h = (uint16_t)(((uint32_t)ext->hsv.h * 6 * 256) / 360);
 405              		.loc 1 680 13 view .LVU131
 680:lvgl/src/extra/widgets/colorwheel/lv_colorwheel.c ****                 h = (uint16_t)(((uint32_t)ext->hsv.h * 6 * 256) / 360);
 406              		.loc 1 680 18 is_stmt 0 view .LVU132
 407 011a 184C     		ldr	r4, .L22+4
 408 011c 94F800C0 		ldrb	ip, [r4]	@ zero_extendqisi2
 680:lvgl/src/extra/widgets/colorwheel/lv_colorwheel.c ****                 h = (uint16_t)(((uint32_t)ext->hsv.h * 6 * 256) / 360);
 409              		.loc 1 680 15 view .LVU133
 410 0120 6345     		cmp	r3, ip
 411 0122 19D0     		beq	.L20
 681:lvgl/src/extra/widgets/colorwheel/lv_colorwheel.c ****                 s = (uint8_t)(((uint16_t)ext->hsv.s * 51) / 20);
 412              		.loc 1 681 17 is_stmt 1 view .LVU134
 681:lvgl/src/extra/widgets/colorwheel/lv_colorwheel.c ****                 s = (uint8_t)(((uint16_t)ext->hsv.s * 51) / 20);
 413              		.loc 1 681 51 is_stmt 0 view .LVU135
 414 0124 838C     		ldrh	r3, [r0, #36]
 681:lvgl/src/extra/widgets/colorwheel/lv_colorwheel.c ****                 s = (uint8_t)(((uint16_t)ext->hsv.s * 51) / 20);
 415              		.loc 1 681 58 view .LVU136
 416 0126 03EB4303 		add	r3, r3, r3, lsl #1
 681:lvgl/src/extra/widgets/colorwheel/lv_colorwheel.c ****                 s = (uint8_t)(((uint16_t)ext->hsv.s * 51) / 20);
 417              		.loc 1 681 65 view .LVU137
 418 012a 9B01     		lsls	r3, r3, #6
 419 012c 174C     		ldr	r4, .L22+20
 420 012e A4FB0343 		umull	r4, r3, r4, r3
 681:lvgl/src/extra/widgets/colorwheel/lv_colorwheel.c ****                 s = (uint8_t)(((uint16_t)ext->hsv.s * 51) / 20);
 421              		.loc 1 681 21 view .LVU138
 422 0132 C3F38F03 		ubfx	r3, r3, #2, #16
 681:lvgl/src/extra/widgets/colorwheel/lv_colorwheel.c ****                 s = (uint8_t)(((uint16_t)ext->hsv.s * 51) / 20);
 423              		.loc 1 681 19 view .LVU139
 424 0136 164C     		ldr	r4, .L22+24
 425 0138 2380     		strh	r3, [r4]	@ movhi
 682:lvgl/src/extra/widgets/colorwheel/lv_colorwheel.c ****                 m = ext->mode;
 426              		.loc 1 682 17 is_stmt 1 view .LVU140
 682:lvgl/src/extra/widgets/colorwheel/lv_colorwheel.c ****                 m = ext->mode;
 427              		.loc 1 682 50 is_stmt 0 view .LVU141
 428 013a 90F82630 		ldrb	r3, [r0, #38]	@ zero_extendqisi2
 682:lvgl/src/extra/widgets/colorwheel/lv_colorwheel.c ****                 m = ext->mode;
 429              		.loc 1 682 53 view .LVU142
 430 013e 03EB4303 		add	r3, r3, r3, lsl #1
 431 0142 03EB0313 		add	r3, r3, r3, lsl #4
 682:lvgl/src/extra/widgets/colorwheel/lv_colorwheel.c ****                 m = ext->mode;
 432              		.loc 1 682 59 view .LVU143
 433 0146 0E48     		ldr	r0, .L22+8
 434              	.LVL38:
 682:lvgl/src/extra/widgets/colorwheel/lv_colorwheel.c ****                 m = ext->mode;
 435              		.loc 1 682 59 view .LVU144
 436 0148 80FB0303 		smull	r0, r3, r0, r3
 682:lvgl/src/extra/widgets/colorwheel/lv_colorwheel.c ****                 m = ext->mode;
 437              		.loc 1 682 21 view .LVU145
 438 014c C3F3C703 		ubfx	r3, r3, #3, #8
 682:lvgl/src/extra/widgets/colorwheel/lv_colorwheel.c ****                 m = ext->mode;
 439              		.loc 1 682 19 view .LVU146
ARM GAS  C:\Users\OSD\AppData\Local\Temp\cc5XjPm4.s 			page 32


 440 0150 0C48     		ldr	r0, .L22+12
 441 0152 0370     		strb	r3, [r0]
 683:lvgl/src/extra/widgets/colorwheel/lv_colorwheel.c ****             }
 442              		.loc 1 683 17 is_stmt 1 view .LVU147
 683:lvgl/src/extra/widgets/colorwheel/lv_colorwheel.c ****             }
 443              		.loc 1 683 19 is_stmt 0 view .LVU148
 444 0154 094B     		ldr	r3, .L22+4
 445 0156 1A70     		strb	r2, [r3]
 446              	.L20:
 685:lvgl/src/extra/widgets/colorwheel/lv_colorwheel.c ****             break;
 447              		.loc 1 685 13 is_stmt 1 view .LVU149
 448 0158 0DF10D03 		add	r3, sp, #13
 449 015c 0193     		str	r3, [sp, #4]
 450 015e 0DF10E03 		add	r3, sp, #14
 451 0162 0093     		str	r3, [sp]
 452 0164 0DF10F03 		add	r3, sp, #15
 453 0168 CAB2     		uxtb	r2, r1
 454 016a 0649     		ldr	r1, .L22+12
 455              	.LVL39:
 685:lvgl/src/extra/widgets/colorwheel/lv_colorwheel.c ****             break;
 456              		.loc 1 685 13 is_stmt 0 view .LVU150
 457 016c 0978     		ldrb	r1, [r1]	@ zero_extendqisi2
 458 016e 0848     		ldr	r0, .L22+24
 459 0170 0088     		ldrh	r0, [r0]
 460 0172 FFF7FEFF 		bl	fast_hsv2rgb
 461              	.LVL40:
 686:lvgl/src/extra/widgets/colorwheel/lv_colorwheel.c ****     }
 462              		.loc 1 686 13 is_stmt 1 view .LVU151
 463 0176 91E7     		b	.L18
 464              	.L23:
 465              		.align	2
 466              	.L22:
 467 0178 00000000 		.word	.LANCHOR0
 468 017c 00000000 		.word	.LANCHOR1
 469 0180 67666666 		.word	1717986919
 470 0184 00000000 		.word	.LANCHOR2
 471 0188 00000000 		.word	.LANCHOR3
 472 018c 176CC116 		.word	381774871
 473 0190 00000000 		.word	.LANCHOR4
 474              		.cfi_endproc
 475              	.LFE223:
 477              		.section	.text.get_angle,"ax",%progbits
 478              		.align	1
 479              		.syntax unified
 480              		.thumb
 481              		.thumb_func
 483              	get_angle:
 484              	.LVL41:
 485              	.LFB224:
 690:lvgl/src/extra/widgets/colorwheel/lv_colorwheel.c **** 
 691:lvgl/src/extra/widgets/colorwheel/lv_colorwheel.c **** static uint16_t get_angle(lv_obj_t * obj)
 692:lvgl/src/extra/widgets/colorwheel/lv_colorwheel.c **** {
 486              		.loc 1 692 1 view -0
 487              		.cfi_startproc
 488              		@ args = 0, pretend = 0, frame = 0
 489              		@ frame_needed = 0, uses_anonymous_args = 0
 490              		@ link register save eliminated.
ARM GAS  C:\Users\OSD\AppData\Local\Temp\cc5XjPm4.s 			page 33


 693:lvgl/src/extra/widgets/colorwheel/lv_colorwheel.c ****     lv_colorwheel_t * colorwheel = (lv_colorwheel_t *)obj;
 491              		.loc 1 693 5 view .LVU153
 694:lvgl/src/extra/widgets/colorwheel/lv_colorwheel.c ****     uint16_t angle;
 492              		.loc 1 694 5 view .LVU154
 695:lvgl/src/extra/widgets/colorwheel/lv_colorwheel.c ****     switch(colorwheel->mode) {
 493              		.loc 1 695 5 view .LVU155
 494              		.loc 1 695 22 is_stmt 0 view .LVU156
 495 0000 90F83C30 		ldrb	r3, [r0, #60]	@ zero_extendqisi2
 496 0004 03F00303 		and	r3, r3, #3
 497              		.loc 1 695 5 view .LVU157
 498 0008 012B     		cmp	r3, #1
 499 000a 03D0     		beq	.L25
 500 000c 022B     		cmp	r3, #2
 501 000e 0CD0     		beq	.L26
 696:lvgl/src/extra/widgets/colorwheel/lv_colorwheel.c ****         default:
 697:lvgl/src/extra/widgets/colorwheel/lv_colorwheel.c ****         case LV_COLORWHEEL_MODE_HUE:
 698:lvgl/src/extra/widgets/colorwheel/lv_colorwheel.c ****             angle = colorwheel->hsv.h;
 502              		.loc 1 698 13 is_stmt 1 view .LVU158
 503              		.loc 1 698 19 is_stmt 0 view .LVU159
 504 0010 808C     		ldrh	r0, [r0, #36]
 505              	.LVL42:
 699:lvgl/src/extra/widgets/colorwheel/lv_colorwheel.c ****             break;
 506              		.loc 1 699 13 is_stmt 1 view .LVU160
 507 0012 7047     		bx	lr
 508              	.LVL43:
 509              	.L25:
 700:lvgl/src/extra/widgets/colorwheel/lv_colorwheel.c ****         case LV_COLORWHEEL_MODE_SATURATION:
 701:lvgl/src/extra/widgets/colorwheel/lv_colorwheel.c ****             angle = (colorwheel->hsv.s * 360) / 100;
 510              		.loc 1 701 13 view .LVU161
 511              		.loc 1 701 37 is_stmt 0 view .LVU162
 512 0014 90F82600 		ldrb	r0, [r0, #38]	@ zero_extendqisi2
 513              	.LVL44:
 514              		.loc 1 701 40 view .LVU163
 515 0018 4FF4B473 		mov	r3, #360
 516 001c 03FB00F0 		mul	r0, r3, r0
 517              		.loc 1 701 47 view .LVU164
 518 0020 074B     		ldr	r3, .L28
 519 0022 83FB0030 		smull	r3, r0, r3, r0
 520              		.loc 1 701 19 view .LVU165
 521 0026 4009     		lsrs	r0, r0, #5
 522              	.LVL45:
 702:lvgl/src/extra/widgets/colorwheel/lv_colorwheel.c ****             break;
 523              		.loc 1 702 13 is_stmt 1 view .LVU166
 524 0028 7047     		bx	lr
 525              	.LVL46:
 526              	.L26:
 703:lvgl/src/extra/widgets/colorwheel/lv_colorwheel.c ****         case LV_COLORWHEEL_MODE_VALUE:
 704:lvgl/src/extra/widgets/colorwheel/lv_colorwheel.c ****             angle = (colorwheel->hsv.v * 360) / 100 ;
 527              		.loc 1 704 13 view .LVU167
 528              		.loc 1 704 37 is_stmt 0 view .LVU168
 529 002a 90F82700 		ldrb	r0, [r0, #39]	@ zero_extendqisi2
 530              	.LVL47:
 531              		.loc 1 704 40 view .LVU169
 532 002e 4FF4B473 		mov	r3, #360
 533 0032 03FB00F0 		mul	r0, r3, r0
 534              		.loc 1 704 47 view .LVU170
 535 0036 024B     		ldr	r3, .L28
ARM GAS  C:\Users\OSD\AppData\Local\Temp\cc5XjPm4.s 			page 34


 536 0038 83FB0030 		smull	r3, r0, r3, r0
 537              		.loc 1 704 19 view .LVU171
 538 003c 4009     		lsrs	r0, r0, #5
 539              	.LVL48:
 705:lvgl/src/extra/widgets/colorwheel/lv_colorwheel.c ****             break;
 540              		.loc 1 705 13 is_stmt 1 view .LVU172
 706:lvgl/src/extra/widgets/colorwheel/lv_colorwheel.c ****     }
 707:lvgl/src/extra/widgets/colorwheel/lv_colorwheel.c ****     return angle;
 541              		.loc 1 707 5 view .LVU173
 708:lvgl/src/extra/widgets/colorwheel/lv_colorwheel.c **** }
 542              		.loc 1 708 1 is_stmt 0 view .LVU174
 543 003e 7047     		bx	lr
 544              	.L29:
 545              		.align	2
 546              	.L28:
 547 0040 1F85EB51 		.word	1374389535
 548              		.cfi_endproc
 549              	.LFE224:
 551              		.section	.text.get_knob_area,"ax",%progbits
 552              		.align	1
 553              		.syntax unified
 554              		.thumb
 555              		.thumb_func
 557              	get_knob_area:
 558              	.LVL49:
 559              	.LFB217:
 334:lvgl/src/extra/widgets/colorwheel/lv_colorwheel.c ****     lv_colorwheel_t * colorwheel = (lv_colorwheel_t *)obj;
 560              		.loc 1 334 1 is_stmt 1 view -0
 561              		.cfi_startproc
 562              		@ args = 0, pretend = 0, frame = 0
 563              		@ frame_needed = 0, uses_anonymous_args = 0
 334:lvgl/src/extra/widgets/colorwheel/lv_colorwheel.c ****     lv_colorwheel_t * colorwheel = (lv_colorwheel_t *)obj;
 564              		.loc 1 334 1 is_stmt 0 view .LVU176
 565 0000 2DE9F843 		push	{r3, r4, r5, r6, r7, r8, r9, lr}
 566              		.cfi_def_cfa_offset 32
 567              		.cfi_offset 3, -32
 568              		.cfi_offset 4, -28
 569              		.cfi_offset 5, -24
 570              		.cfi_offset 6, -20
 571              		.cfi_offset 7, -16
 572              		.cfi_offset 8, -12
 573              		.cfi_offset 9, -8
 574              		.cfi_offset 14, -4
 575 0004 0646     		mov	r6, r0
 576 0006 0C46     		mov	r4, r1
 335:lvgl/src/extra/widgets/colorwheel/lv_colorwheel.c **** 
 577              		.loc 1 335 5 is_stmt 1 view .LVU177
 578              	.LVL50:
 338:lvgl/src/extra/widgets/colorwheel/lv_colorwheel.c ****     r = lv_obj_get_style_arc_width(obj, LV_PART_MAIN) / 2;
 579              		.loc 1 338 5 view .LVU178
 339:lvgl/src/extra/widgets/colorwheel/lv_colorwheel.c **** 
 580              		.loc 1 339 5 view .LVU179
 581              	.LBB54:
 582              	.LBI54:
 583              		.file 3 "d:\\kzc\\stm32\\h743ii_lcd\\lvgl\\src/core/lv_obj_style_gen.h"
   1:d:\kzc\stm32\h743ii_lcd\lvgl\src/core\lv_obj_style_gen.h **** static inline lv_coord_t lv_obj_get_style_width(const struct _lv_obj_t * obj, uint32_t part)
   2:d:\kzc\stm32\h743ii_lcd\lvgl\src/core\lv_obj_style_gen.h **** {
ARM GAS  C:\Users\OSD\AppData\Local\Temp\cc5XjPm4.s 			page 35


   3:d:\kzc\stm32\h743ii_lcd\lvgl\src/core\lv_obj_style_gen.h ****     lv_style_value_t v = lv_obj_get_style_prop(obj, part, LV_STYLE_WIDTH);
   4:d:\kzc\stm32\h743ii_lcd\lvgl\src/core\lv_obj_style_gen.h ****     return (lv_coord_t)v.num;
   5:d:\kzc\stm32\h743ii_lcd\lvgl\src/core\lv_obj_style_gen.h **** }
   6:d:\kzc\stm32\h743ii_lcd\lvgl\src/core\lv_obj_style_gen.h **** 
   7:d:\kzc\stm32\h743ii_lcd\lvgl\src/core\lv_obj_style_gen.h **** static inline lv_coord_t lv_obj_get_style_min_width(const struct _lv_obj_t * obj, uint32_t part)
   8:d:\kzc\stm32\h743ii_lcd\lvgl\src/core\lv_obj_style_gen.h **** {
   9:d:\kzc\stm32\h743ii_lcd\lvgl\src/core\lv_obj_style_gen.h ****     lv_style_value_t v = lv_obj_get_style_prop(obj, part, LV_STYLE_MIN_WIDTH);
  10:d:\kzc\stm32\h743ii_lcd\lvgl\src/core\lv_obj_style_gen.h ****     return (lv_coord_t)v.num;
  11:d:\kzc\stm32\h743ii_lcd\lvgl\src/core\lv_obj_style_gen.h **** }
  12:d:\kzc\stm32\h743ii_lcd\lvgl\src/core\lv_obj_style_gen.h **** 
  13:d:\kzc\stm32\h743ii_lcd\lvgl\src/core\lv_obj_style_gen.h **** static inline lv_coord_t lv_obj_get_style_max_width(const struct _lv_obj_t * obj, uint32_t part)
  14:d:\kzc\stm32\h743ii_lcd\lvgl\src/core\lv_obj_style_gen.h **** {
  15:d:\kzc\stm32\h743ii_lcd\lvgl\src/core\lv_obj_style_gen.h ****     lv_style_value_t v = lv_obj_get_style_prop(obj, part, LV_STYLE_MAX_WIDTH);
  16:d:\kzc\stm32\h743ii_lcd\lvgl\src/core\lv_obj_style_gen.h ****     return (lv_coord_t)v.num;
  17:d:\kzc\stm32\h743ii_lcd\lvgl\src/core\lv_obj_style_gen.h **** }
  18:d:\kzc\stm32\h743ii_lcd\lvgl\src/core\lv_obj_style_gen.h **** 
  19:d:\kzc\stm32\h743ii_lcd\lvgl\src/core\lv_obj_style_gen.h **** static inline lv_coord_t lv_obj_get_style_height(const struct _lv_obj_t * obj, uint32_t part)
  20:d:\kzc\stm32\h743ii_lcd\lvgl\src/core\lv_obj_style_gen.h **** {
  21:d:\kzc\stm32\h743ii_lcd\lvgl\src/core\lv_obj_style_gen.h ****     lv_style_value_t v = lv_obj_get_style_prop(obj, part, LV_STYLE_HEIGHT);
  22:d:\kzc\stm32\h743ii_lcd\lvgl\src/core\lv_obj_style_gen.h ****     return (lv_coord_t)v.num;
  23:d:\kzc\stm32\h743ii_lcd\lvgl\src/core\lv_obj_style_gen.h **** }
  24:d:\kzc\stm32\h743ii_lcd\lvgl\src/core\lv_obj_style_gen.h **** 
  25:d:\kzc\stm32\h743ii_lcd\lvgl\src/core\lv_obj_style_gen.h **** static inline lv_coord_t lv_obj_get_style_min_height(const struct _lv_obj_t * obj, uint32_t part)
  26:d:\kzc\stm32\h743ii_lcd\lvgl\src/core\lv_obj_style_gen.h **** {
  27:d:\kzc\stm32\h743ii_lcd\lvgl\src/core\lv_obj_style_gen.h ****     lv_style_value_t v = lv_obj_get_style_prop(obj, part, LV_STYLE_MIN_HEIGHT);
  28:d:\kzc\stm32\h743ii_lcd\lvgl\src/core\lv_obj_style_gen.h ****     return (lv_coord_t)v.num;
  29:d:\kzc\stm32\h743ii_lcd\lvgl\src/core\lv_obj_style_gen.h **** }
  30:d:\kzc\stm32\h743ii_lcd\lvgl\src/core\lv_obj_style_gen.h **** 
  31:d:\kzc\stm32\h743ii_lcd\lvgl\src/core\lv_obj_style_gen.h **** static inline lv_coord_t lv_obj_get_style_max_height(const struct _lv_obj_t * obj, uint32_t part)
  32:d:\kzc\stm32\h743ii_lcd\lvgl\src/core\lv_obj_style_gen.h **** {
  33:d:\kzc\stm32\h743ii_lcd\lvgl\src/core\lv_obj_style_gen.h ****     lv_style_value_t v = lv_obj_get_style_prop(obj, part, LV_STYLE_MAX_HEIGHT);
  34:d:\kzc\stm32\h743ii_lcd\lvgl\src/core\lv_obj_style_gen.h ****     return (lv_coord_t)v.num;
  35:d:\kzc\stm32\h743ii_lcd\lvgl\src/core\lv_obj_style_gen.h **** }
  36:d:\kzc\stm32\h743ii_lcd\lvgl\src/core\lv_obj_style_gen.h **** 
  37:d:\kzc\stm32\h743ii_lcd\lvgl\src/core\lv_obj_style_gen.h **** static inline lv_coord_t lv_obj_get_style_x(const struct _lv_obj_t * obj, uint32_t part)
  38:d:\kzc\stm32\h743ii_lcd\lvgl\src/core\lv_obj_style_gen.h **** {
  39:d:\kzc\stm32\h743ii_lcd\lvgl\src/core\lv_obj_style_gen.h ****     lv_style_value_t v = lv_obj_get_style_prop(obj, part, LV_STYLE_X);
  40:d:\kzc\stm32\h743ii_lcd\lvgl\src/core\lv_obj_style_gen.h ****     return (lv_coord_t)v.num;
  41:d:\kzc\stm32\h743ii_lcd\lvgl\src/core\lv_obj_style_gen.h **** }
  42:d:\kzc\stm32\h743ii_lcd\lvgl\src/core\lv_obj_style_gen.h **** 
  43:d:\kzc\stm32\h743ii_lcd\lvgl\src/core\lv_obj_style_gen.h **** static inline lv_coord_t lv_obj_get_style_y(const struct _lv_obj_t * obj, uint32_t part)
  44:d:\kzc\stm32\h743ii_lcd\lvgl\src/core\lv_obj_style_gen.h **** {
  45:d:\kzc\stm32\h743ii_lcd\lvgl\src/core\lv_obj_style_gen.h ****     lv_style_value_t v = lv_obj_get_style_prop(obj, part, LV_STYLE_Y);
  46:d:\kzc\stm32\h743ii_lcd\lvgl\src/core\lv_obj_style_gen.h ****     return (lv_coord_t)v.num;
  47:d:\kzc\stm32\h743ii_lcd\lvgl\src/core\lv_obj_style_gen.h **** }
  48:d:\kzc\stm32\h743ii_lcd\lvgl\src/core\lv_obj_style_gen.h **** 
  49:d:\kzc\stm32\h743ii_lcd\lvgl\src/core\lv_obj_style_gen.h **** static inline lv_align_t lv_obj_get_style_align(const struct _lv_obj_t * obj, uint32_t part)
  50:d:\kzc\stm32\h743ii_lcd\lvgl\src/core\lv_obj_style_gen.h **** {
  51:d:\kzc\stm32\h743ii_lcd\lvgl\src/core\lv_obj_style_gen.h ****     lv_style_value_t v = lv_obj_get_style_prop(obj, part, LV_STYLE_ALIGN);
  52:d:\kzc\stm32\h743ii_lcd\lvgl\src/core\lv_obj_style_gen.h ****     return (lv_align_t)v.num;
  53:d:\kzc\stm32\h743ii_lcd\lvgl\src/core\lv_obj_style_gen.h **** }
  54:d:\kzc\stm32\h743ii_lcd\lvgl\src/core\lv_obj_style_gen.h **** 
  55:d:\kzc\stm32\h743ii_lcd\lvgl\src/core\lv_obj_style_gen.h **** static inline lv_coord_t lv_obj_get_style_transform_width(const struct _lv_obj_t * obj, uint32_t pa
  56:d:\kzc\stm32\h743ii_lcd\lvgl\src/core\lv_obj_style_gen.h **** {
  57:d:\kzc\stm32\h743ii_lcd\lvgl\src/core\lv_obj_style_gen.h ****     lv_style_value_t v = lv_obj_get_style_prop(obj, part, LV_STYLE_TRANSFORM_WIDTH);
  58:d:\kzc\stm32\h743ii_lcd\lvgl\src/core\lv_obj_style_gen.h ****     return (lv_coord_t)v.num;
  59:d:\kzc\stm32\h743ii_lcd\lvgl\src/core\lv_obj_style_gen.h **** }
ARM GAS  C:\Users\OSD\AppData\Local\Temp\cc5XjPm4.s 			page 36


  60:d:\kzc\stm32\h743ii_lcd\lvgl\src/core\lv_obj_style_gen.h **** 
  61:d:\kzc\stm32\h743ii_lcd\lvgl\src/core\lv_obj_style_gen.h **** static inline lv_coord_t lv_obj_get_style_transform_height(const struct _lv_obj_t * obj, uint32_t p
  62:d:\kzc\stm32\h743ii_lcd\lvgl\src/core\lv_obj_style_gen.h **** {
  63:d:\kzc\stm32\h743ii_lcd\lvgl\src/core\lv_obj_style_gen.h ****     lv_style_value_t v = lv_obj_get_style_prop(obj, part, LV_STYLE_TRANSFORM_HEIGHT);
  64:d:\kzc\stm32\h743ii_lcd\lvgl\src/core\lv_obj_style_gen.h ****     return (lv_coord_t)v.num;
  65:d:\kzc\stm32\h743ii_lcd\lvgl\src/core\lv_obj_style_gen.h **** }
  66:d:\kzc\stm32\h743ii_lcd\lvgl\src/core\lv_obj_style_gen.h **** 
  67:d:\kzc\stm32\h743ii_lcd\lvgl\src/core\lv_obj_style_gen.h **** static inline lv_coord_t lv_obj_get_style_translate_x(const struct _lv_obj_t * obj, uint32_t part)
  68:d:\kzc\stm32\h743ii_lcd\lvgl\src/core\lv_obj_style_gen.h **** {
  69:d:\kzc\stm32\h743ii_lcd\lvgl\src/core\lv_obj_style_gen.h ****     lv_style_value_t v = lv_obj_get_style_prop(obj, part, LV_STYLE_TRANSLATE_X);
  70:d:\kzc\stm32\h743ii_lcd\lvgl\src/core\lv_obj_style_gen.h ****     return (lv_coord_t)v.num;
  71:d:\kzc\stm32\h743ii_lcd\lvgl\src/core\lv_obj_style_gen.h **** }
  72:d:\kzc\stm32\h743ii_lcd\lvgl\src/core\lv_obj_style_gen.h **** 
  73:d:\kzc\stm32\h743ii_lcd\lvgl\src/core\lv_obj_style_gen.h **** static inline lv_coord_t lv_obj_get_style_translate_y(const struct _lv_obj_t * obj, uint32_t part)
  74:d:\kzc\stm32\h743ii_lcd\lvgl\src/core\lv_obj_style_gen.h **** {
  75:d:\kzc\stm32\h743ii_lcd\lvgl\src/core\lv_obj_style_gen.h ****     lv_style_value_t v = lv_obj_get_style_prop(obj, part, LV_STYLE_TRANSLATE_Y);
  76:d:\kzc\stm32\h743ii_lcd\lvgl\src/core\lv_obj_style_gen.h ****     return (lv_coord_t)v.num;
  77:d:\kzc\stm32\h743ii_lcd\lvgl\src/core\lv_obj_style_gen.h **** }
  78:d:\kzc\stm32\h743ii_lcd\lvgl\src/core\lv_obj_style_gen.h **** 
  79:d:\kzc\stm32\h743ii_lcd\lvgl\src/core\lv_obj_style_gen.h **** static inline lv_coord_t lv_obj_get_style_transform_zoom(const struct _lv_obj_t * obj, uint32_t par
  80:d:\kzc\stm32\h743ii_lcd\lvgl\src/core\lv_obj_style_gen.h **** {
  81:d:\kzc\stm32\h743ii_lcd\lvgl\src/core\lv_obj_style_gen.h ****     lv_style_value_t v = lv_obj_get_style_prop(obj, part, LV_STYLE_TRANSFORM_ZOOM);
  82:d:\kzc\stm32\h743ii_lcd\lvgl\src/core\lv_obj_style_gen.h ****     return (lv_coord_t)v.num;
  83:d:\kzc\stm32\h743ii_lcd\lvgl\src/core\lv_obj_style_gen.h **** }
  84:d:\kzc\stm32\h743ii_lcd\lvgl\src/core\lv_obj_style_gen.h **** 
  85:d:\kzc\stm32\h743ii_lcd\lvgl\src/core\lv_obj_style_gen.h **** static inline lv_coord_t lv_obj_get_style_transform_angle(const struct _lv_obj_t * obj, uint32_t pa
  86:d:\kzc\stm32\h743ii_lcd\lvgl\src/core\lv_obj_style_gen.h **** {
  87:d:\kzc\stm32\h743ii_lcd\lvgl\src/core\lv_obj_style_gen.h ****     lv_style_value_t v = lv_obj_get_style_prop(obj, part, LV_STYLE_TRANSFORM_ANGLE);
  88:d:\kzc\stm32\h743ii_lcd\lvgl\src/core\lv_obj_style_gen.h ****     return (lv_coord_t)v.num;
  89:d:\kzc\stm32\h743ii_lcd\lvgl\src/core\lv_obj_style_gen.h **** }
  90:d:\kzc\stm32\h743ii_lcd\lvgl\src/core\lv_obj_style_gen.h **** 
  91:d:\kzc\stm32\h743ii_lcd\lvgl\src/core\lv_obj_style_gen.h **** static inline lv_coord_t lv_obj_get_style_transform_pivot_x(const struct _lv_obj_t * obj, uint32_t 
  92:d:\kzc\stm32\h743ii_lcd\lvgl\src/core\lv_obj_style_gen.h **** {
  93:d:\kzc\stm32\h743ii_lcd\lvgl\src/core\lv_obj_style_gen.h ****     lv_style_value_t v = lv_obj_get_style_prop(obj, part, LV_STYLE_TRANSFORM_PIVOT_X);
  94:d:\kzc\stm32\h743ii_lcd\lvgl\src/core\lv_obj_style_gen.h ****     return (lv_coord_t)v.num;
  95:d:\kzc\stm32\h743ii_lcd\lvgl\src/core\lv_obj_style_gen.h **** }
  96:d:\kzc\stm32\h743ii_lcd\lvgl\src/core\lv_obj_style_gen.h **** 
  97:d:\kzc\stm32\h743ii_lcd\lvgl\src/core\lv_obj_style_gen.h **** static inline lv_coord_t lv_obj_get_style_transform_pivot_y(const struct _lv_obj_t * obj, uint32_t 
  98:d:\kzc\stm32\h743ii_lcd\lvgl\src/core\lv_obj_style_gen.h **** {
  99:d:\kzc\stm32\h743ii_lcd\lvgl\src/core\lv_obj_style_gen.h ****     lv_style_value_t v = lv_obj_get_style_prop(obj, part, LV_STYLE_TRANSFORM_PIVOT_Y);
 100:d:\kzc\stm32\h743ii_lcd\lvgl\src/core\lv_obj_style_gen.h ****     return (lv_coord_t)v.num;
 101:d:\kzc\stm32\h743ii_lcd\lvgl\src/core\lv_obj_style_gen.h **** }
 102:d:\kzc\stm32\h743ii_lcd\lvgl\src/core\lv_obj_style_gen.h **** 
 103:d:\kzc\stm32\h743ii_lcd\lvgl\src/core\lv_obj_style_gen.h **** static inline lv_coord_t lv_obj_get_style_pad_top(const struct _lv_obj_t * obj, uint32_t part)
 104:d:\kzc\stm32\h743ii_lcd\lvgl\src/core\lv_obj_style_gen.h **** {
 105:d:\kzc\stm32\h743ii_lcd\lvgl\src/core\lv_obj_style_gen.h ****     lv_style_value_t v = lv_obj_get_style_prop(obj, part, LV_STYLE_PAD_TOP);
 106:d:\kzc\stm32\h743ii_lcd\lvgl\src/core\lv_obj_style_gen.h ****     return (lv_coord_t)v.num;
 107:d:\kzc\stm32\h743ii_lcd\lvgl\src/core\lv_obj_style_gen.h **** }
 108:d:\kzc\stm32\h743ii_lcd\lvgl\src/core\lv_obj_style_gen.h **** 
 109:d:\kzc\stm32\h743ii_lcd\lvgl\src/core\lv_obj_style_gen.h **** static inline lv_coord_t lv_obj_get_style_pad_bottom(const struct _lv_obj_t * obj, uint32_t part)
 110:d:\kzc\stm32\h743ii_lcd\lvgl\src/core\lv_obj_style_gen.h **** {
 111:d:\kzc\stm32\h743ii_lcd\lvgl\src/core\lv_obj_style_gen.h ****     lv_style_value_t v = lv_obj_get_style_prop(obj, part, LV_STYLE_PAD_BOTTOM);
 112:d:\kzc\stm32\h743ii_lcd\lvgl\src/core\lv_obj_style_gen.h ****     return (lv_coord_t)v.num;
 113:d:\kzc\stm32\h743ii_lcd\lvgl\src/core\lv_obj_style_gen.h **** }
 114:d:\kzc\stm32\h743ii_lcd\lvgl\src/core\lv_obj_style_gen.h **** 
 115:d:\kzc\stm32\h743ii_lcd\lvgl\src/core\lv_obj_style_gen.h **** static inline lv_coord_t lv_obj_get_style_pad_left(const struct _lv_obj_t * obj, uint32_t part)
 116:d:\kzc\stm32\h743ii_lcd\lvgl\src/core\lv_obj_style_gen.h **** {
ARM GAS  C:\Users\OSD\AppData\Local\Temp\cc5XjPm4.s 			page 37


 117:d:\kzc\stm32\h743ii_lcd\lvgl\src/core\lv_obj_style_gen.h ****     lv_style_value_t v = lv_obj_get_style_prop(obj, part, LV_STYLE_PAD_LEFT);
 118:d:\kzc\stm32\h743ii_lcd\lvgl\src/core\lv_obj_style_gen.h ****     return (lv_coord_t)v.num;
 119:d:\kzc\stm32\h743ii_lcd\lvgl\src/core\lv_obj_style_gen.h **** }
 120:d:\kzc\stm32\h743ii_lcd\lvgl\src/core\lv_obj_style_gen.h **** 
 121:d:\kzc\stm32\h743ii_lcd\lvgl\src/core\lv_obj_style_gen.h **** static inline lv_coord_t lv_obj_get_style_pad_right(const struct _lv_obj_t * obj, uint32_t part)
 122:d:\kzc\stm32\h743ii_lcd\lvgl\src/core\lv_obj_style_gen.h **** {
 123:d:\kzc\stm32\h743ii_lcd\lvgl\src/core\lv_obj_style_gen.h ****     lv_style_value_t v = lv_obj_get_style_prop(obj, part, LV_STYLE_PAD_RIGHT);
 124:d:\kzc\stm32\h743ii_lcd\lvgl\src/core\lv_obj_style_gen.h ****     return (lv_coord_t)v.num;
 125:d:\kzc\stm32\h743ii_lcd\lvgl\src/core\lv_obj_style_gen.h **** }
 126:d:\kzc\stm32\h743ii_lcd\lvgl\src/core\lv_obj_style_gen.h **** 
 127:d:\kzc\stm32\h743ii_lcd\lvgl\src/core\lv_obj_style_gen.h **** static inline lv_coord_t lv_obj_get_style_pad_row(const struct _lv_obj_t * obj, uint32_t part)
 128:d:\kzc\stm32\h743ii_lcd\lvgl\src/core\lv_obj_style_gen.h **** {
 129:d:\kzc\stm32\h743ii_lcd\lvgl\src/core\lv_obj_style_gen.h ****     lv_style_value_t v = lv_obj_get_style_prop(obj, part, LV_STYLE_PAD_ROW);
 130:d:\kzc\stm32\h743ii_lcd\lvgl\src/core\lv_obj_style_gen.h ****     return (lv_coord_t)v.num;
 131:d:\kzc\stm32\h743ii_lcd\lvgl\src/core\lv_obj_style_gen.h **** }
 132:d:\kzc\stm32\h743ii_lcd\lvgl\src/core\lv_obj_style_gen.h **** 
 133:d:\kzc\stm32\h743ii_lcd\lvgl\src/core\lv_obj_style_gen.h **** static inline lv_coord_t lv_obj_get_style_pad_column(const struct _lv_obj_t * obj, uint32_t part)
 134:d:\kzc\stm32\h743ii_lcd\lvgl\src/core\lv_obj_style_gen.h **** {
 135:d:\kzc\stm32\h743ii_lcd\lvgl\src/core\lv_obj_style_gen.h ****     lv_style_value_t v = lv_obj_get_style_prop(obj, part, LV_STYLE_PAD_COLUMN);
 136:d:\kzc\stm32\h743ii_lcd\lvgl\src/core\lv_obj_style_gen.h ****     return (lv_coord_t)v.num;
 137:d:\kzc\stm32\h743ii_lcd\lvgl\src/core\lv_obj_style_gen.h **** }
 138:d:\kzc\stm32\h743ii_lcd\lvgl\src/core\lv_obj_style_gen.h **** 
 139:d:\kzc\stm32\h743ii_lcd\lvgl\src/core\lv_obj_style_gen.h **** static inline lv_color_t lv_obj_get_style_bg_color(const struct _lv_obj_t * obj, uint32_t part)
 140:d:\kzc\stm32\h743ii_lcd\lvgl\src/core\lv_obj_style_gen.h **** {
 141:d:\kzc\stm32\h743ii_lcd\lvgl\src/core\lv_obj_style_gen.h ****     lv_style_value_t v = lv_obj_get_style_prop(obj, part, LV_STYLE_BG_COLOR);
 142:d:\kzc\stm32\h743ii_lcd\lvgl\src/core\lv_obj_style_gen.h ****     return v.color;
 143:d:\kzc\stm32\h743ii_lcd\lvgl\src/core\lv_obj_style_gen.h **** }
 144:d:\kzc\stm32\h743ii_lcd\lvgl\src/core\lv_obj_style_gen.h **** 
 145:d:\kzc\stm32\h743ii_lcd\lvgl\src/core\lv_obj_style_gen.h **** static inline lv_color_t lv_obj_get_style_bg_color_filtered(const struct _lv_obj_t * obj, uint32_t 
 146:d:\kzc\stm32\h743ii_lcd\lvgl\src/core\lv_obj_style_gen.h **** {
 147:d:\kzc\stm32\h743ii_lcd\lvgl\src/core\lv_obj_style_gen.h ****     lv_style_value_t v = _lv_obj_style_apply_color_filter(obj, part, lv_obj_get_style_prop(obj, par
 148:d:\kzc\stm32\h743ii_lcd\lvgl\src/core\lv_obj_style_gen.h ****     return v.color;
 149:d:\kzc\stm32\h743ii_lcd\lvgl\src/core\lv_obj_style_gen.h **** }
 150:d:\kzc\stm32\h743ii_lcd\lvgl\src/core\lv_obj_style_gen.h **** 
 151:d:\kzc\stm32\h743ii_lcd\lvgl\src/core\lv_obj_style_gen.h **** static inline lv_opa_t lv_obj_get_style_bg_opa(const struct _lv_obj_t * obj, uint32_t part)
 152:d:\kzc\stm32\h743ii_lcd\lvgl\src/core\lv_obj_style_gen.h **** {
 153:d:\kzc\stm32\h743ii_lcd\lvgl\src/core\lv_obj_style_gen.h ****     lv_style_value_t v = lv_obj_get_style_prop(obj, part, LV_STYLE_BG_OPA);
 154:d:\kzc\stm32\h743ii_lcd\lvgl\src/core\lv_obj_style_gen.h ****     return (lv_opa_t)v.num;
 155:d:\kzc\stm32\h743ii_lcd\lvgl\src/core\lv_obj_style_gen.h **** }
 156:d:\kzc\stm32\h743ii_lcd\lvgl\src/core\lv_obj_style_gen.h **** 
 157:d:\kzc\stm32\h743ii_lcd\lvgl\src/core\lv_obj_style_gen.h **** static inline lv_color_t lv_obj_get_style_bg_grad_color(const struct _lv_obj_t * obj, uint32_t part
 158:d:\kzc\stm32\h743ii_lcd\lvgl\src/core\lv_obj_style_gen.h **** {
 159:d:\kzc\stm32\h743ii_lcd\lvgl\src/core\lv_obj_style_gen.h ****     lv_style_value_t v = lv_obj_get_style_prop(obj, part, LV_STYLE_BG_GRAD_COLOR);
 160:d:\kzc\stm32\h743ii_lcd\lvgl\src/core\lv_obj_style_gen.h ****     return v.color;
 161:d:\kzc\stm32\h743ii_lcd\lvgl\src/core\lv_obj_style_gen.h **** }
 162:d:\kzc\stm32\h743ii_lcd\lvgl\src/core\lv_obj_style_gen.h **** 
 163:d:\kzc\stm32\h743ii_lcd\lvgl\src/core\lv_obj_style_gen.h **** static inline lv_color_t lv_obj_get_style_bg_grad_color_filtered(const struct _lv_obj_t * obj, uint
 164:d:\kzc\stm32\h743ii_lcd\lvgl\src/core\lv_obj_style_gen.h **** {
 165:d:\kzc\stm32\h743ii_lcd\lvgl\src/core\lv_obj_style_gen.h ****     lv_style_value_t v = _lv_obj_style_apply_color_filter(obj, part, lv_obj_get_style_prop(obj, par
 166:d:\kzc\stm32\h743ii_lcd\lvgl\src/core\lv_obj_style_gen.h ****     return v.color;
 167:d:\kzc\stm32\h743ii_lcd\lvgl\src/core\lv_obj_style_gen.h **** }
 168:d:\kzc\stm32\h743ii_lcd\lvgl\src/core\lv_obj_style_gen.h **** 
 169:d:\kzc\stm32\h743ii_lcd\lvgl\src/core\lv_obj_style_gen.h **** static inline lv_grad_dir_t lv_obj_get_style_bg_grad_dir(const struct _lv_obj_t * obj, uint32_t par
 170:d:\kzc\stm32\h743ii_lcd\lvgl\src/core\lv_obj_style_gen.h **** {
 171:d:\kzc\stm32\h743ii_lcd\lvgl\src/core\lv_obj_style_gen.h ****     lv_style_value_t v = lv_obj_get_style_prop(obj, part, LV_STYLE_BG_GRAD_DIR);
 172:d:\kzc\stm32\h743ii_lcd\lvgl\src/core\lv_obj_style_gen.h ****     return (lv_grad_dir_t)v.num;
 173:d:\kzc\stm32\h743ii_lcd\lvgl\src/core\lv_obj_style_gen.h **** }
ARM GAS  C:\Users\OSD\AppData\Local\Temp\cc5XjPm4.s 			page 38


 174:d:\kzc\stm32\h743ii_lcd\lvgl\src/core\lv_obj_style_gen.h **** 
 175:d:\kzc\stm32\h743ii_lcd\lvgl\src/core\lv_obj_style_gen.h **** static inline lv_coord_t lv_obj_get_style_bg_main_stop(const struct _lv_obj_t * obj, uint32_t part)
 176:d:\kzc\stm32\h743ii_lcd\lvgl\src/core\lv_obj_style_gen.h **** {
 177:d:\kzc\stm32\h743ii_lcd\lvgl\src/core\lv_obj_style_gen.h ****     lv_style_value_t v = lv_obj_get_style_prop(obj, part, LV_STYLE_BG_MAIN_STOP);
 178:d:\kzc\stm32\h743ii_lcd\lvgl\src/core\lv_obj_style_gen.h ****     return (lv_coord_t)v.num;
 179:d:\kzc\stm32\h743ii_lcd\lvgl\src/core\lv_obj_style_gen.h **** }
 180:d:\kzc\stm32\h743ii_lcd\lvgl\src/core\lv_obj_style_gen.h **** 
 181:d:\kzc\stm32\h743ii_lcd\lvgl\src/core\lv_obj_style_gen.h **** static inline lv_coord_t lv_obj_get_style_bg_grad_stop(const struct _lv_obj_t * obj, uint32_t part)
 182:d:\kzc\stm32\h743ii_lcd\lvgl\src/core\lv_obj_style_gen.h **** {
 183:d:\kzc\stm32\h743ii_lcd\lvgl\src/core\lv_obj_style_gen.h ****     lv_style_value_t v = lv_obj_get_style_prop(obj, part, LV_STYLE_BG_GRAD_STOP);
 184:d:\kzc\stm32\h743ii_lcd\lvgl\src/core\lv_obj_style_gen.h ****     return (lv_coord_t)v.num;
 185:d:\kzc\stm32\h743ii_lcd\lvgl\src/core\lv_obj_style_gen.h **** }
 186:d:\kzc\stm32\h743ii_lcd\lvgl\src/core\lv_obj_style_gen.h **** 
 187:d:\kzc\stm32\h743ii_lcd\lvgl\src/core\lv_obj_style_gen.h **** static inline const lv_grad_dsc_t * lv_obj_get_style_bg_grad(const struct _lv_obj_t * obj, uint32_t
 188:d:\kzc\stm32\h743ii_lcd\lvgl\src/core\lv_obj_style_gen.h **** {
 189:d:\kzc\stm32\h743ii_lcd\lvgl\src/core\lv_obj_style_gen.h ****     lv_style_value_t v = lv_obj_get_style_prop(obj, part, LV_STYLE_BG_GRAD);
 190:d:\kzc\stm32\h743ii_lcd\lvgl\src/core\lv_obj_style_gen.h ****     return (const lv_grad_dsc_t *)v.ptr;
 191:d:\kzc\stm32\h743ii_lcd\lvgl\src/core\lv_obj_style_gen.h **** }
 192:d:\kzc\stm32\h743ii_lcd\lvgl\src/core\lv_obj_style_gen.h **** 
 193:d:\kzc\stm32\h743ii_lcd\lvgl\src/core\lv_obj_style_gen.h **** static inline lv_dither_mode_t lv_obj_get_style_bg_dither_mode(const struct _lv_obj_t * obj, uint32
 194:d:\kzc\stm32\h743ii_lcd\lvgl\src/core\lv_obj_style_gen.h **** {
 195:d:\kzc\stm32\h743ii_lcd\lvgl\src/core\lv_obj_style_gen.h ****     lv_style_value_t v = lv_obj_get_style_prop(obj, part, LV_STYLE_BG_DITHER_MODE);
 196:d:\kzc\stm32\h743ii_lcd\lvgl\src/core\lv_obj_style_gen.h ****     return (lv_dither_mode_t)v.num;
 197:d:\kzc\stm32\h743ii_lcd\lvgl\src/core\lv_obj_style_gen.h **** }
 198:d:\kzc\stm32\h743ii_lcd\lvgl\src/core\lv_obj_style_gen.h **** 
 199:d:\kzc\stm32\h743ii_lcd\lvgl\src/core\lv_obj_style_gen.h **** static inline const void * lv_obj_get_style_bg_img_src(const struct _lv_obj_t * obj, uint32_t part)
 200:d:\kzc\stm32\h743ii_lcd\lvgl\src/core\lv_obj_style_gen.h **** {
 201:d:\kzc\stm32\h743ii_lcd\lvgl\src/core\lv_obj_style_gen.h ****     lv_style_value_t v = lv_obj_get_style_prop(obj, part, LV_STYLE_BG_IMG_SRC);
 202:d:\kzc\stm32\h743ii_lcd\lvgl\src/core\lv_obj_style_gen.h ****     return (const void *)v.ptr;
 203:d:\kzc\stm32\h743ii_lcd\lvgl\src/core\lv_obj_style_gen.h **** }
 204:d:\kzc\stm32\h743ii_lcd\lvgl\src/core\lv_obj_style_gen.h **** 
 205:d:\kzc\stm32\h743ii_lcd\lvgl\src/core\lv_obj_style_gen.h **** static inline lv_opa_t lv_obj_get_style_bg_img_opa(const struct _lv_obj_t * obj, uint32_t part)
 206:d:\kzc\stm32\h743ii_lcd\lvgl\src/core\lv_obj_style_gen.h **** {
 207:d:\kzc\stm32\h743ii_lcd\lvgl\src/core\lv_obj_style_gen.h ****     lv_style_value_t v = lv_obj_get_style_prop(obj, part, LV_STYLE_BG_IMG_OPA);
 208:d:\kzc\stm32\h743ii_lcd\lvgl\src/core\lv_obj_style_gen.h ****     return (lv_opa_t)v.num;
 209:d:\kzc\stm32\h743ii_lcd\lvgl\src/core\lv_obj_style_gen.h **** }
 210:d:\kzc\stm32\h743ii_lcd\lvgl\src/core\lv_obj_style_gen.h **** 
 211:d:\kzc\stm32\h743ii_lcd\lvgl\src/core\lv_obj_style_gen.h **** static inline lv_color_t lv_obj_get_style_bg_img_recolor(const struct _lv_obj_t * obj, uint32_t par
 212:d:\kzc\stm32\h743ii_lcd\lvgl\src/core\lv_obj_style_gen.h **** {
 213:d:\kzc\stm32\h743ii_lcd\lvgl\src/core\lv_obj_style_gen.h ****     lv_style_value_t v = lv_obj_get_style_prop(obj, part, LV_STYLE_BG_IMG_RECOLOR);
 214:d:\kzc\stm32\h743ii_lcd\lvgl\src/core\lv_obj_style_gen.h ****     return v.color;
 215:d:\kzc\stm32\h743ii_lcd\lvgl\src/core\lv_obj_style_gen.h **** }
 216:d:\kzc\stm32\h743ii_lcd\lvgl\src/core\lv_obj_style_gen.h **** 
 217:d:\kzc\stm32\h743ii_lcd\lvgl\src/core\lv_obj_style_gen.h **** static inline lv_color_t lv_obj_get_style_bg_img_recolor_filtered(const struct _lv_obj_t * obj, uin
 218:d:\kzc\stm32\h743ii_lcd\lvgl\src/core\lv_obj_style_gen.h **** {
 219:d:\kzc\stm32\h743ii_lcd\lvgl\src/core\lv_obj_style_gen.h ****     lv_style_value_t v = _lv_obj_style_apply_color_filter(obj, part, lv_obj_get_style_prop(obj, par
 220:d:\kzc\stm32\h743ii_lcd\lvgl\src/core\lv_obj_style_gen.h ****     return v.color;
 221:d:\kzc\stm32\h743ii_lcd\lvgl\src/core\lv_obj_style_gen.h **** }
 222:d:\kzc\stm32\h743ii_lcd\lvgl\src/core\lv_obj_style_gen.h **** 
 223:d:\kzc\stm32\h743ii_lcd\lvgl\src/core\lv_obj_style_gen.h **** static inline lv_opa_t lv_obj_get_style_bg_img_recolor_opa(const struct _lv_obj_t * obj, uint32_t p
 224:d:\kzc\stm32\h743ii_lcd\lvgl\src/core\lv_obj_style_gen.h **** {
 225:d:\kzc\stm32\h743ii_lcd\lvgl\src/core\lv_obj_style_gen.h ****     lv_style_value_t v = lv_obj_get_style_prop(obj, part, LV_STYLE_BG_IMG_RECOLOR_OPA);
 226:d:\kzc\stm32\h743ii_lcd\lvgl\src/core\lv_obj_style_gen.h ****     return (lv_opa_t)v.num;
 227:d:\kzc\stm32\h743ii_lcd\lvgl\src/core\lv_obj_style_gen.h **** }
 228:d:\kzc\stm32\h743ii_lcd\lvgl\src/core\lv_obj_style_gen.h **** 
 229:d:\kzc\stm32\h743ii_lcd\lvgl\src/core\lv_obj_style_gen.h **** static inline bool lv_obj_get_style_bg_img_tiled(const struct _lv_obj_t * obj, uint32_t part)
 230:d:\kzc\stm32\h743ii_lcd\lvgl\src/core\lv_obj_style_gen.h **** {
ARM GAS  C:\Users\OSD\AppData\Local\Temp\cc5XjPm4.s 			page 39


 231:d:\kzc\stm32\h743ii_lcd\lvgl\src/core\lv_obj_style_gen.h ****     lv_style_value_t v = lv_obj_get_style_prop(obj, part, LV_STYLE_BG_IMG_TILED);
 232:d:\kzc\stm32\h743ii_lcd\lvgl\src/core\lv_obj_style_gen.h ****     return (bool)v.num;
 233:d:\kzc\stm32\h743ii_lcd\lvgl\src/core\lv_obj_style_gen.h **** }
 234:d:\kzc\stm32\h743ii_lcd\lvgl\src/core\lv_obj_style_gen.h **** 
 235:d:\kzc\stm32\h743ii_lcd\lvgl\src/core\lv_obj_style_gen.h **** static inline lv_color_t lv_obj_get_style_border_color(const struct _lv_obj_t * obj, uint32_t part)
 236:d:\kzc\stm32\h743ii_lcd\lvgl\src/core\lv_obj_style_gen.h **** {
 237:d:\kzc\stm32\h743ii_lcd\lvgl\src/core\lv_obj_style_gen.h ****     lv_style_value_t v = lv_obj_get_style_prop(obj, part, LV_STYLE_BORDER_COLOR);
 238:d:\kzc\stm32\h743ii_lcd\lvgl\src/core\lv_obj_style_gen.h ****     return v.color;
 239:d:\kzc\stm32\h743ii_lcd\lvgl\src/core\lv_obj_style_gen.h **** }
 240:d:\kzc\stm32\h743ii_lcd\lvgl\src/core\lv_obj_style_gen.h **** 
 241:d:\kzc\stm32\h743ii_lcd\lvgl\src/core\lv_obj_style_gen.h **** static inline lv_color_t lv_obj_get_style_border_color_filtered(const struct _lv_obj_t * obj, uint3
 242:d:\kzc\stm32\h743ii_lcd\lvgl\src/core\lv_obj_style_gen.h **** {
 243:d:\kzc\stm32\h743ii_lcd\lvgl\src/core\lv_obj_style_gen.h ****     lv_style_value_t v = _lv_obj_style_apply_color_filter(obj, part, lv_obj_get_style_prop(obj, par
 244:d:\kzc\stm32\h743ii_lcd\lvgl\src/core\lv_obj_style_gen.h ****     return v.color;
 245:d:\kzc\stm32\h743ii_lcd\lvgl\src/core\lv_obj_style_gen.h **** }
 246:d:\kzc\stm32\h743ii_lcd\lvgl\src/core\lv_obj_style_gen.h **** 
 247:d:\kzc\stm32\h743ii_lcd\lvgl\src/core\lv_obj_style_gen.h **** static inline lv_opa_t lv_obj_get_style_border_opa(const struct _lv_obj_t * obj, uint32_t part)
 248:d:\kzc\stm32\h743ii_lcd\lvgl\src/core\lv_obj_style_gen.h **** {
 249:d:\kzc\stm32\h743ii_lcd\lvgl\src/core\lv_obj_style_gen.h ****     lv_style_value_t v = lv_obj_get_style_prop(obj, part, LV_STYLE_BORDER_OPA);
 250:d:\kzc\stm32\h743ii_lcd\lvgl\src/core\lv_obj_style_gen.h ****     return (lv_opa_t)v.num;
 251:d:\kzc\stm32\h743ii_lcd\lvgl\src/core\lv_obj_style_gen.h **** }
 252:d:\kzc\stm32\h743ii_lcd\lvgl\src/core\lv_obj_style_gen.h **** 
 253:d:\kzc\stm32\h743ii_lcd\lvgl\src/core\lv_obj_style_gen.h **** static inline lv_coord_t lv_obj_get_style_border_width(const struct _lv_obj_t * obj, uint32_t part)
 254:d:\kzc\stm32\h743ii_lcd\lvgl\src/core\lv_obj_style_gen.h **** {
 255:d:\kzc\stm32\h743ii_lcd\lvgl\src/core\lv_obj_style_gen.h ****     lv_style_value_t v = lv_obj_get_style_prop(obj, part, LV_STYLE_BORDER_WIDTH);
 256:d:\kzc\stm32\h743ii_lcd\lvgl\src/core\lv_obj_style_gen.h ****     return (lv_coord_t)v.num;
 257:d:\kzc\stm32\h743ii_lcd\lvgl\src/core\lv_obj_style_gen.h **** }
 258:d:\kzc\stm32\h743ii_lcd\lvgl\src/core\lv_obj_style_gen.h **** 
 259:d:\kzc\stm32\h743ii_lcd\lvgl\src/core\lv_obj_style_gen.h **** static inline lv_border_side_t lv_obj_get_style_border_side(const struct _lv_obj_t * obj, uint32_t 
 260:d:\kzc\stm32\h743ii_lcd\lvgl\src/core\lv_obj_style_gen.h **** {
 261:d:\kzc\stm32\h743ii_lcd\lvgl\src/core\lv_obj_style_gen.h ****     lv_style_value_t v = lv_obj_get_style_prop(obj, part, LV_STYLE_BORDER_SIDE);
 262:d:\kzc\stm32\h743ii_lcd\lvgl\src/core\lv_obj_style_gen.h ****     return (lv_border_side_t)v.num;
 263:d:\kzc\stm32\h743ii_lcd\lvgl\src/core\lv_obj_style_gen.h **** }
 264:d:\kzc\stm32\h743ii_lcd\lvgl\src/core\lv_obj_style_gen.h **** 
 265:d:\kzc\stm32\h743ii_lcd\lvgl\src/core\lv_obj_style_gen.h **** static inline bool lv_obj_get_style_border_post(const struct _lv_obj_t * obj, uint32_t part)
 266:d:\kzc\stm32\h743ii_lcd\lvgl\src/core\lv_obj_style_gen.h **** {
 267:d:\kzc\stm32\h743ii_lcd\lvgl\src/core\lv_obj_style_gen.h ****     lv_style_value_t v = lv_obj_get_style_prop(obj, part, LV_STYLE_BORDER_POST);
 268:d:\kzc\stm32\h743ii_lcd\lvgl\src/core\lv_obj_style_gen.h ****     return (bool)v.num;
 269:d:\kzc\stm32\h743ii_lcd\lvgl\src/core\lv_obj_style_gen.h **** }
 270:d:\kzc\stm32\h743ii_lcd\lvgl\src/core\lv_obj_style_gen.h **** 
 271:d:\kzc\stm32\h743ii_lcd\lvgl\src/core\lv_obj_style_gen.h **** static inline lv_coord_t lv_obj_get_style_outline_width(const struct _lv_obj_t * obj, uint32_t part
 272:d:\kzc\stm32\h743ii_lcd\lvgl\src/core\lv_obj_style_gen.h **** {
 273:d:\kzc\stm32\h743ii_lcd\lvgl\src/core\lv_obj_style_gen.h ****     lv_style_value_t v = lv_obj_get_style_prop(obj, part, LV_STYLE_OUTLINE_WIDTH);
 274:d:\kzc\stm32\h743ii_lcd\lvgl\src/core\lv_obj_style_gen.h ****     return (lv_coord_t)v.num;
 275:d:\kzc\stm32\h743ii_lcd\lvgl\src/core\lv_obj_style_gen.h **** }
 276:d:\kzc\stm32\h743ii_lcd\lvgl\src/core\lv_obj_style_gen.h **** 
 277:d:\kzc\stm32\h743ii_lcd\lvgl\src/core\lv_obj_style_gen.h **** static inline lv_color_t lv_obj_get_style_outline_color(const struct _lv_obj_t * obj, uint32_t part
 278:d:\kzc\stm32\h743ii_lcd\lvgl\src/core\lv_obj_style_gen.h **** {
 279:d:\kzc\stm32\h743ii_lcd\lvgl\src/core\lv_obj_style_gen.h ****     lv_style_value_t v = lv_obj_get_style_prop(obj, part, LV_STYLE_OUTLINE_COLOR);
 280:d:\kzc\stm32\h743ii_lcd\lvgl\src/core\lv_obj_style_gen.h ****     return v.color;
 281:d:\kzc\stm32\h743ii_lcd\lvgl\src/core\lv_obj_style_gen.h **** }
 282:d:\kzc\stm32\h743ii_lcd\lvgl\src/core\lv_obj_style_gen.h **** 
 283:d:\kzc\stm32\h743ii_lcd\lvgl\src/core\lv_obj_style_gen.h **** static inline lv_color_t lv_obj_get_style_outline_color_filtered(const struct _lv_obj_t * obj, uint
 284:d:\kzc\stm32\h743ii_lcd\lvgl\src/core\lv_obj_style_gen.h **** {
 285:d:\kzc\stm32\h743ii_lcd\lvgl\src/core\lv_obj_style_gen.h ****     lv_style_value_t v = _lv_obj_style_apply_color_filter(obj, part, lv_obj_get_style_prop(obj, par
 286:d:\kzc\stm32\h743ii_lcd\lvgl\src/core\lv_obj_style_gen.h ****     return v.color;
 287:d:\kzc\stm32\h743ii_lcd\lvgl\src/core\lv_obj_style_gen.h **** }
ARM GAS  C:\Users\OSD\AppData\Local\Temp\cc5XjPm4.s 			page 40


 288:d:\kzc\stm32\h743ii_lcd\lvgl\src/core\lv_obj_style_gen.h **** 
 289:d:\kzc\stm32\h743ii_lcd\lvgl\src/core\lv_obj_style_gen.h **** static inline lv_opa_t lv_obj_get_style_outline_opa(const struct _lv_obj_t * obj, uint32_t part)
 290:d:\kzc\stm32\h743ii_lcd\lvgl\src/core\lv_obj_style_gen.h **** {
 291:d:\kzc\stm32\h743ii_lcd\lvgl\src/core\lv_obj_style_gen.h ****     lv_style_value_t v = lv_obj_get_style_prop(obj, part, LV_STYLE_OUTLINE_OPA);
 292:d:\kzc\stm32\h743ii_lcd\lvgl\src/core\lv_obj_style_gen.h ****     return (lv_opa_t)v.num;
 293:d:\kzc\stm32\h743ii_lcd\lvgl\src/core\lv_obj_style_gen.h **** }
 294:d:\kzc\stm32\h743ii_lcd\lvgl\src/core\lv_obj_style_gen.h **** 
 295:d:\kzc\stm32\h743ii_lcd\lvgl\src/core\lv_obj_style_gen.h **** static inline lv_coord_t lv_obj_get_style_outline_pad(const struct _lv_obj_t * obj, uint32_t part)
 296:d:\kzc\stm32\h743ii_lcd\lvgl\src/core\lv_obj_style_gen.h **** {
 297:d:\kzc\stm32\h743ii_lcd\lvgl\src/core\lv_obj_style_gen.h ****     lv_style_value_t v = lv_obj_get_style_prop(obj, part, LV_STYLE_OUTLINE_PAD);
 298:d:\kzc\stm32\h743ii_lcd\lvgl\src/core\lv_obj_style_gen.h ****     return (lv_coord_t)v.num;
 299:d:\kzc\stm32\h743ii_lcd\lvgl\src/core\lv_obj_style_gen.h **** }
 300:d:\kzc\stm32\h743ii_lcd\lvgl\src/core\lv_obj_style_gen.h **** 
 301:d:\kzc\stm32\h743ii_lcd\lvgl\src/core\lv_obj_style_gen.h **** static inline lv_coord_t lv_obj_get_style_shadow_width(const struct _lv_obj_t * obj, uint32_t part)
 302:d:\kzc\stm32\h743ii_lcd\lvgl\src/core\lv_obj_style_gen.h **** {
 303:d:\kzc\stm32\h743ii_lcd\lvgl\src/core\lv_obj_style_gen.h ****     lv_style_value_t v = lv_obj_get_style_prop(obj, part, LV_STYLE_SHADOW_WIDTH);
 304:d:\kzc\stm32\h743ii_lcd\lvgl\src/core\lv_obj_style_gen.h ****     return (lv_coord_t)v.num;
 305:d:\kzc\stm32\h743ii_lcd\lvgl\src/core\lv_obj_style_gen.h **** }
 306:d:\kzc\stm32\h743ii_lcd\lvgl\src/core\lv_obj_style_gen.h **** 
 307:d:\kzc\stm32\h743ii_lcd\lvgl\src/core\lv_obj_style_gen.h **** static inline lv_coord_t lv_obj_get_style_shadow_ofs_x(const struct _lv_obj_t * obj, uint32_t part)
 308:d:\kzc\stm32\h743ii_lcd\lvgl\src/core\lv_obj_style_gen.h **** {
 309:d:\kzc\stm32\h743ii_lcd\lvgl\src/core\lv_obj_style_gen.h ****     lv_style_value_t v = lv_obj_get_style_prop(obj, part, LV_STYLE_SHADOW_OFS_X);
 310:d:\kzc\stm32\h743ii_lcd\lvgl\src/core\lv_obj_style_gen.h ****     return (lv_coord_t)v.num;
 311:d:\kzc\stm32\h743ii_lcd\lvgl\src/core\lv_obj_style_gen.h **** }
 312:d:\kzc\stm32\h743ii_lcd\lvgl\src/core\lv_obj_style_gen.h **** 
 313:d:\kzc\stm32\h743ii_lcd\lvgl\src/core\lv_obj_style_gen.h **** static inline lv_coord_t lv_obj_get_style_shadow_ofs_y(const struct _lv_obj_t * obj, uint32_t part)
 314:d:\kzc\stm32\h743ii_lcd\lvgl\src/core\lv_obj_style_gen.h **** {
 315:d:\kzc\stm32\h743ii_lcd\lvgl\src/core\lv_obj_style_gen.h ****     lv_style_value_t v = lv_obj_get_style_prop(obj, part, LV_STYLE_SHADOW_OFS_Y);
 316:d:\kzc\stm32\h743ii_lcd\lvgl\src/core\lv_obj_style_gen.h ****     return (lv_coord_t)v.num;
 317:d:\kzc\stm32\h743ii_lcd\lvgl\src/core\lv_obj_style_gen.h **** }
 318:d:\kzc\stm32\h743ii_lcd\lvgl\src/core\lv_obj_style_gen.h **** 
 319:d:\kzc\stm32\h743ii_lcd\lvgl\src/core\lv_obj_style_gen.h **** static inline lv_coord_t lv_obj_get_style_shadow_spread(const struct _lv_obj_t * obj, uint32_t part
 320:d:\kzc\stm32\h743ii_lcd\lvgl\src/core\lv_obj_style_gen.h **** {
 321:d:\kzc\stm32\h743ii_lcd\lvgl\src/core\lv_obj_style_gen.h ****     lv_style_value_t v = lv_obj_get_style_prop(obj, part, LV_STYLE_SHADOW_SPREAD);
 322:d:\kzc\stm32\h743ii_lcd\lvgl\src/core\lv_obj_style_gen.h ****     return (lv_coord_t)v.num;
 323:d:\kzc\stm32\h743ii_lcd\lvgl\src/core\lv_obj_style_gen.h **** }
 324:d:\kzc\stm32\h743ii_lcd\lvgl\src/core\lv_obj_style_gen.h **** 
 325:d:\kzc\stm32\h743ii_lcd\lvgl\src/core\lv_obj_style_gen.h **** static inline lv_color_t lv_obj_get_style_shadow_color(const struct _lv_obj_t * obj, uint32_t part)
 326:d:\kzc\stm32\h743ii_lcd\lvgl\src/core\lv_obj_style_gen.h **** {
 327:d:\kzc\stm32\h743ii_lcd\lvgl\src/core\lv_obj_style_gen.h ****     lv_style_value_t v = lv_obj_get_style_prop(obj, part, LV_STYLE_SHADOW_COLOR);
 328:d:\kzc\stm32\h743ii_lcd\lvgl\src/core\lv_obj_style_gen.h ****     return v.color;
 329:d:\kzc\stm32\h743ii_lcd\lvgl\src/core\lv_obj_style_gen.h **** }
 330:d:\kzc\stm32\h743ii_lcd\lvgl\src/core\lv_obj_style_gen.h **** 
 331:d:\kzc\stm32\h743ii_lcd\lvgl\src/core\lv_obj_style_gen.h **** static inline lv_color_t lv_obj_get_style_shadow_color_filtered(const struct _lv_obj_t * obj, uint3
 332:d:\kzc\stm32\h743ii_lcd\lvgl\src/core\lv_obj_style_gen.h **** {
 333:d:\kzc\stm32\h743ii_lcd\lvgl\src/core\lv_obj_style_gen.h ****     lv_style_value_t v = _lv_obj_style_apply_color_filter(obj, part, lv_obj_get_style_prop(obj, par
 334:d:\kzc\stm32\h743ii_lcd\lvgl\src/core\lv_obj_style_gen.h ****     return v.color;
 335:d:\kzc\stm32\h743ii_lcd\lvgl\src/core\lv_obj_style_gen.h **** }
 336:d:\kzc\stm32\h743ii_lcd\lvgl\src/core\lv_obj_style_gen.h **** 
 337:d:\kzc\stm32\h743ii_lcd\lvgl\src/core\lv_obj_style_gen.h **** static inline lv_opa_t lv_obj_get_style_shadow_opa(const struct _lv_obj_t * obj, uint32_t part)
 338:d:\kzc\stm32\h743ii_lcd\lvgl\src/core\lv_obj_style_gen.h **** {
 339:d:\kzc\stm32\h743ii_lcd\lvgl\src/core\lv_obj_style_gen.h ****     lv_style_value_t v = lv_obj_get_style_prop(obj, part, LV_STYLE_SHADOW_OPA);
 340:d:\kzc\stm32\h743ii_lcd\lvgl\src/core\lv_obj_style_gen.h ****     return (lv_opa_t)v.num;
 341:d:\kzc\stm32\h743ii_lcd\lvgl\src/core\lv_obj_style_gen.h **** }
 342:d:\kzc\stm32\h743ii_lcd\lvgl\src/core\lv_obj_style_gen.h **** 
 343:d:\kzc\stm32\h743ii_lcd\lvgl\src/core\lv_obj_style_gen.h **** static inline lv_opa_t lv_obj_get_style_img_opa(const struct _lv_obj_t * obj, uint32_t part)
 344:d:\kzc\stm32\h743ii_lcd\lvgl\src/core\lv_obj_style_gen.h **** {
ARM GAS  C:\Users\OSD\AppData\Local\Temp\cc5XjPm4.s 			page 41


 345:d:\kzc\stm32\h743ii_lcd\lvgl\src/core\lv_obj_style_gen.h ****     lv_style_value_t v = lv_obj_get_style_prop(obj, part, LV_STYLE_IMG_OPA);
 346:d:\kzc\stm32\h743ii_lcd\lvgl\src/core\lv_obj_style_gen.h ****     return (lv_opa_t)v.num;
 347:d:\kzc\stm32\h743ii_lcd\lvgl\src/core\lv_obj_style_gen.h **** }
 348:d:\kzc\stm32\h743ii_lcd\lvgl\src/core\lv_obj_style_gen.h **** 
 349:d:\kzc\stm32\h743ii_lcd\lvgl\src/core\lv_obj_style_gen.h **** static inline lv_color_t lv_obj_get_style_img_recolor(const struct _lv_obj_t * obj, uint32_t part)
 350:d:\kzc\stm32\h743ii_lcd\lvgl\src/core\lv_obj_style_gen.h **** {
 351:d:\kzc\stm32\h743ii_lcd\lvgl\src/core\lv_obj_style_gen.h ****     lv_style_value_t v = lv_obj_get_style_prop(obj, part, LV_STYLE_IMG_RECOLOR);
 352:d:\kzc\stm32\h743ii_lcd\lvgl\src/core\lv_obj_style_gen.h ****     return v.color;
 353:d:\kzc\stm32\h743ii_lcd\lvgl\src/core\lv_obj_style_gen.h **** }
 354:d:\kzc\stm32\h743ii_lcd\lvgl\src/core\lv_obj_style_gen.h **** 
 355:d:\kzc\stm32\h743ii_lcd\lvgl\src/core\lv_obj_style_gen.h **** static inline lv_color_t lv_obj_get_style_img_recolor_filtered(const struct _lv_obj_t * obj, uint32
 356:d:\kzc\stm32\h743ii_lcd\lvgl\src/core\lv_obj_style_gen.h **** {
 357:d:\kzc\stm32\h743ii_lcd\lvgl\src/core\lv_obj_style_gen.h ****     lv_style_value_t v = _lv_obj_style_apply_color_filter(obj, part, lv_obj_get_style_prop(obj, par
 358:d:\kzc\stm32\h743ii_lcd\lvgl\src/core\lv_obj_style_gen.h ****     return v.color;
 359:d:\kzc\stm32\h743ii_lcd\lvgl\src/core\lv_obj_style_gen.h **** }
 360:d:\kzc\stm32\h743ii_lcd\lvgl\src/core\lv_obj_style_gen.h **** 
 361:d:\kzc\stm32\h743ii_lcd\lvgl\src/core\lv_obj_style_gen.h **** static inline lv_opa_t lv_obj_get_style_img_recolor_opa(const struct _lv_obj_t * obj, uint32_t part
 362:d:\kzc\stm32\h743ii_lcd\lvgl\src/core\lv_obj_style_gen.h **** {
 363:d:\kzc\stm32\h743ii_lcd\lvgl\src/core\lv_obj_style_gen.h ****     lv_style_value_t v = lv_obj_get_style_prop(obj, part, LV_STYLE_IMG_RECOLOR_OPA);
 364:d:\kzc\stm32\h743ii_lcd\lvgl\src/core\lv_obj_style_gen.h ****     return (lv_opa_t)v.num;
 365:d:\kzc\stm32\h743ii_lcd\lvgl\src/core\lv_obj_style_gen.h **** }
 366:d:\kzc\stm32\h743ii_lcd\lvgl\src/core\lv_obj_style_gen.h **** 
 367:d:\kzc\stm32\h743ii_lcd\lvgl\src/core\lv_obj_style_gen.h **** static inline lv_coord_t lv_obj_get_style_line_width(const struct _lv_obj_t * obj, uint32_t part)
 368:d:\kzc\stm32\h743ii_lcd\lvgl\src/core\lv_obj_style_gen.h **** {
 369:d:\kzc\stm32\h743ii_lcd\lvgl\src/core\lv_obj_style_gen.h ****     lv_style_value_t v = lv_obj_get_style_prop(obj, part, LV_STYLE_LINE_WIDTH);
 370:d:\kzc\stm32\h743ii_lcd\lvgl\src/core\lv_obj_style_gen.h ****     return (lv_coord_t)v.num;
 371:d:\kzc\stm32\h743ii_lcd\lvgl\src/core\lv_obj_style_gen.h **** }
 372:d:\kzc\stm32\h743ii_lcd\lvgl\src/core\lv_obj_style_gen.h **** 
 373:d:\kzc\stm32\h743ii_lcd\lvgl\src/core\lv_obj_style_gen.h **** static inline lv_coord_t lv_obj_get_style_line_dash_width(const struct _lv_obj_t * obj, uint32_t pa
 374:d:\kzc\stm32\h743ii_lcd\lvgl\src/core\lv_obj_style_gen.h **** {
 375:d:\kzc\stm32\h743ii_lcd\lvgl\src/core\lv_obj_style_gen.h ****     lv_style_value_t v = lv_obj_get_style_prop(obj, part, LV_STYLE_LINE_DASH_WIDTH);
 376:d:\kzc\stm32\h743ii_lcd\lvgl\src/core\lv_obj_style_gen.h ****     return (lv_coord_t)v.num;
 377:d:\kzc\stm32\h743ii_lcd\lvgl\src/core\lv_obj_style_gen.h **** }
 378:d:\kzc\stm32\h743ii_lcd\lvgl\src/core\lv_obj_style_gen.h **** 
 379:d:\kzc\stm32\h743ii_lcd\lvgl\src/core\lv_obj_style_gen.h **** static inline lv_coord_t lv_obj_get_style_line_dash_gap(const struct _lv_obj_t * obj, uint32_t part
 380:d:\kzc\stm32\h743ii_lcd\lvgl\src/core\lv_obj_style_gen.h **** {
 381:d:\kzc\stm32\h743ii_lcd\lvgl\src/core\lv_obj_style_gen.h ****     lv_style_value_t v = lv_obj_get_style_prop(obj, part, LV_STYLE_LINE_DASH_GAP);
 382:d:\kzc\stm32\h743ii_lcd\lvgl\src/core\lv_obj_style_gen.h ****     return (lv_coord_t)v.num;
 383:d:\kzc\stm32\h743ii_lcd\lvgl\src/core\lv_obj_style_gen.h **** }
 384:d:\kzc\stm32\h743ii_lcd\lvgl\src/core\lv_obj_style_gen.h **** 
 385:d:\kzc\stm32\h743ii_lcd\lvgl\src/core\lv_obj_style_gen.h **** static inline bool lv_obj_get_style_line_rounded(const struct _lv_obj_t * obj, uint32_t part)
 386:d:\kzc\stm32\h743ii_lcd\lvgl\src/core\lv_obj_style_gen.h **** {
 387:d:\kzc\stm32\h743ii_lcd\lvgl\src/core\lv_obj_style_gen.h ****     lv_style_value_t v = lv_obj_get_style_prop(obj, part, LV_STYLE_LINE_ROUNDED);
 388:d:\kzc\stm32\h743ii_lcd\lvgl\src/core\lv_obj_style_gen.h ****     return (bool)v.num;
 389:d:\kzc\stm32\h743ii_lcd\lvgl\src/core\lv_obj_style_gen.h **** }
 390:d:\kzc\stm32\h743ii_lcd\lvgl\src/core\lv_obj_style_gen.h **** 
 391:d:\kzc\stm32\h743ii_lcd\lvgl\src/core\lv_obj_style_gen.h **** static inline lv_color_t lv_obj_get_style_line_color(const struct _lv_obj_t * obj, uint32_t part)
 392:d:\kzc\stm32\h743ii_lcd\lvgl\src/core\lv_obj_style_gen.h **** {
 393:d:\kzc\stm32\h743ii_lcd\lvgl\src/core\lv_obj_style_gen.h ****     lv_style_value_t v = lv_obj_get_style_prop(obj, part, LV_STYLE_LINE_COLOR);
 394:d:\kzc\stm32\h743ii_lcd\lvgl\src/core\lv_obj_style_gen.h ****     return v.color;
 395:d:\kzc\stm32\h743ii_lcd\lvgl\src/core\lv_obj_style_gen.h **** }
 396:d:\kzc\stm32\h743ii_lcd\lvgl\src/core\lv_obj_style_gen.h **** 
 397:d:\kzc\stm32\h743ii_lcd\lvgl\src/core\lv_obj_style_gen.h **** static inline lv_color_t lv_obj_get_style_line_color_filtered(const struct _lv_obj_t * obj, uint32_
 398:d:\kzc\stm32\h743ii_lcd\lvgl\src/core\lv_obj_style_gen.h **** {
 399:d:\kzc\stm32\h743ii_lcd\lvgl\src/core\lv_obj_style_gen.h ****     lv_style_value_t v = _lv_obj_style_apply_color_filter(obj, part, lv_obj_get_style_prop(obj, par
 400:d:\kzc\stm32\h743ii_lcd\lvgl\src/core\lv_obj_style_gen.h ****     return v.color;
 401:d:\kzc\stm32\h743ii_lcd\lvgl\src/core\lv_obj_style_gen.h **** }
ARM GAS  C:\Users\OSD\AppData\Local\Temp\cc5XjPm4.s 			page 42


 402:d:\kzc\stm32\h743ii_lcd\lvgl\src/core\lv_obj_style_gen.h **** 
 403:d:\kzc\stm32\h743ii_lcd\lvgl\src/core\lv_obj_style_gen.h **** static inline lv_opa_t lv_obj_get_style_line_opa(const struct _lv_obj_t * obj, uint32_t part)
 404:d:\kzc\stm32\h743ii_lcd\lvgl\src/core\lv_obj_style_gen.h **** {
 405:d:\kzc\stm32\h743ii_lcd\lvgl\src/core\lv_obj_style_gen.h ****     lv_style_value_t v = lv_obj_get_style_prop(obj, part, LV_STYLE_LINE_OPA);
 406:d:\kzc\stm32\h743ii_lcd\lvgl\src/core\lv_obj_style_gen.h ****     return (lv_opa_t)v.num;
 407:d:\kzc\stm32\h743ii_lcd\lvgl\src/core\lv_obj_style_gen.h **** }
 408:d:\kzc\stm32\h743ii_lcd\lvgl\src/core\lv_obj_style_gen.h **** 
 409:d:\kzc\stm32\h743ii_lcd\lvgl\src/core\lv_obj_style_gen.h **** static inline lv_coord_t lv_obj_get_style_arc_width(const struct _lv_obj_t * obj, uint32_t part)
 584              		.loc 3 409 26 view .LVU180
 585              	.LBB55:
 410:d:\kzc\stm32\h743ii_lcd\lvgl\src/core\lv_obj_style_gen.h **** {
 411:d:\kzc\stm32\h743ii_lcd\lvgl\src/core\lv_obj_style_gen.h ****     lv_style_value_t v = lv_obj_get_style_prop(obj, part, LV_STYLE_ARC_WIDTH);
 586              		.loc 3 411 5 view .LVU181
 587              		.loc 3 411 26 is_stmt 0 view .LVU182
 588 0008 5022     		movs	r2, #80
 589 000a 0021     		movs	r1, #0
 590              	.LVL51:
 591              		.loc 3 411 26 view .LVU183
 592 000c 2046     		mov	r0, r4
 593              	.LVL52:
 594              		.loc 3 411 26 view .LVU184
 595 000e FFF7FEFF 		bl	lv_obj_get_style_prop
 596              	.LVL53:
 412:d:\kzc\stm32\h743ii_lcd\lvgl\src/core\lv_obj_style_gen.h ****     return (lv_coord_t)v.num;
 597              		.loc 3 412 5 is_stmt 1 view .LVU185
 598              		.loc 3 412 12 is_stmt 0 view .LVU186
 599 0012 03B2     		sxth	r3, r0
 600              	.LVL54:
 601              		.loc 3 412 12 view .LVU187
 602              	.LBE55:
 603              	.LBE54:
 339:lvgl/src/extra/widgets/colorwheel/lv_colorwheel.c **** 
 604              		.loc 1 339 7 view .LVU188
 605 0014 002B     		cmp	r3, #0
 606 0016 3ADB     		blt	.L33
 607              	.L31:
 608 0018 C3F34F05 		ubfx	r5, r3, #1, #16
 609              	.LVL55:
 341:lvgl/src/extra/widgets/colorwheel/lv_colorwheel.c ****     lv_coord_t right = lv_obj_get_style_pad_right(obj, LV_PART_KNOB);
 610              		.loc 1 341 5 is_stmt 1 view .LVU189
 611              	.LBB56:
 612              	.LBI56:
 115:d:\kzc\stm32\h743ii_lcd\lvgl\src/core\lv_obj_style_gen.h **** {
 613              		.loc 3 115 26 view .LVU190
 614              	.LBB57:
 117:d:\kzc\stm32\h743ii_lcd\lvgl\src/core\lv_obj_style_gen.h ****     return (lv_coord_t)v.num;
 615              		.loc 3 117 5 view .LVU191
 117:d:\kzc\stm32\h743ii_lcd\lvgl\src/core\lv_obj_style_gen.h ****     return (lv_coord_t)v.num;
 616              		.loc 3 117 26 is_stmt 0 view .LVU192
 617 001c 1222     		movs	r2, #18
 618 001e 4FF44031 		mov	r1, #196608
 619 0022 2046     		mov	r0, r4
 620 0024 FFF7FEFF 		bl	lv_obj_get_style_prop
 621              	.LVL56:
 622 0028 8146     		mov	r9, r0
 623              	.LVL57:
 118:d:\kzc\stm32\h743ii_lcd\lvgl\src/core\lv_obj_style_gen.h **** }
ARM GAS  C:\Users\OSD\AppData\Local\Temp\cc5XjPm4.s 			page 43


 624              		.loc 3 118 5 is_stmt 1 view .LVU193
 118:d:\kzc\stm32\h743ii_lcd\lvgl\src/core\lv_obj_style_gen.h **** }
 625              		.loc 3 118 5 is_stmt 0 view .LVU194
 626              	.LBE57:
 627              	.LBE56:
 342:lvgl/src/extra/widgets/colorwheel/lv_colorwheel.c ****     lv_coord_t top = lv_obj_get_style_pad_top(obj, LV_PART_KNOB);
 628              		.loc 1 342 5 is_stmt 1 view .LVU195
 629              	.LBB58:
 630              	.LBI58:
 121:d:\kzc\stm32\h743ii_lcd\lvgl\src/core\lv_obj_style_gen.h **** {
 631              		.loc 3 121 26 view .LVU196
 632              	.LBB59:
 123:d:\kzc\stm32\h743ii_lcd\lvgl\src/core\lv_obj_style_gen.h ****     return (lv_coord_t)v.num;
 633              		.loc 3 123 5 view .LVU197
 123:d:\kzc\stm32\h743ii_lcd\lvgl\src/core\lv_obj_style_gen.h ****     return (lv_coord_t)v.num;
 634              		.loc 3 123 26 is_stmt 0 view .LVU198
 635 002a 1322     		movs	r2, #19
 636 002c 4FF44031 		mov	r1, #196608
 637 0030 2046     		mov	r0, r4
 638 0032 FFF7FEFF 		bl	lv_obj_get_style_prop
 639              	.LVL58:
 640 0036 8046     		mov	r8, r0
 641              	.LVL59:
 124:d:\kzc\stm32\h743ii_lcd\lvgl\src/core\lv_obj_style_gen.h **** }
 642              		.loc 3 124 5 is_stmt 1 view .LVU199
 124:d:\kzc\stm32\h743ii_lcd\lvgl\src/core\lv_obj_style_gen.h **** }
 643              		.loc 3 124 5 is_stmt 0 view .LVU200
 644              	.LBE59:
 645              	.LBE58:
 343:lvgl/src/extra/widgets/colorwheel/lv_colorwheel.c ****     lv_coord_t bottom = lv_obj_get_style_pad_bottom(obj, LV_PART_KNOB);
 646              		.loc 1 343 5 is_stmt 1 view .LVU201
 647              	.LBB60:
 648              	.LBI60:
 103:d:\kzc\stm32\h743ii_lcd\lvgl\src/core\lv_obj_style_gen.h **** {
 649              		.loc 3 103 26 view .LVU202
 650              	.LBB61:
 105:d:\kzc\stm32\h743ii_lcd\lvgl\src/core\lv_obj_style_gen.h ****     return (lv_coord_t)v.num;
 651              		.loc 3 105 5 view .LVU203
 105:d:\kzc\stm32\h743ii_lcd\lvgl\src/core\lv_obj_style_gen.h ****     return (lv_coord_t)v.num;
 652              		.loc 3 105 26 is_stmt 0 view .LVU204
 653 0038 1022     		movs	r2, #16
 654 003a 4FF44031 		mov	r1, #196608
 655 003e 2046     		mov	r0, r4
 656 0040 FFF7FEFF 		bl	lv_obj_get_style_prop
 657              	.LVL60:
 658 0044 0746     		mov	r7, r0
 659              	.LVL61:
 106:d:\kzc\stm32\h743ii_lcd\lvgl\src/core\lv_obj_style_gen.h **** }
 660              		.loc 3 106 5 is_stmt 1 view .LVU205
 106:d:\kzc\stm32\h743ii_lcd\lvgl\src/core\lv_obj_style_gen.h **** }
 661              		.loc 3 106 5 is_stmt 0 view .LVU206
 662              	.LBE61:
 663              	.LBE60:
 344:lvgl/src/extra/widgets/colorwheel/lv_colorwheel.c **** 
 664              		.loc 1 344 5 is_stmt 1 view .LVU207
 665              	.LBB62:
 666              	.LBI62:
ARM GAS  C:\Users\OSD\AppData\Local\Temp\cc5XjPm4.s 			page 44


 109:d:\kzc\stm32\h743ii_lcd\lvgl\src/core\lv_obj_style_gen.h **** {
 667              		.loc 3 109 26 view .LVU208
 668              	.LBB63:
 111:d:\kzc\stm32\h743ii_lcd\lvgl\src/core\lv_obj_style_gen.h ****     return (lv_coord_t)v.num;
 669              		.loc 3 111 5 view .LVU209
 111:d:\kzc\stm32\h743ii_lcd\lvgl\src/core\lv_obj_style_gen.h ****     return (lv_coord_t)v.num;
 670              		.loc 3 111 26 is_stmt 0 view .LVU210
 671 0046 1122     		movs	r2, #17
 672 0048 4FF44031 		mov	r1, #196608
 673 004c 2046     		mov	r0, r4
 674 004e FFF7FEFF 		bl	lv_obj_get_style_prop
 675              	.LVL62:
 112:d:\kzc\stm32\h743ii_lcd\lvgl\src/core\lv_obj_style_gen.h **** }
 676              		.loc 3 112 5 is_stmt 1 view .LVU211
 112:d:\kzc\stm32\h743ii_lcd\lvgl\src/core\lv_obj_style_gen.h **** }
 677              		.loc 3 112 5 is_stmt 0 view .LVU212
 678              	.LBE63:
 679              	.LBE62:
 346:lvgl/src/extra/widgets/colorwheel/lv_colorwheel.c ****     knob_area.x1 = obj->coords.x1 + colorwheel->knob.pos.x - r - left;
 680              		.loc 1 346 5 is_stmt 1 view .LVU213
 347:lvgl/src/extra/widgets/colorwheel/lv_colorwheel.c ****     knob_area.y1 = obj->coords.y1 + colorwheel->knob.pos.y - r - right;
 681              		.loc 1 347 5 view .LVU214
 347:lvgl/src/extra/widgets/colorwheel/lv_colorwheel.c ****     knob_area.y1 = obj->coords.y1 + colorwheel->knob.pos.y - r - right;
 682              		.loc 1 347 31 is_stmt 0 view .LVU215
 683 0052 A28A     		ldrh	r2, [r4, #20]
 347:lvgl/src/extra/widgets/colorwheel/lv_colorwheel.c ****     knob_area.y1 = obj->coords.y1 + colorwheel->knob.pos.y - r - right;
 684              		.loc 1 347 57 view .LVU216
 685 0054 238D     		ldrh	r3, [r4, #40]
 347:lvgl/src/extra/widgets/colorwheel/lv_colorwheel.c ****     knob_area.y1 = obj->coords.y1 + colorwheel->knob.pos.y - r - right;
 686              		.loc 1 347 35 view .LVU217
 687 0056 1A44     		add	r2, r2, r3
 688 0058 92B2     		uxth	r2, r2
 347:lvgl/src/extra/widgets/colorwheel/lv_colorwheel.c ****     knob_area.y1 = obj->coords.y1 + colorwheel->knob.pos.y - r - right;
 689              		.loc 1 347 60 view .LVU218
 690 005a 531B     		subs	r3, r2, r5
 691 005c 9BB2     		uxth	r3, r3
 347:lvgl/src/extra/widgets/colorwheel/lv_colorwheel.c ****     knob_area.y1 = obj->coords.y1 + colorwheel->knob.pos.y - r - right;
 692              		.loc 1 347 64 view .LVU219
 693 005e A3EB0903 		sub	r3, r3, r9
 347:lvgl/src/extra/widgets/colorwheel/lv_colorwheel.c ****     knob_area.y1 = obj->coords.y1 + colorwheel->knob.pos.y - r - right;
 694              		.loc 1 347 18 view .LVU220
 695 0062 3380     		strh	r3, [r6]	@ movhi
 348:lvgl/src/extra/widgets/colorwheel/lv_colorwheel.c ****     knob_area.x2 = obj->coords.x1 + colorwheel->knob.pos.x + r + top;
 696              		.loc 1 348 5 is_stmt 1 view .LVU221
 348:lvgl/src/extra/widgets/colorwheel/lv_colorwheel.c ****     knob_area.x2 = obj->coords.x1 + colorwheel->knob.pos.x + r + top;
 697              		.loc 1 348 31 is_stmt 0 view .LVU222
 698 0064 E38A     		ldrh	r3, [r4, #22]
 348:lvgl/src/extra/widgets/colorwheel/lv_colorwheel.c ****     knob_area.x2 = obj->coords.x1 + colorwheel->knob.pos.x + r + top;
 699              		.loc 1 348 57 view .LVU223
 700 0066 618D     		ldrh	r1, [r4, #42]
 348:lvgl/src/extra/widgets/colorwheel/lv_colorwheel.c ****     knob_area.x2 = obj->coords.x1 + colorwheel->knob.pos.x + r + top;
 701              		.loc 1 348 35 view .LVU224
 702 0068 0B44     		add	r3, r3, r1
 703 006a 9BB2     		uxth	r3, r3
 348:lvgl/src/extra/widgets/colorwheel/lv_colorwheel.c ****     knob_area.x2 = obj->coords.x1 + colorwheel->knob.pos.x + r + top;
 704              		.loc 1 348 60 view .LVU225
 705 006c 591B     		subs	r1, r3, r5
ARM GAS  C:\Users\OSD\AppData\Local\Temp\cc5XjPm4.s 			page 45


 706 006e 89B2     		uxth	r1, r1
 348:lvgl/src/extra/widgets/colorwheel/lv_colorwheel.c ****     knob_area.x2 = obj->coords.x1 + colorwheel->knob.pos.x + r + top;
 707              		.loc 1 348 64 view .LVU226
 708 0070 A1EB0808 		sub	r8, r1, r8
 709              	.LVL63:
 348:lvgl/src/extra/widgets/colorwheel/lv_colorwheel.c ****     knob_area.x2 = obj->coords.x1 + colorwheel->knob.pos.x + r + top;
 710              		.loc 1 348 18 view .LVU227
 711 0074 A6F80280 		strh	r8, [r6, #2]	@ movhi
 349:lvgl/src/extra/widgets/colorwheel/lv_colorwheel.c ****     knob_area.y2 = obj->coords.y1 + colorwheel->knob.pos.y + r + bottom;
 712              		.loc 1 349 5 is_stmt 1 view .LVU228
 349:lvgl/src/extra/widgets/colorwheel/lv_colorwheel.c ****     knob_area.y2 = obj->coords.y1 + colorwheel->knob.pos.y + r + bottom;
 713              		.loc 1 349 60 is_stmt 0 view .LVU229
 714 0078 2A44     		add	r2, r2, r5
 349:lvgl/src/extra/widgets/colorwheel/lv_colorwheel.c ****     knob_area.y2 = obj->coords.y1 + colorwheel->knob.pos.y + r + bottom;
 715              		.loc 1 349 64 view .LVU230
 716 007a 17FA82F7 		uxtah	r7, r7, r2
 717              	.LVL64:
 349:lvgl/src/extra/widgets/colorwheel/lv_colorwheel.c ****     knob_area.y2 = obj->coords.y1 + colorwheel->knob.pos.y + r + bottom;
 718              		.loc 1 349 18 view .LVU231
 719 007e B780     		strh	r7, [r6, #4]	@ movhi
 350:lvgl/src/extra/widgets/colorwheel/lv_colorwheel.c **** 
 720              		.loc 1 350 5 is_stmt 1 view .LVU232
 350:lvgl/src/extra/widgets/colorwheel/lv_colorwheel.c **** 
 721              		.loc 1 350 60 is_stmt 0 view .LVU233
 722 0080 2B44     		add	r3, r3, r5
 350:lvgl/src/extra/widgets/colorwheel/lv_colorwheel.c **** 
 723              		.loc 1 350 64 view .LVU234
 724 0082 10FA83F3 		uxtah	r3, r0, r3
 350:lvgl/src/extra/widgets/colorwheel/lv_colorwheel.c **** 
 725              		.loc 1 350 18 view .LVU235
 726 0086 F380     		strh	r3, [r6, #6]	@ movhi
 352:lvgl/src/extra/widgets/colorwheel/lv_colorwheel.c **** }
 727              		.loc 1 352 5 is_stmt 1 view .LVU236
 353:lvgl/src/extra/widgets/colorwheel/lv_colorwheel.c **** 
 728              		.loc 1 353 1 is_stmt 0 view .LVU237
 729 0088 3046     		mov	r0, r6
 730              	.LVL65:
 353:lvgl/src/extra/widgets/colorwheel/lv_colorwheel.c **** 
 731              		.loc 1 353 1 view .LVU238
 732 008a BDE8F883 		pop	{r3, r4, r5, r6, r7, r8, r9, pc}
 733              	.LVL66:
 734              	.L33:
 339:lvgl/src/extra/widgets/colorwheel/lv_colorwheel.c **** 
 735              		.loc 1 339 7 view .LVU239
 736 008e 0133     		adds	r3, r3, #1
 737 0090 C2E7     		b	.L31
 738              		.cfi_endproc
 739              	.LFE217:
 741              		.section	.text.invalidate_knob,"ax",%progbits
 742              		.align	1
 743              		.syntax unified
 744              		.thumb
 745              		.thumb_func
 747              	invalidate_knob:
 748              	.LVL67:
 749              	.LFB216:
 327:lvgl/src/extra/widgets/colorwheel/lv_colorwheel.c ****     lv_area_t knob_area = get_knob_area(obj);
ARM GAS  C:\Users\OSD\AppData\Local\Temp\cc5XjPm4.s 			page 46


 750              		.loc 1 327 1 is_stmt 1 view -0
 751              		.cfi_startproc
 752              		@ args = 0, pretend = 0, frame = 8
 753              		@ frame_needed = 0, uses_anonymous_args = 0
 327:lvgl/src/extra/widgets/colorwheel/lv_colorwheel.c ****     lv_area_t knob_area = get_knob_area(obj);
 754              		.loc 1 327 1 is_stmt 0 view .LVU241
 755 0000 10B5     		push	{r4, lr}
 756              		.cfi_def_cfa_offset 8
 757              		.cfi_offset 4, -8
 758              		.cfi_offset 14, -4
 759 0002 82B0     		sub	sp, sp, #8
 760              		.cfi_def_cfa_offset 16
 761 0004 0446     		mov	r4, r0
 328:lvgl/src/extra/widgets/colorwheel/lv_colorwheel.c **** 
 762              		.loc 1 328 5 is_stmt 1 view .LVU242
 328:lvgl/src/extra/widgets/colorwheel/lv_colorwheel.c **** 
 763              		.loc 1 328 27 is_stmt 0 view .LVU243
 764 0006 0146     		mov	r1, r0
 765 0008 6846     		mov	r0, sp
 766              	.LVL68:
 328:lvgl/src/extra/widgets/colorwheel/lv_colorwheel.c **** 
 767              		.loc 1 328 27 view .LVU244
 768 000a FFF7FEFF 		bl	get_knob_area
 769              	.LVL69:
 330:lvgl/src/extra/widgets/colorwheel/lv_colorwheel.c **** }
 770              		.loc 1 330 5 is_stmt 1 view .LVU245
 771 000e 6946     		mov	r1, sp
 772 0010 2046     		mov	r0, r4
 773 0012 FFF7FEFF 		bl	lv_obj_invalidate_area
 774              	.LVL70:
 331:lvgl/src/extra/widgets/colorwheel/lv_colorwheel.c **** 
 775              		.loc 1 331 1 is_stmt 0 view .LVU246
 776 0016 02B0     		add	sp, sp, #8
 777              		.cfi_def_cfa_offset 8
 778              		@ sp needed
 779 0018 10BD     		pop	{r4, pc}
 331:lvgl/src/extra/widgets/colorwheel/lv_colorwheel.c **** 
 780              		.loc 1 331 1 view .LVU247
 781              		.cfi_endproc
 782              	.LFE216:
 784              		.section	.text.refr_knob_pos,"ax",%progbits
 785              		.align	1
 786              		.syntax unified
 787              		.thumb
 788              		.thumb_func
 790              	refr_knob_pos:
 791              	.LVL71:
 792              	.LFB220:
 547:lvgl/src/extra/widgets/colorwheel/lv_colorwheel.c ****     invalidate_knob(obj);
 793              		.loc 1 547 1 is_stmt 1 view -0
 794              		.cfi_startproc
 795              		@ args = 0, pretend = 0, frame = 0
 796              		@ frame_needed = 0, uses_anonymous_args = 0
 547:lvgl/src/extra/widgets/colorwheel/lv_colorwheel.c ****     invalidate_knob(obj);
 797              		.loc 1 547 1 is_stmt 0 view .LVU249
 798 0000 F8B5     		push	{r3, r4, r5, r6, r7, lr}
 799              		.cfi_def_cfa_offset 24
ARM GAS  C:\Users\OSD\AppData\Local\Temp\cc5XjPm4.s 			page 47


 800              		.cfi_offset 3, -24
 801              		.cfi_offset 4, -20
 802              		.cfi_offset 5, -16
 803              		.cfi_offset 6, -12
 804              		.cfi_offset 7, -8
 805              		.cfi_offset 14, -4
 806 0002 0546     		mov	r5, r0
 548:lvgl/src/extra/widgets/colorwheel/lv_colorwheel.c **** 
 807              		.loc 1 548 5 is_stmt 1 view .LVU250
 808 0004 FFF7FEFF 		bl	invalidate_knob
 809              	.LVL72:
 550:lvgl/src/extra/widgets/colorwheel/lv_colorwheel.c ****     lv_coord_t w = lv_obj_get_width(obj);
 810              		.loc 1 550 5 view .LVU251
 551:lvgl/src/extra/widgets/colorwheel/lv_colorwheel.c **** 
 811              		.loc 1 551 5 view .LVU252
 551:lvgl/src/extra/widgets/colorwheel/lv_colorwheel.c **** 
 812              		.loc 1 551 20 is_stmt 0 view .LVU253
 813 0008 2846     		mov	r0, r5
 814 000a FFF7FEFF 		bl	lv_obj_get_width
 815              	.LVL73:
 816 000e 0646     		mov	r6, r0
 817              	.LVL74:
 553:lvgl/src/extra/widgets/colorwheel/lv_colorwheel.c ****     lv_coord_t r = (w - scale_w) / 2;
 818              		.loc 1 553 5 is_stmt 1 view .LVU254
 819              	.LBB64:
 820              	.LBI64:
 409:d:\kzc\stm32\h743ii_lcd\lvgl\src/core\lv_obj_style_gen.h **** {
 821              		.loc 3 409 26 view .LVU255
 822              	.LBB65:
 411:d:\kzc\stm32\h743ii_lcd\lvgl\src/core\lv_obj_style_gen.h ****     return (lv_coord_t)v.num;
 823              		.loc 3 411 5 view .LVU256
 411:d:\kzc\stm32\h743ii_lcd\lvgl\src/core\lv_obj_style_gen.h ****     return (lv_coord_t)v.num;
 824              		.loc 3 411 26 is_stmt 0 view .LVU257
 825 0010 5022     		movs	r2, #80
 826 0012 0021     		movs	r1, #0
 827 0014 2846     		mov	r0, r5
 828 0016 FFF7FEFF 		bl	lv_obj_get_style_prop
 829              	.LVL75:
 830              		.loc 3 412 5 is_stmt 1 view .LVU258
 831              		.loc 3 412 12 is_stmt 0 view .LVU259
 832 001a 04B2     		sxth	r4, r0
 833              	.LVL76:
 834              		.loc 3 412 12 view .LVU260
 835              	.LBE65:
 836              	.LBE64:
 554:lvgl/src/extra/widgets/colorwheel/lv_colorwheel.c ****     uint16_t angle = get_angle(obj);
 837              		.loc 1 554 5 is_stmt 1 view .LVU261
 554:lvgl/src/extra/widgets/colorwheel/lv_colorwheel.c ****     uint16_t angle = get_angle(obj);
 838              		.loc 1 554 34 is_stmt 0 view .LVU262
 839 001c 341B     		subs	r4, r6, r4
 840              	.LVL77:
 554:lvgl/src/extra/widgets/colorwheel/lv_colorwheel.c ****     uint16_t angle = get_angle(obj);
 841              		.loc 1 554 34 view .LVU263
 842 001e 25D4     		bmi	.L40
 843              	.L37:
 554:lvgl/src/extra/widgets/colorwheel/lv_colorwheel.c ****     uint16_t angle = get_angle(obj);
 844              		.loc 1 554 16 view .LVU264
ARM GAS  C:\Users\OSD\AppData\Local\Temp\cc5XjPm4.s 			page 48


 845 0020 44F34F04 		sbfx	r4, r4, #1, #16
 846              	.LVL78:
 555:lvgl/src/extra/widgets/colorwheel/lv_colorwheel.c ****     colorwheel->knob.pos.x = (((int32_t)r * lv_trigo_sin(angle)) >> LV_TRIGO_SHIFT);
 847              		.loc 1 555 5 is_stmt 1 view .LVU265
 555:lvgl/src/extra/widgets/colorwheel/lv_colorwheel.c ****     colorwheel->knob.pos.x = (((int32_t)r * lv_trigo_sin(angle)) >> LV_TRIGO_SHIFT);
 848              		.loc 1 555 22 is_stmt 0 view .LVU266
 849 0024 2846     		mov	r0, r5
 850              	.LVL79:
 555:lvgl/src/extra/widgets/colorwheel/lv_colorwheel.c ****     colorwheel->knob.pos.x = (((int32_t)r * lv_trigo_sin(angle)) >> LV_TRIGO_SHIFT);
 851              		.loc 1 555 22 view .LVU267
 852 0026 FFF7FEFF 		bl	get_angle
 853              	.LVL80:
 854 002a 0746     		mov	r7, r0
 855              	.LVL81:
 556:lvgl/src/extra/widgets/colorwheel/lv_colorwheel.c ****     colorwheel->knob.pos.y = (((int32_t)r * lv_trigo_cos(angle)) >> LV_TRIGO_SHIFT);
 856              		.loc 1 556 5 is_stmt 1 view .LVU268
 556:lvgl/src/extra/widgets/colorwheel/lv_colorwheel.c ****     colorwheel->knob.pos.y = (((int32_t)r * lv_trigo_cos(angle)) >> LV_TRIGO_SHIFT);
 857              		.loc 1 556 45 is_stmt 0 view .LVU269
 858 002c 00B2     		sxth	r0, r0
 556:lvgl/src/extra/widgets/colorwheel/lv_colorwheel.c ****     colorwheel->knob.pos.y = (((int32_t)r * lv_trigo_cos(angle)) >> LV_TRIGO_SHIFT);
 859              		.loc 1 556 45 view .LVU270
 860 002e FFF7FEFF 		bl	lv_trigo_sin
 861              	.LVL82:
 556:lvgl/src/extra/widgets/colorwheel/lv_colorwheel.c ****     colorwheel->knob.pos.y = (((int32_t)r * lv_trigo_cos(angle)) >> LV_TRIGO_SHIFT);
 862              		.loc 1 556 43 view .LVU271
 863 0032 04FB00F0 		mul	r0, r4, r0
 556:lvgl/src/extra/widgets/colorwheel/lv_colorwheel.c ****     colorwheel->knob.pos.y = (((int32_t)r * lv_trigo_cos(angle)) >> LV_TRIGO_SHIFT);
 864              		.loc 1 556 66 view .LVU272
 865 0036 C013     		asrs	r0, r0, #15
 556:lvgl/src/extra/widgets/colorwheel/lv_colorwheel.c ****     colorwheel->knob.pos.y = (((int32_t)r * lv_trigo_cos(angle)) >> LV_TRIGO_SHIFT);
 866              		.loc 1 556 28 view .LVU273
 867 0038 2885     		strh	r0, [r5, #40]	@ movhi
 557:lvgl/src/extra/widgets/colorwheel/lv_colorwheel.c ****     colorwheel->knob.pos.x = colorwheel->knob.pos.x + w / 2;
 868              		.loc 1 557 5 is_stmt 1 view .LVU274
 869              	.LVL83:
 870              	.LBB66:
 871              	.LBI66:
 872              		.file 4 "d:\\kzc\\stm32\\h743ii_lcd\\lvgl\\src/misc/lv_math.h"
   1:d:\kzc\stm32\h743ii_lcd\lvgl\src\misc\lv_math.h **** /**
   2:d:\kzc\stm32\h743ii_lcd\lvgl\src\misc\lv_math.h ****  * @file lv_math.h
   3:d:\kzc\stm32\h743ii_lcd\lvgl\src\misc\lv_math.h ****  *
   4:d:\kzc\stm32\h743ii_lcd\lvgl\src\misc\lv_math.h ****  */
   5:d:\kzc\stm32\h743ii_lcd\lvgl\src\misc\lv_math.h **** 
   6:d:\kzc\stm32\h743ii_lcd\lvgl\src\misc\lv_math.h **** #ifndef LV_MATH_H
   7:d:\kzc\stm32\h743ii_lcd\lvgl\src\misc\lv_math.h **** #define LV_MATH_H
   8:d:\kzc\stm32\h743ii_lcd\lvgl\src\misc\lv_math.h **** 
   9:d:\kzc\stm32\h743ii_lcd\lvgl\src\misc\lv_math.h **** #ifdef __cplusplus
  10:d:\kzc\stm32\h743ii_lcd\lvgl\src\misc\lv_math.h **** extern "C" {
  11:d:\kzc\stm32\h743ii_lcd\lvgl\src\misc\lv_math.h **** #endif
  12:d:\kzc\stm32\h743ii_lcd\lvgl\src\misc\lv_math.h **** 
  13:d:\kzc\stm32\h743ii_lcd\lvgl\src\misc\lv_math.h **** /*********************
  14:d:\kzc\stm32\h743ii_lcd\lvgl\src\misc\lv_math.h ****  *      INCLUDES
  15:d:\kzc\stm32\h743ii_lcd\lvgl\src\misc\lv_math.h ****  *********************/
  16:d:\kzc\stm32\h743ii_lcd\lvgl\src\misc\lv_math.h **** #include "../lv_conf_internal.h"
  17:d:\kzc\stm32\h743ii_lcd\lvgl\src\misc\lv_math.h **** #include <stdint.h>
  18:d:\kzc\stm32\h743ii_lcd\lvgl\src\misc\lv_math.h **** 
  19:d:\kzc\stm32\h743ii_lcd\lvgl\src\misc\lv_math.h **** /*********************
ARM GAS  C:\Users\OSD\AppData\Local\Temp\cc5XjPm4.s 			page 49


  20:d:\kzc\stm32\h743ii_lcd\lvgl\src\misc\lv_math.h ****  *      DEFINES
  21:d:\kzc\stm32\h743ii_lcd\lvgl\src\misc\lv_math.h ****  *********************/
  22:d:\kzc\stm32\h743ii_lcd\lvgl\src\misc\lv_math.h **** #define LV_TRIGO_SIN_MAX 32767
  23:d:\kzc\stm32\h743ii_lcd\lvgl\src\misc\lv_math.h **** #define LV_TRIGO_SHIFT 15 /**<  >> LV_TRIGO_SHIFT to normalize*/
  24:d:\kzc\stm32\h743ii_lcd\lvgl\src\misc\lv_math.h **** 
  25:d:\kzc\stm32\h743ii_lcd\lvgl\src\misc\lv_math.h **** #define LV_BEZIER_VAL_MAX 1024 /**< Max time in Bezier functions (not [0..1] to use integers)*/
  26:d:\kzc\stm32\h743ii_lcd\lvgl\src\misc\lv_math.h **** #define LV_BEZIER_VAL_SHIFT 10 /**< log2(LV_BEZIER_VAL_MAX): used to normalize up scaled values*/
  27:d:\kzc\stm32\h743ii_lcd\lvgl\src\misc\lv_math.h **** 
  28:d:\kzc\stm32\h743ii_lcd\lvgl\src\misc\lv_math.h **** /**********************
  29:d:\kzc\stm32\h743ii_lcd\lvgl\src\misc\lv_math.h ****  *      TYPEDEFS
  30:d:\kzc\stm32\h743ii_lcd\lvgl\src\misc\lv_math.h ****  **********************/
  31:d:\kzc\stm32\h743ii_lcd\lvgl\src\misc\lv_math.h **** 
  32:d:\kzc\stm32\h743ii_lcd\lvgl\src\misc\lv_math.h **** typedef struct {
  33:d:\kzc\stm32\h743ii_lcd\lvgl\src\misc\lv_math.h ****     uint16_t i;
  34:d:\kzc\stm32\h743ii_lcd\lvgl\src\misc\lv_math.h ****     uint16_t f;
  35:d:\kzc\stm32\h743ii_lcd\lvgl\src\misc\lv_math.h **** } lv_sqrt_res_t;
  36:d:\kzc\stm32\h743ii_lcd\lvgl\src\misc\lv_math.h **** 
  37:d:\kzc\stm32\h743ii_lcd\lvgl\src\misc\lv_math.h **** /**********************
  38:d:\kzc\stm32\h743ii_lcd\lvgl\src\misc\lv_math.h ****  * GLOBAL PROTOTYPES
  39:d:\kzc\stm32\h743ii_lcd\lvgl\src\misc\lv_math.h ****  **********************/
  40:d:\kzc\stm32\h743ii_lcd\lvgl\src\misc\lv_math.h **** 
  41:d:\kzc\stm32\h743ii_lcd\lvgl\src\misc\lv_math.h **** //! @cond Doxygen_Suppress
  42:d:\kzc\stm32\h743ii_lcd\lvgl\src\misc\lv_math.h **** /**
  43:d:\kzc\stm32\h743ii_lcd\lvgl\src\misc\lv_math.h ****  * Return with sinus of an angle
  44:d:\kzc\stm32\h743ii_lcd\lvgl\src\misc\lv_math.h ****  * @param angle
  45:d:\kzc\stm32\h743ii_lcd\lvgl\src\misc\lv_math.h ****  * @return sinus of 'angle'. sin(-90) = -32767, sin(90) = 32767
  46:d:\kzc\stm32\h743ii_lcd\lvgl\src\misc\lv_math.h ****  */
  47:d:\kzc\stm32\h743ii_lcd\lvgl\src\misc\lv_math.h **** int16_t /* LV_ATTRIBUTE_FAST_MEM */ lv_trigo_sin(int16_t angle);
  48:d:\kzc\stm32\h743ii_lcd\lvgl\src\misc\lv_math.h **** 
  49:d:\kzc\stm32\h743ii_lcd\lvgl\src\misc\lv_math.h **** static inline int16_t LV_ATTRIBUTE_FAST_MEM lv_trigo_cos(int16_t angle)
 873              		.loc 4 49 45 view .LVU275
 874              	.LBB67:
  50:d:\kzc\stm32\h743ii_lcd\lvgl\src\misc\lv_math.h **** {
  51:d:\kzc\stm32\h743ii_lcd\lvgl\src\misc\lv_math.h ****     return lv_trigo_sin(angle + 90);
 875              		.loc 4 51 5 view .LVU276
 876              		.loc 4 51 31 is_stmt 0 view .LVU277
 877 003a 07F15A00 		add	r0, r7, #90
 878              		.loc 4 51 12 view .LVU278
 879 003e 00B2     		sxth	r0, r0
 880 0040 FFF7FEFF 		bl	lv_trigo_sin
 881              	.LVL84:
 882              		.loc 4 51 12 view .LVU279
 883              	.LBE67:
 884              	.LBE66:
 557:lvgl/src/extra/widgets/colorwheel/lv_colorwheel.c ****     colorwheel->knob.pos.x = colorwheel->knob.pos.x + w / 2;
 885              		.loc 1 557 43 view .LVU280
 886 0044 00FB04F4 		mul	r4, r0, r4
 887              	.LVL85:
 557:lvgl/src/extra/widgets/colorwheel/lv_colorwheel.c ****     colorwheel->knob.pos.x = colorwheel->knob.pos.x + w / 2;
 888              		.loc 1 557 28 view .LVU281
 889 0048 44F3CF34 		sbfx	r4, r4, #15, #16
 890 004c 6C85     		strh	r4, [r5, #42]	@ movhi
 558:lvgl/src/extra/widgets/colorwheel/lv_colorwheel.c ****     colorwheel->knob.pos.y = colorwheel->knob.pos.y + w / 2;
 891              		.loc 1 558 5 is_stmt 1 view .LVU282
 558:lvgl/src/extra/widgets/colorwheel/lv_colorwheel.c ****     colorwheel->knob.pos.y = colorwheel->knob.pos.y + w / 2;
 892              		.loc 1 558 50 is_stmt 0 view .LVU283
 893 004e 2B8D     		ldrh	r3, [r5, #40]
ARM GAS  C:\Users\OSD\AppData\Local\Temp\cc5XjPm4.s 			page 50


 558:lvgl/src/extra/widgets/colorwheel/lv_colorwheel.c ****     colorwheel->knob.pos.y = colorwheel->knob.pos.y + w / 2;
 894              		.loc 1 558 53 view .LVU284
 895 0050 3046     		mov	r0, r6
 896 0052 002E     		cmp	r6, #0
 897 0054 0CDB     		blt	.L41
 898              	.L38:
 899 0056 C0F34F00 		ubfx	r0, r0, #1, #16
 900 005a 0344     		add	r3, r3, r0
 558:lvgl/src/extra/widgets/colorwheel/lv_colorwheel.c ****     colorwheel->knob.pos.y = colorwheel->knob.pos.y + w / 2;
 901              		.loc 1 558 28 view .LVU285
 902 005c 2B85     		strh	r3, [r5, #40]	@ movhi
 559:lvgl/src/extra/widgets/colorwheel/lv_colorwheel.c **** 
 903              		.loc 1 559 5 is_stmt 1 view .LVU286
 559:lvgl/src/extra/widgets/colorwheel/lv_colorwheel.c **** 
 904              		.loc 1 559 53 is_stmt 0 view .LVU287
 905 005e 10FA84F4 		uxtah	r4, r0, r4
 559:lvgl/src/extra/widgets/colorwheel/lv_colorwheel.c **** 
 906              		.loc 1 559 28 view .LVU288
 907 0062 6C85     		strh	r4, [r5, #42]	@ movhi
 561:lvgl/src/extra/widgets/colorwheel/lv_colorwheel.c **** }
 908              		.loc 1 561 5 is_stmt 1 view .LVU289
 909 0064 2846     		mov	r0, r5
 910 0066 FFF7FEFF 		bl	invalidate_knob
 911              	.LVL86:
 562:lvgl/src/extra/widgets/colorwheel/lv_colorwheel.c **** 
 912              		.loc 1 562 1 is_stmt 0 view .LVU290
 913 006a F8BD     		pop	{r3, r4, r5, r6, r7, pc}
 914              	.LVL87:
 915              	.L40:
 554:lvgl/src/extra/widgets/colorwheel/lv_colorwheel.c ****     uint16_t angle = get_angle(obj);
 916              		.loc 1 554 34 view .LVU291
 917 006c 0134     		adds	r4, r4, #1
 918 006e D7E7     		b	.L37
 919              	.LVL88:
 920              	.L41:
 558:lvgl/src/extra/widgets/colorwheel/lv_colorwheel.c ****     colorwheel->knob.pos.y = colorwheel->knob.pos.y + w / 2;
 921              		.loc 1 558 53 view .LVU292
 922 0070 701C     		adds	r0, r6, #1
 923 0072 F0E7     		b	.L38
 924              		.cfi_endproc
 925              	.LFE220:
 927              		.section	.text.next_color_mode,"ax",%progbits
 928              		.align	1
 929              		.syntax unified
 930              		.thumb
 931              		.thumb_func
 933              	next_color_mode:
 934              	.LVL89:
 935              	.LFB219:
 539:lvgl/src/extra/widgets/colorwheel/lv_colorwheel.c ****     lv_colorwheel_t * colorwheel = (lv_colorwheel_t *)obj;
 936              		.loc 1 539 1 is_stmt 1 view -0
 937              		.cfi_startproc
 938              		@ args = 0, pretend = 0, frame = 0
 939              		@ frame_needed = 0, uses_anonymous_args = 0
 539:lvgl/src/extra/widgets/colorwheel/lv_colorwheel.c ****     lv_colorwheel_t * colorwheel = (lv_colorwheel_t *)obj;
 940              		.loc 1 539 1 is_stmt 0 view .LVU294
 941 0000 10B5     		push	{r4, lr}
ARM GAS  C:\Users\OSD\AppData\Local\Temp\cc5XjPm4.s 			page 51


 942              		.cfi_def_cfa_offset 8
 943              		.cfi_offset 4, -8
 944              		.cfi_offset 14, -4
 945 0002 0446     		mov	r4, r0
 540:lvgl/src/extra/widgets/colorwheel/lv_colorwheel.c ****     colorwheel->mode = (colorwheel->mode + 1) % 3;
 946              		.loc 1 540 5 is_stmt 1 view .LVU295
 947              	.LVL90:
 541:lvgl/src/extra/widgets/colorwheel/lv_colorwheel.c ****     refr_knob_pos(obj);
 948              		.loc 1 541 5 view .LVU296
 541:lvgl/src/extra/widgets/colorwheel/lv_colorwheel.c ****     refr_knob_pos(obj);
 949              		.loc 1 541 35 is_stmt 0 view .LVU297
 950 0004 90F83C10 		ldrb	r1, [r0, #60]	@ zero_extendqisi2
 951 0008 01F00303 		and	r3, r1, #3
 541:lvgl/src/extra/widgets/colorwheel/lv_colorwheel.c ****     refr_knob_pos(obj);
 952              		.loc 1 541 42 view .LVU298
 953 000c 0133     		adds	r3, r3, #1
 541:lvgl/src/extra/widgets/colorwheel/lv_colorwheel.c ****     refr_knob_pos(obj);
 954              		.loc 1 541 47 view .LVU299
 955 000e 084A     		ldr	r2, .L44
 956 0010 82FB03C2 		smull	ip, r2, r2, r3
 957 0014 02EB4202 		add	r2, r2, r2, lsl #1
 958 0018 9B1A     		subs	r3, r3, r2
 541:lvgl/src/extra/widgets/colorwheel/lv_colorwheel.c ****     refr_knob_pos(obj);
 959              		.loc 1 541 22 view .LVU300
 960 001a 0A46     		mov	r2, r1
 961 001c 63F30102 		bfi	r2, r3, #0, #2
 962 0020 80F83C20 		strb	r2, [r0, #60]
 542:lvgl/src/extra/widgets/colorwheel/lv_colorwheel.c ****     lv_obj_invalidate(obj);
 963              		.loc 1 542 5 is_stmt 1 view .LVU301
 964 0024 FFF7FEFF 		bl	refr_knob_pos
 965              	.LVL91:
 543:lvgl/src/extra/widgets/colorwheel/lv_colorwheel.c **** }
 966              		.loc 1 543 5 view .LVU302
 967 0028 2046     		mov	r0, r4
 968 002a FFF7FEFF 		bl	lv_obj_invalidate
 969              	.LVL92:
 544:lvgl/src/extra/widgets/colorwheel/lv_colorwheel.c **** 
 970              		.loc 1 544 1 is_stmt 0 view .LVU303
 971 002e 10BD     		pop	{r4, pc}
 972              	.LVL93:
 973              	.L45:
 544:lvgl/src/extra/widgets/colorwheel/lv_colorwheel.c **** 
 974              		.loc 1 544 1 view .LVU304
 975              		.align	2
 976              	.L44:
 977 0030 56555555 		.word	1431655766
 978              		.cfi_endproc
 979              	.LFE219:
 981              		.section	.text.draw_disc_grad,"ax",%progbits
 982              		.align	1
 983              		.syntax unified
 984              		.thumb
 985              		.thumb_func
 987              	draw_disc_grad:
 988              	.LVL94:
 989              	.LFB214:
 242:lvgl/src/extra/widgets/colorwheel/lv_colorwheel.c ****     lv_obj_t * obj = lv_event_get_target(e);
ARM GAS  C:\Users\OSD\AppData\Local\Temp\cc5XjPm4.s 			page 52


 990              		.loc 1 242 1 is_stmt 1 view -0
 991              		.cfi_startproc
 992              		@ args = 0, pretend = 0, frame = 104
 993              		@ frame_needed = 0, uses_anonymous_args = 0
 242:lvgl/src/extra/widgets/colorwheel/lv_colorwheel.c ****     lv_obj_t * obj = lv_event_get_target(e);
 994              		.loc 1 242 1 is_stmt 0 view .LVU306
 995 0000 2DE9F04F 		push	{r4, r5, r6, r7, r8, r9, r10, fp, lr}
 996              		.cfi_def_cfa_offset 36
 997              		.cfi_offset 4, -36
 998              		.cfi_offset 5, -32
 999              		.cfi_offset 6, -28
 1000              		.cfi_offset 7, -24
 1001              		.cfi_offset 8, -20
 1002              		.cfi_offset 9, -16
 1003              		.cfi_offset 10, -12
 1004              		.cfi_offset 11, -8
 1005              		.cfi_offset 14, -4
 1006 0004 9BB0     		sub	sp, sp, #108
 1007              		.cfi_def_cfa_offset 144
 1008 0006 0446     		mov	r4, r0
 243:lvgl/src/extra/widgets/colorwheel/lv_colorwheel.c ****     lv_draw_ctx_t * draw_ctx = lv_event_get_draw_ctx(e);
 1009              		.loc 1 243 5 is_stmt 1 view .LVU307
 243:lvgl/src/extra/widgets/colorwheel/lv_colorwheel.c ****     lv_draw_ctx_t * draw_ctx = lv_event_get_draw_ctx(e);
 1010              		.loc 1 243 22 is_stmt 0 view .LVU308
 1011 0008 FFF7FEFF 		bl	lv_event_get_target
 1012              	.LVL95:
 243:lvgl/src/extra/widgets/colorwheel/lv_colorwheel.c ****     lv_draw_ctx_t * draw_ctx = lv_event_get_draw_ctx(e);
 1013              		.loc 1 243 22 view .LVU309
 1014 000c 0546     		mov	r5, r0
 1015 000e 0190     		str	r0, [sp, #4]
 1016              	.LVL96:
 244:lvgl/src/extra/widgets/colorwheel/lv_colorwheel.c ****     lv_coord_t w = lv_obj_get_width(obj);
 1017              		.loc 1 244 5 is_stmt 1 view .LVU310
 244:lvgl/src/extra/widgets/colorwheel/lv_colorwheel.c ****     lv_coord_t w = lv_obj_get_width(obj);
 1018              		.loc 1 244 32 is_stmt 0 view .LVU311
 1019 0010 2046     		mov	r0, r4
 1020              	.LVL97:
 244:lvgl/src/extra/widgets/colorwheel/lv_colorwheel.c ****     lv_coord_t w = lv_obj_get_width(obj);
 1021              		.loc 1 244 32 view .LVU312
 1022 0012 FFF7FEFF 		bl	lv_event_get_draw_ctx
 1023              	.LVL98:
 1024 0016 0290     		str	r0, [sp, #8]
 1025              	.LVL99:
 245:lvgl/src/extra/widgets/colorwheel/lv_colorwheel.c ****     lv_coord_t h = lv_obj_get_height(obj);
 1026              		.loc 1 245 5 is_stmt 1 view .LVU313
 245:lvgl/src/extra/widgets/colorwheel/lv_colorwheel.c ****     lv_coord_t h = lv_obj_get_height(obj);
 1027              		.loc 1 245 20 is_stmt 0 view .LVU314
 1028 0018 2846     		mov	r0, r5
 1029              	.LVL100:
 245:lvgl/src/extra/widgets/colorwheel/lv_colorwheel.c ****     lv_coord_t h = lv_obj_get_height(obj);
 1030              		.loc 1 245 20 view .LVU315
 1031 001a FFF7FEFF 		bl	lv_obj_get_width
 1032              	.LVL101:
 1033 001e 0446     		mov	r4, r0
 1034              	.LVL102:
 246:lvgl/src/extra/widgets/colorwheel/lv_colorwheel.c ****     lv_coord_t cx = obj->coords.x1 + w / 2;
 1035              		.loc 1 246 5 is_stmt 1 view .LVU316
ARM GAS  C:\Users\OSD\AppData\Local\Temp\cc5XjPm4.s 			page 53


 246:lvgl/src/extra/widgets/colorwheel/lv_colorwheel.c ****     lv_coord_t cx = obj->coords.x1 + w / 2;
 1036              		.loc 1 246 20 is_stmt 0 view .LVU317
 1037 0020 2846     		mov	r0, r5
 1038 0022 FFF7FEFF 		bl	lv_obj_get_height
 1039              	.LVL103:
 247:lvgl/src/extra/widgets/colorwheel/lv_colorwheel.c ****     lv_coord_t cy = obj->coords.y1 + h / 2;
 1040              		.loc 1 247 5 is_stmt 1 view .LVU318
 247:lvgl/src/extra/widgets/colorwheel/lv_colorwheel.c ****     lv_coord_t cy = obj->coords.y1 + h / 2;
 1041              		.loc 1 247 32 is_stmt 0 view .LVU319
 1042 0026 B5F814B0 		ldrh	fp, [r5, #20]
 247:lvgl/src/extra/widgets/colorwheel/lv_colorwheel.c ****     lv_coord_t cy = obj->coords.y1 + h / 2;
 1043              		.loc 1 247 36 view .LVU320
 1044 002a A146     		mov	r9, r4
 1045 002c 002C     		cmp	r4, #0
 1046 002e 6BDB     		blt	.L52
 1047              	.L47:
 1048 0030 49F34F09 		sbfx	r9, r9, #1, #16
 1049 0034 CB44     		add	fp, fp, r9
 1050 0036 1FFA8BFB 		uxth	fp, fp
 1051              	.LVL104:
 248:lvgl/src/extra/widgets/colorwheel/lv_colorwheel.c ****     lv_coord_t r = w / 2;
 1052              		.loc 1 248 5 is_stmt 1 view .LVU321
 248:lvgl/src/extra/widgets/colorwheel/lv_colorwheel.c ****     lv_coord_t r = w / 2;
 1053              		.loc 1 248 32 is_stmt 0 view .LVU322
 1054 003a 019B     		ldr	r3, [sp, #4]
 1055 003c B3F816A0 		ldrh	r10, [r3, #22]
 248:lvgl/src/extra/widgets/colorwheel/lv_colorwheel.c ****     lv_coord_t r = w / 2;
 1056              		.loc 1 248 36 view .LVU323
 1057 0040 0346     		mov	r3, r0
 1058 0042 0028     		cmp	r0, #0
 1059 0044 63DB     		blt	.L53
 1060              	.L48:
 1061 0046 0AEB630A 		add	r10, r10, r3, asr #1
 1062 004a 1FFA8AFA 		uxth	r10, r10
 1063              	.LVL105:
 249:lvgl/src/extra/widgets/colorwheel/lv_colorwheel.c **** 
 1064              		.loc 1 249 5 is_stmt 1 view .LVU324
 251:lvgl/src/extra/widgets/colorwheel/lv_colorwheel.c ****     lv_draw_line_dsc_init(&line_dsc);
 1065              		.loc 1 251 5 view .LVU325
 252:lvgl/src/extra/widgets/colorwheel/lv_colorwheel.c ****     lv_obj_init_draw_line_dsc(obj, LV_PART_MAIN, &line_dsc);
 1066              		.loc 1 252 5 view .LVU326
 1067 004e 17A8     		add	r0, sp, #92
 1068              	.LVL106:
 252:lvgl/src/extra/widgets/colorwheel/lv_colorwheel.c ****     lv_obj_init_draw_line_dsc(obj, LV_PART_MAIN, &line_dsc);
 1069              		.loc 1 252 5 is_stmt 0 view .LVU327
 1070 0050 FFF7FEFF 		bl	lv_draw_line_dsc_init
 1071              	.LVL107:
 253:lvgl/src/extra/widgets/colorwheel/lv_colorwheel.c **** 
 1072              		.loc 1 253 5 is_stmt 1 view .LVU328
 1073 0054 17AA     		add	r2, sp, #92
 1074 0056 0021     		movs	r1, #0
 1075 0058 019D     		ldr	r5, [sp, #4]
 1076              	.LVL108:
 253:lvgl/src/extra/widgets/colorwheel/lv_colorwheel.c **** 
 1077              		.loc 1 253 5 is_stmt 0 view .LVU329
 1078 005a 2846     		mov	r0, r5
 1079 005c FFF7FEFF 		bl	lv_obj_init_draw_line_dsc
ARM GAS  C:\Users\OSD\AppData\Local\Temp\cc5XjPm4.s 			page 54


 1080              	.LVL109:
 255:lvgl/src/extra/widgets/colorwheel/lv_colorwheel.c ****     line_dsc.width += 2;
 1081              		.loc 1 255 5 is_stmt 1 view .LVU330
 255:lvgl/src/extra/widgets/colorwheel/lv_colorwheel.c ****     line_dsc.width += 2;
 1082              		.loc 1 255 25 is_stmt 0 view .LVU331
 1083 0060 4FF41D73 		mov	r3, #628
 1084 0064 03FB09F3 		mul	r3, r3, r9
 255:lvgl/src/extra/widgets/colorwheel/lv_colorwheel.c ****     line_dsc.width += 2;
 1085              		.loc 1 255 60 view .LVU332
 1086 0068 534A     		ldr	r2, .L54
 1087 006a 82FB0312 		smull	r1, r2, r2, r3
 1088 006e DB17     		asrs	r3, r3, #31
 1089 0070 C3EB2233 		rsb	r3, r3, r2, asr #12
 255:lvgl/src/extra/widgets/colorwheel/lv_colorwheel.c ****     line_dsc.width += 2;
 1090              		.loc 1 255 20 view .LVU333
 1091 0074 1BB2     		sxth	r3, r3
 1092 0076 ADF86030 		strh	r3, [sp, #96]	@ movhi
 256:lvgl/src/extra/widgets/colorwheel/lv_colorwheel.c ****     uint16_t i;
 1093              		.loc 1 256 5 is_stmt 1 view .LVU334
 256:lvgl/src/extra/widgets/colorwheel/lv_colorwheel.c ****     uint16_t i;
 1094              		.loc 1 256 20 is_stmt 0 view .LVU335
 1095 007a 0233     		adds	r3, r3, #2
 1096 007c ADF86030 		strh	r3, [sp, #96]	@ movhi
 257:lvgl/src/extra/widgets/colorwheel/lv_colorwheel.c ****     uint32_t a = 0;
 1097              		.loc 1 257 5 is_stmt 1 view .LVU336
 258:lvgl/src/extra/widgets/colorwheel/lv_colorwheel.c ****     lv_coord_t cir_w = lv_obj_get_style_arc_width(obj, LV_PART_MAIN);
 1098              		.loc 1 258 5 view .LVU337
 1099              	.LVL110:
 259:lvgl/src/extra/widgets/colorwheel/lv_colorwheel.c **** 
 1100              		.loc 1 259 5 view .LVU338
 1101              	.LBB68:
 1102              	.LBI68:
 409:d:\kzc\stm32\h743ii_lcd\lvgl\src/core\lv_obj_style_gen.h **** {
 1103              		.loc 3 409 26 view .LVU339
 1104              	.LBB69:
 411:d:\kzc\stm32\h743ii_lcd\lvgl\src/core\lv_obj_style_gen.h ****     return (lv_coord_t)v.num;
 1105              		.loc 3 411 5 view .LVU340
 411:d:\kzc\stm32\h743ii_lcd\lvgl\src/core\lv_obj_style_gen.h ****     return (lv_coord_t)v.num;
 1106              		.loc 3 411 26 is_stmt 0 view .LVU341
 1107 0080 5022     		movs	r2, #80
 1108 0082 0021     		movs	r1, #0
 1109 0084 2846     		mov	r0, r5
 1110 0086 FFF7FEFF 		bl	lv_obj_get_style_prop
 1111              	.LVL111:
 1112 008a 0446     		mov	r4, r0
 1113              	.LVL112:
 1114              		.loc 3 412 5 is_stmt 1 view .LVU342
 1115              		.loc 3 412 12 is_stmt 0 view .LVU343
 1116 008c 03B2     		sxth	r3, r0
 1117 008e 0393     		str	r3, [sp, #12]
 1118              	.LVL113:
 1119              		.loc 3 412 12 view .LVU344
 1120              	.LBE69:
 1121              	.LBE68:
 263:lvgl/src/extra/widgets/colorwheel/lv_colorwheel.c ****     lv_draw_mask_radius_init(&mask_out_param, &obj->coords, LV_RADIUS_CIRCLE, false);
 1122              		.loc 1 263 5 is_stmt 1 view .LVU345
 264:lvgl/src/extra/widgets/colorwheel/lv_colorwheel.c ****     int16_t mask_out_id = lv_draw_mask_add(&mask_out_param, 0);
ARM GAS  C:\Users\OSD\AppData\Local\Temp\cc5XjPm4.s 			page 55


 1123              		.loc 1 264 5 view .LVU346
 1124 0090 0023     		movs	r3, #0
 1125 0092 47F6FF72 		movw	r2, #32767
 1126 0096 05F11401 		add	r1, r5, #20
 1127 009a 11A8     		add	r0, sp, #68
 264:lvgl/src/extra/widgets/colorwheel/lv_colorwheel.c ****     int16_t mask_out_id = lv_draw_mask_add(&mask_out_param, 0);
 1128              		.loc 1 264 5 is_stmt 0 view .LVU347
 1129 009c FFF7FEFF 		bl	lv_draw_mask_radius_init
 1130              	.LVL114:
 265:lvgl/src/extra/widgets/colorwheel/lv_colorwheel.c **** 
 1131              		.loc 1 265 5 is_stmt 1 view .LVU348
 265:lvgl/src/extra/widgets/colorwheel/lv_colorwheel.c **** 
 1132              		.loc 1 265 27 is_stmt 0 view .LVU349
 1133 00a0 0021     		movs	r1, #0
 1134 00a2 11A8     		add	r0, sp, #68
 1135 00a4 FFF7FEFF 		bl	lv_draw_mask_add
 1136              	.LVL115:
 1137 00a8 0490     		str	r0, [sp, #16]
 1138              	.LVL116:
 267:lvgl/src/extra/widgets/colorwheel/lv_colorwheel.c ****     lv_area_copy(&mask_area, &obj->coords);
 1139              		.loc 1 267 5 is_stmt 1 view .LVU350
 268:lvgl/src/extra/widgets/colorwheel/lv_colorwheel.c ****     mask_area.x1 += cir_w;
 1140              		.loc 1 268 5 view .LVU351
 1141              	.LBB70:
 1142              	.LBI70:
 1143              		.file 5 "d:\\kzc\\stm32\\h743ii_lcd\\lvgl\\src\\misc\\lv_area.h"
   1:d:\kzc\stm32\h743ii_lcd\lvgl\src\misc\lv_area.h **** /**
   2:d:\kzc\stm32\h743ii_lcd\lvgl\src\misc\lv_area.h ****  * @file lv_area.h
   3:d:\kzc\stm32\h743ii_lcd\lvgl\src\misc\lv_area.h ****  *
   4:d:\kzc\stm32\h743ii_lcd\lvgl\src\misc\lv_area.h ****  */
   5:d:\kzc\stm32\h743ii_lcd\lvgl\src\misc\lv_area.h **** 
   6:d:\kzc\stm32\h743ii_lcd\lvgl\src\misc\lv_area.h **** #ifndef LV_AREA_H
   7:d:\kzc\stm32\h743ii_lcd\lvgl\src\misc\lv_area.h **** #define LV_AREA_H
   8:d:\kzc\stm32\h743ii_lcd\lvgl\src\misc\lv_area.h **** 
   9:d:\kzc\stm32\h743ii_lcd\lvgl\src\misc\lv_area.h **** #ifdef __cplusplus
  10:d:\kzc\stm32\h743ii_lcd\lvgl\src\misc\lv_area.h **** extern "C" {
  11:d:\kzc\stm32\h743ii_lcd\lvgl\src\misc\lv_area.h **** #endif
  12:d:\kzc\stm32\h743ii_lcd\lvgl\src\misc\lv_area.h **** 
  13:d:\kzc\stm32\h743ii_lcd\lvgl\src\misc\lv_area.h **** /*********************
  14:d:\kzc\stm32\h743ii_lcd\lvgl\src\misc\lv_area.h ****  *      INCLUDES
  15:d:\kzc\stm32\h743ii_lcd\lvgl\src\misc\lv_area.h ****  *********************/
  16:d:\kzc\stm32\h743ii_lcd\lvgl\src\misc\lv_area.h **** #include "../lv_conf_internal.h"
  17:d:\kzc\stm32\h743ii_lcd\lvgl\src\misc\lv_area.h **** #include <stdbool.h>
  18:d:\kzc\stm32\h743ii_lcd\lvgl\src\misc\lv_area.h **** #include <stdint.h>
  19:d:\kzc\stm32\h743ii_lcd\lvgl\src\misc\lv_area.h **** 
  20:d:\kzc\stm32\h743ii_lcd\lvgl\src\misc\lv_area.h **** /*********************
  21:d:\kzc\stm32\h743ii_lcd\lvgl\src\misc\lv_area.h ****  *      DEFINES
  22:d:\kzc\stm32\h743ii_lcd\lvgl\src\misc\lv_area.h ****  *********************/
  23:d:\kzc\stm32\h743ii_lcd\lvgl\src\misc\lv_area.h **** 
  24:d:\kzc\stm32\h743ii_lcd\lvgl\src\misc\lv_area.h **** #if LV_USE_LARGE_COORD
  25:d:\kzc\stm32\h743ii_lcd\lvgl\src\misc\lv_area.h **** typedef int32_t lv_coord_t;
  26:d:\kzc\stm32\h743ii_lcd\lvgl\src\misc\lv_area.h **** #else
  27:d:\kzc\stm32\h743ii_lcd\lvgl\src\misc\lv_area.h **** typedef int16_t lv_coord_t;
  28:d:\kzc\stm32\h743ii_lcd\lvgl\src\misc\lv_area.h **** #endif
  29:d:\kzc\stm32\h743ii_lcd\lvgl\src\misc\lv_area.h **** 
  30:d:\kzc\stm32\h743ii_lcd\lvgl\src\misc\lv_area.h **** /**********************
  31:d:\kzc\stm32\h743ii_lcd\lvgl\src\misc\lv_area.h ****  *      TYPEDEFS
ARM GAS  C:\Users\OSD\AppData\Local\Temp\cc5XjPm4.s 			page 56


  32:d:\kzc\stm32\h743ii_lcd\lvgl\src\misc\lv_area.h ****  **********************/
  33:d:\kzc\stm32\h743ii_lcd\lvgl\src\misc\lv_area.h **** 
  34:d:\kzc\stm32\h743ii_lcd\lvgl\src\misc\lv_area.h **** /**
  35:d:\kzc\stm32\h743ii_lcd\lvgl\src\misc\lv_area.h ****  * Represents a point on the screen.
  36:d:\kzc\stm32\h743ii_lcd\lvgl\src\misc\lv_area.h ****  */
  37:d:\kzc\stm32\h743ii_lcd\lvgl\src\misc\lv_area.h **** typedef struct {
  38:d:\kzc\stm32\h743ii_lcd\lvgl\src\misc\lv_area.h ****     lv_coord_t x;
  39:d:\kzc\stm32\h743ii_lcd\lvgl\src\misc\lv_area.h ****     lv_coord_t y;
  40:d:\kzc\stm32\h743ii_lcd\lvgl\src\misc\lv_area.h **** } lv_point_t;
  41:d:\kzc\stm32\h743ii_lcd\lvgl\src\misc\lv_area.h **** 
  42:d:\kzc\stm32\h743ii_lcd\lvgl\src\misc\lv_area.h **** /** Represents an area of the screen.*/
  43:d:\kzc\stm32\h743ii_lcd\lvgl\src\misc\lv_area.h **** typedef struct {
  44:d:\kzc\stm32\h743ii_lcd\lvgl\src\misc\lv_area.h ****     lv_coord_t x1;
  45:d:\kzc\stm32\h743ii_lcd\lvgl\src\misc\lv_area.h ****     lv_coord_t y1;
  46:d:\kzc\stm32\h743ii_lcd\lvgl\src\misc\lv_area.h ****     lv_coord_t x2;
  47:d:\kzc\stm32\h743ii_lcd\lvgl\src\misc\lv_area.h ****     lv_coord_t y2;
  48:d:\kzc\stm32\h743ii_lcd\lvgl\src\misc\lv_area.h **** } lv_area_t;
  49:d:\kzc\stm32\h743ii_lcd\lvgl\src\misc\lv_area.h **** 
  50:d:\kzc\stm32\h743ii_lcd\lvgl\src\misc\lv_area.h **** /** Alignments*/
  51:d:\kzc\stm32\h743ii_lcd\lvgl\src\misc\lv_area.h **** enum {
  52:d:\kzc\stm32\h743ii_lcd\lvgl\src\misc\lv_area.h ****     LV_ALIGN_DEFAULT = 0,
  53:d:\kzc\stm32\h743ii_lcd\lvgl\src\misc\lv_area.h ****     LV_ALIGN_TOP_LEFT,
  54:d:\kzc\stm32\h743ii_lcd\lvgl\src\misc\lv_area.h ****     LV_ALIGN_TOP_MID,
  55:d:\kzc\stm32\h743ii_lcd\lvgl\src\misc\lv_area.h ****     LV_ALIGN_TOP_RIGHT,
  56:d:\kzc\stm32\h743ii_lcd\lvgl\src\misc\lv_area.h ****     LV_ALIGN_BOTTOM_LEFT,
  57:d:\kzc\stm32\h743ii_lcd\lvgl\src\misc\lv_area.h ****     LV_ALIGN_BOTTOM_MID,
  58:d:\kzc\stm32\h743ii_lcd\lvgl\src\misc\lv_area.h ****     LV_ALIGN_BOTTOM_RIGHT,
  59:d:\kzc\stm32\h743ii_lcd\lvgl\src\misc\lv_area.h ****     LV_ALIGN_LEFT_MID,
  60:d:\kzc\stm32\h743ii_lcd\lvgl\src\misc\lv_area.h ****     LV_ALIGN_RIGHT_MID,
  61:d:\kzc\stm32\h743ii_lcd\lvgl\src\misc\lv_area.h ****     LV_ALIGN_CENTER,
  62:d:\kzc\stm32\h743ii_lcd\lvgl\src\misc\lv_area.h **** 
  63:d:\kzc\stm32\h743ii_lcd\lvgl\src\misc\lv_area.h ****     LV_ALIGN_OUT_TOP_LEFT,
  64:d:\kzc\stm32\h743ii_lcd\lvgl\src\misc\lv_area.h ****     LV_ALIGN_OUT_TOP_MID,
  65:d:\kzc\stm32\h743ii_lcd\lvgl\src\misc\lv_area.h ****     LV_ALIGN_OUT_TOP_RIGHT,
  66:d:\kzc\stm32\h743ii_lcd\lvgl\src\misc\lv_area.h ****     LV_ALIGN_OUT_BOTTOM_LEFT,
  67:d:\kzc\stm32\h743ii_lcd\lvgl\src\misc\lv_area.h ****     LV_ALIGN_OUT_BOTTOM_MID,
  68:d:\kzc\stm32\h743ii_lcd\lvgl\src\misc\lv_area.h ****     LV_ALIGN_OUT_BOTTOM_RIGHT,
  69:d:\kzc\stm32\h743ii_lcd\lvgl\src\misc\lv_area.h ****     LV_ALIGN_OUT_LEFT_TOP,
  70:d:\kzc\stm32\h743ii_lcd\lvgl\src\misc\lv_area.h ****     LV_ALIGN_OUT_LEFT_MID,
  71:d:\kzc\stm32\h743ii_lcd\lvgl\src\misc\lv_area.h ****     LV_ALIGN_OUT_LEFT_BOTTOM,
  72:d:\kzc\stm32\h743ii_lcd\lvgl\src\misc\lv_area.h ****     LV_ALIGN_OUT_RIGHT_TOP,
  73:d:\kzc\stm32\h743ii_lcd\lvgl\src\misc\lv_area.h ****     LV_ALIGN_OUT_RIGHT_MID,
  74:d:\kzc\stm32\h743ii_lcd\lvgl\src\misc\lv_area.h ****     LV_ALIGN_OUT_RIGHT_BOTTOM,
  75:d:\kzc\stm32\h743ii_lcd\lvgl\src\misc\lv_area.h **** };
  76:d:\kzc\stm32\h743ii_lcd\lvgl\src\misc\lv_area.h **** typedef uint8_t lv_align_t;
  77:d:\kzc\stm32\h743ii_lcd\lvgl\src\misc\lv_area.h **** 
  78:d:\kzc\stm32\h743ii_lcd\lvgl\src\misc\lv_area.h **** enum {
  79:d:\kzc\stm32\h743ii_lcd\lvgl\src\misc\lv_area.h ****     LV_DIR_NONE     = 0x00,
  80:d:\kzc\stm32\h743ii_lcd\lvgl\src\misc\lv_area.h ****     LV_DIR_LEFT     = (1 << 0),
  81:d:\kzc\stm32\h743ii_lcd\lvgl\src\misc\lv_area.h ****     LV_DIR_RIGHT    = (1 << 1),
  82:d:\kzc\stm32\h743ii_lcd\lvgl\src\misc\lv_area.h ****     LV_DIR_TOP      = (1 << 2),
  83:d:\kzc\stm32\h743ii_lcd\lvgl\src\misc\lv_area.h ****     LV_DIR_BOTTOM   = (1 << 3),
  84:d:\kzc\stm32\h743ii_lcd\lvgl\src\misc\lv_area.h ****     LV_DIR_HOR      = LV_DIR_LEFT | LV_DIR_RIGHT,
  85:d:\kzc\stm32\h743ii_lcd\lvgl\src\misc\lv_area.h ****     LV_DIR_VER      = LV_DIR_TOP | LV_DIR_BOTTOM,
  86:d:\kzc\stm32\h743ii_lcd\lvgl\src\misc\lv_area.h ****     LV_DIR_ALL      = LV_DIR_HOR | LV_DIR_VER,
  87:d:\kzc\stm32\h743ii_lcd\lvgl\src\misc\lv_area.h **** };
  88:d:\kzc\stm32\h743ii_lcd\lvgl\src\misc\lv_area.h **** 
ARM GAS  C:\Users\OSD\AppData\Local\Temp\cc5XjPm4.s 			page 57


  89:d:\kzc\stm32\h743ii_lcd\lvgl\src\misc\lv_area.h **** typedef uint8_t lv_dir_t;
  90:d:\kzc\stm32\h743ii_lcd\lvgl\src\misc\lv_area.h **** 
  91:d:\kzc\stm32\h743ii_lcd\lvgl\src\misc\lv_area.h **** /**********************
  92:d:\kzc\stm32\h743ii_lcd\lvgl\src\misc\lv_area.h ****  * GLOBAL PROTOTYPES
  93:d:\kzc\stm32\h743ii_lcd\lvgl\src\misc\lv_area.h ****  **********************/
  94:d:\kzc\stm32\h743ii_lcd\lvgl\src\misc\lv_area.h **** 
  95:d:\kzc\stm32\h743ii_lcd\lvgl\src\misc\lv_area.h **** /**
  96:d:\kzc\stm32\h743ii_lcd\lvgl\src\misc\lv_area.h ****  * Initialize an area
  97:d:\kzc\stm32\h743ii_lcd\lvgl\src\misc\lv_area.h ****  * @param area_p pointer to an area
  98:d:\kzc\stm32\h743ii_lcd\lvgl\src\misc\lv_area.h ****  * @param x1 left coordinate of the area
  99:d:\kzc\stm32\h743ii_lcd\lvgl\src\misc\lv_area.h ****  * @param y1 top coordinate of the area
 100:d:\kzc\stm32\h743ii_lcd\lvgl\src\misc\lv_area.h ****  * @param x2 right coordinate of the area
 101:d:\kzc\stm32\h743ii_lcd\lvgl\src\misc\lv_area.h ****  * @param y2 bottom coordinate of the area
 102:d:\kzc\stm32\h743ii_lcd\lvgl\src\misc\lv_area.h ****  */
 103:d:\kzc\stm32\h743ii_lcd\lvgl\src\misc\lv_area.h **** void lv_area_set(lv_area_t * area_p, lv_coord_t x1, lv_coord_t y1, lv_coord_t x2, lv_coord_t y2);
 104:d:\kzc\stm32\h743ii_lcd\lvgl\src\misc\lv_area.h **** 
 105:d:\kzc\stm32\h743ii_lcd\lvgl\src\misc\lv_area.h **** /**
 106:d:\kzc\stm32\h743ii_lcd\lvgl\src\misc\lv_area.h ****  * Copy an area
 107:d:\kzc\stm32\h743ii_lcd\lvgl\src\misc\lv_area.h ****  * @param dest pointer to the destination area
 108:d:\kzc\stm32\h743ii_lcd\lvgl\src\misc\lv_area.h ****  * @param src pointer to the source area
 109:d:\kzc\stm32\h743ii_lcd\lvgl\src\misc\lv_area.h ****  */
 110:d:\kzc\stm32\h743ii_lcd\lvgl\src\misc\lv_area.h **** inline static void lv_area_copy(lv_area_t * dest, const lv_area_t * src)
 1144              		.loc 5 110 20 view .LVU352
 1145              	.LBB71:
 111:d:\kzc\stm32\h743ii_lcd\lvgl\src\misc\lv_area.h **** {
 112:d:\kzc\stm32\h743ii_lcd\lvgl\src\misc\lv_area.h ****     dest->x1 = src->x1;
 1146              		.loc 5 112 5 view .LVU353
 1147              		.loc 5 112 19 is_stmt 0 view .LVU354
 1148 00aa B5F91400 		ldrsh	r0, [r5, #20]
 1149              		.loc 5 112 14 view .LVU355
 1150 00ae ADF83C00 		strh	r0, [sp, #60]	@ movhi
 113:d:\kzc\stm32\h743ii_lcd\lvgl\src\misc\lv_area.h ****     dest->y1 = src->y1;
 1151              		.loc 5 113 5 is_stmt 1 view .LVU356
 1152              		.loc 5 113 19 is_stmt 0 view .LVU357
 1153 00b2 B5F91620 		ldrsh	r2, [r5, #22]
 1154              		.loc 5 113 14 view .LVU358
 1155 00b6 ADF83E20 		strh	r2, [sp, #62]	@ movhi
 114:d:\kzc\stm32\h743ii_lcd\lvgl\src\misc\lv_area.h ****     dest->x2 = src->x2;
 1156              		.loc 5 114 5 is_stmt 1 view .LVU359
 1157              		.loc 5 114 19 is_stmt 0 view .LVU360
 1158 00ba B5F91810 		ldrsh	r1, [r5, #24]
 1159              		.loc 5 114 14 view .LVU361
 1160 00be ADF84010 		strh	r1, [sp, #64]	@ movhi
 115:d:\kzc\stm32\h743ii_lcd\lvgl\src\misc\lv_area.h ****     dest->y2 = src->y2;
 1161              		.loc 5 115 5 is_stmt 1 view .LVU362
 1162              		.loc 5 115 19 is_stmt 0 view .LVU363
 1163 00c2 B5F91A30 		ldrsh	r3, [r5, #26]
 1164              		.loc 5 115 14 view .LVU364
 1165 00c6 ADF84230 		strh	r3, [sp, #66]	@ movhi
 1166              	.LVL117:
 1167              		.loc 5 115 14 view .LVU365
 1168              	.LBE71:
 1169              	.LBE70:
 269:lvgl/src/extra/widgets/colorwheel/lv_colorwheel.c ****     mask_area.x2 -= cir_w;
 1170              		.loc 1 269 5 is_stmt 1 view .LVU366
 269:lvgl/src/extra/widgets/colorwheel/lv_colorwheel.c ****     mask_area.x2 -= cir_w;
 1171              		.loc 1 269 18 is_stmt 0 view .LVU367
ARM GAS  C:\Users\OSD\AppData\Local\Temp\cc5XjPm4.s 			page 58


 1172 00ca A4B2     		uxth	r4, r4
 269:lvgl/src/extra/widgets/colorwheel/lv_colorwheel.c ****     mask_area.x2 -= cir_w;
 1173              		.loc 1 269 18 view .LVU368
 1174 00cc 2044     		add	r0, r0, r4
 1175 00ce ADF83C00 		strh	r0, [sp, #60]	@ movhi
 270:lvgl/src/extra/widgets/colorwheel/lv_colorwheel.c ****     mask_area.y1 += cir_w;
 1176              		.loc 1 270 5 is_stmt 1 view .LVU369
 270:lvgl/src/extra/widgets/colorwheel/lv_colorwheel.c ****     mask_area.y1 += cir_w;
 1177              		.loc 1 270 18 is_stmt 0 view .LVU370
 1178 00d2 091B     		subs	r1, r1, r4
 1179 00d4 ADF84010 		strh	r1, [sp, #64]	@ movhi
 271:lvgl/src/extra/widgets/colorwheel/lv_colorwheel.c ****     mask_area.y2 -= cir_w;
 1180              		.loc 1 271 5 is_stmt 1 view .LVU371
 271:lvgl/src/extra/widgets/colorwheel/lv_colorwheel.c ****     mask_area.y2 -= cir_w;
 1181              		.loc 1 271 18 is_stmt 0 view .LVU372
 1182 00d8 2244     		add	r2, r2, r4
 1183 00da ADF83E20 		strh	r2, [sp, #62]	@ movhi
 272:lvgl/src/extra/widgets/colorwheel/lv_colorwheel.c ****     lv_draw_mask_radius_param_t mask_in_param;
 1184              		.loc 1 272 5 is_stmt 1 view .LVU373
 272:lvgl/src/extra/widgets/colorwheel/lv_colorwheel.c ****     lv_draw_mask_radius_param_t mask_in_param;
 1185              		.loc 1 272 18 is_stmt 0 view .LVU374
 1186 00de 1B1B     		subs	r3, r3, r4
 1187 00e0 ADF84230 		strh	r3, [sp, #66]	@ movhi
 273:lvgl/src/extra/widgets/colorwheel/lv_colorwheel.c ****     lv_draw_mask_radius_init(&mask_in_param, &mask_area, LV_RADIUS_CIRCLE, true);
 1188              		.loc 1 273 5 is_stmt 1 view .LVU375
 274:lvgl/src/extra/widgets/colorwheel/lv_colorwheel.c ****     int16_t mask_in_id = lv_draw_mask_add(&mask_in_param, 0);
 1189              		.loc 1 274 5 view .LVU376
 1190 00e4 0123     		movs	r3, #1
 1191 00e6 47F6FF72 		movw	r2, #32767
 1192 00ea 0FA9     		add	r1, sp, #60
 1193 00ec 09A8     		add	r0, sp, #36
 1194 00ee FFF7FEFF 		bl	lv_draw_mask_radius_init
