ARM GAS  C:\Users\OSD\AppData\Local\Temp\ccyrCEHe.s 			page 1


   1              		.cpu cortex-m7
   2              		.arch armv7e-m
   3              		.fpu fpv5-d16
   4              		.eabi_attribute 28, 1
   5              		.eabi_attribute 20, 1
   6              		.eabi_attribute 21, 1
   7              		.eabi_attribute 23, 3
   8              		.eabi_attribute 24, 1
   9              		.eabi_attribute 25, 1
  10              		.eabi_attribute 26, 1
  11              		.eabi_attribute 30, 1
  12              		.eabi_attribute 34, 1
  13              		.eabi_attribute 18, 4
  14              		.file	"lv_calendar.c"
  15              		.text
  16              	.Ltext0:
  17              		.cfi_sections	.debug_frame
  18              		.section	.text.is_leap_year,"ax",%progbits
  19              		.align	1
  20              		.syntax unified
  21              		.thumb
  22              		.thumb_func
  24              	is_leap_year:
  25              	.LVL0:
  26              	.LFB218:
  27              		.file 1 "lvgl/src/extra/widgets/calendar/lv_calendar.c"
   1:lvgl/src/extra/widgets/calendar/lv_calendar.c **** /**
   2:lvgl/src/extra/widgets/calendar/lv_calendar.c ****  * @file lv_calendar.c
   3:lvgl/src/extra/widgets/calendar/lv_calendar.c ****  *
   4:lvgl/src/extra/widgets/calendar/lv_calendar.c ****  */
   5:lvgl/src/extra/widgets/calendar/lv_calendar.c **** 
   6:lvgl/src/extra/widgets/calendar/lv_calendar.c **** /*********************
   7:lvgl/src/extra/widgets/calendar/lv_calendar.c ****  *      INCLUDES
   8:lvgl/src/extra/widgets/calendar/lv_calendar.c ****  *********************/
   9:lvgl/src/extra/widgets/calendar/lv_calendar.c **** #include "lv_calendar.h"
  10:lvgl/src/extra/widgets/calendar/lv_calendar.c **** #include "../../../lvgl.h"
  11:lvgl/src/extra/widgets/calendar/lv_calendar.c **** #if LV_USE_CALENDAR
  12:lvgl/src/extra/widgets/calendar/lv_calendar.c **** 
  13:lvgl/src/extra/widgets/calendar/lv_calendar.c **** #include "../../../misc/lv_assert.h"
  14:lvgl/src/extra/widgets/calendar/lv_calendar.c **** 
  15:lvgl/src/extra/widgets/calendar/lv_calendar.c **** /*********************
  16:lvgl/src/extra/widgets/calendar/lv_calendar.c ****  *      DEFINES
  17:lvgl/src/extra/widgets/calendar/lv_calendar.c ****  *********************/
  18:lvgl/src/extra/widgets/calendar/lv_calendar.c **** #define LV_CALENDAR_CTRL_TODAY      LV_BTNMATRIX_CTRL_CUSTOM_1
  19:lvgl/src/extra/widgets/calendar/lv_calendar.c **** #define LV_CALENDAR_CTRL_HIGHLIGHT  LV_BTNMATRIX_CTRL_CUSTOM_2
  20:lvgl/src/extra/widgets/calendar/lv_calendar.c **** 
  21:lvgl/src/extra/widgets/calendar/lv_calendar.c **** #define MY_CLASS &lv_calendar_class
  22:lvgl/src/extra/widgets/calendar/lv_calendar.c **** 
  23:lvgl/src/extra/widgets/calendar/lv_calendar.c **** /**********************
  24:lvgl/src/extra/widgets/calendar/lv_calendar.c ****  *      TYPEDEFS
  25:lvgl/src/extra/widgets/calendar/lv_calendar.c ****  **********************/
  26:lvgl/src/extra/widgets/calendar/lv_calendar.c **** 
  27:lvgl/src/extra/widgets/calendar/lv_calendar.c **** /**********************
  28:lvgl/src/extra/widgets/calendar/lv_calendar.c ****  *  STATIC PROTOTYPES
  29:lvgl/src/extra/widgets/calendar/lv_calendar.c ****  **********************/
  30:lvgl/src/extra/widgets/calendar/lv_calendar.c **** static void lv_calendar_constructor(const lv_obj_class_t * class_p, lv_obj_t * obj);
  31:lvgl/src/extra/widgets/calendar/lv_calendar.c **** static void draw_part_begin_event_cb(lv_event_t * e);
ARM GAS  C:\Users\OSD\AppData\Local\Temp\ccyrCEHe.s 			page 2


  32:lvgl/src/extra/widgets/calendar/lv_calendar.c **** 
  33:lvgl/src/extra/widgets/calendar/lv_calendar.c **** static uint8_t get_day_of_week(uint32_t year, uint32_t month, uint32_t day);
  34:lvgl/src/extra/widgets/calendar/lv_calendar.c **** static uint8_t get_month_length(int32_t year, int32_t month);
  35:lvgl/src/extra/widgets/calendar/lv_calendar.c **** static uint8_t is_leap_year(uint32_t year);
  36:lvgl/src/extra/widgets/calendar/lv_calendar.c **** static void highlight_update(lv_obj_t * calendar);
  37:lvgl/src/extra/widgets/calendar/lv_calendar.c **** 
  38:lvgl/src/extra/widgets/calendar/lv_calendar.c **** /**********************
  39:lvgl/src/extra/widgets/calendar/lv_calendar.c ****  *  STATIC VARIABLES
  40:lvgl/src/extra/widgets/calendar/lv_calendar.c ****  **********************/
  41:lvgl/src/extra/widgets/calendar/lv_calendar.c **** const lv_obj_class_t lv_calendar_class = {
  42:lvgl/src/extra/widgets/calendar/lv_calendar.c ****     .constructor_cb = lv_calendar_constructor,
  43:lvgl/src/extra/widgets/calendar/lv_calendar.c ****     .width_def = (LV_DPI_DEF * 3) / 2,
  44:lvgl/src/extra/widgets/calendar/lv_calendar.c ****     .height_def = (LV_DPI_DEF * 3) / 2,
  45:lvgl/src/extra/widgets/calendar/lv_calendar.c ****     .group_def = LV_OBJ_CLASS_GROUP_DEF_TRUE,
  46:lvgl/src/extra/widgets/calendar/lv_calendar.c ****     .instance_size = sizeof(lv_calendar_t),
  47:lvgl/src/extra/widgets/calendar/lv_calendar.c ****     .base_class = &lv_obj_class
  48:lvgl/src/extra/widgets/calendar/lv_calendar.c **** };
  49:lvgl/src/extra/widgets/calendar/lv_calendar.c **** 
  50:lvgl/src/extra/widgets/calendar/lv_calendar.c **** static const char * day_names_def[7] = LV_CALENDAR_DEFAULT_DAY_NAMES;
  51:lvgl/src/extra/widgets/calendar/lv_calendar.c **** 
  52:lvgl/src/extra/widgets/calendar/lv_calendar.c **** /**********************
  53:lvgl/src/extra/widgets/calendar/lv_calendar.c ****  *      MACROS
  54:lvgl/src/extra/widgets/calendar/lv_calendar.c ****  **********************/
  55:lvgl/src/extra/widgets/calendar/lv_calendar.c **** 
  56:lvgl/src/extra/widgets/calendar/lv_calendar.c **** /**********************
  57:lvgl/src/extra/widgets/calendar/lv_calendar.c ****  *   GLOBAL FUNCTIONS
  58:lvgl/src/extra/widgets/calendar/lv_calendar.c ****  **********************/
  59:lvgl/src/extra/widgets/calendar/lv_calendar.c **** 
  60:lvgl/src/extra/widgets/calendar/lv_calendar.c **** lv_obj_t * lv_calendar_create(lv_obj_t * parent)
  61:lvgl/src/extra/widgets/calendar/lv_calendar.c **** {
  62:lvgl/src/extra/widgets/calendar/lv_calendar.c ****     LV_LOG_INFO("begin");
  63:lvgl/src/extra/widgets/calendar/lv_calendar.c ****     lv_obj_t * obj = lv_obj_class_create_obj(&lv_calendar_class, parent);
  64:lvgl/src/extra/widgets/calendar/lv_calendar.c ****     lv_obj_class_init_obj(obj);
  65:lvgl/src/extra/widgets/calendar/lv_calendar.c ****     return obj;
  66:lvgl/src/extra/widgets/calendar/lv_calendar.c **** }
  67:lvgl/src/extra/widgets/calendar/lv_calendar.c **** 
  68:lvgl/src/extra/widgets/calendar/lv_calendar.c **** /*=====================
  69:lvgl/src/extra/widgets/calendar/lv_calendar.c ****  * Setter functions
  70:lvgl/src/extra/widgets/calendar/lv_calendar.c ****  *====================*/
  71:lvgl/src/extra/widgets/calendar/lv_calendar.c **** 
  72:lvgl/src/extra/widgets/calendar/lv_calendar.c **** void lv_calendar_set_day_names(lv_obj_t * obj, const char * day_names[])
  73:lvgl/src/extra/widgets/calendar/lv_calendar.c **** {
  74:lvgl/src/extra/widgets/calendar/lv_calendar.c ****     LV_ASSERT_OBJ(obj, MY_CLASS);
  75:lvgl/src/extra/widgets/calendar/lv_calendar.c ****     lv_calendar_t * calendar = (lv_calendar_t *)obj;
  76:lvgl/src/extra/widgets/calendar/lv_calendar.c **** 
  77:lvgl/src/extra/widgets/calendar/lv_calendar.c ****     uint32_t i;
  78:lvgl/src/extra/widgets/calendar/lv_calendar.c ****     for(i = 0; i < 7; i++) {
  79:lvgl/src/extra/widgets/calendar/lv_calendar.c ****         calendar->map[i] = day_names[i];
  80:lvgl/src/extra/widgets/calendar/lv_calendar.c ****     }
  81:lvgl/src/extra/widgets/calendar/lv_calendar.c ****     lv_obj_invalidate(obj);
  82:lvgl/src/extra/widgets/calendar/lv_calendar.c **** }
  83:lvgl/src/extra/widgets/calendar/lv_calendar.c **** 
  84:lvgl/src/extra/widgets/calendar/lv_calendar.c **** void lv_calendar_set_today_date(lv_obj_t * obj, uint32_t year, uint32_t month, uint32_t day)
  85:lvgl/src/extra/widgets/calendar/lv_calendar.c **** {
  86:lvgl/src/extra/widgets/calendar/lv_calendar.c ****     LV_ASSERT_OBJ(obj, MY_CLASS);
  87:lvgl/src/extra/widgets/calendar/lv_calendar.c ****     lv_calendar_t * calendar = (lv_calendar_t *)obj;
  88:lvgl/src/extra/widgets/calendar/lv_calendar.c **** 
ARM GAS  C:\Users\OSD\AppData\Local\Temp\ccyrCEHe.s 			page 3


  89:lvgl/src/extra/widgets/calendar/lv_calendar.c ****     calendar->today.year         = year;
  90:lvgl/src/extra/widgets/calendar/lv_calendar.c ****     calendar->today.month        = month;
  91:lvgl/src/extra/widgets/calendar/lv_calendar.c ****     calendar->today.day          = day;
  92:lvgl/src/extra/widgets/calendar/lv_calendar.c **** 
  93:lvgl/src/extra/widgets/calendar/lv_calendar.c ****     highlight_update(obj);
  94:lvgl/src/extra/widgets/calendar/lv_calendar.c **** }
  95:lvgl/src/extra/widgets/calendar/lv_calendar.c **** 
  96:lvgl/src/extra/widgets/calendar/lv_calendar.c **** void lv_calendar_set_highlighted_dates(lv_obj_t * obj, lv_calendar_date_t highlighted[], uint16_t d
  97:lvgl/src/extra/widgets/calendar/lv_calendar.c **** {
  98:lvgl/src/extra/widgets/calendar/lv_calendar.c ****     LV_ASSERT_NULL(highlighted);
  99:lvgl/src/extra/widgets/calendar/lv_calendar.c **** 
 100:lvgl/src/extra/widgets/calendar/lv_calendar.c ****     LV_ASSERT_OBJ(obj, MY_CLASS);
 101:lvgl/src/extra/widgets/calendar/lv_calendar.c ****     lv_calendar_t * calendar = (lv_calendar_t *)obj;
 102:lvgl/src/extra/widgets/calendar/lv_calendar.c **** 
 103:lvgl/src/extra/widgets/calendar/lv_calendar.c ****     calendar->highlighted_dates     = highlighted;
 104:lvgl/src/extra/widgets/calendar/lv_calendar.c ****     calendar->highlighted_dates_num = date_num;
 105:lvgl/src/extra/widgets/calendar/lv_calendar.c **** 
 106:lvgl/src/extra/widgets/calendar/lv_calendar.c ****     highlight_update(obj);
 107:lvgl/src/extra/widgets/calendar/lv_calendar.c **** }
 108:lvgl/src/extra/widgets/calendar/lv_calendar.c **** 
 109:lvgl/src/extra/widgets/calendar/lv_calendar.c **** void lv_calendar_set_showed_date(lv_obj_t * obj, uint32_t year, uint32_t month)
 110:lvgl/src/extra/widgets/calendar/lv_calendar.c **** {
 111:lvgl/src/extra/widgets/calendar/lv_calendar.c ****     LV_ASSERT_OBJ(obj, MY_CLASS);
 112:lvgl/src/extra/widgets/calendar/lv_calendar.c ****     lv_calendar_t * calendar = (lv_calendar_t *)obj;
 113:lvgl/src/extra/widgets/calendar/lv_calendar.c **** 
 114:lvgl/src/extra/widgets/calendar/lv_calendar.c ****     calendar->showed_date.year   = year;
 115:lvgl/src/extra/widgets/calendar/lv_calendar.c ****     calendar->showed_date.month  = month;
 116:lvgl/src/extra/widgets/calendar/lv_calendar.c ****     calendar->showed_date.day    = 1;
 117:lvgl/src/extra/widgets/calendar/lv_calendar.c **** 
 118:lvgl/src/extra/widgets/calendar/lv_calendar.c ****     lv_calendar_date_t d;
 119:lvgl/src/extra/widgets/calendar/lv_calendar.c ****     d.year = calendar->showed_date.year;
 120:lvgl/src/extra/widgets/calendar/lv_calendar.c ****     d.month = calendar->showed_date.month;
 121:lvgl/src/extra/widgets/calendar/lv_calendar.c ****     d.day = calendar->showed_date.day;
 122:lvgl/src/extra/widgets/calendar/lv_calendar.c **** 
 123:lvgl/src/extra/widgets/calendar/lv_calendar.c ****     uint32_t i;
 124:lvgl/src/extra/widgets/calendar/lv_calendar.c **** 
 125:lvgl/src/extra/widgets/calendar/lv_calendar.c ****     /*Remove the disabled state but revert it for day names*/
 126:lvgl/src/extra/widgets/calendar/lv_calendar.c ****     lv_btnmatrix_clear_btn_ctrl_all(calendar->btnm, LV_BTNMATRIX_CTRL_DISABLED);
 127:lvgl/src/extra/widgets/calendar/lv_calendar.c ****     for(i = 0; i < 7; i++) {
 128:lvgl/src/extra/widgets/calendar/lv_calendar.c ****         lv_btnmatrix_set_btn_ctrl(calendar->btnm, i, LV_BTNMATRIX_CTRL_DISABLED);
 129:lvgl/src/extra/widgets/calendar/lv_calendar.c ****     }
 130:lvgl/src/extra/widgets/calendar/lv_calendar.c **** 
 131:lvgl/src/extra/widgets/calendar/lv_calendar.c ****     uint8_t act_mo_len = get_month_length(d.year, d.month);
 132:lvgl/src/extra/widgets/calendar/lv_calendar.c ****     uint8_t day_first = get_day_of_week(d.year, d.month, 1);
 133:lvgl/src/extra/widgets/calendar/lv_calendar.c ****     uint8_t c;
 134:lvgl/src/extra/widgets/calendar/lv_calendar.c ****     for(i = day_first, c = 1; i < act_mo_len + day_first; i++, c++) {
 135:lvgl/src/extra/widgets/calendar/lv_calendar.c ****         lv_snprintf(calendar->nums[i], sizeof(calendar->nums[0]), "%d", c);
 136:lvgl/src/extra/widgets/calendar/lv_calendar.c ****     }
 137:lvgl/src/extra/widgets/calendar/lv_calendar.c **** 
 138:lvgl/src/extra/widgets/calendar/lv_calendar.c ****     uint8_t prev_mo_len = get_month_length(d.year, d.month - 1);
 139:lvgl/src/extra/widgets/calendar/lv_calendar.c ****     for(i = 0, c = prev_mo_len - day_first + 1; i < day_first; i++, c++) {
 140:lvgl/src/extra/widgets/calendar/lv_calendar.c ****         lv_snprintf(calendar->nums[i], sizeof(calendar->nums[0]), "%d", c);
 141:lvgl/src/extra/widgets/calendar/lv_calendar.c ****         lv_btnmatrix_set_btn_ctrl(calendar->btnm, i + 7, LV_BTNMATRIX_CTRL_DISABLED);
 142:lvgl/src/extra/widgets/calendar/lv_calendar.c ****     }
 143:lvgl/src/extra/widgets/calendar/lv_calendar.c **** 
 144:lvgl/src/extra/widgets/calendar/lv_calendar.c ****     for(i = day_first + act_mo_len, c = 1; i < 6 * 7; i++, c++) {
 145:lvgl/src/extra/widgets/calendar/lv_calendar.c ****         lv_snprintf(calendar->nums[i], sizeof(calendar->nums[0]), "%d", c);
ARM GAS  C:\Users\OSD\AppData\Local\Temp\ccyrCEHe.s 			page 4


 146:lvgl/src/extra/widgets/calendar/lv_calendar.c ****         lv_btnmatrix_set_btn_ctrl(calendar->btnm, i + 7, LV_BTNMATRIX_CTRL_DISABLED);
 147:lvgl/src/extra/widgets/calendar/lv_calendar.c ****     }
 148:lvgl/src/extra/widgets/calendar/lv_calendar.c **** 
 149:lvgl/src/extra/widgets/calendar/lv_calendar.c ****     highlight_update(obj);
 150:lvgl/src/extra/widgets/calendar/lv_calendar.c **** 
 151:lvgl/src/extra/widgets/calendar/lv_calendar.c ****     /*Reset the focused button if the days changes*/
 152:lvgl/src/extra/widgets/calendar/lv_calendar.c ****     if(lv_btnmatrix_get_selected_btn(calendar->btnm) != LV_BTNMATRIX_BTN_NONE) {
 153:lvgl/src/extra/widgets/calendar/lv_calendar.c ****         lv_btnmatrix_set_selected_btn(calendar->btnm, day_first + 7);
 154:lvgl/src/extra/widgets/calendar/lv_calendar.c ****     }
 155:lvgl/src/extra/widgets/calendar/lv_calendar.c **** 
 156:lvgl/src/extra/widgets/calendar/lv_calendar.c ****     lv_obj_invalidate(obj);
 157:lvgl/src/extra/widgets/calendar/lv_calendar.c **** 
 158:lvgl/src/extra/widgets/calendar/lv_calendar.c ****     /* The children of the calendar are probably headers.
 159:lvgl/src/extra/widgets/calendar/lv_calendar.c ****      * Notify them to let the headers updated to the new date*/
 160:lvgl/src/extra/widgets/calendar/lv_calendar.c ****     uint32_t child_cnt = lv_obj_get_child_cnt(obj);
 161:lvgl/src/extra/widgets/calendar/lv_calendar.c ****     for(i = 0; i < child_cnt; i++) {
 162:lvgl/src/extra/widgets/calendar/lv_calendar.c ****         lv_obj_t * child = lv_obj_get_child(obj, i);
 163:lvgl/src/extra/widgets/calendar/lv_calendar.c ****         if(child == calendar->btnm) continue;
 164:lvgl/src/extra/widgets/calendar/lv_calendar.c ****         lv_event_send(child, LV_EVENT_VALUE_CHANGED, obj);
 165:lvgl/src/extra/widgets/calendar/lv_calendar.c ****     }
 166:lvgl/src/extra/widgets/calendar/lv_calendar.c **** }
 167:lvgl/src/extra/widgets/calendar/lv_calendar.c **** 
 168:lvgl/src/extra/widgets/calendar/lv_calendar.c **** /*=====================
 169:lvgl/src/extra/widgets/calendar/lv_calendar.c ****  * Getter functions
 170:lvgl/src/extra/widgets/calendar/lv_calendar.c ****  *====================*/
 171:lvgl/src/extra/widgets/calendar/lv_calendar.c **** 
 172:lvgl/src/extra/widgets/calendar/lv_calendar.c **** lv_obj_t * lv_calendar_get_btnmatrix(const lv_obj_t * obj)
 173:lvgl/src/extra/widgets/calendar/lv_calendar.c **** {
 174:lvgl/src/extra/widgets/calendar/lv_calendar.c ****     LV_ASSERT_OBJ(obj, MY_CLASS);
 175:lvgl/src/extra/widgets/calendar/lv_calendar.c ****     const lv_calendar_t * calendar = (lv_calendar_t *)obj;
 176:lvgl/src/extra/widgets/calendar/lv_calendar.c ****     return calendar->btnm;
 177:lvgl/src/extra/widgets/calendar/lv_calendar.c **** }
 178:lvgl/src/extra/widgets/calendar/lv_calendar.c **** 
 179:lvgl/src/extra/widgets/calendar/lv_calendar.c **** const lv_calendar_date_t * lv_calendar_get_today_date(const lv_obj_t * obj)
 180:lvgl/src/extra/widgets/calendar/lv_calendar.c **** {
 181:lvgl/src/extra/widgets/calendar/lv_calendar.c ****     LV_ASSERT_OBJ(obj, MY_CLASS);
 182:lvgl/src/extra/widgets/calendar/lv_calendar.c ****     const lv_calendar_t * calendar = (lv_calendar_t *)obj;
 183:lvgl/src/extra/widgets/calendar/lv_calendar.c **** 
 184:lvgl/src/extra/widgets/calendar/lv_calendar.c ****     return &calendar->today;
 185:lvgl/src/extra/widgets/calendar/lv_calendar.c **** }
 186:lvgl/src/extra/widgets/calendar/lv_calendar.c **** 
 187:lvgl/src/extra/widgets/calendar/lv_calendar.c **** const lv_calendar_date_t * lv_calendar_get_showed_date(const lv_obj_t * obj)
 188:lvgl/src/extra/widgets/calendar/lv_calendar.c **** {
 189:lvgl/src/extra/widgets/calendar/lv_calendar.c ****     LV_ASSERT_OBJ(obj, MY_CLASS);
 190:lvgl/src/extra/widgets/calendar/lv_calendar.c ****     const lv_calendar_t * calendar = (lv_calendar_t *)obj;
 191:lvgl/src/extra/widgets/calendar/lv_calendar.c **** 
 192:lvgl/src/extra/widgets/calendar/lv_calendar.c ****     return &calendar->showed_date;
 193:lvgl/src/extra/widgets/calendar/lv_calendar.c **** }
 194:lvgl/src/extra/widgets/calendar/lv_calendar.c **** 
 195:lvgl/src/extra/widgets/calendar/lv_calendar.c **** lv_calendar_date_t * lv_calendar_get_highlighted_dates(const lv_obj_t * obj)
 196:lvgl/src/extra/widgets/calendar/lv_calendar.c **** {
 197:lvgl/src/extra/widgets/calendar/lv_calendar.c ****     LV_ASSERT_OBJ(obj, MY_CLASS);
 198:lvgl/src/extra/widgets/calendar/lv_calendar.c ****     lv_calendar_t * calendar = (lv_calendar_t *)obj;
 199:lvgl/src/extra/widgets/calendar/lv_calendar.c **** 
 200:lvgl/src/extra/widgets/calendar/lv_calendar.c ****     return calendar->highlighted_dates;
 201:lvgl/src/extra/widgets/calendar/lv_calendar.c **** }
 202:lvgl/src/extra/widgets/calendar/lv_calendar.c **** 
ARM GAS  C:\Users\OSD\AppData\Local\Temp\ccyrCEHe.s 			page 5


 203:lvgl/src/extra/widgets/calendar/lv_calendar.c **** uint16_t lv_calendar_get_highlighted_dates_num(const lv_obj_t * obj)
 204:lvgl/src/extra/widgets/calendar/lv_calendar.c **** {
 205:lvgl/src/extra/widgets/calendar/lv_calendar.c ****     LV_ASSERT_OBJ(obj, MY_CLASS);
 206:lvgl/src/extra/widgets/calendar/lv_calendar.c ****     lv_calendar_t * calendar = (lv_calendar_t *)obj;
 207:lvgl/src/extra/widgets/calendar/lv_calendar.c **** 
 208:lvgl/src/extra/widgets/calendar/lv_calendar.c ****     return calendar->highlighted_dates_num;
 209:lvgl/src/extra/widgets/calendar/lv_calendar.c **** }
 210:lvgl/src/extra/widgets/calendar/lv_calendar.c **** 
 211:lvgl/src/extra/widgets/calendar/lv_calendar.c **** lv_res_t lv_calendar_get_pressed_date(const lv_obj_t * obj, lv_calendar_date_t * date)
 212:lvgl/src/extra/widgets/calendar/lv_calendar.c **** {
 213:lvgl/src/extra/widgets/calendar/lv_calendar.c ****     LV_ASSERT_OBJ(obj, MY_CLASS);
 214:lvgl/src/extra/widgets/calendar/lv_calendar.c ****     lv_calendar_t * calendar = (lv_calendar_t *)obj;
 215:lvgl/src/extra/widgets/calendar/lv_calendar.c **** 
 216:lvgl/src/extra/widgets/calendar/lv_calendar.c ****     uint16_t d = lv_btnmatrix_get_selected_btn(calendar->btnm);
 217:lvgl/src/extra/widgets/calendar/lv_calendar.c ****     if(d == LV_BTNMATRIX_BTN_NONE) {
 218:lvgl/src/extra/widgets/calendar/lv_calendar.c ****         date->year = 0;
 219:lvgl/src/extra/widgets/calendar/lv_calendar.c ****         date->month = 0;
 220:lvgl/src/extra/widgets/calendar/lv_calendar.c ****         date->day = 0;
 221:lvgl/src/extra/widgets/calendar/lv_calendar.c ****         return LV_RES_INV;
 222:lvgl/src/extra/widgets/calendar/lv_calendar.c ****     }
 223:lvgl/src/extra/widgets/calendar/lv_calendar.c **** 
 224:lvgl/src/extra/widgets/calendar/lv_calendar.c ****     const char * txt = lv_btnmatrix_get_btn_text(calendar->btnm, lv_btnmatrix_get_selected_btn(cale
 225:lvgl/src/extra/widgets/calendar/lv_calendar.c **** 
 226:lvgl/src/extra/widgets/calendar/lv_calendar.c ****     if(txt[1] == 0) date->day = txt[0] - '0';
 227:lvgl/src/extra/widgets/calendar/lv_calendar.c ****     else date->day = (txt[0] - '0') * 10 + (txt[1] - '0');
 228:lvgl/src/extra/widgets/calendar/lv_calendar.c **** 
 229:lvgl/src/extra/widgets/calendar/lv_calendar.c ****     date->year = calendar->showed_date.year;
 230:lvgl/src/extra/widgets/calendar/lv_calendar.c ****     date->month = calendar->showed_date.month;
 231:lvgl/src/extra/widgets/calendar/lv_calendar.c **** 
 232:lvgl/src/extra/widgets/calendar/lv_calendar.c ****     return LV_RES_OK;
 233:lvgl/src/extra/widgets/calendar/lv_calendar.c **** }
 234:lvgl/src/extra/widgets/calendar/lv_calendar.c **** 
 235:lvgl/src/extra/widgets/calendar/lv_calendar.c **** /**********************
 236:lvgl/src/extra/widgets/calendar/lv_calendar.c ****  *  STATIC FUNCTIONS
 237:lvgl/src/extra/widgets/calendar/lv_calendar.c ****  **********************/
 238:lvgl/src/extra/widgets/calendar/lv_calendar.c **** 
 239:lvgl/src/extra/widgets/calendar/lv_calendar.c **** static void lv_calendar_constructor(const lv_obj_class_t * class_p, lv_obj_t * obj)
 240:lvgl/src/extra/widgets/calendar/lv_calendar.c **** {
 241:lvgl/src/extra/widgets/calendar/lv_calendar.c ****     LV_UNUSED(class_p);
 242:lvgl/src/extra/widgets/calendar/lv_calendar.c ****     lv_calendar_t * calendar = (lv_calendar_t *)obj;
 243:lvgl/src/extra/widgets/calendar/lv_calendar.c **** 
 244:lvgl/src/extra/widgets/calendar/lv_calendar.c ****     /*Initialize the allocated 'ext'*/
 245:lvgl/src/extra/widgets/calendar/lv_calendar.c ****     calendar->today.year  = 2020;
 246:lvgl/src/extra/widgets/calendar/lv_calendar.c ****     calendar->today.month = 1;
 247:lvgl/src/extra/widgets/calendar/lv_calendar.c ****     calendar->today.day   = 1;
 248:lvgl/src/extra/widgets/calendar/lv_calendar.c **** 
 249:lvgl/src/extra/widgets/calendar/lv_calendar.c ****     calendar->showed_date.year  = 2020;
 250:lvgl/src/extra/widgets/calendar/lv_calendar.c ****     calendar->showed_date.month = 1;
 251:lvgl/src/extra/widgets/calendar/lv_calendar.c ****     calendar->showed_date.day   = 1;
 252:lvgl/src/extra/widgets/calendar/lv_calendar.c **** 
 253:lvgl/src/extra/widgets/calendar/lv_calendar.c ****     calendar->highlighted_dates      = NULL;
 254:lvgl/src/extra/widgets/calendar/lv_calendar.c ****     calendar->highlighted_dates_num  = 0;
 255:lvgl/src/extra/widgets/calendar/lv_calendar.c **** 
 256:lvgl/src/extra/widgets/calendar/lv_calendar.c ****     lv_memset_00(calendar->nums, sizeof(calendar->nums));
 257:lvgl/src/extra/widgets/calendar/lv_calendar.c ****     uint8_t i;
 258:lvgl/src/extra/widgets/calendar/lv_calendar.c ****     uint8_t j = 0;
 259:lvgl/src/extra/widgets/calendar/lv_calendar.c ****     for(i = 0; i < 8 * 7; i++) {
ARM GAS  C:\Users\OSD\AppData\Local\Temp\ccyrCEHe.s 			page 6


 260:lvgl/src/extra/widgets/calendar/lv_calendar.c ****         /*Every 8th string is "\n"*/
 261:lvgl/src/extra/widgets/calendar/lv_calendar.c ****         if(i != 0 && (i + 1) % 8 == 0) {
 262:lvgl/src/extra/widgets/calendar/lv_calendar.c ****             calendar->map[i] = "\n";
 263:lvgl/src/extra/widgets/calendar/lv_calendar.c ****         }
 264:lvgl/src/extra/widgets/calendar/lv_calendar.c ****         else if(i < 7) {
 265:lvgl/src/extra/widgets/calendar/lv_calendar.c ****             calendar->map[i] = day_names_def[i];
 266:lvgl/src/extra/widgets/calendar/lv_calendar.c ****         }
 267:lvgl/src/extra/widgets/calendar/lv_calendar.c ****         else {
 268:lvgl/src/extra/widgets/calendar/lv_calendar.c ****             calendar->nums[j][0] = 'x';
 269:lvgl/src/extra/widgets/calendar/lv_calendar.c ****             calendar->map[i] = calendar->nums[j];
 270:lvgl/src/extra/widgets/calendar/lv_calendar.c ****             j++;
 271:lvgl/src/extra/widgets/calendar/lv_calendar.c ****         }
 272:lvgl/src/extra/widgets/calendar/lv_calendar.c ****     }
 273:lvgl/src/extra/widgets/calendar/lv_calendar.c ****     calendar->map[8 * 7 - 1] = "";
 274:lvgl/src/extra/widgets/calendar/lv_calendar.c **** 
 275:lvgl/src/extra/widgets/calendar/lv_calendar.c ****     calendar->btnm = lv_btnmatrix_create(obj);
 276:lvgl/src/extra/widgets/calendar/lv_calendar.c ****     lv_btnmatrix_set_map(calendar->btnm, calendar->map);
 277:lvgl/src/extra/widgets/calendar/lv_calendar.c ****     lv_btnmatrix_set_btn_ctrl_all(calendar->btnm, LV_BTNMATRIX_CTRL_CLICK_TRIG | LV_BTNMATRIX_CTRL_
 278:lvgl/src/extra/widgets/calendar/lv_calendar.c ****     lv_obj_add_event_cb(calendar->btnm, draw_part_begin_event_cb, LV_EVENT_DRAW_PART_BEGIN, NULL);
 279:lvgl/src/extra/widgets/calendar/lv_calendar.c ****     lv_obj_set_width(calendar->btnm, lv_pct(100));
 280:lvgl/src/extra/widgets/calendar/lv_calendar.c **** 
 281:lvgl/src/extra/widgets/calendar/lv_calendar.c ****     lv_obj_set_flex_flow(obj, LV_FLEX_FLOW_COLUMN);
 282:lvgl/src/extra/widgets/calendar/lv_calendar.c ****     lv_obj_set_flex_grow(calendar->btnm, 1);
 283:lvgl/src/extra/widgets/calendar/lv_calendar.c **** 
 284:lvgl/src/extra/widgets/calendar/lv_calendar.c ****     lv_calendar_set_showed_date(obj, calendar->showed_date.year, calendar->showed_date.month);
 285:lvgl/src/extra/widgets/calendar/lv_calendar.c ****     lv_calendar_set_today_date(obj, calendar->today.year, calendar->today.month, calendar->today.da
 286:lvgl/src/extra/widgets/calendar/lv_calendar.c **** 
 287:lvgl/src/extra/widgets/calendar/lv_calendar.c ****     lv_obj_add_flag(calendar->btnm, LV_OBJ_FLAG_EVENT_BUBBLE);
 288:lvgl/src/extra/widgets/calendar/lv_calendar.c **** }
 289:lvgl/src/extra/widgets/calendar/lv_calendar.c **** 
 290:lvgl/src/extra/widgets/calendar/lv_calendar.c **** static void draw_part_begin_event_cb(lv_event_t * e)
 291:lvgl/src/extra/widgets/calendar/lv_calendar.c **** {
 292:lvgl/src/extra/widgets/calendar/lv_calendar.c ****     lv_obj_t * obj = lv_event_get_target(e);
 293:lvgl/src/extra/widgets/calendar/lv_calendar.c ****     lv_obj_draw_part_dsc_t * dsc = lv_event_get_param(e);
 294:lvgl/src/extra/widgets/calendar/lv_calendar.c ****     if(dsc->part == LV_PART_ITEMS) {
 295:lvgl/src/extra/widgets/calendar/lv_calendar.c ****         /*Day name styles*/
 296:lvgl/src/extra/widgets/calendar/lv_calendar.c ****         if(dsc->id < 7) {
 297:lvgl/src/extra/widgets/calendar/lv_calendar.c ****             dsc->rect_dsc->bg_opa = LV_OPA_TRANSP;
 298:lvgl/src/extra/widgets/calendar/lv_calendar.c ****             dsc->rect_dsc->border_opa = LV_OPA_TRANSP;
 299:lvgl/src/extra/widgets/calendar/lv_calendar.c ****         }
 300:lvgl/src/extra/widgets/calendar/lv_calendar.c ****         else if(lv_btnmatrix_has_btn_ctrl(obj, dsc->id, LV_BTNMATRIX_CTRL_DISABLED)) {
 301:lvgl/src/extra/widgets/calendar/lv_calendar.c ****             dsc->rect_dsc->bg_opa = LV_OPA_TRANSP;
 302:lvgl/src/extra/widgets/calendar/lv_calendar.c ****             dsc->rect_dsc->border_opa = LV_OPA_TRANSP;
 303:lvgl/src/extra/widgets/calendar/lv_calendar.c ****             dsc->label_dsc->color = lv_palette_main(LV_PALETTE_GREY);
 304:lvgl/src/extra/widgets/calendar/lv_calendar.c ****         }
 305:lvgl/src/extra/widgets/calendar/lv_calendar.c **** 
 306:lvgl/src/extra/widgets/calendar/lv_calendar.c ****         if(lv_btnmatrix_has_btn_ctrl(obj, dsc->id, LV_CALENDAR_CTRL_HIGHLIGHT)) {
 307:lvgl/src/extra/widgets/calendar/lv_calendar.c ****             dsc->rect_dsc->bg_opa = LV_OPA_40;
 308:lvgl/src/extra/widgets/calendar/lv_calendar.c ****             dsc->rect_dsc->bg_color = lv_theme_get_color_primary(obj);
 309:lvgl/src/extra/widgets/calendar/lv_calendar.c ****             if(lv_btnmatrix_get_selected_btn(obj) == dsc->id) {
 310:lvgl/src/extra/widgets/calendar/lv_calendar.c ****                 dsc->rect_dsc->bg_opa = LV_OPA_70;
 311:lvgl/src/extra/widgets/calendar/lv_calendar.c ****             }
 312:lvgl/src/extra/widgets/calendar/lv_calendar.c ****         }
 313:lvgl/src/extra/widgets/calendar/lv_calendar.c **** 
 314:lvgl/src/extra/widgets/calendar/lv_calendar.c ****         if(lv_btnmatrix_has_btn_ctrl(obj, dsc->id, LV_CALENDAR_CTRL_TODAY)) {
 315:lvgl/src/extra/widgets/calendar/lv_calendar.c ****             dsc->rect_dsc->border_opa = LV_OPA_COVER;
 316:lvgl/src/extra/widgets/calendar/lv_calendar.c ****             dsc->rect_dsc->border_color = lv_theme_get_color_primary(obj);
ARM GAS  C:\Users\OSD\AppData\Local\Temp\ccyrCEHe.s 			page 7


 317:lvgl/src/extra/widgets/calendar/lv_calendar.c ****             dsc->rect_dsc->border_width += 1;
 318:lvgl/src/extra/widgets/calendar/lv_calendar.c ****         }
 319:lvgl/src/extra/widgets/calendar/lv_calendar.c **** 
 320:lvgl/src/extra/widgets/calendar/lv_calendar.c ****     }
 321:lvgl/src/extra/widgets/calendar/lv_calendar.c **** }
 322:lvgl/src/extra/widgets/calendar/lv_calendar.c **** 
 323:lvgl/src/extra/widgets/calendar/lv_calendar.c **** /**
 324:lvgl/src/extra/widgets/calendar/lv_calendar.c ****  * Get the number of days in a month
 325:lvgl/src/extra/widgets/calendar/lv_calendar.c ****  * @param year a year
 326:lvgl/src/extra/widgets/calendar/lv_calendar.c ****  * @param month a month. The range is basically [1..12] but [-11..0] or [13..24] is also
 327:lvgl/src/extra/widgets/calendar/lv_calendar.c ****  *              supported to handle next/prev. year
 328:lvgl/src/extra/widgets/calendar/lv_calendar.c ****  * @return [28..31]
 329:lvgl/src/extra/widgets/calendar/lv_calendar.c ****  */
 330:lvgl/src/extra/widgets/calendar/lv_calendar.c **** static uint8_t get_month_length(int32_t year, int32_t month)
 331:lvgl/src/extra/widgets/calendar/lv_calendar.c **** {
 332:lvgl/src/extra/widgets/calendar/lv_calendar.c ****     month--;
 333:lvgl/src/extra/widgets/calendar/lv_calendar.c ****     if(month < 0) {
 334:lvgl/src/extra/widgets/calendar/lv_calendar.c ****         year--;             /*Already in the previous year (won't be less then -12 to skip a whole 
 335:lvgl/src/extra/widgets/calendar/lv_calendar.c ****         month = 12 + month; /*`month` is negative, the result will be < 12*/
 336:lvgl/src/extra/widgets/calendar/lv_calendar.c ****     }
 337:lvgl/src/extra/widgets/calendar/lv_calendar.c ****     if(month >= 12) {
 338:lvgl/src/extra/widgets/calendar/lv_calendar.c ****         year++;
 339:lvgl/src/extra/widgets/calendar/lv_calendar.c ****         month -= 12;
 340:lvgl/src/extra/widgets/calendar/lv_calendar.c ****     }
 341:lvgl/src/extra/widgets/calendar/lv_calendar.c **** 
 342:lvgl/src/extra/widgets/calendar/lv_calendar.c ****     /*month == 1 is february*/
 343:lvgl/src/extra/widgets/calendar/lv_calendar.c ****     return (month == 1) ? (28 + is_leap_year(year)) : 31 - month % 7 % 2;
 344:lvgl/src/extra/widgets/calendar/lv_calendar.c **** }
 345:lvgl/src/extra/widgets/calendar/lv_calendar.c **** 
 346:lvgl/src/extra/widgets/calendar/lv_calendar.c **** /**
 347:lvgl/src/extra/widgets/calendar/lv_calendar.c ****  * Tells whether a year is leap year or not
 348:lvgl/src/extra/widgets/calendar/lv_calendar.c ****  * @param year a year
 349:lvgl/src/extra/widgets/calendar/lv_calendar.c ****  * @return 0: not leap year; 1: leap year
 350:lvgl/src/extra/widgets/calendar/lv_calendar.c ****  */
 351:lvgl/src/extra/widgets/calendar/lv_calendar.c **** static uint8_t is_leap_year(uint32_t year)
 352:lvgl/src/extra/widgets/calendar/lv_calendar.c **** {
  28              		.loc 1 352 1 view -0
  29              		.cfi_startproc
  30              		@ args = 0, pretend = 0, frame = 0
  31              		@ frame_needed = 0, uses_anonymous_args = 0
  32              		@ link register save eliminated.
 353:lvgl/src/extra/widgets/calendar/lv_calendar.c ****     return (year % 4) || ((year % 100 == 0) && (year % 400)) ? 0 : 1;
  33              		.loc 1 353 5 view .LVU1
  34              		.loc 1 353 66 is_stmt 0 view .LVU2
  35 0000 10F0030F 		tst	r0, #3
  36 0004 12D1     		bne	.L3
  37              		.loc 1 353 33 discriminator 1 view .LVU3
  38 0006 0C4B     		ldr	r3, .L6
  39 0008 A3FB0023 		umull	r2, r3, r3, r0
  40 000c 5B09     		lsrs	r3, r3, #5
  41 000e 6422     		movs	r2, #100
  42 0010 02FB1303 		mls	r3, r2, r3, r0
  43              		.loc 1 353 66 discriminator 1 view .LVU4
  44 0014 63B9     		cbnz	r3, .L4
  45              		.loc 1 353 54 discriminator 4 view .LVU5
  46 0016 084B     		ldr	r3, .L6
  47 0018 A3FB0023 		umull	r2, r3, r3, r0
ARM GAS  C:\Users\OSD\AppData\Local\Temp\ccyrCEHe.s 			page 8


  48 001c DB09     		lsrs	r3, r3, #7
  49 001e 4FF4C872 		mov	r2, #400
  50 0022 02FB1303 		mls	r3, r2, r3, r0
  51              		.loc 1 353 45 discriminator 4 view .LVU6
  52 0026 2BB1     		cbz	r3, .L5
  53              		.loc 1 353 66 view .LVU7
  54 0028 0020     		movs	r0, #0
  55              	.LVL1:
  56              		.loc 1 353 66 view .LVU8
  57 002a 7047     		bx	lr
  58              	.LVL2:
  59              	.L3:
  60              		.loc 1 353 66 view .LVU9
  61 002c 0020     		movs	r0, #0
  62              	.LVL3:
  63              		.loc 1 353 66 view .LVU10
  64 002e 7047     		bx	lr
  65              	.LVL4:
  66              	.L4:
  67              		.loc 1 353 66 view .LVU11
  68 0030 0120     		movs	r0, #1
  69              	.LVL5:
  70              		.loc 1 353 66 view .LVU12
  71 0032 7047     		bx	lr
  72              	.LVL6:
  73              	.L5:
  74              		.loc 1 353 66 view .LVU13
  75 0034 0120     		movs	r0, #1
  76              	.LVL7:
 354:lvgl/src/extra/widgets/calendar/lv_calendar.c **** }
  77              		.loc 1 354 1 view .LVU14
  78 0036 7047     		bx	lr
  79              	.L7:
  80              		.align	2
  81              	.L6:
  82 0038 1F85EB51 		.word	1374389535
  83              		.cfi_endproc
  84              	.LFE218:
  86              		.section	.text.get_month_length,"ax",%progbits
  87              		.align	1
  88              		.syntax unified
  89              		.thumb
  90              		.thumb_func
  92              	get_month_length:
  93              	.LVL8:
  94              	.LFB217:
 331:lvgl/src/extra/widgets/calendar/lv_calendar.c ****     month--;
  95              		.loc 1 331 1 is_stmt 1 view -0
  96              		.cfi_startproc
  97              		@ args = 0, pretend = 0, frame = 0
  98              		@ frame_needed = 0, uses_anonymous_args = 0
 331:lvgl/src/extra/widgets/calendar/lv_calendar.c ****     month--;
  99              		.loc 1 331 1 is_stmt 0 view .LVU16
 100 0000 08B5     		push	{r3, lr}
 101              		.cfi_def_cfa_offset 8
 102              		.cfi_offset 3, -8
 103              		.cfi_offset 14, -4
ARM GAS  C:\Users\OSD\AppData\Local\Temp\ccyrCEHe.s 			page 9


 332:lvgl/src/extra/widgets/calendar/lv_calendar.c ****     if(month < 0) {
 104              		.loc 1 332 5 is_stmt 1 view .LVU17
 105              	.LVL9:
 333:lvgl/src/extra/widgets/calendar/lv_calendar.c ****         year--;             /*Already in the previous year (won't be less then -12 to skip a whole 
 106              		.loc 1 333 5 view .LVU18
 333:lvgl/src/extra/widgets/calendar/lv_calendar.c ****         year--;             /*Already in the previous year (won't be less then -12 to skip a whole 
 107              		.loc 1 333 7 is_stmt 0 view .LVU19
 108 0002 4A1E     		subs	r2, r1, #1
 109              	.LVL10:
 333:lvgl/src/extra/widgets/calendar/lv_calendar.c ****         year--;             /*Already in the previous year (won't be less then -12 to skip a whole 
 110              		.loc 1 333 7 view .LVU20
 111 0004 18D4     		bmi	.L14
 112              	.L9:
 337:lvgl/src/extra/widgets/calendar/lv_calendar.c ****         year++;
 113              		.loc 1 337 5 is_stmt 1 view .LVU21
 337:lvgl/src/extra/widgets/calendar/lv_calendar.c ****         year++;
 114              		.loc 1 337 7 is_stmt 0 view .LVU22
 115 0006 0B2A     		cmp	r2, #11
 116 0008 01DD     		ble	.L10
 338:lvgl/src/extra/widgets/calendar/lv_calendar.c ****         month -= 12;
 117              		.loc 1 338 9 is_stmt 1 view .LVU23
 338:lvgl/src/extra/widgets/calendar/lv_calendar.c ****         month -= 12;
 118              		.loc 1 338 13 is_stmt 0 view .LVU24
 119 000a 0130     		adds	r0, r0, #1
 120              	.LVL11:
 339:lvgl/src/extra/widgets/calendar/lv_calendar.c ****     }
 121              		.loc 1 339 9 is_stmt 1 view .LVU25
 339:lvgl/src/extra/widgets/calendar/lv_calendar.c ****     }
 122              		.loc 1 339 15 is_stmt 0 view .LVU26
 123 000c 0C3A     		subs	r2, r2, #12
 124              	.LVL12:
 125              	.L10:
 343:lvgl/src/extra/widgets/calendar/lv_calendar.c **** }
 126              		.loc 1 343 5 is_stmt 1 view .LVU27
 343:lvgl/src/extra/widgets/calendar/lv_calendar.c **** }
 127              		.loc 1 343 53 is_stmt 0 view .LVU28
 128 000e 012A     		cmp	r2, #1
 129 0010 16D0     		beq	.L15
 343:lvgl/src/extra/widgets/calendar/lv_calendar.c **** }
 130              		.loc 1 343 66 discriminator 2 view .LVU29
 131 0012 0E4B     		ldr	r3, .L16
 132 0014 83FB0213 		smull	r1, r3, r3, r2
 133 0018 9918     		adds	r1, r3, r2
 134 001a D317     		asrs	r3, r2, #31
 135 001c C3EBA103 		rsb	r3, r3, r1, asr #2
 136 0020 C3EBC303 		rsb	r3, r3, r3, lsl #3
 343:lvgl/src/extra/widgets/calendar/lv_calendar.c **** }
 137              		.loc 1 343 70 discriminator 2 view .LVU30
 138 0024 D31A     		subs	r3, r2, r3
 139 0026 03F00103 		and	r3, r3, #1
 140 002a 48BF     		it	mi
 141 002c 5B42     		rsbmi	r3, r3, #0
 343:lvgl/src/extra/widgets/calendar/lv_calendar.c **** }
 142              		.loc 1 343 58 discriminator 2 view .LVU31
 143 002e D8B2     		uxtb	r0, r3
 144              	.LVL13:
 343:lvgl/src/extra/widgets/calendar/lv_calendar.c **** }
ARM GAS  C:\Users\OSD\AppData\Local\Temp\ccyrCEHe.s 			page 10


 145              		.loc 1 343 53 discriminator 2 view .LVU32
 146 0030 C0F11F00 		rsb	r0, r0, #31
 147 0034 C0B2     		uxtb	r0, r0
 148              	.LVL14:
 149              	.L12:
 344:lvgl/src/extra/widgets/calendar/lv_calendar.c **** 
 150              		.loc 1 344 1 discriminator 4 view .LVU33
 151 0036 08BD     		pop	{r3, pc}
 152              	.LVL15:
 153              	.L14:
 334:lvgl/src/extra/widgets/calendar/lv_calendar.c ****         month = 12 + month; /*`month` is negative, the result will be < 12*/
 154              		.loc 1 334 9 is_stmt 1 view .LVU34
 334:lvgl/src/extra/widgets/calendar/lv_calendar.c ****         month = 12 + month; /*`month` is negative, the result will be < 12*/
 155              		.loc 1 334 13 is_stmt 0 view .LVU35
 156 0038 0138     		subs	r0, r0, #1
 157              	.LVL16:
 335:lvgl/src/extra/widgets/calendar/lv_calendar.c ****     }
 158              		.loc 1 335 9 is_stmt 1 view .LVU36
 335:lvgl/src/extra/widgets/calendar/lv_calendar.c ****     }
 159              		.loc 1 335 15 is_stmt 0 view .LVU37
 160 003a 01F10B02 		add	r2, r1, #11
 161              	.LVL17:
 335:lvgl/src/extra/widgets/calendar/lv_calendar.c ****     }
 162              		.loc 1 335 15 view .LVU38
 163 003e E2E7     		b	.L9
 164              	.L15:
 343:lvgl/src/extra/widgets/calendar/lv_calendar.c **** }
 165              		.loc 1 343 33 discriminator 1 view .LVU39
 166 0040 FFF7FEFF 		bl	is_leap_year
 167              	.LVL18:
 343:lvgl/src/extra/widgets/calendar/lv_calendar.c **** }
 168              		.loc 1 343 53 discriminator 1 view .LVU40
 169 0044 1C30     		adds	r0, r0, #28
 170 0046 C0B2     		uxtb	r0, r0
 171 0048 F5E7     		b	.L12
 172              	.L17:
 173 004a 00BF     		.align	2
 174              	.L16:
 175 004c 93244992 		.word	-1840700269
 176              		.cfi_endproc
 177              	.LFE217:
 179              		.section	.text.get_day_of_week,"ax",%progbits
 180              		.align	1
 181              		.syntax unified
 182              		.thumb
 183              		.thumb_func
 185              	get_day_of_week:
 186              	.LVL19:
 187              	.LFB219:
 355:lvgl/src/extra/widgets/calendar/lv_calendar.c **** 
 356:lvgl/src/extra/widgets/calendar/lv_calendar.c **** /**
 357:lvgl/src/extra/widgets/calendar/lv_calendar.c ****  * Get the day of the week
 358:lvgl/src/extra/widgets/calendar/lv_calendar.c ****  * @param year a year
 359:lvgl/src/extra/widgets/calendar/lv_calendar.c ****  * @param month a  month [1..12]
 360:lvgl/src/extra/widgets/calendar/lv_calendar.c ****  * @param day a day [1..32]
 361:lvgl/src/extra/widgets/calendar/lv_calendar.c ****  * @return [0..6] which means [Sun..Sat] or [Mon..Sun] depending on LV_CALENDAR_WEEK_STARTS_MONDAY
 362:lvgl/src/extra/widgets/calendar/lv_calendar.c ****  */
ARM GAS  C:\Users\OSD\AppData\Local\Temp\ccyrCEHe.s 			page 11


 363:lvgl/src/extra/widgets/calendar/lv_calendar.c **** static uint8_t get_day_of_week(uint32_t year, uint32_t month, uint32_t day)
 364:lvgl/src/extra/widgets/calendar/lv_calendar.c **** {
 188              		.loc 1 364 1 is_stmt 1 view -0
 189              		.cfi_startproc
 190              		@ args = 0, pretend = 0, frame = 0
 191              		@ frame_needed = 0, uses_anonymous_args = 0
 192              		@ link register save eliminated.
 365:lvgl/src/extra/widgets/calendar/lv_calendar.c ****     uint32_t a = month < 3 ? 1 : 0;
 193              		.loc 1 365 5 view .LVU42
 194              		.loc 1 365 32 is_stmt 0 view .LVU43
 195 0000 0229     		cmp	r1, #2
 196 0002 94BF     		ite	ls
 197 0004 0123     		movls	r3, #1
 198 0006 0023     		movhi	r3, #0
 199              	.LVL20:
 366:lvgl/src/extra/widgets/calendar/lv_calendar.c ****     uint32_t b = year - a;
 200              		.loc 1 366 5 is_stmt 1 view .LVU44
 201              		.loc 1 366 14 is_stmt 0 view .LVU45
 202 0008 A0EB0300 		sub	r0, r0, r3
 203              	.LVL21:
 367:lvgl/src/extra/widgets/calendar/lv_calendar.c **** 
 368:lvgl/src/extra/widgets/calendar/lv_calendar.c **** #if LV_CALENDAR_WEEK_STARTS_MONDAY
 369:lvgl/src/extra/widgets/calendar/lv_calendar.c ****     uint32_t day_of_week = (day + (31 * (month - 2 + 12 * a) / 12) + b + (b / 4) - (b / 100) + (b /
 370:lvgl/src/extra/widgets/calendar/lv_calendar.c **** #else
 371:lvgl/src/extra/widgets/calendar/lv_calendar.c ****     uint32_t day_of_week = (day + (31 * (month - 2 + 12 * a) / 12) + b + (b / 4) - (b / 100) + (b /
 204              		.loc 1 371 5 is_stmt 1 view .LVU46
 205              		.loc 1 371 57 is_stmt 0 view .LVU47
 206 000c 94BF     		ite	ls
 207 000e 4FF00C0C 		movls	ip, #12
 208 0012 4FF0000C 		movhi	ip, #0
 209              		.loc 1 371 52 view .LVU48
 210 0016 6144     		add	r1, r1, ip
 211              	.LVL22:
 212              		.loc 1 371 39 view .LVU49
 213 0018 C1EB4113 		rsb	r3, r1, r1, lsl #5
 214              	.LVL23:
 215              		.loc 1 371 39 view .LVU50
 216 001c 3E3B     		subs	r3, r3, #62
 217              		.loc 1 371 62 view .LVU51
 218 001e 0D49     		ldr	r1, .L19
 219 0020 A1FB0313 		umull	r1, r3, r1, r3
 220              		.loc 1 371 33 view .LVU52
 221 0024 02EBD303 		add	r3, r2, r3, lsr #3
 222              		.loc 1 371 68 view .LVU53
 223 0028 0344     		add	r3, r3, r0
 224              		.loc 1 371 72 view .LVU54
 225 002a 03EB9003 		add	r3, r3, r0, lsr #2
 226              		.loc 1 371 87 view .LVU55
 227 002e 0A4A     		ldr	r2, .L19+4
 228              	.LVL24:
 229              		.loc 1 371 87 view .LVU56
 230 0030 A2FB0020 		umull	r2, r0, r2, r0
 231              	.LVL25:
 232              		.loc 1 371 82 view .LVU57
 233 0034 A3EB5013 		sub	r3, r3, r0, lsr #5
 234              		.loc 1 371 94 view .LVU58
 235 0038 03EBD013 		add	r3, r3, r0, lsr #7
ARM GAS  C:\Users\OSD\AppData\Local\Temp\ccyrCEHe.s 			page 12


 236              		.loc 1 371 14 view .LVU59
 237 003c 0748     		ldr	r0, .L19+8
 238 003e A0FB0320 		umull	r2, r0, r0, r3
 239 0042 1A1A     		subs	r2, r3, r0
 240 0044 00EB5200 		add	r0, r0, r2, lsr #1
 241 0048 8008     		lsrs	r0, r0, #2
 242 004a C0EBC000 		rsb	r0, r0, r0, lsl #3
 243 004e 181A     		subs	r0, r3, r0
 244              	.LVL26:
 372:lvgl/src/extra/widgets/calendar/lv_calendar.c **** #endif
 373:lvgl/src/extra/widgets/calendar/lv_calendar.c **** 
 374:lvgl/src/extra/widgets/calendar/lv_calendar.c ****     return day_of_week  ;
 245              		.loc 1 374 5 is_stmt 1 view .LVU60
 375:lvgl/src/extra/widgets/calendar/lv_calendar.c **** }
 246              		.loc 1 375 1 is_stmt 0 view .LVU61
 247 0050 C0B2     		uxtb	r0, r0
 248              	.LVL27:
 249              		.loc 1 375 1 view .LVU62
 250 0052 7047     		bx	lr
 251              	.L20:
 252              		.align	2
 253              	.L19:
 254 0054 ABAAAAAA 		.word	-1431655765
 255 0058 1F85EB51 		.word	1374389535
 256 005c 25499224 		.word	613566757
 257              		.cfi_endproc
 258              	.LFE219:
 260              		.section	.text.draw_part_begin_event_cb,"ax",%progbits
 261              		.align	1
 262              		.syntax unified
 263              		.thumb
 264              		.thumb_func
 266              	draw_part_begin_event_cb:
 267              	.LVL28:
 268              	.LFB216:
 291:lvgl/src/extra/widgets/calendar/lv_calendar.c ****     lv_obj_t * obj = lv_event_get_target(e);
 269              		.loc 1 291 1 is_stmt 1 view -0
 270              		.cfi_startproc
 271              		@ args = 0, pretend = 0, frame = 0
 272              		@ frame_needed = 0, uses_anonymous_args = 0
 291:lvgl/src/extra/widgets/calendar/lv_calendar.c ****     lv_obj_t * obj = lv_event_get_target(e);
 273              		.loc 1 291 1 is_stmt 0 view .LVU64
 274 0000 70B5     		push	{r4, r5, r6, lr}
 275              		.cfi_def_cfa_offset 16
 276              		.cfi_offset 4, -16
 277              		.cfi_offset 5, -12
 278              		.cfi_offset 6, -8
 279              		.cfi_offset 14, -4
 280 0002 0446     		mov	r4, r0
 292:lvgl/src/extra/widgets/calendar/lv_calendar.c ****     lv_obj_draw_part_dsc_t * dsc = lv_event_get_param(e);
 281              		.loc 1 292 5 is_stmt 1 view .LVU65
 292:lvgl/src/extra/widgets/calendar/lv_calendar.c ****     lv_obj_draw_part_dsc_t * dsc = lv_event_get_param(e);
 282              		.loc 1 292 22 is_stmt 0 view .LVU66
 283 0004 FFF7FEFF 		bl	lv_event_get_target
 284              	.LVL29:
 292:lvgl/src/extra/widgets/calendar/lv_calendar.c ****     lv_obj_draw_part_dsc_t * dsc = lv_event_get_param(e);
 285              		.loc 1 292 22 view .LVU67
ARM GAS  C:\Users\OSD\AppData\Local\Temp\ccyrCEHe.s 			page 13


 286 0008 0546     		mov	r5, r0
 287              	.LVL30:
 293:lvgl/src/extra/widgets/calendar/lv_calendar.c ****     if(dsc->part == LV_PART_ITEMS) {
 288              		.loc 1 293 5 is_stmt 1 view .LVU68
 293:lvgl/src/extra/widgets/calendar/lv_calendar.c ****     if(dsc->part == LV_PART_ITEMS) {
 289              		.loc 1 293 36 is_stmt 0 view .LVU69
 290 000a 2046     		mov	r0, r4
 291              	.LVL31:
 293:lvgl/src/extra/widgets/calendar/lv_calendar.c ****     if(dsc->part == LV_PART_ITEMS) {
 292              		.loc 1 293 36 view .LVU70
 293 000c FFF7FEFF 		bl	lv_event_get_param
 294              	.LVL32:
 294:lvgl/src/extra/widgets/calendar/lv_calendar.c ****         /*Day name styles*/
 295              		.loc 1 294 5 is_stmt 1 view .LVU71
 294:lvgl/src/extra/widgets/calendar/lv_calendar.c ****         /*Day name styles*/
 296              		.loc 1 294 11 is_stmt 0 view .LVU72
 297 0010 436B     		ldr	r3, [r0, #52]
 294:lvgl/src/extra/widgets/calendar/lv_calendar.c ****         /*Day name styles*/
 298              		.loc 1 294 7 view .LVU73
 299 0012 B3F5A02F 		cmp	r3, #327680
 300 0016 00D0     		beq	.L27
 301              	.LVL33:
 302              	.L21:
 321:lvgl/src/extra/widgets/calendar/lv_calendar.c **** 
 303              		.loc 1 321 1 view .LVU74
 304 0018 70BD     		pop	{r4, r5, r6, pc}
 305              	.LVL34:
 306              	.L27:
 321:lvgl/src/extra/widgets/calendar/lv_calendar.c **** 
 307              		.loc 1 321 1 view .LVU75
 308 001a 0446     		mov	r4, r0
 309              	.LVL35:
 296:lvgl/src/extra/widgets/calendar/lv_calendar.c ****             dsc->rect_dsc->bg_opa = LV_OPA_TRANSP;
 310              		.loc 1 296 9 is_stmt 1 view .LVU76
 296:lvgl/src/extra/widgets/calendar/lv_calendar.c ****             dsc->rect_dsc->bg_opa = LV_OPA_TRANSP;
 311              		.loc 1 296 15 is_stmt 0 view .LVU77
 312 001c 816B     		ldr	r1, [r0, #56]
 296:lvgl/src/extra/widgets/calendar/lv_calendar.c ****             dsc->rect_dsc->bg_opa = LV_OPA_TRANSP;
 313              		.loc 1 296 11 view .LVU78
 314 001e 0629     		cmp	r1, #6
 315 0020 22D8     		bhi	.L23
 297:lvgl/src/extra/widgets/calendar/lv_calendar.c ****             dsc->rect_dsc->border_opa = LV_OPA_TRANSP;
 316              		.loc 1 297 13 is_stmt 1 view .LVU79
 297:lvgl/src/extra/widgets/calendar/lv_calendar.c ****             dsc->rect_dsc->border_opa = LV_OPA_TRANSP;
 317              		.loc 1 297 16 is_stmt 0 view .LVU80
 318 0022 0269     		ldr	r2, [r0, #16]
 297:lvgl/src/extra/widgets/calendar/lv_calendar.c ****             dsc->rect_dsc->border_opa = LV_OPA_TRANSP;
 319              		.loc 1 297 35 view .LVU81
 320 0024 0023     		movs	r3, #0
 321 0026 D370     		strb	r3, [r2, #3]
 298:lvgl/src/extra/widgets/calendar/lv_calendar.c ****         }
 322              		.loc 1 298 13 is_stmt 1 view .LVU82
 298:lvgl/src/extra/widgets/calendar/lv_calendar.c ****         }
 323              		.loc 1 298 16 is_stmt 0 view .LVU83
 324 0028 0269     		ldr	r2, [r0, #16]
 298:lvgl/src/extra/widgets/calendar/lv_calendar.c ****         }
 325              		.loc 1 298 39 view .LVU84
ARM GAS  C:\Users\OSD\AppData\Local\Temp\ccyrCEHe.s 			page 14


 326 002a 82F83230 		strb	r3, [r2, #50]
 327              	.LVL36:
 328              	.L24:
 306:lvgl/src/extra/widgets/calendar/lv_calendar.c ****             dsc->rect_dsc->bg_opa = LV_OPA_40;
 329              		.loc 1 306 9 is_stmt 1 view .LVU85
 306:lvgl/src/extra/widgets/calendar/lv_calendar.c ****             dsc->rect_dsc->bg_opa = LV_OPA_40;
 330              		.loc 1 306 12 is_stmt 0 view .LVU86
 331 002e 4FF40042 		mov	r2, #32768
 332 0032 218F     		ldrh	r1, [r4, #56]
 333 0034 2846     		mov	r0, r5
 334 0036 FFF7FEFF 		bl	lv_btnmatrix_has_btn_ctrl
 335              	.LVL37:
 306:lvgl/src/extra/widgets/calendar/lv_calendar.c ****             dsc->rect_dsc->bg_opa = LV_OPA_40;
 336              		.loc 1 306 11 view .LVU87
 337 003a 40BB     		cbnz	r0, .L28
 338              	.L25:
 314:lvgl/src/extra/widgets/calendar/lv_calendar.c ****             dsc->rect_dsc->border_opa = LV_OPA_COVER;
 339              		.loc 1 314 9 is_stmt 1 view .LVU88
 314:lvgl/src/extra/widgets/calendar/lv_calendar.c ****             dsc->rect_dsc->border_opa = LV_OPA_COVER;
 340              		.loc 1 314 12 is_stmt 0 view .LVU89
 341 003c 4FF48042 		mov	r2, #16384
 342 0040 218F     		ldrh	r1, [r4, #56]
 343 0042 2846     		mov	r0, r5
 344 0044 FFF7FEFF 		bl	lv_btnmatrix_has_btn_ctrl
 345              	.LVL38:
 314:lvgl/src/extra/widgets/calendar/lv_calendar.c ****             dsc->rect_dsc->border_opa = LV_OPA_COVER;
 346              		.loc 1 314 11 view .LVU90
 347 0048 0028     		cmp	r0, #0
 348 004a E5D0     		beq	.L21
 315:lvgl/src/extra/widgets/calendar/lv_calendar.c ****             dsc->rect_dsc->border_color = lv_theme_get_color_primary(obj);
 349              		.loc 1 315 13 is_stmt 1 view .LVU91
 315:lvgl/src/extra/widgets/calendar/lv_calendar.c ****             dsc->rect_dsc->border_color = lv_theme_get_color_primary(obj);
 350              		.loc 1 315 16 is_stmt 0 view .LVU92
 351 004c 2369     		ldr	r3, [r4, #16]
 315:lvgl/src/extra/widgets/calendar/lv_calendar.c ****             dsc->rect_dsc->border_color = lv_theme_get_color_primary(obj);
 352              		.loc 1 315 39 view .LVU93
 353 004e FF22     		movs	r2, #255
 354 0050 83F83220 		strb	r2, [r3, #50]
 316:lvgl/src/extra/widgets/calendar/lv_calendar.c ****             dsc->rect_dsc->border_width += 1;
 355              		.loc 1 316 13 is_stmt 1 view .LVU94
 316:lvgl/src/extra/widgets/calendar/lv_calendar.c ****             dsc->rect_dsc->border_width += 1;
 356              		.loc 1 316 16 is_stmt 0 view .LVU95
 357 0054 2669     		ldr	r6, [r4, #16]
 316:lvgl/src/extra/widgets/calendar/lv_calendar.c ****             dsc->rect_dsc->border_width += 1;
 358              		.loc 1 316 43 view .LVU96
 359 0056 2846     		mov	r0, r5
 360 0058 FFF7FEFF 		bl	lv_theme_get_color_primary
 361              	.LVL39:
 362 005c F062     		str	r0, [r6, #44]
 317:lvgl/src/extra/widgets/calendar/lv_calendar.c ****         }
 363              		.loc 1 317 13 is_stmt 1 view .LVU97
 317:lvgl/src/extra/widgets/calendar/lv_calendar.c ****         }
 364              		.loc 1 317 16 is_stmt 0 view .LVU98
 365 005e 2269     		ldr	r2, [r4, #16]
 317:lvgl/src/extra/widgets/calendar/lv_calendar.c ****         }
 366              		.loc 1 317 41 view .LVU99
 367 0060 138E     		ldrh	r3, [r2, #48]
ARM GAS  C:\Users\OSD\AppData\Local\Temp\ccyrCEHe.s 			page 15


 368 0062 0133     		adds	r3, r3, #1
 369 0064 1386     		strh	r3, [r2, #48]	@ movhi
 321:lvgl/src/extra/widgets/calendar/lv_calendar.c **** 
 370              		.loc 1 321 1 view .LVU100
 371 0066 D7E7     		b	.L21
 372              	.LVL40:
 373              	.L23:
 300:lvgl/src/extra/widgets/calendar/lv_calendar.c ****             dsc->rect_dsc->bg_opa = LV_OPA_TRANSP;
 374              		.loc 1 300 14 is_stmt 1 view .LVU101
 300:lvgl/src/extra/widgets/calendar/lv_calendar.c ****             dsc->rect_dsc->bg_opa = LV_OPA_TRANSP;
 375              		.loc 1 300 17 is_stmt 0 view .LVU102
 376 0068 4022     		movs	r2, #64
 377 006a 89B2     		uxth	r1, r1
 378 006c 2846     		mov	r0, r5
 379              	.LVL41:
 300:lvgl/src/extra/widgets/calendar/lv_calendar.c ****             dsc->rect_dsc->bg_opa = LV_OPA_TRANSP;
 380              		.loc 1 300 17 view .LVU103
 381 006e FFF7FEFF 		bl	lv_btnmatrix_has_btn_ctrl
 382              	.LVL42:
 300:lvgl/src/extra/widgets/calendar/lv_calendar.c ****             dsc->rect_dsc->bg_opa = LV_OPA_TRANSP;
 383              		.loc 1 300 16 view .LVU104
 384 0072 0028     		cmp	r0, #0
 385 0074 DBD0     		beq	.L24
 301:lvgl/src/extra/widgets/calendar/lv_calendar.c ****             dsc->rect_dsc->border_opa = LV_OPA_TRANSP;
 386              		.loc 1 301 13 is_stmt 1 view .LVU105
 301:lvgl/src/extra/widgets/calendar/lv_calendar.c ****             dsc->rect_dsc->border_opa = LV_OPA_TRANSP;
 387              		.loc 1 301 16 is_stmt 0 view .LVU106
 388 0076 2269     		ldr	r2, [r4, #16]
 301:lvgl/src/extra/widgets/calendar/lv_calendar.c ****             dsc->rect_dsc->border_opa = LV_OPA_TRANSP;
 389              		.loc 1 301 35 view .LVU107
 390 0078 0023     		movs	r3, #0
 391 007a D370     		strb	r3, [r2, #3]
 302:lvgl/src/extra/widgets/calendar/lv_calendar.c ****             dsc->label_dsc->color = lv_palette_main(LV_PALETTE_GREY);
 392              		.loc 1 302 13 is_stmt 1 view .LVU108
 302:lvgl/src/extra/widgets/calendar/lv_calendar.c ****             dsc->label_dsc->color = lv_palette_main(LV_PALETTE_GREY);
 393              		.loc 1 302 16 is_stmt 0 view .LVU109
 394 007c 2269     		ldr	r2, [r4, #16]
 302:lvgl/src/extra/widgets/calendar/lv_calendar.c ****             dsc->label_dsc->color = lv_palette_main(LV_PALETTE_GREY);
 395              		.loc 1 302 39 view .LVU110
 396 007e 82F83230 		strb	r3, [r2, #50]
 303:lvgl/src/extra/widgets/calendar/lv_calendar.c ****         }
 397              		.loc 1 303 13 is_stmt 1 view .LVU111
 303:lvgl/src/extra/widgets/calendar/lv_calendar.c ****         }
 398              		.loc 1 303 16 is_stmt 0 view .LVU112
 399 0082 6669     		ldr	r6, [r4, #20]
 303:lvgl/src/extra/widgets/calendar/lv_calendar.c ****         }
 400              		.loc 1 303 37 view .LVU113
 401 0084 1220     		movs	r0, #18
 402 0086 FFF7FEFF 		bl	lv_palette_main
 403              	.LVL43:
 404 008a F060     		str	r0, [r6, #12]
 405 008c CFE7     		b	.L24
 406              	.L28:
 307:lvgl/src/extra/widgets/calendar/lv_calendar.c ****             dsc->rect_dsc->bg_color = lv_theme_get_color_primary(obj);
 407              		.loc 1 307 13 is_stmt 1 view .LVU114
 307:lvgl/src/extra/widgets/calendar/lv_calendar.c ****             dsc->rect_dsc->bg_color = lv_theme_get_color_primary(obj);
 408              		.loc 1 307 16 is_stmt 0 view .LVU115
ARM GAS  C:\Users\OSD\AppData\Local\Temp\ccyrCEHe.s 			page 16


 409 008e 2369     		ldr	r3, [r4, #16]
 307:lvgl/src/extra/widgets/calendar/lv_calendar.c ****             dsc->rect_dsc->bg_color = lv_theme_get_color_primary(obj);
 410              		.loc 1 307 35 view .LVU116
 411 0090 6622     		movs	r2, #102
 412 0092 DA70     		strb	r2, [r3, #3]
 308:lvgl/src/extra/widgets/calendar/lv_calendar.c ****             if(lv_btnmatrix_get_selected_btn(obj) == dsc->id) {
 413              		.loc 1 308 13 is_stmt 1 view .LVU117
 308:lvgl/src/extra/widgets/calendar/lv_calendar.c ****             if(lv_btnmatrix_get_selected_btn(obj) == dsc->id) {
 414              		.loc 1 308 16 is_stmt 0 view .LVU118
 415 0094 2669     		ldr	r6, [r4, #16]
 308:lvgl/src/extra/widgets/calendar/lv_calendar.c ****             if(lv_btnmatrix_get_selected_btn(obj) == dsc->id) {
 416              		.loc 1 308 39 view .LVU119
 417 0096 2846     		mov	r0, r5
 418 0098 FFF7FEFF 		bl	lv_theme_get_color_primary
 419              	.LVL44:
 420 009c 7060     		str	r0, [r6, #4]
 309:lvgl/src/extra/widgets/calendar/lv_calendar.c ****                 dsc->rect_dsc->bg_opa = LV_OPA_70;
 421              		.loc 1 309 13 is_stmt 1 view .LVU120
 309:lvgl/src/extra/widgets/calendar/lv_calendar.c ****                 dsc->rect_dsc->bg_opa = LV_OPA_70;
 422              		.loc 1 309 16 is_stmt 0 view .LVU121
 423 009e 2846     		mov	r0, r5
 424 00a0 FFF7FEFF 		bl	lv_btnmatrix_get_selected_btn
 425              	.LVL45:
 309:lvgl/src/extra/widgets/calendar/lv_calendar.c ****                 dsc->rect_dsc->bg_opa = LV_OPA_70;
 426              		.loc 1 309 57 view .LVU122
 427 00a4 A36B     		ldr	r3, [r4, #56]
 309:lvgl/src/extra/widgets/calendar/lv_calendar.c ****                 dsc->rect_dsc->bg_opa = LV_OPA_70;
 428              		.loc 1 309 15 view .LVU123
 429 00a6 9842     		cmp	r0, r3
 430 00a8 C8D1     		bne	.L25
 310:lvgl/src/extra/widgets/calendar/lv_calendar.c ****             }
 431              		.loc 1 310 17 is_stmt 1 view .LVU124
 310:lvgl/src/extra/widgets/calendar/lv_calendar.c ****             }
 432              		.loc 1 310 20 is_stmt 0 view .LVU125
 433 00aa 2369     		ldr	r3, [r4, #16]
 310:lvgl/src/extra/widgets/calendar/lv_calendar.c ****             }
 434              		.loc 1 310 39 view .LVU126
 435 00ac B222     		movs	r2, #178
 436 00ae DA70     		strb	r2, [r3, #3]
 437 00b0 C4E7     		b	.L25
 438              		.cfi_endproc
 439              	.LFE216:
 441              		.section	.text.highlight_update,"ax",%progbits
 442              		.align	1
 443              		.syntax unified
 444              		.thumb
 445              		.thumb_func
 447              	highlight_update:
 448              	.LVL46:
 449              	.LFB220:
 376:lvgl/src/extra/widgets/calendar/lv_calendar.c **** 
 377:lvgl/src/extra/widgets/calendar/lv_calendar.c **** static void highlight_update(lv_obj_t * obj)
 378:lvgl/src/extra/widgets/calendar/lv_calendar.c **** {
 450              		.loc 1 378 1 is_stmt 1 view -0
 451              		.cfi_startproc
 452              		@ args = 0, pretend = 0, frame = 0
 453              		@ frame_needed = 0, uses_anonymous_args = 0
ARM GAS  C:\Users\OSD\AppData\Local\Temp\ccyrCEHe.s 			page 17


 454              		.loc 1 378 1 is_stmt 0 view .LVU128
 455 0000 70B5     		push	{r4, r5, r6, lr}
 456              		.cfi_def_cfa_offset 16
 457              		.cfi_offset 4, -16
 458              		.cfi_offset 5, -12
 459              		.cfi_offset 6, -8
 460              		.cfi_offset 14, -4
 461 0002 0546     		mov	r5, r0
 379:lvgl/src/extra/widgets/calendar/lv_calendar.c ****     lv_calendar_t * calendar = (lv_calendar_t *)obj;
 462              		.loc 1 379 5 is_stmt 1 view .LVU129
 463              	.LVL47:
 380:lvgl/src/extra/widgets/calendar/lv_calendar.c ****     uint16_t i;
 464              		.loc 1 380 5 view .LVU130
 381:lvgl/src/extra/widgets/calendar/lv_calendar.c **** 
 382:lvgl/src/extra/widgets/calendar/lv_calendar.c ****     /*Clear all kind of selection*/
 383:lvgl/src/extra/widgets/calendar/lv_calendar.c ****     lv_btnmatrix_clear_btn_ctrl_all(calendar->btnm, LV_CALENDAR_CTRL_TODAY | LV_CALENDAR_CTRL_HIGHL
 465              		.loc 1 383 5 view .LVU131
 466 0004 4FF44041 		mov	r1, #49152
 467 0008 406A     		ldr	r0, [r0, #36]
 468              	.LVL48:
 469              		.loc 1 383 5 is_stmt 0 view .LVU132
 470 000a FFF7FEFF 		bl	lv_btnmatrix_clear_btn_ctrl_all
 471              	.LVL49:
 384:lvgl/src/extra/widgets/calendar/lv_calendar.c **** 
 385:lvgl/src/extra/widgets/calendar/lv_calendar.c ****     uint8_t day_first = get_day_of_week(calendar->showed_date.year, calendar->showed_date.month, 1)
 472              		.loc 1 385 5 is_stmt 1 view .LVU133
 473              		.loc 1 385 25 is_stmt 0 view .LVU134
 474 000e 0122     		movs	r2, #1
 475 0010 95F92E10 		ldrsb	r1, [r5, #46]
 476 0014 A88D     		ldrh	r0, [r5, #44]
 477 0016 FFF7FEFF 		bl	get_day_of_week
 478              	.LVL50:
 479 001a 0646     		mov	r6, r0
 480              	.LVL51:
 386:lvgl/src/extra/widgets/calendar/lv_calendar.c ****     if(calendar->highlighted_dates) {
 481              		.loc 1 386 5 is_stmt 1 view .LVU135
 482              		.loc 1 386 16 is_stmt 0 view .LVU136
 483 001c 2B6B     		ldr	r3, [r5, #48]
 484              		.loc 1 386 7 view .LVU137
 485 001e 0BB3     		cbz	r3, .L31
 387:lvgl/src/extra/widgets/calendar/lv_calendar.c ****         for(i = 0; i < calendar->highlighted_dates_num; i++) {
 486              		.loc 1 387 15 view .LVU138
 487 0020 0024     		movs	r4, #0
 488 0022 01E0     		b	.L30
 489              	.LVL52:
 490              	.L32:
 491              		.loc 1 387 57 is_stmt 1 discriminator 2 view .LVU139
 492              		.loc 1 387 58 is_stmt 0 discriminator 2 view .LVU140
 493 0024 0134     		adds	r4, r4, #1
 494              	.LVL53:
 495              		.loc 1 387 58 discriminator 2 view .LVU141
 496 0026 A4B2     		uxth	r4, r4
 497              	.LVL54:
 498              	.L30:
 499              		.loc 1 387 20 is_stmt 1 discriminator 1 view .LVU142
 500              		.loc 1 387 32 is_stmt 0 discriminator 1 view .LVU143
 501 0028 AB8E     		ldrh	r3, [r5, #52]
ARM GAS  C:\Users\OSD\AppData\Local\Temp\ccyrCEHe.s 			page 18


 502              		.loc 1 387 9 discriminator 1 view .LVU144
 503 002a A342     		cmp	r3, r4
 504 002c 1AD9     		bls	.L31
 388:lvgl/src/extra/widgets/calendar/lv_calendar.c ****             if(calendar->highlighted_dates[i].year == calendar->showed_date.year &&
 505              		.loc 1 388 13 is_stmt 1 view .LVU145
 506              		.loc 1 388 24 is_stmt 0 view .LVU146
 507 002e 2B6B     		ldr	r3, [r5, #48]
 508              		.loc 1 388 43 view .LVU147
 509 0030 03EB8401 		add	r1, r3, r4, lsl #2
 510              		.loc 1 388 46 view .LVU148
 511 0034 33F82420 		ldrh	r2, [r3, r4, lsl #2]
 512              		.loc 1 388 76 view .LVU149
 513 0038 AB8D     		ldrh	r3, [r5, #44]
 514              		.loc 1 388 15 view .LVU150
 515 003a 9A42     		cmp	r2, r3
 516 003c F2D1     		bne	.L32
 389:lvgl/src/extra/widgets/calendar/lv_calendar.c ****                calendar->highlighted_dates[i].month == calendar->showed_date.month) {
 517              		.loc 1 389 46 discriminator 1 view .LVU151
 518 003e 91F90220 		ldrsb	r2, [r1, #2]
 519              		.loc 1 389 77 discriminator 1 view .LVU152
 520 0042 95F92E30 		ldrsb	r3, [r5, #46]
 388:lvgl/src/extra/widgets/calendar/lv_calendar.c ****             if(calendar->highlighted_dates[i].year == calendar->showed_date.year &&
 521              		.loc 1 388 82 discriminator 1 view .LVU153
 522 0046 9A42     		cmp	r2, r3
 523 0048 ECD1     		bne	.L32
 390:lvgl/src/extra/widgets/calendar/lv_calendar.c ****                 lv_btnmatrix_set_btn_ctrl(calendar->btnm, calendar->highlighted_dates[i].day - 1 + 
 524              		.loc 1 390 17 is_stmt 1 view .LVU154
 525              		.loc 1 390 89 is_stmt 0 view .LVU155
 526 004a 91F90310 		ldrsb	r1, [r1, #3]
 527              		.loc 1 390 98 view .LVU156
 528 004e 16FA81F1 		uxtah	r1, r6, r1
 529 0052 89B2     		uxth	r1, r1
 530              		.loc 1 390 17 view .LVU157
 531 0054 0631     		adds	r1, r1, #6
 532 0056 4FF40042 		mov	r2, #32768
 533 005a 89B2     		uxth	r1, r1
 534 005c 686A     		ldr	r0, [r5, #36]
 535 005e FFF7FEFF 		bl	lv_btnmatrix_set_btn_ctrl
 536              	.LVL55:
 537 0062 DFE7     		b	.L32
 538              	.LVL56:
 539              	.L31:
 391:lvgl/src/extra/widgets/calendar/lv_calendar.c ****                                           LV_CALENDAR_CTRL_HIGHLIGHT);
 392:lvgl/src/extra/widgets/calendar/lv_calendar.c ****             }
 393:lvgl/src/extra/widgets/calendar/lv_calendar.c ****         }
 394:lvgl/src/extra/widgets/calendar/lv_calendar.c ****     }
 395:lvgl/src/extra/widgets/calendar/lv_calendar.c **** 
 396:lvgl/src/extra/widgets/calendar/lv_calendar.c ****     if(calendar->showed_date.year == calendar->today.year && calendar->showed_date.month == calenda
 540              		.loc 1 396 5 is_stmt 1 view .LVU158
 541              		.loc 1 396 59 is_stmt 0 view .LVU159
 542 0064 EB6A     		ldr	r3, [r5, #44]
 543 0066 23F07F42 		bic	r2, r3, #-16777216
 544 006a AB6A     		ldr	r3, [r5, #40]
 545 006c 23F07F43 		bic	r3, r3, #-16777216
 546              		.loc 1 396 7 view .LVU160
 547 0070 9A42     		cmp	r2, r3
 548 0072 00D0     		beq	.L37
ARM GAS  C:\Users\OSD\AppData\Local\Temp\ccyrCEHe.s 			page 19


 549              	.L29:
 397:lvgl/src/extra/widgets/calendar/lv_calendar.c ****         lv_btnmatrix_set_btn_ctrl(calendar->btnm, calendar->today.day - 1 + day_first + 7, LV_CALEN
 398:lvgl/src/extra/widgets/calendar/lv_calendar.c ****     }
 399:lvgl/src/extra/widgets/calendar/lv_calendar.c **** }
 550              		.loc 1 399 1 view .LVU161
 551 0074 70BD     		pop	{r4, r5, r6, pc}
 552              	.LVL57:
 553              	.L37:
 397:lvgl/src/extra/widgets/calendar/lv_calendar.c ****         lv_btnmatrix_set_btn_ctrl(calendar->btnm, calendar->today.day - 1 + day_first + 7, LV_CALEN
 554              		.loc 1 397 9 is_stmt 1 view .LVU162
 397:lvgl/src/extra/widgets/calendar/lv_calendar.c ****         lv_btnmatrix_set_btn_ctrl(calendar->btnm, calendar->today.day - 1 + day_first + 7, LV_CALEN
 555              		.loc 1 397 66 is_stmt 0 view .LVU163
 556 0076 95F92B10 		ldrsb	r1, [r5, #43]
 397:lvgl/src/extra/widgets/calendar/lv_calendar.c ****         lv_btnmatrix_set_btn_ctrl(calendar->btnm, calendar->today.day - 1 + day_first + 7, LV_CALEN
 557              		.loc 1 397 75 view .LVU164
 558 007a 16FA81F1 		uxtah	r1, r6, r1
 559 007e 89B2     		uxth	r1, r1
 397:lvgl/src/extra/widgets/calendar/lv_calendar.c ****         lv_btnmatrix_set_btn_ctrl(calendar->btnm, calendar->today.day - 1 + day_first + 7, LV_CALEN
 560              		.loc 1 397 9 view .LVU165
 561 0080 0631     		adds	r1, r1, #6
 562 0082 4FF48042 		mov	r2, #16384
 563 0086 89B2     		uxth	r1, r1
 564 0088 686A     		ldr	r0, [r5, #36]
 565 008a FFF7FEFF 		bl	lv_btnmatrix_set_btn_ctrl
 566              	.LVL58:
 567              		.loc 1 399 1 view .LVU166
 568 008e F1E7     		b	.L29
 569              		.cfi_endproc
 570              	.LFE220:
 572              		.section	.text.lv_calendar_create,"ax",%progbits
 573              		.align	1
 574              		.global	lv_calendar_create
 575              		.syntax unified
 576              		.thumb
 577              		.thumb_func
 579              	lv_calendar_create:
 580              	.LVL59:
 581              	.LFB204:
  61:lvgl/src/extra/widgets/calendar/lv_calendar.c ****     LV_LOG_INFO("begin");
 582              		.loc 1 61 1 is_stmt 1 view -0
 583              		.cfi_startproc
 584              		@ args = 0, pretend = 0, frame = 0
 585              		@ frame_needed = 0, uses_anonymous_args = 0
  61:lvgl/src/extra/widgets/calendar/lv_calendar.c ****     LV_LOG_INFO("begin");
 586              		.loc 1 61 1 is_stmt 0 view .LVU168
 587 0000 10B5     		push	{r4, lr}
 588              		.cfi_def_cfa_offset 8
 589              		.cfi_offset 4, -8
 590              		.cfi_offset 14, -4
 591 0002 0146     		mov	r1, r0
  62:lvgl/src/extra/widgets/calendar/lv_calendar.c ****     lv_obj_t * obj = lv_obj_class_create_obj(&lv_calendar_class, parent);
 592              		.loc 1 62 5 is_stmt 1 view .LVU169
  62:lvgl/src/extra/widgets/calendar/lv_calendar.c ****     lv_obj_t * obj = lv_obj_class_create_obj(&lv_calendar_class, parent);
 593              		.loc 1 62 5 view .LVU170
  62:lvgl/src/extra/widgets/calendar/lv_calendar.c ****     lv_obj_t * obj = lv_obj_class_create_obj(&lv_calendar_class, parent);
 594              		.loc 1 62 5 view .LVU171
  63:lvgl/src/extra/widgets/calendar/lv_calendar.c ****     lv_obj_class_init_obj(obj);
ARM GAS  C:\Users\OSD\AppData\Local\Temp\ccyrCEHe.s 			page 20


 595              		.loc 1 63 5 view .LVU172
  63:lvgl/src/extra/widgets/calendar/lv_calendar.c ****     lv_obj_class_init_obj(obj);
 596              		.loc 1 63 22 is_stmt 0 view .LVU173
 597 0004 0348     		ldr	r0, .L40
 598              	.LVL60:
  63:lvgl/src/extra/widgets/calendar/lv_calendar.c ****     lv_obj_class_init_obj(obj);
 599              		.loc 1 63 22 view .LVU174
 600 0006 FFF7FEFF 		bl	lv_obj_class_create_obj
 601              	.LVL61:
  63:lvgl/src/extra/widgets/calendar/lv_calendar.c ****     lv_obj_class_init_obj(obj);
 602              		.loc 1 63 22 view .LVU175
 603 000a 0446     		mov	r4, r0
 604              	.LVL62:
  64:lvgl/src/extra/widgets/calendar/lv_calendar.c ****     return obj;
 605              		.loc 1 64 5 is_stmt 1 view .LVU176
 606 000c FFF7FEFF 		bl	lv_obj_class_init_obj
 607              	.LVL63:
  65:lvgl/src/extra/widgets/calendar/lv_calendar.c **** }
 608              		.loc 1 65 5 view .LVU177
  66:lvgl/src/extra/widgets/calendar/lv_calendar.c **** 
 609              		.loc 1 66 1 is_stmt 0 view .LVU178
 610 0010 2046     		mov	r0, r4
 611 0012 10BD     		pop	{r4, pc}
 612              	.LVL64:
 613              	.L41:
  66:lvgl/src/extra/widgets/calendar/lv_calendar.c **** 
 614              		.loc 1 66 1 view .LVU179
 615              		.align	2
 616              	.L40:
 617 0014 00000000 		.word	.LANCHOR0
 618              		.cfi_endproc
 619              	.LFE204:
 621              		.section	.text.lv_calendar_set_day_names,"ax",%progbits
 622              		.align	1
 623              		.global	lv_calendar_set_day_names
 624              		.syntax unified
 625              		.thumb
 626              		.thumb_func
 628              	lv_calendar_set_day_names:
 629              	.LVL65:
 630              	.LFB205:
  73:lvgl/src/extra/widgets/calendar/lv_calendar.c ****     LV_ASSERT_OBJ(obj, MY_CLASS);
 631              		.loc 1 73 1 is_stmt 1 view -0
 632              		.cfi_startproc
 633              		@ args = 0, pretend = 0, frame = 0
 634              		@ frame_needed = 0, uses_anonymous_args = 0
  73:lvgl/src/extra/widgets/calendar/lv_calendar.c ****     LV_ASSERT_OBJ(obj, MY_CLASS);
 635              		.loc 1 73 1 is_stmt 0 view .LVU181
 636 0000 10B5     		push	{r4, lr}
 637              		.cfi_def_cfa_offset 8
 638              		.cfi_offset 4, -8
 639              		.cfi_offset 14, -4
  74:lvgl/src/extra/widgets/calendar/lv_calendar.c ****     lv_calendar_t * calendar = (lv_calendar_t *)obj;
 640              		.loc 1 74 5 is_stmt 1 view .LVU182
  74:lvgl/src/extra/widgets/calendar/lv_calendar.c ****     lv_calendar_t * calendar = (lv_calendar_t *)obj;
 641              		.loc 1 74 5 view .LVU183
  74:lvgl/src/extra/widgets/calendar/lv_calendar.c ****     lv_calendar_t * calendar = (lv_calendar_t *)obj;
ARM GAS  C:\Users\OSD\AppData\Local\Temp\ccyrCEHe.s 			page 21


 642              		.loc 1 74 5 view .LVU184
  75:lvgl/src/extra/widgets/calendar/lv_calendar.c **** 
 643              		.loc 1 75 5 view .LVU185
 644              	.LVL66:
  77:lvgl/src/extra/widgets/calendar/lv_calendar.c ****     for(i = 0; i < 7; i++) {
 645              		.loc 1 77 5 view .LVU186
  78:lvgl/src/extra/widgets/calendar/lv_calendar.c ****         calendar->map[i] = day_names[i];
 646              		.loc 1 78 5 view .LVU187
  78:lvgl/src/extra/widgets/calendar/lv_calendar.c ****         calendar->map[i] = day_names[i];
 647              		.loc 1 78 11 is_stmt 0 view .LVU188
 648 0002 0023     		movs	r3, #0
  78:lvgl/src/extra/widgets/calendar/lv_calendar.c ****         calendar->map[i] = day_names[i];
 649              		.loc 1 78 5 view .LVU189
 650 0004 06E0     		b	.L43
 651              	.LVL67:
 652              	.L44:
  79:lvgl/src/extra/widgets/calendar/lv_calendar.c ****     }
 653              		.loc 1 79 9 is_stmt 1 discriminator 3 view .LVU190
  79:lvgl/src/extra/widgets/calendar/lv_calendar.c ****     }
 654              		.loc 1 79 26 is_stmt 0 discriminator 3 view .LVU191
 655 0006 03F10E02 		add	r2, r3, #14
 656 000a 51F82340 		ldr	r4, [r1, r3, lsl #2]
 657 000e 40F82240 		str	r4, [r0, r2, lsl #2]
  78:lvgl/src/extra/widgets/calendar/lv_calendar.c ****         calendar->map[i] = day_names[i];
 658              		.loc 1 78 23 is_stmt 1 discriminator 3 view .LVU192
  78:lvgl/src/extra/widgets/calendar/lv_calendar.c ****         calendar->map[i] = day_names[i];
 659              		.loc 1 78 24 is_stmt 0 discriminator 3 view .LVU193
 660 0012 0133     		adds	r3, r3, #1
 661              	.LVL68:
 662              	.L43:
  78:lvgl/src/extra/widgets/calendar/lv_calendar.c ****         calendar->map[i] = day_names[i];
 663              		.loc 1 78 16 is_stmt 1 discriminator 1 view .LVU194
  78:lvgl/src/extra/widgets/calendar/lv_calendar.c ****         calendar->map[i] = day_names[i];
 664              		.loc 1 78 5 is_stmt 0 discriminator 1 view .LVU195
 665 0014 062B     		cmp	r3, #6
 666 0016 F6D9     		bls	.L44
  81:lvgl/src/extra/widgets/calendar/lv_calendar.c **** }
 667              		.loc 1 81 5 is_stmt 1 view .LVU196
 668 0018 FFF7FEFF 		bl	lv_obj_invalidate
 669              	.LVL69:
  82:lvgl/src/extra/widgets/calendar/lv_calendar.c **** 
 670              		.loc 1 82 1 is_stmt 0 view .LVU197
 671 001c 10BD     		pop	{r4, pc}
 672              		.cfi_endproc
 673              	.LFE205:
 675              		.section	.text.lv_calendar_set_today_date,"ax",%progbits
 676              		.align	1
 677              		.global	lv_calendar_set_today_date
 678              		.syntax unified
 679              		.thumb
 680              		.thumb_func
 682              	lv_calendar_set_today_date:
 683              	.LVL70:
 684              	.LFB206:
  85:lvgl/src/extra/widgets/calendar/lv_calendar.c ****     LV_ASSERT_OBJ(obj, MY_CLASS);
 685              		.loc 1 85 1 is_stmt 1 view -0
 686              		.cfi_startproc
ARM GAS  C:\Users\OSD\AppData\Local\Temp\ccyrCEHe.s 			page 22


 687              		@ args = 0, pretend = 0, frame = 0
 688              		@ frame_needed = 0, uses_anonymous_args = 0
  85:lvgl/src/extra/widgets/calendar/lv_calendar.c ****     LV_ASSERT_OBJ(obj, MY_CLASS);
 689              		.loc 1 85 1 is_stmt 0 view .LVU199
 690 0000 08B5     		push	{r3, lr}
 691              		.cfi_def_cfa_offset 8
 692              		.cfi_offset 3, -8
 693              		.cfi_offset 14, -4
  86:lvgl/src/extra/widgets/calendar/lv_calendar.c ****     lv_calendar_t * calendar = (lv_calendar_t *)obj;
 694              		.loc 1 86 5 is_stmt 1 view .LVU200
  86:lvgl/src/extra/widgets/calendar/lv_calendar.c ****     lv_calendar_t * calendar = (lv_calendar_t *)obj;
 695              		.loc 1 86 5 view .LVU201
  86:lvgl/src/extra/widgets/calendar/lv_calendar.c ****     lv_calendar_t * calendar = (lv_calendar_t *)obj;
 696              		.loc 1 86 5 view .LVU202
  87:lvgl/src/extra/widgets/calendar/lv_calendar.c **** 
 697              		.loc 1 87 5 view .LVU203
 698              	.LVL71:
  89:lvgl/src/extra/widgets/calendar/lv_calendar.c ****     calendar->today.month        = month;
 699              		.loc 1 89 5 view .LVU204
  89:lvgl/src/extra/widgets/calendar/lv_calendar.c ****     calendar->today.month        = month;
 700              		.loc 1 89 34 is_stmt 0 view .LVU205
 701 0002 0185     		strh	r1, [r0, #40]	@ movhi
  90:lvgl/src/extra/widgets/calendar/lv_calendar.c ****     calendar->today.day          = day;
 702              		.loc 1 90 5 is_stmt 1 view .LVU206
  90:lvgl/src/extra/widgets/calendar/lv_calendar.c ****     calendar->today.day          = day;
 703              		.loc 1 90 34 is_stmt 0 view .LVU207
 704 0004 80F82A20 		strb	r2, [r0, #42]
  91:lvgl/src/extra/widgets/calendar/lv_calendar.c **** 
 705              		.loc 1 91 5 is_stmt 1 view .LVU208
  91:lvgl/src/extra/widgets/calendar/lv_calendar.c **** 
 706              		.loc 1 91 34 is_stmt 0 view .LVU209
 707 0008 80F82B30 		strb	r3, [r0, #43]
  93:lvgl/src/extra/widgets/calendar/lv_calendar.c **** }
 708              		.loc 1 93 5 is_stmt 1 view .LVU210
 709 000c FFF7FEFF 		bl	highlight_update
 710              	.LVL72:
  94:lvgl/src/extra/widgets/calendar/lv_calendar.c **** 
 711              		.loc 1 94 1 is_stmt 0 view .LVU211
 712 0010 08BD     		pop	{r3, pc}
 713              		.cfi_endproc
 714              	.LFE206:
 716              		.section	.text.lv_calendar_set_highlighted_dates,"ax",%progbits
 717              		.align	1
 718              		.global	lv_calendar_set_highlighted_dates
 719              		.syntax unified
 720              		.thumb
 721              		.thumb_func
 723              	lv_calendar_set_highlighted_dates:
 724              	.LVL73:
 725              	.LFB207:
  97:lvgl/src/extra/widgets/calendar/lv_calendar.c ****     LV_ASSERT_NULL(highlighted);
 726              		.loc 1 97 1 is_stmt 1 view -0
 727              		.cfi_startproc
 728              		@ args = 0, pretend = 0, frame = 0
 729              		@ frame_needed = 0, uses_anonymous_args = 0
  98:lvgl/src/extra/widgets/calendar/lv_calendar.c **** 
 730              		.loc 1 98 5 view .LVU213
ARM GAS  C:\Users\OSD\AppData\Local\Temp\ccyrCEHe.s 			page 23


  98:lvgl/src/extra/widgets/calendar/lv_calendar.c **** 
 731              		.loc 1 98 5 view .LVU214
 732 0000 29B1     		cbz	r1, .L50
  97:lvgl/src/extra/widgets/calendar/lv_calendar.c ****     LV_ASSERT_NULL(highlighted);
 733              		.loc 1 97 1 is_stmt 0 discriminator 2 view .LVU215
 734 0002 08B5     		push	{r3, lr}
 735              		.cfi_def_cfa_offset 8
 736              		.cfi_offset 3, -8
 737              		.cfi_offset 14, -4
  98:lvgl/src/extra/widgets/calendar/lv_calendar.c **** 
 738              		.loc 1 98 5 is_stmt 1 discriminator 2 view .LVU216
  98:lvgl/src/extra/widgets/calendar/lv_calendar.c **** 
 739              		.loc 1 98 32 discriminator 2 view .LVU217
 100:lvgl/src/extra/widgets/calendar/lv_calendar.c ****     lv_calendar_t * calendar = (lv_calendar_t *)obj;
 740              		.loc 1 100 5 discriminator 2 view .LVU218
 100:lvgl/src/extra/widgets/calendar/lv_calendar.c ****     lv_calendar_t * calendar = (lv_calendar_t *)obj;
 741              		.loc 1 100 5 discriminator 2 view .LVU219
 100:lvgl/src/extra/widgets/calendar/lv_calendar.c ****     lv_calendar_t * calendar = (lv_calendar_t *)obj;
 742              		.loc 1 100 5 discriminator 2 view .LVU220
 101:lvgl/src/extra/widgets/calendar/lv_calendar.c **** 
 743              		.loc 1 101 5 discriminator 2 view .LVU221
 744              	.LVL74:
 103:lvgl/src/extra/widgets/calendar/lv_calendar.c ****     calendar->highlighted_dates_num = date_num;
 745              		.loc 1 103 5 discriminator 2 view .LVU222
 103:lvgl/src/extra/widgets/calendar/lv_calendar.c ****     calendar->highlighted_dates_num = date_num;
 746              		.loc 1 103 37 is_stmt 0 discriminator 2 view .LVU223
 747 0004 0163     		str	r1, [r0, #48]
 104:lvgl/src/extra/widgets/calendar/lv_calendar.c **** 
 748              		.loc 1 104 5 is_stmt 1 discriminator 2 view .LVU224
 104:lvgl/src/extra/widgets/calendar/lv_calendar.c **** 
 749              		.loc 1 104 37 is_stmt 0 discriminator 2 view .LVU225
 750 0006 8286     		strh	r2, [r0, #52]	@ movhi
 106:lvgl/src/extra/widgets/calendar/lv_calendar.c **** }
 751              		.loc 1 106 5 is_stmt 1 discriminator 2 view .LVU226
 752 0008 FFF7FEFF 		bl	highlight_update
 753              	.LVL75:
 107:lvgl/src/extra/widgets/calendar/lv_calendar.c **** 
 754              		.loc 1 107 1 is_stmt 0 discriminator 2 view .LVU227
 755 000c 08BD     		pop	{r3, pc}
 756              	.LVL76:
 757              	.L50:
 758              		.cfi_def_cfa_offset 0
 759              		.cfi_restore 3
 760              		.cfi_restore 14
  98:lvgl/src/extra/widgets/calendar/lv_calendar.c **** 
 761              		.loc 1 98 5 is_stmt 1 discriminator 1 view .LVU228
  98:lvgl/src/extra/widgets/calendar/lv_calendar.c **** 
 762              		.loc 1 98 5 discriminator 1 view .LVU229
  98:lvgl/src/extra/widgets/calendar/lv_calendar.c **** 
 763              		.loc 1 98 5 discriminator 1 view .LVU230
  98:lvgl/src/extra/widgets/calendar/lv_calendar.c **** 
 764              		.loc 1 98 5 discriminator 1 view .LVU231
  98:lvgl/src/extra/widgets/calendar/lv_calendar.c **** 
 765              		.loc 1 98 5 discriminator 1 view .LVU232
  98:lvgl/src/extra/widgets/calendar/lv_calendar.c **** 
 766              		.loc 1 98 5 discriminator 1 view .LVU233
 767 000e FEE7     		b	.L50
ARM GAS  C:\Users\OSD\AppData\Local\Temp\ccyrCEHe.s 			page 24


 768              		.cfi_endproc
 769              	.LFE207:
 771              		.section	.rodata.lv_calendar_set_showed_date.str1.4,"aMS",%progbits,1
 772              		.align	2
 773              	.LC0:
 774 0000 256400   		.ascii	"%d\000"
 775              		.section	.text.lv_calendar_set_showed_date,"ax",%progbits
 776              		.align	1
 777              		.global	lv_calendar_set_showed_date
 778              		.syntax unified
 779              		.thumb
 780              		.thumb_func
 782              	lv_calendar_set_showed_date:
 783              	.LVL77:
 784              	.LFB208:
 110:lvgl/src/extra/widgets/calendar/lv_calendar.c ****     LV_ASSERT_OBJ(obj, MY_CLASS);
 785              		.loc 1 110 1 view -0
 786              		.cfi_startproc
 787              		@ args = 0, pretend = 0, frame = 8
 788              		@ frame_needed = 0, uses_anonymous_args = 0
 110:lvgl/src/extra/widgets/calendar/lv_calendar.c ****     LV_ASSERT_OBJ(obj, MY_CLASS);
 789              		.loc 1 110 1 is_stmt 0 view .LVU235
 790 0000 2DE9F04F 		push	{r4, r5, r6, r7, r8, r9, r10, fp, lr}
 791              		.cfi_def_cfa_offset 36
 792              		.cfi_offset 4, -36
 793              		.cfi_offset 5, -32
 794              		.cfi_offset 6, -28
 795              		.cfi_offset 7, -24
 796              		.cfi_offset 8, -20
 797              		.cfi_offset 9, -16
 798              		.cfi_offset 10, -12
 799              		.cfi_offset 11, -8
 800              		.cfi_offset 14, -4
 801 0004 83B0     		sub	sp, sp, #12
 802              		.cfi_def_cfa_offset 48
 803 0006 0446     		mov	r4, r0
 111:lvgl/src/extra/widgets/calendar/lv_calendar.c ****     lv_calendar_t * calendar = (lv_calendar_t *)obj;
 804              		.loc 1 111 5 is_stmt 1 view .LVU236
 111:lvgl/src/extra/widgets/calendar/lv_calendar.c ****     lv_calendar_t * calendar = (lv_calendar_t *)obj;
 805              		.loc 1 111 5 view .LVU237
 111:lvgl/src/extra/widgets/calendar/lv_calendar.c ****     lv_calendar_t * calendar = (lv_calendar_t *)obj;
 806              		.loc 1 111 5 view .LVU238
 112:lvgl/src/extra/widgets/calendar/lv_calendar.c **** 
 807              		.loc 1 112 5 view .LVU239
 808              	.LVL78:
 114:lvgl/src/extra/widgets/calendar/lv_calendar.c ****     calendar->showed_date.month  = month;
 809              		.loc 1 114 5 view .LVU240
 114:lvgl/src/extra/widgets/calendar/lv_calendar.c ****     calendar->showed_date.month  = month;
 810              		.loc 1 114 34 is_stmt 0 view .LVU241
 811 0008 1FFA81F9 		uxth	r9, r1
 812 000c A0F82C90 		strh	r9, [r0, #44]	@ movhi
 115:lvgl/src/extra/widgets/calendar/lv_calendar.c ****     calendar->showed_date.day    = 1;
 813              		.loc 1 115 5 is_stmt 1 view .LVU242
 115:lvgl/src/extra/widgets/calendar/lv_calendar.c ****     calendar->showed_date.day    = 1;
 814              		.loc 1 115 34 is_stmt 0 view .LVU243
 815 0010 4FFA82FA 		sxtb	r10, r2
 816 0014 80F82EA0 		strb	r10, [r0, #46]
ARM GAS  C:\Users\OSD\AppData\Local\Temp\ccyrCEHe.s 			page 25


 116:lvgl/src/extra/widgets/calendar/lv_calendar.c **** 
 817              		.loc 1 116 5 is_stmt 1 view .LVU244
 116:lvgl/src/extra/widgets/calendar/lv_calendar.c **** 
 818              		.loc 1 116 34 is_stmt 0 view .LVU245
 819 0018 0123     		movs	r3, #1
 820 001a 80F82F30 		strb	r3, [r0, #47]
 118:lvgl/src/extra/widgets/calendar/lv_calendar.c ****     d.year = calendar->showed_date.year;
 821              		.loc 1 118 5 is_stmt 1 view .LVU246
 119:lvgl/src/extra/widgets/calendar/lv_calendar.c ****     d.month = calendar->showed_date.month;
 822              		.loc 1 119 5 view .LVU247
 119:lvgl/src/extra/widgets/calendar/lv_calendar.c ****     d.month = calendar->showed_date.month;
 823              		.loc 1 119 12 is_stmt 0 view .LVU248
 824 001e ADF80490 		strh	r9, [sp, #4]	@ movhi
 120:lvgl/src/extra/widgets/calendar/lv_calendar.c ****     d.day = calendar->showed_date.day;
 825              		.loc 1 120 5 is_stmt 1 view .LVU249
 120:lvgl/src/extra/widgets/calendar/lv_calendar.c ****     d.day = calendar->showed_date.day;
 826              		.loc 1 120 13 is_stmt 0 view .LVU250
 827 0022 8DF806A0 		strb	r10, [sp, #6]
 121:lvgl/src/extra/widgets/calendar/lv_calendar.c **** 
 828              		.loc 1 121 5 is_stmt 1 view .LVU251
 121:lvgl/src/extra/widgets/calendar/lv_calendar.c **** 
 829              		.loc 1 121 11 is_stmt 0 view .LVU252
 830 0026 8DF80730 		strb	r3, [sp, #7]
 123:lvgl/src/extra/widgets/calendar/lv_calendar.c **** 
 831              		.loc 1 123 5 is_stmt 1 view .LVU253
 126:lvgl/src/extra/widgets/calendar/lv_calendar.c ****     for(i = 0; i < 7; i++) {
 832              		.loc 1 126 5 view .LVU254
 833 002a 4021     		movs	r1, #64
 834              	.LVL79:
 126:lvgl/src/extra/widgets/calendar/lv_calendar.c ****     for(i = 0; i < 7; i++) {
 835              		.loc 1 126 5 is_stmt 0 view .LVU255
 836 002c 406A     		ldr	r0, [r0, #36]
 837              	.LVL80:
 126:lvgl/src/extra/widgets/calendar/lv_calendar.c ****     for(i = 0; i < 7; i++) {
 838              		.loc 1 126 5 view .LVU256
 839 002e FFF7FEFF 		bl	lv_btnmatrix_clear_btn_ctrl_all
 840              	.LVL81:
 127:lvgl/src/extra/widgets/calendar/lv_calendar.c ****         lv_btnmatrix_set_btn_ctrl(calendar->btnm, i, LV_BTNMATRIX_CTRL_DISABLED);
 841              		.loc 1 127 5 is_stmt 1 view .LVU257
 127:lvgl/src/extra/widgets/calendar/lv_calendar.c ****         lv_btnmatrix_set_btn_ctrl(calendar->btnm, i, LV_BTNMATRIX_CTRL_DISABLED);
 842              		.loc 1 127 11 is_stmt 0 view .LVU258
 843 0032 0025     		movs	r5, #0
 127:lvgl/src/extra/widgets/calendar/lv_calendar.c ****         lv_btnmatrix_set_btn_ctrl(calendar->btnm, i, LV_BTNMATRIX_CTRL_DISABLED);
 844              		.loc 1 127 5 view .LVU259
 845 0034 05E0     		b	.L54
 846              	.LVL82:
 847              	.L55:
 128:lvgl/src/extra/widgets/calendar/lv_calendar.c ****     }
 848              		.loc 1 128 9 is_stmt 1 discriminator 3 view .LVU260
 849 0036 4022     		movs	r2, #64
 850 0038 A9B2     		uxth	r1, r5
 851 003a 606A     		ldr	r0, [r4, #36]
 852 003c FFF7FEFF 		bl	lv_btnmatrix_set_btn_ctrl
 853              	.LVL83:
 127:lvgl/src/extra/widgets/calendar/lv_calendar.c ****         lv_btnmatrix_set_btn_ctrl(calendar->btnm, i, LV_BTNMATRIX_CTRL_DISABLED);
 854              		.loc 1 127 23 discriminator 3 view .LVU261
 127:lvgl/src/extra/widgets/calendar/lv_calendar.c ****         lv_btnmatrix_set_btn_ctrl(calendar->btnm, i, LV_BTNMATRIX_CTRL_DISABLED);
ARM GAS  C:\Users\OSD\AppData\Local\Temp\ccyrCEHe.s 			page 26


 855              		.loc 1 127 24 is_stmt 0 discriminator 3 view .LVU262
 856 0040 0135     		adds	r5, r5, #1
 857              	.LVL84:
 858              	.L54:
 127:lvgl/src/extra/widgets/calendar/lv_calendar.c ****         lv_btnmatrix_set_btn_ctrl(calendar->btnm, i, LV_BTNMATRIX_CTRL_DISABLED);
 859              		.loc 1 127 16 is_stmt 1 discriminator 1 view .LVU263
 127:lvgl/src/extra/widgets/calendar/lv_calendar.c ****         lv_btnmatrix_set_btn_ctrl(calendar->btnm, i, LV_BTNMATRIX_CTRL_DISABLED);
 860              		.loc 1 127 5 is_stmt 0 discriminator 1 view .LVU264
 861 0042 062D     		cmp	r5, #6
 862 0044 F7D9     		bls	.L55
 131:lvgl/src/extra/widgets/calendar/lv_calendar.c ****     uint8_t day_first = get_day_of_week(d.year, d.month, 1);
 863              		.loc 1 131 5 is_stmt 1 view .LVU265
 131:lvgl/src/extra/widgets/calendar/lv_calendar.c ****     uint8_t day_first = get_day_of_week(d.year, d.month, 1);
 864              		.loc 1 131 26 is_stmt 0 view .LVU266
 865 0046 5146     		mov	r1, r10
 866 0048 4846     		mov	r0, r9
 867 004a FFF7FEFF 		bl	get_month_length
 868              	.LVL85:
 869 004e 8346     		mov	fp, r0
 870              	.LVL86:
 132:lvgl/src/extra/widgets/calendar/lv_calendar.c ****     uint8_t c;
 871              		.loc 1 132 5 is_stmt 1 view .LVU267
 132:lvgl/src/extra/widgets/calendar/lv_calendar.c ****     uint8_t c;
 872              		.loc 1 132 25 is_stmt 0 view .LVU268
 873 0050 0122     		movs	r2, #1
 874 0052 5146     		mov	r1, r10
 875 0054 4846     		mov	r0, r9
 876 0056 FFF7FEFF 		bl	get_day_of_week
 877              	.LVL87:
 878 005a 0746     		mov	r7, r0
 879              	.LVL88:
 133:lvgl/src/extra/widgets/calendar/lv_calendar.c ****     for(i = day_first, c = 1; i < act_mo_len + day_first; i++, c++) {
 880              		.loc 1 133 5 is_stmt 1 view .LVU269
 134:lvgl/src/extra/widgets/calendar/lv_calendar.c ****         lv_snprintf(calendar->nums[i], sizeof(calendar->nums[0]), "%d", c);
 881              		.loc 1 134 5 view .LVU270
 134:lvgl/src/extra/widgets/calendar/lv_calendar.c ****         lv_snprintf(calendar->nums[i], sizeof(calendar->nums[0]), "%d", c);
 882              		.loc 1 134 11 is_stmt 0 view .LVU271
 883 005c 8046     		mov	r8, r0
 134:lvgl/src/extra/widgets/calendar/lv_calendar.c ****         lv_snprintf(calendar->nums[i], sizeof(calendar->nums[0]), "%d", c);
 884              		.loc 1 134 26 view .LVU272
 885 005e 0126     		movs	r6, #1
 134:lvgl/src/extra/widgets/calendar/lv_calendar.c ****         lv_snprintf(calendar->nums[i], sizeof(calendar->nums[0]), "%d", c);
 886              		.loc 1 134 5 view .LVU273
 887 0060 0CE0     		b	.L56
 888              	.LVL89:
 889              	.L57:
 135:lvgl/src/extra/widgets/calendar/lv_calendar.c ****     }
 890              		.loc 1 135 9 is_stmt 1 discriminator 3 view .LVU274
 135:lvgl/src/extra/widgets/calendar/lv_calendar.c ****     }
 891              		.loc 1 135 35 is_stmt 0 discriminator 3 view .LVU275
 892 0062 08F14600 		add	r0, r8, #70
 135:lvgl/src/extra/widgets/calendar/lv_calendar.c ****     }
 893              		.loc 1 135 9 discriminator 3 view .LVU276
 894 0066 3346     		mov	r3, r6
 895 0068 384A     		ldr	r2, .L70
 896 006a 0421     		movs	r1, #4
 897 006c 04EB8000 		add	r0, r4, r0, lsl #2
ARM GAS  C:\Users\OSD\AppData\Local\Temp\ccyrCEHe.s 			page 27


 898 0070 FFF7FEFF 		bl	lv_snprintf
 899              	.LVL90:
 134:lvgl/src/extra/widgets/calendar/lv_calendar.c ****         lv_snprintf(calendar->nums[i], sizeof(calendar->nums[0]), "%d", c);
 900              		.loc 1 134 59 is_stmt 1 discriminator 3 view .LVU277
 134:lvgl/src/extra/widgets/calendar/lv_calendar.c ****         lv_snprintf(calendar->nums[i], sizeof(calendar->nums[0]), "%d", c);
 901              		.loc 1 134 60 is_stmt 0 discriminator 3 view .LVU278
 902 0074 08F10108 		add	r8, r8, #1
 903              	.LVL91:
 134:lvgl/src/extra/widgets/calendar/lv_calendar.c ****         lv_snprintf(calendar->nums[i], sizeof(calendar->nums[0]), "%d", c);
 904              		.loc 1 134 65 discriminator 3 view .LVU279
 905 0078 0136     		adds	r6, r6, #1
 906              	.LVL92:
 134:lvgl/src/extra/widgets/calendar/lv_calendar.c ****         lv_snprintf(calendar->nums[i], sizeof(calendar->nums[0]), "%d", c);
 907              		.loc 1 134 65 discriminator 3 view .LVU280
 908 007a F6B2     		uxtb	r6, r6
 909              	.LVL93:
 910              	.L56:
 134:lvgl/src/extra/widgets/calendar/lv_calendar.c ****         lv_snprintf(calendar->nums[i], sizeof(calendar->nums[0]), "%d", c);
 911              		.loc 1 134 31 is_stmt 1 discriminator 1 view .LVU281
 134:lvgl/src/extra/widgets/calendar/lv_calendar.c ****         lv_snprintf(calendar->nums[i], sizeof(calendar->nums[0]), "%d", c);
 912              		.loc 1 134 46 is_stmt 0 discriminator 1 view .LVU282
 913 007c 0BEB0705 		add	r5, fp, r7
 134:lvgl/src/extra/widgets/calendar/lv_calendar.c ****         lv_snprintf(calendar->nums[i], sizeof(calendar->nums[0]), "%d", c);
 914              		.loc 1 134 5 discriminator 1 view .LVU283
 915 0080 4545     		cmp	r5, r8
 916 0082 EED8     		bhi	.L57
 138:lvgl/src/extra/widgets/calendar/lv_calendar.c ****     for(i = 0, c = prev_mo_len - day_first + 1; i < day_first; i++, c++) {
 917              		.loc 1 138 5 is_stmt 1 view .LVU284
 138:lvgl/src/extra/widgets/calendar/lv_calendar.c ****     for(i = 0, c = prev_mo_len - day_first + 1; i < day_first; i++, c++) {
 918              		.loc 1 138 27 is_stmt 0 view .LVU285
 919 0084 0AF1FF31 		add	r1, r10, #-1
 920 0088 4846     		mov	r0, r9
 921 008a FFF7FEFF 		bl	get_month_length
 922              	.LVL94:
 139:lvgl/src/extra/widgets/calendar/lv_calendar.c ****         lv_snprintf(calendar->nums[i], sizeof(calendar->nums[0]), "%d", c);
 923              		.loc 1 139 5 is_stmt 1 view .LVU286
 139:lvgl/src/extra/widgets/calendar/lv_calendar.c ****         lv_snprintf(calendar->nums[i], sizeof(calendar->nums[0]), "%d", c);
 924              		.loc 1 139 32 is_stmt 0 view .LVU287
 925 008e C61B     		subs	r6, r0, r7
 926              	.LVL95:
 139:lvgl/src/extra/widgets/calendar/lv_calendar.c ****         lv_snprintf(calendar->nums[i], sizeof(calendar->nums[0]), "%d", c);
 927              		.loc 1 139 32 view .LVU288
 928 0090 F6B2     		uxtb	r6, r6
 139:lvgl/src/extra/widgets/calendar/lv_calendar.c ****         lv_snprintf(calendar->nums[i], sizeof(calendar->nums[0]), "%d", c);
 929              		.loc 1 139 18 view .LVU289
 930 0092 0136     		adds	r6, r6, #1
 931 0094 F6B2     		uxtb	r6, r6
 932              	.LVL96:
 139:lvgl/src/extra/widgets/calendar/lv_calendar.c ****         lv_snprintf(calendar->nums[i], sizeof(calendar->nums[0]), "%d", c);
 933              		.loc 1 139 11 view .LVU290
 934 0096 4FF00008 		mov	r8, #0
 139:lvgl/src/extra/widgets/calendar/lv_calendar.c ****         lv_snprintf(calendar->nums[i], sizeof(calendar->nums[0]), "%d", c);
 935              		.loc 1 139 5 view .LVU291
 936 009a 13E0     		b	.L58
 937              	.LVL97:
 938              	.L59:
 140:lvgl/src/extra/widgets/calendar/lv_calendar.c ****         lv_btnmatrix_set_btn_ctrl(calendar->btnm, i + 7, LV_BTNMATRIX_CTRL_DISABLED);
ARM GAS  C:\Users\OSD\AppData\Local\Temp\ccyrCEHe.s 			page 28


 939              		.loc 1 140 9 is_stmt 1 discriminator 3 view .LVU292
 140:lvgl/src/extra/widgets/calendar/lv_calendar.c ****         lv_btnmatrix_set_btn_ctrl(calendar->btnm, i + 7, LV_BTNMATRIX_CTRL_DISABLED);
 940              		.loc 1 140 35 is_stmt 0 discriminator 3 view .LVU293
 941 009c 08F14600 		add	r0, r8, #70
 140:lvgl/src/extra/widgets/calendar/lv_calendar.c ****         lv_btnmatrix_set_btn_ctrl(calendar->btnm, i + 7, LV_BTNMATRIX_CTRL_DISABLED);
 942              		.loc 1 140 9 discriminator 3 view .LVU294
 943 00a0 3346     		mov	r3, r6
 944 00a2 2A4A     		ldr	r2, .L70
 945 00a4 0421     		movs	r1, #4
 946 00a6 04EB8000 		add	r0, r4, r0, lsl #2
 947 00aa FFF7FEFF 		bl	lv_snprintf
 948              	.LVL98:
 141:lvgl/src/extra/widgets/calendar/lv_calendar.c ****     }
 949              		.loc 1 141 9 is_stmt 1 discriminator 3 view .LVU295
 950 00ae 08F10701 		add	r1, r8, #7
 951 00b2 4022     		movs	r2, #64
 952 00b4 89B2     		uxth	r1, r1
 953 00b6 606A     		ldr	r0, [r4, #36]
 954 00b8 FFF7FEFF 		bl	lv_btnmatrix_set_btn_ctrl
 955              	.LVL99:
 139:lvgl/src/extra/widgets/calendar/lv_calendar.c ****         lv_snprintf(calendar->nums[i], sizeof(calendar->nums[0]), "%d", c);
 956              		.loc 1 139 64 discriminator 3 view .LVU296
 139:lvgl/src/extra/widgets/calendar/lv_calendar.c ****         lv_snprintf(calendar->nums[i], sizeof(calendar->nums[0]), "%d", c);
 957              		.loc 1 139 65 is_stmt 0 discriminator 3 view .LVU297
 958 00bc 08F10108 		add	r8, r8, #1
 959              	.LVL100:
 139:lvgl/src/extra/widgets/calendar/lv_calendar.c ****         lv_snprintf(calendar->nums[i], sizeof(calendar->nums[0]), "%d", c);
 960              		.loc 1 139 70 discriminator 3 view .LVU298
 961 00c0 0136     		adds	r6, r6, #1
 962              	.LVL101:
 139:lvgl/src/extra/widgets/calendar/lv_calendar.c ****         lv_snprintf(calendar->nums[i], sizeof(calendar->nums[0]), "%d", c);
 963              		.loc 1 139 70 discriminator 3 view .LVU299
 964 00c2 F6B2     		uxtb	r6, r6
 965              	.LVL102:
 966              	.L58:
 139:lvgl/src/extra/widgets/calendar/lv_calendar.c ****         lv_snprintf(calendar->nums[i], sizeof(calendar->nums[0]), "%d", c);
 967              		.loc 1 139 49 is_stmt 1 discriminator 1 view .LVU300
 139:lvgl/src/extra/widgets/calendar/lv_calendar.c ****         lv_snprintf(calendar->nums[i], sizeof(calendar->nums[0]), "%d", c);
 968              		.loc 1 139 5 is_stmt 0 discriminator 1 view .LVU301
 969 00c4 B845     		cmp	r8, r7
 970 00c6 E9D3     		bcc	.L59
 144:lvgl/src/extra/widgets/calendar/lv_calendar.c ****         lv_snprintf(calendar->nums[i], sizeof(calendar->nums[0]), "%d", c);
 971              		.loc 1 144 39 view .LVU302
 972 00c8 0126     		movs	r6, #1
 973              	.LVL103:
 144:lvgl/src/extra/widgets/calendar/lv_calendar.c ****         lv_snprintf(calendar->nums[i], sizeof(calendar->nums[0]), "%d", c);
 974              		.loc 1 144 39 view .LVU303
 975 00ca 11E0     		b	.L60
 976              	.LVL104:
 977              	.L61:
 145:lvgl/src/extra/widgets/calendar/lv_calendar.c ****         lv_btnmatrix_set_btn_ctrl(calendar->btnm, i + 7, LV_BTNMATRIX_CTRL_DISABLED);
 978              		.loc 1 145 9 is_stmt 1 discriminator 3 view .LVU304
 145:lvgl/src/extra/widgets/calendar/lv_calendar.c ****         lv_btnmatrix_set_btn_ctrl(calendar->btnm, i + 7, LV_BTNMATRIX_CTRL_DISABLED);
 979              		.loc 1 145 35 is_stmt 0 discriminator 3 view .LVU305
 980 00cc 05F14600 		add	r0, r5, #70
 145:lvgl/src/extra/widgets/calendar/lv_calendar.c ****         lv_btnmatrix_set_btn_ctrl(calendar->btnm, i + 7, LV_BTNMATRIX_CTRL_DISABLED);
 981              		.loc 1 145 9 discriminator 3 view .LVU306
ARM GAS  C:\Users\OSD\AppData\Local\Temp\ccyrCEHe.s 			page 29


 982 00d0 3346     		mov	r3, r6
 983 00d2 1E4A     		ldr	r2, .L70
 984 00d4 0421     		movs	r1, #4
 985 00d6 04EB8000 		add	r0, r4, r0, lsl #2
 986 00da FFF7FEFF 		bl	lv_snprintf
 987              	.LVL105:
 146:lvgl/src/extra/widgets/calendar/lv_calendar.c ****     }
 988              		.loc 1 146 9 is_stmt 1 discriminator 3 view .LVU307
 989 00de E91D     		adds	r1, r5, #7
 990 00e0 4022     		movs	r2, #64
 991 00e2 89B2     		uxth	r1, r1
 992 00e4 606A     		ldr	r0, [r4, #36]
 993 00e6 FFF7FEFF 		bl	lv_btnmatrix_set_btn_ctrl
 994              	.LVL106:
 144:lvgl/src/extra/widgets/calendar/lv_calendar.c ****         lv_snprintf(calendar->nums[i], sizeof(calendar->nums[0]), "%d", c);
 995              		.loc 1 144 55 discriminator 3 view .LVU308
 144:lvgl/src/extra/widgets/calendar/lv_calendar.c ****         lv_snprintf(calendar->nums[i], sizeof(calendar->nums[0]), "%d", c);
 996              		.loc 1 144 56 is_stmt 0 discriminator 3 view .LVU309
 997 00ea 0135     		adds	r5, r5, #1
 998              	.LVL107:
 144:lvgl/src/extra/widgets/calendar/lv_calendar.c ****         lv_snprintf(calendar->nums[i], sizeof(calendar->nums[0]), "%d", c);
 999              		.loc 1 144 61 discriminator 3 view .LVU310
 1000 00ec 0136     		adds	r6, r6, #1
 1001              	.LVL108:
 144:lvgl/src/extra/widgets/calendar/lv_calendar.c ****         lv_snprintf(calendar->nums[i], sizeof(calendar->nums[0]), "%d", c);
 1002              		.loc 1 144 61 discriminator 3 view .LVU311
 1003 00ee F6B2     		uxtb	r6, r6
 1004              	.LVL109:
 1005              	.L60:
 144:lvgl/src/extra/widgets/calendar/lv_calendar.c ****         lv_snprintf(calendar->nums[i], sizeof(calendar->nums[0]), "%d", c);
 1006              		.loc 1 144 44 is_stmt 1 discriminator 1 view .LVU312
 144:lvgl/src/extra/widgets/calendar/lv_calendar.c ****         lv_snprintf(calendar->nums[i], sizeof(calendar->nums[0]), "%d", c);
 1007              		.loc 1 144 5 is_stmt 0 discriminator 1 view .LVU313
 1008 00f0 292D     		cmp	r5, #41
 1009 00f2 EBD9     		bls	.L61
 149:lvgl/src/extra/widgets/calendar/lv_calendar.c **** 
 1010              		.loc 1 149 5 is_stmt 1 view .LVU314
 1011 00f4 2046     		mov	r0, r4
 1012 00f6 FFF7FEFF 		bl	highlight_update
 1013              	.LVL110:
 152:lvgl/src/extra/widgets/calendar/lv_calendar.c ****         lv_btnmatrix_set_selected_btn(calendar->btnm, day_first + 7);
 1014              		.loc 1 152 5 view .LVU315
 152:lvgl/src/extra/widgets/calendar/lv_calendar.c ****         lv_btnmatrix_set_selected_btn(calendar->btnm, day_first + 7);
 1015              		.loc 1 152 8 is_stmt 0 view .LVU316
 1016 00fa 606A     		ldr	r0, [r4, #36]
 1017 00fc FFF7FEFF 		bl	lv_btnmatrix_get_selected_btn
 1018              	.LVL111:
 152:lvgl/src/extra/widgets/calendar/lv_calendar.c ****         lv_btnmatrix_set_selected_btn(calendar->btnm, day_first + 7);
 1019              		.loc 1 152 7 view .LVU317
 1020 0100 4FF6FF73 		movw	r3, #65535
 1021 0104 9842     		cmp	r0, r3
 1022 0106 08D1     		bne	.L67
 1023              	.L62:
 156:lvgl/src/extra/widgets/calendar/lv_calendar.c **** 
 1024              		.loc 1 156 5 is_stmt 1 view .LVU318
 1025 0108 2046     		mov	r0, r4
 1026 010a FFF7FEFF 		bl	lv_obj_invalidate
ARM GAS  C:\Users\OSD\AppData\Local\Temp\ccyrCEHe.s 			page 30


 1027              	.LVL112:
 160:lvgl/src/extra/widgets/calendar/lv_calendar.c ****     for(i = 0; i < child_cnt; i++) {
 1028              		.loc 1 160 5 view .LVU319
 160:lvgl/src/extra/widgets/calendar/lv_calendar.c ****     for(i = 0; i < child_cnt; i++) {
 1029              		.loc 1 160 26 is_stmt 0 view .LVU320
 1030 010e 2046     		mov	r0, r4
 1031 0110 FFF7FEFF 		bl	lv_obj_get_child_cnt
 1032              	.LVL113:
 1033 0114 0646     		mov	r6, r0
 1034              	.LVL114:
 161:lvgl/src/extra/widgets/calendar/lv_calendar.c ****         lv_obj_t * child = lv_obj_get_child(obj, i);
 1035              		.loc 1 161 5 is_stmt 1 view .LVU321
 161:lvgl/src/extra/widgets/calendar/lv_calendar.c ****         lv_obj_t * child = lv_obj_get_child(obj, i);
 1036              		.loc 1 161 11 is_stmt 0 view .LVU322
 1037 0116 0025     		movs	r5, #0
 161:lvgl/src/extra/widgets/calendar/lv_calendar.c ****         lv_obj_t * child = lv_obj_get_child(obj, i);
 1038              		.loc 1 161 5 view .LVU323
 1039 0118 0AE0     		b	.L63
 1040              	.LVL115:
 1041              	.L67:
 153:lvgl/src/extra/widgets/calendar/lv_calendar.c ****     }
 1042              		.loc 1 153 9 is_stmt 1 view .LVU324
 1043 011a F91D     		adds	r1, r7, #7
 1044 011c 89B2     		uxth	r1, r1
 1045 011e 606A     		ldr	r0, [r4, #36]
 1046 0120 FFF7FEFF 		bl	lv_btnmatrix_set_selected_btn
 1047              	.LVL116:
 1048 0124 F0E7     		b	.L62
 1049              	.LVL117:
 1050              	.L69:
 1051              	.LBB4:
 164:lvgl/src/extra/widgets/calendar/lv_calendar.c ****     }
 1052              		.loc 1 164 9 view .LVU325
 1053 0126 2246     		mov	r2, r4
 1054 0128 1C21     		movs	r1, #28
 1055 012a FFF7FEFF 		bl	lv_event_send
 1056              	.LVL118:
 1057              	.L64:
 164:lvgl/src/extra/widgets/calendar/lv_calendar.c ****     }
 1058              		.loc 1 164 9 is_stmt 0 view .LVU326
 1059              	.LBE4:
 161:lvgl/src/extra/widgets/calendar/lv_calendar.c ****         lv_obj_t * child = lv_obj_get_child(obj, i);
 1060              		.loc 1 161 31 is_stmt 1 discriminator 2 view .LVU327
 161:lvgl/src/extra/widgets/calendar/lv_calendar.c ****         lv_obj_t * child = lv_obj_get_child(obj, i);
 1061              		.loc 1 161 32 is_stmt 0 discriminator 2 view .LVU328
 1062 012e 0135     		adds	r5, r5, #1
 1063              	.LVL119:
 1064              	.L63:
 161:lvgl/src/extra/widgets/calendar/lv_calendar.c ****         lv_obj_t * child = lv_obj_get_child(obj, i);
 1065              		.loc 1 161 16 is_stmt 1 discriminator 1 view .LVU329
 161:lvgl/src/extra/widgets/calendar/lv_calendar.c ****         lv_obj_t * child = lv_obj_get_child(obj, i);
 1066              		.loc 1 161 5 is_stmt 0 discriminator 1 view .LVU330
 1067 0130 B542     		cmp	r5, r6
 1068 0132 07D2     		bcs	.L68
 1069              	.LBB5:
 162:lvgl/src/extra/widgets/calendar/lv_calendar.c ****         if(child == calendar->btnm) continue;
 1070              		.loc 1 162 9 is_stmt 1 view .LVU331
ARM GAS  C:\Users\OSD\AppData\Local\Temp\ccyrCEHe.s 			page 31


 162:lvgl/src/extra/widgets/calendar/lv_calendar.c ****         if(child == calendar->btnm) continue;
 1071              		.loc 1 162 28 is_stmt 0 view .LVU332
 1072 0134 2946     		mov	r1, r5
 1073 0136 2046     		mov	r0, r4
 1074 0138 FFF7FEFF 		bl	lv_obj_get_child
 1075              	.LVL120:
 163:lvgl/src/extra/widgets/calendar/lv_calendar.c ****         lv_event_send(child, LV_EVENT_VALUE_CHANGED, obj);
 1076              		.loc 1 163 9 is_stmt 1 view .LVU333
 163:lvgl/src/extra/widgets/calendar/lv_calendar.c ****         lv_event_send(child, LV_EVENT_VALUE_CHANGED, obj);
 1077              		.loc 1 163 29 is_stmt 0 view .LVU334
 1078 013c 636A     		ldr	r3, [r4, #36]
 163:lvgl/src/extra/widgets/calendar/lv_calendar.c ****         lv_event_send(child, LV_EVENT_VALUE_CHANGED, obj);
 1079              		.loc 1 163 11 view .LVU335
 1080 013e 8342     		cmp	r3, r0
 1081 0140 F1D1     		bne	.L69
 1082 0142 F4E7     		b	.L64
 1083              	.LVL121:
 1084              	.L68:
 163:lvgl/src/extra/widgets/calendar/lv_calendar.c ****         lv_event_send(child, LV_EVENT_VALUE_CHANGED, obj);
 1085              		.loc 1 163 11 view .LVU336
 1086              	.LBE5:
 166:lvgl/src/extra/widgets/calendar/lv_calendar.c **** 
 1087              		.loc 1 166 1 view .LVU337
 1088 0144 03B0     		add	sp, sp, #12
 1089              		.cfi_def_cfa_offset 36
 1090              		@ sp needed
 1091 0146 BDE8F08F 		pop	{r4, r5, r6, r7, r8, r9, r10, fp, pc}
 1092              	.LVL122:
 1093              	.L71:
 166:lvgl/src/extra/widgets/calendar/lv_calendar.c **** 
 1094              		.loc 1 166 1 view .LVU338
 1095 014a 00BF     		.align	2
 1096              	.L70:
 1097 014c 00000000 		.word	.LC0
 1098              		.cfi_endproc
 1099              	.LFE208:
 1101              		.section	.rodata.lv_calendar_constructor.str1.4,"aMS",%progbits,1
 1102              		.align	2
 1103              	.LC1:
 1104 0000 0A00     		.ascii	"\012\000"
 1105 0002 0000     		.align	2
 1106              	.LC2:
 1107 0004 00       		.ascii	"\000"
 1108              		.section	.text.lv_calendar_constructor,"ax",%progbits
 1109              		.align	1
 1110              		.syntax unified
 1111              		.thumb
 1112              		.thumb_func
 1114              	lv_calendar_constructor:
 1115              	.LVL123:
 1116              	.LFB215:
 240:lvgl/src/extra/widgets/calendar/lv_calendar.c ****     LV_UNUSED(class_p);
 1117              		.loc 1 240 1 is_stmt 1 view -0
 1118              		.cfi_startproc
 1119              		@ args = 0, pretend = 0, frame = 0
 1120              		@ frame_needed = 0, uses_anonymous_args = 0
 240:lvgl/src/extra/widgets/calendar/lv_calendar.c ****     LV_UNUSED(class_p);
ARM GAS  C:\Users\OSD\AppData\Local\Temp\ccyrCEHe.s 			page 32


 1121              		.loc 1 240 1 is_stmt 0 view .LVU340
 1122 0000 38B5     		push	{r3, r4, r5, lr}
 1123              		.cfi_def_cfa_offset 16
 1124              		.cfi_offset 3, -16
 1125              		.cfi_offset 4, -12
 1126              		.cfi_offset 5, -8
 1127              		.cfi_offset 14, -4
 1128 0002 0C46     		mov	r4, r1
 241:lvgl/src/extra/widgets/calendar/lv_calendar.c ****     lv_calendar_t * calendar = (lv_calendar_t *)obj;
 1129              		.loc 1 241 5 is_stmt 1 view .LVU341
 242:lvgl/src/extra/widgets/calendar/lv_calendar.c **** 
 1130              		.loc 1 242 5 view .LVU342
 1131              	.LVL124:
 245:lvgl/src/extra/widgets/calendar/lv_calendar.c ****     calendar->today.month = 1;
 1132              		.loc 1 245 5 view .LVU343
 245:lvgl/src/extra/widgets/calendar/lv_calendar.c ****     calendar->today.month = 1;
 1133              		.loc 1 245 27 is_stmt 0 view .LVU344
 1134 0004 40F2E472 		movw	r2, #2020
 1135 0008 0A85     		strh	r2, [r1, #40]	@ movhi
 246:lvgl/src/extra/widgets/calendar/lv_calendar.c ****     calendar->today.day   = 1;
 1136              		.loc 1 246 5 is_stmt 1 view .LVU345
 246:lvgl/src/extra/widgets/calendar/lv_calendar.c ****     calendar->today.day   = 1;
 1137              		.loc 1 246 27 is_stmt 0 view .LVU346
 1138 000a 0123     		movs	r3, #1
 1139 000c 81F82A30 		strb	r3, [r1, #42]
 247:lvgl/src/extra/widgets/calendar/lv_calendar.c **** 
 1140              		.loc 1 247 5 is_stmt 1 view .LVU347
 247:lvgl/src/extra/widgets/calendar/lv_calendar.c **** 
 1141              		.loc 1 247 27 is_stmt 0 view .LVU348
 1142 0010 81F82B30 		strb	r3, [r1, #43]
 249:lvgl/src/extra/widgets/calendar/lv_calendar.c ****     calendar->showed_date.month = 1;
 1143              		.loc 1 249 5 is_stmt 1 view .LVU349
 249:lvgl/src/extra/widgets/calendar/lv_calendar.c ****     calendar->showed_date.month = 1;
 1144              		.loc 1 249 33 is_stmt 0 view .LVU350
 1145 0014 8A85     		strh	r2, [r1, #44]	@ movhi
 250:lvgl/src/extra/widgets/calendar/lv_calendar.c ****     calendar->showed_date.day   = 1;
 1146              		.loc 1 250 5 is_stmt 1 view .LVU351
 250:lvgl/src/extra/widgets/calendar/lv_calendar.c ****     calendar->showed_date.day   = 1;
 1147              		.loc 1 250 33 is_stmt 0 view .LVU352
 1148 0016 81F82E30 		strb	r3, [r1, #46]
 251:lvgl/src/extra/widgets/calendar/lv_calendar.c **** 
 1149              		.loc 1 251 5 is_stmt 1 view .LVU353
 251:lvgl/src/extra/widgets/calendar/lv_calendar.c **** 
 1150              		.loc 1 251 33 is_stmt 0 view .LVU354
 1151 001a 81F82F30 		strb	r3, [r1, #47]
 253:lvgl/src/extra/widgets/calendar/lv_calendar.c ****     calendar->highlighted_dates_num  = 0;
 1152              		.loc 1 253 5 is_stmt 1 view .LVU355
 253:lvgl/src/extra/widgets/calendar/lv_calendar.c ****     calendar->highlighted_dates_num  = 0;
 1153              		.loc 1 253 38 is_stmt 0 view .LVU356
 1154 001e 0025     		movs	r5, #0
 1155 0020 0D63     		str	r5, [r1, #48]
 254:lvgl/src/extra/widgets/calendar/lv_calendar.c **** 
 1156              		.loc 1 254 5 is_stmt 1 view .LVU357
 254:lvgl/src/extra/widgets/calendar/lv_calendar.c **** 
 1157              		.loc 1 254 38 is_stmt 0 view .LVU358
 1158 0022 8D86     		strh	r5, [r1, #52]	@ movhi
 256:lvgl/src/extra/widgets/calendar/lv_calendar.c ****     uint8_t i;
ARM GAS  C:\Users\OSD\AppData\Local\Temp\ccyrCEHe.s 			page 33


 1159              		.loc 1 256 5 is_stmt 1 view .LVU359
 1160 0024 A821     		movs	r1, #168
 1161              	.LVL125:
 256:lvgl/src/extra/widgets/calendar/lv_calendar.c ****     uint8_t i;
 1162              		.loc 1 256 5 is_stmt 0 view .LVU360
 1163 0026 04F58C70 		add	r0, r4, #280
 1164              	.LVL126:
 256:lvgl/src/extra/widgets/calendar/lv_calendar.c ****     uint8_t i;
 1165              		.loc 1 256 5 view .LVU361
 1166 002a FFF7FEFF 		bl	lv_memset_00
 1167              	.LVL127:
 257:lvgl/src/extra/widgets/calendar/lv_calendar.c ****     uint8_t j = 0;
 1168              		.loc 1 257 5 is_stmt 1 view .LVU362
 258:lvgl/src/extra/widgets/calendar/lv_calendar.c ****     for(i = 0; i < 8 * 7; i++) {
 1169              		.loc 1 258 5 view .LVU363
 259:lvgl/src/extra/widgets/calendar/lv_calendar.c ****         /*Every 8th string is "\n"*/
 1170              		.loc 1 259 5 view .LVU364
 258:lvgl/src/extra/widgets/calendar/lv_calendar.c ****     for(i = 0; i < 8 * 7; i++) {
 1171              		.loc 1 258 13 is_stmt 0 view .LVU365
 1172 002e 2846     		mov	r0, r5
 259:lvgl/src/extra/widgets/calendar/lv_calendar.c ****         /*Every 8th string is "\n"*/
 1173              		.loc 1 259 11 view .LVU366
 1174 0030 2B46     		mov	r3, r5
 259:lvgl/src/extra/widgets/calendar/lv_calendar.c ****         /*Every 8th string is "\n"*/
 1175              		.loc 1 259 5 view .LVU367
 1176 0032 10E0     		b	.L73
 1177              	.LVL128:
 1178              	.L74:
 264:lvgl/src/extra/widgets/calendar/lv_calendar.c ****             calendar->map[i] = day_names_def[i];
 1179              		.loc 1 264 14 is_stmt 1 view .LVU368
 264:lvgl/src/extra/widgets/calendar/lv_calendar.c ****             calendar->map[i] = day_names_def[i];
 1180              		.loc 1 264 16 is_stmt 0 view .LVU369
 1181 0034 062B     		cmp	r3, #6
 1182 0036 1CD9     		bls	.L79
 268:lvgl/src/extra/widgets/calendar/lv_calendar.c ****             calendar->map[i] = calendar->nums[j];
 1183              		.loc 1 268 13 is_stmt 1 view .LVU370
 268:lvgl/src/extra/widgets/calendar/lv_calendar.c ****             calendar->map[i] = calendar->nums[j];
 1184              		.loc 1 268 34 is_stmt 0 view .LVU371
 1185 0038 00F14602 		add	r2, r0, #70
 1186 003c 7821     		movs	r1, #120
 1187 003e 04F82210 		strb	r1, [r4, r2, lsl #2]
 269:lvgl/src/extra/widgets/calendar/lv_calendar.c ****             j++;
 1188              		.loc 1 269 13 is_stmt 1 view .LVU372
 269:lvgl/src/extra/widgets/calendar/lv_calendar.c ****             j++;
 1189              		.loc 1 269 32 is_stmt 0 view .LVU373
 1190 0042 04EB8202 		add	r2, r4, r2, lsl #2
 269:lvgl/src/extra/widgets/calendar/lv_calendar.c ****             j++;
 1191              		.loc 1 269 30 view .LVU374
 1192 0046 03F10E01 		add	r1, r3, #14
 1193 004a 44F82120 		str	r2, [r4, r1, lsl #2]
 270:lvgl/src/extra/widgets/calendar/lv_calendar.c ****         }
 1194              		.loc 1 270 13 is_stmt 1 view .LVU375
 270:lvgl/src/extra/widgets/calendar/lv_calendar.c ****         }
 1195              		.loc 1 270 14 is_stmt 0 view .LVU376
 1196 004e 0130     		adds	r0, r0, #1
 1197              	.LVL129:
 270:lvgl/src/extra/widgets/calendar/lv_calendar.c ****         }
ARM GAS  C:\Users\OSD\AppData\Local\Temp\ccyrCEHe.s 			page 34


 1198              		.loc 1 270 14 view .LVU377
 1199 0050 C0B2     		uxtb	r0, r0
 1200              	.LVL130:
 1201              	.L75:
 259:lvgl/src/extra/widgets/calendar/lv_calendar.c ****         /*Every 8th string is "\n"*/
 1202              		.loc 1 259 27 is_stmt 1 discriminator 2 view .LVU378
 259:lvgl/src/extra/widgets/calendar/lv_calendar.c ****         /*Every 8th string is "\n"*/
 1203              		.loc 1 259 28 is_stmt 0 discriminator 2 view .LVU379
 1204 0052 0133     		adds	r3, r3, #1
 1205              	.LVL131:
 259:lvgl/src/extra/widgets/calendar/lv_calendar.c ****         /*Every 8th string is "\n"*/
 1206              		.loc 1 259 28 discriminator 2 view .LVU380
 1207 0054 DBB2     		uxtb	r3, r3
 1208              	.LVL132:
 1209              	.L73:
 259:lvgl/src/extra/widgets/calendar/lv_calendar.c ****         /*Every 8th string is "\n"*/
 1210              		.loc 1 259 16 is_stmt 1 discriminator 1 view .LVU381
 259:lvgl/src/extra/widgets/calendar/lv_calendar.c ****         /*Every 8th string is "\n"*/
 1211              		.loc 1 259 5 is_stmt 0 discriminator 1 view .LVU382
 1212 0056 372B     		cmp	r3, #55
 1213 0058 13D8     		bhi	.L80
 261:lvgl/src/extra/widgets/calendar/lv_calendar.c ****             calendar->map[i] = "\n";
 1214              		.loc 1 261 9 is_stmt 1 view .LVU383
 261:lvgl/src/extra/widgets/calendar/lv_calendar.c ****             calendar->map[i] = "\n";
 1215              		.loc 1 261 11 is_stmt 0 view .LVU384
 1216 005a 002B     		cmp	r3, #0
 1217 005c EAD0     		beq	.L74
 261:lvgl/src/extra/widgets/calendar/lv_calendar.c ****             calendar->map[i] = "\n";
 1218              		.loc 1 261 25 discriminator 1 view .LVU385
 1219 005e 5A1C     		adds	r2, r3, #1
 261:lvgl/src/extra/widgets/calendar/lv_calendar.c ****             calendar->map[i] = "\n";
 1220              		.loc 1 261 19 discriminator 1 view .LVU386
 1221 0060 12F0070F 		tst	r2, #7
 1222 0064 E6D1     		bne	.L74
 262:lvgl/src/extra/widgets/calendar/lv_calendar.c ****         }
 1223              		.loc 1 262 13 is_stmt 1 view .LVU387
 262:lvgl/src/extra/widgets/calendar/lv_calendar.c ****         }
 1224              		.loc 1 262 30 is_stmt 0 view .LVU388
 1225 0066 03F10E02 		add	r2, r3, #14
 1226 006a 2149     		ldr	r1, .L81
 1227 006c 44F82210 		str	r1, [r4, r2, lsl #2]
 1228 0070 EFE7     		b	.L75
 1229              	.L79:
 265:lvgl/src/extra/widgets/calendar/lv_calendar.c ****         }
 1230              		.loc 1 265 13 is_stmt 1 view .LVU389
 265:lvgl/src/extra/widgets/calendar/lv_calendar.c ****         }
 1231              		.loc 1 265 45 is_stmt 0 view .LVU390
 1232 0072 204A     		ldr	r2, .L81+4
 1233 0074 52F82310 		ldr	r1, [r2, r3, lsl #2]
 265:lvgl/src/extra/widgets/calendar/lv_calendar.c ****         }
 1234              		.loc 1 265 30 view .LVU391
 1235 0078 03F10E02 		add	r2, r3, #14
 1236 007c 44F82210 		str	r1, [r4, r2, lsl #2]
 1237 0080 E7E7     		b	.L75
 1238              	.L80:
 273:lvgl/src/extra/widgets/calendar/lv_calendar.c **** 
 1239              		.loc 1 273 5 is_stmt 1 view .LVU392
ARM GAS  C:\Users\OSD\AppData\Local\Temp\ccyrCEHe.s 			page 35


 273:lvgl/src/extra/widgets/calendar/lv_calendar.c **** 
 1240              		.loc 1 273 30 is_stmt 0 view .LVU393
 1241 0082 1D4B     		ldr	r3, .L81+8
 1242              	.LVL133:
 273:lvgl/src/extra/widgets/calendar/lv_calendar.c **** 
 1243              		.loc 1 273 30 view .LVU394
 1244 0084 C4F81431 		str	r3, [r4, #276]
 275:lvgl/src/extra/widgets/calendar/lv_calendar.c ****     lv_btnmatrix_set_map(calendar->btnm, calendar->map);
 1245              		.loc 1 275 5 is_stmt 1 view .LVU395
 275:lvgl/src/extra/widgets/calendar/lv_calendar.c ****     lv_btnmatrix_set_map(calendar->btnm, calendar->map);
 1246              		.loc 1 275 22 is_stmt 0 view .LVU396
 1247 0088 2046     		mov	r0, r4
 1248              	.LVL134:
 275:lvgl/src/extra/widgets/calendar/lv_calendar.c ****     lv_btnmatrix_set_map(calendar->btnm, calendar->map);
 1249              		.loc 1 275 22 view .LVU397
 1250 008a FFF7FEFF 		bl	lv_btnmatrix_create
 1251              	.LVL135:
 275:lvgl/src/extra/widgets/calendar/lv_calendar.c ****     lv_btnmatrix_set_map(calendar->btnm, calendar->map);
 1252              		.loc 1 275 20 view .LVU398
 1253 008e 6062     		str	r0, [r4, #36]
 276:lvgl/src/extra/widgets/calendar/lv_calendar.c ****     lv_btnmatrix_set_btn_ctrl_all(calendar->btnm, LV_BTNMATRIX_CTRL_CLICK_TRIG | LV_BTNMATRIX_CTRL_
 1254              		.loc 1 276 5 is_stmt 1 view .LVU399
 1255 0090 04F13801 		add	r1, r4, #56
 1256 0094 FFF7FEFF 		bl	lv_btnmatrix_set_map
 1257              	.LVL136:
 277:lvgl/src/extra/widgets/calendar/lv_calendar.c ****     lv_obj_add_event_cb(calendar->btnm, draw_part_begin_event_cb, LV_EVENT_DRAW_PART_BEGIN, NULL);
 1258              		.loc 1 277 5 view .LVU400
 1259 0098 4FF40871 		mov	r1, #544
 1260 009c 606A     		ldr	r0, [r4, #36]
 1261 009e FFF7FEFF 		bl	lv_btnmatrix_set_btn_ctrl_all
 1262              	.LVL137:
 278:lvgl/src/extra/widgets/calendar/lv_calendar.c ****     lv_obj_set_width(calendar->btnm, lv_pct(100));
 1263              		.loc 1 278 5 view .LVU401
 1264 00a2 0023     		movs	r3, #0
 1265 00a4 1A22     		movs	r2, #26
 1266 00a6 1549     		ldr	r1, .L81+12
 1267 00a8 606A     		ldr	r0, [r4, #36]
 1268 00aa FFF7FEFF 		bl	lv_obj_add_event_cb
 1269              	.LVL138:
 279:lvgl/src/extra/widgets/calendar/lv_calendar.c **** 
 1270              		.loc 1 279 5 view .LVU402
 1271              		.file 2 "d:\\kzc\\stm32\\h743ii_lcd\\lvgl\\src\\misc\\lv_area.h"
   1:d:\kzc\stm32\h743ii_lcd\lvgl\src\misc\lv_area.h **** /**
   2:d:\kzc\stm32\h743ii_lcd\lvgl\src\misc\lv_area.h ****  * @file lv_area.h
   3:d:\kzc\stm32\h743ii_lcd\lvgl\src\misc\lv_area.h ****  *
   4:d:\kzc\stm32\h743ii_lcd\lvgl\src\misc\lv_area.h ****  */
   5:d:\kzc\stm32\h743ii_lcd\lvgl\src\misc\lv_area.h **** 
   6:d:\kzc\stm32\h743ii_lcd\lvgl\src\misc\lv_area.h **** #ifndef LV_AREA_H
   7:d:\kzc\stm32\h743ii_lcd\lvgl\src\misc\lv_area.h **** #define LV_AREA_H
   8:d:\kzc\stm32\h743ii_lcd\lvgl\src\misc\lv_area.h **** 
   9:d:\kzc\stm32\h743ii_lcd\lvgl\src\misc\lv_area.h **** #ifdef __cplusplus
  10:d:\kzc\stm32\h743ii_lcd\lvgl\src\misc\lv_area.h **** extern "C" {
  11:d:\kzc\stm32\h743ii_lcd\lvgl\src\misc\lv_area.h **** #endif
  12:d:\kzc\stm32\h743ii_lcd\lvgl\src\misc\lv_area.h **** 
  13:d:\kzc\stm32\h743ii_lcd\lvgl\src\misc\lv_area.h **** /*********************
  14:d:\kzc\stm32\h743ii_lcd\lvgl\src\misc\lv_area.h ****  *      INCLUDES
  15:d:\kzc\stm32\h743ii_lcd\lvgl\src\misc\lv_area.h ****  *********************/
ARM GAS  C:\Users\OSD\AppData\Local\Temp\ccyrCEHe.s 			page 36


  16:d:\kzc\stm32\h743ii_lcd\lvgl\src\misc\lv_area.h **** #include "../lv_conf_internal.h"
  17:d:\kzc\stm32\h743ii_lcd\lvgl\src\misc\lv_area.h **** #include <stdbool.h>
  18:d:\kzc\stm32\h743ii_lcd\lvgl\src\misc\lv_area.h **** #include <stdint.h>
  19:d:\kzc\stm32\h743ii_lcd\lvgl\src\misc\lv_area.h **** 
  20:d:\kzc\stm32\h743ii_lcd\lvgl\src\misc\lv_area.h **** /*********************
  21:d:\kzc\stm32\h743ii_lcd\lvgl\src\misc\lv_area.h ****  *      DEFINES
  22:d:\kzc\stm32\h743ii_lcd\lvgl\src\misc\lv_area.h ****  *********************/
  23:d:\kzc\stm32\h743ii_lcd\lvgl\src\misc\lv_area.h **** 
  24:d:\kzc\stm32\h743ii_lcd\lvgl\src\misc\lv_area.h **** #if LV_USE_LARGE_COORD
  25:d:\kzc\stm32\h743ii_lcd\lvgl\src\misc\lv_area.h **** typedef int32_t lv_coord_t;
  26:d:\kzc\stm32\h743ii_lcd\lvgl\src\misc\lv_area.h **** #else
  27:d:\kzc\stm32\h743ii_lcd\lvgl\src\misc\lv_area.h **** typedef int16_t lv_coord_t;
  28:d:\kzc\stm32\h743ii_lcd\lvgl\src\misc\lv_area.h **** #endif
  29:d:\kzc\stm32\h743ii_lcd\lvgl\src\misc\lv_area.h **** 
  30:d:\kzc\stm32\h743ii_lcd\lvgl\src\misc\lv_area.h **** /**********************
  31:d:\kzc\stm32\h743ii_lcd\lvgl\src\misc\lv_area.h ****  *      TYPEDEFS
  32:d:\kzc\stm32\h743ii_lcd\lvgl\src\misc\lv_area.h ****  **********************/
  33:d:\kzc\stm32\h743ii_lcd\lvgl\src\misc\lv_area.h **** 
  34:d:\kzc\stm32\h743ii_lcd\lvgl\src\misc\lv_area.h **** /**
  35:d:\kzc\stm32\h743ii_lcd\lvgl\src\misc\lv_area.h ****  * Represents a point on the screen.
  36:d:\kzc\stm32\h743ii_lcd\lvgl\src\misc\lv_area.h ****  */
  37:d:\kzc\stm32\h743ii_lcd\lvgl\src\misc\lv_area.h **** typedef struct {
  38:d:\kzc\stm32\h743ii_lcd\lvgl\src\misc\lv_area.h ****     lv_coord_t x;
  39:d:\kzc\stm32\h743ii_lcd\lvgl\src\misc\lv_area.h ****     lv_coord_t y;
  40:d:\kzc\stm32\h743ii_lcd\lvgl\src\misc\lv_area.h **** } lv_point_t;
  41:d:\kzc\stm32\h743ii_lcd\lvgl\src\misc\lv_area.h **** 
  42:d:\kzc\stm32\h743ii_lcd\lvgl\src\misc\lv_area.h **** /** Represents an area of the screen.*/
  43:d:\kzc\stm32\h743ii_lcd\lvgl\src\misc\lv_area.h **** typedef struct {
  44:d:\kzc\stm32\h743ii_lcd\lvgl\src\misc\lv_area.h ****     lv_coord_t x1;
  45:d:\kzc\stm32\h743ii_lcd\lvgl\src\misc\lv_area.h ****     lv_coord_t y1;
  46:d:\kzc\stm32\h743ii_lcd\lvgl\src\misc\lv_area.h ****     lv_coord_t x2;
  47:d:\kzc\stm32\h743ii_lcd\lvgl\src\misc\lv_area.h ****     lv_coord_t y2;
  48:d:\kzc\stm32\h743ii_lcd\lvgl\src\misc\lv_area.h **** } lv_area_t;
  49:d:\kzc\stm32\h743ii_lcd\lvgl\src\misc\lv_area.h **** 
  50:d:\kzc\stm32\h743ii_lcd\lvgl\src\misc\lv_area.h **** /** Alignments*/
  51:d:\kzc\stm32\h743ii_lcd\lvgl\src\misc\lv_area.h **** enum {
  52:d:\kzc\stm32\h743ii_lcd\lvgl\src\misc\lv_area.h ****     LV_ALIGN_DEFAULT = 0,
  53:d:\kzc\stm32\h743ii_lcd\lvgl\src\misc\lv_area.h ****     LV_ALIGN_TOP_LEFT,
  54:d:\kzc\stm32\h743ii_lcd\lvgl\src\misc\lv_area.h ****     LV_ALIGN_TOP_MID,
  55:d:\kzc\stm32\h743ii_lcd\lvgl\src\misc\lv_area.h ****     LV_ALIGN_TOP_RIGHT,
  56:d:\kzc\stm32\h743ii_lcd\lvgl\src\misc\lv_area.h ****     LV_ALIGN_BOTTOM_LEFT,
  57:d:\kzc\stm32\h743ii_lcd\lvgl\src\misc\lv_area.h ****     LV_ALIGN_BOTTOM_MID,
  58:d:\kzc\stm32\h743ii_lcd\lvgl\src\misc\lv_area.h ****     LV_ALIGN_BOTTOM_RIGHT,
  59:d:\kzc\stm32\h743ii_lcd\lvgl\src\misc\lv_area.h ****     LV_ALIGN_LEFT_MID,
  60:d:\kzc\stm32\h743ii_lcd\lvgl\src\misc\lv_area.h ****     LV_ALIGN_RIGHT_MID,
  61:d:\kzc\stm32\h743ii_lcd\lvgl\src\misc\lv_area.h ****     LV_ALIGN_CENTER,
  62:d:\kzc\stm32\h743ii_lcd\lvgl\src\misc\lv_area.h **** 
  63:d:\kzc\stm32\h743ii_lcd\lvgl\src\misc\lv_area.h ****     LV_ALIGN_OUT_TOP_LEFT,
  64:d:\kzc\stm32\h743ii_lcd\lvgl\src\misc\lv_area.h ****     LV_ALIGN_OUT_TOP_MID,
  65:d:\kzc\stm32\h743ii_lcd\lvgl\src\misc\lv_area.h ****     LV_ALIGN_OUT_TOP_RIGHT,
  66:d:\kzc\stm32\h743ii_lcd\lvgl\src\misc\lv_area.h ****     LV_ALIGN_OUT_BOTTOM_LEFT,
  67:d:\kzc\stm32\h743ii_lcd\lvgl\src\misc\lv_area.h ****     LV_ALIGN_OUT_BOTTOM_MID,
  68:d:\kzc\stm32\h743ii_lcd\lvgl\src\misc\lv_area.h ****     LV_ALIGN_OUT_BOTTOM_RIGHT,
  69:d:\kzc\stm32\h743ii_lcd\lvgl\src\misc\lv_area.h ****     LV_ALIGN_OUT_LEFT_TOP,
  70:d:\kzc\stm32\h743ii_lcd\lvgl\src\misc\lv_area.h ****     LV_ALIGN_OUT_LEFT_MID,
  71:d:\kzc\stm32\h743ii_lcd\lvgl\src\misc\lv_area.h ****     LV_ALIGN_OUT_LEFT_BOTTOM,
  72:d:\kzc\stm32\h743ii_lcd\lvgl\src\misc\lv_area.h ****     LV_ALIGN_OUT_RIGHT_TOP,
ARM GAS  C:\Users\OSD\AppData\Local\Temp\ccyrCEHe.s 			page 37


  73:d:\kzc\stm32\h743ii_lcd\lvgl\src\misc\lv_area.h ****     LV_ALIGN_OUT_RIGHT_MID,
  74:d:\kzc\stm32\h743ii_lcd\lvgl\src\misc\lv_area.h ****     LV_ALIGN_OUT_RIGHT_BOTTOM,
  75:d:\kzc\stm32\h743ii_lcd\lvgl\src\misc\lv_area.h **** };
  76:d:\kzc\stm32\h743ii_lcd\lvgl\src\misc\lv_area.h **** typedef uint8_t lv_align_t;
  77:d:\kzc\stm32\h743ii_lcd\lvgl\src\misc\lv_area.h **** 
  78:d:\kzc\stm32\h743ii_lcd\lvgl\src\misc\lv_area.h **** enum {
  79:d:\kzc\stm32\h743ii_lcd\lvgl\src\misc\lv_area.h ****     LV_DIR_NONE     = 0x00,
  80:d:\kzc\stm32\h743ii_lcd\lvgl\src\misc\lv_area.h ****     LV_DIR_LEFT     = (1 << 0),
  81:d:\kzc\stm32\h743ii_lcd\lvgl\src\misc\lv_area.h ****     LV_DIR_RIGHT    = (1 << 1),
  82:d:\kzc\stm32\h743ii_lcd\lvgl\src\misc\lv_area.h ****     LV_DIR_TOP      = (1 << 2),
  83:d:\kzc\stm32\h743ii_lcd\lvgl\src\misc\lv_area.h ****     LV_DIR_BOTTOM   = (1 << 3),
  84:d:\kzc\stm32\h743ii_lcd\lvgl\src\misc\lv_area.h ****     LV_DIR_HOR      = LV_DIR_LEFT | LV_DIR_RIGHT,
  85:d:\kzc\stm32\h743ii_lcd\lvgl\src\misc\lv_area.h ****     LV_DIR_VER      = LV_DIR_TOP | LV_DIR_BOTTOM,
  86:d:\kzc\stm32\h743ii_lcd\lvgl\src\misc\lv_area.h ****     LV_DIR_ALL      = LV_DIR_HOR | LV_DIR_VER,
  87:d:\kzc\stm32\h743ii_lcd\lvgl\src\misc\lv_area.h **** };
  88:d:\kzc\stm32\h743ii_lcd\lvgl\src\misc\lv_area.h **** 
  89:d:\kzc\stm32\h743ii_lcd\lvgl\src\misc\lv_area.h **** typedef uint8_t lv_dir_t;
  90:d:\kzc\stm32\h743ii_lcd\lvgl\src\misc\lv_area.h **** 
  91:d:\kzc\stm32\h743ii_lcd\lvgl\src\misc\lv_area.h **** /**********************
  92:d:\kzc\stm32\h743ii_lcd\lvgl\src\misc\lv_area.h ****  * GLOBAL PROTOTYPES
  93:d:\kzc\stm32\h743ii_lcd\lvgl\src\misc\lv_area.h ****  **********************/
  94:d:\kzc\stm32\h743ii_lcd\lvgl\src\misc\lv_area.h **** 
  95:d:\kzc\stm32\h743ii_lcd\lvgl\src\misc\lv_area.h **** /**
  96:d:\kzc\stm32\h743ii_lcd\lvgl\src\misc\lv_area.h ****  * Initialize an area
  97:d:\kzc\stm32\h743ii_lcd\lvgl\src\misc\lv_area.h ****  * @param area_p pointer to an area
  98:d:\kzc\stm32\h743ii_lcd\lvgl\src\misc\lv_area.h ****  * @param x1 left coordinate of the area
  99:d:\kzc\stm32\h743ii_lcd\lvgl\src\misc\lv_area.h ****  * @param y1 top coordinate of the area
 100:d:\kzc\stm32\h743ii_lcd\lvgl\src\misc\lv_area.h ****  * @param x2 right coordinate of the area
 101:d:\kzc\stm32\h743ii_lcd\lvgl\src\misc\lv_area.h ****  * @param y2 bottom coordinate of the area
 102:d:\kzc\stm32\h743ii_lcd\lvgl\src\misc\lv_area.h ****  */
 103:d:\kzc\stm32\h743ii_lcd\lvgl\src\misc\lv_area.h **** void lv_area_set(lv_area_t * area_p, lv_coord_t x1, lv_coord_t y1, lv_coord_t x2, lv_coord_t y2);
 104:d:\kzc\stm32\h743ii_lcd\lvgl\src\misc\lv_area.h **** 
 105:d:\kzc\stm32\h743ii_lcd\lvgl\src\misc\lv_area.h **** /**
 106:d:\kzc\stm32\h743ii_lcd\lvgl\src\misc\lv_area.h ****  * Copy an area
 107:d:\kzc\stm32\h743ii_lcd\lvgl\src\misc\lv_area.h ****  * @param dest pointer to the destination area
 108:d:\kzc\stm32\h743ii_lcd\lvgl\src\misc\lv_area.h ****  * @param src pointer to the source area
 109:d:\kzc\stm32\h743ii_lcd\lvgl\src\misc\lv_area.h ****  */
 110:d:\kzc\stm32\h743ii_lcd\lvgl\src\misc\lv_area.h **** inline static void lv_area_copy(lv_area_t * dest, const lv_area_t * src)
 111:d:\kzc\stm32\h743ii_lcd\lvgl\src\misc\lv_area.h **** {
 112:d:\kzc\stm32\h743ii_lcd\lvgl\src\misc\lv_area.h ****     dest->x1 = src->x1;
 113:d:\kzc\stm32\h743ii_lcd\lvgl\src\misc\lv_area.h ****     dest->y1 = src->y1;
 114:d:\kzc\stm32\h743ii_lcd\lvgl\src\misc\lv_area.h ****     dest->x2 = src->x2;
 115:d:\kzc\stm32\h743ii_lcd\lvgl\src\misc\lv_area.h ****     dest->y2 = src->y2;
 116:d:\kzc\stm32\h743ii_lcd\lvgl\src\misc\lv_area.h **** }
 117:d:\kzc\stm32\h743ii_lcd\lvgl\src\misc\lv_area.h **** 
 118:d:\kzc\stm32\h743ii_lcd\lvgl\src\misc\lv_area.h **** /**
 119:d:\kzc\stm32\h743ii_lcd\lvgl\src\misc\lv_area.h ****  * Get the width of an area
 120:d:\kzc\stm32\h743ii_lcd\lvgl\src\misc\lv_area.h ****  * @param area_p pointer to an area
 121:d:\kzc\stm32\h743ii_lcd\lvgl\src\misc\lv_area.h ****  * @return the width of the area (if x1 == x2 -> width = 1)
 122:d:\kzc\stm32\h743ii_lcd\lvgl\src\misc\lv_area.h ****  */
 123:d:\kzc\stm32\h743ii_lcd\lvgl\src\misc\lv_area.h **** static inline lv_coord_t lv_area_get_width(const lv_area_t * area_p)
 124:d:\kzc\stm32\h743ii_lcd\lvgl\src\misc\lv_area.h **** {
 125:d:\kzc\stm32\h743ii_lcd\lvgl\src\misc\lv_area.h ****     return (lv_coord_t)(area_p->x2 - area_p->x1 + 1);
 126:d:\kzc\stm32\h743ii_lcd\lvgl\src\misc\lv_area.h **** }
 127:d:\kzc\stm32\h743ii_lcd\lvgl\src\misc\lv_area.h **** 
 128:d:\kzc\stm32\h743ii_lcd\lvgl\src\misc\lv_area.h **** /**
 129:d:\kzc\stm32\h743ii_lcd\lvgl\src\misc\lv_area.h ****  * Get the height of an area
ARM GAS  C:\Users\OSD\AppData\Local\Temp\ccyrCEHe.s 			page 38


 130:d:\kzc\stm32\h743ii_lcd\lvgl\src\misc\lv_area.h ****  * @param area_p pointer to an area
 131:d:\kzc\stm32\h743ii_lcd\lvgl\src\misc\lv_area.h ****  * @return the height of the area (if y1 == y2 -> height = 1)
 132:d:\kzc\stm32\h743ii_lcd\lvgl\src\misc\lv_area.h ****  */
 133:d:\kzc\stm32\h743ii_lcd\lvgl\src\misc\lv_area.h **** static inline lv_coord_t lv_area_get_height(const lv_area_t * area_p)
 134:d:\kzc\stm32\h743ii_lcd\lvgl\src\misc\lv_area.h **** {
 135:d:\kzc\stm32\h743ii_lcd\lvgl\src\misc\lv_area.h ****     return (lv_coord_t)(area_p->y2 - area_p->y1 + 1);
 136:d:\kzc\stm32\h743ii_lcd\lvgl\src\misc\lv_area.h **** }
 137:d:\kzc\stm32\h743ii_lcd\lvgl\src\misc\lv_area.h **** 
 138:d:\kzc\stm32\h743ii_lcd\lvgl\src\misc\lv_area.h **** /**
 139:d:\kzc\stm32\h743ii_lcd\lvgl\src\misc\lv_area.h ****  * Set the width of an area
 140:d:\kzc\stm32\h743ii_lcd\lvgl\src\misc\lv_area.h ****  * @param area_p pointer to an area
 141:d:\kzc\stm32\h743ii_lcd\lvgl\src\misc\lv_area.h ****  * @param w the new width of the area (w == 1 makes x1 == x2)
 142:d:\kzc\stm32\h743ii_lcd\lvgl\src\misc\lv_area.h ****  */
 143:d:\kzc\stm32\h743ii_lcd\lvgl\src\misc\lv_area.h **** void lv_area_set_width(lv_area_t * area_p, lv_coord_t w);
 144:d:\kzc\stm32\h743ii_lcd\lvgl\src\misc\lv_area.h **** 
 145:d:\kzc\stm32\h743ii_lcd\lvgl\src\misc\lv_area.h **** /**
 146:d:\kzc\stm32\h743ii_lcd\lvgl\src\misc\lv_area.h ****  * Set the height of an area
 147:d:\kzc\stm32\h743ii_lcd\lvgl\src\misc\lv_area.h ****  * @param area_p pointer to an area
 148:d:\kzc\stm32\h743ii_lcd\lvgl\src\misc\lv_area.h ****  * @param h the new height of the area (h == 1 makes y1 == y2)
 149:d:\kzc\stm32\h743ii_lcd\lvgl\src\misc\lv_area.h ****  */
 150:d:\kzc\stm32\h743ii_lcd\lvgl\src\misc\lv_area.h **** void lv_area_set_height(lv_area_t * area_p, lv_coord_t h);
 151:d:\kzc\stm32\h743ii_lcd\lvgl\src\misc\lv_area.h **** 
 152:d:\kzc\stm32\h743ii_lcd\lvgl\src\misc\lv_area.h **** /**
 153:d:\kzc\stm32\h743ii_lcd\lvgl\src\misc\lv_area.h ****  * Set the position of an area (width and height will be kept)
 154:d:\kzc\stm32\h743ii_lcd\lvgl\src\misc\lv_area.h ****  * @param area_p pointer to an area
 155:d:\kzc\stm32\h743ii_lcd\lvgl\src\misc\lv_area.h ****  * @param x the new x coordinate of the area
 156:d:\kzc\stm32\h743ii_lcd\lvgl\src\misc\lv_area.h ****  * @param y the new y coordinate of the area
 157:d:\kzc\stm32\h743ii_lcd\lvgl\src\misc\lv_area.h ****  */
 158:d:\kzc\stm32\h743ii_lcd\lvgl\src\misc\lv_area.h **** void _lv_area_set_pos(lv_area_t * area_p, lv_coord_t x, lv_coord_t y);
 159:d:\kzc\stm32\h743ii_lcd\lvgl\src\misc\lv_area.h **** 
 160:d:\kzc\stm32\h743ii_lcd\lvgl\src\misc\lv_area.h **** /**
 161:d:\kzc\stm32\h743ii_lcd\lvgl\src\misc\lv_area.h ****  * Return with area of an area (x * y)
 162:d:\kzc\stm32\h743ii_lcd\lvgl\src\misc\lv_area.h ****  * @param area_p pointer to an area
 163:d:\kzc\stm32\h743ii_lcd\lvgl\src\misc\lv_area.h ****  * @return size of area
 164:d:\kzc\stm32\h743ii_lcd\lvgl\src\misc\lv_area.h ****  */
 165:d:\kzc\stm32\h743ii_lcd\lvgl\src\misc\lv_area.h **** uint32_t lv_area_get_size(const lv_area_t * area_p);
 166:d:\kzc\stm32\h743ii_lcd\lvgl\src\misc\lv_area.h **** 
 167:d:\kzc\stm32\h743ii_lcd\lvgl\src\misc\lv_area.h **** void lv_area_increase(lv_area_t * area, lv_coord_t w_extra, lv_coord_t h_extra);
 168:d:\kzc\stm32\h743ii_lcd\lvgl\src\misc\lv_area.h **** 
 169:d:\kzc\stm32\h743ii_lcd\lvgl\src\misc\lv_area.h **** void lv_area_move(lv_area_t * area, lv_coord_t x_ofs, lv_coord_t y_ofs);
 170:d:\kzc\stm32\h743ii_lcd\lvgl\src\misc\lv_area.h **** 
 171:d:\kzc\stm32\h743ii_lcd\lvgl\src\misc\lv_area.h **** /**
 172:d:\kzc\stm32\h743ii_lcd\lvgl\src\misc\lv_area.h ****  * Get the common parts of two areas
 173:d:\kzc\stm32\h743ii_lcd\lvgl\src\misc\lv_area.h ****  * @param res_p pointer to an area, the result will be stored her
 174:d:\kzc\stm32\h743ii_lcd\lvgl\src\misc\lv_area.h ****  * @param a1_p pointer to the first area
 175:d:\kzc\stm32\h743ii_lcd\lvgl\src\misc\lv_area.h ****  * @param a2_p pointer to the second area
 176:d:\kzc\stm32\h743ii_lcd\lvgl\src\misc\lv_area.h ****  * @return false: the two area has NO common parts, res_p is invalid
 177:d:\kzc\stm32\h743ii_lcd\lvgl\src\misc\lv_area.h ****  */
 178:d:\kzc\stm32\h743ii_lcd\lvgl\src\misc\lv_area.h **** bool _lv_area_intersect(lv_area_t * res_p, const lv_area_t * a1_p, const lv_area_t * a2_p);
 179:d:\kzc\stm32\h743ii_lcd\lvgl\src\misc\lv_area.h **** 
 180:d:\kzc\stm32\h743ii_lcd\lvgl\src\misc\lv_area.h **** /**
 181:d:\kzc\stm32\h743ii_lcd\lvgl\src\misc\lv_area.h ****  * Get resulting sub areas after removing the common parts of two areas from the first area
 182:d:\kzc\stm32\h743ii_lcd\lvgl\src\misc\lv_area.h ****  * @param res_p pointer to an array of areas with a count of 4, the resulting areas will be stored 
 183:d:\kzc\stm32\h743ii_lcd\lvgl\src\misc\lv_area.h ****  * @param a1_p pointer to the first area
 184:d:\kzc\stm32\h743ii_lcd\lvgl\src\misc\lv_area.h ****  * @param a2_p pointer to the second area
 185:d:\kzc\stm32\h743ii_lcd\lvgl\src\misc\lv_area.h ****  * @return number of results (max 4) or -1 if no intersect
 186:d:\kzc\stm32\h743ii_lcd\lvgl\src\misc\lv_area.h ****  */
ARM GAS  C:\Users\OSD\AppData\Local\Temp\ccyrCEHe.s 			page 39


 187:d:\kzc\stm32\h743ii_lcd\lvgl\src\misc\lv_area.h **** int8_t _lv_area_diff(lv_area_t * res_p, const lv_area_t * a1_p, const lv_area_t * a2_p);
 188:d:\kzc\stm32\h743ii_lcd\lvgl\src\misc\lv_area.h **** 
 189:d:\kzc\stm32\h743ii_lcd\lvgl\src\misc\lv_area.h **** /**
 190:d:\kzc\stm32\h743ii_lcd\lvgl\src\misc\lv_area.h ****  * Join two areas into a third which involves the other two
 191:d:\kzc\stm32\h743ii_lcd\lvgl\src\misc\lv_area.h ****  * @param res_p pointer to an area, the result will be stored here
 192:d:\kzc\stm32\h743ii_lcd\lvgl\src\misc\lv_area.h ****  * @param a1_p pointer to the first area
 193:d:\kzc\stm32\h743ii_lcd\lvgl\src\misc\lv_area.h ****  * @param a2_p pointer to the second area
 194:d:\kzc\stm32\h743ii_lcd\lvgl\src\misc\lv_area.h ****  */
 195:d:\kzc\stm32\h743ii_lcd\lvgl\src\misc\lv_area.h **** void _lv_area_join(lv_area_t * a_res_p, const lv_area_t * a1_p, const lv_area_t * a2_p);
 196:d:\kzc\stm32\h743ii_lcd\lvgl\src\misc\lv_area.h **** 
 197:d:\kzc\stm32\h743ii_lcd\lvgl\src\misc\lv_area.h **** /**
 198:d:\kzc\stm32\h743ii_lcd\lvgl\src\misc\lv_area.h ****  * Check if a point is on an area
 199:d:\kzc\stm32\h743ii_lcd\lvgl\src\misc\lv_area.h ****  * @param a_p pointer to an area
 200:d:\kzc\stm32\h743ii_lcd\lvgl\src\misc\lv_area.h ****  * @param p_p pointer to a point
 201:d:\kzc\stm32\h743ii_lcd\lvgl\src\misc\lv_area.h ****  * @param radius radius of area (e.g. for rounded rectangle)
 202:d:\kzc\stm32\h743ii_lcd\lvgl\src\misc\lv_area.h ****  * @return false:the point is out of the area
 203:d:\kzc\stm32\h743ii_lcd\lvgl\src\misc\lv_area.h ****  */
 204:d:\kzc\stm32\h743ii_lcd\lvgl\src\misc\lv_area.h **** bool _lv_area_is_point_on(const lv_area_t * a_p, const lv_point_t * p_p, lv_coord_t radius);
 205:d:\kzc\stm32\h743ii_lcd\lvgl\src\misc\lv_area.h **** 
 206:d:\kzc\stm32\h743ii_lcd\lvgl\src\misc\lv_area.h **** /**
 207:d:\kzc\stm32\h743ii_lcd\lvgl\src\misc\lv_area.h ****  * Check if two area has common parts
 208:d:\kzc\stm32\h743ii_lcd\lvgl\src\misc\lv_area.h ****  * @param a1_p pointer to an area.
 209:d:\kzc\stm32\h743ii_lcd\lvgl\src\misc\lv_area.h ****  * @param a2_p pointer to an other area
 210:d:\kzc\stm32\h743ii_lcd\lvgl\src\misc\lv_area.h ****  * @return false: a1_p and a2_p has no common parts
 211:d:\kzc\stm32\h743ii_lcd\lvgl\src\misc\lv_area.h ****  */
 212:d:\kzc\stm32\h743ii_lcd\lvgl\src\misc\lv_area.h **** bool _lv_area_is_on(const lv_area_t * a1_p, const lv_area_t * a2_p);
 213:d:\kzc\stm32\h743ii_lcd\lvgl\src\misc\lv_area.h **** 
 214:d:\kzc\stm32\h743ii_lcd\lvgl\src\misc\lv_area.h **** /**
 215:d:\kzc\stm32\h743ii_lcd\lvgl\src\misc\lv_area.h ****  * Check if an area is fully on an other
 216:d:\kzc\stm32\h743ii_lcd\lvgl\src\misc\lv_area.h ****  * @param ain_p pointer to an area which could be in 'aholder_p'
 217:d:\kzc\stm32\h743ii_lcd\lvgl\src\misc\lv_area.h ****  * @param aholder_p pointer to an area which could involve 'ain_p'
 218:d:\kzc\stm32\h743ii_lcd\lvgl\src\misc\lv_area.h ****  * @param radius radius of `aholder_p` (e.g. for rounded rectangle)
 219:d:\kzc\stm32\h743ii_lcd\lvgl\src\misc\lv_area.h ****  * @return true: `ain_p` is fully inside `aholder_p`
 220:d:\kzc\stm32\h743ii_lcd\lvgl\src\misc\lv_area.h ****  */
 221:d:\kzc\stm32\h743ii_lcd\lvgl\src\misc\lv_area.h **** bool _lv_area_is_in(const lv_area_t * ain_p, const lv_area_t * aholder_p, lv_coord_t radius);
 222:d:\kzc\stm32\h743ii_lcd\lvgl\src\misc\lv_area.h **** 
 223:d:\kzc\stm32\h743ii_lcd\lvgl\src\misc\lv_area.h **** /**
 224:d:\kzc\stm32\h743ii_lcd\lvgl\src\misc\lv_area.h ****  * Check if an area is fully out of an other
 225:d:\kzc\stm32\h743ii_lcd\lvgl\src\misc\lv_area.h ****  * @param aout_p pointer to an area which could be in 'aholder_p'
 226:d:\kzc\stm32\h743ii_lcd\lvgl\src\misc\lv_area.h ****  * @param aholder_p pointer to an area which could involve 'ain_p'
 227:d:\kzc\stm32\h743ii_lcd\lvgl\src\misc\lv_area.h ****  * @param radius radius of `aholder_p` (e.g. for rounded rectangle)
 228:d:\kzc\stm32\h743ii_lcd\lvgl\src\misc\lv_area.h ****  * @return true: `aout_p` is fully outside `aholder_p`
 229:d:\kzc\stm32\h743ii_lcd\lvgl\src\misc\lv_area.h ****  */
 230:d:\kzc\stm32\h743ii_lcd\lvgl\src\misc\lv_area.h **** bool _lv_area_is_out(const lv_area_t * aout_p, const lv_area_t * aholder_p, lv_coord_t radius);
 231:d:\kzc\stm32\h743ii_lcd\lvgl\src\misc\lv_area.h **** 
 232:d:\kzc\stm32\h743ii_lcd\lvgl\src\misc\lv_area.h **** /**
 233:d:\kzc\stm32\h743ii_lcd\lvgl\src\misc\lv_area.h ****  * Check if 2 area is the same
 234:d:\kzc\stm32\h743ii_lcd\lvgl\src\misc\lv_area.h ****  * @param a pointer to an area
 235:d:\kzc\stm32\h743ii_lcd\lvgl\src\misc\lv_area.h ****  * @param b pointer to another area
 236:d:\kzc\stm32\h743ii_lcd\lvgl\src\misc\lv_area.h ****  */
 237:d:\kzc\stm32\h743ii_lcd\lvgl\src\misc\lv_area.h **** bool _lv_area_is_equal(const lv_area_t * a, const lv_area_t * b);
 238:d:\kzc\stm32\h743ii_lcd\lvgl\src\misc\lv_area.h **** 
 239:d:\kzc\stm32\h743ii_lcd\lvgl\src\misc\lv_area.h **** /**
 240:d:\kzc\stm32\h743ii_lcd\lvgl\src\misc\lv_area.h ****  * Align an area to an other
 241:d:\kzc\stm32\h743ii_lcd\lvgl\src\misc\lv_area.h ****  * @param base an are where the other will be aligned
 242:d:\kzc\stm32\h743ii_lcd\lvgl\src\misc\lv_area.h ****  * @param to_align the area to align
 243:d:\kzc\stm32\h743ii_lcd\lvgl\src\misc\lv_area.h ****  * @param align `LV_ALIGN_...`
ARM GAS  C:\Users\OSD\AppData\Local\Temp\ccyrCEHe.s 			page 40


 244:d:\kzc\stm32\h743ii_lcd\lvgl\src\misc\lv_area.h ****  */
 245:d:\kzc\stm32\h743ii_lcd\lvgl\src\misc\lv_area.h **** void lv_area_align(const lv_area_t * base, lv_area_t * to_align, lv_align_t align, lv_coord_t ofs_x
 246:d:\kzc\stm32\h743ii_lcd\lvgl\src\misc\lv_area.h **** 
 247:d:\kzc\stm32\h743ii_lcd\lvgl\src\misc\lv_area.h **** void lv_point_transform(lv_point_t * p, int32_t angle, int32_t zoom, const lv_point_t * pivot);
 248:d:\kzc\stm32\h743ii_lcd\lvgl\src\misc\lv_area.h **** 
 249:d:\kzc\stm32\h743ii_lcd\lvgl\src\misc\lv_area.h **** /**********************
 250:d:\kzc\stm32\h743ii_lcd\lvgl\src\misc\lv_area.h ****  *      MACROS
 251:d:\kzc\stm32\h743ii_lcd\lvgl\src\misc\lv_area.h ****  **********************/
 252:d:\kzc\stm32\h743ii_lcd\lvgl\src\misc\lv_area.h **** 
 253:d:\kzc\stm32\h743ii_lcd\lvgl\src\misc\lv_area.h **** #if LV_USE_LARGE_COORD
 254:d:\kzc\stm32\h743ii_lcd\lvgl\src\misc\lv_area.h **** #define _LV_COORD_TYPE_SHIFT    (29U)
 255:d:\kzc\stm32\h743ii_lcd\lvgl\src\misc\lv_area.h **** #else
 256:d:\kzc\stm32\h743ii_lcd\lvgl\src\misc\lv_area.h **** #define _LV_COORD_TYPE_SHIFT    (13U)
 257:d:\kzc\stm32\h743ii_lcd\lvgl\src\misc\lv_area.h **** #endif
 258:d:\kzc\stm32\h743ii_lcd\lvgl\src\misc\lv_area.h **** 
 259:d:\kzc\stm32\h743ii_lcd\lvgl\src\misc\lv_area.h **** #define _LV_COORD_TYPE_MASK     (3 << _LV_COORD_TYPE_SHIFT)
 260:d:\kzc\stm32\h743ii_lcd\lvgl\src\misc\lv_area.h **** #define _LV_COORD_TYPE(x)       ((x) & _LV_COORD_TYPE_MASK)  /*Extract type specifiers*/
 261:d:\kzc\stm32\h743ii_lcd\lvgl\src\misc\lv_area.h **** #define _LV_COORD_PLAIN(x)      ((x) & ~_LV_COORD_TYPE_MASK) /*Remove type specifiers*/
 262:d:\kzc\stm32\h743ii_lcd\lvgl\src\misc\lv_area.h **** 
 263:d:\kzc\stm32\h743ii_lcd\lvgl\src\misc\lv_area.h **** #define _LV_COORD_TYPE_PX       (0 << _LV_COORD_TYPE_SHIFT)
 264:d:\kzc\stm32\h743ii_lcd\lvgl\src\misc\lv_area.h **** #define _LV_COORD_TYPE_SPEC     (1 << _LV_COORD_TYPE_SHIFT)
 265:d:\kzc\stm32\h743ii_lcd\lvgl\src\misc\lv_area.h **** #define _LV_COORD_TYPE_PX_NEG   (3 << _LV_COORD_TYPE_SHIFT)
 266:d:\kzc\stm32\h743ii_lcd\lvgl\src\misc\lv_area.h **** 
 267:d:\kzc\stm32\h743ii_lcd\lvgl\src\misc\lv_area.h **** #define LV_COORD_IS_PX(x)       (_LV_COORD_TYPE(x) == _LV_COORD_TYPE_PX || \
 268:d:\kzc\stm32\h743ii_lcd\lvgl\src\misc\lv_area.h ****                                  _LV_COORD_TYPE(x) == _LV_COORD_TYPE_PX_NEG ? true : false)
 269:d:\kzc\stm32\h743ii_lcd\lvgl\src\misc\lv_area.h **** #define LV_COORD_IS_SPEC(x)     (_LV_COORD_TYPE(x) == _LV_COORD_TYPE_SPEC ? true : false)
 270:d:\kzc\stm32\h743ii_lcd\lvgl\src\misc\lv_area.h **** 
 271:d:\kzc\stm32\h743ii_lcd\lvgl\src\misc\lv_area.h **** #define LV_COORD_SET_SPEC(x)    ((x) | _LV_COORD_TYPE_SPEC)
 272:d:\kzc\stm32\h743ii_lcd\lvgl\src\misc\lv_area.h **** 
 273:d:\kzc\stm32\h743ii_lcd\lvgl\src\misc\lv_area.h **** /*Special coordinates*/
 274:d:\kzc\stm32\h743ii_lcd\lvgl\src\misc\lv_area.h **** #define LV_PCT(x)               (x < 0 ? LV_COORD_SET_SPEC(1000 - (x)) : LV_COORD_SET_SPEC(x))
 275:d:\kzc\stm32\h743ii_lcd\lvgl\src\misc\lv_area.h **** #define LV_COORD_IS_PCT(x)      ((LV_COORD_IS_SPEC(x) && _LV_COORD_PLAIN(x) <= 2000) ? true : false
 276:d:\kzc\stm32\h743ii_lcd\lvgl\src\misc\lv_area.h **** #define LV_COORD_GET_PCT(x)     (_LV_COORD_PLAIN(x) > 1000 ? 1000 - _LV_COORD_PLAIN(x) : _LV_COORD_
 277:d:\kzc\stm32\h743ii_lcd\lvgl\src\misc\lv_area.h **** #define LV_SIZE_CONTENT         LV_COORD_SET_SPEC(2001)
 278:d:\kzc\stm32\h743ii_lcd\lvgl\src\misc\lv_area.h **** 
 279:d:\kzc\stm32\h743ii_lcd\lvgl\src\misc\lv_area.h **** LV_EXPORT_CONST_INT(LV_SIZE_CONTENT);
 280:d:\kzc\stm32\h743ii_lcd\lvgl\src\misc\lv_area.h **** 
 281:d:\kzc\stm32\h743ii_lcd\lvgl\src\misc\lv_area.h **** /*Max coordinate value*/
 282:d:\kzc\stm32\h743ii_lcd\lvgl\src\misc\lv_area.h **** #define LV_COORD_MAX            ((1 << _LV_COORD_TYPE_SHIFT) - 1)
 283:d:\kzc\stm32\h743ii_lcd\lvgl\src\misc\lv_area.h **** #define LV_COORD_MIN            (-LV_COORD_MAX)
 284:d:\kzc\stm32\h743ii_lcd\lvgl\src\misc\lv_area.h **** 
 285:d:\kzc\stm32\h743ii_lcd\lvgl\src\misc\lv_area.h **** LV_EXPORT_CONST_INT(LV_COORD_MAX);
 286:d:\kzc\stm32\h743ii_lcd\lvgl\src\misc\lv_area.h **** LV_EXPORT_CONST_INT(LV_COORD_MIN);
 287:d:\kzc\stm32\h743ii_lcd\lvgl\src\misc\lv_area.h **** 
 288:d:\kzc\stm32\h743ii_lcd\lvgl\src\misc\lv_area.h **** /**
 289:d:\kzc\stm32\h743ii_lcd\lvgl\src\misc\lv_area.h ****  * Convert a percentage value to `lv_coord_t`.
 290:d:\kzc\stm32\h743ii_lcd\lvgl\src\misc\lv_area.h ****  * Percentage values are stored in special range
 291:d:\kzc\stm32\h743ii_lcd\lvgl\src\misc\lv_area.h ****  * @param x the percentage (0..1000)
 292:d:\kzc\stm32\h743ii_lcd\lvgl\src\misc\lv_area.h ****  * @return a coordinate that stores the percentage
 293:d:\kzc\stm32\h743ii_lcd\lvgl\src\misc\lv_area.h ****  */
 294:d:\kzc\stm32\h743ii_lcd\lvgl\src\misc\lv_area.h **** static inline lv_coord_t lv_pct(lv_coord_t x)
 295:d:\kzc\stm32\h743ii_lcd\lvgl\src\misc\lv_area.h **** {
 296:d:\kzc\stm32\h743ii_lcd\lvgl\src\misc\lv_area.h ****     return LV_PCT(x);
 1272              		.loc 2 296 5 view .LVU403
 279:lvgl/src/extra/widgets/calendar/lv_calendar.c **** 
 1273              		.loc 1 279 5 is_stmt 0 view .LVU404
 1274 00ae 42F26401 		movw	r1, #8292
ARM GAS  C:\Users\OSD\AppData\Local\Temp\ccyrCEHe.s 			page 41


 1275 00b2 606A     		ldr	r0, [r4, #36]
 1276 00b4 FFF7FEFF 		bl	lv_obj_set_width
 1277              	.LVL139:
 281:lvgl/src/extra/widgets/calendar/lv_calendar.c ****     lv_obj_set_flex_grow(calendar->btnm, 1);
 1278              		.loc 1 281 5 is_stmt 1 view .LVU405
 1279 00b8 0121     		movs	r1, #1
 1280 00ba 2046     		mov	r0, r4
 1281 00bc FFF7FEFF 		bl	lv_obj_set_flex_flow
 1282              	.LVL140:
 282:lvgl/src/extra/widgets/calendar/lv_calendar.c **** 
 1283              		.loc 1 282 5 view .LVU406
 1284 00c0 0121     		movs	r1, #1
 1285 00c2 606A     		ldr	r0, [r4, #36]
 1286 00c4 FFF7FEFF 		bl	lv_obj_set_flex_grow
 1287              	.LVL141:
 284:lvgl/src/extra/widgets/calendar/lv_calendar.c ****     lv_calendar_set_today_date(obj, calendar->today.year, calendar->today.month, calendar->today.da
 1288              		.loc 1 284 5 view .LVU407
 1289 00c8 94F92E20 		ldrsb	r2, [r4, #46]
 1290 00cc A18D     		ldrh	r1, [r4, #44]
 1291 00ce 2046     		mov	r0, r4
 1292 00d0 FFF7FEFF 		bl	lv_calendar_set_showed_date
 1293              	.LVL142:
 285:lvgl/src/extra/widgets/calendar/lv_calendar.c **** 
 1294              		.loc 1 285 5 view .LVU408
 1295 00d4 94F92B30 		ldrsb	r3, [r4, #43]
 1296 00d8 94F92A20 		ldrsb	r2, [r4, #42]
 1297 00dc 218D     		ldrh	r1, [r4, #40]
 1298 00de 2046     		mov	r0, r4
 1299 00e0 FFF7FEFF 		bl	lv_calendar_set_today_date
 1300              	.LVL143:
 287:lvgl/src/extra/widgets/calendar/lv_calendar.c **** }
 1301              		.loc 1 287 5 view .LVU409
 1302 00e4 4FF48041 		mov	r1, #16384
 1303 00e8 606A     		ldr	r0, [r4, #36]
 1304 00ea FFF7FEFF 		bl	lv_obj_add_flag
 1305              	.LVL144:
 288:lvgl/src/extra/widgets/calendar/lv_calendar.c **** 
 1306              		.loc 1 288 1 is_stmt 0 view .LVU410
 1307 00ee 38BD     		pop	{r3, r4, r5, pc}
 1308              	.LVL145:
 1309              	.L82:
 288:lvgl/src/extra/widgets/calendar/lv_calendar.c **** 
 1310              		.loc 1 288 1 view .LVU411
 1311              		.align	2
 1312              	.L81:
 1313 00f0 00000000 		.word	.LC1
 1314 00f4 00000000 		.word	.LANCHOR1
 1315 00f8 04000000 		.word	.LC2
 1316 00fc 00000000 		.word	draw_part_begin_event_cb
 1317              		.cfi_endproc
 1318              	.LFE215:
 1320              		.section	.text.lv_calendar_get_btnmatrix,"ax",%progbits
 1321              		.align	1
 1322              		.global	lv_calendar_get_btnmatrix
 1323              		.syntax unified
 1324              		.thumb
 1325              		.thumb_func
ARM GAS  C:\Users\OSD\AppData\Local\Temp\ccyrCEHe.s 			page 42


 1327              	lv_calendar_get_btnmatrix:
 1328              	.LVL146:
 1329              	.LFB209:
 173:lvgl/src/extra/widgets/calendar/lv_calendar.c ****     LV_ASSERT_OBJ(obj, MY_CLASS);
 1330              		.loc 1 173 1 is_stmt 1 view -0
 1331              		.cfi_startproc
 1332              		@ args = 0, pretend = 0, frame = 0
 1333              		@ frame_needed = 0, uses_anonymous_args = 0
 1334              		@ link register save eliminated.
 174:lvgl/src/extra/widgets/calendar/lv_calendar.c ****     const lv_calendar_t * calendar = (lv_calendar_t *)obj;
 1335              		.loc 1 174 5 view .LVU413
 174:lvgl/src/extra/widgets/calendar/lv_calendar.c ****     const lv_calendar_t * calendar = (lv_calendar_t *)obj;
 1336              		.loc 1 174 5 view .LVU414
 174:lvgl/src/extra/widgets/calendar/lv_calendar.c ****     const lv_calendar_t * calendar = (lv_calendar_t *)obj;
 1337              		.loc 1 174 5 view .LVU415
 175:lvgl/src/extra/widgets/calendar/lv_calendar.c ****     return calendar->btnm;
 1338              		.loc 1 175 5 view .LVU416
 176:lvgl/src/extra/widgets/calendar/lv_calendar.c **** }
 1339              		.loc 1 176 5 view .LVU417
 177:lvgl/src/extra/widgets/calendar/lv_calendar.c **** 
 1340              		.loc 1 177 1 is_stmt 0 view .LVU418
 1341 0000 406A     		ldr	r0, [r0, #36]
 1342              	.LVL147:
 177:lvgl/src/extra/widgets/calendar/lv_calendar.c **** 
 1343              		.loc 1 177 1 view .LVU419
 1344 0002 7047     		bx	lr
 1345              		.cfi_endproc
 1346              	.LFE209:
 1348              		.section	.text.lv_calendar_get_today_date,"ax",%progbits
 1349              		.align	1
 1350              		.global	lv_calendar_get_today_date
 1351              		.syntax unified
 1352              		.thumb
 1353              		.thumb_func
 1355              	lv_calendar_get_today_date:
 1356              	.LVL148:
 1357              	.LFB210:
 180:lvgl/src/extra/widgets/calendar/lv_calendar.c ****     LV_ASSERT_OBJ(obj, MY_CLASS);
 1358              		.loc 1 180 1 is_stmt 1 view -0
 1359              		.cfi_startproc
 1360              		@ args = 0, pretend = 0, frame = 0
 1361              		@ frame_needed = 0, uses_anonymous_args = 0
 1362              		@ link register save eliminated.
 181:lvgl/src/extra/widgets/calendar/lv_calendar.c ****     const lv_calendar_t * calendar = (lv_calendar_t *)obj;
 1363              		.loc 1 181 5 view .LVU421
 181:lvgl/src/extra/widgets/calendar/lv_calendar.c ****     const lv_calendar_t * calendar = (lv_calendar_t *)obj;
 1364              		.loc 1 181 5 view .LVU422
 181:lvgl/src/extra/widgets/calendar/lv_calendar.c ****     const lv_calendar_t * calendar = (lv_calendar_t *)obj;
 1365              		.loc 1 181 5 view .LVU423
 182:lvgl/src/extra/widgets/calendar/lv_calendar.c **** 
 1366              		.loc 1 182 5 view .LVU424
 184:lvgl/src/extra/widgets/calendar/lv_calendar.c **** }
 1367              		.loc 1 184 5 view .LVU425
 185:lvgl/src/extra/widgets/calendar/lv_calendar.c **** 
 1368              		.loc 1 185 1 is_stmt 0 view .LVU426
 1369 0000 2830     		adds	r0, r0, #40
 1370              	.LVL149:
ARM GAS  C:\Users\OSD\AppData\Local\Temp\ccyrCEHe.s 			page 43


 185:lvgl/src/extra/widgets/calendar/lv_calendar.c **** 
 1371              		.loc 1 185 1 view .LVU427
 1372 0002 7047     		bx	lr
 1373              		.cfi_endproc
 1374              	.LFE210:
 1376              		.section	.text.lv_calendar_get_showed_date,"ax",%progbits
 1377              		.align	1
 1378              		.global	lv_calendar_get_showed_date
 1379              		.syntax unified
 1380              		.thumb
 1381              		.thumb_func
 1383              	lv_calendar_get_showed_date:
 1384              	.LVL150:
 1385              	.LFB211:
 188:lvgl/src/extra/widgets/calendar/lv_calendar.c ****     LV_ASSERT_OBJ(obj, MY_CLASS);
 1386              		.loc 1 188 1 is_stmt 1 view -0
 1387              		.cfi_startproc
 1388              		@ args = 0, pretend = 0, frame = 0
 1389              		@ frame_needed = 0, uses_anonymous_args = 0
 1390              		@ link register save eliminated.
 189:lvgl/src/extra/widgets/calendar/lv_calendar.c ****     const lv_calendar_t * calendar = (lv_calendar_t *)obj;
 1391              		.loc 1 189 5 view .LVU429
 189:lvgl/src/extra/widgets/calendar/lv_calendar.c ****     const lv_calendar_t * calendar = (lv_calendar_t *)obj;
 1392              		.loc 1 189 5 view .LVU430
 189:lvgl/src/extra/widgets/calendar/lv_calendar.c ****     const lv_calendar_t * calendar = (lv_calendar_t *)obj;
 1393              		.loc 1 189 5 view .LVU431
 190:lvgl/src/extra/widgets/calendar/lv_calendar.c **** 
 1394              		.loc 1 190 5 view .LVU432
 192:lvgl/src/extra/widgets/calendar/lv_calendar.c **** }
 1395              		.loc 1 192 5 view .LVU433
 193:lvgl/src/extra/widgets/calendar/lv_calendar.c **** 
 1396              		.loc 1 193 1 is_stmt 0 view .LVU434
 1397 0000 2C30     		adds	r0, r0, #44
 1398              	.LVL151:
 193:lvgl/src/extra/widgets/calendar/lv_calendar.c **** 
 1399              		.loc 1 193 1 view .LVU435
 1400 0002 7047     		bx	lr
 1401              		.cfi_endproc
 1402              	.LFE211:
 1404              		.section	.text.lv_calendar_get_highlighted_dates,"ax",%progbits
 1405              		.align	1
 1406              		.global	lv_calendar_get_highlighted_dates
 1407              		.syntax unified
 1408              		.thumb
 1409              		.thumb_func
 1411              	lv_calendar_get_highlighted_dates:
 1412              	.LVL152:
 1413              	.LFB212:
 196:lvgl/src/extra/widgets/calendar/lv_calendar.c ****     LV_ASSERT_OBJ(obj, MY_CLASS);
 1414              		.loc 1 196 1 is_stmt 1 view -0
 1415              		.cfi_startproc
 1416              		@ args = 0, pretend = 0, frame = 0
 1417              		@ frame_needed = 0, uses_anonymous_args = 0
 1418              		@ link register save eliminated.
 197:lvgl/src/extra/widgets/calendar/lv_calendar.c ****     lv_calendar_t * calendar = (lv_calendar_t *)obj;
 1419              		.loc 1 197 5 view .LVU437
 197:lvgl/src/extra/widgets/calendar/lv_calendar.c ****     lv_calendar_t * calendar = (lv_calendar_t *)obj;
ARM GAS  C:\Users\OSD\AppData\Local\Temp\ccyrCEHe.s 			page 44


 1420              		.loc 1 197 5 view .LVU438
 197:lvgl/src/extra/widgets/calendar/lv_calendar.c ****     lv_calendar_t * calendar = (lv_calendar_t *)obj;
 1421              		.loc 1 197 5 view .LVU439
 198:lvgl/src/extra/widgets/calendar/lv_calendar.c **** 
 1422              		.loc 1 198 5 view .LVU440
 200:lvgl/src/extra/widgets/calendar/lv_calendar.c **** }
 1423              		.loc 1 200 5 view .LVU441
 201:lvgl/src/extra/widgets/calendar/lv_calendar.c **** 
 1424              		.loc 1 201 1 is_stmt 0 view .LVU442
 1425 0000 006B     		ldr	r0, [r0, #48]
 1426              	.LVL153:
 201:lvgl/src/extra/widgets/calendar/lv_calendar.c **** 
 1427              		.loc 1 201 1 view .LVU443
 1428 0002 7047     		bx	lr
 1429              		.cfi_endproc
 1430              	.LFE212:
 1432              		.section	.text.lv_calendar_get_highlighted_dates_num,"ax",%progbits
 1433              		.align	1
 1434              		.global	lv_calendar_get_highlighted_dates_num
 1435              		.syntax unified
 1436              		.thumb
 1437              		.thumb_func
 1439              	lv_calendar_get_highlighted_dates_num:
 1440              	.LVL154:
 1441              	.LFB213:
 204:lvgl/src/extra/widgets/calendar/lv_calendar.c ****     LV_ASSERT_OBJ(obj, MY_CLASS);
 1442              		.loc 1 204 1 is_stmt 1 view -0
 1443              		.cfi_startproc
 1444              		@ args = 0, pretend = 0, frame = 0
 1445              		@ frame_needed = 0, uses_anonymous_args = 0
 1446              		@ link register save eliminated.
 205:lvgl/src/extra/widgets/calendar/lv_calendar.c ****     lv_calendar_t * calendar = (lv_calendar_t *)obj;
 1447              		.loc 1 205 5 view .LVU445
 205:lvgl/src/extra/widgets/calendar/lv_calendar.c ****     lv_calendar_t * calendar = (lv_calendar_t *)obj;
 1448              		.loc 1 205 5 view .LVU446
 205:lvgl/src/extra/widgets/calendar/lv_calendar.c ****     lv_calendar_t * calendar = (lv_calendar_t *)obj;
 1449              		.loc 1 205 5 view .LVU447
 206:lvgl/src/extra/widgets/calendar/lv_calendar.c **** 
 1450              		.loc 1 206 5 view .LVU448
 208:lvgl/src/extra/widgets/calendar/lv_calendar.c **** }
 1451              		.loc 1 208 5 view .LVU449
 209:lvgl/src/extra/widgets/calendar/lv_calendar.c **** 
 1452              		.loc 1 209 1 is_stmt 0 view .LVU450
 1453 0000 808E     		ldrh	r0, [r0, #52]
 1454              	.LVL155:
 209:lvgl/src/extra/widgets/calendar/lv_calendar.c **** 
 1455              		.loc 1 209 1 view .LVU451
 1456 0002 7047     		bx	lr
 1457              		.cfi_endproc
 1458              	.LFE213:
 1460              		.section	.text.lv_calendar_get_pressed_date,"ax",%progbits
 1461              		.align	1
 1462              		.global	lv_calendar_get_pressed_date
 1463              		.syntax unified
 1464              		.thumb
 1465              		.thumb_func
 1467              	lv_calendar_get_pressed_date:
ARM GAS  C:\Users\OSD\AppData\Local\Temp\ccyrCEHe.s 			page 45


 1468              	.LVL156:
 1469              	.LFB214:
 212:lvgl/src/extra/widgets/calendar/lv_calendar.c ****     LV_ASSERT_OBJ(obj, MY_CLASS);
 1470              		.loc 1 212 1 is_stmt 1 view -0
 1471              		.cfi_startproc
 1472              		@ args = 0, pretend = 0, frame = 0
 1473              		@ frame_needed = 0, uses_anonymous_args = 0
 212:lvgl/src/extra/widgets/calendar/lv_calendar.c ****     LV_ASSERT_OBJ(obj, MY_CLASS);
 1474              		.loc 1 212 1 is_stmt 0 view .LVU453
 1475 0000 70B5     		push	{r4, r5, r6, lr}
 1476              		.cfi_def_cfa_offset 16
 1477              		.cfi_offset 4, -16
 1478              		.cfi_offset 5, -12
 1479              		.cfi_offset 6, -8
 1480              		.cfi_offset 14, -4
 1481 0002 0546     		mov	r5, r0
 1482 0004 0C46     		mov	r4, r1
 213:lvgl/src/extra/widgets/calendar/lv_calendar.c ****     lv_calendar_t * calendar = (lv_calendar_t *)obj;
 1483              		.loc 1 213 5 is_stmt 1 view .LVU454
 213:lvgl/src/extra/widgets/calendar/lv_calendar.c ****     lv_calendar_t * calendar = (lv_calendar_t *)obj;
 1484              		.loc 1 213 5 view .LVU455
 213:lvgl/src/extra/widgets/calendar/lv_calendar.c ****     lv_calendar_t * calendar = (lv_calendar_t *)obj;
 1485              		.loc 1 213 5 view .LVU456
 214:lvgl/src/extra/widgets/calendar/lv_calendar.c **** 
 1486              		.loc 1 214 5 view .LVU457
 1487              	.LVL157:
 216:lvgl/src/extra/widgets/calendar/lv_calendar.c ****     if(d == LV_BTNMATRIX_BTN_NONE) {
 1488              		.loc 1 216 5 view .LVU458
 216:lvgl/src/extra/widgets/calendar/lv_calendar.c ****     if(d == LV_BTNMATRIX_BTN_NONE) {
 1489              		.loc 1 216 18 is_stmt 0 view .LVU459
 1490 0006 406A     		ldr	r0, [r0, #36]
 1491              	.LVL158:
 216:lvgl/src/extra/widgets/calendar/lv_calendar.c ****     if(d == LV_BTNMATRIX_BTN_NONE) {
 1492              		.loc 1 216 18 view .LVU460
 1493 0008 FFF7FEFF 		bl	lv_btnmatrix_get_selected_btn
 1494              	.LVL159:
 217:lvgl/src/extra/widgets/calendar/lv_calendar.c ****         date->year = 0;
 1495              		.loc 1 217 5 is_stmt 1 view .LVU461
 217:lvgl/src/extra/widgets/calendar/lv_calendar.c ****         date->year = 0;
 1496              		.loc 1 217 7 is_stmt 0 view .LVU462
 1497 000c 4FF6FF73 		movw	r3, #65535
 1498 0010 9842     		cmp	r0, r3
 1499 0012 13D0     		beq	.L94
 224:lvgl/src/extra/widgets/calendar/lv_calendar.c **** 
 1500              		.loc 1 224 5 is_stmt 1 view .LVU463
 224:lvgl/src/extra/widgets/calendar/lv_calendar.c **** 
 1501              		.loc 1 224 58 is_stmt 0 view .LVU464
 1502 0014 6E6A     		ldr	r6, [r5, #36]
 224:lvgl/src/extra/widgets/calendar/lv_calendar.c **** 
 1503              		.loc 1 224 24 view .LVU465
 1504 0016 3046     		mov	r0, r6
 1505              	.LVL160:
 224:lvgl/src/extra/widgets/calendar/lv_calendar.c **** 
 1506              		.loc 1 224 24 view .LVU466
 1507 0018 FFF7FEFF 		bl	lv_btnmatrix_get_selected_btn
 1508              	.LVL161:
 1509 001c 0146     		mov	r1, r0
ARM GAS  C:\Users\OSD\AppData\Local\Temp\ccyrCEHe.s 			page 46


 1510 001e 3046     		mov	r0, r6
 1511 0020 FFF7FEFF 		bl	lv_btnmatrix_get_btn_text
 1512              	.LVL162:
 226:lvgl/src/extra/widgets/calendar/lv_calendar.c ****     else date->day = (txt[0] - '0') * 10 + (txt[1] - '0');
 1513              		.loc 1 226 5 is_stmt 1 view .LVU467
 226:lvgl/src/extra/widgets/calendar/lv_calendar.c ****     else date->day = (txt[0] - '0') * 10 + (txt[1] - '0');
 1514              		.loc 1 226 11 is_stmt 0 view .LVU468
 1515 0024 4378     		ldrb	r3, [r0, #1]	@ zero_extendqisi2
 226:lvgl/src/extra/widgets/calendar/lv_calendar.c ****     else date->day = (txt[0] - '0') * 10 + (txt[1] - '0');
 1516              		.loc 1 226 7 view .LVU469
 1517 0026 73B9     		cbnz	r3, .L91
 226:lvgl/src/extra/widgets/calendar/lv_calendar.c ****     else date->day = (txt[0] - '0') * 10 + (txt[1] - '0');
 1518              		.loc 1 226 21 is_stmt 1 discriminator 1 view .LVU470
 226:lvgl/src/extra/widgets/calendar/lv_calendar.c ****     else date->day = (txt[0] - '0') * 10 + (txt[1] - '0');
 1519              		.loc 1 226 36 is_stmt 0 discriminator 1 view .LVU471
 1520 0028 0378     		ldrb	r3, [r0]	@ zero_extendqisi2
 226:lvgl/src/extra/widgets/calendar/lv_calendar.c ****     else date->day = (txt[0] - '0') * 10 + (txt[1] - '0');
 1521              		.loc 1 226 40 discriminator 1 view .LVU472
 1522 002a 303B     		subs	r3, r3, #48
 226:lvgl/src/extra/widgets/calendar/lv_calendar.c ****     else date->day = (txt[0] - '0') * 10 + (txt[1] - '0');
 1523              		.loc 1 226 31 discriminator 1 view .LVU473
 1524 002c E370     		strb	r3, [r4, #3]
 1525              	.L92:
 229:lvgl/src/extra/widgets/calendar/lv_calendar.c ****     date->month = calendar->showed_date.month;
 1526              		.loc 1 229 5 is_stmt 1 view .LVU474
 229:lvgl/src/extra/widgets/calendar/lv_calendar.c ****     date->month = calendar->showed_date.month;
 1527              		.loc 1 229 39 is_stmt 0 view .LVU475
 1528 002e AB8D     		ldrh	r3, [r5, #44]
 229:lvgl/src/extra/widgets/calendar/lv_calendar.c ****     date->month = calendar->showed_date.month;
 1529              		.loc 1 229 16 view .LVU476
 1530 0030 2380     		strh	r3, [r4]	@ movhi
 230:lvgl/src/extra/widgets/calendar/lv_calendar.c **** 
 1531              		.loc 1 230 5 is_stmt 1 view .LVU477
 230:lvgl/src/extra/widgets/calendar/lv_calendar.c **** 
 1532              		.loc 1 230 40 is_stmt 0 view .LVU478
 1533 0032 95F92E30 		ldrsb	r3, [r5, #46]
 230:lvgl/src/extra/widgets/calendar/lv_calendar.c **** 
 1534              		.loc 1 230 17 view .LVU479
 1535 0036 A370     		strb	r3, [r4, #2]
 232:lvgl/src/extra/widgets/calendar/lv_calendar.c **** }
 1536              		.loc 1 232 5 is_stmt 1 view .LVU480
 232:lvgl/src/extra/widgets/calendar/lv_calendar.c **** }
 1537              		.loc 1 232 12 is_stmt 0 view .LVU481
 1538 0038 0120     		movs	r0, #1
 1539              	.LVL163:
 1540              	.L90:
 233:lvgl/src/extra/widgets/calendar/lv_calendar.c **** 
 1541              		.loc 1 233 1 view .LVU482
 1542 003a 70BD     		pop	{r4, r5, r6, pc}
 1543              	.LVL164:
 1544              	.L94:
 218:lvgl/src/extra/widgets/calendar/lv_calendar.c ****         date->month = 0;
 1545              		.loc 1 218 9 is_stmt 1 view .LVU483
 218:lvgl/src/extra/widgets/calendar/lv_calendar.c ****         date->month = 0;
 1546              		.loc 1 218 20 is_stmt 0 view .LVU484
 1547 003c 0020     		movs	r0, #0
 1548              	.LVL165:
ARM GAS  C:\Users\OSD\AppData\Local\Temp\ccyrCEHe.s 			page 47


 218:lvgl/src/extra/widgets/calendar/lv_calendar.c ****         date->month = 0;
 1549              		.loc 1 218 20 view .LVU485
 1550 003e 2080     		strh	r0, [r4]	@ movhi
 219:lvgl/src/extra/widgets/calendar/lv_calendar.c ****         date->day = 0;
 1551              		.loc 1 219 9 is_stmt 1 view .LVU486
 219:lvgl/src/extra/widgets/calendar/lv_calendar.c ****         date->day = 0;
 1552              		.loc 1 219 21 is_stmt 0 view .LVU487
 1553 0040 A070     		strb	r0, [r4, #2]
 220:lvgl/src/extra/widgets/calendar/lv_calendar.c ****         return LV_RES_INV;
 1554              		.loc 1 220 9 is_stmt 1 view .LVU488
 220:lvgl/src/extra/widgets/calendar/lv_calendar.c ****         return LV_RES_INV;
 1555              		.loc 1 220 19 is_stmt 0 view .LVU489
 1556 0042 E070     		strb	r0, [r4, #3]
 221:lvgl/src/extra/widgets/calendar/lv_calendar.c ****     }
 1557              		.loc 1 221 9 is_stmt 1 view .LVU490
 221:lvgl/src/extra/widgets/calendar/lv_calendar.c ****     }
 1558              		.loc 1 221 16 is_stmt 0 view .LVU491
 1559 0044 F9E7     		b	.L90
 1560              	.LVL166:
 1561              	.L91:
 227:lvgl/src/extra/widgets/calendar/lv_calendar.c **** 
 1562              		.loc 1 227 10 is_stmt 1 view .LVU492
 227:lvgl/src/extra/widgets/calendar/lv_calendar.c **** 
 1563              		.loc 1 227 26 is_stmt 0 view .LVU493
 1564 0046 0278     		ldrb	r2, [r0]	@ zero_extendqisi2
 227:lvgl/src/extra/widgets/calendar/lv_calendar.c **** 
 1565              		.loc 1 227 42 view .LVU494
 1566 0048 303A     		subs	r2, r2, #48
 1567 004a 02EB8202 		add	r2, r2, r2, lsl #2
 1568 004e 03EB4203 		add	r3, r3, r2, lsl #1
 1569 0052 303B     		subs	r3, r3, #48
 227:lvgl/src/extra/widgets/calendar/lv_calendar.c **** 
 1570              		.loc 1 227 20 view .LVU495
 1571 0054 E370     		strb	r3, [r4, #3]
 1572 0056 EAE7     		b	.L92
 1573              		.cfi_endproc
 1574              	.LFE214:
 1576              		.section	.rodata.str1.4,"aMS",%progbits,1
 1577              		.align	2
 1578              	.LC3:
 1579 0000 537500   		.ascii	"Su\000"
 1580 0003 00       		.align	2
 1581              	.LC4:
 1582 0004 4D6F00   		.ascii	"Mo\000"
 1583 0007 00       		.align	2
 1584              	.LC5:
 1585 0008 547500   		.ascii	"Tu\000"
 1586 000b 00       		.align	2
 1587              	.LC6:
 1588 000c 576500   		.ascii	"We\000"
 1589 000f 00       		.align	2
 1590              	.LC7:
 1591 0010 546800   		.ascii	"Th\000"
 1592 0013 00       		.align	2
 1593              	.LC8:
 1594 0014 467200   		.ascii	"Fr\000"
 1595 0017 00       		.align	2
ARM GAS  C:\Users\OSD\AppData\Local\Temp\ccyrCEHe.s 			page 48


 1596              	.LC9:
 1597 0018 536100   		.ascii	"Sa\000"
 1598              		.global	lv_calendar_class
 1599              		.section	.rodata.day_names_def,"a"
 1600              		.align	2
 1601              		.set	.LANCHOR1,. + 0
 1604              	day_names_def:
 1605 0000 00000000 		.word	.LC3
 1606 0004 04000000 		.word	.LC4
 1607 0008 08000000 		.word	.LC5
 1608 000c 0C000000 		.word	.LC6
 1609 0010 10000000 		.word	.LC7
 1610 0014 14000000 		.word	.LC8
 1611 0018 18000000 		.word	.LC9
 1612              		.section	.rodata.lv_calendar_class,"a"
 1613              		.align	2
 1614              		.set	.LANCHOR0,. + 0
 1617              	lv_calendar_class:
 1618 0000 00000000 		.word	lv_obj_class
 1619 0004 00000000 		.word	lv_calendar_constructor
 1620 0008 00000000 		.space	12
 1620      00000000 
 1620      00000000 
 1621 0014 C300     		.short	195
 1622 0016 C300     		.short	195
 1623 0018 04       		.byte	4
 1624 0019 1C       		.byte	28
 1625 001a 00       		.byte	0
 1626 001b 00       		.space	1
 1627              		.text
 1628              	.Letext0:
 1629              		.file 3 "c:\\tools\\gcc-arm-none-eabi\\arm-none-eabi\\include\\machine\\_default_types.h"
 1630              		.file 4 "c:\\tools\\gcc-arm-none-eabi\\arm-none-eabi\\include\\sys\\_stdint.h"
 1631              		.file 5 "c:\\tools\\gcc-arm-none-eabi\\lib\\gcc\\arm-none-eabi\\10.3.1\\include\\stddef.h"
 1632              		.file 6 "d:\\kzc\\stm32\\h743ii_lcd\\lvgl\\src\\font\\lv_font.h"
 1633              		.file 7 "d:\\kzc\\stm32\\h743ii_lcd\\lvgl\\src\\misc\\lv_types.h"
 1634              		.file 8 "d:\\kzc\\stm32\\h743ii_lcd\\lvgl\\src\\misc\\lv_color.h"
 1635              		.file 9 "d:\\kzc\\stm32\\h743ii_lcd\\lvgl\\src\\misc\\lv_txt.h"
 1636              		.file 10 "d:\\kzc\\stm32\\h743ii_lcd\\lvgl\\src\\misc\\lv_bidi.h"
 1637              		.file 11 "d:\\kzc\\stm32\\h743ii_lcd\\lvgl\\src\\misc\\lv_style.h"
 1638              		.file 12 "d:\\kzc\\stm32\\h743ii_lcd\\lvgl\\src\\draw\\lv_img_buf.h"
 1639              		.file 13 "d:\\kzc\\stm32\\h743ii_lcd\\lvgl\\src\\core\\lv_obj.h"
 1640              		.file 14 "d:\\kzc\\stm32\\h743ii_lcd\\lvgl\\src\\draw\\lv_draw_rect.h"
 1641              		.file 15 "d:\\kzc\\stm32\\h743ii_lcd\\lvgl\\src\\draw\\lv_draw_label.h"
 1642              		.file 16 "d:\\kzc\\stm32\\h743ii_lcd\\lvgl\\src\\draw\\lv_draw_img.h"
 1643              		.file 17 "d:\\kzc\\stm32\\h743ii_lcd\\lvgl\\src\\draw\\lv_draw_line.h"
 1644              		.file 18 "d:\\kzc\\stm32\\h743ii_lcd\\lvgl\\src\\draw\\lv_draw_arc.h"
 1645              		.file 19 "d:\\kzc\\stm32\\h743ii_lcd\\lvgl\\src\\draw\\lv_draw_layer.h"
 1646              		.file 20 "d:\\kzc\\stm32\\h743ii_lcd\\lvgl\\src\\draw\\lv_draw.h"
 1647              		.file 21 "d:\\kzc\\stm32\\h743ii_lcd\\lvgl\\src\\misc\\lv_ll.h"
 1648              		.file 22 "d:\\kzc\\stm32\\h743ii_lcd\\lvgl\\src\\core\\lv_group.h"
 1649              		.file 23 "d:\\kzc\\stm32\\h743ii_lcd\\lvgl\\src\\core\\lv_obj_scroll.h"
 1650              		.file 24 "d:\\kzc\\stm32\\h743ii_lcd\\lvgl\\src\\core\\lv_obj_style.h"
 1651              		.file 25 "d:\\kzc\\stm32\\h743ii_lcd\\lvgl\\src\\core\\lv_obj_draw.h"
 1652              		.file 26 "d:\\kzc\\stm32\\h743ii_lcd\\lvgl\\src\\core\\lv_obj_class.h"
 1653              		.file 27 "d:\\kzc\\stm32\\h743ii_lcd\\lvgl\\src\\core\\lv_event.h"
 1654              		.file 28 "d:\\kzc\\stm32\\h743ii_lcd\\lvgl\\src\\widgets\\lv_btnmatrix.h"
ARM GAS  C:\Users\OSD\AppData\Local\Temp\ccyrCEHe.s 			page 49


 1655              		.file 29 "lvgl/src/extra/widgets/calendar/lv_calendar.h"
 1656              		.file 30 "d:\\kzc\\stm32\\h743ii_lcd\\lvgl\\src/widgets/lv_bar.h"
 1657              		.file 31 "d:\\kzc\\stm32\\h743ii_lcd\\lvgl\\src/extra/layouts/flex/lv_flex.h"
 1658              		.file 32 "d:\\kzc\\stm32\\h743ii_lcd\\lvgl\\src/extra/widgets/imgbtn/lv_imgbtn.h"
 1659              		.file 33 "d:\\kzc\\stm32\\h743ii_lcd\\lvgl\\src/core/lv_theme.h"
 1660              		.file 34 "d:\\kzc\\stm32\\h743ii_lcd\\lvgl\\src\\misc\\lv_mem.h"
 1661              		.file 35 "d:\\kzc\\stm32\\h743ii_lcd\\lvgl\\src\\core\\lv_obj_pos.h"
 1662              		.file 36 "d:\\kzc\\stm32\\h743ii_lcd\\lvgl\\src\\core\\lv_obj_tree.h"
 1663              		.file 37 "d:\\kzc\\stm32\\h743ii_lcd\\lvgl\\src\\misc\\lv_printf.h"
ARM GAS  C:\Users\OSD\AppData\Local\Temp\ccyrCEHe.s 			page 50

