ARM GAS  C:\Users\OSD\AppData\Local\Temp\ccwADrda.s 			page 1


   1              		.cpu cortex-m7
   2              		.arch armv7e-m
   3              		.fpu fpv5-d16
   4              		.eabi_attribute 28, 1
   5              		.eabi_attribute 20, 1
   6              		.eabi_attribute 21, 1
   7              		.eabi_attribute 23, 3
   8              		.eabi_attribute 24, 1
   9              		.eabi_attribute 25, 1
  10              		.eabi_attribute 26, 1
  11              		.eabi_attribute 30, 1
  12              		.eabi_attribute 34, 1
  13              		.eabi_attribute 18, 4
  14              		.file	"lv_canvas.c"
  15              		.text
  16              	.Ltext0:
  17              		.cfi_sections	.debug_frame
  18              		.section	.text.lv_canvas_destructor,"ax",%progbits
  19              		.align	1
  20              		.syntax unified
  21              		.thumb
  22              		.thumb_func
  24              	lv_canvas_destructor:
  25              	.LVL0:
  26              	.LFB181:
  27              		.file 1 "lvgl/src/widgets/lv_canvas.c"
   1:lvgl/src/widgets/lv_canvas.c **** /**
   2:lvgl/src/widgets/lv_canvas.c ****  * @file lv_canvas.c
   3:lvgl/src/widgets/lv_canvas.c ****  *
   4:lvgl/src/widgets/lv_canvas.c ****  */
   5:lvgl/src/widgets/lv_canvas.c **** 
   6:lvgl/src/widgets/lv_canvas.c **** /*********************
   7:lvgl/src/widgets/lv_canvas.c ****  *      INCLUDES
   8:lvgl/src/widgets/lv_canvas.c ****  *********************/
   9:lvgl/src/widgets/lv_canvas.c **** #include "lv_canvas.h"
  10:lvgl/src/widgets/lv_canvas.c **** #include "../misc/lv_assert.h"
  11:lvgl/src/widgets/lv_canvas.c **** #include "../misc/lv_math.h"
  12:lvgl/src/widgets/lv_canvas.c **** #include "../draw/lv_draw.h"
  13:lvgl/src/widgets/lv_canvas.c **** #include "../core/lv_refr.h"
  14:lvgl/src/widgets/lv_canvas.c **** 
  15:lvgl/src/widgets/lv_canvas.c **** #if LV_USE_CANVAS != 0
  16:lvgl/src/widgets/lv_canvas.c **** 
  17:lvgl/src/widgets/lv_canvas.c **** #include "../draw/sw/lv_draw_sw.h"
  18:lvgl/src/widgets/lv_canvas.c **** 
  19:lvgl/src/widgets/lv_canvas.c **** /*********************
  20:lvgl/src/widgets/lv_canvas.c ****  *      DEFINES
  21:lvgl/src/widgets/lv_canvas.c ****  *********************/
  22:lvgl/src/widgets/lv_canvas.c **** #define MY_CLASS &lv_canvas_class
  23:lvgl/src/widgets/lv_canvas.c **** 
  24:lvgl/src/widgets/lv_canvas.c **** /**********************
  25:lvgl/src/widgets/lv_canvas.c ****  *      TYPEDEFS
  26:lvgl/src/widgets/lv_canvas.c ****  **********************/
  27:lvgl/src/widgets/lv_canvas.c **** 
  28:lvgl/src/widgets/lv_canvas.c **** /**********************
  29:lvgl/src/widgets/lv_canvas.c ****  *  STATIC PROTOTYPES
  30:lvgl/src/widgets/lv_canvas.c ****  **********************/
  31:lvgl/src/widgets/lv_canvas.c **** static void lv_canvas_constructor(const lv_obj_class_t * class_p, lv_obj_t * obj);
ARM GAS  C:\Users\OSD\AppData\Local\Temp\ccwADrda.s 			page 2


  32:lvgl/src/widgets/lv_canvas.c **** static void lv_canvas_destructor(const lv_obj_class_t * class_p, lv_obj_t * obj);
  33:lvgl/src/widgets/lv_canvas.c **** static void init_fake_disp(lv_obj_t * canvas, lv_disp_t * disp, lv_disp_drv_t * drv, lv_area_t * cl
  34:lvgl/src/widgets/lv_canvas.c **** static void deinit_fake_disp(lv_obj_t * canvas, lv_disp_t * disp);
  35:lvgl/src/widgets/lv_canvas.c **** 
  36:lvgl/src/widgets/lv_canvas.c **** /**********************
  37:lvgl/src/widgets/lv_canvas.c ****  *  STATIC VARIABLES
  38:lvgl/src/widgets/lv_canvas.c ****  **********************/
  39:lvgl/src/widgets/lv_canvas.c **** const lv_obj_class_t lv_canvas_class = {
  40:lvgl/src/widgets/lv_canvas.c ****     .constructor_cb = lv_canvas_constructor,
  41:lvgl/src/widgets/lv_canvas.c ****     .destructor_cb = lv_canvas_destructor,
  42:lvgl/src/widgets/lv_canvas.c ****     .instance_size = sizeof(lv_canvas_t),
  43:lvgl/src/widgets/lv_canvas.c ****     .base_class = &lv_img_class
  44:lvgl/src/widgets/lv_canvas.c **** };
  45:lvgl/src/widgets/lv_canvas.c **** 
  46:lvgl/src/widgets/lv_canvas.c **** /**********************
  47:lvgl/src/widgets/lv_canvas.c ****  *      MACROS
  48:lvgl/src/widgets/lv_canvas.c ****  **********************/
  49:lvgl/src/widgets/lv_canvas.c **** 
  50:lvgl/src/widgets/lv_canvas.c **** /**********************
  51:lvgl/src/widgets/lv_canvas.c ****  *   GLOBAL FUNCTIONS
  52:lvgl/src/widgets/lv_canvas.c ****  **********************/
  53:lvgl/src/widgets/lv_canvas.c **** 
  54:lvgl/src/widgets/lv_canvas.c **** lv_obj_t * lv_canvas_create(lv_obj_t * parent)
  55:lvgl/src/widgets/lv_canvas.c **** {
  56:lvgl/src/widgets/lv_canvas.c ****     LV_LOG_INFO("begin");
  57:lvgl/src/widgets/lv_canvas.c ****     lv_obj_t * obj = lv_obj_class_create_obj(MY_CLASS, parent);
  58:lvgl/src/widgets/lv_canvas.c ****     lv_obj_class_init_obj(obj);
  59:lvgl/src/widgets/lv_canvas.c ****     return obj;
  60:lvgl/src/widgets/lv_canvas.c **** }
  61:lvgl/src/widgets/lv_canvas.c **** 
  62:lvgl/src/widgets/lv_canvas.c **** /*=====================
  63:lvgl/src/widgets/lv_canvas.c ****  * Setter functions
  64:lvgl/src/widgets/lv_canvas.c ****  *====================*/
  65:lvgl/src/widgets/lv_canvas.c **** 
  66:lvgl/src/widgets/lv_canvas.c **** void lv_canvas_set_buffer(lv_obj_t * obj, void * buf, lv_coord_t w, lv_coord_t h, lv_img_cf_t cf)
  67:lvgl/src/widgets/lv_canvas.c **** {
  68:lvgl/src/widgets/lv_canvas.c ****     LV_ASSERT_OBJ(obj, MY_CLASS);
  69:lvgl/src/widgets/lv_canvas.c ****     LV_ASSERT_NULL(buf);
  70:lvgl/src/widgets/lv_canvas.c **** 
  71:lvgl/src/widgets/lv_canvas.c ****     lv_canvas_t * canvas = (lv_canvas_t *)obj;
  72:lvgl/src/widgets/lv_canvas.c **** 
  73:lvgl/src/widgets/lv_canvas.c ****     canvas->dsc.header.cf = cf;
  74:lvgl/src/widgets/lv_canvas.c ****     canvas->dsc.header.w  = w;
  75:lvgl/src/widgets/lv_canvas.c ****     canvas->dsc.header.h  = h;
  76:lvgl/src/widgets/lv_canvas.c ****     canvas->dsc.data      = buf;
  77:lvgl/src/widgets/lv_canvas.c **** 
  78:lvgl/src/widgets/lv_canvas.c ****     lv_img_set_src(obj, &canvas->dsc);
  79:lvgl/src/widgets/lv_canvas.c ****     lv_img_cache_invalidate_src(&canvas->dsc);
  80:lvgl/src/widgets/lv_canvas.c **** }
  81:lvgl/src/widgets/lv_canvas.c **** 
  82:lvgl/src/widgets/lv_canvas.c **** void lv_canvas_set_px_color(lv_obj_t * obj, lv_coord_t x, lv_coord_t y, lv_color_t c)
  83:lvgl/src/widgets/lv_canvas.c **** {
  84:lvgl/src/widgets/lv_canvas.c ****     LV_ASSERT_OBJ(obj, MY_CLASS);
  85:lvgl/src/widgets/lv_canvas.c **** 
  86:lvgl/src/widgets/lv_canvas.c ****     lv_canvas_t * canvas = (lv_canvas_t *)obj;
  87:lvgl/src/widgets/lv_canvas.c **** 
  88:lvgl/src/widgets/lv_canvas.c ****     lv_img_buf_set_px_color(&canvas->dsc, x, y, c);
ARM GAS  C:\Users\OSD\AppData\Local\Temp\ccwADrda.s 			page 3


  89:lvgl/src/widgets/lv_canvas.c ****     lv_obj_invalidate(obj);
  90:lvgl/src/widgets/lv_canvas.c **** }
  91:lvgl/src/widgets/lv_canvas.c **** 
  92:lvgl/src/widgets/lv_canvas.c **** void lv_canvas_set_px_opa(lv_obj_t * obj, lv_coord_t x, lv_coord_t y, lv_opa_t opa)
  93:lvgl/src/widgets/lv_canvas.c **** {
  94:lvgl/src/widgets/lv_canvas.c ****     LV_ASSERT_OBJ(obj, MY_CLASS);
  95:lvgl/src/widgets/lv_canvas.c **** 
  96:lvgl/src/widgets/lv_canvas.c ****     lv_canvas_t * canvas = (lv_canvas_t *)obj;
  97:lvgl/src/widgets/lv_canvas.c **** 
  98:lvgl/src/widgets/lv_canvas.c ****     lv_img_buf_set_px_alpha(&canvas->dsc, x, y, opa);
  99:lvgl/src/widgets/lv_canvas.c ****     lv_obj_invalidate(obj);
 100:lvgl/src/widgets/lv_canvas.c **** }
 101:lvgl/src/widgets/lv_canvas.c **** 
 102:lvgl/src/widgets/lv_canvas.c **** void lv_canvas_set_palette(lv_obj_t * obj, uint8_t id, lv_color_t c)
 103:lvgl/src/widgets/lv_canvas.c **** {
 104:lvgl/src/widgets/lv_canvas.c ****     LV_ASSERT_OBJ(obj, MY_CLASS);
 105:lvgl/src/widgets/lv_canvas.c **** 
 106:lvgl/src/widgets/lv_canvas.c ****     lv_canvas_t * canvas = (lv_canvas_t *)obj;
 107:lvgl/src/widgets/lv_canvas.c **** 
 108:lvgl/src/widgets/lv_canvas.c ****     lv_img_buf_set_palette(&canvas->dsc, id, c);
 109:lvgl/src/widgets/lv_canvas.c ****     lv_obj_invalidate(obj);
 110:lvgl/src/widgets/lv_canvas.c **** }
 111:lvgl/src/widgets/lv_canvas.c **** 
 112:lvgl/src/widgets/lv_canvas.c **** /*=====================
 113:lvgl/src/widgets/lv_canvas.c ****  * Getter functions
 114:lvgl/src/widgets/lv_canvas.c ****  *====================*/
 115:lvgl/src/widgets/lv_canvas.c **** 
 116:lvgl/src/widgets/lv_canvas.c **** lv_color_t lv_canvas_get_px(lv_obj_t * obj, lv_coord_t x, lv_coord_t y)
 117:lvgl/src/widgets/lv_canvas.c **** {
 118:lvgl/src/widgets/lv_canvas.c ****     LV_ASSERT_OBJ(obj, MY_CLASS);
 119:lvgl/src/widgets/lv_canvas.c **** 
 120:lvgl/src/widgets/lv_canvas.c ****     lv_canvas_t * canvas = (lv_canvas_t *)obj;
 121:lvgl/src/widgets/lv_canvas.c ****     lv_color_t color = lv_obj_get_style_img_recolor(obj, LV_PART_MAIN);
 122:lvgl/src/widgets/lv_canvas.c **** 
 123:lvgl/src/widgets/lv_canvas.c ****     return lv_img_buf_get_px_color(&canvas->dsc, x, y, color);
 124:lvgl/src/widgets/lv_canvas.c **** }
 125:lvgl/src/widgets/lv_canvas.c **** 
 126:lvgl/src/widgets/lv_canvas.c **** lv_img_dsc_t * lv_canvas_get_img(lv_obj_t * obj)
 127:lvgl/src/widgets/lv_canvas.c **** {
 128:lvgl/src/widgets/lv_canvas.c ****     LV_ASSERT_OBJ(obj, MY_CLASS);
 129:lvgl/src/widgets/lv_canvas.c **** 
 130:lvgl/src/widgets/lv_canvas.c ****     lv_canvas_t * canvas = (lv_canvas_t *)obj;
 131:lvgl/src/widgets/lv_canvas.c ****     return &canvas->dsc;
 132:lvgl/src/widgets/lv_canvas.c **** }
 133:lvgl/src/widgets/lv_canvas.c **** 
 134:lvgl/src/widgets/lv_canvas.c **** /*=====================
 135:lvgl/src/widgets/lv_canvas.c ****  * Other functions
 136:lvgl/src/widgets/lv_canvas.c ****  *====================*/
 137:lvgl/src/widgets/lv_canvas.c **** 
 138:lvgl/src/widgets/lv_canvas.c **** void lv_canvas_copy_buf(lv_obj_t * obj, const void * to_copy, lv_coord_t x, lv_coord_t y, lv_coord_
 139:lvgl/src/widgets/lv_canvas.c **** {
 140:lvgl/src/widgets/lv_canvas.c ****     LV_ASSERT_OBJ(obj, MY_CLASS);
 141:lvgl/src/widgets/lv_canvas.c ****     LV_ASSERT_NULL(to_copy);
 142:lvgl/src/widgets/lv_canvas.c **** 
 143:lvgl/src/widgets/lv_canvas.c ****     lv_canvas_t * canvas = (lv_canvas_t *)obj;
 144:lvgl/src/widgets/lv_canvas.c **** 
 145:lvgl/src/widgets/lv_canvas.c ****     if(x + w - 1 >= (lv_coord_t)canvas->dsc.header.w || y + h - 1 >= (lv_coord_t)canvas->dsc.header
ARM GAS  C:\Users\OSD\AppData\Local\Temp\ccwADrda.s 			page 4


 146:lvgl/src/widgets/lv_canvas.c ****         LV_LOG_WARN("lv_canvas_copy_buf: x or y out of the canvas");
 147:lvgl/src/widgets/lv_canvas.c ****         return;
 148:lvgl/src/widgets/lv_canvas.c ****     }
 149:lvgl/src/widgets/lv_canvas.c **** 
 150:lvgl/src/widgets/lv_canvas.c ****     uint32_t px_size   = lv_img_cf_get_px_size(canvas->dsc.header.cf) >> 3;
 151:lvgl/src/widgets/lv_canvas.c ****     uint32_t px        = canvas->dsc.header.w * y * px_size + x * px_size;
 152:lvgl/src/widgets/lv_canvas.c ****     uint8_t * to_copy8 = (uint8_t *)to_copy;
 153:lvgl/src/widgets/lv_canvas.c ****     lv_coord_t i;
 154:lvgl/src/widgets/lv_canvas.c ****     for(i = 0; i < h; i++) {
 155:lvgl/src/widgets/lv_canvas.c ****         lv_memcpy((void *)&canvas->dsc.data[px], to_copy8, w * px_size);
 156:lvgl/src/widgets/lv_canvas.c ****         px += canvas->dsc.header.w * px_size;
 157:lvgl/src/widgets/lv_canvas.c ****         to_copy8 += w * px_size;
 158:lvgl/src/widgets/lv_canvas.c ****     }
 159:lvgl/src/widgets/lv_canvas.c **** }
 160:lvgl/src/widgets/lv_canvas.c **** 
 161:lvgl/src/widgets/lv_canvas.c **** void lv_canvas_transform(lv_obj_t * obj, lv_img_dsc_t * src_img, int16_t angle, uint16_t zoom, lv_c
 162:lvgl/src/widgets/lv_canvas.c ****                          lv_coord_t offset_y,
 163:lvgl/src/widgets/lv_canvas.c ****                          int32_t pivot_x, int32_t pivot_y, bool antialias)
 164:lvgl/src/widgets/lv_canvas.c **** {
 165:lvgl/src/widgets/lv_canvas.c **** #if LV_DRAW_COMPLEX
 166:lvgl/src/widgets/lv_canvas.c ****     LV_ASSERT_OBJ(obj, MY_CLASS);
 167:lvgl/src/widgets/lv_canvas.c ****     LV_ASSERT_NULL(src_img);
 168:lvgl/src/widgets/lv_canvas.c **** 
 169:lvgl/src/widgets/lv_canvas.c ****     lv_canvas_t * canvas = (lv_canvas_t *)obj;
 170:lvgl/src/widgets/lv_canvas.c ****     lv_img_dsc_t * dest_img = &canvas->dsc;
 171:lvgl/src/widgets/lv_canvas.c **** 
 172:lvgl/src/widgets/lv_canvas.c ****     int32_t x;
 173:lvgl/src/widgets/lv_canvas.c ****     int32_t y;
 174:lvgl/src/widgets/lv_canvas.c **** 
 175:lvgl/src/widgets/lv_canvas.c ****     lv_draw_img_dsc_t draw_dsc;
 176:lvgl/src/widgets/lv_canvas.c ****     lv_draw_img_dsc_init(&draw_dsc);
 177:lvgl/src/widgets/lv_canvas.c ****     draw_dsc.angle = angle;
 178:lvgl/src/widgets/lv_canvas.c ****     draw_dsc.zoom = zoom;
 179:lvgl/src/widgets/lv_canvas.c ****     draw_dsc.pivot.x = pivot_x;
 180:lvgl/src/widgets/lv_canvas.c ****     draw_dsc.pivot.y = pivot_y;
 181:lvgl/src/widgets/lv_canvas.c ****     draw_dsc.antialias = antialias;
 182:lvgl/src/widgets/lv_canvas.c **** 
 183:lvgl/src/widgets/lv_canvas.c ****     lv_area_t dest_area;
 184:lvgl/src/widgets/lv_canvas.c ****     dest_area.x1 = -offset_x;
 185:lvgl/src/widgets/lv_canvas.c ****     dest_area.x2 = dest_area.x1 + dest_img->header.w - 1;
 186:lvgl/src/widgets/lv_canvas.c ****     dest_area.y1 = -offset_y;
 187:lvgl/src/widgets/lv_canvas.c ****     dest_area.y2 = -offset_y;
 188:lvgl/src/widgets/lv_canvas.c **** 
 189:lvgl/src/widgets/lv_canvas.c ****     lv_color_t * cbuf = lv_mem_alloc(dest_img->header.w * sizeof(lv_color_t));
 190:lvgl/src/widgets/lv_canvas.c ****     lv_opa_t * abuf = lv_mem_alloc(dest_img->header.w * sizeof(lv_opa_t));
 191:lvgl/src/widgets/lv_canvas.c ****     for(y = 0; y < dest_img->header.h; y++) {
 192:lvgl/src/widgets/lv_canvas.c ****         lv_draw_sw_transform(NULL, &dest_area, src_img->data, src_img->header.w, src_img->header.h,
 193:lvgl/src/widgets/lv_canvas.c ****                              &draw_dsc, canvas->dsc.header.cf, cbuf, abuf);
 194:lvgl/src/widgets/lv_canvas.c **** 
 195:lvgl/src/widgets/lv_canvas.c ****         for(x = 0; x < dest_img->header.w; x++) {
 196:lvgl/src/widgets/lv_canvas.c ****             if(abuf[x]) {
 197:lvgl/src/widgets/lv_canvas.c ****                 lv_img_buf_set_px_color(dest_img, x, y, cbuf[x]);
 198:lvgl/src/widgets/lv_canvas.c ****                 lv_img_buf_set_px_alpha(dest_img, x, y, abuf[x]);
 199:lvgl/src/widgets/lv_canvas.c ****             }
 200:lvgl/src/widgets/lv_canvas.c ****         }
 201:lvgl/src/widgets/lv_canvas.c **** 
 202:lvgl/src/widgets/lv_canvas.c ****         dest_area.y1++;
ARM GAS  C:\Users\OSD\AppData\Local\Temp\ccwADrda.s 			page 5


 203:lvgl/src/widgets/lv_canvas.c ****         dest_area.y2++;
 204:lvgl/src/widgets/lv_canvas.c ****     }
 205:lvgl/src/widgets/lv_canvas.c ****     lv_mem_free(cbuf);
 206:lvgl/src/widgets/lv_canvas.c ****     lv_mem_free(abuf);
 207:lvgl/src/widgets/lv_canvas.c **** 
 208:lvgl/src/widgets/lv_canvas.c ****     lv_obj_invalidate(obj);
 209:lvgl/src/widgets/lv_canvas.c **** 
 210:lvgl/src/widgets/lv_canvas.c **** #else
 211:lvgl/src/widgets/lv_canvas.c ****     LV_UNUSED(obj);
 212:lvgl/src/widgets/lv_canvas.c ****     LV_UNUSED(src_img);
 213:lvgl/src/widgets/lv_canvas.c ****     LV_UNUSED(angle);
 214:lvgl/src/widgets/lv_canvas.c ****     LV_UNUSED(zoom);
 215:lvgl/src/widgets/lv_canvas.c ****     LV_UNUSED(offset_x);
 216:lvgl/src/widgets/lv_canvas.c ****     LV_UNUSED(offset_y);
 217:lvgl/src/widgets/lv_canvas.c ****     LV_UNUSED(pivot_x);
 218:lvgl/src/widgets/lv_canvas.c ****     LV_UNUSED(pivot_y);
 219:lvgl/src/widgets/lv_canvas.c ****     LV_UNUSED(antialias);
 220:lvgl/src/widgets/lv_canvas.c ****     LV_LOG_WARN("Can't transform canvas with LV_DRAW_COMPLEX == 0");
 221:lvgl/src/widgets/lv_canvas.c **** #endif
 222:lvgl/src/widgets/lv_canvas.c **** }
 223:lvgl/src/widgets/lv_canvas.c **** 
 224:lvgl/src/widgets/lv_canvas.c **** void lv_canvas_blur_hor(lv_obj_t * obj, const lv_area_t * area, uint16_t r)
 225:lvgl/src/widgets/lv_canvas.c **** {
 226:lvgl/src/widgets/lv_canvas.c ****     LV_ASSERT_OBJ(obj, MY_CLASS);
 227:lvgl/src/widgets/lv_canvas.c **** 
 228:lvgl/src/widgets/lv_canvas.c ****     if(r == 0) return;
 229:lvgl/src/widgets/lv_canvas.c **** 
 230:lvgl/src/widgets/lv_canvas.c ****     lv_canvas_t * canvas = (lv_canvas_t *)obj;
 231:lvgl/src/widgets/lv_canvas.c **** 
 232:lvgl/src/widgets/lv_canvas.c ****     lv_area_t a;
 233:lvgl/src/widgets/lv_canvas.c ****     if(area) {
 234:lvgl/src/widgets/lv_canvas.c ****         lv_area_copy(&a, area);
 235:lvgl/src/widgets/lv_canvas.c ****         if(a.x1 < 0) a.x1 = 0;
 236:lvgl/src/widgets/lv_canvas.c ****         if(a.y1 < 0) a.y1 = 0;
 237:lvgl/src/widgets/lv_canvas.c ****         if(a.x2 > canvas->dsc.header.w - 1) a.x2 = canvas->dsc.header.w - 1;
 238:lvgl/src/widgets/lv_canvas.c ****         if(a.y2 > canvas->dsc.header.h - 1) a.y2 = canvas->dsc.header.h - 1;
 239:lvgl/src/widgets/lv_canvas.c ****     }
 240:lvgl/src/widgets/lv_canvas.c ****     else {
 241:lvgl/src/widgets/lv_canvas.c ****         a.x1 = 0;
 242:lvgl/src/widgets/lv_canvas.c ****         a.y1 = 0;
 243:lvgl/src/widgets/lv_canvas.c ****         a.x2 = canvas->dsc.header.w - 1;
 244:lvgl/src/widgets/lv_canvas.c ****         a.y2 = canvas->dsc.header.h - 1;
 245:lvgl/src/widgets/lv_canvas.c ****     }
 246:lvgl/src/widgets/lv_canvas.c **** 
 247:lvgl/src/widgets/lv_canvas.c ****     lv_color_t color = lv_obj_get_style_img_recolor(obj, LV_PART_MAIN);
 248:lvgl/src/widgets/lv_canvas.c **** 
 249:lvgl/src/widgets/lv_canvas.c ****     uint16_t r_back = r / 2;
 250:lvgl/src/widgets/lv_canvas.c ****     uint16_t r_front = r / 2;
 251:lvgl/src/widgets/lv_canvas.c **** 
 252:lvgl/src/widgets/lv_canvas.c ****     if((r & 0x1) == 0) r_back--;
 253:lvgl/src/widgets/lv_canvas.c **** 
 254:lvgl/src/widgets/lv_canvas.c ****     bool has_alpha = lv_img_cf_has_alpha(canvas->dsc.header.cf);
 255:lvgl/src/widgets/lv_canvas.c **** 
 256:lvgl/src/widgets/lv_canvas.c ****     lv_coord_t line_w = lv_img_buf_get_img_size(canvas->dsc.header.w, 1, canvas->dsc.header.cf);
 257:lvgl/src/widgets/lv_canvas.c ****     uint8_t * line_buf = lv_mem_buf_get(line_w);
 258:lvgl/src/widgets/lv_canvas.c **** 
 259:lvgl/src/widgets/lv_canvas.c ****     lv_img_dsc_t line_img;
ARM GAS  C:\Users\OSD\AppData\Local\Temp\ccwADrda.s 			page 6


 260:lvgl/src/widgets/lv_canvas.c ****     line_img.data = line_buf;
 261:lvgl/src/widgets/lv_canvas.c ****     line_img.header.always_zero = 0;
 262:lvgl/src/widgets/lv_canvas.c ****     line_img.header.w = canvas->dsc.header.w;
 263:lvgl/src/widgets/lv_canvas.c ****     line_img.header.h = 1;
 264:lvgl/src/widgets/lv_canvas.c ****     line_img.header.cf = canvas->dsc.header.cf;
 265:lvgl/src/widgets/lv_canvas.c **** 
 266:lvgl/src/widgets/lv_canvas.c ****     lv_coord_t x;
 267:lvgl/src/widgets/lv_canvas.c ****     lv_coord_t y;
 268:lvgl/src/widgets/lv_canvas.c ****     lv_coord_t x_safe;
 269:lvgl/src/widgets/lv_canvas.c **** 
 270:lvgl/src/widgets/lv_canvas.c ****     for(y = a.y1; y <= a.y2; y++) {
 271:lvgl/src/widgets/lv_canvas.c ****         uint32_t asum = 0;
 272:lvgl/src/widgets/lv_canvas.c ****         uint32_t rsum = 0;
 273:lvgl/src/widgets/lv_canvas.c ****         uint32_t gsum = 0;
 274:lvgl/src/widgets/lv_canvas.c ****         uint32_t bsum = 0;
 275:lvgl/src/widgets/lv_canvas.c **** 
 276:lvgl/src/widgets/lv_canvas.c ****         lv_color_t c;
 277:lvgl/src/widgets/lv_canvas.c ****         lv_opa_t opa = LV_OPA_TRANSP;
 278:lvgl/src/widgets/lv_canvas.c ****         lv_memcpy(line_buf, &canvas->dsc.data[y * line_w], line_w);
 279:lvgl/src/widgets/lv_canvas.c **** 
 280:lvgl/src/widgets/lv_canvas.c ****         for(x = a.x1 - r_back; x <= a.x1 + r_front; x++) {
 281:lvgl/src/widgets/lv_canvas.c ****             x_safe = x < 0 ? 0 : x;
 282:lvgl/src/widgets/lv_canvas.c ****             x_safe = x_safe > canvas->dsc.header.w - 1 ? canvas->dsc.header.w - 1 : x_safe;
 283:lvgl/src/widgets/lv_canvas.c **** 
 284:lvgl/src/widgets/lv_canvas.c ****             c = lv_img_buf_get_px_color(&line_img, x_safe, 0, color);
 285:lvgl/src/widgets/lv_canvas.c ****             if(has_alpha) opa = lv_img_buf_get_px_alpha(&line_img, x_safe, 0);
 286:lvgl/src/widgets/lv_canvas.c **** 
 287:lvgl/src/widgets/lv_canvas.c ****             rsum += c.ch.red;
 288:lvgl/src/widgets/lv_canvas.c **** #if LV_COLOR_DEPTH == 16 && LV_COLOR_16_SWAP
 289:lvgl/src/widgets/lv_canvas.c ****             gsum += (c.ch.green_h << 3) + c.ch.green_l;
 290:lvgl/src/widgets/lv_canvas.c **** #else
 291:lvgl/src/widgets/lv_canvas.c ****             gsum += c.ch.green;
 292:lvgl/src/widgets/lv_canvas.c **** #endif
 293:lvgl/src/widgets/lv_canvas.c ****             bsum += c.ch.blue;
 294:lvgl/src/widgets/lv_canvas.c ****             if(has_alpha) asum += opa;
 295:lvgl/src/widgets/lv_canvas.c ****         }
 296:lvgl/src/widgets/lv_canvas.c **** 
 297:lvgl/src/widgets/lv_canvas.c ****         /*Just to indicate that the px is visible*/
 298:lvgl/src/widgets/lv_canvas.c ****         if(has_alpha == false) asum = LV_OPA_COVER;
 299:lvgl/src/widgets/lv_canvas.c **** 
 300:lvgl/src/widgets/lv_canvas.c ****         for(x = a.x1; x <= a.x2; x++) {
 301:lvgl/src/widgets/lv_canvas.c **** 
 302:lvgl/src/widgets/lv_canvas.c ****             if(asum) {
 303:lvgl/src/widgets/lv_canvas.c ****                 c.ch.red = rsum / r;
 304:lvgl/src/widgets/lv_canvas.c **** #if LV_COLOR_DEPTH == 16 && LV_COLOR_16_SWAP
 305:lvgl/src/widgets/lv_canvas.c ****                 uint8_t gtmp = gsum / r;
 306:lvgl/src/widgets/lv_canvas.c ****                 c.ch.green_h = gtmp >> 3;
 307:lvgl/src/widgets/lv_canvas.c ****                 c.ch.green_l = gtmp & 0x7;
 308:lvgl/src/widgets/lv_canvas.c **** #else
 309:lvgl/src/widgets/lv_canvas.c ****                 c.ch.green = gsum / r;
 310:lvgl/src/widgets/lv_canvas.c **** #endif
 311:lvgl/src/widgets/lv_canvas.c ****                 c.ch.blue = bsum / r;
 312:lvgl/src/widgets/lv_canvas.c ****                 if(has_alpha) opa = asum / r;
 313:lvgl/src/widgets/lv_canvas.c **** 
 314:lvgl/src/widgets/lv_canvas.c ****                 lv_img_buf_set_px_color(&canvas->dsc, x, y, c);
 315:lvgl/src/widgets/lv_canvas.c ****             }
 316:lvgl/src/widgets/lv_canvas.c ****             if(has_alpha) lv_img_buf_set_px_alpha(&canvas->dsc, x, y, opa);
ARM GAS  C:\Users\OSD\AppData\Local\Temp\ccwADrda.s 			page 7


 317:lvgl/src/widgets/lv_canvas.c **** 
 318:lvgl/src/widgets/lv_canvas.c ****             x_safe = x - r_back;
 319:lvgl/src/widgets/lv_canvas.c ****             x_safe = x_safe < 0 ? 0 : x_safe;
 320:lvgl/src/widgets/lv_canvas.c ****             c = lv_img_buf_get_px_color(&line_img, x_safe, 0, color);
 321:lvgl/src/widgets/lv_canvas.c ****             if(has_alpha) opa = lv_img_buf_get_px_alpha(&line_img, x_safe, 0);
 322:lvgl/src/widgets/lv_canvas.c **** 
 323:lvgl/src/widgets/lv_canvas.c ****             rsum -= c.ch.red;
 324:lvgl/src/widgets/lv_canvas.c **** #if LV_COLOR_DEPTH == 16 && LV_COLOR_16_SWAP
 325:lvgl/src/widgets/lv_canvas.c ****             gsum -= (c.ch.green_h << 3) + c.ch.green_l;
 326:lvgl/src/widgets/lv_canvas.c **** #else
 327:lvgl/src/widgets/lv_canvas.c ****             gsum -= c.ch.green;
 328:lvgl/src/widgets/lv_canvas.c **** #endif
 329:lvgl/src/widgets/lv_canvas.c ****             bsum -= c.ch.blue;
 330:lvgl/src/widgets/lv_canvas.c ****             if(has_alpha) asum -= opa;
 331:lvgl/src/widgets/lv_canvas.c **** 
 332:lvgl/src/widgets/lv_canvas.c ****             x_safe = x + 1 + r_front;
 333:lvgl/src/widgets/lv_canvas.c ****             x_safe = x_safe > canvas->dsc.header.w - 1 ? canvas->dsc.header.w - 1 : x_safe;
 334:lvgl/src/widgets/lv_canvas.c ****             c = lv_img_buf_get_px_color(&line_img, x_safe, 0, lv_color_white());
 335:lvgl/src/widgets/lv_canvas.c ****             if(has_alpha) opa = lv_img_buf_get_px_alpha(&line_img, x_safe, 0);
 336:lvgl/src/widgets/lv_canvas.c **** 
 337:lvgl/src/widgets/lv_canvas.c ****             rsum += c.ch.red;
 338:lvgl/src/widgets/lv_canvas.c **** #if LV_COLOR_DEPTH == 16 && LV_COLOR_16_SWAP
 339:lvgl/src/widgets/lv_canvas.c ****             gsum += (c.ch.green_h << 3) + c.ch.green_l;
 340:lvgl/src/widgets/lv_canvas.c **** #else
 341:lvgl/src/widgets/lv_canvas.c ****             gsum += c.ch.green;
 342:lvgl/src/widgets/lv_canvas.c **** #endif
 343:lvgl/src/widgets/lv_canvas.c ****             bsum += c.ch.blue;
 344:lvgl/src/widgets/lv_canvas.c ****             if(has_alpha) asum += opa;
 345:lvgl/src/widgets/lv_canvas.c ****         }
 346:lvgl/src/widgets/lv_canvas.c ****     }
 347:lvgl/src/widgets/lv_canvas.c ****     lv_obj_invalidate(obj);
 348:lvgl/src/widgets/lv_canvas.c **** 
 349:lvgl/src/widgets/lv_canvas.c ****     lv_mem_buf_release(line_buf);
 350:lvgl/src/widgets/lv_canvas.c **** }
 351:lvgl/src/widgets/lv_canvas.c **** 
 352:lvgl/src/widgets/lv_canvas.c **** void lv_canvas_blur_ver(lv_obj_t * obj, const lv_area_t * area, uint16_t r)
 353:lvgl/src/widgets/lv_canvas.c **** {
 354:lvgl/src/widgets/lv_canvas.c ****     LV_ASSERT_OBJ(obj, MY_CLASS);
 355:lvgl/src/widgets/lv_canvas.c **** 
 356:lvgl/src/widgets/lv_canvas.c ****     if(r == 0) return;
 357:lvgl/src/widgets/lv_canvas.c **** 
 358:lvgl/src/widgets/lv_canvas.c ****     lv_canvas_t * canvas = (lv_canvas_t *)obj;
 359:lvgl/src/widgets/lv_canvas.c **** 
 360:lvgl/src/widgets/lv_canvas.c ****     lv_area_t a;
 361:lvgl/src/widgets/lv_canvas.c ****     if(area) {
 362:lvgl/src/widgets/lv_canvas.c ****         lv_area_copy(&a, area);
 363:lvgl/src/widgets/lv_canvas.c ****         if(a.x1 < 0) a.x1 = 0;
 364:lvgl/src/widgets/lv_canvas.c ****         if(a.y1 < 0) a.y1 = 0;
 365:lvgl/src/widgets/lv_canvas.c ****         if(a.x2 > canvas->dsc.header.w - 1) a.x2 = canvas->dsc.header.w - 1;
 366:lvgl/src/widgets/lv_canvas.c ****         if(a.y2 > canvas->dsc.header.h - 1) a.y2 = canvas->dsc.header.h - 1;
 367:lvgl/src/widgets/lv_canvas.c ****     }
 368:lvgl/src/widgets/lv_canvas.c ****     else {
 369:lvgl/src/widgets/lv_canvas.c ****         a.x1 = 0;
 370:lvgl/src/widgets/lv_canvas.c ****         a.y1 = 0;
 371:lvgl/src/widgets/lv_canvas.c ****         a.x2 = canvas->dsc.header.w - 1;
 372:lvgl/src/widgets/lv_canvas.c ****         a.y2 = canvas->dsc.header.h - 1;
 373:lvgl/src/widgets/lv_canvas.c ****     }
ARM GAS  C:\Users\OSD\AppData\Local\Temp\ccwADrda.s 			page 8


 374:lvgl/src/widgets/lv_canvas.c **** 
 375:lvgl/src/widgets/lv_canvas.c ****     lv_color_t color = lv_obj_get_style_img_recolor(obj, LV_PART_MAIN);
 376:lvgl/src/widgets/lv_canvas.c **** 
 377:lvgl/src/widgets/lv_canvas.c ****     uint16_t r_back = r / 2;
 378:lvgl/src/widgets/lv_canvas.c ****     uint16_t r_front = r / 2;
 379:lvgl/src/widgets/lv_canvas.c **** 
 380:lvgl/src/widgets/lv_canvas.c ****     if((r & 0x1) == 0) r_back--;
 381:lvgl/src/widgets/lv_canvas.c **** 
 382:lvgl/src/widgets/lv_canvas.c ****     bool has_alpha = lv_img_cf_has_alpha(canvas->dsc.header.cf);
 383:lvgl/src/widgets/lv_canvas.c ****     lv_coord_t col_w = lv_img_buf_get_img_size(1, canvas->dsc.header.h, canvas->dsc.header.cf);
 384:lvgl/src/widgets/lv_canvas.c ****     uint8_t * col_buf = lv_mem_buf_get(col_w);
 385:lvgl/src/widgets/lv_canvas.c ****     lv_img_dsc_t line_img;
 386:lvgl/src/widgets/lv_canvas.c **** 
 387:lvgl/src/widgets/lv_canvas.c ****     line_img.data = col_buf;
 388:lvgl/src/widgets/lv_canvas.c ****     line_img.header.always_zero = 0;
 389:lvgl/src/widgets/lv_canvas.c ****     line_img.header.w = 1;
 390:lvgl/src/widgets/lv_canvas.c ****     line_img.header.h = canvas->dsc.header.h;
 391:lvgl/src/widgets/lv_canvas.c ****     line_img.header.cf = canvas->dsc.header.cf;
 392:lvgl/src/widgets/lv_canvas.c **** 
 393:lvgl/src/widgets/lv_canvas.c ****     lv_coord_t x;
 394:lvgl/src/widgets/lv_canvas.c ****     lv_coord_t y;
 395:lvgl/src/widgets/lv_canvas.c ****     lv_coord_t y_safe;
 396:lvgl/src/widgets/lv_canvas.c **** 
 397:lvgl/src/widgets/lv_canvas.c ****     for(x = a.x1; x <= a.x2; x++) {
 398:lvgl/src/widgets/lv_canvas.c ****         uint32_t asum = 0;
 399:lvgl/src/widgets/lv_canvas.c ****         uint32_t rsum = 0;
 400:lvgl/src/widgets/lv_canvas.c ****         uint32_t gsum = 0;
 401:lvgl/src/widgets/lv_canvas.c ****         uint32_t bsum = 0;
 402:lvgl/src/widgets/lv_canvas.c **** 
 403:lvgl/src/widgets/lv_canvas.c ****         lv_color_t c;
 404:lvgl/src/widgets/lv_canvas.c ****         lv_opa_t opa = LV_OPA_COVER;
 405:lvgl/src/widgets/lv_canvas.c **** 
 406:lvgl/src/widgets/lv_canvas.c ****         for(y = a.y1 - r_back; y <= a.y1 + r_front; y++) {
 407:lvgl/src/widgets/lv_canvas.c ****             y_safe = y < 0 ? 0 : y;
 408:lvgl/src/widgets/lv_canvas.c ****             y_safe = y_safe > canvas->dsc.header.h - 1 ? canvas->dsc.header.h - 1 : y_safe;
 409:lvgl/src/widgets/lv_canvas.c **** 
 410:lvgl/src/widgets/lv_canvas.c ****             c = lv_img_buf_get_px_color(&canvas->dsc, x, y_safe, color);
 411:lvgl/src/widgets/lv_canvas.c ****             if(has_alpha) opa = lv_img_buf_get_px_alpha(&canvas->dsc, x, y_safe);
 412:lvgl/src/widgets/lv_canvas.c **** 
 413:lvgl/src/widgets/lv_canvas.c ****             lv_img_buf_set_px_color(&line_img, 0, y_safe, c);
 414:lvgl/src/widgets/lv_canvas.c ****             if(has_alpha) lv_img_buf_set_px_alpha(&line_img, 0, y_safe, opa);
 415:lvgl/src/widgets/lv_canvas.c **** 
 416:lvgl/src/widgets/lv_canvas.c ****             rsum += c.ch.red;
 417:lvgl/src/widgets/lv_canvas.c **** #if LV_COLOR_DEPTH == 16 && LV_COLOR_16_SWAP
 418:lvgl/src/widgets/lv_canvas.c ****             gsum += (c.ch.green_h << 3) + c.ch.green_l;
 419:lvgl/src/widgets/lv_canvas.c **** #else
 420:lvgl/src/widgets/lv_canvas.c ****             gsum += c.ch.green;
 421:lvgl/src/widgets/lv_canvas.c **** #endif
 422:lvgl/src/widgets/lv_canvas.c ****             bsum += c.ch.blue;
 423:lvgl/src/widgets/lv_canvas.c ****             if(has_alpha) asum += opa;
 424:lvgl/src/widgets/lv_canvas.c ****         }
 425:lvgl/src/widgets/lv_canvas.c **** 
 426:lvgl/src/widgets/lv_canvas.c ****         /*Just to indicate that the px is visible*/
 427:lvgl/src/widgets/lv_canvas.c ****         if(has_alpha == false) asum = LV_OPA_COVER;
 428:lvgl/src/widgets/lv_canvas.c **** 
 429:lvgl/src/widgets/lv_canvas.c ****         for(y = a.y1; y <= a.y2; y++) {
 430:lvgl/src/widgets/lv_canvas.c ****             if(asum) {
ARM GAS  C:\Users\OSD\AppData\Local\Temp\ccwADrda.s 			page 9


 431:lvgl/src/widgets/lv_canvas.c ****                 c.ch.red = rsum / r;
 432:lvgl/src/widgets/lv_canvas.c **** #if LV_COLOR_DEPTH == 16 && LV_COLOR_16_SWAP
 433:lvgl/src/widgets/lv_canvas.c ****                 uint8_t gtmp = gsum / r;
 434:lvgl/src/widgets/lv_canvas.c ****                 c.ch.green_h = gtmp >> 3;
 435:lvgl/src/widgets/lv_canvas.c ****                 c.ch.green_l = gtmp & 0x7;
 436:lvgl/src/widgets/lv_canvas.c **** #else
 437:lvgl/src/widgets/lv_canvas.c ****                 c.ch.green = gsum / r;
 438:lvgl/src/widgets/lv_canvas.c **** #endif
 439:lvgl/src/widgets/lv_canvas.c ****                 c.ch.blue = bsum / r;
 440:lvgl/src/widgets/lv_canvas.c ****                 if(has_alpha) opa = asum / r;
 441:lvgl/src/widgets/lv_canvas.c **** 
 442:lvgl/src/widgets/lv_canvas.c ****                 lv_img_buf_set_px_color(&canvas->dsc, x, y, c);
 443:lvgl/src/widgets/lv_canvas.c ****             }
 444:lvgl/src/widgets/lv_canvas.c ****             if(has_alpha) lv_img_buf_set_px_alpha(&canvas->dsc, x, y, opa);
 445:lvgl/src/widgets/lv_canvas.c **** 
 446:lvgl/src/widgets/lv_canvas.c ****             y_safe = y - r_back;
 447:lvgl/src/widgets/lv_canvas.c ****             y_safe = y_safe < 0 ? 0 : y_safe;
 448:lvgl/src/widgets/lv_canvas.c ****             c = lv_img_buf_get_px_color(&line_img, 0, y_safe, color);
 449:lvgl/src/widgets/lv_canvas.c ****             if(has_alpha) opa = lv_img_buf_get_px_alpha(&line_img, 0, y_safe);
 450:lvgl/src/widgets/lv_canvas.c **** 
 451:lvgl/src/widgets/lv_canvas.c ****             rsum -= c.ch.red;
 452:lvgl/src/widgets/lv_canvas.c **** #if LV_COLOR_DEPTH == 16 && LV_COLOR_16_SWAP
 453:lvgl/src/widgets/lv_canvas.c ****             gsum -= (c.ch.green_h << 3) + c.ch.green_l;
 454:lvgl/src/widgets/lv_canvas.c **** #else
 455:lvgl/src/widgets/lv_canvas.c ****             gsum -= c.ch.green;
 456:lvgl/src/widgets/lv_canvas.c **** #endif
 457:lvgl/src/widgets/lv_canvas.c ****             bsum -= c.ch.blue;
 458:lvgl/src/widgets/lv_canvas.c ****             if(has_alpha) asum -= opa;
 459:lvgl/src/widgets/lv_canvas.c **** 
 460:lvgl/src/widgets/lv_canvas.c ****             y_safe = y + 1 + r_front;
 461:lvgl/src/widgets/lv_canvas.c ****             y_safe = y_safe > canvas->dsc.header.h - 1 ? canvas->dsc.header.h - 1 : y_safe;
 462:lvgl/src/widgets/lv_canvas.c **** 
 463:lvgl/src/widgets/lv_canvas.c ****             c = lv_img_buf_get_px_color(&canvas->dsc, x, y_safe, color);
 464:lvgl/src/widgets/lv_canvas.c ****             if(has_alpha) opa = lv_img_buf_get_px_alpha(&canvas->dsc, x, y_safe);
 465:lvgl/src/widgets/lv_canvas.c **** 
 466:lvgl/src/widgets/lv_canvas.c ****             lv_img_buf_set_px_color(&line_img, 0, y_safe, c);
 467:lvgl/src/widgets/lv_canvas.c ****             if(has_alpha) lv_img_buf_set_px_alpha(&line_img, 0, y_safe, opa);
 468:lvgl/src/widgets/lv_canvas.c **** 
 469:lvgl/src/widgets/lv_canvas.c ****             rsum += c.ch.red;
 470:lvgl/src/widgets/lv_canvas.c **** #if LV_COLOR_DEPTH == 16 && LV_COLOR_16_SWAP
 471:lvgl/src/widgets/lv_canvas.c ****             gsum += (c.ch.green_h << 3) + c.ch.green_l;
 472:lvgl/src/widgets/lv_canvas.c **** #else
 473:lvgl/src/widgets/lv_canvas.c ****             gsum += c.ch.green;
 474:lvgl/src/widgets/lv_canvas.c **** #endif
 475:lvgl/src/widgets/lv_canvas.c ****             bsum += c.ch.blue;
 476:lvgl/src/widgets/lv_canvas.c ****             if(has_alpha) asum += opa;
 477:lvgl/src/widgets/lv_canvas.c ****         }
 478:lvgl/src/widgets/lv_canvas.c ****     }
 479:lvgl/src/widgets/lv_canvas.c **** 
 480:lvgl/src/widgets/lv_canvas.c ****     lv_obj_invalidate(obj);
 481:lvgl/src/widgets/lv_canvas.c **** 
 482:lvgl/src/widgets/lv_canvas.c ****     lv_mem_buf_release(col_buf);
 483:lvgl/src/widgets/lv_canvas.c **** }
 484:lvgl/src/widgets/lv_canvas.c **** 
 485:lvgl/src/widgets/lv_canvas.c **** void lv_canvas_fill_bg(lv_obj_t * canvas, lv_color_t color, lv_opa_t opa)
 486:lvgl/src/widgets/lv_canvas.c **** {
 487:lvgl/src/widgets/lv_canvas.c ****     LV_ASSERT_OBJ(canvas, MY_CLASS);
ARM GAS  C:\Users\OSD\AppData\Local\Temp\ccwADrda.s 			page 10


 488:lvgl/src/widgets/lv_canvas.c **** 
 489:lvgl/src/widgets/lv_canvas.c ****     lv_img_dsc_t * dsc = lv_canvas_get_img(canvas);
 490:lvgl/src/widgets/lv_canvas.c **** 
 491:lvgl/src/widgets/lv_canvas.c ****     if(dsc->header.cf == LV_IMG_CF_INDEXED_1BIT) {
 492:lvgl/src/widgets/lv_canvas.c ****         uint32_t row_byte_cnt = (dsc->header.w + 7) >> 3;
 493:lvgl/src/widgets/lv_canvas.c ****         /*+8 skip the palette*/
 494:lvgl/src/widgets/lv_canvas.c ****         lv_memset((uint8_t *)dsc->data + 8, color.full ? 0xff : 0x00, row_byte_cnt * dsc->header.h)
 495:lvgl/src/widgets/lv_canvas.c ****     }
 496:lvgl/src/widgets/lv_canvas.c ****     else if(dsc->header.cf == LV_IMG_CF_ALPHA_1BIT) {
 497:lvgl/src/widgets/lv_canvas.c ****         uint32_t row_byte_cnt = (dsc->header.w + 7) >> 3;
 498:lvgl/src/widgets/lv_canvas.c ****         lv_memset((uint8_t *)dsc->data, opa > LV_OPA_50 ? 0xff : 0x00, row_byte_cnt * dsc->header.h
 499:lvgl/src/widgets/lv_canvas.c ****     }
 500:lvgl/src/widgets/lv_canvas.c ****     else {
 501:lvgl/src/widgets/lv_canvas.c ****         uint32_t x;
 502:lvgl/src/widgets/lv_canvas.c ****         uint32_t y;
 503:lvgl/src/widgets/lv_canvas.c ****         for(y = 0; y < dsc->header.h; y++) {
 504:lvgl/src/widgets/lv_canvas.c ****             for(x = 0; x < dsc->header.w; x++) {
 505:lvgl/src/widgets/lv_canvas.c ****                 lv_img_buf_set_px_color(dsc, x, y, color);
 506:lvgl/src/widgets/lv_canvas.c ****                 lv_img_buf_set_px_alpha(dsc, x, y, opa);
 507:lvgl/src/widgets/lv_canvas.c ****             }
 508:lvgl/src/widgets/lv_canvas.c ****         }
 509:lvgl/src/widgets/lv_canvas.c ****     }
 510:lvgl/src/widgets/lv_canvas.c **** 
 511:lvgl/src/widgets/lv_canvas.c ****     lv_obj_invalidate(canvas);
 512:lvgl/src/widgets/lv_canvas.c **** }
 513:lvgl/src/widgets/lv_canvas.c **** 
 514:lvgl/src/widgets/lv_canvas.c **** void lv_canvas_draw_rect(lv_obj_t * canvas, lv_coord_t x, lv_coord_t y, lv_coord_t w, lv_coord_t h,
 515:lvgl/src/widgets/lv_canvas.c ****                          const lv_draw_rect_dsc_t * draw_dsc)
 516:lvgl/src/widgets/lv_canvas.c **** {
 517:lvgl/src/widgets/lv_canvas.c ****     LV_ASSERT_OBJ(canvas, MY_CLASS);
 518:lvgl/src/widgets/lv_canvas.c **** 
 519:lvgl/src/widgets/lv_canvas.c ****     lv_img_dsc_t * dsc = lv_canvas_get_img(canvas);
 520:lvgl/src/widgets/lv_canvas.c **** 
 521:lvgl/src/widgets/lv_canvas.c ****     if(dsc->header.cf >= LV_IMG_CF_INDEXED_1BIT && dsc->header.cf <= LV_IMG_CF_INDEXED_8BIT) {
 522:lvgl/src/widgets/lv_canvas.c ****         LV_LOG_WARN("lv_canvas_draw_rect: can't draw to LV_IMG_CF_INDEXED canvas");
 523:lvgl/src/widgets/lv_canvas.c ****         return;
 524:lvgl/src/widgets/lv_canvas.c ****     }
 525:lvgl/src/widgets/lv_canvas.c **** 
 526:lvgl/src/widgets/lv_canvas.c ****     /*Create a dummy display to fool the lv_draw function.
 527:lvgl/src/widgets/lv_canvas.c ****      *It will think it draws to real screen.*/
 528:lvgl/src/widgets/lv_canvas.c ****     lv_disp_t fake_disp;
 529:lvgl/src/widgets/lv_canvas.c ****     lv_disp_drv_t driver;
 530:lvgl/src/widgets/lv_canvas.c ****     lv_area_t clip_area;
 531:lvgl/src/widgets/lv_canvas.c ****     init_fake_disp(canvas, &fake_disp, &driver, &clip_area);
 532:lvgl/src/widgets/lv_canvas.c **** 
 533:lvgl/src/widgets/lv_canvas.c ****     lv_disp_t * refr_ori = _lv_refr_get_disp_refreshing();
 534:lvgl/src/widgets/lv_canvas.c ****     _lv_refr_set_disp_refreshing(&fake_disp);
 535:lvgl/src/widgets/lv_canvas.c **** 
 536:lvgl/src/widgets/lv_canvas.c ****     /*Disable anti-aliasing if drawing with transparent color to chroma keyed canvas*/
 537:lvgl/src/widgets/lv_canvas.c ****     lv_color_t ctransp = LV_COLOR_CHROMA_KEY;
 538:lvgl/src/widgets/lv_canvas.c ****     if(dsc->header.cf == LV_IMG_CF_TRUE_COLOR_CHROMA_KEYED &&
 539:lvgl/src/widgets/lv_canvas.c ****        draw_dsc->bg_color.full == ctransp.full) {
 540:lvgl/src/widgets/lv_canvas.c ****         fake_disp.driver->antialiasing = 0;
 541:lvgl/src/widgets/lv_canvas.c ****     }
 542:lvgl/src/widgets/lv_canvas.c **** 
 543:lvgl/src/widgets/lv_canvas.c ****     lv_area_t coords;
 544:lvgl/src/widgets/lv_canvas.c ****     coords.x1 = x;
ARM GAS  C:\Users\OSD\AppData\Local\Temp\ccwADrda.s 			page 11


 545:lvgl/src/widgets/lv_canvas.c ****     coords.y1 = y;
 546:lvgl/src/widgets/lv_canvas.c ****     coords.x2 = x + w - 1;
 547:lvgl/src/widgets/lv_canvas.c ****     coords.y2 = y + h - 1;
 548:lvgl/src/widgets/lv_canvas.c **** 
 549:lvgl/src/widgets/lv_canvas.c ****     lv_draw_rect(driver.draw_ctx, draw_dsc, &coords);
 550:lvgl/src/widgets/lv_canvas.c **** 
 551:lvgl/src/widgets/lv_canvas.c ****     _lv_refr_set_disp_refreshing(refr_ori);
 552:lvgl/src/widgets/lv_canvas.c **** 
 553:lvgl/src/widgets/lv_canvas.c ****     deinit_fake_disp(canvas, &fake_disp);
 554:lvgl/src/widgets/lv_canvas.c **** 
 555:lvgl/src/widgets/lv_canvas.c ****     lv_obj_invalidate(canvas);
 556:lvgl/src/widgets/lv_canvas.c **** }
 557:lvgl/src/widgets/lv_canvas.c **** 
 558:lvgl/src/widgets/lv_canvas.c **** void lv_canvas_draw_text(lv_obj_t * canvas, lv_coord_t x, lv_coord_t y, lv_coord_t max_w,
 559:lvgl/src/widgets/lv_canvas.c ****                          lv_draw_label_dsc_t * draw_dsc, const char * txt)
 560:lvgl/src/widgets/lv_canvas.c **** {
 561:lvgl/src/widgets/lv_canvas.c ****     LV_ASSERT_OBJ(canvas, MY_CLASS);
 562:lvgl/src/widgets/lv_canvas.c **** 
 563:lvgl/src/widgets/lv_canvas.c ****     lv_img_dsc_t * dsc = lv_canvas_get_img(canvas);
 564:lvgl/src/widgets/lv_canvas.c **** 
 565:lvgl/src/widgets/lv_canvas.c ****     if(dsc->header.cf >= LV_IMG_CF_INDEXED_1BIT && dsc->header.cf <= LV_IMG_CF_INDEXED_8BIT) {
 566:lvgl/src/widgets/lv_canvas.c ****         LV_LOG_WARN("lv_canvas_draw_text: can't draw to LV_IMG_CF_INDEXED canvas");
 567:lvgl/src/widgets/lv_canvas.c ****         return;
 568:lvgl/src/widgets/lv_canvas.c ****     }
 569:lvgl/src/widgets/lv_canvas.c **** 
 570:lvgl/src/widgets/lv_canvas.c ****     /*Create a dummy display to fool the lv_draw function.
 571:lvgl/src/widgets/lv_canvas.c ****      *It will think it draws to real screen.*/
 572:lvgl/src/widgets/lv_canvas.c ****     lv_disp_t fake_disp;
 573:lvgl/src/widgets/lv_canvas.c ****     lv_disp_drv_t driver;
 574:lvgl/src/widgets/lv_canvas.c ****     lv_area_t clip_area;
 575:lvgl/src/widgets/lv_canvas.c ****     init_fake_disp(canvas, &fake_disp, &driver, &clip_area);
 576:lvgl/src/widgets/lv_canvas.c **** 
 577:lvgl/src/widgets/lv_canvas.c ****     lv_disp_t * refr_ori = _lv_refr_get_disp_refreshing();
 578:lvgl/src/widgets/lv_canvas.c ****     _lv_refr_set_disp_refreshing(&fake_disp);
 579:lvgl/src/widgets/lv_canvas.c **** 
 580:lvgl/src/widgets/lv_canvas.c ****     lv_area_t coords;
 581:lvgl/src/widgets/lv_canvas.c ****     coords.x1 = x;
 582:lvgl/src/widgets/lv_canvas.c ****     coords.y1 = y;
 583:lvgl/src/widgets/lv_canvas.c ****     coords.x2 = x + max_w - 1;
 584:lvgl/src/widgets/lv_canvas.c ****     coords.y2 = dsc->header.h - 1;
 585:lvgl/src/widgets/lv_canvas.c ****     lv_draw_label(driver.draw_ctx, draw_dsc, &coords, txt, NULL);
 586:lvgl/src/widgets/lv_canvas.c **** 
 587:lvgl/src/widgets/lv_canvas.c ****     _lv_refr_set_disp_refreshing(refr_ori);
 588:lvgl/src/widgets/lv_canvas.c **** 
 589:lvgl/src/widgets/lv_canvas.c ****     deinit_fake_disp(canvas, &fake_disp);
 590:lvgl/src/widgets/lv_canvas.c **** 
 591:lvgl/src/widgets/lv_canvas.c ****     lv_obj_invalidate(canvas);
 592:lvgl/src/widgets/lv_canvas.c **** }
 593:lvgl/src/widgets/lv_canvas.c **** 
 594:lvgl/src/widgets/lv_canvas.c **** void lv_canvas_draw_img(lv_obj_t * canvas, lv_coord_t x, lv_coord_t y, const void * src,
 595:lvgl/src/widgets/lv_canvas.c ****                         const lv_draw_img_dsc_t * draw_dsc)
 596:lvgl/src/widgets/lv_canvas.c **** {
 597:lvgl/src/widgets/lv_canvas.c ****     LV_ASSERT_OBJ(canvas, MY_CLASS);
 598:lvgl/src/widgets/lv_canvas.c **** 
 599:lvgl/src/widgets/lv_canvas.c ****     lv_img_dsc_t * dsc = lv_canvas_get_img(canvas);
 600:lvgl/src/widgets/lv_canvas.c **** 
 601:lvgl/src/widgets/lv_canvas.c ****     if(dsc->header.cf >= LV_IMG_CF_INDEXED_1BIT && dsc->header.cf <= LV_IMG_CF_INDEXED_8BIT) {
ARM GAS  C:\Users\OSD\AppData\Local\Temp\ccwADrda.s 			page 12


 602:lvgl/src/widgets/lv_canvas.c ****         LV_LOG_WARN("lv_canvas_draw_img: can't draw to LV_IMG_CF_INDEXED canvas");
 603:lvgl/src/widgets/lv_canvas.c ****         return;
 604:lvgl/src/widgets/lv_canvas.c ****     }
 605:lvgl/src/widgets/lv_canvas.c **** 
 606:lvgl/src/widgets/lv_canvas.c ****     lv_img_header_t header;
 607:lvgl/src/widgets/lv_canvas.c ****     lv_res_t res = lv_img_decoder_get_info(src, &header);
 608:lvgl/src/widgets/lv_canvas.c ****     if(res != LV_RES_OK) {
 609:lvgl/src/widgets/lv_canvas.c ****         LV_LOG_WARN("lv_canvas_draw_img: Couldn't get the image data.");
 610:lvgl/src/widgets/lv_canvas.c ****         return;
 611:lvgl/src/widgets/lv_canvas.c ****     }
 612:lvgl/src/widgets/lv_canvas.c ****     /*Create a dummy display to fool the lv_draw function.
 613:lvgl/src/widgets/lv_canvas.c ****      *It will think it draws to real screen.*/
 614:lvgl/src/widgets/lv_canvas.c ****     lv_disp_t fake_disp;
 615:lvgl/src/widgets/lv_canvas.c ****     lv_disp_drv_t driver;
 616:lvgl/src/widgets/lv_canvas.c ****     lv_area_t clip_area;
 617:lvgl/src/widgets/lv_canvas.c ****     init_fake_disp(canvas, &fake_disp, &driver, &clip_area);
 618:lvgl/src/widgets/lv_canvas.c **** 
 619:lvgl/src/widgets/lv_canvas.c ****     lv_disp_t * refr_ori = _lv_refr_get_disp_refreshing();
 620:lvgl/src/widgets/lv_canvas.c ****     _lv_refr_set_disp_refreshing(&fake_disp);
 621:lvgl/src/widgets/lv_canvas.c **** 
 622:lvgl/src/widgets/lv_canvas.c ****     lv_area_t coords;
 623:lvgl/src/widgets/lv_canvas.c ****     coords.x1 = x;
 624:lvgl/src/widgets/lv_canvas.c ****     coords.y1 = y;
 625:lvgl/src/widgets/lv_canvas.c ****     coords.x2 = x + header.w - 1;
 626:lvgl/src/widgets/lv_canvas.c ****     coords.y2 = y + header.h - 1;
 627:lvgl/src/widgets/lv_canvas.c **** 
 628:lvgl/src/widgets/lv_canvas.c ****     lv_draw_img(driver.draw_ctx, draw_dsc, &coords, src);
 629:lvgl/src/widgets/lv_canvas.c **** 
 630:lvgl/src/widgets/lv_canvas.c ****     _lv_refr_set_disp_refreshing(refr_ori);
 631:lvgl/src/widgets/lv_canvas.c **** 
 632:lvgl/src/widgets/lv_canvas.c ****     deinit_fake_disp(canvas, &fake_disp);
 633:lvgl/src/widgets/lv_canvas.c **** 
 634:lvgl/src/widgets/lv_canvas.c ****     lv_obj_invalidate(canvas);
 635:lvgl/src/widgets/lv_canvas.c **** }
 636:lvgl/src/widgets/lv_canvas.c **** 
 637:lvgl/src/widgets/lv_canvas.c **** void lv_canvas_draw_line(lv_obj_t * canvas, const lv_point_t points[], uint32_t point_cnt,
 638:lvgl/src/widgets/lv_canvas.c ****                          const lv_draw_line_dsc_t * draw_dsc)
 639:lvgl/src/widgets/lv_canvas.c **** {
 640:lvgl/src/widgets/lv_canvas.c ****     LV_ASSERT_OBJ(canvas, MY_CLASS);
 641:lvgl/src/widgets/lv_canvas.c **** 
 642:lvgl/src/widgets/lv_canvas.c ****     lv_img_dsc_t * dsc = lv_canvas_get_img(canvas);
 643:lvgl/src/widgets/lv_canvas.c **** 
 644:lvgl/src/widgets/lv_canvas.c ****     if(dsc->header.cf >= LV_IMG_CF_INDEXED_1BIT && dsc->header.cf <= LV_IMG_CF_INDEXED_8BIT) {
 645:lvgl/src/widgets/lv_canvas.c ****         LV_LOG_WARN("lv_canvas_draw_line: can't draw to LV_IMG_CF_INDEXED canvas");
 646:lvgl/src/widgets/lv_canvas.c ****         return;
 647:lvgl/src/widgets/lv_canvas.c ****     }
 648:lvgl/src/widgets/lv_canvas.c **** 
 649:lvgl/src/widgets/lv_canvas.c ****     /*Create a dummy display to fool the lv_draw function.
 650:lvgl/src/widgets/lv_canvas.c ****      *It will think it draws to real screen.*/
 651:lvgl/src/widgets/lv_canvas.c ****     lv_disp_t fake_disp;
 652:lvgl/src/widgets/lv_canvas.c ****     lv_disp_drv_t driver;
 653:lvgl/src/widgets/lv_canvas.c ****     lv_area_t clip_area;
 654:lvgl/src/widgets/lv_canvas.c ****     init_fake_disp(canvas, &fake_disp, &driver, &clip_area);
 655:lvgl/src/widgets/lv_canvas.c **** 
 656:lvgl/src/widgets/lv_canvas.c ****     lv_disp_t * refr_ori = _lv_refr_get_disp_refreshing();
 657:lvgl/src/widgets/lv_canvas.c ****     _lv_refr_set_disp_refreshing(&fake_disp);
 658:lvgl/src/widgets/lv_canvas.c **** 
ARM GAS  C:\Users\OSD\AppData\Local\Temp\ccwADrda.s 			page 13


 659:lvgl/src/widgets/lv_canvas.c ****     /*Disable anti-aliasing if drawing with transparent color to chroma keyed canvas*/
 660:lvgl/src/widgets/lv_canvas.c ****     lv_color_t ctransp = LV_COLOR_CHROMA_KEY;
 661:lvgl/src/widgets/lv_canvas.c ****     if(dsc->header.cf == LV_IMG_CF_TRUE_COLOR_CHROMA_KEYED &&
 662:lvgl/src/widgets/lv_canvas.c ****        draw_dsc->color.full == ctransp.full) {
 663:lvgl/src/widgets/lv_canvas.c ****         fake_disp.driver->antialiasing = 0;
 664:lvgl/src/widgets/lv_canvas.c ****     }
 665:lvgl/src/widgets/lv_canvas.c **** 
 666:lvgl/src/widgets/lv_canvas.c ****     uint32_t i;
 667:lvgl/src/widgets/lv_canvas.c ****     for(i = 0; i < point_cnt - 1; i++) {
 668:lvgl/src/widgets/lv_canvas.c ****         lv_draw_line(driver.draw_ctx, draw_dsc, &points[i], &points[i + 1]);
 669:lvgl/src/widgets/lv_canvas.c ****     }
 670:lvgl/src/widgets/lv_canvas.c **** 
 671:lvgl/src/widgets/lv_canvas.c ****     _lv_refr_set_disp_refreshing(refr_ori);
 672:lvgl/src/widgets/lv_canvas.c **** 
 673:lvgl/src/widgets/lv_canvas.c ****     deinit_fake_disp(canvas, &fake_disp);
 674:lvgl/src/widgets/lv_canvas.c **** 
 675:lvgl/src/widgets/lv_canvas.c ****     lv_obj_invalidate(canvas);
 676:lvgl/src/widgets/lv_canvas.c **** }
 677:lvgl/src/widgets/lv_canvas.c **** 
 678:lvgl/src/widgets/lv_canvas.c **** void lv_canvas_draw_polygon(lv_obj_t * canvas, const lv_point_t points[], uint32_t point_cnt,
 679:lvgl/src/widgets/lv_canvas.c ****                             const lv_draw_rect_dsc_t * draw_dsc)
 680:lvgl/src/widgets/lv_canvas.c **** {
 681:lvgl/src/widgets/lv_canvas.c ****     LV_ASSERT_OBJ(canvas, MY_CLASS);
 682:lvgl/src/widgets/lv_canvas.c **** 
 683:lvgl/src/widgets/lv_canvas.c ****     lv_img_dsc_t * dsc = lv_canvas_get_img(canvas);
 684:lvgl/src/widgets/lv_canvas.c **** 
 685:lvgl/src/widgets/lv_canvas.c ****     if(dsc->header.cf >= LV_IMG_CF_INDEXED_1BIT && dsc->header.cf <= LV_IMG_CF_INDEXED_8BIT) {
 686:lvgl/src/widgets/lv_canvas.c ****         LV_LOG_WARN("lv_canvas_draw_polygon: can't draw to LV_IMG_CF_INDEXED canvas");
 687:lvgl/src/widgets/lv_canvas.c ****         return;
 688:lvgl/src/widgets/lv_canvas.c ****     }
 689:lvgl/src/widgets/lv_canvas.c **** 
 690:lvgl/src/widgets/lv_canvas.c ****     /*Create a dummy display to fool the lv_draw function.
 691:lvgl/src/widgets/lv_canvas.c ****      *It will think it draws to real screen.*/
 692:lvgl/src/widgets/lv_canvas.c ****     lv_disp_t fake_disp;
 693:lvgl/src/widgets/lv_canvas.c ****     lv_disp_drv_t driver;
 694:lvgl/src/widgets/lv_canvas.c ****     lv_area_t clip_area;
 695:lvgl/src/widgets/lv_canvas.c ****     init_fake_disp(canvas, &fake_disp, &driver, &clip_area);
 696:lvgl/src/widgets/lv_canvas.c **** 
 697:lvgl/src/widgets/lv_canvas.c ****     lv_disp_t * refr_ori = _lv_refr_get_disp_refreshing();
 698:lvgl/src/widgets/lv_canvas.c ****     _lv_refr_set_disp_refreshing(&fake_disp);
 699:lvgl/src/widgets/lv_canvas.c **** 
 700:lvgl/src/widgets/lv_canvas.c ****     /*Disable anti-aliasing if drawing with transparent color to chroma keyed canvas*/
 701:lvgl/src/widgets/lv_canvas.c ****     lv_color_t ctransp = LV_COLOR_CHROMA_KEY;
 702:lvgl/src/widgets/lv_canvas.c ****     if(dsc->header.cf == LV_IMG_CF_TRUE_COLOR_CHROMA_KEYED &&
 703:lvgl/src/widgets/lv_canvas.c ****        draw_dsc->bg_color.full == ctransp.full) {
 704:lvgl/src/widgets/lv_canvas.c ****         fake_disp.driver->antialiasing = 0;
 705:lvgl/src/widgets/lv_canvas.c ****     }
 706:lvgl/src/widgets/lv_canvas.c **** 
 707:lvgl/src/widgets/lv_canvas.c ****     lv_draw_polygon(driver.draw_ctx, draw_dsc, points, point_cnt);
 708:lvgl/src/widgets/lv_canvas.c **** 
 709:lvgl/src/widgets/lv_canvas.c ****     _lv_refr_set_disp_refreshing(refr_ori);
 710:lvgl/src/widgets/lv_canvas.c **** 
 711:lvgl/src/widgets/lv_canvas.c ****     deinit_fake_disp(canvas, &fake_disp);
 712:lvgl/src/widgets/lv_canvas.c **** 
 713:lvgl/src/widgets/lv_canvas.c ****     lv_obj_invalidate(canvas);
 714:lvgl/src/widgets/lv_canvas.c **** }
 715:lvgl/src/widgets/lv_canvas.c **** 
ARM GAS  C:\Users\OSD\AppData\Local\Temp\ccwADrda.s 			page 14


 716:lvgl/src/widgets/lv_canvas.c **** void lv_canvas_draw_arc(lv_obj_t * canvas, lv_coord_t x, lv_coord_t y, lv_coord_t r, int32_t start_
 717:lvgl/src/widgets/lv_canvas.c ****                         int32_t end_angle, const lv_draw_arc_dsc_t * draw_dsc)
 718:lvgl/src/widgets/lv_canvas.c **** {
 719:lvgl/src/widgets/lv_canvas.c **** #if LV_DRAW_COMPLEX
 720:lvgl/src/widgets/lv_canvas.c ****     LV_ASSERT_OBJ(canvas, MY_CLASS);
 721:lvgl/src/widgets/lv_canvas.c **** 
 722:lvgl/src/widgets/lv_canvas.c ****     lv_img_dsc_t * dsc = lv_canvas_get_img(canvas);
 723:lvgl/src/widgets/lv_canvas.c **** 
 724:lvgl/src/widgets/lv_canvas.c ****     if(dsc->header.cf >= LV_IMG_CF_INDEXED_1BIT && dsc->header.cf <= LV_IMG_CF_INDEXED_8BIT) {
 725:lvgl/src/widgets/lv_canvas.c ****         LV_LOG_WARN("lv_canvas_draw_arc: can't draw to LV_IMG_CF_INDEXED canvas");
 726:lvgl/src/widgets/lv_canvas.c ****         return;
 727:lvgl/src/widgets/lv_canvas.c ****     }
 728:lvgl/src/widgets/lv_canvas.c **** 
 729:lvgl/src/widgets/lv_canvas.c ****     /*Create a dummy display to fool the lv_draw function.
 730:lvgl/src/widgets/lv_canvas.c ****      *It will think it draws to real screen.*/
 731:lvgl/src/widgets/lv_canvas.c ****     lv_disp_t fake_disp;
 732:lvgl/src/widgets/lv_canvas.c ****     lv_disp_drv_t driver;
 733:lvgl/src/widgets/lv_canvas.c ****     lv_area_t clip_area;
 734:lvgl/src/widgets/lv_canvas.c ****     init_fake_disp(canvas, &fake_disp, &driver, &clip_area);
 735:lvgl/src/widgets/lv_canvas.c **** 
 736:lvgl/src/widgets/lv_canvas.c ****     lv_disp_t * refr_ori = _lv_refr_get_disp_refreshing();
 737:lvgl/src/widgets/lv_canvas.c ****     _lv_refr_set_disp_refreshing(&fake_disp);
 738:lvgl/src/widgets/lv_canvas.c **** 
 739:lvgl/src/widgets/lv_canvas.c ****     lv_point_t p = {x, y};
 740:lvgl/src/widgets/lv_canvas.c ****     lv_draw_arc(driver.draw_ctx, draw_dsc, &p, r,  start_angle, end_angle);
 741:lvgl/src/widgets/lv_canvas.c **** 
 742:lvgl/src/widgets/lv_canvas.c ****     _lv_refr_set_disp_refreshing(refr_ori);
 743:lvgl/src/widgets/lv_canvas.c **** 
 744:lvgl/src/widgets/lv_canvas.c ****     deinit_fake_disp(canvas, &fake_disp);
 745:lvgl/src/widgets/lv_canvas.c **** 
 746:lvgl/src/widgets/lv_canvas.c ****     lv_obj_invalidate(canvas);
 747:lvgl/src/widgets/lv_canvas.c **** #else
 748:lvgl/src/widgets/lv_canvas.c ****     LV_UNUSED(canvas);
 749:lvgl/src/widgets/lv_canvas.c ****     LV_UNUSED(x);
 750:lvgl/src/widgets/lv_canvas.c ****     LV_UNUSED(y);
 751:lvgl/src/widgets/lv_canvas.c ****     LV_UNUSED(r);
 752:lvgl/src/widgets/lv_canvas.c ****     LV_UNUSED(start_angle);
 753:lvgl/src/widgets/lv_canvas.c ****     LV_UNUSED(end_angle);
 754:lvgl/src/widgets/lv_canvas.c ****     LV_UNUSED(draw_dsc);
 755:lvgl/src/widgets/lv_canvas.c ****     LV_LOG_WARN("Can't draw arc with LV_DRAW_COMPLEX == 0");
 756:lvgl/src/widgets/lv_canvas.c **** #endif
 757:lvgl/src/widgets/lv_canvas.c **** }
 758:lvgl/src/widgets/lv_canvas.c **** 
 759:lvgl/src/widgets/lv_canvas.c **** /**********************
 760:lvgl/src/widgets/lv_canvas.c ****  *   STATIC FUNCTIONS
 761:lvgl/src/widgets/lv_canvas.c ****  **********************/
 762:lvgl/src/widgets/lv_canvas.c **** 
 763:lvgl/src/widgets/lv_canvas.c **** static void lv_canvas_constructor(const lv_obj_class_t * class_p, lv_obj_t * obj)
 764:lvgl/src/widgets/lv_canvas.c **** {
 765:lvgl/src/widgets/lv_canvas.c ****     LV_UNUSED(class_p);
 766:lvgl/src/widgets/lv_canvas.c ****     LV_TRACE_OBJ_CREATE("begin");
 767:lvgl/src/widgets/lv_canvas.c **** 
 768:lvgl/src/widgets/lv_canvas.c ****     lv_canvas_t * canvas = (lv_canvas_t *)obj;
 769:lvgl/src/widgets/lv_canvas.c **** 
 770:lvgl/src/widgets/lv_canvas.c ****     canvas->dsc.header.always_zero = 0;
 771:lvgl/src/widgets/lv_canvas.c ****     canvas->dsc.header.cf          = LV_IMG_CF_TRUE_COLOR;
 772:lvgl/src/widgets/lv_canvas.c ****     canvas->dsc.header.h           = 0;
ARM GAS  C:\Users\OSD\AppData\Local\Temp\ccwADrda.s 			page 15


 773:lvgl/src/widgets/lv_canvas.c ****     canvas->dsc.header.w           = 0;
 774:lvgl/src/widgets/lv_canvas.c ****     canvas->dsc.data_size          = 0;
 775:lvgl/src/widgets/lv_canvas.c ****     canvas->dsc.data               = NULL;
 776:lvgl/src/widgets/lv_canvas.c **** 
 777:lvgl/src/widgets/lv_canvas.c ****     lv_img_set_src(obj, &canvas->dsc);
 778:lvgl/src/widgets/lv_canvas.c **** 
 779:lvgl/src/widgets/lv_canvas.c ****     LV_TRACE_OBJ_CREATE("finished");
 780:lvgl/src/widgets/lv_canvas.c **** }
 781:lvgl/src/widgets/lv_canvas.c **** 
 782:lvgl/src/widgets/lv_canvas.c **** static void lv_canvas_destructor(const lv_obj_class_t * class_p, lv_obj_t * obj)
 783:lvgl/src/widgets/lv_canvas.c **** {
  28              		.loc 1 783 1 view -0
  29              		.cfi_startproc
  30              		@ args = 0, pretend = 0, frame = 0
  31              		@ frame_needed = 0, uses_anonymous_args = 0
  32              		.loc 1 783 1 is_stmt 0 view .LVU1
  33 0000 08B5     		push	{r3, lr}
  34              		.cfi_def_cfa_offset 8
  35              		.cfi_offset 3, -8
  36              		.cfi_offset 14, -4
 784:lvgl/src/widgets/lv_canvas.c ****     LV_UNUSED(class_p);
  37              		.loc 1 784 5 is_stmt 1 view .LVU2
 785:lvgl/src/widgets/lv_canvas.c ****     LV_TRACE_OBJ_CREATE("begin");
  38              		.loc 1 785 33 view .LVU3
 786:lvgl/src/widgets/lv_canvas.c **** 
 787:lvgl/src/widgets/lv_canvas.c ****     lv_canvas_t * canvas = (lv_canvas_t *)obj;
  39              		.loc 1 787 5 view .LVU4
  40              	.LVL1:
 788:lvgl/src/widgets/lv_canvas.c ****     lv_img_cache_invalidate_src(&canvas->dsc);
  41              		.loc 1 788 5 view .LVU5
  42 0002 01F13C00 		add	r0, r1, #60
  43              	.LVL2:
  44              		.loc 1 788 5 is_stmt 0 view .LVU6
  45 0006 FFF7FEFF 		bl	lv_img_cache_invalidate_src
  46              	.LVL3:
 789:lvgl/src/widgets/lv_canvas.c **** }
  47              		.loc 1 789 1 view .LVU7
  48 000a 08BD     		pop	{r3, pc}
  49              		.cfi_endproc
  50              	.LFE181:
  52              		.section	.text.lv_canvas_constructor,"ax",%progbits
  53              		.align	1
  54              		.syntax unified
  55              		.thumb
  56              		.thumb_func
  58              	lv_canvas_constructor:
  59              	.LVL4:
  60              	.LFB180:
 764:lvgl/src/widgets/lv_canvas.c ****     LV_UNUSED(class_p);
  61              		.loc 1 764 1 is_stmt 1 view -0
  62              		.cfi_startproc
  63              		@ args = 0, pretend = 0, frame = 0
  64              		@ frame_needed = 0, uses_anonymous_args = 0
 764:lvgl/src/widgets/lv_canvas.c ****     LV_UNUSED(class_p);
  65              		.loc 1 764 1 is_stmt 0 view .LVU9
  66 0000 08B5     		push	{r3, lr}
  67              		.cfi_def_cfa_offset 8
ARM GAS  C:\Users\OSD\AppData\Local\Temp\ccwADrda.s 			page 16


  68              		.cfi_offset 3, -8
  69              		.cfi_offset 14, -4
  70 0002 0846     		mov	r0, r1
  71              	.LVL5:
 765:lvgl/src/widgets/lv_canvas.c ****     LV_TRACE_OBJ_CREATE("begin");
  72              		.loc 1 765 5 is_stmt 1 view .LVU10
 766:lvgl/src/widgets/lv_canvas.c **** 
  73              		.loc 1 766 33 view .LVU11
 768:lvgl/src/widgets/lv_canvas.c **** 
  74              		.loc 1 768 5 view .LVU12
 770:lvgl/src/widgets/lv_canvas.c ****     canvas->dsc.header.cf          = LV_IMG_CF_TRUE_COLOR;
  75              		.loc 1 770 5 view .LVU13
 770:lvgl/src/widgets/lv_canvas.c ****     canvas->dsc.header.cf          = LV_IMG_CF_TRUE_COLOR;
  76              		.loc 1 770 36 is_stmt 0 view .LVU14
  77 0004 91F83C30 		ldrb	r3, [r1, #60]	@ zero_extendqisi2
  78 0008 6FF34713 		bfc	r3, #5, #3
  79 000c 81F83C30 		strb	r3, [r1, #60]
 771:lvgl/src/widgets/lv_canvas.c ****     canvas->dsc.header.h           = 0;
  80              		.loc 1 771 5 is_stmt 1 view .LVU15
 771:lvgl/src/widgets/lv_canvas.c ****     canvas->dsc.header.h           = 0;
  81              		.loc 1 771 36 is_stmt 0 view .LVU16
  82 0010 DBB2     		uxtb	r3, r3
  83 0012 0422     		movs	r2, #4
  84 0014 62F30403 		bfi	r3, r2, #0, #5
  85 0018 81F83C30 		strb	r3, [r1, #60]
 772:lvgl/src/widgets/lv_canvas.c ****     canvas->dsc.header.w           = 0;
  86              		.loc 1 772 5 is_stmt 1 view .LVU17
 772:lvgl/src/widgets/lv_canvas.c ****     canvas->dsc.header.w           = 0;
  87              		.loc 1 772 36 is_stmt 0 view .LVU18
  88 001c CB8F     		ldrh	r3, [r1, #62]
  89 001e 6FF34F13 		bfc	r3, #5, #11
  90 0022 CB87     		strh	r3, [r1, #62]	@ movhi
 773:lvgl/src/widgets/lv_canvas.c ****     canvas->dsc.data_size          = 0;
  91              		.loc 1 773 5 is_stmt 1 view .LVU19
 773:lvgl/src/widgets/lv_canvas.c ****     canvas->dsc.data_size          = 0;
  92              		.loc 1 773 36 is_stmt 0 view .LVU20
  93 0024 CB6B     		ldr	r3, [r1, #60]
  94 0026 6FF39423 		bfc	r3, #10, #11
  95 002a CB63     		str	r3, [r1, #60]
 774:lvgl/src/widgets/lv_canvas.c ****     canvas->dsc.data               = NULL;
  96              		.loc 1 774 5 is_stmt 1 view .LVU21
 774:lvgl/src/widgets/lv_canvas.c ****     canvas->dsc.data               = NULL;
  97              		.loc 1 774 36 is_stmt 0 view .LVU22
  98 002c 0023     		movs	r3, #0
  99 002e 0B64     		str	r3, [r1, #64]
 775:lvgl/src/widgets/lv_canvas.c **** 
 100              		.loc 1 775 5 is_stmt 1 view .LVU23
 775:lvgl/src/widgets/lv_canvas.c **** 
 101              		.loc 1 775 36 is_stmt 0 view .LVU24
 102 0030 4B64     		str	r3, [r1, #68]
 777:lvgl/src/widgets/lv_canvas.c **** 
 103              		.loc 1 777 5 is_stmt 1 view .LVU25
 104 0032 3C31     		adds	r1, r1, #60
 105              	.LVL6:
 777:lvgl/src/widgets/lv_canvas.c **** 
 106              		.loc 1 777 5 is_stmt 0 view .LVU26
 107 0034 FFF7FEFF 		bl	lv_img_set_src
ARM GAS  C:\Users\OSD\AppData\Local\Temp\ccwADrda.s 			page 17


 108              	.LVL7:
 779:lvgl/src/widgets/lv_canvas.c **** }
 109              		.loc 1 779 36 is_stmt 1 view .LVU27
 780:lvgl/src/widgets/lv_canvas.c **** 
 110              		.loc 1 780 1 is_stmt 0 view .LVU28
 111 0038 08BD     		pop	{r3, pc}
 112              		.cfi_endproc
 113              	.LFE180:
 115              		.section	.text.deinit_fake_disp,"ax",%progbits
 116              		.align	1
 117              		.syntax unified
 118              		.thumb
 119              		.thumb_func
 121              	deinit_fake_disp:
 122              	.LVL8:
 123              	.LFB183:
 790:lvgl/src/widgets/lv_canvas.c **** 
 791:lvgl/src/widgets/lv_canvas.c **** static void init_fake_disp(lv_obj_t * canvas, lv_disp_t * disp, lv_disp_drv_t * drv, lv_area_t * cl
 792:lvgl/src/widgets/lv_canvas.c **** {
 793:lvgl/src/widgets/lv_canvas.c ****     lv_img_dsc_t * dsc = lv_canvas_get_img(canvas);
 794:lvgl/src/widgets/lv_canvas.c **** 
 795:lvgl/src/widgets/lv_canvas.c ****     clip_area->x1 = 0;
 796:lvgl/src/widgets/lv_canvas.c ****     clip_area->x2 = dsc->header.w - 1;
 797:lvgl/src/widgets/lv_canvas.c ****     clip_area->y1 = 0;
 798:lvgl/src/widgets/lv_canvas.c ****     clip_area->y2 = dsc->header.h - 1;
 799:lvgl/src/widgets/lv_canvas.c **** 
 800:lvgl/src/widgets/lv_canvas.c ****     /*Allocate the fake driver on the stack as the entire display doesn't outlive this function*/
 801:lvgl/src/widgets/lv_canvas.c ****     lv_memset_00(disp, sizeof(lv_disp_t));
 802:lvgl/src/widgets/lv_canvas.c ****     disp->driver = drv;
 803:lvgl/src/widgets/lv_canvas.c **** 
 804:lvgl/src/widgets/lv_canvas.c ****     lv_disp_drv_init(disp->driver);
 805:lvgl/src/widgets/lv_canvas.c ****     disp->driver->hor_res = dsc->header.w;
 806:lvgl/src/widgets/lv_canvas.c ****     disp->driver->ver_res = dsc->header.h;
 807:lvgl/src/widgets/lv_canvas.c **** 
 808:lvgl/src/widgets/lv_canvas.c ****     lv_draw_ctx_t * draw_ctx = lv_mem_alloc(sizeof(lv_draw_sw_ctx_t));
 809:lvgl/src/widgets/lv_canvas.c ****     LV_ASSERT_MALLOC(draw_ctx);
 810:lvgl/src/widgets/lv_canvas.c ****     if(draw_ctx == NULL)  return;
 811:lvgl/src/widgets/lv_canvas.c ****     lv_draw_sw_init_ctx(drv, draw_ctx);
 812:lvgl/src/widgets/lv_canvas.c ****     disp->driver->draw_ctx = draw_ctx;
 813:lvgl/src/widgets/lv_canvas.c ****     draw_ctx->clip_area = clip_area;
 814:lvgl/src/widgets/lv_canvas.c ****     draw_ctx->buf_area = clip_area;
 815:lvgl/src/widgets/lv_canvas.c ****     draw_ctx->buf = (void *)dsc->data;
 816:lvgl/src/widgets/lv_canvas.c **** 
 817:lvgl/src/widgets/lv_canvas.c ****     lv_disp_drv_use_generic_set_px_cb(disp->driver, dsc->header.cf);
 818:lvgl/src/widgets/lv_canvas.c ****     if(LV_COLOR_SCREEN_TRANSP && dsc->header.cf != LV_IMG_CF_TRUE_COLOR_ALPHA) {
 819:lvgl/src/widgets/lv_canvas.c ****         drv->screen_transp = 0;
 820:lvgl/src/widgets/lv_canvas.c ****     }
 821:lvgl/src/widgets/lv_canvas.c **** }
 822:lvgl/src/widgets/lv_canvas.c **** 
 823:lvgl/src/widgets/lv_canvas.c **** static void deinit_fake_disp(lv_obj_t * canvas, lv_disp_t * disp)
 824:lvgl/src/widgets/lv_canvas.c **** {
 124              		.loc 1 824 1 is_stmt 1 view -0
 125              		.cfi_startproc
 126              		@ args = 0, pretend = 0, frame = 0
 127              		@ frame_needed = 0, uses_anonymous_args = 0
 128              		.loc 1 824 1 is_stmt 0 view .LVU30
 129 0000 10B5     		push	{r4, lr}
ARM GAS  C:\Users\OSD\AppData\Local\Temp\ccwADrda.s 			page 18


 130              		.cfi_def_cfa_offset 8
 131              		.cfi_offset 4, -8
 132              		.cfi_offset 14, -4
 133 0002 0C46     		mov	r4, r1
 825:lvgl/src/widgets/lv_canvas.c ****     LV_UNUSED(canvas);
 134              		.loc 1 825 5 is_stmt 1 view .LVU31
 826:lvgl/src/widgets/lv_canvas.c ****     lv_draw_sw_deinit_ctx(disp->driver, disp->driver->draw_ctx);
 135              		.loc 1 826 5 view .LVU32
 136 0004 0868     		ldr	r0, [r1]
 137              	.LVL9:
 138              		.loc 1 826 5 is_stmt 0 view .LVU33
 139 0006 C16B     		ldr	r1, [r0, #60]
 140              	.LVL10:
 141              		.loc 1 826 5 view .LVU34
 142 0008 FFF7FEFF 		bl	lv_draw_sw_deinit_ctx
 143              	.LVL11:
 827:lvgl/src/widgets/lv_canvas.c ****     lv_mem_free(disp->driver->draw_ctx);
 144              		.loc 1 827 5 is_stmt 1 view .LVU35
 145              		.loc 1 827 21 is_stmt 0 view .LVU36
 146 000c 2368     		ldr	r3, [r4]
 147              		.loc 1 827 5 view .LVU37
 148 000e D86B     		ldr	r0, [r3, #60]
 149 0010 FFF7FEFF 		bl	lv_mem_free
 150              	.LVL12:
 828:lvgl/src/widgets/lv_canvas.c **** }
 151              		.loc 1 828 1 view .LVU38
 152 0014 10BD     		pop	{r4, pc}
 153              		.loc 1 828 1 view .LVU39
 154              		.cfi_endproc
 155              	.LFE183:
 157              		.section	.text.lv_canvas_create,"ax",%progbits
 158              		.align	1
 159              		.global	lv_canvas_create
 160              		.syntax unified
 161              		.thumb
 162              		.thumb_func
 164              	lv_canvas_create:
 165              	.LVL13:
 166              	.LFB162:
  55:lvgl/src/widgets/lv_canvas.c ****     LV_LOG_INFO("begin");
 167              		.loc 1 55 1 is_stmt 1 view -0
 168              		.cfi_startproc
 169              		@ args = 0, pretend = 0, frame = 0
 170              		@ frame_needed = 0, uses_anonymous_args = 0
  55:lvgl/src/widgets/lv_canvas.c ****     LV_LOG_INFO("begin");
 171              		.loc 1 55 1 is_stmt 0 view .LVU41
 172 0000 10B5     		push	{r4, lr}
 173              		.cfi_def_cfa_offset 8
 174              		.cfi_offset 4, -8
 175              		.cfi_offset 14, -4
 176 0002 0146     		mov	r1, r0
  56:lvgl/src/widgets/lv_canvas.c ****     lv_obj_t * obj = lv_obj_class_create_obj(MY_CLASS, parent);
 177              		.loc 1 56 5 is_stmt 1 view .LVU42
  56:lvgl/src/widgets/lv_canvas.c ****     lv_obj_t * obj = lv_obj_class_create_obj(MY_CLASS, parent);
 178              		.loc 1 56 5 view .LVU43
  56:lvgl/src/widgets/lv_canvas.c ****     lv_obj_t * obj = lv_obj_class_create_obj(MY_CLASS, parent);
 179              		.loc 1 56 5 view .LVU44
ARM GAS  C:\Users\OSD\AppData\Local\Temp\ccwADrda.s 			page 19


  57:lvgl/src/widgets/lv_canvas.c ****     lv_obj_class_init_obj(obj);
 180              		.loc 1 57 5 view .LVU45
  57:lvgl/src/widgets/lv_canvas.c ****     lv_obj_class_init_obj(obj);
 181              		.loc 1 57 22 is_stmt 0 view .LVU46
 182 0004 0348     		ldr	r0, .L9
 183              	.LVL14:
  57:lvgl/src/widgets/lv_canvas.c ****     lv_obj_class_init_obj(obj);
 184              		.loc 1 57 22 view .LVU47
 185 0006 FFF7FEFF 		bl	lv_obj_class_create_obj
 186              	.LVL15:
  57:lvgl/src/widgets/lv_canvas.c ****     lv_obj_class_init_obj(obj);
 187              		.loc 1 57 22 view .LVU48
 188 000a 0446     		mov	r4, r0
 189              	.LVL16:
  58:lvgl/src/widgets/lv_canvas.c ****     return obj;
 190              		.loc 1 58 5 is_stmt 1 view .LVU49
 191 000c FFF7FEFF 		bl	lv_obj_class_init_obj
 192              	.LVL17:
  59:lvgl/src/widgets/lv_canvas.c **** }
 193              		.loc 1 59 5 view .LVU50
  60:lvgl/src/widgets/lv_canvas.c **** 
 194              		.loc 1 60 1 is_stmt 0 view .LVU51
 195 0010 2046     		mov	r0, r4
 196 0012 10BD     		pop	{r4, pc}
 197              	.LVL18:
 198              	.L10:
  60:lvgl/src/widgets/lv_canvas.c **** 
 199              		.loc 1 60 1 view .LVU52
 200              		.align	2
 201              	.L9:
 202 0014 00000000 		.word	.LANCHOR0
 203              		.cfi_endproc
 204              	.LFE162:
 206              		.section	.text.lv_canvas_set_buffer,"ax",%progbits
 207              		.align	1
 208              		.global	lv_canvas_set_buffer
 209              		.syntax unified
 210              		.thumb
 211              		.thumb_func
 213              	lv_canvas_set_buffer:
 214              	.LVL19:
 215              	.LFB163:
  67:lvgl/src/widgets/lv_canvas.c ****     LV_ASSERT_OBJ(obj, MY_CLASS);
 216              		.loc 1 67 1 is_stmt 1 view -0
 217              		.cfi_startproc
 218              		@ args = 4, pretend = 0, frame = 0
 219              		@ frame_needed = 0, uses_anonymous_args = 0
  68:lvgl/src/widgets/lv_canvas.c ****     LV_ASSERT_NULL(buf);
 220              		.loc 1 68 5 view .LVU54
  68:lvgl/src/widgets/lv_canvas.c ****     LV_ASSERT_NULL(buf);
 221              		.loc 1 68 5 view .LVU55
  68:lvgl/src/widgets/lv_canvas.c ****     LV_ASSERT_NULL(buf);
 222              		.loc 1 68 5 view .LVU56
  69:lvgl/src/widgets/lv_canvas.c **** 
 223              		.loc 1 69 5 view .LVU57
  69:lvgl/src/widgets/lv_canvas.c **** 
 224              		.loc 1 69 5 view .LVU58
ARM GAS  C:\Users\OSD\AppData\Local\Temp\ccwADrda.s 			page 20


 225 0000 D9B1     		cbz	r1, .L13
  67:lvgl/src/widgets/lv_canvas.c ****     LV_ASSERT_OBJ(obj, MY_CLASS);
 226              		.loc 1 67 1 is_stmt 0 discriminator 2 view .LVU59
 227 0002 10B5     		push	{r4, lr}
 228              		.cfi_def_cfa_offset 8
 229              		.cfi_offset 4, -8
 230              		.cfi_offset 14, -4
 231 0004 0C46     		mov	r4, r1
  69:lvgl/src/widgets/lv_canvas.c **** 
 232              		.loc 1 69 5 is_stmt 1 discriminator 2 view .LVU60
  69:lvgl/src/widgets/lv_canvas.c **** 
 233              		.loc 1 69 24 discriminator 2 view .LVU61
  71:lvgl/src/widgets/lv_canvas.c **** 
 234              		.loc 1 71 5 discriminator 2 view .LVU62
 235              	.LVL20:
  73:lvgl/src/widgets/lv_canvas.c ****     canvas->dsc.header.w  = w;
 236              		.loc 1 73 5 discriminator 2 view .LVU63
  73:lvgl/src/widgets/lv_canvas.c ****     canvas->dsc.header.w  = w;
 237              		.loc 1 73 27 is_stmt 0 discriminator 2 view .LVU64
 238 0006 90F83C10 		ldrb	r1, [r0, #60]	@ zero_extendqisi2
 239              	.LVL21:
  73:lvgl/src/widgets/lv_canvas.c ****     canvas->dsc.header.w  = w;
 240              		.loc 1 73 27 discriminator 2 view .LVU65
 241 000a 9DF808C0 		ldrb	ip, [sp, #8]	@ zero_extendqisi2
 242 000e 6CF30401 		bfi	r1, ip, #0, #5
 243 0012 80F83C10 		strb	r1, [r0, #60]
  74:lvgl/src/widgets/lv_canvas.c ****     canvas->dsc.header.h  = h;
 244              		.loc 1 74 5 is_stmt 1 discriminator 2 view .LVU66
  74:lvgl/src/widgets/lv_canvas.c ****     canvas->dsc.header.h  = h;
 245              		.loc 1 74 27 is_stmt 0 discriminator 2 view .LVU67
 246 0016 C16B     		ldr	r1, [r0, #60]
 247 0018 62F39421 		bfi	r1, r2, #10, #11
 248 001c C163     		str	r1, [r0, #60]
 249              	.LVL22:
  75:lvgl/src/widgets/lv_canvas.c ****     canvas->dsc.data      = buf;
 250              		.loc 1 75 5 is_stmt 1 discriminator 2 view .LVU68
  75:lvgl/src/widgets/lv_canvas.c ****     canvas->dsc.data      = buf;
 251              		.loc 1 75 27 is_stmt 0 discriminator 2 view .LVU69
 252 001e C28F     		ldrh	r2, [r0, #62]
 253              	.LVL23:
  75:lvgl/src/widgets/lv_canvas.c ****     canvas->dsc.data      = buf;
 254              		.loc 1 75 27 discriminator 2 view .LVU70
 255 0020 63F34F12 		bfi	r2, r3, #5, #11
 256              	.LVL24:
  75:lvgl/src/widgets/lv_canvas.c ****     canvas->dsc.data      = buf;
 257              		.loc 1 75 27 discriminator 2 view .LVU71
 258 0024 C287     		strh	r2, [r0, #62]	@ movhi
  76:lvgl/src/widgets/lv_canvas.c **** 
 259              		.loc 1 76 5 is_stmt 1 discriminator 2 view .LVU72
  76:lvgl/src/widgets/lv_canvas.c **** 
 260              		.loc 1 76 27 is_stmt 0 discriminator 2 view .LVU73
 261 0026 4464     		str	r4, [r0, #68]
  78:lvgl/src/widgets/lv_canvas.c ****     lv_img_cache_invalidate_src(&canvas->dsc);
 262              		.loc 1 78 5 is_stmt 1 discriminator 2 view .LVU74
  78:lvgl/src/widgets/lv_canvas.c ****     lv_img_cache_invalidate_src(&canvas->dsc);
 263              		.loc 1 78 25 is_stmt 0 discriminator 2 view .LVU75
 264 0028 00F13C04 		add	r4, r0, #60
ARM GAS  C:\Users\OSD\AppData\Local\Temp\ccwADrda.s 			page 21


 265              	.LVL25:
  78:lvgl/src/widgets/lv_canvas.c ****     lv_img_cache_invalidate_src(&canvas->dsc);
 266              		.loc 1 78 5 discriminator 2 view .LVU76
 267 002c 2146     		mov	r1, r4
 268 002e FFF7FEFF 		bl	lv_img_set_src
 269              	.LVL26:
  79:lvgl/src/widgets/lv_canvas.c **** }
 270              		.loc 1 79 5 is_stmt 1 discriminator 2 view .LVU77
 271 0032 2046     		mov	r0, r4
 272 0034 FFF7FEFF 		bl	lv_img_cache_invalidate_src
 273              	.LVL27:
  80:lvgl/src/widgets/lv_canvas.c **** 
 274              		.loc 1 80 1 is_stmt 0 discriminator 2 view .LVU78
 275 0038 10BD     		pop	{r4, pc}
 276              	.LVL28:
 277              	.L13:
 278              		.cfi_def_cfa_offset 0
 279              		.cfi_restore 4
 280              		.cfi_restore 14
  69:lvgl/src/widgets/lv_canvas.c **** 
 281              		.loc 1 69 5 is_stmt 1 discriminator 1 view .LVU79
  69:lvgl/src/widgets/lv_canvas.c **** 
 282              		.loc 1 69 5 discriminator 1 view .LVU80
  69:lvgl/src/widgets/lv_canvas.c **** 
 283              		.loc 1 69 5 discriminator 1 view .LVU81
  69:lvgl/src/widgets/lv_canvas.c **** 
 284              		.loc 1 69 5 discriminator 1 view .LVU82
  69:lvgl/src/widgets/lv_canvas.c **** 
 285              		.loc 1 69 5 discriminator 1 view .LVU83
  69:lvgl/src/widgets/lv_canvas.c **** 
 286              		.loc 1 69 5 discriminator 1 view .LVU84
 287 003a FEE7     		b	.L13
 288              		.cfi_endproc
 289              	.LFE163:
 291              		.section	.text.lv_canvas_set_px_color,"ax",%progbits
 292              		.align	1
 293              		.global	lv_canvas_set_px_color
 294              		.syntax unified
 295              		.thumb
 296              		.thumb_func
 298              	lv_canvas_set_px_color:
 299              	.LVL29:
 300              	.LFB164:
  83:lvgl/src/widgets/lv_canvas.c ****     LV_ASSERT_OBJ(obj, MY_CLASS);
 301              		.loc 1 83 1 view -0
 302              		.cfi_startproc
 303              		@ args = 0, pretend = 0, frame = 0
 304              		@ frame_needed = 0, uses_anonymous_args = 0
  83:lvgl/src/widgets/lv_canvas.c ****     LV_ASSERT_OBJ(obj, MY_CLASS);
 305              		.loc 1 83 1 is_stmt 0 view .LVU86
 306 0000 10B5     		push	{r4, lr}
 307              		.cfi_def_cfa_offset 8
 308              		.cfi_offset 4, -8
 309              		.cfi_offset 14, -4
 310 0002 0446     		mov	r4, r0
  84:lvgl/src/widgets/lv_canvas.c **** 
 311              		.loc 1 84 5 is_stmt 1 view .LVU87
ARM GAS  C:\Users\OSD\AppData\Local\Temp\ccwADrda.s 			page 22


  84:lvgl/src/widgets/lv_canvas.c **** 
 312              		.loc 1 84 5 view .LVU88
  84:lvgl/src/widgets/lv_canvas.c **** 
 313              		.loc 1 84 5 view .LVU89
  86:lvgl/src/widgets/lv_canvas.c **** 
 314              		.loc 1 86 5 view .LVU90
 315              	.LVL30:
  88:lvgl/src/widgets/lv_canvas.c ****     lv_obj_invalidate(obj);
 316              		.loc 1 88 5 view .LVU91
 317 0004 3C30     		adds	r0, r0, #60
 318              	.LVL31:
  88:lvgl/src/widgets/lv_canvas.c ****     lv_obj_invalidate(obj);
 319              		.loc 1 88 5 is_stmt 0 view .LVU92
 320 0006 FFF7FEFF 		bl	lv_img_buf_set_px_color
 321              	.LVL32:
  89:lvgl/src/widgets/lv_canvas.c **** }
 322              		.loc 1 89 5 is_stmt 1 view .LVU93
 323 000a 2046     		mov	r0, r4
 324 000c FFF7FEFF 		bl	lv_obj_invalidate
 325              	.LVL33:
  90:lvgl/src/widgets/lv_canvas.c **** 
 326              		.loc 1 90 1 is_stmt 0 view .LVU94
 327 0010 10BD     		pop	{r4, pc}
  90:lvgl/src/widgets/lv_canvas.c **** 
 328              		.loc 1 90 1 view .LVU95
 329              		.cfi_endproc
 330              	.LFE164:
 332              		.section	.text.lv_canvas_set_px_opa,"ax",%progbits
 333              		.align	1
 334              		.global	lv_canvas_set_px_opa
 335              		.syntax unified
 336              		.thumb
 337              		.thumb_func
 339              	lv_canvas_set_px_opa:
 340              	.LVL34:
 341              	.LFB165:
  93:lvgl/src/widgets/lv_canvas.c ****     LV_ASSERT_OBJ(obj, MY_CLASS);
 342              		.loc 1 93 1 is_stmt 1 view -0
 343              		.cfi_startproc
 344              		@ args = 0, pretend = 0, frame = 0
 345              		@ frame_needed = 0, uses_anonymous_args = 0
  93:lvgl/src/widgets/lv_canvas.c ****     LV_ASSERT_OBJ(obj, MY_CLASS);
 346              		.loc 1 93 1 is_stmt 0 view .LVU97
 347 0000 10B5     		push	{r4, lr}
 348              		.cfi_def_cfa_offset 8
 349              		.cfi_offset 4, -8
 350              		.cfi_offset 14, -4
 351 0002 0446     		mov	r4, r0
  94:lvgl/src/widgets/lv_canvas.c **** 
 352              		.loc 1 94 5 is_stmt 1 view .LVU98
  94:lvgl/src/widgets/lv_canvas.c **** 
 353              		.loc 1 94 5 view .LVU99
  94:lvgl/src/widgets/lv_canvas.c **** 
 354              		.loc 1 94 5 view .LVU100
  96:lvgl/src/widgets/lv_canvas.c **** 
 355              		.loc 1 96 5 view .LVU101
 356              	.LVL35:
ARM GAS  C:\Users\OSD\AppData\Local\Temp\ccwADrda.s 			page 23


  98:lvgl/src/widgets/lv_canvas.c ****     lv_obj_invalidate(obj);
 357              		.loc 1 98 5 view .LVU102
 358 0004 3C30     		adds	r0, r0, #60
 359              	.LVL36:
  98:lvgl/src/widgets/lv_canvas.c ****     lv_obj_invalidate(obj);
 360              		.loc 1 98 5 is_stmt 0 view .LVU103
 361 0006 FFF7FEFF 		bl	lv_img_buf_set_px_alpha
 362              	.LVL37:
  99:lvgl/src/widgets/lv_canvas.c **** }
 363              		.loc 1 99 5 is_stmt 1 view .LVU104
 364 000a 2046     		mov	r0, r4
 365 000c FFF7FEFF 		bl	lv_obj_invalidate
 366              	.LVL38:
 100:lvgl/src/widgets/lv_canvas.c **** 
 367              		.loc 1 100 1 is_stmt 0 view .LVU105
 368 0010 10BD     		pop	{r4, pc}
 100:lvgl/src/widgets/lv_canvas.c **** 
 369              		.loc 1 100 1 view .LVU106
 370              		.cfi_endproc
 371              	.LFE165:
 373              		.section	.text.lv_canvas_set_palette,"ax",%progbits
 374              		.align	1
 375              		.global	lv_canvas_set_palette
 376              		.syntax unified
 377              		.thumb
 378              		.thumb_func
 380              	lv_canvas_set_palette:
 381              	.LVL39:
 382              	.LFB166:
 103:lvgl/src/widgets/lv_canvas.c ****     LV_ASSERT_OBJ(obj, MY_CLASS);
 383              		.loc 1 103 1 is_stmt 1 view -0
 384              		.cfi_startproc
 385              		@ args = 0, pretend = 0, frame = 0
 386              		@ frame_needed = 0, uses_anonymous_args = 0
 103:lvgl/src/widgets/lv_canvas.c ****     LV_ASSERT_OBJ(obj, MY_CLASS);
 387              		.loc 1 103 1 is_stmt 0 view .LVU108
 388 0000 10B5     		push	{r4, lr}
 389              		.cfi_def_cfa_offset 8
 390              		.cfi_offset 4, -8
 391              		.cfi_offset 14, -4
 392 0002 0446     		mov	r4, r0
 104:lvgl/src/widgets/lv_canvas.c **** 
 393              		.loc 1 104 5 is_stmt 1 view .LVU109
 104:lvgl/src/widgets/lv_canvas.c **** 
 394              		.loc 1 104 5 view .LVU110
 104:lvgl/src/widgets/lv_canvas.c **** 
 395              		.loc 1 104 5 view .LVU111
 106:lvgl/src/widgets/lv_canvas.c **** 
 396              		.loc 1 106 5 view .LVU112
 397              	.LVL40:
 108:lvgl/src/widgets/lv_canvas.c ****     lv_obj_invalidate(obj);
 398              		.loc 1 108 5 view .LVU113
 399 0004 3C30     		adds	r0, r0, #60
 400              	.LVL41:
 108:lvgl/src/widgets/lv_canvas.c ****     lv_obj_invalidate(obj);
 401              		.loc 1 108 5 is_stmt 0 view .LVU114
 402 0006 FFF7FEFF 		bl	lv_img_buf_set_palette
ARM GAS  C:\Users\OSD\AppData\Local\Temp\ccwADrda.s 			page 24


 403              	.LVL42:
 109:lvgl/src/widgets/lv_canvas.c **** }
 404              		.loc 1 109 5 is_stmt 1 view .LVU115
 405 000a 2046     		mov	r0, r4
 406 000c FFF7FEFF 		bl	lv_obj_invalidate
 407              	.LVL43:
 110:lvgl/src/widgets/lv_canvas.c **** 
 408              		.loc 1 110 1 is_stmt 0 view .LVU116
 409 0010 10BD     		pop	{r4, pc}
 110:lvgl/src/widgets/lv_canvas.c **** 
 410              		.loc 1 110 1 view .LVU117
 411              		.cfi_endproc
 412              	.LFE166:
 414              		.section	.text.lv_canvas_get_px,"ax",%progbits
 415              		.align	1
 416              		.global	lv_canvas_get_px
 417              		.syntax unified
 418              		.thumb
 419              		.thumb_func
 421              	lv_canvas_get_px:
 422              	.LVL44:
 423              	.LFB167:
 117:lvgl/src/widgets/lv_canvas.c ****     LV_ASSERT_OBJ(obj, MY_CLASS);
 424              		.loc 1 117 1 is_stmt 1 view -0
 425              		.cfi_startproc
 426              		@ args = 0, pretend = 0, frame = 0
 427              		@ frame_needed = 0, uses_anonymous_args = 0
 117:lvgl/src/widgets/lv_canvas.c ****     LV_ASSERT_OBJ(obj, MY_CLASS);
 428              		.loc 1 117 1 is_stmt 0 view .LVU119
 429 0000 70B5     		push	{r4, r5, r6, lr}
 430              		.cfi_def_cfa_offset 16
 431              		.cfi_offset 4, -16
 432              		.cfi_offset 5, -12
 433              		.cfi_offset 6, -8
 434              		.cfi_offset 14, -4
 435 0002 0446     		mov	r4, r0
 436 0004 0D46     		mov	r5, r1
 437 0006 1646     		mov	r6, r2
 118:lvgl/src/widgets/lv_canvas.c **** 
 438              		.loc 1 118 5 is_stmt 1 view .LVU120
 118:lvgl/src/widgets/lv_canvas.c **** 
 439              		.loc 1 118 5 view .LVU121
 118:lvgl/src/widgets/lv_canvas.c **** 
 440              		.loc 1 118 5 view .LVU122
 120:lvgl/src/widgets/lv_canvas.c ****     lv_color_t color = lv_obj_get_style_img_recolor(obj, LV_PART_MAIN);
 441              		.loc 1 120 5 view .LVU123
 442              	.LVL45:
 121:lvgl/src/widgets/lv_canvas.c **** 
 443              		.loc 1 121 5 view .LVU124
 444              	.LBB26:
 445              	.LBI26:
 446              		.file 2 "lvgl/src/widgets/../core/lv_obj_style_gen.h"
   1:lvgl/src/widgets/../core/lv_obj_style_gen.h **** static inline lv_coord_t lv_obj_get_style_width(const struct _lv_obj_t * obj, uint32_t part)
   2:lvgl/src/widgets/../core/lv_obj_style_gen.h **** {
   3:lvgl/src/widgets/../core/lv_obj_style_gen.h ****     lv_style_value_t v = lv_obj_get_style_prop(obj, part, LV_STYLE_WIDTH);
   4:lvgl/src/widgets/../core/lv_obj_style_gen.h ****     return (lv_coord_t)v.num;
   5:lvgl/src/widgets/../core/lv_obj_style_gen.h **** }
ARM GAS  C:\Users\OSD\AppData\Local\Temp\ccwADrda.s 			page 25


   6:lvgl/src/widgets/../core/lv_obj_style_gen.h **** 
   7:lvgl/src/widgets/../core/lv_obj_style_gen.h **** static inline lv_coord_t lv_obj_get_style_min_width(const struct _lv_obj_t * obj, uint32_t part)
   8:lvgl/src/widgets/../core/lv_obj_style_gen.h **** {
   9:lvgl/src/widgets/../core/lv_obj_style_gen.h ****     lv_style_value_t v = lv_obj_get_style_prop(obj, part, LV_STYLE_MIN_WIDTH);
  10:lvgl/src/widgets/../core/lv_obj_style_gen.h ****     return (lv_coord_t)v.num;
  11:lvgl/src/widgets/../core/lv_obj_style_gen.h **** }
  12:lvgl/src/widgets/../core/lv_obj_style_gen.h **** 
  13:lvgl/src/widgets/../core/lv_obj_style_gen.h **** static inline lv_coord_t lv_obj_get_style_max_width(const struct _lv_obj_t * obj, uint32_t part)
  14:lvgl/src/widgets/../core/lv_obj_style_gen.h **** {
  15:lvgl/src/widgets/../core/lv_obj_style_gen.h ****     lv_style_value_t v = lv_obj_get_style_prop(obj, part, LV_STYLE_MAX_WIDTH);
  16:lvgl/src/widgets/../core/lv_obj_style_gen.h ****     return (lv_coord_t)v.num;
  17:lvgl/src/widgets/../core/lv_obj_style_gen.h **** }
  18:lvgl/src/widgets/../core/lv_obj_style_gen.h **** 
  19:lvgl/src/widgets/../core/lv_obj_style_gen.h **** static inline lv_coord_t lv_obj_get_style_height(const struct _lv_obj_t * obj, uint32_t part)
  20:lvgl/src/widgets/../core/lv_obj_style_gen.h **** {
  21:lvgl/src/widgets/../core/lv_obj_style_gen.h ****     lv_style_value_t v = lv_obj_get_style_prop(obj, part, LV_STYLE_HEIGHT);
  22:lvgl/src/widgets/../core/lv_obj_style_gen.h ****     return (lv_coord_t)v.num;
  23:lvgl/src/widgets/../core/lv_obj_style_gen.h **** }
  24:lvgl/src/widgets/../core/lv_obj_style_gen.h **** 
  25:lvgl/src/widgets/../core/lv_obj_style_gen.h **** static inline lv_coord_t lv_obj_get_style_min_height(const struct _lv_obj_t * obj, uint32_t part)
  26:lvgl/src/widgets/../core/lv_obj_style_gen.h **** {
  27:lvgl/src/widgets/../core/lv_obj_style_gen.h ****     lv_style_value_t v = lv_obj_get_style_prop(obj, part, LV_STYLE_MIN_HEIGHT);
  28:lvgl/src/widgets/../core/lv_obj_style_gen.h ****     return (lv_coord_t)v.num;
  29:lvgl/src/widgets/../core/lv_obj_style_gen.h **** }
  30:lvgl/src/widgets/../core/lv_obj_style_gen.h **** 
  31:lvgl/src/widgets/../core/lv_obj_style_gen.h **** static inline lv_coord_t lv_obj_get_style_max_height(const struct _lv_obj_t * obj, uint32_t part)
  32:lvgl/src/widgets/../core/lv_obj_style_gen.h **** {
  33:lvgl/src/widgets/../core/lv_obj_style_gen.h ****     lv_style_value_t v = lv_obj_get_style_prop(obj, part, LV_STYLE_MAX_HEIGHT);
  34:lvgl/src/widgets/../core/lv_obj_style_gen.h ****     return (lv_coord_t)v.num;
  35:lvgl/src/widgets/../core/lv_obj_style_gen.h **** }
  36:lvgl/src/widgets/../core/lv_obj_style_gen.h **** 
  37:lvgl/src/widgets/../core/lv_obj_style_gen.h **** static inline lv_coord_t lv_obj_get_style_x(const struct _lv_obj_t * obj, uint32_t part)
  38:lvgl/src/widgets/../core/lv_obj_style_gen.h **** {
  39:lvgl/src/widgets/../core/lv_obj_style_gen.h ****     lv_style_value_t v = lv_obj_get_style_prop(obj, part, LV_STYLE_X);
  40:lvgl/src/widgets/../core/lv_obj_style_gen.h ****     return (lv_coord_t)v.num;
  41:lvgl/src/widgets/../core/lv_obj_style_gen.h **** }
  42:lvgl/src/widgets/../core/lv_obj_style_gen.h **** 
  43:lvgl/src/widgets/../core/lv_obj_style_gen.h **** static inline lv_coord_t lv_obj_get_style_y(const struct _lv_obj_t * obj, uint32_t part)
  44:lvgl/src/widgets/../core/lv_obj_style_gen.h **** {
  45:lvgl/src/widgets/../core/lv_obj_style_gen.h ****     lv_style_value_t v = lv_obj_get_style_prop(obj, part, LV_STYLE_Y);
  46:lvgl/src/widgets/../core/lv_obj_style_gen.h ****     return (lv_coord_t)v.num;
  47:lvgl/src/widgets/../core/lv_obj_style_gen.h **** }
  48:lvgl/src/widgets/../core/lv_obj_style_gen.h **** 
  49:lvgl/src/widgets/../core/lv_obj_style_gen.h **** static inline lv_align_t lv_obj_get_style_align(const struct _lv_obj_t * obj, uint32_t part)
  50:lvgl/src/widgets/../core/lv_obj_style_gen.h **** {
  51:lvgl/src/widgets/../core/lv_obj_style_gen.h ****     lv_style_value_t v = lv_obj_get_style_prop(obj, part, LV_STYLE_ALIGN);
  52:lvgl/src/widgets/../core/lv_obj_style_gen.h ****     return (lv_align_t)v.num;
  53:lvgl/src/widgets/../core/lv_obj_style_gen.h **** }
  54:lvgl/src/widgets/../core/lv_obj_style_gen.h **** 
  55:lvgl/src/widgets/../core/lv_obj_style_gen.h **** static inline lv_coord_t lv_obj_get_style_transform_width(const struct _lv_obj_t * obj, uint32_t pa
  56:lvgl/src/widgets/../core/lv_obj_style_gen.h **** {
  57:lvgl/src/widgets/../core/lv_obj_style_gen.h ****     lv_style_value_t v = lv_obj_get_style_prop(obj, part, LV_STYLE_TRANSFORM_WIDTH);
  58:lvgl/src/widgets/../core/lv_obj_style_gen.h ****     return (lv_coord_t)v.num;
  59:lvgl/src/widgets/../core/lv_obj_style_gen.h **** }
  60:lvgl/src/widgets/../core/lv_obj_style_gen.h **** 
  61:lvgl/src/widgets/../core/lv_obj_style_gen.h **** static inline lv_coord_t lv_obj_get_style_transform_height(const struct _lv_obj_t * obj, uint32_t p
  62:lvgl/src/widgets/../core/lv_obj_style_gen.h **** {
ARM GAS  C:\Users\OSD\AppData\Local\Temp\ccwADrda.s 			page 26


  63:lvgl/src/widgets/../core/lv_obj_style_gen.h ****     lv_style_value_t v = lv_obj_get_style_prop(obj, part, LV_STYLE_TRANSFORM_HEIGHT);
  64:lvgl/src/widgets/../core/lv_obj_style_gen.h ****     return (lv_coord_t)v.num;
  65:lvgl/src/widgets/../core/lv_obj_style_gen.h **** }
  66:lvgl/src/widgets/../core/lv_obj_style_gen.h **** 
  67:lvgl/src/widgets/../core/lv_obj_style_gen.h **** static inline lv_coord_t lv_obj_get_style_translate_x(const struct _lv_obj_t * obj, uint32_t part)
  68:lvgl/src/widgets/../core/lv_obj_style_gen.h **** {
  69:lvgl/src/widgets/../core/lv_obj_style_gen.h ****     lv_style_value_t v = lv_obj_get_style_prop(obj, part, LV_STYLE_TRANSLATE_X);
  70:lvgl/src/widgets/../core/lv_obj_style_gen.h ****     return (lv_coord_t)v.num;
  71:lvgl/src/widgets/../core/lv_obj_style_gen.h **** }
  72:lvgl/src/widgets/../core/lv_obj_style_gen.h **** 
  73:lvgl/src/widgets/../core/lv_obj_style_gen.h **** static inline lv_coord_t lv_obj_get_style_translate_y(const struct _lv_obj_t * obj, uint32_t part)
  74:lvgl/src/widgets/../core/lv_obj_style_gen.h **** {
  75:lvgl/src/widgets/../core/lv_obj_style_gen.h ****     lv_style_value_t v = lv_obj_get_style_prop(obj, part, LV_STYLE_TRANSLATE_Y);
  76:lvgl/src/widgets/../core/lv_obj_style_gen.h ****     return (lv_coord_t)v.num;
  77:lvgl/src/widgets/../core/lv_obj_style_gen.h **** }
  78:lvgl/src/widgets/../core/lv_obj_style_gen.h **** 
  79:lvgl/src/widgets/../core/lv_obj_style_gen.h **** static inline lv_coord_t lv_obj_get_style_transform_zoom(const struct _lv_obj_t * obj, uint32_t par
  80:lvgl/src/widgets/../core/lv_obj_style_gen.h **** {
  81:lvgl/src/widgets/../core/lv_obj_style_gen.h ****     lv_style_value_t v = lv_obj_get_style_prop(obj, part, LV_STYLE_TRANSFORM_ZOOM);
  82:lvgl/src/widgets/../core/lv_obj_style_gen.h ****     return (lv_coord_t)v.num;
  83:lvgl/src/widgets/../core/lv_obj_style_gen.h **** }
  84:lvgl/src/widgets/../core/lv_obj_style_gen.h **** 
  85:lvgl/src/widgets/../core/lv_obj_style_gen.h **** static inline lv_coord_t lv_obj_get_style_transform_angle(const struct _lv_obj_t * obj, uint32_t pa
  86:lvgl/src/widgets/../core/lv_obj_style_gen.h **** {
  87:lvgl/src/widgets/../core/lv_obj_style_gen.h ****     lv_style_value_t v = lv_obj_get_style_prop(obj, part, LV_STYLE_TRANSFORM_ANGLE);
  88:lvgl/src/widgets/../core/lv_obj_style_gen.h ****     return (lv_coord_t)v.num;
  89:lvgl/src/widgets/../core/lv_obj_style_gen.h **** }
  90:lvgl/src/widgets/../core/lv_obj_style_gen.h **** 
  91:lvgl/src/widgets/../core/lv_obj_style_gen.h **** static inline lv_coord_t lv_obj_get_style_transform_pivot_x(const struct _lv_obj_t * obj, uint32_t 
  92:lvgl/src/widgets/../core/lv_obj_style_gen.h **** {
  93:lvgl/src/widgets/../core/lv_obj_style_gen.h ****     lv_style_value_t v = lv_obj_get_style_prop(obj, part, LV_STYLE_TRANSFORM_PIVOT_X);
  94:lvgl/src/widgets/../core/lv_obj_style_gen.h ****     return (lv_coord_t)v.num;
  95:lvgl/src/widgets/../core/lv_obj_style_gen.h **** }
  96:lvgl/src/widgets/../core/lv_obj_style_gen.h **** 
  97:lvgl/src/widgets/../core/lv_obj_style_gen.h **** static inline lv_coord_t lv_obj_get_style_transform_pivot_y(const struct _lv_obj_t * obj, uint32_t 
  98:lvgl/src/widgets/../core/lv_obj_style_gen.h **** {
  99:lvgl/src/widgets/../core/lv_obj_style_gen.h ****     lv_style_value_t v = lv_obj_get_style_prop(obj, part, LV_STYLE_TRANSFORM_PIVOT_Y);
 100:lvgl/src/widgets/../core/lv_obj_style_gen.h ****     return (lv_coord_t)v.num;
 101:lvgl/src/widgets/../core/lv_obj_style_gen.h **** }
 102:lvgl/src/widgets/../core/lv_obj_style_gen.h **** 
 103:lvgl/src/widgets/../core/lv_obj_style_gen.h **** static inline lv_coord_t lv_obj_get_style_pad_top(const struct _lv_obj_t * obj, uint32_t part)
 104:lvgl/src/widgets/../core/lv_obj_style_gen.h **** {
 105:lvgl/src/widgets/../core/lv_obj_style_gen.h ****     lv_style_value_t v = lv_obj_get_style_prop(obj, part, LV_STYLE_PAD_TOP);
 106:lvgl/src/widgets/../core/lv_obj_style_gen.h ****     return (lv_coord_t)v.num;
 107:lvgl/src/widgets/../core/lv_obj_style_gen.h **** }
 108:lvgl/src/widgets/../core/lv_obj_style_gen.h **** 
 109:lvgl/src/widgets/../core/lv_obj_style_gen.h **** static inline lv_coord_t lv_obj_get_style_pad_bottom(const struct _lv_obj_t * obj, uint32_t part)
 110:lvgl/src/widgets/../core/lv_obj_style_gen.h **** {
 111:lvgl/src/widgets/../core/lv_obj_style_gen.h ****     lv_style_value_t v = lv_obj_get_style_prop(obj, part, LV_STYLE_PAD_BOTTOM);
 112:lvgl/src/widgets/../core/lv_obj_style_gen.h ****     return (lv_coord_t)v.num;
 113:lvgl/src/widgets/../core/lv_obj_style_gen.h **** }
 114:lvgl/src/widgets/../core/lv_obj_style_gen.h **** 
 115:lvgl/src/widgets/../core/lv_obj_style_gen.h **** static inline lv_coord_t lv_obj_get_style_pad_left(const struct _lv_obj_t * obj, uint32_t part)
 116:lvgl/src/widgets/../core/lv_obj_style_gen.h **** {
 117:lvgl/src/widgets/../core/lv_obj_style_gen.h ****     lv_style_value_t v = lv_obj_get_style_prop(obj, part, LV_STYLE_PAD_LEFT);
 118:lvgl/src/widgets/../core/lv_obj_style_gen.h ****     return (lv_coord_t)v.num;
 119:lvgl/src/widgets/../core/lv_obj_style_gen.h **** }
ARM GAS  C:\Users\OSD\AppData\Local\Temp\ccwADrda.s 			page 27


 120:lvgl/src/widgets/../core/lv_obj_style_gen.h **** 
 121:lvgl/src/widgets/../core/lv_obj_style_gen.h **** static inline lv_coord_t lv_obj_get_style_pad_right(const struct _lv_obj_t * obj, uint32_t part)
 122:lvgl/src/widgets/../core/lv_obj_style_gen.h **** {
 123:lvgl/src/widgets/../core/lv_obj_style_gen.h ****     lv_style_value_t v = lv_obj_get_style_prop(obj, part, LV_STYLE_PAD_RIGHT);
 124:lvgl/src/widgets/../core/lv_obj_style_gen.h ****     return (lv_coord_t)v.num;
 125:lvgl/src/widgets/../core/lv_obj_style_gen.h **** }
 126:lvgl/src/widgets/../core/lv_obj_style_gen.h **** 
 127:lvgl/src/widgets/../core/lv_obj_style_gen.h **** static inline lv_coord_t lv_obj_get_style_pad_row(const struct _lv_obj_t * obj, uint32_t part)
 128:lvgl/src/widgets/../core/lv_obj_style_gen.h **** {
 129:lvgl/src/widgets/../core/lv_obj_style_gen.h ****     lv_style_value_t v = lv_obj_get_style_prop(obj, part, LV_STYLE_PAD_ROW);
 130:lvgl/src/widgets/../core/lv_obj_style_gen.h ****     return (lv_coord_t)v.num;
 131:lvgl/src/widgets/../core/lv_obj_style_gen.h **** }
 132:lvgl/src/widgets/../core/lv_obj_style_gen.h **** 
 133:lvgl/src/widgets/../core/lv_obj_style_gen.h **** static inline lv_coord_t lv_obj_get_style_pad_column(const struct _lv_obj_t * obj, uint32_t part)
 134:lvgl/src/widgets/../core/lv_obj_style_gen.h **** {
 135:lvgl/src/widgets/../core/lv_obj_style_gen.h ****     lv_style_value_t v = lv_obj_get_style_prop(obj, part, LV_STYLE_PAD_COLUMN);
 136:lvgl/src/widgets/../core/lv_obj_style_gen.h ****     return (lv_coord_t)v.num;
 137:lvgl/src/widgets/../core/lv_obj_style_gen.h **** }
 138:lvgl/src/widgets/../core/lv_obj_style_gen.h **** 
 139:lvgl/src/widgets/../core/lv_obj_style_gen.h **** static inline lv_color_t lv_obj_get_style_bg_color(const struct _lv_obj_t * obj, uint32_t part)
 140:lvgl/src/widgets/../core/lv_obj_style_gen.h **** {
 141:lvgl/src/widgets/../core/lv_obj_style_gen.h ****     lv_style_value_t v = lv_obj_get_style_prop(obj, part, LV_STYLE_BG_COLOR);
 142:lvgl/src/widgets/../core/lv_obj_style_gen.h ****     return v.color;
 143:lvgl/src/widgets/../core/lv_obj_style_gen.h **** }
 144:lvgl/src/widgets/../core/lv_obj_style_gen.h **** 
 145:lvgl/src/widgets/../core/lv_obj_style_gen.h **** static inline lv_color_t lv_obj_get_style_bg_color_filtered(const struct _lv_obj_t * obj, uint32_t 
 146:lvgl/src/widgets/../core/lv_obj_style_gen.h **** {
 147:lvgl/src/widgets/../core/lv_obj_style_gen.h ****     lv_style_value_t v = _lv_obj_style_apply_color_filter(obj, part, lv_obj_get_style_prop(obj, par
 148:lvgl/src/widgets/../core/lv_obj_style_gen.h ****     return v.color;
 149:lvgl/src/widgets/../core/lv_obj_style_gen.h **** }
 150:lvgl/src/widgets/../core/lv_obj_style_gen.h **** 
 151:lvgl/src/widgets/../core/lv_obj_style_gen.h **** static inline lv_opa_t lv_obj_get_style_bg_opa(const struct _lv_obj_t * obj, uint32_t part)
 152:lvgl/src/widgets/../core/lv_obj_style_gen.h **** {
 153:lvgl/src/widgets/../core/lv_obj_style_gen.h ****     lv_style_value_t v = lv_obj_get_style_prop(obj, part, LV_STYLE_BG_OPA);
 154:lvgl/src/widgets/../core/lv_obj_style_gen.h ****     return (lv_opa_t)v.num;
 155:lvgl/src/widgets/../core/lv_obj_style_gen.h **** }
 156:lvgl/src/widgets/../core/lv_obj_style_gen.h **** 
 157:lvgl/src/widgets/../core/lv_obj_style_gen.h **** static inline lv_color_t lv_obj_get_style_bg_grad_color(const struct _lv_obj_t * obj, uint32_t part
 158:lvgl/src/widgets/../core/lv_obj_style_gen.h **** {
 159:lvgl/src/widgets/../core/lv_obj_style_gen.h ****     lv_style_value_t v = lv_obj_get_style_prop(obj, part, LV_STYLE_BG_GRAD_COLOR);
 160:lvgl/src/widgets/../core/lv_obj_style_gen.h ****     return v.color;
 161:lvgl/src/widgets/../core/lv_obj_style_gen.h **** }
 162:lvgl/src/widgets/../core/lv_obj_style_gen.h **** 
 163:lvgl/src/widgets/../core/lv_obj_style_gen.h **** static inline lv_color_t lv_obj_get_style_bg_grad_color_filtered(const struct _lv_obj_t * obj, uint
 164:lvgl/src/widgets/../core/lv_obj_style_gen.h **** {
 165:lvgl/src/widgets/../core/lv_obj_style_gen.h ****     lv_style_value_t v = _lv_obj_style_apply_color_filter(obj, part, lv_obj_get_style_prop(obj, par
 166:lvgl/src/widgets/../core/lv_obj_style_gen.h ****     return v.color;
 167:lvgl/src/widgets/../core/lv_obj_style_gen.h **** }
 168:lvgl/src/widgets/../core/lv_obj_style_gen.h **** 
 169:lvgl/src/widgets/../core/lv_obj_style_gen.h **** static inline lv_grad_dir_t lv_obj_get_style_bg_grad_dir(const struct _lv_obj_t * obj, uint32_t par
 170:lvgl/src/widgets/../core/lv_obj_style_gen.h **** {
 171:lvgl/src/widgets/../core/lv_obj_style_gen.h ****     lv_style_value_t v = lv_obj_get_style_prop(obj, part, LV_STYLE_BG_GRAD_DIR);
 172:lvgl/src/widgets/../core/lv_obj_style_gen.h ****     return (lv_grad_dir_t)v.num;
 173:lvgl/src/widgets/../core/lv_obj_style_gen.h **** }
 174:lvgl/src/widgets/../core/lv_obj_style_gen.h **** 
 175:lvgl/src/widgets/../core/lv_obj_style_gen.h **** static inline lv_coord_t lv_obj_get_style_bg_main_stop(const struct _lv_obj_t * obj, uint32_t part)
 176:lvgl/src/widgets/../core/lv_obj_style_gen.h **** {
ARM GAS  C:\Users\OSD\AppData\Local\Temp\ccwADrda.s 			page 28


 177:lvgl/src/widgets/../core/lv_obj_style_gen.h ****     lv_style_value_t v = lv_obj_get_style_prop(obj, part, LV_STYLE_BG_MAIN_STOP);
 178:lvgl/src/widgets/../core/lv_obj_style_gen.h ****     return (lv_coord_t)v.num;
 179:lvgl/src/widgets/../core/lv_obj_style_gen.h **** }
 180:lvgl/src/widgets/../core/lv_obj_style_gen.h **** 
 181:lvgl/src/widgets/../core/lv_obj_style_gen.h **** static inline lv_coord_t lv_obj_get_style_bg_grad_stop(const struct _lv_obj_t * obj, uint32_t part)
 182:lvgl/src/widgets/../core/lv_obj_style_gen.h **** {
 183:lvgl/src/widgets/../core/lv_obj_style_gen.h ****     lv_style_value_t v = lv_obj_get_style_prop(obj, part, LV_STYLE_BG_GRAD_STOP);
 184:lvgl/src/widgets/../core/lv_obj_style_gen.h ****     return (lv_coord_t)v.num;
 185:lvgl/src/widgets/../core/lv_obj_style_gen.h **** }
 186:lvgl/src/widgets/../core/lv_obj_style_gen.h **** 
 187:lvgl/src/widgets/../core/lv_obj_style_gen.h **** static inline const lv_grad_dsc_t * lv_obj_get_style_bg_grad(const struct _lv_obj_t * obj, uint32_t
 188:lvgl/src/widgets/../core/lv_obj_style_gen.h **** {
 189:lvgl/src/widgets/../core/lv_obj_style_gen.h ****     lv_style_value_t v = lv_obj_get_style_prop(obj, part, LV_STYLE_BG_GRAD);
 190:lvgl/src/widgets/../core/lv_obj_style_gen.h ****     return (const lv_grad_dsc_t *)v.ptr;
 191:lvgl/src/widgets/../core/lv_obj_style_gen.h **** }
 192:lvgl/src/widgets/../core/lv_obj_style_gen.h **** 
 193:lvgl/src/widgets/../core/lv_obj_style_gen.h **** static inline lv_dither_mode_t lv_obj_get_style_bg_dither_mode(const struct _lv_obj_t * obj, uint32
 194:lvgl/src/widgets/../core/lv_obj_style_gen.h **** {
 195:lvgl/src/widgets/../core/lv_obj_style_gen.h ****     lv_style_value_t v = lv_obj_get_style_prop(obj, part, LV_STYLE_BG_DITHER_MODE);
 196:lvgl/src/widgets/../core/lv_obj_style_gen.h ****     return (lv_dither_mode_t)v.num;
 197:lvgl/src/widgets/../core/lv_obj_style_gen.h **** }
 198:lvgl/src/widgets/../core/lv_obj_style_gen.h **** 
 199:lvgl/src/widgets/../core/lv_obj_style_gen.h **** static inline const void * lv_obj_get_style_bg_img_src(const struct _lv_obj_t * obj, uint32_t part)
 200:lvgl/src/widgets/../core/lv_obj_style_gen.h **** {
 201:lvgl/src/widgets/../core/lv_obj_style_gen.h ****     lv_style_value_t v = lv_obj_get_style_prop(obj, part, LV_STYLE_BG_IMG_SRC);
 202:lvgl/src/widgets/../core/lv_obj_style_gen.h ****     return (const void *)v.ptr;
 203:lvgl/src/widgets/../core/lv_obj_style_gen.h **** }
 204:lvgl/src/widgets/../core/lv_obj_style_gen.h **** 
 205:lvgl/src/widgets/../core/lv_obj_style_gen.h **** static inline lv_opa_t lv_obj_get_style_bg_img_opa(const struct _lv_obj_t * obj, uint32_t part)
 206:lvgl/src/widgets/../core/lv_obj_style_gen.h **** {
 207:lvgl/src/widgets/../core/lv_obj_style_gen.h ****     lv_style_value_t v = lv_obj_get_style_prop(obj, part, LV_STYLE_BG_IMG_OPA);
 208:lvgl/src/widgets/../core/lv_obj_style_gen.h ****     return (lv_opa_t)v.num;
 209:lvgl/src/widgets/../core/lv_obj_style_gen.h **** }
 210:lvgl/src/widgets/../core/lv_obj_style_gen.h **** 
 211:lvgl/src/widgets/../core/lv_obj_style_gen.h **** static inline lv_color_t lv_obj_get_style_bg_img_recolor(const struct _lv_obj_t * obj, uint32_t par
 212:lvgl/src/widgets/../core/lv_obj_style_gen.h **** {
 213:lvgl/src/widgets/../core/lv_obj_style_gen.h ****     lv_style_value_t v = lv_obj_get_style_prop(obj, part, LV_STYLE_BG_IMG_RECOLOR);
 214:lvgl/src/widgets/../core/lv_obj_style_gen.h ****     return v.color;
 215:lvgl/src/widgets/../core/lv_obj_style_gen.h **** }
 216:lvgl/src/widgets/../core/lv_obj_style_gen.h **** 
 217:lvgl/src/widgets/../core/lv_obj_style_gen.h **** static inline lv_color_t lv_obj_get_style_bg_img_recolor_filtered(const struct _lv_obj_t * obj, uin
 218:lvgl/src/widgets/../core/lv_obj_style_gen.h **** {
 219:lvgl/src/widgets/../core/lv_obj_style_gen.h ****     lv_style_value_t v = _lv_obj_style_apply_color_filter(obj, part, lv_obj_get_style_prop(obj, par
 220:lvgl/src/widgets/../core/lv_obj_style_gen.h ****     return v.color;
 221:lvgl/src/widgets/../core/lv_obj_style_gen.h **** }
 222:lvgl/src/widgets/../core/lv_obj_style_gen.h **** 
 223:lvgl/src/widgets/../core/lv_obj_style_gen.h **** static inline lv_opa_t lv_obj_get_style_bg_img_recolor_opa(const struct _lv_obj_t * obj, uint32_t p
 224:lvgl/src/widgets/../core/lv_obj_style_gen.h **** {
 225:lvgl/src/widgets/../core/lv_obj_style_gen.h ****     lv_style_value_t v = lv_obj_get_style_prop(obj, part, LV_STYLE_BG_IMG_RECOLOR_OPA);
 226:lvgl/src/widgets/../core/lv_obj_style_gen.h ****     return (lv_opa_t)v.num;
 227:lvgl/src/widgets/../core/lv_obj_style_gen.h **** }
 228:lvgl/src/widgets/../core/lv_obj_style_gen.h **** 
 229:lvgl/src/widgets/../core/lv_obj_style_gen.h **** static inline bool lv_obj_get_style_bg_img_tiled(const struct _lv_obj_t * obj, uint32_t part)
 230:lvgl/src/widgets/../core/lv_obj_style_gen.h **** {
 231:lvgl/src/widgets/../core/lv_obj_style_gen.h ****     lv_style_value_t v = lv_obj_get_style_prop(obj, part, LV_STYLE_BG_IMG_TILED);
 232:lvgl/src/widgets/../core/lv_obj_style_gen.h ****     return (bool)v.num;
 233:lvgl/src/widgets/../core/lv_obj_style_gen.h **** }
ARM GAS  C:\Users\OSD\AppData\Local\Temp\ccwADrda.s 			page 29


 234:lvgl/src/widgets/../core/lv_obj_style_gen.h **** 
 235:lvgl/src/widgets/../core/lv_obj_style_gen.h **** static inline lv_color_t lv_obj_get_style_border_color(const struct _lv_obj_t * obj, uint32_t part)
 236:lvgl/src/widgets/../core/lv_obj_style_gen.h **** {
 237:lvgl/src/widgets/../core/lv_obj_style_gen.h ****     lv_style_value_t v = lv_obj_get_style_prop(obj, part, LV_STYLE_BORDER_COLOR);
 238:lvgl/src/widgets/../core/lv_obj_style_gen.h ****     return v.color;
 239:lvgl/src/widgets/../core/lv_obj_style_gen.h **** }
 240:lvgl/src/widgets/../core/lv_obj_style_gen.h **** 
 241:lvgl/src/widgets/../core/lv_obj_style_gen.h **** static inline lv_color_t lv_obj_get_style_border_color_filtered(const struct _lv_obj_t * obj, uint3
 242:lvgl/src/widgets/../core/lv_obj_style_gen.h **** {
 243:lvgl/src/widgets/../core/lv_obj_style_gen.h ****     lv_style_value_t v = _lv_obj_style_apply_color_filter(obj, part, lv_obj_get_style_prop(obj, par
 244:lvgl/src/widgets/../core/lv_obj_style_gen.h ****     return v.color;
 245:lvgl/src/widgets/../core/lv_obj_style_gen.h **** }
 246:lvgl/src/widgets/../core/lv_obj_style_gen.h **** 
 247:lvgl/src/widgets/../core/lv_obj_style_gen.h **** static inline lv_opa_t lv_obj_get_style_border_opa(const struct _lv_obj_t * obj, uint32_t part)
 248:lvgl/src/widgets/../core/lv_obj_style_gen.h **** {
 249:lvgl/src/widgets/../core/lv_obj_style_gen.h ****     lv_style_value_t v = lv_obj_get_style_prop(obj, part, LV_STYLE_BORDER_OPA);
 250:lvgl/src/widgets/../core/lv_obj_style_gen.h ****     return (lv_opa_t)v.num;
 251:lvgl/src/widgets/../core/lv_obj_style_gen.h **** }
 252:lvgl/src/widgets/../core/lv_obj_style_gen.h **** 
 253:lvgl/src/widgets/../core/lv_obj_style_gen.h **** static inline lv_coord_t lv_obj_get_style_border_width(const struct _lv_obj_t * obj, uint32_t part)
 254:lvgl/src/widgets/../core/lv_obj_style_gen.h **** {
 255:lvgl/src/widgets/../core/lv_obj_style_gen.h ****     lv_style_value_t v = lv_obj_get_style_prop(obj, part, LV_STYLE_BORDER_WIDTH);
 256:lvgl/src/widgets/../core/lv_obj_style_gen.h ****     return (lv_coord_t)v.num;
 257:lvgl/src/widgets/../core/lv_obj_style_gen.h **** }
 258:lvgl/src/widgets/../core/lv_obj_style_gen.h **** 
 259:lvgl/src/widgets/../core/lv_obj_style_gen.h **** static inline lv_border_side_t lv_obj_get_style_border_side(const struct _lv_obj_t * obj, uint32_t 
 260:lvgl/src/widgets/../core/lv_obj_style_gen.h **** {
 261:lvgl/src/widgets/../core/lv_obj_style_gen.h ****     lv_style_value_t v = lv_obj_get_style_prop(obj, part, LV_STYLE_BORDER_SIDE);
 262:lvgl/src/widgets/../core/lv_obj_style_gen.h ****     return (lv_border_side_t)v.num;
 263:lvgl/src/widgets/../core/lv_obj_style_gen.h **** }
 264:lvgl/src/widgets/../core/lv_obj_style_gen.h **** 
 265:lvgl/src/widgets/../core/lv_obj_style_gen.h **** static inline bool lv_obj_get_style_border_post(const struct _lv_obj_t * obj, uint32_t part)
 266:lvgl/src/widgets/../core/lv_obj_style_gen.h **** {
 267:lvgl/src/widgets/../core/lv_obj_style_gen.h ****     lv_style_value_t v = lv_obj_get_style_prop(obj, part, LV_STYLE_BORDER_POST);
 268:lvgl/src/widgets/../core/lv_obj_style_gen.h ****     return (bool)v.num;
 269:lvgl/src/widgets/../core/lv_obj_style_gen.h **** }
 270:lvgl/src/widgets/../core/lv_obj_style_gen.h **** 
 271:lvgl/src/widgets/../core/lv_obj_style_gen.h **** static inline lv_coord_t lv_obj_get_style_outline_width(const struct _lv_obj_t * obj, uint32_t part
 272:lvgl/src/widgets/../core/lv_obj_style_gen.h **** {
 273:lvgl/src/widgets/../core/lv_obj_style_gen.h ****     lv_style_value_t v = lv_obj_get_style_prop(obj, part, LV_STYLE_OUTLINE_WIDTH);
 274:lvgl/src/widgets/../core/lv_obj_style_gen.h ****     return (lv_coord_t)v.num;
 275:lvgl/src/widgets/../core/lv_obj_style_gen.h **** }
 276:lvgl/src/widgets/../core/lv_obj_style_gen.h **** 
 277:lvgl/src/widgets/../core/lv_obj_style_gen.h **** static inline lv_color_t lv_obj_get_style_outline_color(const struct _lv_obj_t * obj, uint32_t part
 278:lvgl/src/widgets/../core/lv_obj_style_gen.h **** {
 279:lvgl/src/widgets/../core/lv_obj_style_gen.h ****     lv_style_value_t v = lv_obj_get_style_prop(obj, part, LV_STYLE_OUTLINE_COLOR);
 280:lvgl/src/widgets/../core/lv_obj_style_gen.h ****     return v.color;
 281:lvgl/src/widgets/../core/lv_obj_style_gen.h **** }
 282:lvgl/src/widgets/../core/lv_obj_style_gen.h **** 
 283:lvgl/src/widgets/../core/lv_obj_style_gen.h **** static inline lv_color_t lv_obj_get_style_outline_color_filtered(const struct _lv_obj_t * obj, uint
 284:lvgl/src/widgets/../core/lv_obj_style_gen.h **** {
 285:lvgl/src/widgets/../core/lv_obj_style_gen.h ****     lv_style_value_t v = _lv_obj_style_apply_color_filter(obj, part, lv_obj_get_style_prop(obj, par
 286:lvgl/src/widgets/../core/lv_obj_style_gen.h ****     return v.color;
 287:lvgl/src/widgets/../core/lv_obj_style_gen.h **** }
 288:lvgl/src/widgets/../core/lv_obj_style_gen.h **** 
 289:lvgl/src/widgets/../core/lv_obj_style_gen.h **** static inline lv_opa_t lv_obj_get_style_outline_opa(const struct _lv_obj_t * obj, uint32_t part)
 290:lvgl/src/widgets/../core/lv_obj_style_gen.h **** {
ARM GAS  C:\Users\OSD\AppData\Local\Temp\ccwADrda.s 			page 30


 291:lvgl/src/widgets/../core/lv_obj_style_gen.h ****     lv_style_value_t v = lv_obj_get_style_prop(obj, part, LV_STYLE_OUTLINE_OPA);
 292:lvgl/src/widgets/../core/lv_obj_style_gen.h ****     return (lv_opa_t)v.num;
 293:lvgl/src/widgets/../core/lv_obj_style_gen.h **** }
 294:lvgl/src/widgets/../core/lv_obj_style_gen.h **** 
 295:lvgl/src/widgets/../core/lv_obj_style_gen.h **** static inline lv_coord_t lv_obj_get_style_outline_pad(const struct _lv_obj_t * obj, uint32_t part)
 296:lvgl/src/widgets/../core/lv_obj_style_gen.h **** {
 297:lvgl/src/widgets/../core/lv_obj_style_gen.h ****     lv_style_value_t v = lv_obj_get_style_prop(obj, part, LV_STYLE_OUTLINE_PAD);
 298:lvgl/src/widgets/../core/lv_obj_style_gen.h ****     return (lv_coord_t)v.num;
 299:lvgl/src/widgets/../core/lv_obj_style_gen.h **** }
 300:lvgl/src/widgets/../core/lv_obj_style_gen.h **** 
 301:lvgl/src/widgets/../core/lv_obj_style_gen.h **** static inline lv_coord_t lv_obj_get_style_shadow_width(const struct _lv_obj_t * obj, uint32_t part)
 302:lvgl/src/widgets/../core/lv_obj_style_gen.h **** {
 303:lvgl/src/widgets/../core/lv_obj_style_gen.h ****     lv_style_value_t v = lv_obj_get_style_prop(obj, part, LV_STYLE_SHADOW_WIDTH);
 304:lvgl/src/widgets/../core/lv_obj_style_gen.h ****     return (lv_coord_t)v.num;
 305:lvgl/src/widgets/../core/lv_obj_style_gen.h **** }
 306:lvgl/src/widgets/../core/lv_obj_style_gen.h **** 
 307:lvgl/src/widgets/../core/lv_obj_style_gen.h **** static inline lv_coord_t lv_obj_get_style_shadow_ofs_x(const struct _lv_obj_t * obj, uint32_t part)
 308:lvgl/src/widgets/../core/lv_obj_style_gen.h **** {
 309:lvgl/src/widgets/../core/lv_obj_style_gen.h ****     lv_style_value_t v = lv_obj_get_style_prop(obj, part, LV_STYLE_SHADOW_OFS_X);
 310:lvgl/src/widgets/../core/lv_obj_style_gen.h ****     return (lv_coord_t)v.num;
 311:lvgl/src/widgets/../core/lv_obj_style_gen.h **** }
 312:lvgl/src/widgets/../core/lv_obj_style_gen.h **** 
 313:lvgl/src/widgets/../core/lv_obj_style_gen.h **** static inline lv_coord_t lv_obj_get_style_shadow_ofs_y(const struct _lv_obj_t * obj, uint32_t part)
 314:lvgl/src/widgets/../core/lv_obj_style_gen.h **** {
 315:lvgl/src/widgets/../core/lv_obj_style_gen.h ****     lv_style_value_t v = lv_obj_get_style_prop(obj, part, LV_STYLE_SHADOW_OFS_Y);
 316:lvgl/src/widgets/../core/lv_obj_style_gen.h ****     return (lv_coord_t)v.num;
 317:lvgl/src/widgets/../core/lv_obj_style_gen.h **** }
 318:lvgl/src/widgets/../core/lv_obj_style_gen.h **** 
 319:lvgl/src/widgets/../core/lv_obj_style_gen.h **** static inline lv_coord_t lv_obj_get_style_shadow_spread(const struct _lv_obj_t * obj, uint32_t part
 320:lvgl/src/widgets/../core/lv_obj_style_gen.h **** {
 321:lvgl/src/widgets/../core/lv_obj_style_gen.h ****     lv_style_value_t v = lv_obj_get_style_prop(obj, part, LV_STYLE_SHADOW_SPREAD);
 322:lvgl/src/widgets/../core/lv_obj_style_gen.h ****     return (lv_coord_t)v.num;
 323:lvgl/src/widgets/../core/lv_obj_style_gen.h **** }
 324:lvgl/src/widgets/../core/lv_obj_style_gen.h **** 
 325:lvgl/src/widgets/../core/lv_obj_style_gen.h **** static inline lv_color_t lv_obj_get_style_shadow_color(const struct _lv_obj_t * obj, uint32_t part)
 326:lvgl/src/widgets/../core/lv_obj_style_gen.h **** {
 327:lvgl/src/widgets/../core/lv_obj_style_gen.h ****     lv_style_value_t v = lv_obj_get_style_prop(obj, part, LV_STYLE_SHADOW_COLOR);
 328:lvgl/src/widgets/../core/lv_obj_style_gen.h ****     return v.color;
 329:lvgl/src/widgets/../core/lv_obj_style_gen.h **** }
 330:lvgl/src/widgets/../core/lv_obj_style_gen.h **** 
 331:lvgl/src/widgets/../core/lv_obj_style_gen.h **** static inline lv_color_t lv_obj_get_style_shadow_color_filtered(const struct _lv_obj_t * obj, uint3
 332:lvgl/src/widgets/../core/lv_obj_style_gen.h **** {
 333:lvgl/src/widgets/../core/lv_obj_style_gen.h ****     lv_style_value_t v = _lv_obj_style_apply_color_filter(obj, part, lv_obj_get_style_prop(obj, par
 334:lvgl/src/widgets/../core/lv_obj_style_gen.h ****     return v.color;
 335:lvgl/src/widgets/../core/lv_obj_style_gen.h **** }
 336:lvgl/src/widgets/../core/lv_obj_style_gen.h **** 
 337:lvgl/src/widgets/../core/lv_obj_style_gen.h **** static inline lv_opa_t lv_obj_get_style_shadow_opa(const struct _lv_obj_t * obj, uint32_t part)
 338:lvgl/src/widgets/../core/lv_obj_style_gen.h **** {
 339:lvgl/src/widgets/../core/lv_obj_style_gen.h ****     lv_style_value_t v = lv_obj_get_style_prop(obj, part, LV_STYLE_SHADOW_OPA);
 340:lvgl/src/widgets/../core/lv_obj_style_gen.h ****     return (lv_opa_t)v.num;
 341:lvgl/src/widgets/../core/lv_obj_style_gen.h **** }
 342:lvgl/src/widgets/../core/lv_obj_style_gen.h **** 
 343:lvgl/src/widgets/../core/lv_obj_style_gen.h **** static inline lv_opa_t lv_obj_get_style_img_opa(const struct _lv_obj_t * obj, uint32_t part)
 344:lvgl/src/widgets/../core/lv_obj_style_gen.h **** {
 345:lvgl/src/widgets/../core/lv_obj_style_gen.h ****     lv_style_value_t v = lv_obj_get_style_prop(obj, part, LV_STYLE_IMG_OPA);
 346:lvgl/src/widgets/../core/lv_obj_style_gen.h ****     return (lv_opa_t)v.num;
 347:lvgl/src/widgets/../core/lv_obj_style_gen.h **** }
ARM GAS  C:\Users\OSD\AppData\Local\Temp\ccwADrda.s 			page 31


 348:lvgl/src/widgets/../core/lv_obj_style_gen.h **** 
 349:lvgl/src/widgets/../core/lv_obj_style_gen.h **** static inline lv_color_t lv_obj_get_style_img_recolor(const struct _lv_obj_t * obj, uint32_t part)
 447              		.loc 2 349 26 view .LVU125
 448              	.LBB27:
 350:lvgl/src/widgets/../core/lv_obj_style_gen.h **** {
 351:lvgl/src/widgets/../core/lv_obj_style_gen.h ****     lv_style_value_t v = lv_obj_get_style_prop(obj, part, LV_STYLE_IMG_RECOLOR);
 449              		.loc 2 351 5 view .LVU126
 450              		.loc 2 351 26 is_stmt 0 view .LVU127
 451 0008 4722     		movs	r2, #71
 452              	.LVL46:
 453              		.loc 2 351 26 view .LVU128
 454 000a 0021     		movs	r1, #0
 455              	.LVL47:
 456              		.loc 2 351 26 view .LVU129
 457 000c FFF7FEFF 		bl	lv_obj_get_style_prop
 458              	.LVL48:
 459              		.loc 2 351 26 view .LVU130
 460 0010 0346     		mov	r3, r0
 352:lvgl/src/widgets/../core/lv_obj_style_gen.h ****     return v.color;
 461              		.loc 2 352 5 is_stmt 1 view .LVU131
 462              	.LVL49:
 463              		.loc 2 352 5 is_stmt 0 view .LVU132
 464              	.LBE27:
 465              	.LBE26:
 123:lvgl/src/widgets/lv_canvas.c **** }
 466              		.loc 1 123 5 is_stmt 1 view .LVU133
 123:lvgl/src/widgets/lv_canvas.c **** }
 467              		.loc 1 123 12 is_stmt 0 view .LVU134
 468 0012 3246     		mov	r2, r6
 469 0014 2946     		mov	r1, r5
 470 0016 04F13C00 		add	r0, r4, #60
 471 001a FFF7FEFF 		bl	lv_img_buf_get_px_color
 472              	.LVL50:
 124:lvgl/src/widgets/lv_canvas.c **** 
 473              		.loc 1 124 1 view .LVU135
 474 001e 70BD     		pop	{r4, r5, r6, pc}
 124:lvgl/src/widgets/lv_canvas.c **** 
 475              		.loc 1 124 1 view .LVU136
 476              		.cfi_endproc
 477              	.LFE167:
 479              		.section	.text.lv_canvas_get_img,"ax",%progbits
 480              		.align	1
 481              		.global	lv_canvas_get_img
 482              		.syntax unified
 483              		.thumb
 484              		.thumb_func
 486              	lv_canvas_get_img:
 487              	.LVL51:
 488              	.LFB168:
 127:lvgl/src/widgets/lv_canvas.c ****     LV_ASSERT_OBJ(obj, MY_CLASS);
 489              		.loc 1 127 1 is_stmt 1 view -0
 490              		.cfi_startproc
 491              		@ args = 0, pretend = 0, frame = 0
 492              		@ frame_needed = 0, uses_anonymous_args = 0
 493              		@ link register save eliminated.
 128:lvgl/src/widgets/lv_canvas.c **** 
 494              		.loc 1 128 5 view .LVU138
ARM GAS  C:\Users\OSD\AppData\Local\Temp\ccwADrda.s 			page 32


 128:lvgl/src/widgets/lv_canvas.c **** 
 495              		.loc 1 128 5 view .LVU139
 128:lvgl/src/widgets/lv_canvas.c **** 
 496              		.loc 1 128 5 view .LVU140
 130:lvgl/src/widgets/lv_canvas.c ****     return &canvas->dsc;
 497              		.loc 1 130 5 view .LVU141
 131:lvgl/src/widgets/lv_canvas.c **** }
 498              		.loc 1 131 5 view .LVU142
 132:lvgl/src/widgets/lv_canvas.c **** 
 499              		.loc 1 132 1 is_stmt 0 view .LVU143
 500 0000 3C30     		adds	r0, r0, #60
 501              	.LVL52:
 132:lvgl/src/widgets/lv_canvas.c **** 
 502              		.loc 1 132 1 view .LVU144
 503 0002 7047     		bx	lr
 504              		.cfi_endproc
 505              	.LFE168:
 507              		.section	.text.init_fake_disp,"ax",%progbits
 508              		.align	1
 509              		.syntax unified
 510              		.thumb
 511              		.thumb_func
 513              	init_fake_disp:
 514              	.LVL53:
 515              	.LFB182:
 792:lvgl/src/widgets/lv_canvas.c ****     lv_img_dsc_t * dsc = lv_canvas_get_img(canvas);
 516              		.loc 1 792 1 is_stmt 1 view -0
 517              		.cfi_startproc
 518              		@ args = 0, pretend = 0, frame = 0
 519              		@ frame_needed = 0, uses_anonymous_args = 0
 792:lvgl/src/widgets/lv_canvas.c ****     lv_img_dsc_t * dsc = lv_canvas_get_img(canvas);
 520              		.loc 1 792 1 is_stmt 0 view .LVU146
 521 0000 2DE9F041 		push	{r4, r5, r6, r7, r8, lr}
 522              		.cfi_def_cfa_offset 24
 523              		.cfi_offset 4, -24
 524              		.cfi_offset 5, -20
 525              		.cfi_offset 6, -16
 526              		.cfi_offset 7, -12
 527              		.cfi_offset 8, -8
 528              		.cfi_offset 14, -4
 529 0004 0C46     		mov	r4, r1
 530 0006 1746     		mov	r7, r2
 531 0008 1E46     		mov	r6, r3
 793:lvgl/src/widgets/lv_canvas.c **** 
 532              		.loc 1 793 5 is_stmt 1 view .LVU147
 793:lvgl/src/widgets/lv_canvas.c **** 
 533              		.loc 1 793 26 is_stmt 0 view .LVU148
 534 000a FFF7FEFF 		bl	lv_canvas_get_img
 535              	.LVL54:
 793:lvgl/src/widgets/lv_canvas.c **** 
 536              		.loc 1 793 26 view .LVU149
 537 000e 0546     		mov	r5, r0
 538              	.LVL55:
 795:lvgl/src/widgets/lv_canvas.c ****     clip_area->x2 = dsc->header.w - 1;
 539              		.loc 1 795 5 is_stmt 1 view .LVU150
 795:lvgl/src/widgets/lv_canvas.c ****     clip_area->x2 = dsc->header.w - 1;
 540              		.loc 1 795 19 is_stmt 0 view .LVU151
ARM GAS  C:\Users\OSD\AppData\Local\Temp\ccwADrda.s 			page 33


 541 0010 0022     		movs	r2, #0
 542 0012 3280     		strh	r2, [r6]	@ movhi
 796:lvgl/src/widgets/lv_canvas.c ****     clip_area->y1 = 0;
 543              		.loc 1 796 5 is_stmt 1 view .LVU152
 796:lvgl/src/widgets/lv_canvas.c ****     clip_area->y1 = 0;
 544              		.loc 1 796 32 is_stmt 0 view .LVU153
 545 0014 0368     		ldr	r3, [r0]
 546 0016 C3F38A23 		ubfx	r3, r3, #10, #11
 796:lvgl/src/widgets/lv_canvas.c ****     clip_area->y1 = 0;
 547              		.loc 1 796 35 view .LVU154
 548 001a 013B     		subs	r3, r3, #1
 796:lvgl/src/widgets/lv_canvas.c ****     clip_area->y1 = 0;
 549              		.loc 1 796 19 view .LVU155
 550 001c B380     		strh	r3, [r6, #4]	@ movhi
 797:lvgl/src/widgets/lv_canvas.c ****     clip_area->y2 = dsc->header.h - 1;
 551              		.loc 1 797 5 is_stmt 1 view .LVU156
 797:lvgl/src/widgets/lv_canvas.c ****     clip_area->y2 = dsc->header.h - 1;
 552              		.loc 1 797 19 is_stmt 0 view .LVU157
 553 001e 7280     		strh	r2, [r6, #2]	@ movhi
 798:lvgl/src/widgets/lv_canvas.c **** 
 554              		.loc 1 798 5 is_stmt 1 view .LVU158
 798:lvgl/src/widgets/lv_canvas.c **** 
 555              		.loc 1 798 32 is_stmt 0 view .LVU159
 556 0020 4388     		ldrh	r3, [r0, #2]
 557 0022 C3F34A13 		ubfx	r3, r3, #5, #11
 798:lvgl/src/widgets/lv_canvas.c **** 
 558              		.loc 1 798 35 view .LVU160
 559 0026 013B     		subs	r3, r3, #1
 798:lvgl/src/widgets/lv_canvas.c **** 
 560              		.loc 1 798 19 view .LVU161
 561 0028 F380     		strh	r3, [r6, #6]	@ movhi
 801:lvgl/src/widgets/lv_canvas.c ****     disp->driver = drv;
 562              		.loc 1 801 5 is_stmt 1 view .LVU162
 563 002a 4FF4B671 		mov	r1, #364
 564 002e 2046     		mov	r0, r4
 565              	.LVL56:
 801:lvgl/src/widgets/lv_canvas.c ****     disp->driver = drv;
 566              		.loc 1 801 5 is_stmt 0 view .LVU163
 567 0030 FFF7FEFF 		bl	lv_memset_00
 568              	.LVL57:
 802:lvgl/src/widgets/lv_canvas.c **** 
 569              		.loc 1 802 5 is_stmt 1 view .LVU164
 802:lvgl/src/widgets/lv_canvas.c **** 
 570              		.loc 1 802 18 is_stmt 0 view .LVU165
 571 0034 2760     		str	r7, [r4]
 804:lvgl/src/widgets/lv_canvas.c ****     disp->driver->hor_res = dsc->header.w;
 572              		.loc 1 804 5 is_stmt 1 view .LVU166
 573 0036 3846     		mov	r0, r7
 574 0038 FFF7FEFF 		bl	lv_disp_drv_init
 575              	.LVL58:
 805:lvgl/src/widgets/lv_canvas.c ****     disp->driver->ver_res = dsc->header.h;
 576              		.loc 1 805 5 view .LVU167
 805:lvgl/src/widgets/lv_canvas.c ****     disp->driver->ver_res = dsc->header.h;
 577              		.loc 1 805 9 is_stmt 0 view .LVU168
 578 003c 2268     		ldr	r2, [r4]
 805:lvgl/src/widgets/lv_canvas.c ****     disp->driver->ver_res = dsc->header.h;
 579              		.loc 1 805 40 view .LVU169
ARM GAS  C:\Users\OSD\AppData\Local\Temp\ccwADrda.s 			page 34


 580 003e 2B68     		ldr	r3, [r5]
 581 0040 C3F38A23 		ubfx	r3, r3, #10, #11
 805:lvgl/src/widgets/lv_canvas.c ****     disp->driver->ver_res = dsc->header.h;
 582              		.loc 1 805 27 view .LVU170
 583 0044 1380     		strh	r3, [r2]	@ movhi
 806:lvgl/src/widgets/lv_canvas.c **** 
 584              		.loc 1 806 5 is_stmt 1 view .LVU171
 806:lvgl/src/widgets/lv_canvas.c **** 
 585              		.loc 1 806 9 is_stmt 0 view .LVU172
 586 0046 2268     		ldr	r2, [r4]
 806:lvgl/src/widgets/lv_canvas.c **** 
 587              		.loc 1 806 40 view .LVU173
 588 0048 6B88     		ldrh	r3, [r5, #2]
 589 004a C3F34A13 		ubfx	r3, r3, #5, #11
 806:lvgl/src/widgets/lv_canvas.c **** 
 590              		.loc 1 806 27 view .LVU174
 591 004e 5380     		strh	r3, [r2, #2]	@ movhi
 808:lvgl/src/widgets/lv_canvas.c ****     LV_ASSERT_MALLOC(draw_ctx);
 592              		.loc 1 808 5 is_stmt 1 view .LVU175
 808:lvgl/src/widgets/lv_canvas.c ****     LV_ASSERT_MALLOC(draw_ctx);
 593              		.loc 1 808 32 is_stmt 0 view .LVU176
 594 0050 5820     		movs	r0, #88
 595 0052 FFF7FEFF 		bl	lv_mem_alloc
 596              	.LVL59:
 809:lvgl/src/widgets/lv_canvas.c ****     if(draw_ctx == NULL)  return;
 597              		.loc 1 809 5 is_stmt 1 view .LVU177
 809:lvgl/src/widgets/lv_canvas.c ****     if(draw_ctx == NULL)  return;
 598              		.loc 1 809 5 view .LVU178
 599 0056 B0B1     		cbz	r0, .L27
 600 0058 8046     		mov	r8, r0
 809:lvgl/src/widgets/lv_canvas.c ****     if(draw_ctx == NULL)  return;
 601              		.loc 1 809 5 view .LVU179
 809:lvgl/src/widgets/lv_canvas.c ****     if(draw_ctx == NULL)  return;
 602              		.loc 1 809 31 view .LVU180
 810:lvgl/src/widgets/lv_canvas.c ****     lv_draw_sw_init_ctx(drv, draw_ctx);
 603              		.loc 1 810 5 view .LVU181
 811:lvgl/src/widgets/lv_canvas.c ****     disp->driver->draw_ctx = draw_ctx;
 604              		.loc 1 811 5 view .LVU182
 605 005a 0146     		mov	r1, r0
 606 005c 3846     		mov	r0, r7
 607              	.LVL60:
 811:lvgl/src/widgets/lv_canvas.c ****     disp->driver->draw_ctx = draw_ctx;
 608              		.loc 1 811 5 is_stmt 0 view .LVU183
 609 005e FFF7FEFF 		bl	lv_draw_sw_init_ctx
 610              	.LVL61:
 812:lvgl/src/widgets/lv_canvas.c ****     draw_ctx->clip_area = clip_area;
 611              		.loc 1 812 5 is_stmt 1 view .LVU184
 812:lvgl/src/widgets/lv_canvas.c ****     draw_ctx->clip_area = clip_area;
 612              		.loc 1 812 9 is_stmt 0 view .LVU185
 613 0062 2368     		ldr	r3, [r4]
 812:lvgl/src/widgets/lv_canvas.c ****     draw_ctx->clip_area = clip_area;
 614              		.loc 1 812 28 view .LVU186
 615 0064 C3F83C80 		str	r8, [r3, #60]
 813:lvgl/src/widgets/lv_canvas.c ****     draw_ctx->buf_area = clip_area;
 616              		.loc 1 813 5 is_stmt 1 view .LVU187
 813:lvgl/src/widgets/lv_canvas.c ****     draw_ctx->buf_area = clip_area;
 617              		.loc 1 813 25 is_stmt 0 view .LVU188
ARM GAS  C:\Users\OSD\AppData\Local\Temp\ccwADrda.s 			page 35


 618 0068 C8F80860 		str	r6, [r8, #8]
 814:lvgl/src/widgets/lv_canvas.c ****     draw_ctx->buf = (void *)dsc->data;
 619              		.loc 1 814 5 is_stmt 1 view .LVU189
 814:lvgl/src/widgets/lv_canvas.c ****     draw_ctx->buf = (void *)dsc->data;
 620              		.loc 1 814 24 is_stmt 0 view .LVU190
 621 006c C8F80460 		str	r6, [r8, #4]
 815:lvgl/src/widgets/lv_canvas.c **** 
 622              		.loc 1 815 5 is_stmt 1 view .LVU191
 815:lvgl/src/widgets/lv_canvas.c **** 
 623              		.loc 1 815 32 is_stmt 0 view .LVU192
 624 0070 AB68     		ldr	r3, [r5, #8]
 815:lvgl/src/widgets/lv_canvas.c **** 
 625              		.loc 1 815 19 view .LVU193
 626 0072 C8F80030 		str	r3, [r8]
 817:lvgl/src/widgets/lv_canvas.c ****     if(LV_COLOR_SCREEN_TRANSP && dsc->header.cf != LV_IMG_CF_TRUE_COLOR_ALPHA) {
 627              		.loc 1 817 5 is_stmt 1 view .LVU194
 817:lvgl/src/widgets/lv_canvas.c ****     if(LV_COLOR_SCREEN_TRANSP && dsc->header.cf != LV_IMG_CF_TRUE_COLOR_ALPHA) {
 628              		.loc 1 817 64 is_stmt 0 view .LVU195
 629 0076 2978     		ldrb	r1, [r5]	@ zero_extendqisi2
 817:lvgl/src/widgets/lv_canvas.c ****     if(LV_COLOR_SCREEN_TRANSP && dsc->header.cf != LV_IMG_CF_TRUE_COLOR_ALPHA) {
 630              		.loc 1 817 5 view .LVU196
 631 0078 01F01F01 		and	r1, r1, #31
 632 007c 2068     		ldr	r0, [r4]
 633 007e FFF7FEFF 		bl	lv_disp_drv_use_generic_set_px_cb
 634              	.LVL62:
 818:lvgl/src/widgets/lv_canvas.c ****         drv->screen_transp = 0;
 635              		.loc 1 818 5 is_stmt 1 view .LVU197
 821:lvgl/src/widgets/lv_canvas.c **** 
 636              		.loc 1 821 1 is_stmt 0 view .LVU198
 637 0082 BDE8F081 		pop	{r4, r5, r6, r7, r8, pc}
 638              	.LVL63:
 639              	.L27:
 809:lvgl/src/widgets/lv_canvas.c ****     if(draw_ctx == NULL)  return;
 640              		.loc 1 809 5 is_stmt 1 discriminator 1 view .LVU199
 809:lvgl/src/widgets/lv_canvas.c ****     if(draw_ctx == NULL)  return;
 641              		.loc 1 809 5 discriminator 1 view .LVU200
 809:lvgl/src/widgets/lv_canvas.c ****     if(draw_ctx == NULL)  return;
 642              		.loc 1 809 5 discriminator 1 view .LVU201
 809:lvgl/src/widgets/lv_canvas.c ****     if(draw_ctx == NULL)  return;
 643              		.loc 1 809 5 discriminator 1 view .LVU202
 809:lvgl/src/widgets/lv_canvas.c ****     if(draw_ctx == NULL)  return;
 644              		.loc 1 809 5 discriminator 1 view .LVU203
 809:lvgl/src/widgets/lv_canvas.c ****     if(draw_ctx == NULL)  return;
 645              		.loc 1 809 5 discriminator 1 view .LVU204
 646 0086 FEE7     		b	.L27
 647              		.cfi_endproc
 648              	.LFE182:
 650              		.section	.text.lv_canvas_copy_buf,"ax",%progbits
 651              		.align	1
 652              		.global	lv_canvas_copy_buf
 653              		.syntax unified
 654              		.thumb
 655              		.thumb_func
 657              	lv_canvas_copy_buf:
 658              	.LVL64:
 659              	.LFB169:
 139:lvgl/src/widgets/lv_canvas.c ****     LV_ASSERT_OBJ(obj, MY_CLASS);
ARM GAS  C:\Users\OSD\AppData\Local\Temp\ccwADrda.s 			page 36


 660              		.loc 1 139 1 view -0
 661              		.cfi_startproc
 662              		@ args = 8, pretend = 0, frame = 0
 663              		@ frame_needed = 0, uses_anonymous_args = 0
 139:lvgl/src/widgets/lv_canvas.c ****     LV_ASSERT_OBJ(obj, MY_CLASS);
 664              		.loc 1 139 1 is_stmt 0 view .LVU206
 665 0000 2DE9F84F 		push	{r3, r4, r5, r6, r7, r8, r9, r10, fp, lr}
 666              		.cfi_def_cfa_offset 40
 667              		.cfi_offset 3, -40
 668              		.cfi_offset 4, -36
 669              		.cfi_offset 5, -32
 670              		.cfi_offset 6, -28
 671              		.cfi_offset 7, -24
 672              		.cfi_offset 8, -20
 673              		.cfi_offset 9, -16
 674              		.cfi_offset 10, -12
 675              		.cfi_offset 11, -8
 676              		.cfi_offset 14, -4
 677 0004 BDF928A0 		ldrsh	r10, [sp, #40]
 678 0008 BDF92CB0 		ldrsh	fp, [sp, #44]
 140:lvgl/src/widgets/lv_canvas.c ****     LV_ASSERT_NULL(to_copy);
 679              		.loc 1 140 5 is_stmt 1 view .LVU207
 140:lvgl/src/widgets/lv_canvas.c ****     LV_ASSERT_NULL(to_copy);
 680              		.loc 1 140 5 view .LVU208
 140:lvgl/src/widgets/lv_canvas.c ****     LV_ASSERT_NULL(to_copy);
 681              		.loc 1 140 5 view .LVU209
 141:lvgl/src/widgets/lv_canvas.c **** 
 682              		.loc 1 141 5 view .LVU210
 141:lvgl/src/widgets/lv_canvas.c **** 
 683              		.loc 1 141 5 view .LVU211
 684 000c 91B1     		cbz	r1, .L31
 685 000e 0646     		mov	r6, r0
 686 0010 1446     		mov	r4, r2
 687 0012 1D46     		mov	r5, r3
 688 0014 0F46     		mov	r7, r1
 141:lvgl/src/widgets/lv_canvas.c **** 
 689              		.loc 1 141 5 discriminator 2 view .LVU212
 141:lvgl/src/widgets/lv_canvas.c **** 
 690              		.loc 1 141 28 discriminator 2 view .LVU213
 143:lvgl/src/widgets/lv_canvas.c **** 
 691              		.loc 1 143 5 discriminator 2 view .LVU214
 692              	.LVL65:
 145:lvgl/src/widgets/lv_canvas.c ****         LV_LOG_WARN("lv_canvas_copy_buf: x or y out of the canvas");
 693              		.loc 1 145 5 discriminator 2 view .LVU215
 145:lvgl/src/widgets/lv_canvas.c ****         LV_LOG_WARN("lv_canvas_copy_buf: x or y out of the canvas");
 694              		.loc 1 145 10 is_stmt 0 discriminator 2 view .LVU216
 695 0016 5244     		add	r2, r2, r10
 696              	.LVL66:
 145:lvgl/src/widgets/lv_canvas.c ****         LV_LOG_WARN("lv_canvas_copy_buf: x or y out of the canvas");
 697              		.loc 1 145 51 discriminator 2 view .LVU217
 698 0018 C36B     		ldr	r3, [r0, #60]
 699              	.LVL67:
 145:lvgl/src/widgets/lv_canvas.c ****         LV_LOG_WARN("lv_canvas_copy_buf: x or y out of the canvas");
 700              		.loc 1 145 51 discriminator 2 view .LVU218
 701 001a C3F38A23 		ubfx	r3, r3, #10, #11
 145:lvgl/src/widgets/lv_canvas.c ****         LV_LOG_WARN("lv_canvas_copy_buf: x or y out of the canvas");
 702              		.loc 1 145 7 discriminator 2 view .LVU219
ARM GAS  C:\Users\OSD\AppData\Local\Temp\ccwADrda.s 			page 37


 703 001e 9A42     		cmp	r2, r3
 704 0020 06DC     		bgt	.L29
 145:lvgl/src/widgets/lv_canvas.c ****         LV_LOG_WARN("lv_canvas_copy_buf: x or y out of the canvas");
 705              		.loc 1 145 59 discriminator 1 view .LVU220
 706 0022 0BEB0502 		add	r2, fp, r5
 145:lvgl/src/widgets/lv_canvas.c ****         LV_LOG_WARN("lv_canvas_copy_buf: x or y out of the canvas");
 707              		.loc 1 145 100 discriminator 1 view .LVU221
 708 0026 C38F     		ldrh	r3, [r0, #62]
 709 0028 C3F34A13 		ubfx	r3, r3, #5, #11
 145:lvgl/src/widgets/lv_canvas.c ****         LV_LOG_WARN("lv_canvas_copy_buf: x or y out of the canvas");
 710              		.loc 1 145 54 discriminator 1 view .LVU222
 711 002c 9A42     		cmp	r2, r3
 712 002e 02DD     		ble	.L36
 713              	.LVL68:
 714              	.L29:
 159:lvgl/src/widgets/lv_canvas.c **** 
 715              		.loc 1 159 1 view .LVU223
 716 0030 BDE8F88F 		pop	{r3, r4, r5, r6, r7, r8, r9, r10, fp, pc}
 717              	.LVL69:
 718              	.L31:
 141:lvgl/src/widgets/lv_canvas.c **** 
 719              		.loc 1 141 5 is_stmt 1 discriminator 1 view .LVU224
 141:lvgl/src/widgets/lv_canvas.c **** 
 720              		.loc 1 141 5 discriminator 1 view .LVU225
 141:lvgl/src/widgets/lv_canvas.c **** 
 721              		.loc 1 141 5 discriminator 1 view .LVU226
 141:lvgl/src/widgets/lv_canvas.c **** 
 722              		.loc 1 141 5 discriminator 1 view .LVU227
 141:lvgl/src/widgets/lv_canvas.c **** 
 723              		.loc 1 141 5 discriminator 1 view .LVU228
 141:lvgl/src/widgets/lv_canvas.c **** 
 724              		.loc 1 141 5 discriminator 1 view .LVU229
 725 0034 FEE7     		b	.L31
 726              	.LVL70:
 727              	.L36:
 150:lvgl/src/widgets/lv_canvas.c ****     uint32_t px        = canvas->dsc.header.w * y * px_size + x * px_size;
 728              		.loc 1 150 5 view .LVU230
 150:lvgl/src/widgets/lv_canvas.c ****     uint32_t px        = canvas->dsc.header.w * y * px_size + x * px_size;
 729              		.loc 1 150 66 is_stmt 0 view .LVU231
 730 0036 90F83C00 		ldrb	r0, [r0, #60]	@ zero_extendqisi2
 731              	.LVL71:
 150:lvgl/src/widgets/lv_canvas.c ****     uint32_t px        = canvas->dsc.header.w * y * px_size + x * px_size;
 732              		.loc 1 150 26 view .LVU232
 733 003a 00F01F00 		and	r0, r0, #31
 734 003e FFF7FEFF 		bl	lv_img_cf_get_px_size
 735              	.LVL72:
 150:lvgl/src/widgets/lv_canvas.c ****     uint32_t px        = canvas->dsc.header.w * y * px_size + x * px_size;
 736              		.loc 1 150 71 view .LVU233
 737 0042 C0F3C709 		ubfx	r9, r0, #3, #8
 738              	.LVL73:
 151:lvgl/src/widgets/lv_canvas.c ****     uint8_t * to_copy8 = (uint8_t *)to_copy;
 739              		.loc 1 151 5 is_stmt 1 view .LVU234
 151:lvgl/src/widgets/lv_canvas.c ****     uint8_t * to_copy8 = (uint8_t *)to_copy;
 740              		.loc 1 151 44 is_stmt 0 view .LVU235
 741 0046 F36B     		ldr	r3, [r6, #60]
 742 0048 C3F38A23 		ubfx	r3, r3, #10, #11
 151:lvgl/src/widgets/lv_canvas.c ****     uint8_t * to_copy8 = (uint8_t *)to_copy;
ARM GAS  C:\Users\OSD\AppData\Local\Temp\ccwADrda.s 			page 38


 743              		.loc 1 151 61 view .LVU236
 744 004c 03FB0544 		mla	r4, r3, r5, r4
 151:lvgl/src/widgets/lv_canvas.c ****     uint8_t * to_copy8 = (uint8_t *)to_copy;
 745              		.loc 1 151 14 view .LVU237
 746 0050 09FB04F4 		mul	r4, r9, r4
 747              	.LVL74:
 152:lvgl/src/widgets/lv_canvas.c ****     lv_coord_t i;
 748              		.loc 1 152 5 is_stmt 1 view .LVU238
 153:lvgl/src/widgets/lv_canvas.c ****     for(i = 0; i < h; i++) {
 749              		.loc 1 153 5 view .LVU239
 154:lvgl/src/widgets/lv_canvas.c ****         lv_memcpy((void *)&canvas->dsc.data[px], to_copy8, w * px_size);
 750              		.loc 1 154 5 view .LVU240
 154:lvgl/src/widgets/lv_canvas.c ****         lv_memcpy((void *)&canvas->dsc.data[px], to_copy8, w * px_size);
 751              		.loc 1 154 11 is_stmt 0 view .LVU241
 752 0054 0025     		movs	r5, #0
 154:lvgl/src/widgets/lv_canvas.c ****         lv_memcpy((void *)&canvas->dsc.data[px], to_copy8, w * px_size);
 753              		.loc 1 154 5 view .LVU242
 754 0056 0FE0     		b	.L33
 755              	.LVL75:
 756              	.L34:
 155:lvgl/src/widgets/lv_canvas.c ****         px += canvas->dsc.header.w * px_size;
 757              		.loc 1 155 9 is_stmt 1 discriminator 3 view .LVU243
 155:lvgl/src/widgets/lv_canvas.c ****         px += canvas->dsc.header.w * px_size;
 758              		.loc 1 155 39 is_stmt 0 discriminator 3 view .LVU244
 759 0058 706C     		ldr	r0, [r6, #68]
 155:lvgl/src/widgets/lv_canvas.c ****         px += canvas->dsc.header.w * px_size;
 760              		.loc 1 155 62 discriminator 3 view .LVU245
 761 005a 09FB0AF8 		mul	r8, r9, r10
 155:lvgl/src/widgets/lv_canvas.c ****         px += canvas->dsc.header.w * px_size;
 762              		.loc 1 155 9 discriminator 3 view .LVU246
 763 005e 4246     		mov	r2, r8
 764 0060 3946     		mov	r1, r7
 765 0062 2044     		add	r0, r0, r4
 766 0064 FFF7FEFF 		bl	lv_memcpy
 767              	.LVL76:
 156:lvgl/src/widgets/lv_canvas.c ****         to_copy8 += w * px_size;
 768              		.loc 1 156 9 is_stmt 1 discriminator 3 view .LVU247
 156:lvgl/src/widgets/lv_canvas.c ****         to_copy8 += w * px_size;
 769              		.loc 1 156 33 is_stmt 0 discriminator 3 view .LVU248
 770 0068 F36B     		ldr	r3, [r6, #60]
 771 006a C3F38A23 		ubfx	r3, r3, #10, #11
 156:lvgl/src/widgets/lv_canvas.c ****         to_copy8 += w * px_size;
 772              		.loc 1 156 12 discriminator 3 view .LVU249
 773 006e 09FB0344 		mla	r4, r9, r3, r4
 774              	.LVL77:
 157:lvgl/src/widgets/lv_canvas.c ****     }
 775              		.loc 1 157 9 is_stmt 1 discriminator 3 view .LVU250
 157:lvgl/src/widgets/lv_canvas.c ****     }
 776              		.loc 1 157 18 is_stmt 0 discriminator 3 view .LVU251
 777 0072 4744     		add	r7, r7, r8
 778              	.LVL78:
 154:lvgl/src/widgets/lv_canvas.c ****         lv_memcpy((void *)&canvas->dsc.data[px], to_copy8, w * px_size);
 779              		.loc 1 154 23 is_stmt 1 discriminator 3 view .LVU252
 154:lvgl/src/widgets/lv_canvas.c ****         lv_memcpy((void *)&canvas->dsc.data[px], to_copy8, w * px_size);
 780              		.loc 1 154 24 is_stmt 0 discriminator 3 view .LVU253
 781 0074 0135     		adds	r5, r5, #1
 782              	.LVL79:
ARM GAS  C:\Users\OSD\AppData\Local\Temp\ccwADrda.s 			page 39


 154:lvgl/src/widgets/lv_canvas.c ****         lv_memcpy((void *)&canvas->dsc.data[px], to_copy8, w * px_size);
 783              		.loc 1 154 24 discriminator 3 view .LVU254
 784 0076 2DB2     		sxth	r5, r5
 785              	.LVL80:
 786              	.L33:
 154:lvgl/src/widgets/lv_canvas.c ****         lv_memcpy((void *)&canvas->dsc.data[px], to_copy8, w * px_size);
 787              		.loc 1 154 16 is_stmt 1 discriminator 1 view .LVU255
 154:lvgl/src/widgets/lv_canvas.c ****         lv_memcpy((void *)&canvas->dsc.data[px], to_copy8, w * px_size);
 788              		.loc 1 154 5 is_stmt 0 discriminator 1 view .LVU256
 789 0078 5D45     		cmp	r5, fp
 790 007a EDDB     		blt	.L34
 154:lvgl/src/widgets/lv_canvas.c ****         lv_memcpy((void *)&canvas->dsc.data[px], to_copy8, w * px_size);
 791              		.loc 1 154 5 discriminator 1 view .LVU257
 792 007c D8E7     		b	.L29
 793              		.cfi_endproc
 794              	.LFE169:
 796              		.section	.text.lv_canvas_transform,"ax",%progbits
 797              		.align	1
 798              		.global	lv_canvas_transform
 799              		.syntax unified
 800              		.thumb
 801              		.thumb_func
 803              	lv_canvas_transform:
 804              	.LVL81:
 805              	.LFB170:
 164:lvgl/src/widgets/lv_canvas.c **** #if LV_DRAW_COMPLEX
 806              		.loc 1 164 1 is_stmt 1 view -0
 807              		.cfi_startproc
 808              		@ args = 20, pretend = 0, frame = 40
 809              		@ frame_needed = 0, uses_anonymous_args = 0
 166:lvgl/src/widgets/lv_canvas.c ****     LV_ASSERT_NULL(src_img);
 810              		.loc 1 166 5 view .LVU259
 166:lvgl/src/widgets/lv_canvas.c ****     LV_ASSERT_NULL(src_img);
 811              		.loc 1 166 5 view .LVU260
 166:lvgl/src/widgets/lv_canvas.c ****     LV_ASSERT_NULL(src_img);
 812              		.loc 1 166 5 view .LVU261
 167:lvgl/src/widgets/lv_canvas.c **** 
 813              		.loc 1 167 5 view .LVU262
 167:lvgl/src/widgets/lv_canvas.c **** 
 814              		.loc 1 167 5 view .LVU263
 815 0000 0029     		cmp	r1, #0
 816 0002 42D0     		beq	.L39
 164:lvgl/src/widgets/lv_canvas.c **** #if LV_DRAW_COMPLEX
 817              		.loc 1 164 1 is_stmt 0 discriminator 2 view .LVU264
 818 0004 2DE9F04F 		push	{r4, r5, r6, r7, r8, r9, r10, fp, lr}
 819              		.cfi_def_cfa_offset 36
 820              		.cfi_offset 4, -36
 821              		.cfi_offset 5, -32
 822              		.cfi_offset 6, -28
 823              		.cfi_offset 7, -24
 824              		.cfi_offset 8, -20
 825              		.cfi_offset 9, -16
 826              		.cfi_offset 10, -12
 827              		.cfi_offset 11, -8
 828              		.cfi_offset 14, -4
 829 0008 91B0     		sub	sp, sp, #68
 830              		.cfi_def_cfa_offset 104
ARM GAS  C:\Users\OSD\AppData\Local\Temp\ccwADrda.s 			page 40


 831 000a 0746     		mov	r7, r0
 832 000c 1546     		mov	r5, r2
 833 000e 1C46     		mov	r4, r3
 834 0010 8B46     		mov	fp, r1
 167:lvgl/src/widgets/lv_canvas.c **** 
 835              		.loc 1 167 5 is_stmt 1 discriminator 2 view .LVU265
 167:lvgl/src/widgets/lv_canvas.c **** 
 836              		.loc 1 167 28 discriminator 2 view .LVU266
 169:lvgl/src/widgets/lv_canvas.c ****     lv_img_dsc_t * dest_img = &canvas->dsc;
 837              		.loc 1 169 5 discriminator 2 view .LVU267
 838              	.LVL82:
 170:lvgl/src/widgets/lv_canvas.c **** 
 839              		.loc 1 170 5 discriminator 2 view .LVU268
 170:lvgl/src/widgets/lv_canvas.c **** 
 840              		.loc 1 170 20 is_stmt 0 discriminator 2 view .LVU269
 841 0012 00F13C09 		add	r9, r0, #60
 842              	.LVL83:
 172:lvgl/src/widgets/lv_canvas.c ****     int32_t y;
 843              		.loc 1 172 5 is_stmt 1 discriminator 2 view .LVU270
 173:lvgl/src/widgets/lv_canvas.c **** 
 844              		.loc 1 173 5 discriminator 2 view .LVU271
 175:lvgl/src/widgets/lv_canvas.c ****     lv_draw_img_dsc_init(&draw_dsc);
 845              		.loc 1 175 5 discriminator 2 view .LVU272
 176:lvgl/src/widgets/lv_canvas.c ****     draw_dsc.angle = angle;
 846              		.loc 1 176 5 discriminator 2 view .LVU273
 847 0016 0AA8     		add	r0, sp, #40
 848              	.LVL84:
 176:lvgl/src/widgets/lv_canvas.c ****     draw_dsc.angle = angle;
 849              		.loc 1 176 5 is_stmt 0 discriminator 2 view .LVU274
 850 0018 FFF7FEFF 		bl	lv_draw_img_dsc_init
 851              	.LVL85:
 177:lvgl/src/widgets/lv_canvas.c ****     draw_dsc.zoom = zoom;
 852              		.loc 1 177 5 is_stmt 1 discriminator 2 view .LVU275
 177:lvgl/src/widgets/lv_canvas.c ****     draw_dsc.zoom = zoom;
 853              		.loc 1 177 20 is_stmt 0 discriminator 2 view .LVU276
 854 001c ADF82850 		strh	r5, [sp, #40]	@ movhi
 178:lvgl/src/widgets/lv_canvas.c ****     draw_dsc.pivot.x = pivot_x;
 855              		.loc 1 178 5 is_stmt 1 discriminator 2 view .LVU277
 178:lvgl/src/widgets/lv_canvas.c ****     draw_dsc.pivot.x = pivot_x;
 856              		.loc 1 178 19 is_stmt 0 discriminator 2 view .LVU278
 857 0020 ADF82A40 		strh	r4, [sp, #42]	@ movhi
 179:lvgl/src/widgets/lv_canvas.c ****     draw_dsc.pivot.y = pivot_y;
 858              		.loc 1 179 5 is_stmt 1 discriminator 2 view .LVU279
 179:lvgl/src/widgets/lv_canvas.c ****     draw_dsc.pivot.y = pivot_y;
 859              		.loc 1 179 22 is_stmt 0 discriminator 2 view .LVU280
 860 0024 1C9B     		ldr	r3, [sp, #112]
 861 0026 ADF82C30 		strh	r3, [sp, #44]	@ movhi
 180:lvgl/src/widgets/lv_canvas.c ****     draw_dsc.antialias = antialias;
 862              		.loc 1 180 5 is_stmt 1 discriminator 2 view .LVU281
 180:lvgl/src/widgets/lv_canvas.c ****     draw_dsc.antialias = antialias;
 863              		.loc 1 180 22 is_stmt 0 discriminator 2 view .LVU282
 864 002a 1D9B     		ldr	r3, [sp, #116]
 865 002c ADF82E30 		strh	r3, [sp, #46]	@ movhi
 181:lvgl/src/widgets/lv_canvas.c **** 
 866              		.loc 1 181 5 is_stmt 1 discriminator 2 view .LVU283
 181:lvgl/src/widgets/lv_canvas.c **** 
 867              		.loc 1 181 24 is_stmt 0 discriminator 2 view .LVU284
ARM GAS  C:\Users\OSD\AppData\Local\Temp\ccwADrda.s 			page 41


 868 0030 9DF83C30 		ldrb	r3, [sp, #60]	@ zero_extendqisi2
 869 0034 9DF87820 		ldrb	r2, [sp, #120]	@ zero_extendqisi2
 870 0038 62F30003 		bfi	r3, r2, #0, #1
 871 003c 8DF83C30 		strb	r3, [sp, #60]
 183:lvgl/src/widgets/lv_canvas.c ****     dest_area.x1 = -offset_x;
 872              		.loc 1 183 5 is_stmt 1 discriminator 2 view .LVU285
 184:lvgl/src/widgets/lv_canvas.c ****     dest_area.x2 = dest_area.x1 + dest_img->header.w - 1;
 873              		.loc 1 184 5 discriminator 2 view .LVU286
 184:lvgl/src/widgets/lv_canvas.c ****     dest_area.x2 = dest_area.x1 + dest_img->header.w - 1;
 874              		.loc 1 184 18 is_stmt 0 discriminator 2 view .LVU287
 875 0040 BDF96830 		ldrsh	r3, [sp, #104]
 876 0044 5B42     		rsbs	r3, r3, #0
 877 0046 9BB2     		uxth	r3, r3
 878 0048 ADF82030 		strh	r3, [sp, #32]	@ movhi
 185:lvgl/src/widgets/lv_canvas.c ****     dest_area.y1 = -offset_y;
 879              		.loc 1 185 5 is_stmt 1 discriminator 2 view .LVU288
 185:lvgl/src/widgets/lv_canvas.c ****     dest_area.y1 = -offset_y;
 880              		.loc 1 185 51 is_stmt 0 discriminator 2 view .LVU289
 881 004c F86B     		ldr	r0, [r7, #60]
 882 004e C0F38A20 		ubfx	r0, r0, #10, #11
 185:lvgl/src/widgets/lv_canvas.c ****     dest_area.y1 = -offset_y;
 883              		.loc 1 185 33 discriminator 2 view .LVU290
 884 0052 0344     		add	r3, r3, r0
 885 0054 9BB2     		uxth	r3, r3
 185:lvgl/src/widgets/lv_canvas.c ****     dest_area.y1 = -offset_y;
 886              		.loc 1 185 54 discriminator 2 view .LVU291
 887 0056 013B     		subs	r3, r3, #1
 185:lvgl/src/widgets/lv_canvas.c ****     dest_area.y1 = -offset_y;
 888              		.loc 1 185 18 discriminator 2 view .LVU292
 889 0058 ADF82430 		strh	r3, [sp, #36]	@ movhi
 186:lvgl/src/widgets/lv_canvas.c ****     dest_area.y2 = -offset_y;
 890              		.loc 1 186 5 is_stmt 1 discriminator 2 view .LVU293
 186:lvgl/src/widgets/lv_canvas.c ****     dest_area.y2 = -offset_y;
 891              		.loc 1 186 18 is_stmt 0 discriminator 2 view .LVU294
 892 005c BDF96C30 		ldrsh	r3, [sp, #108]
 893 0060 5B42     		rsbs	r3, r3, #0
 894 0062 1BB2     		sxth	r3, r3
 895 0064 ADF82230 		strh	r3, [sp, #34]	@ movhi
 187:lvgl/src/widgets/lv_canvas.c **** 
 896              		.loc 1 187 5 is_stmt 1 discriminator 2 view .LVU295
 187:lvgl/src/widgets/lv_canvas.c **** 
 897              		.loc 1 187 18 is_stmt 0 discriminator 2 view .LVU296
 898 0068 ADF82630 		strh	r3, [sp, #38]	@ movhi
 189:lvgl/src/widgets/lv_canvas.c ****     lv_opa_t * abuf = lv_mem_alloc(dest_img->header.w * sizeof(lv_opa_t));
 899              		.loc 1 189 5 is_stmt 1 discriminator 2 view .LVU297
 189:lvgl/src/widgets/lv_canvas.c ****     lv_opa_t * abuf = lv_mem_alloc(dest_img->header.w * sizeof(lv_opa_t));
 900              		.loc 1 189 25 is_stmt 0 discriminator 2 view .LVU298
 901 006c 8000     		lsls	r0, r0, #2
 902 006e FFF7FEFF 		bl	lv_mem_alloc
 903              	.LVL86:
 904 0072 8246     		mov	r10, r0
 905              	.LVL87:
 190:lvgl/src/widgets/lv_canvas.c ****     for(y = 0; y < dest_img->header.h; y++) {
 906              		.loc 1 190 5 is_stmt 1 discriminator 2 view .LVU299
 190:lvgl/src/widgets/lv_canvas.c ****     for(y = 0; y < dest_img->header.h; y++) {
 907              		.loc 1 190 52 is_stmt 0 discriminator 2 view .LVU300
 908 0074 F86B     		ldr	r0, [r7, #60]
ARM GAS  C:\Users\OSD\AppData\Local\Temp\ccwADrda.s 			page 42


 909              	.LVL88:
 190:lvgl/src/widgets/lv_canvas.c ****     for(y = 0; y < dest_img->header.h; y++) {
 910              		.loc 1 190 23 discriminator 2 view .LVU301
 911 0076 C0F38A20 		ubfx	r0, r0, #10, #11
 912 007a FFF7FEFF 		bl	lv_mem_alloc
 913              	.LVL89:
 191:lvgl/src/widgets/lv_canvas.c ****         lv_draw_sw_transform(NULL, &dest_area, src_img->data, src_img->header.w, src_img->header.h,
 914              		.loc 1 191 5 is_stmt 1 discriminator 2 view .LVU302
 191:lvgl/src/widgets/lv_canvas.c ****         lv_draw_sw_transform(NULL, &dest_area, src_img->data, src_img->header.w, src_img->header.h,
 915              		.loc 1 191 11 is_stmt 0 discriminator 2 view .LVU303
 916 007e 0023     		movs	r3, #0
 917 0080 0793     		str	r3, [sp, #28]
 918 0082 3B46     		mov	r3, r7
 919 0084 0746     		mov	r7, r0
 920              	.LVL90:
 191:lvgl/src/widgets/lv_canvas.c ****         lv_draw_sw_transform(NULL, &dest_area, src_img->data, src_img->header.w, src_img->header.h,
 921              		.loc 1 191 11 discriminator 2 view .LVU304
 922 0086 9846     		mov	r8, r3
 191:lvgl/src/widgets/lv_canvas.c ****         lv_draw_sw_transform(NULL, &dest_area, src_img->data, src_img->header.w, src_img->header.h,
 923              		.loc 1 191 5 discriminator 2 view .LVU305
 924 0088 28E0     		b	.L40
 925              	.LVL91:
 926              	.L39:
 927              		.cfi_def_cfa_offset 0
 928              		.cfi_restore 4
 929              		.cfi_restore 5
 930              		.cfi_restore 6
 931              		.cfi_restore 7
 932              		.cfi_restore 8
 933              		.cfi_restore 9
 934              		.cfi_restore 10
 935              		.cfi_restore 11
 936              		.cfi_restore 14
 167:lvgl/src/widgets/lv_canvas.c **** 
 937              		.loc 1 167 5 is_stmt 1 discriminator 1 view .LVU306
 167:lvgl/src/widgets/lv_canvas.c **** 
 938              		.loc 1 167 5 discriminator 1 view .LVU307
 167:lvgl/src/widgets/lv_canvas.c **** 
 939              		.loc 1 167 5 discriminator 1 view .LVU308
 167:lvgl/src/widgets/lv_canvas.c **** 
 940              		.loc 1 167 5 discriminator 1 view .LVU309
 167:lvgl/src/widgets/lv_canvas.c **** 
 941              		.loc 1 167 5 discriminator 1 view .LVU310
 167:lvgl/src/widgets/lv_canvas.c **** 
 942              		.loc 1 167 5 discriminator 1 view .LVU311
 943 008a FEE7     		b	.L39
 944              	.LVL92:
 945              	.L42:
 946              		.cfi_def_cfa_offset 104
 947              		.cfi_offset 4, -36
 948              		.cfi_offset 5, -32
 949              		.cfi_offset 6, -28
 950              		.cfi_offset 7, -24
 951              		.cfi_offset 8, -20
 952              		.cfi_offset 9, -16
 953              		.cfi_offset 10, -12
 954              		.cfi_offset 11, -8
ARM GAS  C:\Users\OSD\AppData\Local\Temp\ccwADrda.s 			page 43


 955              		.cfi_offset 14, -4
 195:lvgl/src/widgets/lv_canvas.c ****             if(abuf[x]) {
 956              		.loc 1 195 44 discriminator 2 view .LVU312
 195:lvgl/src/widgets/lv_canvas.c ****             if(abuf[x]) {
 957              		.loc 1 195 45 is_stmt 0 discriminator 2 view .LVU313
 958 008c 0134     		adds	r4, r4, #1
 959              	.LVL93:
 960              	.L41:
 195:lvgl/src/widgets/lv_canvas.c ****             if(abuf[x]) {
 961              		.loc 1 195 20 is_stmt 1 discriminator 1 view .LVU314
 195:lvgl/src/widgets/lv_canvas.c ****             if(abuf[x]) {
 962              		.loc 1 195 40 is_stmt 0 discriminator 1 view .LVU315
 963 008e D8F83C30 		ldr	r3, [r8, #60]
 964 0092 C3F38A23 		ubfx	r3, r3, #10, #11
 195:lvgl/src/widgets/lv_canvas.c ****             if(abuf[x]) {
 965              		.loc 1 195 9 discriminator 1 view .LVU316
 966 0096 A342     		cmp	r3, r4
 967 0098 13DD     		ble	.L47
 196:lvgl/src/widgets/lv_canvas.c ****                 lv_img_buf_set_px_color(dest_img, x, y, cbuf[x]);
 968              		.loc 1 196 13 is_stmt 1 view .LVU317
 196:lvgl/src/widgets/lv_canvas.c ****                 lv_img_buf_set_px_color(dest_img, x, y, cbuf[x]);
 969              		.loc 1 196 20 is_stmt 0 view .LVU318
 970 009a 3B5D     		ldrb	r3, [r7, r4]	@ zero_extendqisi2
 196:lvgl/src/widgets/lv_canvas.c ****                 lv_img_buf_set_px_color(dest_img, x, y, cbuf[x]);
 971              		.loc 1 196 15 view .LVU319
 972 009c 002B     		cmp	r3, #0
 973 009e F5D0     		beq	.L42
 197:lvgl/src/widgets/lv_canvas.c ****                 lv_img_buf_set_px_alpha(dest_img, x, y, abuf[x]);
 974              		.loc 1 197 17 is_stmt 1 view .LVU320
 975 00a0 25B2     		sxth	r5, r4
 976 00a2 BDF91C60 		ldrsh	r6, [sp, #28]
 977 00a6 5AF82430 		ldr	r3, [r10, r4, lsl #2]
 978 00aa 3246     		mov	r2, r6
 979 00ac 2946     		mov	r1, r5
 980 00ae 4846     		mov	r0, r9
 981 00b0 FFF7FEFF 		bl	lv_img_buf_set_px_color
 982              	.LVL94:
 198:lvgl/src/widgets/lv_canvas.c ****             }
 983              		.loc 1 198 17 view .LVU321
 984 00b4 3B5D     		ldrb	r3, [r7, r4]	@ zero_extendqisi2
 985 00b6 3246     		mov	r2, r6
 986 00b8 2946     		mov	r1, r5
 987 00ba 4846     		mov	r0, r9
 988 00bc FFF7FEFF 		bl	lv_img_buf_set_px_alpha
 989              	.LVL95:
 990 00c0 E4E7     		b	.L42
 991              	.L47:
 202:lvgl/src/widgets/lv_canvas.c ****         dest_area.y2++;
 992              		.loc 1 202 9 discriminator 2 view .LVU322
 202:lvgl/src/widgets/lv_canvas.c ****         dest_area.y2++;
 993              		.loc 1 202 18 is_stmt 0 discriminator 2 view .LVU323
 994 00c2 BDF92230 		ldrsh	r3, [sp, #34]
 202:lvgl/src/widgets/lv_canvas.c ****         dest_area.y2++;
 995              		.loc 1 202 21 discriminator 2 view .LVU324
 996 00c6 0133     		adds	r3, r3, #1
 997 00c8 ADF82230 		strh	r3, [sp, #34]	@ movhi
 203:lvgl/src/widgets/lv_canvas.c ****     }
ARM GAS  C:\Users\OSD\AppData\Local\Temp\ccwADrda.s 			page 44


 998              		.loc 1 203 9 is_stmt 1 discriminator 2 view .LVU325
 203:lvgl/src/widgets/lv_canvas.c ****     }
 999              		.loc 1 203 18 is_stmt 0 discriminator 2 view .LVU326
 1000 00cc BDF92630 		ldrsh	r3, [sp, #38]
 203:lvgl/src/widgets/lv_canvas.c ****     }
 1001              		.loc 1 203 21 discriminator 2 view .LVU327
 1002 00d0 0133     		adds	r3, r3, #1
 1003 00d2 ADF82630 		strh	r3, [sp, #38]	@ movhi
 191:lvgl/src/widgets/lv_canvas.c ****         lv_draw_sw_transform(NULL, &dest_area, src_img->data, src_img->header.w, src_img->header.h,
 1004              		.loc 1 191 40 is_stmt 1 discriminator 2 view .LVU328
 191:lvgl/src/widgets/lv_canvas.c ****         lv_draw_sw_transform(NULL, &dest_area, src_img->data, src_img->header.w, src_img->header.h,
 1005              		.loc 1 191 41 is_stmt 0 discriminator 2 view .LVU329
 1006 00d6 079B     		ldr	r3, [sp, #28]
 1007 00d8 0133     		adds	r3, r3, #1
 1008 00da 0793     		str	r3, [sp, #28]
 1009              	.LVL96:
 1010              	.L40:
 191:lvgl/src/widgets/lv_canvas.c ****         lv_draw_sw_transform(NULL, &dest_area, src_img->data, src_img->header.w, src_img->header.h,
 1011              		.loc 1 191 16 is_stmt 1 discriminator 1 view .LVU330
 191:lvgl/src/widgets/lv_canvas.c ****         lv_draw_sw_transform(NULL, &dest_area, src_img->data, src_img->header.w, src_img->header.h,
 1012              		.loc 1 191 36 is_stmt 0 discriminator 1 view .LVU331
 1013 00dc B8F83E30 		ldrh	r3, [r8, #62]
 1014 00e0 C3F34A13 		ubfx	r3, r3, #5, #11
 191:lvgl/src/widgets/lv_canvas.c ****         lv_draw_sw_transform(NULL, &dest_area, src_img->data, src_img->header.w, src_img->header.h,
 1015              		.loc 1 191 5 discriminator 1 view .LVU332
 1016 00e4 079A     		ldr	r2, [sp, #28]
 1017 00e6 9342     		cmp	r3, r2
 1018 00e8 1BDD     		ble	.L48
 192:lvgl/src/widgets/lv_canvas.c ****                              &draw_dsc, canvas->dsc.header.cf, cbuf, abuf);
 1019              		.loc 1 192 9 is_stmt 1 view .LVU333
 192:lvgl/src/widgets/lv_canvas.c ****                              &draw_dsc, canvas->dsc.header.cf, cbuf, abuf);
 1020              		.loc 1 192 78 is_stmt 0 view .LVU334
 1021 00ea DBF80030 		ldr	r3, [fp]
 192:lvgl/src/widgets/lv_canvas.c ****                              &draw_dsc, canvas->dsc.header.cf, cbuf, abuf);
 1022              		.loc 1 192 9 view .LVU335
 1023 00ee C3F38A23 		ubfx	r3, r3, #10, #11
 192:lvgl/src/widgets/lv_canvas.c ****                              &draw_dsc, canvas->dsc.header.cf, cbuf, abuf);
 1024              		.loc 1 192 97 view .LVU336
 1025 00f2 BBF80220 		ldrh	r2, [fp, #2]
 193:lvgl/src/widgets/lv_canvas.c **** 
 1026              		.loc 1 193 59 view .LVU337
 1027 00f6 98F83C10 		ldrb	r1, [r8, #60]	@ zero_extendqisi2
 1028 00fa 01F01F01 		and	r1, r1, #31
 192:lvgl/src/widgets/lv_canvas.c ****                              &draw_dsc, canvas->dsc.header.cf, cbuf, abuf);
 1029              		.loc 1 192 9 view .LVU338
 1030 00fe 0597     		str	r7, [sp, #20]
 1031 0100 CDF810A0 		str	r10, [sp, #16]
 1032 0104 0391     		str	r1, [sp, #12]
 1033 0106 0AA9     		add	r1, sp, #40
 1034 0108 0291     		str	r1, [sp, #8]
 1035 010a 0193     		str	r3, [sp, #4]
 1036 010c C2F34A12 		ubfx	r2, r2, #5, #11
 1037 0110 0092     		str	r2, [sp]
 1038 0112 DBF80820 		ldr	r2, [fp, #8]
 1039 0116 08A9     		add	r1, sp, #32
 1040 0118 0020     		movs	r0, #0
 1041 011a FFF7FEFF 		bl	lv_draw_sw_transform
ARM GAS  C:\Users\OSD\AppData\Local\Temp\ccwADrda.s 			page 45


 1042              	.LVL97:
 195:lvgl/src/widgets/lv_canvas.c ****             if(abuf[x]) {
 1043              		.loc 1 195 9 is_stmt 1 view .LVU339
 195:lvgl/src/widgets/lv_canvas.c ****             if(abuf[x]) {
 1044              		.loc 1 195 15 is_stmt 0 view .LVU340
 1045 011e 0024     		movs	r4, #0
 195:lvgl/src/widgets/lv_canvas.c ****             if(abuf[x]) {
 1046              		.loc 1 195 9 view .LVU341
 1047 0120 B5E7     		b	.L41
 1048              	.LVL98:
 1049              	.L48:
 205:lvgl/src/widgets/lv_canvas.c ****     lv_mem_free(abuf);
 1050              		.loc 1 205 5 view .LVU342
 1051 0122 4346     		mov	r3, r8
 1052 0124 B846     		mov	r8, r7
 1053              	.LVL99:
 205:lvgl/src/widgets/lv_canvas.c ****     lv_mem_free(abuf);
 1054              		.loc 1 205 5 view .LVU343
 1055 0126 1F46     		mov	r7, r3
 1056              	.LVL100:
 205:lvgl/src/widgets/lv_canvas.c ****     lv_mem_free(abuf);
 1057              		.loc 1 205 5 is_stmt 1 view .LVU344
 1058 0128 5046     		mov	r0, r10
 1059 012a FFF7FEFF 		bl	lv_mem_free
 1060              	.LVL101:
 206:lvgl/src/widgets/lv_canvas.c **** 
 1061              		.loc 1 206 5 view .LVU345
 1062 012e 4046     		mov	r0, r8
 1063 0130 FFF7FEFF 		bl	lv_mem_free
 1064              	.LVL102:
 208:lvgl/src/widgets/lv_canvas.c **** 
 1065              		.loc 1 208 5 view .LVU346
 1066 0134 3846     		mov	r0, r7
 1067 0136 FFF7FEFF 		bl	lv_obj_invalidate
 1068              	.LVL103:
 222:lvgl/src/widgets/lv_canvas.c **** 
 1069              		.loc 1 222 1 is_stmt 0 view .LVU347
 1070 013a 11B0     		add	sp, sp, #68
 1071              		.cfi_def_cfa_offset 36
 1072              		@ sp needed
 1073 013c BDE8F08F 		pop	{r4, r5, r6, r7, r8, r9, r10, fp, pc}
 222:lvgl/src/widgets/lv_canvas.c **** 
 1074              		.loc 1 222 1 view .LVU348
 1075              		.cfi_endproc
 1076              	.LFE170:
 1078              		.section	.text.lv_canvas_blur_hor,"ax",%progbits
 1079              		.align	1
 1080              		.global	lv_canvas_blur_hor
 1081              		.syntax unified
 1082              		.thumb
 1083              		.thumb_func
 1085              	lv_canvas_blur_hor:
 1086              	.LVL104:
 1087              	.LFB171:
 225:lvgl/src/widgets/lv_canvas.c ****     LV_ASSERT_OBJ(obj, MY_CLASS);
 1088              		.loc 1 225 1 is_stmt 1 view -0
 1089              		.cfi_startproc
ARM GAS  C:\Users\OSD\AppData\Local\Temp\ccwADrda.s 			page 46


 1090              		@ args = 0, pretend = 0, frame = 64
 1091              		@ frame_needed = 0, uses_anonymous_args = 0
 225:lvgl/src/widgets/lv_canvas.c ****     LV_ASSERT_OBJ(obj, MY_CLASS);
 1092              		.loc 1 225 1 is_stmt 0 view .LVU350
 1093 0000 2DE9F04F 		push	{r4, r5, r6, r7, r8, r9, r10, fp, lr}
 1094              		.cfi_def_cfa_offset 36
 1095              		.cfi_offset 4, -36
 1096              		.cfi_offset 5, -32
 1097              		.cfi_offset 6, -28
 1098              		.cfi_offset 7, -24
 1099              		.cfi_offset 8, -20
 1100              		.cfi_offset 9, -16
 1101              		.cfi_offset 10, -12
 1102              		.cfi_offset 11, -8
 1103              		.cfi_offset 14, -4
 1104 0004 91B0     		sub	sp, sp, #68
 1105              		.cfi_def_cfa_offset 104
 226:lvgl/src/widgets/lv_canvas.c **** 
 1106              		.loc 1 226 5 is_stmt 1 view .LVU351
 226:lvgl/src/widgets/lv_canvas.c **** 
 1107              		.loc 1 226 5 view .LVU352
 226:lvgl/src/widgets/lv_canvas.c **** 
 1108              		.loc 1 226 5 view .LVU353
 228:lvgl/src/widgets/lv_canvas.c **** 
 1109              		.loc 1 228 5 view .LVU354
 228:lvgl/src/widgets/lv_canvas.c **** 
 1110              		.loc 1 228 7 is_stmt 0 view .LVU355
 1111 0006 0792     		str	r2, [sp, #28]
 1112 0008 002A     		cmp	r2, #0
 1113 000a 00F07B81 		beq	.L49
 1114 000e 8146     		mov	r9, r0
 230:lvgl/src/widgets/lv_canvas.c **** 
 1115              		.loc 1 230 5 is_stmt 1 view .LVU356
 1116              	.LVL105:
 232:lvgl/src/widgets/lv_canvas.c ****     if(area) {
 1117              		.loc 1 232 5 view .LVU357
 233:lvgl/src/widgets/lv_canvas.c ****         lv_area_copy(&a, area);
 1118              		.loc 1 233 5 view .LVU358
 233:lvgl/src/widgets/lv_canvas.c ****         lv_area_copy(&a, area);
 1119              		.loc 1 233 7 is_stmt 0 view .LVU359
 1120 0010 0029     		cmp	r1, #0
 1121 0012 3DD0     		beq	.L52
 234:lvgl/src/widgets/lv_canvas.c ****         if(a.x1 < 0) a.x1 = 0;
 1122              		.loc 1 234 9 is_stmt 1 view .LVU360
 1123              	.LVL106:
 1124              	.LBB28:
 1125              	.LBI28:
 1126              		.file 3 "d:\\kzc\\stm32\\h743ii_lcd\\lvgl\\src\\misc\\lv_area.h"
   1:d:\kzc\stm32\h743ii_lcd\lvgl\src\misc\lv_area.h **** /**
   2:d:\kzc\stm32\h743ii_lcd\lvgl\src\misc\lv_area.h ****  * @file lv_area.h
   3:d:\kzc\stm32\h743ii_lcd\lvgl\src\misc\lv_area.h ****  *
   4:d:\kzc\stm32\h743ii_lcd\lvgl\src\misc\lv_area.h ****  */
   5:d:\kzc\stm32\h743ii_lcd\lvgl\src\misc\lv_area.h **** 
   6:d:\kzc\stm32\h743ii_lcd\lvgl\src\misc\lv_area.h **** #ifndef LV_AREA_H
   7:d:\kzc\stm32\h743ii_lcd\lvgl\src\misc\lv_area.h **** #define LV_AREA_H
   8:d:\kzc\stm32\h743ii_lcd\lvgl\src\misc\lv_area.h **** 
   9:d:\kzc\stm32\h743ii_lcd\lvgl\src\misc\lv_area.h **** #ifdef __cplusplus
ARM GAS  C:\Users\OSD\AppData\Local\Temp\ccwADrda.s 			page 47


  10:d:\kzc\stm32\h743ii_lcd\lvgl\src\misc\lv_area.h **** extern "C" {
  11:d:\kzc\stm32\h743ii_lcd\lvgl\src\misc\lv_area.h **** #endif
  12:d:\kzc\stm32\h743ii_lcd\lvgl\src\misc\lv_area.h **** 
  13:d:\kzc\stm32\h743ii_lcd\lvgl\src\misc\lv_area.h **** /*********************
  14:d:\kzc\stm32\h743ii_lcd\lvgl\src\misc\lv_area.h ****  *      INCLUDES
  15:d:\kzc\stm32\h743ii_lcd\lvgl\src\misc\lv_area.h ****  *********************/
  16:d:\kzc\stm32\h743ii_lcd\lvgl\src\misc\lv_area.h **** #include "../lv_conf_internal.h"
  17:d:\kzc\stm32\h743ii_lcd\lvgl\src\misc\lv_area.h **** #include <stdbool.h>
  18:d:\kzc\stm32\h743ii_lcd\lvgl\src\misc\lv_area.h **** #include <stdint.h>
  19:d:\kzc\stm32\h743ii_lcd\lvgl\src\misc\lv_area.h **** 
  20:d:\kzc\stm32\h743ii_lcd\lvgl\src\misc\lv_area.h **** /*********************
  21:d:\kzc\stm32\h743ii_lcd\lvgl\src\misc\lv_area.h ****  *      DEFINES
  22:d:\kzc\stm32\h743ii_lcd\lvgl\src\misc\lv_area.h ****  *********************/
  23:d:\kzc\stm32\h743ii_lcd\lvgl\src\misc\lv_area.h **** 
  24:d:\kzc\stm32\h743ii_lcd\lvgl\src\misc\lv_area.h **** #if LV_USE_LARGE_COORD
  25:d:\kzc\stm32\h743ii_lcd\lvgl\src\misc\lv_area.h **** typedef int32_t lv_coord_t;
  26:d:\kzc\stm32\h743ii_lcd\lvgl\src\misc\lv_area.h **** #else
  27:d:\kzc\stm32\h743ii_lcd\lvgl\src\misc\lv_area.h **** typedef int16_t lv_coord_t;
  28:d:\kzc\stm32\h743ii_lcd\lvgl\src\misc\lv_area.h **** #endif
  29:d:\kzc\stm32\h743ii_lcd\lvgl\src\misc\lv_area.h **** 
  30:d:\kzc\stm32\h743ii_lcd\lvgl\src\misc\lv_area.h **** /**********************
  31:d:\kzc\stm32\h743ii_lcd\lvgl\src\misc\lv_area.h ****  *      TYPEDEFS
  32:d:\kzc\stm32\h743ii_lcd\lvgl\src\misc\lv_area.h ****  **********************/
  33:d:\kzc\stm32\h743ii_lcd\lvgl\src\misc\lv_area.h **** 
  34:d:\kzc\stm32\h743ii_lcd\lvgl\src\misc\lv_area.h **** /**
  35:d:\kzc\stm32\h743ii_lcd\lvgl\src\misc\lv_area.h ****  * Represents a point on the screen.
  36:d:\kzc\stm32\h743ii_lcd\lvgl\src\misc\lv_area.h ****  */
  37:d:\kzc\stm32\h743ii_lcd\lvgl\src\misc\lv_area.h **** typedef struct {
  38:d:\kzc\stm32\h743ii_lcd\lvgl\src\misc\lv_area.h ****     lv_coord_t x;
  39:d:\kzc\stm32\h743ii_lcd\lvgl\src\misc\lv_area.h ****     lv_coord_t y;
  40:d:\kzc\stm32\h743ii_lcd\lvgl\src\misc\lv_area.h **** } lv_point_t;
  41:d:\kzc\stm32\h743ii_lcd\lvgl\src\misc\lv_area.h **** 
  42:d:\kzc\stm32\h743ii_lcd\lvgl\src\misc\lv_area.h **** /** Represents an area of the screen.*/
  43:d:\kzc\stm32\h743ii_lcd\lvgl\src\misc\lv_area.h **** typedef struct {
  44:d:\kzc\stm32\h743ii_lcd\lvgl\src\misc\lv_area.h ****     lv_coord_t x1;
  45:d:\kzc\stm32\h743ii_lcd\lvgl\src\misc\lv_area.h ****     lv_coord_t y1;
  46:d:\kzc\stm32\h743ii_lcd\lvgl\src\misc\lv_area.h ****     lv_coord_t x2;
  47:d:\kzc\stm32\h743ii_lcd\lvgl\src\misc\lv_area.h ****     lv_coord_t y2;
  48:d:\kzc\stm32\h743ii_lcd\lvgl\src\misc\lv_area.h **** } lv_area_t;
  49:d:\kzc\stm32\h743ii_lcd\lvgl\src\misc\lv_area.h **** 
  50:d:\kzc\stm32\h743ii_lcd\lvgl\src\misc\lv_area.h **** /** Alignments*/
  51:d:\kzc\stm32\h743ii_lcd\lvgl\src\misc\lv_area.h **** enum {
  52:d:\kzc\stm32\h743ii_lcd\lvgl\src\misc\lv_area.h ****     LV_ALIGN_DEFAULT = 0,
  53:d:\kzc\stm32\h743ii_lcd\lvgl\src\misc\lv_area.h ****     LV_ALIGN_TOP_LEFT,
  54:d:\kzc\stm32\h743ii_lcd\lvgl\src\misc\lv_area.h ****     LV_ALIGN_TOP_MID,
  55:d:\kzc\stm32\h743ii_lcd\lvgl\src\misc\lv_area.h ****     LV_ALIGN_TOP_RIGHT,
  56:d:\kzc\stm32\h743ii_lcd\lvgl\src\misc\lv_area.h ****     LV_ALIGN_BOTTOM_LEFT,
  57:d:\kzc\stm32\h743ii_lcd\lvgl\src\misc\lv_area.h ****     LV_ALIGN_BOTTOM_MID,
  58:d:\kzc\stm32\h743ii_lcd\lvgl\src\misc\lv_area.h ****     LV_ALIGN_BOTTOM_RIGHT,
  59:d:\kzc\stm32\h743ii_lcd\lvgl\src\misc\lv_area.h ****     LV_ALIGN_LEFT_MID,
  60:d:\kzc\stm32\h743ii_lcd\lvgl\src\misc\lv_area.h ****     LV_ALIGN_RIGHT_MID,
  61:d:\kzc\stm32\h743ii_lcd\lvgl\src\misc\lv_area.h ****     LV_ALIGN_CENTER,
  62:d:\kzc\stm32\h743ii_lcd\lvgl\src\misc\lv_area.h **** 
  63:d:\kzc\stm32\h743ii_lcd\lvgl\src\misc\lv_area.h ****     LV_ALIGN_OUT_TOP_LEFT,
  64:d:\kzc\stm32\h743ii_lcd\lvgl\src\misc\lv_area.h ****     LV_ALIGN_OUT_TOP_MID,
  65:d:\kzc\stm32\h743ii_lcd\lvgl\src\misc\lv_area.h ****     LV_ALIGN_OUT_TOP_RIGHT,
  66:d:\kzc\stm32\h743ii_lcd\lvgl\src\misc\lv_area.h ****     LV_ALIGN_OUT_BOTTOM_LEFT,
ARM GAS  C:\Users\OSD\AppData\Local\Temp\ccwADrda.s 			page 48


  67:d:\kzc\stm32\h743ii_lcd\lvgl\src\misc\lv_area.h ****     LV_ALIGN_OUT_BOTTOM_MID,
  68:d:\kzc\stm32\h743ii_lcd\lvgl\src\misc\lv_area.h ****     LV_ALIGN_OUT_BOTTOM_RIGHT,
  69:d:\kzc\stm32\h743ii_lcd\lvgl\src\misc\lv_area.h ****     LV_ALIGN_OUT_LEFT_TOP,
  70:d:\kzc\stm32\h743ii_lcd\lvgl\src\misc\lv_area.h ****     LV_ALIGN_OUT_LEFT_MID,
  71:d:\kzc\stm32\h743ii_lcd\lvgl\src\misc\lv_area.h ****     LV_ALIGN_OUT_LEFT_BOTTOM,
  72:d:\kzc\stm32\h743ii_lcd\lvgl\src\misc\lv_area.h ****     LV_ALIGN_OUT_RIGHT_TOP,
  73:d:\kzc\stm32\h743ii_lcd\lvgl\src\misc\lv_area.h ****     LV_ALIGN_OUT_RIGHT_MID,
  74:d:\kzc\stm32\h743ii_lcd\lvgl\src\misc\lv_area.h ****     LV_ALIGN_OUT_RIGHT_BOTTOM,
  75:d:\kzc\stm32\h743ii_lcd\lvgl\src\misc\lv_area.h **** };
  76:d:\kzc\stm32\h743ii_lcd\lvgl\src\misc\lv_area.h **** typedef uint8_t lv_align_t;
  77:d:\kzc\stm32\h743ii_lcd\lvgl\src\misc\lv_area.h **** 
  78:d:\kzc\stm32\h743ii_lcd\lvgl\src\misc\lv_area.h **** enum {
  79:d:\kzc\stm32\h743ii_lcd\lvgl\src\misc\lv_area.h ****     LV_DIR_NONE     = 0x00,
  80:d:\kzc\stm32\h743ii_lcd\lvgl\src\misc\lv_area.h ****     LV_DIR_LEFT     = (1 << 0),
  81:d:\kzc\stm32\h743ii_lcd\lvgl\src\misc\lv_area.h ****     LV_DIR_RIGHT    = (1 << 1),
  82:d:\kzc\stm32\h743ii_lcd\lvgl\src\misc\lv_area.h ****     LV_DIR_TOP      = (1 << 2),
  83:d:\kzc\stm32\h743ii_lcd\lvgl\src\misc\lv_area.h ****     LV_DIR_BOTTOM   = (1 << 3),
  84:d:\kzc\stm32\h743ii_lcd\lvgl\src\misc\lv_area.h ****     LV_DIR_HOR      = LV_DIR_LEFT | LV_DIR_RIGHT,
  85:d:\kzc\stm32\h743ii_lcd\lvgl\src\misc\lv_area.h ****     LV_DIR_VER      = LV_DIR_TOP | LV_DIR_BOTTOM,
  86:d:\kzc\stm32\h743ii_lcd\lvgl\src\misc\lv_area.h ****     LV_DIR_ALL      = LV_DIR_HOR | LV_DIR_VER,
  87:d:\kzc\stm32\h743ii_lcd\lvgl\src\misc\lv_area.h **** };
  88:d:\kzc\stm32\h743ii_lcd\lvgl\src\misc\lv_area.h **** 
  89:d:\kzc\stm32\h743ii_lcd\lvgl\src\misc\lv_area.h **** typedef uint8_t lv_dir_t;
  90:d:\kzc\stm32\h743ii_lcd\lvgl\src\misc\lv_area.h **** 
  91:d:\kzc\stm32\h743ii_lcd\lvgl\src\misc\lv_area.h **** /**********************
  92:d:\kzc\stm32\h743ii_lcd\lvgl\src\misc\lv_area.h ****  * GLOBAL PROTOTYPES
  93:d:\kzc\stm32\h743ii_lcd\lvgl\src\misc\lv_area.h ****  **********************/
  94:d:\kzc\stm32\h743ii_lcd\lvgl\src\misc\lv_area.h **** 
  95:d:\kzc\stm32\h743ii_lcd\lvgl\src\misc\lv_area.h **** /**
  96:d:\kzc\stm32\h743ii_lcd\lvgl\src\misc\lv_area.h ****  * Initialize an area
  97:d:\kzc\stm32\h743ii_lcd\lvgl\src\misc\lv_area.h ****  * @param area_p pointer to an area
  98:d:\kzc\stm32\h743ii_lcd\lvgl\src\misc\lv_area.h ****  * @param x1 left coordinate of the area
  99:d:\kzc\stm32\h743ii_lcd\lvgl\src\misc\lv_area.h ****  * @param y1 top coordinate of the area
 100:d:\kzc\stm32\h743ii_lcd\lvgl\src\misc\lv_area.h ****  * @param x2 right coordinate of the area
 101:d:\kzc\stm32\h743ii_lcd\lvgl\src\misc\lv_area.h ****  * @param y2 bottom coordinate of the area
 102:d:\kzc\stm32\h743ii_lcd\lvgl\src\misc\lv_area.h ****  */
 103:d:\kzc\stm32\h743ii_lcd\lvgl\src\misc\lv_area.h **** void lv_area_set(lv_area_t * area_p, lv_coord_t x1, lv_coord_t y1, lv_coord_t x2, lv_coord_t y2);
 104:d:\kzc\stm32\h743ii_lcd\lvgl\src\misc\lv_area.h **** 
 105:d:\kzc\stm32\h743ii_lcd\lvgl\src\misc\lv_area.h **** /**
 106:d:\kzc\stm32\h743ii_lcd\lvgl\src\misc\lv_area.h ****  * Copy an area
 107:d:\kzc\stm32\h743ii_lcd\lvgl\src\misc\lv_area.h ****  * @param dest pointer to the destination area
 108:d:\kzc\stm32\h743ii_lcd\lvgl\src\misc\lv_area.h ****  * @param src pointer to the source area
 109:d:\kzc\stm32\h743ii_lcd\lvgl\src\misc\lv_area.h ****  */
 110:d:\kzc\stm32\h743ii_lcd\lvgl\src\misc\lv_area.h **** inline static void lv_area_copy(lv_area_t * dest, const lv_area_t * src)
 1127              		.loc 3 110 20 view .LVU361
 1128              	.LBB29:
 111:d:\kzc\stm32\h743ii_lcd\lvgl\src\misc\lv_area.h **** {
 112:d:\kzc\stm32\h743ii_lcd\lvgl\src\misc\lv_area.h ****     dest->x1 = src->x1;
 1129              		.loc 3 112 5 view .LVU362
 1130              		.loc 3 112 19 is_stmt 0 view .LVU363
 1131 0014 B1F90040 		ldrsh	r4, [r1]
 1132              		.loc 3 112 14 view .LVU364
 1133 0018 ADF83840 		strh	r4, [sp, #56]	@ movhi
 113:d:\kzc\stm32\h743ii_lcd\lvgl\src\misc\lv_area.h ****     dest->y1 = src->y1;
 1134              		.loc 3 113 5 is_stmt 1 view .LVU365
 1135              		.loc 3 113 19 is_stmt 0 view .LVU366
 1136 001c B1F90230 		ldrsh	r3, [r1, #2]
ARM GAS  C:\Users\OSD\AppData\Local\Temp\ccwADrda.s 			page 49


 1137              		.loc 3 113 14 view .LVU367
 1138 0020 ADF83A30 		strh	r3, [sp, #58]	@ movhi
 114:d:\kzc\stm32\h743ii_lcd\lvgl\src\misc\lv_area.h ****     dest->x2 = src->x2;
 1139              		.loc 3 114 5 is_stmt 1 view .LVU368
 1140              		.loc 3 114 19 is_stmt 0 view .LVU369
 1141 0024 B1F90400 		ldrsh	r0, [r1, #4]
 1142              	.LVL107:
 1143              		.loc 3 114 14 view .LVU370
 1144 0028 ADF83C00 		strh	r0, [sp, #60]	@ movhi
 115:d:\kzc\stm32\h743ii_lcd\lvgl\src\misc\lv_area.h ****     dest->y2 = src->y2;
 1145              		.loc 3 115 5 is_stmt 1 view .LVU371
 1146              		.loc 3 115 19 is_stmt 0 view .LVU372
 1147 002c B1F90620 		ldrsh	r2, [r1, #6]
 1148              	.LVL108:
 1149              		.loc 3 115 14 view .LVU373
 1150 0030 ADF83E20 		strh	r2, [sp, #62]	@ movhi
 1151              	.LVL109:
 1152              		.loc 3 115 14 view .LVU374
 1153              	.LBE29:
 1154              	.LBE28:
 235:lvgl/src/widgets/lv_canvas.c ****         if(a.y1 < 0) a.y1 = 0;
 1155              		.loc 1 235 9 is_stmt 1 view .LVU375
 235:lvgl/src/widgets/lv_canvas.c ****         if(a.y1 < 0) a.y1 = 0;
 1156              		.loc 1 235 11 is_stmt 0 view .LVU376
 1157 0034 002C     		cmp	r4, #0
 1158 0036 23DB     		blt	.L80
 1159              	.LVL110:
 1160              	.L53:
 236:lvgl/src/widgets/lv_canvas.c ****         if(a.x2 > canvas->dsc.header.w - 1) a.x2 = canvas->dsc.header.w - 1;
 1161              		.loc 1 236 9 is_stmt 1 view .LVU377
 236:lvgl/src/widgets/lv_canvas.c ****         if(a.x2 > canvas->dsc.header.w - 1) a.x2 = canvas->dsc.header.w - 1;
 1162              		.loc 1 236 11 is_stmt 0 view .LVU378
 1163 0038 002B     		cmp	r3, #0
 1164 003a 25DB     		blt	.L81
 1165              	.L54:
 237:lvgl/src/widgets/lv_canvas.c ****         if(a.y2 > canvas->dsc.header.h - 1) a.y2 = canvas->dsc.header.h - 1;
 1166              		.loc 1 237 9 is_stmt 1 view .LVU379
 237:lvgl/src/widgets/lv_canvas.c ****         if(a.y2 > canvas->dsc.header.h - 1) a.y2 = canvas->dsc.header.h - 1;
 1167              		.loc 1 237 37 is_stmt 0 view .LVU380
 1168 003c D9F83C30 		ldr	r3, [r9, #60]
 1169 0040 C3F38A23 		ubfx	r3, r3, #10, #11
 237:lvgl/src/widgets/lv_canvas.c ****         if(a.y2 > canvas->dsc.header.h - 1) a.y2 = canvas->dsc.header.h - 1;
 1170              		.loc 1 237 11 view .LVU381
 1171 0044 8342     		cmp	r3, r0
 1172 0046 02DC     		bgt	.L55
 237:lvgl/src/widgets/lv_canvas.c ****         if(a.y2 > canvas->dsc.header.h - 1) a.y2 = canvas->dsc.header.h - 1;
 1173              		.loc 1 237 45 is_stmt 1 discriminator 1 view .LVU382
 237:lvgl/src/widgets/lv_canvas.c ****         if(a.y2 > canvas->dsc.header.h - 1) a.y2 = canvas->dsc.header.h - 1;
 1174              		.loc 1 237 73 is_stmt 0 discriminator 1 view .LVU383
 1175 0048 013B     		subs	r3, r3, #1
 237:lvgl/src/widgets/lv_canvas.c ****         if(a.y2 > canvas->dsc.header.h - 1) a.y2 = canvas->dsc.header.h - 1;
 1176              		.loc 1 237 50 discriminator 1 view .LVU384
 1177 004a ADF83C30 		strh	r3, [sp, #60]	@ movhi
 1178              	.L55:
 238:lvgl/src/widgets/lv_canvas.c ****     }
 1179              		.loc 1 238 9 is_stmt 1 view .LVU385
 238:lvgl/src/widgets/lv_canvas.c ****     }
ARM GAS  C:\Users\OSD\AppData\Local\Temp\ccwADrda.s 			page 50


 1180              		.loc 1 238 37 is_stmt 0 view .LVU386
 1181 004e B9F83E30 		ldrh	r3, [r9, #62]
 1182 0052 C3F34A13 		ubfx	r3, r3, #5, #11
 238:lvgl/src/widgets/lv_canvas.c ****     }
 1183              		.loc 1 238 11 view .LVU387
 1184 0056 9342     		cmp	r3, r2
 1185 0058 02DC     		bgt	.L56
 238:lvgl/src/widgets/lv_canvas.c ****     }
 1186              		.loc 1 238 45 is_stmt 1 discriminator 1 view .LVU388
 238:lvgl/src/widgets/lv_canvas.c ****     }
 1187              		.loc 1 238 73 is_stmt 0 discriminator 1 view .LVU389
 1188 005a 013B     		subs	r3, r3, #1
 238:lvgl/src/widgets/lv_canvas.c ****     }
 1189              		.loc 1 238 50 discriminator 1 view .LVU390
 1190 005c ADF83E30 		strh	r3, [sp, #62]	@ movhi
 1191              	.L56:
 247:lvgl/src/widgets/lv_canvas.c **** 
 1192              		.loc 1 247 5 is_stmt 1 view .LVU391
 1193              	.LVL111:
 1194              	.LBB30:
 1195              	.LBI30:
 349:lvgl/src/widgets/../core/lv_obj_style_gen.h **** {
 1196              		.loc 2 349 26 view .LVU392
 1197              	.LBB31:
 351:lvgl/src/widgets/../core/lv_obj_style_gen.h ****     return v.color;
 1198              		.loc 2 351 5 view .LVU393
 351:lvgl/src/widgets/../core/lv_obj_style_gen.h ****     return v.color;
 1199              		.loc 2 351 26 is_stmt 0 view .LVU394
 1200 0060 4722     		movs	r2, #71
 1201 0062 0021     		movs	r1, #0
 1202 0064 4846     		mov	r0, r9
 1203 0066 FFF7FEFF 		bl	lv_obj_get_style_prop
 1204              	.LVL112:
 1205 006a 0390     		str	r0, [sp, #12]
 1206              		.loc 2 352 5 is_stmt 1 view .LVU395
 1207              	.LVL113:
 1208              		.loc 2 352 5 is_stmt 0 view .LVU396
 1209              	.LBE31:
 1210              	.LBE30:
 249:lvgl/src/widgets/lv_canvas.c ****     uint16_t r_front = r / 2;
 1211              		.loc 1 249 5 is_stmt 1 view .LVU397
 249:lvgl/src/widgets/lv_canvas.c ****     uint16_t r_front = r / 2;
 1212              		.loc 1 249 14 is_stmt 0 view .LVU398
 1213 006c 079B     		ldr	r3, [sp, #28]
 1214 006e 5A08     		lsrs	r2, r3, #1
 1215 0070 0292     		str	r2, [sp, #8]
 1216              	.LVL114:
 250:lvgl/src/widgets/lv_canvas.c **** 
 1217              		.loc 1 250 5 is_stmt 1 view .LVU399
 252:lvgl/src/widgets/lv_canvas.c **** 
 1218              		.loc 1 252 5 view .LVU400
 252:lvgl/src/widgets/lv_canvas.c **** 
 1219              		.loc 1 252 7 is_stmt 0 view .LVU401
 1220 0072 13F0010F 		tst	r3, #1
 1221 0076 1DD1     		bne	.L77
 252:lvgl/src/widgets/lv_canvas.c **** 
 1222              		.loc 1 252 24 is_stmt 1 discriminator 1 view .LVU402
ARM GAS  C:\Users\OSD\AppData\Local\Temp\ccwADrda.s 			page 51


 252:lvgl/src/widgets/lv_canvas.c **** 
 1223              		.loc 1 252 30 is_stmt 0 discriminator 1 view .LVU403
 1224 0078 531E     		subs	r3, r2, #1
 1225 007a 9BB2     		uxth	r3, r3
 1226 007c 0693     		str	r3, [sp, #24]
 1227              	.LVL115:
 252:lvgl/src/widgets/lv_canvas.c **** 
 1228              		.loc 1 252 30 discriminator 1 view .LVU404
 1229 007e 1BE0     		b	.L57
 1230              	.LVL116:
 1231              	.L80:
 235:lvgl/src/widgets/lv_canvas.c ****         if(a.y1 < 0) a.y1 = 0;
 1232              		.loc 1 235 22 is_stmt 1 discriminator 1 view .LVU405
 235:lvgl/src/widgets/lv_canvas.c ****         if(a.y1 < 0) a.y1 = 0;
 1233              		.loc 1 235 27 is_stmt 0 discriminator 1 view .LVU406
 1234 0080 0021     		movs	r1, #0
 1235              	.LVL117:
 235:lvgl/src/widgets/lv_canvas.c ****         if(a.y1 < 0) a.y1 = 0;
 1236              		.loc 1 235 27 discriminator 1 view .LVU407
 1237 0082 ADF83810 		strh	r1, [sp, #56]	@ movhi
 1238 0086 D7E7     		b	.L53
 1239              	.L81:
 236:lvgl/src/widgets/lv_canvas.c ****         if(a.x2 > canvas->dsc.header.w - 1) a.x2 = canvas->dsc.header.w - 1;
 1240              		.loc 1 236 22 is_stmt 1 discriminator 1 view .LVU408
 236:lvgl/src/widgets/lv_canvas.c ****         if(a.x2 > canvas->dsc.header.w - 1) a.x2 = canvas->dsc.header.w - 1;
 1241              		.loc 1 236 27 is_stmt 0 discriminator 1 view .LVU409
 1242 0088 0023     		movs	r3, #0
 1243 008a ADF83A30 		strh	r3, [sp, #58]	@ movhi
 1244 008e D5E7     		b	.L54
 1245              	.LVL118:
 1246              	.L52:
 241:lvgl/src/widgets/lv_canvas.c ****         a.y1 = 0;
 1247              		.loc 1 241 9 is_stmt 1 view .LVU410
 241:lvgl/src/widgets/lv_canvas.c ****         a.y1 = 0;
 1248              		.loc 1 241 14 is_stmt 0 view .LVU411
 1249 0090 0023     		movs	r3, #0
 1250 0092 ADF83830 		strh	r3, [sp, #56]	@ movhi
 242:lvgl/src/widgets/lv_canvas.c ****         a.x2 = canvas->dsc.header.w - 1;
 1251              		.loc 1 242 9 is_stmt 1 view .LVU412
 242:lvgl/src/widgets/lv_canvas.c ****         a.x2 = canvas->dsc.header.w - 1;
 1252              		.loc 1 242 14 is_stmt 0 view .LVU413
 1253 0096 ADF83A30 		strh	r3, [sp, #58]	@ movhi
 243:lvgl/src/widgets/lv_canvas.c ****         a.y2 = canvas->dsc.header.h - 1;
 1254              		.loc 1 243 9 is_stmt 1 view .LVU414
 243:lvgl/src/widgets/lv_canvas.c ****         a.y2 = canvas->dsc.header.h - 1;
 1255              		.loc 1 243 34 is_stmt 0 view .LVU415
 1256 009a C36B     		ldr	r3, [r0, #60]
 1257 009c C3F38A23 		ubfx	r3, r3, #10, #11
 243:lvgl/src/widgets/lv_canvas.c ****         a.y2 = canvas->dsc.header.h - 1;
 1258              		.loc 1 243 37 view .LVU416
 1259 00a0 013B     		subs	r3, r3, #1
 243:lvgl/src/widgets/lv_canvas.c ****         a.y2 = canvas->dsc.header.h - 1;
 1260              		.loc 1 243 14 view .LVU417
 1261 00a2 ADF83C30 		strh	r3, [sp, #60]	@ movhi
 244:lvgl/src/widgets/lv_canvas.c ****     }
 1262              		.loc 1 244 9 is_stmt 1 view .LVU418
 244:lvgl/src/widgets/lv_canvas.c ****     }
ARM GAS  C:\Users\OSD\AppData\Local\Temp\ccwADrda.s 			page 52


 1263              		.loc 1 244 34 is_stmt 0 view .LVU419
 1264 00a6 C38F     		ldrh	r3, [r0, #62]
 1265 00a8 C3F34A13 		ubfx	r3, r3, #5, #11
 244:lvgl/src/widgets/lv_canvas.c ****     }
 1266              		.loc 1 244 37 view .LVU420
 1267 00ac 013B     		subs	r3, r3, #1
 244:lvgl/src/widgets/lv_canvas.c ****     }
 1268              		.loc 1 244 14 view .LVU421
 1269 00ae ADF83E30 		strh	r3, [sp, #62]	@ movhi
 1270 00b2 D5E7     		b	.L56
 1271              	.LVL119:
 1272              	.L77:
 249:lvgl/src/widgets/lv_canvas.c ****     uint16_t r_front = r / 2;
 1273              		.loc 1 249 14 view .LVU422
 1274 00b4 029B     		ldr	r3, [sp, #8]
 1275 00b6 0693     		str	r3, [sp, #24]
 1276              	.LVL120:
 1277              	.L57:
 254:lvgl/src/widgets/lv_canvas.c **** 
 1278              		.loc 1 254 5 is_stmt 1 view .LVU423
 254:lvgl/src/widgets/lv_canvas.c **** 
 1279              		.loc 1 254 60 is_stmt 0 view .LVU424
 1280 00b8 99F83C00 		ldrb	r0, [r9, #60]	@ zero_extendqisi2
 254:lvgl/src/widgets/lv_canvas.c **** 
 1281              		.loc 1 254 22 view .LVU425
 1282 00bc 00F01F00 		and	r0, r0, #31
 1283 00c0 FFF7FEFF 		bl	lv_img_cf_has_alpha
 1284              	.LVL121:
 254:lvgl/src/widgets/lv_canvas.c **** 
 1285              		.loc 1 254 22 view .LVU426
 1286 00c4 8346     		mov	fp, r0
 1287              	.LVL122:
 256:lvgl/src/widgets/lv_canvas.c ****     uint8_t * line_buf = lv_mem_buf_get(line_w);
 1288              		.loc 1 256 5 is_stmt 1 view .LVU427
 256:lvgl/src/widgets/lv_canvas.c ****     uint8_t * line_buf = lv_mem_buf_get(line_w);
 1289              		.loc 1 256 67 is_stmt 0 view .LVU428
 1290 00c6 D9F83C00 		ldr	r0, [r9, #60]
 256:lvgl/src/widgets/lv_canvas.c ****     uint8_t * line_buf = lv_mem_buf_get(line_w);
 1291              		.loc 1 256 92 view .LVU429
 1292 00ca 99F83C20 		ldrb	r2, [r9, #60]	@ zero_extendqisi2
 256:lvgl/src/widgets/lv_canvas.c ****     uint8_t * line_buf = lv_mem_buf_get(line_w);
 1293              		.loc 1 256 25 view .LVU430
 1294 00ce 02F01F02 		and	r2, r2, #31
 1295 00d2 0121     		movs	r1, #1
 1296 00d4 C0F38A20 		ubfx	r0, r0, #10, #11
 1297 00d8 FFF7FEFF 		bl	lv_img_buf_get_img_size
 1298              	.LVL123:
 256:lvgl/src/widgets/lv_canvas.c ****     uint8_t * line_buf = lv_mem_buf_get(line_w);
 1299              		.loc 1 256 16 view .LVU431
 1300 00dc 03B2     		sxth	r3, r0
 1301 00de 0993     		str	r3, [sp, #36]
 1302              	.LVL124:
 257:lvgl/src/widgets/lv_canvas.c **** 
 1303              		.loc 1 257 5 is_stmt 1 view .LVU432
 257:lvgl/src/widgets/lv_canvas.c **** 
 1304              		.loc 1 257 26 is_stmt 0 view .LVU433
 1305 00e0 1846     		mov	r0, r3
ARM GAS  C:\Users\OSD\AppData\Local\Temp\ccwADrda.s 			page 53


 1306 00e2 FFF7FEFF 		bl	lv_mem_buf_get
 1307              	.LVL125:
 257:lvgl/src/widgets/lv_canvas.c **** 
 1308              		.loc 1 257 26 view .LVU434
 1309 00e6 0890     		str	r0, [sp, #32]
 1310              	.LVL126:
 259:lvgl/src/widgets/lv_canvas.c ****     line_img.data = line_buf;
 1311              		.loc 1 259 5 is_stmt 1 view .LVU435
 260:lvgl/src/widgets/lv_canvas.c ****     line_img.header.always_zero = 0;
 1312              		.loc 1 260 5 view .LVU436
 260:lvgl/src/widgets/lv_canvas.c ****     line_img.header.always_zero = 0;
 1313              		.loc 1 260 19 is_stmt 0 view .LVU437
 1314 00e8 0D90     		str	r0, [sp, #52]
 261:lvgl/src/widgets/lv_canvas.c ****     line_img.header.w = canvas->dsc.header.w;
 1315              		.loc 1 261 5 is_stmt 1 view .LVU438
 261:lvgl/src/widgets/lv_canvas.c ****     line_img.header.w = canvas->dsc.header.w;
 1316              		.loc 1 261 33 is_stmt 0 view .LVU439
 1317 00ea 9DF82C30 		ldrb	r3, [sp, #44]	@ zero_extendqisi2
 1318 00ee 6FF34713 		bfc	r3, #5, #3
 1319 00f2 8DF82C30 		strb	r3, [sp, #44]
 262:lvgl/src/widgets/lv_canvas.c ****     line_img.header.h = 1;
 1320              		.loc 1 262 5 is_stmt 1 view .LVU440
 262:lvgl/src/widgets/lv_canvas.c ****     line_img.header.h = 1;
 1321              		.loc 1 262 43 is_stmt 0 view .LVU441
 1322 00f6 D9F83C30 		ldr	r3, [r9, #60]
 1323 00fa C3F38A23 		ubfx	r3, r3, #10, #11
 262:lvgl/src/widgets/lv_canvas.c ****     line_img.header.h = 1;
 1324              		.loc 1 262 23 view .LVU442
 1325 00fe 0B9A     		ldr	r2, [sp, #44]
 1326 0100 63F39422 		bfi	r2, r3, #10, #11
 1327 0104 0B92     		str	r2, [sp, #44]
 263:lvgl/src/widgets/lv_canvas.c ****     line_img.header.cf = canvas->dsc.header.cf;
 1328              		.loc 1 263 5 is_stmt 1 view .LVU443
 263:lvgl/src/widgets/lv_canvas.c ****     line_img.header.cf = canvas->dsc.header.cf;
 1329              		.loc 1 263 23 is_stmt 0 view .LVU444
 1330 0106 BDF82E30 		ldrh	r3, [sp, #46]
 1331 010a 0122     		movs	r2, #1
 1332 010c 62F34F13 		bfi	r3, r2, #5, #11
 1333 0110 ADF82E30 		strh	r3, [sp, #46]	@ movhi
 264:lvgl/src/widgets/lv_canvas.c **** 
 1334              		.loc 1 264 5 is_stmt 1 view .LVU445
 264:lvgl/src/widgets/lv_canvas.c **** 
 1335              		.loc 1 264 44 is_stmt 0 view .LVU446
 1336 0114 99F83C20 		ldrb	r2, [r9, #60]	@ zero_extendqisi2
 264:lvgl/src/widgets/lv_canvas.c **** 
 1337              		.loc 1 264 24 view .LVU447
 1338 0118 9DF82C30 		ldrb	r3, [sp, #44]	@ zero_extendqisi2
 1339 011c 62F30403 		bfi	r3, r2, #0, #5
 1340 0120 8DF82C30 		strb	r3, [sp, #44]
 266:lvgl/src/widgets/lv_canvas.c ****     lv_coord_t y;
 1341              		.loc 1 266 5 is_stmt 1 view .LVU448
 267:lvgl/src/widgets/lv_canvas.c ****     lv_coord_t x_safe;
 1342              		.loc 1 267 5 view .LVU449
 268:lvgl/src/widgets/lv_canvas.c **** 
 1343              		.loc 1 268 5 view .LVU450
 270:lvgl/src/widgets/lv_canvas.c ****         uint32_t asum = 0;
 1344              		.loc 1 270 5 view .LVU451
ARM GAS  C:\Users\OSD\AppData\Local\Temp\ccwADrda.s 			page 54


 270:lvgl/src/widgets/lv_canvas.c ****         uint32_t asum = 0;
 1345              		.loc 1 270 11 is_stmt 0 view .LVU452
 1346 0124 BDF93A30 		ldrsh	r3, [sp, #58]
 1347 0128 0593     		str	r3, [sp, #20]
 1348              	.LVL127:
 270:lvgl/src/widgets/lv_canvas.c ****         uint32_t asum = 0;
 1349              		.loc 1 270 5 view .LVU453
 1350 012a C6E0     		b	.L58
 1351              	.LVL128:
 1352              	.L83:
 1353              	.LBB32:
 285:lvgl/src/widgets/lv_canvas.c **** 
 1354              		.loc 1 285 27 is_stmt 1 discriminator 1 view .LVU454
 285:lvgl/src/widgets/lv_canvas.c **** 
 1355              		.loc 1 285 33 is_stmt 0 discriminator 1 view .LVU455
 1356 012c 0022     		movs	r2, #0
 1357 012e 2146     		mov	r1, r4
 1358 0130 0BA8     		add	r0, sp, #44
 1359 0132 FFF7FEFF 		bl	lv_img_buf_get_px_alpha
 1360              	.LVL129:
 1361 0136 0190     		str	r0, [sp, #4]
 1362              	.LVL130:
 285:lvgl/src/widgets/lv_canvas.c **** 
 1363              		.loc 1 285 33 discriminator 1 view .LVU456
 1364 0138 1BE0     		b	.L61
 1365              	.LVL131:
 1366              	.L62:
 280:lvgl/src/widgets/lv_canvas.c ****             x_safe = x < 0 ? 0 : x;
 1367              		.loc 1 280 53 is_stmt 1 discriminator 2 view .LVU457
 280:lvgl/src/widgets/lv_canvas.c ****             x_safe = x < 0 ? 0 : x;
 1368              		.loc 1 280 54 is_stmt 0 discriminator 2 view .LVU458
 1369 013a 08F10108 		add	r8, r8, #1
 1370              	.LVL132:
 280:lvgl/src/widgets/lv_canvas.c ****             x_safe = x < 0 ? 0 : x;
 1371              		.loc 1 280 54 discriminator 2 view .LVU459
 1372 013e 0FFA88F8 		sxth	r8, r8
 1373              	.LVL133:
 1374              	.L59:
 280:lvgl/src/widgets/lv_canvas.c ****             x_safe = x < 0 ? 0 : x;
 1375              		.loc 1 280 32 is_stmt 1 discriminator 1 view .LVU460
 280:lvgl/src/widgets/lv_canvas.c ****             x_safe = x < 0 ? 0 : x;
 1376              		.loc 1 280 42 is_stmt 0 discriminator 1 view .LVU461
 1377 0142 029B     		ldr	r3, [sp, #8]
 1378 0144 049A     		ldr	r2, [sp, #16]
 1379 0146 1344     		add	r3, r3, r2
 280:lvgl/src/widgets/lv_canvas.c ****             x_safe = x < 0 ? 0 : x;
 1380              		.loc 1 280 9 discriminator 1 view .LVU462
 1381 0148 9845     		cmp	r8, r3
 1382 014a 22DC     		bgt	.L82
 281:lvgl/src/widgets/lv_canvas.c ****             x_safe = x_safe > canvas->dsc.header.w - 1 ? canvas->dsc.header.w - 1 : x_safe;
 1383              		.loc 1 281 13 is_stmt 1 view .LVU463
 281:lvgl/src/widgets/lv_canvas.c ****             x_safe = x_safe > canvas->dsc.header.w - 1 ? canvas->dsc.header.w - 1 : x_safe;
 1384              		.loc 1 281 20 is_stmt 0 view .LVU464
 1385 014c 28EAE874 		bic	r4, r8, r8, asr #31
 1386              	.LVL134:
 282:lvgl/src/widgets/lv_canvas.c **** 
 1387              		.loc 1 282 13 is_stmt 1 view .LVU465
ARM GAS  C:\Users\OSD\AppData\Local\Temp\ccwADrda.s 			page 55


 282:lvgl/src/widgets/lv_canvas.c **** 
 1388              		.loc 1 282 49 is_stmt 0 view .LVU466
 1389 0150 D9F83C30 		ldr	r3, [r9, #60]
 1390 0154 C3F38A23 		ubfx	r3, r3, #10, #11
 282:lvgl/src/widgets/lv_canvas.c **** 
 1391              		.loc 1 282 20 view .LVU467
 1392 0158 A342     		cmp	r3, r4
 1393 015a 00DC     		bgt	.L60
 282:lvgl/src/widgets/lv_canvas.c **** 
 1394              		.loc 1 282 20 discriminator 1 view .LVU468
 1395 015c 5C1E     		subs	r4, r3, #1
 1396              	.LVL135:
 1397              	.L60:
 284:lvgl/src/widgets/lv_canvas.c ****             if(has_alpha) opa = lv_img_buf_get_px_alpha(&line_img, x_safe, 0);
 1398              		.loc 1 284 13 is_stmt 1 discriminator 4 view .LVU469
 284:lvgl/src/widgets/lv_canvas.c ****             if(has_alpha) opa = lv_img_buf_get_px_alpha(&line_img, x_safe, 0);
 1399              		.loc 1 284 17 is_stmt 0 discriminator 4 view .LVU470
 1400 015e 039B     		ldr	r3, [sp, #12]
 1401 0160 0022     		movs	r2, #0
 1402 0162 2146     		mov	r1, r4
 1403 0164 0BA8     		add	r0, sp, #44
 1404 0166 FFF7FEFF 		bl	lv_img_buf_get_px_color
 1405              	.LVL136:
 1406 016a 8246     		mov	r10, r0
 1407              	.LVL137:
 285:lvgl/src/widgets/lv_canvas.c **** 
 1408              		.loc 1 285 13 is_stmt 1 discriminator 4 view .LVU471
 285:lvgl/src/widgets/lv_canvas.c **** 
 1409              		.loc 1 285 15 is_stmt 0 discriminator 4 view .LVU472
 1410 016c BBF1000F 		cmp	fp, #0
 1411 0170 DCD1     		bne	.L83
 1412              	.L61:
 287:lvgl/src/widgets/lv_canvas.c **** #if LV_COLOR_DEPTH == 16 && LV_COLOR_16_SWAP
 1413              		.loc 1 287 13 is_stmt 1 view .LVU473
 1414              	.LVL138:
 287:lvgl/src/widgets/lv_canvas.c **** #if LV_COLOR_DEPTH == 16 && LV_COLOR_16_SWAP
 1415              		.loc 1 287 25 is_stmt 0 view .LVU474
 1416 0172 CAF30743 		ubfx	r3, r10, #16, #8
 287:lvgl/src/widgets/lv_canvas.c **** #if LV_COLOR_DEPTH == 16 && LV_COLOR_16_SWAP
 1417              		.loc 1 287 18 view .LVU475
 1418 0176 1D44     		add	r5, r5, r3
 1419              	.LVL139:
 291:lvgl/src/widgets/lv_canvas.c **** #endif
 1420              		.loc 1 291 13 is_stmt 1 view .LVU476
 291:lvgl/src/widgets/lv_canvas.c **** #endif
 1421              		.loc 1 291 25 is_stmt 0 view .LVU477
 1422 0178 CAF30723 		ubfx	r3, r10, #8, #8
 291:lvgl/src/widgets/lv_canvas.c **** #endif
 1423              		.loc 1 291 18 view .LVU478
 1424 017c 1E44     		add	r6, r6, r3
 1425              	.LVL140:
 293:lvgl/src/widgets/lv_canvas.c ****             if(has_alpha) asum += opa;
 1426              		.loc 1 293 13 is_stmt 1 view .LVU479
 293:lvgl/src/widgets/lv_canvas.c ****             if(has_alpha) asum += opa;
 1427              		.loc 1 293 18 is_stmt 0 view .LVU480
 1428 017e 57FA8AF7 		uxtab	r7, r7, r10
 1429              	.LVL141:
ARM GAS  C:\Users\OSD\AppData\Local\Temp\ccwADrda.s 			page 56


 294:lvgl/src/widgets/lv_canvas.c ****         }
 1430              		.loc 1 294 13 is_stmt 1 view .LVU481
 294:lvgl/src/widgets/lv_canvas.c ****         }
 1431              		.loc 1 294 15 is_stmt 0 view .LVU482
 1432 0182 BBF1000F 		cmp	fp, #0
 1433 0186 D8D0     		beq	.L62
 294:lvgl/src/widgets/lv_canvas.c ****         }
 1434              		.loc 1 294 27 is_stmt 1 discriminator 1 view .LVU483
 294:lvgl/src/widgets/lv_canvas.c ****         }
 1435              		.loc 1 294 32 is_stmt 0 discriminator 1 view .LVU484
 1436 0188 009B     		ldr	r3, [sp]
 1437 018a 019A     		ldr	r2, [sp, #4]
 1438 018c 1344     		add	r3, r3, r2
 1439 018e 0093     		str	r3, [sp]
 1440              	.LVL142:
 294:lvgl/src/widgets/lv_canvas.c ****         }
 1441              		.loc 1 294 32 discriminator 1 view .LVU485
 1442 0190 D3E7     		b	.L62
 1443              	.LVL143:
 1444              	.L82:
 298:lvgl/src/widgets/lv_canvas.c **** 
 1445              		.loc 1 298 11 view .LVU486
 1446 0192 1446     		mov	r4, r2
 298:lvgl/src/widgets/lv_canvas.c **** 
 1447              		.loc 1 298 9 is_stmt 1 view .LVU487
 298:lvgl/src/widgets/lv_canvas.c **** 
 1448              		.loc 1 298 11 is_stmt 0 view .LVU488
 1449 0194 BBF1000F 		cmp	fp, #0
 1450 0198 40F08780 		bne	.L78
 298:lvgl/src/widgets/lv_canvas.c **** 
 1451              		.loc 1 298 37 view .LVU489
 1452 019c FF23     		movs	r3, #255
 1453 019e 0093     		str	r3, [sp]
 1454              	.LVL144:
 298:lvgl/src/widgets/lv_canvas.c **** 
 1455              		.loc 1 298 37 view .LVU490
 1456 01a0 B846     		mov	r8, r7
 1457              	.LVL145:
 298:lvgl/src/widgets/lv_canvas.c **** 
 1458              		.loc 1 298 37 view .LVU491
 1459 01a2 5F46     		mov	r7, fp
 1460              	.LVL146:
 298:lvgl/src/widgets/lv_canvas.c **** 
 1461              		.loc 1 298 37 view .LVU492
 1462 01a4 50E0     		b	.L74
 1463              	.LVL147:
 1464              	.L67:
 314:lvgl/src/widgets/lv_canvas.c ****             }
 1465              		.loc 1 314 17 is_stmt 1 view .LVU493
 1466 01a6 5346     		mov	r3, r10
 1467 01a8 059A     		ldr	r2, [sp, #20]
 1468              	.LVL148:
 314:lvgl/src/widgets/lv_canvas.c ****             }
 1469              		.loc 1 314 17 is_stmt 0 view .LVU494
 1470 01aa 2146     		mov	r1, r4
 1471 01ac 09F13C00 		add	r0, r9, #60
 1472 01b0 FFF7FEFF 		bl	lv_img_buf_set_px_color
ARM GAS  C:\Users\OSD\AppData\Local\Temp\ccwADrda.s 			page 57


 1473              	.LVL149:
 1474              	.L66:
 316:lvgl/src/widgets/lv_canvas.c **** 
 1475              		.loc 1 316 13 is_stmt 1 view .LVU495
 316:lvgl/src/widgets/lv_canvas.c **** 
 1476              		.loc 1 316 15 is_stmt 0 view .LVU496
 1477 01b4 002F     		cmp	r7, #0
 1478 01b6 62D1     		bne	.L84
 1479              	.L68:
 318:lvgl/src/widgets/lv_canvas.c ****             x_safe = x_safe < 0 ? 0 : x_safe;
 1480              		.loc 1 318 13 is_stmt 1 view .LVU497
 318:lvgl/src/widgets/lv_canvas.c ****             x_safe = x_safe < 0 ? 0 : x_safe;
 1481              		.loc 1 318 24 is_stmt 0 view .LVU498
 1482 01b8 A4B2     		uxth	r4, r4
 318:lvgl/src/widgets/lv_canvas.c ****             x_safe = x_safe < 0 ? 0 : x_safe;
 1483              		.loc 1 318 24 view .LVU499
 1484 01ba 069B     		ldr	r3, [sp, #24]
 1485 01bc A4EB030B 		sub	fp, r4, r3
 318:lvgl/src/widgets/lv_canvas.c ****             x_safe = x_safe < 0 ? 0 : x_safe;
 1486              		.loc 1 318 20 view .LVU500
 1487 01c0 0FFA8BFB 		sxth	fp, fp
 1488              	.LVL150:
 319:lvgl/src/widgets/lv_canvas.c ****             c = lv_img_buf_get_px_color(&line_img, x_safe, 0, color);
 1489              		.loc 1 319 13 is_stmt 1 view .LVU501
 319:lvgl/src/widgets/lv_canvas.c ****             c = lv_img_buf_get_px_color(&line_img, x_safe, 0, color);
 1490              		.loc 1 319 20 is_stmt 0 view .LVU502
 1491 01c4 2BEAEB7B 		bic	fp, fp, fp, asr #31
 1492              	.LVL151:
 320:lvgl/src/widgets/lv_canvas.c ****             if(has_alpha) opa = lv_img_buf_get_px_alpha(&line_img, x_safe, 0);
 1493              		.loc 1 320 13 is_stmt 1 view .LVU503
 320:lvgl/src/widgets/lv_canvas.c ****             if(has_alpha) opa = lv_img_buf_get_px_alpha(&line_img, x_safe, 0);
 1494              		.loc 1 320 17 is_stmt 0 view .LVU504
 1495 01c8 039B     		ldr	r3, [sp, #12]
 1496 01ca 0022     		movs	r2, #0
 1497 01cc 5946     		mov	r1, fp
 1498 01ce 0BA8     		add	r0, sp, #44
 1499 01d0 FFF7FEFF 		bl	lv_img_buf_get_px_color
 1500              	.LVL152:
 1501 01d4 8246     		mov	r10, r0
 1502              	.LVL153:
 321:lvgl/src/widgets/lv_canvas.c **** 
 1503              		.loc 1 321 13 is_stmt 1 view .LVU505
 321:lvgl/src/widgets/lv_canvas.c **** 
 1504              		.loc 1 321 15 is_stmt 0 view .LVU506
 1505 01d6 002F     		cmp	r7, #0
 1506 01d8 59D1     		bne	.L85
 1507              	.L69:
 323:lvgl/src/widgets/lv_canvas.c **** #if LV_COLOR_DEPTH == 16 && LV_COLOR_16_SWAP
 1508              		.loc 1 323 13 is_stmt 1 view .LVU507
 1509              	.LVL154:
 323:lvgl/src/widgets/lv_canvas.c **** #if LV_COLOR_DEPTH == 16 && LV_COLOR_16_SWAP
 1510              		.loc 1 323 25 is_stmt 0 view .LVU508
 1511 01da CAF30743 		ubfx	r3, r10, #16, #8
 323:lvgl/src/widgets/lv_canvas.c **** #if LV_COLOR_DEPTH == 16 && LV_COLOR_16_SWAP
 1512              		.loc 1 323 18 view .LVU509
 1513 01de ED1A     		subs	r5, r5, r3
 1514              	.LVL155:
ARM GAS  C:\Users\OSD\AppData\Local\Temp\ccwADrda.s 			page 58


 327:lvgl/src/widgets/lv_canvas.c **** #endif
 1515              		.loc 1 327 13 is_stmt 1 view .LVU510
 327:lvgl/src/widgets/lv_canvas.c **** #endif
 1516              		.loc 1 327 25 is_stmt 0 view .LVU511
 1517 01e0 CAF30723 		ubfx	r3, r10, #8, #8
 327:lvgl/src/widgets/lv_canvas.c **** #endif
 1518              		.loc 1 327 18 view .LVU512
 1519 01e4 F61A     		subs	r6, r6, r3
 1520              	.LVL156:
 329:lvgl/src/widgets/lv_canvas.c ****             if(has_alpha) asum -= opa;
 1521              		.loc 1 329 13 is_stmt 1 view .LVU513
 329:lvgl/src/widgets/lv_canvas.c ****             if(has_alpha) asum -= opa;
 1522              		.loc 1 329 25 is_stmt 0 view .LVU514
 1523 01e6 5FFA8AFA 		uxtb	r10, r10
 1524              	.LVL157:
 329:lvgl/src/widgets/lv_canvas.c ****             if(has_alpha) asum -= opa;
 1525              		.loc 1 329 18 view .LVU515
 1526 01ea A8EB0A08 		sub	r8, r8, r10
 1527              	.LVL158:
 330:lvgl/src/widgets/lv_canvas.c **** 
 1528              		.loc 1 330 13 is_stmt 1 view .LVU516
 330:lvgl/src/widgets/lv_canvas.c **** 
 1529              		.loc 1 330 15 is_stmt 0 view .LVU517
 1530 01ee 1FB1     		cbz	r7, .L70
 330:lvgl/src/widgets/lv_canvas.c **** 
 1531              		.loc 1 330 27 is_stmt 1 discriminator 1 view .LVU518
 330:lvgl/src/widgets/lv_canvas.c **** 
 1532              		.loc 1 330 32 is_stmt 0 discriminator 1 view .LVU519
 1533 01f0 009B     		ldr	r3, [sp]
 1534 01f2 019A     		ldr	r2, [sp, #4]
 1535 01f4 9B1A     		subs	r3, r3, r2
 1536 01f6 0093     		str	r3, [sp]
 1537              	.LVL159:
 1538              	.L70:
 332:lvgl/src/widgets/lv_canvas.c ****             x_safe = x_safe > canvas->dsc.header.w - 1 ? canvas->dsc.header.w - 1 : x_safe;
 1539              		.loc 1 332 13 is_stmt 1 view .LVU520
 332:lvgl/src/widgets/lv_canvas.c ****             x_safe = x_safe > canvas->dsc.header.w - 1 ? canvas->dsc.header.w - 1 : x_safe;
 1540              		.loc 1 332 28 is_stmt 0 view .LVU521
 1541 01f8 029B     		ldr	r3, [sp, #8]
 1542 01fa 04EB030B 		add	fp, r4, r3
 1543              	.LVL160:
 332:lvgl/src/widgets/lv_canvas.c ****             x_safe = x_safe > canvas->dsc.header.w - 1 ? canvas->dsc.header.w - 1 : x_safe;
 1544              		.loc 1 332 28 view .LVU522
 1545 01fe 0BF1010B 		add	fp, fp, #1
 332:lvgl/src/widgets/lv_canvas.c ****             x_safe = x_safe > canvas->dsc.header.w - 1 ? canvas->dsc.header.w - 1 : x_safe;
 1546              		.loc 1 332 20 view .LVU523
 1547 0202 0FFA8BFB 		sxth	fp, fp
 1548              	.LVL161:
 333:lvgl/src/widgets/lv_canvas.c ****             c = lv_img_buf_get_px_color(&line_img, x_safe, 0, lv_color_white());
 1549              		.loc 1 333 13 is_stmt 1 view .LVU524
 333:lvgl/src/widgets/lv_canvas.c ****             c = lv_img_buf_get_px_color(&line_img, x_safe, 0, lv_color_white());
 1550              		.loc 1 333 49 is_stmt 0 view .LVU525
 1551 0206 D9F83C30 		ldr	r3, [r9, #60]
 1552 020a C3F38A23 		ubfx	r3, r3, #10, #11
 333:lvgl/src/widgets/lv_canvas.c ****             c = lv_img_buf_get_px_color(&line_img, x_safe, 0, lv_color_white());
 1553              		.loc 1 333 20 view .LVU526
 1554 020e 5B45     		cmp	r3, fp
ARM GAS  C:\Users\OSD\AppData\Local\Temp\ccwADrda.s 			page 59


 1555 0210 01DC     		bgt	.L71
 333:lvgl/src/widgets/lv_canvas.c ****             c = lv_img_buf_get_px_color(&line_img, x_safe, 0, lv_color_white());
 1556              		.loc 1 333 20 discriminator 1 view .LVU527
 1557 0212 03F1FF3B 		add	fp, r3, #-1
 1558              	.LVL162:
 1559              	.L71:
 334:lvgl/src/widgets/lv_canvas.c ****             if(has_alpha) opa = lv_img_buf_get_px_alpha(&line_img, x_safe, 0);
 1560              		.loc 1 334 13 is_stmt 1 discriminator 4 view .LVU528
 1561              	.LBB33:
 1562              	.LBI33:
 1563              		.file 4 "lvgl/src/widgets/../core/../misc/lv_color.h"
   1:lvgl/src/widgets/../core/../misc/lv_color.h **** /**
   2:lvgl/src/widgets/../core/../misc/lv_color.h ****  * @file lv_color.h
   3:lvgl/src/widgets/../core/../misc/lv_color.h ****  *
   4:lvgl/src/widgets/../core/../misc/lv_color.h ****  */
   5:lvgl/src/widgets/../core/../misc/lv_color.h **** 
   6:lvgl/src/widgets/../core/../misc/lv_color.h **** #ifndef LV_COLOR_H
   7:lvgl/src/widgets/../core/../misc/lv_color.h **** #define LV_COLOR_H
   8:lvgl/src/widgets/../core/../misc/lv_color.h **** 
   9:lvgl/src/widgets/../core/../misc/lv_color.h **** #ifdef __cplusplus
  10:lvgl/src/widgets/../core/../misc/lv_color.h **** extern "C" {
  11:lvgl/src/widgets/../core/../misc/lv_color.h **** #endif
  12:lvgl/src/widgets/../core/../misc/lv_color.h **** 
  13:lvgl/src/widgets/../core/../misc/lv_color.h **** /*********************
  14:lvgl/src/widgets/../core/../misc/lv_color.h ****  *      INCLUDES
  15:lvgl/src/widgets/../core/../misc/lv_color.h ****  *********************/
  16:lvgl/src/widgets/../core/../misc/lv_color.h **** #include "../lv_conf_internal.h"
  17:lvgl/src/widgets/../core/../misc/lv_color.h **** #include "lv_assert.h"
  18:lvgl/src/widgets/../core/../misc/lv_color.h **** #include "lv_math.h"
  19:lvgl/src/widgets/../core/../misc/lv_color.h **** #include "lv_types.h"
  20:lvgl/src/widgets/../core/../misc/lv_color.h **** 
  21:lvgl/src/widgets/../core/../misc/lv_color.h **** /*Error checking*/
  22:lvgl/src/widgets/../core/../misc/lv_color.h **** #if LV_COLOR_DEPTH == 24
  23:lvgl/src/widgets/../core/../misc/lv_color.h **** #error "LV_COLOR_DEPTH 24 is deprecated. Use LV_COLOR_DEPTH 32 instead (lv_conf.h)"
  24:lvgl/src/widgets/../core/../misc/lv_color.h **** #endif
  25:lvgl/src/widgets/../core/../misc/lv_color.h **** 
  26:lvgl/src/widgets/../core/../misc/lv_color.h **** #if LV_COLOR_DEPTH != 16 && LV_COLOR_16_SWAP != 0
  27:lvgl/src/widgets/../core/../misc/lv_color.h **** #error "LV_COLOR_16_SWAP requires LV_COLOR_DEPTH == 16. Set it in lv_conf.h"
  28:lvgl/src/widgets/../core/../misc/lv_color.h **** #endif
  29:lvgl/src/widgets/../core/../misc/lv_color.h **** 
  30:lvgl/src/widgets/../core/../misc/lv_color.h **** #include <stdint.h>
  31:lvgl/src/widgets/../core/../misc/lv_color.h **** 
  32:lvgl/src/widgets/../core/../misc/lv_color.h **** /*********************
  33:lvgl/src/widgets/../core/../misc/lv_color.h ****  *      DEFINES
  34:lvgl/src/widgets/../core/../misc/lv_color.h ****  *********************/
  35:lvgl/src/widgets/../core/../misc/lv_color.h **** LV_EXPORT_CONST_INT(LV_COLOR_DEPTH);
  36:lvgl/src/widgets/../core/../misc/lv_color.h **** LV_EXPORT_CONST_INT(LV_COLOR_16_SWAP);
  37:lvgl/src/widgets/../core/../misc/lv_color.h **** 
  38:lvgl/src/widgets/../core/../misc/lv_color.h **** /**
  39:lvgl/src/widgets/../core/../misc/lv_color.h ****  * Opacity percentages.
  40:lvgl/src/widgets/../core/../misc/lv_color.h ****  */
  41:lvgl/src/widgets/../core/../misc/lv_color.h **** enum {
  42:lvgl/src/widgets/../core/../misc/lv_color.h ****     LV_OPA_TRANSP = 0,
  43:lvgl/src/widgets/../core/../misc/lv_color.h ****     LV_OPA_0      = 0,
  44:lvgl/src/widgets/../core/../misc/lv_color.h ****     LV_OPA_10     = 25,
  45:lvgl/src/widgets/../core/../misc/lv_color.h ****     LV_OPA_20     = 51,
  46:lvgl/src/widgets/../core/../misc/lv_color.h ****     LV_OPA_30     = 76,
ARM GAS  C:\Users\OSD\AppData\Local\Temp\ccwADrda.s 			page 60


  47:lvgl/src/widgets/../core/../misc/lv_color.h ****     LV_OPA_40     = 102,
  48:lvgl/src/widgets/../core/../misc/lv_color.h ****     LV_OPA_50     = 127,
  49:lvgl/src/widgets/../core/../misc/lv_color.h ****     LV_OPA_60     = 153,
  50:lvgl/src/widgets/../core/../misc/lv_color.h ****     LV_OPA_70     = 178,
  51:lvgl/src/widgets/../core/../misc/lv_color.h ****     LV_OPA_80     = 204,
  52:lvgl/src/widgets/../core/../misc/lv_color.h ****     LV_OPA_90     = 229,
  53:lvgl/src/widgets/../core/../misc/lv_color.h ****     LV_OPA_100    = 255,
  54:lvgl/src/widgets/../core/../misc/lv_color.h ****     LV_OPA_COVER  = 255,
  55:lvgl/src/widgets/../core/../misc/lv_color.h **** };
  56:lvgl/src/widgets/../core/../misc/lv_color.h **** 
  57:lvgl/src/widgets/../core/../misc/lv_color.h **** #define LV_OPA_MIN 2    /*Opacities below this will be transparent*/
  58:lvgl/src/widgets/../core/../misc/lv_color.h **** #define LV_OPA_MAX 253  /*Opacities above this will fully cover*/
  59:lvgl/src/widgets/../core/../misc/lv_color.h **** 
  60:lvgl/src/widgets/../core/../misc/lv_color.h **** #if LV_COLOR_DEPTH == 1
  61:lvgl/src/widgets/../core/../misc/lv_color.h **** #define LV_COLOR_SIZE 8
  62:lvgl/src/widgets/../core/../misc/lv_color.h **** #elif LV_COLOR_DEPTH == 8
  63:lvgl/src/widgets/../core/../misc/lv_color.h **** #define LV_COLOR_SIZE 8
  64:lvgl/src/widgets/../core/../misc/lv_color.h **** #elif LV_COLOR_DEPTH == 16
  65:lvgl/src/widgets/../core/../misc/lv_color.h **** #define LV_COLOR_SIZE 16
  66:lvgl/src/widgets/../core/../misc/lv_color.h **** #elif LV_COLOR_DEPTH == 32
  67:lvgl/src/widgets/../core/../misc/lv_color.h **** #define LV_COLOR_SIZE 32
  68:lvgl/src/widgets/../core/../misc/lv_color.h **** #else
  69:lvgl/src/widgets/../core/../misc/lv_color.h **** #error "Invalid LV_COLOR_DEPTH in lv_conf.h! Set it to 1, 8, 16 or 32!"
  70:lvgl/src/widgets/../core/../misc/lv_color.h **** #endif
  71:lvgl/src/widgets/../core/../misc/lv_color.h **** 
  72:lvgl/src/widgets/../core/../misc/lv_color.h **** #if defined(__cplusplus) && !defined(_LV_COLOR_HAS_MODERN_CPP)
  73:lvgl/src/widgets/../core/../misc/lv_color.h **** /**
  74:lvgl/src/widgets/../core/../misc/lv_color.h **** * MSVC compiler's definition of the __cplusplus indicating 199711L regardless to C++ standard versi
  75:lvgl/src/widgets/../core/../misc/lv_color.h **** * see https://devblogs.microsoft.com/cppblog/msvc-now-correctly-reports-cplusplus
  76:lvgl/src/widgets/../core/../misc/lv_color.h **** * so we use _MSC_VER macro instead of __cplusplus
  77:lvgl/src/widgets/../core/../misc/lv_color.h **** */
  78:lvgl/src/widgets/../core/../misc/lv_color.h **** #ifdef _MSC_VER
  79:lvgl/src/widgets/../core/../misc/lv_color.h **** #if _MSC_VER >= 1900 /*Visual Studio 2015*/
  80:lvgl/src/widgets/../core/../misc/lv_color.h **** #define _LV_COLOR_HAS_MODERN_CPP 1
  81:lvgl/src/widgets/../core/../misc/lv_color.h **** #endif
  82:lvgl/src/widgets/../core/../misc/lv_color.h **** #else
  83:lvgl/src/widgets/../core/../misc/lv_color.h **** #if __cplusplus >= 201103L
  84:lvgl/src/widgets/../core/../misc/lv_color.h **** #define _LV_COLOR_HAS_MODERN_CPP 1
  85:lvgl/src/widgets/../core/../misc/lv_color.h **** #endif
  86:lvgl/src/widgets/../core/../misc/lv_color.h **** #endif
  87:lvgl/src/widgets/../core/../misc/lv_color.h **** #endif /*__cplusplus*/
  88:lvgl/src/widgets/../core/../misc/lv_color.h **** 
  89:lvgl/src/widgets/../core/../misc/lv_color.h **** #ifndef _LV_COLOR_HAS_MODERN_CPP
  90:lvgl/src/widgets/../core/../misc/lv_color.h **** #define _LV_COLOR_HAS_MODERN_CPP 0
  91:lvgl/src/widgets/../core/../misc/lv_color.h **** #endif
  92:lvgl/src/widgets/../core/../misc/lv_color.h **** 
  93:lvgl/src/widgets/../core/../misc/lv_color.h **** #if _LV_COLOR_HAS_MODERN_CPP
  94:lvgl/src/widgets/../core/../misc/lv_color.h **** /*Fix msvc compiler error C4576 inside C++ code*/
  95:lvgl/src/widgets/../core/../misc/lv_color.h **** #define _LV_COLOR_MAKE_TYPE_HELPER lv_color_t
  96:lvgl/src/widgets/../core/../misc/lv_color.h **** #else
  97:lvgl/src/widgets/../core/../misc/lv_color.h **** #define _LV_COLOR_MAKE_TYPE_HELPER (lv_color_t)
  98:lvgl/src/widgets/../core/../misc/lv_color.h **** #endif
  99:lvgl/src/widgets/../core/../misc/lv_color.h **** 
 100:lvgl/src/widgets/../core/../misc/lv_color.h **** /*---------------------------------------
 101:lvgl/src/widgets/../core/../misc/lv_color.h ****  * Macros for all existing color depths
 102:lvgl/src/widgets/../core/../misc/lv_color.h ****  * to set/get values of the color channels
 103:lvgl/src/widgets/../core/../misc/lv_color.h ****  *------------------------------------------*/
ARM GAS  C:\Users\OSD\AppData\Local\Temp\ccwADrda.s 			page 61


 104:lvgl/src/widgets/../core/../misc/lv_color.h **** # define LV_COLOR_SET_R1(c, v) (c).ch.red = (uint8_t)((v) & 0x1)
 105:lvgl/src/widgets/../core/../misc/lv_color.h **** # define LV_COLOR_SET_G1(c, v) (c).ch.green = (uint8_t)((v) & 0x1)
 106:lvgl/src/widgets/../core/../misc/lv_color.h **** # define LV_COLOR_SET_B1(c, v) (c).ch.blue = (uint8_t)((v) & 0x1)
 107:lvgl/src/widgets/../core/../misc/lv_color.h **** # define LV_COLOR_SET_A1(c, v) do {} while(0)
 108:lvgl/src/widgets/../core/../misc/lv_color.h **** 
 109:lvgl/src/widgets/../core/../misc/lv_color.h **** # define LV_COLOR_GET_R1(c) (c).ch.red
 110:lvgl/src/widgets/../core/../misc/lv_color.h **** # define LV_COLOR_GET_G1(c) (c).ch.green
 111:lvgl/src/widgets/../core/../misc/lv_color.h **** # define LV_COLOR_GET_B1(c) (c).ch.blue
 112:lvgl/src/widgets/../core/../misc/lv_color.h **** # define LV_COLOR_GET_A1(c) 0xFF
 113:lvgl/src/widgets/../core/../misc/lv_color.h **** 
 114:lvgl/src/widgets/../core/../misc/lv_color.h **** # define _LV_COLOR_ZERO_INITIALIZER1 {0x00}
 115:lvgl/src/widgets/../core/../misc/lv_color.h **** # define LV_COLOR_MAKE1(r8, g8, b8)  {(uint8_t)((b8 >> 7) | (g8 >> 7) | (r8 >> 7))}
 116:lvgl/src/widgets/../core/../misc/lv_color.h **** 
 117:lvgl/src/widgets/../core/../misc/lv_color.h **** # define LV_COLOR_SET_R8(c, v) (c).ch.red = (uint8_t)((v) & 0x7U)
 118:lvgl/src/widgets/../core/../misc/lv_color.h **** # define LV_COLOR_SET_G8(c, v) (c).ch.green = (uint8_t)((v) & 0x7U)
 119:lvgl/src/widgets/../core/../misc/lv_color.h **** # define LV_COLOR_SET_B8(c, v) (c).ch.blue = (uint8_t)((v) & 0x3U)
 120:lvgl/src/widgets/../core/../misc/lv_color.h **** # define LV_COLOR_SET_A8(c, v) do {} while(0)
 121:lvgl/src/widgets/../core/../misc/lv_color.h **** 
 122:lvgl/src/widgets/../core/../misc/lv_color.h **** # define LV_COLOR_GET_R8(c) (c).ch.red
 123:lvgl/src/widgets/../core/../misc/lv_color.h **** # define LV_COLOR_GET_G8(c) (c).ch.green
 124:lvgl/src/widgets/../core/../misc/lv_color.h **** # define LV_COLOR_GET_B8(c) (c).ch.blue
 125:lvgl/src/widgets/../core/../misc/lv_color.h **** # define LV_COLOR_GET_A8(c) 0xFF
 126:lvgl/src/widgets/../core/../misc/lv_color.h **** 
 127:lvgl/src/widgets/../core/../misc/lv_color.h **** # define _LV_COLOR_ZERO_INITIALIZER8 {{0x00, 0x00, 0x00}}
 128:lvgl/src/widgets/../core/../misc/lv_color.h **** # define LV_COLOR_MAKE8(r8, g8, b8) {{(uint8_t)((b8 >> 6) & 0x3U), (uint8_t)((g8 >> 5) & 0x7U), (ui
 129:lvgl/src/widgets/../core/../misc/lv_color.h **** 
 130:lvgl/src/widgets/../core/../misc/lv_color.h **** # define LV_COLOR_SET_R16(c, v) (c).ch.red = (uint8_t)((v) & 0x1FU)
 131:lvgl/src/widgets/../core/../misc/lv_color.h **** #if LV_COLOR_16_SWAP == 0
 132:lvgl/src/widgets/../core/../misc/lv_color.h **** # define LV_COLOR_SET_G16(c, v) (c).ch.green = (uint8_t)((v) & 0x3FU)
 133:lvgl/src/widgets/../core/../misc/lv_color.h **** #else
 134:lvgl/src/widgets/../core/../misc/lv_color.h **** # define LV_COLOR_SET_G16(c, v) {(c).ch.green_h = (uint8_t)(((v) >> 3) & 0x7); (c).ch.green_l = (ui
 135:lvgl/src/widgets/../core/../misc/lv_color.h **** #endif
 136:lvgl/src/widgets/../core/../misc/lv_color.h **** # define LV_COLOR_SET_B16(c, v) (c).ch.blue = (uint8_t)((v) & 0x1FU)
 137:lvgl/src/widgets/../core/../misc/lv_color.h **** # define LV_COLOR_SET_A16(c, v) do {} while(0)
 138:lvgl/src/widgets/../core/../misc/lv_color.h **** 
 139:lvgl/src/widgets/../core/../misc/lv_color.h **** # define LV_COLOR_GET_R16(c) (c).ch.red
 140:lvgl/src/widgets/../core/../misc/lv_color.h **** #if LV_COLOR_16_SWAP == 0
 141:lvgl/src/widgets/../core/../misc/lv_color.h **** # define LV_COLOR_GET_G16(c) (c).ch.green
 142:lvgl/src/widgets/../core/../misc/lv_color.h **** #else
 143:lvgl/src/widgets/../core/../misc/lv_color.h **** # define LV_COLOR_GET_G16(c) (((c).ch.green_h << 3) + (c).ch.green_l)
 144:lvgl/src/widgets/../core/../misc/lv_color.h **** #endif
 145:lvgl/src/widgets/../core/../misc/lv_color.h **** # define LV_COLOR_GET_B16(c) (c).ch.blue
 146:lvgl/src/widgets/../core/../misc/lv_color.h **** # define LV_COLOR_GET_A16(c) 0xFF
 147:lvgl/src/widgets/../core/../misc/lv_color.h **** 
 148:lvgl/src/widgets/../core/../misc/lv_color.h **** #if LV_COLOR_16_SWAP == 0
 149:lvgl/src/widgets/../core/../misc/lv_color.h **** # define _LV_COLOR_ZERO_INITIALIZER16  {{0x00, 0x00, 0x00}}
 150:lvgl/src/widgets/../core/../misc/lv_color.h **** # define LV_COLOR_MAKE16(r8, g8, b8) {{(uint8_t)((b8 >> 3) & 0x1FU), (uint8_t)((g8 >> 2) & 0x3FU), 
 151:lvgl/src/widgets/../core/../misc/lv_color.h **** #else
 152:lvgl/src/widgets/../core/../misc/lv_color.h **** # define _LV_COLOR_ZERO_INITIALIZER16 {{0x00, 0x00, 0x00, 0x00}}
 153:lvgl/src/widgets/../core/../misc/lv_color.h **** # define LV_COLOR_MAKE16(r8, g8, b8) {{(uint8_t)((g8 >> 5) & 0x7U), (uint8_t)((r8 >> 3) & 0x1FU), (
 154:lvgl/src/widgets/../core/../misc/lv_color.h **** #endif
 155:lvgl/src/widgets/../core/../misc/lv_color.h **** 
 156:lvgl/src/widgets/../core/../misc/lv_color.h **** # define LV_COLOR_SET_R32(c, v) (c).ch.red = (uint8_t)((v) & 0xFF)
 157:lvgl/src/widgets/../core/../misc/lv_color.h **** # define LV_COLOR_SET_G32(c, v) (c).ch.green = (uint8_t)((v) & 0xFF)
 158:lvgl/src/widgets/../core/../misc/lv_color.h **** # define LV_COLOR_SET_B32(c, v) (c).ch.blue = (uint8_t)((v) & 0xFF)
 159:lvgl/src/widgets/../core/../misc/lv_color.h **** # define LV_COLOR_SET_A32(c, v) (c).ch.alpha = (uint8_t)((v) & 0xFF)
 160:lvgl/src/widgets/../core/../misc/lv_color.h **** 
ARM GAS  C:\Users\OSD\AppData\Local\Temp\ccwADrda.s 			page 62


 161:lvgl/src/widgets/../core/../misc/lv_color.h **** # define LV_COLOR_GET_R32(c) (c).ch.red
 162:lvgl/src/widgets/../core/../misc/lv_color.h **** # define LV_COLOR_GET_G32(c) (c).ch.green
 163:lvgl/src/widgets/../core/../misc/lv_color.h **** # define LV_COLOR_GET_B32(c) (c).ch.blue
 164:lvgl/src/widgets/../core/../misc/lv_color.h **** # define LV_COLOR_GET_A32(c) (c).ch.alpha
 165:lvgl/src/widgets/../core/../misc/lv_color.h **** 
 166:lvgl/src/widgets/../core/../misc/lv_color.h **** # define _LV_COLOR_ZERO_INITIALIZER32  {{0x00, 0x00, 0x00, 0x00}}
 167:lvgl/src/widgets/../core/../misc/lv_color.h **** # define LV_COLOR_MAKE32(r8, g8, b8) {{b8, g8, r8, 0xff}} /*Fix 0xff alpha*/
 168:lvgl/src/widgets/../core/../misc/lv_color.h **** 
 169:lvgl/src/widgets/../core/../misc/lv_color.h **** /*---------------------------------------
 170:lvgl/src/widgets/../core/../misc/lv_color.h ****  * Macros for the current color depth
 171:lvgl/src/widgets/../core/../misc/lv_color.h ****  * to set/get values of the color channels
 172:lvgl/src/widgets/../core/../misc/lv_color.h ****  *------------------------------------------*/
 173:lvgl/src/widgets/../core/../misc/lv_color.h **** #define LV_COLOR_SET_R(c, v) LV_CONCAT(LV_COLOR_SET_R, LV_COLOR_DEPTH)(c, v)
 174:lvgl/src/widgets/../core/../misc/lv_color.h **** #define LV_COLOR_SET_G(c, v) LV_CONCAT(LV_COLOR_SET_G, LV_COLOR_DEPTH)(c, v)
 175:lvgl/src/widgets/../core/../misc/lv_color.h **** #define LV_COLOR_SET_B(c, v) LV_CONCAT(LV_COLOR_SET_B, LV_COLOR_DEPTH)(c, v)
 176:lvgl/src/widgets/../core/../misc/lv_color.h **** #define LV_COLOR_SET_A(c, v) LV_CONCAT(LV_COLOR_SET_A, LV_COLOR_DEPTH)(c, v)
 177:lvgl/src/widgets/../core/../misc/lv_color.h **** 
 178:lvgl/src/widgets/../core/../misc/lv_color.h **** #define LV_COLOR_GET_R(c) LV_CONCAT(LV_COLOR_GET_R, LV_COLOR_DEPTH)(c)
 179:lvgl/src/widgets/../core/../misc/lv_color.h **** #define LV_COLOR_GET_G(c) LV_CONCAT(LV_COLOR_GET_G, LV_COLOR_DEPTH)(c)
 180:lvgl/src/widgets/../core/../misc/lv_color.h **** #define LV_COLOR_GET_B(c) LV_CONCAT(LV_COLOR_GET_B, LV_COLOR_DEPTH)(c)
 181:lvgl/src/widgets/../core/../misc/lv_color.h **** #define LV_COLOR_GET_A(c) LV_CONCAT(LV_COLOR_GET_A, LV_COLOR_DEPTH)(c)
 182:lvgl/src/widgets/../core/../misc/lv_color.h **** 
 183:lvgl/src/widgets/../core/../misc/lv_color.h **** #define _LV_COLOR_ZERO_INITIALIZER LV_CONCAT(_LV_COLOR_ZERO_INITIALIZER, LV_COLOR_DEPTH)
 184:lvgl/src/widgets/../core/../misc/lv_color.h **** #define LV_COLOR_MAKE(r8, g8, b8) LV_CONCAT(LV_COLOR_MAKE, LV_COLOR_DEPTH)(r8, g8, b8)
 185:lvgl/src/widgets/../core/../misc/lv_color.h **** 
 186:lvgl/src/widgets/../core/../misc/lv_color.h **** /**********************
 187:lvgl/src/widgets/../core/../misc/lv_color.h ****  *      TYPEDEFS
 188:lvgl/src/widgets/../core/../misc/lv_color.h ****  **********************/
 189:lvgl/src/widgets/../core/../misc/lv_color.h **** 
 190:lvgl/src/widgets/../core/../misc/lv_color.h **** typedef union {
 191:lvgl/src/widgets/../core/../misc/lv_color.h ****     uint8_t full; /*must be declared first to set all bits of byte via initializer list*/
 192:lvgl/src/widgets/../core/../misc/lv_color.h ****     union {
 193:lvgl/src/widgets/../core/../misc/lv_color.h ****         uint8_t blue : 1;
 194:lvgl/src/widgets/../core/../misc/lv_color.h ****         uint8_t green : 1;
 195:lvgl/src/widgets/../core/../misc/lv_color.h ****         uint8_t red : 1;
 196:lvgl/src/widgets/../core/../misc/lv_color.h ****     } ch;
 197:lvgl/src/widgets/../core/../misc/lv_color.h **** } lv_color1_t;
 198:lvgl/src/widgets/../core/../misc/lv_color.h **** 
 199:lvgl/src/widgets/../core/../misc/lv_color.h **** typedef union {
 200:lvgl/src/widgets/../core/../misc/lv_color.h ****     struct {
 201:lvgl/src/widgets/../core/../misc/lv_color.h ****         uint8_t blue : 2;
 202:lvgl/src/widgets/../core/../misc/lv_color.h ****         uint8_t green : 3;
 203:lvgl/src/widgets/../core/../misc/lv_color.h ****         uint8_t red : 3;
 204:lvgl/src/widgets/../core/../misc/lv_color.h ****     } ch;
 205:lvgl/src/widgets/../core/../misc/lv_color.h ****     uint8_t full;
 206:lvgl/src/widgets/../core/../misc/lv_color.h **** } lv_color8_t;
 207:lvgl/src/widgets/../core/../misc/lv_color.h **** 
 208:lvgl/src/widgets/../core/../misc/lv_color.h **** typedef union {
 209:lvgl/src/widgets/../core/../misc/lv_color.h ****     struct {
 210:lvgl/src/widgets/../core/../misc/lv_color.h **** #if LV_COLOR_16_SWAP == 0
 211:lvgl/src/widgets/../core/../misc/lv_color.h ****         uint16_t blue : 5;
 212:lvgl/src/widgets/../core/../misc/lv_color.h ****         uint16_t green : 6;
 213:lvgl/src/widgets/../core/../misc/lv_color.h ****         uint16_t red : 5;
 214:lvgl/src/widgets/../core/../misc/lv_color.h **** #else
 215:lvgl/src/widgets/../core/../misc/lv_color.h ****         uint16_t green_h : 3;
 216:lvgl/src/widgets/../core/../misc/lv_color.h ****         uint16_t red : 5;
 217:lvgl/src/widgets/../core/../misc/lv_color.h ****         uint16_t blue : 5;
ARM GAS  C:\Users\OSD\AppData\Local\Temp\ccwADrda.s 			page 63


 218:lvgl/src/widgets/../core/../misc/lv_color.h ****         uint16_t green_l : 3;
 219:lvgl/src/widgets/../core/../misc/lv_color.h **** #endif
 220:lvgl/src/widgets/../core/../misc/lv_color.h ****     } ch;
 221:lvgl/src/widgets/../core/../misc/lv_color.h ****     uint16_t full;
 222:lvgl/src/widgets/../core/../misc/lv_color.h **** } lv_color16_t;
 223:lvgl/src/widgets/../core/../misc/lv_color.h **** 
 224:lvgl/src/widgets/../core/../misc/lv_color.h **** typedef union {
 225:lvgl/src/widgets/../core/../misc/lv_color.h ****     struct {
 226:lvgl/src/widgets/../core/../misc/lv_color.h ****         uint8_t blue;
 227:lvgl/src/widgets/../core/../misc/lv_color.h ****         uint8_t green;
 228:lvgl/src/widgets/../core/../misc/lv_color.h ****         uint8_t red;
 229:lvgl/src/widgets/../core/../misc/lv_color.h ****         uint8_t alpha;
 230:lvgl/src/widgets/../core/../misc/lv_color.h ****     } ch;
 231:lvgl/src/widgets/../core/../misc/lv_color.h ****     uint32_t full;
 232:lvgl/src/widgets/../core/../misc/lv_color.h **** } lv_color32_t;
 233:lvgl/src/widgets/../core/../misc/lv_color.h **** 
 234:lvgl/src/widgets/../core/../misc/lv_color.h **** typedef LV_CONCAT3(uint, LV_COLOR_SIZE, _t) lv_color_int_t;
 235:lvgl/src/widgets/../core/../misc/lv_color.h **** typedef LV_CONCAT3(lv_color, LV_COLOR_DEPTH, _t) lv_color_t;
 236:lvgl/src/widgets/../core/../misc/lv_color.h **** 
 237:lvgl/src/widgets/../core/../misc/lv_color.h **** typedef struct {
 238:lvgl/src/widgets/../core/../misc/lv_color.h ****     uint16_t h;
 239:lvgl/src/widgets/../core/../misc/lv_color.h ****     uint8_t s;
 240:lvgl/src/widgets/../core/../misc/lv_color.h ****     uint8_t v;
 241:lvgl/src/widgets/../core/../misc/lv_color.h **** } lv_color_hsv_t;
 242:lvgl/src/widgets/../core/../misc/lv_color.h **** 
 243:lvgl/src/widgets/../core/../misc/lv_color.h **** //! @cond Doxygen_Suppress
 244:lvgl/src/widgets/../core/../misc/lv_color.h **** /*No idea where the guard is required but else throws warnings in the docs*/
 245:lvgl/src/widgets/../core/../misc/lv_color.h **** typedef uint8_t lv_opa_t;
 246:lvgl/src/widgets/../core/../misc/lv_color.h **** //! @endcond
 247:lvgl/src/widgets/../core/../misc/lv_color.h **** 
 248:lvgl/src/widgets/../core/../misc/lv_color.h **** struct _lv_color_filter_dsc_t;
 249:lvgl/src/widgets/../core/../misc/lv_color.h **** 
 250:lvgl/src/widgets/../core/../misc/lv_color.h **** typedef lv_color_t (*lv_color_filter_cb_t)(const struct _lv_color_filter_dsc_t *, lv_color_t, lv_op
 251:lvgl/src/widgets/../core/../misc/lv_color.h **** 
 252:lvgl/src/widgets/../core/../misc/lv_color.h **** typedef struct _lv_color_filter_dsc_t {
 253:lvgl/src/widgets/../core/../misc/lv_color.h ****     lv_color_filter_cb_t filter_cb;
 254:lvgl/src/widgets/../core/../misc/lv_color.h ****     void * user_data;
 255:lvgl/src/widgets/../core/../misc/lv_color.h **** } lv_color_filter_dsc_t;
 256:lvgl/src/widgets/../core/../misc/lv_color.h **** 
 257:lvgl/src/widgets/../core/../misc/lv_color.h **** typedef enum {
 258:lvgl/src/widgets/../core/../misc/lv_color.h ****     LV_PALETTE_RED,
 259:lvgl/src/widgets/../core/../misc/lv_color.h ****     LV_PALETTE_PINK,
 260:lvgl/src/widgets/../core/../misc/lv_color.h ****     LV_PALETTE_PURPLE,
 261:lvgl/src/widgets/../core/../misc/lv_color.h ****     LV_PALETTE_DEEP_PURPLE,
 262:lvgl/src/widgets/../core/../misc/lv_color.h ****     LV_PALETTE_INDIGO,
 263:lvgl/src/widgets/../core/../misc/lv_color.h ****     LV_PALETTE_BLUE,
 264:lvgl/src/widgets/../core/../misc/lv_color.h ****     LV_PALETTE_LIGHT_BLUE,
 265:lvgl/src/widgets/../core/../misc/lv_color.h ****     LV_PALETTE_CYAN,
 266:lvgl/src/widgets/../core/../misc/lv_color.h ****     LV_PALETTE_TEAL,
 267:lvgl/src/widgets/../core/../misc/lv_color.h ****     LV_PALETTE_GREEN,
 268:lvgl/src/widgets/../core/../misc/lv_color.h ****     LV_PALETTE_LIGHT_GREEN,
 269:lvgl/src/widgets/../core/../misc/lv_color.h ****     LV_PALETTE_LIME,
 270:lvgl/src/widgets/../core/../misc/lv_color.h ****     LV_PALETTE_YELLOW,
 271:lvgl/src/widgets/../core/../misc/lv_color.h ****     LV_PALETTE_AMBER,
 272:lvgl/src/widgets/../core/../misc/lv_color.h ****     LV_PALETTE_ORANGE,
 273:lvgl/src/widgets/../core/../misc/lv_color.h ****     LV_PALETTE_DEEP_ORANGE,
 274:lvgl/src/widgets/../core/../misc/lv_color.h ****     LV_PALETTE_BROWN,
ARM GAS  C:\Users\OSD\AppData\Local\Temp\ccwADrda.s 			page 64


 275:lvgl/src/widgets/../core/../misc/lv_color.h ****     LV_PALETTE_BLUE_GREY,
 276:lvgl/src/widgets/../core/../misc/lv_color.h ****     LV_PALETTE_GREY,
 277:lvgl/src/widgets/../core/../misc/lv_color.h ****     _LV_PALETTE_LAST,
 278:lvgl/src/widgets/../core/../misc/lv_color.h ****     LV_PALETTE_NONE = 0xff,
 279:lvgl/src/widgets/../core/../misc/lv_color.h **** } lv_palette_t;
 280:lvgl/src/widgets/../core/../misc/lv_color.h **** 
 281:lvgl/src/widgets/../core/../misc/lv_color.h **** /**********************
 282:lvgl/src/widgets/../core/../misc/lv_color.h ****  * GLOBAL PROTOTYPES
 283:lvgl/src/widgets/../core/../misc/lv_color.h ****  **********************/
 284:lvgl/src/widgets/../core/../misc/lv_color.h **** 
 285:lvgl/src/widgets/../core/../misc/lv_color.h **** /*In color conversations:
 286:lvgl/src/widgets/../core/../misc/lv_color.h ****  * - When converting to bigger color type the LSB weight of 1 LSB is calculated
 287:lvgl/src/widgets/../core/../misc/lv_color.h ****  *   E.g. 16 bit Red has 5 bits
 288:lvgl/src/widgets/../core/../misc/lv_color.h ****  *         8 bit Red has 3 bits
 289:lvgl/src/widgets/../core/../misc/lv_color.h ****  *        ----------------------
 290:lvgl/src/widgets/../core/../misc/lv_color.h ****  *        8 bit red LSB = (2^5 - 1) / (2^3 - 1) = 31 / 7 = 4
 291:lvgl/src/widgets/../core/../misc/lv_color.h ****  *
 292:lvgl/src/widgets/../core/../misc/lv_color.h ****  * - When calculating to smaller color type simply shift out the LSBs
 293:lvgl/src/widgets/../core/../misc/lv_color.h ****  *   E.g.  8 bit Red has 3 bits
 294:lvgl/src/widgets/../core/../misc/lv_color.h ****  *        16 bit Red has 5 bits
 295:lvgl/src/widgets/../core/../misc/lv_color.h ****  *        ----------------------
 296:lvgl/src/widgets/../core/../misc/lv_color.h ****  *         Shift right with 5 - 3 = 2
 297:lvgl/src/widgets/../core/../misc/lv_color.h ****  */
 298:lvgl/src/widgets/../core/../misc/lv_color.h **** static inline uint8_t lv_color_to1(lv_color_t color)
 299:lvgl/src/widgets/../core/../misc/lv_color.h **** {
 300:lvgl/src/widgets/../core/../misc/lv_color.h **** #if LV_COLOR_DEPTH == 1
 301:lvgl/src/widgets/../core/../misc/lv_color.h ****     return color.full;
 302:lvgl/src/widgets/../core/../misc/lv_color.h **** #elif LV_COLOR_DEPTH == 8
 303:lvgl/src/widgets/../core/../misc/lv_color.h ****     if((LV_COLOR_GET_R(color) & 0x4) || (LV_COLOR_GET_G(color) & 0x4) || (LV_COLOR_GET_B(color) & 0
 304:lvgl/src/widgets/../core/../misc/lv_color.h ****         return 1;
 305:lvgl/src/widgets/../core/../misc/lv_color.h ****     }
 306:lvgl/src/widgets/../core/../misc/lv_color.h ****     else {
 307:lvgl/src/widgets/../core/../misc/lv_color.h ****         return 0;
 308:lvgl/src/widgets/../core/../misc/lv_color.h ****     }
 309:lvgl/src/widgets/../core/../misc/lv_color.h **** #elif LV_COLOR_DEPTH == 16
 310:lvgl/src/widgets/../core/../misc/lv_color.h ****     if((LV_COLOR_GET_R(color) & 0x10) || (LV_COLOR_GET_G(color) & 0x20) || (LV_COLOR_GET_B(color) &
 311:lvgl/src/widgets/../core/../misc/lv_color.h ****         return 1;
 312:lvgl/src/widgets/../core/../misc/lv_color.h ****     }
 313:lvgl/src/widgets/../core/../misc/lv_color.h ****     else {
 314:lvgl/src/widgets/../core/../misc/lv_color.h ****         return 0;
 315:lvgl/src/widgets/../core/../misc/lv_color.h ****     }
 316:lvgl/src/widgets/../core/../misc/lv_color.h **** #elif LV_COLOR_DEPTH == 32
 317:lvgl/src/widgets/../core/../misc/lv_color.h ****     if((LV_COLOR_GET_R(color) & 0x80) || (LV_COLOR_GET_G(color) & 0x80) || (LV_COLOR_GET_B(color) &
 318:lvgl/src/widgets/../core/../misc/lv_color.h ****         return 1;
 319:lvgl/src/widgets/../core/../misc/lv_color.h ****     }
 320:lvgl/src/widgets/../core/../misc/lv_color.h ****     else {
 321:lvgl/src/widgets/../core/../misc/lv_color.h ****         return 0;
 322:lvgl/src/widgets/../core/../misc/lv_color.h ****     }
 323:lvgl/src/widgets/../core/../misc/lv_color.h **** #endif
 324:lvgl/src/widgets/../core/../misc/lv_color.h **** }
 325:lvgl/src/widgets/../core/../misc/lv_color.h **** 
 326:lvgl/src/widgets/../core/../misc/lv_color.h **** static inline uint8_t lv_color_to8(lv_color_t color)
 327:lvgl/src/widgets/../core/../misc/lv_color.h **** {
 328:lvgl/src/widgets/../core/../misc/lv_color.h **** #if LV_COLOR_DEPTH == 1
 329:lvgl/src/widgets/../core/../misc/lv_color.h ****     if(color.full == 0)
 330:lvgl/src/widgets/../core/../misc/lv_color.h ****         return 0;
 331:lvgl/src/widgets/../core/../misc/lv_color.h ****     else
ARM GAS  C:\Users\OSD\AppData\Local\Temp\ccwADrda.s 			page 65


 332:lvgl/src/widgets/../core/../misc/lv_color.h ****         return 0xFF;
 333:lvgl/src/widgets/../core/../misc/lv_color.h **** #elif LV_COLOR_DEPTH == 8
 334:lvgl/src/widgets/../core/../misc/lv_color.h ****     return color.full;
 335:lvgl/src/widgets/../core/../misc/lv_color.h **** #elif LV_COLOR_DEPTH == 16
 336:lvgl/src/widgets/../core/../misc/lv_color.h ****     lv_color8_t ret;
 337:lvgl/src/widgets/../core/../misc/lv_color.h ****     LV_COLOR_SET_R8(ret, LV_COLOR_GET_R(color) >> 2); /*5 - 3  = 2*/
 338:lvgl/src/widgets/../core/../misc/lv_color.h ****     LV_COLOR_SET_G8(ret, LV_COLOR_GET_G(color) >> 3); /*6 - 3  = 3*/
 339:lvgl/src/widgets/../core/../misc/lv_color.h ****     LV_COLOR_SET_B8(ret, LV_COLOR_GET_B(color) >> 3); /*5 - 2  = 3*/
 340:lvgl/src/widgets/../core/../misc/lv_color.h ****     return ret.full;
 341:lvgl/src/widgets/../core/../misc/lv_color.h **** #elif LV_COLOR_DEPTH == 32
 342:lvgl/src/widgets/../core/../misc/lv_color.h ****     lv_color8_t ret;
 343:lvgl/src/widgets/../core/../misc/lv_color.h ****     LV_COLOR_SET_R8(ret, LV_COLOR_GET_R(color) >> 5); /*8 - 3  = 5*/
 344:lvgl/src/widgets/../core/../misc/lv_color.h ****     LV_COLOR_SET_G8(ret, LV_COLOR_GET_G(color) >> 5); /*8 - 3  = 5*/
 345:lvgl/src/widgets/../core/../misc/lv_color.h ****     LV_COLOR_SET_B8(ret, LV_COLOR_GET_B(color) >> 6); /*8 - 2  = 6*/
 346:lvgl/src/widgets/../core/../misc/lv_color.h ****     return ret.full;
 347:lvgl/src/widgets/../core/../misc/lv_color.h **** #endif
 348:lvgl/src/widgets/../core/../misc/lv_color.h **** }
 349:lvgl/src/widgets/../core/../misc/lv_color.h **** 
 350:lvgl/src/widgets/../core/../misc/lv_color.h **** static inline uint16_t lv_color_to16(lv_color_t color)
 351:lvgl/src/widgets/../core/../misc/lv_color.h **** {
 352:lvgl/src/widgets/../core/../misc/lv_color.h **** #if LV_COLOR_DEPTH == 1
 353:lvgl/src/widgets/../core/../misc/lv_color.h ****     if(color.full == 0)
 354:lvgl/src/widgets/../core/../misc/lv_color.h ****         return 0;
 355:lvgl/src/widgets/../core/../misc/lv_color.h ****     else
 356:lvgl/src/widgets/../core/../misc/lv_color.h ****         return 0xFFFF;
 357:lvgl/src/widgets/../core/../misc/lv_color.h **** #elif LV_COLOR_DEPTH == 8
 358:lvgl/src/widgets/../core/../misc/lv_color.h ****     lv_color16_t ret;
 359:lvgl/src/widgets/../core/../misc/lv_color.h ****     LV_COLOR_SET_R16(ret, LV_COLOR_GET_R(color) * 4);  /*(2^5 - 1)/(2^3 - 1) = 31/7 = 4*/
 360:lvgl/src/widgets/../core/../misc/lv_color.h ****     LV_COLOR_SET_G16(ret, LV_COLOR_GET_G(color) * 9);  /*(2^6 - 1)/(2^3 - 1) = 63/7 = 9*/
 361:lvgl/src/widgets/../core/../misc/lv_color.h ****     LV_COLOR_SET_B16(ret, LV_COLOR_GET_B(color) * 10); /*(2^5 - 1)/(2^2 - 1) = 31/3 = 10*/
 362:lvgl/src/widgets/../core/../misc/lv_color.h ****     return ret.full;
 363:lvgl/src/widgets/../core/../misc/lv_color.h **** #elif LV_COLOR_DEPTH == 16
 364:lvgl/src/widgets/../core/../misc/lv_color.h ****     return color.full;
 365:lvgl/src/widgets/../core/../misc/lv_color.h **** #elif LV_COLOR_DEPTH == 32
 366:lvgl/src/widgets/../core/../misc/lv_color.h ****     lv_color16_t ret;
 367:lvgl/src/widgets/../core/../misc/lv_color.h ****     LV_COLOR_SET_R16(ret, LV_COLOR_GET_R(color) >> 3); /*8 - 5  = 3*/
 368:lvgl/src/widgets/../core/../misc/lv_color.h ****     LV_COLOR_SET_G16(ret, LV_COLOR_GET_G(color) >> 2); /*8 - 6  = 2*/
 369:lvgl/src/widgets/../core/../misc/lv_color.h ****     LV_COLOR_SET_B16(ret, LV_COLOR_GET_B(color) >> 3); /*8 - 5  = 3*/
 370:lvgl/src/widgets/../core/../misc/lv_color.h ****     return ret.full;
 371:lvgl/src/widgets/../core/../misc/lv_color.h **** #endif
 372:lvgl/src/widgets/../core/../misc/lv_color.h **** }
 373:lvgl/src/widgets/../core/../misc/lv_color.h **** 
 374:lvgl/src/widgets/../core/../misc/lv_color.h **** static inline uint32_t lv_color_to32(lv_color_t color)
 375:lvgl/src/widgets/../core/../misc/lv_color.h **** {
 376:lvgl/src/widgets/../core/../misc/lv_color.h **** #if LV_COLOR_DEPTH == 1
 377:lvgl/src/widgets/../core/../misc/lv_color.h ****     if(color.full == 0)
 378:lvgl/src/widgets/../core/../misc/lv_color.h ****         return 0xFF000000;
 379:lvgl/src/widgets/../core/../misc/lv_color.h ****     else
 380:lvgl/src/widgets/../core/../misc/lv_color.h ****         return 0xFFFFFFFF;
 381:lvgl/src/widgets/../core/../misc/lv_color.h **** #elif LV_COLOR_DEPTH == 8
 382:lvgl/src/widgets/../core/../misc/lv_color.h ****     lv_color32_t ret;
 383:lvgl/src/widgets/../core/../misc/lv_color.h ****     LV_COLOR_SET_R32(ret, LV_COLOR_GET_R(color) * 36); /*(2^8 - 1)/(2^3 - 1) = 255/7 = 36*/
 384:lvgl/src/widgets/../core/../misc/lv_color.h ****     LV_COLOR_SET_G32(ret, LV_COLOR_GET_G(color) * 36); /*(2^8 - 1)/(2^3 - 1) = 255/7 = 36*/
 385:lvgl/src/widgets/../core/../misc/lv_color.h ****     LV_COLOR_SET_B32(ret, LV_COLOR_GET_B(color) * 85); /*(2^8 - 1)/(2^2 - 1) = 255/3 = 85*/
 386:lvgl/src/widgets/../core/../misc/lv_color.h ****     LV_COLOR_SET_A32(ret, 0xFF);
 387:lvgl/src/widgets/../core/../misc/lv_color.h ****     return ret.full;
 388:lvgl/src/widgets/../core/../misc/lv_color.h **** #elif LV_COLOR_DEPTH == 16
ARM GAS  C:\Users\OSD\AppData\Local\Temp\ccwADrda.s 			page 66


 389:lvgl/src/widgets/../core/../misc/lv_color.h ****     /**
 390:lvgl/src/widgets/../core/../misc/lv_color.h ****      * The floating point math for conversion is:
 391:lvgl/src/widgets/../core/../misc/lv_color.h ****      *  valueto = valuefrom * ( (2^bitsto - 1) / (float)(2^bitsfrom - 1) )
 392:lvgl/src/widgets/../core/../misc/lv_color.h ****      * The faster integer math for conversion is:
 393:lvgl/src/widgets/../core/../misc/lv_color.h ****      *  valueto = ( valuefrom * multiplier + adder ) >> divisor
 394:lvgl/src/widgets/../core/../misc/lv_color.h ****      *   multiplier = FLOOR( ( (2^bitsto - 1) << divisor ) / (float)(2^bitsfrom - 1) )
 395:lvgl/src/widgets/../core/../misc/lv_color.h ****      *
 396:lvgl/src/widgets/../core/../misc/lv_color.h ****      * Find the first divisor where ( adder >> divisor ) <= 0
 397:lvgl/src/widgets/../core/../misc/lv_color.h ****      *
 398:lvgl/src/widgets/../core/../misc/lv_color.h ****      * 5-bit to 8-bit: ( 31 * multiplier + adder ) >> divisor = 255
 399:lvgl/src/widgets/../core/../misc/lv_color.h ****      * divisor  multiplier  adder  min (0)  max (31)
 400:lvgl/src/widgets/../core/../misc/lv_color.h ****      *       0           8      7        7       255
 401:lvgl/src/widgets/../core/../misc/lv_color.h ****      *       1          16     14        7       255
 402:lvgl/src/widgets/../core/../misc/lv_color.h ****      *       2          32     28        7       255
 403:lvgl/src/widgets/../core/../misc/lv_color.h ****      *       3          65     25        3       255
 404:lvgl/src/widgets/../core/../misc/lv_color.h ****      *       4         131     19        1       255
 405:lvgl/src/widgets/../core/../misc/lv_color.h ****      *       5         263      7        0       255
 406:lvgl/src/widgets/../core/../misc/lv_color.h ****      *
 407:lvgl/src/widgets/../core/../misc/lv_color.h ****      * 6-bit to 8-bit: 255 = ( 63 * multiplier + adder ) >> divisor
 408:lvgl/src/widgets/../core/../misc/lv_color.h ****      * divisor  multiplier  adder  min (0)  max (63)
 409:lvgl/src/widgets/../core/../misc/lv_color.h ****      *       0           4      3        3       255
 410:lvgl/src/widgets/../core/../misc/lv_color.h ****      *       1           8      6        3       255
 411:lvgl/src/widgets/../core/../misc/lv_color.h ****      *       2          16     12        3       255
 412:lvgl/src/widgets/../core/../misc/lv_color.h ****      *       3          32     24        3       255
 413:lvgl/src/widgets/../core/../misc/lv_color.h ****      *       4          64     48        3       255
 414:lvgl/src/widgets/../core/../misc/lv_color.h ****      *       5         129     33        1       255
 415:lvgl/src/widgets/../core/../misc/lv_color.h ****      *       6         259      3        0       255
 416:lvgl/src/widgets/../core/../misc/lv_color.h ****      */
 417:lvgl/src/widgets/../core/../misc/lv_color.h **** 
 418:lvgl/src/widgets/../core/../misc/lv_color.h ****     lv_color32_t ret;
 419:lvgl/src/widgets/../core/../misc/lv_color.h ****     LV_COLOR_SET_R32(ret, (LV_COLOR_GET_R(color) * 263 + 7) >> 5);
 420:lvgl/src/widgets/../core/../misc/lv_color.h ****     LV_COLOR_SET_G32(ret, (LV_COLOR_GET_G(color) * 259 + 3) >> 6);
 421:lvgl/src/widgets/../core/../misc/lv_color.h ****     LV_COLOR_SET_B32(ret, (LV_COLOR_GET_B(color) * 263 + 7) >> 5);
 422:lvgl/src/widgets/../core/../misc/lv_color.h ****     LV_COLOR_SET_A32(ret, 0xFF);
 423:lvgl/src/widgets/../core/../misc/lv_color.h ****     return ret.full;
 424:lvgl/src/widgets/../core/../misc/lv_color.h **** #elif LV_COLOR_DEPTH == 32
 425:lvgl/src/widgets/../core/../misc/lv_color.h ****     return color.full;
 426:lvgl/src/widgets/../core/../misc/lv_color.h **** #endif
 427:lvgl/src/widgets/../core/../misc/lv_color.h **** }
 428:lvgl/src/widgets/../core/../misc/lv_color.h **** 
 429:lvgl/src/widgets/../core/../misc/lv_color.h **** //! @cond Doxygen_Suppress
 430:lvgl/src/widgets/../core/../misc/lv_color.h **** 
 431:lvgl/src/widgets/../core/../misc/lv_color.h **** /**
 432:lvgl/src/widgets/../core/../misc/lv_color.h ****  * Mix two colors with a given ratio.
 433:lvgl/src/widgets/../core/../misc/lv_color.h ****  * @param c1 the first color to mix (usually the foreground)
 434:lvgl/src/widgets/../core/../misc/lv_color.h ****  * @param c2 the second color to mix (usually the background)
 435:lvgl/src/widgets/../core/../misc/lv_color.h ****  * @param mix The ratio of the colors. 0: full `c2`, 255: full `c1`, 127: half `c1` and half`c2`
 436:lvgl/src/widgets/../core/../misc/lv_color.h ****  * @return the mixed color
 437:lvgl/src/widgets/../core/../misc/lv_color.h ****  */
 438:lvgl/src/widgets/../core/../misc/lv_color.h **** static inline lv_color_t LV_ATTRIBUTE_FAST_MEM lv_color_mix(lv_color_t c1, lv_color_t c2, uint8_t m
 439:lvgl/src/widgets/../core/../misc/lv_color.h **** {
 440:lvgl/src/widgets/../core/../misc/lv_color.h ****     lv_color_t ret;
 441:lvgl/src/widgets/../core/../misc/lv_color.h **** 
 442:lvgl/src/widgets/../core/../misc/lv_color.h **** #if LV_COLOR_DEPTH == 16 && LV_COLOR_MIX_ROUND_OFS == 0
 443:lvgl/src/widgets/../core/../misc/lv_color.h **** #if LV_COLOR_16_SWAP == 1
 444:lvgl/src/widgets/../core/../misc/lv_color.h ****     c1.full = c1.full << 8 | c1.full >> 8;
 445:lvgl/src/widgets/../core/../misc/lv_color.h ****     c2.full = c2.full << 8 | c2.full >> 8;
ARM GAS  C:\Users\OSD\AppData\Local\Temp\ccwADrda.s 			page 67


 446:lvgl/src/widgets/../core/../misc/lv_color.h **** #endif
 447:lvgl/src/widgets/../core/../misc/lv_color.h ****     /*Source: https://stackoverflow.com/a/50012418/1999969*/
 448:lvgl/src/widgets/../core/../misc/lv_color.h ****     mix = (uint32_t)((uint32_t)mix + 4) >> 3;
 449:lvgl/src/widgets/../core/../misc/lv_color.h ****     uint32_t bg = (uint32_t)((uint32_t)c2.full | ((uint32_t)c2.full << 16)) &
 450:lvgl/src/widgets/../core/../misc/lv_color.h ****                   0x7E0F81F; /*0b00000111111000001111100000011111*/
 451:lvgl/src/widgets/../core/../misc/lv_color.h ****     uint32_t fg = (uint32_t)((uint32_t)c1.full | ((uint32_t)c1.full << 16)) & 0x7E0F81F;
 452:lvgl/src/widgets/../core/../misc/lv_color.h ****     uint32_t result = ((((fg - bg) * mix) >> 5) + bg) & 0x7E0F81F;
 453:lvgl/src/widgets/../core/../misc/lv_color.h ****     ret.full = (uint16_t)((result >> 16) | result);
 454:lvgl/src/widgets/../core/../misc/lv_color.h **** #if LV_COLOR_16_SWAP == 1
 455:lvgl/src/widgets/../core/../misc/lv_color.h ****     ret.full = ret.full << 8 | ret.full >> 8;
 456:lvgl/src/widgets/../core/../misc/lv_color.h **** #endif
 457:lvgl/src/widgets/../core/../misc/lv_color.h **** #elif LV_COLOR_DEPTH != 1
 458:lvgl/src/widgets/../core/../misc/lv_color.h ****     /*LV_COLOR_DEPTH == 8, 16 or 32*/
 459:lvgl/src/widgets/../core/../misc/lv_color.h ****     LV_COLOR_SET_R(ret, LV_UDIV255((uint16_t)LV_COLOR_GET_R(c1) * mix + LV_COLOR_GET_R(c2) *
 460:lvgl/src/widgets/../core/../misc/lv_color.h ****                                    (255 - mix) + LV_COLOR_MIX_ROUND_OFS));
 461:lvgl/src/widgets/../core/../misc/lv_color.h ****     LV_COLOR_SET_G(ret, LV_UDIV255((uint16_t)LV_COLOR_GET_G(c1) * mix + LV_COLOR_GET_G(c2) *
 462:lvgl/src/widgets/../core/../misc/lv_color.h ****                                    (255 - mix) + LV_COLOR_MIX_ROUND_OFS));
 463:lvgl/src/widgets/../core/../misc/lv_color.h ****     LV_COLOR_SET_B(ret, LV_UDIV255((uint16_t)LV_COLOR_GET_B(c1) * mix + LV_COLOR_GET_B(c2) *
 464:lvgl/src/widgets/../core/../misc/lv_color.h ****                                    (255 - mix) + LV_COLOR_MIX_ROUND_OFS));
 465:lvgl/src/widgets/../core/../misc/lv_color.h ****     LV_COLOR_SET_A(ret, 0xFF);
 466:lvgl/src/widgets/../core/../misc/lv_color.h **** #else
 467:lvgl/src/widgets/../core/../misc/lv_color.h ****     /*LV_COLOR_DEPTH == 1*/
 468:lvgl/src/widgets/../core/../misc/lv_color.h ****     ret.full = mix > LV_OPA_50 ? c1.full : c2.full;
 469:lvgl/src/widgets/../core/../misc/lv_color.h **** #endif
 470:lvgl/src/widgets/../core/../misc/lv_color.h **** 
 471:lvgl/src/widgets/../core/../misc/lv_color.h ****     return ret;
 472:lvgl/src/widgets/../core/../misc/lv_color.h **** }
 473:lvgl/src/widgets/../core/../misc/lv_color.h **** 
 474:lvgl/src/widgets/../core/../misc/lv_color.h **** static inline void LV_ATTRIBUTE_FAST_MEM lv_color_premult(lv_color_t c, uint8_t mix, uint16_t * out
 475:lvgl/src/widgets/../core/../misc/lv_color.h **** {
 476:lvgl/src/widgets/../core/../misc/lv_color.h **** #if LV_COLOR_DEPTH != 1
 477:lvgl/src/widgets/../core/../misc/lv_color.h ****     out[0] = (uint16_t)LV_COLOR_GET_R(c) * mix;
 478:lvgl/src/widgets/../core/../misc/lv_color.h ****     out[1] = (uint16_t)LV_COLOR_GET_G(c) * mix;
 479:lvgl/src/widgets/../core/../misc/lv_color.h ****     out[2] = (uint16_t)LV_COLOR_GET_B(c) * mix;
 480:lvgl/src/widgets/../core/../misc/lv_color.h **** #else
 481:lvgl/src/widgets/../core/../misc/lv_color.h ****     (void) mix;
 482:lvgl/src/widgets/../core/../misc/lv_color.h ****     /*Pre-multiplication can't be used with 1 bpp*/
 483:lvgl/src/widgets/../core/../misc/lv_color.h ****     out[0] = LV_COLOR_GET_R(c);
 484:lvgl/src/widgets/../core/../misc/lv_color.h ****     out[1] = LV_COLOR_GET_G(c);
 485:lvgl/src/widgets/../core/../misc/lv_color.h ****     out[2] = LV_COLOR_GET_B(c);
 486:lvgl/src/widgets/../core/../misc/lv_color.h **** #endif
 487:lvgl/src/widgets/../core/../misc/lv_color.h **** 
 488:lvgl/src/widgets/../core/../misc/lv_color.h **** }
 489:lvgl/src/widgets/../core/../misc/lv_color.h **** 
 490:lvgl/src/widgets/../core/../misc/lv_color.h **** /**
 491:lvgl/src/widgets/../core/../misc/lv_color.h ****  * Mix two colors with a given ratio. It runs faster then `lv_color_mix` but requires some pre comp
 492:lvgl/src/widgets/../core/../misc/lv_color.h ****  * @param premult_c1 The first color. Should be preprocessed with `lv_color_premult(c1)`
 493:lvgl/src/widgets/../core/../misc/lv_color.h ****  * @param c2 The second color. As it is no pre computation required on it
 494:lvgl/src/widgets/../core/../misc/lv_color.h ****  * @param mix The ratio of the colors. 0: full `c1`, 255: full `c2`, 127: half `c1` and half `c2`.
 495:lvgl/src/widgets/../core/../misc/lv_color.h ****  *            Should be modified like mix = `255 - mix`
 496:lvgl/src/widgets/../core/../misc/lv_color.h ****  * @return the mixed color
 497:lvgl/src/widgets/../core/../misc/lv_color.h ****  * @note 255 won't give clearly `c1`.
 498:lvgl/src/widgets/../core/../misc/lv_color.h ****  */
 499:lvgl/src/widgets/../core/../misc/lv_color.h **** static inline lv_color_t LV_ATTRIBUTE_FAST_MEM lv_color_mix_premult(uint16_t * premult_c1, lv_color
 500:lvgl/src/widgets/../core/../misc/lv_color.h **** {
 501:lvgl/src/widgets/../core/../misc/lv_color.h ****     lv_color_t ret;
 502:lvgl/src/widgets/../core/../misc/lv_color.h **** #if LV_COLOR_DEPTH != 1
ARM GAS  C:\Users\OSD\AppData\Local\Temp\ccwADrda.s 			page 68


 503:lvgl/src/widgets/../core/../misc/lv_color.h ****     /*LV_COLOR_DEPTH == 8 or 32*/
 504:lvgl/src/widgets/../core/../misc/lv_color.h ****     LV_COLOR_SET_R(ret, LV_UDIV255(premult_c1[0] + LV_COLOR_GET_R(c2) * mix + LV_COLOR_MIX_ROUND_OF
 505:lvgl/src/widgets/../core/../misc/lv_color.h ****     LV_COLOR_SET_G(ret, LV_UDIV255(premult_c1[1] + LV_COLOR_GET_G(c2) * mix + LV_COLOR_MIX_ROUND_OF
 506:lvgl/src/widgets/../core/../misc/lv_color.h ****     LV_COLOR_SET_B(ret, LV_UDIV255(premult_c1[2] + LV_COLOR_GET_B(c2) * mix + LV_COLOR_MIX_ROUND_OF
 507:lvgl/src/widgets/../core/../misc/lv_color.h ****     LV_COLOR_SET_A(ret, 0xFF);
 508:lvgl/src/widgets/../core/../misc/lv_color.h **** #else
 509:lvgl/src/widgets/../core/../misc/lv_color.h ****     /*LV_COLOR_DEPTH == 1*/
 510:lvgl/src/widgets/../core/../misc/lv_color.h ****     /*Restore color1*/
 511:lvgl/src/widgets/../core/../misc/lv_color.h ****     lv_color_t c1;
 512:lvgl/src/widgets/../core/../misc/lv_color.h ****     LV_COLOR_SET_R(c1, premult_c1[0]);
 513:lvgl/src/widgets/../core/../misc/lv_color.h ****     LV_COLOR_SET_G(c1, premult_c1[1]);
 514:lvgl/src/widgets/../core/../misc/lv_color.h ****     LV_COLOR_SET_B(c1, premult_c1[2]);
 515:lvgl/src/widgets/../core/../misc/lv_color.h ****     ret.full = mix > LV_OPA_50 ? c2.full : c1.full;
 516:lvgl/src/widgets/../core/../misc/lv_color.h **** #endif
 517:lvgl/src/widgets/../core/../misc/lv_color.h **** 
 518:lvgl/src/widgets/../core/../misc/lv_color.h ****     return ret;
 519:lvgl/src/widgets/../core/../misc/lv_color.h **** }
 520:lvgl/src/widgets/../core/../misc/lv_color.h **** 
 521:lvgl/src/widgets/../core/../misc/lv_color.h **** /**
 522:lvgl/src/widgets/../core/../misc/lv_color.h ****  * Mix two colors. Both color can have alpha value.
 523:lvgl/src/widgets/../core/../misc/lv_color.h ****  * @param bg_color background color
 524:lvgl/src/widgets/../core/../misc/lv_color.h ****  * @param bg_opa alpha of the background color
 525:lvgl/src/widgets/../core/../misc/lv_color.h ****  * @param fg_color foreground color
 526:lvgl/src/widgets/../core/../misc/lv_color.h ****  * @param fg_opa alpha of the foreground color
 527:lvgl/src/widgets/../core/../misc/lv_color.h ****  * @param res_color the result color
 528:lvgl/src/widgets/../core/../misc/lv_color.h ****  * @param res_opa the result opacity
 529:lvgl/src/widgets/../core/../misc/lv_color.h ****  */
 530:lvgl/src/widgets/../core/../misc/lv_color.h **** static inline void LV_ATTRIBUTE_FAST_MEM lv_color_mix_with_alpha(lv_color_t bg_color, lv_opa_t bg_o
 531:lvgl/src/widgets/../core/../misc/lv_color.h ****                                                                  lv_color_t fg_color, lv_opa_t fg_o
 532:lvgl/src/widgets/../core/../misc/lv_color.h ****                                                                  lv_color_t * res_color, lv_opa_t *
 533:lvgl/src/widgets/../core/../misc/lv_color.h **** {
 534:lvgl/src/widgets/../core/../misc/lv_color.h ****     /*Pick the foreground if it's fully opaque or the Background is fully transparent*/
 535:lvgl/src/widgets/../core/../misc/lv_color.h ****     if(fg_opa >= LV_OPA_MAX || bg_opa <= LV_OPA_MIN) {
 536:lvgl/src/widgets/../core/../misc/lv_color.h ****         res_color->full = fg_color.full;
 537:lvgl/src/widgets/../core/../misc/lv_color.h ****         *res_opa = fg_opa;
 538:lvgl/src/widgets/../core/../misc/lv_color.h ****     }
 539:lvgl/src/widgets/../core/../misc/lv_color.h ****     /*Transparent foreground: use the Background*/
 540:lvgl/src/widgets/../core/../misc/lv_color.h ****     else if(fg_opa <= LV_OPA_MIN) {
 541:lvgl/src/widgets/../core/../misc/lv_color.h ****         res_color->full = bg_color.full;
 542:lvgl/src/widgets/../core/../misc/lv_color.h ****         *res_opa = bg_opa;
 543:lvgl/src/widgets/../core/../misc/lv_color.h ****     }
 544:lvgl/src/widgets/../core/../misc/lv_color.h ****     /*Opaque background: use simple mix*/
 545:lvgl/src/widgets/../core/../misc/lv_color.h ****     else if(bg_opa >= LV_OPA_MAX) {
 546:lvgl/src/widgets/../core/../misc/lv_color.h ****         *res_color = lv_color_mix(fg_color, bg_color, fg_opa);
 547:lvgl/src/widgets/../core/../misc/lv_color.h ****         *res_opa = LV_OPA_COVER;
 548:lvgl/src/widgets/../core/../misc/lv_color.h ****     }
 549:lvgl/src/widgets/../core/../misc/lv_color.h ****     /*Both colors have alpha. Expensive calculation need to be applied*/
 550:lvgl/src/widgets/../core/../misc/lv_color.h ****     else {
 551:lvgl/src/widgets/../core/../misc/lv_color.h ****         /*Save the parameters and the result. If they will be asked again don't compute again*/
 552:lvgl/src/widgets/../core/../misc/lv_color.h ****         static lv_opa_t fg_opa_save     = 0;
 553:lvgl/src/widgets/../core/../misc/lv_color.h ****         static lv_opa_t bg_opa_save     = 0;
 554:lvgl/src/widgets/../core/../misc/lv_color.h ****         static lv_color_t fg_color_save = _LV_COLOR_ZERO_INITIALIZER;
 555:lvgl/src/widgets/../core/../misc/lv_color.h ****         static lv_color_t bg_color_save = _LV_COLOR_ZERO_INITIALIZER;
 556:lvgl/src/widgets/../core/../misc/lv_color.h ****         static lv_color_t res_color_saved = _LV_COLOR_ZERO_INITIALIZER;
 557:lvgl/src/widgets/../core/../misc/lv_color.h ****         static lv_opa_t res_opa_saved = 0;
 558:lvgl/src/widgets/../core/../misc/lv_color.h **** 
 559:lvgl/src/widgets/../core/../misc/lv_color.h ****         if(fg_opa != fg_opa_save || bg_opa != bg_opa_save || fg_color.full != fg_color_save.full ||
ARM GAS  C:\Users\OSD\AppData\Local\Temp\ccwADrda.s 			page 69


 560:lvgl/src/widgets/../core/../misc/lv_color.h ****            bg_color.full != bg_color_save.full) {
 561:lvgl/src/widgets/../core/../misc/lv_color.h ****             fg_opa_save        = fg_opa;
 562:lvgl/src/widgets/../core/../misc/lv_color.h ****             bg_opa_save        = bg_opa;
 563:lvgl/src/widgets/../core/../misc/lv_color.h ****             fg_color_save.full = fg_color.full;
 564:lvgl/src/widgets/../core/../misc/lv_color.h ****             bg_color_save.full = bg_color.full;
 565:lvgl/src/widgets/../core/../misc/lv_color.h ****             /*Info:
 566:lvgl/src/widgets/../core/../misc/lv_color.h ****              * https://en.wikipedia.org/wiki/Alpha_compositing#Analytical_derivation_of_the_over_op
 567:lvgl/src/widgets/../core/../misc/lv_color.h ****             res_opa_saved = 255 - ((uint16_t)((uint16_t)(255 - fg_opa) * (255 - bg_opa)) >> 8);
 568:lvgl/src/widgets/../core/../misc/lv_color.h ****             LV_ASSERT(res_opa_saved != 0);
 569:lvgl/src/widgets/../core/../misc/lv_color.h ****             lv_opa_t ratio = (uint16_t)((uint16_t)fg_opa * 255) / res_opa_saved;
 570:lvgl/src/widgets/../core/../misc/lv_color.h ****             res_color_saved = lv_color_mix(fg_color, bg_color, ratio);
 571:lvgl/src/widgets/../core/../misc/lv_color.h **** 
 572:lvgl/src/widgets/../core/../misc/lv_color.h ****         }
 573:lvgl/src/widgets/../core/../misc/lv_color.h **** 
 574:lvgl/src/widgets/../core/../misc/lv_color.h ****         res_color->full = res_color_saved.full;
 575:lvgl/src/widgets/../core/../misc/lv_color.h ****         *res_opa = res_opa_saved;
 576:lvgl/src/widgets/../core/../misc/lv_color.h ****     }
 577:lvgl/src/widgets/../core/../misc/lv_color.h **** }
 578:lvgl/src/widgets/../core/../misc/lv_color.h **** 
 579:lvgl/src/widgets/../core/../misc/lv_color.h **** //! @endcond
 580:lvgl/src/widgets/../core/../misc/lv_color.h **** 
 581:lvgl/src/widgets/../core/../misc/lv_color.h **** /**
 582:lvgl/src/widgets/../core/../misc/lv_color.h ****  * Get the brightness of a color
 583:lvgl/src/widgets/../core/../misc/lv_color.h ****  * @param color a color
 584:lvgl/src/widgets/../core/../misc/lv_color.h ****  * @return the brightness [0..255]
 585:lvgl/src/widgets/../core/../misc/lv_color.h ****  */
 586:lvgl/src/widgets/../core/../misc/lv_color.h **** static inline uint8_t lv_color_brightness(lv_color_t color)
 587:lvgl/src/widgets/../core/../misc/lv_color.h **** {
 588:lvgl/src/widgets/../core/../misc/lv_color.h ****     lv_color32_t c32;
 589:lvgl/src/widgets/../core/../misc/lv_color.h ****     c32.full        = lv_color_to32(color);
 590:lvgl/src/widgets/../core/../misc/lv_color.h ****     uint16_t bright = (uint16_t)(3u * LV_COLOR_GET_R32(c32) + LV_COLOR_GET_B32(c32) + 4u * LV_COLOR
 591:lvgl/src/widgets/../core/../misc/lv_color.h ****     return (uint8_t)(bright >> 3);
 592:lvgl/src/widgets/../core/../misc/lv_color.h **** }
 593:lvgl/src/widgets/../core/../misc/lv_color.h **** 
 594:lvgl/src/widgets/../core/../misc/lv_color.h **** static inline lv_color_t lv_color_make(uint8_t r, uint8_t g, uint8_t b)
 595:lvgl/src/widgets/../core/../misc/lv_color.h **** {
 596:lvgl/src/widgets/../core/../misc/lv_color.h ****     return _LV_COLOR_MAKE_TYPE_HELPER LV_COLOR_MAKE(r, g, b);
 597:lvgl/src/widgets/../core/../misc/lv_color.h **** }
 598:lvgl/src/widgets/../core/../misc/lv_color.h **** 
 599:lvgl/src/widgets/../core/../misc/lv_color.h **** static inline lv_color_t lv_color_hex(uint32_t c)
 600:lvgl/src/widgets/../core/../misc/lv_color.h **** {
 601:lvgl/src/widgets/../core/../misc/lv_color.h **** #if LV_COLOR_DEPTH == 16
 602:lvgl/src/widgets/../core/../misc/lv_color.h ****     lv_color_t r;
 603:lvgl/src/widgets/../core/../misc/lv_color.h **** #if LV_COLOR_16_SWAP == 0
 604:lvgl/src/widgets/../core/../misc/lv_color.h ****     /* Convert a 4 bytes per pixel in format ARGB32 to R5G6B5 format
 605:lvgl/src/widgets/../core/../misc/lv_color.h ****         naive way (by calling lv_color_make with components):
 606:lvgl/src/widgets/../core/../misc/lv_color.h ****                     r = ((c & 0xFF0000) >> 19)
 607:lvgl/src/widgets/../core/../misc/lv_color.h ****                     g = ((c & 0xFF00) >> 10)
 608:lvgl/src/widgets/../core/../misc/lv_color.h ****                     b = ((c & 0xFF) >> 3)
 609:lvgl/src/widgets/../core/../misc/lv_color.h ****                     rgb565 = (r << 11) | (g << 5) | b
 610:lvgl/src/widgets/../core/../misc/lv_color.h ****         That's 3 mask, 5 bitshift and 2 or operations
 611:lvgl/src/widgets/../core/../misc/lv_color.h **** 
 612:lvgl/src/widgets/../core/../misc/lv_color.h ****         A bit better:
 613:lvgl/src/widgets/../core/../misc/lv_color.h ****                     r = ((c & 0xF80000) >> 8)
 614:lvgl/src/widgets/../core/../misc/lv_color.h ****                     g = ((c & 0xFC00) >> 5)
 615:lvgl/src/widgets/../core/../misc/lv_color.h ****                     b = ((c & 0xFF) >> 3)
 616:lvgl/src/widgets/../core/../misc/lv_color.h ****                     rgb565 = r | g | b
ARM GAS  C:\Users\OSD\AppData\Local\Temp\ccwADrda.s 			page 70


 617:lvgl/src/widgets/../core/../misc/lv_color.h ****         That's 3 mask, 3 bitshifts and 2 or operations */
 618:lvgl/src/widgets/../core/../misc/lv_color.h ****     r.full = (uint16_t)(((c & 0xF80000) >> 8) | ((c & 0xFC00) >> 5) | ((c & 0xFF) >> 3));
 619:lvgl/src/widgets/../core/../misc/lv_color.h **** #else
 620:lvgl/src/widgets/../core/../misc/lv_color.h ****     /* We want: rrrr rrrr GGGg gggg bbbb bbbb => gggb bbbb rrrr rGGG */
 621:lvgl/src/widgets/../core/../misc/lv_color.h ****     r.full = (uint16_t)(((c & 0xF80000) >> 16) | ((c & 0xFC00) >> 13) | ((c & 0x1C00) << 3) | ((c &
 622:lvgl/src/widgets/../core/../misc/lv_color.h **** #endif
 623:lvgl/src/widgets/../core/../misc/lv_color.h ****     return r;
 624:lvgl/src/widgets/../core/../misc/lv_color.h **** #elif LV_COLOR_DEPTH == 32
 625:lvgl/src/widgets/../core/../misc/lv_color.h ****     lv_color_t r;
 626:lvgl/src/widgets/../core/../misc/lv_color.h ****     r.full = c | 0xFF000000;
 627:lvgl/src/widgets/../core/../misc/lv_color.h ****     return r;
 628:lvgl/src/widgets/../core/../misc/lv_color.h **** #else /*LV_COLOR_DEPTH == 8*/
 629:lvgl/src/widgets/../core/../misc/lv_color.h ****     return lv_color_make((uint8_t)((c >> 16) & 0xFF), (uint8_t)((c >> 8) & 0xFF), (uint8_t)(c & 0xF
 630:lvgl/src/widgets/../core/../misc/lv_color.h **** #endif
 631:lvgl/src/widgets/../core/../misc/lv_color.h **** }
 632:lvgl/src/widgets/../core/../misc/lv_color.h **** 
 633:lvgl/src/widgets/../core/../misc/lv_color.h **** static inline lv_color_t lv_color_hex3(uint32_t c)
 634:lvgl/src/widgets/../core/../misc/lv_color.h **** {
 635:lvgl/src/widgets/../core/../misc/lv_color.h ****     return lv_color_make((uint8_t)(((c >> 4) & 0xF0) | ((c >> 8) & 0xF)), (uint8_t)((c & 0xF0) | ((
 636:lvgl/src/widgets/../core/../misc/lv_color.h ****                          (uint8_t)((c & 0xF) | ((c & 0xF) << 4)));
 637:lvgl/src/widgets/../core/../misc/lv_color.h **** }
 638:lvgl/src/widgets/../core/../misc/lv_color.h **** 
 639:lvgl/src/widgets/../core/../misc/lv_color.h **** static inline void lv_color_filter_dsc_init(lv_color_filter_dsc_t * dsc, lv_color_filter_cb_t cb)
 640:lvgl/src/widgets/../core/../misc/lv_color.h **** {
 641:lvgl/src/widgets/../core/../misc/lv_color.h ****     dsc->filter_cb = cb;
 642:lvgl/src/widgets/../core/../misc/lv_color.h **** }
 643:lvgl/src/widgets/../core/../misc/lv_color.h **** 
 644:lvgl/src/widgets/../core/../misc/lv_color.h **** //! @cond Doxygen_Suppress
 645:lvgl/src/widgets/../core/../misc/lv_color.h **** //!
 646:lvgl/src/widgets/../core/../misc/lv_color.h **** void /* LV_ATTRIBUTE_FAST_MEM */ lv_color_fill(lv_color_t * buf, lv_color_t color, uint32_t px_num)
 647:lvgl/src/widgets/../core/../misc/lv_color.h **** 
 648:lvgl/src/widgets/../core/../misc/lv_color.h **** //! @endcond
 649:lvgl/src/widgets/../core/../misc/lv_color.h **** lv_color_t lv_color_lighten(lv_color_t c, lv_opa_t lvl);
 650:lvgl/src/widgets/../core/../misc/lv_color.h **** 
 651:lvgl/src/widgets/../core/../misc/lv_color.h **** lv_color_t lv_color_darken(lv_color_t c, lv_opa_t lvl);
 652:lvgl/src/widgets/../core/../misc/lv_color.h **** 
 653:lvgl/src/widgets/../core/../misc/lv_color.h **** lv_color_t lv_color_change_lightness(lv_color_t c, lv_opa_t lvl);
 654:lvgl/src/widgets/../core/../misc/lv_color.h **** 
 655:lvgl/src/widgets/../core/../misc/lv_color.h **** /**
 656:lvgl/src/widgets/../core/../misc/lv_color.h ****  * Convert a HSV color to RGB
 657:lvgl/src/widgets/../core/../misc/lv_color.h ****  * @param h hue [0..359]
 658:lvgl/src/widgets/../core/../misc/lv_color.h ****  * @param s saturation [0..100]
 659:lvgl/src/widgets/../core/../misc/lv_color.h ****  * @param v value [0..100]
 660:lvgl/src/widgets/../core/../misc/lv_color.h ****  * @return the given RGB color in RGB (with LV_COLOR_DEPTH depth)
 661:lvgl/src/widgets/../core/../misc/lv_color.h ****  */
 662:lvgl/src/widgets/../core/../misc/lv_color.h **** lv_color_t lv_color_hsv_to_rgb(uint16_t h, uint8_t s, uint8_t v);
 663:lvgl/src/widgets/../core/../misc/lv_color.h **** 
 664:lvgl/src/widgets/../core/../misc/lv_color.h **** /**
 665:lvgl/src/widgets/../core/../misc/lv_color.h ****  * Convert a 32-bit RGB color to HSV
 666:lvgl/src/widgets/../core/../misc/lv_color.h ****  * @param r8 8-bit red
 667:lvgl/src/widgets/../core/../misc/lv_color.h ****  * @param g8 8-bit green
 668:lvgl/src/widgets/../core/../misc/lv_color.h ****  * @param b8 8-bit blue
 669:lvgl/src/widgets/../core/../misc/lv_color.h ****  * @return the given RGB color in HSV
 670:lvgl/src/widgets/../core/../misc/lv_color.h ****  */
 671:lvgl/src/widgets/../core/../misc/lv_color.h **** lv_color_hsv_t lv_color_rgb_to_hsv(uint8_t r8, uint8_t g8, uint8_t b8);
 672:lvgl/src/widgets/../core/../misc/lv_color.h **** 
 673:lvgl/src/widgets/../core/../misc/lv_color.h **** /**
ARM GAS  C:\Users\OSD\AppData\Local\Temp\ccwADrda.s 			page 71


 674:lvgl/src/widgets/../core/../misc/lv_color.h ****  * Convert a color to HSV
 675:lvgl/src/widgets/../core/../misc/lv_color.h ****  * @param color color
 676:lvgl/src/widgets/../core/../misc/lv_color.h ****  * @return the given color in HSV
 677:lvgl/src/widgets/../core/../misc/lv_color.h ****  */
 678:lvgl/src/widgets/../core/../misc/lv_color.h **** lv_color_hsv_t lv_color_to_hsv(lv_color_t color);
 679:lvgl/src/widgets/../core/../misc/lv_color.h **** 
 680:lvgl/src/widgets/../core/../misc/lv_color.h **** /**
 681:lvgl/src/widgets/../core/../misc/lv_color.h ****  * Just a wrapper around LV_COLOR_CHROMA_KEY because it might be more convenient to use a function 
 682:lvgl/src/widgets/../core/../misc/lv_color.h ****  * @return LV_COLOR_CHROMA_KEY
 683:lvgl/src/widgets/../core/../misc/lv_color.h ****  */
 684:lvgl/src/widgets/../core/../misc/lv_color.h **** static inline lv_color_t lv_color_chroma_key(void)
 685:lvgl/src/widgets/../core/../misc/lv_color.h **** {
 686:lvgl/src/widgets/../core/../misc/lv_color.h ****     return LV_COLOR_CHROMA_KEY;
 687:lvgl/src/widgets/../core/../misc/lv_color.h **** }
 688:lvgl/src/widgets/../core/../misc/lv_color.h **** 
 689:lvgl/src/widgets/../core/../misc/lv_color.h **** /**********************
 690:lvgl/src/widgets/../core/../misc/lv_color.h ****  *  PREDEFINED COLORS
 691:lvgl/src/widgets/../core/../misc/lv_color.h ****  **********************/
 692:lvgl/src/widgets/../core/../misc/lv_color.h **** /*Source: https://vuetifyjs.com/en/styles/colors/#material-colors*/
 693:lvgl/src/widgets/../core/../misc/lv_color.h **** 
 694:lvgl/src/widgets/../core/../misc/lv_color.h **** lv_color_t lv_palette_main(lv_palette_t p);
 695:lvgl/src/widgets/../core/../misc/lv_color.h **** static inline lv_color_t lv_color_white(void)
 1564              		.loc 4 695 26 discriminator 4 view .LVU529
 1565              	.LBE33:
 1566              	.LBE32:
 696:lvgl/src/widgets/../core/../misc/lv_color.h **** {
 697:lvgl/src/widgets/../core/../misc/lv_color.h ****     return lv_color_make(0xff, 0xff, 0xff);
 1567              		.loc 4 697 5 discriminator 4 view .LVU530
 1568              	.LBB37:
 1569              	.LBB36:
 1570              	.LBB34:
 1571              	.LBI34:
 594:lvgl/src/widgets/../core/../misc/lv_color.h **** {
 1572              		.loc 4 594 26 discriminator 4 view .LVU531
 1573              	.LBB35:
 596:lvgl/src/widgets/../core/../misc/lv_color.h **** }
 1574              		.loc 4 596 5 discriminator 4 view .LVU532
 596:lvgl/src/widgets/../core/../misc/lv_color.h **** }
 1575              		.loc 4 596 5 is_stmt 0 discriminator 4 view .LVU533
 1576              	.LBE35:
 1577              	.LBE34:
 1578              	.LBE36:
 334:lvgl/src/widgets/lv_canvas.c ****             if(has_alpha) opa = lv_img_buf_get_px_alpha(&line_img, x_safe, 0);
 1579              		.loc 1 334 17 discriminator 4 view .LVU534
 1580 0216 4FF0FF33 		mov	r3, #-1
 1581 021a 0022     		movs	r2, #0
 1582 021c 5946     		mov	r1, fp
 1583 021e 0BA8     		add	r0, sp, #44
 1584 0220 FFF7FEFF 		bl	lv_img_buf_get_px_color
 1585              	.LVL163:
 1586 0224 8246     		mov	r10, r0
 335:lvgl/src/widgets/lv_canvas.c **** 
 1587              		.loc 1 335 13 is_stmt 1 discriminator 4 view .LVU535
 335:lvgl/src/widgets/lv_canvas.c **** 
 1588              		.loc 1 335 15 is_stmt 0 discriminator 4 view .LVU536
 1589 0226 002F     		cmp	r7, #0
 1590 0228 38D1     		bne	.L86
ARM GAS  C:\Users\OSD\AppData\Local\Temp\ccwADrda.s 			page 72


 1591              	.L72:
 337:lvgl/src/widgets/lv_canvas.c **** #if LV_COLOR_DEPTH == 16 && LV_COLOR_16_SWAP
 1592              		.loc 1 337 13 is_stmt 1 view .LVU537
 1593              	.LVL164:
 337:lvgl/src/widgets/lv_canvas.c **** #if LV_COLOR_DEPTH == 16 && LV_COLOR_16_SWAP
 1594              		.loc 1 337 25 is_stmt 0 view .LVU538
 1595 022a CAF30743 		ubfx	r3, r10, #16, #8
 337:lvgl/src/widgets/lv_canvas.c **** #if LV_COLOR_DEPTH == 16 && LV_COLOR_16_SWAP
 1596              		.loc 1 337 18 view .LVU539
 1597 022e 1D44     		add	r5, r5, r3
 1598              	.LVL165:
 341:lvgl/src/widgets/lv_canvas.c **** #endif
 1599              		.loc 1 341 13 is_stmt 1 view .LVU540
 341:lvgl/src/widgets/lv_canvas.c **** #endif
 1600              		.loc 1 341 25 is_stmt 0 view .LVU541
 1601 0230 CAF30723 		ubfx	r3, r10, #8, #8
 341:lvgl/src/widgets/lv_canvas.c **** #endif
 1602              		.loc 1 341 18 view .LVU542
 1603 0234 1E44     		add	r6, r6, r3
 1604              	.LVL166:
 343:lvgl/src/widgets/lv_canvas.c ****             if(has_alpha) asum += opa;
 1605              		.loc 1 343 13 is_stmt 1 view .LVU543
 343:lvgl/src/widgets/lv_canvas.c ****             if(has_alpha) asum += opa;
 1606              		.loc 1 343 18 is_stmt 0 view .LVU544
 1607 0236 58FA8AF8 		uxtab	r8, r8, r10
 1608              	.LVL167:
 344:lvgl/src/widgets/lv_canvas.c ****         }
 1609              		.loc 1 344 13 is_stmt 1 view .LVU545
 344:lvgl/src/widgets/lv_canvas.c ****         }
 1610              		.loc 1 344 15 is_stmt 0 view .LVU546
 1611 023a 1FB1     		cbz	r7, .L73
 344:lvgl/src/widgets/lv_canvas.c ****         }
 1612              		.loc 1 344 27 is_stmt 1 discriminator 1 view .LVU547
 344:lvgl/src/widgets/lv_canvas.c ****         }
 1613              		.loc 1 344 32 is_stmt 0 discriminator 1 view .LVU548
 1614 023c 009B     		ldr	r3, [sp]
 1615 023e 019A     		ldr	r2, [sp, #4]
 1616 0240 1344     		add	r3, r3, r2
 1617 0242 0093     		str	r3, [sp]
 1618              	.LVL168:
 1619              	.L73:
 300:lvgl/src/widgets/lv_canvas.c **** 
 1620              		.loc 1 300 34 is_stmt 1 discriminator 2 view .LVU549
 300:lvgl/src/widgets/lv_canvas.c **** 
 1621              		.loc 1 300 35 is_stmt 0 discriminator 2 view .LVU550
 1622 0244 0134     		adds	r4, r4, #1
 1623              	.LVL169:
 300:lvgl/src/widgets/lv_canvas.c **** 
 1624              		.loc 1 300 35 discriminator 2 view .LVU551
 1625 0246 24B2     		sxth	r4, r4
 1626              	.LVL170:
 1627              	.L74:
 300:lvgl/src/widgets/lv_canvas.c **** 
 1628              		.loc 1 300 23 is_stmt 1 discriminator 1 view .LVU552
 300:lvgl/src/widgets/lv_canvas.c **** 
 1629              		.loc 1 300 29 is_stmt 0 discriminator 1 view .LVU553
 1630 0248 BDF93C30 		ldrsh	r3, [sp, #60]
ARM GAS  C:\Users\OSD\AppData\Local\Temp\ccwADrda.s 			page 73


 300:lvgl/src/widgets/lv_canvas.c **** 
 1631              		.loc 1 300 9 discriminator 1 view .LVU554
 1632 024c A342     		cmp	r3, r4
 1633 024e 2FDB     		blt	.L87
 302:lvgl/src/widgets/lv_canvas.c ****                 c.ch.red = rsum / r;
 1634              		.loc 1 302 13 is_stmt 1 view .LVU555
 302:lvgl/src/widgets/lv_canvas.c ****                 c.ch.red = rsum / r;
 1635              		.loc 1 302 15 is_stmt 0 view .LVU556
 1636 0250 009A     		ldr	r2, [sp]
 1637 0252 002A     		cmp	r2, #0
 1638 0254 AED0     		beq	.L66
 303:lvgl/src/widgets/lv_canvas.c **** #if LV_COLOR_DEPTH == 16 && LV_COLOR_16_SWAP
 1639              		.loc 1 303 17 is_stmt 1 view .LVU557
 303:lvgl/src/widgets/lv_canvas.c **** #if LV_COLOR_DEPTH == 16 && LV_COLOR_16_SWAP
 1640              		.loc 1 303 33 is_stmt 0 view .LVU558
 1641 0256 0799     		ldr	r1, [sp, #28]
 1642 0258 B5FBF1F3 		udiv	r3, r5, r1
 303:lvgl/src/widgets/lv_canvas.c **** #if LV_COLOR_DEPTH == 16 && LV_COLOR_16_SWAP
 1643              		.loc 1 303 26 view .LVU559
 1644 025c 63F3174A 		bfi	r10, r3, #16, #8
 309:lvgl/src/widgets/lv_canvas.c **** #endif
 1645              		.loc 1 309 17 is_stmt 1 view .LVU560
 309:lvgl/src/widgets/lv_canvas.c **** #endif
 1646              		.loc 1 309 35 is_stmt 0 view .LVU561
 1647 0260 B6FBF1F3 		udiv	r3, r6, r1
 309:lvgl/src/widgets/lv_canvas.c **** #endif
 1648              		.loc 1 309 28 view .LVU562
 1649 0264 63F30F2A 		bfi	r10, r3, #8, #8
 311:lvgl/src/widgets/lv_canvas.c ****                 if(has_alpha) opa = asum / r;
 1650              		.loc 1 311 17 is_stmt 1 view .LVU563
 311:lvgl/src/widgets/lv_canvas.c ****                 if(has_alpha) opa = asum / r;
 1651              		.loc 1 311 34 is_stmt 0 view .LVU564
 1652 0268 B8FBF1F3 		udiv	r3, r8, r1
 311:lvgl/src/widgets/lv_canvas.c ****                 if(has_alpha) opa = asum / r;
 1653              		.loc 1 311 27 view .LVU565
 1654 026c 63F3070A 		bfi	r10, r3, #0, #8
 312:lvgl/src/widgets/lv_canvas.c **** 
 1655              		.loc 1 312 17 is_stmt 1 view .LVU566
 312:lvgl/src/widgets/lv_canvas.c **** 
 1656              		.loc 1 312 19 is_stmt 0 view .LVU567
 1657 0270 002F     		cmp	r7, #0
 1658 0272 98D0     		beq	.L67
 312:lvgl/src/widgets/lv_canvas.c **** 
 1659              		.loc 1 312 31 is_stmt 1 discriminator 1 view .LVU568
 312:lvgl/src/widgets/lv_canvas.c **** 
 1660              		.loc 1 312 42 is_stmt 0 discriminator 1 view .LVU569
 1661 0274 B2FBF1F0 		udiv	r0, r2, r1
 312:lvgl/src/widgets/lv_canvas.c **** 
 1662              		.loc 1 312 35 discriminator 1 view .LVU570
 1663 0278 C3B2     		uxtb	r3, r0
 1664 027a 0193     		str	r3, [sp, #4]
 1665              	.LVL171:
 312:lvgl/src/widgets/lv_canvas.c **** 
 1666              		.loc 1 312 35 discriminator 1 view .LVU571
 1667 027c 93E7     		b	.L67
 1668              	.L84:
 316:lvgl/src/widgets/lv_canvas.c **** 
ARM GAS  C:\Users\OSD\AppData\Local\Temp\ccwADrda.s 			page 74


 1669              		.loc 1 316 27 is_stmt 1 discriminator 1 view .LVU572
 1670 027e 019B     		ldr	r3, [sp, #4]
 1671 0280 059A     		ldr	r2, [sp, #20]
 1672 0282 2146     		mov	r1, r4
 1673 0284 09F13C00 		add	r0, r9, #60
 1674 0288 FFF7FEFF 		bl	lv_img_buf_set_px_alpha
 1675              	.LVL172:
 1676 028c 94E7     		b	.L68
 1677              	.LVL173:
 1678              	.L85:
 321:lvgl/src/widgets/lv_canvas.c **** 
 1679              		.loc 1 321 27 discriminator 1 view .LVU573
 321:lvgl/src/widgets/lv_canvas.c **** 
 1680              		.loc 1 321 33 is_stmt 0 discriminator 1 view .LVU574
 1681 028e 0022     		movs	r2, #0
 1682 0290 5946     		mov	r1, fp
 1683 0292 0BA8     		add	r0, sp, #44
 1684 0294 FFF7FEFF 		bl	lv_img_buf_get_px_alpha
 1685              	.LVL174:
 1686 0298 0190     		str	r0, [sp, #4]
 1687              	.LVL175:
 321:lvgl/src/widgets/lv_canvas.c **** 
 1688              		.loc 1 321 33 discriminator 1 view .LVU575
 1689 029a 9EE7     		b	.L69
 1690              	.L86:
 335:lvgl/src/widgets/lv_canvas.c **** 
 1691              		.loc 1 335 27 is_stmt 1 discriminator 1 view .LVU576
 335:lvgl/src/widgets/lv_canvas.c **** 
 1692              		.loc 1 335 33 is_stmt 0 discriminator 1 view .LVU577
 1693 029c 0022     		movs	r2, #0
 1694 029e 5946     		mov	r1, fp
 1695 02a0 0BA8     		add	r0, sp, #44
 1696 02a2 FFF7FEFF 		bl	lv_img_buf_get_px_alpha
 1697              	.LVL176:
 1698 02a6 0190     		str	r0, [sp, #4]
 1699              	.LVL177:
 335:lvgl/src/widgets/lv_canvas.c **** 
 1700              		.loc 1 335 33 discriminator 1 view .LVU578
 1701 02a8 BFE7     		b	.L72
 1702              	.LVL178:
 1703              	.L78:
 335:lvgl/src/widgets/lv_canvas.c **** 
 1704              		.loc 1 335 33 discriminator 1 view .LVU579
 1705 02aa B846     		mov	r8, r7
 1706              	.LVL179:
 335:lvgl/src/widgets/lv_canvas.c **** 
 1707              		.loc 1 335 33 discriminator 1 view .LVU580
 1708 02ac 5F46     		mov	r7, fp
 1709              	.LVL180:
 335:lvgl/src/widgets/lv_canvas.c **** 
 1710              		.loc 1 335 33 discriminator 1 view .LVU581
 1711 02ae CBE7     		b	.L74
 1712              	.LVL181:
 1713              	.L87:
 335:lvgl/src/widgets/lv_canvas.c **** 
 1714              		.loc 1 335 33 discriminator 1 view .LVU582
 1715              	.LBE37:
ARM GAS  C:\Users\OSD\AppData\Local\Temp\ccwADrda.s 			page 75


 270:lvgl/src/widgets/lv_canvas.c ****         uint32_t asum = 0;
 1716              		.loc 1 270 31 discriminator 2 view .LVU583
 1717 02b0 BB46     		mov	fp, r7
 270:lvgl/src/widgets/lv_canvas.c ****         uint32_t asum = 0;
 1718              		.loc 1 270 30 is_stmt 1 discriminator 2 view .LVU584
 270:lvgl/src/widgets/lv_canvas.c ****         uint32_t asum = 0;
 1719              		.loc 1 270 31 is_stmt 0 discriminator 2 view .LVU585
 1720 02b2 059B     		ldr	r3, [sp, #20]
 1721 02b4 0133     		adds	r3, r3, #1
 1722 02b6 1BB2     		sxth	r3, r3
 1723 02b8 0593     		str	r3, [sp, #20]
 1724              	.LVL182:
 1725              	.L58:
 270:lvgl/src/widgets/lv_canvas.c ****         uint32_t asum = 0;
 1726              		.loc 1 270 19 is_stmt 1 discriminator 1 view .LVU586
 270:lvgl/src/widgets/lv_canvas.c ****         uint32_t asum = 0;
 1727              		.loc 1 270 25 is_stmt 0 discriminator 1 view .LVU587
 1728 02ba BDF93E30 		ldrsh	r3, [sp, #62]
 270:lvgl/src/widgets/lv_canvas.c ****         uint32_t asum = 0;
 1729              		.loc 1 270 5 discriminator 1 view .LVU588
 1730 02be 059A     		ldr	r2, [sp, #20]
 1731 02c0 9342     		cmp	r3, r2
 1732 02c2 19DB     		blt	.L88
 1733              	.LBB38:
 271:lvgl/src/widgets/lv_canvas.c ****         uint32_t rsum = 0;
 1734              		.loc 1 271 9 is_stmt 1 view .LVU589
 1735              	.LVL183:
 272:lvgl/src/widgets/lv_canvas.c ****         uint32_t gsum = 0;
 1736              		.loc 1 272 9 view .LVU590
 273:lvgl/src/widgets/lv_canvas.c ****         uint32_t bsum = 0;
 1737              		.loc 1 273 9 view .LVU591
 274:lvgl/src/widgets/lv_canvas.c **** 
 1738              		.loc 1 274 9 view .LVU592
 276:lvgl/src/widgets/lv_canvas.c ****         lv_opa_t opa = LV_OPA_TRANSP;
 1739              		.loc 1 276 9 view .LVU593
 277:lvgl/src/widgets/lv_canvas.c ****         lv_memcpy(line_buf, &canvas->dsc.data[y * line_w], line_w);
 1740              		.loc 1 277 9 view .LVU594
 278:lvgl/src/widgets/lv_canvas.c **** 
 1741              		.loc 1 278 9 view .LVU595
 278:lvgl/src/widgets/lv_canvas.c **** 
 1742              		.loc 1 278 41 is_stmt 0 view .LVU596
 1743 02c4 D9F84410 		ldr	r1, [r9, #68]
 278:lvgl/src/widgets/lv_canvas.c **** 
 1744              		.loc 1 278 9 view .LVU597
 1745 02c8 099A     		ldr	r2, [sp, #36]
 1746 02ca 059B     		ldr	r3, [sp, #20]
 1747 02cc 02FB0311 		mla	r1, r2, r3, r1
 1748 02d0 0898     		ldr	r0, [sp, #32]
 1749 02d2 FFF7FEFF 		bl	lv_memcpy
 1750              	.LVL184:
 280:lvgl/src/widgets/lv_canvas.c ****             x_safe = x < 0 ? 0 : x;
 1751              		.loc 1 280 9 is_stmt 1 view .LVU598
 280:lvgl/src/widgets/lv_canvas.c ****             x_safe = x < 0 ? 0 : x;
 1752              		.loc 1 280 18 is_stmt 0 view .LVU599
 1753 02d6 BDF93840 		ldrsh	r4, [sp, #56]
 1754 02da 1FFA84F8 		uxth	r8, r4
 280:lvgl/src/widgets/lv_canvas.c ****             x_safe = x < 0 ? 0 : x;
ARM GAS  C:\Users\OSD\AppData\Local\Temp\ccwADrda.s 			page 76


 1755              		.loc 1 280 22 view .LVU600
 1756 02de 069B     		ldr	r3, [sp, #24]
 1757 02e0 A8EB0308 		sub	r8, r8, r3
 280:lvgl/src/widgets/lv_canvas.c ****             x_safe = x < 0 ? 0 : x;
 1758              		.loc 1 280 15 view .LVU601
 1759 02e4 0FFA88F8 		sxth	r8, r8
 1760              	.LVL185:
 277:lvgl/src/widgets/lv_canvas.c ****         lv_memcpy(line_buf, &canvas->dsc.data[y * line_w], line_w);
 1761              		.loc 1 277 18 view .LVU602
 1762 02e8 0023     		movs	r3, #0
 1763 02ea 0193     		str	r3, [sp, #4]
 274:lvgl/src/widgets/lv_canvas.c **** 
 1764              		.loc 1 274 18 view .LVU603
 1765 02ec 1F46     		mov	r7, r3
 273:lvgl/src/widgets/lv_canvas.c ****         uint32_t bsum = 0;
 1766              		.loc 1 273 18 view .LVU604
 1767 02ee 1E46     		mov	r6, r3
 272:lvgl/src/widgets/lv_canvas.c ****         uint32_t gsum = 0;
 1768              		.loc 1 272 18 view .LVU605
 1769 02f0 1D46     		mov	r5, r3
 271:lvgl/src/widgets/lv_canvas.c ****         uint32_t rsum = 0;
 1770              		.loc 1 271 18 view .LVU606
 1771 02f2 0093     		str	r3, [sp]
 1772 02f4 0494     		str	r4, [sp, #16]
 280:lvgl/src/widgets/lv_canvas.c ****             x_safe = x < 0 ? 0 : x;
 1773              		.loc 1 280 9 view .LVU607
 1774 02f6 24E7     		b	.L59
 1775              	.LVL186:
 1776              	.L88:
 280:lvgl/src/widgets/lv_canvas.c ****             x_safe = x < 0 ? 0 : x;
 1777              		.loc 1 280 9 view .LVU608
 1778              	.LBE38:
 347:lvgl/src/widgets/lv_canvas.c **** 
 1779              		.loc 1 347 5 is_stmt 1 view .LVU609
 1780 02f8 4846     		mov	r0, r9
 1781 02fa FFF7FEFF 		bl	lv_obj_invalidate
 1782              	.LVL187:
 349:lvgl/src/widgets/lv_canvas.c **** }
 1783              		.loc 1 349 5 view .LVU610
 1784 02fe 0898     		ldr	r0, [sp, #32]
 1785 0300 FFF7FEFF 		bl	lv_mem_buf_release
 1786              	.LVL188:
 1787              	.L49:
 350:lvgl/src/widgets/lv_canvas.c **** 
 1788              		.loc 1 350 1 is_stmt 0 view .LVU611
 1789 0304 11B0     		add	sp, sp, #68
 1790              		.cfi_def_cfa_offset 36
 1791              		@ sp needed
 1792 0306 BDE8F08F 		pop	{r4, r5, r6, r7, r8, r9, r10, fp, pc}
 350:lvgl/src/widgets/lv_canvas.c **** 
 1793              		.loc 1 350 1 view .LVU612
 1794              		.cfi_endproc
 1795              	.LFE171:
 1797              		.section	.text.lv_canvas_blur_ver,"ax",%progbits
 1798              		.align	1
 1799              		.global	lv_canvas_blur_ver
 1800              		.syntax unified
ARM GAS  C:\Users\OSD\AppData\Local\Temp\ccwADrda.s 			page 77


 1801              		.thumb
 1802              		.thumb_func
 1804              	lv_canvas_blur_ver:
 1805              	.LVL189:
 1806              	.LFB172:
 353:lvgl/src/widgets/lv_canvas.c ****     LV_ASSERT_OBJ(obj, MY_CLASS);
 1807              		.loc 1 353 1 is_stmt 1 view -0
 1808              		.cfi_startproc
 1809              		@ args = 0, pretend = 0, frame = 72
 1810              		@ frame_needed = 0, uses_anonymous_args = 0
 353:lvgl/src/widgets/lv_canvas.c ****     LV_ASSERT_OBJ(obj, MY_CLASS);
 1811              		.loc 1 353 1 is_stmt 0 view .LVU614
 1812 0000 2DE9F04F 		push	{r4, r5, r6, r7, r8, r9, r10, fp, lr}
 1813              		.cfi_def_cfa_offset 36
 1814              		.cfi_offset 4, -36
 1815              		.cfi_offset 5, -32
 1816              		.cfi_offset 6, -28
 1817              		.cfi_offset 7, -24
 1818              		.cfi_offset 8, -20
 1819              		.cfi_offset 9, -16
 1820              		.cfi_offset 10, -12
 1821              		.cfi_offset 11, -8
 1822              		.cfi_offset 14, -4
 1823 0004 93B0     		sub	sp, sp, #76
 1824              		.cfi_def_cfa_offset 112
 1825 0006 0A90     		str	r0, [sp, #40]
 354:lvgl/src/widgets/lv_canvas.c **** 
 1826              		.loc 1 354 5 is_stmt 1 view .LVU615
 354:lvgl/src/widgets/lv_canvas.c **** 
 1827              		.loc 1 354 5 view .LVU616
 354:lvgl/src/widgets/lv_canvas.c **** 
 1828              		.loc 1 354 5 view .LVU617
 356:lvgl/src/widgets/lv_canvas.c **** 
 1829              		.loc 1 356 5 view .LVU618
 356:lvgl/src/widgets/lv_canvas.c **** 
 1830              		.loc 1 356 7 is_stmt 0 view .LVU619
 1831 0008 0992     		str	r2, [sp, #36]
 1832 000a 002A     		cmp	r2, #0
 1833 000c 00F09381 		beq	.L89
 358:lvgl/src/widgets/lv_canvas.c **** 
 1834              		.loc 1 358 5 is_stmt 1 view .LVU620
 1835              	.LVL190:
 360:lvgl/src/widgets/lv_canvas.c ****     if(area) {
 1836              		.loc 1 360 5 view .LVU621
 361:lvgl/src/widgets/lv_canvas.c ****         lv_area_copy(&a, area);
 1837              		.loc 1 361 5 view .LVU622
 361:lvgl/src/widgets/lv_canvas.c ****         lv_area_copy(&a, area);
 1838              		.loc 1 361 7 is_stmt 0 view .LVU623
 1839 0010 0029     		cmp	r1, #0
 1840 0012 3DD0     		beq	.L92
 362:lvgl/src/widgets/lv_canvas.c ****         if(a.x1 < 0) a.x1 = 0;
 1841              		.loc 1 362 9 is_stmt 1 view .LVU624
 1842              	.LVL191:
 1843              	.LBB39:
 1844              	.LBI39:
 110:d:\kzc\stm32\h743ii_lcd\lvgl\src\misc\lv_area.h **** {
 1845              		.loc 3 110 20 view .LVU625
ARM GAS  C:\Users\OSD\AppData\Local\Temp\ccwADrda.s 			page 78


 1846              	.LBB40:
 112:d:\kzc\stm32\h743ii_lcd\lvgl\src\misc\lv_area.h ****     dest->y1 = src->y1;
 1847              		.loc 3 112 5 view .LVU626
 112:d:\kzc\stm32\h743ii_lcd\lvgl\src\misc\lv_area.h ****     dest->y1 = src->y1;
 1848              		.loc 3 112 19 is_stmt 0 view .LVU627
 1849 0014 B1F90040 		ldrsh	r4, [r1]
 112:d:\kzc\stm32\h743ii_lcd\lvgl\src\misc\lv_area.h ****     dest->y1 = src->y1;
 1850              		.loc 3 112 14 view .LVU628
 1851 0018 ADF84040 		strh	r4, [sp, #64]	@ movhi
 113:d:\kzc\stm32\h743ii_lcd\lvgl\src\misc\lv_area.h ****     dest->x2 = src->x2;
 1852              		.loc 3 113 5 is_stmt 1 view .LVU629
 113:d:\kzc\stm32\h743ii_lcd\lvgl\src\misc\lv_area.h ****     dest->x2 = src->x2;
 1853              		.loc 3 113 19 is_stmt 0 view .LVU630
 1854 001c B1F90230 		ldrsh	r3, [r1, #2]
 113:d:\kzc\stm32\h743ii_lcd\lvgl\src\misc\lv_area.h ****     dest->x2 = src->x2;
 1855              		.loc 3 113 14 view .LVU631
 1856 0020 ADF84230 		strh	r3, [sp, #66]	@ movhi
 114:d:\kzc\stm32\h743ii_lcd\lvgl\src\misc\lv_area.h ****     dest->y2 = src->y2;
 1857              		.loc 3 114 5 is_stmt 1 view .LVU632
 114:d:\kzc\stm32\h743ii_lcd\lvgl\src\misc\lv_area.h ****     dest->y2 = src->y2;
 1858              		.loc 3 114 19 is_stmt 0 view .LVU633
 1859 0024 B1F90400 		ldrsh	r0, [r1, #4]
 1860              	.LVL192:
 114:d:\kzc\stm32\h743ii_lcd\lvgl\src\misc\lv_area.h ****     dest->y2 = src->y2;
 1861              		.loc 3 114 14 view .LVU634
 1862 0028 ADF84400 		strh	r0, [sp, #68]	@ movhi
 1863              		.loc 3 115 5 is_stmt 1 view .LVU635
 1864              		.loc 3 115 19 is_stmt 0 view .LVU636
 1865 002c B1F90620 		ldrsh	r2, [r1, #6]
 1866              	.LVL193:
 1867              		.loc 3 115 14 view .LVU637
 1868 0030 ADF84620 		strh	r2, [sp, #70]	@ movhi
 1869              	.LVL194:
 1870              		.loc 3 115 14 view .LVU638
 1871              	.LBE40:
 1872              	.LBE39:
 363:lvgl/src/widgets/lv_canvas.c ****         if(a.y1 < 0) a.y1 = 0;
 1873              		.loc 1 363 9 is_stmt 1 view .LVU639
 363:lvgl/src/widgets/lv_canvas.c ****         if(a.y1 < 0) a.y1 = 0;
 1874              		.loc 1 363 11 is_stmt 0 view .LVU640
 1875 0034 002C     		cmp	r4, #0
 1876 0036 23DB     		blt	.L122
 1877              	.LVL195:
 1878              	.L93:
 364:lvgl/src/widgets/lv_canvas.c ****         if(a.x2 > canvas->dsc.header.w - 1) a.x2 = canvas->dsc.header.w - 1;
 1879              		.loc 1 364 9 is_stmt 1 view .LVU641
 364:lvgl/src/widgets/lv_canvas.c ****         if(a.x2 > canvas->dsc.header.w - 1) a.x2 = canvas->dsc.header.w - 1;
 1880              		.loc 1 364 11 is_stmt 0 view .LVU642
 1881 0038 002B     		cmp	r3, #0
 1882 003a 25DB     		blt	.L123
 1883              	.L94:
 365:lvgl/src/widgets/lv_canvas.c ****         if(a.y2 > canvas->dsc.header.h - 1) a.y2 = canvas->dsc.header.h - 1;
 1884              		.loc 1 365 9 is_stmt 1 view .LVU643
 365:lvgl/src/widgets/lv_canvas.c ****         if(a.y2 > canvas->dsc.header.h - 1) a.y2 = canvas->dsc.header.h - 1;
 1885              		.loc 1 365 37 is_stmt 0 view .LVU644
 1886 003c 0A9B     		ldr	r3, [sp, #40]
 1887 003e DB6B     		ldr	r3, [r3, #60]
ARM GAS  C:\Users\OSD\AppData\Local\Temp\ccwADrda.s 			page 79


 1888 0040 C3F38A23 		ubfx	r3, r3, #10, #11
 365:lvgl/src/widgets/lv_canvas.c ****         if(a.y2 > canvas->dsc.header.h - 1) a.y2 = canvas->dsc.header.h - 1;
 1889              		.loc 1 365 11 view .LVU645
 1890 0044 8342     		cmp	r3, r0
 1891 0046 02DC     		bgt	.L95
 365:lvgl/src/widgets/lv_canvas.c ****         if(a.y2 > canvas->dsc.header.h - 1) a.y2 = canvas->dsc.header.h - 1;
 1892              		.loc 1 365 45 is_stmt 1 discriminator 1 view .LVU646
 365:lvgl/src/widgets/lv_canvas.c ****         if(a.y2 > canvas->dsc.header.h - 1) a.y2 = canvas->dsc.header.h - 1;
 1893              		.loc 1 365 73 is_stmt 0 discriminator 1 view .LVU647
 1894 0048 013B     		subs	r3, r3, #1
 365:lvgl/src/widgets/lv_canvas.c ****         if(a.y2 > canvas->dsc.header.h - 1) a.y2 = canvas->dsc.header.h - 1;
 1895              		.loc 1 365 50 discriminator 1 view .LVU648
 1896 004a ADF84430 		strh	r3, [sp, #68]	@ movhi
 1897              	.L95:
 366:lvgl/src/widgets/lv_canvas.c ****     }
 1898              		.loc 1 366 9 is_stmt 1 view .LVU649
 366:lvgl/src/widgets/lv_canvas.c ****     }
 1899              		.loc 1 366 37 is_stmt 0 view .LVU650
 1900 004e 0A9B     		ldr	r3, [sp, #40]
 1901 0050 DB8F     		ldrh	r3, [r3, #62]
 1902 0052 C3F34A13 		ubfx	r3, r3, #5, #11
 366:lvgl/src/widgets/lv_canvas.c ****     }
 1903              		.loc 1 366 11 view .LVU651
 1904 0056 9342     		cmp	r3, r2
 1905 0058 02DC     		bgt	.L96
 366:lvgl/src/widgets/lv_canvas.c ****     }
 1906              		.loc 1 366 45 is_stmt 1 discriminator 1 view .LVU652
 366:lvgl/src/widgets/lv_canvas.c ****     }
 1907              		.loc 1 366 73 is_stmt 0 discriminator 1 view .LVU653
 1908 005a 013B     		subs	r3, r3, #1
 366:lvgl/src/widgets/lv_canvas.c ****     }
 1909              		.loc 1 366 50 discriminator 1 view .LVU654
 1910 005c ADF84630 		strh	r3, [sp, #70]	@ movhi
 1911              	.L96:
 375:lvgl/src/widgets/lv_canvas.c **** 
 1912              		.loc 1 375 5 is_stmt 1 view .LVU655
 1913              	.LVL196:
 1914              	.LBB41:
 1915              	.LBI41:
 349:lvgl/src/widgets/../core/lv_obj_style_gen.h **** {
 1916              		.loc 2 349 26 view .LVU656
 1917              	.LBB42:
 351:lvgl/src/widgets/../core/lv_obj_style_gen.h ****     return v.color;
 1918              		.loc 2 351 5 view .LVU657
 351:lvgl/src/widgets/../core/lv_obj_style_gen.h ****     return v.color;
 1919              		.loc 2 351 26 is_stmt 0 view .LVU658
 1920 0060 4722     		movs	r2, #71
 1921 0062 0021     		movs	r1, #0
 1922 0064 0A98     		ldr	r0, [sp, #40]
 1923 0066 FFF7FEFF 		bl	lv_obj_get_style_prop
 1924              	.LVL197:
 1925 006a 0490     		str	r0, [sp, #16]
 1926              		.loc 2 352 5 is_stmt 1 view .LVU659
 1927              	.LVL198:
 1928              		.loc 2 352 5 is_stmt 0 view .LVU660
 1929              	.LBE42:
 1930              	.LBE41:
ARM GAS  C:\Users\OSD\AppData\Local\Temp\ccwADrda.s 			page 80


 377:lvgl/src/widgets/lv_canvas.c ****     uint16_t r_front = r / 2;
 1931              		.loc 1 377 5 is_stmt 1 view .LVU661
 377:lvgl/src/widgets/lv_canvas.c ****     uint16_t r_front = r / 2;
 1932              		.loc 1 377 14 is_stmt 0 view .LVU662
 1933 006c 099B     		ldr	r3, [sp, #36]
 1934 006e 5A08     		lsrs	r2, r3, #1
 1935 0070 0692     		str	r2, [sp, #24]
 1936              	.LVL199:
 378:lvgl/src/widgets/lv_canvas.c **** 
 1937              		.loc 1 378 5 is_stmt 1 view .LVU663
 380:lvgl/src/widgets/lv_canvas.c **** 
 1938              		.loc 1 380 5 view .LVU664
 380:lvgl/src/widgets/lv_canvas.c **** 
 1939              		.loc 1 380 7 is_stmt 0 view .LVU665
 1940 0072 13F0010F 		tst	r3, #1
 1941 0076 1ED1     		bne	.L119
 380:lvgl/src/widgets/lv_canvas.c **** 
 1942              		.loc 1 380 24 is_stmt 1 discriminator 1 view .LVU666
 380:lvgl/src/widgets/lv_canvas.c **** 
 1943              		.loc 1 380 30 is_stmt 0 discriminator 1 view .LVU667
 1944 0078 531E     		subs	r3, r2, #1
 1945 007a 9BB2     		uxth	r3, r3
 1946 007c 0893     		str	r3, [sp, #32]
 1947              	.LVL200:
 380:lvgl/src/widgets/lv_canvas.c **** 
 1948              		.loc 1 380 30 discriminator 1 view .LVU668
 1949 007e 1CE0     		b	.L97
 1950              	.LVL201:
 1951              	.L122:
 363:lvgl/src/widgets/lv_canvas.c ****         if(a.y1 < 0) a.y1 = 0;
 1952              		.loc 1 363 22 is_stmt 1 discriminator 1 view .LVU669
 363:lvgl/src/widgets/lv_canvas.c ****         if(a.y1 < 0) a.y1 = 0;
 1953              		.loc 1 363 27 is_stmt 0 discriminator 1 view .LVU670
 1954 0080 0021     		movs	r1, #0
 1955              	.LVL202:
 363:lvgl/src/widgets/lv_canvas.c ****         if(a.y1 < 0) a.y1 = 0;
 1956              		.loc 1 363 27 discriminator 1 view .LVU671
 1957 0082 ADF84010 		strh	r1, [sp, #64]	@ movhi
 1958 0086 D7E7     		b	.L93
 1959              	.L123:
 364:lvgl/src/widgets/lv_canvas.c ****         if(a.x2 > canvas->dsc.header.w - 1) a.x2 = canvas->dsc.header.w - 1;
 1960              		.loc 1 364 22 is_stmt 1 discriminator 1 view .LVU672
 364:lvgl/src/widgets/lv_canvas.c ****         if(a.x2 > canvas->dsc.header.w - 1) a.x2 = canvas->dsc.header.w - 1;
 1961              		.loc 1 364 27 is_stmt 0 discriminator 1 view .LVU673
 1962 0088 0023     		movs	r3, #0
 1963 008a ADF84230 		strh	r3, [sp, #66]	@ movhi
 1964 008e D5E7     		b	.L94
 1965              	.LVL203:
 1966              	.L92:
 369:lvgl/src/widgets/lv_canvas.c ****         a.y1 = 0;
 1967              		.loc 1 369 9 is_stmt 1 view .LVU674
 369:lvgl/src/widgets/lv_canvas.c ****         a.y1 = 0;
 1968              		.loc 1 369 14 is_stmt 0 view .LVU675
 1969 0090 0023     		movs	r3, #0
 1970 0092 ADF84030 		strh	r3, [sp, #64]	@ movhi
 370:lvgl/src/widgets/lv_canvas.c ****         a.x2 = canvas->dsc.header.w - 1;
 1971              		.loc 1 370 9 is_stmt 1 view .LVU676
ARM GAS  C:\Users\OSD\AppData\Local\Temp\ccwADrda.s 			page 81


 370:lvgl/src/widgets/lv_canvas.c ****         a.x2 = canvas->dsc.header.w - 1;
 1972              		.loc 1 370 14 is_stmt 0 view .LVU677
 1973 0096 ADF84230 		strh	r3, [sp, #66]	@ movhi
 371:lvgl/src/widgets/lv_canvas.c ****         a.y2 = canvas->dsc.header.h - 1;
 1974              		.loc 1 371 9 is_stmt 1 view .LVU678
 371:lvgl/src/widgets/lv_canvas.c ****         a.y2 = canvas->dsc.header.h - 1;
 1975              		.loc 1 371 34 is_stmt 0 view .LVU679
 1976 009a 0A9A     		ldr	r2, [sp, #40]
 1977              	.LVL204:
 371:lvgl/src/widgets/lv_canvas.c ****         a.y2 = canvas->dsc.header.h - 1;
 1978              		.loc 1 371 34 view .LVU680
 1979 009c D36B     		ldr	r3, [r2, #60]
 1980 009e C3F38A23 		ubfx	r3, r3, #10, #11
 371:lvgl/src/widgets/lv_canvas.c ****         a.y2 = canvas->dsc.header.h - 1;
 1981              		.loc 1 371 37 view .LVU681
 1982 00a2 013B     		subs	r3, r3, #1
 371:lvgl/src/widgets/lv_canvas.c ****         a.y2 = canvas->dsc.header.h - 1;
 1983              		.loc 1 371 14 view .LVU682
 1984 00a4 ADF84430 		strh	r3, [sp, #68]	@ movhi
 372:lvgl/src/widgets/lv_canvas.c ****     }
 1985              		.loc 1 372 9 is_stmt 1 view .LVU683
 372:lvgl/src/widgets/lv_canvas.c ****     }
 1986              		.loc 1 372 34 is_stmt 0 view .LVU684
 1987 00a8 D38F     		ldrh	r3, [r2, #62]
 1988 00aa C3F34A13 		ubfx	r3, r3, #5, #11
 372:lvgl/src/widgets/lv_canvas.c ****     }
 1989              		.loc 1 372 37 view .LVU685
 1990 00ae 013B     		subs	r3, r3, #1
 372:lvgl/src/widgets/lv_canvas.c ****     }
 1991              		.loc 1 372 14 view .LVU686
 1992 00b0 ADF84630 		strh	r3, [sp, #70]	@ movhi
 1993 00b4 D4E7     		b	.L96
 1994              	.LVL205:
 1995              	.L119:
 377:lvgl/src/widgets/lv_canvas.c ****     uint16_t r_front = r / 2;
 1996              		.loc 1 377 14 view .LVU687
 1997 00b6 069B     		ldr	r3, [sp, #24]
 1998 00b8 0893     		str	r3, [sp, #32]
 1999              	.LVL206:
 2000              	.L97:
 382:lvgl/src/widgets/lv_canvas.c ****     lv_coord_t col_w = lv_img_buf_get_img_size(1, canvas->dsc.header.h, canvas->dsc.header.cf);
 2001              		.loc 1 382 5 is_stmt 1 view .LVU688
 382:lvgl/src/widgets/lv_canvas.c ****     lv_coord_t col_w = lv_img_buf_get_img_size(1, canvas->dsc.header.h, canvas->dsc.header.cf);
 2002              		.loc 1 382 60 is_stmt 0 view .LVU689
 2003 00ba 0A9C     		ldr	r4, [sp, #40]
 2004 00bc 94F83C00 		ldrb	r0, [r4, #60]	@ zero_extendqisi2
 382:lvgl/src/widgets/lv_canvas.c ****     lv_coord_t col_w = lv_img_buf_get_img_size(1, canvas->dsc.header.h, canvas->dsc.header.cf);
 2005              		.loc 1 382 22 view .LVU690
 2006 00c0 00F01F00 		and	r0, r0, #31
 2007 00c4 FFF7FEFF 		bl	lv_img_cf_has_alpha
 2008              	.LVL207:
 382:lvgl/src/widgets/lv_canvas.c ****     lv_coord_t col_w = lv_img_buf_get_img_size(1, canvas->dsc.header.h, canvas->dsc.header.cf);
 2009              		.loc 1 382 22 view .LVU691
 2010 00c8 8346     		mov	fp, r0
 2011              	.LVL208:
 383:lvgl/src/widgets/lv_canvas.c ****     uint8_t * col_buf = lv_mem_buf_get(col_w);
 2012              		.loc 1 383 5 is_stmt 1 view .LVU692
ARM GAS  C:\Users\OSD\AppData\Local\Temp\ccwADrda.s 			page 82


 383:lvgl/src/widgets/lv_canvas.c ****     uint8_t * col_buf = lv_mem_buf_get(col_w);
 2013              		.loc 1 383 69 is_stmt 0 view .LVU693
 2014 00ca E18F     		ldrh	r1, [r4, #62]
 383:lvgl/src/widgets/lv_canvas.c ****     uint8_t * col_buf = lv_mem_buf_get(col_w);
 2015              		.loc 1 383 91 view .LVU694
 2016 00cc 94F83C20 		ldrb	r2, [r4, #60]	@ zero_extendqisi2
 383:lvgl/src/widgets/lv_canvas.c ****     uint8_t * col_buf = lv_mem_buf_get(col_w);
 2017              		.loc 1 383 24 view .LVU695
 2018 00d0 02F01F02 		and	r2, r2, #31
 2019 00d4 C1F34A11 		ubfx	r1, r1, #5, #11
 2020 00d8 0120     		movs	r0, #1
 2021 00da FFF7FEFF 		bl	lv_img_buf_get_img_size
 2022              	.LVL209:
 384:lvgl/src/widgets/lv_canvas.c ****     lv_img_dsc_t line_img;
 2023              		.loc 1 384 5 is_stmt 1 view .LVU696
 384:lvgl/src/widgets/lv_canvas.c ****     lv_img_dsc_t line_img;
 2024              		.loc 1 384 25 is_stmt 0 view .LVU697
 2025 00de 00B2     		sxth	r0, r0
 384:lvgl/src/widgets/lv_canvas.c ****     lv_img_dsc_t line_img;
 2026              		.loc 1 384 25 view .LVU698
 2027 00e0 FFF7FEFF 		bl	lv_mem_buf_get
 2028              	.LVL210:
 384:lvgl/src/widgets/lv_canvas.c ****     lv_img_dsc_t line_img;
 2029              		.loc 1 384 25 view .LVU699
 2030 00e4 0B90     		str	r0, [sp, #44]
 2031              	.LVL211:
 385:lvgl/src/widgets/lv_canvas.c **** 
 2032              		.loc 1 385 5 is_stmt 1 view .LVU700
 387:lvgl/src/widgets/lv_canvas.c ****     line_img.header.always_zero = 0;
 2033              		.loc 1 387 5 view .LVU701
 387:lvgl/src/widgets/lv_canvas.c ****     line_img.header.always_zero = 0;
 2034              		.loc 1 387 19 is_stmt 0 view .LVU702
 2035 00e6 0F90     		str	r0, [sp, #60]
 388:lvgl/src/widgets/lv_canvas.c ****     line_img.header.w = 1;
 2036              		.loc 1 388 5 is_stmt 1 view .LVU703
 388:lvgl/src/widgets/lv_canvas.c ****     line_img.header.w = 1;
 2037              		.loc 1 388 33 is_stmt 0 view .LVU704
 2038 00e8 9DF83430 		ldrb	r3, [sp, #52]	@ zero_extendqisi2
 2039 00ec 6FF34713 		bfc	r3, #5, #3
 2040 00f0 8DF83430 		strb	r3, [sp, #52]
 389:lvgl/src/widgets/lv_canvas.c ****     line_img.header.h = canvas->dsc.header.h;
 2041              		.loc 1 389 5 is_stmt 1 view .LVU705
 389:lvgl/src/widgets/lv_canvas.c ****     line_img.header.h = canvas->dsc.header.h;
 2042              		.loc 1 389 23 is_stmt 0 view .LVU706
 2043 00f4 0D9B     		ldr	r3, [sp, #52]
 2044 00f6 0122     		movs	r2, #1
 2045 00f8 62F39423 		bfi	r3, r2, #10, #11
 2046 00fc 0D93     		str	r3, [sp, #52]
 390:lvgl/src/widgets/lv_canvas.c ****     line_img.header.cf = canvas->dsc.header.cf;
 2047              		.loc 1 390 5 is_stmt 1 view .LVU707
 390:lvgl/src/widgets/lv_canvas.c ****     line_img.header.cf = canvas->dsc.header.cf;
 2048              		.loc 1 390 43 is_stmt 0 view .LVU708
 2049 00fe E38F     		ldrh	r3, [r4, #62]
 2050 0100 C3F34A13 		ubfx	r3, r3, #5, #11
 390:lvgl/src/widgets/lv_canvas.c ****     line_img.header.cf = canvas->dsc.header.cf;
 2051              		.loc 1 390 23 view .LVU709
 2052 0104 BDF83620 		ldrh	r2, [sp, #54]
ARM GAS  C:\Users\OSD\AppData\Local\Temp\ccwADrda.s 			page 83


 2053 0108 63F34F12 		bfi	r2, r3, #5, #11
 2054 010c ADF83620 		strh	r2, [sp, #54]	@ movhi
 391:lvgl/src/widgets/lv_canvas.c **** 
 2055              		.loc 1 391 5 is_stmt 1 view .LVU710
 391:lvgl/src/widgets/lv_canvas.c **** 
 2056              		.loc 1 391 44 is_stmt 0 view .LVU711
 2057 0110 94F83C20 		ldrb	r2, [r4, #60]	@ zero_extendqisi2
 391:lvgl/src/widgets/lv_canvas.c **** 
 2058              		.loc 1 391 24 view .LVU712
 2059 0114 9DF83430 		ldrb	r3, [sp, #52]	@ zero_extendqisi2
 2060 0118 62F30403 		bfi	r3, r2, #0, #5
 2061 011c 8DF83430 		strb	r3, [sp, #52]
 393:lvgl/src/widgets/lv_canvas.c ****     lv_coord_t y;
 2062              		.loc 1 393 5 is_stmt 1 view .LVU713
 394:lvgl/src/widgets/lv_canvas.c ****     lv_coord_t y_safe;
 2063              		.loc 1 394 5 view .LVU714
 395:lvgl/src/widgets/lv_canvas.c **** 
 2064              		.loc 1 395 5 view .LVU715
 397:lvgl/src/widgets/lv_canvas.c ****         uint32_t asum = 0;
 2065              		.loc 1 397 5 view .LVU716
 397:lvgl/src/widgets/lv_canvas.c ****         uint32_t asum = 0;
 2066              		.loc 1 397 11 is_stmt 0 view .LVU717
 2067 0120 BDF94030 		ldrsh	r3, [sp, #64]
 2068 0124 0293     		str	r3, [sp, #8]
 2069              	.LVL212:
 397:lvgl/src/widgets/lv_canvas.c ****         uint32_t asum = 0;
 2070              		.loc 1 397 11 view .LVU718
 2071 0126 5D46     		mov	r5, fp
 2072 0128 A346     		mov	fp, r4
 2073              	.LVL213:
 397:lvgl/src/widgets/lv_canvas.c ****         uint32_t asum = 0;
 2074              		.loc 1 397 5 view .LVU719
 2075 012a E8E0     		b	.L98
 2076              	.LVL214:
 2077              	.L125:
 2078              	.LBB43:
 411:lvgl/src/widgets/lv_canvas.c **** 
 2079              		.loc 1 411 27 is_stmt 1 discriminator 1 view .LVU720
 411:lvgl/src/widgets/lv_canvas.c **** 
 2080              		.loc 1 411 33 is_stmt 0 discriminator 1 view .LVU721
 2081 012c 2246     		mov	r2, r4
 2082 012e 0299     		ldr	r1, [sp, #8]
 2083 0130 5046     		mov	r0, r10
 2084 0132 FFF7FEFF 		bl	lv_img_buf_get_px_alpha
 2085              	.LVL215:
 2086 0136 0390     		str	r0, [sp, #12]
 2087              	.LVL216:
 411:lvgl/src/widgets/lv_canvas.c **** 
 2088              		.loc 1 411 33 discriminator 1 view .LVU722
 2089 0138 23E0     		b	.L101
 2090              	.LVL217:
 2091              	.L126:
 414:lvgl/src/widgets/lv_canvas.c **** 
 2092              		.loc 1 414 27 is_stmt 1 discriminator 1 view .LVU723
 2093 013a 039B     		ldr	r3, [sp, #12]
 2094 013c 2246     		mov	r2, r4
 2095 013e 0021     		movs	r1, #0
ARM GAS  C:\Users\OSD\AppData\Local\Temp\ccwADrda.s 			page 84


 2096 0140 0DA8     		add	r0, sp, #52
 2097 0142 FFF7FEFF 		bl	lv_img_buf_set_px_alpha
 2098              	.LVL218:
 2099 0146 24E0     		b	.L102
 2100              	.L103:
 406:lvgl/src/widgets/lv_canvas.c ****             y_safe = y < 0 ? 0 : y;
 2101              		.loc 1 406 53 discriminator 2 view .LVU724
 406:lvgl/src/widgets/lv_canvas.c ****             y_safe = y < 0 ? 0 : y;
 2102              		.loc 1 406 54 is_stmt 0 discriminator 2 view .LVU725
 2103 0148 08F10108 		add	r8, r8, #1
 2104              	.LVL219:
 406:lvgl/src/widgets/lv_canvas.c ****             y_safe = y < 0 ? 0 : y;
 2105              		.loc 1 406 54 discriminator 2 view .LVU726
 2106 014c 0FFA88F8 		sxth	r8, r8
 2107              	.LVL220:
 2108              	.L99:
 406:lvgl/src/widgets/lv_canvas.c ****             y_safe = y < 0 ? 0 : y;
 2109              		.loc 1 406 32 is_stmt 1 discriminator 1 view .LVU727
 406:lvgl/src/widgets/lv_canvas.c ****             y_safe = y < 0 ? 0 : y;
 2110              		.loc 1 406 42 is_stmt 0 discriminator 1 view .LVU728
 2111 0150 069B     		ldr	r3, [sp, #24]
 2112 0152 079A     		ldr	r2, [sp, #28]
 2113 0154 1344     		add	r3, r3, r2
 406:lvgl/src/widgets/lv_canvas.c ****             y_safe = y < 0 ? 0 : y;
 2114              		.loc 1 406 9 discriminator 1 view .LVU729
 2115 0156 9845     		cmp	r8, r3
 2116 0158 2CDC     		bgt	.L124
 407:lvgl/src/widgets/lv_canvas.c ****             y_safe = y_safe > canvas->dsc.header.h - 1 ? canvas->dsc.header.h - 1 : y_safe;
 2117              		.loc 1 407 13 is_stmt 1 view .LVU730
 407:lvgl/src/widgets/lv_canvas.c ****             y_safe = y_safe > canvas->dsc.header.h - 1 ? canvas->dsc.header.h - 1 : y_safe;
 2118              		.loc 1 407 20 is_stmt 0 view .LVU731
 2119 015a 28EAE874 		bic	r4, r8, r8, asr #31
 2120              	.LVL221:
 408:lvgl/src/widgets/lv_canvas.c **** 
 2121              		.loc 1 408 13 is_stmt 1 view .LVU732
 408:lvgl/src/widgets/lv_canvas.c **** 
 2122              		.loc 1 408 49 is_stmt 0 view .LVU733
 2123 015e BBF83E30 		ldrh	r3, [fp, #62]
 2124 0162 C3F34A13 		ubfx	r3, r3, #5, #11
 408:lvgl/src/widgets/lv_canvas.c **** 
 2125              		.loc 1 408 20 view .LVU734
 2126 0166 A342     		cmp	r3, r4
 2127 0168 00DC     		bgt	.L100
 408:lvgl/src/widgets/lv_canvas.c **** 
 2128              		.loc 1 408 20 discriminator 1 view .LVU735
 2129 016a 5C1E     		subs	r4, r3, #1
 2130              	.LVL222:
 2131              	.L100:
 410:lvgl/src/widgets/lv_canvas.c ****             if(has_alpha) opa = lv_img_buf_get_px_alpha(&canvas->dsc, x, y_safe);
 2132              		.loc 1 410 13 is_stmt 1 discriminator 4 view .LVU736
 410:lvgl/src/widgets/lv_canvas.c ****             if(has_alpha) opa = lv_img_buf_get_px_alpha(&canvas->dsc, x, y_safe);
 2133              		.loc 1 410 41 is_stmt 0 discriminator 4 view .LVU737
 2134 016c 0BF13C0A 		add	r10, fp, #60
 410:lvgl/src/widgets/lv_canvas.c ****             if(has_alpha) opa = lv_img_buf_get_px_alpha(&canvas->dsc, x, y_safe);
 2135              		.loc 1 410 17 discriminator 4 view .LVU738
 2136 0170 049B     		ldr	r3, [sp, #16]
 2137 0172 2246     		mov	r2, r4
ARM GAS  C:\Users\OSD\AppData\Local\Temp\ccwADrda.s 			page 85


 2138 0174 0299     		ldr	r1, [sp, #8]
 2139 0176 5046     		mov	r0, r10
 2140 0178 FFF7FEFF 		bl	lv_img_buf_get_px_color
 2141              	.LVL223:
 2142 017c 8146     		mov	r9, r0
 2143              	.LVL224:
 411:lvgl/src/widgets/lv_canvas.c **** 
 2144              		.loc 1 411 13 is_stmt 1 discriminator 4 view .LVU739
 411:lvgl/src/widgets/lv_canvas.c **** 
 2145              		.loc 1 411 15 is_stmt 0 discriminator 4 view .LVU740
 2146 017e 002D     		cmp	r5, #0
 2147 0180 D4D1     		bne	.L125
 2148              	.L101:
 413:lvgl/src/widgets/lv_canvas.c ****             if(has_alpha) lv_img_buf_set_px_alpha(&line_img, 0, y_safe, opa);
 2149              		.loc 1 413 13 is_stmt 1 view .LVU741
 2150              	.LVL225:
 413:lvgl/src/widgets/lv_canvas.c ****             if(has_alpha) lv_img_buf_set_px_alpha(&line_img, 0, y_safe, opa);
 2151              		.loc 1 413 13 is_stmt 0 view .LVU742
 2152 0182 4B46     		mov	r3, r9
 2153 0184 2246     		mov	r2, r4
 2154 0186 0021     		movs	r1, #0
 2155 0188 0DA8     		add	r0, sp, #52
 2156 018a FFF7FEFF 		bl	lv_img_buf_set_px_color
 2157              	.LVL226:
 414:lvgl/src/widgets/lv_canvas.c **** 
 2158              		.loc 1 414 13 is_stmt 1 view .LVU743
 414:lvgl/src/widgets/lv_canvas.c **** 
 2159              		.loc 1 414 15 is_stmt 0 view .LVU744
 2160 018e 002D     		cmp	r5, #0
 2161 0190 D3D1     		bne	.L126
 2162              	.L102:
 416:lvgl/src/widgets/lv_canvas.c **** #if LV_COLOR_DEPTH == 16 && LV_COLOR_16_SWAP
 2163              		.loc 1 416 13 is_stmt 1 view .LVU745
 416:lvgl/src/widgets/lv_canvas.c **** #if LV_COLOR_DEPTH == 16 && LV_COLOR_16_SWAP
 2164              		.loc 1 416 25 is_stmt 0 view .LVU746
 2165 0192 C9F30743 		ubfx	r3, r9, #16, #8
 416:lvgl/src/widgets/lv_canvas.c **** #if LV_COLOR_DEPTH == 16 && LV_COLOR_16_SWAP
 2166              		.loc 1 416 18 view .LVU747
 2167 0196 059A     		ldr	r2, [sp, #20]
 2168 0198 1A44     		add	r2, r2, r3
 2169 019a 0592     		str	r2, [sp, #20]
 2170              	.LVL227:
 420:lvgl/src/widgets/lv_canvas.c **** #endif
 2171              		.loc 1 420 13 is_stmt 1 view .LVU748
 420:lvgl/src/widgets/lv_canvas.c **** #endif
 2172              		.loc 1 420 25 is_stmt 0 view .LVU749
 2173 019c C9F30723 		ubfx	r3, r9, #8, #8
 420:lvgl/src/widgets/lv_canvas.c **** #endif
 2174              		.loc 1 420 18 view .LVU750
 2175 01a0 1F44     		add	r7, r7, r3
 2176              	.LVL228:
 422:lvgl/src/widgets/lv_canvas.c ****             if(has_alpha) asum += opa;
 2177              		.loc 1 422 13 is_stmt 1 view .LVU751
 422:lvgl/src/widgets/lv_canvas.c ****             if(has_alpha) asum += opa;
 2178              		.loc 1 422 18 is_stmt 0 view .LVU752
 2179 01a2 56FA89F6 		uxtab	r6, r6, r9
 2180              	.LVL229:
ARM GAS  C:\Users\OSD\AppData\Local\Temp\ccwADrda.s 			page 86


 423:lvgl/src/widgets/lv_canvas.c ****         }
 2181              		.loc 1 423 13 is_stmt 1 view .LVU753
 423:lvgl/src/widgets/lv_canvas.c ****         }
 2182              		.loc 1 423 15 is_stmt 0 view .LVU754
 2183 01a6 002D     		cmp	r5, #0
 2184 01a8 CED0     		beq	.L103
 423:lvgl/src/widgets/lv_canvas.c ****         }
 2185              		.loc 1 423 27 is_stmt 1 discriminator 1 view .LVU755
 423:lvgl/src/widgets/lv_canvas.c ****         }
 2186              		.loc 1 423 32 is_stmt 0 discriminator 1 view .LVU756
 2187 01aa 019B     		ldr	r3, [sp, #4]
 2188 01ac 039A     		ldr	r2, [sp, #12]
 2189              	.LVL230:
 423:lvgl/src/widgets/lv_canvas.c ****         }
 2190              		.loc 1 423 32 discriminator 1 view .LVU757
 2191 01ae 1344     		add	r3, r3, r2
 2192 01b0 0193     		str	r3, [sp, #4]
 2193              	.LVL231:
 423:lvgl/src/widgets/lv_canvas.c ****         }
 2194              		.loc 1 423 32 discriminator 1 view .LVU758
 2195 01b2 C9E7     		b	.L103
 2196              	.LVL232:
 2197              	.L124:
 427:lvgl/src/widgets/lv_canvas.c **** 
 2198              		.loc 1 427 11 view .LVU759
 2199 01b4 1446     		mov	r4, r2
 427:lvgl/src/widgets/lv_canvas.c **** 
 2200              		.loc 1 427 9 is_stmt 1 view .LVU760
 427:lvgl/src/widgets/lv_canvas.c **** 
 2201              		.loc 1 427 11 is_stmt 0 view .LVU761
 2202 01b6 002D     		cmp	r5, #0
 2203 01b8 40F09A80 		bne	.L120
 427:lvgl/src/widgets/lv_canvas.c **** 
 2204              		.loc 1 427 37 view .LVU762
 2205 01bc FF23     		movs	r3, #255
 2206 01be 0193     		str	r3, [sp, #4]
 2207              	.LVL233:
 427:lvgl/src/widgets/lv_canvas.c **** 
 2208              		.loc 1 427 37 view .LVU763
 2209 01c0 DDF81480 		ldr	r8, [sp, #20]
 2210              	.LVL234:
 427:lvgl/src/widgets/lv_canvas.c **** 
 2211              		.loc 1 427 37 view .LVU764
 2212 01c4 5CE0     		b	.L116
 2213              	.LVL235:
 2214              	.L108:
 442:lvgl/src/widgets/lv_canvas.c ****             }
 2215              		.loc 1 442 17 is_stmt 1 view .LVU765
 2216 01c6 4B46     		mov	r3, r9
 2217 01c8 2246     		mov	r2, r4
 2218              	.LVL236:
 442:lvgl/src/widgets/lv_canvas.c ****             }
 2219              		.loc 1 442 17 is_stmt 0 view .LVU766
 2220 01ca 0299     		ldr	r1, [sp, #8]
 2221 01cc 0BF13C00 		add	r0, fp, #60
 2222 01d0 FFF7FEFF 		bl	lv_img_buf_set_px_color
 2223              	.LVL237:
ARM GAS  C:\Users\OSD\AppData\Local\Temp\ccwADrda.s 			page 87


 2224              	.L107:
 444:lvgl/src/widgets/lv_canvas.c **** 
 2225              		.loc 1 444 13 is_stmt 1 view .LVU767
 444:lvgl/src/widgets/lv_canvas.c **** 
 2226              		.loc 1 444 15 is_stmt 0 view .LVU768
 2227 01d4 002D     		cmp	r5, #0
 2228 01d6 6ED1     		bne	.L127
 2229              	.L109:
 446:lvgl/src/widgets/lv_canvas.c ****             y_safe = y_safe < 0 ? 0 : y_safe;
 2230              		.loc 1 446 13 is_stmt 1 view .LVU769
 446:lvgl/src/widgets/lv_canvas.c ****             y_safe = y_safe < 0 ? 0 : y_safe;
 2231              		.loc 1 446 24 is_stmt 0 view .LVU770
 2232 01d8 A4B2     		uxth	r4, r4
 446:lvgl/src/widgets/lv_canvas.c ****             y_safe = y_safe < 0 ? 0 : y_safe;
 2233              		.loc 1 446 24 view .LVU771
 2234 01da 089B     		ldr	r3, [sp, #32]
 2235 01dc A4EB030A 		sub	r10, r4, r3
 446:lvgl/src/widgets/lv_canvas.c ****             y_safe = y_safe < 0 ? 0 : y_safe;
 2236              		.loc 1 446 20 view .LVU772
 2237 01e0 0FFA8AFA 		sxth	r10, r10
 2238              	.LVL238:
 447:lvgl/src/widgets/lv_canvas.c ****             c = lv_img_buf_get_px_color(&line_img, 0, y_safe, color);
 2239              		.loc 1 447 13 is_stmt 1 view .LVU773
 447:lvgl/src/widgets/lv_canvas.c ****             c = lv_img_buf_get_px_color(&line_img, 0, y_safe, color);
 2240              		.loc 1 447 20 is_stmt 0 view .LVU774
 2241 01e4 2AEAEA7A 		bic	r10, r10, r10, asr #31
 2242              	.LVL239:
 448:lvgl/src/widgets/lv_canvas.c ****             if(has_alpha) opa = lv_img_buf_get_px_alpha(&line_img, 0, y_safe);
 2243              		.loc 1 448 13 is_stmt 1 view .LVU775
 448:lvgl/src/widgets/lv_canvas.c ****             if(has_alpha) opa = lv_img_buf_get_px_alpha(&line_img, 0, y_safe);
 2244              		.loc 1 448 17 is_stmt 0 view .LVU776
 2245 01e8 049B     		ldr	r3, [sp, #16]
 2246 01ea 5246     		mov	r2, r10
 2247 01ec 0021     		movs	r1, #0
 2248 01ee 0DA8     		add	r0, sp, #52
 2249 01f0 FFF7FEFF 		bl	lv_img_buf_get_px_color
 2250              	.LVL240:
 2251 01f4 8146     		mov	r9, r0
 2252              	.LVL241:
 449:lvgl/src/widgets/lv_canvas.c **** 
 2253              		.loc 1 449 13 is_stmt 1 view .LVU777
 449:lvgl/src/widgets/lv_canvas.c **** 
 2254              		.loc 1 449 15 is_stmt 0 view .LVU778
 2255 01f6 002D     		cmp	r5, #0
 2256 01f8 65D1     		bne	.L128
 2257              	.L110:
 451:lvgl/src/widgets/lv_canvas.c **** #if LV_COLOR_DEPTH == 16 && LV_COLOR_16_SWAP
 2258              		.loc 1 451 13 is_stmt 1 view .LVU779
 2259              	.LVL242:
 451:lvgl/src/widgets/lv_canvas.c **** #if LV_COLOR_DEPTH == 16 && LV_COLOR_16_SWAP
 2260              		.loc 1 451 25 is_stmt 0 view .LVU780
 2261 01fa C9F3074A 		ubfx	r10, r9, #16, #8
 2262              	.LVL243:
 451:lvgl/src/widgets/lv_canvas.c **** #if LV_COLOR_DEPTH == 16 && LV_COLOR_16_SWAP
 2263              		.loc 1 451 18 view .LVU781
 2264 01fe A8EB0A03 		sub	r3, r8, r10
 2265 0202 0593     		str	r3, [sp, #20]
ARM GAS  C:\Users\OSD\AppData\Local\Temp\ccwADrda.s 			page 88


 2266              	.LVL244:
 455:lvgl/src/widgets/lv_canvas.c **** #endif
 2267              		.loc 1 455 13 is_stmt 1 view .LVU782
 455:lvgl/src/widgets/lv_canvas.c **** #endif
 2268              		.loc 1 455 25 is_stmt 0 view .LVU783
 2269 0204 C9F30723 		ubfx	r3, r9, #8, #8
 2270              	.LVL245:
 455:lvgl/src/widgets/lv_canvas.c **** #endif
 2271              		.loc 1 455 18 view .LVU784
 2272 0208 FF1A     		subs	r7, r7, r3
 2273              	.LVL246:
 457:lvgl/src/widgets/lv_canvas.c ****             if(has_alpha) asum -= opa;
 2274              		.loc 1 457 13 is_stmt 1 view .LVU785
 457:lvgl/src/widgets/lv_canvas.c ****             if(has_alpha) asum -= opa;
 2275              		.loc 1 457 25 is_stmt 0 view .LVU786
 2276 020a 5FFA89F9 		uxtb	r9, r9
 2277              	.LVL247:
 457:lvgl/src/widgets/lv_canvas.c ****             if(has_alpha) asum -= opa;
 2278              		.loc 1 457 18 view .LVU787
 2279 020e A6EB0906 		sub	r6, r6, r9
 2280              	.LVL248:
 458:lvgl/src/widgets/lv_canvas.c **** 
 2281              		.loc 1 458 13 is_stmt 1 view .LVU788
 458:lvgl/src/widgets/lv_canvas.c **** 
 2282              		.loc 1 458 15 is_stmt 0 view .LVU789
 2283 0212 1DB1     		cbz	r5, .L111
 458:lvgl/src/widgets/lv_canvas.c **** 
 2284              		.loc 1 458 27 is_stmt 1 discriminator 1 view .LVU790
 458:lvgl/src/widgets/lv_canvas.c **** 
 2285              		.loc 1 458 32 is_stmt 0 discriminator 1 view .LVU791
 2286 0214 019B     		ldr	r3, [sp, #4]
 2287 0216 039A     		ldr	r2, [sp, #12]
 2288 0218 9B1A     		subs	r3, r3, r2
 2289 021a 0193     		str	r3, [sp, #4]
 2290              	.LVL249:
 2291              	.L111:
 460:lvgl/src/widgets/lv_canvas.c ****             y_safe = y_safe > canvas->dsc.header.h - 1 ? canvas->dsc.header.h - 1 : y_safe;
 2292              		.loc 1 460 13 is_stmt 1 view .LVU792
 460:lvgl/src/widgets/lv_canvas.c ****             y_safe = y_safe > canvas->dsc.header.h - 1 ? canvas->dsc.header.h - 1 : y_safe;
 2293              		.loc 1 460 28 is_stmt 0 view .LVU793
 2294 021c 069B     		ldr	r3, [sp, #24]
 2295 021e 04EB0308 		add	r8, r4, r3
 2296 0222 08F10108 		add	r8, r8, #1
 460:lvgl/src/widgets/lv_canvas.c ****             y_safe = y_safe > canvas->dsc.header.h - 1 ? canvas->dsc.header.h - 1 : y_safe;
 2297              		.loc 1 460 20 view .LVU794
 2298 0226 0FFA88F8 		sxth	r8, r8
 2299              	.LVL250:
 461:lvgl/src/widgets/lv_canvas.c **** 
 2300              		.loc 1 461 13 is_stmt 1 view .LVU795
 461:lvgl/src/widgets/lv_canvas.c **** 
 2301              		.loc 1 461 49 is_stmt 0 view .LVU796
 2302 022a BBF83E30 		ldrh	r3, [fp, #62]
 2303 022e C3F34A13 		ubfx	r3, r3, #5, #11
 461:lvgl/src/widgets/lv_canvas.c **** 
 2304              		.loc 1 461 20 view .LVU797
 2305 0232 4345     		cmp	r3, r8
 2306 0234 01DC     		bgt	.L112
ARM GAS  C:\Users\OSD\AppData\Local\Temp\ccwADrda.s 			page 89


 461:lvgl/src/widgets/lv_canvas.c **** 
 2307              		.loc 1 461 20 discriminator 1 view .LVU798
 2308 0236 03F1FF38 		add	r8, r3, #-1
 2309              	.LVL251:
 2310              	.L112:
 463:lvgl/src/widgets/lv_canvas.c ****             if(has_alpha) opa = lv_img_buf_get_px_alpha(&canvas->dsc, x, y_safe);
 2311              		.loc 1 463 13 is_stmt 1 discriminator 4 view .LVU799
 463:lvgl/src/widgets/lv_canvas.c ****             if(has_alpha) opa = lv_img_buf_get_px_alpha(&canvas->dsc, x, y_safe);
 2312              		.loc 1 463 41 is_stmt 0 discriminator 4 view .LVU800
 2313 023a 0BF13C0A 		add	r10, fp, #60
 463:lvgl/src/widgets/lv_canvas.c ****             if(has_alpha) opa = lv_img_buf_get_px_alpha(&canvas->dsc, x, y_safe);
 2314              		.loc 1 463 17 discriminator 4 view .LVU801
 2315 023e 049B     		ldr	r3, [sp, #16]
 2316 0240 4246     		mov	r2, r8
 2317 0242 0299     		ldr	r1, [sp, #8]
 2318 0244 5046     		mov	r0, r10
 2319 0246 FFF7FEFF 		bl	lv_img_buf_get_px_color
 2320              	.LVL252:
 2321 024a 8146     		mov	r9, r0
 464:lvgl/src/widgets/lv_canvas.c **** 
 2322              		.loc 1 464 13 is_stmt 1 discriminator 4 view .LVU802
 464:lvgl/src/widgets/lv_canvas.c **** 
 2323              		.loc 1 464 15 is_stmt 0 discriminator 4 view .LVU803
 2324 024c 002D     		cmp	r5, #0
 2325 024e 41D1     		bne	.L129
 2326              	.L113:
 466:lvgl/src/widgets/lv_canvas.c ****             if(has_alpha) lv_img_buf_set_px_alpha(&line_img, 0, y_safe, opa);
 2327              		.loc 1 466 13 is_stmt 1 view .LVU804
 2328              	.LVL253:
 466:lvgl/src/widgets/lv_canvas.c ****             if(has_alpha) lv_img_buf_set_px_alpha(&line_img, 0, y_safe, opa);
 2329              		.loc 1 466 13 is_stmt 0 view .LVU805
 2330 0250 4B46     		mov	r3, r9
 2331 0252 4246     		mov	r2, r8
 2332 0254 0021     		movs	r1, #0
 2333 0256 0DA8     		add	r0, sp, #52
 2334 0258 FFF7FEFF 		bl	lv_img_buf_set_px_color
 2335              	.LVL254:
 467:lvgl/src/widgets/lv_canvas.c **** 
 2336              		.loc 1 467 13 is_stmt 1 view .LVU806
 467:lvgl/src/widgets/lv_canvas.c **** 
 2337              		.loc 1 467 15 is_stmt 0 view .LVU807
 2338 025c 002D     		cmp	r5, #0
 2339 025e 40D1     		bne	.L130
 2340              	.L114:
 469:lvgl/src/widgets/lv_canvas.c **** #if LV_COLOR_DEPTH == 16 && LV_COLOR_16_SWAP
 2341              		.loc 1 469 13 is_stmt 1 view .LVU808
 469:lvgl/src/widgets/lv_canvas.c **** #if LV_COLOR_DEPTH == 16 && LV_COLOR_16_SWAP
 2342              		.loc 1 469 25 is_stmt 0 view .LVU809
 2343 0260 C9F30748 		ubfx	r8, r9, #16, #8
 2344              	.LVL255:
 469:lvgl/src/widgets/lv_canvas.c **** #if LV_COLOR_DEPTH == 16 && LV_COLOR_16_SWAP
 2345              		.loc 1 469 18 view .LVU810
 2346 0264 059B     		ldr	r3, [sp, #20]
 2347 0266 9844     		add	r8, r8, r3
 2348              	.LVL256:
 473:lvgl/src/widgets/lv_canvas.c **** #endif
 2349              		.loc 1 473 13 is_stmt 1 view .LVU811
ARM GAS  C:\Users\OSD\AppData\Local\Temp\ccwADrda.s 			page 90


 473:lvgl/src/widgets/lv_canvas.c **** #endif
 2350              		.loc 1 473 25 is_stmt 0 view .LVU812
 2351 0268 C9F30723 		ubfx	r3, r9, #8, #8
 473:lvgl/src/widgets/lv_canvas.c **** #endif
 2352              		.loc 1 473 18 view .LVU813
 2353 026c 1F44     		add	r7, r7, r3
 2354              	.LVL257:
 475:lvgl/src/widgets/lv_canvas.c ****             if(has_alpha) asum += opa;
 2355              		.loc 1 475 13 is_stmt 1 view .LVU814
 475:lvgl/src/widgets/lv_canvas.c ****             if(has_alpha) asum += opa;
 2356              		.loc 1 475 18 is_stmt 0 view .LVU815
 2357 026e 56FA89F6 		uxtab	r6, r6, r9
 2358              	.LVL258:
 476:lvgl/src/widgets/lv_canvas.c ****         }
 2359              		.loc 1 476 13 is_stmt 1 view .LVU816
 476:lvgl/src/widgets/lv_canvas.c ****         }
 2360              		.loc 1 476 15 is_stmt 0 view .LVU817
 2361 0272 1DB1     		cbz	r5, .L115
 476:lvgl/src/widgets/lv_canvas.c ****         }
 2362              		.loc 1 476 27 is_stmt 1 discriminator 1 view .LVU818
 476:lvgl/src/widgets/lv_canvas.c ****         }
 2363              		.loc 1 476 32 is_stmt 0 discriminator 1 view .LVU819
 2364 0274 019B     		ldr	r3, [sp, #4]
 2365 0276 039A     		ldr	r2, [sp, #12]
 2366 0278 1344     		add	r3, r3, r2
 2367 027a 0193     		str	r3, [sp, #4]
 2368              	.LVL259:
 2369              	.L115:
 429:lvgl/src/widgets/lv_canvas.c ****             if(asum) {
 2370              		.loc 1 429 34 is_stmt 1 discriminator 2 view .LVU820
 429:lvgl/src/widgets/lv_canvas.c ****             if(asum) {
 2371              		.loc 1 429 35 is_stmt 0 discriminator 2 view .LVU821
 2372 027c 0134     		adds	r4, r4, #1
 2373              	.LVL260:
 429:lvgl/src/widgets/lv_canvas.c ****             if(asum) {
 2374              		.loc 1 429 35 discriminator 2 view .LVU822
 2375 027e 24B2     		sxth	r4, r4
 2376              	.LVL261:
 2377              	.L116:
 429:lvgl/src/widgets/lv_canvas.c ****             if(asum) {
 2378              		.loc 1 429 23 is_stmt 1 discriminator 1 view .LVU823
 429:lvgl/src/widgets/lv_canvas.c ****             if(asum) {
 2379              		.loc 1 429 29 is_stmt 0 discriminator 1 view .LVU824
 2380 0280 BDF94630 		ldrsh	r3, [sp, #70]
 429:lvgl/src/widgets/lv_canvas.c ****             if(asum) {
 2381              		.loc 1 429 9 discriminator 1 view .LVU825
 2382 0284 A342     		cmp	r3, r4
 2383 0286 36DB     		blt	.L131
 430:lvgl/src/widgets/lv_canvas.c ****                 c.ch.red = rsum / r;
 2384              		.loc 1 430 13 is_stmt 1 view .LVU826
 430:lvgl/src/widgets/lv_canvas.c ****                 c.ch.red = rsum / r;
 2385              		.loc 1 430 15 is_stmt 0 view .LVU827
 2386 0288 019A     		ldr	r2, [sp, #4]
 2387 028a 002A     		cmp	r2, #0
 2388 028c A2D0     		beq	.L107
 431:lvgl/src/widgets/lv_canvas.c **** #if LV_COLOR_DEPTH == 16 && LV_COLOR_16_SWAP
 2389              		.loc 1 431 17 is_stmt 1 view .LVU828
ARM GAS  C:\Users\OSD\AppData\Local\Temp\ccwADrda.s 			page 91


 431:lvgl/src/widgets/lv_canvas.c **** #if LV_COLOR_DEPTH == 16 && LV_COLOR_16_SWAP
 2390              		.loc 1 431 33 is_stmt 0 view .LVU829
 2391 028e 0999     		ldr	r1, [sp, #36]
 2392 0290 B8FBF1F3 		udiv	r3, r8, r1
 431:lvgl/src/widgets/lv_canvas.c **** #if LV_COLOR_DEPTH == 16 && LV_COLOR_16_SWAP
 2393              		.loc 1 431 26 view .LVU830
 2394 0294 63F31749 		bfi	r9, r3, #16, #8
 437:lvgl/src/widgets/lv_canvas.c **** #endif
 2395              		.loc 1 437 17 is_stmt 1 view .LVU831
 437:lvgl/src/widgets/lv_canvas.c **** #endif
 2396              		.loc 1 437 35 is_stmt 0 view .LVU832
 2397 0298 B7FBF1F3 		udiv	r3, r7, r1
 437:lvgl/src/widgets/lv_canvas.c **** #endif
 2398              		.loc 1 437 28 view .LVU833
 2399 029c 63F30F29 		bfi	r9, r3, #8, #8
 439:lvgl/src/widgets/lv_canvas.c ****                 if(has_alpha) opa = asum / r;
 2400              		.loc 1 439 17 is_stmt 1 view .LVU834
 439:lvgl/src/widgets/lv_canvas.c ****                 if(has_alpha) opa = asum / r;
 2401              		.loc 1 439 34 is_stmt 0 view .LVU835
 2402 02a0 B6FBF1F3 		udiv	r3, r6, r1
 439:lvgl/src/widgets/lv_canvas.c ****                 if(has_alpha) opa = asum / r;
 2403              		.loc 1 439 27 view .LVU836
 2404 02a4 63F30709 		bfi	r9, r3, #0, #8
 440:lvgl/src/widgets/lv_canvas.c **** 
 2405              		.loc 1 440 17 is_stmt 1 view .LVU837
 440:lvgl/src/widgets/lv_canvas.c **** 
 2406              		.loc 1 440 19 is_stmt 0 view .LVU838
 2407 02a8 002D     		cmp	r5, #0
 2408 02aa 8CD0     		beq	.L108
 440:lvgl/src/widgets/lv_canvas.c **** 
 2409              		.loc 1 440 31 is_stmt 1 discriminator 1 view .LVU839
 440:lvgl/src/widgets/lv_canvas.c **** 
 2410              		.loc 1 440 42 is_stmt 0 discriminator 1 view .LVU840
 2411 02ac B2FBF1F0 		udiv	r0, r2, r1
 440:lvgl/src/widgets/lv_canvas.c **** 
 2412              		.loc 1 440 35 discriminator 1 view .LVU841
 2413 02b0 C3B2     		uxtb	r3, r0
 2414 02b2 0393     		str	r3, [sp, #12]
 2415              	.LVL262:
 440:lvgl/src/widgets/lv_canvas.c **** 
 2416              		.loc 1 440 35 discriminator 1 view .LVU842
 2417 02b4 87E7     		b	.L108
 2418              	.L127:
 444:lvgl/src/widgets/lv_canvas.c **** 
 2419              		.loc 1 444 27 is_stmt 1 discriminator 1 view .LVU843
 2420 02b6 039B     		ldr	r3, [sp, #12]
 2421 02b8 2246     		mov	r2, r4
 2422 02ba 0299     		ldr	r1, [sp, #8]
 2423 02bc 0BF13C00 		add	r0, fp, #60
 2424 02c0 FFF7FEFF 		bl	lv_img_buf_set_px_alpha
 2425              	.LVL263:
 2426 02c4 88E7     		b	.L109
 2427              	.LVL264:
 2428              	.L128:
 449:lvgl/src/widgets/lv_canvas.c **** 
 2429              		.loc 1 449 27 discriminator 1 view .LVU844
 449:lvgl/src/widgets/lv_canvas.c **** 
ARM GAS  C:\Users\OSD\AppData\Local\Temp\ccwADrda.s 			page 92


 2430              		.loc 1 449 33 is_stmt 0 discriminator 1 view .LVU845
 2431 02c6 5246     		mov	r2, r10
 2432 02c8 0021     		movs	r1, #0
 2433 02ca 0DA8     		add	r0, sp, #52
 2434 02cc FFF7FEFF 		bl	lv_img_buf_get_px_alpha
 2435              	.LVL265:
 2436 02d0 0390     		str	r0, [sp, #12]
 2437              	.LVL266:
 449:lvgl/src/widgets/lv_canvas.c **** 
 2438              		.loc 1 449 33 discriminator 1 view .LVU846
 2439 02d2 92E7     		b	.L110
 2440              	.LVL267:
 2441              	.L129:
 464:lvgl/src/widgets/lv_canvas.c **** 
 2442              		.loc 1 464 27 is_stmt 1 discriminator 1 view .LVU847
 464:lvgl/src/widgets/lv_canvas.c **** 
 2443              		.loc 1 464 33 is_stmt 0 discriminator 1 view .LVU848
 2444 02d4 4246     		mov	r2, r8
 2445 02d6 0299     		ldr	r1, [sp, #8]
 2446 02d8 5046     		mov	r0, r10
 2447 02da FFF7FEFF 		bl	lv_img_buf_get_px_alpha
 2448              	.LVL268:
 2449 02de 0390     		str	r0, [sp, #12]
 2450              	.LVL269:
 464:lvgl/src/widgets/lv_canvas.c **** 
 2451              		.loc 1 464 33 discriminator 1 view .LVU849
 2452 02e0 B6E7     		b	.L113
 2453              	.LVL270:
 2454              	.L130:
 467:lvgl/src/widgets/lv_canvas.c **** 
 2455              		.loc 1 467 27 is_stmt 1 discriminator 1 view .LVU850
 2456 02e2 039B     		ldr	r3, [sp, #12]
 2457 02e4 4246     		mov	r2, r8
 2458 02e6 0021     		movs	r1, #0
 2459 02e8 0DA8     		add	r0, sp, #52
 2460 02ea FFF7FEFF 		bl	lv_img_buf_set_px_alpha
 2461              	.LVL271:
 2462 02ee B7E7     		b	.L114
 2463              	.LVL272:
 2464              	.L120:
 467:lvgl/src/widgets/lv_canvas.c **** 
 2465              		.loc 1 467 27 is_stmt 0 discriminator 1 view .LVU851
 2466 02f0 DDF81480 		ldr	r8, [sp, #20]
 2467              	.LVL273:
 467:lvgl/src/widgets/lv_canvas.c **** 
 2468              		.loc 1 467 27 discriminator 1 view .LVU852
 2469 02f4 C4E7     		b	.L116
 2470              	.LVL274:
 2471              	.L131:
 467:lvgl/src/widgets/lv_canvas.c **** 
 2472              		.loc 1 467 27 discriminator 1 view .LVU853
 2473              	.LBE43:
 397:lvgl/src/widgets/lv_canvas.c ****         uint32_t asum = 0;
 2474              		.loc 1 397 30 is_stmt 1 discriminator 2 view .LVU854
 397:lvgl/src/widgets/lv_canvas.c ****         uint32_t asum = 0;
 2475              		.loc 1 397 31 is_stmt 0 discriminator 2 view .LVU855
 2476 02f6 029B     		ldr	r3, [sp, #8]
ARM GAS  C:\Users\OSD\AppData\Local\Temp\ccwADrda.s 			page 93


 2477 02f8 0133     		adds	r3, r3, #1
 2478 02fa 1BB2     		sxth	r3, r3
 2479 02fc 0293     		str	r3, [sp, #8]
 2480              	.LVL275:
 2481              	.L98:
 397:lvgl/src/widgets/lv_canvas.c ****         uint32_t asum = 0;
 2482              		.loc 1 397 19 is_stmt 1 discriminator 1 view .LVU856
 397:lvgl/src/widgets/lv_canvas.c ****         uint32_t asum = 0;
 2483              		.loc 1 397 25 is_stmt 0 discriminator 1 view .LVU857
 2484 02fe BDF94430 		ldrsh	r3, [sp, #68]
 397:lvgl/src/widgets/lv_canvas.c ****         uint32_t asum = 0;
 2485              		.loc 1 397 5 discriminator 1 view .LVU858
 2486 0302 029A     		ldr	r2, [sp, #8]
 2487 0304 9342     		cmp	r3, r2
 2488 0306 10DB     		blt	.L132
 2489              	.LBB44:
 398:lvgl/src/widgets/lv_canvas.c ****         uint32_t rsum = 0;
 2490              		.loc 1 398 9 is_stmt 1 view .LVU859
 2491              	.LVL276:
 399:lvgl/src/widgets/lv_canvas.c ****         uint32_t gsum = 0;
 2492              		.loc 1 399 9 view .LVU860
 400:lvgl/src/widgets/lv_canvas.c ****         uint32_t bsum = 0;
 2493              		.loc 1 400 9 view .LVU861
 401:lvgl/src/widgets/lv_canvas.c **** 
 2494              		.loc 1 401 9 view .LVU862
 403:lvgl/src/widgets/lv_canvas.c ****         lv_opa_t opa = LV_OPA_COVER;
 2495              		.loc 1 403 9 view .LVU863
 404:lvgl/src/widgets/lv_canvas.c **** 
 2496              		.loc 1 404 9 view .LVU864
 406:lvgl/src/widgets/lv_canvas.c ****             y_safe = y < 0 ? 0 : y;
 2497              		.loc 1 406 9 view .LVU865
 406:lvgl/src/widgets/lv_canvas.c ****             y_safe = y < 0 ? 0 : y;
 2498              		.loc 1 406 18 is_stmt 0 view .LVU866
 2499 0308 BDF94240 		ldrsh	r4, [sp, #66]
 2500 030c 1FFA84F8 		uxth	r8, r4
 406:lvgl/src/widgets/lv_canvas.c ****             y_safe = y < 0 ? 0 : y;
 2501              		.loc 1 406 22 view .LVU867
 2502 0310 089B     		ldr	r3, [sp, #32]
 2503 0312 A8EB0308 		sub	r8, r8, r3
 406:lvgl/src/widgets/lv_canvas.c ****             y_safe = y < 0 ? 0 : y;
 2504              		.loc 1 406 15 view .LVU868
 2505 0316 0FFA88F8 		sxth	r8, r8
 2506              	.LVL277:
 404:lvgl/src/widgets/lv_canvas.c **** 
 2507              		.loc 1 404 18 view .LVU869
 2508 031a FF23     		movs	r3, #255
 2509 031c 0393     		str	r3, [sp, #12]
 401:lvgl/src/widgets/lv_canvas.c **** 
 2510              		.loc 1 401 18 view .LVU870
 2511 031e 0026     		movs	r6, #0
 400:lvgl/src/widgets/lv_canvas.c ****         uint32_t bsum = 0;
 2512              		.loc 1 400 18 view .LVU871
 2513 0320 3746     		mov	r7, r6
 399:lvgl/src/widgets/lv_canvas.c ****         uint32_t gsum = 0;
 2514              		.loc 1 399 18 view .LVU872
 2515 0322 0596     		str	r6, [sp, #20]
 398:lvgl/src/widgets/lv_canvas.c ****         uint32_t rsum = 0;
ARM GAS  C:\Users\OSD\AppData\Local\Temp\ccwADrda.s 			page 94


 2516              		.loc 1 398 18 view .LVU873
 2517 0324 0196     		str	r6, [sp, #4]
 2518 0326 0794     		str	r4, [sp, #28]
 406:lvgl/src/widgets/lv_canvas.c ****             y_safe = y < 0 ? 0 : y;
 2519              		.loc 1 406 9 view .LVU874
 2520 0328 12E7     		b	.L99
 2521              	.LVL278:
 2522              	.L132:
 406:lvgl/src/widgets/lv_canvas.c ****             y_safe = y < 0 ? 0 : y;
 2523              		.loc 1 406 9 view .LVU875
 2524              	.LBE44:
 480:lvgl/src/widgets/lv_canvas.c **** 
 2525              		.loc 1 480 5 is_stmt 1 view .LVU876
 2526 032a 0A98     		ldr	r0, [sp, #40]
 2527 032c FFF7FEFF 		bl	lv_obj_invalidate
 2528              	.LVL279:
 482:lvgl/src/widgets/lv_canvas.c **** }
 2529              		.loc 1 482 5 view .LVU877
 2530 0330 0B98     		ldr	r0, [sp, #44]
 2531 0332 FFF7FEFF 		bl	lv_mem_buf_release
 2532              	.LVL280:
 2533              	.L89:
 483:lvgl/src/widgets/lv_canvas.c **** 
 2534              		.loc 1 483 1 is_stmt 0 view .LVU878
 2535 0336 13B0     		add	sp, sp, #76
 2536              		.cfi_def_cfa_offset 36
 2537              		@ sp needed
 2538 0338 BDE8F08F 		pop	{r4, r5, r6, r7, r8, r9, r10, fp, pc}
 483:lvgl/src/widgets/lv_canvas.c **** 
 2539              		.loc 1 483 1 view .LVU879
 2540              		.cfi_endproc
 2541              	.LFE172:
 2543              		.section	.text.lv_canvas_fill_bg,"ax",%progbits
 2544              		.align	1
 2545              		.global	lv_canvas_fill_bg
 2546              		.syntax unified
 2547              		.thumb
 2548              		.thumb_func
 2550              	lv_canvas_fill_bg:
 2551              	.LVL281:
 2552              	.LFB173:
 486:lvgl/src/widgets/lv_canvas.c ****     LV_ASSERT_OBJ(canvas, MY_CLASS);
 2553              		.loc 1 486 1 is_stmt 1 view -0
 2554              		.cfi_startproc
 2555              		@ args = 0, pretend = 0, frame = 0
 2556              		@ frame_needed = 0, uses_anonymous_args = 0
 486:lvgl/src/widgets/lv_canvas.c ****     LV_ASSERT_OBJ(canvas, MY_CLASS);
 2557              		.loc 1 486 1 is_stmt 0 view .LVU881
 2558 0000 2DE9F84F 		push	{r3, r4, r5, r6, r7, r8, r9, r10, fp, lr}
 2559              		.cfi_def_cfa_offset 40
 2560              		.cfi_offset 3, -40
 2561              		.cfi_offset 4, -36
 2562              		.cfi_offset 5, -32
 2563              		.cfi_offset 6, -28
 2564              		.cfi_offset 7, -24
 2565              		.cfi_offset 8, -20
 2566              		.cfi_offset 9, -16
ARM GAS  C:\Users\OSD\AppData\Local\Temp\ccwADrda.s 			page 95


 2567              		.cfi_offset 10, -12
 2568              		.cfi_offset 11, -8
 2569              		.cfi_offset 14, -4
 2570 0004 8346     		mov	fp, r0
 2571 0006 8946     		mov	r9, r1
 2572              	.LVL282:
 486:lvgl/src/widgets/lv_canvas.c ****     LV_ASSERT_OBJ(canvas, MY_CLASS);
 2573              		.loc 1 486 1 view .LVU882
 2574 0008 9246     		mov	r10, r2
 487:lvgl/src/widgets/lv_canvas.c **** 
 2575              		.loc 1 487 5 is_stmt 1 view .LVU883
 487:lvgl/src/widgets/lv_canvas.c **** 
 2576              		.loc 1 487 5 view .LVU884
 487:lvgl/src/widgets/lv_canvas.c **** 
 2577              		.loc 1 487 5 view .LVU885
 489:lvgl/src/widgets/lv_canvas.c **** 
 2578              		.loc 1 489 5 view .LVU886
 489:lvgl/src/widgets/lv_canvas.c **** 
 2579              		.loc 1 489 26 is_stmt 0 view .LVU887
 2580 000a FFF7FEFF 		bl	lv_canvas_get_img
 2581              	.LVL283:
 489:lvgl/src/widgets/lv_canvas.c **** 
 2582              		.loc 1 489 26 view .LVU888
 2583 000e 0646     		mov	r6, r0
 2584              	.LVL284:
 491:lvgl/src/widgets/lv_canvas.c ****         uint32_t row_byte_cnt = (dsc->header.w + 7) >> 3;
 2585              		.loc 1 491 5 is_stmt 1 view .LVU889
 491:lvgl/src/widgets/lv_canvas.c ****         uint32_t row_byte_cnt = (dsc->header.w + 7) >> 3;
 2586              		.loc 1 491 23 is_stmt 0 view .LVU890
 2587 0010 0378     		ldrb	r3, [r0]	@ zero_extendqisi2
 2588 0012 03F01F03 		and	r3, r3, #31
 491:lvgl/src/widgets/lv_canvas.c ****         uint32_t row_byte_cnt = (dsc->header.w + 7) >> 3;
 2589              		.loc 1 491 7 view .LVU891
 2590 0016 072B     		cmp	r3, #7
 2591 0018 04D0     		beq	.L146
 496:lvgl/src/widgets/lv_canvas.c ****         uint32_t row_byte_cnt = (dsc->header.w + 7) >> 3;
 2592              		.loc 1 496 10 is_stmt 1 view .LVU892
 496:lvgl/src/widgets/lv_canvas.c ****         uint32_t row_byte_cnt = (dsc->header.w + 7) >> 3;
 2593              		.loc 1 496 12 is_stmt 0 view .LVU893
 2594 001a 0B2B     		cmp	r3, #11
 2595 001c 1CD0     		beq	.L147
 2596              	.LBB45:
 503:lvgl/src/widgets/lv_canvas.c ****             for(x = 0; x < dsc->header.w; x++) {
 2597              		.loc 1 503 15 view .LVU894
 2598 001e 4FF00008 		mov	r8, #0
 2599 0022 44E0     		b	.L137
 2600              	.L146:
 2601              	.LBE45:
 2602              	.LBB46:
 492:lvgl/src/widgets/lv_canvas.c ****         /*+8 skip the palette*/
 2603              		.loc 1 492 9 is_stmt 1 view .LVU895
 492:lvgl/src/widgets/lv_canvas.c ****         /*+8 skip the palette*/
 2604              		.loc 1 492 45 is_stmt 0 view .LVU896
 2605 0024 0368     		ldr	r3, [r0]
 2606 0026 C3F38A23 		ubfx	r3, r3, #10, #11
 492:lvgl/src/widgets/lv_canvas.c ****         /*+8 skip the palette*/
 2607              		.loc 1 492 48 view .LVU897
ARM GAS  C:\Users\OSD\AppData\Local\Temp\ccwADrda.s 			page 96


 2608 002a 0733     		adds	r3, r3, #7
 492:lvgl/src/widgets/lv_canvas.c ****         /*+8 skip the palette*/
 2609              		.loc 1 492 53 view .LVU898
 2610 002c DB10     		asrs	r3, r3, #3
 2611              	.LVL285:
 494:lvgl/src/widgets/lv_canvas.c ****     }
 2612              		.loc 1 494 9 is_stmt 1 view .LVU899
 494:lvgl/src/widgets/lv_canvas.c ****     }
 2613              		.loc 1 494 33 is_stmt 0 view .LVU900
 2614 002e 8268     		ldr	r2, [r0, #8]
 494:lvgl/src/widgets/lv_canvas.c ****     }
 2615              		.loc 1 494 9 view .LVU901
 2616 0030 02F10800 		add	r0, r2, #8
 2617              	.LVL286:
 494:lvgl/src/widgets/lv_canvas.c ****     }
 2618              		.loc 1 494 9 view .LVU902
 2619 0034 B9F1000F 		cmp	r9, #0
 2620 0038 0CD0     		beq	.L141
 2621 003a FF21     		movs	r1, #255
 2622              	.L135:
 494:lvgl/src/widgets/lv_canvas.c ****     }
 2623              		.loc 1 494 97 discriminator 4 view .LVU903
 2624 003c 7288     		ldrh	r2, [r6, #2]
 2625 003e C2F34A12 		ubfx	r2, r2, #5, #11
 494:lvgl/src/widgets/lv_canvas.c ****     }
 2626              		.loc 1 494 9 discriminator 4 view .LVU904
 2627 0042 03FB02F2 		mul	r2, r3, r2
 2628 0046 FFF7FEFF 		bl	lv_memset
 2629              	.LVL287:
 2630              	.L136:
 494:lvgl/src/widgets/lv_canvas.c ****     }
 2631              		.loc 1 494 9 discriminator 4 view .LVU905
 2632              	.LBE46:
 511:lvgl/src/widgets/lv_canvas.c **** }
 2633              		.loc 1 511 5 is_stmt 1 view .LVU906
 2634 004a 5846     		mov	r0, fp
 2635 004c FFF7FEFF 		bl	lv_obj_invalidate
 2636              	.LVL288:
 512:lvgl/src/widgets/lv_canvas.c **** 
 2637              		.loc 1 512 1 is_stmt 0 view .LVU907
 2638 0050 BDE8F88F 		pop	{r3, r4, r5, r6, r7, r8, r9, r10, fp, pc}
 2639              	.LVL289:
 2640              	.L141:
 2641              	.LBB47:
 494:lvgl/src/widgets/lv_canvas.c ****     }
 2642              		.loc 1 494 9 view .LVU908
 2643 0054 0021     		movs	r1, #0
 2644 0056 F1E7     		b	.L135
 2645              	.LVL290:
 2646              	.L147:
 494:lvgl/src/widgets/lv_canvas.c ****     }
 2647              		.loc 1 494 9 view .LVU909
 2648              	.LBE47:
 2649              	.LBB48:
 497:lvgl/src/widgets/lv_canvas.c ****         lv_memset((uint8_t *)dsc->data, opa > LV_OPA_50 ? 0xff : 0x00, row_byte_cnt * dsc->header.h
 2650              		.loc 1 497 9 is_stmt 1 view .LVU910
 497:lvgl/src/widgets/lv_canvas.c ****         lv_memset((uint8_t *)dsc->data, opa > LV_OPA_50 ? 0xff : 0x00, row_byte_cnt * dsc->header.h
ARM GAS  C:\Users\OSD\AppData\Local\Temp\ccwADrda.s 			page 97


 2651              		.loc 1 497 45 is_stmt 0 view .LVU911
 2652 0058 0368     		ldr	r3, [r0]
 2653 005a C3F38A23 		ubfx	r3, r3, #10, #11
 497:lvgl/src/widgets/lv_canvas.c ****         lv_memset((uint8_t *)dsc->data, opa > LV_OPA_50 ? 0xff : 0x00, row_byte_cnt * dsc->header.h
 2654              		.loc 1 497 48 view .LVU912
 2655 005e 0733     		adds	r3, r3, #7
 497:lvgl/src/widgets/lv_canvas.c ****         lv_memset((uint8_t *)dsc->data, opa > LV_OPA_50 ? 0xff : 0x00, row_byte_cnt * dsc->header.h
 2656              		.loc 1 497 53 view .LVU913
 2657 0060 DB10     		asrs	r3, r3, #3
 2658              	.LVL291:
 498:lvgl/src/widgets/lv_canvas.c ****     }
 2659              		.loc 1 498 9 is_stmt 1 view .LVU914
 498:lvgl/src/widgets/lv_canvas.c ****     }
 2660              		.loc 1 498 33 is_stmt 0 view .LVU915
 2661 0062 8068     		ldr	r0, [r0, #8]
 2662              	.LVL292:
 498:lvgl/src/widgets/lv_canvas.c ****     }
 2663              		.loc 1 498 9 view .LVU916
 2664 0064 1AF0800F 		tst	r10, #128
 2665 0068 08D1     		bne	.L148
 2666 006a 0021     		movs	r1, #0
 2667              	.L138:
 498:lvgl/src/widgets/lv_canvas.c ****     }
 2668              		.loc 1 498 98 discriminator 4 view .LVU917
 2669 006c 7288     		ldrh	r2, [r6, #2]
 2670 006e C2F34A12 		ubfx	r2, r2, #5, #11
 498:lvgl/src/widgets/lv_canvas.c ****     }
 2671              		.loc 1 498 9 discriminator 4 view .LVU918
 2672 0072 03FB02F2 		mul	r2, r3, r2
 2673 0076 FFF7FEFF 		bl	lv_memset
 2674              	.LVL293:
 498:lvgl/src/widgets/lv_canvas.c ****     }
 2675              		.loc 1 498 9 discriminator 4 view .LVU919
 2676              	.LBE48:
 2677 007a E6E7     		b	.L136
 2678              	.LVL294:
 2679              	.L148:
 2680              	.LBB49:
 498:lvgl/src/widgets/lv_canvas.c ****     }
 2681              		.loc 1 498 9 view .LVU920
 2682 007c FF21     		movs	r1, #255
 2683 007e F5E7     		b	.L138
 2684              	.LVL295:
 2685              	.L139:
 498:lvgl/src/widgets/lv_canvas.c ****     }
 2686              		.loc 1 498 9 view .LVU921
 2687              	.LBE49:
 2688              	.LBB50:
 505:lvgl/src/widgets/lv_canvas.c ****                 lv_img_buf_set_px_alpha(dsc, x, y, opa);
 2689              		.loc 1 505 17 is_stmt 1 discriminator 3 view .LVU922
 2690 0080 2FB2     		sxth	r7, r5
 2691 0082 0FFA88F4 		sxth	r4, r8
 2692 0086 4B46     		mov	r3, r9
 2693 0088 2246     		mov	r2, r4
 2694 008a 3946     		mov	r1, r7
 2695 008c 3046     		mov	r0, r6
 2696 008e FFF7FEFF 		bl	lv_img_buf_set_px_color
ARM GAS  C:\Users\OSD\AppData\Local\Temp\ccwADrda.s 			page 98


 2697              	.LVL296:
 506:lvgl/src/widgets/lv_canvas.c ****             }
 2698              		.loc 1 506 17 discriminator 3 view .LVU923
 2699 0092 5346     		mov	r3, r10
 2700 0094 2246     		mov	r2, r4
 2701 0096 3946     		mov	r1, r7
 2702 0098 3046     		mov	r0, r6
 2703 009a FFF7FEFF 		bl	lv_img_buf_set_px_alpha
 2704              	.LVL297:
 504:lvgl/src/widgets/lv_canvas.c ****                 lv_img_buf_set_px_color(dsc, x, y, color);
 2705              		.loc 1 504 43 discriminator 3 view .LVU924
 504:lvgl/src/widgets/lv_canvas.c ****                 lv_img_buf_set_px_color(dsc, x, y, color);
 2706              		.loc 1 504 44 is_stmt 0 discriminator 3 view .LVU925
 2707 009e 0135     		adds	r5, r5, #1
 2708              	.LVL298:
 2709              	.L140:
 504:lvgl/src/widgets/lv_canvas.c ****                 lv_img_buf_set_px_color(dsc, x, y, color);
 2710              		.loc 1 504 24 is_stmt 1 discriminator 1 view .LVU926
 504:lvgl/src/widgets/lv_canvas.c ****                 lv_img_buf_set_px_color(dsc, x, y, color);
 2711              		.loc 1 504 39 is_stmt 0 discriminator 1 view .LVU927
 2712 00a0 3368     		ldr	r3, [r6]
 2713 00a2 C3F38A23 		ubfx	r3, r3, #10, #11
 504:lvgl/src/widgets/lv_canvas.c ****                 lv_img_buf_set_px_color(dsc, x, y, color);
 2714              		.loc 1 504 13 discriminator 1 view .LVU928
 2715 00a6 AB42     		cmp	r3, r5
 2716 00a8 EAD8     		bhi	.L139
 503:lvgl/src/widgets/lv_canvas.c ****             for(x = 0; x < dsc->header.w; x++) {
 2717              		.loc 1 503 39 is_stmt 1 discriminator 2 view .LVU929
 503:lvgl/src/widgets/lv_canvas.c ****             for(x = 0; x < dsc->header.w; x++) {
 2718              		.loc 1 503 40 is_stmt 0 discriminator 2 view .LVU930
 2719 00aa 08F10108 		add	r8, r8, #1
 2720              	.LVL299:
 2721              	.L137:
 503:lvgl/src/widgets/lv_canvas.c ****             for(x = 0; x < dsc->header.w; x++) {
 2722              		.loc 1 503 20 is_stmt 1 discriminator 1 view .LVU931
 503:lvgl/src/widgets/lv_canvas.c ****             for(x = 0; x < dsc->header.w; x++) {
 2723              		.loc 1 503 35 is_stmt 0 discriminator 1 view .LVU932
 2724 00ae 7388     		ldrh	r3, [r6, #2]
 2725 00b0 C3F34A13 		ubfx	r3, r3, #5, #11
 503:lvgl/src/widgets/lv_canvas.c ****             for(x = 0; x < dsc->header.w; x++) {
 2726              		.loc 1 503 9 discriminator 1 view .LVU933
 2727 00b4 4345     		cmp	r3, r8
 2728 00b6 C8D9     		bls	.L136
 504:lvgl/src/widgets/lv_canvas.c ****                 lv_img_buf_set_px_color(dsc, x, y, color);
 2729              		.loc 1 504 19 view .LVU934
 2730 00b8 0025     		movs	r5, #0
 2731 00ba F1E7     		b	.L140
 2732              	.LBE50:
 2733              		.cfi_endproc
 2734              	.LFE173:
 2736              		.section	.text.lv_canvas_draw_rect,"ax",%progbits
 2737              		.align	1
 2738              		.global	lv_canvas_draw_rect
 2739              		.syntax unified
 2740              		.thumb
 2741              		.thumb_func
 2743              	lv_canvas_draw_rect:
ARM GAS  C:\Users\OSD\AppData\Local\Temp\ccwADrda.s 			page 99


 2744              	.LVL300:
 2745              	.LFB174:
 516:lvgl/src/widgets/lv_canvas.c ****     LV_ASSERT_OBJ(canvas, MY_CLASS);
 2746              		.loc 1 516 1 is_stmt 1 view -0
 2747              		.cfi_startproc
 2748              		@ args = 8, pretend = 0, frame = 464
 2749              		@ frame_needed = 0, uses_anonymous_args = 0
 516:lvgl/src/widgets/lv_canvas.c ****     LV_ASSERT_OBJ(canvas, MY_CLASS);
 2750              		.loc 1 516 1 is_stmt 0 view .LVU936
 2751 0000 2DE9F043 		push	{r4, r5, r6, r7, r8, r9, lr}
 2752              		.cfi_def_cfa_offset 28
 2753              		.cfi_offset 4, -28
 2754              		.cfi_offset 5, -24
 2755              		.cfi_offset 6, -20
 2756              		.cfi_offset 7, -16
 2757              		.cfi_offset 8, -12
 2758              		.cfi_offset 9, -8
 2759              		.cfi_offset 14, -4
 2760 0004 F5B0     		sub	sp, sp, #468
 2761              		.cfi_def_cfa_offset 496
 2762 0006 0746     		mov	r7, r0
 2763 0008 0D46     		mov	r5, r1
 2764 000a 1446     		mov	r4, r2
 2765 000c 9846     		mov	r8, r3
 517:lvgl/src/widgets/lv_canvas.c **** 
 2766              		.loc 1 517 5 is_stmt 1 view .LVU937
 517:lvgl/src/widgets/lv_canvas.c **** 
 2767              		.loc 1 517 5 view .LVU938
 517:lvgl/src/widgets/lv_canvas.c **** 
 2768              		.loc 1 517 5 view .LVU939
 519:lvgl/src/widgets/lv_canvas.c **** 
 2769              		.loc 1 519 5 view .LVU940
 519:lvgl/src/widgets/lv_canvas.c **** 
 2770              		.loc 1 519 26 is_stmt 0 view .LVU941
 2771 000e FFF7FEFF 		bl	lv_canvas_get_img
 2772              	.LVL301:
 521:lvgl/src/widgets/lv_canvas.c ****         LV_LOG_WARN("lv_canvas_draw_rect: can't draw to LV_IMG_CF_INDEXED canvas");
 2773              		.loc 1 521 5 is_stmt 1 view .LVU942
 521:lvgl/src/widgets/lv_canvas.c ****         LV_LOG_WARN("lv_canvas_draw_rect: can't draw to LV_IMG_CF_INDEXED canvas");
 2774              		.loc 1 521 19 is_stmt 0 view .LVU943
 2775 0012 90F800C0 		ldrb	ip, [r0]	@ zero_extendqisi2
 2776 0016 0CF01F0C 		and	ip, ip, #31
 521:lvgl/src/widgets/lv_canvas.c ****         LV_LOG_WARN("lv_canvas_draw_rect: can't draw to LV_IMG_CF_INDEXED canvas");
 2777              		.loc 1 521 49 view .LVU944
 2778 001a 0CF1190C 		add	ip, ip, #25
 2779 001e 0CF01F0C 		and	ip, ip, #31
 521:lvgl/src/widgets/lv_canvas.c ****         LV_LOG_WARN("lv_canvas_draw_rect: can't draw to LV_IMG_CF_INDEXED canvas");
 2780              		.loc 1 521 7 view .LVU945
 2781 0022 BCF1030F 		cmp	ip, #3
 2782 0026 02D8     		bhi	.L154
 2783              	.LVL302:
 2784              	.L149:
 556:lvgl/src/widgets/lv_canvas.c **** 
 2785              		.loc 1 556 1 view .LVU946
 2786 0028 75B0     		add	sp, sp, #468
 2787              		.cfi_remember_state
 2788              		.cfi_def_cfa_offset 28
ARM GAS  C:\Users\OSD\AppData\Local\Temp\ccwADrda.s 			page 100


 2789              		@ sp needed
 2790 002a BDE8F083 		pop	{r4, r5, r6, r7, r8, r9, pc}
 2791              	.LVL303:
 2792              	.L154:
 2793              		.cfi_restore_state
 556:lvgl/src/widgets/lv_canvas.c **** 
 2794              		.loc 1 556 1 view .LVU947
 2795 002e 0646     		mov	r6, r0
 528:lvgl/src/widgets/lv_canvas.c ****     lv_disp_drv_t driver;
 2796              		.loc 1 528 5 is_stmt 1 view .LVU948
 529:lvgl/src/widgets/lv_canvas.c ****     lv_area_t clip_area;
 2797              		.loc 1 529 5 view .LVU949
 530:lvgl/src/widgets/lv_canvas.c ****     init_fake_disp(canvas, &fake_disp, &driver, &clip_area);
 2798              		.loc 1 530 5 view .LVU950
 531:lvgl/src/widgets/lv_canvas.c **** 
 2799              		.loc 1 531 5 view .LVU951
 2800 0030 03AB     		add	r3, sp, #12
 2801 0032 05AA     		add	r2, sp, #20
 2802 0034 19A9     		add	r1, sp, #100
 2803 0036 3846     		mov	r0, r7
 2804              	.LVL304:
 531:lvgl/src/widgets/lv_canvas.c **** 
 2805              		.loc 1 531 5 is_stmt 0 view .LVU952
 2806 0038 FFF7FEFF 		bl	init_fake_disp
 2807              	.LVL305:
 533:lvgl/src/widgets/lv_canvas.c ****     _lv_refr_set_disp_refreshing(&fake_disp);
 2808              		.loc 1 533 5 is_stmt 1 view .LVU953
 533:lvgl/src/widgets/lv_canvas.c ****     _lv_refr_set_disp_refreshing(&fake_disp);
 2809              		.loc 1 533 28 is_stmt 0 view .LVU954
 2810 003c FFF7FEFF 		bl	_lv_refr_get_disp_refreshing
 2811              	.LVL306:
 2812 0040 8146     		mov	r9, r0
 2813              	.LVL307:
 534:lvgl/src/widgets/lv_canvas.c **** 
 2814              		.loc 1 534 5 is_stmt 1 view .LVU955
 2815 0042 19A8     		add	r0, sp, #100
 2816              	.LVL308:
 534:lvgl/src/widgets/lv_canvas.c **** 
 2817              		.loc 1 534 5 is_stmt 0 view .LVU956
 2818 0044 FFF7FEFF 		bl	_lv_refr_set_disp_refreshing
 2819              	.LVL309:
 537:lvgl/src/widgets/lv_canvas.c ****     if(dsc->header.cf == LV_IMG_CF_TRUE_COLOR_CHROMA_KEYED &&
 2820              		.loc 1 537 5 is_stmt 1 view .LVU957
 2821              	.LBB51:
 2822              	.LBI51:
 599:lvgl/src/widgets/../core/../misc/lv_color.h **** {
 2823              		.loc 4 599 26 view .LVU958
 2824              	.LBB52:
 625:lvgl/src/widgets/../core/../misc/lv_color.h ****     r.full = c | 0xFF000000;
 2825              		.loc 4 625 5 view .LVU959
 626:lvgl/src/widgets/../core/../misc/lv_color.h ****     return r;
 2826              		.loc 4 626 5 view .LVU960
 627:lvgl/src/widgets/../core/../misc/lv_color.h **** #else /*LV_COLOR_DEPTH == 8*/
 2827              		.loc 4 627 5 view .LVU961
 627:lvgl/src/widgets/../core/../misc/lv_color.h **** #else /*LV_COLOR_DEPTH == 8*/
 2828              		.loc 4 627 5 is_stmt 0 view .LVU962
 2829              	.LBE52:
ARM GAS  C:\Users\OSD\AppData\Local\Temp\ccwADrda.s 			page 101


 2830              	.LBE51:
 538:lvgl/src/widgets/lv_canvas.c ****        draw_dsc->bg_color.full == ctransp.full) {
 2831              		.loc 1 538 5 is_stmt 1 view .LVU963
 538:lvgl/src/widgets/lv_canvas.c ****        draw_dsc->bg_color.full == ctransp.full) {
 2832              		.loc 1 538 23 is_stmt 0 view .LVU964
 2833 0048 3378     		ldrb	r3, [r6]	@ zero_extendqisi2
 2834 004a 03F01F03 		and	r3, r3, #31
 538:lvgl/src/widgets/lv_canvas.c ****        draw_dsc->bg_color.full == ctransp.full) {
 2835              		.loc 1 538 7 view .LVU965
 2836 004e 062B     		cmp	r3, #6
 2837 0050 1FD0     		beq	.L155
 2838              	.L152:
 543:lvgl/src/widgets/lv_canvas.c ****     coords.x1 = x;
 2839              		.loc 1 543 5 is_stmt 1 view .LVU966
 544:lvgl/src/widgets/lv_canvas.c ****     coords.y1 = y;
 2840              		.loc 1 544 5 view .LVU967
 544:lvgl/src/widgets/lv_canvas.c ****     coords.y1 = y;
 2841              		.loc 1 544 15 is_stmt 0 view .LVU968
 2842 0052 ADF80450 		strh	r5, [sp, #4]	@ movhi
 545:lvgl/src/widgets/lv_canvas.c ****     coords.x2 = x + w - 1;
 2843              		.loc 1 545 5 is_stmt 1 view .LVU969
 545:lvgl/src/widgets/lv_canvas.c ****     coords.x2 = x + w - 1;
 2844              		.loc 1 545 15 is_stmt 0 view .LVU970
 2845 0056 ADF80640 		strh	r4, [sp, #6]	@ movhi
 546:lvgl/src/widgets/lv_canvas.c ****     coords.y2 = y + h - 1;
 2846              		.loc 1 546 5 is_stmt 1 view .LVU971
 546:lvgl/src/widgets/lv_canvas.c ****     coords.y2 = y + h - 1;
 2847              		.loc 1 546 19 is_stmt 0 view .LVU972
 2848 005a 4544     		add	r5, r5, r8
 2849 005c ADB2     		uxth	r5, r5
 546:lvgl/src/widgets/lv_canvas.c ****     coords.y2 = y + h - 1;
 2850              		.loc 1 546 23 view .LVU973
 2851 005e 013D     		subs	r5, r5, #1
 546:lvgl/src/widgets/lv_canvas.c ****     coords.y2 = y + h - 1;
 2852              		.loc 1 546 15 view .LVU974
 2853 0060 ADF80850 		strh	r5, [sp, #8]	@ movhi
 547:lvgl/src/widgets/lv_canvas.c **** 
 2854              		.loc 1 547 5 is_stmt 1 view .LVU975
 547:lvgl/src/widgets/lv_canvas.c **** 
 2855              		.loc 1 547 19 is_stmt 0 view .LVU976
 2856 0064 BDF9F021 		ldrsh	r2, [sp, #496]
 2857 0068 1444     		add	r4, r4, r2
 2858 006a A4B2     		uxth	r4, r4
 547:lvgl/src/widgets/lv_canvas.c **** 
 2859              		.loc 1 547 23 view .LVU977
 2860 006c 013C     		subs	r4, r4, #1
 547:lvgl/src/widgets/lv_canvas.c **** 
 2861              		.loc 1 547 15 view .LVU978
 2862 006e ADF80A40 		strh	r4, [sp, #10]	@ movhi
 549:lvgl/src/widgets/lv_canvas.c **** 
 2863              		.loc 1 549 5 is_stmt 1 view .LVU979
 2864 0072 01AA     		add	r2, sp, #4
 2865 0074 7D99     		ldr	r1, [sp, #500]
 2866 0076 1498     		ldr	r0, [sp, #80]
 2867 0078 FFF7FEFF 		bl	lv_draw_rect
 2868              	.LVL310:
 551:lvgl/src/widgets/lv_canvas.c **** 
ARM GAS  C:\Users\OSD\AppData\Local\Temp\ccwADrda.s 			page 102


 2869              		.loc 1 551 5 view .LVU980
 2870 007c 4846     		mov	r0, r9
 2871 007e FFF7FEFF 		bl	_lv_refr_set_disp_refreshing
 2872              	.LVL311:
 553:lvgl/src/widgets/lv_canvas.c **** 
 2873              		.loc 1 553 5 view .LVU981
 2874 0082 19A9     		add	r1, sp, #100
 2875 0084 3846     		mov	r0, r7
 2876 0086 FFF7FEFF 		bl	deinit_fake_disp
 2877              	.LVL312:
 555:lvgl/src/widgets/lv_canvas.c **** }
 2878              		.loc 1 555 5 view .LVU982
 2879 008a 3846     		mov	r0, r7
 2880 008c FFF7FEFF 		bl	lv_obj_invalidate
 2881              	.LVL313:
 2882 0090 CAE7     		b	.L149
 2883              	.L155:
 539:lvgl/src/widgets/lv_canvas.c ****         fake_disp.driver->antialiasing = 0;
 2884              		.loc 1 539 26 is_stmt 0 discriminator 1 view .LVU983
 2885 0092 7D9B     		ldr	r3, [sp, #500]
 2886 0094 5B68     		ldr	r3, [r3, #4]
 538:lvgl/src/widgets/lv_canvas.c ****        draw_dsc->bg_color.full == ctransp.full) {
 2887              		.loc 1 538 60 discriminator 1 view .LVU984
 2888 0096 B3F1FF2F 		cmp	r3, #-16711936
 2889 009a DAD1     		bne	.L152
 540:lvgl/src/widgets/lv_canvas.c ****     }
 2890              		.loc 1 540 9 is_stmt 1 view .LVU985
 540:lvgl/src/widgets/lv_canvas.c ****     }
 2891              		.loc 1 540 18 is_stmt 0 view .LVU986
 2892 009c 199B     		ldr	r3, [sp, #100]
 540:lvgl/src/widgets/lv_canvas.c ****     }
 2893              		.loc 1 540 40 view .LVU987
 2894 009e 1A7C     		ldrb	r2, [r3, #16]	@ zero_extendqisi2
 2895 00a0 6FF3C302 		bfc	r2, #3, #1
 2896 00a4 1A74     		strb	r2, [r3, #16]
 2897 00a6 D4E7     		b	.L152
 2898              		.cfi_endproc
 2899              	.LFE174:
 2901              		.section	.text.lv_canvas_draw_text,"ax",%progbits
 2902              		.align	1
 2903              		.global	lv_canvas_draw_text
 2904              		.syntax unified
 2905              		.thumb
 2906              		.thumb_func
 2908              	lv_canvas_draw_text:
 2909              	.LVL314:
 2910              	.LFB175:
 560:lvgl/src/widgets/lv_canvas.c ****     LV_ASSERT_OBJ(canvas, MY_CLASS);
 2911              		.loc 1 560 1 is_stmt 1 view -0
 2912              		.cfi_startproc
 2913              		@ args = 8, pretend = 0, frame = 464
 2914              		@ frame_needed = 0, uses_anonymous_args = 0
 560:lvgl/src/widgets/lv_canvas.c ****     LV_ASSERT_OBJ(canvas, MY_CLASS);
 2915              		.loc 1 560 1 is_stmt 0 view .LVU989
 2916 0000 2DE9F043 		push	{r4, r5, r6, r7, r8, r9, lr}
 2917              		.cfi_def_cfa_offset 28
 2918              		.cfi_offset 4, -28
ARM GAS  C:\Users\OSD\AppData\Local\Temp\ccwADrda.s 			page 103


 2919              		.cfi_offset 5, -24
 2920              		.cfi_offset 6, -20
 2921              		.cfi_offset 7, -16
 2922              		.cfi_offset 8, -12
 2923              		.cfi_offset 9, -8
 2924              		.cfi_offset 14, -4
 2925 0004 F7B0     		sub	sp, sp, #476
 2926              		.cfi_def_cfa_offset 504
 2927 0006 0646     		mov	r6, r0
 2928 0008 0C46     		mov	r4, r1
 2929 000a 9046     		mov	r8, r2
 2930 000c 1F46     		mov	r7, r3
 561:lvgl/src/widgets/lv_canvas.c **** 
 2931              		.loc 1 561 5 is_stmt 1 view .LVU990
 561:lvgl/src/widgets/lv_canvas.c **** 
 2932              		.loc 1 561 5 view .LVU991
 561:lvgl/src/widgets/lv_canvas.c **** 
 2933              		.loc 1 561 5 view .LVU992
 563:lvgl/src/widgets/lv_canvas.c **** 
 2934              		.loc 1 563 5 view .LVU993
 563:lvgl/src/widgets/lv_canvas.c **** 
 2935              		.loc 1 563 26 is_stmt 0 view .LVU994
 2936 000e FFF7FEFF 		bl	lv_canvas_get_img
 2937              	.LVL315:
 565:lvgl/src/widgets/lv_canvas.c ****         LV_LOG_WARN("lv_canvas_draw_text: can't draw to LV_IMG_CF_INDEXED canvas");
 2938              		.loc 1 565 5 is_stmt 1 view .LVU995
 565:lvgl/src/widgets/lv_canvas.c ****         LV_LOG_WARN("lv_canvas_draw_text: can't draw to LV_IMG_CF_INDEXED canvas");
 2939              		.loc 1 565 19 is_stmt 0 view .LVU996
 2940 0012 90F800C0 		ldrb	ip, [r0]	@ zero_extendqisi2
 2941 0016 0CF01F0C 		and	ip, ip, #31
 565:lvgl/src/widgets/lv_canvas.c ****         LV_LOG_WARN("lv_canvas_draw_text: can't draw to LV_IMG_CF_INDEXED canvas");
 2942              		.loc 1 565 49 view .LVU997
 2943 001a 0CF1190C 		add	ip, ip, #25
 2944 001e 0CF01F0C 		and	ip, ip, #31
 565:lvgl/src/widgets/lv_canvas.c ****         LV_LOG_WARN("lv_canvas_draw_text: can't draw to LV_IMG_CF_INDEXED canvas");
 2945              		.loc 1 565 7 view .LVU998
 2946 0022 BCF1030F 		cmp	ip, #3
 2947 0026 02D8     		bhi	.L160
 2948              	.LVL316:
 2949              	.L156:
 592:lvgl/src/widgets/lv_canvas.c **** 
 2950              		.loc 1 592 1 view .LVU999
 2951 0028 77B0     		add	sp, sp, #476
 2952              		.cfi_remember_state
 2953              		.cfi_def_cfa_offset 28
 2954              		@ sp needed
 2955 002a BDE8F083 		pop	{r4, r5, r6, r7, r8, r9, pc}
 2956              	.LVL317:
 2957              	.L160:
 2958              		.cfi_restore_state
 592:lvgl/src/widgets/lv_canvas.c **** 
 2959              		.loc 1 592 1 view .LVU1000
 2960 002e 0546     		mov	r5, r0
 572:lvgl/src/widgets/lv_canvas.c ****     lv_disp_drv_t driver;
 2961              		.loc 1 572 5 is_stmt 1 view .LVU1001
 573:lvgl/src/widgets/lv_canvas.c ****     lv_area_t clip_area;
 2962              		.loc 1 573 5 view .LVU1002
ARM GAS  C:\Users\OSD\AppData\Local\Temp\ccwADrda.s 			page 104


 574:lvgl/src/widgets/lv_canvas.c ****     init_fake_disp(canvas, &fake_disp, &driver, &clip_area);
 2963              		.loc 1 574 5 view .LVU1003
 575:lvgl/src/widgets/lv_canvas.c **** 
 2964              		.loc 1 575 5 view .LVU1004
 2965 0030 05AB     		add	r3, sp, #20
 2966 0032 07AA     		add	r2, sp, #28
 2967 0034 1BA9     		add	r1, sp, #108
 2968 0036 3046     		mov	r0, r6
 2969              	.LVL318:
 575:lvgl/src/widgets/lv_canvas.c **** 
 2970              		.loc 1 575 5 is_stmt 0 view .LVU1005
 2971 0038 FFF7FEFF 		bl	init_fake_disp
 2972              	.LVL319:
 577:lvgl/src/widgets/lv_canvas.c ****     _lv_refr_set_disp_refreshing(&fake_disp);
 2973              		.loc 1 577 5 is_stmt 1 view .LVU1006
 577:lvgl/src/widgets/lv_canvas.c ****     _lv_refr_set_disp_refreshing(&fake_disp);
 2974              		.loc 1 577 28 is_stmt 0 view .LVU1007
 2975 003c FFF7FEFF 		bl	_lv_refr_get_disp_refreshing
 2976              	.LVL320:
 2977 0040 8146     		mov	r9, r0
 2978              	.LVL321:
 578:lvgl/src/widgets/lv_canvas.c **** 
 2979              		.loc 1 578 5 is_stmt 1 view .LVU1008
 2980 0042 1BA8     		add	r0, sp, #108
 2981              	.LVL322:
 578:lvgl/src/widgets/lv_canvas.c **** 
 2982              		.loc 1 578 5 is_stmt 0 view .LVU1009
 2983 0044 FFF7FEFF 		bl	_lv_refr_set_disp_refreshing
 2984              	.LVL323:
 580:lvgl/src/widgets/lv_canvas.c ****     coords.x1 = x;
 2985              		.loc 1 580 5 is_stmt 1 view .LVU1010
 581:lvgl/src/widgets/lv_canvas.c ****     coords.y1 = y;
 2986              		.loc 1 581 5 view .LVU1011
 581:lvgl/src/widgets/lv_canvas.c ****     coords.y1 = y;
 2987              		.loc 1 581 15 is_stmt 0 view .LVU1012
 2988 0048 ADF80C40 		strh	r4, [sp, #12]	@ movhi
 582:lvgl/src/widgets/lv_canvas.c ****     coords.x2 = x + max_w - 1;
 2989              		.loc 1 582 5 is_stmt 1 view .LVU1013
 582:lvgl/src/widgets/lv_canvas.c ****     coords.x2 = x + max_w - 1;
 2990              		.loc 1 582 15 is_stmt 0 view .LVU1014
 2991 004c ADF80E80 		strh	r8, [sp, #14]	@ movhi
 583:lvgl/src/widgets/lv_canvas.c ****     coords.y2 = dsc->header.h - 1;
 2992              		.loc 1 583 5 is_stmt 1 view .LVU1015
 583:lvgl/src/widgets/lv_canvas.c ****     coords.y2 = dsc->header.h - 1;
 2993              		.loc 1 583 19 is_stmt 0 view .LVU1016
 2994 0050 3C44     		add	r4, r4, r7
 2995 0052 A4B2     		uxth	r4, r4
 583:lvgl/src/widgets/lv_canvas.c ****     coords.y2 = dsc->header.h - 1;
 2996              		.loc 1 583 27 view .LVU1017
 2997 0054 013C     		subs	r4, r4, #1
 583:lvgl/src/widgets/lv_canvas.c ****     coords.y2 = dsc->header.h - 1;
 2998              		.loc 1 583 15 view .LVU1018
 2999 0056 ADF81040 		strh	r4, [sp, #16]	@ movhi
 584:lvgl/src/widgets/lv_canvas.c ****     lv_draw_label(driver.draw_ctx, draw_dsc, &coords, txt, NULL);
 3000              		.loc 1 584 5 is_stmt 1 view .LVU1019
 584:lvgl/src/widgets/lv_canvas.c ****     lv_draw_label(driver.draw_ctx, draw_dsc, &coords, txt, NULL);
 3001              		.loc 1 584 28 is_stmt 0 view .LVU1020
ARM GAS  C:\Users\OSD\AppData\Local\Temp\ccwADrda.s 			page 105


 3002 005a 6B88     		ldrh	r3, [r5, #2]
 3003 005c C3F34A13 		ubfx	r3, r3, #5, #11
 584:lvgl/src/widgets/lv_canvas.c ****     lv_draw_label(driver.draw_ctx, draw_dsc, &coords, txt, NULL);
 3004              		.loc 1 584 31 view .LVU1021
 3005 0060 013B     		subs	r3, r3, #1
 584:lvgl/src/widgets/lv_canvas.c ****     lv_draw_label(driver.draw_ctx, draw_dsc, &coords, txt, NULL);
 3006              		.loc 1 584 15 view .LVU1022
 3007 0062 ADF81230 		strh	r3, [sp, #18]	@ movhi
 585:lvgl/src/widgets/lv_canvas.c **** 
 3008              		.loc 1 585 5 is_stmt 1 view .LVU1023
 3009 0066 0023     		movs	r3, #0
 3010 0068 0093     		str	r3, [sp]
 3011 006a 7F9B     		ldr	r3, [sp, #508]
 3012 006c 03AA     		add	r2, sp, #12
 3013 006e 7E99     		ldr	r1, [sp, #504]
 3014 0070 1698     		ldr	r0, [sp, #88]
 3015 0072 FFF7FEFF 		bl	lv_draw_label
 3016              	.LVL324:
 587:lvgl/src/widgets/lv_canvas.c **** 
 3017              		.loc 1 587 5 view .LVU1024
 3018 0076 4846     		mov	r0, r9
 3019 0078 FFF7FEFF 		bl	_lv_refr_set_disp_refreshing
 3020              	.LVL325:
 589:lvgl/src/widgets/lv_canvas.c **** 
 3021              		.loc 1 589 5 view .LVU1025
 3022 007c 1BA9     		add	r1, sp, #108
 3023 007e 3046     		mov	r0, r6
 3024 0080 FFF7FEFF 		bl	deinit_fake_disp
 3025              	.LVL326:
 591:lvgl/src/widgets/lv_canvas.c **** }
 3026              		.loc 1 591 5 view .LVU1026
 3027 0084 3046     		mov	r0, r6
 3028 0086 FFF7FEFF 		bl	lv_obj_invalidate
 3029              	.LVL327:
 3030 008a CDE7     		b	.L156
 3031              		.cfi_endproc
 3032              	.LFE175:
 3034              		.section	.text.lv_canvas_draw_img,"ax",%progbits
 3035              		.align	1
 3036              		.global	lv_canvas_draw_img
 3037              		.syntax unified
 3038              		.thumb
 3039              		.thumb_func
 3041              	lv_canvas_draw_img:
 3042              	.LVL328:
 3043              	.LFB176:
 596:lvgl/src/widgets/lv_canvas.c ****     LV_ASSERT_OBJ(canvas, MY_CLASS);
 3044              		.loc 1 596 1 view -0
 3045              		.cfi_startproc
 3046              		@ args = 4, pretend = 0, frame = 464
 3047              		@ frame_needed = 0, uses_anonymous_args = 0
 596:lvgl/src/widgets/lv_canvas.c ****     LV_ASSERT_OBJ(canvas, MY_CLASS);
 3048              		.loc 1 596 1 is_stmt 0 view .LVU1028
 3049 0000 2DE9F041 		push	{r4, r5, r6, r7, r8, lr}
 3050              		.cfi_def_cfa_offset 24
 3051              		.cfi_offset 4, -24
 3052              		.cfi_offset 5, -20
ARM GAS  C:\Users\OSD\AppData\Local\Temp\ccwADrda.s 			page 106


 3053              		.cfi_offset 6, -16
 3054              		.cfi_offset 7, -12
 3055              		.cfi_offset 8, -8
 3056              		.cfi_offset 14, -4
 3057 0004 F4B0     		sub	sp, sp, #464
 3058              		.cfi_def_cfa_offset 488
 3059 0006 0546     		mov	r5, r0
 3060 0008 0F46     		mov	r7, r1
 3061 000a 1646     		mov	r6, r2
 3062 000c 1C46     		mov	r4, r3
 597:lvgl/src/widgets/lv_canvas.c **** 
 3063              		.loc 1 597 5 is_stmt 1 view .LVU1029
 597:lvgl/src/widgets/lv_canvas.c **** 
 3064              		.loc 1 597 5 view .LVU1030
 597:lvgl/src/widgets/lv_canvas.c **** 
 3065              		.loc 1 597 5 view .LVU1031
 599:lvgl/src/widgets/lv_canvas.c **** 
 3066              		.loc 1 599 5 view .LVU1032
 599:lvgl/src/widgets/lv_canvas.c **** 
 3067              		.loc 1 599 26 is_stmt 0 view .LVU1033
 3068 000e FFF7FEFF 		bl	lv_canvas_get_img
 3069              	.LVL329:
 601:lvgl/src/widgets/lv_canvas.c ****         LV_LOG_WARN("lv_canvas_draw_img: can't draw to LV_IMG_CF_INDEXED canvas");
 3070              		.loc 1 601 5 is_stmt 1 view .LVU1034
 601:lvgl/src/widgets/lv_canvas.c ****         LV_LOG_WARN("lv_canvas_draw_img: can't draw to LV_IMG_CF_INDEXED canvas");
 3071              		.loc 1 601 19 is_stmt 0 view .LVU1035
 3072 0012 90F800C0 		ldrb	ip, [r0]	@ zero_extendqisi2
 3073 0016 0CF01F0C 		and	ip, ip, #31
 601:lvgl/src/widgets/lv_canvas.c ****         LV_LOG_WARN("lv_canvas_draw_img: can't draw to LV_IMG_CF_INDEXED canvas");
 3074              		.loc 1 601 49 view .LVU1036
 3075 001a 0CF1190C 		add	ip, ip, #25
 3076 001e 0CF01F0C 		and	ip, ip, #31
 601:lvgl/src/widgets/lv_canvas.c ****         LV_LOG_WARN("lv_canvas_draw_img: can't draw to LV_IMG_CF_INDEXED canvas");
 3077              		.loc 1 601 7 view .LVU1037
 3078 0022 BCF1030F 		cmp	ip, #3
 3079 0026 02D8     		bhi	.L165
 3080              	.LVL330:
 3081              	.L161:
 635:lvgl/src/widgets/lv_canvas.c **** 
 3082              		.loc 1 635 1 view .LVU1038
 3083 0028 74B0     		add	sp, sp, #464
 3084              		.cfi_remember_state
 3085              		.cfi_def_cfa_offset 24
 3086              		@ sp needed
 3087 002a BDE8F081 		pop	{r4, r5, r6, r7, r8, pc}
 3088              	.LVL331:
 3089              	.L165:
 3090              		.cfi_restore_state
 606:lvgl/src/widgets/lv_canvas.c ****     lv_res_t res = lv_img_decoder_get_info(src, &header);
 3091              		.loc 1 606 5 is_stmt 1 view .LVU1039
 607:lvgl/src/widgets/lv_canvas.c ****     if(res != LV_RES_OK) {
 3092              		.loc 1 607 5 view .LVU1040
 607:lvgl/src/widgets/lv_canvas.c ****     if(res != LV_RES_OK) {
 3093              		.loc 1 607 20 is_stmt 0 view .LVU1041
 3094 002e 73A9     		add	r1, sp, #460
 3095 0030 2046     		mov	r0, r4
 3096              	.LVL332:
ARM GAS  C:\Users\OSD\AppData\Local\Temp\ccwADrda.s 			page 107


 607:lvgl/src/widgets/lv_canvas.c ****     if(res != LV_RES_OK) {
 3097              		.loc 1 607 20 view .LVU1042
 3098 0032 FFF7FEFF 		bl	lv_img_decoder_get_info
 3099              	.LVL333:
 608:lvgl/src/widgets/lv_canvas.c ****         LV_LOG_WARN("lv_canvas_draw_img: Couldn't get the image data.");
 3100              		.loc 1 608 5 is_stmt 1 view .LVU1043
 608:lvgl/src/widgets/lv_canvas.c ****         LV_LOG_WARN("lv_canvas_draw_img: Couldn't get the image data.");
 3101              		.loc 1 608 7 is_stmt 0 view .LVU1044
 3102 0036 0128     		cmp	r0, #1
 3103 0038 F6D1     		bne	.L161
 614:lvgl/src/widgets/lv_canvas.c ****     lv_disp_drv_t driver;
 3104              		.loc 1 614 5 is_stmt 1 view .LVU1045
 615:lvgl/src/widgets/lv_canvas.c ****     lv_area_t clip_area;
 3105              		.loc 1 615 5 view .LVU1046
 616:lvgl/src/widgets/lv_canvas.c ****     init_fake_disp(canvas, &fake_disp, &driver, &clip_area);
 3106              		.loc 1 616 5 view .LVU1047
 617:lvgl/src/widgets/lv_canvas.c **** 
 3107              		.loc 1 617 5 view .LVU1048
 3108 003a 02AB     		add	r3, sp, #8
 3109 003c 04AA     		add	r2, sp, #16
 3110 003e 18A9     		add	r1, sp, #96
 3111 0040 2846     		mov	r0, r5
 3112              	.LVL334:
 617:lvgl/src/widgets/lv_canvas.c **** 
 3113              		.loc 1 617 5 is_stmt 0 view .LVU1049
 3114 0042 FFF7FEFF 		bl	init_fake_disp
 3115              	.LVL335:
 619:lvgl/src/widgets/lv_canvas.c ****     _lv_refr_set_disp_refreshing(&fake_disp);
 3116              		.loc 1 619 5 is_stmt 1 view .LVU1050
 619:lvgl/src/widgets/lv_canvas.c ****     _lv_refr_set_disp_refreshing(&fake_disp);
 3117              		.loc 1 619 28 is_stmt 0 view .LVU1051
 3118 0046 FFF7FEFF 		bl	_lv_refr_get_disp_refreshing
 3119              	.LVL336:
 3120 004a 8046     		mov	r8, r0
 3121              	.LVL337:
 620:lvgl/src/widgets/lv_canvas.c **** 
 3122              		.loc 1 620 5 is_stmt 1 view .LVU1052
 3123 004c 18A8     		add	r0, sp, #96
 3124              	.LVL338:
 620:lvgl/src/widgets/lv_canvas.c **** 
 3125              		.loc 1 620 5 is_stmt 0 view .LVU1053
 3126 004e FFF7FEFF 		bl	_lv_refr_set_disp_refreshing
 3127              	.LVL339:
 622:lvgl/src/widgets/lv_canvas.c ****     coords.x1 = x;
 3128              		.loc 1 622 5 is_stmt 1 view .LVU1054
 623:lvgl/src/widgets/lv_canvas.c ****     coords.y1 = y;
 3129              		.loc 1 623 5 view .LVU1055
 623:lvgl/src/widgets/lv_canvas.c ****     coords.y1 = y;
 3130              		.loc 1 623 15 is_stmt 0 view .LVU1056
 3131 0052 ADF80070 		strh	r7, [sp]	@ movhi
 624:lvgl/src/widgets/lv_canvas.c ****     coords.x2 = x + header.w - 1;
 3132              		.loc 1 624 5 is_stmt 1 view .LVU1057
 624:lvgl/src/widgets/lv_canvas.c ****     coords.x2 = x + header.w - 1;
 3133              		.loc 1 624 15 is_stmt 0 view .LVU1058
 3134 0056 ADF80260 		strh	r6, [sp, #2]	@ movhi
 625:lvgl/src/widgets/lv_canvas.c ****     coords.y2 = y + header.h - 1;
 3135              		.loc 1 625 5 is_stmt 1 view .LVU1059
ARM GAS  C:\Users\OSD\AppData\Local\Temp\ccwADrda.s 			page 108


 625:lvgl/src/widgets/lv_canvas.c ****     coords.y2 = y + header.h - 1;
 3136              		.loc 1 625 27 is_stmt 0 view .LVU1060
 3137 005a 739B     		ldr	r3, [sp, #460]
 3138 005c C3F38A23 		ubfx	r3, r3, #10, #11
 625:lvgl/src/widgets/lv_canvas.c ****     coords.y2 = y + header.h - 1;
 3139              		.loc 1 625 19 view .LVU1061
 3140 0060 1F44     		add	r7, r7, r3
 3141 0062 BFB2     		uxth	r7, r7
 625:lvgl/src/widgets/lv_canvas.c ****     coords.y2 = y + header.h - 1;
 3142              		.loc 1 625 30 view .LVU1062
 3143 0064 013F     		subs	r7, r7, #1
 625:lvgl/src/widgets/lv_canvas.c ****     coords.y2 = y + header.h - 1;
 3144              		.loc 1 625 15 view .LVU1063
 3145 0066 ADF80470 		strh	r7, [sp, #4]	@ movhi
 626:lvgl/src/widgets/lv_canvas.c **** 
 3146              		.loc 1 626 5 is_stmt 1 view .LVU1064
 626:lvgl/src/widgets/lv_canvas.c **** 
 3147              		.loc 1 626 27 is_stmt 0 view .LVU1065
 3148 006a BDF8CE21 		ldrh	r2, [sp, #462]
 3149 006e C2F34A12 		ubfx	r2, r2, #5, #11
 626:lvgl/src/widgets/lv_canvas.c **** 
 3150              		.loc 1 626 19 view .LVU1066
 3151 0072 1644     		add	r6, r6, r2
 3152 0074 B6B2     		uxth	r6, r6
 626:lvgl/src/widgets/lv_canvas.c **** 
 3153              		.loc 1 626 30 view .LVU1067
 3154 0076 013E     		subs	r6, r6, #1
 626:lvgl/src/widgets/lv_canvas.c **** 
 3155              		.loc 1 626 15 view .LVU1068
 3156 0078 ADF80660 		strh	r6, [sp, #6]	@ movhi
 628:lvgl/src/widgets/lv_canvas.c **** 
 3157              		.loc 1 628 5 is_stmt 1 view .LVU1069
 3158 007c 2346     		mov	r3, r4
 3159 007e 6A46     		mov	r2, sp
 3160 0080 7A99     		ldr	r1, [sp, #488]
 3161 0082 1398     		ldr	r0, [sp, #76]
 3162 0084 FFF7FEFF 		bl	lv_draw_img
 3163              	.LVL340:
 630:lvgl/src/widgets/lv_canvas.c **** 
 3164              		.loc 1 630 5 view .LVU1070
 3165 0088 4046     		mov	r0, r8
 3166 008a FFF7FEFF 		bl	_lv_refr_set_disp_refreshing
 3167              	.LVL341:
 632:lvgl/src/widgets/lv_canvas.c **** 
 3168              		.loc 1 632 5 view .LVU1071
 3169 008e 18A9     		add	r1, sp, #96
 3170 0090 2846     		mov	r0, r5
 3171 0092 FFF7FEFF 		bl	deinit_fake_disp
 3172              	.LVL342:
 634:lvgl/src/widgets/lv_canvas.c **** }
 3173              		.loc 1 634 5 view .LVU1072
 3174 0096 2846     		mov	r0, r5
 3175 0098 FFF7FEFF 		bl	lv_obj_invalidate
 3176              	.LVL343:
 3177 009c C4E7     		b	.L161
 3178              		.cfi_endproc
 3179              	.LFE176:
ARM GAS  C:\Users\OSD\AppData\Local\Temp\ccwADrda.s 			page 109


 3181              		.section	.text.lv_canvas_draw_line,"ax",%progbits
 3182              		.align	1
 3183              		.global	lv_canvas_draw_line
 3184              		.syntax unified
 3185              		.thumb
 3186              		.thumb_func
 3188              	lv_canvas_draw_line:
 3189              	.LVL344:
 3190              	.LFB177:
 639:lvgl/src/widgets/lv_canvas.c ****     LV_ASSERT_OBJ(canvas, MY_CLASS);
 3191              		.loc 1 639 1 view -0
 3192              		.cfi_startproc
 3193              		@ args = 0, pretend = 0, frame = 456
 3194              		@ frame_needed = 0, uses_anonymous_args = 0
 639:lvgl/src/widgets/lv_canvas.c ****     LV_ASSERT_OBJ(canvas, MY_CLASS);
 3195              		.loc 1 639 1 is_stmt 0 view .LVU1074
 3196 0000 2DE9F047 		push	{r4, r5, r6, r7, r8, r9, r10, lr}
 3197              		.cfi_def_cfa_offset 32
 3198              		.cfi_offset 4, -32
 3199              		.cfi_offset 5, -28
 3200              		.cfi_offset 6, -24
 3201              		.cfi_offset 7, -20
 3202              		.cfi_offset 8, -16
 3203              		.cfi_offset 9, -12
 3204              		.cfi_offset 10, -8
 3205              		.cfi_offset 14, -4
 3206 0004 F2B0     		sub	sp, sp, #456
 3207              		.cfi_def_cfa_offset 488
 3208 0006 8046     		mov	r8, r0
 3209 0008 0D46     		mov	r5, r1
 3210 000a 1646     		mov	r6, r2
 3211 000c 1F46     		mov	r7, r3
 640:lvgl/src/widgets/lv_canvas.c **** 
 3212              		.loc 1 640 5 is_stmt 1 view .LVU1075
 640:lvgl/src/widgets/lv_canvas.c **** 
 3213              		.loc 1 640 5 view .LVU1076
 640:lvgl/src/widgets/lv_canvas.c **** 
 3214              		.loc 1 640 5 view .LVU1077
 642:lvgl/src/widgets/lv_canvas.c **** 
 3215              		.loc 1 642 5 view .LVU1078
 642:lvgl/src/widgets/lv_canvas.c **** 
 3216              		.loc 1 642 26 is_stmt 0 view .LVU1079
 3217 000e FFF7FEFF 		bl	lv_canvas_get_img
 3218              	.LVL345:
 644:lvgl/src/widgets/lv_canvas.c ****         LV_LOG_WARN("lv_canvas_draw_line: can't draw to LV_IMG_CF_INDEXED canvas");
 3219              		.loc 1 644 5 is_stmt 1 view .LVU1080
 644:lvgl/src/widgets/lv_canvas.c ****         LV_LOG_WARN("lv_canvas_draw_line: can't draw to LV_IMG_CF_INDEXED canvas");
 3220              		.loc 1 644 19 is_stmt 0 view .LVU1081
 3221 0012 0478     		ldrb	r4, [r0]	@ zero_extendqisi2
 3222 0014 04F01F04 		and	r4, r4, #31
 644:lvgl/src/widgets/lv_canvas.c ****         LV_LOG_WARN("lv_canvas_draw_line: can't draw to LV_IMG_CF_INDEXED canvas");
 3223              		.loc 1 644 49 view .LVU1082
 3224 0018 1934     		adds	r4, r4, #25
 3225 001a 04F01F04 		and	r4, r4, #31
 644:lvgl/src/widgets/lv_canvas.c ****         LV_LOG_WARN("lv_canvas_draw_line: can't draw to LV_IMG_CF_INDEXED canvas");
 3226              		.loc 1 644 7 view .LVU1083
 3227 001e 032C     		cmp	r4, #3
ARM GAS  C:\Users\OSD\AppData\Local\Temp\ccwADrda.s 			page 110


 3228 0020 02D8     		bhi	.L173
 3229              	.LVL346:
 3230              	.L166:
 676:lvgl/src/widgets/lv_canvas.c **** 
 3231              		.loc 1 676 1 view .LVU1084
 3232 0022 72B0     		add	sp, sp, #456
 3233              		.cfi_remember_state
 3234              		.cfi_def_cfa_offset 32
 3235              		@ sp needed
 3236 0024 BDE8F087 		pop	{r4, r5, r6, r7, r8, r9, r10, pc}
 3237              	.LVL347:
 3238              	.L173:
 3239              		.cfi_restore_state
 676:lvgl/src/widgets/lv_canvas.c **** 
 3240              		.loc 1 676 1 view .LVU1085
 3241 0028 8146     		mov	r9, r0
 651:lvgl/src/widgets/lv_canvas.c ****     lv_disp_drv_t driver;
 3242              		.loc 1 651 5 is_stmt 1 view .LVU1086
 652:lvgl/src/widgets/lv_canvas.c ****     lv_area_t clip_area;
 3243              		.loc 1 652 5 view .LVU1087
 653:lvgl/src/widgets/lv_canvas.c ****     init_fake_disp(canvas, &fake_disp, &driver, &clip_area);
 3244              		.loc 1 653 5 view .LVU1088
 654:lvgl/src/widgets/lv_canvas.c **** 
 3245              		.loc 1 654 5 view .LVU1089
 3246 002a 01AB     		add	r3, sp, #4
 3247 002c 03AA     		add	r2, sp, #12
 3248 002e 17A9     		add	r1, sp, #92
 3249 0030 4046     		mov	r0, r8
 3250              	.LVL348:
 654:lvgl/src/widgets/lv_canvas.c **** 
 3251              		.loc 1 654 5 is_stmt 0 view .LVU1090
 3252 0032 FFF7FEFF 		bl	init_fake_disp
 3253              	.LVL349:
 656:lvgl/src/widgets/lv_canvas.c ****     _lv_refr_set_disp_refreshing(&fake_disp);
 3254              		.loc 1 656 5 is_stmt 1 view .LVU1091
 656:lvgl/src/widgets/lv_canvas.c ****     _lv_refr_set_disp_refreshing(&fake_disp);
 3255              		.loc 1 656 28 is_stmt 0 view .LVU1092
 3256 0036 FFF7FEFF 		bl	_lv_refr_get_disp_refreshing
 3257              	.LVL350:
 3258 003a 8246     		mov	r10, r0
 3259              	.LVL351:
 657:lvgl/src/widgets/lv_canvas.c **** 
 3260              		.loc 1 657 5 is_stmt 1 view .LVU1093
 3261 003c 17A8     		add	r0, sp, #92
 3262              	.LVL352:
 657:lvgl/src/widgets/lv_canvas.c **** 
 3263              		.loc 1 657 5 is_stmt 0 view .LVU1094
 3264 003e FFF7FEFF 		bl	_lv_refr_set_disp_refreshing
 3265              	.LVL353:
 660:lvgl/src/widgets/lv_canvas.c ****     if(dsc->header.cf == LV_IMG_CF_TRUE_COLOR_CHROMA_KEYED &&
 3266              		.loc 1 660 5 is_stmt 1 view .LVU1095
 3267              	.LBB53:
 3268              	.LBI53:
 599:lvgl/src/widgets/../core/../misc/lv_color.h **** {
 3269              		.loc 4 599 26 view .LVU1096
 3270              	.LBB54:
 625:lvgl/src/widgets/../core/../misc/lv_color.h ****     r.full = c | 0xFF000000;
ARM GAS  C:\Users\OSD\AppData\Local\Temp\ccwADrda.s 			page 111


 3271              		.loc 4 625 5 view .LVU1097
 626:lvgl/src/widgets/../core/../misc/lv_color.h ****     return r;
 3272              		.loc 4 626 5 view .LVU1098
 627:lvgl/src/widgets/../core/../misc/lv_color.h **** #else /*LV_COLOR_DEPTH == 8*/
 3273              		.loc 4 627 5 view .LVU1099
 627:lvgl/src/widgets/../core/../misc/lv_color.h **** #else /*LV_COLOR_DEPTH == 8*/
 3274              		.loc 4 627 5 is_stmt 0 view .LVU1100
 3275              	.LBE54:
 3276              	.LBE53:
 661:lvgl/src/widgets/lv_canvas.c ****        draw_dsc->color.full == ctransp.full) {
 3277              		.loc 1 661 5 is_stmt 1 view .LVU1101
 661:lvgl/src/widgets/lv_canvas.c ****        draw_dsc->color.full == ctransp.full) {
 3278              		.loc 1 661 23 is_stmt 0 view .LVU1102
 3279 0042 99F80030 		ldrb	r3, [r9]	@ zero_extendqisi2
 3280 0046 03F01F03 		and	r3, r3, #31
 661:lvgl/src/widgets/lv_canvas.c ****        draw_dsc->color.full == ctransp.full) {
 3281              		.loc 1 661 7 view .LVU1103
 3282 004a 062B     		cmp	r3, #6
 3283 004c 01D0     		beq	.L174
 3284              	.L169:
 639:lvgl/src/widgets/lv_canvas.c ****     LV_ASSERT_OBJ(canvas, MY_CLASS);
 3285              		.loc 1 639 1 discriminator 1 view .LVU1104
 3286 004e 0024     		movs	r4, #0
 3287 0050 12E0     		b	.L170
 3288              	.L174:
 662:lvgl/src/widgets/lv_canvas.c ****         fake_disp.driver->antialiasing = 0;
 3289              		.loc 1 662 23 discriminator 1 view .LVU1105
 3290 0052 3B68     		ldr	r3, [r7]
 661:lvgl/src/widgets/lv_canvas.c ****        draw_dsc->color.full == ctransp.full) {
 3291              		.loc 1 661 60 discriminator 1 view .LVU1106
 3292 0054 B3F1FF2F 		cmp	r3, #-16711936
 3293 0058 F9D1     		bne	.L169
 663:lvgl/src/widgets/lv_canvas.c ****     }
 3294              		.loc 1 663 9 is_stmt 1 view .LVU1107
 663:lvgl/src/widgets/lv_canvas.c ****     }
 3295              		.loc 1 663 18 is_stmt 0 view .LVU1108
 3296 005a 179B     		ldr	r3, [sp, #92]
 663:lvgl/src/widgets/lv_canvas.c ****     }
 3297              		.loc 1 663 40 view .LVU1109
 3298 005c 1A7C     		ldrb	r2, [r3, #16]	@ zero_extendqisi2
 3299 005e 6FF3C302 		bfc	r2, #3, #1
 3300 0062 1A74     		strb	r2, [r3, #16]
 3301 0064 F3E7     		b	.L169
 3302              	.LVL354:
 3303              	.L171:
 668:lvgl/src/widgets/lv_canvas.c ****     }
 3304              		.loc 1 668 9 is_stmt 1 discriminator 3 view .LVU1110
 668:lvgl/src/widgets/lv_canvas.c ****     }
 3305              		.loc 1 668 56 is_stmt 0 discriminator 3 view .LVU1111
 3306 0066 A200     		lsls	r2, r4, #2
 668:lvgl/src/widgets/lv_canvas.c ****     }
 3307              		.loc 1 668 68 discriminator 3 view .LVU1112
 3308 0068 0134     		adds	r4, r4, #1
 3309              	.LVL355:
 668:lvgl/src/widgets/lv_canvas.c ****     }
 3310              		.loc 1 668 9 discriminator 3 view .LVU1113
 3311 006a 05EB8403 		add	r3, r5, r4, lsl #2
ARM GAS  C:\Users\OSD\AppData\Local\Temp\ccwADrda.s 			page 112


 3312 006e 2A44     		add	r2, r2, r5
 3313 0070 3946     		mov	r1, r7
 3314 0072 1298     		ldr	r0, [sp, #72]
 3315 0074 FFF7FEFF 		bl	lv_draw_line
 3316              	.LVL356:
 667:lvgl/src/widgets/lv_canvas.c ****         lv_draw_line(driver.draw_ctx, draw_dsc, &points[i], &points[i + 1]);
 3317              		.loc 1 667 35 is_stmt 1 discriminator 3 view .LVU1114
 3318              	.L170:
 667:lvgl/src/widgets/lv_canvas.c ****         lv_draw_line(driver.draw_ctx, draw_dsc, &points[i], &points[i + 1]);
 3319              		.loc 1 667 16 discriminator 1 view .LVU1115
 667:lvgl/src/widgets/lv_canvas.c ****         lv_draw_line(driver.draw_ctx, draw_dsc, &points[i], &points[i + 1]);
 3320              		.loc 1 667 30 is_stmt 0 discriminator 1 view .LVU1116
 3321 0078 06F1FF3C 		add	ip, r6, #-1
 667:lvgl/src/widgets/lv_canvas.c ****         lv_draw_line(driver.draw_ctx, draw_dsc, &points[i], &points[i + 1]);
 3322              		.loc 1 667 5 discriminator 1 view .LVU1117
 3323 007c A445     		cmp	ip, r4
 3324 007e F2D8     		bhi	.L171
 671:lvgl/src/widgets/lv_canvas.c **** 
 3325              		.loc 1 671 5 is_stmt 1 view .LVU1118
 3326 0080 5046     		mov	r0, r10
 3327 0082 FFF7FEFF 		bl	_lv_refr_set_disp_refreshing
 3328              	.LVL357:
 673:lvgl/src/widgets/lv_canvas.c **** 
 3329              		.loc 1 673 5 view .LVU1119
 3330 0086 17A9     		add	r1, sp, #92
 3331 0088 4046     		mov	r0, r8
 3332 008a FFF7FEFF 		bl	deinit_fake_disp
 3333              	.LVL358:
 675:lvgl/src/widgets/lv_canvas.c **** }
 3334              		.loc 1 675 5 view .LVU1120
 3335 008e 4046     		mov	r0, r8
 3336 0090 FFF7FEFF 		bl	lv_obj_invalidate
 3337              	.LVL359:
 3338 0094 C5E7     		b	.L166
 3339              		.cfi_endproc
 3340              	.LFE177:
 3342              		.section	.text.lv_canvas_draw_polygon,"ax",%progbits
 3343              		.align	1
 3344              		.global	lv_canvas_draw_polygon
 3345              		.syntax unified
 3346              		.thumb
 3347              		.thumb_func
 3349              	lv_canvas_draw_polygon:
 3350              	.LVL360:
 3351              	.LFB178:
 680:lvgl/src/widgets/lv_canvas.c ****     LV_ASSERT_OBJ(canvas, MY_CLASS);
 3352              		.loc 1 680 1 view -0
 3353              		.cfi_startproc
 3354              		@ args = 0, pretend = 0, frame = 456
 3355              		@ frame_needed = 0, uses_anonymous_args = 0
 680:lvgl/src/widgets/lv_canvas.c ****     LV_ASSERT_OBJ(canvas, MY_CLASS);
 3356              		.loc 1 680 1 is_stmt 0 view .LVU1122
 3357 0000 2DE9F043 		push	{r4, r5, r6, r7, r8, r9, lr}
 3358              		.cfi_def_cfa_offset 28
 3359              		.cfi_offset 4, -28
 3360              		.cfi_offset 5, -24
 3361              		.cfi_offset 6, -20
ARM GAS  C:\Users\OSD\AppData\Local\Temp\ccwADrda.s 			page 113


 3362              		.cfi_offset 7, -16
 3363              		.cfi_offset 8, -12
 3364              		.cfi_offset 9, -8
 3365              		.cfi_offset 14, -4
 3366 0004 F3B0     		sub	sp, sp, #460
 3367              		.cfi_def_cfa_offset 488
 3368 0006 0546     		mov	r5, r0
 3369 0008 0F46     		mov	r7, r1
 3370 000a 9046     		mov	r8, r2
 3371 000c 1E46     		mov	r6, r3
 681:lvgl/src/widgets/lv_canvas.c **** 
 3372              		.loc 1 681 5 is_stmt 1 view .LVU1123
 681:lvgl/src/widgets/lv_canvas.c **** 
 3373              		.loc 1 681 5 view .LVU1124
 681:lvgl/src/widgets/lv_canvas.c **** 
 3374              		.loc 1 681 5 view .LVU1125
 683:lvgl/src/widgets/lv_canvas.c **** 
 3375              		.loc 1 683 5 view .LVU1126
 683:lvgl/src/widgets/lv_canvas.c **** 
 3376              		.loc 1 683 26 is_stmt 0 view .LVU1127
 3377 000e FFF7FEFF 		bl	lv_canvas_get_img
 3378              	.LVL361:
 685:lvgl/src/widgets/lv_canvas.c ****         LV_LOG_WARN("lv_canvas_draw_polygon: can't draw to LV_IMG_CF_INDEXED canvas");
 3379              		.loc 1 685 5 is_stmt 1 view .LVU1128
 685:lvgl/src/widgets/lv_canvas.c ****         LV_LOG_WARN("lv_canvas_draw_polygon: can't draw to LV_IMG_CF_INDEXED canvas");
 3380              		.loc 1 685 19 is_stmt 0 view .LVU1129
 3381 0012 90F800C0 		ldrb	ip, [r0]	@ zero_extendqisi2
 3382 0016 0CF01F0C 		and	ip, ip, #31
 685:lvgl/src/widgets/lv_canvas.c ****         LV_LOG_WARN("lv_canvas_draw_polygon: can't draw to LV_IMG_CF_INDEXED canvas");
 3383              		.loc 1 685 49 view .LVU1130
 3384 001a 0CF1190C 		add	ip, ip, #25
 3385 001e 0CF01F0C 		and	ip, ip, #31
 685:lvgl/src/widgets/lv_canvas.c ****         LV_LOG_WARN("lv_canvas_draw_polygon: can't draw to LV_IMG_CF_INDEXED canvas");
 3386              		.loc 1 685 7 view .LVU1131
 3387 0022 BCF1030F 		cmp	ip, #3
 3388 0026 02D8     		bhi	.L180
 3389              	.LVL362:
 3390              	.L175:
 714:lvgl/src/widgets/lv_canvas.c **** 
 3391              		.loc 1 714 1 view .LVU1132
 3392 0028 73B0     		add	sp, sp, #460
 3393              		.cfi_remember_state
 3394              		.cfi_def_cfa_offset 28
 3395              		@ sp needed
 3396 002a BDE8F083 		pop	{r4, r5, r6, r7, r8, r9, pc}
 3397              	.LVL363:
 3398              	.L180:
 3399              		.cfi_restore_state
 714:lvgl/src/widgets/lv_canvas.c **** 
 3400              		.loc 1 714 1 view .LVU1133
 3401 002e 0446     		mov	r4, r0
 692:lvgl/src/widgets/lv_canvas.c ****     lv_disp_drv_t driver;
 3402              		.loc 1 692 5 is_stmt 1 view .LVU1134
 693:lvgl/src/widgets/lv_canvas.c ****     lv_area_t clip_area;
 3403              		.loc 1 693 5 view .LVU1135
 694:lvgl/src/widgets/lv_canvas.c ****     init_fake_disp(canvas, &fake_disp, &driver, &clip_area);
 3404              		.loc 1 694 5 view .LVU1136
ARM GAS  C:\Users\OSD\AppData\Local\Temp\ccwADrda.s 			page 114


 695:lvgl/src/widgets/lv_canvas.c **** 
 3405              		.loc 1 695 5 view .LVU1137
 3406 0030 01AB     		add	r3, sp, #4
 3407 0032 03AA     		add	r2, sp, #12
 3408 0034 17A9     		add	r1, sp, #92
 3409 0036 2846     		mov	r0, r5
 3410              	.LVL364:
 695:lvgl/src/widgets/lv_canvas.c **** 
 3411              		.loc 1 695 5 is_stmt 0 view .LVU1138
 3412 0038 FFF7FEFF 		bl	init_fake_disp
 3413              	.LVL365:
 697:lvgl/src/widgets/lv_canvas.c ****     _lv_refr_set_disp_refreshing(&fake_disp);
 3414              		.loc 1 697 5 is_stmt 1 view .LVU1139
 697:lvgl/src/widgets/lv_canvas.c ****     _lv_refr_set_disp_refreshing(&fake_disp);
 3415              		.loc 1 697 28 is_stmt 0 view .LVU1140
 3416 003c FFF7FEFF 		bl	_lv_refr_get_disp_refreshing
 3417              	.LVL366:
 3418 0040 8146     		mov	r9, r0
 3419              	.LVL367:
 698:lvgl/src/widgets/lv_canvas.c **** 
 3420              		.loc 1 698 5 is_stmt 1 view .LVU1141
 3421 0042 17A8     		add	r0, sp, #92
 3422              	.LVL368:
 698:lvgl/src/widgets/lv_canvas.c **** 
 3423              		.loc 1 698 5 is_stmt 0 view .LVU1142
 3424 0044 FFF7FEFF 		bl	_lv_refr_set_disp_refreshing
 3425              	.LVL369:
 701:lvgl/src/widgets/lv_canvas.c ****     if(dsc->header.cf == LV_IMG_CF_TRUE_COLOR_CHROMA_KEYED &&
 3426              		.loc 1 701 5 is_stmt 1 view .LVU1143
 3427              	.LBB55:
 3428              	.LBI55:
 599:lvgl/src/widgets/../core/../misc/lv_color.h **** {
 3429              		.loc 4 599 26 view .LVU1144
 3430              	.LBB56:
 625:lvgl/src/widgets/../core/../misc/lv_color.h ****     r.full = c | 0xFF000000;
 3431              		.loc 4 625 5 view .LVU1145
 626:lvgl/src/widgets/../core/../misc/lv_color.h ****     return r;
 3432              		.loc 4 626 5 view .LVU1146
 627:lvgl/src/widgets/../core/../misc/lv_color.h **** #else /*LV_COLOR_DEPTH == 8*/
 3433              		.loc 4 627 5 view .LVU1147
 627:lvgl/src/widgets/../core/../misc/lv_color.h **** #else /*LV_COLOR_DEPTH == 8*/
 3434              		.loc 4 627 5 is_stmt 0 view .LVU1148
 3435              	.LBE56:
 3436              	.LBE55:
 702:lvgl/src/widgets/lv_canvas.c ****        draw_dsc->bg_color.full == ctransp.full) {
 3437              		.loc 1 702 5 is_stmt 1 view .LVU1149
 702:lvgl/src/widgets/lv_canvas.c ****        draw_dsc->bg_color.full == ctransp.full) {
 3438              		.loc 1 702 23 is_stmt 0 view .LVU1150
 3439 0048 2378     		ldrb	r3, [r4]	@ zero_extendqisi2
 3440 004a 03F01F03 		and	r3, r3, #31
 702:lvgl/src/widgets/lv_canvas.c ****        draw_dsc->bg_color.full == ctransp.full) {
 3441              		.loc 1 702 7 view .LVU1151
 3442 004e 062B     		cmp	r3, #6
 3443 0050 11D0     		beq	.L181
 3444              	.L178:
 707:lvgl/src/widgets/lv_canvas.c **** 
 3445              		.loc 1 707 5 is_stmt 1 view .LVU1152
ARM GAS  C:\Users\OSD\AppData\Local\Temp\ccwADrda.s 			page 115


 3446 0052 1FFA88F3 		uxth	r3, r8
 3447 0056 3A46     		mov	r2, r7
 3448 0058 3146     		mov	r1, r6
 3449 005a 1298     		ldr	r0, [sp, #72]
 3450 005c FFF7FEFF 		bl	lv_draw_polygon
 3451              	.LVL370:
 709:lvgl/src/widgets/lv_canvas.c **** 
 3452              		.loc 1 709 5 view .LVU1153
 3453 0060 4846     		mov	r0, r9
 3454 0062 FFF7FEFF 		bl	_lv_refr_set_disp_refreshing
 3455              	.LVL371:
 711:lvgl/src/widgets/lv_canvas.c **** 
 3456              		.loc 1 711 5 view .LVU1154
 3457 0066 17A9     		add	r1, sp, #92
 3458 0068 2846     		mov	r0, r5
 3459 006a FFF7FEFF 		bl	deinit_fake_disp
 3460              	.LVL372:
 713:lvgl/src/widgets/lv_canvas.c **** }
 3461              		.loc 1 713 5 view .LVU1155
 3462 006e 2846     		mov	r0, r5
 3463 0070 FFF7FEFF 		bl	lv_obj_invalidate
 3464              	.LVL373:
 3465 0074 D8E7     		b	.L175
 3466              	.L181:
 703:lvgl/src/widgets/lv_canvas.c ****         fake_disp.driver->antialiasing = 0;
 3467              		.loc 1 703 26 is_stmt 0 discriminator 1 view .LVU1156
 3468 0076 7368     		ldr	r3, [r6, #4]
 702:lvgl/src/widgets/lv_canvas.c ****        draw_dsc->bg_color.full == ctransp.full) {
 3469              		.loc 1 702 60 discriminator 1 view .LVU1157
 3470 0078 B3F1FF2F 		cmp	r3, #-16711936
 3471 007c E9D1     		bne	.L178
 704:lvgl/src/widgets/lv_canvas.c ****     }
 3472              		.loc 1 704 9 is_stmt 1 view .LVU1158
 704:lvgl/src/widgets/lv_canvas.c ****     }
 3473              		.loc 1 704 18 is_stmt 0 view .LVU1159
 3474 007e 179B     		ldr	r3, [sp, #92]
 704:lvgl/src/widgets/lv_canvas.c ****     }
 3475              		.loc 1 704 40 view .LVU1160
 3476 0080 1A7C     		ldrb	r2, [r3, #16]	@ zero_extendqisi2
 3477 0082 6FF3C302 		bfc	r2, #3, #1
 3478 0086 1A74     		strb	r2, [r3, #16]
 3479 0088 E3E7     		b	.L178
 3480              		.cfi_endproc
 3481              	.LFE178:
 3483              		.section	.text.lv_canvas_draw_arc,"ax",%progbits
 3484              		.align	1
 3485              		.global	lv_canvas_draw_arc
 3486              		.syntax unified
 3487              		.thumb
 3488              		.thumb_func
 3490              	lv_canvas_draw_arc:
 3491              	.LVL374:
 3492              	.LFB179:
 718:lvgl/src/widgets/lv_canvas.c **** #if LV_DRAW_COMPLEX
 3493              		.loc 1 718 1 is_stmt 1 view -0
 3494              		.cfi_startproc
 3495              		@ args = 12, pretend = 0, frame = 456
ARM GAS  C:\Users\OSD\AppData\Local\Temp\ccwADrda.s 			page 116


 3496              		@ frame_needed = 0, uses_anonymous_args = 0
 718:lvgl/src/widgets/lv_canvas.c **** #if LV_DRAW_COMPLEX
 3497              		.loc 1 718 1 is_stmt 0 view .LVU1162
 3498 0000 2DE9F041 		push	{r4, r5, r6, r7, r8, lr}
 3499              		.cfi_def_cfa_offset 24
 3500              		.cfi_offset 4, -24
 3501              		.cfi_offset 5, -20
 3502              		.cfi_offset 6, -16
 3503              		.cfi_offset 7, -12
 3504              		.cfi_offset 8, -8
 3505              		.cfi_offset 14, -4
 3506 0004 F4B0     		sub	sp, sp, #464
 3507              		.cfi_def_cfa_offset 488
 3508 0006 0446     		mov	r4, r0
 3509 0008 0F46     		mov	r7, r1
 3510 000a 1646     		mov	r6, r2
 3511 000c 1D46     		mov	r5, r3
 720:lvgl/src/widgets/lv_canvas.c **** 
 3512              		.loc 1 720 5 is_stmt 1 view .LVU1163
 720:lvgl/src/widgets/lv_canvas.c **** 
 3513              		.loc 1 720 5 view .LVU1164
 720:lvgl/src/widgets/lv_canvas.c **** 
 3514              		.loc 1 720 5 view .LVU1165
 722:lvgl/src/widgets/lv_canvas.c **** 
 3515              		.loc 1 722 5 view .LVU1166
 722:lvgl/src/widgets/lv_canvas.c **** 
 3516              		.loc 1 722 26 is_stmt 0 view .LVU1167
 3517 000e FFF7FEFF 		bl	lv_canvas_get_img
 3518              	.LVL375:
 724:lvgl/src/widgets/lv_canvas.c ****         LV_LOG_WARN("lv_canvas_draw_arc: can't draw to LV_IMG_CF_INDEXED canvas");
 3519              		.loc 1 724 5 is_stmt 1 view .LVU1168
 724:lvgl/src/widgets/lv_canvas.c ****         LV_LOG_WARN("lv_canvas_draw_arc: can't draw to LV_IMG_CF_INDEXED canvas");
 3520              		.loc 1 724 19 is_stmt 0 view .LVU1169
 3521 0012 90F800C0 		ldrb	ip, [r0]	@ zero_extendqisi2
 3522 0016 0CF01F0C 		and	ip, ip, #31
 724:lvgl/src/widgets/lv_canvas.c ****         LV_LOG_WARN("lv_canvas_draw_arc: can't draw to LV_IMG_CF_INDEXED canvas");
 3523              		.loc 1 724 49 view .LVU1170
 3524 001a 0CF1190C 		add	ip, ip, #25
 3525 001e 0CF01F0C 		and	ip, ip, #31
 724:lvgl/src/widgets/lv_canvas.c ****         LV_LOG_WARN("lv_canvas_draw_arc: can't draw to LV_IMG_CF_INDEXED canvas");
 3526              		.loc 1 724 7 view .LVU1171
 3527 0022 BCF1030F 		cmp	ip, #3
 3528 0026 02D8     		bhi	.L186
 3529              	.LVL376:
 3530              	.L182:
 757:lvgl/src/widgets/lv_canvas.c **** 
 3531              		.loc 1 757 1 view .LVU1172
 3532 0028 74B0     		add	sp, sp, #464
 3533              		.cfi_remember_state
 3534              		.cfi_def_cfa_offset 24
 3535              		@ sp needed
 3536 002a BDE8F081 		pop	{r4, r5, r6, r7, r8, pc}
 3537              	.LVL377:
 3538              	.L186:
 3539              		.cfi_restore_state
 731:lvgl/src/widgets/lv_canvas.c ****     lv_disp_drv_t driver;
 3540              		.loc 1 731 5 is_stmt 1 view .LVU1173
ARM GAS  C:\Users\OSD\AppData\Local\Temp\ccwADrda.s 			page 117


 732:lvgl/src/widgets/lv_canvas.c ****     lv_area_t clip_area;
 3541              		.loc 1 732 5 view .LVU1174
 733:lvgl/src/widgets/lv_canvas.c ****     init_fake_disp(canvas, &fake_disp, &driver, &clip_area);
 3542              		.loc 1 733 5 view .LVU1175
 734:lvgl/src/widgets/lv_canvas.c **** 
 3543              		.loc 1 734 5 view .LVU1176
 3544 002e 03AB     		add	r3, sp, #12
 3545 0030 05AA     		add	r2, sp, #20
 3546 0032 19A9     		add	r1, sp, #100
 3547 0034 2046     		mov	r0, r4
 3548              	.LVL378:
 734:lvgl/src/widgets/lv_canvas.c **** 
 3549              		.loc 1 734 5 is_stmt 0 view .LVU1177
 3550 0036 FFF7FEFF 		bl	init_fake_disp
 3551              	.LVL379:
 736:lvgl/src/widgets/lv_canvas.c ****     _lv_refr_set_disp_refreshing(&fake_disp);
 3552              		.loc 1 736 5 is_stmt 1 view .LVU1178
 736:lvgl/src/widgets/lv_canvas.c ****     _lv_refr_set_disp_refreshing(&fake_disp);
 3553              		.loc 1 736 28 is_stmt 0 view .LVU1179
 3554 003a FFF7FEFF 		bl	_lv_refr_get_disp_refreshing
 3555              	.LVL380:
 3556 003e 8046     		mov	r8, r0
 3557              	.LVL381:
 737:lvgl/src/widgets/lv_canvas.c **** 
 3558              		.loc 1 737 5 is_stmt 1 view .LVU1180
 3559 0040 19A8     		add	r0, sp, #100
 3560              	.LVL382:
 737:lvgl/src/widgets/lv_canvas.c **** 
 3561              		.loc 1 737 5 is_stmt 0 view .LVU1181
 3562 0042 FFF7FEFF 		bl	_lv_refr_set_disp_refreshing
 3563              	.LVL383:
 739:lvgl/src/widgets/lv_canvas.c ****     lv_draw_arc(driver.draw_ctx, draw_dsc, &p, r,  start_angle, end_angle);
 3564              		.loc 1 739 5 is_stmt 1 view .LVU1182
 739:lvgl/src/widgets/lv_canvas.c ****     lv_draw_arc(driver.draw_ctx, draw_dsc, &p, r,  start_angle, end_angle);
 3565              		.loc 1 739 16 is_stmt 0 view .LVU1183
 3566 0046 ADF80870 		strh	r7, [sp, #8]	@ movhi
 3567 004a ADF80A60 		strh	r6, [sp, #10]	@ movhi
 740:lvgl/src/widgets/lv_canvas.c **** 
 3568              		.loc 1 740 5 is_stmt 1 view .LVU1184
 3569 004e BDF8EC31 		ldrh	r3, [sp, #492]
 3570 0052 0193     		str	r3, [sp, #4]
 3571 0054 BDF8E831 		ldrh	r3, [sp, #488]
 3572 0058 0093     		str	r3, [sp]
 3573 005a ABB2     		uxth	r3, r5
 3574 005c 02AA     		add	r2, sp, #8
 3575 005e 7C99     		ldr	r1, [sp, #496]
 3576 0060 1498     		ldr	r0, [sp, #80]
 3577 0062 FFF7FEFF 		bl	lv_draw_arc
 3578              	.LVL384:
 742:lvgl/src/widgets/lv_canvas.c **** 
 3579              		.loc 1 742 5 view .LVU1185
 3580 0066 4046     		mov	r0, r8
 3581 0068 FFF7FEFF 		bl	_lv_refr_set_disp_refreshing
 3582              	.LVL385:
 744:lvgl/src/widgets/lv_canvas.c **** 
 3583              		.loc 1 744 5 view .LVU1186
 3584 006c 19A9     		add	r1, sp, #100
ARM GAS  C:\Users\OSD\AppData\Local\Temp\ccwADrda.s 			page 118


 3585 006e 2046     		mov	r0, r4
 3586 0070 FFF7FEFF 		bl	deinit_fake_disp
 3587              	.LVL386:
 746:lvgl/src/widgets/lv_canvas.c **** #else
 3588              		.loc 1 746 5 view .LVU1187
 3589 0074 2046     		mov	r0, r4
 3590 0076 FFF7FEFF 		bl	lv_obj_invalidate
 3591              	.LVL387:
 3592 007a D5E7     		b	.L182
 3593              		.cfi_endproc
 3594              	.LFE179:
 3596              		.global	lv_canvas_class
 3597              		.section	.rodata.lv_canvas_class,"a"
 3598              		.align	2
 3599              		.set	.LANCHOR0,. + 0
 3602              	lv_canvas_class:
 3603 0000 00000000 		.word	lv_img_class
 3604 0004 00000000 		.word	lv_canvas_constructor
 3605 0008 00000000 		.word	lv_canvas_destructor
 3606 000c 00000000 		.space	12
 3606      00000000 
 3606      00000000 
 3607 0018 80       		.byte	128
 3608 0019 04       		.byte	4
 3609 001a 00       		.byte	0
 3610 001b 00       		.space	1
 3611              		.text
 3612              	.Letext0:
 3613              		.file 5 "c:\\tools\\gcc-arm-none-eabi\\arm-none-eabi\\include\\machine\\_default_types.h"
 3614              		.file 6 "c:\\tools\\gcc-arm-none-eabi\\arm-none-eabi\\include\\sys\\_stdint.h"
 3615              		.file 7 "c:\\tools\\gcc-arm-none-eabi\\lib\\gcc\\arm-none-eabi\\10.3.1\\include\\stddef.h"
 3616              		.file 8 "d:\\kzc\\stm32\\h743ii_lcd\\lvgl\\src\\font\\lv_font.h"
 3617              		.file 9 "lvgl/src/widgets/../core/../misc/lv_types.h"
 3618              		.file 10 "lvgl/src/widgets/../core/../misc/lv_txt.h"
 3619              		.file 11 "lvgl/src/widgets/../core/../misc/lv_bidi.h"
 3620              		.file 12 "lvgl/src/widgets/../core/../misc/lv_style.h"
 3621              		.file 13 "d:\\kzc\\stm32\\h743ii_lcd\\lvgl\\src\\draw\\lv_img_buf.h"
 3622              		.file 14 "lvgl/src/widgets/../core/lv_obj.h"
 3623              		.file 15 "d:\\kzc\\stm32\\h743ii_lcd\\lvgl\\src\\draw\\lv_draw_rect.h"
 3624              		.file 16 "d:\\kzc\\stm32\\h743ii_lcd\\lvgl\\src\\draw\\lv_draw_label.h"
 3625              		.file 17 "d:\\kzc\\stm32\\h743ii_lcd\\lvgl\\src\\draw\\lv_draw_img.h"
 3626              		.file 18 "d:\\kzc\\stm32\\h743ii_lcd\\lvgl\\src\\draw\\lv_draw_line.h"
 3627              		.file 19 "d:\\kzc\\stm32\\h743ii_lcd\\lvgl\\src\\draw\\lv_draw_arc.h"
 3628              		.file 20 "d:\\kzc\\stm32\\h743ii_lcd\\lvgl\\src\\draw\\lv_draw_layer.h"
 3629              		.file 21 "d:\\kzc\\stm32\\h743ii_lcd\\lvgl\\src\\draw\\lv_draw.h"
 3630              		.file 22 "d:\\kzc\\stm32\\h743ii_lcd\\lvgl\\src\\misc\\lv_ll.h"
 3631              		.file 23 "d:\\kzc\\stm32\\h743ii_lcd\\lvgl\\src\\misc\\lv_timer.h"
 3632              		.file 24 "lvgl/src/widgets/../core/../hal/lv_hal_disp.h"
 3633              		.file 25 "lvgl/src/widgets/../core/lv_group.h"
 3634              		.file 26 "lvgl/src/widgets/../core/lv_obj_scroll.h"
 3635              		.file 27 "lvgl/src/widgets/../core/lv_obj_style.h"
 3636              		.file 28 "lvgl/src/widgets/../core/lv_obj_class.h"
 3637              		.file 29 "lvgl/src/widgets/../core/lv_event.h"
 3638              		.file 30 "lvgl/src/widgets/../widgets/lv_img.h"
 3639              		.file 31 "lvgl/src/widgets/lv_canvas.h"
 3640              		.file 32 "lvgl/src/widgets/../draw/sw/lv_draw_sw.h"
 3641              		.file 33 "lvgl/src/widgets/../core/../misc/lv_mem.h"
ARM GAS  C:\Users\OSD\AppData\Local\Temp\ccwADrda.s 			page 119


 3642              		.file 34 "d:\\kzc\\stm32\\h743ii_lcd\\lvgl\\src\\draw\\lv_img_cache.h"
 3643              		.file 35 "lvgl/src/widgets/../core/lv_refr.h"
 3644              		.file 36 "d:\\kzc\\stm32\\h743ii_lcd\\lvgl\\src\\core\\lv_obj_pos.h"
 3645              		.file 37 "d:\\kzc\\stm32\\h743ii_lcd\\lvgl\\src\\draw\\lv_draw_triangle.h"
 3646              		.file 38 "d:\\kzc\\stm32\\h743ii_lcd\\lvgl\\src\\draw\\lv_img_decoder.h"
ARM GAS  C:\Users\OSD\AppData\Local\Temp\ccwADrda.s 			page 120


DEFINED SYMBOLS
                            *ABS*:00000000 lv_canvas.c
C:\Users\OSD\AppData\Local\Temp\ccwADrda.s:19     .text.lv_canvas_destructor:00000000 $t
C:\Users\OSD\AppData\Local\Temp\ccwADrda.s:24     .text.lv_canvas_destructor:00000000 lv_canvas_destructor
C:\Users\OSD\AppData\Local\Temp\ccwADrda.s:53     .text.lv_canvas_constructor:00000000 $t
C:\Users\OSD\AppData\Local\Temp\ccwADrda.s:58     .text.lv_canvas_constructor:00000000 lv_canvas_constructor
C:\Users\OSD\AppData\Local\Temp\ccwADrda.s:116    .text.deinit_fake_disp:00000000 $t
C:\Users\OSD\AppData\Local\Temp\ccwADrda.s:121    .text.deinit_fake_disp:00000000 deinit_fake_disp
C:\Users\OSD\AppData\Local\Temp\ccwADrda.s:158    .text.lv_canvas_create:00000000 $t
C:\Users\OSD\AppData\Local\Temp\ccwADrda.s:164    .text.lv_canvas_create:00000000 lv_canvas_create
C:\Users\OSD\AppData\Local\Temp\ccwADrda.s:202    .text.lv_canvas_create:00000014 $d
C:\Users\OSD\AppData\Local\Temp\ccwADrda.s:207    .text.lv_canvas_set_buffer:00000000 $t
C:\Users\OSD\AppData\Local\Temp\ccwADrda.s:213    .text.lv_canvas_set_buffer:00000000 lv_canvas_set_buffer
C:\Users\OSD\AppData\Local\Temp\ccwADrda.s:292    .text.lv_canvas_set_px_color:00000000 $t
C:\Users\OSD\AppData\Local\Temp\ccwADrda.s:298    .text.lv_canvas_set_px_color:00000000 lv_canvas_set_px_color
C:\Users\OSD\AppData\Local\Temp\ccwADrda.s:333    .text.lv_canvas_set_px_opa:00000000 $t
C:\Users\OSD\AppData\Local\Temp\ccwADrda.s:339    .text.lv_canvas_set_px_opa:00000000 lv_canvas_set_px_opa
C:\Users\OSD\AppData\Local\Temp\ccwADrda.s:374    .text.lv_canvas_set_palette:00000000 $t
C:\Users\OSD\AppData\Local\Temp\ccwADrda.s:380    .text.lv_canvas_set_palette:00000000 lv_canvas_set_palette
C:\Users\OSD\AppData\Local\Temp\ccwADrda.s:415    .text.lv_canvas_get_px:00000000 $t
C:\Users\OSD\AppData\Local\Temp\ccwADrda.s:421    .text.lv_canvas_get_px:00000000 lv_canvas_get_px
C:\Users\OSD\AppData\Local\Temp\ccwADrda.s:480    .text.lv_canvas_get_img:00000000 $t
C:\Users\OSD\AppData\Local\Temp\ccwADrda.s:486    .text.lv_canvas_get_img:00000000 lv_canvas_get_img
C:\Users\OSD\AppData\Local\Temp\ccwADrda.s:508    .text.init_fake_disp:00000000 $t
C:\Users\OSD\AppData\Local\Temp\ccwADrda.s:513    .text.init_fake_disp:00000000 init_fake_disp
C:\Users\OSD\AppData\Local\Temp\ccwADrda.s:651    .text.lv_canvas_copy_buf:00000000 $t
C:\Users\OSD\AppData\Local\Temp\ccwADrda.s:657    .text.lv_canvas_copy_buf:00000000 lv_canvas_copy_buf
C:\Users\OSD\AppData\Local\Temp\ccwADrda.s:797    .text.lv_canvas_transform:00000000 $t
C:\Users\OSD\AppData\Local\Temp\ccwADrda.s:803    .text.lv_canvas_transform:00000000 lv_canvas_transform
C:\Users\OSD\AppData\Local\Temp\ccwADrda.s:1079   .text.lv_canvas_blur_hor:00000000 $t
C:\Users\OSD\AppData\Local\Temp\ccwADrda.s:1085   .text.lv_canvas_blur_hor:00000000 lv_canvas_blur_hor
C:\Users\OSD\AppData\Local\Temp\ccwADrda.s:1798   .text.lv_canvas_blur_ver:00000000 $t
C:\Users\OSD\AppData\Local\Temp\ccwADrda.s:1804   .text.lv_canvas_blur_ver:00000000 lv_canvas_blur_ver
C:\Users\OSD\AppData\Local\Temp\ccwADrda.s:2544   .text.lv_canvas_fill_bg:00000000 $t
C:\Users\OSD\AppData\Local\Temp\ccwADrda.s:2550   .text.lv_canvas_fill_bg:00000000 lv_canvas_fill_bg
C:\Users\OSD\AppData\Local\Temp\ccwADrda.s:2737   .text.lv_canvas_draw_rect:00000000 $t
C:\Users\OSD\AppData\Local\Temp\ccwADrda.s:2743   .text.lv_canvas_draw_rect:00000000 lv_canvas_draw_rect
C:\Users\OSD\AppData\Local\Temp\ccwADrda.s:2902   .text.lv_canvas_draw_text:00000000 $t
C:\Users\OSD\AppData\Local\Temp\ccwADrda.s:2908   .text.lv_canvas_draw_text:00000000 lv_canvas_draw_text
C:\Users\OSD\AppData\Local\Temp\ccwADrda.s:3035   .text.lv_canvas_draw_img:00000000 $t
C:\Users\OSD\AppData\Local\Temp\ccwADrda.s:3041   .text.lv_canvas_draw_img:00000000 lv_canvas_draw_img
C:\Users\OSD\AppData\Local\Temp\ccwADrda.s:3182   .text.lv_canvas_draw_line:00000000 $t
C:\Users\OSD\AppData\Local\Temp\ccwADrda.s:3188   .text.lv_canvas_draw_line:00000000 lv_canvas_draw_line
C:\Users\OSD\AppData\Local\Temp\ccwADrda.s:3343   .text.lv_canvas_draw_polygon:00000000 $t
C:\Users\OSD\AppData\Local\Temp\ccwADrda.s:3349   .text.lv_canvas_draw_polygon:00000000 lv_canvas_draw_polygon
C:\Users\OSD\AppData\Local\Temp\ccwADrda.s:3484   .text.lv_canvas_draw_arc:00000000 $t
C:\Users\OSD\AppData\Local\Temp\ccwADrda.s:3490   .text.lv_canvas_draw_arc:00000000 lv_canvas_draw_arc
C:\Users\OSD\AppData\Local\Temp\ccwADrda.s:3602   .rodata.lv_canvas_class:00000000 lv_canvas_class
C:\Users\OSD\AppData\Local\Temp\ccwADrda.s:3598   .rodata.lv_canvas_class:00000000 $d

UNDEFINED SYMBOLS
lv_img_cache_invalidate_src
lv_img_set_src
lv_draw_sw_deinit_ctx
lv_mem_free
lv_obj_class_create_obj
lv_obj_class_init_obj
ARM GAS  C:\Users\OSD\AppData\Local\Temp\ccwADrda.s 			page 121


lv_img_buf_set_px_color
lv_obj_invalidate
lv_img_buf_set_px_alpha
lv_img_buf_set_palette
lv_obj_get_style_prop
lv_img_buf_get_px_color
lv_memset_00
lv_disp_drv_init
lv_mem_alloc
lv_draw_sw_init_ctx
lv_disp_drv_use_generic_set_px_cb
lv_img_cf_get_px_size
lv_memcpy
lv_draw_img_dsc_init
lv_draw_sw_transform
lv_img_cf_has_alpha
lv_img_buf_get_img_size
lv_mem_buf_get
lv_img_buf_get_px_alpha
lv_mem_buf_release
lv_memset
_lv_refr_get_disp_refreshing
_lv_refr_set_disp_refreshing
lv_draw_rect
lv_draw_label
lv_img_decoder_get_info
lv_draw_img
lv_draw_line
lv_draw_polygon
lv_draw_arc
lv_img_class
