ARM GAS  C:\Users\OSD\AppData\Local\Temp\ccGoPjYP.s 			page 1


   1              		.cpu cortex-m7
   2              		.arch armv7e-m
   3              		.fpu fpv5-d16
   4              		.eabi_attribute 28, 1
   5              		.eabi_attribute 20, 1
   6              		.eabi_attribute 21, 1
   7              		.eabi_attribute 23, 3
   8              		.eabi_attribute 24, 1
   9              		.eabi_attribute 25, 1
  10              		.eabi_attribute 26, 1
  11              		.eabi_attribute 30, 1
  12              		.eabi_attribute 34, 1
  13              		.eabi_attribute 18, 4
  14              		.file	"lv_draw_transform.c"
  15              		.text
  16              	.Ltext0:
  17              		.cfi_sections	.debug_frame
  18              		.section	.text.lv_draw_transform,"ax",%progbits
  19              		.align	1
  20              		.global	lv_draw_transform
  21              		.syntax unified
  22              		.thumb
  23              		.thumb_func
  25              	lv_draw_transform:
  26              	.LVL0:
  27              	.LFB55:
  28              		.file 1 "lvgl/src/draw/lv_draw_transform.c"
   1:lvgl/src/draw/lv_draw_transform.c **** /**
   2:lvgl/src/draw/lv_draw_transform.c ****  * @file lv_draw_transform.c
   3:lvgl/src/draw/lv_draw_transform.c ****  *
   4:lvgl/src/draw/lv_draw_transform.c ****  */
   5:lvgl/src/draw/lv_draw_transform.c **** 
   6:lvgl/src/draw/lv_draw_transform.c **** /*********************
   7:lvgl/src/draw/lv_draw_transform.c ****  *      INCLUDES
   8:lvgl/src/draw/lv_draw_transform.c ****  *********************/
   9:lvgl/src/draw/lv_draw_transform.c **** #include "lv_draw.h"
  10:lvgl/src/draw/lv_draw_transform.c **** #include "lv_draw_transform.h"
  11:lvgl/src/draw/lv_draw_transform.c **** #include "../misc/lv_assert.h"
  12:lvgl/src/draw/lv_draw_transform.c **** #include "../misc/lv_area.h"
  13:lvgl/src/draw/lv_draw_transform.c **** 
  14:lvgl/src/draw/lv_draw_transform.c **** /*********************
  15:lvgl/src/draw/lv_draw_transform.c ****  *      DEFINES
  16:lvgl/src/draw/lv_draw_transform.c ****  *********************/
  17:lvgl/src/draw/lv_draw_transform.c **** 
  18:lvgl/src/draw/lv_draw_transform.c **** /**********************
  19:lvgl/src/draw/lv_draw_transform.c ****  *      TYPEDEFS
  20:lvgl/src/draw/lv_draw_transform.c ****  **********************/
  21:lvgl/src/draw/lv_draw_transform.c **** 
  22:lvgl/src/draw/lv_draw_transform.c **** /**********************
  23:lvgl/src/draw/lv_draw_transform.c ****  *  STATIC PROTOTYPES
  24:lvgl/src/draw/lv_draw_transform.c ****  **********************/
  25:lvgl/src/draw/lv_draw_transform.c **** 
  26:lvgl/src/draw/lv_draw_transform.c **** /**********************
  27:lvgl/src/draw/lv_draw_transform.c ****  *  STATIC VARIABLES
  28:lvgl/src/draw/lv_draw_transform.c ****  **********************/
  29:lvgl/src/draw/lv_draw_transform.c **** 
  30:lvgl/src/draw/lv_draw_transform.c **** /**********************
ARM GAS  C:\Users\OSD\AppData\Local\Temp\ccGoPjYP.s 			page 2


  31:lvgl/src/draw/lv_draw_transform.c ****  *      MACROS
  32:lvgl/src/draw/lv_draw_transform.c ****  **********************/
  33:lvgl/src/draw/lv_draw_transform.c **** 
  34:lvgl/src/draw/lv_draw_transform.c **** /**********************
  35:lvgl/src/draw/lv_draw_transform.c ****  *   GLOBAL FUNCTIONS
  36:lvgl/src/draw/lv_draw_transform.c ****  **********************/
  37:lvgl/src/draw/lv_draw_transform.c **** void lv_draw_transform(lv_draw_ctx_t * draw_ctx, const lv_area_t * dest_area, const void * src_buf,
  38:lvgl/src/draw/lv_draw_transform.c ****                        lv_coord_t src_h,
  39:lvgl/src/draw/lv_draw_transform.c ****                        lv_coord_t src_stride, const lv_draw_img_dsc_t * draw_dsc, lv_img_cf_t cf, l
  40:lvgl/src/draw/lv_draw_transform.c **** {
  29              		.loc 1 40 1 view -0
  30              		.cfi_startproc
  31              		@ args = 24, pretend = 0, frame = 0
  32              		@ frame_needed = 0, uses_anonymous_args = 0
  41:lvgl/src/draw/lv_draw_transform.c ****     LV_ASSERT_NULL(draw_ctx);
  33              		.loc 1 41 5 view .LVU1
  34              		.loc 1 41 5 view .LVU2
  35 0000 B8B1     		cbz	r0, .L3
  40:lvgl/src/draw/lv_draw_transform.c ****     LV_ASSERT_NULL(draw_ctx);
  36              		.loc 1 40 1 is_stmt 0 discriminator 2 view .LVU3
  37 0002 10B5     		push	{r4, lr}
  38              		.cfi_def_cfa_offset 8
  39              		.cfi_offset 4, -8
  40              		.cfi_offset 14, -4
  41 0004 86B0     		sub	sp, sp, #24
  42              		.cfi_def_cfa_offset 32
  43 0006 8446     		mov	ip, r0
  44              		.loc 1 41 5 is_stmt 1 discriminator 2 view .LVU4
  45              		.loc 1 41 29 discriminator 2 view .LVU5
  42:lvgl/src/draw/lv_draw_transform.c ****     if(draw_ctx->draw_transform == NULL) {
  46              		.loc 1 42 5 discriminator 2 view .LVU6
  47              		.loc 1 42 16 is_stmt 0 discriminator 2 view .LVU7
  48 0008 C46A     		ldr	r4, [r0, #44]
  49              		.loc 1 42 7 discriminator 2 view .LVU8
  50 000a 84B1     		cbz	r4, .L1
  43:lvgl/src/draw/lv_draw_transform.c ****         LV_LOG_WARN("draw_ctx->draw_transform == NULL");
  44:lvgl/src/draw/lv_draw_transform.c ****         return;
  45:lvgl/src/draw/lv_draw_transform.c ****     }
  46:lvgl/src/draw/lv_draw_transform.c **** 
  47:lvgl/src/draw/lv_draw_transform.c ****     draw_ctx->draw_transform(draw_ctx, dest_area, src_buf, src_w, src_h, src_stride, draw_dsc, cf, 
  51              		.loc 1 47 5 is_stmt 1 view .LVU9
  52 000c 0D98     		ldr	r0, [sp, #52]
  53              	.LVL1:
  54              		.loc 1 47 5 is_stmt 0 view .LVU10
  55 000e 0590     		str	r0, [sp, #20]
  56 0010 0C98     		ldr	r0, [sp, #48]
  57 0012 0490     		str	r0, [sp, #16]
  58 0014 9DF82C00 		ldrb	r0, [sp, #44]	@ zero_extendqisi2
  59 0018 0390     		str	r0, [sp, #12]
  60 001a 0A98     		ldr	r0, [sp, #40]
  61 001c 0290     		str	r0, [sp, #8]
  62 001e BDF92400 		ldrsh	r0, [sp, #36]
  63 0022 0190     		str	r0, [sp, #4]
  64 0024 BDF92000 		ldrsh	r0, [sp, #32]
  65 0028 0090     		str	r0, [sp]
  66 002a 6046     		mov	r0, ip
  67 002c A047     		blx	r4
ARM GAS  C:\Users\OSD\AppData\Local\Temp\ccGoPjYP.s 			page 3


  68              	.LVL2:
  69              	.L1:
  48:lvgl/src/draw/lv_draw_transform.c **** 
  49:lvgl/src/draw/lv_draw_transform.c **** }
  70              		.loc 1 49 1 view .LVU11
  71 002e 06B0     		add	sp, sp, #24
  72              		.cfi_def_cfa_offset 8
  73              		@ sp needed
  74 0030 10BD     		pop	{r4, pc}
  75              	.LVL3:
  76              	.L3:
  77              		.cfi_def_cfa_offset 0
  78              		.cfi_restore 4
  79              		.cfi_restore 14
  41:lvgl/src/draw/lv_draw_transform.c ****     if(draw_ctx->draw_transform == NULL) {
  80              		.loc 1 41 5 is_stmt 1 discriminator 1 view .LVU12
  41:lvgl/src/draw/lv_draw_transform.c ****     if(draw_ctx->draw_transform == NULL) {
  81              		.loc 1 41 5 discriminator 1 view .LVU13
  41:lvgl/src/draw/lv_draw_transform.c ****     if(draw_ctx->draw_transform == NULL) {
  82              		.loc 1 41 5 discriminator 1 view .LVU14
  41:lvgl/src/draw/lv_draw_transform.c ****     if(draw_ctx->draw_transform == NULL) {
  83              		.loc 1 41 5 discriminator 1 view .LVU15
  41:lvgl/src/draw/lv_draw_transform.c ****     if(draw_ctx->draw_transform == NULL) {
  84              		.loc 1 41 5 discriminator 1 view .LVU16
  41:lvgl/src/draw/lv_draw_transform.c ****     if(draw_ctx->draw_transform == NULL) {
  85              		.loc 1 41 5 discriminator 1 view .LVU17
  86 0032 FEE7     		b	.L3
  87              		.cfi_endproc
  88              	.LFE55:
  90              		.text
  91              	.Letext0:
  92              		.file 2 "c:\\tools\\gcc-arm-none-eabi\\arm-none-eabi\\include\\machine\\_default_types.h"
  93              		.file 3 "c:\\tools\\gcc-arm-none-eabi\\arm-none-eabi\\include\\sys\\_stdint.h"
  94              		.file 4 "c:\\tools\\gcc-arm-none-eabi\\lib\\gcc\\arm-none-eabi\\10.3.1\\include\\stddef.h"
  95              		.file 5 "lvgl/src/draw/../misc/../font/../misc/lv_area.h"
  96              		.file 6 "lvgl/src/draw/../misc/../font/lv_font.h"
  97              		.file 7 "lvgl/src/draw/../misc/lv_types.h"
  98              		.file 8 "lvgl/src/draw/../misc/lv_color.h"
  99              		.file 9 "lvgl/src/draw/../misc/lv_txt.h"
 100              		.file 10 "lvgl/src/draw/../misc/lv_bidi.h"
 101              		.file 11 "lvgl/src/draw/../misc/lv_style.h"
 102              		.file 12 "lvgl/src/draw/lv_img_buf.h"
 103              		.file 13 "lvgl/src/draw/lv_draw_rect.h"
 104              		.file 14 "lvgl/src/draw/lv_draw_label.h"
 105              		.file 15 "lvgl/src/draw/lv_draw_img.h"
 106              		.file 16 "lvgl/src/draw/lv_draw_line.h"
 107              		.file 17 "lvgl/src/draw/lv_draw_arc.h"
 108              		.file 18 "lvgl/src/draw/lv_draw_layer.h"
 109              		.file 19 "lvgl/src/draw/lv_draw.h"
ARM GAS  C:\Users\OSD\AppData\Local\Temp\ccGoPjYP.s 			page 4

