ARM GAS  C:\Users\OSD\AppData\Local\Temp\ccQD1Pjr.s 			page 1


   1              		.cpu cortex-m7
   2              		.arch armv7e-m
   3              		.fpu fpv5-d16
   4              		.eabi_attribute 28, 1
   5              		.eabi_attribute 20, 1
   6              		.eabi_attribute 21, 1
   7              		.eabi_attribute 23, 3
   8              		.eabi_attribute 24, 1
   9              		.eabi_attribute 25, 1
  10              		.eabi_attribute 26, 1
  11              		.eabi_attribute 30, 1
  12              		.eabi_attribute 34, 1
  13              		.eabi_attribute 18, 4
  14              		.file	"lv_draw_layer.c"
  15              		.text
  16              	.Ltext0:
  17              		.cfi_sections	.debug_frame
  18              		.section	.text.lv_draw_layer_create,"ax",%progbits
  19              		.align	1
  20              		.global	lv_draw_layer_create
  21              		.syntax unified
  22              		.thumb
  23              		.thumb_func
  25              	lv_draw_layer_create:
  26              	.LVL0:
  27              	.LFB161:
  28              		.file 1 "lvgl/src/draw/lv_draw_layer.c"
   1:lvgl/src/draw/lv_draw_layer.c **** /**
   2:lvgl/src/draw/lv_draw_layer.c ****  * @file lv_draw_layer.c
   3:lvgl/src/draw/lv_draw_layer.c ****  *
   4:lvgl/src/draw/lv_draw_layer.c ****  */
   5:lvgl/src/draw/lv_draw_layer.c **** 
   6:lvgl/src/draw/lv_draw_layer.c **** /*********************
   7:lvgl/src/draw/lv_draw_layer.c ****  *      INCLUDES
   8:lvgl/src/draw/lv_draw_layer.c ****  *********************/
   9:lvgl/src/draw/lv_draw_layer.c **** #include "lv_draw.h"
  10:lvgl/src/draw/lv_draw_layer.c **** #include "lv_draw_arc.h"
  11:lvgl/src/draw/lv_draw_layer.c **** #include "../core/lv_refr.h"
  12:lvgl/src/draw/lv_draw_layer.c **** 
  13:lvgl/src/draw/lv_draw_layer.c **** /*********************
  14:lvgl/src/draw/lv_draw_layer.c ****  *      DEFINES
  15:lvgl/src/draw/lv_draw_layer.c ****  *********************/
  16:lvgl/src/draw/lv_draw_layer.c **** 
  17:lvgl/src/draw/lv_draw_layer.c **** /**********************
  18:lvgl/src/draw/lv_draw_layer.c ****  *      TYPEDEFS
  19:lvgl/src/draw/lv_draw_layer.c ****  **********************/
  20:lvgl/src/draw/lv_draw_layer.c **** 
  21:lvgl/src/draw/lv_draw_layer.c **** /**********************
  22:lvgl/src/draw/lv_draw_layer.c ****  *  STATIC PROTOTYPES
  23:lvgl/src/draw/lv_draw_layer.c ****  **********************/
  24:lvgl/src/draw/lv_draw_layer.c **** 
  25:lvgl/src/draw/lv_draw_layer.c **** /**********************
  26:lvgl/src/draw/lv_draw_layer.c ****  *  STATIC VARIABLES
  27:lvgl/src/draw/lv_draw_layer.c ****  **********************/
  28:lvgl/src/draw/lv_draw_layer.c **** 
  29:lvgl/src/draw/lv_draw_layer.c **** /**********************
  30:lvgl/src/draw/lv_draw_layer.c ****  *      MACROS
ARM GAS  C:\Users\OSD\AppData\Local\Temp\ccQD1Pjr.s 			page 2


  31:lvgl/src/draw/lv_draw_layer.c ****  **********************/
  32:lvgl/src/draw/lv_draw_layer.c **** 
  33:lvgl/src/draw/lv_draw_layer.c **** /**********************
  34:lvgl/src/draw/lv_draw_layer.c ****  *   GLOBAL FUNCTIONS
  35:lvgl/src/draw/lv_draw_layer.c ****  **********************/
  36:lvgl/src/draw/lv_draw_layer.c **** 
  37:lvgl/src/draw/lv_draw_layer.c **** lv_draw_layer_ctx_t * lv_draw_layer_create(lv_draw_ctx_t * draw_ctx, const lv_area_t * layer_area,
  38:lvgl/src/draw/lv_draw_layer.c ****                                            lv_draw_layer_flags_t flags)
  39:lvgl/src/draw/lv_draw_layer.c **** {
  29              		.loc 1 39 1 view -0
  30              		.cfi_startproc
  31              		@ args = 0, pretend = 0, frame = 0
  32              		@ frame_needed = 0, uses_anonymous_args = 0
  33              		.loc 1 39 1 is_stmt 0 view .LVU1
  34 0000 F8B5     		push	{r3, r4, r5, r6, r7, lr}
  35              		.cfi_def_cfa_offset 24
  36              		.cfi_offset 3, -24
  37              		.cfi_offset 4, -20
  38              		.cfi_offset 5, -16
  39              		.cfi_offset 6, -12
  40              		.cfi_offset 7, -8
  41              		.cfi_offset 14, -4
  40:lvgl/src/draw/lv_draw_layer.c ****     if(draw_ctx->layer_init == NULL) return NULL;
  42              		.loc 1 40 5 is_stmt 1 view .LVU2
  43              		.loc 1 40 16 is_stmt 0 view .LVU3
  44 0002 C36B     		ldr	r3, [r0, #60]
  45              		.loc 1 40 7 view .LVU4
  46 0004 53B3     		cbz	r3, .L5
  47 0006 0446     		mov	r4, r0
  48 0008 0F46     		mov	r7, r1
  49 000a 1646     		mov	r6, r2
  41:lvgl/src/draw/lv_draw_layer.c **** 
  42:lvgl/src/draw/lv_draw_layer.c ****     lv_draw_layer_ctx_t * layer_ctx = lv_mem_alloc(draw_ctx->layer_instance_size);
  50              		.loc 1 42 5 is_stmt 1 view .LVU5
  51              		.loc 1 42 39 is_stmt 0 view .LVU6
  52 000c C06C     		ldr	r0, [r0, #76]
  53              	.LVL1:
  54              		.loc 1 42 39 view .LVU7
  55 000e FFF7FEFF 		bl	lv_mem_alloc
  56              	.LVL2:
  43:lvgl/src/draw/lv_draw_layer.c ****     LV_ASSERT_MALLOC(layer_ctx);
  57              		.loc 1 43 5 is_stmt 1 view .LVU8
  58              		.loc 1 43 5 view .LVU9
  59 0012 0546     		mov	r5, r0
  60 0014 E8B1     		cbz	r0, .L4
  61              		.loc 1 43 5 view .LVU10
  62              		.loc 1 43 32 view .LVU11
  44:lvgl/src/draw/lv_draw_layer.c ****     if(layer_ctx == NULL) {
  63              		.loc 1 44 5 view .LVU12
  45:lvgl/src/draw/lv_draw_layer.c ****         LV_LOG_WARN("Couldn't allocate a new layer context");
  46:lvgl/src/draw/lv_draw_layer.c ****         return NULL;
  47:lvgl/src/draw/lv_draw_layer.c ****     }
  48:lvgl/src/draw/lv_draw_layer.c **** 
  49:lvgl/src/draw/lv_draw_layer.c ****     lv_memset_00(layer_ctx, draw_ctx->layer_instance_size);
  64              		.loc 1 49 5 view .LVU13
  65 0016 E16C     		ldr	r1, [r4, #76]
  66 0018 FFF7FEFF 		bl	lv_memset_00
ARM GAS  C:\Users\OSD\AppData\Local\Temp\ccQD1Pjr.s 			page 3


  67              	.LVL3:
  50:lvgl/src/draw/lv_draw_layer.c **** 
  51:lvgl/src/draw/lv_draw_layer.c ****     lv_disp_t * disp_refr = _lv_refr_get_disp_refreshing();
  68              		.loc 1 51 5 view .LVU14
  69              		.loc 1 51 29 is_stmt 0 view .LVU15
  70 001c FFF7FEFF 		bl	_lv_refr_get_disp_refreshing
  71              	.LVL4:
  52:lvgl/src/draw/lv_draw_layer.c ****     layer_ctx->original.buf = draw_ctx->buf;
  72              		.loc 1 52 5 is_stmt 1 view .LVU16
  73              		.loc 1 52 39 is_stmt 0 view .LVU17
  74 0020 2368     		ldr	r3, [r4]
  75              		.loc 1 52 29 view .LVU18
  76 0022 2B62     		str	r3, [r5, #32]
  53:lvgl/src/draw/lv_draw_layer.c ****     layer_ctx->original.buf_area = draw_ctx->buf_area;
  77              		.loc 1 53 5 is_stmt 1 view .LVU19
  78              		.loc 1 53 44 is_stmt 0 view .LVU20
  79 0024 6368     		ldr	r3, [r4, #4]
  80              		.loc 1 53 34 view .LVU21
  81 0026 EB61     		str	r3, [r5, #28]
  54:lvgl/src/draw/lv_draw_layer.c ****     layer_ctx->original.clip_area = draw_ctx->clip_area;
  82              		.loc 1 54 5 is_stmt 1 view .LVU22
  83              		.loc 1 54 45 is_stmt 0 view .LVU23
  84 0028 A368     		ldr	r3, [r4, #8]
  85              		.loc 1 54 35 view .LVU24
  86 002a AB61     		str	r3, [r5, #24]
  55:lvgl/src/draw/lv_draw_layer.c ****     layer_ctx->original.screen_transp = disp_refr->driver->screen_transp;
  87              		.loc 1 55 5 is_stmt 1 view .LVU25
  88              		.loc 1 55 50 is_stmt 0 view .LVU26
  89 002c 0368     		ldr	r3, [r0]
  90              		.loc 1 55 58 view .LVU27
  91 002e 1B7C     		ldrb	r3, [r3, #16]	@ zero_extendqisi2
  92 0030 C3F38013 		ubfx	r3, r3, #6, #1
  93              		.loc 1 55 39 view .LVU28
  94 0034 85F82430 		strb	r3, [r5, #36]
  56:lvgl/src/draw/lv_draw_layer.c ****     layer_ctx->area_full = *layer_area;
  95              		.loc 1 56 5 is_stmt 1 view .LVU29
  96              		.loc 1 56 26 is_stmt 0 view .LVU30
  97 0038 2B46     		mov	r3, r5
  98 003a 3868     		ldr	r0, [r7]	@ unaligned
  99              	.LVL5:
 100              		.loc 1 56 26 view .LVU31
 101 003c 7968     		ldr	r1, [r7, #4]	@ unaligned
 102 003e 03C3     		stmia	r3!, {r0, r1}
  57:lvgl/src/draw/lv_draw_layer.c **** 
  58:lvgl/src/draw/lv_draw_layer.c ****     lv_draw_layer_ctx_t * init_layer_ctx =  draw_ctx->layer_init(draw_ctx, layer_ctx, flags);
 103              		.loc 1 58 5 is_stmt 1 view .LVU32
 104              		.loc 1 58 53 is_stmt 0 view .LVU33
 105 0040 E36B     		ldr	r3, [r4, #60]
 106              		.loc 1 58 45 view .LVU34
 107 0042 3246     		mov	r2, r6
 108 0044 2946     		mov	r1, r5
 109 0046 2046     		mov	r0, r4
 110 0048 9847     		blx	r3
 111              	.LVL6:
  59:lvgl/src/draw/lv_draw_layer.c ****     if(NULL == init_layer_ctx) {
 112              		.loc 1 59 5 is_stmt 1 view .LVU35
 113              		.loc 1 59 7 is_stmt 0 view .LVU36
ARM GAS  C:\Users\OSD\AppData\Local\Temp\ccQD1Pjr.s 			page 4


 114 004a 0446     		mov	r4, r0
 115              	.LVL7:
 116              		.loc 1 59 7 view .LVU37
 117 004c 10B1     		cbz	r0, .L7
 118              	.LVL8:
 119              	.L1:
  60:lvgl/src/draw/lv_draw_layer.c ****         lv_mem_free(layer_ctx);
  61:lvgl/src/draw/lv_draw_layer.c ****     }
  62:lvgl/src/draw/lv_draw_layer.c ****     return init_layer_ctx;
  63:lvgl/src/draw/lv_draw_layer.c **** }
 120              		.loc 1 63 1 view .LVU38
 121 004e 2046     		mov	r0, r4
 122 0050 F8BD     		pop	{r3, r4, r5, r6, r7, pc}
 123              	.LVL9:
 124              	.L4:
  43:lvgl/src/draw/lv_draw_layer.c ****     if(layer_ctx == NULL) {
 125              		.loc 1 43 5 is_stmt 1 discriminator 1 view .LVU39
  43:lvgl/src/draw/lv_draw_layer.c ****     if(layer_ctx == NULL) {
 126              		.loc 1 43 5 discriminator 1 view .LVU40
  43:lvgl/src/draw/lv_draw_layer.c ****     if(layer_ctx == NULL) {
 127              		.loc 1 43 5 discriminator 1 view .LVU41
  43:lvgl/src/draw/lv_draw_layer.c ****     if(layer_ctx == NULL) {
 128              		.loc 1 43 5 discriminator 1 view .LVU42
  43:lvgl/src/draw/lv_draw_layer.c ****     if(layer_ctx == NULL) {
 129              		.loc 1 43 5 discriminator 1 view .LVU43
  43:lvgl/src/draw/lv_draw_layer.c ****     if(layer_ctx == NULL) {
 130              		.loc 1 43 5 discriminator 1 view .LVU44
 131 0052 FEE7     		b	.L4
 132              	.LVL10:
 133              	.L7:
  60:lvgl/src/draw/lv_draw_layer.c ****         lv_mem_free(layer_ctx);
 134              		.loc 1 60 9 view .LVU45
 135 0054 2846     		mov	r0, r5
 136              	.LVL11:
  60:lvgl/src/draw/lv_draw_layer.c ****         lv_mem_free(layer_ctx);
 137              		.loc 1 60 9 is_stmt 0 view .LVU46
 138 0056 FFF7FEFF 		bl	lv_mem_free
 139              	.LVL12:
 140 005a F8E7     		b	.L1
 141              	.LVL13:
 142              	.L5:
  40:lvgl/src/draw/lv_draw_layer.c **** 
 143              		.loc 1 40 45 view .LVU47
 144 005c 0024     		movs	r4, #0
 145 005e F6E7     		b	.L1
 146              		.cfi_endproc
 147              	.LFE161:
 149              		.section	.text.lv_draw_layer_adjust,"ax",%progbits
 150              		.align	1
 151              		.global	lv_draw_layer_adjust
 152              		.syntax unified
 153              		.thumb
 154              		.thumb_func
 156              	lv_draw_layer_adjust:
 157              	.LVL14:
 158              	.LFB162:
  64:lvgl/src/draw/lv_draw_layer.c **** 
ARM GAS  C:\Users\OSD\AppData\Local\Temp\ccQD1Pjr.s 			page 5


  65:lvgl/src/draw/lv_draw_layer.c **** void lv_draw_layer_adjust(struct _lv_draw_ctx_t * draw_ctx, struct _lv_draw_layer_ctx_t * layer_ctx
  66:lvgl/src/draw/lv_draw_layer.c ****                           lv_draw_layer_flags_t flags)
  67:lvgl/src/draw/lv_draw_layer.c **** {
 159              		.loc 1 67 1 is_stmt 1 view -0
 160              		.cfi_startproc
 161              		@ args = 0, pretend = 0, frame = 0
 162              		@ frame_needed = 0, uses_anonymous_args = 0
 163              		.loc 1 67 1 is_stmt 0 view .LVU49
 164 0000 08B5     		push	{r3, lr}
 165              		.cfi_def_cfa_offset 8
 166              		.cfi_offset 3, -8
 167              		.cfi_offset 14, -4
  68:lvgl/src/draw/lv_draw_layer.c ****     if(draw_ctx->layer_adjust) draw_ctx->layer_adjust(draw_ctx, layer_ctx, flags);
 168              		.loc 1 68 5 is_stmt 1 view .LVU50
 169              		.loc 1 68 16 is_stmt 0 view .LVU51
 170 0002 036C     		ldr	r3, [r0, #64]
 171              		.loc 1 68 7 view .LVU52
 172 0004 03B1     		cbz	r3, .L8
 173              		.loc 1 68 32 is_stmt 1 discriminator 1 view .LVU53
 174 0006 9847     		blx	r3
 175              	.LVL15:
 176              	.L8:
  69:lvgl/src/draw/lv_draw_layer.c **** }
 177              		.loc 1 69 1 is_stmt 0 view .LVU54
 178 0008 08BD     		pop	{r3, pc}
 179              		.cfi_endproc
 180              	.LFE162:
 182              		.section	.text.lv_draw_layer_blend,"ax",%progbits
 183              		.align	1
 184              		.global	lv_draw_layer_blend
 185              		.syntax unified
 186              		.thumb
 187              		.thumb_func
 189              	lv_draw_layer_blend:
 190              	.LVL16:
 191              	.LFB163:
  70:lvgl/src/draw/lv_draw_layer.c **** 
  71:lvgl/src/draw/lv_draw_layer.c **** void lv_draw_layer_blend(struct _lv_draw_ctx_t * draw_ctx, struct _lv_draw_layer_ctx_t * layer_ctx,
  72:lvgl/src/draw/lv_draw_layer.c ****                          lv_draw_img_dsc_t * draw_dsc)
  73:lvgl/src/draw/lv_draw_layer.c **** {
 192              		.loc 1 73 1 is_stmt 1 view -0
 193              		.cfi_startproc
 194              		@ args = 0, pretend = 0, frame = 0
 195              		@ frame_needed = 0, uses_anonymous_args = 0
 196              		.loc 1 73 1 is_stmt 0 view .LVU56
 197 0000 08B5     		push	{r3, lr}
 198              		.cfi_def_cfa_offset 8
 199              		.cfi_offset 3, -8
 200              		.cfi_offset 14, -4
  74:lvgl/src/draw/lv_draw_layer.c ****     if(draw_ctx->layer_blend) draw_ctx->layer_blend(draw_ctx, layer_ctx, draw_dsc);
 201              		.loc 1 74 5 is_stmt 1 view .LVU57
 202              		.loc 1 74 16 is_stmt 0 view .LVU58
 203 0002 436C     		ldr	r3, [r0, #68]
 204              		.loc 1 74 7 view .LVU59
 205 0004 03B1     		cbz	r3, .L11
 206              		.loc 1 74 31 is_stmt 1 discriminator 1 view .LVU60
 207 0006 9847     		blx	r3
ARM GAS  C:\Users\OSD\AppData\Local\Temp\ccQD1Pjr.s 			page 6


 208              	.LVL17:
 209              	.L11:
  75:lvgl/src/draw/lv_draw_layer.c **** }
 210              		.loc 1 75 1 is_stmt 0 view .LVU61
 211 0008 08BD     		pop	{r3, pc}
 212              		.cfi_endproc
 213              	.LFE163:
 215              		.section	.text.lv_draw_layer_destroy,"ax",%progbits
 216              		.align	1
 217              		.global	lv_draw_layer_destroy
 218              		.syntax unified
 219              		.thumb
 220              		.thumb_func
 222              	lv_draw_layer_destroy:
 223              	.LVL18:
 224              	.LFB164:
  76:lvgl/src/draw/lv_draw_layer.c **** 
  77:lvgl/src/draw/lv_draw_layer.c **** void lv_draw_layer_destroy(lv_draw_ctx_t * draw_ctx, lv_draw_layer_ctx_t * layer_ctx)
  78:lvgl/src/draw/lv_draw_layer.c **** {
 225              		.loc 1 78 1 is_stmt 1 view -0
 226              		.cfi_startproc
 227              		@ args = 0, pretend = 0, frame = 0
 228              		@ frame_needed = 0, uses_anonymous_args = 0
 229              		.loc 1 78 1 is_stmt 0 view .LVU63
 230 0000 38B5     		push	{r3, r4, r5, lr}
 231              		.cfi_def_cfa_offset 16
 232              		.cfi_offset 3, -16
 233              		.cfi_offset 4, -12
 234              		.cfi_offset 5, -8
 235              		.cfi_offset 14, -4
 236 0002 0546     		mov	r5, r0
 237 0004 0C46     		mov	r4, r1
  79:lvgl/src/draw/lv_draw_layer.c **** 
  80:lvgl/src/draw/lv_draw_layer.c ****     lv_draw_wait_for_finish(draw_ctx);
 238              		.loc 1 80 5 is_stmt 1 view .LVU64
 239 0006 FFF7FEFF 		bl	lv_draw_wait_for_finish
 240              	.LVL19:
  81:lvgl/src/draw/lv_draw_layer.c ****     draw_ctx->buf = layer_ctx->original.buf;
 241              		.loc 1 81 5 view .LVU65
 242              		.loc 1 81 40 is_stmt 0 view .LVU66
 243 000a 236A     		ldr	r3, [r4, #32]
 244              		.loc 1 81 19 view .LVU67
 245 000c 2B60     		str	r3, [r5]
  82:lvgl/src/draw/lv_draw_layer.c ****     draw_ctx->buf_area = layer_ctx->original.buf_area;
 246              		.loc 1 82 5 is_stmt 1 view .LVU68
 247              		.loc 1 82 45 is_stmt 0 view .LVU69
 248 000e E369     		ldr	r3, [r4, #28]
 249              		.loc 1 82 24 view .LVU70
 250 0010 6B60     		str	r3, [r5, #4]
  83:lvgl/src/draw/lv_draw_layer.c ****     draw_ctx->clip_area = layer_ctx->original.clip_area;
 251              		.loc 1 83 5 is_stmt 1 view .LVU71
 252              		.loc 1 83 46 is_stmt 0 view .LVU72
 253 0012 A369     		ldr	r3, [r4, #24]
 254              		.loc 1 83 25 view .LVU73
 255 0014 AB60     		str	r3, [r5, #8]
  84:lvgl/src/draw/lv_draw_layer.c ****     lv_disp_t * disp_refr = _lv_refr_get_disp_refreshing();
 256              		.loc 1 84 5 is_stmt 1 view .LVU74
ARM GAS  C:\Users\OSD\AppData\Local\Temp\ccQD1Pjr.s 			page 7


 257              		.loc 1 84 29 is_stmt 0 view .LVU75
 258 0016 FFF7FEFF 		bl	_lv_refr_get_disp_refreshing
 259              	.LVL20:
  85:lvgl/src/draw/lv_draw_layer.c ****     disp_refr->driver->screen_transp = layer_ctx->original.screen_transp;
 260              		.loc 1 85 5 is_stmt 1 view .LVU76
 261              		.loc 1 85 14 is_stmt 0 view .LVU77
 262 001a 0368     		ldr	r3, [r0]
 263              		.loc 1 85 59 view .LVU78
 264 001c 94F82410 		ldrb	r1, [r4, #36]	@ zero_extendqisi2
 265              		.loc 1 85 38 view .LVU79
 266 0020 1A7C     		ldrb	r2, [r3, #16]	@ zero_extendqisi2
 267 0022 61F38612 		bfi	r2, r1, #6, #1
 268 0026 1A74     		strb	r2, [r3, #16]
  86:lvgl/src/draw/lv_draw_layer.c **** 
  87:lvgl/src/draw/lv_draw_layer.c ****     if(draw_ctx->layer_destroy) draw_ctx->layer_destroy(draw_ctx, layer_ctx);
 269              		.loc 1 87 5 is_stmt 1 view .LVU80
 270              		.loc 1 87 16 is_stmt 0 view .LVU81
 271 0028 AB6C     		ldr	r3, [r5, #72]
 272              		.loc 1 87 7 view .LVU82
 273 002a 13B1     		cbz	r3, .L15
 274              		.loc 1 87 33 is_stmt 1 discriminator 1 view .LVU83
 275 002c 2146     		mov	r1, r4
 276 002e 2846     		mov	r0, r5
 277              	.LVL21:
 278              		.loc 1 87 33 is_stmt 0 discriminator 1 view .LVU84
 279 0030 9847     		blx	r3
 280              	.LVL22:
 281              	.L15:
  88:lvgl/src/draw/lv_draw_layer.c ****     lv_mem_free(layer_ctx);
 282              		.loc 1 88 5 is_stmt 1 view .LVU85
 283 0032 2046     		mov	r0, r4
 284 0034 FFF7FEFF 		bl	lv_mem_free
 285              	.LVL23:
  89:lvgl/src/draw/lv_draw_layer.c **** }
 286              		.loc 1 89 1 is_stmt 0 view .LVU86
 287 0038 38BD     		pop	{r3, r4, r5, pc}
 288              		.loc 1 89 1 view .LVU87
 289              		.cfi_endproc
 290              	.LFE164:
 292              		.text
 293              	.Letext0:
 294              		.file 2 "c:\\tools\\gcc-arm-none-eabi\\arm-none-eabi\\include\\machine\\_default_types.h"
 295              		.file 3 "c:\\tools\\gcc-arm-none-eabi\\arm-none-eabi\\include\\sys\\_stdint.h"
 296              		.file 4 "c:\\tools\\gcc-arm-none-eabi\\lib\\gcc\\arm-none-eabi\\10.3.1\\include\\stddef.h"
 297              		.file 5 "lvgl/src/draw/../misc/../font/../misc/lv_area.h"
 298              		.file 6 "lvgl/src/draw/../misc/../font/lv_font.h"
 299              		.file 7 "lvgl/src/draw/../misc/lv_types.h"
 300              		.file 8 "lvgl/src/draw/../misc/lv_color.h"
 301              		.file 9 "lvgl/src/draw/../misc/lv_txt.h"
 302              		.file 10 "lvgl/src/draw/../misc/lv_bidi.h"
 303              		.file 11 "lvgl/src/draw/../misc/lv_style.h"
 304              		.file 12 "lvgl/src/draw/lv_img_buf.h"
 305              		.file 13 "lvgl/src/draw/../core/lv_obj.h"
 306              		.file 14 "lvgl/src/draw/lv_draw_rect.h"
 307              		.file 15 "lvgl/src/draw/lv_draw_label.h"
 308              		.file 16 "lvgl/src/draw/lv_draw_img.h"
 309              		.file 17 "lvgl/src/draw/lv_draw_line.h"
ARM GAS  C:\Users\OSD\AppData\Local\Temp\ccQD1Pjr.s 			page 8


 310              		.file 18 "lvgl/src/draw/lv_draw_arc.h"
 311              		.file 19 "lvgl/src/draw/lv_draw_layer.h"
 312              		.file 20 "lvgl/src/draw/lv_draw.h"
 313              		.file 21 "lvgl/src/draw/../core/../hal/../misc/lv_ll.h"
 314              		.file 22 "lvgl/src/draw/../core/../hal/../misc/lv_timer.h"
 315              		.file 23 "lvgl/src/draw/../core/../hal/lv_hal_disp.h"
 316              		.file 24 "lvgl/src/draw/../core/lv_group.h"
 317              		.file 25 "lvgl/src/draw/../core/lv_obj_scroll.h"
 318              		.file 26 "lvgl/src/draw/../core/lv_obj_style.h"
 319              		.file 27 "lvgl/src/draw/../core/lv_obj_class.h"
 320              		.file 28 "lvgl/src/draw/../core/lv_event.h"
 321              		.file 29 "lvgl/src/draw/../core/lv_refr.h"
 322              		.file 30 "lvgl/src/draw/../misc/lv_mem.h"
ARM GAS  C:\Users\OSD\AppData\Local\Temp\ccQD1Pjr.s 			page 9

