ARM GAS  C:\Users\OSD\AppData\Local\Temp\ccrPpCVL.s 			page 1


   1              		.cpu cortex-m7
   2              		.arch armv7e-m
   3              		.fpu fpv5-d16
   4              		.eabi_attribute 28, 1
   5              		.eabi_attribute 20, 1
   6              		.eabi_attribute 21, 1
   7              		.eabi_attribute 23, 3
   8              		.eabi_attribute 24, 1
   9              		.eabi_attribute 25, 1
  10              		.eabi_attribute 26, 1
  11              		.eabi_attribute 30, 1
  12              		.eabi_attribute 34, 1
  13              		.eabi_attribute 18, 4
  14              		.file	"lv_draw_sw_blend.c"
  15              		.text
  16              	.Ltext0:
  17              		.cfi_sections	.debug_frame
  18              		.section	.text.fill_blended,"ax",%progbits
  19              		.align	1
  20              		.syntax unified
  21              		.thumb
  22              		.thumb_func
  24              	fill_blended:
  25              	.LVL0:
  26              	.LFB165:
  27              		.file 1 "lvgl/src/draw/sw/lv_draw_sw_blend.c"
   1:lvgl/src/draw/sw/lv_draw_sw_blend.c **** /**
   2:lvgl/src/draw/sw/lv_draw_sw_blend.c ****  * @file lv_draw_sw_blend.c
   3:lvgl/src/draw/sw/lv_draw_sw_blend.c ****  *
   4:lvgl/src/draw/sw/lv_draw_sw_blend.c ****  */
   5:lvgl/src/draw/sw/lv_draw_sw_blend.c **** 
   6:lvgl/src/draw/sw/lv_draw_sw_blend.c **** /*********************
   7:lvgl/src/draw/sw/lv_draw_sw_blend.c ****  *      INCLUDES
   8:lvgl/src/draw/sw/lv_draw_sw_blend.c ****  *********************/
   9:lvgl/src/draw/sw/lv_draw_sw_blend.c **** #include "lv_draw_sw.h"
  10:lvgl/src/draw/sw/lv_draw_sw_blend.c **** #include "../../misc/lv_math.h"
  11:lvgl/src/draw/sw/lv_draw_sw_blend.c **** #include "../../hal/lv_hal_disp.h"
  12:lvgl/src/draw/sw/lv_draw_sw_blend.c **** #include "../../core/lv_refr.h"
  13:lvgl/src/draw/sw/lv_draw_sw_blend.c **** 
  14:lvgl/src/draw/sw/lv_draw_sw_blend.c **** /*********************
  15:lvgl/src/draw/sw/lv_draw_sw_blend.c ****  *      DEFINES
  16:lvgl/src/draw/sw/lv_draw_sw_blend.c ****  *********************/
  17:lvgl/src/draw/sw/lv_draw_sw_blend.c **** 
  18:lvgl/src/draw/sw/lv_draw_sw_blend.c **** /**********************
  19:lvgl/src/draw/sw/lv_draw_sw_blend.c ****  *      TYPEDEFS
  20:lvgl/src/draw/sw/lv_draw_sw_blend.c ****  **********************/
  21:lvgl/src/draw/sw/lv_draw_sw_blend.c **** 
  22:lvgl/src/draw/sw/lv_draw_sw_blend.c **** /**********************
  23:lvgl/src/draw/sw/lv_draw_sw_blend.c ****  *  STATIC PROTOTYPES
  24:lvgl/src/draw/sw/lv_draw_sw_blend.c ****  **********************/
  25:lvgl/src/draw/sw/lv_draw_sw_blend.c **** 
  26:lvgl/src/draw/sw/lv_draw_sw_blend.c **** static void fill_set_px(lv_color_t * dest_buf, const lv_area_t * blend_area, lv_coord_t dest_stride
  27:lvgl/src/draw/sw/lv_draw_sw_blend.c ****                         lv_color_t color, lv_opa_t opa, const lv_opa_t * mask, lv_coord_t mask_stid
  28:lvgl/src/draw/sw/lv_draw_sw_blend.c **** 
  29:lvgl/src/draw/sw/lv_draw_sw_blend.c **** static void /* LV_ATTRIBUTE_FAST_MEM */ fill_normal(lv_color_t * dest_buf, const lv_area_t * dest_a
  30:lvgl/src/draw/sw/lv_draw_sw_blend.c ****                                                     lv_coord_t dest_stride, lv_color_t color, lv_op
  31:lvgl/src/draw/sw/lv_draw_sw_blend.c ****                                                     const lv_opa_t * mask, lv_coord_t mask_stride);
ARM GAS  C:\Users\OSD\AppData\Local\Temp\ccrPpCVL.s 			page 2


  32:lvgl/src/draw/sw/lv_draw_sw_blend.c **** 
  33:lvgl/src/draw/sw/lv_draw_sw_blend.c **** #if LV_COLOR_SCREEN_TRANSP
  34:lvgl/src/draw/sw/lv_draw_sw_blend.c **** static void /* LV_ATTRIBUTE_FAST_MEM */ fill_argb(lv_color_t * dest_buf, const lv_area_t * dest_are
  35:lvgl/src/draw/sw/lv_draw_sw_blend.c ****                                                   lv_coord_t dest_stride, lv_color_t color, lv_opa_
  36:lvgl/src/draw/sw/lv_draw_sw_blend.c ****                                                   const lv_opa_t * mask, lv_coord_t mask_stride);
  37:lvgl/src/draw/sw/lv_draw_sw_blend.c **** #endif /*LV_COLOR_SCREEN_TRANSP*/
  38:lvgl/src/draw/sw/lv_draw_sw_blend.c **** 
  39:lvgl/src/draw/sw/lv_draw_sw_blend.c **** #if LV_DRAW_COMPLEX
  40:lvgl/src/draw/sw/lv_draw_sw_blend.c **** static void fill_blended(lv_color_t * dest_buf, const lv_area_t * dest_area, lv_coord_t dest_stride
  41:lvgl/src/draw/sw/lv_draw_sw_blend.c ****                          lv_opa_t opa, const lv_opa_t * mask, lv_coord_t mask_stride, lv_blend_mode
  42:lvgl/src/draw/sw/lv_draw_sw_blend.c **** #endif  /*LV_DRAW_COMPLEX*/
  43:lvgl/src/draw/sw/lv_draw_sw_blend.c **** 
  44:lvgl/src/draw/sw/lv_draw_sw_blend.c **** static void map_set_px(lv_color_t * dest_buf, const lv_area_t * dest_area, lv_coord_t dest_stride,
  45:lvgl/src/draw/sw/lv_draw_sw_blend.c ****                        const lv_color_t * src_buf, lv_coord_t src_stride, lv_opa_t opa,
  46:lvgl/src/draw/sw/lv_draw_sw_blend.c ****                        const lv_opa_t * mask, lv_coord_t mask_stride);
  47:lvgl/src/draw/sw/lv_draw_sw_blend.c **** 
  48:lvgl/src/draw/sw/lv_draw_sw_blend.c **** static void /* LV_ATTRIBUTE_FAST_MEM */ map_normal(lv_color_t * dest_buf, const lv_area_t * dest_ar
  49:lvgl/src/draw/sw/lv_draw_sw_blend.c ****                                                    lv_coord_t dest_stride, const lv_color_t * src_b
  50:lvgl/src/draw/sw/lv_draw_sw_blend.c ****                                                    lv_coord_t src_stride, lv_opa_t opa, const lv_op
  51:lvgl/src/draw/sw/lv_draw_sw_blend.c ****                                                    lv_coord_t mask_stride);
  52:lvgl/src/draw/sw/lv_draw_sw_blend.c **** 
  53:lvgl/src/draw/sw/lv_draw_sw_blend.c **** #if LV_COLOR_SCREEN_TRANSP
  54:lvgl/src/draw/sw/lv_draw_sw_blend.c **** static void /* LV_ATTRIBUTE_FAST_MEM */ map_argb(lv_color_t * dest_buf, const lv_area_t * dest_area
  55:lvgl/src/draw/sw/lv_draw_sw_blend.c ****                                                  lv_coord_t dest_stride, const lv_color_t * src_buf
  56:lvgl/src/draw/sw/lv_draw_sw_blend.c ****                                                  lv_coord_t src_stride, lv_opa_t opa, const lv_opa_
  57:lvgl/src/draw/sw/lv_draw_sw_blend.c ****                                                  lv_coord_t mask_stride, lv_blend_mode_t blend_mode
  58:lvgl/src/draw/sw/lv_draw_sw_blend.c **** 
  59:lvgl/src/draw/sw/lv_draw_sw_blend.c **** #endif /*LV_COLOR_SCREEN_TRANSP*/
  60:lvgl/src/draw/sw/lv_draw_sw_blend.c **** 
  61:lvgl/src/draw/sw/lv_draw_sw_blend.c **** #if LV_DRAW_COMPLEX
  62:lvgl/src/draw/sw/lv_draw_sw_blend.c **** static void map_blended(lv_color_t * dest_buf, const lv_area_t * dest_area, lv_coord_t dest_stride,
  63:lvgl/src/draw/sw/lv_draw_sw_blend.c ****                         const lv_color_t * src_buf, lv_coord_t src_stride, lv_opa_t opa,
  64:lvgl/src/draw/sw/lv_draw_sw_blend.c ****                         const lv_opa_t * mask, lv_coord_t mask_stride, lv_blend_mode_t blend_mode);
  65:lvgl/src/draw/sw/lv_draw_sw_blend.c **** 
  66:lvgl/src/draw/sw/lv_draw_sw_blend.c **** static inline lv_color_t color_blend_true_color_additive(lv_color_t fg, lv_color_t bg, lv_opa_t opa
  67:lvgl/src/draw/sw/lv_draw_sw_blend.c **** static inline lv_color_t color_blend_true_color_subtractive(lv_color_t fg, lv_color_t bg, lv_opa_t 
  68:lvgl/src/draw/sw/lv_draw_sw_blend.c **** static inline lv_color_t color_blend_true_color_multiply(lv_color_t fg, lv_color_t bg, lv_opa_t opa
  69:lvgl/src/draw/sw/lv_draw_sw_blend.c **** #endif /*LV_DRAW_COMPLEX*/
  70:lvgl/src/draw/sw/lv_draw_sw_blend.c **** 
  71:lvgl/src/draw/sw/lv_draw_sw_blend.c **** /**********************
  72:lvgl/src/draw/sw/lv_draw_sw_blend.c ****  *  STATIC VARIABLES
  73:lvgl/src/draw/sw/lv_draw_sw_blend.c ****  **********************/
  74:lvgl/src/draw/sw/lv_draw_sw_blend.c **** 
  75:lvgl/src/draw/sw/lv_draw_sw_blend.c **** /**********************
  76:lvgl/src/draw/sw/lv_draw_sw_blend.c ****  *      MACROS
  77:lvgl/src/draw/sw/lv_draw_sw_blend.c ****  **********************/
  78:lvgl/src/draw/sw/lv_draw_sw_blend.c **** #define FILL_NORMAL_MASK_PX(color)                                                          \
  79:lvgl/src/draw/sw/lv_draw_sw_blend.c ****     if(*mask == LV_OPA_COVER) *dest_buf = color;                                 \
  80:lvgl/src/draw/sw/lv_draw_sw_blend.c ****     else *dest_buf = lv_color_mix(color, *dest_buf, *mask);            \
  81:lvgl/src/draw/sw/lv_draw_sw_blend.c ****     mask++;                                                         \
  82:lvgl/src/draw/sw/lv_draw_sw_blend.c ****     dest_buf++;
  83:lvgl/src/draw/sw/lv_draw_sw_blend.c **** 
  84:lvgl/src/draw/sw/lv_draw_sw_blend.c **** #define MAP_NORMAL_MASK_PX(x)                                                          \
  85:lvgl/src/draw/sw/lv_draw_sw_blend.c ****     if(*mask_tmp_x) {          \
  86:lvgl/src/draw/sw/lv_draw_sw_blend.c ****         if(*mask_tmp_x == LV_OPA_COVER) dest_buf[x] = src_buf[x];                                 \
  87:lvgl/src/draw/sw/lv_draw_sw_blend.c ****         else dest_buf[x] = lv_color_mix(src_buf[x], dest_buf[x], *mask_tmp_x);            \
  88:lvgl/src/draw/sw/lv_draw_sw_blend.c ****     }                                                                                              
ARM GAS  C:\Users\OSD\AppData\Local\Temp\ccrPpCVL.s 			page 3


  89:lvgl/src/draw/sw/lv_draw_sw_blend.c ****     mask_tmp_x++;
  90:lvgl/src/draw/sw/lv_draw_sw_blend.c **** 
  91:lvgl/src/draw/sw/lv_draw_sw_blend.c **** /**********************
  92:lvgl/src/draw/sw/lv_draw_sw_blend.c ****  *   GLOBAL FUNCTIONS
  93:lvgl/src/draw/sw/lv_draw_sw_blend.c ****  **********************/
  94:lvgl/src/draw/sw/lv_draw_sw_blend.c **** 
  95:lvgl/src/draw/sw/lv_draw_sw_blend.c **** void lv_draw_sw_blend(lv_draw_ctx_t * draw_ctx, const lv_draw_sw_blend_dsc_t * dsc)
  96:lvgl/src/draw/sw/lv_draw_sw_blend.c **** {
  97:lvgl/src/draw/sw/lv_draw_sw_blend.c ****     /*Do not draw transparent things*/
  98:lvgl/src/draw/sw/lv_draw_sw_blend.c ****     if(dsc->opa <= LV_OPA_MIN) return;
  99:lvgl/src/draw/sw/lv_draw_sw_blend.c **** 
 100:lvgl/src/draw/sw/lv_draw_sw_blend.c ****     lv_area_t blend_area;
 101:lvgl/src/draw/sw/lv_draw_sw_blend.c ****     if(!_lv_area_intersect(&blend_area, dsc->blend_area, draw_ctx->clip_area)) return;
 102:lvgl/src/draw/sw/lv_draw_sw_blend.c **** 
 103:lvgl/src/draw/sw/lv_draw_sw_blend.c ****     if(draw_ctx->wait_for_finish) draw_ctx->wait_for_finish(draw_ctx);
 104:lvgl/src/draw/sw/lv_draw_sw_blend.c **** 
 105:lvgl/src/draw/sw/lv_draw_sw_blend.c ****     ((lv_draw_sw_ctx_t *)draw_ctx)->blend(draw_ctx, dsc);
 106:lvgl/src/draw/sw/lv_draw_sw_blend.c **** }
 107:lvgl/src/draw/sw/lv_draw_sw_blend.c **** 
 108:lvgl/src/draw/sw/lv_draw_sw_blend.c **** void LV_ATTRIBUTE_FAST_MEM lv_draw_sw_blend_basic(lv_draw_ctx_t * draw_ctx,
 109:lvgl/src/draw/sw/lv_draw_sw_blend.c ****                                                   const lv_draw_sw_blend_dsc_t * dsc)
 110:lvgl/src/draw/sw/lv_draw_sw_blend.c **** {
 111:lvgl/src/draw/sw/lv_draw_sw_blend.c ****     lv_opa_t * mask;
 112:lvgl/src/draw/sw/lv_draw_sw_blend.c ****     if(dsc->mask_buf == NULL) mask = NULL;
 113:lvgl/src/draw/sw/lv_draw_sw_blend.c ****     if(dsc->mask_buf && dsc->mask_res == LV_DRAW_MASK_RES_TRANSP) return;
 114:lvgl/src/draw/sw/lv_draw_sw_blend.c ****     else if(dsc->mask_res == LV_DRAW_MASK_RES_FULL_COVER) mask = NULL;
 115:lvgl/src/draw/sw/lv_draw_sw_blend.c ****     else mask = dsc->mask_buf;
 116:lvgl/src/draw/sw/lv_draw_sw_blend.c **** 
 117:lvgl/src/draw/sw/lv_draw_sw_blend.c ****     lv_coord_t dest_stride = lv_area_get_width(draw_ctx->buf_area);
 118:lvgl/src/draw/sw/lv_draw_sw_blend.c **** 
 119:lvgl/src/draw/sw/lv_draw_sw_blend.c ****     lv_area_t blend_area;
 120:lvgl/src/draw/sw/lv_draw_sw_blend.c ****     if(!_lv_area_intersect(&blend_area, dsc->blend_area, draw_ctx->clip_area)) return;
 121:lvgl/src/draw/sw/lv_draw_sw_blend.c **** 
 122:lvgl/src/draw/sw/lv_draw_sw_blend.c ****     lv_disp_t * disp = _lv_refr_get_disp_refreshing();
 123:lvgl/src/draw/sw/lv_draw_sw_blend.c ****     lv_color_t * dest_buf = draw_ctx->buf;
 124:lvgl/src/draw/sw/lv_draw_sw_blend.c ****     if(disp->driver->set_px_cb == NULL) {
 125:lvgl/src/draw/sw/lv_draw_sw_blend.c ****         if(disp->driver->screen_transp == 0) {
 126:lvgl/src/draw/sw/lv_draw_sw_blend.c ****             dest_buf += dest_stride * (blend_area.y1 - draw_ctx->buf_area->y1) + (blend_area.x1 - d
 127:lvgl/src/draw/sw/lv_draw_sw_blend.c ****         }
 128:lvgl/src/draw/sw/lv_draw_sw_blend.c ****         else {
 129:lvgl/src/draw/sw/lv_draw_sw_blend.c ****             /*With LV_COLOR_DEPTH 16 it means ARGB8565 (3 bytes format)*/
 130:lvgl/src/draw/sw/lv_draw_sw_blend.c ****             uint8_t * dest_buf8 = (uint8_t *) dest_buf;
 131:lvgl/src/draw/sw/lv_draw_sw_blend.c ****             dest_buf8 += dest_stride * (blend_area.y1 - draw_ctx->buf_area->y1) * LV_IMG_PX_SIZE_AL
 132:lvgl/src/draw/sw/lv_draw_sw_blend.c ****             dest_buf8 += (blend_area.x1 - draw_ctx->buf_area->x1) * LV_IMG_PX_SIZE_ALPHA_BYTE;
 133:lvgl/src/draw/sw/lv_draw_sw_blend.c ****             dest_buf = (lv_color_t *)dest_buf8;
 134:lvgl/src/draw/sw/lv_draw_sw_blend.c ****         }
 135:lvgl/src/draw/sw/lv_draw_sw_blend.c ****     }
 136:lvgl/src/draw/sw/lv_draw_sw_blend.c **** 
 137:lvgl/src/draw/sw/lv_draw_sw_blend.c ****     const lv_color_t * src_buf = dsc->src_buf;
 138:lvgl/src/draw/sw/lv_draw_sw_blend.c ****     lv_coord_t src_stride;
 139:lvgl/src/draw/sw/lv_draw_sw_blend.c ****     if(src_buf) {
 140:lvgl/src/draw/sw/lv_draw_sw_blend.c ****         src_stride = lv_area_get_width(dsc->blend_area);
 141:lvgl/src/draw/sw/lv_draw_sw_blend.c ****         src_buf += src_stride * (blend_area.y1 - dsc->blend_area->y1) + (blend_area.x1 - dsc->blend
 142:lvgl/src/draw/sw/lv_draw_sw_blend.c ****     }
 143:lvgl/src/draw/sw/lv_draw_sw_blend.c ****     else {
 144:lvgl/src/draw/sw/lv_draw_sw_blend.c ****         src_stride = 0;
 145:lvgl/src/draw/sw/lv_draw_sw_blend.c ****     }
ARM GAS  C:\Users\OSD\AppData\Local\Temp\ccrPpCVL.s 			page 4


 146:lvgl/src/draw/sw/lv_draw_sw_blend.c **** 
 147:lvgl/src/draw/sw/lv_draw_sw_blend.c ****     lv_coord_t mask_stride;
 148:lvgl/src/draw/sw/lv_draw_sw_blend.c ****     if(mask) {
 149:lvgl/src/draw/sw/lv_draw_sw_blend.c ****         /*Round the values in the mask if anti-aliasing is disabled*/
 150:lvgl/src/draw/sw/lv_draw_sw_blend.c ****         if(disp->driver->antialiasing == 0) {
 151:lvgl/src/draw/sw/lv_draw_sw_blend.c ****             int32_t mask_size = lv_area_get_size(dsc->mask_area);
 152:lvgl/src/draw/sw/lv_draw_sw_blend.c ****             int32_t i;
 153:lvgl/src/draw/sw/lv_draw_sw_blend.c ****             for(i = 0; i < mask_size; i++) {
 154:lvgl/src/draw/sw/lv_draw_sw_blend.c ****                 mask[i] = mask[i] > 128 ? LV_OPA_COVER : LV_OPA_TRANSP;
 155:lvgl/src/draw/sw/lv_draw_sw_blend.c ****             }
 156:lvgl/src/draw/sw/lv_draw_sw_blend.c ****         }
 157:lvgl/src/draw/sw/lv_draw_sw_blend.c **** 
 158:lvgl/src/draw/sw/lv_draw_sw_blend.c ****         mask_stride = lv_area_get_width(dsc->mask_area);
 159:lvgl/src/draw/sw/lv_draw_sw_blend.c ****         mask += mask_stride * (blend_area.y1 - dsc->mask_area->y1) + (blend_area.x1 - dsc->mask_are
 160:lvgl/src/draw/sw/lv_draw_sw_blend.c **** 
 161:lvgl/src/draw/sw/lv_draw_sw_blend.c ****     }
 162:lvgl/src/draw/sw/lv_draw_sw_blend.c ****     else {
 163:lvgl/src/draw/sw/lv_draw_sw_blend.c ****         mask_stride = 0;
 164:lvgl/src/draw/sw/lv_draw_sw_blend.c ****     }
 165:lvgl/src/draw/sw/lv_draw_sw_blend.c **** 
 166:lvgl/src/draw/sw/lv_draw_sw_blend.c ****     lv_area_move(&blend_area, -draw_ctx->buf_area->x1, -draw_ctx->buf_area->y1);
 167:lvgl/src/draw/sw/lv_draw_sw_blend.c **** 
 168:lvgl/src/draw/sw/lv_draw_sw_blend.c ****     if(disp->driver->set_px_cb) {
 169:lvgl/src/draw/sw/lv_draw_sw_blend.c ****         if(dsc->src_buf == NULL) {
 170:lvgl/src/draw/sw/lv_draw_sw_blend.c ****             fill_set_px(dest_buf, &blend_area, dest_stride, dsc->color, dsc->opa, mask, mask_stride
 171:lvgl/src/draw/sw/lv_draw_sw_blend.c ****         }
 172:lvgl/src/draw/sw/lv_draw_sw_blend.c ****         else {
 173:lvgl/src/draw/sw/lv_draw_sw_blend.c ****             map_set_px(dest_buf, &blend_area, dest_stride, src_buf, src_stride, dsc->opa, mask, mas
 174:lvgl/src/draw/sw/lv_draw_sw_blend.c ****         }
 175:lvgl/src/draw/sw/lv_draw_sw_blend.c ****     }
 176:lvgl/src/draw/sw/lv_draw_sw_blend.c **** #if LV_COLOR_SCREEN_TRANSP
 177:lvgl/src/draw/sw/lv_draw_sw_blend.c ****     else if(disp->driver->screen_transp) {
 178:lvgl/src/draw/sw/lv_draw_sw_blend.c ****         if(dsc->src_buf == NULL) {
 179:lvgl/src/draw/sw/lv_draw_sw_blend.c ****             fill_argb(dest_buf, &blend_area, dest_stride, dsc->color, dsc->opa, mask, mask_stride);
 180:lvgl/src/draw/sw/lv_draw_sw_blend.c ****         }
 181:lvgl/src/draw/sw/lv_draw_sw_blend.c ****         else {
 182:lvgl/src/draw/sw/lv_draw_sw_blend.c ****             map_argb(dest_buf, &blend_area, dest_stride, src_buf, src_stride, dsc->opa, mask, mask_
 183:lvgl/src/draw/sw/lv_draw_sw_blend.c ****         }
 184:lvgl/src/draw/sw/lv_draw_sw_blend.c ****     }
 185:lvgl/src/draw/sw/lv_draw_sw_blend.c **** #endif
 186:lvgl/src/draw/sw/lv_draw_sw_blend.c ****     else if(dsc->blend_mode == LV_BLEND_MODE_NORMAL) {
 187:lvgl/src/draw/sw/lv_draw_sw_blend.c ****         if(dsc->src_buf == NULL) {
 188:lvgl/src/draw/sw/lv_draw_sw_blend.c ****             fill_normal(dest_buf, &blend_area, dest_stride, dsc->color, dsc->opa, mask, mask_stride
 189:lvgl/src/draw/sw/lv_draw_sw_blend.c ****         }
 190:lvgl/src/draw/sw/lv_draw_sw_blend.c ****         else {
 191:lvgl/src/draw/sw/lv_draw_sw_blend.c ****             map_normal(dest_buf, &blend_area, dest_stride, src_buf, src_stride, dsc->opa, mask, mas
 192:lvgl/src/draw/sw/lv_draw_sw_blend.c ****         }
 193:lvgl/src/draw/sw/lv_draw_sw_blend.c ****     }
 194:lvgl/src/draw/sw/lv_draw_sw_blend.c ****     else {
 195:lvgl/src/draw/sw/lv_draw_sw_blend.c **** #if LV_DRAW_COMPLEX
 196:lvgl/src/draw/sw/lv_draw_sw_blend.c ****         if(dsc->src_buf == NULL) {
 197:lvgl/src/draw/sw/lv_draw_sw_blend.c ****             fill_blended(dest_buf, &blend_area, dest_stride, dsc->color, dsc->opa, mask, mask_strid
 198:lvgl/src/draw/sw/lv_draw_sw_blend.c ****         }
 199:lvgl/src/draw/sw/lv_draw_sw_blend.c ****         else {
 200:lvgl/src/draw/sw/lv_draw_sw_blend.c ****             map_blended(dest_buf, &blend_area, dest_stride, src_buf, src_stride, dsc->opa, mask, ma
 201:lvgl/src/draw/sw/lv_draw_sw_blend.c ****         }
 202:lvgl/src/draw/sw/lv_draw_sw_blend.c **** #endif
ARM GAS  C:\Users\OSD\AppData\Local\Temp\ccrPpCVL.s 			page 5


 203:lvgl/src/draw/sw/lv_draw_sw_blend.c ****     }
 204:lvgl/src/draw/sw/lv_draw_sw_blend.c **** }
 205:lvgl/src/draw/sw/lv_draw_sw_blend.c **** 
 206:lvgl/src/draw/sw/lv_draw_sw_blend.c **** /**********************
 207:lvgl/src/draw/sw/lv_draw_sw_blend.c ****  *   STATIC FUNCTIONS
 208:lvgl/src/draw/sw/lv_draw_sw_blend.c ****  **********************/
 209:lvgl/src/draw/sw/lv_draw_sw_blend.c **** 
 210:lvgl/src/draw/sw/lv_draw_sw_blend.c **** static void fill_set_px(lv_color_t * dest_buf, const lv_area_t * blend_area, lv_coord_t dest_stride
 211:lvgl/src/draw/sw/lv_draw_sw_blend.c ****                         lv_color_t color, lv_opa_t opa, const lv_opa_t * mask, lv_coord_t mask_stid
 212:lvgl/src/draw/sw/lv_draw_sw_blend.c **** {
 213:lvgl/src/draw/sw/lv_draw_sw_blend.c ****     lv_disp_t * disp = _lv_refr_get_disp_refreshing();
 214:lvgl/src/draw/sw/lv_draw_sw_blend.c **** 
 215:lvgl/src/draw/sw/lv_draw_sw_blend.c ****     int32_t x;
 216:lvgl/src/draw/sw/lv_draw_sw_blend.c ****     int32_t y;
 217:lvgl/src/draw/sw/lv_draw_sw_blend.c **** 
 218:lvgl/src/draw/sw/lv_draw_sw_blend.c ****     if(mask == NULL) {
 219:lvgl/src/draw/sw/lv_draw_sw_blend.c ****         for(y = blend_area->y1; y <= blend_area->y2; y++) {
 220:lvgl/src/draw/sw/lv_draw_sw_blend.c ****             for(x = blend_area->x1; x <= blend_area->x2; x++) {
 221:lvgl/src/draw/sw/lv_draw_sw_blend.c ****                 disp->driver->set_px_cb(disp->driver, (void *)dest_buf, dest_stride, x, y, color, o
 222:lvgl/src/draw/sw/lv_draw_sw_blend.c ****             }
 223:lvgl/src/draw/sw/lv_draw_sw_blend.c ****         }
 224:lvgl/src/draw/sw/lv_draw_sw_blend.c ****     }
 225:lvgl/src/draw/sw/lv_draw_sw_blend.c ****     else {
 226:lvgl/src/draw/sw/lv_draw_sw_blend.c ****         int32_t w = lv_area_get_width(blend_area);
 227:lvgl/src/draw/sw/lv_draw_sw_blend.c ****         int32_t h = lv_area_get_height(blend_area);
 228:lvgl/src/draw/sw/lv_draw_sw_blend.c **** 
 229:lvgl/src/draw/sw/lv_draw_sw_blend.c ****         for(y = 0; y < h; y++) {
 230:lvgl/src/draw/sw/lv_draw_sw_blend.c ****             for(x = 0; x < w; x++) {
 231:lvgl/src/draw/sw/lv_draw_sw_blend.c ****                 if(mask[x]) {
 232:lvgl/src/draw/sw/lv_draw_sw_blend.c **** 
 233:lvgl/src/draw/sw/lv_draw_sw_blend.c ****                     disp->driver->set_px_cb(disp->driver, (void *)dest_buf, dest_stride, blend_area
 234:lvgl/src/draw/sw/lv_draw_sw_blend.c ****                                             (uint32_t)((uint32_t)opa * mask[x]) >> 8);
 235:lvgl/src/draw/sw/lv_draw_sw_blend.c ****                 }
 236:lvgl/src/draw/sw/lv_draw_sw_blend.c ****             }
 237:lvgl/src/draw/sw/lv_draw_sw_blend.c ****             mask += mask_stide;
 238:lvgl/src/draw/sw/lv_draw_sw_blend.c ****         }
 239:lvgl/src/draw/sw/lv_draw_sw_blend.c ****     }
 240:lvgl/src/draw/sw/lv_draw_sw_blend.c **** }
 241:lvgl/src/draw/sw/lv_draw_sw_blend.c **** 
 242:lvgl/src/draw/sw/lv_draw_sw_blend.c **** static LV_ATTRIBUTE_FAST_MEM void fill_normal(lv_color_t * dest_buf, const lv_area_t * dest_area,
 243:lvgl/src/draw/sw/lv_draw_sw_blend.c ****                                               lv_coord_t dest_stride, lv_color_t color, lv_opa_t op
 244:lvgl/src/draw/sw/lv_draw_sw_blend.c ****                                               const lv_opa_t * mask, lv_coord_t mask_stride)
 245:lvgl/src/draw/sw/lv_draw_sw_blend.c **** {
 246:lvgl/src/draw/sw/lv_draw_sw_blend.c ****     int32_t w = lv_area_get_width(dest_area);
 247:lvgl/src/draw/sw/lv_draw_sw_blend.c ****     int32_t h = lv_area_get_height(dest_area);
 248:lvgl/src/draw/sw/lv_draw_sw_blend.c **** 
 249:lvgl/src/draw/sw/lv_draw_sw_blend.c ****     int32_t x;
 250:lvgl/src/draw/sw/lv_draw_sw_blend.c ****     int32_t y;
 251:lvgl/src/draw/sw/lv_draw_sw_blend.c **** 
 252:lvgl/src/draw/sw/lv_draw_sw_blend.c ****     /*No mask*/
 253:lvgl/src/draw/sw/lv_draw_sw_blend.c ****     if(mask == NULL) {
 254:lvgl/src/draw/sw/lv_draw_sw_blend.c ****         if(opa >= LV_OPA_MAX) {
 255:lvgl/src/draw/sw/lv_draw_sw_blend.c ****             for(y = 0; y < h; y++) {
 256:lvgl/src/draw/sw/lv_draw_sw_blend.c ****                 lv_color_fill(dest_buf, color, w);
 257:lvgl/src/draw/sw/lv_draw_sw_blend.c ****                 dest_buf += dest_stride;
 258:lvgl/src/draw/sw/lv_draw_sw_blend.c ****             }
 259:lvgl/src/draw/sw/lv_draw_sw_blend.c ****         }
ARM GAS  C:\Users\OSD\AppData\Local\Temp\ccrPpCVL.s 			page 6


 260:lvgl/src/draw/sw/lv_draw_sw_blend.c ****         /*Has opacity*/
 261:lvgl/src/draw/sw/lv_draw_sw_blend.c ****         else {
 262:lvgl/src/draw/sw/lv_draw_sw_blend.c ****             lv_color_t last_dest_color = lv_color_black();
 263:lvgl/src/draw/sw/lv_draw_sw_blend.c ****             lv_color_t last_res_color = lv_color_mix(color, last_dest_color, opa);
 264:lvgl/src/draw/sw/lv_draw_sw_blend.c **** 
 265:lvgl/src/draw/sw/lv_draw_sw_blend.c **** #if LV_COLOR_MIX_ROUND_OFS == 0 && LV_COLOR_DEPTH == 16
 266:lvgl/src/draw/sw/lv_draw_sw_blend.c ****             /*lv_color_mix work with an optimized algorithm with 16 bit color depth.
 267:lvgl/src/draw/sw/lv_draw_sw_blend.c ****              *However, it introduces some rounded error on opa.
 268:lvgl/src/draw/sw/lv_draw_sw_blend.c ****              *Introduce the same error here too to make lv_color_premult produces the same result *
 269:lvgl/src/draw/sw/lv_draw_sw_blend.c ****             opa = (uint32_t)((uint32_t)opa + 4) >> 3;
 270:lvgl/src/draw/sw/lv_draw_sw_blend.c ****             opa = opa << 3;
 271:lvgl/src/draw/sw/lv_draw_sw_blend.c **** #endif
 272:lvgl/src/draw/sw/lv_draw_sw_blend.c **** 
 273:lvgl/src/draw/sw/lv_draw_sw_blend.c ****             uint16_t color_premult[3];
 274:lvgl/src/draw/sw/lv_draw_sw_blend.c ****             lv_color_premult(color, opa, color_premult);
 275:lvgl/src/draw/sw/lv_draw_sw_blend.c ****             lv_opa_t opa_inv = 255 - opa;
 276:lvgl/src/draw/sw/lv_draw_sw_blend.c **** 
 277:lvgl/src/draw/sw/lv_draw_sw_blend.c ****             for(y = 0; y < h; y++) {
 278:lvgl/src/draw/sw/lv_draw_sw_blend.c ****                 for(x = 0; x < w; x++) {
 279:lvgl/src/draw/sw/lv_draw_sw_blend.c ****                     if(last_dest_color.full != dest_buf[x].full) {
 280:lvgl/src/draw/sw/lv_draw_sw_blend.c ****                         last_dest_color = dest_buf[x];
 281:lvgl/src/draw/sw/lv_draw_sw_blend.c ****                         last_res_color = lv_color_mix_premult(color_premult, dest_buf[x], opa_inv);
 282:lvgl/src/draw/sw/lv_draw_sw_blend.c ****                     }
 283:lvgl/src/draw/sw/lv_draw_sw_blend.c ****                     dest_buf[x] = last_res_color;
 284:lvgl/src/draw/sw/lv_draw_sw_blend.c ****                 }
 285:lvgl/src/draw/sw/lv_draw_sw_blend.c ****                 dest_buf += dest_stride;
 286:lvgl/src/draw/sw/lv_draw_sw_blend.c ****             }
 287:lvgl/src/draw/sw/lv_draw_sw_blend.c ****         }
 288:lvgl/src/draw/sw/lv_draw_sw_blend.c ****     }
 289:lvgl/src/draw/sw/lv_draw_sw_blend.c ****     /*Masked*/
 290:lvgl/src/draw/sw/lv_draw_sw_blend.c ****     else {
 291:lvgl/src/draw/sw/lv_draw_sw_blend.c **** #if LV_COLOR_DEPTH == 16
 292:lvgl/src/draw/sw/lv_draw_sw_blend.c ****         uint32_t c32 = color.full + ((uint32_t)color.full << 16);
 293:lvgl/src/draw/sw/lv_draw_sw_blend.c **** #endif
 294:lvgl/src/draw/sw/lv_draw_sw_blend.c ****         /*Only the mask matters*/
 295:lvgl/src/draw/sw/lv_draw_sw_blend.c ****         if(opa >= LV_OPA_MAX) {
 296:lvgl/src/draw/sw/lv_draw_sw_blend.c ****             int32_t x_end4 = w - 4;
 297:lvgl/src/draw/sw/lv_draw_sw_blend.c ****             for(y = 0; y < h; y++) {
 298:lvgl/src/draw/sw/lv_draw_sw_blend.c ****                 for(x = 0; x < w && ((lv_uintptr_t)(mask) & 0x3); x++) {
 299:lvgl/src/draw/sw/lv_draw_sw_blend.c ****                     FILL_NORMAL_MASK_PX(color)
 300:lvgl/src/draw/sw/lv_draw_sw_blend.c ****                 }
 301:lvgl/src/draw/sw/lv_draw_sw_blend.c **** 
 302:lvgl/src/draw/sw/lv_draw_sw_blend.c ****                 for(; x <= x_end4; x += 4) {
 303:lvgl/src/draw/sw/lv_draw_sw_blend.c ****                     uint32_t mask32 = *((uint32_t *)mask);
 304:lvgl/src/draw/sw/lv_draw_sw_blend.c ****                     if(mask32 == 0xFFFFFFFF) {
 305:lvgl/src/draw/sw/lv_draw_sw_blend.c **** #if LV_COLOR_DEPTH == 16
 306:lvgl/src/draw/sw/lv_draw_sw_blend.c ****                         if((lv_uintptr_t)dest_buf & 0x3) {
 307:lvgl/src/draw/sw/lv_draw_sw_blend.c ****                             *(dest_buf + 0) = color;
 308:lvgl/src/draw/sw/lv_draw_sw_blend.c ****                             uint32_t * d = (uint32_t *)(dest_buf + 1);
 309:lvgl/src/draw/sw/lv_draw_sw_blend.c ****                             *d = c32;
 310:lvgl/src/draw/sw/lv_draw_sw_blend.c ****                             *(dest_buf + 3) = color;
 311:lvgl/src/draw/sw/lv_draw_sw_blend.c ****                         }
 312:lvgl/src/draw/sw/lv_draw_sw_blend.c ****                         else {
 313:lvgl/src/draw/sw/lv_draw_sw_blend.c ****                             uint32_t * d = (uint32_t *)dest_buf;
 314:lvgl/src/draw/sw/lv_draw_sw_blend.c ****                             *d = c32;
 315:lvgl/src/draw/sw/lv_draw_sw_blend.c ****                             *(d + 1) = c32;
 316:lvgl/src/draw/sw/lv_draw_sw_blend.c ****                         }
ARM GAS  C:\Users\OSD\AppData\Local\Temp\ccrPpCVL.s 			page 7


 317:lvgl/src/draw/sw/lv_draw_sw_blend.c **** #else
 318:lvgl/src/draw/sw/lv_draw_sw_blend.c ****                         dest_buf[0] = color;
 319:lvgl/src/draw/sw/lv_draw_sw_blend.c ****                         dest_buf[1] = color;
 320:lvgl/src/draw/sw/lv_draw_sw_blend.c ****                         dest_buf[2] = color;
 321:lvgl/src/draw/sw/lv_draw_sw_blend.c ****                         dest_buf[3] = color;
 322:lvgl/src/draw/sw/lv_draw_sw_blend.c **** #endif
 323:lvgl/src/draw/sw/lv_draw_sw_blend.c ****                         dest_buf += 4;
 324:lvgl/src/draw/sw/lv_draw_sw_blend.c ****                         mask += 4;
 325:lvgl/src/draw/sw/lv_draw_sw_blend.c ****                     }
 326:lvgl/src/draw/sw/lv_draw_sw_blend.c ****                     else if(mask32) {
 327:lvgl/src/draw/sw/lv_draw_sw_blend.c ****                         FILL_NORMAL_MASK_PX(color)
 328:lvgl/src/draw/sw/lv_draw_sw_blend.c ****                         FILL_NORMAL_MASK_PX(color)
 329:lvgl/src/draw/sw/lv_draw_sw_blend.c ****                         FILL_NORMAL_MASK_PX(color)
 330:lvgl/src/draw/sw/lv_draw_sw_blend.c ****                         FILL_NORMAL_MASK_PX(color)
 331:lvgl/src/draw/sw/lv_draw_sw_blend.c ****                     }
 332:lvgl/src/draw/sw/lv_draw_sw_blend.c ****                     else {
 333:lvgl/src/draw/sw/lv_draw_sw_blend.c ****                         mask += 4;
 334:lvgl/src/draw/sw/lv_draw_sw_blend.c ****                         dest_buf += 4;
 335:lvgl/src/draw/sw/lv_draw_sw_blend.c ****                     }
 336:lvgl/src/draw/sw/lv_draw_sw_blend.c ****                 }
 337:lvgl/src/draw/sw/lv_draw_sw_blend.c **** 
 338:lvgl/src/draw/sw/lv_draw_sw_blend.c ****                 for(; x < w ; x++) {
 339:lvgl/src/draw/sw/lv_draw_sw_blend.c ****                     FILL_NORMAL_MASK_PX(color)
 340:lvgl/src/draw/sw/lv_draw_sw_blend.c ****                 }
 341:lvgl/src/draw/sw/lv_draw_sw_blend.c ****                 dest_buf += (dest_stride - w);
 342:lvgl/src/draw/sw/lv_draw_sw_blend.c ****                 mask += (mask_stride - w);
 343:lvgl/src/draw/sw/lv_draw_sw_blend.c ****             }
 344:lvgl/src/draw/sw/lv_draw_sw_blend.c ****         }
 345:lvgl/src/draw/sw/lv_draw_sw_blend.c ****         /*With opacity*/
 346:lvgl/src/draw/sw/lv_draw_sw_blend.c ****         else {
 347:lvgl/src/draw/sw/lv_draw_sw_blend.c ****             /*Buffer the result color to avoid recalculating the same color*/
 348:lvgl/src/draw/sw/lv_draw_sw_blend.c ****             lv_color_t last_dest_color;
 349:lvgl/src/draw/sw/lv_draw_sw_blend.c ****             lv_color_t last_res_color;
 350:lvgl/src/draw/sw/lv_draw_sw_blend.c ****             lv_opa_t last_mask = LV_OPA_TRANSP;
 351:lvgl/src/draw/sw/lv_draw_sw_blend.c ****             last_dest_color.full = dest_buf[0].full;
 352:lvgl/src/draw/sw/lv_draw_sw_blend.c ****             last_res_color.full = dest_buf[0].full;
 353:lvgl/src/draw/sw/lv_draw_sw_blend.c ****             lv_opa_t opa_tmp = LV_OPA_TRANSP;
 354:lvgl/src/draw/sw/lv_draw_sw_blend.c **** 
 355:lvgl/src/draw/sw/lv_draw_sw_blend.c ****             for(y = 0; y < h; y++) {
 356:lvgl/src/draw/sw/lv_draw_sw_blend.c ****                 for(x = 0; x < w; x++) {
 357:lvgl/src/draw/sw/lv_draw_sw_blend.c ****                     if(*mask) {
 358:lvgl/src/draw/sw/lv_draw_sw_blend.c ****                         if(*mask != last_mask) opa_tmp = *mask == LV_OPA_COVER ? opa :
 359:lvgl/src/draw/sw/lv_draw_sw_blend.c ****                                                              (uint32_t)((uint32_t)(*mask) * opa) >>
 360:lvgl/src/draw/sw/lv_draw_sw_blend.c ****                         if(*mask != last_mask || last_dest_color.full != dest_buf[x].full) {
 361:lvgl/src/draw/sw/lv_draw_sw_blend.c ****                             if(opa_tmp == LV_OPA_COVER) last_res_color = color;
 362:lvgl/src/draw/sw/lv_draw_sw_blend.c ****                             else last_res_color = lv_color_mix(color, dest_buf[x], opa_tmp);
 363:lvgl/src/draw/sw/lv_draw_sw_blend.c ****                             last_mask = *mask;
 364:lvgl/src/draw/sw/lv_draw_sw_blend.c ****                             last_dest_color.full = dest_buf[x].full;
 365:lvgl/src/draw/sw/lv_draw_sw_blend.c ****                         }
 366:lvgl/src/draw/sw/lv_draw_sw_blend.c ****                         dest_buf[x] = last_res_color;
 367:lvgl/src/draw/sw/lv_draw_sw_blend.c ****                     }
 368:lvgl/src/draw/sw/lv_draw_sw_blend.c ****                     mask++;
 369:lvgl/src/draw/sw/lv_draw_sw_blend.c ****                 }
 370:lvgl/src/draw/sw/lv_draw_sw_blend.c ****                 dest_buf += dest_stride;
 371:lvgl/src/draw/sw/lv_draw_sw_blend.c ****                 mask += (mask_stride - w);
 372:lvgl/src/draw/sw/lv_draw_sw_blend.c ****             }
 373:lvgl/src/draw/sw/lv_draw_sw_blend.c ****         }
ARM GAS  C:\Users\OSD\AppData\Local\Temp\ccrPpCVL.s 			page 8


 374:lvgl/src/draw/sw/lv_draw_sw_blend.c ****     }
 375:lvgl/src/draw/sw/lv_draw_sw_blend.c **** }
 376:lvgl/src/draw/sw/lv_draw_sw_blend.c **** 
 377:lvgl/src/draw/sw/lv_draw_sw_blend.c **** #if LV_COLOR_SCREEN_TRANSP
 378:lvgl/src/draw/sw/lv_draw_sw_blend.c **** static inline void set_px_argb(uint8_t * buf, lv_color_t color, lv_opa_t opa)
 379:lvgl/src/draw/sw/lv_draw_sw_blend.c **** {
 380:lvgl/src/draw/sw/lv_draw_sw_blend.c ****     lv_color_t bg_color;
 381:lvgl/src/draw/sw/lv_draw_sw_blend.c ****     lv_color_t res_color;
 382:lvgl/src/draw/sw/lv_draw_sw_blend.c ****     lv_opa_t bg_opa = buf[LV_IMG_PX_SIZE_ALPHA_BYTE - 1];
 383:lvgl/src/draw/sw/lv_draw_sw_blend.c **** #if LV_COLOR_DEPTH == 8
 384:lvgl/src/draw/sw/lv_draw_sw_blend.c ****     bg_color.full = buf[0];
 385:lvgl/src/draw/sw/lv_draw_sw_blend.c ****     lv_color_mix_with_alpha(bg_color, bg_opa, color, opa, &res_color, &buf[1]);
 386:lvgl/src/draw/sw/lv_draw_sw_blend.c ****     if(buf[1] <= LV_OPA_MIN) return;
 387:lvgl/src/draw/sw/lv_draw_sw_blend.c ****     buf[0] = res_color.full;
 388:lvgl/src/draw/sw/lv_draw_sw_blend.c **** #elif LV_COLOR_DEPTH == 16
 389:lvgl/src/draw/sw/lv_draw_sw_blend.c ****     bg_color.full = buf[0] + (buf[1] << 8);
 390:lvgl/src/draw/sw/lv_draw_sw_blend.c ****     lv_color_mix_with_alpha(bg_color, bg_opa, color, opa, &res_color, &buf[2]);
 391:lvgl/src/draw/sw/lv_draw_sw_blend.c ****     if(buf[2] <= LV_OPA_MIN) return;
 392:lvgl/src/draw/sw/lv_draw_sw_blend.c ****     buf[0] = res_color.full & 0xff;
 393:lvgl/src/draw/sw/lv_draw_sw_blend.c ****     buf[1] = res_color.full >> 8;
 394:lvgl/src/draw/sw/lv_draw_sw_blend.c **** #elif LV_COLOR_DEPTH == 32
 395:lvgl/src/draw/sw/lv_draw_sw_blend.c ****     bg_color = *((lv_color_t *)buf);
 396:lvgl/src/draw/sw/lv_draw_sw_blend.c ****     lv_color_mix_with_alpha(bg_color, bg_opa, color, opa, &res_color, &buf[3]);
 397:lvgl/src/draw/sw/lv_draw_sw_blend.c ****     if(buf[3] <= LV_OPA_MIN) return;
 398:lvgl/src/draw/sw/lv_draw_sw_blend.c ****     buf[0] = res_color.ch.blue;
 399:lvgl/src/draw/sw/lv_draw_sw_blend.c ****     buf[1] = res_color.ch.green;
 400:lvgl/src/draw/sw/lv_draw_sw_blend.c ****     buf[2] = res_color.ch.red;
 401:lvgl/src/draw/sw/lv_draw_sw_blend.c **** #endif
 402:lvgl/src/draw/sw/lv_draw_sw_blend.c **** }
 403:lvgl/src/draw/sw/lv_draw_sw_blend.c **** 
 404:lvgl/src/draw/sw/lv_draw_sw_blend.c **** static inline void set_px_argb_blend(uint8_t * buf, lv_color_t color, lv_opa_t opa, lv_color_t (*bl
 405:lvgl/src/draw/sw/lv_draw_sw_blend.c ****                                                                                                    
 406:lvgl/src/draw/sw/lv_draw_sw_blend.c **** {
 407:lvgl/src/draw/sw/lv_draw_sw_blend.c ****     static lv_color_t last_dest_color;
 408:lvgl/src/draw/sw/lv_draw_sw_blend.c ****     static lv_color_t last_src_color;
 409:lvgl/src/draw/sw/lv_draw_sw_blend.c ****     static lv_color_t last_res_color;
 410:lvgl/src/draw/sw/lv_draw_sw_blend.c ****     static uint32_t last_opa = 0xffff; /*Set to an invalid value for first*/
 411:lvgl/src/draw/sw/lv_draw_sw_blend.c **** 
 412:lvgl/src/draw/sw/lv_draw_sw_blend.c ****     lv_color_t bg_color;
 413:lvgl/src/draw/sw/lv_draw_sw_blend.c **** 
 414:lvgl/src/draw/sw/lv_draw_sw_blend.c ****     /*Get the BG color*/
 415:lvgl/src/draw/sw/lv_draw_sw_blend.c **** #if LV_COLOR_DEPTH == 8
 416:lvgl/src/draw/sw/lv_draw_sw_blend.c ****     if(buf[1] <= LV_OPA_MIN) return;
 417:lvgl/src/draw/sw/lv_draw_sw_blend.c ****     bg_color.full = buf[0];
 418:lvgl/src/draw/sw/lv_draw_sw_blend.c **** #elif LV_COLOR_DEPTH == 16
 419:lvgl/src/draw/sw/lv_draw_sw_blend.c ****     if(buf[2] <= LV_OPA_MIN) return;
 420:lvgl/src/draw/sw/lv_draw_sw_blend.c ****     bg_color.full = buf[0] + (buf[1] << 8);
 421:lvgl/src/draw/sw/lv_draw_sw_blend.c **** #elif LV_COLOR_DEPTH == 32
 422:lvgl/src/draw/sw/lv_draw_sw_blend.c ****     if(buf[3] <= LV_OPA_MIN) return;
 423:lvgl/src/draw/sw/lv_draw_sw_blend.c ****     bg_color = *((lv_color_t *)buf);
 424:lvgl/src/draw/sw/lv_draw_sw_blend.c **** #endif
 425:lvgl/src/draw/sw/lv_draw_sw_blend.c **** 
 426:lvgl/src/draw/sw/lv_draw_sw_blend.c ****     /*Get the result color*/
 427:lvgl/src/draw/sw/lv_draw_sw_blend.c ****     if(last_dest_color.full != bg_color.full || last_src_color.full != color.full || last_opa != op
 428:lvgl/src/draw/sw/lv_draw_sw_blend.c ****         last_dest_color = bg_color;
 429:lvgl/src/draw/sw/lv_draw_sw_blend.c ****         last_src_color = color;
 430:lvgl/src/draw/sw/lv_draw_sw_blend.c ****         last_opa = opa;
ARM GAS  C:\Users\OSD\AppData\Local\Temp\ccrPpCVL.s 			page 9


 431:lvgl/src/draw/sw/lv_draw_sw_blend.c ****         last_res_color = blend_fp(last_src_color, last_dest_color, last_opa);
 432:lvgl/src/draw/sw/lv_draw_sw_blend.c ****     }
 433:lvgl/src/draw/sw/lv_draw_sw_blend.c **** 
 434:lvgl/src/draw/sw/lv_draw_sw_blend.c ****     /*Set the result color*/
 435:lvgl/src/draw/sw/lv_draw_sw_blend.c **** #if LV_COLOR_DEPTH == 8
 436:lvgl/src/draw/sw/lv_draw_sw_blend.c ****     buf[0] = last_res_color.full;
 437:lvgl/src/draw/sw/lv_draw_sw_blend.c **** #elif LV_COLOR_DEPTH == 16
 438:lvgl/src/draw/sw/lv_draw_sw_blend.c ****     buf[0] = last_res_color.full & 0xff;
 439:lvgl/src/draw/sw/lv_draw_sw_blend.c ****     buf[1] = last_res_color.full >> 8;
 440:lvgl/src/draw/sw/lv_draw_sw_blend.c **** #elif LV_COLOR_DEPTH == 32
 441:lvgl/src/draw/sw/lv_draw_sw_blend.c ****     buf[0] = last_res_color.ch.blue;
 442:lvgl/src/draw/sw/lv_draw_sw_blend.c ****     buf[1] = last_res_color.ch.green;
 443:lvgl/src/draw/sw/lv_draw_sw_blend.c ****     buf[2] = last_res_color.ch.red;
 444:lvgl/src/draw/sw/lv_draw_sw_blend.c **** #endif
 445:lvgl/src/draw/sw/lv_draw_sw_blend.c **** 
 446:lvgl/src/draw/sw/lv_draw_sw_blend.c **** }
 447:lvgl/src/draw/sw/lv_draw_sw_blend.c **** 
 448:lvgl/src/draw/sw/lv_draw_sw_blend.c **** static void LV_ATTRIBUTE_FAST_MEM fill_argb(lv_color_t * dest_buf, const lv_area_t * dest_area,
 449:lvgl/src/draw/sw/lv_draw_sw_blend.c ****                                             lv_coord_t dest_stride, lv_color_t color, lv_opa_t opa,
 450:lvgl/src/draw/sw/lv_draw_sw_blend.c ****                                             const lv_opa_t * mask, lv_coord_t mask_stride)
 451:lvgl/src/draw/sw/lv_draw_sw_blend.c **** {
 452:lvgl/src/draw/sw/lv_draw_sw_blend.c ****     uint8_t * dest_buf8 = (uint8_t *) dest_buf;
 453:lvgl/src/draw/sw/lv_draw_sw_blend.c ****     int32_t w = lv_area_get_width(dest_area);
 454:lvgl/src/draw/sw/lv_draw_sw_blend.c ****     int32_t h = lv_area_get_height(dest_area);
 455:lvgl/src/draw/sw/lv_draw_sw_blend.c **** 
 456:lvgl/src/draw/sw/lv_draw_sw_blend.c ****     int32_t x;
 457:lvgl/src/draw/sw/lv_draw_sw_blend.c ****     int32_t y;
 458:lvgl/src/draw/sw/lv_draw_sw_blend.c **** 
 459:lvgl/src/draw/sw/lv_draw_sw_blend.c ****     uint8_t ctmp[LV_IMG_PX_SIZE_ALPHA_BYTE];
 460:lvgl/src/draw/sw/lv_draw_sw_blend.c ****     lv_memcpy(ctmp, &color, sizeof(lv_color_t));
 461:lvgl/src/draw/sw/lv_draw_sw_blend.c ****     ctmp[LV_IMG_PX_SIZE_ALPHA_BYTE - 1] = opa;
 462:lvgl/src/draw/sw/lv_draw_sw_blend.c **** 
 463:lvgl/src/draw/sw/lv_draw_sw_blend.c ****     /*No mask*/
 464:lvgl/src/draw/sw/lv_draw_sw_blend.c ****     if(mask == NULL) {
 465:lvgl/src/draw/sw/lv_draw_sw_blend.c ****         if(opa >= LV_OPA_MAX) {
 466:lvgl/src/draw/sw/lv_draw_sw_blend.c ****             for(x = 0; x < w; x++) {
 467:lvgl/src/draw/sw/lv_draw_sw_blend.c ****                 lv_memcpy(dest_buf8, ctmp, LV_IMG_PX_SIZE_ALPHA_BYTE);
 468:lvgl/src/draw/sw/lv_draw_sw_blend.c ****                 dest_buf8 += LV_IMG_PX_SIZE_ALPHA_BYTE;
 469:lvgl/src/draw/sw/lv_draw_sw_blend.c ****             }
 470:lvgl/src/draw/sw/lv_draw_sw_blend.c **** 
 471:lvgl/src/draw/sw/lv_draw_sw_blend.c ****             dest_buf8 += (dest_stride - w) * LV_IMG_PX_SIZE_ALPHA_BYTE;
 472:lvgl/src/draw/sw/lv_draw_sw_blend.c **** 
 473:lvgl/src/draw/sw/lv_draw_sw_blend.c ****             for(y = 1; y < h; y++) {
 474:lvgl/src/draw/sw/lv_draw_sw_blend.c ****                 lv_memcpy(dest_buf8, (uint8_t *) dest_buf, w * LV_IMG_PX_SIZE_ALPHA_BYTE);
 475:lvgl/src/draw/sw/lv_draw_sw_blend.c ****                 dest_buf8 += dest_stride * LV_IMG_PX_SIZE_ALPHA_BYTE;
 476:lvgl/src/draw/sw/lv_draw_sw_blend.c ****             }
 477:lvgl/src/draw/sw/lv_draw_sw_blend.c ****         }
 478:lvgl/src/draw/sw/lv_draw_sw_blend.c ****         /*Has opacity*/
 479:lvgl/src/draw/sw/lv_draw_sw_blend.c ****         else {
 480:lvgl/src/draw/sw/lv_draw_sw_blend.c ****             uint8_t * dest_buf8_row = dest_buf8;
 481:lvgl/src/draw/sw/lv_draw_sw_blend.c ****             for(y = 0; y < h; y++) {
 482:lvgl/src/draw/sw/lv_draw_sw_blend.c ****                 for(x = 0; x < w; x++) {
 483:lvgl/src/draw/sw/lv_draw_sw_blend.c ****                     set_px_argb(dest_buf8, color, opa);
 484:lvgl/src/draw/sw/lv_draw_sw_blend.c ****                     dest_buf8 += LV_IMG_PX_SIZE_ALPHA_BYTE;
 485:lvgl/src/draw/sw/lv_draw_sw_blend.c ****                 }
 486:lvgl/src/draw/sw/lv_draw_sw_blend.c ****                 dest_buf8_row += dest_stride * LV_IMG_PX_SIZE_ALPHA_BYTE;
 487:lvgl/src/draw/sw/lv_draw_sw_blend.c ****                 dest_buf8 = dest_buf8_row;
ARM GAS  C:\Users\OSD\AppData\Local\Temp\ccrPpCVL.s 			page 10


 488:lvgl/src/draw/sw/lv_draw_sw_blend.c ****             }
 489:lvgl/src/draw/sw/lv_draw_sw_blend.c ****         }
 490:lvgl/src/draw/sw/lv_draw_sw_blend.c ****     }
 491:lvgl/src/draw/sw/lv_draw_sw_blend.c ****     /*Masked*/
 492:lvgl/src/draw/sw/lv_draw_sw_blend.c ****     else {
 493:lvgl/src/draw/sw/lv_draw_sw_blend.c ****         /*Only the mask matters*/
 494:lvgl/src/draw/sw/lv_draw_sw_blend.c ****         if(opa >= LV_OPA_MAX) {
 495:lvgl/src/draw/sw/lv_draw_sw_blend.c ****             uint8_t * dest_buf8_row = dest_buf8;
 496:lvgl/src/draw/sw/lv_draw_sw_blend.c ****             for(y = 0; y < h; y++) {
 497:lvgl/src/draw/sw/lv_draw_sw_blend.c ****                 for(x = 0; x < w; x++) {
 498:lvgl/src/draw/sw/lv_draw_sw_blend.c ****                     set_px_argb(dest_buf8, color,  *mask);
 499:lvgl/src/draw/sw/lv_draw_sw_blend.c ****                     mask++;
 500:lvgl/src/draw/sw/lv_draw_sw_blend.c ****                     dest_buf8 += LV_IMG_PX_SIZE_ALPHA_BYTE;
 501:lvgl/src/draw/sw/lv_draw_sw_blend.c ****                 }
 502:lvgl/src/draw/sw/lv_draw_sw_blend.c ****                 dest_buf8_row += dest_stride * LV_IMG_PX_SIZE_ALPHA_BYTE;
 503:lvgl/src/draw/sw/lv_draw_sw_blend.c ****                 dest_buf8 = dest_buf8_row;
 504:lvgl/src/draw/sw/lv_draw_sw_blend.c ****             }
 505:lvgl/src/draw/sw/lv_draw_sw_blend.c ****         }
 506:lvgl/src/draw/sw/lv_draw_sw_blend.c ****         /*With opacity*/
 507:lvgl/src/draw/sw/lv_draw_sw_blend.c ****         else {
 508:lvgl/src/draw/sw/lv_draw_sw_blend.c ****             /*Buffer the result color to avoid recalculating the same color*/
 509:lvgl/src/draw/sw/lv_draw_sw_blend.c ****             lv_opa_t last_mask = LV_OPA_TRANSP;
 510:lvgl/src/draw/sw/lv_draw_sw_blend.c ****             lv_opa_t opa_tmp = LV_OPA_TRANSP;
 511:lvgl/src/draw/sw/lv_draw_sw_blend.c **** 
 512:lvgl/src/draw/sw/lv_draw_sw_blend.c ****             uint8_t * dest_buf8_row = dest_buf8;
 513:lvgl/src/draw/sw/lv_draw_sw_blend.c ****             for(y = 0; y < h; y++) {
 514:lvgl/src/draw/sw/lv_draw_sw_blend.c ****                 for(x = 0; x < w; x++) {
 515:lvgl/src/draw/sw/lv_draw_sw_blend.c ****                     if(*mask) {
 516:lvgl/src/draw/sw/lv_draw_sw_blend.c ****                         if(*mask != last_mask) opa_tmp = *mask == LV_OPA_COVER ? opa :
 517:lvgl/src/draw/sw/lv_draw_sw_blend.c ****                                                              (uint32_t)((uint32_t)(*mask) * opa) >>
 518:lvgl/src/draw/sw/lv_draw_sw_blend.c **** 
 519:lvgl/src/draw/sw/lv_draw_sw_blend.c ****                         set_px_argb(dest_buf8, color,  opa_tmp);
 520:lvgl/src/draw/sw/lv_draw_sw_blend.c ****                     }
 521:lvgl/src/draw/sw/lv_draw_sw_blend.c ****                     dest_buf8 += LV_IMG_PX_SIZE_ALPHA_BYTE;
 522:lvgl/src/draw/sw/lv_draw_sw_blend.c ****                     mask++;
 523:lvgl/src/draw/sw/lv_draw_sw_blend.c ****                 }
 524:lvgl/src/draw/sw/lv_draw_sw_blend.c ****                 dest_buf8_row += dest_stride * LV_IMG_PX_SIZE_ALPHA_BYTE;
 525:lvgl/src/draw/sw/lv_draw_sw_blend.c ****                 dest_buf8 = dest_buf8_row;
 526:lvgl/src/draw/sw/lv_draw_sw_blend.c ****                 mask += (mask_stride - w);
 527:lvgl/src/draw/sw/lv_draw_sw_blend.c ****             }
 528:lvgl/src/draw/sw/lv_draw_sw_blend.c ****         }
 529:lvgl/src/draw/sw/lv_draw_sw_blend.c ****     }
 530:lvgl/src/draw/sw/lv_draw_sw_blend.c **** }
 531:lvgl/src/draw/sw/lv_draw_sw_blend.c **** #endif
 532:lvgl/src/draw/sw/lv_draw_sw_blend.c **** 
 533:lvgl/src/draw/sw/lv_draw_sw_blend.c **** #if LV_DRAW_COMPLEX
 534:lvgl/src/draw/sw/lv_draw_sw_blend.c **** static void fill_blended(lv_color_t * dest_buf, const lv_area_t * dest_area,
 535:lvgl/src/draw/sw/lv_draw_sw_blend.c ****                          lv_coord_t dest_stride, lv_color_t color, lv_opa_t opa, const lv_opa_t * m
 536:lvgl/src/draw/sw/lv_draw_sw_blend.c ****                          lv_blend_mode_t blend_mode)
 537:lvgl/src/draw/sw/lv_draw_sw_blend.c **** {
  28              		.loc 1 537 1 view -0
  29              		.cfi_startproc
  30              		@ args = 16, pretend = 0, frame = 24
  31              		@ frame_needed = 0, uses_anonymous_args = 0
  32              		.loc 1 537 1 is_stmt 0 view .LVU1
  33 0000 2DE9F04F 		push	{r4, r5, r6, r7, r8, r9, r10, fp, lr}
  34              		.cfi_def_cfa_offset 36
ARM GAS  C:\Users\OSD\AppData\Local\Temp\ccrPpCVL.s 			page 11


  35              		.cfi_offset 4, -36
  36              		.cfi_offset 5, -32
  37              		.cfi_offset 6, -28
  38              		.cfi_offset 7, -24
  39              		.cfi_offset 8, -20
  40              		.cfi_offset 9, -16
  41              		.cfi_offset 10, -12
  42              		.cfi_offset 11, -8
  43              		.cfi_offset 14, -4
  44 0004 87B0     		sub	sp, sp, #28
  45              		.cfi_def_cfa_offset 64
  46 0006 0546     		mov	r5, r0
  47 0008 0492     		str	r2, [sp, #16]
  48 000a 1846     		mov	r0, r3
  49              	.LVL1:
  50              		.loc 1 537 1 view .LVU2
  51 000c 9DF84030 		ldrb	r3, [sp, #64]	@ zero_extendqisi2
  52 0010 0193     		str	r3, [sp, #4]
  53 0012 119F     		ldr	r7, [sp, #68]
  54 0014 BDF94830 		ldrsh	r3, [sp, #72]
  55 0018 0593     		str	r3, [sp, #20]
  56 001a 9DF84C20 		ldrb	r2, [sp, #76]	@ zero_extendqisi2
  57              	.LVL2:
 538:lvgl/src/draw/sw/lv_draw_sw_blend.c **** 
 539:lvgl/src/draw/sw/lv_draw_sw_blend.c ****     int32_t w = lv_area_get_width(dest_area);
  58              		.loc 1 539 5 is_stmt 1 view .LVU3
  59              	.LBB55:
  60              	.LBI55:
  61              		.file 2 "lvgl/src/draw/sw/../../misc/lv_area.h"
   1:lvgl/src/draw/sw/../../misc/lv_area.h **** /**
   2:lvgl/src/draw/sw/../../misc/lv_area.h ****  * @file lv_area.h
   3:lvgl/src/draw/sw/../../misc/lv_area.h ****  *
   4:lvgl/src/draw/sw/../../misc/lv_area.h ****  */
   5:lvgl/src/draw/sw/../../misc/lv_area.h **** 
   6:lvgl/src/draw/sw/../../misc/lv_area.h **** #ifndef LV_AREA_H
   7:lvgl/src/draw/sw/../../misc/lv_area.h **** #define LV_AREA_H
   8:lvgl/src/draw/sw/../../misc/lv_area.h **** 
   9:lvgl/src/draw/sw/../../misc/lv_area.h **** #ifdef __cplusplus
  10:lvgl/src/draw/sw/../../misc/lv_area.h **** extern "C" {
  11:lvgl/src/draw/sw/../../misc/lv_area.h **** #endif
  12:lvgl/src/draw/sw/../../misc/lv_area.h **** 
  13:lvgl/src/draw/sw/../../misc/lv_area.h **** /*********************
  14:lvgl/src/draw/sw/../../misc/lv_area.h ****  *      INCLUDES
  15:lvgl/src/draw/sw/../../misc/lv_area.h ****  *********************/
  16:lvgl/src/draw/sw/../../misc/lv_area.h **** #include "../lv_conf_internal.h"
  17:lvgl/src/draw/sw/../../misc/lv_area.h **** #include <stdbool.h>
  18:lvgl/src/draw/sw/../../misc/lv_area.h **** #include <stdint.h>
  19:lvgl/src/draw/sw/../../misc/lv_area.h **** 
  20:lvgl/src/draw/sw/../../misc/lv_area.h **** /*********************
  21:lvgl/src/draw/sw/../../misc/lv_area.h ****  *      DEFINES
  22:lvgl/src/draw/sw/../../misc/lv_area.h ****  *********************/
  23:lvgl/src/draw/sw/../../misc/lv_area.h **** 
  24:lvgl/src/draw/sw/../../misc/lv_area.h **** #if LV_USE_LARGE_COORD
  25:lvgl/src/draw/sw/../../misc/lv_area.h **** typedef int32_t lv_coord_t;
  26:lvgl/src/draw/sw/../../misc/lv_area.h **** #else
  27:lvgl/src/draw/sw/../../misc/lv_area.h **** typedef int16_t lv_coord_t;
  28:lvgl/src/draw/sw/../../misc/lv_area.h **** #endif
ARM GAS  C:\Users\OSD\AppData\Local\Temp\ccrPpCVL.s 			page 12


  29:lvgl/src/draw/sw/../../misc/lv_area.h **** 
  30:lvgl/src/draw/sw/../../misc/lv_area.h **** /**********************
  31:lvgl/src/draw/sw/../../misc/lv_area.h ****  *      TYPEDEFS
  32:lvgl/src/draw/sw/../../misc/lv_area.h ****  **********************/
  33:lvgl/src/draw/sw/../../misc/lv_area.h **** 
  34:lvgl/src/draw/sw/../../misc/lv_area.h **** /**
  35:lvgl/src/draw/sw/../../misc/lv_area.h ****  * Represents a point on the screen.
  36:lvgl/src/draw/sw/../../misc/lv_area.h ****  */
  37:lvgl/src/draw/sw/../../misc/lv_area.h **** typedef struct {
  38:lvgl/src/draw/sw/../../misc/lv_area.h ****     lv_coord_t x;
  39:lvgl/src/draw/sw/../../misc/lv_area.h ****     lv_coord_t y;
  40:lvgl/src/draw/sw/../../misc/lv_area.h **** } lv_point_t;
  41:lvgl/src/draw/sw/../../misc/lv_area.h **** 
  42:lvgl/src/draw/sw/../../misc/lv_area.h **** /** Represents an area of the screen.*/
  43:lvgl/src/draw/sw/../../misc/lv_area.h **** typedef struct {
  44:lvgl/src/draw/sw/../../misc/lv_area.h ****     lv_coord_t x1;
  45:lvgl/src/draw/sw/../../misc/lv_area.h ****     lv_coord_t y1;
  46:lvgl/src/draw/sw/../../misc/lv_area.h ****     lv_coord_t x2;
  47:lvgl/src/draw/sw/../../misc/lv_area.h ****     lv_coord_t y2;
  48:lvgl/src/draw/sw/../../misc/lv_area.h **** } lv_area_t;
  49:lvgl/src/draw/sw/../../misc/lv_area.h **** 
  50:lvgl/src/draw/sw/../../misc/lv_area.h **** /** Alignments*/
  51:lvgl/src/draw/sw/../../misc/lv_area.h **** enum {
  52:lvgl/src/draw/sw/../../misc/lv_area.h ****     LV_ALIGN_DEFAULT = 0,
  53:lvgl/src/draw/sw/../../misc/lv_area.h ****     LV_ALIGN_TOP_LEFT,
  54:lvgl/src/draw/sw/../../misc/lv_area.h ****     LV_ALIGN_TOP_MID,
  55:lvgl/src/draw/sw/../../misc/lv_area.h ****     LV_ALIGN_TOP_RIGHT,
  56:lvgl/src/draw/sw/../../misc/lv_area.h ****     LV_ALIGN_BOTTOM_LEFT,
  57:lvgl/src/draw/sw/../../misc/lv_area.h ****     LV_ALIGN_BOTTOM_MID,
  58:lvgl/src/draw/sw/../../misc/lv_area.h ****     LV_ALIGN_BOTTOM_RIGHT,
  59:lvgl/src/draw/sw/../../misc/lv_area.h ****     LV_ALIGN_LEFT_MID,
  60:lvgl/src/draw/sw/../../misc/lv_area.h ****     LV_ALIGN_RIGHT_MID,
  61:lvgl/src/draw/sw/../../misc/lv_area.h ****     LV_ALIGN_CENTER,
  62:lvgl/src/draw/sw/../../misc/lv_area.h **** 
  63:lvgl/src/draw/sw/../../misc/lv_area.h ****     LV_ALIGN_OUT_TOP_LEFT,
  64:lvgl/src/draw/sw/../../misc/lv_area.h ****     LV_ALIGN_OUT_TOP_MID,
  65:lvgl/src/draw/sw/../../misc/lv_area.h ****     LV_ALIGN_OUT_TOP_RIGHT,
  66:lvgl/src/draw/sw/../../misc/lv_area.h ****     LV_ALIGN_OUT_BOTTOM_LEFT,
  67:lvgl/src/draw/sw/../../misc/lv_area.h ****     LV_ALIGN_OUT_BOTTOM_MID,
  68:lvgl/src/draw/sw/../../misc/lv_area.h ****     LV_ALIGN_OUT_BOTTOM_RIGHT,
  69:lvgl/src/draw/sw/../../misc/lv_area.h ****     LV_ALIGN_OUT_LEFT_TOP,
  70:lvgl/src/draw/sw/../../misc/lv_area.h ****     LV_ALIGN_OUT_LEFT_MID,
  71:lvgl/src/draw/sw/../../misc/lv_area.h ****     LV_ALIGN_OUT_LEFT_BOTTOM,
  72:lvgl/src/draw/sw/../../misc/lv_area.h ****     LV_ALIGN_OUT_RIGHT_TOP,
  73:lvgl/src/draw/sw/../../misc/lv_area.h ****     LV_ALIGN_OUT_RIGHT_MID,
  74:lvgl/src/draw/sw/../../misc/lv_area.h ****     LV_ALIGN_OUT_RIGHT_BOTTOM,
  75:lvgl/src/draw/sw/../../misc/lv_area.h **** };
  76:lvgl/src/draw/sw/../../misc/lv_area.h **** typedef uint8_t lv_align_t;
  77:lvgl/src/draw/sw/../../misc/lv_area.h **** 
  78:lvgl/src/draw/sw/../../misc/lv_area.h **** enum {
  79:lvgl/src/draw/sw/../../misc/lv_area.h ****     LV_DIR_NONE     = 0x00,
  80:lvgl/src/draw/sw/../../misc/lv_area.h ****     LV_DIR_LEFT     = (1 << 0),
  81:lvgl/src/draw/sw/../../misc/lv_area.h ****     LV_DIR_RIGHT    = (1 << 1),
  82:lvgl/src/draw/sw/../../misc/lv_area.h ****     LV_DIR_TOP      = (1 << 2),
  83:lvgl/src/draw/sw/../../misc/lv_area.h ****     LV_DIR_BOTTOM   = (1 << 3),
  84:lvgl/src/draw/sw/../../misc/lv_area.h ****     LV_DIR_HOR      = LV_DIR_LEFT | LV_DIR_RIGHT,
  85:lvgl/src/draw/sw/../../misc/lv_area.h ****     LV_DIR_VER      = LV_DIR_TOP | LV_DIR_BOTTOM,
ARM GAS  C:\Users\OSD\AppData\Local\Temp\ccrPpCVL.s 			page 13


  86:lvgl/src/draw/sw/../../misc/lv_area.h ****     LV_DIR_ALL      = LV_DIR_HOR | LV_DIR_VER,
  87:lvgl/src/draw/sw/../../misc/lv_area.h **** };
  88:lvgl/src/draw/sw/../../misc/lv_area.h **** 
  89:lvgl/src/draw/sw/../../misc/lv_area.h **** typedef uint8_t lv_dir_t;
  90:lvgl/src/draw/sw/../../misc/lv_area.h **** 
  91:lvgl/src/draw/sw/../../misc/lv_area.h **** /**********************
  92:lvgl/src/draw/sw/../../misc/lv_area.h ****  * GLOBAL PROTOTYPES
  93:lvgl/src/draw/sw/../../misc/lv_area.h ****  **********************/
  94:lvgl/src/draw/sw/../../misc/lv_area.h **** 
  95:lvgl/src/draw/sw/../../misc/lv_area.h **** /**
  96:lvgl/src/draw/sw/../../misc/lv_area.h ****  * Initialize an area
  97:lvgl/src/draw/sw/../../misc/lv_area.h ****  * @param area_p pointer to an area
  98:lvgl/src/draw/sw/../../misc/lv_area.h ****  * @param x1 left coordinate of the area
  99:lvgl/src/draw/sw/../../misc/lv_area.h ****  * @param y1 top coordinate of the area
 100:lvgl/src/draw/sw/../../misc/lv_area.h ****  * @param x2 right coordinate of the area
 101:lvgl/src/draw/sw/../../misc/lv_area.h ****  * @param y2 bottom coordinate of the area
 102:lvgl/src/draw/sw/../../misc/lv_area.h ****  */
 103:lvgl/src/draw/sw/../../misc/lv_area.h **** void lv_area_set(lv_area_t * area_p, lv_coord_t x1, lv_coord_t y1, lv_coord_t x2, lv_coord_t y2);
 104:lvgl/src/draw/sw/../../misc/lv_area.h **** 
 105:lvgl/src/draw/sw/../../misc/lv_area.h **** /**
 106:lvgl/src/draw/sw/../../misc/lv_area.h ****  * Copy an area
 107:lvgl/src/draw/sw/../../misc/lv_area.h ****  * @param dest pointer to the destination area
 108:lvgl/src/draw/sw/../../misc/lv_area.h ****  * @param src pointer to the source area
 109:lvgl/src/draw/sw/../../misc/lv_area.h ****  */
 110:lvgl/src/draw/sw/../../misc/lv_area.h **** inline static void lv_area_copy(lv_area_t * dest, const lv_area_t * src)
 111:lvgl/src/draw/sw/../../misc/lv_area.h **** {
 112:lvgl/src/draw/sw/../../misc/lv_area.h ****     dest->x1 = src->x1;
 113:lvgl/src/draw/sw/../../misc/lv_area.h ****     dest->y1 = src->y1;
 114:lvgl/src/draw/sw/../../misc/lv_area.h ****     dest->x2 = src->x2;
 115:lvgl/src/draw/sw/../../misc/lv_area.h ****     dest->y2 = src->y2;
 116:lvgl/src/draw/sw/../../misc/lv_area.h **** }
 117:lvgl/src/draw/sw/../../misc/lv_area.h **** 
 118:lvgl/src/draw/sw/../../misc/lv_area.h **** /**
 119:lvgl/src/draw/sw/../../misc/lv_area.h ****  * Get the width of an area
 120:lvgl/src/draw/sw/../../misc/lv_area.h ****  * @param area_p pointer to an area
 121:lvgl/src/draw/sw/../../misc/lv_area.h ****  * @return the width of the area (if x1 == x2 -> width = 1)
 122:lvgl/src/draw/sw/../../misc/lv_area.h ****  */
 123:lvgl/src/draw/sw/../../misc/lv_area.h **** static inline lv_coord_t lv_area_get_width(const lv_area_t * area_p)
  62              		.loc 2 123 26 view .LVU4
  63              	.LBB56:
 124:lvgl/src/draw/sw/../../misc/lv_area.h **** {
 125:lvgl/src/draw/sw/../../misc/lv_area.h ****     return (lv_coord_t)(area_p->x2 - area_p->x1 + 1);
  64              		.loc 2 125 5 view .LVU5
  65              		.loc 2 125 31 is_stmt 0 view .LVU6
  66 001e B1F80480 		ldrh	r8, [r1, #4]
  67              		.loc 2 125 44 view .LVU7
  68 0022 0B88     		ldrh	r3, [r1]
  69              		.loc 2 125 36 view .LVU8
  70 0024 A8EB0308 		sub	r8, r8, r3
  71 0028 1FFA88F8 		uxth	r8, r8
  72              		.loc 2 125 49 view .LVU9
  73 002c 08F10108 		add	r8, r8, #1
  74              		.loc 2 125 12 view .LVU10
  75 0030 0FFA88F8 		sxth	r8, r8
  76              	.LVL3:
  77              		.loc 2 125 12 view .LVU11
  78              	.LBE56:
ARM GAS  C:\Users\OSD\AppData\Local\Temp\ccrPpCVL.s 			page 14


  79              	.LBE55:
 540:lvgl/src/draw/sw/lv_draw_sw_blend.c ****     int32_t h = lv_area_get_height(dest_area);
  80              		.loc 1 540 5 is_stmt 1 view .LVU12
  81              	.LBB57:
  82              	.LBI57:
 126:lvgl/src/draw/sw/../../misc/lv_area.h **** }
 127:lvgl/src/draw/sw/../../misc/lv_area.h **** 
 128:lvgl/src/draw/sw/../../misc/lv_area.h **** /**
 129:lvgl/src/draw/sw/../../misc/lv_area.h ****  * Get the height of an area
 130:lvgl/src/draw/sw/../../misc/lv_area.h ****  * @param area_p pointer to an area
 131:lvgl/src/draw/sw/../../misc/lv_area.h ****  * @return the height of the area (if y1 == y2 -> height = 1)
 132:lvgl/src/draw/sw/../../misc/lv_area.h ****  */
 133:lvgl/src/draw/sw/../../misc/lv_area.h **** static inline lv_coord_t lv_area_get_height(const lv_area_t * area_p)
  83              		.loc 2 133 26 view .LVU13
  84              	.LBB58:
 134:lvgl/src/draw/sw/../../misc/lv_area.h **** {
 135:lvgl/src/draw/sw/../../misc/lv_area.h ****     return (lv_coord_t)(area_p->y2 - area_p->y1 + 1);
  85              		.loc 2 135 5 view .LVU14
  86              		.loc 2 135 31 is_stmt 0 view .LVU15
  87 0034 CB88     		ldrh	r3, [r1, #6]
  88              		.loc 2 135 44 view .LVU16
  89 0036 4988     		ldrh	r1, [r1, #2]
  90              	.LVL4:
  91              		.loc 2 135 36 view .LVU17
  92 0038 5B1A     		subs	r3, r3, r1
  93 003a 9BB2     		uxth	r3, r3
  94              		.loc 2 135 49 view .LVU18
  95 003c 0133     		adds	r3, r3, #1
  96              		.loc 2 135 12 view .LVU19
  97 003e 1BB2     		sxth	r3, r3
  98 0040 0393     		str	r3, [sp, #12]
  99              	.LVL5:
 100              		.loc 2 135 12 view .LVU20
 101              	.LBE58:
 102              	.LBE57:
 541:lvgl/src/draw/sw/lv_draw_sw_blend.c **** 
 542:lvgl/src/draw/sw/lv_draw_sw_blend.c ****     int32_t x;
 103              		.loc 1 542 5 is_stmt 1 view .LVU21
 543:lvgl/src/draw/sw/lv_draw_sw_blend.c ****     int32_t y;
 104              		.loc 1 543 5 view .LVU22
 544:lvgl/src/draw/sw/lv_draw_sw_blend.c **** 
 545:lvgl/src/draw/sw/lv_draw_sw_blend.c ****     lv_color_t (*blend_fp)(lv_color_t, lv_color_t, lv_opa_t);
 105              		.loc 1 545 5 view .LVU23
 546:lvgl/src/draw/sw/lv_draw_sw_blend.c ****     switch(blend_mode) {
 106              		.loc 1 546 5 view .LVU24
 107 0042 022A     		cmp	r2, #2
 108 0044 13D0     		beq	.L17
 109 0046 032A     		cmp	r2, #3
 110 0048 14D0     		beq	.L18
 111 004a 012A     		cmp	r2, #1
 112 004c 02D0     		beq	.L24
 113              	.LVL6:
 114              	.L1:
 547:lvgl/src/draw/sw/lv_draw_sw_blend.c ****         case LV_BLEND_MODE_ADDITIVE:
 548:lvgl/src/draw/sw/lv_draw_sw_blend.c ****             blend_fp = color_blend_true_color_additive;
 549:lvgl/src/draw/sw/lv_draw_sw_blend.c ****             break;
 550:lvgl/src/draw/sw/lv_draw_sw_blend.c ****         case LV_BLEND_MODE_SUBTRACTIVE:
ARM GAS  C:\Users\OSD\AppData\Local\Temp\ccrPpCVL.s 			page 15


 551:lvgl/src/draw/sw/lv_draw_sw_blend.c ****             blend_fp = color_blend_true_color_subtractive;
 552:lvgl/src/draw/sw/lv_draw_sw_blend.c ****             break;
 553:lvgl/src/draw/sw/lv_draw_sw_blend.c ****         case LV_BLEND_MODE_MULTIPLY:
 554:lvgl/src/draw/sw/lv_draw_sw_blend.c ****             blend_fp = color_blend_true_color_multiply;
 555:lvgl/src/draw/sw/lv_draw_sw_blend.c ****             break;
 556:lvgl/src/draw/sw/lv_draw_sw_blend.c ****         default:
 557:lvgl/src/draw/sw/lv_draw_sw_blend.c ****             LV_LOG_WARN("fill_blended: unsupported blend mode");
 558:lvgl/src/draw/sw/lv_draw_sw_blend.c ****             return;
 559:lvgl/src/draw/sw/lv_draw_sw_blend.c ****     }
 560:lvgl/src/draw/sw/lv_draw_sw_blend.c **** 
 561:lvgl/src/draw/sw/lv_draw_sw_blend.c ****     /*Simple fill (maybe with opacity), no masking*/
 562:lvgl/src/draw/sw/lv_draw_sw_blend.c ****     if(mask == NULL) {
 563:lvgl/src/draw/sw/lv_draw_sw_blend.c ****         lv_color_t last_dest_color = dest_buf[0];
 564:lvgl/src/draw/sw/lv_draw_sw_blend.c ****         lv_color_t last_res_color = blend_fp(color, dest_buf[0], opa);
 565:lvgl/src/draw/sw/lv_draw_sw_blend.c ****         for(y = 0; y < h; y++) {
 566:lvgl/src/draw/sw/lv_draw_sw_blend.c ****             for(x = 0; x < w; x++) {
 567:lvgl/src/draw/sw/lv_draw_sw_blend.c ****                 if(last_dest_color.full != dest_buf[x].full) {
 568:lvgl/src/draw/sw/lv_draw_sw_blend.c ****                     last_dest_color = dest_buf[x];
 569:lvgl/src/draw/sw/lv_draw_sw_blend.c ****                     last_res_color = blend_fp(color, dest_buf[x], opa);
 570:lvgl/src/draw/sw/lv_draw_sw_blend.c ****                 }
 571:lvgl/src/draw/sw/lv_draw_sw_blend.c ****                 dest_buf[x] = last_res_color;
 572:lvgl/src/draw/sw/lv_draw_sw_blend.c ****             }
 573:lvgl/src/draw/sw/lv_draw_sw_blend.c ****             dest_buf += dest_stride;
 574:lvgl/src/draw/sw/lv_draw_sw_blend.c ****         }
 575:lvgl/src/draw/sw/lv_draw_sw_blend.c ****     }
 576:lvgl/src/draw/sw/lv_draw_sw_blend.c ****     /*Masked*/
 577:lvgl/src/draw/sw/lv_draw_sw_blend.c ****     else {
 578:lvgl/src/draw/sw/lv_draw_sw_blend.c ****         /*Buffer the result color to avoid recalculating the same color*/
 579:lvgl/src/draw/sw/lv_draw_sw_blend.c ****         lv_color_t last_dest_color;
 580:lvgl/src/draw/sw/lv_draw_sw_blend.c ****         lv_color_t last_res_color;
 581:lvgl/src/draw/sw/lv_draw_sw_blend.c ****         lv_opa_t last_mask = LV_OPA_TRANSP;
 582:lvgl/src/draw/sw/lv_draw_sw_blend.c ****         last_dest_color = dest_buf[0];
 583:lvgl/src/draw/sw/lv_draw_sw_blend.c ****         lv_opa_t opa_tmp = mask[0] >= LV_OPA_MAX ? opa : (uint32_t)((uint32_t)mask[0] * opa) >> 8;
 584:lvgl/src/draw/sw/lv_draw_sw_blend.c ****         last_res_color = blend_fp(color, last_dest_color, opa_tmp);
 585:lvgl/src/draw/sw/lv_draw_sw_blend.c **** 
 586:lvgl/src/draw/sw/lv_draw_sw_blend.c ****         for(y = 0; y < h; y++) {
 587:lvgl/src/draw/sw/lv_draw_sw_blend.c ****             for(x = 0; x < w; x++) {
 588:lvgl/src/draw/sw/lv_draw_sw_blend.c ****                 if(mask[x] == 0) continue;
 589:lvgl/src/draw/sw/lv_draw_sw_blend.c ****                 if(mask[x] != last_mask || last_dest_color.full != dest_buf[x].full) {
 590:lvgl/src/draw/sw/lv_draw_sw_blend.c ****                     opa_tmp = mask[x] >= LV_OPA_MAX ? opa : (uint32_t)((uint32_t)mask[x] * opa) >> 
 591:lvgl/src/draw/sw/lv_draw_sw_blend.c **** 
 592:lvgl/src/draw/sw/lv_draw_sw_blend.c ****                     last_res_color = blend_fp(color, dest_buf[x], opa_tmp);
 593:lvgl/src/draw/sw/lv_draw_sw_blend.c ****                     last_mask = mask[x];
 594:lvgl/src/draw/sw/lv_draw_sw_blend.c ****                     last_dest_color.full = dest_buf[x].full;
 595:lvgl/src/draw/sw/lv_draw_sw_blend.c ****                 }
 596:lvgl/src/draw/sw/lv_draw_sw_blend.c ****                 dest_buf[x] = last_res_color;
 597:lvgl/src/draw/sw/lv_draw_sw_blend.c ****             }
 598:lvgl/src/draw/sw/lv_draw_sw_blend.c ****             dest_buf += dest_stride;
 599:lvgl/src/draw/sw/lv_draw_sw_blend.c ****             mask += mask_stride;
 600:lvgl/src/draw/sw/lv_draw_sw_blend.c ****         }
 601:lvgl/src/draw/sw/lv_draw_sw_blend.c ****     }
 602:lvgl/src/draw/sw/lv_draw_sw_blend.c **** }
 115              		.loc 1 602 1 is_stmt 0 view .LVU25
 116 004e 07B0     		add	sp, sp, #28
 117              		.cfi_remember_state
 118              		.cfi_def_cfa_offset 36
 119              		@ sp needed
ARM GAS  C:\Users\OSD\AppData\Local\Temp\ccrPpCVL.s 			page 16


 120 0050 BDE8F08F 		pop	{r4, r5, r6, r7, r8, r9, r10, fp, pc}
 121              	.LVL7:
 122              	.L24:
 123              		.cfi_restore_state
 546:lvgl/src/draw/sw/lv_draw_sw_blend.c ****     switch(blend_mode) {
 124              		.loc 1 546 5 view .LVU26
 125 0054 DFF8ECA0 		ldr	r10, .L29
 126              	.L2:
 127              	.LVL8:
 562:lvgl/src/draw/sw/lv_draw_sw_blend.c ****         lv_color_t last_dest_color = dest_buf[0];
 128              		.loc 1 562 5 is_stmt 1 view .LVU27
 562:lvgl/src/draw/sw/lv_draw_sw_blend.c ****         lv_color_t last_dest_color = dest_buf[0];
 129              		.loc 1 562 7 is_stmt 0 view .LVU28
 130 0058 7FB1     		cbz	r7, .L25
 131              	.LBB59:
 579:lvgl/src/draw/sw/lv_draw_sw_blend.c ****         lv_color_t last_res_color;
 132              		.loc 1 579 9 is_stmt 1 view .LVU29
 580:lvgl/src/draw/sw/lv_draw_sw_blend.c ****         lv_opa_t last_mask = LV_OPA_TRANSP;
 133              		.loc 1 580 9 view .LVU30
 581:lvgl/src/draw/sw/lv_draw_sw_blend.c ****         last_dest_color = dest_buf[0];
 134              		.loc 1 581 9 view .LVU31
 135              	.LVL9:
 582:lvgl/src/draw/sw/lv_draw_sw_blend.c ****         lv_opa_t opa_tmp = mask[0] >= LV_OPA_MAX ? opa : (uint32_t)((uint32_t)mask[0] * opa) >> 8;
 136              		.loc 1 582 9 view .LVU32
 582:lvgl/src/draw/sw/lv_draw_sw_blend.c ****         lv_opa_t opa_tmp = mask[0] >= LV_OPA_MAX ? opa : (uint32_t)((uint32_t)mask[0] * opa) >> 8;
 137              		.loc 1 582 25 is_stmt 0 view .LVU33
 138 005a D5F800B0 		ldr	fp, [r5]
 583:lvgl/src/draw/sw/lv_draw_sw_blend.c ****         last_res_color = blend_fp(color, last_dest_color, opa_tmp);
 139              		.loc 1 583 9 is_stmt 1 view .LVU34
 583:lvgl/src/draw/sw/lv_draw_sw_blend.c ****         last_res_color = blend_fp(color, last_dest_color, opa_tmp);
 140              		.loc 1 583 32 is_stmt 0 view .LVU35
 141 005e 3B78     		ldrb	r3, [r7]	@ zero_extendqisi2
 142              	.LVL10:
 583:lvgl/src/draw/sw/lv_draw_sw_blend.c ****         last_res_color = blend_fp(color, last_dest_color, opa_tmp);
 143              		.loc 1 583 18 view .LVU36
 144 0060 FC2B     		cmp	r3, #252
 145 0062 33D8     		bhi	.L20
 583:lvgl/src/draw/sw/lv_draw_sw_blend.c ****         last_res_color = blend_fp(color, last_dest_color, opa_tmp);
 146              		.loc 1 583 58 discriminator 1 view .LVU37
 147 0064 019A     		ldr	r2, [sp, #4]
 148 0066 02FB03F3 		mul	r3, r2, r3
 583:lvgl/src/draw/sw/lv_draw_sw_blend.c ****         last_res_color = blend_fp(color, last_dest_color, opa_tmp);
 149              		.loc 1 583 18 discriminator 1 view .LVU38
 150 006a 1A0A     		lsrs	r2, r3, #8
 151 006c 2FE0     		b	.L9
 152              	.LVL11:
 153              	.L17:
 583:lvgl/src/draw/sw/lv_draw_sw_blend.c ****         last_res_color = blend_fp(color, last_dest_color, opa_tmp);
 154              		.loc 1 583 18 discriminator 1 view .LVU39
 155              	.LBE59:
 551:lvgl/src/draw/sw/lv_draw_sw_blend.c ****             break;
 156              		.loc 1 551 22 view .LVU40
 157 006e DFF8D8A0 		ldr	r10, .L29+4
 158 0072 F1E7     		b	.L2
 159              	.L18:
 554:lvgl/src/draw/sw/lv_draw_sw_blend.c ****             break;
 160              		.loc 1 554 22 view .LVU41
ARM GAS  C:\Users\OSD\AppData\Local\Temp\ccrPpCVL.s 			page 17


 161 0074 DFF8D4A0 		ldr	r10, .L29+8
 162 0078 EEE7     		b	.L2
 163              	.LVL12:
 164              	.L25:
 165              	.LBB60:
 563:lvgl/src/draw/sw/lv_draw_sw_blend.c ****         lv_color_t last_res_color = blend_fp(color, dest_buf[0], opa);
 166              		.loc 1 563 9 is_stmt 1 view .LVU42
 563:lvgl/src/draw/sw/lv_draw_sw_blend.c ****         lv_color_t last_res_color = blend_fp(color, dest_buf[0], opa);
 167              		.loc 1 563 20 is_stmt 0 view .LVU43
 168 007a 2E68     		ldr	r6, [r5]
 564:lvgl/src/draw/sw/lv_draw_sw_blend.c ****         for(y = 0; y < h; y++) {
 169              		.loc 1 564 9 is_stmt 1 view .LVU44
 564:lvgl/src/draw/sw/lv_draw_sw_blend.c ****         for(y = 0; y < h; y++) {
 170              		.loc 1 564 37 is_stmt 0 view .LVU45
 171 007c DDF804B0 		ldr	fp, [sp, #4]
 172 0080 5A46     		mov	r2, fp
 173              	.LVL13:
 564:lvgl/src/draw/sw/lv_draw_sw_blend.c ****         for(y = 0; y < h; y++) {
 174              		.loc 1 564 37 view .LVU46
 175 0082 3146     		mov	r1, r6
 176              	.LVL14:
 564:lvgl/src/draw/sw/lv_draw_sw_blend.c ****         for(y = 0; y < h; y++) {
 177              		.loc 1 564 37 view .LVU47
 178 0084 0446     		mov	r4, r0
 179 0086 D047     		blx	r10
 180              	.LVL15:
 565:lvgl/src/draw/sw/lv_draw_sw_blend.c ****             for(x = 0; x < w; x++) {
 181              		.loc 1 565 9 is_stmt 1 view .LVU48
 565:lvgl/src/draw/sw/lv_draw_sw_blend.c ****             for(x = 0; x < w; x++) {
 182              		.loc 1 565 15 is_stmt 0 view .LVU49
 183 0088 4FF00009 		mov	r9, #0
 184 008c CDF80490 		str	r9, [sp, #4]
 185              	.LVL16:
 565:lvgl/src/draw/sw/lv_draw_sw_blend.c ****             for(x = 0; x < w; x++) {
 186              		.loc 1 565 15 view .LVU50
 187 0090 A146     		mov	r9, r4
 565:lvgl/src/draw/sw/lv_draw_sw_blend.c ****             for(x = 0; x < w; x++) {
 188              		.loc 1 565 9 view .LVU51
 189 0092 15E0     		b	.L5
 190              	.LVL17:
 191              	.L6:
 571:lvgl/src/draw/sw/lv_draw_sw_blend.c ****             }
 192              		.loc 1 571 17 is_stmt 1 discriminator 2 view .LVU52
 571:lvgl/src/draw/sw/lv_draw_sw_blend.c ****             }
 193              		.loc 1 571 29 is_stmt 0 discriminator 2 view .LVU53
 194 0094 3860     		str	r0, [r7]
 566:lvgl/src/draw/sw/lv_draw_sw_blend.c ****                 if(last_dest_color.full != dest_buf[x].full) {
 195              		.loc 1 566 31 is_stmt 1 discriminator 2 view .LVU54
 566:lvgl/src/draw/sw/lv_draw_sw_blend.c ****                 if(last_dest_color.full != dest_buf[x].full) {
 196              		.loc 1 566 32 is_stmt 0 discriminator 2 view .LVU55
 197 0096 0134     		adds	r4, r4, #1
 198              	.LVL18:
 199              	.L8:
 566:lvgl/src/draw/sw/lv_draw_sw_blend.c ****                 if(last_dest_color.full != dest_buf[x].full) {
 200              		.loc 1 566 24 is_stmt 1 discriminator 1 view .LVU56
 566:lvgl/src/draw/sw/lv_draw_sw_blend.c ****                 if(last_dest_color.full != dest_buf[x].full) {
 201              		.loc 1 566 13 is_stmt 0 discriminator 1 view .LVU57
ARM GAS  C:\Users\OSD\AppData\Local\Temp\ccrPpCVL.s 			page 18


 202 0098 4445     		cmp	r4, r8
 203 009a 0BDA     		bge	.L26
 567:lvgl/src/draw/sw/lv_draw_sw_blend.c ****                     last_dest_color = dest_buf[x];
 204              		.loc 1 567 17 is_stmt 1 view .LVU58
 567:lvgl/src/draw/sw/lv_draw_sw_blend.c ****                     last_dest_color = dest_buf[x];
 205              		.loc 1 567 52 is_stmt 0 view .LVU59
 206 009c 05EB8407 		add	r7, r5, r4, lsl #2
 567:lvgl/src/draw/sw/lv_draw_sw_blend.c ****                     last_dest_color = dest_buf[x];
 207              		.loc 1 567 55 view .LVU60
 208 00a0 55F82430 		ldr	r3, [r5, r4, lsl #2]
 567:lvgl/src/draw/sw/lv_draw_sw_blend.c ****                     last_dest_color = dest_buf[x];
 209              		.loc 1 567 19 view .LVU61
 210 00a4 9E42     		cmp	r6, r3
 211 00a6 F5D0     		beq	.L6
 568:lvgl/src/draw/sw/lv_draw_sw_blend.c ****                     last_res_color = blend_fp(color, dest_buf[x], opa);
 212              		.loc 1 568 21 is_stmt 1 view .LVU62
 568:lvgl/src/draw/sw/lv_draw_sw_blend.c ****                     last_res_color = blend_fp(color, dest_buf[x], opa);
 213              		.loc 1 568 37 is_stmt 0 view .LVU63
 214 00a8 1E46     		mov	r6, r3
 215              	.LVL19:
 569:lvgl/src/draw/sw/lv_draw_sw_blend.c ****                 }
 216              		.loc 1 569 21 is_stmt 1 view .LVU64
 569:lvgl/src/draw/sw/lv_draw_sw_blend.c ****                 }
 217              		.loc 1 569 38 is_stmt 0 view .LVU65
 218 00aa 5A46     		mov	r2, fp
 219              	.LVL20:
 569:lvgl/src/draw/sw/lv_draw_sw_blend.c ****                 }
 220              		.loc 1 569 38 view .LVU66
 221 00ac 1946     		mov	r1, r3
 222 00ae 4846     		mov	r0, r9
 223              	.LVL21:
 569:lvgl/src/draw/sw/lv_draw_sw_blend.c ****                 }
 224              		.loc 1 569 38 view .LVU67
 225 00b0 D047     		blx	r10
 226              	.LVL22:
 569:lvgl/src/draw/sw/lv_draw_sw_blend.c ****                 }
 227              		.loc 1 569 38 view .LVU68
 228 00b2 EFE7     		b	.L6
 229              	.LVL23:
 230              	.L26:
 573:lvgl/src/draw/sw/lv_draw_sw_blend.c ****         }
 231              		.loc 1 573 13 is_stmt 1 discriminator 2 view .LVU69
 573:lvgl/src/draw/sw/lv_draw_sw_blend.c ****         }
 232              		.loc 1 573 22 is_stmt 0 discriminator 2 view .LVU70
 233 00b4 049B     		ldr	r3, [sp, #16]
 234 00b6 05EB8305 		add	r5, r5, r3, lsl #2
 235              	.LVL24:
 565:lvgl/src/draw/sw/lv_draw_sw_blend.c ****             for(x = 0; x < w; x++) {
 236              		.loc 1 565 27 is_stmt 1 discriminator 2 view .LVU71
 565:lvgl/src/draw/sw/lv_draw_sw_blend.c ****             for(x = 0; x < w; x++) {
 237              		.loc 1 565 28 is_stmt 0 discriminator 2 view .LVU72
 238 00ba 019B     		ldr	r3, [sp, #4]
 239 00bc 0133     		adds	r3, r3, #1
 240 00be 0193     		str	r3, [sp, #4]
 241              	.LVL25:
 242              	.L5:
 565:lvgl/src/draw/sw/lv_draw_sw_blend.c ****             for(x = 0; x < w; x++) {
ARM GAS  C:\Users\OSD\AppData\Local\Temp\ccrPpCVL.s 			page 19


 243              		.loc 1 565 20 is_stmt 1 discriminator 1 view .LVU73
 565:lvgl/src/draw/sw/lv_draw_sw_blend.c ****             for(x = 0; x < w; x++) {
 244              		.loc 1 565 9 is_stmt 0 discriminator 1 view .LVU74
 245 00c0 019B     		ldr	r3, [sp, #4]
 246 00c2 039A     		ldr	r2, [sp, #12]
 247 00c4 9342     		cmp	r3, r2
 248 00c6 C2DA     		bge	.L1
 566:lvgl/src/draw/sw/lv_draw_sw_blend.c ****                 if(last_dest_color.full != dest_buf[x].full) {
 249              		.loc 1 566 19 view .LVU75
 250 00c8 0024     		movs	r4, #0
 251              	.LVL26:
 566:lvgl/src/draw/sw/lv_draw_sw_blend.c ****                 if(last_dest_color.full != dest_buf[x].full) {
 252              		.loc 1 566 19 view .LVU76
 253 00ca E5E7     		b	.L8
 254              	.LVL27:
 255              	.L20:
 566:lvgl/src/draw/sw/lv_draw_sw_blend.c ****                 if(last_dest_color.full != dest_buf[x].full) {
 256              		.loc 1 566 19 view .LVU77
 257              	.LBE60:
 258              	.LBB61:
 583:lvgl/src/draw/sw/lv_draw_sw_blend.c ****         last_res_color = blend_fp(color, last_dest_color, opa_tmp);
 259              		.loc 1 583 18 view .LVU78
 260 00cc 019A     		ldr	r2, [sp, #4]
 261              	.L9:
 262              	.LVL28:
 584:lvgl/src/draw/sw/lv_draw_sw_blend.c **** 
 263              		.loc 1 584 9 is_stmt 1 discriminator 4 view .LVU79
 584:lvgl/src/draw/sw/lv_draw_sw_blend.c **** 
 264              		.loc 1 584 26 is_stmt 0 discriminator 4 view .LVU80
 265 00ce 5946     		mov	r1, fp
 266              	.LVL29:
 584:lvgl/src/draw/sw/lv_draw_sw_blend.c **** 
 267              		.loc 1 584 26 discriminator 4 view .LVU81
 268 00d0 0446     		mov	r4, r0
 269 00d2 D047     		blx	r10
 270              	.LVL30:
 586:lvgl/src/draw/sw/lv_draw_sw_blend.c ****             for(x = 0; x < w; x++) {
 271              		.loc 1 586 9 is_stmt 1 discriminator 4 view .LVU82
 581:lvgl/src/draw/sw/lv_draw_sw_blend.c ****         last_dest_color = dest_buf[0];
 272              		.loc 1 581 18 is_stmt 0 discriminator 4 view .LVU83
 273 00d4 0023     		movs	r3, #0
 586:lvgl/src/draw/sw/lv_draw_sw_blend.c ****             for(x = 0; x < w; x++) {
 274              		.loc 1 586 15 discriminator 4 view .LVU84
 275 00d6 0293     		str	r3, [sp, #8]
 276 00d8 5946     		mov	r1, fp
 277              	.LVL31:
 586:lvgl/src/draw/sw/lv_draw_sw_blend.c ****             for(x = 0; x < w; x++) {
 278              		.loc 1 586 15 discriminator 4 view .LVU85
 279 00da A346     		mov	fp, r4
 280              	.LVL32:
 586:lvgl/src/draw/sw/lv_draw_sw_blend.c ****             for(x = 0; x < w; x++) {
 281              		.loc 1 586 9 discriminator 4 view .LVU86
 282 00dc 2AE0     		b	.L10
 283              	.LVL33:
 284              	.L28:
 589:lvgl/src/draw/sw/lv_draw_sw_blend.c ****                     opa_tmp = mask[x] >= LV_OPA_MAX ? opa : (uint32_t)((uint32_t)mask[x] * opa) >> 
 285              		.loc 1 589 41 discriminator 1 view .LVU87
ARM GAS  C:\Users\OSD\AppData\Local\Temp\ccrPpCVL.s 			page 20


 286 00de 55F82430 		ldr	r3, [r5, r4, lsl #2]
 287 00e2 9942     		cmp	r1, r3
 288 00e4 16D1     		bne	.L12
 589:lvgl/src/draw/sw/lv_draw_sw_blend.c ****                     opa_tmp = mask[x] >= LV_OPA_MAX ? opa : (uint32_t)((uint32_t)mask[x] * opa) >> 
 289              		.loc 1 589 41 discriminator 1 view .LVU88
 290 00e6 08E0     		b	.L13
 291              	.L21:
 590:lvgl/src/draw/sw/lv_draw_sw_blend.c **** 
 292              		.loc 1 590 29 view .LVU89
 293 00e8 019A     		ldr	r2, [sp, #4]
 294              	.L14:
 295              	.LVL34:
 592:lvgl/src/draw/sw/lv_draw_sw_blend.c ****                     last_mask = mask[x];
 296              		.loc 1 592 21 is_stmt 1 discriminator 4 view .LVU90
 592:lvgl/src/draw/sw/lv_draw_sw_blend.c ****                     last_mask = mask[x];
 297              		.loc 1 592 38 is_stmt 0 discriminator 4 view .LVU91
 298 00ea 55F82610 		ldr	r1, [r5, r6, lsl #2]
 299              	.LVL35:
 592:lvgl/src/draw/sw/lv_draw_sw_blend.c ****                     last_mask = mask[x];
 300              		.loc 1 592 38 discriminator 4 view .LVU92
 301 00ee 5846     		mov	r0, fp
 302              	.LVL36:
 592:lvgl/src/draw/sw/lv_draw_sw_blend.c ****                     last_mask = mask[x];
 303              		.loc 1 592 38 discriminator 4 view .LVU93
 304 00f0 D047     		blx	r10
 305              	.LVL37:
 593:lvgl/src/draw/sw/lv_draw_sw_blend.c ****                     last_dest_color.full = dest_buf[x].full;
 306              		.loc 1 593 21 is_stmt 1 discriminator 4 view .LVU94
 593:lvgl/src/draw/sw/lv_draw_sw_blend.c ****                     last_dest_color.full = dest_buf[x].full;
 307              		.loc 1 593 31 is_stmt 0 discriminator 4 view .LVU95
 308 00f2 99F800C0 		ldrb	ip, [r9]	@ zero_extendqisi2
 309              	.LVL38:
 594:lvgl/src/draw/sw/lv_draw_sw_blend.c ****                 }
 310              		.loc 1 594 21 is_stmt 1 discriminator 4 view .LVU96
 594:lvgl/src/draw/sw/lv_draw_sw_blend.c ****                 }
 311              		.loc 1 594 55 is_stmt 0 discriminator 4 view .LVU97
 312 00f6 55F82610 		ldr	r1, [r5, r6, lsl #2]
 313              	.LVL39:
 314              	.L13:
 596:lvgl/src/draw/sw/lv_draw_sw_blend.c ****             }
 315              		.loc 1 596 17 is_stmt 1 view .LVU98
 596:lvgl/src/draw/sw/lv_draw_sw_blend.c ****             }
 316              		.loc 1 596 29 is_stmt 0 view .LVU99
 317 00fa 45F82600 		str	r0, [r5, r6, lsl #2]
 318              	.L11:
 587:lvgl/src/draw/sw/lv_draw_sw_blend.c ****                 if(mask[x] == 0) continue;
 319              		.loc 1 587 31 is_stmt 1 discriminator 2 view .LVU100
 587:lvgl/src/draw/sw/lv_draw_sw_blend.c ****                 if(mask[x] == 0) continue;
 320              		.loc 1 587 32 is_stmt 0 discriminator 2 view .LVU101
 321 00fe 0134     		adds	r4, r4, #1
 322              	.LVL40:
 323              	.L16:
 587:lvgl/src/draw/sw/lv_draw_sw_blend.c ****                 if(mask[x] == 0) continue;
 324              		.loc 1 587 24 is_stmt 1 discriminator 1 view .LVU102
 587:lvgl/src/draw/sw/lv_draw_sw_blend.c ****                 if(mask[x] == 0) continue;
 325              		.loc 1 587 13 is_stmt 0 discriminator 1 view .LVU103
 326 0100 4445     		cmp	r4, r8
ARM GAS  C:\Users\OSD\AppData\Local\Temp\ccrPpCVL.s 			page 21


 327 0102 0EDA     		bge	.L27
 588:lvgl/src/draw/sw/lv_draw_sw_blend.c ****                 if(mask[x] != last_mask || last_dest_color.full != dest_buf[x].full) {
 328              		.loc 1 588 17 is_stmt 1 view .LVU104
 588:lvgl/src/draw/sw/lv_draw_sw_blend.c ****                 if(mask[x] != last_mask || last_dest_color.full != dest_buf[x].full) {
 329              		.loc 1 588 24 is_stmt 0 view .LVU105
 330 0104 2646     		mov	r6, r4
 331 0106 07EB0409 		add	r9, r7, r4
 332 010a 3A5D     		ldrb	r2, [r7, r4]	@ zero_extendqisi2
 588:lvgl/src/draw/sw/lv_draw_sw_blend.c ****                 if(mask[x] != last_mask || last_dest_color.full != dest_buf[x].full) {
 333              		.loc 1 588 19 view .LVU106
 334 010c 002A     		cmp	r2, #0
 335 010e F6D0     		beq	.L11
 589:lvgl/src/draw/sw/lv_draw_sw_blend.c ****                     opa_tmp = mask[x] >= LV_OPA_MAX ? opa : (uint32_t)((uint32_t)mask[x] * opa) >> 
 336              		.loc 1 589 17 is_stmt 1 view .LVU107
 589:lvgl/src/draw/sw/lv_draw_sw_blend.c ****                     opa_tmp = mask[x] >= LV_OPA_MAX ? opa : (uint32_t)((uint32_t)mask[x] * opa) >> 
 337              		.loc 1 589 19 is_stmt 0 view .LVU108
 338 0110 6245     		cmp	r2, ip
 339 0112 E4D0     		beq	.L28
 340              	.L12:
 590:lvgl/src/draw/sw/lv_draw_sw_blend.c **** 
 341              		.loc 1 590 21 is_stmt 1 view .LVU109
 590:lvgl/src/draw/sw/lv_draw_sw_blend.c **** 
 342              		.loc 1 590 29 is_stmt 0 view .LVU110
 343 0114 FC2A     		cmp	r2, #252
 344 0116 E7D8     		bhi	.L21
 590:lvgl/src/draw/sw/lv_draw_sw_blend.c **** 
 345              		.loc 1 590 61 discriminator 1 view .LVU111
 346 0118 019B     		ldr	r3, [sp, #4]
 347 011a 03FB02F2 		mul	r2, r3, r2
 590:lvgl/src/draw/sw/lv_draw_sw_blend.c **** 
 348              		.loc 1 590 29 discriminator 1 view .LVU112
 349 011e 120A     		lsrs	r2, r2, #8
 350 0120 E3E7     		b	.L14
 351              	.L27:
 598:lvgl/src/draw/sw/lv_draw_sw_blend.c ****             mask += mask_stride;
 352              		.loc 1 598 22 discriminator 2 view .LVU113
 353 0122 6346     		mov	r3, ip
 598:lvgl/src/draw/sw/lv_draw_sw_blend.c ****             mask += mask_stride;
 354              		.loc 1 598 13 is_stmt 1 discriminator 2 view .LVU114
 598:lvgl/src/draw/sw/lv_draw_sw_blend.c ****             mask += mask_stride;
 355              		.loc 1 598 22 is_stmt 0 discriminator 2 view .LVU115
 356 0124 049A     		ldr	r2, [sp, #16]
 357 0126 05EB8205 		add	r5, r5, r2, lsl #2
 358              	.LVL41:
 599:lvgl/src/draw/sw/lv_draw_sw_blend.c ****         }
 359              		.loc 1 599 13 is_stmt 1 discriminator 2 view .LVU116
 599:lvgl/src/draw/sw/lv_draw_sw_blend.c ****         }
 360              		.loc 1 599 18 is_stmt 0 discriminator 2 view .LVU117
 361 012a 059A     		ldr	r2, [sp, #20]
 362 012c 1744     		add	r7, r7, r2
 363              	.LVL42:
 586:lvgl/src/draw/sw/lv_draw_sw_blend.c ****             for(x = 0; x < w; x++) {
 364              		.loc 1 586 27 is_stmt 1 discriminator 2 view .LVU118
 586:lvgl/src/draw/sw/lv_draw_sw_blend.c ****             for(x = 0; x < w; x++) {
 365              		.loc 1 586 28 is_stmt 0 discriminator 2 view .LVU119
 366 012e 029A     		ldr	r2, [sp, #8]
 367 0130 0132     		adds	r2, r2, #1
ARM GAS  C:\Users\OSD\AppData\Local\Temp\ccrPpCVL.s 			page 22


 368 0132 0292     		str	r2, [sp, #8]
 369              	.LVL43:
 370              	.L10:
 586:lvgl/src/draw/sw/lv_draw_sw_blend.c ****             for(x = 0; x < w; x++) {
 371              		.loc 1 586 20 is_stmt 1 discriminator 1 view .LVU120
 586:lvgl/src/draw/sw/lv_draw_sw_blend.c ****             for(x = 0; x < w; x++) {
 372              		.loc 1 586 9 is_stmt 0 discriminator 1 view .LVU121
 373 0134 029A     		ldr	r2, [sp, #8]
 374 0136 039C     		ldr	r4, [sp, #12]
 375              	.LVL44:
 586:lvgl/src/draw/sw/lv_draw_sw_blend.c ****             for(x = 0; x < w; x++) {
 376              		.loc 1 586 9 discriminator 1 view .LVU122
 377 0138 A242     		cmp	r2, r4
 378 013a 88DA     		bge	.L1
 587:lvgl/src/draw/sw/lv_draw_sw_blend.c ****                 if(mask[x] == 0) continue;
 379              		.loc 1 587 19 view .LVU123
 380 013c 0024     		movs	r4, #0
 381 013e 9C46     		mov	ip, r3
 382 0140 DEE7     		b	.L16
 383              	.L30:
 384 0142 00BF     		.align	2
 385              	.L29:
 386 0144 00000000 		.word	color_blend_true_color_additive
 387 0148 00000000 		.word	color_blend_true_color_subtractive
 388 014c 00000000 		.word	color_blend_true_color_multiply
 389              	.LBE61:
 390              		.cfi_endproc
 391              	.LFE165:
 393              		.section	.text.map_blended,"ax",%progbits
 394              		.align	1
 395              		.syntax unified
 396              		.thumb
 397              		.thumb_func
 399              	map_blended:
 400              	.LVL45:
 401              	.LFB168:
 603:lvgl/src/draw/sw/lv_draw_sw_blend.c **** #endif
 604:lvgl/src/draw/sw/lv_draw_sw_blend.c **** 
 605:lvgl/src/draw/sw/lv_draw_sw_blend.c **** static void map_set_px(lv_color_t * dest_buf, const lv_area_t * dest_area, lv_coord_t dest_stride,
 606:lvgl/src/draw/sw/lv_draw_sw_blend.c ****                        const lv_color_t * src_buf, lv_coord_t src_stride, lv_opa_t opa,
 607:lvgl/src/draw/sw/lv_draw_sw_blend.c ****                        const lv_opa_t * mask, lv_coord_t mask_stride)
 608:lvgl/src/draw/sw/lv_draw_sw_blend.c **** 
 609:lvgl/src/draw/sw/lv_draw_sw_blend.c **** {
 610:lvgl/src/draw/sw/lv_draw_sw_blend.c ****     lv_disp_t * disp = _lv_refr_get_disp_refreshing();
 611:lvgl/src/draw/sw/lv_draw_sw_blend.c **** 
 612:lvgl/src/draw/sw/lv_draw_sw_blend.c ****     int32_t w = lv_area_get_width(dest_area);
 613:lvgl/src/draw/sw/lv_draw_sw_blend.c ****     int32_t h = lv_area_get_height(dest_area);
 614:lvgl/src/draw/sw/lv_draw_sw_blend.c **** 
 615:lvgl/src/draw/sw/lv_draw_sw_blend.c ****     int32_t x;
 616:lvgl/src/draw/sw/lv_draw_sw_blend.c ****     int32_t y;
 617:lvgl/src/draw/sw/lv_draw_sw_blend.c **** 
 618:lvgl/src/draw/sw/lv_draw_sw_blend.c ****     if(mask == NULL) {
 619:lvgl/src/draw/sw/lv_draw_sw_blend.c ****         for(y = 0; y < h; y++) {
 620:lvgl/src/draw/sw/lv_draw_sw_blend.c ****             for(x = 0; x < w; x++) {
 621:lvgl/src/draw/sw/lv_draw_sw_blend.c ****                 disp->driver->set_px_cb(disp->driver, (void *)dest_buf, dest_stride, dest_area->x1 
 622:lvgl/src/draw/sw/lv_draw_sw_blend.c ****                                         opa);
 623:lvgl/src/draw/sw/lv_draw_sw_blend.c ****             }
ARM GAS  C:\Users\OSD\AppData\Local\Temp\ccrPpCVL.s 			page 23


 624:lvgl/src/draw/sw/lv_draw_sw_blend.c ****             src_buf += src_stride;
 625:lvgl/src/draw/sw/lv_draw_sw_blend.c ****         }
 626:lvgl/src/draw/sw/lv_draw_sw_blend.c ****     }
 627:lvgl/src/draw/sw/lv_draw_sw_blend.c ****     else {
 628:lvgl/src/draw/sw/lv_draw_sw_blend.c ****         for(y = 0; y < h; y++) {
 629:lvgl/src/draw/sw/lv_draw_sw_blend.c ****             for(x = 0; x < w; x++) {
 630:lvgl/src/draw/sw/lv_draw_sw_blend.c ****                 if(mask[x]) {
 631:lvgl/src/draw/sw/lv_draw_sw_blend.c ****                     disp->driver->set_px_cb(disp->driver, (void *)dest_buf, dest_stride, dest_area-
 632:lvgl/src/draw/sw/lv_draw_sw_blend.c ****                                             (uint32_t)((uint32_t)opa * mask[x]) >> 8);
 633:lvgl/src/draw/sw/lv_draw_sw_blend.c ****                 }
 634:lvgl/src/draw/sw/lv_draw_sw_blend.c ****             }
 635:lvgl/src/draw/sw/lv_draw_sw_blend.c ****             mask += mask_stride;
 636:lvgl/src/draw/sw/lv_draw_sw_blend.c ****             src_buf += src_stride;
 637:lvgl/src/draw/sw/lv_draw_sw_blend.c ****         }
 638:lvgl/src/draw/sw/lv_draw_sw_blend.c ****     }
 639:lvgl/src/draw/sw/lv_draw_sw_blend.c **** }
 640:lvgl/src/draw/sw/lv_draw_sw_blend.c **** 
 641:lvgl/src/draw/sw/lv_draw_sw_blend.c **** static void LV_ATTRIBUTE_FAST_MEM map_normal(lv_color_t * dest_buf, const lv_area_t * dest_area,
 642:lvgl/src/draw/sw/lv_draw_sw_blend.c ****                                              lv_coord_t dest_stride, const lv_color_t * src_buf,
 643:lvgl/src/draw/sw/lv_draw_sw_blend.c ****                                              lv_coord_t src_stride, lv_opa_t opa, const lv_opa_t * 
 644:lvgl/src/draw/sw/lv_draw_sw_blend.c ****                                              lv_coord_t mask_stride)
 645:lvgl/src/draw/sw/lv_draw_sw_blend.c **** 
 646:lvgl/src/draw/sw/lv_draw_sw_blend.c **** {
 647:lvgl/src/draw/sw/lv_draw_sw_blend.c ****     int32_t w = lv_area_get_width(dest_area);
 648:lvgl/src/draw/sw/lv_draw_sw_blend.c ****     int32_t h = lv_area_get_height(dest_area);
 649:lvgl/src/draw/sw/lv_draw_sw_blend.c **** 
 650:lvgl/src/draw/sw/lv_draw_sw_blend.c ****     int32_t x;
 651:lvgl/src/draw/sw/lv_draw_sw_blend.c ****     int32_t y;
 652:lvgl/src/draw/sw/lv_draw_sw_blend.c **** 
 653:lvgl/src/draw/sw/lv_draw_sw_blend.c ****     /*Simple fill (maybe with opacity), no masking*/
 654:lvgl/src/draw/sw/lv_draw_sw_blend.c ****     if(mask == NULL) {
 655:lvgl/src/draw/sw/lv_draw_sw_blend.c ****         if(opa >= LV_OPA_MAX) {
 656:lvgl/src/draw/sw/lv_draw_sw_blend.c ****             for(y = 0; y < h; y++) {
 657:lvgl/src/draw/sw/lv_draw_sw_blend.c ****                 lv_memcpy(dest_buf, src_buf, w * sizeof(lv_color_t));
 658:lvgl/src/draw/sw/lv_draw_sw_blend.c ****                 dest_buf += dest_stride;
 659:lvgl/src/draw/sw/lv_draw_sw_blend.c ****                 src_buf += src_stride;
 660:lvgl/src/draw/sw/lv_draw_sw_blend.c ****             }
 661:lvgl/src/draw/sw/lv_draw_sw_blend.c ****         }
 662:lvgl/src/draw/sw/lv_draw_sw_blend.c ****         else {
 663:lvgl/src/draw/sw/lv_draw_sw_blend.c ****             for(y = 0; y < h; y++) {
 664:lvgl/src/draw/sw/lv_draw_sw_blend.c ****                 for(x = 0; x < w; x++) {
 665:lvgl/src/draw/sw/lv_draw_sw_blend.c ****                     dest_buf[x] = lv_color_mix(src_buf[x], dest_buf[x], opa);
 666:lvgl/src/draw/sw/lv_draw_sw_blend.c ****                 }
 667:lvgl/src/draw/sw/lv_draw_sw_blend.c ****                 dest_buf += dest_stride;
 668:lvgl/src/draw/sw/lv_draw_sw_blend.c ****                 src_buf += src_stride;
 669:lvgl/src/draw/sw/lv_draw_sw_blend.c ****             }
 670:lvgl/src/draw/sw/lv_draw_sw_blend.c ****         }
 671:lvgl/src/draw/sw/lv_draw_sw_blend.c ****     }
 672:lvgl/src/draw/sw/lv_draw_sw_blend.c ****     /*Masked*/
 673:lvgl/src/draw/sw/lv_draw_sw_blend.c ****     else {
 674:lvgl/src/draw/sw/lv_draw_sw_blend.c ****         /*Only the mask matters*/
 675:lvgl/src/draw/sw/lv_draw_sw_blend.c ****         if(opa > LV_OPA_MAX) {
 676:lvgl/src/draw/sw/lv_draw_sw_blend.c ****             int32_t x_end4 = w - 4;
 677:lvgl/src/draw/sw/lv_draw_sw_blend.c **** 
 678:lvgl/src/draw/sw/lv_draw_sw_blend.c ****             for(y = 0; y < h; y++) {
 679:lvgl/src/draw/sw/lv_draw_sw_blend.c ****                 const lv_opa_t * mask_tmp_x = mask;
 680:lvgl/src/draw/sw/lv_draw_sw_blend.c **** #if 0
ARM GAS  C:\Users\OSD\AppData\Local\Temp\ccrPpCVL.s 			page 24


 681:lvgl/src/draw/sw/lv_draw_sw_blend.c ****                 for(x = 0; x < w; x++) {
 682:lvgl/src/draw/sw/lv_draw_sw_blend.c ****                     MAP_NORMAL_MASK_PX(x);
 683:lvgl/src/draw/sw/lv_draw_sw_blend.c ****                 }
 684:lvgl/src/draw/sw/lv_draw_sw_blend.c **** #else
 685:lvgl/src/draw/sw/lv_draw_sw_blend.c ****                 for(x = 0; x < w && ((lv_uintptr_t)mask_tmp_x & 0x3); x++) {
 686:lvgl/src/draw/sw/lv_draw_sw_blend.c ****                     MAP_NORMAL_MASK_PX(x)
 687:lvgl/src/draw/sw/lv_draw_sw_blend.c ****                 }
 688:lvgl/src/draw/sw/lv_draw_sw_blend.c **** 
 689:lvgl/src/draw/sw/lv_draw_sw_blend.c ****                 uint32_t * mask32 = (uint32_t *)mask_tmp_x;
 690:lvgl/src/draw/sw/lv_draw_sw_blend.c ****                 for(; x < x_end4; x += 4) {
 691:lvgl/src/draw/sw/lv_draw_sw_blend.c ****                     if(*mask32) {
 692:lvgl/src/draw/sw/lv_draw_sw_blend.c ****                         if((*mask32) == 0xFFFFFFFF) {
 693:lvgl/src/draw/sw/lv_draw_sw_blend.c ****                             dest_buf[x] = src_buf[x];
 694:lvgl/src/draw/sw/lv_draw_sw_blend.c ****                             dest_buf[x + 1] = src_buf[x + 1];
 695:lvgl/src/draw/sw/lv_draw_sw_blend.c ****                             dest_buf[x + 2] = src_buf[x + 2];
 696:lvgl/src/draw/sw/lv_draw_sw_blend.c ****                             dest_buf[x + 3] = src_buf[x + 3];
 697:lvgl/src/draw/sw/lv_draw_sw_blend.c ****                         }
 698:lvgl/src/draw/sw/lv_draw_sw_blend.c ****                         else {
 699:lvgl/src/draw/sw/lv_draw_sw_blend.c ****                             mask_tmp_x = (const lv_opa_t *)mask32;
 700:lvgl/src/draw/sw/lv_draw_sw_blend.c ****                             MAP_NORMAL_MASK_PX(x)
 701:lvgl/src/draw/sw/lv_draw_sw_blend.c ****                             MAP_NORMAL_MASK_PX(x + 1)
 702:lvgl/src/draw/sw/lv_draw_sw_blend.c ****                             MAP_NORMAL_MASK_PX(x + 2)
 703:lvgl/src/draw/sw/lv_draw_sw_blend.c ****                             MAP_NORMAL_MASK_PX(x + 3)
 704:lvgl/src/draw/sw/lv_draw_sw_blend.c ****                         }
 705:lvgl/src/draw/sw/lv_draw_sw_blend.c ****                     }
 706:lvgl/src/draw/sw/lv_draw_sw_blend.c ****                     mask32++;
 707:lvgl/src/draw/sw/lv_draw_sw_blend.c ****                 }
 708:lvgl/src/draw/sw/lv_draw_sw_blend.c **** 
 709:lvgl/src/draw/sw/lv_draw_sw_blend.c ****                 mask_tmp_x = (const lv_opa_t *)mask32;
 710:lvgl/src/draw/sw/lv_draw_sw_blend.c ****                 for(; x < w ; x++) {
 711:lvgl/src/draw/sw/lv_draw_sw_blend.c ****                     MAP_NORMAL_MASK_PX(x)
 712:lvgl/src/draw/sw/lv_draw_sw_blend.c ****                 }
 713:lvgl/src/draw/sw/lv_draw_sw_blend.c **** #endif
 714:lvgl/src/draw/sw/lv_draw_sw_blend.c ****                 dest_buf += dest_stride;
 715:lvgl/src/draw/sw/lv_draw_sw_blend.c ****                 src_buf += src_stride;
 716:lvgl/src/draw/sw/lv_draw_sw_blend.c ****                 mask += mask_stride;
 717:lvgl/src/draw/sw/lv_draw_sw_blend.c ****             }
 718:lvgl/src/draw/sw/lv_draw_sw_blend.c ****         }
 719:lvgl/src/draw/sw/lv_draw_sw_blend.c ****         /*Handle opa and mask values too*/
 720:lvgl/src/draw/sw/lv_draw_sw_blend.c ****         else {
 721:lvgl/src/draw/sw/lv_draw_sw_blend.c ****             for(y = 0; y < h; y++) {
 722:lvgl/src/draw/sw/lv_draw_sw_blend.c ****                 for(x = 0; x < w; x++) {
 723:lvgl/src/draw/sw/lv_draw_sw_blend.c ****                     if(mask[x]) {
 724:lvgl/src/draw/sw/lv_draw_sw_blend.c ****                         lv_opa_t opa_tmp = mask[x] >= LV_OPA_MAX ? opa : ((opa * mask[x]) >> 8);
 725:lvgl/src/draw/sw/lv_draw_sw_blend.c ****                         dest_buf[x] = lv_color_mix(src_buf[x], dest_buf[x], opa_tmp);
 726:lvgl/src/draw/sw/lv_draw_sw_blend.c ****                     }
 727:lvgl/src/draw/sw/lv_draw_sw_blend.c ****                 }
 728:lvgl/src/draw/sw/lv_draw_sw_blend.c ****                 dest_buf += dest_stride;
 729:lvgl/src/draw/sw/lv_draw_sw_blend.c ****                 src_buf += src_stride;
 730:lvgl/src/draw/sw/lv_draw_sw_blend.c ****                 mask += mask_stride;
 731:lvgl/src/draw/sw/lv_draw_sw_blend.c ****             }
 732:lvgl/src/draw/sw/lv_draw_sw_blend.c ****         }
 733:lvgl/src/draw/sw/lv_draw_sw_blend.c ****     }
 734:lvgl/src/draw/sw/lv_draw_sw_blend.c **** }
 735:lvgl/src/draw/sw/lv_draw_sw_blend.c **** 
 736:lvgl/src/draw/sw/lv_draw_sw_blend.c **** #if LV_COLOR_SCREEN_TRANSP
 737:lvgl/src/draw/sw/lv_draw_sw_blend.c **** static void LV_ATTRIBUTE_FAST_MEM map_argb(lv_color_t * dest_buf, const lv_area_t * dest_area,
ARM GAS  C:\Users\OSD\AppData\Local\Temp\ccrPpCVL.s 			page 25


 738:lvgl/src/draw/sw/lv_draw_sw_blend.c ****                                            lv_coord_t dest_stride, const lv_color_t * src_buf,
 739:lvgl/src/draw/sw/lv_draw_sw_blend.c ****                                            lv_coord_t src_stride, lv_opa_t opa, const lv_opa_t * ma
 740:lvgl/src/draw/sw/lv_draw_sw_blend.c ****                                            lv_coord_t mask_stride, lv_blend_mode_t blend_mode)
 741:lvgl/src/draw/sw/lv_draw_sw_blend.c **** 
 742:lvgl/src/draw/sw/lv_draw_sw_blend.c **** {
 743:lvgl/src/draw/sw/lv_draw_sw_blend.c ****     uint8_t * dest_buf8 = (uint8_t *) dest_buf;
 744:lvgl/src/draw/sw/lv_draw_sw_blend.c **** 
 745:lvgl/src/draw/sw/lv_draw_sw_blend.c ****     int32_t w = lv_area_get_width(dest_area);
 746:lvgl/src/draw/sw/lv_draw_sw_blend.c ****     int32_t h = lv_area_get_height(dest_area);
 747:lvgl/src/draw/sw/lv_draw_sw_blend.c **** 
 748:lvgl/src/draw/sw/lv_draw_sw_blend.c ****     int32_t x;
 749:lvgl/src/draw/sw/lv_draw_sw_blend.c ****     int32_t y;
 750:lvgl/src/draw/sw/lv_draw_sw_blend.c **** 
 751:lvgl/src/draw/sw/lv_draw_sw_blend.c ****     lv_color_t (*blend_fp)(lv_color_t, lv_color_t, lv_opa_t);
 752:lvgl/src/draw/sw/lv_draw_sw_blend.c ****     switch(blend_mode) {
 753:lvgl/src/draw/sw/lv_draw_sw_blend.c ****         case LV_BLEND_MODE_ADDITIVE:
 754:lvgl/src/draw/sw/lv_draw_sw_blend.c ****             blend_fp = color_blend_true_color_additive;
 755:lvgl/src/draw/sw/lv_draw_sw_blend.c ****             break;
 756:lvgl/src/draw/sw/lv_draw_sw_blend.c ****         case LV_BLEND_MODE_SUBTRACTIVE:
 757:lvgl/src/draw/sw/lv_draw_sw_blend.c ****             blend_fp = color_blend_true_color_subtractive;
 758:lvgl/src/draw/sw/lv_draw_sw_blend.c ****             break;
 759:lvgl/src/draw/sw/lv_draw_sw_blend.c ****         case LV_BLEND_MODE_MULTIPLY:
 760:lvgl/src/draw/sw/lv_draw_sw_blend.c ****             blend_fp = color_blend_true_color_multiply;
 761:lvgl/src/draw/sw/lv_draw_sw_blend.c ****             break;
 762:lvgl/src/draw/sw/lv_draw_sw_blend.c ****         default:
 763:lvgl/src/draw/sw/lv_draw_sw_blend.c ****             blend_fp = NULL;
 764:lvgl/src/draw/sw/lv_draw_sw_blend.c ****     }
 765:lvgl/src/draw/sw/lv_draw_sw_blend.c **** 
 766:lvgl/src/draw/sw/lv_draw_sw_blend.c ****     /*Simple fill (maybe with opacity), no masking*/
 767:lvgl/src/draw/sw/lv_draw_sw_blend.c ****     if(mask == NULL) {
 768:lvgl/src/draw/sw/lv_draw_sw_blend.c ****         if(opa >= LV_OPA_MAX) {
 769:lvgl/src/draw/sw/lv_draw_sw_blend.c ****             if(blend_fp == NULL && LV_COLOR_DEPTH == 32) {
 770:lvgl/src/draw/sw/lv_draw_sw_blend.c ****                 for(y = 0; y < h; y++) {
 771:lvgl/src/draw/sw/lv_draw_sw_blend.c ****                     lv_memcpy(dest_buf, src_buf, w * sizeof(lv_color_t));
 772:lvgl/src/draw/sw/lv_draw_sw_blend.c ****                     dest_buf += dest_stride;
 773:lvgl/src/draw/sw/lv_draw_sw_blend.c ****                     src_buf += src_stride;
 774:lvgl/src/draw/sw/lv_draw_sw_blend.c ****                 }
 775:lvgl/src/draw/sw/lv_draw_sw_blend.c ****             }
 776:lvgl/src/draw/sw/lv_draw_sw_blend.c ****             else {
 777:lvgl/src/draw/sw/lv_draw_sw_blend.c ****                 uint8_t * dest_buf8_row = dest_buf8;
 778:lvgl/src/draw/sw/lv_draw_sw_blend.c ****                 for(y = 0; y < h; y++) {
 779:lvgl/src/draw/sw/lv_draw_sw_blend.c ****                     if(blend_fp == NULL) {
 780:lvgl/src/draw/sw/lv_draw_sw_blend.c ****                         for(x = 0; x < w; x++) {
 781:lvgl/src/draw/sw/lv_draw_sw_blend.c ****                             set_px_argb(dest_buf8, src_buf[x], LV_OPA_COVER);
 782:lvgl/src/draw/sw/lv_draw_sw_blend.c ****                             dest_buf8 += LV_IMG_PX_SIZE_ALPHA_BYTE;
 783:lvgl/src/draw/sw/lv_draw_sw_blend.c ****                         }
 784:lvgl/src/draw/sw/lv_draw_sw_blend.c ****                     }
 785:lvgl/src/draw/sw/lv_draw_sw_blend.c ****                     else {
 786:lvgl/src/draw/sw/lv_draw_sw_blend.c ****                         for(x = 0; x < w; x++) {
 787:lvgl/src/draw/sw/lv_draw_sw_blend.c ****                             set_px_argb_blend(dest_buf8, src_buf[x], LV_OPA_COVER, blend_fp);
 788:lvgl/src/draw/sw/lv_draw_sw_blend.c ****                             dest_buf8 += LV_IMG_PX_SIZE_ALPHA_BYTE;
 789:lvgl/src/draw/sw/lv_draw_sw_blend.c ****                         }
 790:lvgl/src/draw/sw/lv_draw_sw_blend.c ****                     }
 791:lvgl/src/draw/sw/lv_draw_sw_blend.c **** 
 792:lvgl/src/draw/sw/lv_draw_sw_blend.c ****                     dest_buf8_row += dest_stride * LV_IMG_PX_SIZE_ALPHA_BYTE;
 793:lvgl/src/draw/sw/lv_draw_sw_blend.c ****                     dest_buf8 = dest_buf8_row;
 794:lvgl/src/draw/sw/lv_draw_sw_blend.c ****                     src_buf += src_stride;
ARM GAS  C:\Users\OSD\AppData\Local\Temp\ccrPpCVL.s 			page 26


 795:lvgl/src/draw/sw/lv_draw_sw_blend.c ****                 }
 796:lvgl/src/draw/sw/lv_draw_sw_blend.c ****             }
 797:lvgl/src/draw/sw/lv_draw_sw_blend.c ****         }
 798:lvgl/src/draw/sw/lv_draw_sw_blend.c ****         /*No mask but opacity*/
 799:lvgl/src/draw/sw/lv_draw_sw_blend.c ****         else {
 800:lvgl/src/draw/sw/lv_draw_sw_blend.c ****             uint8_t * dest_buf8_row = dest_buf8;
 801:lvgl/src/draw/sw/lv_draw_sw_blend.c ****             for(y = 0; y < h; y++) {
 802:lvgl/src/draw/sw/lv_draw_sw_blend.c ****                 if(blend_fp == NULL) {
 803:lvgl/src/draw/sw/lv_draw_sw_blend.c ****                     for(x = 0; x < w; x++) {
 804:lvgl/src/draw/sw/lv_draw_sw_blend.c ****                         set_px_argb(dest_buf8, src_buf[x], opa);
 805:lvgl/src/draw/sw/lv_draw_sw_blend.c ****                         dest_buf8 += LV_IMG_PX_SIZE_ALPHA_BYTE;
 806:lvgl/src/draw/sw/lv_draw_sw_blend.c ****                     }
 807:lvgl/src/draw/sw/lv_draw_sw_blend.c ****                 }
 808:lvgl/src/draw/sw/lv_draw_sw_blend.c ****                 else {
 809:lvgl/src/draw/sw/lv_draw_sw_blend.c ****                     for(x = 0; x < w; x++) {
 810:lvgl/src/draw/sw/lv_draw_sw_blend.c ****                         set_px_argb_blend(dest_buf8, src_buf[x], opa, blend_fp);
 811:lvgl/src/draw/sw/lv_draw_sw_blend.c ****                         dest_buf8 += LV_IMG_PX_SIZE_ALPHA_BYTE;
 812:lvgl/src/draw/sw/lv_draw_sw_blend.c ****                     }
 813:lvgl/src/draw/sw/lv_draw_sw_blend.c ****                 }
 814:lvgl/src/draw/sw/lv_draw_sw_blend.c **** 
 815:lvgl/src/draw/sw/lv_draw_sw_blend.c ****                 dest_buf8_row += dest_stride * LV_IMG_PX_SIZE_ALPHA_BYTE;
 816:lvgl/src/draw/sw/lv_draw_sw_blend.c ****                 dest_buf8 = dest_buf8_row;
 817:lvgl/src/draw/sw/lv_draw_sw_blend.c ****                 src_buf += src_stride;
 818:lvgl/src/draw/sw/lv_draw_sw_blend.c ****             }
 819:lvgl/src/draw/sw/lv_draw_sw_blend.c ****         }
 820:lvgl/src/draw/sw/lv_draw_sw_blend.c ****     }
 821:lvgl/src/draw/sw/lv_draw_sw_blend.c ****     /*Masked*/
 822:lvgl/src/draw/sw/lv_draw_sw_blend.c ****     else {
 823:lvgl/src/draw/sw/lv_draw_sw_blend.c ****         /*Only the mask matters*/
 824:lvgl/src/draw/sw/lv_draw_sw_blend.c ****         if(opa > LV_OPA_MAX) {
 825:lvgl/src/draw/sw/lv_draw_sw_blend.c ****             uint8_t * dest_buf8_row = dest_buf8;
 826:lvgl/src/draw/sw/lv_draw_sw_blend.c ****             for(y = 0; y < h; y++) {
 827:lvgl/src/draw/sw/lv_draw_sw_blend.c ****                 if(blend_fp == NULL) {
 828:lvgl/src/draw/sw/lv_draw_sw_blend.c ****                     for(x = 0; x < w; x++) {
 829:lvgl/src/draw/sw/lv_draw_sw_blend.c ****                         set_px_argb(dest_buf8, src_buf[x], mask[x]);
 830:lvgl/src/draw/sw/lv_draw_sw_blend.c ****                         dest_buf8 += LV_IMG_PX_SIZE_ALPHA_BYTE;
 831:lvgl/src/draw/sw/lv_draw_sw_blend.c ****                     }
 832:lvgl/src/draw/sw/lv_draw_sw_blend.c ****                 }
 833:lvgl/src/draw/sw/lv_draw_sw_blend.c ****                 else {
 834:lvgl/src/draw/sw/lv_draw_sw_blend.c ****                     for(x = 0; x < w; x++) {
 835:lvgl/src/draw/sw/lv_draw_sw_blend.c ****                         set_px_argb_blend(dest_buf8, src_buf[x], mask[x], blend_fp);
 836:lvgl/src/draw/sw/lv_draw_sw_blend.c ****                         dest_buf8 += LV_IMG_PX_SIZE_ALPHA_BYTE;
 837:lvgl/src/draw/sw/lv_draw_sw_blend.c ****                     }
 838:lvgl/src/draw/sw/lv_draw_sw_blend.c ****                 }
 839:lvgl/src/draw/sw/lv_draw_sw_blend.c ****                 dest_buf8_row += dest_stride * LV_IMG_PX_SIZE_ALPHA_BYTE;
 840:lvgl/src/draw/sw/lv_draw_sw_blend.c ****                 dest_buf8 = dest_buf8_row;
 841:lvgl/src/draw/sw/lv_draw_sw_blend.c ****                 src_buf += src_stride;
 842:lvgl/src/draw/sw/lv_draw_sw_blend.c ****                 mask += mask_stride;
 843:lvgl/src/draw/sw/lv_draw_sw_blend.c ****             }
 844:lvgl/src/draw/sw/lv_draw_sw_blend.c ****         }
 845:lvgl/src/draw/sw/lv_draw_sw_blend.c ****         /*Handle opa and mask values too*/
 846:lvgl/src/draw/sw/lv_draw_sw_blend.c ****         else {
 847:lvgl/src/draw/sw/lv_draw_sw_blend.c ****             uint8_t * dest_buf8_row = dest_buf8;
 848:lvgl/src/draw/sw/lv_draw_sw_blend.c ****             for(y = 0; y < h; y++) {
 849:lvgl/src/draw/sw/lv_draw_sw_blend.c ****                 if(blend_fp == NULL) {
 850:lvgl/src/draw/sw/lv_draw_sw_blend.c ****                     for(x = 0; x < w; x++) {
 851:lvgl/src/draw/sw/lv_draw_sw_blend.c ****                         if(mask[x]) {
ARM GAS  C:\Users\OSD\AppData\Local\Temp\ccrPpCVL.s 			page 27


 852:lvgl/src/draw/sw/lv_draw_sw_blend.c ****                             lv_opa_t opa_tmp = mask[x] >= LV_OPA_MAX ? opa : ((opa * mask[x]) >> 8)
 853:lvgl/src/draw/sw/lv_draw_sw_blend.c ****                             set_px_argb(dest_buf8, src_buf[x], opa_tmp);
 854:lvgl/src/draw/sw/lv_draw_sw_blend.c ****                         }
 855:lvgl/src/draw/sw/lv_draw_sw_blend.c ****                         dest_buf8 += LV_IMG_PX_SIZE_ALPHA_BYTE;
 856:lvgl/src/draw/sw/lv_draw_sw_blend.c ****                     }
 857:lvgl/src/draw/sw/lv_draw_sw_blend.c ****                 }
 858:lvgl/src/draw/sw/lv_draw_sw_blend.c ****                 else {
 859:lvgl/src/draw/sw/lv_draw_sw_blend.c ****                     for(x = 0; x < w; x++) {
 860:lvgl/src/draw/sw/lv_draw_sw_blend.c ****                         if(mask[x]) {
 861:lvgl/src/draw/sw/lv_draw_sw_blend.c ****                             lv_opa_t opa_tmp = mask[x] >= LV_OPA_MAX ? opa : ((opa * mask[x]) >> 8)
 862:lvgl/src/draw/sw/lv_draw_sw_blend.c ****                             set_px_argb_blend(dest_buf8, src_buf[x], opa_tmp, blend_fp);
 863:lvgl/src/draw/sw/lv_draw_sw_blend.c ****                         }
 864:lvgl/src/draw/sw/lv_draw_sw_blend.c ****                         dest_buf8 += LV_IMG_PX_SIZE_ALPHA_BYTE;
 865:lvgl/src/draw/sw/lv_draw_sw_blend.c ****                     }
 866:lvgl/src/draw/sw/lv_draw_sw_blend.c ****                 }
 867:lvgl/src/draw/sw/lv_draw_sw_blend.c ****                 dest_buf8_row += dest_stride * LV_IMG_PX_SIZE_ALPHA_BYTE;
 868:lvgl/src/draw/sw/lv_draw_sw_blend.c ****                 dest_buf8 = dest_buf8_row;
 869:lvgl/src/draw/sw/lv_draw_sw_blend.c ****                 src_buf += src_stride;
 870:lvgl/src/draw/sw/lv_draw_sw_blend.c ****                 mask += mask_stride;
 871:lvgl/src/draw/sw/lv_draw_sw_blend.c ****             }
 872:lvgl/src/draw/sw/lv_draw_sw_blend.c ****         }
 873:lvgl/src/draw/sw/lv_draw_sw_blend.c ****     }
 874:lvgl/src/draw/sw/lv_draw_sw_blend.c **** }
 875:lvgl/src/draw/sw/lv_draw_sw_blend.c **** #endif
 876:lvgl/src/draw/sw/lv_draw_sw_blend.c **** 
 877:lvgl/src/draw/sw/lv_draw_sw_blend.c **** #if LV_DRAW_COMPLEX
 878:lvgl/src/draw/sw/lv_draw_sw_blend.c **** static void map_blended(lv_color_t * dest_buf, const lv_area_t * dest_area, lv_coord_t dest_stride,
 879:lvgl/src/draw/sw/lv_draw_sw_blend.c ****                         const lv_color_t * src_buf, lv_coord_t src_stride, lv_opa_t opa,
 880:lvgl/src/draw/sw/lv_draw_sw_blend.c ****                         const lv_opa_t * mask, lv_coord_t mask_stride, lv_blend_mode_t blend_mode)
 881:lvgl/src/draw/sw/lv_draw_sw_blend.c **** {
 402              		.loc 1 881 1 is_stmt 1 view -0
 403              		.cfi_startproc
 404              		@ args = 20, pretend = 0, frame = 32
 405              		@ frame_needed = 0, uses_anonymous_args = 0
 406              		.loc 1 881 1 is_stmt 0 view .LVU125
 407 0000 2DE9F04F 		push	{r4, r5, r6, r7, r8, r9, r10, fp, lr}
 408              		.cfi_def_cfa_offset 36
 409              		.cfi_offset 4, -36
 410              		.cfi_offset 5, -32
 411              		.cfi_offset 6, -28
 412              		.cfi_offset 7, -24
 413              		.cfi_offset 8, -20
 414              		.cfi_offset 9, -16
 415              		.cfi_offset 10, -12
 416              		.cfi_offset 11, -8
 417              		.cfi_offset 14, -4
 418 0004 89B0     		sub	sp, sp, #36
 419              		.cfi_def_cfa_offset 72
 420 0006 8046     		mov	r8, r0
 421 0008 0592     		str	r2, [sp, #20]
 422 000a 9946     		mov	r9, r3
 423 000c BDF94830 		ldrsh	r3, [sp, #72]
 424              	.LVL46:
 425              		.loc 1 881 1 view .LVU126
 426 0010 0693     		str	r3, [sp, #24]
 427 0012 9DF84C30 		ldrb	r3, [sp, #76]	@ zero_extendqisi2
 428 0016 0193     		str	r3, [sp, #4]
ARM GAS  C:\Users\OSD\AppData\Local\Temp\ccrPpCVL.s 			page 28


 429 0018 BDF95430 		ldrsh	r3, [sp, #84]
 430 001c 0793     		str	r3, [sp, #28]
 431 001e 9DF85820 		ldrb	r2, [sp, #88]	@ zero_extendqisi2
 432              	.LVL47:
 882:lvgl/src/draw/sw/lv_draw_sw_blend.c **** 
 883:lvgl/src/draw/sw/lv_draw_sw_blend.c ****     int32_t w = lv_area_get_width(dest_area);
 433              		.loc 1 883 5 is_stmt 1 view .LVU127
 434              	.LBB62:
 435              	.LBI62:
 123:lvgl/src/draw/sw/../../misc/lv_area.h **** {
 436              		.loc 2 123 26 view .LVU128
 437              	.LBB63:
 125:lvgl/src/draw/sw/../../misc/lv_area.h **** }
 438              		.loc 2 125 5 view .LVU129
 125:lvgl/src/draw/sw/../../misc/lv_area.h **** }
 439              		.loc 2 125 31 is_stmt 0 view .LVU130
 440 0022 B1F804B0 		ldrh	fp, [r1, #4]
 125:lvgl/src/draw/sw/../../misc/lv_area.h **** }
 441              		.loc 2 125 44 view .LVU131
 442 0026 0B88     		ldrh	r3, [r1]
 125:lvgl/src/draw/sw/../../misc/lv_area.h **** }
 443              		.loc 2 125 36 view .LVU132
 444 0028 ABEB030B 		sub	fp, fp, r3
 445 002c 1FFA8BFB 		uxth	fp, fp
 125:lvgl/src/draw/sw/../../misc/lv_area.h **** }
 446              		.loc 2 125 49 view .LVU133
 447 0030 0BF1010B 		add	fp, fp, #1
 125:lvgl/src/draw/sw/../../misc/lv_area.h **** }
 448              		.loc 2 125 12 view .LVU134
 449 0034 0FFA8BFB 		sxth	fp, fp
 450              	.LVL48:
 125:lvgl/src/draw/sw/../../misc/lv_area.h **** }
 451              		.loc 2 125 12 view .LVU135
 452              	.LBE63:
 453              	.LBE62:
 884:lvgl/src/draw/sw/lv_draw_sw_blend.c ****     int32_t h = lv_area_get_height(dest_area);
 454              		.loc 1 884 5 is_stmt 1 view .LVU136
 455              	.LBB64:
 456              	.LBI64:
 133:lvgl/src/draw/sw/../../misc/lv_area.h **** {
 457              		.loc 2 133 26 view .LVU137
 458              	.LBB65:
 459              		.loc 2 135 5 view .LVU138
 460              		.loc 2 135 31 is_stmt 0 view .LVU139
 461 0038 CB88     		ldrh	r3, [r1, #6]
 462              		.loc 2 135 44 view .LVU140
 463 003a 4988     		ldrh	r1, [r1, #2]
 464              	.LVL49:
 465              		.loc 2 135 36 view .LVU141
 466 003c 5B1A     		subs	r3, r3, r1
 467 003e 9BB2     		uxth	r3, r3
 468              		.loc 2 135 49 view .LVU142
 469 0040 0133     		adds	r3, r3, #1
 470              		.loc 2 135 12 view .LVU143
 471 0042 1BB2     		sxth	r3, r3
 472 0044 0493     		str	r3, [sp, #16]
 473              	.LVL50:
ARM GAS  C:\Users\OSD\AppData\Local\Temp\ccrPpCVL.s 			page 29


 474              		.loc 2 135 12 view .LVU144
 475              	.LBE65:
 476              	.LBE64:
 885:lvgl/src/draw/sw/lv_draw_sw_blend.c **** 
 886:lvgl/src/draw/sw/lv_draw_sw_blend.c ****     int32_t x;
 477              		.loc 1 886 5 is_stmt 1 view .LVU145
 887:lvgl/src/draw/sw/lv_draw_sw_blend.c ****     int32_t y;
 478              		.loc 1 887 5 view .LVU146
 888:lvgl/src/draw/sw/lv_draw_sw_blend.c **** 
 889:lvgl/src/draw/sw/lv_draw_sw_blend.c ****     lv_color_t (*blend_fp)(lv_color_t, lv_color_t, lv_opa_t);
 479              		.loc 1 889 5 view .LVU147
 890:lvgl/src/draw/sw/lv_draw_sw_blend.c ****     switch(blend_mode) {
 480              		.loc 1 890 5 view .LVU148
 481 0046 022A     		cmp	r2, #2
 482 0048 17D0     		beq	.L50
 483 004a 032A     		cmp	r2, #3
 484 004c 18D0     		beq	.L51
 485 004e 012A     		cmp	r2, #1
 486 0050 02D0     		beq	.L57
 487              	.LVL51:
 488              	.L31:
 891:lvgl/src/draw/sw/lv_draw_sw_blend.c ****         case LV_BLEND_MODE_ADDITIVE:
 892:lvgl/src/draw/sw/lv_draw_sw_blend.c ****             blend_fp = color_blend_true_color_additive;
 893:lvgl/src/draw/sw/lv_draw_sw_blend.c ****             break;
 894:lvgl/src/draw/sw/lv_draw_sw_blend.c ****         case LV_BLEND_MODE_SUBTRACTIVE:
 895:lvgl/src/draw/sw/lv_draw_sw_blend.c ****             blend_fp = color_blend_true_color_subtractive;
 896:lvgl/src/draw/sw/lv_draw_sw_blend.c ****             break;
 897:lvgl/src/draw/sw/lv_draw_sw_blend.c ****         case LV_BLEND_MODE_MULTIPLY:
 898:lvgl/src/draw/sw/lv_draw_sw_blend.c ****             blend_fp = color_blend_true_color_multiply;
 899:lvgl/src/draw/sw/lv_draw_sw_blend.c ****             break;
 900:lvgl/src/draw/sw/lv_draw_sw_blend.c ****         default:
 901:lvgl/src/draw/sw/lv_draw_sw_blend.c ****             LV_LOG_WARN("fill_blended: unsupported blend mode");
 902:lvgl/src/draw/sw/lv_draw_sw_blend.c ****             return;
 903:lvgl/src/draw/sw/lv_draw_sw_blend.c ****     }
 904:lvgl/src/draw/sw/lv_draw_sw_blend.c **** 
 905:lvgl/src/draw/sw/lv_draw_sw_blend.c ****     lv_color_t last_dest_color;
 906:lvgl/src/draw/sw/lv_draw_sw_blend.c ****     lv_color_t last_src_color;
 907:lvgl/src/draw/sw/lv_draw_sw_blend.c ****     /*Simple fill (maybe with opacity), no masking*/
 908:lvgl/src/draw/sw/lv_draw_sw_blend.c ****     if(mask == NULL) {
 909:lvgl/src/draw/sw/lv_draw_sw_blend.c ****         last_dest_color = dest_buf[0];
 910:lvgl/src/draw/sw/lv_draw_sw_blend.c ****         last_src_color = src_buf[0];
 911:lvgl/src/draw/sw/lv_draw_sw_blend.c ****         lv_color_t last_res_color = blend_fp(last_src_color, last_dest_color, opa);
 912:lvgl/src/draw/sw/lv_draw_sw_blend.c ****         for(y = 0; y < h; y++) {
 913:lvgl/src/draw/sw/lv_draw_sw_blend.c ****             for(x = 0; x < w; x++) {
 914:lvgl/src/draw/sw/lv_draw_sw_blend.c ****                 if(last_src_color.full != src_buf[x].full || last_dest_color.full != dest_buf[x].fu
 915:lvgl/src/draw/sw/lv_draw_sw_blend.c ****                     last_dest_color = dest_buf[x];
 916:lvgl/src/draw/sw/lv_draw_sw_blend.c ****                     last_src_color = src_buf[x];
 917:lvgl/src/draw/sw/lv_draw_sw_blend.c ****                     last_res_color = blend_fp(last_src_color, last_dest_color, opa);
 918:lvgl/src/draw/sw/lv_draw_sw_blend.c ****                 }
 919:lvgl/src/draw/sw/lv_draw_sw_blend.c ****                 dest_buf[x] = last_res_color;
 920:lvgl/src/draw/sw/lv_draw_sw_blend.c ****             }
 921:lvgl/src/draw/sw/lv_draw_sw_blend.c ****             dest_buf += dest_stride;
 922:lvgl/src/draw/sw/lv_draw_sw_blend.c ****             src_buf += src_stride;
 923:lvgl/src/draw/sw/lv_draw_sw_blend.c ****         }
 924:lvgl/src/draw/sw/lv_draw_sw_blend.c ****     }
 925:lvgl/src/draw/sw/lv_draw_sw_blend.c ****     /*Masked*/
 926:lvgl/src/draw/sw/lv_draw_sw_blend.c ****     else {
ARM GAS  C:\Users\OSD\AppData\Local\Temp\ccrPpCVL.s 			page 30


 927:lvgl/src/draw/sw/lv_draw_sw_blend.c ****         last_dest_color = dest_buf[0];
 928:lvgl/src/draw/sw/lv_draw_sw_blend.c ****         last_src_color = src_buf[0];
 929:lvgl/src/draw/sw/lv_draw_sw_blend.c ****         lv_opa_t last_opa = mask[0] >= LV_OPA_MAX ? opa : ((opa * mask[0]) >> 8);
 930:lvgl/src/draw/sw/lv_draw_sw_blend.c ****         lv_color_t last_res_color = blend_fp(last_src_color, last_dest_color, last_opa);
 931:lvgl/src/draw/sw/lv_draw_sw_blend.c ****         for(y = 0; y < h; y++) {
 932:lvgl/src/draw/sw/lv_draw_sw_blend.c ****             for(x = 0; x < w; x++) {
 933:lvgl/src/draw/sw/lv_draw_sw_blend.c ****                 if(mask[x] == 0) continue;
 934:lvgl/src/draw/sw/lv_draw_sw_blend.c ****                 lv_opa_t opa_tmp = mask[x] >= LV_OPA_MAX ? opa : ((opa * mask[x]) >> 8);
 935:lvgl/src/draw/sw/lv_draw_sw_blend.c ****                 if(last_src_color.full != src_buf[x].full || last_dest_color.full != dest_buf[x].fu
 936:lvgl/src/draw/sw/lv_draw_sw_blend.c ****                     last_dest_color = dest_buf[x];
 937:lvgl/src/draw/sw/lv_draw_sw_blend.c ****                     last_src_color = src_buf[x];
 938:lvgl/src/draw/sw/lv_draw_sw_blend.c ****                     last_opa = opa_tmp;
 939:lvgl/src/draw/sw/lv_draw_sw_blend.c ****                     last_res_color = blend_fp(last_src_color, last_dest_color, last_opa);
 940:lvgl/src/draw/sw/lv_draw_sw_blend.c ****                 }
 941:lvgl/src/draw/sw/lv_draw_sw_blend.c ****                 dest_buf[x] = last_res_color;
 942:lvgl/src/draw/sw/lv_draw_sw_blend.c ****             }
 943:lvgl/src/draw/sw/lv_draw_sw_blend.c ****             dest_buf += dest_stride;
 944:lvgl/src/draw/sw/lv_draw_sw_blend.c ****             src_buf += src_stride;
 945:lvgl/src/draw/sw/lv_draw_sw_blend.c ****             mask += mask_stride;
 946:lvgl/src/draw/sw/lv_draw_sw_blend.c ****         }
 947:lvgl/src/draw/sw/lv_draw_sw_blend.c ****     }
 948:lvgl/src/draw/sw/lv_draw_sw_blend.c **** }
 489              		.loc 1 948 1 is_stmt 0 view .LVU149
 490 0052 09B0     		add	sp, sp, #36
 491              		.cfi_remember_state
 492              		.cfi_def_cfa_offset 36
 493              		@ sp needed
 494 0054 BDE8F08F 		pop	{r4, r5, r6, r7, r8, r9, r10, fp, pc}
 495              	.LVL52:
 496              	.L57:
 497              		.cfi_restore_state
 890:lvgl/src/draw/sw/lv_draw_sw_blend.c ****     switch(blend_mode) {
 498              		.loc 1 890 5 view .LVU150
 499 0058 4A4B     		ldr	r3, .L62
 500              	.LVL53:
 890:lvgl/src/draw/sw/lv_draw_sw_blend.c ****     switch(blend_mode) {
 501              		.loc 1 890 5 view .LVU151
 502 005a 0293     		str	r3, [sp, #8]
 503              	.L32:
 504              	.LVL54:
 905:lvgl/src/draw/sw/lv_draw_sw_blend.c ****     lv_color_t last_src_color;
 505              		.loc 1 905 5 is_stmt 1 view .LVU152
 906:lvgl/src/draw/sw/lv_draw_sw_blend.c ****     /*Simple fill (maybe with opacity), no masking*/
 506              		.loc 1 906 5 view .LVU153
 908:lvgl/src/draw/sw/lv_draw_sw_blend.c ****         last_dest_color = dest_buf[0];
 507              		.loc 1 908 5 view .LVU154
 908:lvgl/src/draw/sw/lv_draw_sw_blend.c ****         last_dest_color = dest_buf[0];
 508              		.loc 1 908 7 is_stmt 0 view .LVU155
 509 005c 149B     		ldr	r3, [sp, #80]
 510 005e 93B1     		cbz	r3, .L58
 511              	.LBB66:
 927:lvgl/src/draw/sw/lv_draw_sw_blend.c ****         last_src_color = src_buf[0];
 512              		.loc 1 927 9 is_stmt 1 view .LVU156
 927:lvgl/src/draw/sw/lv_draw_sw_blend.c ****         last_src_color = src_buf[0];
 513              		.loc 1 927 25 is_stmt 0 view .LVU157
 514 0060 D8F800A0 		ldr	r10, [r8]
 928:lvgl/src/draw/sw/lv_draw_sw_blend.c ****         lv_opa_t last_opa = mask[0] >= LV_OPA_MAX ? opa : ((opa * mask[0]) >> 8);
ARM GAS  C:\Users\OSD\AppData\Local\Temp\ccrPpCVL.s 			page 31


 515              		.loc 1 928 9 is_stmt 1 view .LVU158
 928:lvgl/src/draw/sw/lv_draw_sw_blend.c ****         lv_opa_t last_opa = mask[0] >= LV_OPA_MAX ? opa : ((opa * mask[0]) >> 8);
 516              		.loc 1 928 24 is_stmt 0 view .LVU159
 517 0064 D9F80070 		ldr	r7, [r9]
 929:lvgl/src/draw/sw/lv_draw_sw_blend.c ****         lv_color_t last_res_color = blend_fp(last_src_color, last_dest_color, last_opa);
 518              		.loc 1 929 9 is_stmt 1 view .LVU160
 929:lvgl/src/draw/sw/lv_draw_sw_blend.c ****         lv_color_t last_res_color = blend_fp(last_src_color, last_dest_color, last_opa);
 519              		.loc 1 929 33 is_stmt 0 view .LVU161
 520 0068 149B     		ldr	r3, [sp, #80]
 521 006a 1B78     		ldrb	r3, [r3]	@ zero_extendqisi2
 929:lvgl/src/draw/sw/lv_draw_sw_blend.c ****         lv_color_t last_res_color = blend_fp(last_src_color, last_dest_color, last_opa);
 522              		.loc 1 929 18 view .LVU162
 523 006c FC2B     		cmp	r3, #252
 524 006e 3FD8     		bhi	.L53
 929:lvgl/src/draw/sw/lv_draw_sw_blend.c ****         lv_color_t last_res_color = blend_fp(last_src_color, last_dest_color, last_opa);
 525              		.loc 1 929 65 discriminator 1 view .LVU163
 526 0070 019A     		ldr	r2, [sp, #4]
 527 0072 02FB03F3 		mul	r3, r2, r3
 929:lvgl/src/draw/sw/lv_draw_sw_blend.c ****         lv_color_t last_res_color = blend_fp(last_src_color, last_dest_color, last_opa);
 528              		.loc 1 929 18 discriminator 1 view .LVU164
 529 0076 1B0A     		lsrs	r3, r3, #8
 530 0078 3BE0     		b	.L41
 531              	.LVL55:
 532              	.L50:
 929:lvgl/src/draw/sw/lv_draw_sw_blend.c ****         lv_color_t last_res_color = blend_fp(last_src_color, last_dest_color, last_opa);
 533              		.loc 1 929 18 discriminator 1 view .LVU165
 534              	.LBE66:
 895:lvgl/src/draw/sw/lv_draw_sw_blend.c ****             break;
 535              		.loc 1 895 22 view .LVU166
 536 007a 434B     		ldr	r3, .L62+4
 537              	.LVL56:
 895:lvgl/src/draw/sw/lv_draw_sw_blend.c ****             break;
 538              		.loc 1 895 22 view .LVU167
 539 007c 0293     		str	r3, [sp, #8]
 540 007e EDE7     		b	.L32
 541              	.LVL57:
 542              	.L51:
 898:lvgl/src/draw/sw/lv_draw_sw_blend.c ****             break;
 543              		.loc 1 898 22 view .LVU168
 544 0080 424B     		ldr	r3, .L62+8
 545              	.LVL58:
 898:lvgl/src/draw/sw/lv_draw_sw_blend.c ****             break;
 546              		.loc 1 898 22 view .LVU169
 547 0082 0293     		str	r3, [sp, #8]
 548 0084 EAE7     		b	.L32
 549              	.LVL59:
 550              	.L58:
 551              	.LBB69:
 909:lvgl/src/draw/sw/lv_draw_sw_blend.c ****         last_src_color = src_buf[0];
 552              		.loc 1 909 9 is_stmt 1 view .LVU170
 909:lvgl/src/draw/sw/lv_draw_sw_blend.c ****         last_src_color = src_buf[0];
 553              		.loc 1 909 25 is_stmt 0 view .LVU171
 554 0086 D8F800A0 		ldr	r10, [r8]
 910:lvgl/src/draw/sw/lv_draw_sw_blend.c ****         lv_color_t last_res_color = blend_fp(last_src_color, last_dest_color, opa);
 555              		.loc 1 910 9 is_stmt 1 view .LVU172
 910:lvgl/src/draw/sw/lv_draw_sw_blend.c ****         lv_color_t last_res_color = blend_fp(last_src_color, last_dest_color, opa);
 556              		.loc 1 910 24 is_stmt 0 view .LVU173
ARM GAS  C:\Users\OSD\AppData\Local\Temp\ccrPpCVL.s 			page 32


 557 008a D9F80070 		ldr	r7, [r9]
 911:lvgl/src/draw/sw/lv_draw_sw_blend.c ****         for(y = 0; y < h; y++) {
 558              		.loc 1 911 9 is_stmt 1 view .LVU174
 911:lvgl/src/draw/sw/lv_draw_sw_blend.c ****         for(y = 0; y < h; y++) {
 559              		.loc 1 911 37 is_stmt 0 view .LVU175
 560 008e 019A     		ldr	r2, [sp, #4]
 561              	.LVL60:
 911:lvgl/src/draw/sw/lv_draw_sw_blend.c ****         for(y = 0; y < h; y++) {
 562              		.loc 1 911 37 view .LVU176
 563 0090 5146     		mov	r1, r10
 564              	.LVL61:
 911:lvgl/src/draw/sw/lv_draw_sw_blend.c ****         for(y = 0; y < h; y++) {
 565              		.loc 1 911 37 view .LVU177
 566 0092 3846     		mov	r0, r7
 567              	.LVL62:
 911:lvgl/src/draw/sw/lv_draw_sw_blend.c ****         for(y = 0; y < h; y++) {
 568              		.loc 1 911 37 view .LVU178
 569 0094 029C     		ldr	r4, [sp, #8]
 570 0096 A047     		blx	r4
 571              	.LVL63:
 912:lvgl/src/draw/sw/lv_draw_sw_blend.c ****             for(x = 0; x < w; x++) {
 572              		.loc 1 912 9 is_stmt 1 view .LVU179
 912:lvgl/src/draw/sw/lv_draw_sw_blend.c ****             for(x = 0; x < w; x++) {
 573              		.loc 1 912 15 is_stmt 0 view .LVU180
 574 0098 0026     		movs	r6, #0
 575 009a 0096     		str	r6, [sp]
 576 009c 5646     		mov	r6, r10
 577 009e A246     		mov	r10, r4
 578              	.LVL64:
 912:lvgl/src/draw/sw/lv_draw_sw_blend.c ****             for(x = 0; x < w; x++) {
 579              		.loc 1 912 9 view .LVU181
 580 00a0 20E0     		b	.L35
 581              	.LVL65:
 582              	.L36:
 915:lvgl/src/draw/sw/lv_draw_sw_blend.c ****                     last_src_color = src_buf[x];
 583              		.loc 1 915 21 is_stmt 1 view .LVU182
 915:lvgl/src/draw/sw/lv_draw_sw_blend.c ****                     last_src_color = src_buf[x];
 584              		.loc 1 915 37 is_stmt 0 view .LVU183
 585 00a2 58F80560 		ldr	r6, [r8, r5]
 586              	.LVL66:
 916:lvgl/src/draw/sw/lv_draw_sw_blend.c ****                     last_res_color = blend_fp(last_src_color, last_dest_color, opa);
 587              		.loc 1 916 21 is_stmt 1 view .LVU184
 916:lvgl/src/draw/sw/lv_draw_sw_blend.c ****                     last_res_color = blend_fp(last_src_color, last_dest_color, opa);
 588              		.loc 1 916 36 is_stmt 0 view .LVU185
 589 00a6 1768     		ldr	r7, [r2]
 590              	.LVL67:
 917:lvgl/src/draw/sw/lv_draw_sw_blend.c ****                 }
 591              		.loc 1 917 21 is_stmt 1 view .LVU186
 917:lvgl/src/draw/sw/lv_draw_sw_blend.c ****                 }
 592              		.loc 1 917 38 is_stmt 0 view .LVU187
 593 00a8 019A     		ldr	r2, [sp, #4]
 594              	.LVL68:
 917:lvgl/src/draw/sw/lv_draw_sw_blend.c ****                 }
 595              		.loc 1 917 38 view .LVU188
 596 00aa 3146     		mov	r1, r6
 597              	.LVL69:
 917:lvgl/src/draw/sw/lv_draw_sw_blend.c ****                 }
ARM GAS  C:\Users\OSD\AppData\Local\Temp\ccrPpCVL.s 			page 33


 598              		.loc 1 917 38 view .LVU189
 599 00ac 3846     		mov	r0, r7
 600              	.LVL70:
 917:lvgl/src/draw/sw/lv_draw_sw_blend.c ****                 }
 601              		.loc 1 917 38 view .LVU190
 602 00ae D047     		blx	r10
 603              	.LVL71:
 604              	.L37:
 919:lvgl/src/draw/sw/lv_draw_sw_blend.c ****             }
 605              		.loc 1 919 17 is_stmt 1 discriminator 2 view .LVU191
 919:lvgl/src/draw/sw/lv_draw_sw_blend.c ****             }
 606              		.loc 1 919 29 is_stmt 0 discriminator 2 view .LVU192
 607 00b0 48F80500 		str	r0, [r8, r5]
 913:lvgl/src/draw/sw/lv_draw_sw_blend.c ****                 if(last_src_color.full != src_buf[x].full || last_dest_color.full != dest_buf[x].fu
 608              		.loc 1 913 31 is_stmt 1 discriminator 2 view .LVU193
 913:lvgl/src/draw/sw/lv_draw_sw_blend.c ****                 if(last_src_color.full != src_buf[x].full || last_dest_color.full != dest_buf[x].fu
 609              		.loc 1 913 32 is_stmt 0 discriminator 2 view .LVU194
 610 00b4 0134     		adds	r4, r4, #1
 611              	.LVL72:
 612              	.L39:
 913:lvgl/src/draw/sw/lv_draw_sw_blend.c ****                 if(last_src_color.full != src_buf[x].full || last_dest_color.full != dest_buf[x].fu
 613              		.loc 1 913 24 is_stmt 1 discriminator 1 view .LVU195
 913:lvgl/src/draw/sw/lv_draw_sw_blend.c ****                 if(last_src_color.full != src_buf[x].full || last_dest_color.full != dest_buf[x].fu
 614              		.loc 1 913 13 is_stmt 0 discriminator 1 view .LVU196
 615 00b6 5C45     		cmp	r4, fp
 616 00b8 0BDA     		bge	.L59
 914:lvgl/src/draw/sw/lv_draw_sw_blend.c ****                     last_dest_color = dest_buf[x];
 617              		.loc 1 914 17 is_stmt 1 view .LVU197
 914:lvgl/src/draw/sw/lv_draw_sw_blend.c ****                     last_dest_color = dest_buf[x];
 618              		.loc 1 914 50 is_stmt 0 view .LVU198
 619 00ba A500     		lsls	r5, r4, #2
 620 00bc 09EB8402 		add	r2, r9, r4, lsl #2
 914:lvgl/src/draw/sw/lv_draw_sw_blend.c ****                     last_dest_color = dest_buf[x];
 621              		.loc 1 914 53 view .LVU199
 622 00c0 59F82430 		ldr	r3, [r9, r4, lsl #2]
 914:lvgl/src/draw/sw/lv_draw_sw_blend.c ****                     last_dest_color = dest_buf[x];
 623              		.loc 1 914 19 view .LVU200
 624 00c4 9F42     		cmp	r7, r3
 625 00c6 ECD1     		bne	.L36
 914:lvgl/src/draw/sw/lv_draw_sw_blend.c ****                     last_dest_color = dest_buf[x];
 626              		.loc 1 914 97 discriminator 1 view .LVU201
 627 00c8 58F82430 		ldr	r3, [r8, r4, lsl #2]
 914:lvgl/src/draw/sw/lv_draw_sw_blend.c ****                     last_dest_color = dest_buf[x];
 628              		.loc 1 914 59 discriminator 1 view .LVU202
 629 00cc 9E42     		cmp	r6, r3
 630 00ce E8D1     		bne	.L36
 914:lvgl/src/draw/sw/lv_draw_sw_blend.c ****                     last_dest_color = dest_buf[x];
 631              		.loc 1 914 59 discriminator 1 view .LVU203
 632 00d0 EEE7     		b	.L37
 633              	.L59:
 921:lvgl/src/draw/sw/lv_draw_sw_blend.c ****             src_buf += src_stride;
 634              		.loc 1 921 13 is_stmt 1 discriminator 2 view .LVU204
 921:lvgl/src/draw/sw/lv_draw_sw_blend.c ****             src_buf += src_stride;
 635              		.loc 1 921 22 is_stmt 0 discriminator 2 view .LVU205
 636 00d2 059B     		ldr	r3, [sp, #20]
 637 00d4 08EB8308 		add	r8, r8, r3, lsl #2
 638              	.LVL73:
ARM GAS  C:\Users\OSD\AppData\Local\Temp\ccrPpCVL.s 			page 34


 922:lvgl/src/draw/sw/lv_draw_sw_blend.c ****         }
 639              		.loc 1 922 13 is_stmt 1 discriminator 2 view .LVU206
 922:lvgl/src/draw/sw/lv_draw_sw_blend.c ****         }
 640              		.loc 1 922 21 is_stmt 0 discriminator 2 view .LVU207
 641 00d8 069B     		ldr	r3, [sp, #24]
 642 00da 09EB8309 		add	r9, r9, r3, lsl #2
 643              	.LVL74:
 912:lvgl/src/draw/sw/lv_draw_sw_blend.c ****             for(x = 0; x < w; x++) {
 644              		.loc 1 912 27 is_stmt 1 discriminator 2 view .LVU208
 912:lvgl/src/draw/sw/lv_draw_sw_blend.c ****             for(x = 0; x < w; x++) {
 645              		.loc 1 912 28 is_stmt 0 discriminator 2 view .LVU209
 646 00de 009B     		ldr	r3, [sp]
 647 00e0 0133     		adds	r3, r3, #1
 648 00e2 0093     		str	r3, [sp]
 649              	.LVL75:
 650              	.L35:
 912:lvgl/src/draw/sw/lv_draw_sw_blend.c ****             for(x = 0; x < w; x++) {
 651              		.loc 1 912 20 is_stmt 1 discriminator 1 view .LVU210
 912:lvgl/src/draw/sw/lv_draw_sw_blend.c ****             for(x = 0; x < w; x++) {
 652              		.loc 1 912 9 is_stmt 0 discriminator 1 view .LVU211
 653 00e4 009B     		ldr	r3, [sp]
 654 00e6 049A     		ldr	r2, [sp, #16]
 655 00e8 9342     		cmp	r3, r2
 656 00ea B2DA     		bge	.L31
 913:lvgl/src/draw/sw/lv_draw_sw_blend.c ****                 if(last_src_color.full != src_buf[x].full || last_dest_color.full != dest_buf[x].fu
 657              		.loc 1 913 19 view .LVU212
 658 00ec 0024     		movs	r4, #0
 659 00ee E2E7     		b	.L39
 660              	.LVL76:
 661              	.L53:
 913:lvgl/src/draw/sw/lv_draw_sw_blend.c ****                 if(last_src_color.full != src_buf[x].full || last_dest_color.full != dest_buf[x].fu
 662              		.loc 1 913 19 view .LVU213
 663              	.LBE69:
 664              	.LBB70:
 929:lvgl/src/draw/sw/lv_draw_sw_blend.c ****         lv_color_t last_res_color = blend_fp(last_src_color, last_dest_color, last_opa);
 665              		.loc 1 929 18 view .LVU214
 666 00f0 019B     		ldr	r3, [sp, #4]
 667              	.L41:
 668              	.LVL77:
 930:lvgl/src/draw/sw/lv_draw_sw_blend.c ****         for(y = 0; y < h; y++) {
 669              		.loc 1 930 9 is_stmt 1 discriminator 4 view .LVU215
 930:lvgl/src/draw/sw/lv_draw_sw_blend.c ****         for(y = 0; y < h; y++) {
 670              		.loc 1 930 37 is_stmt 0 discriminator 4 view .LVU216
 671 00f2 1C46     		mov	r4, r3
 672 00f4 1A46     		mov	r2, r3
 673              	.LVL78:
 930:lvgl/src/draw/sw/lv_draw_sw_blend.c ****         for(y = 0; y < h; y++) {
 674              		.loc 1 930 37 discriminator 4 view .LVU217
 675 00f6 5146     		mov	r1, r10
 676              	.LVL79:
 930:lvgl/src/draw/sw/lv_draw_sw_blend.c ****         for(y = 0; y < h; y++) {
 677              		.loc 1 930 37 discriminator 4 view .LVU218
 678 00f8 3846     		mov	r0, r7
 679              	.LVL80:
 930:lvgl/src/draw/sw/lv_draw_sw_blend.c ****         for(y = 0; y < h; y++) {
 680              		.loc 1 930 37 discriminator 4 view .LVU219
 681 00fa 029B     		ldr	r3, [sp, #8]
ARM GAS  C:\Users\OSD\AppData\Local\Temp\ccrPpCVL.s 			page 35


 682              	.LVL81:
 930:lvgl/src/draw/sw/lv_draw_sw_blend.c ****         for(y = 0; y < h; y++) {
 683              		.loc 1 930 37 discriminator 4 view .LVU220
 684 00fc 9847     		blx	r3
 685              	.LVL82:
 931:lvgl/src/draw/sw/lv_draw_sw_blend.c ****             for(x = 0; x < w; x++) {
 686              		.loc 1 931 9 is_stmt 1 discriminator 4 view .LVU221
 931:lvgl/src/draw/sw/lv_draw_sw_blend.c ****             for(x = 0; x < w; x++) {
 687              		.loc 1 931 15 is_stmt 0 discriminator 4 view .LVU222
 688 00fe 0023     		movs	r3, #0
 689 0100 0393     		str	r3, [sp, #12]
 690 0102 2146     		mov	r1, r4
 691 0104 CDF800B0 		str	fp, [sp]
 692 0108 DDF850B0 		ldr	fp, [sp, #80]
 693              	.LVL83:
 931:lvgl/src/draw/sw/lv_draw_sw_blend.c ****             for(x = 0; x < w; x++) {
 694              		.loc 1 931 9 discriminator 4 view .LVU223
 695 010c 33E0     		b	.L42
 696              	.LVL84:
 697              	.L54:
 698              	.LBB67:
 934:lvgl/src/draw/sw/lv_draw_sw_blend.c ****                 if(last_src_color.full != src_buf[x].full || last_dest_color.full != dest_buf[x].fu
 699              		.loc 1 934 26 view .LVU224
 700 010e 019C     		ldr	r4, [sp, #4]
 701              	.L44:
 702              	.LVL85:
 935:lvgl/src/draw/sw/lv_draw_sw_blend.c ****                     last_dest_color = dest_buf[x];
 703              		.loc 1 935 17 is_stmt 1 discriminator 4 view .LVU225
 935:lvgl/src/draw/sw/lv_draw_sw_blend.c ****                     last_dest_color = dest_buf[x];
 704              		.loc 1 935 50 is_stmt 0 discriminator 4 view .LVU226
 705 0110 09EB8602 		add	r2, r9, r6, lsl #2
 935:lvgl/src/draw/sw/lv_draw_sw_blend.c ****                     last_dest_color = dest_buf[x];
 706              		.loc 1 935 53 discriminator 4 view .LVU227
 707 0114 59F82630 		ldr	r3, [r9, r6, lsl #2]
 935:lvgl/src/draw/sw/lv_draw_sw_blend.c ****                     last_dest_color = dest_buf[x];
 708              		.loc 1 935 19 discriminator 4 view .LVU228
 709 0118 9F42     		cmp	r7, r3
 710 011a 1AD0     		beq	.L60
 711              	.L45:
 936:lvgl/src/draw/sw/lv_draw_sw_blend.c ****                     last_src_color = src_buf[x];
 712              		.loc 1 936 21 is_stmt 1 view .LVU229
 936:lvgl/src/draw/sw/lv_draw_sw_blend.c ****                     last_src_color = src_buf[x];
 713              		.loc 1 936 37 is_stmt 0 view .LVU230
 714 011c 58F826A0 		ldr	r10, [r8, r6, lsl #2]
 715              	.LVL86:
 937:lvgl/src/draw/sw/lv_draw_sw_blend.c ****                     last_opa = opa_tmp;
 716              		.loc 1 937 21 is_stmt 1 view .LVU231
 937:lvgl/src/draw/sw/lv_draw_sw_blend.c ****                     last_opa = opa_tmp;
 717              		.loc 1 937 36 is_stmt 0 view .LVU232
 718 0120 1768     		ldr	r7, [r2]
 719              	.LVL87:
 938:lvgl/src/draw/sw/lv_draw_sw_blend.c ****                     last_res_color = blend_fp(last_src_color, last_dest_color, last_opa);
 720              		.loc 1 938 21 is_stmt 1 view .LVU233
 939:lvgl/src/draw/sw/lv_draw_sw_blend.c ****                 }
 721              		.loc 1 939 21 view .LVU234
 939:lvgl/src/draw/sw/lv_draw_sw_blend.c ****                 }
 722              		.loc 1 939 38 is_stmt 0 view .LVU235
ARM GAS  C:\Users\OSD\AppData\Local\Temp\ccrPpCVL.s 			page 36


 723 0122 2246     		mov	r2, r4
 724              	.LVL88:
 939:lvgl/src/draw/sw/lv_draw_sw_blend.c ****                 }
 725              		.loc 1 939 38 view .LVU236
 726 0124 5146     		mov	r1, r10
 727              	.LVL89:
 939:lvgl/src/draw/sw/lv_draw_sw_blend.c ****                 }
 728              		.loc 1 939 38 view .LVU237
 729 0126 3846     		mov	r0, r7
 730              	.LVL90:
 939:lvgl/src/draw/sw/lv_draw_sw_blend.c ****                 }
 731              		.loc 1 939 38 view .LVU238
 732 0128 029B     		ldr	r3, [sp, #8]
 733 012a 9847     		blx	r3
 734              	.LVL91:
 938:lvgl/src/draw/sw/lv_draw_sw_blend.c ****                     last_res_color = blend_fp(last_src_color, last_dest_color, last_opa);
 735              		.loc 1 938 30 view .LVU239
 736 012c 2146     		mov	r1, r4
 737              	.LVL92:
 738              	.L46:
 941:lvgl/src/draw/sw/lv_draw_sw_blend.c ****             }
 739              		.loc 1 941 17 is_stmt 1 view .LVU240
 941:lvgl/src/draw/sw/lv_draw_sw_blend.c ****             }
 740              		.loc 1 941 29 is_stmt 0 view .LVU241
 741 012e 48F82600 		str	r0, [r8, r6, lsl #2]
 742              	.LVL93:
 743              	.L43:
 941:lvgl/src/draw/sw/lv_draw_sw_blend.c ****             }
 744              		.loc 1 941 29 view .LVU242
 745              	.LBE67:
 932:lvgl/src/draw/sw/lv_draw_sw_blend.c ****                 if(mask[x] == 0) continue;
 746              		.loc 1 932 31 is_stmt 1 discriminator 2 view .LVU243
 932:lvgl/src/draw/sw/lv_draw_sw_blend.c ****                 if(mask[x] == 0) continue;
 747              		.loc 1 932 32 is_stmt 0 discriminator 2 view .LVU244
 748 0132 0135     		adds	r5, r5, #1
 749              	.LVL94:
 750              	.L48:
 932:lvgl/src/draw/sw/lv_draw_sw_blend.c ****                 if(mask[x] == 0) continue;
 751              		.loc 1 932 24 is_stmt 1 discriminator 1 view .LVU245
 932:lvgl/src/draw/sw/lv_draw_sw_blend.c ****                 if(mask[x] == 0) continue;
 752              		.loc 1 932 13 is_stmt 0 discriminator 1 view .LVU246
 753 0134 009B     		ldr	r3, [sp]
 754 0136 9D42     		cmp	r5, r3
 755 0138 12DA     		bge	.L61
 756              	.LBB68:
 933:lvgl/src/draw/sw/lv_draw_sw_blend.c ****                 lv_opa_t opa_tmp = mask[x] >= LV_OPA_MAX ? opa : ((opa * mask[x]) >> 8);
 757              		.loc 1 933 17 is_stmt 1 view .LVU247
 933:lvgl/src/draw/sw/lv_draw_sw_blend.c ****                 lv_opa_t opa_tmp = mask[x] >= LV_OPA_MAX ? opa : ((opa * mask[x]) >> 8);
 758              		.loc 1 933 24 is_stmt 0 view .LVU248
 759 013a 2E46     		mov	r6, r5
 760 013c 1BF80540 		ldrb	r4, [fp, r5]	@ zero_extendqisi2
 933:lvgl/src/draw/sw/lv_draw_sw_blend.c ****                 lv_opa_t opa_tmp = mask[x] >= LV_OPA_MAX ? opa : ((opa * mask[x]) >> 8);
 761              		.loc 1 933 19 view .LVU249
 762 0140 002C     		cmp	r4, #0
 763 0142 F6D0     		beq	.L43
 934:lvgl/src/draw/sw/lv_draw_sw_blend.c ****                 if(last_src_color.full != src_buf[x].full || last_dest_color.full != dest_buf[x].fu
 764              		.loc 1 934 17 is_stmt 1 view .LVU250
ARM GAS  C:\Users\OSD\AppData\Local\Temp\ccrPpCVL.s 			page 37


 934:lvgl/src/draw/sw/lv_draw_sw_blend.c ****                 if(last_src_color.full != src_buf[x].full || last_dest_color.full != dest_buf[x].fu
 765              		.loc 1 934 26 is_stmt 0 view .LVU251
 766 0144 FC2C     		cmp	r4, #252
 767 0146 E2D8     		bhi	.L54
 934:lvgl/src/draw/sw/lv_draw_sw_blend.c ****                 if(last_src_color.full != src_buf[x].full || last_dest_color.full != dest_buf[x].fu
 768              		.loc 1 934 72 discriminator 1 view .LVU252
 769 0148 019B     		ldr	r3, [sp, #4]
 770 014a 03FB04F4 		mul	r4, r3, r4
 934:lvgl/src/draw/sw/lv_draw_sw_blend.c ****                 if(last_src_color.full != src_buf[x].full || last_dest_color.full != dest_buf[x].fu
 771              		.loc 1 934 26 discriminator 1 view .LVU253
 772 014e 240A     		lsrs	r4, r4, #8
 773 0150 DEE7     		b	.L44
 774              	.LVL95:
 775              	.L60:
 935:lvgl/src/draw/sw/lv_draw_sw_blend.c ****                     last_dest_color = dest_buf[x];
 776              		.loc 1 935 97 discriminator 1 view .LVU254
 777 0152 58F82630 		ldr	r3, [r8, r6, lsl #2]
 935:lvgl/src/draw/sw/lv_draw_sw_blend.c ****                     last_dest_color = dest_buf[x];
 778              		.loc 1 935 59 discriminator 1 view .LVU255
 779 0156 9A45     		cmp	r10, r3
 780 0158 E0D1     		bne	.L45
 935:lvgl/src/draw/sw/lv_draw_sw_blend.c ****                     last_dest_color = dest_buf[x];
 781              		.loc 1 935 103 discriminator 2 view .LVU256
 782 015a A142     		cmp	r1, r4
 783 015c DED1     		bne	.L45
 784 015e E6E7     		b	.L46
 785              	.LVL96:
 786              	.L61:
 935:lvgl/src/draw/sw/lv_draw_sw_blend.c ****                     last_dest_color = dest_buf[x];
 787              		.loc 1 935 103 discriminator 2 view .LVU257
 788              	.LBE68:
 943:lvgl/src/draw/sw/lv_draw_sw_blend.c ****             src_buf += src_stride;
 789              		.loc 1 943 13 is_stmt 1 discriminator 2 view .LVU258
 943:lvgl/src/draw/sw/lv_draw_sw_blend.c ****             src_buf += src_stride;
 790              		.loc 1 943 22 is_stmt 0 discriminator 2 view .LVU259
 791 0160 059B     		ldr	r3, [sp, #20]
 792 0162 08EB8308 		add	r8, r8, r3, lsl #2
 793              	.LVL97:
 944:lvgl/src/draw/sw/lv_draw_sw_blend.c ****             mask += mask_stride;
 794              		.loc 1 944 13 is_stmt 1 discriminator 2 view .LVU260
 944:lvgl/src/draw/sw/lv_draw_sw_blend.c ****             mask += mask_stride;
 795              		.loc 1 944 21 is_stmt 0 discriminator 2 view .LVU261
 796 0166 069B     		ldr	r3, [sp, #24]
 797 0168 09EB8309 		add	r9, r9, r3, lsl #2
 798              	.LVL98:
 945:lvgl/src/draw/sw/lv_draw_sw_blend.c ****         }
 799              		.loc 1 945 13 is_stmt 1 discriminator 2 view .LVU262
 945:lvgl/src/draw/sw/lv_draw_sw_blend.c ****         }
 800              		.loc 1 945 18 is_stmt 0 discriminator 2 view .LVU263
 801 016c 079B     		ldr	r3, [sp, #28]
 802 016e 9B44     		add	fp, fp, r3
 803              	.LVL99:
 931:lvgl/src/draw/sw/lv_draw_sw_blend.c ****             for(x = 0; x < w; x++) {
 804              		.loc 1 931 27 is_stmt 1 discriminator 2 view .LVU264
 931:lvgl/src/draw/sw/lv_draw_sw_blend.c ****             for(x = 0; x < w; x++) {
 805              		.loc 1 931 28 is_stmt 0 discriminator 2 view .LVU265
 806 0170 039B     		ldr	r3, [sp, #12]
ARM GAS  C:\Users\OSD\AppData\Local\Temp\ccrPpCVL.s 			page 38


 807 0172 0133     		adds	r3, r3, #1
 808 0174 0393     		str	r3, [sp, #12]
 809              	.LVL100:
 810              	.L42:
 931:lvgl/src/draw/sw/lv_draw_sw_blend.c ****             for(x = 0; x < w; x++) {
 811              		.loc 1 931 20 is_stmt 1 discriminator 1 view .LVU266
 931:lvgl/src/draw/sw/lv_draw_sw_blend.c ****             for(x = 0; x < w; x++) {
 812              		.loc 1 931 9 is_stmt 0 discriminator 1 view .LVU267
 813 0176 039B     		ldr	r3, [sp, #12]
 814 0178 049A     		ldr	r2, [sp, #16]
 815 017a 9342     		cmp	r3, r2
 816 017c BFF669AF 		bge	.L31
 932:lvgl/src/draw/sw/lv_draw_sw_blend.c ****                 if(mask[x] == 0) continue;
 817              		.loc 1 932 19 view .LVU268
 818 0180 0025     		movs	r5, #0
 819 0182 D7E7     		b	.L48
 820              	.L63:
 821              		.align	2
 822              	.L62:
 823 0184 00000000 		.word	color_blend_true_color_additive
 824 0188 00000000 		.word	color_blend_true_color_subtractive
 825 018c 00000000 		.word	color_blend_true_color_multiply
 826              	.LBE70:
 827              		.cfi_endproc
 828              	.LFE168:
 830              		.section	.text.fill_set_px,"ax",%progbits
 831              		.align	1
 832              		.syntax unified
 833              		.thumb
 834              		.thumb_func
 836              	fill_set_px:
 837              	.LVL101:
 838              	.LFB163:
 212:lvgl/src/draw/sw/lv_draw_sw_blend.c ****     lv_disp_t * disp = _lv_refr_get_disp_refreshing();
 839              		.loc 1 212 1 is_stmt 1 view -0
 840              		.cfi_startproc
 841              		@ args = 12, pretend = 0, frame = 24
 842              		@ frame_needed = 0, uses_anonymous_args = 0
 212:lvgl/src/draw/sw/lv_draw_sw_blend.c ****     lv_disp_t * disp = _lv_refr_get_disp_refreshing();
 843              		.loc 1 212 1 is_stmt 0 view .LVU270
 844 0000 2DE9F04F 		push	{r4, r5, r6, r7, r8, r9, r10, fp, lr}
 845              		.cfi_def_cfa_offset 36
 846              		.cfi_offset 4, -36
 847              		.cfi_offset 5, -32
 848              		.cfi_offset 6, -28
 849              		.cfi_offset 7, -24
 850              		.cfi_offset 8, -20
 851              		.cfi_offset 9, -16
 852              		.cfi_offset 10, -12
 853              		.cfi_offset 11, -8
 854              		.cfi_offset 14, -4
 855 0004 8BB0     		sub	sp, sp, #44
 856              		.cfi_def_cfa_offset 80
 857 0006 0690     		str	r0, [sp, #24]
 858 0008 0D46     		mov	r5, r1
 859 000a 0792     		str	r2, [sp, #28]
 860 000c 0893     		str	r3, [sp, #32]
ARM GAS  C:\Users\OSD\AppData\Local\Temp\ccrPpCVL.s 			page 39


 861 000e 9DF850B0 		ldrb	fp, [sp, #80]	@ zero_extendqisi2
 862 0012 159E     		ldr	r6, [sp, #84]
 863 0014 BDF95830 		ldrsh	r3, [sp, #88]
 864              	.LVL102:
 212:lvgl/src/draw/sw/lv_draw_sw_blend.c ****     lv_disp_t * disp = _lv_refr_get_disp_refreshing();
 865              		.loc 1 212 1 view .LVU271
 866 0018 0993     		str	r3, [sp, #36]
 213:lvgl/src/draw/sw/lv_draw_sw_blend.c **** 
 867              		.loc 1 213 5 is_stmt 1 view .LVU272
 213:lvgl/src/draw/sw/lv_draw_sw_blend.c **** 
 868              		.loc 1 213 24 is_stmt 0 view .LVU273
 869 001a FFF7FEFF 		bl	_lv_refr_get_disp_refreshing
 870              	.LVL103:
 213:lvgl/src/draw/sw/lv_draw_sw_blend.c **** 
 871              		.loc 1 213 24 view .LVU274
 872 001e 8146     		mov	r9, r0
 873              	.LVL104:
 215:lvgl/src/draw/sw/lv_draw_sw_blend.c ****     int32_t y;
 874              		.loc 1 215 5 is_stmt 1 view .LVU275
 216:lvgl/src/draw/sw/lv_draw_sw_blend.c **** 
 875              		.loc 1 216 5 view .LVU276
 218:lvgl/src/draw/sw/lv_draw_sw_blend.c ****         for(y = blend_area->y1; y <= blend_area->y2; y++) {
 876              		.loc 1 218 5 view .LVU277
 218:lvgl/src/draw/sw/lv_draw_sw_blend.c ****         for(y = blend_area->y1; y <= blend_area->y2; y++) {
 877              		.loc 1 218 7 is_stmt 0 view .LVU278
 878 0020 7EB1     		cbz	r6, .L77
 879              	.LBB71:
 226:lvgl/src/draw/sw/lv_draw_sw_blend.c ****         int32_t h = lv_area_get_height(blend_area);
 880              		.loc 1 226 9 is_stmt 1 view .LVU279
 881              	.LVL105:
 882              	.LBB72:
 883              	.LBI72:
 123:lvgl/src/draw/sw/../../misc/lv_area.h **** {
 884              		.loc 2 123 26 view .LVU280
 885              	.LBB73:
 125:lvgl/src/draw/sw/../../misc/lv_area.h **** }
 886              		.loc 2 125 5 view .LVU281
 125:lvgl/src/draw/sw/../../misc/lv_area.h **** }
 887              		.loc 2 125 31 is_stmt 0 view .LVU282
 888 0022 AF88     		ldrh	r7, [r5, #4]
 125:lvgl/src/draw/sw/../../misc/lv_area.h **** }
 889              		.loc 2 125 44 view .LVU283
 890 0024 2B88     		ldrh	r3, [r5]
 125:lvgl/src/draw/sw/../../misc/lv_area.h **** }
 891              		.loc 2 125 36 view .LVU284
 892 0026 FF1A     		subs	r7, r7, r3
 893 0028 BFB2     		uxth	r7, r7
 125:lvgl/src/draw/sw/../../misc/lv_area.h **** }
 894              		.loc 2 125 49 view .LVU285
 895 002a 0137     		adds	r7, r7, #1
 125:lvgl/src/draw/sw/../../misc/lv_area.h **** }
 896              		.loc 2 125 12 view .LVU286
 897 002c 3FB2     		sxth	r7, r7
 898              	.LVL106:
 125:lvgl/src/draw/sw/../../misc/lv_area.h **** }
 899              		.loc 2 125 12 view .LVU287
 900              	.LBE73:
ARM GAS  C:\Users\OSD\AppData\Local\Temp\ccrPpCVL.s 			page 40


 901              	.LBE72:
 227:lvgl/src/draw/sw/lv_draw_sw_blend.c **** 
 902              		.loc 1 227 9 is_stmt 1 view .LVU288
 903              	.LBB74:
 904              	.LBI74:
 133:lvgl/src/draw/sw/../../misc/lv_area.h **** {
 905              		.loc 2 133 26 view .LVU289
 906              	.LBB75:
 907              		.loc 2 135 5 view .LVU290
 908              		.loc 2 135 31 is_stmt 0 view .LVU291
 909 002e EB88     		ldrh	r3, [r5, #6]
 910              		.loc 2 135 44 view .LVU292
 911 0030 6A88     		ldrh	r2, [r5, #2]
 912              		.loc 2 135 36 view .LVU293
 913 0032 9B1A     		subs	r3, r3, r2
 914 0034 9BB2     		uxth	r3, r3
 915              		.loc 2 135 49 view .LVU294
 916 0036 0133     		adds	r3, r3, #1
 917              		.loc 2 135 12 view .LVU295
 918 0038 1BB2     		sxth	r3, r3
 919 003a 0593     		str	r3, [sp, #20]
 920              	.LVL107:
 921              		.loc 2 135 12 view .LVU296
 922              	.LBE75:
 923              	.LBE74:
 229:lvgl/src/draw/sw/lv_draw_sw_blend.c ****             for(x = 0; x < w; x++) {
 924              		.loc 1 229 9 is_stmt 1 view .LVU297
 229:lvgl/src/draw/sw/lv_draw_sw_blend.c ****             for(x = 0; x < w; x++) {
 925              		.loc 1 229 15 is_stmt 0 view .LVU298
 926 003c 4FF0000A 		mov	r10, #0
 229:lvgl/src/draw/sw/lv_draw_sw_blend.c ****             for(x = 0; x < w; x++) {
 927              		.loc 1 229 9 view .LVU299
 928 0040 45E0     		b	.L71
 929              	.LVL108:
 930              	.L77:
 229:lvgl/src/draw/sw/lv_draw_sw_blend.c ****             for(x = 0; x < w; x++) {
 931              		.loc 1 229 9 view .LVU300
 932              	.LBE71:
 219:lvgl/src/draw/sw/lv_draw_sw_blend.c ****             for(x = blend_area->x1; x <= blend_area->x2; x++) {
 933              		.loc 1 219 9 is_stmt 1 view .LVU301
 219:lvgl/src/draw/sw/lv_draw_sw_blend.c ****             for(x = blend_area->x1; x <= blend_area->x2; x++) {
 934              		.loc 1 219 27 is_stmt 0 view .LVU302
 935 0042 B5F90270 		ldrsh	r7, [r5, #2]
 936              	.LVL109:
 219:lvgl/src/draw/sw/lv_draw_sw_blend.c ****             for(x = blend_area->x1; x <= blend_area->x2; x++) {
 937              		.loc 1 219 27 view .LVU303
 938 0046 0597     		str	r7, [sp, #20]
 939 0048 069F     		ldr	r7, [sp, #24]
 940              	.LVL110:
 219:lvgl/src/draw/sw/lv_draw_sw_blend.c ****             for(x = blend_area->x1; x <= blend_area->x2; x++) {
 941              		.loc 1 219 27 view .LVU304
 942 004a DDF81C80 		ldr	r8, [sp, #28]
 943 004e DDF820A0 		ldr	r10, [sp, #32]
 219:lvgl/src/draw/sw/lv_draw_sw_blend.c ****             for(x = blend_area->x1; x <= blend_area->x2; x++) {
 944              		.loc 1 219 9 view .LVU305
 945 0052 15E0     		b	.L66
 946              	.LVL111:
ARM GAS  C:\Users\OSD\AppData\Local\Temp\ccrPpCVL.s 			page 41


 947              	.L68:
 221:lvgl/src/draw/sw/lv_draw_sw_blend.c ****             }
 948              		.loc 1 221 17 is_stmt 1 discriminator 3 view .LVU306
 221:lvgl/src/draw/sw/lv_draw_sw_blend.c ****             }
 949              		.loc 1 221 21 is_stmt 0 discriminator 3 view .LVU307
 950 0054 D9F80000 		ldr	r0, [r9]
 221:lvgl/src/draw/sw/lv_draw_sw_blend.c ****             }
 951              		.loc 1 221 29 discriminator 3 view .LVU308
 952 0058 C669     		ldr	r6, [r0, #28]
 221:lvgl/src/draw/sw/lv_draw_sw_blend.c ****             }
 953              		.loc 1 221 17 discriminator 3 view .LVU309
 954 005a CDF808B0 		str	fp, [sp, #8]
 955 005e CDF804A0 		str	r10, [sp, #4]
 956 0062 BDF91430 		ldrsh	r3, [sp, #20]
 957 0066 0093     		str	r3, [sp]
 958 0068 23B2     		sxth	r3, r4
 959 006a 4246     		mov	r2, r8
 960 006c 3946     		mov	r1, r7
 961 006e B047     		blx	r6
 962              	.LVL112:
 220:lvgl/src/draw/sw/lv_draw_sw_blend.c ****                 disp->driver->set_px_cb(disp->driver, (void *)dest_buf, dest_stride, x, y, color, o
 963              		.loc 1 220 58 is_stmt 1 discriminator 3 view .LVU310
 220:lvgl/src/draw/sw/lv_draw_sw_blend.c ****                 disp->driver->set_px_cb(disp->driver, (void *)dest_buf, dest_stride, x, y, color, o
 964              		.loc 1 220 59 is_stmt 0 discriminator 3 view .LVU311
 965 0070 0134     		adds	r4, r4, #1
 966              	.LVL113:
 967              	.L67:
 220:lvgl/src/draw/sw/lv_draw_sw_blend.c ****                 disp->driver->set_px_cb(disp->driver, (void *)dest_buf, dest_stride, x, y, color, o
 968              		.loc 1 220 37 is_stmt 1 discriminator 1 view .LVU312
 220:lvgl/src/draw/sw/lv_draw_sw_blend.c ****                 disp->driver->set_px_cb(disp->driver, (void *)dest_buf, dest_stride, x, y, color, o
 969              		.loc 1 220 52 is_stmt 0 discriminator 1 view .LVU313
 970 0072 B5F90430 		ldrsh	r3, [r5, #4]
 220:lvgl/src/draw/sw/lv_draw_sw_blend.c ****                 disp->driver->set_px_cb(disp->driver, (void *)dest_buf, dest_stride, x, y, color, o
 971              		.loc 1 220 13 discriminator 1 view .LVU314
 972 0076 A342     		cmp	r3, r4
 973 0078 ECDA     		bge	.L68
 219:lvgl/src/draw/sw/lv_draw_sw_blend.c ****             for(x = blend_area->x1; x <= blend_area->x2; x++) {
 974              		.loc 1 219 54 is_stmt 1 discriminator 2 view .LVU315
 219:lvgl/src/draw/sw/lv_draw_sw_blend.c ****             for(x = blend_area->x1; x <= blend_area->x2; x++) {
 975              		.loc 1 219 55 is_stmt 0 discriminator 2 view .LVU316
 976 007a 059B     		ldr	r3, [sp, #20]
 977 007c 0133     		adds	r3, r3, #1
 978 007e 0593     		str	r3, [sp, #20]
 979              	.LVL114:
 980              	.L66:
 219:lvgl/src/draw/sw/lv_draw_sw_blend.c ****             for(x = blend_area->x1; x <= blend_area->x2; x++) {
 981              		.loc 1 219 33 is_stmt 1 discriminator 1 view .LVU317
 219:lvgl/src/draw/sw/lv_draw_sw_blend.c ****             for(x = blend_area->x1; x <= blend_area->x2; x++) {
 982              		.loc 1 219 48 is_stmt 0 discriminator 1 view .LVU318
 983 0080 B5F90630 		ldrsh	r3, [r5, #6]
 219:lvgl/src/draw/sw/lv_draw_sw_blend.c ****             for(x = blend_area->x1; x <= blend_area->x2; x++) {
 984              		.loc 1 219 9 discriminator 1 view .LVU319
 985 0084 059A     		ldr	r2, [sp, #20]
 986 0086 9342     		cmp	r3, r2
 987 0088 26DB     		blt	.L64
 220:lvgl/src/draw/sw/lv_draw_sw_blend.c ****                 disp->driver->set_px_cb(disp->driver, (void *)dest_buf, dest_stride, x, y, color, o
 988              		.loc 1 220 13 is_stmt 1 view .LVU320
ARM GAS  C:\Users\OSD\AppData\Local\Temp\ccrPpCVL.s 			page 42


 220:lvgl/src/draw/sw/lv_draw_sw_blend.c ****                 disp->driver->set_px_cb(disp->driver, (void *)dest_buf, dest_stride, x, y, color, o
 989              		.loc 1 220 31 is_stmt 0 view .LVU321
 990 008a B5F90040 		ldrsh	r4, [r5]
 991              	.LVL115:
 220:lvgl/src/draw/sw/lv_draw_sw_blend.c ****                 disp->driver->set_px_cb(disp->driver, (void *)dest_buf, dest_stride, x, y, color, o
 992              		.loc 1 220 13 view .LVU322
 993 008e F0E7     		b	.L67
 994              	.LVL116:
 995              	.L72:
 996              	.LBB76:
 230:lvgl/src/draw/sw/lv_draw_sw_blend.c ****                 if(mask[x]) {
 997              		.loc 1 230 31 is_stmt 1 discriminator 2 view .LVU323
 230:lvgl/src/draw/sw/lv_draw_sw_blend.c ****                 if(mask[x]) {
 998              		.loc 1 230 32 is_stmt 0 discriminator 2 view .LVU324
 999 0090 0134     		adds	r4, r4, #1
 1000              	.LVL117:
 1001              	.L74:
 230:lvgl/src/draw/sw/lv_draw_sw_blend.c ****                 if(mask[x]) {
 1002              		.loc 1 230 24 is_stmt 1 discriminator 1 view .LVU325
 230:lvgl/src/draw/sw/lv_draw_sw_blend.c ****                 if(mask[x]) {
 1003              		.loc 1 230 13 is_stmt 0 discriminator 1 view .LVU326
 1004 0092 BC42     		cmp	r4, r7
 1005 0094 17DA     		bge	.L78
 231:lvgl/src/draw/sw/lv_draw_sw_blend.c **** 
 1006              		.loc 1 231 17 is_stmt 1 view .LVU327
 231:lvgl/src/draw/sw/lv_draw_sw_blend.c **** 
 1007              		.loc 1 231 24 is_stmt 0 view .LVU328
 1008 0096 325D     		ldrb	r2, [r6, r4]	@ zero_extendqisi2
 231:lvgl/src/draw/sw/lv_draw_sw_blend.c **** 
 1009              		.loc 1 231 19 view .LVU329
 1010 0098 002A     		cmp	r2, #0
 1011 009a F9D0     		beq	.L72
 233:lvgl/src/draw/sw/lv_draw_sw_blend.c ****                                             (uint32_t)((uint32_t)opa * mask[x]) >> 8);
 1012              		.loc 1 233 21 is_stmt 1 view .LVU330
 233:lvgl/src/draw/sw/lv_draw_sw_blend.c ****                                             (uint32_t)((uint32_t)opa * mask[x]) >> 8);
 1013              		.loc 1 233 25 is_stmt 0 view .LVU331
 1014 009c D9F80000 		ldr	r0, [r9]
 233:lvgl/src/draw/sw/lv_draw_sw_blend.c ****                                             (uint32_t)((uint32_t)opa * mask[x]) >> 8);
 1015              		.loc 1 233 33 view .LVU332
 1016 00a0 D0F81C80 		ldr	r8, [r0, #28]
 233:lvgl/src/draw/sw/lv_draw_sw_blend.c ****                                             (uint32_t)((uint32_t)opa * mask[x]) >> 8);
 1017              		.loc 1 233 100 view .LVU333
 1018 00a4 2B88     		ldrh	r3, [r5]
 233:lvgl/src/draw/sw/lv_draw_sw_blend.c ****                                             (uint32_t)((uint32_t)opa * mask[x]) >> 8);
 1019              		.loc 1 233 105 view .LVU334
 1020 00a6 2344     		add	r3, r3, r4
 233:lvgl/src/draw/sw/lv_draw_sw_blend.c ****                                             (uint32_t)((uint32_t)opa * mask[x]) >> 8);
 1021              		.loc 1 233 120 view .LVU335
 1022 00a8 6988     		ldrh	r1, [r5, #2]
 233:lvgl/src/draw/sw/lv_draw_sw_blend.c ****                                             (uint32_t)((uint32_t)opa * mask[x]) >> 8);
 1023              		.loc 1 233 125 view .LVU336
 1024 00aa 5144     		add	r1, r1, r10
 234:lvgl/src/draw/sw/lv_draw_sw_blend.c ****                 }
 1025              		.loc 1 234 45 view .LVU337
 1026 00ac 02FB0BF2 		mul	r2, r2, fp
 233:lvgl/src/draw/sw/lv_draw_sw_blend.c ****                                             (uint32_t)((uint32_t)opa * mask[x]) >> 8);
 1027              		.loc 1 233 21 view .LVU338
ARM GAS  C:\Users\OSD\AppData\Local\Temp\ccrPpCVL.s 			page 43


 1028 00b0 120A     		lsrs	r2, r2, #8
 1029 00b2 0292     		str	r2, [sp, #8]
 1030 00b4 089A     		ldr	r2, [sp, #32]
 1031              	.LVL118:
 233:lvgl/src/draw/sw/lv_draw_sw_blend.c ****                                             (uint32_t)((uint32_t)opa * mask[x]) >> 8);
 1032              		.loc 1 233 21 view .LVU339
 1033 00b6 0192     		str	r2, [sp, #4]
 1034 00b8 09B2     		sxth	r1, r1
 1035 00ba 0091     		str	r1, [sp]
 1036 00bc 1BB2     		sxth	r3, r3
 1037 00be 079A     		ldr	r2, [sp, #28]
 1038              	.LVL119:
 233:lvgl/src/draw/sw/lv_draw_sw_blend.c ****                                             (uint32_t)((uint32_t)opa * mask[x]) >> 8);
 1039              		.loc 1 233 21 view .LVU340
 1040 00c0 0699     		ldr	r1, [sp, #24]
 1041 00c2 C047     		blx	r8
 1042              	.LVL120:
 1043 00c4 E4E7     		b	.L72
 1044              	.L78:
 237:lvgl/src/draw/sw/lv_draw_sw_blend.c ****         }
 1045              		.loc 1 237 13 is_stmt 1 discriminator 2 view .LVU341
 237:lvgl/src/draw/sw/lv_draw_sw_blend.c ****         }
 1046              		.loc 1 237 18 is_stmt 0 discriminator 2 view .LVU342
 1047 00c6 099B     		ldr	r3, [sp, #36]
 1048 00c8 1E44     		add	r6, r6, r3
 1049              	.LVL121:
 229:lvgl/src/draw/sw/lv_draw_sw_blend.c ****             for(x = 0; x < w; x++) {
 1050              		.loc 1 229 27 is_stmt 1 discriminator 2 view .LVU343
 229:lvgl/src/draw/sw/lv_draw_sw_blend.c ****             for(x = 0; x < w; x++) {
 1051              		.loc 1 229 28 is_stmt 0 discriminator 2 view .LVU344
 1052 00ca 0AF1010A 		add	r10, r10, #1
 1053              	.LVL122:
 1054              	.L71:
 229:lvgl/src/draw/sw/lv_draw_sw_blend.c ****             for(x = 0; x < w; x++) {
 1055              		.loc 1 229 20 is_stmt 1 discriminator 1 view .LVU345
 229:lvgl/src/draw/sw/lv_draw_sw_blend.c ****             for(x = 0; x < w; x++) {
 1056              		.loc 1 229 9 is_stmt 0 discriminator 1 view .LVU346
 1057 00ce 059B     		ldr	r3, [sp, #20]
 1058 00d0 9A45     		cmp	r10, r3
 1059 00d2 01DA     		bge	.L64
 230:lvgl/src/draw/sw/lv_draw_sw_blend.c ****                 if(mask[x]) {
 1060              		.loc 1 230 19 view .LVU347
 1061 00d4 0024     		movs	r4, #0
 1062 00d6 DCE7     		b	.L74
 1063              	.LVL123:
 1064              	.L64:
 230:lvgl/src/draw/sw/lv_draw_sw_blend.c ****                 if(mask[x]) {
 1065              		.loc 1 230 19 view .LVU348
 1066              	.LBE76:
 240:lvgl/src/draw/sw/lv_draw_sw_blend.c **** 
 1067              		.loc 1 240 1 view .LVU349
 1068 00d8 0BB0     		add	sp, sp, #44
 1069              		.cfi_def_cfa_offset 36
 1070              		@ sp needed
 1071 00da BDE8F08F 		pop	{r4, r5, r6, r7, r8, r9, r10, fp, pc}
 240:lvgl/src/draw/sw/lv_draw_sw_blend.c **** 
 1072              		.loc 1 240 1 view .LVU350
ARM GAS  C:\Users\OSD\AppData\Local\Temp\ccrPpCVL.s 			page 44


 1073              		.cfi_endproc
 1074              	.LFE163:
 1076              		.section	.text.map_set_px,"ax",%progbits
 1077              		.align	1
 1078              		.syntax unified
 1079              		.thumb
 1080              		.thumb_func
 1082              	map_set_px:
 1083              	.LVL124:
 1084              	.LFB166:
 609:lvgl/src/draw/sw/lv_draw_sw_blend.c ****     lv_disp_t * disp = _lv_refr_get_disp_refreshing();
 1085              		.loc 1 609 1 is_stmt 1 view -0
 1086              		.cfi_startproc
 1087              		@ args = 16, pretend = 0, frame = 24
 1088              		@ frame_needed = 0, uses_anonymous_args = 0
 609:lvgl/src/draw/sw/lv_draw_sw_blend.c ****     lv_disp_t * disp = _lv_refr_get_disp_refreshing();
 1089              		.loc 1 609 1 is_stmt 0 view .LVU352
 1090 0000 2DE9F04F 		push	{r4, r5, r6, r7, r8, r9, r10, fp, lr}
 1091              		.cfi_def_cfa_offset 36
 1092              		.cfi_offset 4, -36
 1093              		.cfi_offset 5, -32
 1094              		.cfi_offset 6, -28
 1095              		.cfi_offset 7, -24
 1096              		.cfi_offset 8, -20
 1097              		.cfi_offset 9, -16
 1098              		.cfi_offset 10, -12
 1099              		.cfi_offset 11, -8
 1100              		.cfi_offset 14, -4
 1101 0004 8BB0     		sub	sp, sp, #44
 1102              		.cfi_def_cfa_offset 80
 1103 0006 0490     		str	r0, [sp, #16]
 1104 0008 0D46     		mov	r5, r1
 1105 000a 0592     		str	r2, [sp, #20]
 1106 000c 1F46     		mov	r7, r3
 1107 000e BDF95030 		ldrsh	r3, [sp, #80]
 1108              	.LVL125:
 609:lvgl/src/draw/sw/lv_draw_sw_blend.c ****     lv_disp_t * disp = _lv_refr_get_disp_refreshing();
 1109              		.loc 1 609 1 view .LVU353
 1110 0012 0893     		str	r3, [sp, #32]
 1111 0014 9DF85430 		ldrb	r3, [sp, #84]	@ zero_extendqisi2
 1112 0018 0693     		str	r3, [sp, #24]
 1113 001a DDF85880 		ldr	r8, [sp, #88]
 1114 001e BDF95C30 		ldrsh	r3, [sp, #92]
 1115 0022 0993     		str	r3, [sp, #36]
 610:lvgl/src/draw/sw/lv_draw_sw_blend.c **** 
 1116              		.loc 1 610 5 is_stmt 1 view .LVU354
 610:lvgl/src/draw/sw/lv_draw_sw_blend.c **** 
 1117              		.loc 1 610 24 is_stmt 0 view .LVU355
 1118 0024 FFF7FEFF 		bl	_lv_refr_get_disp_refreshing
 1119              	.LVL126:
 610:lvgl/src/draw/sw/lv_draw_sw_blend.c **** 
 1120              		.loc 1 610 24 view .LVU356
 1121 0028 8246     		mov	r10, r0
 1122              	.LVL127:
 612:lvgl/src/draw/sw/lv_draw_sw_blend.c ****     int32_t h = lv_area_get_height(dest_area);
 1123              		.loc 1 612 5 is_stmt 1 view .LVU357
 1124              	.LBB77:
ARM GAS  C:\Users\OSD\AppData\Local\Temp\ccrPpCVL.s 			page 45


 1125              	.LBI77:
 123:lvgl/src/draw/sw/../../misc/lv_area.h **** {
 1126              		.loc 2 123 26 view .LVU358
 1127              	.LBB78:
 125:lvgl/src/draw/sw/../../misc/lv_area.h **** }
 1128              		.loc 2 125 5 view .LVU359
 125:lvgl/src/draw/sw/../../misc/lv_area.h **** }
 1129              		.loc 2 125 31 is_stmt 0 view .LVU360
 1130 002a AE88     		ldrh	r6, [r5, #4]
 125:lvgl/src/draw/sw/../../misc/lv_area.h **** }
 1131              		.loc 2 125 44 view .LVU361
 1132 002c 2B88     		ldrh	r3, [r5]
 125:lvgl/src/draw/sw/../../misc/lv_area.h **** }
 1133              		.loc 2 125 36 view .LVU362
 1134 002e F61A     		subs	r6, r6, r3
 1135 0030 B6B2     		uxth	r6, r6
 125:lvgl/src/draw/sw/../../misc/lv_area.h **** }
 1136              		.loc 2 125 49 view .LVU363
 1137 0032 0136     		adds	r6, r6, #1
 125:lvgl/src/draw/sw/../../misc/lv_area.h **** }
 1138              		.loc 2 125 12 view .LVU364
 1139 0034 36B2     		sxth	r6, r6
 1140              	.LVL128:
 125:lvgl/src/draw/sw/../../misc/lv_area.h **** }
 1141              		.loc 2 125 12 view .LVU365
 1142              	.LBE78:
 1143              	.LBE77:
 613:lvgl/src/draw/sw/lv_draw_sw_blend.c **** 
 1144              		.loc 1 613 5 is_stmt 1 view .LVU366
 1145              	.LBB79:
 1146              	.LBI79:
 133:lvgl/src/draw/sw/../../misc/lv_area.h **** {
 1147              		.loc 2 133 26 view .LVU367
 1148              	.LBB80:
 1149              		.loc 2 135 5 view .LVU368
 1150              		.loc 2 135 31 is_stmt 0 view .LVU369
 1151 0036 EB88     		ldrh	r3, [r5, #6]
 1152              		.loc 2 135 44 view .LVU370
 1153 0038 6A88     		ldrh	r2, [r5, #2]
 1154              		.loc 2 135 36 view .LVU371
 1155 003a 9B1A     		subs	r3, r3, r2
 1156 003c 9BB2     		uxth	r3, r3
 1157              		.loc 2 135 49 view .LVU372
 1158 003e 0133     		adds	r3, r3, #1
 1159              		.loc 2 135 12 view .LVU373
 1160 0040 1BB2     		sxth	r3, r3
 1161 0042 0793     		str	r3, [sp, #28]
 1162              	.LVL129:
 1163              		.loc 2 135 12 view .LVU374
 1164              	.LBE80:
 1165              	.LBE79:
 615:lvgl/src/draw/sw/lv_draw_sw_blend.c ****     int32_t y;
 1166              		.loc 1 615 5 is_stmt 1 view .LVU375
 616:lvgl/src/draw/sw/lv_draw_sw_blend.c **** 
 1167              		.loc 1 616 5 view .LVU376
 618:lvgl/src/draw/sw/lv_draw_sw_blend.c ****         for(y = 0; y < h; y++) {
 1168              		.loc 1 618 5 view .LVU377
ARM GAS  C:\Users\OSD\AppData\Local\Temp\ccrPpCVL.s 			page 46


 618:lvgl/src/draw/sw/lv_draw_sw_blend.c ****         for(y = 0; y < h; y++) {
 1169              		.loc 1 618 7 is_stmt 0 view .LVU378
 1170 0044 B8F1000F 		cmp	r8, #0
 1171 0048 22D0     		beq	.L88
 628:lvgl/src/draw/sw/lv_draw_sw_blend.c ****             for(x = 0; x < w; x++) {
 1172              		.loc 1 628 15 view .LVU379
 1173 004a 4FF0000B 		mov	fp, #0
 1174 004e B946     		mov	r9, r7
 1175 0050 4AE0     		b	.L81
 1176              	.LVL130:
 1177              	.L82:
 621:lvgl/src/draw/sw/lv_draw_sw_blend.c ****                                         opa);
 1178              		.loc 1 621 17 is_stmt 1 discriminator 3 view .LVU380
 621:lvgl/src/draw/sw/lv_draw_sw_blend.c ****                                         opa);
 1179              		.loc 1 621 21 is_stmt 0 discriminator 3 view .LVU381
 1180 0052 DAF80000 		ldr	r0, [r10]
 621:lvgl/src/draw/sw/lv_draw_sw_blend.c ****                                         opa);
 1181              		.loc 1 621 29 discriminator 3 view .LVU382
 1182 0056 C669     		ldr	r6, [r0, #28]
 621:lvgl/src/draw/sw/lv_draw_sw_blend.c ****                                         opa);
 1183              		.loc 1 621 95 discriminator 3 view .LVU383
 1184 0058 2B88     		ldrh	r3, [r5]
 621:lvgl/src/draw/sw/lv_draw_sw_blend.c ****                                         opa);
 1185              		.loc 1 621 100 discriminator 3 view .LVU384
 1186 005a 2344     		add	r3, r3, r4
 621:lvgl/src/draw/sw/lv_draw_sw_blend.c ****                                         opa);
 1187              		.loc 1 621 114 discriminator 3 view .LVU385
 1188 005c 6A88     		ldrh	r2, [r5, #2]
 621:lvgl/src/draw/sw/lv_draw_sw_blend.c ****                                         opa);
 1189              		.loc 1 621 119 discriminator 3 view .LVU386
 1190 005e 4A44     		add	r2, r2, r9
 621:lvgl/src/draw/sw/lv_draw_sw_blend.c ****                                         opa);
 1191              		.loc 1 621 17 discriminator 3 view .LVU387
 1192 0060 CDF808B0 		str	fp, [sp, #8]
 1193 0064 57F82410 		ldr	r1, [r7, r4, lsl #2]
 1194 0068 0191     		str	r1, [sp, #4]
 1195 006a 12B2     		sxth	r2, r2
 1196 006c 0092     		str	r2, [sp]
 1197 006e 1BB2     		sxth	r3, r3
 1198 0070 059A     		ldr	r2, [sp, #20]
 1199 0072 0499     		ldr	r1, [sp, #16]
 1200 0074 B047     		blx	r6
 1201              	.LVL131:
 620:lvgl/src/draw/sw/lv_draw_sw_blend.c ****                 disp->driver->set_px_cb(disp->driver, (void *)dest_buf, dest_stride, dest_area->x1 
 1202              		.loc 1 620 31 is_stmt 1 discriminator 3 view .LVU388
 620:lvgl/src/draw/sw/lv_draw_sw_blend.c ****                 disp->driver->set_px_cb(disp->driver, (void *)dest_buf, dest_stride, dest_area->x1 
 1203              		.loc 1 620 32 is_stmt 0 discriminator 3 view .LVU389
 1204 0076 0134     		adds	r4, r4, #1
 1205              	.LVL132:
 1206              	.L83:
 620:lvgl/src/draw/sw/lv_draw_sw_blend.c ****                 disp->driver->set_px_cb(disp->driver, (void *)dest_buf, dest_stride, dest_area->x1 
 1207              		.loc 1 620 24 is_stmt 1 discriminator 1 view .LVU390
 620:lvgl/src/draw/sw/lv_draw_sw_blend.c ****                 disp->driver->set_px_cb(disp->driver, (void *)dest_buf, dest_stride, dest_area->x1 
 1208              		.loc 1 620 13 is_stmt 0 discriminator 1 view .LVU391
 1209 0078 4445     		cmp	r4, r8
 1210 007a EADB     		blt	.L82
 624:lvgl/src/draw/sw/lv_draw_sw_blend.c ****         }
ARM GAS  C:\Users\OSD\AppData\Local\Temp\ccrPpCVL.s 			page 47


 1211              		.loc 1 624 13 is_stmt 1 discriminator 2 view .LVU392
 624:lvgl/src/draw/sw/lv_draw_sw_blend.c ****         }
 1212              		.loc 1 624 21 is_stmt 0 discriminator 2 view .LVU393
 1213 007c 089B     		ldr	r3, [sp, #32]
 1214 007e 07EB8307 		add	r7, r7, r3, lsl #2
 1215              	.LVL133:
 619:lvgl/src/draw/sw/lv_draw_sw_blend.c ****             for(x = 0; x < w; x++) {
 1216              		.loc 1 619 27 is_stmt 1 discriminator 2 view .LVU394
 619:lvgl/src/draw/sw/lv_draw_sw_blend.c ****             for(x = 0; x < w; x++) {
 1217              		.loc 1 619 28 is_stmt 0 discriminator 2 view .LVU395
 1218 0082 09F10109 		add	r9, r9, #1
 1219              	.LVL134:
 1220              	.L80:
 619:lvgl/src/draw/sw/lv_draw_sw_blend.c ****             for(x = 0; x < w; x++) {
 1221              		.loc 1 619 20 is_stmt 1 discriminator 1 view .LVU396
 619:lvgl/src/draw/sw/lv_draw_sw_blend.c ****             for(x = 0; x < w; x++) {
 1222              		.loc 1 619 9 is_stmt 0 discriminator 1 view .LVU397
 1223 0086 079B     		ldr	r3, [sp, #28]
 1224 0088 9945     		cmp	r9, r3
 1225 008a 32DA     		bge	.L79
 620:lvgl/src/draw/sw/lv_draw_sw_blend.c ****                 disp->driver->set_px_cb(disp->driver, (void *)dest_buf, dest_stride, dest_area->x1 
 1226              		.loc 1 620 19 view .LVU398
 1227 008c 0024     		movs	r4, #0
 1228 008e F3E7     		b	.L83
 1229              	.LVL135:
 1230              	.L88:
 619:lvgl/src/draw/sw/lv_draw_sw_blend.c ****             for(x = 0; x < w; x++) {
 1231              		.loc 1 619 15 view .LVU399
 1232 0090 4FF00009 		mov	r9, #0
 1233 0094 B046     		mov	r8, r6
 1234 0096 DDF818B0 		ldr	fp, [sp, #24]
 1235 009a F4E7     		b	.L80
 1236              	.LVL136:
 1237              	.L85:
 629:lvgl/src/draw/sw/lv_draw_sw_blend.c ****                 if(mask[x]) {
 1238              		.loc 1 629 31 is_stmt 1 discriminator 2 view .LVU400
 629:lvgl/src/draw/sw/lv_draw_sw_blend.c ****                 if(mask[x]) {
 1239              		.loc 1 629 32 is_stmt 0 discriminator 2 view .LVU401
 1240 009c 0134     		adds	r4, r4, #1
 1241              	.LVL137:
 1242              	.L87:
 629:lvgl/src/draw/sw/lv_draw_sw_blend.c ****                 if(mask[x]) {
 1243              		.loc 1 629 24 is_stmt 1 discriminator 1 view .LVU402
 629:lvgl/src/draw/sw/lv_draw_sw_blend.c ****                 if(mask[x]) {
 1244              		.loc 1 629 13 is_stmt 0 discriminator 1 view .LVU403
 1245 009e B442     		cmp	r4, r6
 1246 00a0 1BDA     		bge	.L92
 630:lvgl/src/draw/sw/lv_draw_sw_blend.c ****                     disp->driver->set_px_cb(disp->driver, (void *)dest_buf, dest_stride, dest_area-
 1247              		.loc 1 630 17 is_stmt 1 view .LVU404
 630:lvgl/src/draw/sw/lv_draw_sw_blend.c ****                     disp->driver->set_px_cb(disp->driver, (void *)dest_buf, dest_stride, dest_area-
 1248              		.loc 1 630 24 is_stmt 0 view .LVU405
 1249 00a2 18F80420 		ldrb	r2, [r8, r4]	@ zero_extendqisi2
 630:lvgl/src/draw/sw/lv_draw_sw_blend.c ****                     disp->driver->set_px_cb(disp->driver, (void *)dest_buf, dest_stride, dest_area-
 1250              		.loc 1 630 19 view .LVU406
 1251 00a6 002A     		cmp	r2, #0
 1252 00a8 F8D0     		beq	.L85
 631:lvgl/src/draw/sw/lv_draw_sw_blend.c ****                                             (uint32_t)((uint32_t)opa * mask[x]) >> 8);
ARM GAS  C:\Users\OSD\AppData\Local\Temp\ccrPpCVL.s 			page 48


 1253              		.loc 1 631 21 is_stmt 1 view .LVU407
 631:lvgl/src/draw/sw/lv_draw_sw_blend.c ****                                             (uint32_t)((uint32_t)opa * mask[x]) >> 8);
 1254              		.loc 1 631 25 is_stmt 0 view .LVU408
 1255 00aa DAF80000 		ldr	r0, [r10]
 631:lvgl/src/draw/sw/lv_draw_sw_blend.c ****                                             (uint32_t)((uint32_t)opa * mask[x]) >> 8);
 1256              		.loc 1 631 33 view .LVU409
 1257 00ae C769     		ldr	r7, [r0, #28]
 631:lvgl/src/draw/sw/lv_draw_sw_blend.c ****                                             (uint32_t)((uint32_t)opa * mask[x]) >> 8);
 1258              		.loc 1 631 99 view .LVU410
 1259 00b0 2B88     		ldrh	r3, [r5]
 631:lvgl/src/draw/sw/lv_draw_sw_blend.c ****                                             (uint32_t)((uint32_t)opa * mask[x]) >> 8);
 1260              		.loc 1 631 104 view .LVU411
 1261 00b2 03EB040C 		add	ip, r3, r4
 631:lvgl/src/draw/sw/lv_draw_sw_blend.c ****                                             (uint32_t)((uint32_t)opa * mask[x]) >> 8);
 1262              		.loc 1 631 118 view .LVU412
 1263 00b6 6988     		ldrh	r1, [r5, #2]
 631:lvgl/src/draw/sw/lv_draw_sw_blend.c ****                                             (uint32_t)((uint32_t)opa * mask[x]) >> 8);
 1264              		.loc 1 631 123 view .LVU413
 1265 00b8 5944     		add	r1, r1, fp
 632:lvgl/src/draw/sw/lv_draw_sw_blend.c ****                 }
 1266              		.loc 1 632 45 view .LVU414
 1267 00ba 069B     		ldr	r3, [sp, #24]
 1268 00bc 03FB02F2 		mul	r2, r3, r2
 631:lvgl/src/draw/sw/lv_draw_sw_blend.c ****                                             (uint32_t)((uint32_t)opa * mask[x]) >> 8);
 1269              		.loc 1 631 21 view .LVU415
 1270 00c0 120A     		lsrs	r2, r2, #8
 1271 00c2 0292     		str	r2, [sp, #8]
 1272 00c4 59F82420 		ldr	r2, [r9, r4, lsl #2]
 1273 00c8 0192     		str	r2, [sp, #4]
 1274 00ca 09B2     		sxth	r1, r1
 1275 00cc 0091     		str	r1, [sp]
 1276 00ce 0FFA8CF3 		sxth	r3, ip
 1277 00d2 059A     		ldr	r2, [sp, #20]
 1278 00d4 0499     		ldr	r1, [sp, #16]
 1279 00d6 B847     		blx	r7
 1280              	.LVL138:
 1281 00d8 E0E7     		b	.L85
 1282              	.L92:
 635:lvgl/src/draw/sw/lv_draw_sw_blend.c ****             src_buf += src_stride;
 1283              		.loc 1 635 13 is_stmt 1 discriminator 2 view .LVU416
 635:lvgl/src/draw/sw/lv_draw_sw_blend.c ****             src_buf += src_stride;
 1284              		.loc 1 635 18 is_stmt 0 discriminator 2 view .LVU417
 1285 00da 099B     		ldr	r3, [sp, #36]
 1286 00dc 9844     		add	r8, r8, r3
 1287              	.LVL139:
 636:lvgl/src/draw/sw/lv_draw_sw_blend.c ****         }
 1288              		.loc 1 636 13 is_stmt 1 discriminator 2 view .LVU418
 636:lvgl/src/draw/sw/lv_draw_sw_blend.c ****         }
 1289              		.loc 1 636 21 is_stmt 0 discriminator 2 view .LVU419
 1290 00de 089B     		ldr	r3, [sp, #32]
 1291 00e0 09EB8309 		add	r9, r9, r3, lsl #2
 1292              	.LVL140:
 628:lvgl/src/draw/sw/lv_draw_sw_blend.c ****             for(x = 0; x < w; x++) {
 1293              		.loc 1 628 27 is_stmt 1 discriminator 2 view .LVU420
 628:lvgl/src/draw/sw/lv_draw_sw_blend.c ****             for(x = 0; x < w; x++) {
 1294              		.loc 1 628 28 is_stmt 0 discriminator 2 view .LVU421
 1295 00e4 0BF1010B 		add	fp, fp, #1
ARM GAS  C:\Users\OSD\AppData\Local\Temp\ccrPpCVL.s 			page 49


 1296              	.LVL141:
 1297              	.L81:
 628:lvgl/src/draw/sw/lv_draw_sw_blend.c ****             for(x = 0; x < w; x++) {
 1298              		.loc 1 628 20 is_stmt 1 discriminator 1 view .LVU422
 628:lvgl/src/draw/sw/lv_draw_sw_blend.c ****             for(x = 0; x < w; x++) {
 1299              		.loc 1 628 9 is_stmt 0 discriminator 1 view .LVU423
 1300 00e8 079B     		ldr	r3, [sp, #28]
 1301 00ea 9B45     		cmp	fp, r3
 1302 00ec 01DA     		bge	.L79
 629:lvgl/src/draw/sw/lv_draw_sw_blend.c ****                 if(mask[x]) {
 1303              		.loc 1 629 19 view .LVU424
 1304 00ee 0024     		movs	r4, #0
 1305 00f0 D5E7     		b	.L87
 1306              	.LVL142:
 1307              	.L79:
 639:lvgl/src/draw/sw/lv_draw_sw_blend.c **** 
 1308              		.loc 1 639 1 view .LVU425
 1309 00f2 0BB0     		add	sp, sp, #44
 1310              		.cfi_def_cfa_offset 36
 1311              		@ sp needed
 1312 00f4 BDE8F08F 		pop	{r4, r5, r6, r7, r8, r9, r10, fp, pc}
 639:lvgl/src/draw/sw/lv_draw_sw_blend.c **** 
 1313              		.loc 1 639 1 view .LVU426
 1314              		.cfi_endproc
 1315              	.LFE166:
 1317              		.section	.text.fill_normal,"ax",%progbits
 1318              		.align	1
 1319              		.syntax unified
 1320              		.thumb
 1321              		.thumb_func
 1323              	fill_normal:
 1324              	.LVL143:
 1325              	.LFB164:
 245:lvgl/src/draw/sw/lv_draw_sw_blend.c ****     int32_t w = lv_area_get_width(dest_area);
 1326              		.loc 1 245 1 is_stmt 1 view -0
 1327              		.cfi_startproc
 1328              		@ args = 12, pretend = 0, frame = 48
 1329              		@ frame_needed = 0, uses_anonymous_args = 0
 245:lvgl/src/draw/sw/lv_draw_sw_blend.c ****     int32_t w = lv_area_get_width(dest_area);
 1330              		.loc 1 245 1 is_stmt 0 view .LVU428
 1331 0000 2DE9F04F 		push	{r4, r5, r6, r7, r8, r9, r10, fp, lr}
 1332              		.cfi_def_cfa_offset 36
 1333              		.cfi_offset 4, -36
 1334              		.cfi_offset 5, -32
 1335              		.cfi_offset 6, -28
 1336              		.cfi_offset 7, -24
 1337              		.cfi_offset 8, -20
 1338              		.cfi_offset 9, -16
 1339              		.cfi_offset 10, -12
 1340              		.cfi_offset 11, -8
 1341              		.cfi_offset 14, -4
 1342 0004 8DB0     		sub	sp, sp, #52
 1343              		.cfi_def_cfa_offset 88
 1344 0006 0446     		mov	r4, r0
 1345 0008 0492     		str	r2, [sp, #16]
 1346 000a 1D46     		mov	r5, r3
 1347              	.LVL144:
ARM GAS  C:\Users\OSD\AppData\Local\Temp\ccrPpCVL.s 			page 50


 245:lvgl/src/draw/sw/lv_draw_sw_blend.c ****     int32_t w = lv_area_get_width(dest_area);
 1348              		.loc 1 245 1 view .LVU429
 1349 000c 9DF858B0 		ldrb	fp, [sp, #88]	@ zero_extendqisi2
 1350 0010 179A     		ldr	r2, [sp, #92]
 1351              	.LVL145:
 245:lvgl/src/draw/sw/lv_draw_sw_blend.c ****     int32_t w = lv_area_get_width(dest_area);
 1352              		.loc 1 245 1 view .LVU430
 1353 0012 BDF96030 		ldrsh	r3, [sp, #96]
 1354 0016 0593     		str	r3, [sp, #20]
 246:lvgl/src/draw/sw/lv_draw_sw_blend.c ****     int32_t h = lv_area_get_height(dest_area);
 1355              		.loc 1 246 5 is_stmt 1 view .LVU431
 1356              	.LVL146:
 1357              	.LBB112:
 1358              	.LBI112:
 123:lvgl/src/draw/sw/../../misc/lv_area.h **** {
 1359              		.loc 2 123 26 view .LVU432
 1360              	.LBB113:
 125:lvgl/src/draw/sw/../../misc/lv_area.h **** }
 1361              		.loc 2 125 5 view .LVU433
 125:lvgl/src/draw/sw/../../misc/lv_area.h **** }
 1362              		.loc 2 125 31 is_stmt 0 view .LVU434
 1363 0018 8B88     		ldrh	r3, [r1, #4]
 125:lvgl/src/draw/sw/../../misc/lv_area.h **** }
 1364              		.loc 2 125 44 view .LVU435
 1365 001a 0888     		ldrh	r0, [r1]
 1366              	.LVL147:
 125:lvgl/src/draw/sw/../../misc/lv_area.h **** }
 1367              		.loc 2 125 36 view .LVU436
 1368 001c 1F1A     		subs	r7, r3, r0
 1369 001e BFB2     		uxth	r7, r7
 125:lvgl/src/draw/sw/../../misc/lv_area.h **** }
 1370              		.loc 2 125 49 view .LVU437
 1371 0020 0137     		adds	r7, r7, #1
 125:lvgl/src/draw/sw/../../misc/lv_area.h **** }
 1372              		.loc 2 125 12 view .LVU438
 1373 0022 3FB2     		sxth	r7, r7
 1374              	.LVL148:
 125:lvgl/src/draw/sw/../../misc/lv_area.h **** }
 1375              		.loc 2 125 12 view .LVU439
 1376              	.LBE113:
 1377              	.LBE112:
 247:lvgl/src/draw/sw/lv_draw_sw_blend.c **** 
 1378              		.loc 1 247 5 is_stmt 1 view .LVU440
 1379              	.LBB114:
 1380              	.LBI114:
 133:lvgl/src/draw/sw/../../misc/lv_area.h **** {
 1381              		.loc 2 133 26 view .LVU441
 1382              	.LBB115:
 1383              		.loc 2 135 5 view .LVU442
 1384              		.loc 2 135 31 is_stmt 0 view .LVU443
 1385 0024 CB88     		ldrh	r3, [r1, #6]
 1386              		.loc 2 135 44 view .LVU444
 1387 0026 4988     		ldrh	r1, [r1, #2]
 1388              	.LVL149:
 1389              		.loc 2 135 36 view .LVU445
 1390 0028 5B1A     		subs	r3, r3, r1
 1391 002a 9BB2     		uxth	r3, r3
ARM GAS  C:\Users\OSD\AppData\Local\Temp\ccrPpCVL.s 			page 51


 1392              		.loc 2 135 49 view .LVU446
 1393 002c 0133     		adds	r3, r3, #1
 1394              		.loc 2 135 12 view .LVU447
 1395 002e 1BB2     		sxth	r3, r3
 1396 0030 0393     		str	r3, [sp, #12]
 1397              	.LVL150:
 1398              		.loc 2 135 12 view .LVU448
 1399              	.LBE115:
 1400              	.LBE114:
 249:lvgl/src/draw/sw/lv_draw_sw_blend.c ****     int32_t y;
 1401              		.loc 1 249 5 is_stmt 1 view .LVU449
 250:lvgl/src/draw/sw/lv_draw_sw_blend.c **** 
 1402              		.loc 1 250 5 view .LVU450
 253:lvgl/src/draw/sw/lv_draw_sw_blend.c ****         if(opa >= LV_OPA_MAX) {
 1403              		.loc 1 253 5 view .LVU451
 253:lvgl/src/draw/sw/lv_draw_sw_blend.c ****         if(opa >= LV_OPA_MAX) {
 1404              		.loc 1 253 7 is_stmt 0 view .LVU452
 1405 0032 6AB1     		cbz	r2, .L144
 295:lvgl/src/draw/sw/lv_draw_sw_blend.c ****             int32_t x_end4 = w - 4;
 1406              		.loc 1 295 9 is_stmt 1 view .LVU453
 295:lvgl/src/draw/sw/lv_draw_sw_blend.c ****             int32_t x_end4 = w - 4;
 1407              		.loc 1 295 11 is_stmt 0 view .LVU454
 1408 0034 BBF1FC0F 		cmp	fp, #252
 1409 0038 40F26B82 		bls	.L103
 1410              	.LBB116:
 296:lvgl/src/draw/sw/lv_draw_sw_blend.c ****             for(y = 0; y < h; y++) {
 1411              		.loc 1 296 13 is_stmt 1 view .LVU455
 296:lvgl/src/draw/sw/lv_draw_sw_blend.c ****             for(y = 0; y < h; y++) {
 1412              		.loc 1 296 21 is_stmt 0 view .LVU456
 1413 003c 3B1F     		subs	r3, r7, #4
 1414              	.LVL151:
 296:lvgl/src/draw/sw/lv_draw_sw_blend.c ****             for(y = 0; y < h; y++) {
 1415              		.loc 1 296 21 view .LVU457
 1416 003e 0693     		str	r3, [sp, #24]
 1417              	.LVL152:
 297:lvgl/src/draw/sw/lv_draw_sw_blend.c ****                 for(x = 0; x < w && ((lv_uintptr_t)(mask) & 0x3); x++) {
 1418              		.loc 1 297 13 is_stmt 1 view .LVU458
 297:lvgl/src/draw/sw/lv_draw_sw_blend.c ****                 for(x = 0; x < w && ((lv_uintptr_t)(mask) & 0x3); x++) {
 1419              		.loc 1 297 19 is_stmt 0 view .LVU459
 1420 0040 0023     		movs	r3, #0
 1421              	.LVL153:
 297:lvgl/src/draw/sw/lv_draw_sw_blend.c ****                 for(x = 0; x < w && ((lv_uintptr_t)(mask) & 0x3); x++) {
 1422              		.loc 1 297 19 view .LVU460
 1423 0042 0293     		str	r3, [sp, #8]
 1424 0044 0197     		str	r7, [sp, #4]
 1425              	.LVL154:
 297:lvgl/src/draw/sw/lv_draw_sw_blend.c ****                 for(x = 0; x < w && ((lv_uintptr_t)(mask) & 0x3); x++) {
 1426              		.loc 1 297 19 view .LVU461
 1427 0046 CDF81CC0 		str	ip, [sp, #28]
 1428 004a DDF824A0 		ldr	r10, [sp, #36]
 1429              	.LVL155:
 297:lvgl/src/draw/sw/lv_draw_sw_blend.c ****                 for(x = 0; x < w && ((lv_uintptr_t)(mask) & 0x3); x++) {
 1430              		.loc 1 297 13 view .LVU462
 1431 004e 57E2     		b	.L104
 1432              	.LVL156:
 1433              	.L144:
 297:lvgl/src/draw/sw/lv_draw_sw_blend.c ****                 for(x = 0; x < w && ((lv_uintptr_t)(mask) & 0x3); x++) {
ARM GAS  C:\Users\OSD\AppData\Local\Temp\ccrPpCVL.s 			page 52


 1434              		.loc 1 297 13 view .LVU463
 1435              	.LBE116:
 254:lvgl/src/draw/sw/lv_draw_sw_blend.c ****             for(y = 0; y < h; y++) {
 1436              		.loc 1 254 9 is_stmt 1 view .LVU464
 254:lvgl/src/draw/sw/lv_draw_sw_blend.c ****             for(y = 0; y < h; y++) {
 1437              		.loc 1 254 11 is_stmt 0 view .LVU465
 1438 0050 BBF1FC0F 		cmp	fp, #252
 1439 0054 57D8     		bhi	.L136
 1440              	.LBB131:
 262:lvgl/src/draw/sw/lv_draw_sw_blend.c ****             lv_color_t last_res_color = lv_color_mix(color, last_dest_color, opa);
 1441              		.loc 1 262 13 is_stmt 1 view .LVU466
 1442              	.LBB132:
 1443              	.LBI132:
 1444              		.file 3 "lvgl/src/draw/sw/../../misc/lv_color.h"
   1:lvgl/src/draw/sw/../../misc/lv_color.h **** /**
   2:lvgl/src/draw/sw/../../misc/lv_color.h ****  * @file lv_color.h
   3:lvgl/src/draw/sw/../../misc/lv_color.h ****  *
   4:lvgl/src/draw/sw/../../misc/lv_color.h ****  */
   5:lvgl/src/draw/sw/../../misc/lv_color.h **** 
   6:lvgl/src/draw/sw/../../misc/lv_color.h **** #ifndef LV_COLOR_H
   7:lvgl/src/draw/sw/../../misc/lv_color.h **** #define LV_COLOR_H
   8:lvgl/src/draw/sw/../../misc/lv_color.h **** 
   9:lvgl/src/draw/sw/../../misc/lv_color.h **** #ifdef __cplusplus
  10:lvgl/src/draw/sw/../../misc/lv_color.h **** extern "C" {
  11:lvgl/src/draw/sw/../../misc/lv_color.h **** #endif
  12:lvgl/src/draw/sw/../../misc/lv_color.h **** 
  13:lvgl/src/draw/sw/../../misc/lv_color.h **** /*********************
  14:lvgl/src/draw/sw/../../misc/lv_color.h ****  *      INCLUDES
  15:lvgl/src/draw/sw/../../misc/lv_color.h ****  *********************/
  16:lvgl/src/draw/sw/../../misc/lv_color.h **** #include "../lv_conf_internal.h"
  17:lvgl/src/draw/sw/../../misc/lv_color.h **** #include "lv_assert.h"
  18:lvgl/src/draw/sw/../../misc/lv_color.h **** #include "lv_math.h"
  19:lvgl/src/draw/sw/../../misc/lv_color.h **** #include "lv_types.h"
  20:lvgl/src/draw/sw/../../misc/lv_color.h **** 
  21:lvgl/src/draw/sw/../../misc/lv_color.h **** /*Error checking*/
  22:lvgl/src/draw/sw/../../misc/lv_color.h **** #if LV_COLOR_DEPTH == 24
  23:lvgl/src/draw/sw/../../misc/lv_color.h **** #error "LV_COLOR_DEPTH 24 is deprecated. Use LV_COLOR_DEPTH 32 instead (lv_conf.h)"
  24:lvgl/src/draw/sw/../../misc/lv_color.h **** #endif
  25:lvgl/src/draw/sw/../../misc/lv_color.h **** 
  26:lvgl/src/draw/sw/../../misc/lv_color.h **** #if LV_COLOR_DEPTH != 16 && LV_COLOR_16_SWAP != 0
  27:lvgl/src/draw/sw/../../misc/lv_color.h **** #error "LV_COLOR_16_SWAP requires LV_COLOR_DEPTH == 16. Set it in lv_conf.h"
  28:lvgl/src/draw/sw/../../misc/lv_color.h **** #endif
  29:lvgl/src/draw/sw/../../misc/lv_color.h **** 
  30:lvgl/src/draw/sw/../../misc/lv_color.h **** #include <stdint.h>
  31:lvgl/src/draw/sw/../../misc/lv_color.h **** 
  32:lvgl/src/draw/sw/../../misc/lv_color.h **** /*********************
  33:lvgl/src/draw/sw/../../misc/lv_color.h ****  *      DEFINES
  34:lvgl/src/draw/sw/../../misc/lv_color.h ****  *********************/
  35:lvgl/src/draw/sw/../../misc/lv_color.h **** LV_EXPORT_CONST_INT(LV_COLOR_DEPTH);
  36:lvgl/src/draw/sw/../../misc/lv_color.h **** LV_EXPORT_CONST_INT(LV_COLOR_16_SWAP);
  37:lvgl/src/draw/sw/../../misc/lv_color.h **** 
  38:lvgl/src/draw/sw/../../misc/lv_color.h **** /**
  39:lvgl/src/draw/sw/../../misc/lv_color.h ****  * Opacity percentages.
  40:lvgl/src/draw/sw/../../misc/lv_color.h ****  */
  41:lvgl/src/draw/sw/../../misc/lv_color.h **** enum {
  42:lvgl/src/draw/sw/../../misc/lv_color.h ****     LV_OPA_TRANSP = 0,
  43:lvgl/src/draw/sw/../../misc/lv_color.h ****     LV_OPA_0      = 0,
ARM GAS  C:\Users\OSD\AppData\Local\Temp\ccrPpCVL.s 			page 53


  44:lvgl/src/draw/sw/../../misc/lv_color.h ****     LV_OPA_10     = 25,
  45:lvgl/src/draw/sw/../../misc/lv_color.h ****     LV_OPA_20     = 51,
  46:lvgl/src/draw/sw/../../misc/lv_color.h ****     LV_OPA_30     = 76,
  47:lvgl/src/draw/sw/../../misc/lv_color.h ****     LV_OPA_40     = 102,
  48:lvgl/src/draw/sw/../../misc/lv_color.h ****     LV_OPA_50     = 127,
  49:lvgl/src/draw/sw/../../misc/lv_color.h ****     LV_OPA_60     = 153,
  50:lvgl/src/draw/sw/../../misc/lv_color.h ****     LV_OPA_70     = 178,
  51:lvgl/src/draw/sw/../../misc/lv_color.h ****     LV_OPA_80     = 204,
  52:lvgl/src/draw/sw/../../misc/lv_color.h ****     LV_OPA_90     = 229,
  53:lvgl/src/draw/sw/../../misc/lv_color.h ****     LV_OPA_100    = 255,
  54:lvgl/src/draw/sw/../../misc/lv_color.h ****     LV_OPA_COVER  = 255,
  55:lvgl/src/draw/sw/../../misc/lv_color.h **** };
  56:lvgl/src/draw/sw/../../misc/lv_color.h **** 
  57:lvgl/src/draw/sw/../../misc/lv_color.h **** #define LV_OPA_MIN 2    /*Opacities below this will be transparent*/
  58:lvgl/src/draw/sw/../../misc/lv_color.h **** #define LV_OPA_MAX 253  /*Opacities above this will fully cover*/
  59:lvgl/src/draw/sw/../../misc/lv_color.h **** 
  60:lvgl/src/draw/sw/../../misc/lv_color.h **** #if LV_COLOR_DEPTH == 1
  61:lvgl/src/draw/sw/../../misc/lv_color.h **** #define LV_COLOR_SIZE 8
  62:lvgl/src/draw/sw/../../misc/lv_color.h **** #elif LV_COLOR_DEPTH == 8
  63:lvgl/src/draw/sw/../../misc/lv_color.h **** #define LV_COLOR_SIZE 8
  64:lvgl/src/draw/sw/../../misc/lv_color.h **** #elif LV_COLOR_DEPTH == 16
  65:lvgl/src/draw/sw/../../misc/lv_color.h **** #define LV_COLOR_SIZE 16
  66:lvgl/src/draw/sw/../../misc/lv_color.h **** #elif LV_COLOR_DEPTH == 32
  67:lvgl/src/draw/sw/../../misc/lv_color.h **** #define LV_COLOR_SIZE 32
  68:lvgl/src/draw/sw/../../misc/lv_color.h **** #else
  69:lvgl/src/draw/sw/../../misc/lv_color.h **** #error "Invalid LV_COLOR_DEPTH in lv_conf.h! Set it to 1, 8, 16 or 32!"
  70:lvgl/src/draw/sw/../../misc/lv_color.h **** #endif
  71:lvgl/src/draw/sw/../../misc/lv_color.h **** 
  72:lvgl/src/draw/sw/../../misc/lv_color.h **** #if defined(__cplusplus) && !defined(_LV_COLOR_HAS_MODERN_CPP)
  73:lvgl/src/draw/sw/../../misc/lv_color.h **** /**
  74:lvgl/src/draw/sw/../../misc/lv_color.h **** * MSVC compiler's definition of the __cplusplus indicating 199711L regardless to C++ standard versi
  75:lvgl/src/draw/sw/../../misc/lv_color.h **** * see https://devblogs.microsoft.com/cppblog/msvc-now-correctly-reports-cplusplus
  76:lvgl/src/draw/sw/../../misc/lv_color.h **** * so we use _MSC_VER macro instead of __cplusplus
  77:lvgl/src/draw/sw/../../misc/lv_color.h **** */
  78:lvgl/src/draw/sw/../../misc/lv_color.h **** #ifdef _MSC_VER
  79:lvgl/src/draw/sw/../../misc/lv_color.h **** #if _MSC_VER >= 1900 /*Visual Studio 2015*/
  80:lvgl/src/draw/sw/../../misc/lv_color.h **** #define _LV_COLOR_HAS_MODERN_CPP 1
  81:lvgl/src/draw/sw/../../misc/lv_color.h **** #endif
  82:lvgl/src/draw/sw/../../misc/lv_color.h **** #else
  83:lvgl/src/draw/sw/../../misc/lv_color.h **** #if __cplusplus >= 201103L
  84:lvgl/src/draw/sw/../../misc/lv_color.h **** #define _LV_COLOR_HAS_MODERN_CPP 1
  85:lvgl/src/draw/sw/../../misc/lv_color.h **** #endif
  86:lvgl/src/draw/sw/../../misc/lv_color.h **** #endif
  87:lvgl/src/draw/sw/../../misc/lv_color.h **** #endif /*__cplusplus*/
  88:lvgl/src/draw/sw/../../misc/lv_color.h **** 
  89:lvgl/src/draw/sw/../../misc/lv_color.h **** #ifndef _LV_COLOR_HAS_MODERN_CPP
  90:lvgl/src/draw/sw/../../misc/lv_color.h **** #define _LV_COLOR_HAS_MODERN_CPP 0
  91:lvgl/src/draw/sw/../../misc/lv_color.h **** #endif
  92:lvgl/src/draw/sw/../../misc/lv_color.h **** 
  93:lvgl/src/draw/sw/../../misc/lv_color.h **** #if _LV_COLOR_HAS_MODERN_CPP
  94:lvgl/src/draw/sw/../../misc/lv_color.h **** /*Fix msvc compiler error C4576 inside C++ code*/
  95:lvgl/src/draw/sw/../../misc/lv_color.h **** #define _LV_COLOR_MAKE_TYPE_HELPER lv_color_t
  96:lvgl/src/draw/sw/../../misc/lv_color.h **** #else
  97:lvgl/src/draw/sw/../../misc/lv_color.h **** #define _LV_COLOR_MAKE_TYPE_HELPER (lv_color_t)
  98:lvgl/src/draw/sw/../../misc/lv_color.h **** #endif
  99:lvgl/src/draw/sw/../../misc/lv_color.h **** 
 100:lvgl/src/draw/sw/../../misc/lv_color.h **** /*---------------------------------------
ARM GAS  C:\Users\OSD\AppData\Local\Temp\ccrPpCVL.s 			page 54


 101:lvgl/src/draw/sw/../../misc/lv_color.h ****  * Macros for all existing color depths
 102:lvgl/src/draw/sw/../../misc/lv_color.h ****  * to set/get values of the color channels
 103:lvgl/src/draw/sw/../../misc/lv_color.h ****  *------------------------------------------*/
 104:lvgl/src/draw/sw/../../misc/lv_color.h **** # define LV_COLOR_SET_R1(c, v) (c).ch.red = (uint8_t)((v) & 0x1)
 105:lvgl/src/draw/sw/../../misc/lv_color.h **** # define LV_COLOR_SET_G1(c, v) (c).ch.green = (uint8_t)((v) & 0x1)
 106:lvgl/src/draw/sw/../../misc/lv_color.h **** # define LV_COLOR_SET_B1(c, v) (c).ch.blue = (uint8_t)((v) & 0x1)
 107:lvgl/src/draw/sw/../../misc/lv_color.h **** # define LV_COLOR_SET_A1(c, v) do {} while(0)
 108:lvgl/src/draw/sw/../../misc/lv_color.h **** 
 109:lvgl/src/draw/sw/../../misc/lv_color.h **** # define LV_COLOR_GET_R1(c) (c).ch.red
 110:lvgl/src/draw/sw/../../misc/lv_color.h **** # define LV_COLOR_GET_G1(c) (c).ch.green
 111:lvgl/src/draw/sw/../../misc/lv_color.h **** # define LV_COLOR_GET_B1(c) (c).ch.blue
 112:lvgl/src/draw/sw/../../misc/lv_color.h **** # define LV_COLOR_GET_A1(c) 0xFF
 113:lvgl/src/draw/sw/../../misc/lv_color.h **** 
 114:lvgl/src/draw/sw/../../misc/lv_color.h **** # define _LV_COLOR_ZERO_INITIALIZER1 {0x00}
 115:lvgl/src/draw/sw/../../misc/lv_color.h **** # define LV_COLOR_MAKE1(r8, g8, b8)  {(uint8_t)((b8 >> 7) | (g8 >> 7) | (r8 >> 7))}
 116:lvgl/src/draw/sw/../../misc/lv_color.h **** 
 117:lvgl/src/draw/sw/../../misc/lv_color.h **** # define LV_COLOR_SET_R8(c, v) (c).ch.red = (uint8_t)((v) & 0x7U)
 118:lvgl/src/draw/sw/../../misc/lv_color.h **** # define LV_COLOR_SET_G8(c, v) (c).ch.green = (uint8_t)((v) & 0x7U)
 119:lvgl/src/draw/sw/../../misc/lv_color.h **** # define LV_COLOR_SET_B8(c, v) (c).ch.blue = (uint8_t)((v) & 0x3U)
 120:lvgl/src/draw/sw/../../misc/lv_color.h **** # define LV_COLOR_SET_A8(c, v) do {} while(0)
 121:lvgl/src/draw/sw/../../misc/lv_color.h **** 
 122:lvgl/src/draw/sw/../../misc/lv_color.h **** # define LV_COLOR_GET_R8(c) (c).ch.red
 123:lvgl/src/draw/sw/../../misc/lv_color.h **** # define LV_COLOR_GET_G8(c) (c).ch.green
 124:lvgl/src/draw/sw/../../misc/lv_color.h **** # define LV_COLOR_GET_B8(c) (c).ch.blue
 125:lvgl/src/draw/sw/../../misc/lv_color.h **** # define LV_COLOR_GET_A8(c) 0xFF
 126:lvgl/src/draw/sw/../../misc/lv_color.h **** 
 127:lvgl/src/draw/sw/../../misc/lv_color.h **** # define _LV_COLOR_ZERO_INITIALIZER8 {{0x00, 0x00, 0x00}}
 128:lvgl/src/draw/sw/../../misc/lv_color.h **** # define LV_COLOR_MAKE8(r8, g8, b8) {{(uint8_t)((b8 >> 6) & 0x3U), (uint8_t)((g8 >> 5) & 0x7U), (ui
 129:lvgl/src/draw/sw/../../misc/lv_color.h **** 
 130:lvgl/src/draw/sw/../../misc/lv_color.h **** # define LV_COLOR_SET_R16(c, v) (c).ch.red = (uint8_t)((v) & 0x1FU)
 131:lvgl/src/draw/sw/../../misc/lv_color.h **** #if LV_COLOR_16_SWAP == 0
 132:lvgl/src/draw/sw/../../misc/lv_color.h **** # define LV_COLOR_SET_G16(c, v) (c).ch.green = (uint8_t)((v) & 0x3FU)
 133:lvgl/src/draw/sw/../../misc/lv_color.h **** #else
 134:lvgl/src/draw/sw/../../misc/lv_color.h **** # define LV_COLOR_SET_G16(c, v) {(c).ch.green_h = (uint8_t)(((v) >> 3) & 0x7); (c).ch.green_l = (ui
 135:lvgl/src/draw/sw/../../misc/lv_color.h **** #endif
 136:lvgl/src/draw/sw/../../misc/lv_color.h **** # define LV_COLOR_SET_B16(c, v) (c).ch.blue = (uint8_t)((v) & 0x1FU)
 137:lvgl/src/draw/sw/../../misc/lv_color.h **** # define LV_COLOR_SET_A16(c, v) do {} while(0)
 138:lvgl/src/draw/sw/../../misc/lv_color.h **** 
 139:lvgl/src/draw/sw/../../misc/lv_color.h **** # define LV_COLOR_GET_R16(c) (c).ch.red
 140:lvgl/src/draw/sw/../../misc/lv_color.h **** #if LV_COLOR_16_SWAP == 0
 141:lvgl/src/draw/sw/../../misc/lv_color.h **** # define LV_COLOR_GET_G16(c) (c).ch.green
 142:lvgl/src/draw/sw/../../misc/lv_color.h **** #else
 143:lvgl/src/draw/sw/../../misc/lv_color.h **** # define LV_COLOR_GET_G16(c) (((c).ch.green_h << 3) + (c).ch.green_l)
 144:lvgl/src/draw/sw/../../misc/lv_color.h **** #endif
 145:lvgl/src/draw/sw/../../misc/lv_color.h **** # define LV_COLOR_GET_B16(c) (c).ch.blue
 146:lvgl/src/draw/sw/../../misc/lv_color.h **** # define LV_COLOR_GET_A16(c) 0xFF
 147:lvgl/src/draw/sw/../../misc/lv_color.h **** 
 148:lvgl/src/draw/sw/../../misc/lv_color.h **** #if LV_COLOR_16_SWAP == 0
 149:lvgl/src/draw/sw/../../misc/lv_color.h **** # define _LV_COLOR_ZERO_INITIALIZER16  {{0x00, 0x00, 0x00}}
 150:lvgl/src/draw/sw/../../misc/lv_color.h **** # define LV_COLOR_MAKE16(r8, g8, b8) {{(uint8_t)((b8 >> 3) & 0x1FU), (uint8_t)((g8 >> 2) & 0x3FU), 
 151:lvgl/src/draw/sw/../../misc/lv_color.h **** #else
 152:lvgl/src/draw/sw/../../misc/lv_color.h **** # define _LV_COLOR_ZERO_INITIALIZER16 {{0x00, 0x00, 0x00, 0x00}}
 153:lvgl/src/draw/sw/../../misc/lv_color.h **** # define LV_COLOR_MAKE16(r8, g8, b8) {{(uint8_t)((g8 >> 5) & 0x7U), (uint8_t)((r8 >> 3) & 0x1FU), (
 154:lvgl/src/draw/sw/../../misc/lv_color.h **** #endif
 155:lvgl/src/draw/sw/../../misc/lv_color.h **** 
 156:lvgl/src/draw/sw/../../misc/lv_color.h **** # define LV_COLOR_SET_R32(c, v) (c).ch.red = (uint8_t)((v) & 0xFF)
 157:lvgl/src/draw/sw/../../misc/lv_color.h **** # define LV_COLOR_SET_G32(c, v) (c).ch.green = (uint8_t)((v) & 0xFF)
ARM GAS  C:\Users\OSD\AppData\Local\Temp\ccrPpCVL.s 			page 55


 158:lvgl/src/draw/sw/../../misc/lv_color.h **** # define LV_COLOR_SET_B32(c, v) (c).ch.blue = (uint8_t)((v) & 0xFF)
 159:lvgl/src/draw/sw/../../misc/lv_color.h **** # define LV_COLOR_SET_A32(c, v) (c).ch.alpha = (uint8_t)((v) & 0xFF)
 160:lvgl/src/draw/sw/../../misc/lv_color.h **** 
 161:lvgl/src/draw/sw/../../misc/lv_color.h **** # define LV_COLOR_GET_R32(c) (c).ch.red
 162:lvgl/src/draw/sw/../../misc/lv_color.h **** # define LV_COLOR_GET_G32(c) (c).ch.green
 163:lvgl/src/draw/sw/../../misc/lv_color.h **** # define LV_COLOR_GET_B32(c) (c).ch.blue
 164:lvgl/src/draw/sw/../../misc/lv_color.h **** # define LV_COLOR_GET_A32(c) (c).ch.alpha
 165:lvgl/src/draw/sw/../../misc/lv_color.h **** 
 166:lvgl/src/draw/sw/../../misc/lv_color.h **** # define _LV_COLOR_ZERO_INITIALIZER32  {{0x00, 0x00, 0x00, 0x00}}
 167:lvgl/src/draw/sw/../../misc/lv_color.h **** # define LV_COLOR_MAKE32(r8, g8, b8) {{b8, g8, r8, 0xff}} /*Fix 0xff alpha*/
 168:lvgl/src/draw/sw/../../misc/lv_color.h **** 
 169:lvgl/src/draw/sw/../../misc/lv_color.h **** /*---------------------------------------
 170:lvgl/src/draw/sw/../../misc/lv_color.h ****  * Macros for the current color depth
 171:lvgl/src/draw/sw/../../misc/lv_color.h ****  * to set/get values of the color channels
 172:lvgl/src/draw/sw/../../misc/lv_color.h ****  *------------------------------------------*/
 173:lvgl/src/draw/sw/../../misc/lv_color.h **** #define LV_COLOR_SET_R(c, v) LV_CONCAT(LV_COLOR_SET_R, LV_COLOR_DEPTH)(c, v)
 174:lvgl/src/draw/sw/../../misc/lv_color.h **** #define LV_COLOR_SET_G(c, v) LV_CONCAT(LV_COLOR_SET_G, LV_COLOR_DEPTH)(c, v)
 175:lvgl/src/draw/sw/../../misc/lv_color.h **** #define LV_COLOR_SET_B(c, v) LV_CONCAT(LV_COLOR_SET_B, LV_COLOR_DEPTH)(c, v)
 176:lvgl/src/draw/sw/../../misc/lv_color.h **** #define LV_COLOR_SET_A(c, v) LV_CONCAT(LV_COLOR_SET_A, LV_COLOR_DEPTH)(c, v)
 177:lvgl/src/draw/sw/../../misc/lv_color.h **** 
 178:lvgl/src/draw/sw/../../misc/lv_color.h **** #define LV_COLOR_GET_R(c) LV_CONCAT(LV_COLOR_GET_R, LV_COLOR_DEPTH)(c)
 179:lvgl/src/draw/sw/../../misc/lv_color.h **** #define LV_COLOR_GET_G(c) LV_CONCAT(LV_COLOR_GET_G, LV_COLOR_DEPTH)(c)
 180:lvgl/src/draw/sw/../../misc/lv_color.h **** #define LV_COLOR_GET_B(c) LV_CONCAT(LV_COLOR_GET_B, LV_COLOR_DEPTH)(c)
 181:lvgl/src/draw/sw/../../misc/lv_color.h **** #define LV_COLOR_GET_A(c) LV_CONCAT(LV_COLOR_GET_A, LV_COLOR_DEPTH)(c)
 182:lvgl/src/draw/sw/../../misc/lv_color.h **** 
 183:lvgl/src/draw/sw/../../misc/lv_color.h **** #define _LV_COLOR_ZERO_INITIALIZER LV_CONCAT(_LV_COLOR_ZERO_INITIALIZER, LV_COLOR_DEPTH)
 184:lvgl/src/draw/sw/../../misc/lv_color.h **** #define LV_COLOR_MAKE(r8, g8, b8) LV_CONCAT(LV_COLOR_MAKE, LV_COLOR_DEPTH)(r8, g8, b8)
 185:lvgl/src/draw/sw/../../misc/lv_color.h **** 
 186:lvgl/src/draw/sw/../../misc/lv_color.h **** /**********************
 187:lvgl/src/draw/sw/../../misc/lv_color.h ****  *      TYPEDEFS
 188:lvgl/src/draw/sw/../../misc/lv_color.h ****  **********************/
 189:lvgl/src/draw/sw/../../misc/lv_color.h **** 
 190:lvgl/src/draw/sw/../../misc/lv_color.h **** typedef union {
 191:lvgl/src/draw/sw/../../misc/lv_color.h ****     uint8_t full; /*must be declared first to set all bits of byte via initializer list*/
 192:lvgl/src/draw/sw/../../misc/lv_color.h ****     union {
 193:lvgl/src/draw/sw/../../misc/lv_color.h ****         uint8_t blue : 1;
 194:lvgl/src/draw/sw/../../misc/lv_color.h ****         uint8_t green : 1;
 195:lvgl/src/draw/sw/../../misc/lv_color.h ****         uint8_t red : 1;
 196:lvgl/src/draw/sw/../../misc/lv_color.h ****     } ch;
 197:lvgl/src/draw/sw/../../misc/lv_color.h **** } lv_color1_t;
 198:lvgl/src/draw/sw/../../misc/lv_color.h **** 
 199:lvgl/src/draw/sw/../../misc/lv_color.h **** typedef union {
 200:lvgl/src/draw/sw/../../misc/lv_color.h ****     struct {
 201:lvgl/src/draw/sw/../../misc/lv_color.h ****         uint8_t blue : 2;
 202:lvgl/src/draw/sw/../../misc/lv_color.h ****         uint8_t green : 3;
 203:lvgl/src/draw/sw/../../misc/lv_color.h ****         uint8_t red : 3;
 204:lvgl/src/draw/sw/../../misc/lv_color.h ****     } ch;
 205:lvgl/src/draw/sw/../../misc/lv_color.h ****     uint8_t full;
 206:lvgl/src/draw/sw/../../misc/lv_color.h **** } lv_color8_t;
 207:lvgl/src/draw/sw/../../misc/lv_color.h **** 
 208:lvgl/src/draw/sw/../../misc/lv_color.h **** typedef union {
 209:lvgl/src/draw/sw/../../misc/lv_color.h ****     struct {
 210:lvgl/src/draw/sw/../../misc/lv_color.h **** #if LV_COLOR_16_SWAP == 0
 211:lvgl/src/draw/sw/../../misc/lv_color.h ****         uint16_t blue : 5;
 212:lvgl/src/draw/sw/../../misc/lv_color.h ****         uint16_t green : 6;
 213:lvgl/src/draw/sw/../../misc/lv_color.h ****         uint16_t red : 5;
 214:lvgl/src/draw/sw/../../misc/lv_color.h **** #else
ARM GAS  C:\Users\OSD\AppData\Local\Temp\ccrPpCVL.s 			page 56


 215:lvgl/src/draw/sw/../../misc/lv_color.h ****         uint16_t green_h : 3;
 216:lvgl/src/draw/sw/../../misc/lv_color.h ****         uint16_t red : 5;
 217:lvgl/src/draw/sw/../../misc/lv_color.h ****         uint16_t blue : 5;
 218:lvgl/src/draw/sw/../../misc/lv_color.h ****         uint16_t green_l : 3;
 219:lvgl/src/draw/sw/../../misc/lv_color.h **** #endif
 220:lvgl/src/draw/sw/../../misc/lv_color.h ****     } ch;
 221:lvgl/src/draw/sw/../../misc/lv_color.h ****     uint16_t full;
 222:lvgl/src/draw/sw/../../misc/lv_color.h **** } lv_color16_t;
 223:lvgl/src/draw/sw/../../misc/lv_color.h **** 
 224:lvgl/src/draw/sw/../../misc/lv_color.h **** typedef union {
 225:lvgl/src/draw/sw/../../misc/lv_color.h ****     struct {
 226:lvgl/src/draw/sw/../../misc/lv_color.h ****         uint8_t blue;
 227:lvgl/src/draw/sw/../../misc/lv_color.h ****         uint8_t green;
 228:lvgl/src/draw/sw/../../misc/lv_color.h ****         uint8_t red;
 229:lvgl/src/draw/sw/../../misc/lv_color.h ****         uint8_t alpha;
 230:lvgl/src/draw/sw/../../misc/lv_color.h ****     } ch;
 231:lvgl/src/draw/sw/../../misc/lv_color.h ****     uint32_t full;
 232:lvgl/src/draw/sw/../../misc/lv_color.h **** } lv_color32_t;
 233:lvgl/src/draw/sw/../../misc/lv_color.h **** 
 234:lvgl/src/draw/sw/../../misc/lv_color.h **** typedef LV_CONCAT3(uint, LV_COLOR_SIZE, _t) lv_color_int_t;
 235:lvgl/src/draw/sw/../../misc/lv_color.h **** typedef LV_CONCAT3(lv_color, LV_COLOR_DEPTH, _t) lv_color_t;
 236:lvgl/src/draw/sw/../../misc/lv_color.h **** 
 237:lvgl/src/draw/sw/../../misc/lv_color.h **** typedef struct {
 238:lvgl/src/draw/sw/../../misc/lv_color.h ****     uint16_t h;
 239:lvgl/src/draw/sw/../../misc/lv_color.h ****     uint8_t s;
 240:lvgl/src/draw/sw/../../misc/lv_color.h ****     uint8_t v;
 241:lvgl/src/draw/sw/../../misc/lv_color.h **** } lv_color_hsv_t;
 242:lvgl/src/draw/sw/../../misc/lv_color.h **** 
 243:lvgl/src/draw/sw/../../misc/lv_color.h **** //! @cond Doxygen_Suppress
 244:lvgl/src/draw/sw/../../misc/lv_color.h **** /*No idea where the guard is required but else throws warnings in the docs*/
 245:lvgl/src/draw/sw/../../misc/lv_color.h **** typedef uint8_t lv_opa_t;
 246:lvgl/src/draw/sw/../../misc/lv_color.h **** //! @endcond
 247:lvgl/src/draw/sw/../../misc/lv_color.h **** 
 248:lvgl/src/draw/sw/../../misc/lv_color.h **** struct _lv_color_filter_dsc_t;
 249:lvgl/src/draw/sw/../../misc/lv_color.h **** 
 250:lvgl/src/draw/sw/../../misc/lv_color.h **** typedef lv_color_t (*lv_color_filter_cb_t)(const struct _lv_color_filter_dsc_t *, lv_color_t, lv_op
 251:lvgl/src/draw/sw/../../misc/lv_color.h **** 
 252:lvgl/src/draw/sw/../../misc/lv_color.h **** typedef struct _lv_color_filter_dsc_t {
 253:lvgl/src/draw/sw/../../misc/lv_color.h ****     lv_color_filter_cb_t filter_cb;
 254:lvgl/src/draw/sw/../../misc/lv_color.h ****     void * user_data;
 255:lvgl/src/draw/sw/../../misc/lv_color.h **** } lv_color_filter_dsc_t;
 256:lvgl/src/draw/sw/../../misc/lv_color.h **** 
 257:lvgl/src/draw/sw/../../misc/lv_color.h **** typedef enum {
 258:lvgl/src/draw/sw/../../misc/lv_color.h ****     LV_PALETTE_RED,
 259:lvgl/src/draw/sw/../../misc/lv_color.h ****     LV_PALETTE_PINK,
 260:lvgl/src/draw/sw/../../misc/lv_color.h ****     LV_PALETTE_PURPLE,
 261:lvgl/src/draw/sw/../../misc/lv_color.h ****     LV_PALETTE_DEEP_PURPLE,
 262:lvgl/src/draw/sw/../../misc/lv_color.h ****     LV_PALETTE_INDIGO,
 263:lvgl/src/draw/sw/../../misc/lv_color.h ****     LV_PALETTE_BLUE,
 264:lvgl/src/draw/sw/../../misc/lv_color.h ****     LV_PALETTE_LIGHT_BLUE,
 265:lvgl/src/draw/sw/../../misc/lv_color.h ****     LV_PALETTE_CYAN,
 266:lvgl/src/draw/sw/../../misc/lv_color.h ****     LV_PALETTE_TEAL,
 267:lvgl/src/draw/sw/../../misc/lv_color.h ****     LV_PALETTE_GREEN,
 268:lvgl/src/draw/sw/../../misc/lv_color.h ****     LV_PALETTE_LIGHT_GREEN,
 269:lvgl/src/draw/sw/../../misc/lv_color.h ****     LV_PALETTE_LIME,
 270:lvgl/src/draw/sw/../../misc/lv_color.h ****     LV_PALETTE_YELLOW,
 271:lvgl/src/draw/sw/../../misc/lv_color.h ****     LV_PALETTE_AMBER,
ARM GAS  C:\Users\OSD\AppData\Local\Temp\ccrPpCVL.s 			page 57


 272:lvgl/src/draw/sw/../../misc/lv_color.h ****     LV_PALETTE_ORANGE,
 273:lvgl/src/draw/sw/../../misc/lv_color.h ****     LV_PALETTE_DEEP_ORANGE,
 274:lvgl/src/draw/sw/../../misc/lv_color.h ****     LV_PALETTE_BROWN,
 275:lvgl/src/draw/sw/../../misc/lv_color.h ****     LV_PALETTE_BLUE_GREY,
 276:lvgl/src/draw/sw/../../misc/lv_color.h ****     LV_PALETTE_GREY,
 277:lvgl/src/draw/sw/../../misc/lv_color.h ****     _LV_PALETTE_LAST,
 278:lvgl/src/draw/sw/../../misc/lv_color.h ****     LV_PALETTE_NONE = 0xff,
 279:lvgl/src/draw/sw/../../misc/lv_color.h **** } lv_palette_t;
 280:lvgl/src/draw/sw/../../misc/lv_color.h **** 
 281:lvgl/src/draw/sw/../../misc/lv_color.h **** /**********************
 282:lvgl/src/draw/sw/../../misc/lv_color.h ****  * GLOBAL PROTOTYPES
 283:lvgl/src/draw/sw/../../misc/lv_color.h ****  **********************/
 284:lvgl/src/draw/sw/../../misc/lv_color.h **** 
 285:lvgl/src/draw/sw/../../misc/lv_color.h **** /*In color conversations:
 286:lvgl/src/draw/sw/../../misc/lv_color.h ****  * - When converting to bigger color type the LSB weight of 1 LSB is calculated
 287:lvgl/src/draw/sw/../../misc/lv_color.h ****  *   E.g. 16 bit Red has 5 bits
 288:lvgl/src/draw/sw/../../misc/lv_color.h ****  *         8 bit Red has 3 bits
 289:lvgl/src/draw/sw/../../misc/lv_color.h ****  *        ----------------------
 290:lvgl/src/draw/sw/../../misc/lv_color.h ****  *        8 bit red LSB = (2^5 - 1) / (2^3 - 1) = 31 / 7 = 4
 291:lvgl/src/draw/sw/../../misc/lv_color.h ****  *
 292:lvgl/src/draw/sw/../../misc/lv_color.h ****  * - When calculating to smaller color type simply shift out the LSBs
 293:lvgl/src/draw/sw/../../misc/lv_color.h ****  *   E.g.  8 bit Red has 3 bits
 294:lvgl/src/draw/sw/../../misc/lv_color.h ****  *        16 bit Red has 5 bits
 295:lvgl/src/draw/sw/../../misc/lv_color.h ****  *        ----------------------
 296:lvgl/src/draw/sw/../../misc/lv_color.h ****  *         Shift right with 5 - 3 = 2
 297:lvgl/src/draw/sw/../../misc/lv_color.h ****  */
 298:lvgl/src/draw/sw/../../misc/lv_color.h **** static inline uint8_t lv_color_to1(lv_color_t color)
 299:lvgl/src/draw/sw/../../misc/lv_color.h **** {
 300:lvgl/src/draw/sw/../../misc/lv_color.h **** #if LV_COLOR_DEPTH == 1
 301:lvgl/src/draw/sw/../../misc/lv_color.h ****     return color.full;
 302:lvgl/src/draw/sw/../../misc/lv_color.h **** #elif LV_COLOR_DEPTH == 8
 303:lvgl/src/draw/sw/../../misc/lv_color.h ****     if((LV_COLOR_GET_R(color) & 0x4) || (LV_COLOR_GET_G(color) & 0x4) || (LV_COLOR_GET_B(color) & 0
 304:lvgl/src/draw/sw/../../misc/lv_color.h ****         return 1;
 305:lvgl/src/draw/sw/../../misc/lv_color.h ****     }
 306:lvgl/src/draw/sw/../../misc/lv_color.h ****     else {
 307:lvgl/src/draw/sw/../../misc/lv_color.h ****         return 0;
 308:lvgl/src/draw/sw/../../misc/lv_color.h ****     }
 309:lvgl/src/draw/sw/../../misc/lv_color.h **** #elif LV_COLOR_DEPTH == 16
 310:lvgl/src/draw/sw/../../misc/lv_color.h ****     if((LV_COLOR_GET_R(color) & 0x10) || (LV_COLOR_GET_G(color) & 0x20) || (LV_COLOR_GET_B(color) &
 311:lvgl/src/draw/sw/../../misc/lv_color.h ****         return 1;
 312:lvgl/src/draw/sw/../../misc/lv_color.h ****     }
 313:lvgl/src/draw/sw/../../misc/lv_color.h ****     else {
 314:lvgl/src/draw/sw/../../misc/lv_color.h ****         return 0;
 315:lvgl/src/draw/sw/../../misc/lv_color.h ****     }
 316:lvgl/src/draw/sw/../../misc/lv_color.h **** #elif LV_COLOR_DEPTH == 32
 317:lvgl/src/draw/sw/../../misc/lv_color.h ****     if((LV_COLOR_GET_R(color) & 0x80) || (LV_COLOR_GET_G(color) & 0x80) || (LV_COLOR_GET_B(color) &
 318:lvgl/src/draw/sw/../../misc/lv_color.h ****         return 1;
 319:lvgl/src/draw/sw/../../misc/lv_color.h ****     }
 320:lvgl/src/draw/sw/../../misc/lv_color.h ****     else {
 321:lvgl/src/draw/sw/../../misc/lv_color.h ****         return 0;
 322:lvgl/src/draw/sw/../../misc/lv_color.h ****     }
 323:lvgl/src/draw/sw/../../misc/lv_color.h **** #endif
 324:lvgl/src/draw/sw/../../misc/lv_color.h **** }
 325:lvgl/src/draw/sw/../../misc/lv_color.h **** 
 326:lvgl/src/draw/sw/../../misc/lv_color.h **** static inline uint8_t lv_color_to8(lv_color_t color)
 327:lvgl/src/draw/sw/../../misc/lv_color.h **** {
 328:lvgl/src/draw/sw/../../misc/lv_color.h **** #if LV_COLOR_DEPTH == 1
ARM GAS  C:\Users\OSD\AppData\Local\Temp\ccrPpCVL.s 			page 58


 329:lvgl/src/draw/sw/../../misc/lv_color.h ****     if(color.full == 0)
 330:lvgl/src/draw/sw/../../misc/lv_color.h ****         return 0;
 331:lvgl/src/draw/sw/../../misc/lv_color.h ****     else
 332:lvgl/src/draw/sw/../../misc/lv_color.h ****         return 0xFF;
 333:lvgl/src/draw/sw/../../misc/lv_color.h **** #elif LV_COLOR_DEPTH == 8
 334:lvgl/src/draw/sw/../../misc/lv_color.h ****     return color.full;
 335:lvgl/src/draw/sw/../../misc/lv_color.h **** #elif LV_COLOR_DEPTH == 16
 336:lvgl/src/draw/sw/../../misc/lv_color.h ****     lv_color8_t ret;
 337:lvgl/src/draw/sw/../../misc/lv_color.h ****     LV_COLOR_SET_R8(ret, LV_COLOR_GET_R(color) >> 2); /*5 - 3  = 2*/
 338:lvgl/src/draw/sw/../../misc/lv_color.h ****     LV_COLOR_SET_G8(ret, LV_COLOR_GET_G(color) >> 3); /*6 - 3  = 3*/
 339:lvgl/src/draw/sw/../../misc/lv_color.h ****     LV_COLOR_SET_B8(ret, LV_COLOR_GET_B(color) >> 3); /*5 - 2  = 3*/
 340:lvgl/src/draw/sw/../../misc/lv_color.h ****     return ret.full;
 341:lvgl/src/draw/sw/../../misc/lv_color.h **** #elif LV_COLOR_DEPTH == 32
 342:lvgl/src/draw/sw/../../misc/lv_color.h ****     lv_color8_t ret;
 343:lvgl/src/draw/sw/../../misc/lv_color.h ****     LV_COLOR_SET_R8(ret, LV_COLOR_GET_R(color) >> 5); /*8 - 3  = 5*/
 344:lvgl/src/draw/sw/../../misc/lv_color.h ****     LV_COLOR_SET_G8(ret, LV_COLOR_GET_G(color) >> 5); /*8 - 3  = 5*/
 345:lvgl/src/draw/sw/../../misc/lv_color.h ****     LV_COLOR_SET_B8(ret, LV_COLOR_GET_B(color) >> 6); /*8 - 2  = 6*/
 346:lvgl/src/draw/sw/../../misc/lv_color.h ****     return ret.full;
 347:lvgl/src/draw/sw/../../misc/lv_color.h **** #endif
 348:lvgl/src/draw/sw/../../misc/lv_color.h **** }
 349:lvgl/src/draw/sw/../../misc/lv_color.h **** 
 350:lvgl/src/draw/sw/../../misc/lv_color.h **** static inline uint16_t lv_color_to16(lv_color_t color)
 351:lvgl/src/draw/sw/../../misc/lv_color.h **** {
 352:lvgl/src/draw/sw/../../misc/lv_color.h **** #if LV_COLOR_DEPTH == 1
 353:lvgl/src/draw/sw/../../misc/lv_color.h ****     if(color.full == 0)
 354:lvgl/src/draw/sw/../../misc/lv_color.h ****         return 0;
 355:lvgl/src/draw/sw/../../misc/lv_color.h ****     else
 356:lvgl/src/draw/sw/../../misc/lv_color.h ****         return 0xFFFF;
 357:lvgl/src/draw/sw/../../misc/lv_color.h **** #elif LV_COLOR_DEPTH == 8
 358:lvgl/src/draw/sw/../../misc/lv_color.h ****     lv_color16_t ret;
 359:lvgl/src/draw/sw/../../misc/lv_color.h ****     LV_COLOR_SET_R16(ret, LV_COLOR_GET_R(color) * 4);  /*(2^5 - 1)/(2^3 - 1) = 31/7 = 4*/
 360:lvgl/src/draw/sw/../../misc/lv_color.h ****     LV_COLOR_SET_G16(ret, LV_COLOR_GET_G(color) * 9);  /*(2^6 - 1)/(2^3 - 1) = 63/7 = 9*/
 361:lvgl/src/draw/sw/../../misc/lv_color.h ****     LV_COLOR_SET_B16(ret, LV_COLOR_GET_B(color) * 10); /*(2^5 - 1)/(2^2 - 1) = 31/3 = 10*/
 362:lvgl/src/draw/sw/../../misc/lv_color.h ****     return ret.full;
 363:lvgl/src/draw/sw/../../misc/lv_color.h **** #elif LV_COLOR_DEPTH == 16
 364:lvgl/src/draw/sw/../../misc/lv_color.h ****     return color.full;
 365:lvgl/src/draw/sw/../../misc/lv_color.h **** #elif LV_COLOR_DEPTH == 32
 366:lvgl/src/draw/sw/../../misc/lv_color.h ****     lv_color16_t ret;
 367:lvgl/src/draw/sw/../../misc/lv_color.h ****     LV_COLOR_SET_R16(ret, LV_COLOR_GET_R(color) >> 3); /*8 - 5  = 3*/
 368:lvgl/src/draw/sw/../../misc/lv_color.h ****     LV_COLOR_SET_G16(ret, LV_COLOR_GET_G(color) >> 2); /*8 - 6  = 2*/
 369:lvgl/src/draw/sw/../../misc/lv_color.h ****     LV_COLOR_SET_B16(ret, LV_COLOR_GET_B(color) >> 3); /*8 - 5  = 3*/
 370:lvgl/src/draw/sw/../../misc/lv_color.h ****     return ret.full;
 371:lvgl/src/draw/sw/../../misc/lv_color.h **** #endif
 372:lvgl/src/draw/sw/../../misc/lv_color.h **** }
 373:lvgl/src/draw/sw/../../misc/lv_color.h **** 
 374:lvgl/src/draw/sw/../../misc/lv_color.h **** static inline uint32_t lv_color_to32(lv_color_t color)
 375:lvgl/src/draw/sw/../../misc/lv_color.h **** {
 376:lvgl/src/draw/sw/../../misc/lv_color.h **** #if LV_COLOR_DEPTH == 1
 377:lvgl/src/draw/sw/../../misc/lv_color.h ****     if(color.full == 0)
 378:lvgl/src/draw/sw/../../misc/lv_color.h ****         return 0xFF000000;
 379:lvgl/src/draw/sw/../../misc/lv_color.h ****     else
 380:lvgl/src/draw/sw/../../misc/lv_color.h ****         return 0xFFFFFFFF;
 381:lvgl/src/draw/sw/../../misc/lv_color.h **** #elif LV_COLOR_DEPTH == 8
 382:lvgl/src/draw/sw/../../misc/lv_color.h ****     lv_color32_t ret;
 383:lvgl/src/draw/sw/../../misc/lv_color.h ****     LV_COLOR_SET_R32(ret, LV_COLOR_GET_R(color) * 36); /*(2^8 - 1)/(2^3 - 1) = 255/7 = 36*/
 384:lvgl/src/draw/sw/../../misc/lv_color.h ****     LV_COLOR_SET_G32(ret, LV_COLOR_GET_G(color) * 36); /*(2^8 - 1)/(2^3 - 1) = 255/7 = 36*/
 385:lvgl/src/draw/sw/../../misc/lv_color.h ****     LV_COLOR_SET_B32(ret, LV_COLOR_GET_B(color) * 85); /*(2^8 - 1)/(2^2 - 1) = 255/3 = 85*/
ARM GAS  C:\Users\OSD\AppData\Local\Temp\ccrPpCVL.s 			page 59


 386:lvgl/src/draw/sw/../../misc/lv_color.h ****     LV_COLOR_SET_A32(ret, 0xFF);
 387:lvgl/src/draw/sw/../../misc/lv_color.h ****     return ret.full;
 388:lvgl/src/draw/sw/../../misc/lv_color.h **** #elif LV_COLOR_DEPTH == 16
 389:lvgl/src/draw/sw/../../misc/lv_color.h ****     /**
 390:lvgl/src/draw/sw/../../misc/lv_color.h ****      * The floating point math for conversion is:
 391:lvgl/src/draw/sw/../../misc/lv_color.h ****      *  valueto = valuefrom * ( (2^bitsto - 1) / (float)(2^bitsfrom - 1) )
 392:lvgl/src/draw/sw/../../misc/lv_color.h ****      * The faster integer math for conversion is:
 393:lvgl/src/draw/sw/../../misc/lv_color.h ****      *  valueto = ( valuefrom * multiplier + adder ) >> divisor
 394:lvgl/src/draw/sw/../../misc/lv_color.h ****      *   multiplier = FLOOR( ( (2^bitsto - 1) << divisor ) / (float)(2^bitsfrom - 1) )
 395:lvgl/src/draw/sw/../../misc/lv_color.h ****      *
 396:lvgl/src/draw/sw/../../misc/lv_color.h ****      * Find the first divisor where ( adder >> divisor ) <= 0
 397:lvgl/src/draw/sw/../../misc/lv_color.h ****      *
 398:lvgl/src/draw/sw/../../misc/lv_color.h ****      * 5-bit to 8-bit: ( 31 * multiplier + adder ) >> divisor = 255
 399:lvgl/src/draw/sw/../../misc/lv_color.h ****      * divisor  multiplier  adder  min (0)  max (31)
 400:lvgl/src/draw/sw/../../misc/lv_color.h ****      *       0           8      7        7       255
 401:lvgl/src/draw/sw/../../misc/lv_color.h ****      *       1          16     14        7       255
 402:lvgl/src/draw/sw/../../misc/lv_color.h ****      *       2          32     28        7       255
 403:lvgl/src/draw/sw/../../misc/lv_color.h ****      *       3          65     25        3       255
 404:lvgl/src/draw/sw/../../misc/lv_color.h ****      *       4         131     19        1       255
 405:lvgl/src/draw/sw/../../misc/lv_color.h ****      *       5         263      7        0       255
 406:lvgl/src/draw/sw/../../misc/lv_color.h ****      *
 407:lvgl/src/draw/sw/../../misc/lv_color.h ****      * 6-bit to 8-bit: 255 = ( 63 * multiplier + adder ) >> divisor
 408:lvgl/src/draw/sw/../../misc/lv_color.h ****      * divisor  multiplier  adder  min (0)  max (63)
 409:lvgl/src/draw/sw/../../misc/lv_color.h ****      *       0           4      3        3       255
 410:lvgl/src/draw/sw/../../misc/lv_color.h ****      *       1           8      6        3       255
 411:lvgl/src/draw/sw/../../misc/lv_color.h ****      *       2          16     12        3       255
 412:lvgl/src/draw/sw/../../misc/lv_color.h ****      *       3          32     24        3       255
 413:lvgl/src/draw/sw/../../misc/lv_color.h ****      *       4          64     48        3       255
 414:lvgl/src/draw/sw/../../misc/lv_color.h ****      *       5         129     33        1       255
 415:lvgl/src/draw/sw/../../misc/lv_color.h ****      *       6         259      3        0       255
 416:lvgl/src/draw/sw/../../misc/lv_color.h ****      */
 417:lvgl/src/draw/sw/../../misc/lv_color.h **** 
 418:lvgl/src/draw/sw/../../misc/lv_color.h ****     lv_color32_t ret;
 419:lvgl/src/draw/sw/../../misc/lv_color.h ****     LV_COLOR_SET_R32(ret, (LV_COLOR_GET_R(color) * 263 + 7) >> 5);
 420:lvgl/src/draw/sw/../../misc/lv_color.h ****     LV_COLOR_SET_G32(ret, (LV_COLOR_GET_G(color) * 259 + 3) >> 6);
 421:lvgl/src/draw/sw/../../misc/lv_color.h ****     LV_COLOR_SET_B32(ret, (LV_COLOR_GET_B(color) * 263 + 7) >> 5);
 422:lvgl/src/draw/sw/../../misc/lv_color.h ****     LV_COLOR_SET_A32(ret, 0xFF);
 423:lvgl/src/draw/sw/../../misc/lv_color.h ****     return ret.full;
 424:lvgl/src/draw/sw/../../misc/lv_color.h **** #elif LV_COLOR_DEPTH == 32
 425:lvgl/src/draw/sw/../../misc/lv_color.h ****     return color.full;
 426:lvgl/src/draw/sw/../../misc/lv_color.h **** #endif
 427:lvgl/src/draw/sw/../../misc/lv_color.h **** }
 428:lvgl/src/draw/sw/../../misc/lv_color.h **** 
 429:lvgl/src/draw/sw/../../misc/lv_color.h **** //! @cond Doxygen_Suppress
 430:lvgl/src/draw/sw/../../misc/lv_color.h **** 
 431:lvgl/src/draw/sw/../../misc/lv_color.h **** /**
 432:lvgl/src/draw/sw/../../misc/lv_color.h ****  * Mix two colors with a given ratio.
 433:lvgl/src/draw/sw/../../misc/lv_color.h ****  * @param c1 the first color to mix (usually the foreground)
 434:lvgl/src/draw/sw/../../misc/lv_color.h ****  * @param c2 the second color to mix (usually the background)
 435:lvgl/src/draw/sw/../../misc/lv_color.h ****  * @param mix The ratio of the colors. 0: full `c2`, 255: full `c1`, 127: half `c1` and half`c2`
 436:lvgl/src/draw/sw/../../misc/lv_color.h ****  * @return the mixed color
 437:lvgl/src/draw/sw/../../misc/lv_color.h ****  */
 438:lvgl/src/draw/sw/../../misc/lv_color.h **** static inline lv_color_t LV_ATTRIBUTE_FAST_MEM lv_color_mix(lv_color_t c1, lv_color_t c2, uint8_t m
 439:lvgl/src/draw/sw/../../misc/lv_color.h **** {
 440:lvgl/src/draw/sw/../../misc/lv_color.h ****     lv_color_t ret;
 441:lvgl/src/draw/sw/../../misc/lv_color.h **** 
 442:lvgl/src/draw/sw/../../misc/lv_color.h **** #if LV_COLOR_DEPTH == 16 && LV_COLOR_MIX_ROUND_OFS == 0
ARM GAS  C:\Users\OSD\AppData\Local\Temp\ccrPpCVL.s 			page 60


 443:lvgl/src/draw/sw/../../misc/lv_color.h **** #if LV_COLOR_16_SWAP == 1
 444:lvgl/src/draw/sw/../../misc/lv_color.h ****     c1.full = c1.full << 8 | c1.full >> 8;
 445:lvgl/src/draw/sw/../../misc/lv_color.h ****     c2.full = c2.full << 8 | c2.full >> 8;
 446:lvgl/src/draw/sw/../../misc/lv_color.h **** #endif
 447:lvgl/src/draw/sw/../../misc/lv_color.h ****     /*Source: https://stackoverflow.com/a/50012418/1999969*/
 448:lvgl/src/draw/sw/../../misc/lv_color.h ****     mix = (uint32_t)((uint32_t)mix + 4) >> 3;
 449:lvgl/src/draw/sw/../../misc/lv_color.h ****     uint32_t bg = (uint32_t)((uint32_t)c2.full | ((uint32_t)c2.full << 16)) &
 450:lvgl/src/draw/sw/../../misc/lv_color.h ****                   0x7E0F81F; /*0b00000111111000001111100000011111*/
 451:lvgl/src/draw/sw/../../misc/lv_color.h ****     uint32_t fg = (uint32_t)((uint32_t)c1.full | ((uint32_t)c1.full << 16)) & 0x7E0F81F;
 452:lvgl/src/draw/sw/../../misc/lv_color.h ****     uint32_t result = ((((fg - bg) * mix) >> 5) + bg) & 0x7E0F81F;
 453:lvgl/src/draw/sw/../../misc/lv_color.h ****     ret.full = (uint16_t)((result >> 16) | result);
 454:lvgl/src/draw/sw/../../misc/lv_color.h **** #if LV_COLOR_16_SWAP == 1
 455:lvgl/src/draw/sw/../../misc/lv_color.h ****     ret.full = ret.full << 8 | ret.full >> 8;
 456:lvgl/src/draw/sw/../../misc/lv_color.h **** #endif
 457:lvgl/src/draw/sw/../../misc/lv_color.h **** #elif LV_COLOR_DEPTH != 1
 458:lvgl/src/draw/sw/../../misc/lv_color.h ****     /*LV_COLOR_DEPTH == 8, 16 or 32*/
 459:lvgl/src/draw/sw/../../misc/lv_color.h ****     LV_COLOR_SET_R(ret, LV_UDIV255((uint16_t)LV_COLOR_GET_R(c1) * mix + LV_COLOR_GET_R(c2) *
 460:lvgl/src/draw/sw/../../misc/lv_color.h ****                                    (255 - mix) + LV_COLOR_MIX_ROUND_OFS));
 461:lvgl/src/draw/sw/../../misc/lv_color.h ****     LV_COLOR_SET_G(ret, LV_UDIV255((uint16_t)LV_COLOR_GET_G(c1) * mix + LV_COLOR_GET_G(c2) *
 462:lvgl/src/draw/sw/../../misc/lv_color.h ****                                    (255 - mix) + LV_COLOR_MIX_ROUND_OFS));
 463:lvgl/src/draw/sw/../../misc/lv_color.h ****     LV_COLOR_SET_B(ret, LV_UDIV255((uint16_t)LV_COLOR_GET_B(c1) * mix + LV_COLOR_GET_B(c2) *
 464:lvgl/src/draw/sw/../../misc/lv_color.h ****                                    (255 - mix) + LV_COLOR_MIX_ROUND_OFS));
 465:lvgl/src/draw/sw/../../misc/lv_color.h ****     LV_COLOR_SET_A(ret, 0xFF);
 466:lvgl/src/draw/sw/../../misc/lv_color.h **** #else
 467:lvgl/src/draw/sw/../../misc/lv_color.h ****     /*LV_COLOR_DEPTH == 1*/
 468:lvgl/src/draw/sw/../../misc/lv_color.h ****     ret.full = mix > LV_OPA_50 ? c1.full : c2.full;
 469:lvgl/src/draw/sw/../../misc/lv_color.h **** #endif
 470:lvgl/src/draw/sw/../../misc/lv_color.h **** 
 471:lvgl/src/draw/sw/../../misc/lv_color.h ****     return ret;
 472:lvgl/src/draw/sw/../../misc/lv_color.h **** }
 473:lvgl/src/draw/sw/../../misc/lv_color.h **** 
 474:lvgl/src/draw/sw/../../misc/lv_color.h **** static inline void LV_ATTRIBUTE_FAST_MEM lv_color_premult(lv_color_t c, uint8_t mix, uint16_t * out
 475:lvgl/src/draw/sw/../../misc/lv_color.h **** {
 476:lvgl/src/draw/sw/../../misc/lv_color.h **** #if LV_COLOR_DEPTH != 1
 477:lvgl/src/draw/sw/../../misc/lv_color.h ****     out[0] = (uint16_t)LV_COLOR_GET_R(c) * mix;
 478:lvgl/src/draw/sw/../../misc/lv_color.h ****     out[1] = (uint16_t)LV_COLOR_GET_G(c) * mix;
 479:lvgl/src/draw/sw/../../misc/lv_color.h ****     out[2] = (uint16_t)LV_COLOR_GET_B(c) * mix;
 480:lvgl/src/draw/sw/../../misc/lv_color.h **** #else
 481:lvgl/src/draw/sw/../../misc/lv_color.h ****     (void) mix;
 482:lvgl/src/draw/sw/../../misc/lv_color.h ****     /*Pre-multiplication can't be used with 1 bpp*/
 483:lvgl/src/draw/sw/../../misc/lv_color.h ****     out[0] = LV_COLOR_GET_R(c);
 484:lvgl/src/draw/sw/../../misc/lv_color.h ****     out[1] = LV_COLOR_GET_G(c);
 485:lvgl/src/draw/sw/../../misc/lv_color.h ****     out[2] = LV_COLOR_GET_B(c);
 486:lvgl/src/draw/sw/../../misc/lv_color.h **** #endif
 487:lvgl/src/draw/sw/../../misc/lv_color.h **** 
 488:lvgl/src/draw/sw/../../misc/lv_color.h **** }
 489:lvgl/src/draw/sw/../../misc/lv_color.h **** 
 490:lvgl/src/draw/sw/../../misc/lv_color.h **** /**
 491:lvgl/src/draw/sw/../../misc/lv_color.h ****  * Mix two colors with a given ratio. It runs faster then `lv_color_mix` but requires some pre comp
 492:lvgl/src/draw/sw/../../misc/lv_color.h ****  * @param premult_c1 The first color. Should be preprocessed with `lv_color_premult(c1)`
 493:lvgl/src/draw/sw/../../misc/lv_color.h ****  * @param c2 The second color. As it is no pre computation required on it
 494:lvgl/src/draw/sw/../../misc/lv_color.h ****  * @param mix The ratio of the colors. 0: full `c1`, 255: full `c2`, 127: half `c1` and half `c2`.
 495:lvgl/src/draw/sw/../../misc/lv_color.h ****  *            Should be modified like mix = `255 - mix`
 496:lvgl/src/draw/sw/../../misc/lv_color.h ****  * @return the mixed color
 497:lvgl/src/draw/sw/../../misc/lv_color.h ****  * @note 255 won't give clearly `c1`.
 498:lvgl/src/draw/sw/../../misc/lv_color.h ****  */
 499:lvgl/src/draw/sw/../../misc/lv_color.h **** static inline lv_color_t LV_ATTRIBUTE_FAST_MEM lv_color_mix_premult(uint16_t * premult_c1, lv_color
ARM GAS  C:\Users\OSD\AppData\Local\Temp\ccrPpCVL.s 			page 61


 500:lvgl/src/draw/sw/../../misc/lv_color.h **** {
 501:lvgl/src/draw/sw/../../misc/lv_color.h ****     lv_color_t ret;
 502:lvgl/src/draw/sw/../../misc/lv_color.h **** #if LV_COLOR_DEPTH != 1
 503:lvgl/src/draw/sw/../../misc/lv_color.h ****     /*LV_COLOR_DEPTH == 8 or 32*/
 504:lvgl/src/draw/sw/../../misc/lv_color.h ****     LV_COLOR_SET_R(ret, LV_UDIV255(premult_c1[0] + LV_COLOR_GET_R(c2) * mix + LV_COLOR_MIX_ROUND_OF
 505:lvgl/src/draw/sw/../../misc/lv_color.h ****     LV_COLOR_SET_G(ret, LV_UDIV255(premult_c1[1] + LV_COLOR_GET_G(c2) * mix + LV_COLOR_MIX_ROUND_OF
 506:lvgl/src/draw/sw/../../misc/lv_color.h ****     LV_COLOR_SET_B(ret, LV_UDIV255(premult_c1[2] + LV_COLOR_GET_B(c2) * mix + LV_COLOR_MIX_ROUND_OF
 507:lvgl/src/draw/sw/../../misc/lv_color.h ****     LV_COLOR_SET_A(ret, 0xFF);
 508:lvgl/src/draw/sw/../../misc/lv_color.h **** #else
 509:lvgl/src/draw/sw/../../misc/lv_color.h ****     /*LV_COLOR_DEPTH == 1*/
 510:lvgl/src/draw/sw/../../misc/lv_color.h ****     /*Restore color1*/
 511:lvgl/src/draw/sw/../../misc/lv_color.h ****     lv_color_t c1;
 512:lvgl/src/draw/sw/../../misc/lv_color.h ****     LV_COLOR_SET_R(c1, premult_c1[0]);
 513:lvgl/src/draw/sw/../../misc/lv_color.h ****     LV_COLOR_SET_G(c1, premult_c1[1]);
 514:lvgl/src/draw/sw/../../misc/lv_color.h ****     LV_COLOR_SET_B(c1, premult_c1[2]);
 515:lvgl/src/draw/sw/../../misc/lv_color.h ****     ret.full = mix > LV_OPA_50 ? c2.full : c1.full;
 516:lvgl/src/draw/sw/../../misc/lv_color.h **** #endif
 517:lvgl/src/draw/sw/../../misc/lv_color.h **** 
 518:lvgl/src/draw/sw/../../misc/lv_color.h ****     return ret;
 519:lvgl/src/draw/sw/../../misc/lv_color.h **** }
 520:lvgl/src/draw/sw/../../misc/lv_color.h **** 
 521:lvgl/src/draw/sw/../../misc/lv_color.h **** /**
 522:lvgl/src/draw/sw/../../misc/lv_color.h ****  * Mix two colors. Both color can have alpha value.
 523:lvgl/src/draw/sw/../../misc/lv_color.h ****  * @param bg_color background color
 524:lvgl/src/draw/sw/../../misc/lv_color.h ****  * @param bg_opa alpha of the background color
 525:lvgl/src/draw/sw/../../misc/lv_color.h ****  * @param fg_color foreground color
 526:lvgl/src/draw/sw/../../misc/lv_color.h ****  * @param fg_opa alpha of the foreground color
 527:lvgl/src/draw/sw/../../misc/lv_color.h ****  * @param res_color the result color
 528:lvgl/src/draw/sw/../../misc/lv_color.h ****  * @param res_opa the result opacity
 529:lvgl/src/draw/sw/../../misc/lv_color.h ****  */
 530:lvgl/src/draw/sw/../../misc/lv_color.h **** static inline void LV_ATTRIBUTE_FAST_MEM lv_color_mix_with_alpha(lv_color_t bg_color, lv_opa_t bg_o
 531:lvgl/src/draw/sw/../../misc/lv_color.h ****                                                                  lv_color_t fg_color, lv_opa_t fg_o
 532:lvgl/src/draw/sw/../../misc/lv_color.h ****                                                                  lv_color_t * res_color, lv_opa_t *
 533:lvgl/src/draw/sw/../../misc/lv_color.h **** {
 534:lvgl/src/draw/sw/../../misc/lv_color.h ****     /*Pick the foreground if it's fully opaque or the Background is fully transparent*/
 535:lvgl/src/draw/sw/../../misc/lv_color.h ****     if(fg_opa >= LV_OPA_MAX || bg_opa <= LV_OPA_MIN) {
 536:lvgl/src/draw/sw/../../misc/lv_color.h ****         res_color->full = fg_color.full;
 537:lvgl/src/draw/sw/../../misc/lv_color.h ****         *res_opa = fg_opa;
 538:lvgl/src/draw/sw/../../misc/lv_color.h ****     }
 539:lvgl/src/draw/sw/../../misc/lv_color.h ****     /*Transparent foreground: use the Background*/
 540:lvgl/src/draw/sw/../../misc/lv_color.h ****     else if(fg_opa <= LV_OPA_MIN) {
 541:lvgl/src/draw/sw/../../misc/lv_color.h ****         res_color->full = bg_color.full;
 542:lvgl/src/draw/sw/../../misc/lv_color.h ****         *res_opa = bg_opa;
 543:lvgl/src/draw/sw/../../misc/lv_color.h ****     }
 544:lvgl/src/draw/sw/../../misc/lv_color.h ****     /*Opaque background: use simple mix*/
 545:lvgl/src/draw/sw/../../misc/lv_color.h ****     else if(bg_opa >= LV_OPA_MAX) {
 546:lvgl/src/draw/sw/../../misc/lv_color.h ****         *res_color = lv_color_mix(fg_color, bg_color, fg_opa);
 547:lvgl/src/draw/sw/../../misc/lv_color.h ****         *res_opa = LV_OPA_COVER;
 548:lvgl/src/draw/sw/../../misc/lv_color.h ****     }
 549:lvgl/src/draw/sw/../../misc/lv_color.h ****     /*Both colors have alpha. Expensive calculation need to be applied*/
 550:lvgl/src/draw/sw/../../misc/lv_color.h ****     else {
 551:lvgl/src/draw/sw/../../misc/lv_color.h ****         /*Save the parameters and the result. If they will be asked again don't compute again*/
 552:lvgl/src/draw/sw/../../misc/lv_color.h ****         static lv_opa_t fg_opa_save     = 0;
 553:lvgl/src/draw/sw/../../misc/lv_color.h ****         static lv_opa_t bg_opa_save     = 0;
 554:lvgl/src/draw/sw/../../misc/lv_color.h ****         static lv_color_t fg_color_save = _LV_COLOR_ZERO_INITIALIZER;
 555:lvgl/src/draw/sw/../../misc/lv_color.h ****         static lv_color_t bg_color_save = _LV_COLOR_ZERO_INITIALIZER;
 556:lvgl/src/draw/sw/../../misc/lv_color.h ****         static lv_color_t res_color_saved = _LV_COLOR_ZERO_INITIALIZER;
ARM GAS  C:\Users\OSD\AppData\Local\Temp\ccrPpCVL.s 			page 62


 557:lvgl/src/draw/sw/../../misc/lv_color.h ****         static lv_opa_t res_opa_saved = 0;
 558:lvgl/src/draw/sw/../../misc/lv_color.h **** 
 559:lvgl/src/draw/sw/../../misc/lv_color.h ****         if(fg_opa != fg_opa_save || bg_opa != bg_opa_save || fg_color.full != fg_color_save.full ||
 560:lvgl/src/draw/sw/../../misc/lv_color.h ****            bg_color.full != bg_color_save.full) {
 561:lvgl/src/draw/sw/../../misc/lv_color.h ****             fg_opa_save        = fg_opa;
 562:lvgl/src/draw/sw/../../misc/lv_color.h ****             bg_opa_save        = bg_opa;
 563:lvgl/src/draw/sw/../../misc/lv_color.h ****             fg_color_save.full = fg_color.full;
 564:lvgl/src/draw/sw/../../misc/lv_color.h ****             bg_color_save.full = bg_color.full;
 565:lvgl/src/draw/sw/../../misc/lv_color.h ****             /*Info:
 566:lvgl/src/draw/sw/../../misc/lv_color.h ****              * https://en.wikipedia.org/wiki/Alpha_compositing#Analytical_derivation_of_the_over_op
 567:lvgl/src/draw/sw/../../misc/lv_color.h ****             res_opa_saved = 255 - ((uint16_t)((uint16_t)(255 - fg_opa) * (255 - bg_opa)) >> 8);
 568:lvgl/src/draw/sw/../../misc/lv_color.h ****             LV_ASSERT(res_opa_saved != 0);
 569:lvgl/src/draw/sw/../../misc/lv_color.h ****             lv_opa_t ratio = (uint16_t)((uint16_t)fg_opa * 255) / res_opa_saved;
 570:lvgl/src/draw/sw/../../misc/lv_color.h ****             res_color_saved = lv_color_mix(fg_color, bg_color, ratio);
 571:lvgl/src/draw/sw/../../misc/lv_color.h **** 
 572:lvgl/src/draw/sw/../../misc/lv_color.h ****         }
 573:lvgl/src/draw/sw/../../misc/lv_color.h **** 
 574:lvgl/src/draw/sw/../../misc/lv_color.h ****         res_color->full = res_color_saved.full;
 575:lvgl/src/draw/sw/../../misc/lv_color.h ****         *res_opa = res_opa_saved;
 576:lvgl/src/draw/sw/../../misc/lv_color.h ****     }
 577:lvgl/src/draw/sw/../../misc/lv_color.h **** }
 578:lvgl/src/draw/sw/../../misc/lv_color.h **** 
 579:lvgl/src/draw/sw/../../misc/lv_color.h **** //! @endcond
 580:lvgl/src/draw/sw/../../misc/lv_color.h **** 
 581:lvgl/src/draw/sw/../../misc/lv_color.h **** /**
 582:lvgl/src/draw/sw/../../misc/lv_color.h ****  * Get the brightness of a color
 583:lvgl/src/draw/sw/../../misc/lv_color.h ****  * @param color a color
 584:lvgl/src/draw/sw/../../misc/lv_color.h ****  * @return the brightness [0..255]
 585:lvgl/src/draw/sw/../../misc/lv_color.h ****  */
 586:lvgl/src/draw/sw/../../misc/lv_color.h **** static inline uint8_t lv_color_brightness(lv_color_t color)
 587:lvgl/src/draw/sw/../../misc/lv_color.h **** {
 588:lvgl/src/draw/sw/../../misc/lv_color.h ****     lv_color32_t c32;
 589:lvgl/src/draw/sw/../../misc/lv_color.h ****     c32.full        = lv_color_to32(color);
 590:lvgl/src/draw/sw/../../misc/lv_color.h ****     uint16_t bright = (uint16_t)(3u * LV_COLOR_GET_R32(c32) + LV_COLOR_GET_B32(c32) + 4u * LV_COLOR
 591:lvgl/src/draw/sw/../../misc/lv_color.h ****     return (uint8_t)(bright >> 3);
 592:lvgl/src/draw/sw/../../misc/lv_color.h **** }
 593:lvgl/src/draw/sw/../../misc/lv_color.h **** 
 594:lvgl/src/draw/sw/../../misc/lv_color.h **** static inline lv_color_t lv_color_make(uint8_t r, uint8_t g, uint8_t b)
 595:lvgl/src/draw/sw/../../misc/lv_color.h **** {
 596:lvgl/src/draw/sw/../../misc/lv_color.h ****     return _LV_COLOR_MAKE_TYPE_HELPER LV_COLOR_MAKE(r, g, b);
 597:lvgl/src/draw/sw/../../misc/lv_color.h **** }
 598:lvgl/src/draw/sw/../../misc/lv_color.h **** 
 599:lvgl/src/draw/sw/../../misc/lv_color.h **** static inline lv_color_t lv_color_hex(uint32_t c)
 600:lvgl/src/draw/sw/../../misc/lv_color.h **** {
 601:lvgl/src/draw/sw/../../misc/lv_color.h **** #if LV_COLOR_DEPTH == 16
 602:lvgl/src/draw/sw/../../misc/lv_color.h ****     lv_color_t r;
 603:lvgl/src/draw/sw/../../misc/lv_color.h **** #if LV_COLOR_16_SWAP == 0
 604:lvgl/src/draw/sw/../../misc/lv_color.h ****     /* Convert a 4 bytes per pixel in format ARGB32 to R5G6B5 format
 605:lvgl/src/draw/sw/../../misc/lv_color.h ****         naive way (by calling lv_color_make with components):
 606:lvgl/src/draw/sw/../../misc/lv_color.h ****                     r = ((c & 0xFF0000) >> 19)
 607:lvgl/src/draw/sw/../../misc/lv_color.h ****                     g = ((c & 0xFF00) >> 10)
 608:lvgl/src/draw/sw/../../misc/lv_color.h ****                     b = ((c & 0xFF) >> 3)
 609:lvgl/src/draw/sw/../../misc/lv_color.h ****                     rgb565 = (r << 11) | (g << 5) | b
 610:lvgl/src/draw/sw/../../misc/lv_color.h ****         That's 3 mask, 5 bitshift and 2 or operations
 611:lvgl/src/draw/sw/../../misc/lv_color.h **** 
 612:lvgl/src/draw/sw/../../misc/lv_color.h ****         A bit better:
 613:lvgl/src/draw/sw/../../misc/lv_color.h ****                     r = ((c & 0xF80000) >> 8)
ARM GAS  C:\Users\OSD\AppData\Local\Temp\ccrPpCVL.s 			page 63


 614:lvgl/src/draw/sw/../../misc/lv_color.h ****                     g = ((c & 0xFC00) >> 5)
 615:lvgl/src/draw/sw/../../misc/lv_color.h ****                     b = ((c & 0xFF) >> 3)
 616:lvgl/src/draw/sw/../../misc/lv_color.h ****                     rgb565 = r | g | b
 617:lvgl/src/draw/sw/../../misc/lv_color.h ****         That's 3 mask, 3 bitshifts and 2 or operations */
 618:lvgl/src/draw/sw/../../misc/lv_color.h ****     r.full = (uint16_t)(((c & 0xF80000) >> 8) | ((c & 0xFC00) >> 5) | ((c & 0xFF) >> 3));
 619:lvgl/src/draw/sw/../../misc/lv_color.h **** #else
 620:lvgl/src/draw/sw/../../misc/lv_color.h ****     /* We want: rrrr rrrr GGGg gggg bbbb bbbb => gggb bbbb rrrr rGGG */
 621:lvgl/src/draw/sw/../../misc/lv_color.h ****     r.full = (uint16_t)(((c & 0xF80000) >> 16) | ((c & 0xFC00) >> 13) | ((c & 0x1C00) << 3) | ((c &
 622:lvgl/src/draw/sw/../../misc/lv_color.h **** #endif
 623:lvgl/src/draw/sw/../../misc/lv_color.h ****     return r;
 624:lvgl/src/draw/sw/../../misc/lv_color.h **** #elif LV_COLOR_DEPTH == 32
 625:lvgl/src/draw/sw/../../misc/lv_color.h ****     lv_color_t r;
 626:lvgl/src/draw/sw/../../misc/lv_color.h ****     r.full = c | 0xFF000000;
 627:lvgl/src/draw/sw/../../misc/lv_color.h ****     return r;
 628:lvgl/src/draw/sw/../../misc/lv_color.h **** #else /*LV_COLOR_DEPTH == 8*/
 629:lvgl/src/draw/sw/../../misc/lv_color.h ****     return lv_color_make((uint8_t)((c >> 16) & 0xFF), (uint8_t)((c >> 8) & 0xFF), (uint8_t)(c & 0xF
 630:lvgl/src/draw/sw/../../misc/lv_color.h **** #endif
 631:lvgl/src/draw/sw/../../misc/lv_color.h **** }
 632:lvgl/src/draw/sw/../../misc/lv_color.h **** 
 633:lvgl/src/draw/sw/../../misc/lv_color.h **** static inline lv_color_t lv_color_hex3(uint32_t c)
 634:lvgl/src/draw/sw/../../misc/lv_color.h **** {
 635:lvgl/src/draw/sw/../../misc/lv_color.h ****     return lv_color_make((uint8_t)(((c >> 4) & 0xF0) | ((c >> 8) & 0xF)), (uint8_t)((c & 0xF0) | ((
 636:lvgl/src/draw/sw/../../misc/lv_color.h ****                          (uint8_t)((c & 0xF) | ((c & 0xF) << 4)));
 637:lvgl/src/draw/sw/../../misc/lv_color.h **** }
 638:lvgl/src/draw/sw/../../misc/lv_color.h **** 
 639:lvgl/src/draw/sw/../../misc/lv_color.h **** static inline void lv_color_filter_dsc_init(lv_color_filter_dsc_t * dsc, lv_color_filter_cb_t cb)
 640:lvgl/src/draw/sw/../../misc/lv_color.h **** {
 641:lvgl/src/draw/sw/../../misc/lv_color.h ****     dsc->filter_cb = cb;
 642:lvgl/src/draw/sw/../../misc/lv_color.h **** }
 643:lvgl/src/draw/sw/../../misc/lv_color.h **** 
 644:lvgl/src/draw/sw/../../misc/lv_color.h **** //! @cond Doxygen_Suppress
 645:lvgl/src/draw/sw/../../misc/lv_color.h **** //!
 646:lvgl/src/draw/sw/../../misc/lv_color.h **** void /* LV_ATTRIBUTE_FAST_MEM */ lv_color_fill(lv_color_t * buf, lv_color_t color, uint32_t px_num)
 647:lvgl/src/draw/sw/../../misc/lv_color.h **** 
 648:lvgl/src/draw/sw/../../misc/lv_color.h **** //! @endcond
 649:lvgl/src/draw/sw/../../misc/lv_color.h **** lv_color_t lv_color_lighten(lv_color_t c, lv_opa_t lvl);
 650:lvgl/src/draw/sw/../../misc/lv_color.h **** 
 651:lvgl/src/draw/sw/../../misc/lv_color.h **** lv_color_t lv_color_darken(lv_color_t c, lv_opa_t lvl);
 652:lvgl/src/draw/sw/../../misc/lv_color.h **** 
 653:lvgl/src/draw/sw/../../misc/lv_color.h **** lv_color_t lv_color_change_lightness(lv_color_t c, lv_opa_t lvl);
 654:lvgl/src/draw/sw/../../misc/lv_color.h **** 
 655:lvgl/src/draw/sw/../../misc/lv_color.h **** /**
 656:lvgl/src/draw/sw/../../misc/lv_color.h ****  * Convert a HSV color to RGB
 657:lvgl/src/draw/sw/../../misc/lv_color.h ****  * @param h hue [0..359]
 658:lvgl/src/draw/sw/../../misc/lv_color.h ****  * @param s saturation [0..100]
 659:lvgl/src/draw/sw/../../misc/lv_color.h ****  * @param v value [0..100]
 660:lvgl/src/draw/sw/../../misc/lv_color.h ****  * @return the given RGB color in RGB (with LV_COLOR_DEPTH depth)
 661:lvgl/src/draw/sw/../../misc/lv_color.h ****  */
 662:lvgl/src/draw/sw/../../misc/lv_color.h **** lv_color_t lv_color_hsv_to_rgb(uint16_t h, uint8_t s, uint8_t v);
 663:lvgl/src/draw/sw/../../misc/lv_color.h **** 
 664:lvgl/src/draw/sw/../../misc/lv_color.h **** /**
 665:lvgl/src/draw/sw/../../misc/lv_color.h ****  * Convert a 32-bit RGB color to HSV
 666:lvgl/src/draw/sw/../../misc/lv_color.h ****  * @param r8 8-bit red
 667:lvgl/src/draw/sw/../../misc/lv_color.h ****  * @param g8 8-bit green
 668:lvgl/src/draw/sw/../../misc/lv_color.h ****  * @param b8 8-bit blue
 669:lvgl/src/draw/sw/../../misc/lv_color.h ****  * @return the given RGB color in HSV
 670:lvgl/src/draw/sw/../../misc/lv_color.h ****  */
ARM GAS  C:\Users\OSD\AppData\Local\Temp\ccrPpCVL.s 			page 64


 671:lvgl/src/draw/sw/../../misc/lv_color.h **** lv_color_hsv_t lv_color_rgb_to_hsv(uint8_t r8, uint8_t g8, uint8_t b8);
 672:lvgl/src/draw/sw/../../misc/lv_color.h **** 
 673:lvgl/src/draw/sw/../../misc/lv_color.h **** /**
 674:lvgl/src/draw/sw/../../misc/lv_color.h ****  * Convert a color to HSV
 675:lvgl/src/draw/sw/../../misc/lv_color.h ****  * @param color color
 676:lvgl/src/draw/sw/../../misc/lv_color.h ****  * @return the given color in HSV
 677:lvgl/src/draw/sw/../../misc/lv_color.h ****  */
 678:lvgl/src/draw/sw/../../misc/lv_color.h **** lv_color_hsv_t lv_color_to_hsv(lv_color_t color);
 679:lvgl/src/draw/sw/../../misc/lv_color.h **** 
 680:lvgl/src/draw/sw/../../misc/lv_color.h **** /**
 681:lvgl/src/draw/sw/../../misc/lv_color.h ****  * Just a wrapper around LV_COLOR_CHROMA_KEY because it might be more convenient to use a function 
 682:lvgl/src/draw/sw/../../misc/lv_color.h ****  * @return LV_COLOR_CHROMA_KEY
 683:lvgl/src/draw/sw/../../misc/lv_color.h ****  */
 684:lvgl/src/draw/sw/../../misc/lv_color.h **** static inline lv_color_t lv_color_chroma_key(void)
 685:lvgl/src/draw/sw/../../misc/lv_color.h **** {
 686:lvgl/src/draw/sw/../../misc/lv_color.h ****     return LV_COLOR_CHROMA_KEY;
 687:lvgl/src/draw/sw/../../misc/lv_color.h **** }
 688:lvgl/src/draw/sw/../../misc/lv_color.h **** 
 689:lvgl/src/draw/sw/../../misc/lv_color.h **** /**********************
 690:lvgl/src/draw/sw/../../misc/lv_color.h ****  *  PREDEFINED COLORS
 691:lvgl/src/draw/sw/../../misc/lv_color.h ****  **********************/
 692:lvgl/src/draw/sw/../../misc/lv_color.h **** /*Source: https://vuetifyjs.com/en/styles/colors/#material-colors*/
 693:lvgl/src/draw/sw/../../misc/lv_color.h **** 
 694:lvgl/src/draw/sw/../../misc/lv_color.h **** lv_color_t lv_palette_main(lv_palette_t p);
 695:lvgl/src/draw/sw/../../misc/lv_color.h **** static inline lv_color_t lv_color_white(void)
 696:lvgl/src/draw/sw/../../misc/lv_color.h **** {
 697:lvgl/src/draw/sw/../../misc/lv_color.h ****     return lv_color_make(0xff, 0xff, 0xff);
 698:lvgl/src/draw/sw/../../misc/lv_color.h **** }
 699:lvgl/src/draw/sw/../../misc/lv_color.h **** static inline lv_color_t lv_color_black(void)
 1445              		.loc 3 699 26 view .LVU467
 1446              	.LBE132:
 1447              	.LBE131:
 700:lvgl/src/draw/sw/../../misc/lv_color.h **** {
 701:lvgl/src/draw/sw/../../misc/lv_color.h ****     return lv_color_make(0x00, 0x0, 0x00);
 1448              		.loc 3 701 5 view .LVU468
 1449              	.LVL157:
 1450              	.LBB142:
 1451              	.LBB135:
 1452              	.LBB133:
 1453              	.LBI133:
 594:lvgl/src/draw/sw/../../misc/lv_color.h **** {
 1454              		.loc 3 594 26 view .LVU469
 1455              	.LBB134:
 596:lvgl/src/draw/sw/../../misc/lv_color.h **** }
 1456              		.loc 3 596 5 view .LVU470
 596:lvgl/src/draw/sw/../../misc/lv_color.h **** }
 1457              		.loc 3 596 12 is_stmt 0 view .LVU471
 1458 0056 0020     		movs	r0, #0
 1459 0058 6FF30700 		bfc	r0, #0, #8
 1460 005c 6FF30F20 		bfc	r0, #8, #8
 1461 0060 6FF31740 		bfc	r0, #16, #8
 1462 0064 40F07F40 		orr	r0, r0, #-16777216
 1463              	.LVL158:
 596:lvgl/src/draw/sw/../../misc/lv_color.h **** }
 1464              		.loc 3 596 12 view .LVU472
 1465 0068 0146     		mov	r1, r0
 1466              	.LVL159:
ARM GAS  C:\Users\OSD\AppData\Local\Temp\ccrPpCVL.s 			page 65


 596:lvgl/src/draw/sw/../../misc/lv_color.h **** }
 1467              		.loc 3 596 12 view .LVU473
 1468              	.LBE134:
 1469              	.LBE133:
 1470              	.LBE135:
 263:lvgl/src/draw/sw/lv_draw_sw_blend.c **** 
 1471              		.loc 1 263 13 is_stmt 1 view .LVU474
 1472              	.LBB136:
 1473              	.LBI136:
 438:lvgl/src/draw/sw/../../misc/lv_color.h **** {
 1474              		.loc 3 438 48 view .LVU475
 1475              	.LBB137:
 440:lvgl/src/draw/sw/../../misc/lv_color.h **** 
 1476              		.loc 3 440 5 view .LVU476
 459:lvgl/src/draw/sw/../../misc/lv_color.h ****                                    (255 - mix) + LV_COLOR_MIX_ROUND_OFS));
 1477              		.loc 3 459 5 view .LVU477
 459:lvgl/src/draw/sw/../../misc/lv_color.h ****                                    (255 - mix) + LV_COLOR_MIX_ROUND_OFS));
 1478              		.loc 3 459 5 is_stmt 0 view .LVU478
 1479 006a C5F30746 		ubfx	r6, r5, #16, #8
 1480 006e C0F30742 		ubfx	r2, r0, #16, #8
 1481 0072 CBF1FF03 		rsb	r3, fp, #255
 1482              	.LVL160:
 459:lvgl/src/draw/sw/../../misc/lv_color.h ****                                    (255 - mix) + LV_COLOR_MIX_ROUND_OFS));
 1483              		.loc 3 459 5 view .LVU479
 1484 0076 03FB02F2 		mul	r2, r3, r2
 1485 007a 0BFB0622 		mla	r2, fp, r6, r2
 1486 007e 02EB0226 		add	r6, r2, r2, lsl #8
 1487 0082 02EBC612 		add	r2, r2, r6, lsl #7
 1488 0086 C2F3C752 		ubfx	r2, r2, #23, #8
 1489 008a 4FF0000C 		mov	ip, #0
 1490              	.LVL161:
 459:lvgl/src/draw/sw/../../misc/lv_color.h ****                                    (255 - mix) + LV_COLOR_MIX_ROUND_OFS));
 1491              		.loc 3 459 5 view .LVU480
 1492 008e 62F3174C 		bfi	ip, r2, #16, #8
 1493              	.LVL162:
 461:lvgl/src/draw/sw/../../misc/lv_color.h ****                                    (255 - mix) + LV_COLOR_MIX_ROUND_OFS));
 1494              		.loc 3 461 5 is_stmt 1 view .LVU481
 1495 0092 C5F30726 		ubfx	r6, r5, #8, #8
 1496 0096 C0F30722 		ubfx	r2, r0, #8, #8
 1497 009a 03FB02F2 		mul	r2, r3, r2
 1498 009e 06FB0B22 		mla	r2, r6, fp, r2
 1499 00a2 02EB0226 		add	r6, r2, r2, lsl #8
 1500 00a6 02EBC612 		add	r2, r2, r6, lsl #7
 1501 00aa C2F3C752 		ubfx	r2, r2, #23, #8
 1502 00ae 62F30F2C 		bfi	ip, r2, #8, #8
 463:lvgl/src/draw/sw/../../misc/lv_color.h ****                                    (255 - mix) + LV_COLOR_MIX_ROUND_OFS));
 1503              		.loc 3 463 5 view .LVU482
 1504 00b2 EAB2     		uxtb	r2, r5
 1505 00b4 C0B2     		uxtb	r0, r0
 1506 00b6 00FB03F3 		mul	r3, r0, r3
 1507 00ba 02FB0B33 		mla	r3, r2, fp, r3
 1508 00be 03EB0320 		add	r0, r3, r3, lsl #8
 1509 00c2 03EBC013 		add	r3, r3, r0, lsl #7
 1510 00c6 C3F3C753 		ubfx	r3, r3, #23, #8
 1511 00ca 63F3070C 		bfi	ip, r3, #0, #8
 465:lvgl/src/draw/sw/../../misc/lv_color.h **** #else
 1512              		.loc 3 465 5 view .LVU483
ARM GAS  C:\Users\OSD\AppData\Local\Temp\ccrPpCVL.s 			page 66


 471:lvgl/src/draw/sw/../../misc/lv_color.h **** }
 1513              		.loc 3 471 5 view .LVU484
 1514 00ce 4CF07F43 		orr	r3, ip, #-16777216
 1515              	.LVL163:
 471:lvgl/src/draw/sw/../../misc/lv_color.h **** }
 1516              		.loc 3 471 5 is_stmt 0 view .LVU485
 1517              	.LBE137:
 1518              	.LBE136:
 273:lvgl/src/draw/sw/lv_draw_sw_blend.c ****             lv_color_premult(color, opa, color_premult);
 1519              		.loc 1 273 13 is_stmt 1 view .LVU486
