ARM GAS  C:\Users\OSD\AppData\Local\Temp\ccS6lZqb.s 			page 1


   1              		.cpu cortex-m7
   2              		.arch armv7e-m
   3              		.fpu fpv5-d16
   4              		.eabi_attribute 28, 1
   5              		.eabi_attribute 20, 1
   6              		.eabi_attribute 21, 1
   7              		.eabi_attribute 23, 3
   8              		.eabi_attribute 24, 1
   9              		.eabi_attribute 25, 1
  10              		.eabi_attribute 26, 1
  11              		.eabi_attribute 30, 1
  12              		.eabi_attribute 34, 1
  13              		.eabi_attribute 18, 4
  14              		.file	"lv_draw_sw_rect.c"
  15              		.text
  16              	.Ltext0:
  17              		.cfi_sections	.debug_frame
  18              		.section	.text.draw_border_simple,"ax",%progbits
  19              		.align	1
  20              		.syntax unified
  21              		.thumb
  22              		.thumb_func
  24              	draw_border_simple:
  25              	.LVL0:
  26              	.LFB171:
  27              		.file 1 "lvgl/src/draw/sw/lv_draw_sw_rect.c"
   1:lvgl/src/draw/sw/lv_draw_sw_rect.c **** /**
   2:lvgl/src/draw/sw/lv_draw_sw_rect.c ****  * @file lv_draw_rect.c
   3:lvgl/src/draw/sw/lv_draw_sw_rect.c ****  *
   4:lvgl/src/draw/sw/lv_draw_sw_rect.c ****  */
   5:lvgl/src/draw/sw/lv_draw_sw_rect.c **** 
   6:lvgl/src/draw/sw/lv_draw_sw_rect.c **** /*********************
   7:lvgl/src/draw/sw/lv_draw_sw_rect.c ****  *      INCLUDES
   8:lvgl/src/draw/sw/lv_draw_sw_rect.c ****  *********************/
   9:lvgl/src/draw/sw/lv_draw_sw_rect.c **** #include "lv_draw_sw.h"
  10:lvgl/src/draw/sw/lv_draw_sw_rect.c **** #include "../../misc/lv_math.h"
  11:lvgl/src/draw/sw/lv_draw_sw_rect.c **** #include "../../misc/lv_txt_ap.h"
  12:lvgl/src/draw/sw/lv_draw_sw_rect.c **** #include "../../core/lv_refr.h"
  13:lvgl/src/draw/sw/lv_draw_sw_rect.c **** #include "../../misc/lv_assert.h"
  14:lvgl/src/draw/sw/lv_draw_sw_rect.c **** #include "lv_draw_sw_dither.h"
  15:lvgl/src/draw/sw/lv_draw_sw_rect.c **** 
  16:lvgl/src/draw/sw/lv_draw_sw_rect.c **** /*********************
  17:lvgl/src/draw/sw/lv_draw_sw_rect.c ****  *      DEFINES
  18:lvgl/src/draw/sw/lv_draw_sw_rect.c ****  *********************/
  19:lvgl/src/draw/sw/lv_draw_sw_rect.c **** #define SHADOW_UPSCALE_SHIFT    6
  20:lvgl/src/draw/sw/lv_draw_sw_rect.c **** #define SHADOW_ENHANCE          1
  21:lvgl/src/draw/sw/lv_draw_sw_rect.c **** #define SPLIT_LIMIT             50
  22:lvgl/src/draw/sw/lv_draw_sw_rect.c **** 
  23:lvgl/src/draw/sw/lv_draw_sw_rect.c **** /**********************
  24:lvgl/src/draw/sw/lv_draw_sw_rect.c ****  *      TYPEDEFS
  25:lvgl/src/draw/sw/lv_draw_sw_rect.c ****  **********************/
  26:lvgl/src/draw/sw/lv_draw_sw_rect.c **** 
  27:lvgl/src/draw/sw/lv_draw_sw_rect.c **** /**********************
  28:lvgl/src/draw/sw/lv_draw_sw_rect.c ****  *  STATIC PROTOTYPES
  29:lvgl/src/draw/sw/lv_draw_sw_rect.c ****  **********************/
  30:lvgl/src/draw/sw/lv_draw_sw_rect.c **** static void draw_bg(lv_draw_ctx_t * draw_ctx, const lv_draw_rect_dsc_t * dsc, const lv_area_t * coo
  31:lvgl/src/draw/sw/lv_draw_sw_rect.c **** static void draw_bg_img(lv_draw_ctx_t * draw_ctx, const lv_draw_rect_dsc_t * dsc, const lv_area_t *
ARM GAS  C:\Users\OSD\AppData\Local\Temp\ccS6lZqb.s 			page 2


  32:lvgl/src/draw/sw/lv_draw_sw_rect.c **** static void draw_border(lv_draw_ctx_t * draw_ctx, const lv_draw_rect_dsc_t * dsc, const lv_area_t *
  33:lvgl/src/draw/sw/lv_draw_sw_rect.c **** 
  34:lvgl/src/draw/sw/lv_draw_sw_rect.c **** static void draw_outline(lv_draw_ctx_t * draw_ctx, const lv_draw_rect_dsc_t * dsc, const lv_area_t 
  35:lvgl/src/draw/sw/lv_draw_sw_rect.c **** 
  36:lvgl/src/draw/sw/lv_draw_sw_rect.c **** #if LV_DRAW_COMPLEX
  37:lvgl/src/draw/sw/lv_draw_sw_rect.c **** static void /* LV_ATTRIBUTE_FAST_MEM */ draw_shadow(lv_draw_ctx_t * draw_ctx, const lv_draw_rect_ds
  38:lvgl/src/draw/sw/lv_draw_sw_rect.c ****                                                     const lv_area_t * coords);
  39:lvgl/src/draw/sw/lv_draw_sw_rect.c **** static void /* LV_ATTRIBUTE_FAST_MEM */ shadow_draw_corner_buf(const lv_area_t * coords, uint16_t *
  40:lvgl/src/draw/sw/lv_draw_sw_rect.c ****                                                                lv_coord_t s, lv_coord_t r);
  41:lvgl/src/draw/sw/lv_draw_sw_rect.c **** static void /* LV_ATTRIBUTE_FAST_MEM */ shadow_blur_corner(lv_coord_t size, lv_coord_t sw, uint16_t
  42:lvgl/src/draw/sw/lv_draw_sw_rect.c **** #endif
  43:lvgl/src/draw/sw/lv_draw_sw_rect.c **** 
  44:lvgl/src/draw/sw/lv_draw_sw_rect.c **** void draw_border_generic(lv_draw_ctx_t * draw_ctx, const lv_area_t * outer_area, const lv_area_t * 
  45:lvgl/src/draw/sw/lv_draw_sw_rect.c ****                          lv_coord_t rout, lv_coord_t rin, lv_color_t color, lv_opa_t opa, lv_blend_
  46:lvgl/src/draw/sw/lv_draw_sw_rect.c **** 
  47:lvgl/src/draw/sw/lv_draw_sw_rect.c **** static void draw_border_simple(lv_draw_ctx_t * draw_ctx, const lv_area_t * outer_area, const lv_are
  48:lvgl/src/draw/sw/lv_draw_sw_rect.c ****                                lv_color_t color, lv_opa_t opa);
  49:lvgl/src/draw/sw/lv_draw_sw_rect.c **** 
  50:lvgl/src/draw/sw/lv_draw_sw_rect.c **** /**********************
  51:lvgl/src/draw/sw/lv_draw_sw_rect.c ****  *  STATIC VARIABLES
  52:lvgl/src/draw/sw/lv_draw_sw_rect.c ****  **********************/
  53:lvgl/src/draw/sw/lv_draw_sw_rect.c **** #if defined(LV_SHADOW_CACHE_SIZE) && LV_SHADOW_CACHE_SIZE > 0
  54:lvgl/src/draw/sw/lv_draw_sw_rect.c ****     static uint8_t sh_cache[LV_SHADOW_CACHE_SIZE * LV_SHADOW_CACHE_SIZE];
  55:lvgl/src/draw/sw/lv_draw_sw_rect.c ****     static int32_t sh_cache_size = -1;
  56:lvgl/src/draw/sw/lv_draw_sw_rect.c ****     static int32_t sh_cache_r = -1;
  57:lvgl/src/draw/sw/lv_draw_sw_rect.c **** #endif
  58:lvgl/src/draw/sw/lv_draw_sw_rect.c **** 
  59:lvgl/src/draw/sw/lv_draw_sw_rect.c **** /**********************
  60:lvgl/src/draw/sw/lv_draw_sw_rect.c ****  *      MACROS
  61:lvgl/src/draw/sw/lv_draw_sw_rect.c ****  **********************/
  62:lvgl/src/draw/sw/lv_draw_sw_rect.c **** 
  63:lvgl/src/draw/sw/lv_draw_sw_rect.c **** /**********************
  64:lvgl/src/draw/sw/lv_draw_sw_rect.c ****  *   GLOBAL FUNCTIONS
  65:lvgl/src/draw/sw/lv_draw_sw_rect.c ****  **********************/
  66:lvgl/src/draw/sw/lv_draw_sw_rect.c **** 
  67:lvgl/src/draw/sw/lv_draw_sw_rect.c **** void lv_draw_sw_rect(lv_draw_ctx_t * draw_ctx, const lv_draw_rect_dsc_t * dsc, const lv_area_t * co
  68:lvgl/src/draw/sw/lv_draw_sw_rect.c **** {
  69:lvgl/src/draw/sw/lv_draw_sw_rect.c **** #if LV_DRAW_COMPLEX
  70:lvgl/src/draw/sw/lv_draw_sw_rect.c ****     draw_shadow(draw_ctx, dsc, coords);
  71:lvgl/src/draw/sw/lv_draw_sw_rect.c **** #endif
  72:lvgl/src/draw/sw/lv_draw_sw_rect.c **** 
  73:lvgl/src/draw/sw/lv_draw_sw_rect.c ****     draw_bg(draw_ctx, dsc, coords);
  74:lvgl/src/draw/sw/lv_draw_sw_rect.c ****     draw_bg_img(draw_ctx, dsc, coords);
  75:lvgl/src/draw/sw/lv_draw_sw_rect.c **** 
  76:lvgl/src/draw/sw/lv_draw_sw_rect.c ****     draw_border(draw_ctx, dsc, coords);
  77:lvgl/src/draw/sw/lv_draw_sw_rect.c **** 
  78:lvgl/src/draw/sw/lv_draw_sw_rect.c ****     draw_outline(draw_ctx, dsc, coords);
  79:lvgl/src/draw/sw/lv_draw_sw_rect.c **** 
  80:lvgl/src/draw/sw/lv_draw_sw_rect.c ****     LV_ASSERT_MEM_INTEGRITY();
  81:lvgl/src/draw/sw/lv_draw_sw_rect.c **** }
  82:lvgl/src/draw/sw/lv_draw_sw_rect.c **** 
  83:lvgl/src/draw/sw/lv_draw_sw_rect.c **** void lv_draw_sw_bg(lv_draw_ctx_t * draw_ctx, const lv_draw_rect_dsc_t * dsc, const lv_area_t * coor
  84:lvgl/src/draw/sw/lv_draw_sw_rect.c **** {
  85:lvgl/src/draw/sw/lv_draw_sw_rect.c **** #if LV_COLOR_SCREEN_TRANSP && LV_COLOR_DEPTH == 32
  86:lvgl/src/draw/sw/lv_draw_sw_rect.c ****     lv_memset_00(draw_ctx->buf, lv_area_get_size(draw_ctx->buf_area) * sizeof(lv_color_t));
  87:lvgl/src/draw/sw/lv_draw_sw_rect.c **** #endif
  88:lvgl/src/draw/sw/lv_draw_sw_rect.c **** 
ARM GAS  C:\Users\OSD\AppData\Local\Temp\ccS6lZqb.s 			page 3


  89:lvgl/src/draw/sw/lv_draw_sw_rect.c ****     draw_bg(draw_ctx, dsc, coords);
  90:lvgl/src/draw/sw/lv_draw_sw_rect.c ****     draw_bg_img(draw_ctx, dsc, coords);
  91:lvgl/src/draw/sw/lv_draw_sw_rect.c **** }
  92:lvgl/src/draw/sw/lv_draw_sw_rect.c **** 
  93:lvgl/src/draw/sw/lv_draw_sw_rect.c **** /**********************
  94:lvgl/src/draw/sw/lv_draw_sw_rect.c ****  *   STATIC FUNCTIONS
  95:lvgl/src/draw/sw/lv_draw_sw_rect.c ****  **********************/
  96:lvgl/src/draw/sw/lv_draw_sw_rect.c **** 
  97:lvgl/src/draw/sw/lv_draw_sw_rect.c **** static void draw_bg(lv_draw_ctx_t * draw_ctx, const lv_draw_rect_dsc_t * dsc, const lv_area_t * coo
  98:lvgl/src/draw/sw/lv_draw_sw_rect.c **** {
  99:lvgl/src/draw/sw/lv_draw_sw_rect.c ****     if(dsc->bg_opa <= LV_OPA_MIN) return;
 100:lvgl/src/draw/sw/lv_draw_sw_rect.c **** 
 101:lvgl/src/draw/sw/lv_draw_sw_rect.c ****     lv_area_t bg_coords;
 102:lvgl/src/draw/sw/lv_draw_sw_rect.c ****     lv_area_copy(&bg_coords, coords);
 103:lvgl/src/draw/sw/lv_draw_sw_rect.c **** 
 104:lvgl/src/draw/sw/lv_draw_sw_rect.c ****     /*If the border fully covers make the bg area 1px smaller to avoid artifacts on the corners*/
 105:lvgl/src/draw/sw/lv_draw_sw_rect.c ****     if(dsc->border_width > 1 && dsc->border_opa >= LV_OPA_MAX && dsc->radius != 0) {
 106:lvgl/src/draw/sw/lv_draw_sw_rect.c ****         bg_coords.x1 += (dsc->border_side & LV_BORDER_SIDE_LEFT) ? 1 : 0;
 107:lvgl/src/draw/sw/lv_draw_sw_rect.c ****         bg_coords.y1 += (dsc->border_side & LV_BORDER_SIDE_TOP) ? 1 : 0;
 108:lvgl/src/draw/sw/lv_draw_sw_rect.c ****         bg_coords.x2 -= (dsc->border_side & LV_BORDER_SIDE_RIGHT) ? 1 : 0;
 109:lvgl/src/draw/sw/lv_draw_sw_rect.c ****         bg_coords.y2 -= (dsc->border_side & LV_BORDER_SIDE_BOTTOM) ? 1 : 0;
 110:lvgl/src/draw/sw/lv_draw_sw_rect.c ****     }
 111:lvgl/src/draw/sw/lv_draw_sw_rect.c **** 
 112:lvgl/src/draw/sw/lv_draw_sw_rect.c ****     lv_area_t clipped_coords;
 113:lvgl/src/draw/sw/lv_draw_sw_rect.c ****     if(!_lv_area_intersect(&clipped_coords, &bg_coords, draw_ctx->clip_area)) return;
 114:lvgl/src/draw/sw/lv_draw_sw_rect.c **** 
 115:lvgl/src/draw/sw/lv_draw_sw_rect.c ****     lv_grad_dir_t grad_dir = dsc->bg_grad.dir;
 116:lvgl/src/draw/sw/lv_draw_sw_rect.c ****     lv_color_t bg_color    = grad_dir == LV_GRAD_DIR_NONE ? dsc->bg_color : dsc->bg_grad.stops[0].c
 117:lvgl/src/draw/sw/lv_draw_sw_rect.c ****     if(bg_color.full == dsc->bg_grad.stops[1].color.full) grad_dir = LV_GRAD_DIR_NONE;
 118:lvgl/src/draw/sw/lv_draw_sw_rect.c **** 
 119:lvgl/src/draw/sw/lv_draw_sw_rect.c ****     bool mask_any = lv_draw_mask_is_any(&bg_coords);
 120:lvgl/src/draw/sw/lv_draw_sw_rect.c ****     lv_draw_sw_blend_dsc_t blend_dsc = {0};
 121:lvgl/src/draw/sw/lv_draw_sw_rect.c ****     blend_dsc.blend_mode = dsc->blend_mode;
 122:lvgl/src/draw/sw/lv_draw_sw_rect.c ****     blend_dsc.color = bg_color;
 123:lvgl/src/draw/sw/lv_draw_sw_rect.c **** 
 124:lvgl/src/draw/sw/lv_draw_sw_rect.c ****     /*Most simple case: just a plain rectangle*/
 125:lvgl/src/draw/sw/lv_draw_sw_rect.c ****     if(!mask_any && dsc->radius == 0 && (grad_dir == LV_GRAD_DIR_NONE)) {
 126:lvgl/src/draw/sw/lv_draw_sw_rect.c ****         blend_dsc.blend_area = &bg_coords;
 127:lvgl/src/draw/sw/lv_draw_sw_rect.c ****         blend_dsc.opa = dsc->bg_opa;
 128:lvgl/src/draw/sw/lv_draw_sw_rect.c ****         lv_draw_sw_blend(draw_ctx, &blend_dsc);
 129:lvgl/src/draw/sw/lv_draw_sw_rect.c ****         return;
 130:lvgl/src/draw/sw/lv_draw_sw_rect.c ****     }
 131:lvgl/src/draw/sw/lv_draw_sw_rect.c **** 
 132:lvgl/src/draw/sw/lv_draw_sw_rect.c ****     /*Complex case: there is gradient, mask, or radius*/
 133:lvgl/src/draw/sw/lv_draw_sw_rect.c **** #if LV_DRAW_COMPLEX == 0
 134:lvgl/src/draw/sw/lv_draw_sw_rect.c ****     LV_LOG_WARN("Can't draw complex rectangle because LV_DRAW_COMPLEX = 0");
 135:lvgl/src/draw/sw/lv_draw_sw_rect.c **** #else
 136:lvgl/src/draw/sw/lv_draw_sw_rect.c ****     lv_opa_t opa = dsc->bg_opa >= LV_OPA_MAX ? LV_OPA_COVER : dsc->bg_opa;
 137:lvgl/src/draw/sw/lv_draw_sw_rect.c **** 
 138:lvgl/src/draw/sw/lv_draw_sw_rect.c ****     /*Get the real radius. Can't be larger than the half of the shortest side */
 139:lvgl/src/draw/sw/lv_draw_sw_rect.c ****     lv_coord_t coords_bg_w = lv_area_get_width(&bg_coords);
 140:lvgl/src/draw/sw/lv_draw_sw_rect.c ****     lv_coord_t coords_bg_h = lv_area_get_height(&bg_coords);
 141:lvgl/src/draw/sw/lv_draw_sw_rect.c ****     int32_t short_side = LV_MIN(coords_bg_w, coords_bg_h);
 142:lvgl/src/draw/sw/lv_draw_sw_rect.c ****     int32_t rout = LV_MIN(dsc->radius, short_side >> 1);
 143:lvgl/src/draw/sw/lv_draw_sw_rect.c **** 
 144:lvgl/src/draw/sw/lv_draw_sw_rect.c ****     /*Add a radius mask if there is radius*/
 145:lvgl/src/draw/sw/lv_draw_sw_rect.c ****     int32_t clipped_w = lv_area_get_width(&clipped_coords);
ARM GAS  C:\Users\OSD\AppData\Local\Temp\ccS6lZqb.s 			page 4


 146:lvgl/src/draw/sw/lv_draw_sw_rect.c ****     int16_t mask_rout_id = LV_MASK_ID_INV;
 147:lvgl/src/draw/sw/lv_draw_sw_rect.c ****     lv_opa_t * mask_buf = NULL;
 148:lvgl/src/draw/sw/lv_draw_sw_rect.c ****     lv_draw_mask_radius_param_t mask_rout_param;
 149:lvgl/src/draw/sw/lv_draw_sw_rect.c ****     if(rout > 0 || mask_any) {
 150:lvgl/src/draw/sw/lv_draw_sw_rect.c ****         mask_buf = lv_mem_buf_get(clipped_w);
 151:lvgl/src/draw/sw/lv_draw_sw_rect.c ****         lv_draw_mask_radius_init(&mask_rout_param, &bg_coords, rout, false);
 152:lvgl/src/draw/sw/lv_draw_sw_rect.c ****         mask_rout_id = lv_draw_mask_add(&mask_rout_param, NULL);
 153:lvgl/src/draw/sw/lv_draw_sw_rect.c ****     }
 154:lvgl/src/draw/sw/lv_draw_sw_rect.c **** 
 155:lvgl/src/draw/sw/lv_draw_sw_rect.c ****     int32_t h;
 156:lvgl/src/draw/sw/lv_draw_sw_rect.c **** 
 157:lvgl/src/draw/sw/lv_draw_sw_rect.c ****     lv_area_t blend_area;
 158:lvgl/src/draw/sw/lv_draw_sw_rect.c ****     blend_area.x1 = clipped_coords.x1;
 159:lvgl/src/draw/sw/lv_draw_sw_rect.c ****     blend_area.x2 = clipped_coords.x2;
 160:lvgl/src/draw/sw/lv_draw_sw_rect.c **** 
 161:lvgl/src/draw/sw/lv_draw_sw_rect.c ****     blend_dsc.mask_buf = mask_buf;
 162:lvgl/src/draw/sw/lv_draw_sw_rect.c ****     blend_dsc.blend_area = &blend_area;
 163:lvgl/src/draw/sw/lv_draw_sw_rect.c ****     blend_dsc.mask_area = &blend_area;
 164:lvgl/src/draw/sw/lv_draw_sw_rect.c ****     blend_dsc.opa = LV_OPA_COVER;
 165:lvgl/src/draw/sw/lv_draw_sw_rect.c **** 
 166:lvgl/src/draw/sw/lv_draw_sw_rect.c ****     /*Get gradient if appropriate*/
 167:lvgl/src/draw/sw/lv_draw_sw_rect.c ****     lv_grad_t * grad = lv_gradient_get(&dsc->bg_grad, coords_bg_w, coords_bg_h);
 168:lvgl/src/draw/sw/lv_draw_sw_rect.c ****     if(grad && grad_dir == LV_GRAD_DIR_HOR) {
 169:lvgl/src/draw/sw/lv_draw_sw_rect.c ****         blend_dsc.src_buf = grad->map + clipped_coords.x1 - bg_coords.x1;
 170:lvgl/src/draw/sw/lv_draw_sw_rect.c ****     }
 171:lvgl/src/draw/sw/lv_draw_sw_rect.c **** 
 172:lvgl/src/draw/sw/lv_draw_sw_rect.c **** #if _DITHER_GRADIENT
 173:lvgl/src/draw/sw/lv_draw_sw_rect.c ****     lv_dither_mode_t dither_mode = dsc->bg_grad.dither;
 174:lvgl/src/draw/sw/lv_draw_sw_rect.c ****     lv_dither_func_t dither_func = &lv_dither_none;
 175:lvgl/src/draw/sw/lv_draw_sw_rect.c ****     lv_coord_t grad_size = coords_bg_w;
 176:lvgl/src/draw/sw/lv_draw_sw_rect.c ****     if(grad_dir == LV_GRAD_DIR_VER && dither_mode != LV_DITHER_NONE) {
 177:lvgl/src/draw/sw/lv_draw_sw_rect.c ****         /* When dithering, we are still using a map that's changing from line to line*/
 178:lvgl/src/draw/sw/lv_draw_sw_rect.c ****         blend_dsc.src_buf = grad->map;
 179:lvgl/src/draw/sw/lv_draw_sw_rect.c ****     }
 180:lvgl/src/draw/sw/lv_draw_sw_rect.c **** 
 181:lvgl/src/draw/sw/lv_draw_sw_rect.c ****     if(grad && dither_mode == LV_DITHER_NONE) {
 182:lvgl/src/draw/sw/lv_draw_sw_rect.c ****         grad->filled = 0; /*Should we force refilling it each draw call ?*/
 183:lvgl/src/draw/sw/lv_draw_sw_rect.c ****         if(grad_dir == LV_GRAD_DIR_VER)
 184:lvgl/src/draw/sw/lv_draw_sw_rect.c ****             grad_size = coords_bg_h;
 185:lvgl/src/draw/sw/lv_draw_sw_rect.c ****     }
 186:lvgl/src/draw/sw/lv_draw_sw_rect.c ****     else
 187:lvgl/src/draw/sw/lv_draw_sw_rect.c **** #if LV_DITHER_ERROR_DIFFUSION
 188:lvgl/src/draw/sw/lv_draw_sw_rect.c ****         if(dither_mode == LV_DITHER_ORDERED)
 189:lvgl/src/draw/sw/lv_draw_sw_rect.c **** #endif
 190:lvgl/src/draw/sw/lv_draw_sw_rect.c ****             switch(grad_dir) {
 191:lvgl/src/draw/sw/lv_draw_sw_rect.c ****                 case LV_GRAD_DIR_HOR:
 192:lvgl/src/draw/sw/lv_draw_sw_rect.c ****                     dither_func = lv_dither_ordered_hor;
 193:lvgl/src/draw/sw/lv_draw_sw_rect.c ****                     break;
 194:lvgl/src/draw/sw/lv_draw_sw_rect.c ****                 case LV_GRAD_DIR_VER:
 195:lvgl/src/draw/sw/lv_draw_sw_rect.c ****                     dither_func = lv_dither_ordered_ver;
 196:lvgl/src/draw/sw/lv_draw_sw_rect.c ****                     break;
 197:lvgl/src/draw/sw/lv_draw_sw_rect.c ****                 default:
 198:lvgl/src/draw/sw/lv_draw_sw_rect.c ****                     dither_func = NULL;
 199:lvgl/src/draw/sw/lv_draw_sw_rect.c ****             }
 200:lvgl/src/draw/sw/lv_draw_sw_rect.c **** 
 201:lvgl/src/draw/sw/lv_draw_sw_rect.c **** #if LV_DITHER_ERROR_DIFFUSION
 202:lvgl/src/draw/sw/lv_draw_sw_rect.c ****         else if(dither_mode == LV_DITHER_ERR_DIFF)
ARM GAS  C:\Users\OSD\AppData\Local\Temp\ccS6lZqb.s 			page 5


 203:lvgl/src/draw/sw/lv_draw_sw_rect.c ****             switch(grad_dir) {
 204:lvgl/src/draw/sw/lv_draw_sw_rect.c ****                 case LV_GRAD_DIR_HOR:
 205:lvgl/src/draw/sw/lv_draw_sw_rect.c ****                     dither_func = lv_dither_err_diff_hor;
 206:lvgl/src/draw/sw/lv_draw_sw_rect.c ****                     break;
 207:lvgl/src/draw/sw/lv_draw_sw_rect.c ****                 case LV_GRAD_DIR_VER:
 208:lvgl/src/draw/sw/lv_draw_sw_rect.c ****                     dither_func = lv_dither_err_diff_ver;
 209:lvgl/src/draw/sw/lv_draw_sw_rect.c ****                     break;
 210:lvgl/src/draw/sw/lv_draw_sw_rect.c ****                 default:
 211:lvgl/src/draw/sw/lv_draw_sw_rect.c ****                     dither_func = NULL;
 212:lvgl/src/draw/sw/lv_draw_sw_rect.c ****             }
 213:lvgl/src/draw/sw/lv_draw_sw_rect.c **** #endif
 214:lvgl/src/draw/sw/lv_draw_sw_rect.c **** #endif
 215:lvgl/src/draw/sw/lv_draw_sw_rect.c **** 
 216:lvgl/src/draw/sw/lv_draw_sw_rect.c ****     /*There is another mask too. Draw line by line. */
 217:lvgl/src/draw/sw/lv_draw_sw_rect.c ****     if(mask_any) {
 218:lvgl/src/draw/sw/lv_draw_sw_rect.c ****         for(h = clipped_coords.y1; h <= clipped_coords.y2; h++) {
 219:lvgl/src/draw/sw/lv_draw_sw_rect.c ****             blend_area.y1 = h;
 220:lvgl/src/draw/sw/lv_draw_sw_rect.c ****             blend_area.y2 = h;
 221:lvgl/src/draw/sw/lv_draw_sw_rect.c **** 
 222:lvgl/src/draw/sw/lv_draw_sw_rect.c ****             /* Initialize the mask to opa instead of 0xFF and blend with LV_OPA_COVER.
 223:lvgl/src/draw/sw/lv_draw_sw_rect.c ****              * It saves calculating the final opa in lv_draw_sw_blend*/
 224:lvgl/src/draw/sw/lv_draw_sw_rect.c ****             lv_memset(mask_buf, opa, clipped_w);
 225:lvgl/src/draw/sw/lv_draw_sw_rect.c ****             blend_dsc.mask_res = lv_draw_mask_apply(mask_buf, clipped_coords.x1, h, clipped_w);
 226:lvgl/src/draw/sw/lv_draw_sw_rect.c ****             if(blend_dsc.mask_res == LV_DRAW_MASK_RES_FULL_COVER) blend_dsc.mask_res = LV_DRAW_MASK
 227:lvgl/src/draw/sw/lv_draw_sw_rect.c **** 
 228:lvgl/src/draw/sw/lv_draw_sw_rect.c **** #if _DITHER_GRADIENT
 229:lvgl/src/draw/sw/lv_draw_sw_rect.c ****             if(dither_func) dither_func(grad, blend_area.x1,  h - bg_coords.y1, grad_size);
 230:lvgl/src/draw/sw/lv_draw_sw_rect.c **** #endif
 231:lvgl/src/draw/sw/lv_draw_sw_rect.c ****             if(grad_dir == LV_GRAD_DIR_VER) blend_dsc.color = grad->map[h - bg_coords.y1];
 232:lvgl/src/draw/sw/lv_draw_sw_rect.c ****             lv_draw_sw_blend(draw_ctx, &blend_dsc);
 233:lvgl/src/draw/sw/lv_draw_sw_rect.c ****         }
 234:lvgl/src/draw/sw/lv_draw_sw_rect.c ****         goto bg_clean_up;
 235:lvgl/src/draw/sw/lv_draw_sw_rect.c ****     }
 236:lvgl/src/draw/sw/lv_draw_sw_rect.c **** 
 237:lvgl/src/draw/sw/lv_draw_sw_rect.c ****     /* Draw the top of the rectangle line by line and mirror it to the bottom. */
 238:lvgl/src/draw/sw/lv_draw_sw_rect.c ****     for(h = 0; h < rout; h++) {
 239:lvgl/src/draw/sw/lv_draw_sw_rect.c ****         lv_coord_t top_y = bg_coords.y1 + h;
 240:lvgl/src/draw/sw/lv_draw_sw_rect.c ****         lv_coord_t bottom_y = bg_coords.y2 - h;
 241:lvgl/src/draw/sw/lv_draw_sw_rect.c ****         if(top_y < clipped_coords.y1 && bottom_y > clipped_coords.y2) continue;   /*This line is cl
 242:lvgl/src/draw/sw/lv_draw_sw_rect.c **** 
 243:lvgl/src/draw/sw/lv_draw_sw_rect.c ****         /* Initialize the mask to opa instead of 0xFF and blend with LV_OPA_COVER.
 244:lvgl/src/draw/sw/lv_draw_sw_rect.c ****          * It saves calculating the final opa in lv_draw_sw_blend*/
 245:lvgl/src/draw/sw/lv_draw_sw_rect.c ****         lv_memset(mask_buf, opa, clipped_w);
 246:lvgl/src/draw/sw/lv_draw_sw_rect.c ****         blend_dsc.mask_res = lv_draw_mask_apply(mask_buf, blend_area.x1, top_y, clipped_w);
 247:lvgl/src/draw/sw/lv_draw_sw_rect.c ****         if(blend_dsc.mask_res == LV_DRAW_MASK_RES_FULL_COVER) blend_dsc.mask_res = LV_DRAW_MASK_RES
 248:lvgl/src/draw/sw/lv_draw_sw_rect.c **** 
 249:lvgl/src/draw/sw/lv_draw_sw_rect.c ****         if(top_y >= clipped_coords.y1) {
 250:lvgl/src/draw/sw/lv_draw_sw_rect.c ****             blend_area.y1 = top_y;
 251:lvgl/src/draw/sw/lv_draw_sw_rect.c ****             blend_area.y2 = top_y;
 252:lvgl/src/draw/sw/lv_draw_sw_rect.c **** 
 253:lvgl/src/draw/sw/lv_draw_sw_rect.c **** #if _DITHER_GRADIENT
 254:lvgl/src/draw/sw/lv_draw_sw_rect.c ****             if(dither_func) dither_func(grad, blend_area.x1,  top_y - bg_coords.y1, grad_size);
 255:lvgl/src/draw/sw/lv_draw_sw_rect.c **** #endif
 256:lvgl/src/draw/sw/lv_draw_sw_rect.c ****             if(grad_dir == LV_GRAD_DIR_VER) blend_dsc.color = grad->map[top_y - bg_coords.y1];
 257:lvgl/src/draw/sw/lv_draw_sw_rect.c ****             lv_draw_sw_blend(draw_ctx, &blend_dsc);
 258:lvgl/src/draw/sw/lv_draw_sw_rect.c ****         }
 259:lvgl/src/draw/sw/lv_draw_sw_rect.c **** 
ARM GAS  C:\Users\OSD\AppData\Local\Temp\ccS6lZqb.s 			page 6


 260:lvgl/src/draw/sw/lv_draw_sw_rect.c ****         if(bottom_y <= clipped_coords.y2) {
 261:lvgl/src/draw/sw/lv_draw_sw_rect.c ****             blend_area.y1 = bottom_y;
 262:lvgl/src/draw/sw/lv_draw_sw_rect.c ****             blend_area.y2 = bottom_y;
 263:lvgl/src/draw/sw/lv_draw_sw_rect.c **** 
 264:lvgl/src/draw/sw/lv_draw_sw_rect.c **** #if _DITHER_GRADIENT
 265:lvgl/src/draw/sw/lv_draw_sw_rect.c ****             if(dither_func) dither_func(grad, blend_area.x1,  bottom_y - bg_coords.y1, grad_size);
 266:lvgl/src/draw/sw/lv_draw_sw_rect.c **** #endif
 267:lvgl/src/draw/sw/lv_draw_sw_rect.c ****             if(grad_dir == LV_GRAD_DIR_VER) blend_dsc.color = grad->map[bottom_y - bg_coords.y1];
 268:lvgl/src/draw/sw/lv_draw_sw_rect.c ****             lv_draw_sw_blend(draw_ctx, &blend_dsc);
 269:lvgl/src/draw/sw/lv_draw_sw_rect.c ****         }
 270:lvgl/src/draw/sw/lv_draw_sw_rect.c ****     }
 271:lvgl/src/draw/sw/lv_draw_sw_rect.c **** 
 272:lvgl/src/draw/sw/lv_draw_sw_rect.c ****     /* Draw the center of the rectangle.*/
 273:lvgl/src/draw/sw/lv_draw_sw_rect.c **** 
 274:lvgl/src/draw/sw/lv_draw_sw_rect.c ****     /*If no other masks and no gradient, the center is a simple rectangle*/
 275:lvgl/src/draw/sw/lv_draw_sw_rect.c ****     lv_area_t center_coords;
 276:lvgl/src/draw/sw/lv_draw_sw_rect.c ****     center_coords.x1 = bg_coords.x1;
 277:lvgl/src/draw/sw/lv_draw_sw_rect.c ****     center_coords.x2 = bg_coords.x2;
 278:lvgl/src/draw/sw/lv_draw_sw_rect.c ****     center_coords.y1 = bg_coords.y1 + rout;
 279:lvgl/src/draw/sw/lv_draw_sw_rect.c ****     center_coords.y2 = bg_coords.y2 - rout;
 280:lvgl/src/draw/sw/lv_draw_sw_rect.c ****     bool mask_any_center = lv_draw_mask_is_any(&center_coords);
 281:lvgl/src/draw/sw/lv_draw_sw_rect.c ****     if(!mask_any_center && grad_dir == LV_GRAD_DIR_NONE) {
 282:lvgl/src/draw/sw/lv_draw_sw_rect.c ****         blend_area.y1 = bg_coords.y1 + rout;
 283:lvgl/src/draw/sw/lv_draw_sw_rect.c ****         blend_area.y2 = bg_coords.y2 - rout;
 284:lvgl/src/draw/sw/lv_draw_sw_rect.c ****         blend_dsc.opa = opa;
 285:lvgl/src/draw/sw/lv_draw_sw_rect.c ****         blend_dsc.mask_buf = NULL;
 286:lvgl/src/draw/sw/lv_draw_sw_rect.c ****         lv_draw_sw_blend(draw_ctx, &blend_dsc);
 287:lvgl/src/draw/sw/lv_draw_sw_rect.c ****     }
 288:lvgl/src/draw/sw/lv_draw_sw_rect.c ****     /*With gradient and/or mask draw line by line*/
 289:lvgl/src/draw/sw/lv_draw_sw_rect.c ****     else {
 290:lvgl/src/draw/sw/lv_draw_sw_rect.c ****         blend_dsc.opa = opa;
 291:lvgl/src/draw/sw/lv_draw_sw_rect.c ****         blend_dsc.mask_res = LV_DRAW_MASK_RES_FULL_COVER;
 292:lvgl/src/draw/sw/lv_draw_sw_rect.c ****         int32_t h_end = bg_coords.y2 - rout;
 293:lvgl/src/draw/sw/lv_draw_sw_rect.c ****         for(h = bg_coords.y1 + rout; h <= h_end; h++) {
 294:lvgl/src/draw/sw/lv_draw_sw_rect.c ****             /*If there is no other mask do not apply mask as in the center there is no radius to ma
 295:lvgl/src/draw/sw/lv_draw_sw_rect.c ****             if(mask_any_center) {
 296:lvgl/src/draw/sw/lv_draw_sw_rect.c ****                 lv_memset(mask_buf, opa, clipped_w);
 297:lvgl/src/draw/sw/lv_draw_sw_rect.c ****                 blend_dsc.mask_res = lv_draw_mask_apply(mask_buf, clipped_coords.x1, h, clipped_w);
 298:lvgl/src/draw/sw/lv_draw_sw_rect.c ****             }
 299:lvgl/src/draw/sw/lv_draw_sw_rect.c **** 
 300:lvgl/src/draw/sw/lv_draw_sw_rect.c ****             blend_area.y1 = h;
 301:lvgl/src/draw/sw/lv_draw_sw_rect.c ****             blend_area.y2 = h;
 302:lvgl/src/draw/sw/lv_draw_sw_rect.c **** 
 303:lvgl/src/draw/sw/lv_draw_sw_rect.c **** #if _DITHER_GRADIENT
 304:lvgl/src/draw/sw/lv_draw_sw_rect.c ****             if(dither_func) dither_func(grad, blend_area.x1,  h - bg_coords.y1, grad_size);
 305:lvgl/src/draw/sw/lv_draw_sw_rect.c **** #endif
 306:lvgl/src/draw/sw/lv_draw_sw_rect.c ****             if(grad_dir == LV_GRAD_DIR_VER) blend_dsc.color = grad->map[h - bg_coords.y1];
 307:lvgl/src/draw/sw/lv_draw_sw_rect.c ****             lv_draw_sw_blend(draw_ctx, &blend_dsc);
 308:lvgl/src/draw/sw/lv_draw_sw_rect.c ****         }
 309:lvgl/src/draw/sw/lv_draw_sw_rect.c ****     }
 310:lvgl/src/draw/sw/lv_draw_sw_rect.c **** 
 311:lvgl/src/draw/sw/lv_draw_sw_rect.c **** bg_clean_up:
 312:lvgl/src/draw/sw/lv_draw_sw_rect.c ****     if(mask_buf) lv_mem_buf_release(mask_buf);
 313:lvgl/src/draw/sw/lv_draw_sw_rect.c ****     if(mask_rout_id != LV_MASK_ID_INV) {
 314:lvgl/src/draw/sw/lv_draw_sw_rect.c ****         lv_draw_mask_remove_id(mask_rout_id);
 315:lvgl/src/draw/sw/lv_draw_sw_rect.c ****         lv_draw_mask_free_param(&mask_rout_param);
 316:lvgl/src/draw/sw/lv_draw_sw_rect.c ****     }
ARM GAS  C:\Users\OSD\AppData\Local\Temp\ccS6lZqb.s 			page 7


 317:lvgl/src/draw/sw/lv_draw_sw_rect.c ****     if(grad) {
 318:lvgl/src/draw/sw/lv_draw_sw_rect.c ****         lv_gradient_cleanup(grad);
 319:lvgl/src/draw/sw/lv_draw_sw_rect.c ****     }
 320:lvgl/src/draw/sw/lv_draw_sw_rect.c **** 
 321:lvgl/src/draw/sw/lv_draw_sw_rect.c **** #endif
 322:lvgl/src/draw/sw/lv_draw_sw_rect.c **** }
 323:lvgl/src/draw/sw/lv_draw_sw_rect.c **** 
 324:lvgl/src/draw/sw/lv_draw_sw_rect.c **** static void draw_bg_img(lv_draw_ctx_t * draw_ctx, const lv_draw_rect_dsc_t * dsc, const lv_area_t *
 325:lvgl/src/draw/sw/lv_draw_sw_rect.c **** {
 326:lvgl/src/draw/sw/lv_draw_sw_rect.c ****     if(dsc->bg_img_src == NULL) return;
 327:lvgl/src/draw/sw/lv_draw_sw_rect.c ****     if(dsc->bg_img_opa <= LV_OPA_MIN) return;
 328:lvgl/src/draw/sw/lv_draw_sw_rect.c **** 
 329:lvgl/src/draw/sw/lv_draw_sw_rect.c ****     lv_area_t clip_area;
 330:lvgl/src/draw/sw/lv_draw_sw_rect.c ****     if(!_lv_area_intersect(&clip_area, coords, draw_ctx->clip_area)) {
 331:lvgl/src/draw/sw/lv_draw_sw_rect.c ****         return;
 332:lvgl/src/draw/sw/lv_draw_sw_rect.c ****     }
 333:lvgl/src/draw/sw/lv_draw_sw_rect.c **** 
 334:lvgl/src/draw/sw/lv_draw_sw_rect.c ****     const lv_area_t * clip_area_ori = draw_ctx->clip_area;
 335:lvgl/src/draw/sw/lv_draw_sw_rect.c ****     draw_ctx->clip_area = &clip_area;
 336:lvgl/src/draw/sw/lv_draw_sw_rect.c **** 
 337:lvgl/src/draw/sw/lv_draw_sw_rect.c ****     lv_img_src_t src_type = lv_img_src_get_type(dsc->bg_img_src);
 338:lvgl/src/draw/sw/lv_draw_sw_rect.c ****     if(src_type == LV_IMG_SRC_SYMBOL) {
 339:lvgl/src/draw/sw/lv_draw_sw_rect.c ****         lv_point_t size;
 340:lvgl/src/draw/sw/lv_draw_sw_rect.c ****         lv_txt_get_size(&size, dsc->bg_img_src, dsc->bg_img_symbol_font, 0, 0, LV_COORD_MAX, LV_TEX
 341:lvgl/src/draw/sw/lv_draw_sw_rect.c ****         lv_area_t a;
 342:lvgl/src/draw/sw/lv_draw_sw_rect.c ****         a.x1 = coords->x1 + lv_area_get_width(coords) / 2 - size.x / 2;
 343:lvgl/src/draw/sw/lv_draw_sw_rect.c ****         a.x2 = a.x1 + size.x - 1;
 344:lvgl/src/draw/sw/lv_draw_sw_rect.c ****         a.y1 = coords->y1 + lv_area_get_height(coords) / 2 - size.y / 2;
 345:lvgl/src/draw/sw/lv_draw_sw_rect.c ****         a.y2 = a.y1 + size.y - 1;
 346:lvgl/src/draw/sw/lv_draw_sw_rect.c **** 
 347:lvgl/src/draw/sw/lv_draw_sw_rect.c ****         lv_draw_label_dsc_t label_draw_dsc;
 348:lvgl/src/draw/sw/lv_draw_sw_rect.c ****         lv_draw_label_dsc_init(&label_draw_dsc);
 349:lvgl/src/draw/sw/lv_draw_sw_rect.c ****         label_draw_dsc.font = dsc->bg_img_symbol_font;
 350:lvgl/src/draw/sw/lv_draw_sw_rect.c ****         label_draw_dsc.color = dsc->bg_img_recolor;
 351:lvgl/src/draw/sw/lv_draw_sw_rect.c ****         label_draw_dsc.opa = dsc->bg_img_opa;
 352:lvgl/src/draw/sw/lv_draw_sw_rect.c ****         lv_draw_label(draw_ctx, &label_draw_dsc, &a, dsc->bg_img_src, NULL);
 353:lvgl/src/draw/sw/lv_draw_sw_rect.c ****     }
 354:lvgl/src/draw/sw/lv_draw_sw_rect.c ****     else {
 355:lvgl/src/draw/sw/lv_draw_sw_rect.c ****         lv_img_header_t header;
 356:lvgl/src/draw/sw/lv_draw_sw_rect.c ****         lv_res_t res = lv_img_decoder_get_info(dsc->bg_img_src, &header);
 357:lvgl/src/draw/sw/lv_draw_sw_rect.c ****         if(res == LV_RES_OK) {
 358:lvgl/src/draw/sw/lv_draw_sw_rect.c ****             lv_draw_img_dsc_t img_dsc;
 359:lvgl/src/draw/sw/lv_draw_sw_rect.c ****             lv_draw_img_dsc_init(&img_dsc);
 360:lvgl/src/draw/sw/lv_draw_sw_rect.c ****             img_dsc.blend_mode = dsc->blend_mode;
 361:lvgl/src/draw/sw/lv_draw_sw_rect.c ****             img_dsc.recolor = dsc->bg_img_recolor;
 362:lvgl/src/draw/sw/lv_draw_sw_rect.c ****             img_dsc.recolor_opa = dsc->bg_img_recolor_opa;
 363:lvgl/src/draw/sw/lv_draw_sw_rect.c ****             img_dsc.opa = dsc->bg_img_opa;
 364:lvgl/src/draw/sw/lv_draw_sw_rect.c **** 
 365:lvgl/src/draw/sw/lv_draw_sw_rect.c ****             /*Center align*/
 366:lvgl/src/draw/sw/lv_draw_sw_rect.c ****             if(dsc->bg_img_tiled == false) {
 367:lvgl/src/draw/sw/lv_draw_sw_rect.c ****                 lv_area_t area;
 368:lvgl/src/draw/sw/lv_draw_sw_rect.c ****                 area.x1 = coords->x1 + lv_area_get_width(coords) / 2 - header.w / 2;
 369:lvgl/src/draw/sw/lv_draw_sw_rect.c ****                 area.y1 = coords->y1 + lv_area_get_height(coords) / 2 - header.h / 2;
 370:lvgl/src/draw/sw/lv_draw_sw_rect.c ****                 area.x2 = area.x1 + header.w - 1;
 371:lvgl/src/draw/sw/lv_draw_sw_rect.c ****                 area.y2 = area.y1 + header.h - 1;
 372:lvgl/src/draw/sw/lv_draw_sw_rect.c **** 
 373:lvgl/src/draw/sw/lv_draw_sw_rect.c ****                 lv_draw_img(draw_ctx, &img_dsc, &area, dsc->bg_img_src);
ARM GAS  C:\Users\OSD\AppData\Local\Temp\ccS6lZqb.s 			page 8


 374:lvgl/src/draw/sw/lv_draw_sw_rect.c ****             }
 375:lvgl/src/draw/sw/lv_draw_sw_rect.c ****             else {
 376:lvgl/src/draw/sw/lv_draw_sw_rect.c ****                 lv_area_t area;
 377:lvgl/src/draw/sw/lv_draw_sw_rect.c ****                 area.y1 = coords->y1;
 378:lvgl/src/draw/sw/lv_draw_sw_rect.c ****                 area.y2 = area.y1 + header.h - 1;
 379:lvgl/src/draw/sw/lv_draw_sw_rect.c **** 
 380:lvgl/src/draw/sw/lv_draw_sw_rect.c ****                 for(; area.y1 <= coords->y2; area.y1 += header.h, area.y2 += header.h) {
 381:lvgl/src/draw/sw/lv_draw_sw_rect.c **** 
 382:lvgl/src/draw/sw/lv_draw_sw_rect.c ****                     area.x1 = coords->x1;
 383:lvgl/src/draw/sw/lv_draw_sw_rect.c ****                     area.x2 = area.x1 + header.w - 1;
 384:lvgl/src/draw/sw/lv_draw_sw_rect.c ****                     for(; area.x1 <= coords->x2; area.x1 += header.w, area.x2 += header.w) {
 385:lvgl/src/draw/sw/lv_draw_sw_rect.c ****                         lv_draw_img(draw_ctx, &img_dsc, &area, dsc->bg_img_src);
 386:lvgl/src/draw/sw/lv_draw_sw_rect.c ****                     }
 387:lvgl/src/draw/sw/lv_draw_sw_rect.c ****                 }
 388:lvgl/src/draw/sw/lv_draw_sw_rect.c ****             }
 389:lvgl/src/draw/sw/lv_draw_sw_rect.c ****         }
 390:lvgl/src/draw/sw/lv_draw_sw_rect.c ****         else {
 391:lvgl/src/draw/sw/lv_draw_sw_rect.c ****             LV_LOG_WARN("Couldn't read the background image");
 392:lvgl/src/draw/sw/lv_draw_sw_rect.c ****         }
 393:lvgl/src/draw/sw/lv_draw_sw_rect.c ****     }
 394:lvgl/src/draw/sw/lv_draw_sw_rect.c **** 
 395:lvgl/src/draw/sw/lv_draw_sw_rect.c ****     draw_ctx->clip_area = clip_area_ori;
 396:lvgl/src/draw/sw/lv_draw_sw_rect.c **** }
 397:lvgl/src/draw/sw/lv_draw_sw_rect.c **** 
 398:lvgl/src/draw/sw/lv_draw_sw_rect.c **** static void draw_border(lv_draw_ctx_t * draw_ctx, const lv_draw_rect_dsc_t * dsc, const lv_area_t *
 399:lvgl/src/draw/sw/lv_draw_sw_rect.c **** {
 400:lvgl/src/draw/sw/lv_draw_sw_rect.c ****     if(dsc->border_opa <= LV_OPA_MIN) return;
 401:lvgl/src/draw/sw/lv_draw_sw_rect.c ****     if(dsc->border_width == 0) return;
 402:lvgl/src/draw/sw/lv_draw_sw_rect.c ****     if(dsc->border_side == LV_BORDER_SIDE_NONE) return;
 403:lvgl/src/draw/sw/lv_draw_sw_rect.c ****     if(dsc->border_post) return;
 404:lvgl/src/draw/sw/lv_draw_sw_rect.c **** 
 405:lvgl/src/draw/sw/lv_draw_sw_rect.c ****     int32_t coords_w = lv_area_get_width(coords);
 406:lvgl/src/draw/sw/lv_draw_sw_rect.c ****     int32_t coords_h = lv_area_get_height(coords);
 407:lvgl/src/draw/sw/lv_draw_sw_rect.c ****     int32_t rout = dsc->radius;
 408:lvgl/src/draw/sw/lv_draw_sw_rect.c ****     int32_t short_side = LV_MIN(coords_w, coords_h);
 409:lvgl/src/draw/sw/lv_draw_sw_rect.c ****     if(rout > short_side >> 1) rout = short_side >> 1;
 410:lvgl/src/draw/sw/lv_draw_sw_rect.c **** 
 411:lvgl/src/draw/sw/lv_draw_sw_rect.c ****     /*Get the inner area*/
 412:lvgl/src/draw/sw/lv_draw_sw_rect.c ****     lv_area_t area_inner;
 413:lvgl/src/draw/sw/lv_draw_sw_rect.c ****     lv_area_copy(&area_inner, coords);
 414:lvgl/src/draw/sw/lv_draw_sw_rect.c ****     area_inner.x1 += ((dsc->border_side & LV_BORDER_SIDE_LEFT) ? dsc->border_width : - (dsc->border
 415:lvgl/src/draw/sw/lv_draw_sw_rect.c ****     area_inner.x2 -= ((dsc->border_side & LV_BORDER_SIDE_RIGHT) ? dsc->border_width : - (dsc->borde
 416:lvgl/src/draw/sw/lv_draw_sw_rect.c ****     area_inner.y1 += ((dsc->border_side & LV_BORDER_SIDE_TOP) ? dsc->border_width : - (dsc->border_
 417:lvgl/src/draw/sw/lv_draw_sw_rect.c ****     area_inner.y2 -= ((dsc->border_side & LV_BORDER_SIDE_BOTTOM) ? dsc->border_width : - (dsc->bord
 418:lvgl/src/draw/sw/lv_draw_sw_rect.c **** 
 419:lvgl/src/draw/sw/lv_draw_sw_rect.c ****     lv_coord_t rin = rout - dsc->border_width;
 420:lvgl/src/draw/sw/lv_draw_sw_rect.c ****     if(rin < 0) rin = 0;
 421:lvgl/src/draw/sw/lv_draw_sw_rect.c **** 
 422:lvgl/src/draw/sw/lv_draw_sw_rect.c ****     draw_border_generic(draw_ctx, coords, &area_inner, rout, rin, dsc->border_color, dsc->border_op
 423:lvgl/src/draw/sw/lv_draw_sw_rect.c **** 
 424:lvgl/src/draw/sw/lv_draw_sw_rect.c **** }
 425:lvgl/src/draw/sw/lv_draw_sw_rect.c **** 
 426:lvgl/src/draw/sw/lv_draw_sw_rect.c **** #if LV_DRAW_COMPLEX
 427:lvgl/src/draw/sw/lv_draw_sw_rect.c **** static void LV_ATTRIBUTE_FAST_MEM draw_shadow(lv_draw_ctx_t * draw_ctx, const lv_draw_rect_dsc_t * 
 428:lvgl/src/draw/sw/lv_draw_sw_rect.c ****                                               const lv_area_t * coords)
 429:lvgl/src/draw/sw/lv_draw_sw_rect.c **** {
 430:lvgl/src/draw/sw/lv_draw_sw_rect.c ****     /*Check whether the shadow is visible*/
ARM GAS  C:\Users\OSD\AppData\Local\Temp\ccS6lZqb.s 			page 9


 431:lvgl/src/draw/sw/lv_draw_sw_rect.c ****     if(dsc->shadow_width == 0) return;
 432:lvgl/src/draw/sw/lv_draw_sw_rect.c ****     if(dsc->shadow_opa <= LV_OPA_MIN) return;
 433:lvgl/src/draw/sw/lv_draw_sw_rect.c **** 
 434:lvgl/src/draw/sw/lv_draw_sw_rect.c ****     if(dsc->shadow_width == 1 && dsc->shadow_spread <= 0 &&
 435:lvgl/src/draw/sw/lv_draw_sw_rect.c ****        dsc->shadow_ofs_x == 0 && dsc->shadow_ofs_y == 0) {
 436:lvgl/src/draw/sw/lv_draw_sw_rect.c ****         return;
 437:lvgl/src/draw/sw/lv_draw_sw_rect.c ****     }
 438:lvgl/src/draw/sw/lv_draw_sw_rect.c **** 
 439:lvgl/src/draw/sw/lv_draw_sw_rect.c ****     /*Calculate the rectangle which is blurred to get the shadow in `shadow_area`*/
 440:lvgl/src/draw/sw/lv_draw_sw_rect.c ****     lv_area_t core_area;
 441:lvgl/src/draw/sw/lv_draw_sw_rect.c ****     core_area.x1 = coords->x1  + dsc->shadow_ofs_x - dsc->shadow_spread;
 442:lvgl/src/draw/sw/lv_draw_sw_rect.c ****     core_area.x2 = coords->x2  + dsc->shadow_ofs_x + dsc->shadow_spread;
 443:lvgl/src/draw/sw/lv_draw_sw_rect.c ****     core_area.y1 = coords->y1  + dsc->shadow_ofs_y - dsc->shadow_spread;
 444:lvgl/src/draw/sw/lv_draw_sw_rect.c ****     core_area.y2 = coords->y2  + dsc->shadow_ofs_y + dsc->shadow_spread;
 445:lvgl/src/draw/sw/lv_draw_sw_rect.c **** 
 446:lvgl/src/draw/sw/lv_draw_sw_rect.c ****     /*Calculate the bounding box of the shadow*/
 447:lvgl/src/draw/sw/lv_draw_sw_rect.c ****     lv_area_t shadow_area;
 448:lvgl/src/draw/sw/lv_draw_sw_rect.c ****     shadow_area.x1 = core_area.x1 - dsc->shadow_width / 2 - 1;
 449:lvgl/src/draw/sw/lv_draw_sw_rect.c ****     shadow_area.x2 = core_area.x2 + dsc->shadow_width / 2 + 1;
 450:lvgl/src/draw/sw/lv_draw_sw_rect.c ****     shadow_area.y1 = core_area.y1 - dsc->shadow_width / 2 - 1;
 451:lvgl/src/draw/sw/lv_draw_sw_rect.c ****     shadow_area.y2 = core_area.y2 + dsc->shadow_width / 2 + 1;
 452:lvgl/src/draw/sw/lv_draw_sw_rect.c **** 
 453:lvgl/src/draw/sw/lv_draw_sw_rect.c ****     lv_opa_t opa = dsc->shadow_opa;
 454:lvgl/src/draw/sw/lv_draw_sw_rect.c ****     if(opa > LV_OPA_MAX) opa = LV_OPA_COVER;
 455:lvgl/src/draw/sw/lv_draw_sw_rect.c **** 
 456:lvgl/src/draw/sw/lv_draw_sw_rect.c ****     /*Get clipped draw area which is the real draw area.
 457:lvgl/src/draw/sw/lv_draw_sw_rect.c ****      *It is always the same or inside `shadow_area`*/
 458:lvgl/src/draw/sw/lv_draw_sw_rect.c ****     lv_area_t draw_area;
 459:lvgl/src/draw/sw/lv_draw_sw_rect.c ****     if(!_lv_area_intersect(&draw_area, &shadow_area, draw_ctx->clip_area)) return;
 460:lvgl/src/draw/sw/lv_draw_sw_rect.c **** 
 461:lvgl/src/draw/sw/lv_draw_sw_rect.c ****     /*Consider 1 px smaller bg to be sure the edge will be covered by the shadow*/
 462:lvgl/src/draw/sw/lv_draw_sw_rect.c ****     lv_area_t bg_area;
 463:lvgl/src/draw/sw/lv_draw_sw_rect.c ****     lv_area_copy(&bg_area, coords);
 464:lvgl/src/draw/sw/lv_draw_sw_rect.c ****     lv_area_increase(&bg_area, -1, -1);
 465:lvgl/src/draw/sw/lv_draw_sw_rect.c **** 
 466:lvgl/src/draw/sw/lv_draw_sw_rect.c ****     /*Get the clamped radius*/
 467:lvgl/src/draw/sw/lv_draw_sw_rect.c ****     int32_t r_bg = dsc->radius;
 468:lvgl/src/draw/sw/lv_draw_sw_rect.c ****     lv_coord_t short_side = LV_MIN(lv_area_get_width(&bg_area), lv_area_get_height(&bg_area));
 469:lvgl/src/draw/sw/lv_draw_sw_rect.c ****     if(r_bg > short_side >> 1) r_bg = short_side >> 1;
 470:lvgl/src/draw/sw/lv_draw_sw_rect.c **** 
 471:lvgl/src/draw/sw/lv_draw_sw_rect.c ****     /*Get the clamped radius*/
 472:lvgl/src/draw/sw/lv_draw_sw_rect.c ****     int32_t r_sh = dsc->radius;
 473:lvgl/src/draw/sw/lv_draw_sw_rect.c ****     short_side = LV_MIN(lv_area_get_width(&core_area), lv_area_get_height(&core_area));
 474:lvgl/src/draw/sw/lv_draw_sw_rect.c ****     if(r_sh > short_side >> 1) r_sh = short_side >> 1;
 475:lvgl/src/draw/sw/lv_draw_sw_rect.c **** 
 476:lvgl/src/draw/sw/lv_draw_sw_rect.c ****     /*Get how many pixels are affected by the blur on the corners*/
 477:lvgl/src/draw/sw/lv_draw_sw_rect.c ****     int32_t corner_size = dsc->shadow_width  + r_sh;
 478:lvgl/src/draw/sw/lv_draw_sw_rect.c **** 
 479:lvgl/src/draw/sw/lv_draw_sw_rect.c ****     lv_opa_t * sh_buf;
 480:lvgl/src/draw/sw/lv_draw_sw_rect.c **** 
 481:lvgl/src/draw/sw/lv_draw_sw_rect.c **** #if LV_SHADOW_CACHE_SIZE
 482:lvgl/src/draw/sw/lv_draw_sw_rect.c ****     if(sh_cache_size == corner_size && sh_cache_r == r_sh) {
 483:lvgl/src/draw/sw/lv_draw_sw_rect.c ****         /*Use the cache if available*/
 484:lvgl/src/draw/sw/lv_draw_sw_rect.c ****         sh_buf = lv_mem_buf_get(corner_size * corner_size);
 485:lvgl/src/draw/sw/lv_draw_sw_rect.c ****         lv_memcpy(sh_buf, sh_cache, corner_size * corner_size);
 486:lvgl/src/draw/sw/lv_draw_sw_rect.c ****     }
 487:lvgl/src/draw/sw/lv_draw_sw_rect.c ****     else {
ARM GAS  C:\Users\OSD\AppData\Local\Temp\ccS6lZqb.s 			page 10


 488:lvgl/src/draw/sw/lv_draw_sw_rect.c ****         /*A larger buffer is required for calculation*/
 489:lvgl/src/draw/sw/lv_draw_sw_rect.c ****         sh_buf = lv_mem_buf_get(corner_size * corner_size * sizeof(uint16_t));
 490:lvgl/src/draw/sw/lv_draw_sw_rect.c ****         shadow_draw_corner_buf(&core_area, (uint16_t *)sh_buf, dsc->shadow_width, r_sh);
 491:lvgl/src/draw/sw/lv_draw_sw_rect.c **** 
 492:lvgl/src/draw/sw/lv_draw_sw_rect.c ****         /*Cache the corner if it fits into the cache size*/
 493:lvgl/src/draw/sw/lv_draw_sw_rect.c ****         if((uint32_t)corner_size * corner_size < sizeof(sh_cache)) {
 494:lvgl/src/draw/sw/lv_draw_sw_rect.c ****             lv_memcpy(sh_cache, sh_buf, corner_size * corner_size);
 495:lvgl/src/draw/sw/lv_draw_sw_rect.c ****             sh_cache_size = corner_size;
 496:lvgl/src/draw/sw/lv_draw_sw_rect.c ****             sh_cache_r = r_sh;
 497:lvgl/src/draw/sw/lv_draw_sw_rect.c ****         }
 498:lvgl/src/draw/sw/lv_draw_sw_rect.c ****     }
 499:lvgl/src/draw/sw/lv_draw_sw_rect.c **** #else
 500:lvgl/src/draw/sw/lv_draw_sw_rect.c ****     sh_buf = lv_mem_buf_get(corner_size * corner_size * sizeof(uint16_t));
 501:lvgl/src/draw/sw/lv_draw_sw_rect.c ****     shadow_draw_corner_buf(&core_area, (uint16_t *)sh_buf, dsc->shadow_width, r_sh);
 502:lvgl/src/draw/sw/lv_draw_sw_rect.c **** #endif
 503:lvgl/src/draw/sw/lv_draw_sw_rect.c **** 
 504:lvgl/src/draw/sw/lv_draw_sw_rect.c ****     /*Skip a lot of masking if the background will cover the shadow that would be masked out*/
 505:lvgl/src/draw/sw/lv_draw_sw_rect.c ****     bool mask_any = lv_draw_mask_is_any(&shadow_area);
 506:lvgl/src/draw/sw/lv_draw_sw_rect.c ****     bool simple = true;
 507:lvgl/src/draw/sw/lv_draw_sw_rect.c ****     if(mask_any || dsc->bg_opa < LV_OPA_COVER || dsc->blend_mode != LV_BLEND_MODE_NORMAL) simple = 
 508:lvgl/src/draw/sw/lv_draw_sw_rect.c **** 
 509:lvgl/src/draw/sw/lv_draw_sw_rect.c ****     /*Create a radius mask to clip remove shadow on the bg area*/
 510:lvgl/src/draw/sw/lv_draw_sw_rect.c **** 
 511:lvgl/src/draw/sw/lv_draw_sw_rect.c ****     lv_draw_mask_radius_param_t mask_rout_param;
 512:lvgl/src/draw/sw/lv_draw_sw_rect.c ****     int16_t mask_rout_id = LV_MASK_ID_INV;
 513:lvgl/src/draw/sw/lv_draw_sw_rect.c ****     if(!simple) {
 514:lvgl/src/draw/sw/lv_draw_sw_rect.c ****         lv_draw_mask_radius_init(&mask_rout_param, &bg_area, r_bg, true);
 515:lvgl/src/draw/sw/lv_draw_sw_rect.c ****         mask_rout_id = lv_draw_mask_add(&mask_rout_param, NULL);
 516:lvgl/src/draw/sw/lv_draw_sw_rect.c ****     }
 517:lvgl/src/draw/sw/lv_draw_sw_rect.c ****     lv_opa_t * mask_buf = lv_mem_buf_get(lv_area_get_width(&shadow_area));
 518:lvgl/src/draw/sw/lv_draw_sw_rect.c ****     lv_area_t blend_area;
 519:lvgl/src/draw/sw/lv_draw_sw_rect.c ****     lv_area_t clip_area_sub;
 520:lvgl/src/draw/sw/lv_draw_sw_rect.c ****     lv_opa_t * sh_buf_tmp;
 521:lvgl/src/draw/sw/lv_draw_sw_rect.c ****     lv_coord_t y;
 522:lvgl/src/draw/sw/lv_draw_sw_rect.c ****     bool simple_sub;
 523:lvgl/src/draw/sw/lv_draw_sw_rect.c **** 
 524:lvgl/src/draw/sw/lv_draw_sw_rect.c ****     lv_draw_sw_blend_dsc_t blend_dsc;
 525:lvgl/src/draw/sw/lv_draw_sw_rect.c ****     lv_memset_00(&blend_dsc, sizeof(blend_dsc));
 526:lvgl/src/draw/sw/lv_draw_sw_rect.c ****     blend_dsc.blend_area = &blend_area;
 527:lvgl/src/draw/sw/lv_draw_sw_rect.c ****     blend_dsc.mask_area = &blend_area;
 528:lvgl/src/draw/sw/lv_draw_sw_rect.c ****     blend_dsc.mask_buf = mask_buf;
 529:lvgl/src/draw/sw/lv_draw_sw_rect.c ****     blend_dsc.color = dsc->shadow_color;
 530:lvgl/src/draw/sw/lv_draw_sw_rect.c ****     blend_dsc.opa = dsc->shadow_opa;
 531:lvgl/src/draw/sw/lv_draw_sw_rect.c ****     blend_dsc.blend_mode = dsc->blend_mode;
 532:lvgl/src/draw/sw/lv_draw_sw_rect.c **** 
 533:lvgl/src/draw/sw/lv_draw_sw_rect.c ****     lv_coord_t w_half = shadow_area.x1 + lv_area_get_width(&shadow_area) / 2;
 534:lvgl/src/draw/sw/lv_draw_sw_rect.c ****     lv_coord_t h_half = shadow_area.y1 + lv_area_get_height(&shadow_area) / 2;
 535:lvgl/src/draw/sw/lv_draw_sw_rect.c **** 
 536:lvgl/src/draw/sw/lv_draw_sw_rect.c ****     /*Draw the corners if they are on the current clip area and not fully covered by the bg*/
 537:lvgl/src/draw/sw/lv_draw_sw_rect.c **** 
 538:lvgl/src/draw/sw/lv_draw_sw_rect.c ****     /*Top right corner*/
 539:lvgl/src/draw/sw/lv_draw_sw_rect.c ****     blend_area.x2 = shadow_area.x2;
 540:lvgl/src/draw/sw/lv_draw_sw_rect.c ****     blend_area.x1 = shadow_area.x2 - corner_size + 1;
 541:lvgl/src/draw/sw/lv_draw_sw_rect.c ****     blend_area.y1 = shadow_area.y1;
 542:lvgl/src/draw/sw/lv_draw_sw_rect.c ****     blend_area.y2 = shadow_area.y1 + corner_size - 1;
 543:lvgl/src/draw/sw/lv_draw_sw_rect.c ****     /*Do not overdraw the other top corners*/
 544:lvgl/src/draw/sw/lv_draw_sw_rect.c ****     blend_area.x1 = LV_MAX(blend_area.x1, w_half);
ARM GAS  C:\Users\OSD\AppData\Local\Temp\ccS6lZqb.s 			page 11


 545:lvgl/src/draw/sw/lv_draw_sw_rect.c ****     blend_area.y2 = LV_MIN(blend_area.y2, h_half);
 546:lvgl/src/draw/sw/lv_draw_sw_rect.c **** 
 547:lvgl/src/draw/sw/lv_draw_sw_rect.c ****     if(_lv_area_intersect(&clip_area_sub, &blend_area, draw_ctx->clip_area) &&
 548:lvgl/src/draw/sw/lv_draw_sw_rect.c ****        !_lv_area_is_in(&clip_area_sub, &bg_area, r_bg)) {
 549:lvgl/src/draw/sw/lv_draw_sw_rect.c ****         lv_coord_t w = lv_area_get_width(&clip_area_sub);
 550:lvgl/src/draw/sw/lv_draw_sw_rect.c ****         sh_buf_tmp = sh_buf;
 551:lvgl/src/draw/sw/lv_draw_sw_rect.c ****         sh_buf_tmp += (clip_area_sub.y1 - shadow_area.y1) * corner_size;
 552:lvgl/src/draw/sw/lv_draw_sw_rect.c ****         sh_buf_tmp += clip_area_sub.x1 - (shadow_area.x2 - corner_size + 1);
 553:lvgl/src/draw/sw/lv_draw_sw_rect.c **** 
 554:lvgl/src/draw/sw/lv_draw_sw_rect.c ****         /*Do not mask if out of the bg*/
 555:lvgl/src/draw/sw/lv_draw_sw_rect.c ****         if(simple && _lv_area_is_out(&clip_area_sub, &bg_area, r_bg)) simple_sub = true;
 556:lvgl/src/draw/sw/lv_draw_sw_rect.c ****         else simple_sub = simple;
 557:lvgl/src/draw/sw/lv_draw_sw_rect.c ****         if(w > 0) {
 558:lvgl/src/draw/sw/lv_draw_sw_rect.c ****             blend_dsc.mask_buf = mask_buf;
 559:lvgl/src/draw/sw/lv_draw_sw_rect.c ****             blend_area.x1 = clip_area_sub.x1;
 560:lvgl/src/draw/sw/lv_draw_sw_rect.c ****             blend_area.x2 = clip_area_sub.x2;
 561:lvgl/src/draw/sw/lv_draw_sw_rect.c ****             blend_dsc.mask_res = LV_DRAW_MASK_RES_CHANGED;    /*In simple mode it won't be overwrit
 562:lvgl/src/draw/sw/lv_draw_sw_rect.c ****             for(y = clip_area_sub.y1; y <= clip_area_sub.y2; y++) {
 563:lvgl/src/draw/sw/lv_draw_sw_rect.c ****                 blend_area.y1 = y;
 564:lvgl/src/draw/sw/lv_draw_sw_rect.c ****                 blend_area.y2 = y;
 565:lvgl/src/draw/sw/lv_draw_sw_rect.c **** 
 566:lvgl/src/draw/sw/lv_draw_sw_rect.c ****                 if(!simple_sub) {
 567:lvgl/src/draw/sw/lv_draw_sw_rect.c ****                     lv_memcpy(mask_buf, sh_buf_tmp, corner_size);
 568:lvgl/src/draw/sw/lv_draw_sw_rect.c ****                     blend_dsc.mask_res = lv_draw_mask_apply(mask_buf, clip_area_sub.x1, y, w);
 569:lvgl/src/draw/sw/lv_draw_sw_rect.c ****                     if(blend_dsc.mask_res == LV_DRAW_MASK_RES_FULL_COVER) blend_dsc.mask_res = LV_D
 570:lvgl/src/draw/sw/lv_draw_sw_rect.c ****                 }
 571:lvgl/src/draw/sw/lv_draw_sw_rect.c ****                 else {
 572:lvgl/src/draw/sw/lv_draw_sw_rect.c ****                     blend_dsc.mask_buf = sh_buf_tmp;
 573:lvgl/src/draw/sw/lv_draw_sw_rect.c ****                 }
 574:lvgl/src/draw/sw/lv_draw_sw_rect.c ****                 lv_draw_sw_blend(draw_ctx, &blend_dsc);
 575:lvgl/src/draw/sw/lv_draw_sw_rect.c ****                 sh_buf_tmp += corner_size;
 576:lvgl/src/draw/sw/lv_draw_sw_rect.c ****             }
 577:lvgl/src/draw/sw/lv_draw_sw_rect.c ****         }
 578:lvgl/src/draw/sw/lv_draw_sw_rect.c ****     }
 579:lvgl/src/draw/sw/lv_draw_sw_rect.c **** 
 580:lvgl/src/draw/sw/lv_draw_sw_rect.c ****     /*Bottom right corner.
 581:lvgl/src/draw/sw/lv_draw_sw_rect.c ****      *Almost the same as top right just read the lines of `sh_buf` from then end*/
 582:lvgl/src/draw/sw/lv_draw_sw_rect.c ****     blend_area.x2 = shadow_area.x2;
 583:lvgl/src/draw/sw/lv_draw_sw_rect.c ****     blend_area.x1 = shadow_area.x2 - corner_size + 1;
 584:lvgl/src/draw/sw/lv_draw_sw_rect.c ****     blend_area.y1 = shadow_area.y2 - corner_size + 1;
 585:lvgl/src/draw/sw/lv_draw_sw_rect.c ****     blend_area.y2 = shadow_area.y2;
 586:lvgl/src/draw/sw/lv_draw_sw_rect.c ****     /*Do not overdraw the other corners*/
 587:lvgl/src/draw/sw/lv_draw_sw_rect.c ****     blend_area.x1 = LV_MAX(blend_area.x1, w_half);
 588:lvgl/src/draw/sw/lv_draw_sw_rect.c ****     blend_area.y1 = LV_MAX(blend_area.y1, h_half + 1);
 589:lvgl/src/draw/sw/lv_draw_sw_rect.c **** 
 590:lvgl/src/draw/sw/lv_draw_sw_rect.c ****     if(_lv_area_intersect(&clip_area_sub, &blend_area, draw_ctx->clip_area) &&
 591:lvgl/src/draw/sw/lv_draw_sw_rect.c ****        !_lv_area_is_in(&clip_area_sub, &bg_area, r_bg)) {
 592:lvgl/src/draw/sw/lv_draw_sw_rect.c ****         lv_coord_t w = lv_area_get_width(&clip_area_sub);
 593:lvgl/src/draw/sw/lv_draw_sw_rect.c ****         sh_buf_tmp = sh_buf;
 594:lvgl/src/draw/sw/lv_draw_sw_rect.c ****         sh_buf_tmp += (blend_area.y2 - clip_area_sub.y2) * corner_size;
 595:lvgl/src/draw/sw/lv_draw_sw_rect.c ****         sh_buf_tmp += clip_area_sub.x1 - (shadow_area.x2 - corner_size + 1);
 596:lvgl/src/draw/sw/lv_draw_sw_rect.c ****         /*Do not mask if out of the bg*/
 597:lvgl/src/draw/sw/lv_draw_sw_rect.c ****         if(simple && _lv_area_is_out(&clip_area_sub, &bg_area, r_bg)) simple_sub = true;
 598:lvgl/src/draw/sw/lv_draw_sw_rect.c ****         else simple_sub = simple;
 599:lvgl/src/draw/sw/lv_draw_sw_rect.c **** 
 600:lvgl/src/draw/sw/lv_draw_sw_rect.c ****         if(w > 0) {
 601:lvgl/src/draw/sw/lv_draw_sw_rect.c ****             blend_dsc.mask_buf = mask_buf;
ARM GAS  C:\Users\OSD\AppData\Local\Temp\ccS6lZqb.s 			page 12


 602:lvgl/src/draw/sw/lv_draw_sw_rect.c ****             blend_area.x1 = clip_area_sub.x1;
 603:lvgl/src/draw/sw/lv_draw_sw_rect.c ****             blend_area.x2 = clip_area_sub.x2;
 604:lvgl/src/draw/sw/lv_draw_sw_rect.c ****             blend_dsc.mask_res = LV_DRAW_MASK_RES_CHANGED;    /*In simple mode it won't be overwrit
 605:lvgl/src/draw/sw/lv_draw_sw_rect.c ****             for(y = clip_area_sub.y2; y >= clip_area_sub.y1; y--) {
 606:lvgl/src/draw/sw/lv_draw_sw_rect.c ****                 blend_area.y1 = y;
 607:lvgl/src/draw/sw/lv_draw_sw_rect.c ****                 blend_area.y2 = y;
 608:lvgl/src/draw/sw/lv_draw_sw_rect.c **** 
 609:lvgl/src/draw/sw/lv_draw_sw_rect.c ****                 if(!simple_sub) {
 610:lvgl/src/draw/sw/lv_draw_sw_rect.c ****                     lv_memcpy(mask_buf, sh_buf_tmp, corner_size);
 611:lvgl/src/draw/sw/lv_draw_sw_rect.c ****                     blend_dsc.mask_res = lv_draw_mask_apply(mask_buf, clip_area_sub.x1, y, w);
 612:lvgl/src/draw/sw/lv_draw_sw_rect.c ****                     if(blend_dsc.mask_res == LV_DRAW_MASK_RES_FULL_COVER) blend_dsc.mask_res = LV_D
 613:lvgl/src/draw/sw/lv_draw_sw_rect.c ****                 }
 614:lvgl/src/draw/sw/lv_draw_sw_rect.c ****                 else {
 615:lvgl/src/draw/sw/lv_draw_sw_rect.c ****                     blend_dsc.mask_buf = sh_buf_tmp;
 616:lvgl/src/draw/sw/lv_draw_sw_rect.c ****                 }
 617:lvgl/src/draw/sw/lv_draw_sw_rect.c ****                 lv_draw_sw_blend(draw_ctx, &blend_dsc);
 618:lvgl/src/draw/sw/lv_draw_sw_rect.c ****                 sh_buf_tmp += corner_size;
 619:lvgl/src/draw/sw/lv_draw_sw_rect.c ****             }
 620:lvgl/src/draw/sw/lv_draw_sw_rect.c ****         }
 621:lvgl/src/draw/sw/lv_draw_sw_rect.c ****     }
 622:lvgl/src/draw/sw/lv_draw_sw_rect.c **** 
 623:lvgl/src/draw/sw/lv_draw_sw_rect.c ****     /*Top side*/
 624:lvgl/src/draw/sw/lv_draw_sw_rect.c ****     blend_area.x1 = shadow_area.x1 + corner_size;
 625:lvgl/src/draw/sw/lv_draw_sw_rect.c ****     blend_area.x2 = shadow_area.x2 - corner_size;
 626:lvgl/src/draw/sw/lv_draw_sw_rect.c ****     blend_area.y1 = shadow_area.y1;
 627:lvgl/src/draw/sw/lv_draw_sw_rect.c ****     blend_area.y2 = shadow_area.y1 + corner_size - 1;
 628:lvgl/src/draw/sw/lv_draw_sw_rect.c ****     blend_area.y2 = LV_MIN(blend_area.y2, h_half);
 629:lvgl/src/draw/sw/lv_draw_sw_rect.c **** 
 630:lvgl/src/draw/sw/lv_draw_sw_rect.c ****     if(_lv_area_intersect(&clip_area_sub, &blend_area, draw_ctx->clip_area) &&
 631:lvgl/src/draw/sw/lv_draw_sw_rect.c ****        !_lv_area_is_in(&clip_area_sub, &bg_area, r_bg)) {
 632:lvgl/src/draw/sw/lv_draw_sw_rect.c ****         lv_coord_t w = lv_area_get_width(&clip_area_sub);
 633:lvgl/src/draw/sw/lv_draw_sw_rect.c ****         sh_buf_tmp = sh_buf;
 634:lvgl/src/draw/sw/lv_draw_sw_rect.c ****         sh_buf_tmp += (clip_area_sub.y1 - blend_area.y1) * corner_size;
 635:lvgl/src/draw/sw/lv_draw_sw_rect.c **** 
 636:lvgl/src/draw/sw/lv_draw_sw_rect.c ****         /*Do not mask if out of the bg*/
 637:lvgl/src/draw/sw/lv_draw_sw_rect.c ****         if(simple && _lv_area_is_out(&clip_area_sub, &bg_area, r_bg)) simple_sub = true;
 638:lvgl/src/draw/sw/lv_draw_sw_rect.c ****         else simple_sub = simple;
 639:lvgl/src/draw/sw/lv_draw_sw_rect.c **** 
 640:lvgl/src/draw/sw/lv_draw_sw_rect.c ****         if(w > 0) {
 641:lvgl/src/draw/sw/lv_draw_sw_rect.c ****             if(!simple_sub) {
 642:lvgl/src/draw/sw/lv_draw_sw_rect.c ****                 blend_dsc.mask_buf = mask_buf;
 643:lvgl/src/draw/sw/lv_draw_sw_rect.c ****             }
 644:lvgl/src/draw/sw/lv_draw_sw_rect.c ****             else {
 645:lvgl/src/draw/sw/lv_draw_sw_rect.c ****                 blend_dsc.mask_buf = NULL;
 646:lvgl/src/draw/sw/lv_draw_sw_rect.c ****             }
 647:lvgl/src/draw/sw/lv_draw_sw_rect.c ****             blend_area.x1 = clip_area_sub.x1;
 648:lvgl/src/draw/sw/lv_draw_sw_rect.c ****             blend_area.x2 = clip_area_sub.x2;
 649:lvgl/src/draw/sw/lv_draw_sw_rect.c **** 
 650:lvgl/src/draw/sw/lv_draw_sw_rect.c ****             for(y = clip_area_sub.y1; y <= clip_area_sub.y2; y++) {
 651:lvgl/src/draw/sw/lv_draw_sw_rect.c ****                 blend_area.y1 = y;
 652:lvgl/src/draw/sw/lv_draw_sw_rect.c ****                 blend_area.y2 = y;
 653:lvgl/src/draw/sw/lv_draw_sw_rect.c **** 
 654:lvgl/src/draw/sw/lv_draw_sw_rect.c ****                 if(!simple_sub) {
 655:lvgl/src/draw/sw/lv_draw_sw_rect.c ****                     lv_memset(mask_buf, sh_buf_tmp[0], w);
 656:lvgl/src/draw/sw/lv_draw_sw_rect.c ****                     blend_dsc.mask_res = lv_draw_mask_apply(mask_buf, clip_area_sub.x1, y, w);
 657:lvgl/src/draw/sw/lv_draw_sw_rect.c ****                     if(blend_dsc.mask_res == LV_DRAW_MASK_RES_FULL_COVER) blend_dsc.mask_res = LV_D
 658:lvgl/src/draw/sw/lv_draw_sw_rect.c ****                     lv_draw_sw_blend(draw_ctx, &blend_dsc);
ARM GAS  C:\Users\OSD\AppData\Local\Temp\ccS6lZqb.s 			page 13


 659:lvgl/src/draw/sw/lv_draw_sw_rect.c ****                 }
 660:lvgl/src/draw/sw/lv_draw_sw_rect.c ****                 else {
 661:lvgl/src/draw/sw/lv_draw_sw_rect.c ****                     blend_dsc.opa = opa == LV_OPA_COVER ? sh_buf_tmp[0] : (sh_buf_tmp[0] * dsc->sha
 662:lvgl/src/draw/sw/lv_draw_sw_rect.c ****                     lv_draw_sw_blend(draw_ctx, &blend_dsc);
 663:lvgl/src/draw/sw/lv_draw_sw_rect.c ****                 }
 664:lvgl/src/draw/sw/lv_draw_sw_rect.c ****                 sh_buf_tmp += corner_size;
 665:lvgl/src/draw/sw/lv_draw_sw_rect.c ****             }
 666:lvgl/src/draw/sw/lv_draw_sw_rect.c ****         }
 667:lvgl/src/draw/sw/lv_draw_sw_rect.c ****     }
 668:lvgl/src/draw/sw/lv_draw_sw_rect.c ****     blend_dsc.opa = dsc->shadow_opa;    /*Restore*/
 669:lvgl/src/draw/sw/lv_draw_sw_rect.c **** 
 670:lvgl/src/draw/sw/lv_draw_sw_rect.c ****     /*Bottom side*/
 671:lvgl/src/draw/sw/lv_draw_sw_rect.c ****     blend_area.x1 = shadow_area.x1 + corner_size;
 672:lvgl/src/draw/sw/lv_draw_sw_rect.c ****     blend_area.x2 = shadow_area.x2 - corner_size;
 673:lvgl/src/draw/sw/lv_draw_sw_rect.c ****     blend_area.y1 = shadow_area.y2 - corner_size + 1;
 674:lvgl/src/draw/sw/lv_draw_sw_rect.c ****     blend_area.y2 = shadow_area.y2;
 675:lvgl/src/draw/sw/lv_draw_sw_rect.c ****     blend_area.y1 = LV_MAX(blend_area.y1, h_half + 1);
 676:lvgl/src/draw/sw/lv_draw_sw_rect.c **** 
 677:lvgl/src/draw/sw/lv_draw_sw_rect.c ****     if(_lv_area_intersect(&clip_area_sub, &blend_area, draw_ctx->clip_area) &&
 678:lvgl/src/draw/sw/lv_draw_sw_rect.c ****        !_lv_area_is_in(&clip_area_sub, &bg_area, r_bg)) {
 679:lvgl/src/draw/sw/lv_draw_sw_rect.c ****         lv_coord_t w = lv_area_get_width(&clip_area_sub);
 680:lvgl/src/draw/sw/lv_draw_sw_rect.c ****         sh_buf_tmp = sh_buf;
 681:lvgl/src/draw/sw/lv_draw_sw_rect.c ****         sh_buf_tmp += (blend_area.y2 - clip_area_sub.y2) * corner_size;
 682:lvgl/src/draw/sw/lv_draw_sw_rect.c ****         if(w > 0) {
 683:lvgl/src/draw/sw/lv_draw_sw_rect.c ****             /*Do not mask if out of the bg*/
 684:lvgl/src/draw/sw/lv_draw_sw_rect.c ****             if(simple && _lv_area_is_out(&clip_area_sub, &bg_area, r_bg)) simple_sub = true;
 685:lvgl/src/draw/sw/lv_draw_sw_rect.c ****             else simple_sub = simple;
 686:lvgl/src/draw/sw/lv_draw_sw_rect.c **** 
 687:lvgl/src/draw/sw/lv_draw_sw_rect.c ****             if(!simple_sub) {
 688:lvgl/src/draw/sw/lv_draw_sw_rect.c ****                 blend_dsc.mask_buf = mask_buf;
 689:lvgl/src/draw/sw/lv_draw_sw_rect.c ****             }
 690:lvgl/src/draw/sw/lv_draw_sw_rect.c ****             else {
 691:lvgl/src/draw/sw/lv_draw_sw_rect.c ****                 blend_dsc.mask_buf = NULL;
 692:lvgl/src/draw/sw/lv_draw_sw_rect.c ****             }
 693:lvgl/src/draw/sw/lv_draw_sw_rect.c ****             blend_area.x1 = clip_area_sub.x1;
 694:lvgl/src/draw/sw/lv_draw_sw_rect.c ****             blend_area.x2 = clip_area_sub.x2;
 695:lvgl/src/draw/sw/lv_draw_sw_rect.c **** 
 696:lvgl/src/draw/sw/lv_draw_sw_rect.c ****             for(y = clip_area_sub.y2; y >= clip_area_sub.y1; y--) {
 697:lvgl/src/draw/sw/lv_draw_sw_rect.c ****                 blend_area.y1 = y;
 698:lvgl/src/draw/sw/lv_draw_sw_rect.c ****                 blend_area.y2 = y;
 699:lvgl/src/draw/sw/lv_draw_sw_rect.c **** 
 700:lvgl/src/draw/sw/lv_draw_sw_rect.c ****                 /*Do not mask if out of the bg*/
 701:lvgl/src/draw/sw/lv_draw_sw_rect.c ****                 if(simple && _lv_area_is_out(&clip_area_sub, &bg_area, r_bg)) simple_sub = true;
 702:lvgl/src/draw/sw/lv_draw_sw_rect.c ****                 else simple_sub = simple;
 703:lvgl/src/draw/sw/lv_draw_sw_rect.c **** 
 704:lvgl/src/draw/sw/lv_draw_sw_rect.c ****                 if(!simple_sub) {
 705:lvgl/src/draw/sw/lv_draw_sw_rect.c ****                     lv_memset(mask_buf, sh_buf_tmp[0], w);
 706:lvgl/src/draw/sw/lv_draw_sw_rect.c ****                     blend_dsc.mask_res = lv_draw_mask_apply(mask_buf, clip_area_sub.x1, y, w);
 707:lvgl/src/draw/sw/lv_draw_sw_rect.c ****                     if(blend_dsc.mask_res == LV_DRAW_MASK_RES_FULL_COVER) blend_dsc.mask_res = LV_D
 708:lvgl/src/draw/sw/lv_draw_sw_rect.c ****                     lv_draw_sw_blend(draw_ctx, &blend_dsc);
 709:lvgl/src/draw/sw/lv_draw_sw_rect.c ****                 }
 710:lvgl/src/draw/sw/lv_draw_sw_rect.c ****                 else {
 711:lvgl/src/draw/sw/lv_draw_sw_rect.c ****                     blend_dsc.opa = opa == LV_OPA_COVER ? sh_buf_tmp[0] : (sh_buf_tmp[0] * dsc->sha
 712:lvgl/src/draw/sw/lv_draw_sw_rect.c ****                     lv_draw_sw_blend(draw_ctx, &blend_dsc);
 713:lvgl/src/draw/sw/lv_draw_sw_rect.c **** 
 714:lvgl/src/draw/sw/lv_draw_sw_rect.c ****                 }
 715:lvgl/src/draw/sw/lv_draw_sw_rect.c ****                 sh_buf_tmp += corner_size;
ARM GAS  C:\Users\OSD\AppData\Local\Temp\ccS6lZqb.s 			page 14


 716:lvgl/src/draw/sw/lv_draw_sw_rect.c ****             }
 717:lvgl/src/draw/sw/lv_draw_sw_rect.c ****         }
 718:lvgl/src/draw/sw/lv_draw_sw_rect.c ****     }
 719:lvgl/src/draw/sw/lv_draw_sw_rect.c **** 
 720:lvgl/src/draw/sw/lv_draw_sw_rect.c ****     blend_dsc.opa = dsc->shadow_opa;    /*Restore*/
 721:lvgl/src/draw/sw/lv_draw_sw_rect.c **** 
 722:lvgl/src/draw/sw/lv_draw_sw_rect.c ****     /*Right side*/
 723:lvgl/src/draw/sw/lv_draw_sw_rect.c ****     blend_area.x1 = shadow_area.x2 - corner_size + 1;
 724:lvgl/src/draw/sw/lv_draw_sw_rect.c ****     blend_area.x2 = shadow_area.x2;
 725:lvgl/src/draw/sw/lv_draw_sw_rect.c ****     blend_area.y1 = shadow_area.y1 + corner_size;
 726:lvgl/src/draw/sw/lv_draw_sw_rect.c ****     blend_area.y2 = shadow_area.y2 - corner_size;
 727:lvgl/src/draw/sw/lv_draw_sw_rect.c ****     /*Do not overdraw the other corners*/
 728:lvgl/src/draw/sw/lv_draw_sw_rect.c ****     blend_area.y1 = LV_MIN(blend_area.y1, h_half + 1);
 729:lvgl/src/draw/sw/lv_draw_sw_rect.c ****     blend_area.y2 = LV_MAX(blend_area.y2, h_half);
 730:lvgl/src/draw/sw/lv_draw_sw_rect.c ****     blend_area.x1 = LV_MAX(blend_area.x1, w_half);
 731:lvgl/src/draw/sw/lv_draw_sw_rect.c **** 
 732:lvgl/src/draw/sw/lv_draw_sw_rect.c ****     if(_lv_area_intersect(&clip_area_sub, &blend_area, draw_ctx->clip_area) &&
 733:lvgl/src/draw/sw/lv_draw_sw_rect.c ****        !_lv_area_is_in(&clip_area_sub, &bg_area, r_bg)) {
 734:lvgl/src/draw/sw/lv_draw_sw_rect.c ****         lv_coord_t w = lv_area_get_width(&clip_area_sub);
 735:lvgl/src/draw/sw/lv_draw_sw_rect.c ****         sh_buf_tmp = sh_buf;
 736:lvgl/src/draw/sw/lv_draw_sw_rect.c ****         sh_buf_tmp += (corner_size - 1) * corner_size;
 737:lvgl/src/draw/sw/lv_draw_sw_rect.c ****         sh_buf_tmp += clip_area_sub.x1 - (shadow_area.x2 - corner_size + 1);
 738:lvgl/src/draw/sw/lv_draw_sw_rect.c **** 
 739:lvgl/src/draw/sw/lv_draw_sw_rect.c ****         /*Do not mask if out of the bg*/
 740:lvgl/src/draw/sw/lv_draw_sw_rect.c ****         if(simple && _lv_area_is_out(&clip_area_sub, &bg_area, r_bg)) simple_sub = true;
 741:lvgl/src/draw/sw/lv_draw_sw_rect.c ****         else simple_sub = simple;
 742:lvgl/src/draw/sw/lv_draw_sw_rect.c ****         blend_dsc.mask_buf = simple_sub ? sh_buf_tmp : mask_buf;
 743:lvgl/src/draw/sw/lv_draw_sw_rect.c **** 
 744:lvgl/src/draw/sw/lv_draw_sw_rect.c ****         if(w > 0) {
 745:lvgl/src/draw/sw/lv_draw_sw_rect.c ****             blend_area.x1 = clip_area_sub.x1;
 746:lvgl/src/draw/sw/lv_draw_sw_rect.c ****             blend_area.x2 = clip_area_sub.x2;
 747:lvgl/src/draw/sw/lv_draw_sw_rect.c ****             blend_dsc.mask_res = LV_DRAW_MASK_RES_CHANGED;    /*In simple mode it won't be overwrit
 748:lvgl/src/draw/sw/lv_draw_sw_rect.c ****             for(y = clip_area_sub.y1; y <= clip_area_sub.y2; y++) {
 749:lvgl/src/draw/sw/lv_draw_sw_rect.c ****                 blend_area.y1 = y;
 750:lvgl/src/draw/sw/lv_draw_sw_rect.c ****                 blend_area.y2 = y;
 751:lvgl/src/draw/sw/lv_draw_sw_rect.c **** 
 752:lvgl/src/draw/sw/lv_draw_sw_rect.c ****                 if(!simple_sub) {
 753:lvgl/src/draw/sw/lv_draw_sw_rect.c ****                     lv_memcpy(mask_buf, sh_buf_tmp, w);
 754:lvgl/src/draw/sw/lv_draw_sw_rect.c ****                     blend_dsc.mask_res = lv_draw_mask_apply(mask_buf, clip_area_sub.x1, y, w);
 755:lvgl/src/draw/sw/lv_draw_sw_rect.c ****                     if(blend_dsc.mask_res == LV_DRAW_MASK_RES_FULL_COVER) blend_dsc.mask_res = LV_D
 756:lvgl/src/draw/sw/lv_draw_sw_rect.c ****                 }
 757:lvgl/src/draw/sw/lv_draw_sw_rect.c ****                 lv_draw_sw_blend(draw_ctx, &blend_dsc);
 758:lvgl/src/draw/sw/lv_draw_sw_rect.c ****             }
 759:lvgl/src/draw/sw/lv_draw_sw_rect.c ****         }
 760:lvgl/src/draw/sw/lv_draw_sw_rect.c ****     }
 761:lvgl/src/draw/sw/lv_draw_sw_rect.c **** 
 762:lvgl/src/draw/sw/lv_draw_sw_rect.c ****     /*Mirror the shadow corner buffer horizontally*/
 763:lvgl/src/draw/sw/lv_draw_sw_rect.c ****     sh_buf_tmp = sh_buf ;
 764:lvgl/src/draw/sw/lv_draw_sw_rect.c ****     for(y = 0; y < corner_size; y++) {
 765:lvgl/src/draw/sw/lv_draw_sw_rect.c ****         int32_t x;
 766:lvgl/src/draw/sw/lv_draw_sw_rect.c ****         lv_opa_t * start = sh_buf_tmp;
 767:lvgl/src/draw/sw/lv_draw_sw_rect.c ****         lv_opa_t * end = sh_buf_tmp + corner_size - 1;
 768:lvgl/src/draw/sw/lv_draw_sw_rect.c ****         for(x = 0; x < corner_size / 2; x++) {
 769:lvgl/src/draw/sw/lv_draw_sw_rect.c ****             lv_opa_t tmp = *start;
 770:lvgl/src/draw/sw/lv_draw_sw_rect.c ****             *start = *end;
 771:lvgl/src/draw/sw/lv_draw_sw_rect.c ****             *end = tmp;
 772:lvgl/src/draw/sw/lv_draw_sw_rect.c **** 
ARM GAS  C:\Users\OSD\AppData\Local\Temp\ccS6lZqb.s 			page 15


 773:lvgl/src/draw/sw/lv_draw_sw_rect.c ****             start++;
 774:lvgl/src/draw/sw/lv_draw_sw_rect.c ****             end--;
 775:lvgl/src/draw/sw/lv_draw_sw_rect.c ****         }
 776:lvgl/src/draw/sw/lv_draw_sw_rect.c ****         sh_buf_tmp += corner_size;
 777:lvgl/src/draw/sw/lv_draw_sw_rect.c ****     }
 778:lvgl/src/draw/sw/lv_draw_sw_rect.c **** 
 779:lvgl/src/draw/sw/lv_draw_sw_rect.c ****     /*Left side*/
 780:lvgl/src/draw/sw/lv_draw_sw_rect.c ****     blend_area.x1 = shadow_area.x1;
 781:lvgl/src/draw/sw/lv_draw_sw_rect.c ****     blend_area.x2 = shadow_area.x1 + corner_size - 1;
 782:lvgl/src/draw/sw/lv_draw_sw_rect.c ****     blend_area.y1 = shadow_area.y1 + corner_size;
 783:lvgl/src/draw/sw/lv_draw_sw_rect.c ****     blend_area.y2 = shadow_area.y2 - corner_size;
 784:lvgl/src/draw/sw/lv_draw_sw_rect.c ****     /*Do not overdraw the other corners*/
 785:lvgl/src/draw/sw/lv_draw_sw_rect.c ****     blend_area.y1 = LV_MIN(blend_area.y1, h_half + 1);
 786:lvgl/src/draw/sw/lv_draw_sw_rect.c ****     blend_area.y2 = LV_MAX(blend_area.y2, h_half);
 787:lvgl/src/draw/sw/lv_draw_sw_rect.c ****     blend_area.x2 = LV_MIN(blend_area.x2, w_half - 1);
 788:lvgl/src/draw/sw/lv_draw_sw_rect.c **** 
 789:lvgl/src/draw/sw/lv_draw_sw_rect.c ****     if(_lv_area_intersect(&clip_area_sub, &blend_area, draw_ctx->clip_area) &&
 790:lvgl/src/draw/sw/lv_draw_sw_rect.c ****        !_lv_area_is_in(&clip_area_sub, &bg_area, r_bg)) {
 791:lvgl/src/draw/sw/lv_draw_sw_rect.c ****         lv_coord_t w = lv_area_get_width(&clip_area_sub);
 792:lvgl/src/draw/sw/lv_draw_sw_rect.c ****         sh_buf_tmp = sh_buf;
 793:lvgl/src/draw/sw/lv_draw_sw_rect.c ****         sh_buf_tmp += (corner_size - 1) * corner_size;
 794:lvgl/src/draw/sw/lv_draw_sw_rect.c ****         sh_buf_tmp += clip_area_sub.x1 - blend_area.x1;
 795:lvgl/src/draw/sw/lv_draw_sw_rect.c **** 
 796:lvgl/src/draw/sw/lv_draw_sw_rect.c ****         /*Do not mask if out of the bg*/
 797:lvgl/src/draw/sw/lv_draw_sw_rect.c ****         if(simple && _lv_area_is_out(&clip_area_sub, &bg_area, r_bg)) simple_sub = true;
 798:lvgl/src/draw/sw/lv_draw_sw_rect.c ****         else simple_sub = simple;
 799:lvgl/src/draw/sw/lv_draw_sw_rect.c ****         blend_dsc.mask_buf = simple_sub ? sh_buf_tmp : mask_buf;
 800:lvgl/src/draw/sw/lv_draw_sw_rect.c ****         if(w > 0) {
 801:lvgl/src/draw/sw/lv_draw_sw_rect.c ****             blend_area.x1 = clip_area_sub.x1;
 802:lvgl/src/draw/sw/lv_draw_sw_rect.c ****             blend_area.x2 = clip_area_sub.x2;
 803:lvgl/src/draw/sw/lv_draw_sw_rect.c ****             blend_dsc.mask_res = LV_DRAW_MASK_RES_CHANGED;    /*In simple mode it won't be overwrit
 804:lvgl/src/draw/sw/lv_draw_sw_rect.c ****             for(y = clip_area_sub.y1; y <= clip_area_sub.y2; y++) {
 805:lvgl/src/draw/sw/lv_draw_sw_rect.c ****                 blend_area.y1 = y;
 806:lvgl/src/draw/sw/lv_draw_sw_rect.c ****                 blend_area.y2 = y;
 807:lvgl/src/draw/sw/lv_draw_sw_rect.c **** 
 808:lvgl/src/draw/sw/lv_draw_sw_rect.c ****                 if(!simple_sub) {
 809:lvgl/src/draw/sw/lv_draw_sw_rect.c ****                     lv_memcpy(mask_buf, sh_buf_tmp, w);
 810:lvgl/src/draw/sw/lv_draw_sw_rect.c ****                     blend_dsc.mask_res = lv_draw_mask_apply(mask_buf, clip_area_sub.x1, y, w);
 811:lvgl/src/draw/sw/lv_draw_sw_rect.c ****                     if(blend_dsc.mask_res == LV_DRAW_MASK_RES_FULL_COVER) blend_dsc.mask_res = LV_D
 812:lvgl/src/draw/sw/lv_draw_sw_rect.c ****                 }
 813:lvgl/src/draw/sw/lv_draw_sw_rect.c **** 
 814:lvgl/src/draw/sw/lv_draw_sw_rect.c ****                 lv_draw_sw_blend(draw_ctx, &blend_dsc);
 815:lvgl/src/draw/sw/lv_draw_sw_rect.c ****             }
 816:lvgl/src/draw/sw/lv_draw_sw_rect.c ****         }
 817:lvgl/src/draw/sw/lv_draw_sw_rect.c ****     }
 818:lvgl/src/draw/sw/lv_draw_sw_rect.c **** 
 819:lvgl/src/draw/sw/lv_draw_sw_rect.c ****     /*Top left corner*/
 820:lvgl/src/draw/sw/lv_draw_sw_rect.c ****     blend_area.x1 = shadow_area.x1;
 821:lvgl/src/draw/sw/lv_draw_sw_rect.c ****     blend_area.x2 = shadow_area.x1 + corner_size - 1;
 822:lvgl/src/draw/sw/lv_draw_sw_rect.c ****     blend_area.y1 = shadow_area.y1;
 823:lvgl/src/draw/sw/lv_draw_sw_rect.c ****     blend_area.y2 = shadow_area.y1 + corner_size - 1;
 824:lvgl/src/draw/sw/lv_draw_sw_rect.c ****     /*Do not overdraw the other corners*/
 825:lvgl/src/draw/sw/lv_draw_sw_rect.c ****     blend_area.x2 = LV_MIN(blend_area.x2, w_half - 1);
 826:lvgl/src/draw/sw/lv_draw_sw_rect.c ****     blend_area.y2 = LV_MIN(blend_area.y2, h_half);
 827:lvgl/src/draw/sw/lv_draw_sw_rect.c **** 
 828:lvgl/src/draw/sw/lv_draw_sw_rect.c ****     if(_lv_area_intersect(&clip_area_sub, &blend_area, draw_ctx->clip_area) &&
 829:lvgl/src/draw/sw/lv_draw_sw_rect.c ****        !_lv_area_is_in(&clip_area_sub, &bg_area, r_bg)) {
ARM GAS  C:\Users\OSD\AppData\Local\Temp\ccS6lZqb.s 			page 16


 830:lvgl/src/draw/sw/lv_draw_sw_rect.c ****         lv_coord_t w = lv_area_get_width(&clip_area_sub);
 831:lvgl/src/draw/sw/lv_draw_sw_rect.c ****         sh_buf_tmp = sh_buf;
 832:lvgl/src/draw/sw/lv_draw_sw_rect.c ****         sh_buf_tmp += (clip_area_sub.y1 - blend_area.y1) * corner_size;
 833:lvgl/src/draw/sw/lv_draw_sw_rect.c ****         sh_buf_tmp += clip_area_sub.x1 - blend_area.x1;
 834:lvgl/src/draw/sw/lv_draw_sw_rect.c **** 
 835:lvgl/src/draw/sw/lv_draw_sw_rect.c ****         /*Do not mask if out of the bg*/
 836:lvgl/src/draw/sw/lv_draw_sw_rect.c ****         if(simple && _lv_area_is_out(&clip_area_sub, &bg_area, r_bg)) simple_sub = true;
 837:lvgl/src/draw/sw/lv_draw_sw_rect.c ****         else simple_sub = simple;
 838:lvgl/src/draw/sw/lv_draw_sw_rect.c ****         blend_dsc.mask_buf = mask_buf;
 839:lvgl/src/draw/sw/lv_draw_sw_rect.c **** 
 840:lvgl/src/draw/sw/lv_draw_sw_rect.c ****         if(w > 0) {
 841:lvgl/src/draw/sw/lv_draw_sw_rect.c ****             blend_area.x1 = clip_area_sub.x1;
 842:lvgl/src/draw/sw/lv_draw_sw_rect.c ****             blend_area.x2 = clip_area_sub.x2;
 843:lvgl/src/draw/sw/lv_draw_sw_rect.c ****             blend_dsc.mask_res = LV_DRAW_MASK_RES_CHANGED;    /*In simple mode it won't be overwrit
 844:lvgl/src/draw/sw/lv_draw_sw_rect.c ****             for(y = clip_area_sub.y1; y <= clip_area_sub.y2; y++) {
 845:lvgl/src/draw/sw/lv_draw_sw_rect.c ****                 blend_area.y1 = y;
 846:lvgl/src/draw/sw/lv_draw_sw_rect.c ****                 blend_area.y2 = y;
 847:lvgl/src/draw/sw/lv_draw_sw_rect.c **** 
 848:lvgl/src/draw/sw/lv_draw_sw_rect.c ****                 if(!simple_sub) {
 849:lvgl/src/draw/sw/lv_draw_sw_rect.c ****                     lv_memcpy(mask_buf, sh_buf_tmp, corner_size);
 850:lvgl/src/draw/sw/lv_draw_sw_rect.c ****                     blend_dsc.mask_res = lv_draw_mask_apply(mask_buf, clip_area_sub.x1, y, w);
 851:lvgl/src/draw/sw/lv_draw_sw_rect.c ****                     if(blend_dsc.mask_res == LV_DRAW_MASK_RES_FULL_COVER) blend_dsc.mask_res = LV_D
 852:lvgl/src/draw/sw/lv_draw_sw_rect.c ****                 }
 853:lvgl/src/draw/sw/lv_draw_sw_rect.c ****                 else {
 854:lvgl/src/draw/sw/lv_draw_sw_rect.c ****                     blend_dsc.mask_buf = sh_buf_tmp;
 855:lvgl/src/draw/sw/lv_draw_sw_rect.c ****                 }
 856:lvgl/src/draw/sw/lv_draw_sw_rect.c **** 
 857:lvgl/src/draw/sw/lv_draw_sw_rect.c ****                 lv_draw_sw_blend(draw_ctx, &blend_dsc);
 858:lvgl/src/draw/sw/lv_draw_sw_rect.c ****                 sh_buf_tmp += corner_size;
 859:lvgl/src/draw/sw/lv_draw_sw_rect.c ****             }
 860:lvgl/src/draw/sw/lv_draw_sw_rect.c ****         }
 861:lvgl/src/draw/sw/lv_draw_sw_rect.c ****     }
 862:lvgl/src/draw/sw/lv_draw_sw_rect.c **** 
 863:lvgl/src/draw/sw/lv_draw_sw_rect.c ****     /*Bottom left corner.
 864:lvgl/src/draw/sw/lv_draw_sw_rect.c ****      *Almost the same as bottom right just read the lines of `sh_buf` from then end*/
 865:lvgl/src/draw/sw/lv_draw_sw_rect.c ****     blend_area.x1 = shadow_area.x1 ;
 866:lvgl/src/draw/sw/lv_draw_sw_rect.c ****     blend_area.x2 = shadow_area.x1 + corner_size - 1;
 867:lvgl/src/draw/sw/lv_draw_sw_rect.c ****     blend_area.y1 = shadow_area.y2 - corner_size + 1;
 868:lvgl/src/draw/sw/lv_draw_sw_rect.c ****     blend_area.y2 = shadow_area.y2;
 869:lvgl/src/draw/sw/lv_draw_sw_rect.c ****     /*Do not overdraw the other corners*/
 870:lvgl/src/draw/sw/lv_draw_sw_rect.c ****     blend_area.y1 = LV_MAX(blend_area.y1, h_half + 1);
 871:lvgl/src/draw/sw/lv_draw_sw_rect.c ****     blend_area.x2 = LV_MIN(blend_area.x2, w_half - 1);
 872:lvgl/src/draw/sw/lv_draw_sw_rect.c **** 
 873:lvgl/src/draw/sw/lv_draw_sw_rect.c ****     if(_lv_area_intersect(&clip_area_sub, &blend_area, draw_ctx->clip_area) &&
 874:lvgl/src/draw/sw/lv_draw_sw_rect.c ****        !_lv_area_is_in(&clip_area_sub, &bg_area, r_bg)) {
 875:lvgl/src/draw/sw/lv_draw_sw_rect.c ****         lv_coord_t w = lv_area_get_width(&clip_area_sub);
 876:lvgl/src/draw/sw/lv_draw_sw_rect.c ****         sh_buf_tmp = sh_buf;
 877:lvgl/src/draw/sw/lv_draw_sw_rect.c ****         sh_buf_tmp += (blend_area.y2 - clip_area_sub.y2) * corner_size;
 878:lvgl/src/draw/sw/lv_draw_sw_rect.c ****         sh_buf_tmp += clip_area_sub.x1 - blend_area.x1;
 879:lvgl/src/draw/sw/lv_draw_sw_rect.c **** 
 880:lvgl/src/draw/sw/lv_draw_sw_rect.c ****         /*Do not mask if out of the bg*/
 881:lvgl/src/draw/sw/lv_draw_sw_rect.c ****         if(simple && _lv_area_is_out(&clip_area_sub, &bg_area, r_bg)) simple_sub = true;
 882:lvgl/src/draw/sw/lv_draw_sw_rect.c ****         else simple_sub = simple;
 883:lvgl/src/draw/sw/lv_draw_sw_rect.c ****         blend_dsc.mask_buf = mask_buf;
 884:lvgl/src/draw/sw/lv_draw_sw_rect.c ****         if(w > 0) {
 885:lvgl/src/draw/sw/lv_draw_sw_rect.c ****             blend_area.x1 = clip_area_sub.x1;
 886:lvgl/src/draw/sw/lv_draw_sw_rect.c ****             blend_area.x2 = clip_area_sub.x2;
ARM GAS  C:\Users\OSD\AppData\Local\Temp\ccS6lZqb.s 			page 17


 887:lvgl/src/draw/sw/lv_draw_sw_rect.c ****             blend_dsc.mask_res = LV_DRAW_MASK_RES_CHANGED;    /*In simple mode it won't be overwrit
 888:lvgl/src/draw/sw/lv_draw_sw_rect.c ****             for(y = clip_area_sub.y2; y >= clip_area_sub.y1; y--) {
 889:lvgl/src/draw/sw/lv_draw_sw_rect.c ****                 blend_area.y1 = y;
 890:lvgl/src/draw/sw/lv_draw_sw_rect.c ****                 blend_area.y2 = y;
 891:lvgl/src/draw/sw/lv_draw_sw_rect.c **** 
 892:lvgl/src/draw/sw/lv_draw_sw_rect.c ****                 if(!simple_sub) {
 893:lvgl/src/draw/sw/lv_draw_sw_rect.c ****                     lv_memcpy(mask_buf, sh_buf_tmp, corner_size);
 894:lvgl/src/draw/sw/lv_draw_sw_rect.c ****                     blend_dsc.mask_res = lv_draw_mask_apply(mask_buf, clip_area_sub.x1, y, w);
 895:lvgl/src/draw/sw/lv_draw_sw_rect.c ****                     if(blend_dsc.mask_res == LV_DRAW_MASK_RES_FULL_COVER) blend_dsc.mask_res = LV_D
 896:lvgl/src/draw/sw/lv_draw_sw_rect.c ****                 }
 897:lvgl/src/draw/sw/lv_draw_sw_rect.c ****                 else {
 898:lvgl/src/draw/sw/lv_draw_sw_rect.c ****                     blend_dsc.mask_buf = sh_buf_tmp;
 899:lvgl/src/draw/sw/lv_draw_sw_rect.c ****                 }
 900:lvgl/src/draw/sw/lv_draw_sw_rect.c ****                 lv_draw_sw_blend(draw_ctx, &blend_dsc);
 901:lvgl/src/draw/sw/lv_draw_sw_rect.c ****                 sh_buf_tmp += corner_size;
 902:lvgl/src/draw/sw/lv_draw_sw_rect.c ****             }
 903:lvgl/src/draw/sw/lv_draw_sw_rect.c ****         }
 904:lvgl/src/draw/sw/lv_draw_sw_rect.c ****     }
 905:lvgl/src/draw/sw/lv_draw_sw_rect.c **** 
 906:lvgl/src/draw/sw/lv_draw_sw_rect.c ****     /*Draw the center rectangle.*/
 907:lvgl/src/draw/sw/lv_draw_sw_rect.c ****     blend_area.x1 = shadow_area.x1 + corner_size ;
 908:lvgl/src/draw/sw/lv_draw_sw_rect.c ****     blend_area.x2 = shadow_area.x2 - corner_size;
 909:lvgl/src/draw/sw/lv_draw_sw_rect.c ****     blend_area.y1 = shadow_area.y1 + corner_size;
 910:lvgl/src/draw/sw/lv_draw_sw_rect.c ****     blend_area.y2 = shadow_area.y2 - corner_size;
 911:lvgl/src/draw/sw/lv_draw_sw_rect.c ****     blend_dsc.mask_buf = mask_buf;
 912:lvgl/src/draw/sw/lv_draw_sw_rect.c **** 
 913:lvgl/src/draw/sw/lv_draw_sw_rect.c ****     if(_lv_area_intersect(&clip_area_sub, &blend_area, draw_ctx->clip_area) &&
 914:lvgl/src/draw/sw/lv_draw_sw_rect.c ****        !_lv_area_is_in(&clip_area_sub, &bg_area, r_bg)) {
 915:lvgl/src/draw/sw/lv_draw_sw_rect.c ****         lv_coord_t w = lv_area_get_width(&clip_area_sub);
 916:lvgl/src/draw/sw/lv_draw_sw_rect.c ****         if(w > 0) {
 917:lvgl/src/draw/sw/lv_draw_sw_rect.c ****             blend_area.x1 = clip_area_sub.x1;
 918:lvgl/src/draw/sw/lv_draw_sw_rect.c ****             blend_area.x2 = clip_area_sub.x2;
 919:lvgl/src/draw/sw/lv_draw_sw_rect.c ****             for(y = clip_area_sub.y1; y <= clip_area_sub.y2; y++) {
 920:lvgl/src/draw/sw/lv_draw_sw_rect.c ****                 blend_area.y1 = y;
 921:lvgl/src/draw/sw/lv_draw_sw_rect.c ****                 blend_area.y2 = y;
 922:lvgl/src/draw/sw/lv_draw_sw_rect.c **** 
 923:lvgl/src/draw/sw/lv_draw_sw_rect.c ****                 lv_memset_ff(mask_buf, w);
 924:lvgl/src/draw/sw/lv_draw_sw_rect.c ****                 blend_dsc.mask_res = lv_draw_mask_apply(mask_buf, clip_area_sub.x1, y, w);
 925:lvgl/src/draw/sw/lv_draw_sw_rect.c ****                 lv_draw_sw_blend(draw_ctx, &blend_dsc);
 926:lvgl/src/draw/sw/lv_draw_sw_rect.c ****             }
 927:lvgl/src/draw/sw/lv_draw_sw_rect.c ****         }
 928:lvgl/src/draw/sw/lv_draw_sw_rect.c ****     }
 929:lvgl/src/draw/sw/lv_draw_sw_rect.c **** 
 930:lvgl/src/draw/sw/lv_draw_sw_rect.c ****     if(!simple) {
 931:lvgl/src/draw/sw/lv_draw_sw_rect.c ****         lv_draw_mask_free_param(&mask_rout_param);
 932:lvgl/src/draw/sw/lv_draw_sw_rect.c ****         lv_draw_mask_remove_id(mask_rout_id);
 933:lvgl/src/draw/sw/lv_draw_sw_rect.c ****     }
 934:lvgl/src/draw/sw/lv_draw_sw_rect.c ****     lv_mem_buf_release(sh_buf);
 935:lvgl/src/draw/sw/lv_draw_sw_rect.c ****     lv_mem_buf_release(mask_buf);
 936:lvgl/src/draw/sw/lv_draw_sw_rect.c **** }
 937:lvgl/src/draw/sw/lv_draw_sw_rect.c **** 
 938:lvgl/src/draw/sw/lv_draw_sw_rect.c **** /**
 939:lvgl/src/draw/sw/lv_draw_sw_rect.c ****  * Calculate a blurred corner
 940:lvgl/src/draw/sw/lv_draw_sw_rect.c ****  * @param coords Coordinates of the shadow
 941:lvgl/src/draw/sw/lv_draw_sw_rect.c ****  * @param sh_buf a buffer to store the result. Its size should be `(sw + r)^2 * 2`
 942:lvgl/src/draw/sw/lv_draw_sw_rect.c ****  * @param sw shadow width
 943:lvgl/src/draw/sw/lv_draw_sw_rect.c ****  * @param r radius
ARM GAS  C:\Users\OSD\AppData\Local\Temp\ccS6lZqb.s 			page 18


 944:lvgl/src/draw/sw/lv_draw_sw_rect.c ****  */
 945:lvgl/src/draw/sw/lv_draw_sw_rect.c **** static void LV_ATTRIBUTE_FAST_MEM shadow_draw_corner_buf(const lv_area_t * coords, uint16_t * sh_bu
 946:lvgl/src/draw/sw/lv_draw_sw_rect.c ****                                                          lv_coord_t sw, lv_coord_t r)
 947:lvgl/src/draw/sw/lv_draw_sw_rect.c **** {
 948:lvgl/src/draw/sw/lv_draw_sw_rect.c ****     int32_t sw_ori = sw;
 949:lvgl/src/draw/sw/lv_draw_sw_rect.c ****     int32_t size = sw_ori  + r;
 950:lvgl/src/draw/sw/lv_draw_sw_rect.c **** 
 951:lvgl/src/draw/sw/lv_draw_sw_rect.c ****     lv_area_t sh_area;
 952:lvgl/src/draw/sw/lv_draw_sw_rect.c ****     lv_area_copy(&sh_area, coords);
 953:lvgl/src/draw/sw/lv_draw_sw_rect.c ****     sh_area.x2 = sw / 2 + r - 1  - ((sw & 1) ? 0 : 1);
 954:lvgl/src/draw/sw/lv_draw_sw_rect.c ****     sh_area.y1 = sw / 2 + 1;
 955:lvgl/src/draw/sw/lv_draw_sw_rect.c **** 
 956:lvgl/src/draw/sw/lv_draw_sw_rect.c ****     sh_area.x1 = sh_area.x2 - lv_area_get_width(coords);
 957:lvgl/src/draw/sw/lv_draw_sw_rect.c ****     sh_area.y2 = sh_area.y1 + lv_area_get_height(coords);
 958:lvgl/src/draw/sw/lv_draw_sw_rect.c **** 
 959:lvgl/src/draw/sw/lv_draw_sw_rect.c ****     lv_draw_mask_radius_param_t mask_param;
 960:lvgl/src/draw/sw/lv_draw_sw_rect.c ****     lv_draw_mask_radius_init(&mask_param, &sh_area, r, false);
 961:lvgl/src/draw/sw/lv_draw_sw_rect.c **** 
 962:lvgl/src/draw/sw/lv_draw_sw_rect.c **** #if SHADOW_ENHANCE
 963:lvgl/src/draw/sw/lv_draw_sw_rect.c ****     /*Set half shadow width width because blur will be repeated*/
 964:lvgl/src/draw/sw/lv_draw_sw_rect.c ****     if(sw_ori == 1) sw = 1;
 965:lvgl/src/draw/sw/lv_draw_sw_rect.c ****     else sw = sw_ori >> 1;
 966:lvgl/src/draw/sw/lv_draw_sw_rect.c **** #endif
 967:lvgl/src/draw/sw/lv_draw_sw_rect.c **** 
 968:lvgl/src/draw/sw/lv_draw_sw_rect.c ****     int32_t y;
 969:lvgl/src/draw/sw/lv_draw_sw_rect.c ****     lv_opa_t * mask_line = lv_mem_buf_get(size);
 970:lvgl/src/draw/sw/lv_draw_sw_rect.c ****     uint16_t * sh_ups_tmp_buf = (uint16_t *)sh_buf;
 971:lvgl/src/draw/sw/lv_draw_sw_rect.c ****     for(y = 0; y < size; y++) {
 972:lvgl/src/draw/sw/lv_draw_sw_rect.c ****         lv_memset_ff(mask_line, size);
 973:lvgl/src/draw/sw/lv_draw_sw_rect.c ****         lv_draw_mask_res_t mask_res = mask_param.dsc.cb(mask_line, 0, y, size, &mask_param);
 974:lvgl/src/draw/sw/lv_draw_sw_rect.c ****         if(mask_res == LV_DRAW_MASK_RES_TRANSP) {
 975:lvgl/src/draw/sw/lv_draw_sw_rect.c ****             lv_memset_00(sh_ups_tmp_buf, size * sizeof(sh_ups_tmp_buf[0]));
 976:lvgl/src/draw/sw/lv_draw_sw_rect.c ****         }
 977:lvgl/src/draw/sw/lv_draw_sw_rect.c ****         else {
 978:lvgl/src/draw/sw/lv_draw_sw_rect.c ****             int32_t i;
 979:lvgl/src/draw/sw/lv_draw_sw_rect.c ****             sh_ups_tmp_buf[0] = (mask_line[0] << SHADOW_UPSCALE_SHIFT) / sw;
 980:lvgl/src/draw/sw/lv_draw_sw_rect.c ****             for(i = 1; i < size; i++) {
 981:lvgl/src/draw/sw/lv_draw_sw_rect.c ****                 if(mask_line[i] == mask_line[i - 1]) sh_ups_tmp_buf[i] = sh_ups_tmp_buf[i - 1];
 982:lvgl/src/draw/sw/lv_draw_sw_rect.c ****                 else  sh_ups_tmp_buf[i] = (mask_line[i] << SHADOW_UPSCALE_SHIFT) / sw;
 983:lvgl/src/draw/sw/lv_draw_sw_rect.c ****             }
 984:lvgl/src/draw/sw/lv_draw_sw_rect.c ****         }
 985:lvgl/src/draw/sw/lv_draw_sw_rect.c **** 
 986:lvgl/src/draw/sw/lv_draw_sw_rect.c ****         sh_ups_tmp_buf += size;
 987:lvgl/src/draw/sw/lv_draw_sw_rect.c ****     }
 988:lvgl/src/draw/sw/lv_draw_sw_rect.c ****     lv_mem_buf_release(mask_line);
 989:lvgl/src/draw/sw/lv_draw_sw_rect.c **** 
 990:lvgl/src/draw/sw/lv_draw_sw_rect.c ****     lv_draw_mask_free_param(&mask_param);
 991:lvgl/src/draw/sw/lv_draw_sw_rect.c **** 
 992:lvgl/src/draw/sw/lv_draw_sw_rect.c ****     if(sw == 1) {
 993:lvgl/src/draw/sw/lv_draw_sw_rect.c ****         int32_t i;
 994:lvgl/src/draw/sw/lv_draw_sw_rect.c ****         lv_opa_t * res_buf = (lv_opa_t *)sh_buf;
 995:lvgl/src/draw/sw/lv_draw_sw_rect.c ****         for(i = 0; i < size * size; i++) {
 996:lvgl/src/draw/sw/lv_draw_sw_rect.c ****             res_buf[i] = (sh_buf[i] >> SHADOW_UPSCALE_SHIFT);
 997:lvgl/src/draw/sw/lv_draw_sw_rect.c ****         }
 998:lvgl/src/draw/sw/lv_draw_sw_rect.c ****         return;
 999:lvgl/src/draw/sw/lv_draw_sw_rect.c ****     }
1000:lvgl/src/draw/sw/lv_draw_sw_rect.c **** 
ARM GAS  C:\Users\OSD\AppData\Local\Temp\ccS6lZqb.s 			page 19


1001:lvgl/src/draw/sw/lv_draw_sw_rect.c ****     shadow_blur_corner(size, sw, sh_buf);
1002:lvgl/src/draw/sw/lv_draw_sw_rect.c **** 
1003:lvgl/src/draw/sw/lv_draw_sw_rect.c **** #if SHADOW_ENHANCE == 0
1004:lvgl/src/draw/sw/lv_draw_sw_rect.c ****     /*The result is required in lv_opa_t not uint16_t*/
1005:lvgl/src/draw/sw/lv_draw_sw_rect.c ****     uint32_t x;
1006:lvgl/src/draw/sw/lv_draw_sw_rect.c ****     lv_opa_t * res_buf = (lv_opa_t *)sh_buf;
1007:lvgl/src/draw/sw/lv_draw_sw_rect.c ****     for(x = 0; x < size * size; x++) {
1008:lvgl/src/draw/sw/lv_draw_sw_rect.c ****         res_buf[x] = sh_buf[x];
1009:lvgl/src/draw/sw/lv_draw_sw_rect.c ****     }
1010:lvgl/src/draw/sw/lv_draw_sw_rect.c **** #else
1011:lvgl/src/draw/sw/lv_draw_sw_rect.c ****     sw += sw_ori & 1;
1012:lvgl/src/draw/sw/lv_draw_sw_rect.c ****     if(sw > 1) {
1013:lvgl/src/draw/sw/lv_draw_sw_rect.c ****         uint32_t i;
1014:lvgl/src/draw/sw/lv_draw_sw_rect.c ****         uint32_t max_v_div = (LV_OPA_COVER << SHADOW_UPSCALE_SHIFT) / sw;
1015:lvgl/src/draw/sw/lv_draw_sw_rect.c ****         for(i = 0; i < (uint32_t)size * size; i++) {
1016:lvgl/src/draw/sw/lv_draw_sw_rect.c ****             if(sh_buf[i] == 0) continue;
1017:lvgl/src/draw/sw/lv_draw_sw_rect.c ****             else if(sh_buf[i] == LV_OPA_COVER) sh_buf[i] = max_v_div;
1018:lvgl/src/draw/sw/lv_draw_sw_rect.c ****             else  sh_buf[i] = (sh_buf[i] << SHADOW_UPSCALE_SHIFT) / sw;
1019:lvgl/src/draw/sw/lv_draw_sw_rect.c ****         }
1020:lvgl/src/draw/sw/lv_draw_sw_rect.c **** 
1021:lvgl/src/draw/sw/lv_draw_sw_rect.c ****         shadow_blur_corner(size, sw, sh_buf);
1022:lvgl/src/draw/sw/lv_draw_sw_rect.c ****     }
1023:lvgl/src/draw/sw/lv_draw_sw_rect.c ****     int32_t x;
1024:lvgl/src/draw/sw/lv_draw_sw_rect.c ****     lv_opa_t * res_buf = (lv_opa_t *)sh_buf;
1025:lvgl/src/draw/sw/lv_draw_sw_rect.c ****     for(x = 0; x < size * size; x++) {
1026:lvgl/src/draw/sw/lv_draw_sw_rect.c ****         res_buf[x] = sh_buf[x];
1027:lvgl/src/draw/sw/lv_draw_sw_rect.c ****     }
1028:lvgl/src/draw/sw/lv_draw_sw_rect.c **** #endif
1029:lvgl/src/draw/sw/lv_draw_sw_rect.c **** 
1030:lvgl/src/draw/sw/lv_draw_sw_rect.c **** }
1031:lvgl/src/draw/sw/lv_draw_sw_rect.c **** 
1032:lvgl/src/draw/sw/lv_draw_sw_rect.c **** static void LV_ATTRIBUTE_FAST_MEM shadow_blur_corner(lv_coord_t size, lv_coord_t sw, uint16_t * sh_
1033:lvgl/src/draw/sw/lv_draw_sw_rect.c **** {
1034:lvgl/src/draw/sw/lv_draw_sw_rect.c ****     int32_t s_left = sw >> 1;
1035:lvgl/src/draw/sw/lv_draw_sw_rect.c ****     int32_t s_right = (sw >> 1);
1036:lvgl/src/draw/sw/lv_draw_sw_rect.c ****     if((sw & 1) == 0) s_left--;
1037:lvgl/src/draw/sw/lv_draw_sw_rect.c **** 
1038:lvgl/src/draw/sw/lv_draw_sw_rect.c ****     /*Horizontal blur*/
1039:lvgl/src/draw/sw/lv_draw_sw_rect.c ****     uint16_t * sh_ups_blur_buf = lv_mem_buf_get(size * sizeof(uint16_t));
1040:lvgl/src/draw/sw/lv_draw_sw_rect.c **** 
1041:lvgl/src/draw/sw/lv_draw_sw_rect.c ****     int32_t x;
1042:lvgl/src/draw/sw/lv_draw_sw_rect.c ****     int32_t y;
1043:lvgl/src/draw/sw/lv_draw_sw_rect.c **** 
1044:lvgl/src/draw/sw/lv_draw_sw_rect.c ****     uint16_t * sh_ups_tmp_buf = sh_ups_buf;
1045:lvgl/src/draw/sw/lv_draw_sw_rect.c **** 
1046:lvgl/src/draw/sw/lv_draw_sw_rect.c ****     for(y = 0; y < size; y++) {
1047:lvgl/src/draw/sw/lv_draw_sw_rect.c ****         int32_t v = sh_ups_tmp_buf[size - 1] * sw;
1048:lvgl/src/draw/sw/lv_draw_sw_rect.c ****         for(x = size - 1; x >= 0; x--) {
1049:lvgl/src/draw/sw/lv_draw_sw_rect.c ****             sh_ups_blur_buf[x] = v;
1050:lvgl/src/draw/sw/lv_draw_sw_rect.c **** 
1051:lvgl/src/draw/sw/lv_draw_sw_rect.c ****             /*Forget the right pixel*/
1052:lvgl/src/draw/sw/lv_draw_sw_rect.c ****             uint32_t right_val = 0;
1053:lvgl/src/draw/sw/lv_draw_sw_rect.c ****             if(x + s_right < size) right_val = sh_ups_tmp_buf[x + s_right];
1054:lvgl/src/draw/sw/lv_draw_sw_rect.c ****             v -= right_val;
1055:lvgl/src/draw/sw/lv_draw_sw_rect.c **** 
1056:lvgl/src/draw/sw/lv_draw_sw_rect.c ****             /*Add the left pixel*/
1057:lvgl/src/draw/sw/lv_draw_sw_rect.c ****             uint32_t left_val;
ARM GAS  C:\Users\OSD\AppData\Local\Temp\ccS6lZqb.s 			page 20


1058:lvgl/src/draw/sw/lv_draw_sw_rect.c ****             if(x - s_left - 1 < 0) left_val = sh_ups_tmp_buf[0];
1059:lvgl/src/draw/sw/lv_draw_sw_rect.c ****             else left_val = sh_ups_tmp_buf[x - s_left - 1];
1060:lvgl/src/draw/sw/lv_draw_sw_rect.c ****             v += left_val;
1061:lvgl/src/draw/sw/lv_draw_sw_rect.c ****         }
1062:lvgl/src/draw/sw/lv_draw_sw_rect.c ****         lv_memcpy(sh_ups_tmp_buf, sh_ups_blur_buf, size * sizeof(uint16_t));
1063:lvgl/src/draw/sw/lv_draw_sw_rect.c ****         sh_ups_tmp_buf += size;
1064:lvgl/src/draw/sw/lv_draw_sw_rect.c ****     }
1065:lvgl/src/draw/sw/lv_draw_sw_rect.c **** 
1066:lvgl/src/draw/sw/lv_draw_sw_rect.c ****     /*Vertical blur*/
1067:lvgl/src/draw/sw/lv_draw_sw_rect.c ****     uint32_t i;
1068:lvgl/src/draw/sw/lv_draw_sw_rect.c ****     uint32_t max_v = LV_OPA_COVER << SHADOW_UPSCALE_SHIFT;
1069:lvgl/src/draw/sw/lv_draw_sw_rect.c ****     uint32_t max_v_div = max_v / sw;
1070:lvgl/src/draw/sw/lv_draw_sw_rect.c ****     for(i = 0; i < (uint32_t)size * size; i++) {
1071:lvgl/src/draw/sw/lv_draw_sw_rect.c ****         if(sh_ups_buf[i] == 0) continue;
1072:lvgl/src/draw/sw/lv_draw_sw_rect.c ****         else if(sh_ups_buf[i] == max_v) sh_ups_buf[i] = max_v_div;
1073:lvgl/src/draw/sw/lv_draw_sw_rect.c ****         else sh_ups_buf[i] = sh_ups_buf[i] / sw;
1074:lvgl/src/draw/sw/lv_draw_sw_rect.c ****     }
1075:lvgl/src/draw/sw/lv_draw_sw_rect.c **** 
1076:lvgl/src/draw/sw/lv_draw_sw_rect.c ****     for(x = 0; x < size; x++) {
1077:lvgl/src/draw/sw/lv_draw_sw_rect.c ****         sh_ups_tmp_buf = &sh_ups_buf[x];
1078:lvgl/src/draw/sw/lv_draw_sw_rect.c ****         int32_t v = sh_ups_tmp_buf[0] * sw;
1079:lvgl/src/draw/sw/lv_draw_sw_rect.c ****         for(y = 0; y < size ; y++, sh_ups_tmp_buf += size) {
1080:lvgl/src/draw/sw/lv_draw_sw_rect.c ****             sh_ups_blur_buf[y] = v < 0 ? 0 : (v >> SHADOW_UPSCALE_SHIFT);
1081:lvgl/src/draw/sw/lv_draw_sw_rect.c **** 
1082:lvgl/src/draw/sw/lv_draw_sw_rect.c ****             /*Forget the top pixel*/
1083:lvgl/src/draw/sw/lv_draw_sw_rect.c ****             uint32_t top_val;
1084:lvgl/src/draw/sw/lv_draw_sw_rect.c ****             if(y - s_right <= 0) top_val = sh_ups_tmp_buf[0];
1085:lvgl/src/draw/sw/lv_draw_sw_rect.c ****             else top_val = sh_ups_buf[(y - s_right) * size + x];
1086:lvgl/src/draw/sw/lv_draw_sw_rect.c ****             v -= top_val;
1087:lvgl/src/draw/sw/lv_draw_sw_rect.c **** 
1088:lvgl/src/draw/sw/lv_draw_sw_rect.c ****             /*Add the bottom pixel*/
1089:lvgl/src/draw/sw/lv_draw_sw_rect.c ****             uint32_t bottom_val;
1090:lvgl/src/draw/sw/lv_draw_sw_rect.c ****             if(y + s_left + 1 < size) bottom_val = sh_ups_buf[(y + s_left + 1) * size + x];
1091:lvgl/src/draw/sw/lv_draw_sw_rect.c ****             else bottom_val = sh_ups_buf[(size - 1) * size + x];
1092:lvgl/src/draw/sw/lv_draw_sw_rect.c ****             v += bottom_val;
1093:lvgl/src/draw/sw/lv_draw_sw_rect.c ****         }
1094:lvgl/src/draw/sw/lv_draw_sw_rect.c **** 
1095:lvgl/src/draw/sw/lv_draw_sw_rect.c ****         /*Write back the result into `sh_ups_buf`*/
1096:lvgl/src/draw/sw/lv_draw_sw_rect.c ****         sh_ups_tmp_buf = &sh_ups_buf[x];
1097:lvgl/src/draw/sw/lv_draw_sw_rect.c ****         for(y = 0; y < size; y++, sh_ups_tmp_buf += size) {
1098:lvgl/src/draw/sw/lv_draw_sw_rect.c ****             (*sh_ups_tmp_buf) = sh_ups_blur_buf[y];
1099:lvgl/src/draw/sw/lv_draw_sw_rect.c ****         }
1100:lvgl/src/draw/sw/lv_draw_sw_rect.c ****     }
1101:lvgl/src/draw/sw/lv_draw_sw_rect.c **** 
1102:lvgl/src/draw/sw/lv_draw_sw_rect.c ****     lv_mem_buf_release(sh_ups_blur_buf);
1103:lvgl/src/draw/sw/lv_draw_sw_rect.c **** }
1104:lvgl/src/draw/sw/lv_draw_sw_rect.c **** #endif
1105:lvgl/src/draw/sw/lv_draw_sw_rect.c **** 
1106:lvgl/src/draw/sw/lv_draw_sw_rect.c **** static void draw_outline(lv_draw_ctx_t * draw_ctx, const lv_draw_rect_dsc_t * dsc, const lv_area_t 
1107:lvgl/src/draw/sw/lv_draw_sw_rect.c **** {
1108:lvgl/src/draw/sw/lv_draw_sw_rect.c ****     if(dsc->outline_opa <= LV_OPA_MIN) return;
1109:lvgl/src/draw/sw/lv_draw_sw_rect.c ****     if(dsc->outline_width == 0) return;
1110:lvgl/src/draw/sw/lv_draw_sw_rect.c **** 
1111:lvgl/src/draw/sw/lv_draw_sw_rect.c ****     lv_opa_t opa = dsc->outline_opa;
1112:lvgl/src/draw/sw/lv_draw_sw_rect.c **** 
1113:lvgl/src/draw/sw/lv_draw_sw_rect.c ****     if(opa > LV_OPA_MAX) opa = LV_OPA_COVER;
1114:lvgl/src/draw/sw/lv_draw_sw_rect.c **** 
ARM GAS  C:\Users\OSD\AppData\Local\Temp\ccS6lZqb.s 			page 21


1115:lvgl/src/draw/sw/lv_draw_sw_rect.c ****     /*Get the inner radius*/
1116:lvgl/src/draw/sw/lv_draw_sw_rect.c ****     lv_area_t area_inner;
1117:lvgl/src/draw/sw/lv_draw_sw_rect.c ****     lv_area_copy(&area_inner, coords);
1118:lvgl/src/draw/sw/lv_draw_sw_rect.c **** 
1119:lvgl/src/draw/sw/lv_draw_sw_rect.c ****     /*Bring the outline closer to make sure there is no color bleeding with pad=0*/
1120:lvgl/src/draw/sw/lv_draw_sw_rect.c ****     lv_coord_t pad = dsc->outline_pad - 1;
1121:lvgl/src/draw/sw/lv_draw_sw_rect.c ****     area_inner.x1 -= pad;
1122:lvgl/src/draw/sw/lv_draw_sw_rect.c ****     area_inner.y1 -= pad;
1123:lvgl/src/draw/sw/lv_draw_sw_rect.c ****     area_inner.x2 += pad;
1124:lvgl/src/draw/sw/lv_draw_sw_rect.c ****     area_inner.y2 += pad;
1125:lvgl/src/draw/sw/lv_draw_sw_rect.c **** 
1126:lvgl/src/draw/sw/lv_draw_sw_rect.c ****     lv_area_t area_outer;
1127:lvgl/src/draw/sw/lv_draw_sw_rect.c ****     lv_area_copy(&area_outer, &area_inner);
1128:lvgl/src/draw/sw/lv_draw_sw_rect.c **** 
1129:lvgl/src/draw/sw/lv_draw_sw_rect.c ****     area_outer.x1 -= dsc->outline_width;
1130:lvgl/src/draw/sw/lv_draw_sw_rect.c ****     area_outer.x2 += dsc->outline_width;
1131:lvgl/src/draw/sw/lv_draw_sw_rect.c ****     area_outer.y1 -= dsc->outline_width;
1132:lvgl/src/draw/sw/lv_draw_sw_rect.c ****     area_outer.y2 += dsc->outline_width;
1133:lvgl/src/draw/sw/lv_draw_sw_rect.c **** 
1134:lvgl/src/draw/sw/lv_draw_sw_rect.c ****     int32_t inner_w = lv_area_get_width(&area_inner);
1135:lvgl/src/draw/sw/lv_draw_sw_rect.c ****     int32_t inner_h = lv_area_get_height(&area_inner);
1136:lvgl/src/draw/sw/lv_draw_sw_rect.c ****     int32_t rin = dsc->radius;
1137:lvgl/src/draw/sw/lv_draw_sw_rect.c ****     int32_t short_side = LV_MIN(inner_w, inner_h);
1138:lvgl/src/draw/sw/lv_draw_sw_rect.c ****     if(rin > short_side >> 1) rin = short_side >> 1;
1139:lvgl/src/draw/sw/lv_draw_sw_rect.c **** 
1140:lvgl/src/draw/sw/lv_draw_sw_rect.c ****     lv_coord_t rout = rin + dsc->outline_width;
1141:lvgl/src/draw/sw/lv_draw_sw_rect.c **** 
1142:lvgl/src/draw/sw/lv_draw_sw_rect.c ****     draw_border_generic(draw_ctx, &area_outer, &area_inner, rout, rin, dsc->outline_color, dsc->out
1143:lvgl/src/draw/sw/lv_draw_sw_rect.c ****                         dsc->blend_mode);
1144:lvgl/src/draw/sw/lv_draw_sw_rect.c **** }
1145:lvgl/src/draw/sw/lv_draw_sw_rect.c **** 
1146:lvgl/src/draw/sw/lv_draw_sw_rect.c **** void draw_border_generic(lv_draw_ctx_t * draw_ctx, const lv_area_t * outer_area, const lv_area_t * 
1147:lvgl/src/draw/sw/lv_draw_sw_rect.c ****                          lv_coord_t rout, lv_coord_t rin, lv_color_t color, lv_opa_t opa, lv_blend_
1148:lvgl/src/draw/sw/lv_draw_sw_rect.c **** {
1149:lvgl/src/draw/sw/lv_draw_sw_rect.c ****     opa = opa >= LV_OPA_COVER ? LV_OPA_COVER : opa;
1150:lvgl/src/draw/sw/lv_draw_sw_rect.c **** 
1151:lvgl/src/draw/sw/lv_draw_sw_rect.c ****     bool mask_any = lv_draw_mask_is_any(outer_area);
1152:lvgl/src/draw/sw/lv_draw_sw_rect.c **** 
1153:lvgl/src/draw/sw/lv_draw_sw_rect.c **** #if LV_DRAW_COMPLEX
1154:lvgl/src/draw/sw/lv_draw_sw_rect.c **** 
1155:lvgl/src/draw/sw/lv_draw_sw_rect.c ****     if(!mask_any && rout == 0 && rin == 0) {
1156:lvgl/src/draw/sw/lv_draw_sw_rect.c ****         draw_border_simple(draw_ctx, outer_area, inner_area, color, opa);
1157:lvgl/src/draw/sw/lv_draw_sw_rect.c ****         return;
1158:lvgl/src/draw/sw/lv_draw_sw_rect.c ****     }
1159:lvgl/src/draw/sw/lv_draw_sw_rect.c **** 
1160:lvgl/src/draw/sw/lv_draw_sw_rect.c ****     /*Get clipped draw area which is the real draw area.
1161:lvgl/src/draw/sw/lv_draw_sw_rect.c ****      *It is always the same or inside `coords`*/
1162:lvgl/src/draw/sw/lv_draw_sw_rect.c ****     lv_area_t draw_area;
1163:lvgl/src/draw/sw/lv_draw_sw_rect.c ****     if(!_lv_area_intersect(&draw_area, outer_area, draw_ctx->clip_area)) return;
1164:lvgl/src/draw/sw/lv_draw_sw_rect.c ****     int32_t draw_area_w = lv_area_get_width(&draw_area);
1165:lvgl/src/draw/sw/lv_draw_sw_rect.c **** 
1166:lvgl/src/draw/sw/lv_draw_sw_rect.c ****     lv_draw_sw_blend_dsc_t blend_dsc;
1167:lvgl/src/draw/sw/lv_draw_sw_rect.c ****     lv_memset_00(&blend_dsc, sizeof(blend_dsc));
1168:lvgl/src/draw/sw/lv_draw_sw_rect.c ****     blend_dsc.mask_buf = lv_mem_buf_get(draw_area_w);;
1169:lvgl/src/draw/sw/lv_draw_sw_rect.c **** 
1170:lvgl/src/draw/sw/lv_draw_sw_rect.c ****     /*Create mask for the outer area*/
1171:lvgl/src/draw/sw/lv_draw_sw_rect.c ****     int16_t mask_rout_id = LV_MASK_ID_INV;
ARM GAS  C:\Users\OSD\AppData\Local\Temp\ccS6lZqb.s 			page 22


1172:lvgl/src/draw/sw/lv_draw_sw_rect.c ****     lv_draw_mask_radius_param_t mask_rout_param;
1173:lvgl/src/draw/sw/lv_draw_sw_rect.c ****     if(rout > 0) {
1174:lvgl/src/draw/sw/lv_draw_sw_rect.c ****         lv_draw_mask_radius_init(&mask_rout_param, outer_area, rout, false);
1175:lvgl/src/draw/sw/lv_draw_sw_rect.c ****         mask_rout_id = lv_draw_mask_add(&mask_rout_param, NULL);
1176:lvgl/src/draw/sw/lv_draw_sw_rect.c ****     }
1177:lvgl/src/draw/sw/lv_draw_sw_rect.c **** 
1178:lvgl/src/draw/sw/lv_draw_sw_rect.c ****     /*Create mask for the inner mask*/
1179:lvgl/src/draw/sw/lv_draw_sw_rect.c ****     lv_draw_mask_radius_param_t mask_rin_param;
1180:lvgl/src/draw/sw/lv_draw_sw_rect.c ****     lv_draw_mask_radius_init(&mask_rin_param, inner_area, rin, true);
1181:lvgl/src/draw/sw/lv_draw_sw_rect.c ****     int16_t mask_rin_id = lv_draw_mask_add(&mask_rin_param, NULL);
1182:lvgl/src/draw/sw/lv_draw_sw_rect.c **** 
1183:lvgl/src/draw/sw/lv_draw_sw_rect.c ****     int32_t h;
1184:lvgl/src/draw/sw/lv_draw_sw_rect.c ****     lv_area_t blend_area;
1185:lvgl/src/draw/sw/lv_draw_sw_rect.c ****     blend_dsc.blend_area = &blend_area;
1186:lvgl/src/draw/sw/lv_draw_sw_rect.c ****     blend_dsc.mask_area = &blend_area;
1187:lvgl/src/draw/sw/lv_draw_sw_rect.c ****     blend_dsc.color = color;
1188:lvgl/src/draw/sw/lv_draw_sw_rect.c ****     blend_dsc.opa = opa;
1189:lvgl/src/draw/sw/lv_draw_sw_rect.c ****     blend_dsc.blend_mode = blend_mode;
1190:lvgl/src/draw/sw/lv_draw_sw_rect.c **** 
1191:lvgl/src/draw/sw/lv_draw_sw_rect.c ****     /*Calculate the x and y coordinates where the straight parts area*/
1192:lvgl/src/draw/sw/lv_draw_sw_rect.c ****     lv_area_t core_area;
1193:lvgl/src/draw/sw/lv_draw_sw_rect.c ****     core_area.x1 = LV_MAX(outer_area->x1 + rout, inner_area->x1);
1194:lvgl/src/draw/sw/lv_draw_sw_rect.c ****     core_area.x2 = LV_MIN(outer_area->x2 - rout, inner_area->x2);
1195:lvgl/src/draw/sw/lv_draw_sw_rect.c ****     core_area.y1 = LV_MAX(outer_area->y1 + rout, inner_area->y1);
1196:lvgl/src/draw/sw/lv_draw_sw_rect.c ****     core_area.y2 = LV_MIN(outer_area->y2 - rout, inner_area->y2);
1197:lvgl/src/draw/sw/lv_draw_sw_rect.c ****     lv_coord_t core_w = lv_area_get_width(&core_area);
1198:lvgl/src/draw/sw/lv_draw_sw_rect.c **** 
1199:lvgl/src/draw/sw/lv_draw_sw_rect.c ****     bool top_side = outer_area->y1 <= inner_area->y1 ? true : false;
1200:lvgl/src/draw/sw/lv_draw_sw_rect.c ****     bool bottom_side = outer_area->y2 >= inner_area->y2 ? true : false;
1201:lvgl/src/draw/sw/lv_draw_sw_rect.c **** 
1202:lvgl/src/draw/sw/lv_draw_sw_rect.c ****     /*If there is other masks, need to draw line by line*/
1203:lvgl/src/draw/sw/lv_draw_sw_rect.c ****     if(mask_any) {
1204:lvgl/src/draw/sw/lv_draw_sw_rect.c ****         blend_area.x1 = draw_area.x1;
1205:lvgl/src/draw/sw/lv_draw_sw_rect.c ****         blend_area.x2 = draw_area.x2;
1206:lvgl/src/draw/sw/lv_draw_sw_rect.c ****         for(h = draw_area.y1; h <= draw_area.y2; h++) {
1207:lvgl/src/draw/sw/lv_draw_sw_rect.c ****             if(!top_side && h < core_area.y1) continue;
1208:lvgl/src/draw/sw/lv_draw_sw_rect.c ****             if(!bottom_side && h > core_area.y2) break;
1209:lvgl/src/draw/sw/lv_draw_sw_rect.c **** 
1210:lvgl/src/draw/sw/lv_draw_sw_rect.c ****             blend_area.y1 = h;
1211:lvgl/src/draw/sw/lv_draw_sw_rect.c ****             blend_area.y2 = h;
1212:lvgl/src/draw/sw/lv_draw_sw_rect.c **** 
1213:lvgl/src/draw/sw/lv_draw_sw_rect.c ****             lv_memset_ff(blend_dsc.mask_buf, draw_area_w);
1214:lvgl/src/draw/sw/lv_draw_sw_rect.c ****             blend_dsc.mask_res = lv_draw_mask_apply(blend_dsc.mask_buf, draw_area.x1, h, draw_area_
1215:lvgl/src/draw/sw/lv_draw_sw_rect.c ****             lv_draw_sw_blend(draw_ctx, &blend_dsc);
1216:lvgl/src/draw/sw/lv_draw_sw_rect.c ****         }
1217:lvgl/src/draw/sw/lv_draw_sw_rect.c **** 
1218:lvgl/src/draw/sw/lv_draw_sw_rect.c ****         lv_draw_mask_free_param(&mask_rin_param);
1219:lvgl/src/draw/sw/lv_draw_sw_rect.c ****         lv_draw_mask_remove_id(mask_rin_id);
1220:lvgl/src/draw/sw/lv_draw_sw_rect.c ****         if(mask_rout_id != LV_MASK_ID_INV) {
1221:lvgl/src/draw/sw/lv_draw_sw_rect.c ****             lv_draw_mask_free_param(&mask_rout_param);
1222:lvgl/src/draw/sw/lv_draw_sw_rect.c ****             lv_draw_mask_remove_id(mask_rout_id);
1223:lvgl/src/draw/sw/lv_draw_sw_rect.c ****         }
1224:lvgl/src/draw/sw/lv_draw_sw_rect.c ****         lv_mem_buf_release(blend_dsc.mask_buf);
1225:lvgl/src/draw/sw/lv_draw_sw_rect.c ****         return;
1226:lvgl/src/draw/sw/lv_draw_sw_rect.c ****     }
1227:lvgl/src/draw/sw/lv_draw_sw_rect.c **** 
1228:lvgl/src/draw/sw/lv_draw_sw_rect.c ****     /*No masks*/
ARM GAS  C:\Users\OSD\AppData\Local\Temp\ccS6lZqb.s 			page 23


1229:lvgl/src/draw/sw/lv_draw_sw_rect.c ****     bool left_side = outer_area->x1 <= inner_area->x1 ? true : false;
1230:lvgl/src/draw/sw/lv_draw_sw_rect.c ****     bool right_side = outer_area->x2 >= inner_area->x2 ? true : false;
1231:lvgl/src/draw/sw/lv_draw_sw_rect.c **** 
1232:lvgl/src/draw/sw/lv_draw_sw_rect.c ****     bool split_hor = true;
1233:lvgl/src/draw/sw/lv_draw_sw_rect.c ****     if(left_side && right_side && top_side && bottom_side &&
1234:lvgl/src/draw/sw/lv_draw_sw_rect.c ****        core_w < SPLIT_LIMIT) {
1235:lvgl/src/draw/sw/lv_draw_sw_rect.c ****         split_hor = false;
1236:lvgl/src/draw/sw/lv_draw_sw_rect.c ****     }
1237:lvgl/src/draw/sw/lv_draw_sw_rect.c **** 
1238:lvgl/src/draw/sw/lv_draw_sw_rect.c ****     blend_dsc.mask_res = LV_DRAW_MASK_RES_FULL_COVER;
1239:lvgl/src/draw/sw/lv_draw_sw_rect.c ****     /*Draw the straight lines first if they are long enough*/
1240:lvgl/src/draw/sw/lv_draw_sw_rect.c ****     if(top_side && split_hor) {
1241:lvgl/src/draw/sw/lv_draw_sw_rect.c ****         blend_area.x1 = core_area.x1;
1242:lvgl/src/draw/sw/lv_draw_sw_rect.c ****         blend_area.x2 = core_area.x2;
1243:lvgl/src/draw/sw/lv_draw_sw_rect.c ****         blend_area.y1 = outer_area->y1;
1244:lvgl/src/draw/sw/lv_draw_sw_rect.c ****         blend_area.y2 = inner_area->y1 - 1;
1245:lvgl/src/draw/sw/lv_draw_sw_rect.c ****         lv_draw_sw_blend(draw_ctx, &blend_dsc);
1246:lvgl/src/draw/sw/lv_draw_sw_rect.c ****     }
1247:lvgl/src/draw/sw/lv_draw_sw_rect.c **** 
1248:lvgl/src/draw/sw/lv_draw_sw_rect.c ****     if(bottom_side && split_hor) {
1249:lvgl/src/draw/sw/lv_draw_sw_rect.c ****         blend_area.x1 = core_area.x1;
1250:lvgl/src/draw/sw/lv_draw_sw_rect.c ****         blend_area.x2 = core_area.x2;
1251:lvgl/src/draw/sw/lv_draw_sw_rect.c ****         blend_area.y1 = inner_area->y2 + 1;
1252:lvgl/src/draw/sw/lv_draw_sw_rect.c ****         blend_area.y2 = outer_area->y2;
1253:lvgl/src/draw/sw/lv_draw_sw_rect.c ****         lv_draw_sw_blend(draw_ctx, &blend_dsc);
1254:lvgl/src/draw/sw/lv_draw_sw_rect.c ****     }
1255:lvgl/src/draw/sw/lv_draw_sw_rect.c **** 
1256:lvgl/src/draw/sw/lv_draw_sw_rect.c ****     if(left_side) {
1257:lvgl/src/draw/sw/lv_draw_sw_rect.c ****         blend_area.x1 = outer_area->x1;
1258:lvgl/src/draw/sw/lv_draw_sw_rect.c ****         blend_area.x2 = inner_area->x1 - 1;
1259:lvgl/src/draw/sw/lv_draw_sw_rect.c ****         blend_area.y1 = core_area.y1;
1260:lvgl/src/draw/sw/lv_draw_sw_rect.c ****         blend_area.y2 = core_area.y2;
1261:lvgl/src/draw/sw/lv_draw_sw_rect.c ****         lv_draw_sw_blend(draw_ctx, &blend_dsc);
1262:lvgl/src/draw/sw/lv_draw_sw_rect.c ****     }
1263:lvgl/src/draw/sw/lv_draw_sw_rect.c **** 
1264:lvgl/src/draw/sw/lv_draw_sw_rect.c ****     if(right_side) {
1265:lvgl/src/draw/sw/lv_draw_sw_rect.c ****         blend_area.x1 = inner_area->x2 + 1;
1266:lvgl/src/draw/sw/lv_draw_sw_rect.c ****         blend_area.x2 = outer_area->x2;
1267:lvgl/src/draw/sw/lv_draw_sw_rect.c ****         blend_area.y1 = core_area.y1;
1268:lvgl/src/draw/sw/lv_draw_sw_rect.c ****         blend_area.y2 = core_area.y2;
1269:lvgl/src/draw/sw/lv_draw_sw_rect.c ****         lv_draw_sw_blend(draw_ctx, &blend_dsc);
1270:lvgl/src/draw/sw/lv_draw_sw_rect.c ****     }
1271:lvgl/src/draw/sw/lv_draw_sw_rect.c **** 
1272:lvgl/src/draw/sw/lv_draw_sw_rect.c ****     /*Draw the corners*/
1273:lvgl/src/draw/sw/lv_draw_sw_rect.c ****     lv_coord_t blend_w;
1274:lvgl/src/draw/sw/lv_draw_sw_rect.c **** 
1275:lvgl/src/draw/sw/lv_draw_sw_rect.c ****     /*Left and right corner together if they are close to each other*/
1276:lvgl/src/draw/sw/lv_draw_sw_rect.c ****     if(!split_hor) {
1277:lvgl/src/draw/sw/lv_draw_sw_rect.c ****         /*Calculate the top corner and mirror it to the bottom*/
1278:lvgl/src/draw/sw/lv_draw_sw_rect.c ****         blend_area.x1 = draw_area.x1;
1279:lvgl/src/draw/sw/lv_draw_sw_rect.c ****         blend_area.x2 = draw_area.x2;
1280:lvgl/src/draw/sw/lv_draw_sw_rect.c ****         lv_coord_t max_h = LV_MAX(rout, inner_area->y1 - outer_area->y1);
1281:lvgl/src/draw/sw/lv_draw_sw_rect.c ****         for(h = 0; h < max_h; h++) {
1282:lvgl/src/draw/sw/lv_draw_sw_rect.c ****             lv_coord_t top_y = outer_area->y1 + h;
1283:lvgl/src/draw/sw/lv_draw_sw_rect.c ****             lv_coord_t bottom_y = outer_area->y2 - h;
1284:lvgl/src/draw/sw/lv_draw_sw_rect.c ****             if(top_y < draw_area.y1 && bottom_y > draw_area.y2) continue;   /*This line is clipped 
1285:lvgl/src/draw/sw/lv_draw_sw_rect.c **** 
ARM GAS  C:\Users\OSD\AppData\Local\Temp\ccS6lZqb.s 			page 24


1286:lvgl/src/draw/sw/lv_draw_sw_rect.c ****             lv_memset_ff(blend_dsc.mask_buf, draw_area_w);
1287:lvgl/src/draw/sw/lv_draw_sw_rect.c ****             blend_dsc.mask_res = lv_draw_mask_apply(blend_dsc.mask_buf, blend_area.x1, top_y, draw_
1288:lvgl/src/draw/sw/lv_draw_sw_rect.c **** 
1289:lvgl/src/draw/sw/lv_draw_sw_rect.c ****             if(top_y >= draw_area.y1) {
1290:lvgl/src/draw/sw/lv_draw_sw_rect.c ****                 blend_area.y1 = top_y;
1291:lvgl/src/draw/sw/lv_draw_sw_rect.c ****                 blend_area.y2 = top_y;
1292:lvgl/src/draw/sw/lv_draw_sw_rect.c ****                 lv_draw_sw_blend(draw_ctx, &blend_dsc);
1293:lvgl/src/draw/sw/lv_draw_sw_rect.c ****             }
1294:lvgl/src/draw/sw/lv_draw_sw_rect.c **** 
1295:lvgl/src/draw/sw/lv_draw_sw_rect.c ****             if(bottom_y <= draw_area.y2) {
1296:lvgl/src/draw/sw/lv_draw_sw_rect.c ****                 blend_area.y1 = bottom_y;
1297:lvgl/src/draw/sw/lv_draw_sw_rect.c ****                 blend_area.y2 = bottom_y;
1298:lvgl/src/draw/sw/lv_draw_sw_rect.c ****                 lv_draw_sw_blend(draw_ctx, &blend_dsc);
1299:lvgl/src/draw/sw/lv_draw_sw_rect.c ****             }
1300:lvgl/src/draw/sw/lv_draw_sw_rect.c ****         }
1301:lvgl/src/draw/sw/lv_draw_sw_rect.c ****     }
1302:lvgl/src/draw/sw/lv_draw_sw_rect.c ****     else {
1303:lvgl/src/draw/sw/lv_draw_sw_rect.c ****         /*Left corners*/
1304:lvgl/src/draw/sw/lv_draw_sw_rect.c ****         blend_area.x1 = draw_area.x1;
1305:lvgl/src/draw/sw/lv_draw_sw_rect.c ****         blend_area.x2 = LV_MIN(draw_area.x2, core_area.x1 - 1);
1306:lvgl/src/draw/sw/lv_draw_sw_rect.c ****         blend_w = lv_area_get_width(&blend_area);
1307:lvgl/src/draw/sw/lv_draw_sw_rect.c ****         if(blend_w > 0) {
1308:lvgl/src/draw/sw/lv_draw_sw_rect.c ****             if(left_side || top_side) {
1309:lvgl/src/draw/sw/lv_draw_sw_rect.c ****                 for(h = draw_area.y1; h < core_area.y1; h++) {
1310:lvgl/src/draw/sw/lv_draw_sw_rect.c ****                     blend_area.y1 = h;
1311:lvgl/src/draw/sw/lv_draw_sw_rect.c ****                     blend_area.y2 = h;
1312:lvgl/src/draw/sw/lv_draw_sw_rect.c **** 
1313:lvgl/src/draw/sw/lv_draw_sw_rect.c ****                     lv_memset_ff(blend_dsc.mask_buf, blend_w);
1314:lvgl/src/draw/sw/lv_draw_sw_rect.c ****                     blend_dsc.mask_res = lv_draw_mask_apply(blend_dsc.mask_buf, blend_area.x1, h, b
1315:lvgl/src/draw/sw/lv_draw_sw_rect.c ****                     lv_draw_sw_blend(draw_ctx, &blend_dsc);
1316:lvgl/src/draw/sw/lv_draw_sw_rect.c ****                 }
1317:lvgl/src/draw/sw/lv_draw_sw_rect.c ****             }
1318:lvgl/src/draw/sw/lv_draw_sw_rect.c **** 
1319:lvgl/src/draw/sw/lv_draw_sw_rect.c ****             if(left_side || bottom_side) {
1320:lvgl/src/draw/sw/lv_draw_sw_rect.c ****                 for(h = core_area.y2 + 1; h <= draw_area.y2; h++) {
1321:lvgl/src/draw/sw/lv_draw_sw_rect.c ****                     blend_area.y1 = h;
1322:lvgl/src/draw/sw/lv_draw_sw_rect.c ****                     blend_area.y2 = h;
1323:lvgl/src/draw/sw/lv_draw_sw_rect.c **** 
1324:lvgl/src/draw/sw/lv_draw_sw_rect.c ****                     lv_memset_ff(blend_dsc.mask_buf, blend_w);
1325:lvgl/src/draw/sw/lv_draw_sw_rect.c ****                     blend_dsc.mask_res = lv_draw_mask_apply(blend_dsc.mask_buf, blend_area.x1, h, b
1326:lvgl/src/draw/sw/lv_draw_sw_rect.c ****                     lv_draw_sw_blend(draw_ctx, &blend_dsc);
1327:lvgl/src/draw/sw/lv_draw_sw_rect.c ****                 }
1328:lvgl/src/draw/sw/lv_draw_sw_rect.c ****             }
1329:lvgl/src/draw/sw/lv_draw_sw_rect.c ****         }
1330:lvgl/src/draw/sw/lv_draw_sw_rect.c **** 
1331:lvgl/src/draw/sw/lv_draw_sw_rect.c ****         /*Right corners*/
1332:lvgl/src/draw/sw/lv_draw_sw_rect.c ****         blend_area.x1 = LV_MAX(draw_area.x1, core_area.x2 + 1);
1333:lvgl/src/draw/sw/lv_draw_sw_rect.c ****         blend_area.x2 = draw_area.x2;
1334:lvgl/src/draw/sw/lv_draw_sw_rect.c ****         blend_w = lv_area_get_width(&blend_area);
1335:lvgl/src/draw/sw/lv_draw_sw_rect.c **** 
1336:lvgl/src/draw/sw/lv_draw_sw_rect.c ****         if(blend_w > 0) {
1337:lvgl/src/draw/sw/lv_draw_sw_rect.c ****             if(right_side || top_side) {
1338:lvgl/src/draw/sw/lv_draw_sw_rect.c ****                 for(h = draw_area.y1; h < core_area.y1; h++) {
1339:lvgl/src/draw/sw/lv_draw_sw_rect.c ****                     blend_area.y1 = h;
1340:lvgl/src/draw/sw/lv_draw_sw_rect.c ****                     blend_area.y2 = h;
1341:lvgl/src/draw/sw/lv_draw_sw_rect.c **** 
1342:lvgl/src/draw/sw/lv_draw_sw_rect.c ****                     lv_memset_ff(blend_dsc.mask_buf, blend_w);
ARM GAS  C:\Users\OSD\AppData\Local\Temp\ccS6lZqb.s 			page 25


1343:lvgl/src/draw/sw/lv_draw_sw_rect.c ****                     blend_dsc.mask_res = lv_draw_mask_apply(blend_dsc.mask_buf, blend_area.x1, h, b
1344:lvgl/src/draw/sw/lv_draw_sw_rect.c ****                     lv_draw_sw_blend(draw_ctx, &blend_dsc);
1345:lvgl/src/draw/sw/lv_draw_sw_rect.c ****                 }
1346:lvgl/src/draw/sw/lv_draw_sw_rect.c ****             }
1347:lvgl/src/draw/sw/lv_draw_sw_rect.c **** 
1348:lvgl/src/draw/sw/lv_draw_sw_rect.c ****             if(right_side || bottom_side) {
1349:lvgl/src/draw/sw/lv_draw_sw_rect.c ****                 for(h = core_area.y2 + 1; h <= draw_area.y2; h++) {
1350:lvgl/src/draw/sw/lv_draw_sw_rect.c ****                     blend_area.y1 = h;
1351:lvgl/src/draw/sw/lv_draw_sw_rect.c ****                     blend_area.y2 = h;
1352:lvgl/src/draw/sw/lv_draw_sw_rect.c **** 
1353:lvgl/src/draw/sw/lv_draw_sw_rect.c ****                     lv_memset_ff(blend_dsc.mask_buf, blend_w);
1354:lvgl/src/draw/sw/lv_draw_sw_rect.c ****                     blend_dsc.mask_res = lv_draw_mask_apply(blend_dsc.mask_buf, blend_area.x1, h, b
1355:lvgl/src/draw/sw/lv_draw_sw_rect.c ****                     lv_draw_sw_blend(draw_ctx, &blend_dsc);
1356:lvgl/src/draw/sw/lv_draw_sw_rect.c ****                 }
1357:lvgl/src/draw/sw/lv_draw_sw_rect.c ****             }
1358:lvgl/src/draw/sw/lv_draw_sw_rect.c ****         }
1359:lvgl/src/draw/sw/lv_draw_sw_rect.c ****     }
1360:lvgl/src/draw/sw/lv_draw_sw_rect.c **** 
1361:lvgl/src/draw/sw/lv_draw_sw_rect.c ****     lv_draw_mask_free_param(&mask_rin_param);
1362:lvgl/src/draw/sw/lv_draw_sw_rect.c ****     lv_draw_mask_remove_id(mask_rin_id);
1363:lvgl/src/draw/sw/lv_draw_sw_rect.c ****     lv_draw_mask_free_param(&mask_rout_param);
1364:lvgl/src/draw/sw/lv_draw_sw_rect.c ****     lv_draw_mask_remove_id(mask_rout_id);
1365:lvgl/src/draw/sw/lv_draw_sw_rect.c ****     lv_mem_buf_release(blend_dsc.mask_buf);
1366:lvgl/src/draw/sw/lv_draw_sw_rect.c **** 
1367:lvgl/src/draw/sw/lv_draw_sw_rect.c **** #else /*LV_DRAW_COMPLEX*/
1368:lvgl/src/draw/sw/lv_draw_sw_rect.c ****     LV_UNUSED(blend_mode);
1369:lvgl/src/draw/sw/lv_draw_sw_rect.c ****     LV_UNUSED(rout);
1370:lvgl/src/draw/sw/lv_draw_sw_rect.c ****     LV_UNUSED(rin);
1371:lvgl/src/draw/sw/lv_draw_sw_rect.c ****     if(!mask_any) {
1372:lvgl/src/draw/sw/lv_draw_sw_rect.c ****         draw_border_simple(draw_ctx, outer_area, inner_area, color, opa);
1373:lvgl/src/draw/sw/lv_draw_sw_rect.c ****         return;
1374:lvgl/src/draw/sw/lv_draw_sw_rect.c ****     }
1375:lvgl/src/draw/sw/lv_draw_sw_rect.c **** 
1376:lvgl/src/draw/sw/lv_draw_sw_rect.c **** #endif /*LV_DRAW_COMPLEX*/
1377:lvgl/src/draw/sw/lv_draw_sw_rect.c **** }
1378:lvgl/src/draw/sw/lv_draw_sw_rect.c **** static void draw_border_simple(lv_draw_ctx_t * draw_ctx, const lv_area_t * outer_area, const lv_are
1379:lvgl/src/draw/sw/lv_draw_sw_rect.c ****                                lv_color_t color, lv_opa_t opa)
1380:lvgl/src/draw/sw/lv_draw_sw_rect.c **** {
  28              		.loc 1 1380 1 view -0
  29              		.cfi_startproc
  30              		@ args = 4, pretend = 0, frame = 56
  31              		@ frame_needed = 0, uses_anonymous_args = 0
  32              		.loc 1 1380 1 is_stmt 0 view .LVU1
  33 0000 2DE9F04F 		push	{r4, r5, r6, r7, r8, r9, r10, fp, lr}
  34              		.cfi_def_cfa_offset 36
  35              		.cfi_offset 4, -36
  36              		.cfi_offset 5, -32
  37              		.cfi_offset 6, -28
  38              		.cfi_offset 7, -24
  39              		.cfi_offset 8, -20
  40              		.cfi_offset 9, -16
  41              		.cfi_offset 10, -12
  42              		.cfi_offset 11, -8
  43              		.cfi_offset 14, -4
  44 0004 8FB0     		sub	sp, sp, #60
  45              		.cfi_def_cfa_offset 96
  46 0006 0190     		str	r0, [sp, #4]
ARM GAS  C:\Users\OSD\AppData\Local\Temp\ccS6lZqb.s 			page 26


  47 0008 0D46     		mov	r5, r1
  48 000a 1446     		mov	r4, r2
  49 000c 1E46     		mov	r6, r3
  50              	.LVL1:
1381:lvgl/src/draw/sw/lv_draw_sw_rect.c ****     lv_area_t a;
  51              		.loc 1 1381 5 is_stmt 1 view .LVU2
1382:lvgl/src/draw/sw/lv_draw_sw_rect.c ****     lv_draw_sw_blend_dsc_t blend_dsc;
  52              		.loc 1 1382 5 view .LVU3
1383:lvgl/src/draw/sw/lv_draw_sw_rect.c ****     lv_memset_00(&blend_dsc, sizeof(lv_draw_sw_blend_dsc_t));
  53              		.loc 1 1383 5 view .LVU4
  54 000e 1C21     		movs	r1, #28
  55              	.LVL2:
  56              		.loc 1 1383 5 is_stmt 0 view .LVU5
  57 0010 05A8     		add	r0, sp, #20
  58              	.LVL3:
  59              		.loc 1 1383 5 view .LVU6
  60 0012 FFF7FEFF 		bl	lv_memset_00
  61              	.LVL4:
1384:lvgl/src/draw/sw/lv_draw_sw_rect.c ****     blend_dsc.blend_area = &a;
  62              		.loc 1 1384 5 is_stmt 1 view .LVU7
  63              		.loc 1 1384 26 is_stmt 0 view .LVU8
  64 0016 0CAB     		add	r3, sp, #48
  65 0018 0593     		str	r3, [sp, #20]
1385:lvgl/src/draw/sw/lv_draw_sw_rect.c ****     blend_dsc.color = color;
  66              		.loc 1 1385 5 is_stmt 1 view .LVU9
  67              	.LVL5:
  68              		.loc 1 1385 21 is_stmt 0 view .LVU10
  69 001a 0796     		str	r6, [sp, #28]
1386:lvgl/src/draw/sw/lv_draw_sw_rect.c ****     blend_dsc.opa = opa;
  70              		.loc 1 1386 5 is_stmt 1 view .LVU11
  71              		.loc 1 1386 19 is_stmt 0 view .LVU12
  72 001c 9DF86030 		ldrb	r3, [sp, #96]	@ zero_extendqisi2
  73 0020 8DF82C30 		strb	r3, [sp, #44]
1387:lvgl/src/draw/sw/lv_draw_sw_rect.c **** 
1388:lvgl/src/draw/sw/lv_draw_sw_rect.c ****     bool top_side = outer_area->y1 <= inner_area->y1 ? true : false;
  74              		.loc 1 1388 5 is_stmt 1 view .LVU13
  75              		.loc 1 1388 31 is_stmt 0 view .LVU14
  76 0024 B5F90260 		ldrsh	r6, [r5, #2]
  77              	.LVL6:
  78              		.loc 1 1388 49 view .LVU15
  79 0028 B4F902B0 		ldrsh	fp, [r4, #2]
  80              	.LVL7:
1389:lvgl/src/draw/sw/lv_draw_sw_rect.c ****     bool bottom_side = outer_area->y2 >= inner_area->y2 ? true : false;
  81              		.loc 1 1389 5 is_stmt 1 view .LVU16
  82              		.loc 1 1389 34 is_stmt 0 view .LVU17
  83 002c B5F906A0 		ldrsh	r10, [r5, #6]
  84              		.loc 1 1389 52 view .LVU18
  85 0030 B4F90690 		ldrsh	r9, [r4, #6]
  86              	.LVL8:
1390:lvgl/src/draw/sw/lv_draw_sw_rect.c ****     bool left_side = outer_area->x1 <= inner_area->x1 ? true : false;
  87              		.loc 1 1390 5 is_stmt 1 view .LVU19
  88              		.loc 1 1390 32 is_stmt 0 view .LVU20
  89 0034 B5F90080 		ldrsh	r8, [r5]
  90              		.loc 1 1390 50 view .LVU21
  91 0038 B4F90030 		ldrsh	r3, [r4]
  92 003c 0293     		str	r3, [sp, #8]
  93              	.LVL9:
ARM GAS  C:\Users\OSD\AppData\Local\Temp\ccS6lZqb.s 			page 27


1391:lvgl/src/draw/sw/lv_draw_sw_rect.c ****     bool right_side = outer_area->x2 >= inner_area->x2 ? true : false;
  94              		.loc 1 1391 5 is_stmt 1 view .LVU22
  95              		.loc 1 1391 33 is_stmt 0 view .LVU23
  96 003e B5F90470 		ldrsh	r7, [r5, #4]
  97              		.loc 1 1391 51 view .LVU24
  98 0042 B4F90430 		ldrsh	r3, [r4, #4]
  99 0046 0393     		str	r3, [sp, #12]
 100              	.LVL10:
1392:lvgl/src/draw/sw/lv_draw_sw_rect.c **** 
1393:lvgl/src/draw/sw/lv_draw_sw_rect.c ****     /*Top*/
1394:lvgl/src/draw/sw/lv_draw_sw_rect.c ****     a.x1 = outer_area->x1;
 101              		.loc 1 1394 5 is_stmt 1 view .LVU25
 102              		.loc 1 1394 10 is_stmt 0 view .LVU26
 103 0048 ADF83080 		strh	r8, [sp, #48]	@ movhi
1395:lvgl/src/draw/sw/lv_draw_sw_rect.c ****     a.x2 = outer_area->x2;
 104              		.loc 1 1395 5 is_stmt 1 view .LVU27
 105              		.loc 1 1395 10 is_stmt 0 view .LVU28
 106 004c ADF83470 		strh	r7, [sp, #52]	@ movhi
1396:lvgl/src/draw/sw/lv_draw_sw_rect.c ****     a.y1 = outer_area->y1;
 107              		.loc 1 1396 5 is_stmt 1 view .LVU29
 108              		.loc 1 1396 10 is_stmt 0 view .LVU30
 109 0050 ADF83260 		strh	r6, [sp, #50]	@ movhi
1397:lvgl/src/draw/sw/lv_draw_sw_rect.c ****     a.y2 = inner_area->y1 - 1;
 110              		.loc 1 1397 5 is_stmt 1 view .LVU31
 111              		.loc 1 1397 22 is_stmt 0 view .LVU32
 112 0054 6388     		ldrh	r3, [r4, #2]
 113              		.loc 1 1397 27 view .LVU33
 114 0056 013B     		subs	r3, r3, #1
 115              		.loc 1 1397 10 view .LVU34
 116 0058 ADF83630 		strh	r3, [sp, #54]	@ movhi
1398:lvgl/src/draw/sw/lv_draw_sw_rect.c ****     if(top_side) {
 117              		.loc 1 1398 5 is_stmt 1 view .LVU35
 118              		.loc 1 1398 7 is_stmt 0 view .LVU36
 119 005c 5E45     		cmp	r6, fp
 120 005e 2EDD     		ble	.L11
 121              	.L2:
1399:lvgl/src/draw/sw/lv_draw_sw_rect.c ****         lv_draw_sw_blend(draw_ctx, &blend_dsc);
1400:lvgl/src/draw/sw/lv_draw_sw_rect.c ****     }
1401:lvgl/src/draw/sw/lv_draw_sw_rect.c **** 
1402:lvgl/src/draw/sw/lv_draw_sw_rect.c ****     /*Bottom*/
1403:lvgl/src/draw/sw/lv_draw_sw_rect.c ****     a.y1 = inner_area->y2 + 1;
 122              		.loc 1 1403 5 is_stmt 1 view .LVU37
 123              		.loc 1 1403 22 is_stmt 0 view .LVU38
 124 0060 E388     		ldrh	r3, [r4, #6]
 125              		.loc 1 1403 27 view .LVU39
 126 0062 0133     		adds	r3, r3, #1
 127              		.loc 1 1403 10 view .LVU40
 128 0064 ADF83230 		strh	r3, [sp, #50]	@ movhi
1404:lvgl/src/draw/sw/lv_draw_sw_rect.c ****     a.y2 = outer_area->y2;
 129              		.loc 1 1404 5 is_stmt 1 view .LVU41
 130              		.loc 1 1404 22 is_stmt 0 view .LVU42
 131 0068 B5F90630 		ldrsh	r3, [r5, #6]
 132              		.loc 1 1404 10 view .LVU43
 133 006c ADF83630 		strh	r3, [sp, #54]	@ movhi
1405:lvgl/src/draw/sw/lv_draw_sw_rect.c ****     if(bottom_side) {
 134              		.loc 1 1405 5 is_stmt 1 view .LVU44
 135              		.loc 1 1405 7 is_stmt 0 view .LVU45
ARM GAS  C:\Users\OSD\AppData\Local\Temp\ccS6lZqb.s 			page 28


 136 0070 CA45     		cmp	r10, r9
 137 0072 29DA     		bge	.L12
 138              	.L3:
1406:lvgl/src/draw/sw/lv_draw_sw_rect.c ****         lv_draw_sw_blend(draw_ctx, &blend_dsc);
1407:lvgl/src/draw/sw/lv_draw_sw_rect.c ****     }
1408:lvgl/src/draw/sw/lv_draw_sw_rect.c **** 
1409:lvgl/src/draw/sw/lv_draw_sw_rect.c ****     /*Left*/
1410:lvgl/src/draw/sw/lv_draw_sw_rect.c ****     a.x1 = outer_area->x1;
 139              		.loc 1 1410 5 is_stmt 1 view .LVU46
 140              		.loc 1 1410 22 is_stmt 0 view .LVU47
 141 0074 B5F90030 		ldrsh	r3, [r5]
 142              		.loc 1 1410 10 view .LVU48
 143 0078 ADF83030 		strh	r3, [sp, #48]	@ movhi
1411:lvgl/src/draw/sw/lv_draw_sw_rect.c ****     a.x2 = inner_area->x1 - 1;
 144              		.loc 1 1411 5 is_stmt 1 view .LVU49
 145              		.loc 1 1411 22 is_stmt 0 view .LVU50
 146 007c 2388     		ldrh	r3, [r4]
 147              		.loc 1 1411 27 view .LVU51
 148 007e 013B     		subs	r3, r3, #1
 149              		.loc 1 1411 10 view .LVU52
 150 0080 ADF83430 		strh	r3, [sp, #52]	@ movhi
1412:lvgl/src/draw/sw/lv_draw_sw_rect.c ****     a.y1 = (top_side) ? inner_area->y1 : outer_area->y1;
 151              		.loc 1 1412 5 is_stmt 1 view .LVU53
 152              		.loc 1 1412 10 is_stmt 0 view .LVU54
 153 0084 5E45     		cmp	r6, fp
 154 0086 24DC     		bgt	.L4
 155              		.loc 1 1412 10 discriminator 1 view .LVU55
 156 0088 B4F90230 		ldrsh	r3, [r4, #2]
 157              	.L5:
 158              		.loc 1 1412 10 discriminator 4 view .LVU56
 159 008c ADF83230 		strh	r3, [sp, #50]	@ movhi
1413:lvgl/src/draw/sw/lv_draw_sw_rect.c ****     a.y2 = (bottom_side) ? inner_area->y2 : outer_area->y2;
 160              		.loc 1 1413 5 is_stmt 1 discriminator 4 view .LVU57
 161              		.loc 1 1413 10 is_stmt 0 discriminator 4 view .LVU58
 162 0090 CA45     		cmp	r10, r9
 163 0092 21DB     		blt	.L6
 164              		.loc 1 1413 10 discriminator 1 view .LVU59
 165 0094 B4F90630 		ldrsh	r3, [r4, #6]
 166              	.L7:
 167              		.loc 1 1413 10 discriminator 4 view .LVU60
 168 0098 ADF83630 		strh	r3, [sp, #54]	@ movhi
1414:lvgl/src/draw/sw/lv_draw_sw_rect.c ****     if(left_side) {
 169              		.loc 1 1414 5 is_stmt 1 discriminator 4 view .LVU61
 170              		.loc 1 1414 7 is_stmt 0 discriminator 4 view .LVU62
 171 009c 029B     		ldr	r3, [sp, #8]
 172 009e 9845     		cmp	r8, r3
 173 00a0 1DDD     		ble	.L13
 174              	.L8:
1415:lvgl/src/draw/sw/lv_draw_sw_rect.c ****         lv_draw_sw_blend(draw_ctx, &blend_dsc);
1416:lvgl/src/draw/sw/lv_draw_sw_rect.c ****     }
1417:lvgl/src/draw/sw/lv_draw_sw_rect.c **** 
1418:lvgl/src/draw/sw/lv_draw_sw_rect.c ****     /*Right*/
1419:lvgl/src/draw/sw/lv_draw_sw_rect.c ****     a.x1 = inner_area->x2 + 1;
 175              		.loc 1 1419 5 is_stmt 1 view .LVU63
 176              		.loc 1 1419 22 is_stmt 0 view .LVU64
 177 00a2 A388     		ldrh	r3, [r4, #4]
 178              		.loc 1 1419 27 view .LVU65
ARM GAS  C:\Users\OSD\AppData\Local\Temp\ccS6lZqb.s 			page 29


 179 00a4 0133     		adds	r3, r3, #1
 180              		.loc 1 1419 10 view .LVU66
 181 00a6 ADF83030 		strh	r3, [sp, #48]	@ movhi
1420:lvgl/src/draw/sw/lv_draw_sw_rect.c ****     a.x2 = outer_area->x2;
 182              		.loc 1 1420 5 is_stmt 1 view .LVU67
 183              		.loc 1 1420 22 is_stmt 0 view .LVU68
 184 00aa B5F90430 		ldrsh	r3, [r5, #4]
 185              		.loc 1 1420 10 view .LVU69
 186 00ae ADF83430 		strh	r3, [sp, #52]	@ movhi
1421:lvgl/src/draw/sw/lv_draw_sw_rect.c ****     if(right_side) {
 187              		.loc 1 1421 5 is_stmt 1 view .LVU70
 188              		.loc 1 1421 7 is_stmt 0 view .LVU71
 189 00b2 039B     		ldr	r3, [sp, #12]
 190 00b4 9F42     		cmp	r7, r3
 191 00b6 17DA     		bge	.L14
 192              	.L1:
1422:lvgl/src/draw/sw/lv_draw_sw_rect.c ****         lv_draw_sw_blend(draw_ctx, &blend_dsc);
1423:lvgl/src/draw/sw/lv_draw_sw_rect.c ****     }
1424:lvgl/src/draw/sw/lv_draw_sw_rect.c **** }
 193              		.loc 1 1424 1 view .LVU72
 194 00b8 0FB0     		add	sp, sp, #60
 195              		.cfi_remember_state
 196              		.cfi_def_cfa_offset 36
 197              		@ sp needed
 198 00ba BDE8F08F 		pop	{r4, r5, r6, r7, r8, r9, r10, fp, pc}
 199              	.LVL11:
 200              	.L11:
 201              		.cfi_restore_state
1399:lvgl/src/draw/sw/lv_draw_sw_rect.c ****     }
 202              		.loc 1 1399 9 is_stmt 1 view .LVU73
 203 00be 05A9     		add	r1, sp, #20
 204 00c0 0198     		ldr	r0, [sp, #4]
 205 00c2 FFF7FEFF 		bl	lv_draw_sw_blend
 206              	.LVL12:
 207 00c6 CBE7     		b	.L2
 208              	.L12:
1406:lvgl/src/draw/sw/lv_draw_sw_rect.c ****     }
 209              		.loc 1 1406 9 view .LVU74
 210 00c8 05A9     		add	r1, sp, #20
 211 00ca 0198     		ldr	r0, [sp, #4]
 212 00cc FFF7FEFF 		bl	lv_draw_sw_blend
 213              	.LVL13:
 214 00d0 D0E7     		b	.L3
 215              	.L4:
1412:lvgl/src/draw/sw/lv_draw_sw_rect.c ****     a.y2 = (bottom_side) ? inner_area->y2 : outer_area->y2;
 216              		.loc 1 1412 10 is_stmt 0 discriminator 2 view .LVU75
 217 00d2 B5F90230 		ldrsh	r3, [r5, #2]
 218 00d6 D9E7     		b	.L5
 219              	.L6:
1413:lvgl/src/draw/sw/lv_draw_sw_rect.c ****     if(left_side) {
 220              		.loc 1 1413 10 discriminator 2 view .LVU76
 221 00d8 B5F90630 		ldrsh	r3, [r5, #6]
 222 00dc DCE7     		b	.L7
 223              	.L13:
1415:lvgl/src/draw/sw/lv_draw_sw_rect.c ****     }
 224              		.loc 1 1415 9 is_stmt 1 view .LVU77
 225 00de 05A9     		add	r1, sp, #20
ARM GAS  C:\Users\OSD\AppData\Local\Temp\ccS6lZqb.s 			page 30


 226 00e0 0198     		ldr	r0, [sp, #4]
 227 00e2 FFF7FEFF 		bl	lv_draw_sw_blend
 228              	.LVL14:
 229 00e6 DCE7     		b	.L8
 230              	.L14:
1422:lvgl/src/draw/sw/lv_draw_sw_rect.c ****     }
 231              		.loc 1 1422 9 view .LVU78
 232 00e8 05A9     		add	r1, sp, #20
 233 00ea 0198     		ldr	r0, [sp, #4]
 234 00ec FFF7FEFF 		bl	lv_draw_sw_blend
 235              	.LVL15:
 236              		.loc 1 1424 1 is_stmt 0 view .LVU79
 237 00f0 E2E7     		b	.L1
 238              		.cfi_endproc
 239              	.LFE171:
 241              		.section	.text.shadow_blur_corner,"ax",%progbits
 242              		.align	1
 243              		.syntax unified
 244              		.thumb
 245              		.thumb_func
 247              	shadow_blur_corner:
 248              	.LVL16:
 249              	.LFB168:
1033:lvgl/src/draw/sw/lv_draw_sw_rect.c ****     int32_t s_left = sw >> 1;
 250              		.loc 1 1033 1 is_stmt 1 view -0
 251              		.cfi_startproc
 252              		@ args = 0, pretend = 0, frame = 8
 253              		@ frame_needed = 0, uses_anonymous_args = 0
1033:lvgl/src/draw/sw/lv_draw_sw_rect.c ****     int32_t s_left = sw >> 1;
 254              		.loc 1 1033 1 is_stmt 0 view .LVU81
 255 0000 2DE9F04F 		push	{r4, r5, r6, r7, r8, r9, r10, fp, lr}
 256              		.cfi_def_cfa_offset 36
 257              		.cfi_offset 4, -36
 258              		.cfi_offset 5, -32
 259              		.cfi_offset 6, -28
 260              		.cfi_offset 7, -24
 261              		.cfi_offset 8, -20
 262              		.cfi_offset 9, -16
 263              		.cfi_offset 10, -12
 264              		.cfi_offset 11, -8
 265              		.cfi_offset 14, -4
 266 0004 83B0     		sub	sp, sp, #12
 267              		.cfi_def_cfa_offset 48
 268 0006 0446     		mov	r4, r0
 269 0008 0191     		str	r1, [sp, #4]
 270 000a 1746     		mov	r7, r2
1034:lvgl/src/draw/sw/lv_draw_sw_rect.c ****     int32_t s_right = (sw >> 1);
 271              		.loc 1 1034 5 is_stmt 1 view .LVU82
1034:lvgl/src/draw/sw/lv_draw_sw_rect.c ****     int32_t s_right = (sw >> 1);
 272              		.loc 1 1034 25 is_stmt 0 view .LVU83
 273 000c 4FEA6108 		asr	r8, r1, #1
 274              	.LVL17:
1035:lvgl/src/draw/sw/lv_draw_sw_rect.c ****     if((sw & 1) == 0) s_left--;
 275              		.loc 1 1035 5 is_stmt 1 view .LVU84
1036:lvgl/src/draw/sw/lv_draw_sw_rect.c **** 
 276              		.loc 1 1036 5 view .LVU85
1036:lvgl/src/draw/sw/lv_draw_sw_rect.c **** 
ARM GAS  C:\Users\OSD\AppData\Local\Temp\ccS6lZqb.s 			page 31


 277              		.loc 1 1036 7 is_stmt 0 view .LVU86
 278 0010 11F0010F 		tst	r1, #1
 279 0014 02D1     		bne	.L39
1036:lvgl/src/draw/sw/lv_draw_sw_rect.c **** 
 280              		.loc 1 1036 23 is_stmt 1 discriminator 1 view .LVU87
1036:lvgl/src/draw/sw/lv_draw_sw_rect.c **** 
 281              		.loc 1 1036 29 is_stmt 0 discriminator 1 view .LVU88
 282 0016 08F1FF39 		add	r9, r8, #-1
 283              	.LVL18:
1036:lvgl/src/draw/sw/lv_draw_sw_rect.c **** 
 284              		.loc 1 1036 29 discriminator 1 view .LVU89
 285 001a 00E0     		b	.L16
 286              	.LVL19:
 287              	.L39:
1034:lvgl/src/draw/sw/lv_draw_sw_rect.c ****     int32_t s_right = (sw >> 1);
 288              		.loc 1 1034 13 view .LVU90
 289 001c C146     		mov	r9, r8
 290              	.LVL20:
 291              	.L16:
1039:lvgl/src/draw/sw/lv_draw_sw_rect.c **** 
 292              		.loc 1 1039 5 is_stmt 1 view .LVU91
1039:lvgl/src/draw/sw/lv_draw_sw_rect.c **** 
 293              		.loc 1 1039 54 is_stmt 0 view .LVU92
 294 001e 6600     		lsls	r6, r4, #1
1039:lvgl/src/draw/sw/lv_draw_sw_rect.c **** 
 295              		.loc 1 1039 34 view .LVU93
 296 0020 3046     		mov	r0, r6
 297              	.LVL21:
1039:lvgl/src/draw/sw/lv_draw_sw_rect.c **** 
 298              		.loc 1 1039 34 view .LVU94
 299 0022 FFF7FEFF 		bl	lv_mem_buf_get
 300              	.LVL22:
1039:lvgl/src/draw/sw/lv_draw_sw_rect.c **** 
 301              		.loc 1 1039 34 view .LVU95
 302 0026 0546     		mov	r5, r0
 303              	.LVL23:
1041:lvgl/src/draw/sw/lv_draw_sw_rect.c ****     int32_t y;
 304              		.loc 1 1041 5 is_stmt 1 view .LVU96
1042:lvgl/src/draw/sw/lv_draw_sw_rect.c **** 
 305              		.loc 1 1042 5 view .LVU97
1044:lvgl/src/draw/sw/lv_draw_sw_rect.c **** 
 306              		.loc 1 1044 5 view .LVU98
1046:lvgl/src/draw/sw/lv_draw_sw_rect.c ****         int32_t v = sh_ups_tmp_buf[size - 1] * sw;
 307              		.loc 1 1046 5 view .LVU99
1044:lvgl/src/draw/sw/lv_draw_sw_rect.c **** 
 308              		.loc 1 1044 16 is_stmt 0 view .LVU100
 309 0028 BA46     		mov	r10, r7
1046:lvgl/src/draw/sw/lv_draw_sw_rect.c ****         int32_t v = sh_ups_tmp_buf[size - 1] * sw;
 310              		.loc 1 1046 11 view .LVU101
 311 002a 4FF0000B 		mov	fp, #0
1046:lvgl/src/draw/sw/lv_draw_sw_rect.c ****         int32_t v = sh_ups_tmp_buf[size - 1] * sw;
 312              		.loc 1 1046 5 view .LVU102
 313 002e 22E0     		b	.L17
 314              	.LVL24:
 315              	.L40:
 316              	.LBB112:
 317              	.LBB113:
ARM GAS  C:\Users\OSD\AppData\Local\Temp\ccS6lZqb.s 			page 32


1052:lvgl/src/draw/sw/lv_draw_sw_rect.c ****             if(x + s_right < size) right_val = sh_ups_tmp_buf[x + s_right];
 318              		.loc 1 1052 22 view .LVU103
 319 0030 0021     		movs	r1, #0
 320              	.LVL25:
 321              	.L19:
1054:lvgl/src/draw/sw/lv_draw_sw_rect.c **** 
 322              		.loc 1 1054 13 is_stmt 1 view .LVU104
1054:lvgl/src/draw/sw/lv_draw_sw_rect.c **** 
 323              		.loc 1 1054 15 is_stmt 0 view .LVU105
 324 0032 521A     		subs	r2, r2, r1
 325              	.LVL26:
1057:lvgl/src/draw/sw/lv_draw_sw_rect.c ****             if(x - s_left - 1 < 0) left_val = sh_ups_tmp_buf[0];
 326              		.loc 1 1057 13 is_stmt 1 view .LVU106
1058:lvgl/src/draw/sw/lv_draw_sw_rect.c ****             else left_val = sh_ups_tmp_buf[x - s_left - 1];
 327              		.loc 1 1058 13 view .LVU107
1058:lvgl/src/draw/sw/lv_draw_sw_rect.c ****             else left_val = sh_ups_tmp_buf[x - s_left - 1];
 328              		.loc 1 1058 18 is_stmt 0 view .LVU108
 329 0034 A3EB0901 		sub	r1, r3, r9
 330              	.LVL27:
1058:lvgl/src/draw/sw/lv_draw_sw_rect.c ****             else left_val = sh_ups_tmp_buf[x - s_left - 1];
 331              		.loc 1 1058 15 view .LVU109
 332 0038 0029     		cmp	r1, #0
 333 003a 11DD     		ble	.L43
1059:lvgl/src/draw/sw/lv_draw_sw_rect.c ****             v += left_val;
 334              		.loc 1 1059 18 is_stmt 1 view .LVU110
1059:lvgl/src/draw/sw/lv_draw_sw_rect.c ****             v += left_val;
 335              		.loc 1 1059 43 is_stmt 0 view .LVU111
 336 003c 6FF00040 		mvn	r0, #-2147483648
 337 0040 0844     		add	r0, r0, r1
 338 0042 3AF81010 		ldrh	r1, [r10, r0, lsl #1]
 339              	.LVL28:
 340              	.L21:
1060:lvgl/src/draw/sw/lv_draw_sw_rect.c ****         }
 341              		.loc 1 1060 13 is_stmt 1 discriminator 2 view .LVU112
1060:lvgl/src/draw/sw/lv_draw_sw_rect.c ****         }
 342              		.loc 1 1060 15 is_stmt 0 discriminator 2 view .LVU113
 343 0046 0A44     		add	r2, r2, r1
 344              	.LVL29:
1060:lvgl/src/draw/sw/lv_draw_sw_rect.c ****         }
 345              		.loc 1 1060 15 discriminator 2 view .LVU114
 346              	.LBE113:
1048:lvgl/src/draw/sw/lv_draw_sw_rect.c ****             sh_ups_blur_buf[x] = v;
 347              		.loc 1 1048 35 is_stmt 1 discriminator 2 view .LVU115
1048:lvgl/src/draw/sw/lv_draw_sw_rect.c ****             sh_ups_blur_buf[x] = v;
 348              		.loc 1 1048 36 is_stmt 0 discriminator 2 view .LVU116
 349 0048 013B     		subs	r3, r3, #1
 350              	.LVL30:
 351              	.L18:
1048:lvgl/src/draw/sw/lv_draw_sw_rect.c ****             sh_ups_blur_buf[x] = v;
 352              		.loc 1 1048 27 is_stmt 1 discriminator 1 view .LVU117
1048:lvgl/src/draw/sw/lv_draw_sw_rect.c ****             sh_ups_blur_buf[x] = v;
 353              		.loc 1 1048 9 is_stmt 0 discriminator 1 view .LVU118
 354 004a 002B     		cmp	r3, #0
 355 004c 0BDB     		blt	.L44
 356              	.LBB114:
1049:lvgl/src/draw/sw/lv_draw_sw_rect.c **** 
 357              		.loc 1 1049 13 is_stmt 1 view .LVU119
ARM GAS  C:\Users\OSD\AppData\Local\Temp\ccS6lZqb.s 			page 33


1049:lvgl/src/draw/sw/lv_draw_sw_rect.c **** 
 358              		.loc 1 1049 32 is_stmt 0 view .LVU120
 359 004e 25F81320 		strh	r2, [r5, r3, lsl #1]	@ movhi
1052:lvgl/src/draw/sw/lv_draw_sw_rect.c ****             if(x + s_right < size) right_val = sh_ups_tmp_buf[x + s_right];
 360              		.loc 1 1052 13 is_stmt 1 view .LVU121
 361              	.LVL31:
1053:lvgl/src/draw/sw/lv_draw_sw_rect.c ****             v -= right_val;
 362              		.loc 1 1053 13 view .LVU122
1053:lvgl/src/draw/sw/lv_draw_sw_rect.c ****             v -= right_val;
 363              		.loc 1 1053 18 is_stmt 0 view .LVU123
 364 0052 03EB0801 		add	r1, r3, r8
1053:lvgl/src/draw/sw/lv_draw_sw_rect.c ****             v -= right_val;
 365              		.loc 1 1053 15 view .LVU124
 366 0056 A142     		cmp	r1, r4
 367 0058 EADA     		bge	.L40
1053:lvgl/src/draw/sw/lv_draw_sw_rect.c ****             v -= right_val;
 368              		.loc 1 1053 36 is_stmt 1 discriminator 1 view .LVU125
1053:lvgl/src/draw/sw/lv_draw_sw_rect.c ****             v -= right_val;
 369              		.loc 1 1053 62 is_stmt 0 discriminator 1 view .LVU126
 370 005a 3AF81110 		ldrh	r1, [r10, r1, lsl #1]
 371              	.LVL32:
1053:lvgl/src/draw/sw/lv_draw_sw_rect.c ****             v -= right_val;
 372              		.loc 1 1053 62 discriminator 1 view .LVU127
 373 005e E8E7     		b	.L19
 374              	.LVL33:
 375              	.L43:
1058:lvgl/src/draw/sw/lv_draw_sw_rect.c ****             else left_val = sh_ups_tmp_buf[x - s_left - 1];
 376              		.loc 1 1058 36 is_stmt 1 discriminator 1 view .LVU128
1058:lvgl/src/draw/sw/lv_draw_sw_rect.c ****             else left_val = sh_ups_tmp_buf[x - s_left - 1];
 377              		.loc 1 1058 61 is_stmt 0 discriminator 1 view .LVU129
 378 0060 BAF80010 		ldrh	r1, [r10]
 379              	.LVL34:
1058:lvgl/src/draw/sw/lv_draw_sw_rect.c ****             else left_val = sh_ups_tmp_buf[x - s_left - 1];
 380              		.loc 1 1058 61 discriminator 1 view .LVU130
 381 0064 EFE7     		b	.L21
 382              	.LVL35:
 383              	.L44:
1058:lvgl/src/draw/sw/lv_draw_sw_rect.c ****             else left_val = sh_ups_tmp_buf[x - s_left - 1];
 384              		.loc 1 1058 61 discriminator 1 view .LVU131
 385              	.LBE114:
1062:lvgl/src/draw/sw/lv_draw_sw_rect.c ****         sh_ups_tmp_buf += size;
 386              		.loc 1 1062 9 is_stmt 1 discriminator 2 view .LVU132
 387 0066 3246     		mov	r2, r6
 388              	.LVL36:
1062:lvgl/src/draw/sw/lv_draw_sw_rect.c ****         sh_ups_tmp_buf += size;
 389              		.loc 1 1062 9 is_stmt 0 discriminator 2 view .LVU133
 390 0068 2946     		mov	r1, r5
 391 006a 5046     		mov	r0, r10
 392 006c FFF7FEFF 		bl	lv_memcpy
 393              	.LVL37:
1063:lvgl/src/draw/sw/lv_draw_sw_rect.c ****     }
 394              		.loc 1 1063 9 is_stmt 1 discriminator 2 view .LVU134
1063:lvgl/src/draw/sw/lv_draw_sw_rect.c ****     }
 395              		.loc 1 1063 24 is_stmt 0 discriminator 2 view .LVU135
 396 0070 B244     		add	r10, r10, r6
 397              	.LVL38:
1063:lvgl/src/draw/sw/lv_draw_sw_rect.c ****     }
ARM GAS  C:\Users\OSD\AppData\Local\Temp\ccS6lZqb.s 			page 34


 398              		.loc 1 1063 24 discriminator 2 view .LVU136
 399              	.LBE112:
1046:lvgl/src/draw/sw/lv_draw_sw_rect.c ****         int32_t v = sh_ups_tmp_buf[size - 1] * sw;
 400              		.loc 1 1046 26 is_stmt 1 discriminator 2 view .LVU137
1046:lvgl/src/draw/sw/lv_draw_sw_rect.c ****         int32_t v = sh_ups_tmp_buf[size - 1] * sw;
 401              		.loc 1 1046 27 is_stmt 0 discriminator 2 view .LVU138
 402 0072 0BF1010B 		add	fp, fp, #1
 403              	.LVL39:
 404              	.L17:
1046:lvgl/src/draw/sw/lv_draw_sw_rect.c ****         int32_t v = sh_ups_tmp_buf[size - 1] * sw;
 405              		.loc 1 1046 16 is_stmt 1 discriminator 1 view .LVU139
1046:lvgl/src/draw/sw/lv_draw_sw_rect.c ****         int32_t v = sh_ups_tmp_buf[size - 1] * sw;
 406              		.loc 1 1046 5 is_stmt 0 discriminator 1 view .LVU140
 407 0076 5C45     		cmp	r4, fp
 408 0078 09DD     		ble	.L45
 409              	.LBB115:
1047:lvgl/src/draw/sw/lv_draw_sw_rect.c ****         for(x = size - 1; x >= 0; x--) {
 410              		.loc 1 1047 9 is_stmt 1 view .LVU141
1047:lvgl/src/draw/sw/lv_draw_sw_rect.c ****         for(x = size - 1; x >= 0; x--) {
 411              		.loc 1 1047 35 is_stmt 0 view .LVU142
 412 007a 6FF00043 		mvn	r3, #-2147483648
 413 007e 2344     		add	r3, r3, r4
 414 0080 3AF81320 		ldrh	r2, [r10, r3, lsl #1]
1047:lvgl/src/draw/sw/lv_draw_sw_rect.c ****         for(x = size - 1; x >= 0; x--) {
 415              		.loc 1 1047 17 view .LVU143
 416 0084 019B     		ldr	r3, [sp, #4]
 417 0086 03FB02F2 		mul	r2, r3, r2
 418              	.LVL40:
1048:lvgl/src/draw/sw/lv_draw_sw_rect.c ****             sh_ups_blur_buf[x] = v;
 419              		.loc 1 1048 9 is_stmt 1 view .LVU144
1048:lvgl/src/draw/sw/lv_draw_sw_rect.c ****             sh_ups_blur_buf[x] = v;
 420              		.loc 1 1048 15 is_stmt 0 view .LVU145
 421 008a 631E     		subs	r3, r4, #1
 422              	.LVL41:
1048:lvgl/src/draw/sw/lv_draw_sw_rect.c ****             sh_ups_blur_buf[x] = v;
 423              		.loc 1 1048 9 view .LVU146
 424 008c DDE7     		b	.L18
 425              	.LVL42:
 426              	.L45:
1048:lvgl/src/draw/sw/lv_draw_sw_rect.c ****             sh_ups_blur_buf[x] = v;
 427              		.loc 1 1048 9 view .LVU147
 428              	.LBE115:
1067:lvgl/src/draw/sw/lv_draw_sw_rect.c ****     uint32_t max_v = LV_OPA_COVER << SHADOW_UPSCALE_SHIFT;
 429              		.loc 1 1067 5 is_stmt 1 view .LVU148
1068:lvgl/src/draw/sw/lv_draw_sw_rect.c ****     uint32_t max_v_div = max_v / sw;
 430              		.loc 1 1068 5 view .LVU149
1069:lvgl/src/draw/sw/lv_draw_sw_rect.c ****     for(i = 0; i < (uint32_t)size * size; i++) {
 431              		.loc 1 1069 5 view .LVU150
1069:lvgl/src/draw/sw/lv_draw_sw_rect.c ****     for(i = 0; i < (uint32_t)size * size; i++) {
 432              		.loc 1 1069 14 is_stmt 0 view .LVU151
 433 008e 4FF47F50 		mov	r0, #16320
 434 0092 019B     		ldr	r3, [sp, #4]
 435 0094 B0FBF3FC 		udiv	ip, r0, r3
 436              	.LVL43:
1070:lvgl/src/draw/sw/lv_draw_sw_rect.c ****         if(sh_ups_buf[i] == 0) continue;
 437              		.loc 1 1070 5 is_stmt 1 view .LVU152
1070:lvgl/src/draw/sw/lv_draw_sw_rect.c ****         if(sh_ups_buf[i] == 0) continue;
ARM GAS  C:\Users\OSD\AppData\Local\Temp\ccS6lZqb.s 			page 35


 438              		.loc 1 1070 11 is_stmt 0 view .LVU153
 439 0098 0023     		movs	r3, #0
1070:lvgl/src/draw/sw/lv_draw_sw_rect.c ****         if(sh_ups_buf[i] == 0) continue;
 440              		.loc 1 1070 5 view .LVU154
 441 009a 02E0     		b	.L24
 442              	.LVL44:
 443              	.L47:
1072:lvgl/src/draw/sw/lv_draw_sw_rect.c ****         else sh_ups_buf[i] = sh_ups_buf[i] / sw;
 444              		.loc 1 1072 41 is_stmt 1 discriminator 1 view .LVU155
1072:lvgl/src/draw/sw/lv_draw_sw_rect.c ****         else sh_ups_buf[i] = sh_ups_buf[i] / sw;
 445              		.loc 1 1072 55 is_stmt 0 discriminator 1 view .LVU156
 446 009c 27F801C0 		strh	ip, [r7, r1]	@ movhi
 447              	.L25:
1070:lvgl/src/draw/sw/lv_draw_sw_rect.c ****         if(sh_ups_buf[i] == 0) continue;
 448              		.loc 1 1070 43 is_stmt 1 discriminator 2 view .LVU157
1070:lvgl/src/draw/sw/lv_draw_sw_rect.c ****         if(sh_ups_buf[i] == 0) continue;
 449              		.loc 1 1070 44 is_stmt 0 discriminator 2 view .LVU158
 450 00a0 0133     		adds	r3, r3, #1
 451              	.LVL45:
 452              	.L24:
1070:lvgl/src/draw/sw/lv_draw_sw_rect.c ****         if(sh_ups_buf[i] == 0) continue;
 453              		.loc 1 1070 16 is_stmt 1 discriminator 1 view .LVU159
1070:lvgl/src/draw/sw/lv_draw_sw_rect.c ****         if(sh_ups_buf[i] == 0) continue;
 454              		.loc 1 1070 35 is_stmt 0 discriminator 1 view .LVU160
 455 00a2 04FB04F2 		mul	r2, r4, r4
1070:lvgl/src/draw/sw/lv_draw_sw_rect.c ****         if(sh_ups_buf[i] == 0) continue;
 456              		.loc 1 1070 5 discriminator 1 view .LVU161
 457 00a6 9A42     		cmp	r2, r3
 458 00a8 0CD9     		bls	.L46
1071:lvgl/src/draw/sw/lv_draw_sw_rect.c ****         else if(sh_ups_buf[i] == max_v) sh_ups_buf[i] = max_v_div;
 459              		.loc 1 1071 9 is_stmt 1 view .LVU162
1071:lvgl/src/draw/sw/lv_draw_sw_rect.c ****         else if(sh_ups_buf[i] == max_v) sh_ups_buf[i] = max_v_div;
 460              		.loc 1 1071 22 is_stmt 0 view .LVU163
 461 00aa 5900     		lsls	r1, r3, #1
 462 00ac 37F81320 		ldrh	r2, [r7, r3, lsl #1]
1071:lvgl/src/draw/sw/lv_draw_sw_rect.c ****         else if(sh_ups_buf[i] == max_v) sh_ups_buf[i] = max_v_div;
 463              		.loc 1 1071 11 view .LVU164
 464 00b0 002A     		cmp	r2, #0
 465 00b2 F5D0     		beq	.L25
1072:lvgl/src/draw/sw/lv_draw_sw_rect.c ****         else sh_ups_buf[i] = sh_ups_buf[i] / sw;
 466              		.loc 1 1072 14 is_stmt 1 view .LVU165
1072:lvgl/src/draw/sw/lv_draw_sw_rect.c ****         else sh_ups_buf[i] = sh_ups_buf[i] / sw;
 467              		.loc 1 1072 16 is_stmt 0 view .LVU166
 468 00b4 B2F57F5F 		cmp	r2, #16320
 469 00b8 F0D0     		beq	.L47
1073:lvgl/src/draw/sw/lv_draw_sw_rect.c ****     }
 470              		.loc 1 1073 14 is_stmt 1 view .LVU167
1073:lvgl/src/draw/sw/lv_draw_sw_rect.c ****     }
 471              		.loc 1 1073 44 is_stmt 0 view .LVU168
 472 00ba 0198     		ldr	r0, [sp, #4]
 473 00bc 92FBF0F2 		sdiv	r2, r2, r0
1073:lvgl/src/draw/sw/lv_draw_sw_rect.c ****     }
 474              		.loc 1 1073 28 view .LVU169
 475 00c0 7A52     		strh	r2, [r7, r1]	@ movhi
 476 00c2 EDE7     		b	.L25
 477              	.L46:
1076:lvgl/src/draw/sw/lv_draw_sw_rect.c ****         sh_ups_tmp_buf = &sh_ups_buf[x];
ARM GAS  C:\Users\OSD\AppData\Local\Temp\ccS6lZqb.s 			page 36


 478              		.loc 1 1076 11 view .LVU170
 479 00c4 4FF0000E 		mov	lr, #0
 480 00c8 32E0     		b	.L28
 481              	.LVL46:
 482              	.L41:
 483              	.LBB116:
 484              	.LBB117:
1080:lvgl/src/draw/sw/lv_draw_sw_rect.c **** 
 485              		.loc 1 1080 32 view .LVU171
 486 00ca 0021     		movs	r1, #0
 487 00cc 10E0     		b	.L30
 488              	.L49:
1084:lvgl/src/draw/sw/lv_draw_sw_rect.c ****             else top_val = sh_ups_buf[(y - s_right) * size + x];
 489              		.loc 1 1084 34 is_stmt 1 discriminator 1 view .LVU172
1084:lvgl/src/draw/sw/lv_draw_sw_rect.c ****             else top_val = sh_ups_buf[(y - s_right) * size + x];
 490              		.loc 1 1084 58 is_stmt 0 discriminator 1 view .LVU173
 491 00ce BCF80010 		ldrh	r1, [ip]
 492              	.LVL47:
1084:lvgl/src/draw/sw/lv_draw_sw_rect.c ****             else top_val = sh_ups_buf[(y - s_right) * size + x];
 493              		.loc 1 1084 58 discriminator 1 view .LVU174
 494 00d2 17E0     		b	.L32
 495              	.LVL48:
 496              	.L33:
1091:lvgl/src/draw/sw/lv_draw_sw_rect.c ****             v += bottom_val;
 497              		.loc 1 1091 18 is_stmt 1 view .LVU175
1091:lvgl/src/draw/sw/lv_draw_sw_rect.c ****             v += bottom_val;
 498              		.loc 1 1091 48 is_stmt 0 view .LVU176
 499 00d4 611E     		subs	r1, r4, #1
1091:lvgl/src/draw/sw/lv_draw_sw_rect.c ****             v += bottom_val;
 500              		.loc 1 1091 60 view .LVU177
 501 00d6 01FB04E1 		mla	r1, r1, r4, lr
1091:lvgl/src/draw/sw/lv_draw_sw_rect.c ****             v += bottom_val;
 502              		.loc 1 1091 41 view .LVU178
 503 00da 37F81110 		ldrh	r1, [r7, r1, lsl #1]
 504              	.LVL49:
 505              	.L34:
1092:lvgl/src/draw/sw/lv_draw_sw_rect.c ****         }
 506              		.loc 1 1092 13 is_stmt 1 discriminator 2 view .LVU179
1092:lvgl/src/draw/sw/lv_draw_sw_rect.c ****         }
 507              		.loc 1 1092 15 is_stmt 0 discriminator 2 view .LVU180
 508 00de 0A44     		add	r2, r2, r1
 509              	.LVL50:
1092:lvgl/src/draw/sw/lv_draw_sw_rect.c ****         }
 510              		.loc 1 1092 15 discriminator 2 view .LVU181
 511              	.LBE117:
1079:lvgl/src/draw/sw/lv_draw_sw_rect.c ****             sh_ups_blur_buf[y] = v < 0 ? 0 : (v >> SHADOW_UPSCALE_SHIFT);
 512              		.loc 1 1079 31 is_stmt 1 discriminator 2 view .LVU182
1079:lvgl/src/draw/sw/lv_draw_sw_rect.c ****             sh_ups_blur_buf[y] = v < 0 ? 0 : (v >> SHADOW_UPSCALE_SHIFT);
 513              		.loc 1 1079 32 is_stmt 0 discriminator 2 view .LVU183
 514 00e0 0133     		adds	r3, r3, #1
 515              	.LVL51:
1079:lvgl/src/draw/sw/lv_draw_sw_rect.c ****             sh_ups_blur_buf[y] = v < 0 ? 0 : (v >> SHADOW_UPSCALE_SHIFT);
 516              		.loc 1 1079 51 discriminator 2 view .LVU184
 517 00e2 B444     		add	ip, ip, r6
 518              	.LVL52:
 519              	.L29:
1079:lvgl/src/draw/sw/lv_draw_sw_rect.c ****             sh_ups_blur_buf[y] = v < 0 ? 0 : (v >> SHADOW_UPSCALE_SHIFT);
ARM GAS  C:\Users\OSD\AppData\Local\Temp\ccS6lZqb.s 			page 37


 520              		.loc 1 1079 20 is_stmt 1 discriminator 1 view .LVU185
1079:lvgl/src/draw/sw/lv_draw_sw_rect.c ****             sh_ups_blur_buf[y] = v < 0 ? 0 : (v >> SHADOW_UPSCALE_SHIFT);
 521              		.loc 1 1079 9 is_stmt 0 discriminator 1 view .LVU186
 522 00e4 9C42     		cmp	r4, r3
 523 00e6 18DD     		ble	.L48
 524              	.LBB118:
1080:lvgl/src/draw/sw/lv_draw_sw_rect.c **** 
 525              		.loc 1 1080 13 is_stmt 1 view .LVU187
1080:lvgl/src/draw/sw/lv_draw_sw_rect.c **** 
 526              		.loc 1 1080 32 is_stmt 0 view .LVU188
 527 00e8 002A     		cmp	r2, #0
 528 00ea EEDB     		blt	.L41
1080:lvgl/src/draw/sw/lv_draw_sw_rect.c **** 
 529              		.loc 1 1080 32 discriminator 1 view .LVU189
 530 00ec C2F38F11 		ubfx	r1, r2, #6, #16
 531              	.L30:
1080:lvgl/src/draw/sw/lv_draw_sw_rect.c **** 
 532              		.loc 1 1080 32 discriminator 4 view .LVU190
 533 00f0 25F81310 		strh	r1, [r5, r3, lsl #1]	@ movhi
1083:lvgl/src/draw/sw/lv_draw_sw_rect.c ****             if(y - s_right <= 0) top_val = sh_ups_tmp_buf[0];
 534              		.loc 1 1083 13 is_stmt 1 discriminator 4 view .LVU191
1084:lvgl/src/draw/sw/lv_draw_sw_rect.c ****             else top_val = sh_ups_buf[(y - s_right) * size + x];
 535              		.loc 1 1084 13 discriminator 4 view .LVU192
1084:lvgl/src/draw/sw/lv_draw_sw_rect.c ****             else top_val = sh_ups_buf[(y - s_right) * size + x];
 536              		.loc 1 1084 18 is_stmt 0 discriminator 4 view .LVU193
 537 00f4 A3EB0801 		sub	r1, r3, r8
1084:lvgl/src/draw/sw/lv_draw_sw_rect.c ****             else top_val = sh_ups_buf[(y - s_right) * size + x];
 538              		.loc 1 1084 15 discriminator 4 view .LVU194
 539 00f8 0029     		cmp	r1, #0
 540 00fa E8DD     		ble	.L49
1085:lvgl/src/draw/sw/lv_draw_sw_rect.c ****             v -= top_val;
 541              		.loc 1 1085 18 is_stmt 1 view .LVU195
1085:lvgl/src/draw/sw/lv_draw_sw_rect.c ****             v -= top_val;
 542              		.loc 1 1085 60 is_stmt 0 view .LVU196
 543 00fc 01FB04E1 		mla	r1, r1, r4, lr
1085:lvgl/src/draw/sw/lv_draw_sw_rect.c ****             v -= top_val;
 544              		.loc 1 1085 38 view .LVU197
 545 0100 37F81110 		ldrh	r1, [r7, r1, lsl #1]
 546              	.LVL53:
 547              	.L32:
1086:lvgl/src/draw/sw/lv_draw_sw_rect.c **** 
 548              		.loc 1 1086 13 is_stmt 1 view .LVU198
1086:lvgl/src/draw/sw/lv_draw_sw_rect.c **** 
 549              		.loc 1 1086 15 is_stmt 0 view .LVU199
 550 0104 521A     		subs	r2, r2, r1
 551              	.LVL54:
1089:lvgl/src/draw/sw/lv_draw_sw_rect.c ****             if(y + s_left + 1 < size) bottom_val = sh_ups_buf[(y + s_left + 1) * size + x];
 552              		.loc 1 1089 13 is_stmt 1 view .LVU200
1090:lvgl/src/draw/sw/lv_draw_sw_rect.c ****             else bottom_val = sh_ups_buf[(size - 1) * size + x];
 553              		.loc 1 1090 13 view .LVU201
1090:lvgl/src/draw/sw/lv_draw_sw_rect.c ****             else bottom_val = sh_ups_buf[(size - 1) * size + x];
 554              		.loc 1 1090 18 is_stmt 0 view .LVU202
 555 0106 09EB0301 		add	r1, r9, r3
 556              	.LVL55:
1090:lvgl/src/draw/sw/lv_draw_sw_rect.c ****             else bottom_val = sh_ups_buf[(size - 1) * size + x];
 557              		.loc 1 1090 27 view .LVU203
 558 010a 0131     		adds	r1, r1, #1
ARM GAS  C:\Users\OSD\AppData\Local\Temp\ccS6lZqb.s 			page 38


1090:lvgl/src/draw/sw/lv_draw_sw_rect.c ****             else bottom_val = sh_ups_buf[(size - 1) * size + x];
 559              		.loc 1 1090 15 view .LVU204
 560 010c 8C42     		cmp	r4, r1
 561 010e E1DD     		ble	.L33
1090:lvgl/src/draw/sw/lv_draw_sw_rect.c ****             else bottom_val = sh_ups_buf[(size - 1) * size + x];
 562              		.loc 1 1090 39 is_stmt 1 discriminator 1 view .LVU205
1090:lvgl/src/draw/sw/lv_draw_sw_rect.c ****             else bottom_val = sh_ups_buf[(size - 1) * size + x];
 563              		.loc 1 1090 87 is_stmt 0 discriminator 1 view .LVU206
 564 0110 01FB04E1 		mla	r1, r1, r4, lr
1090:lvgl/src/draw/sw/lv_draw_sw_rect.c ****             else bottom_val = sh_ups_buf[(size - 1) * size + x];
 565              		.loc 1 1090 62 discriminator 1 view .LVU207
 566 0114 37F81110 		ldrh	r1, [r7, r1, lsl #1]
 567              	.LVL56:
1090:lvgl/src/draw/sw/lv_draw_sw_rect.c ****             else bottom_val = sh_ups_buf[(size - 1) * size + x];
 568              		.loc 1 1090 62 discriminator 1 view .LVU208
 569 0118 E1E7     		b	.L34
 570              	.LVL57:
 571              	.L48:
1090:lvgl/src/draw/sw/lv_draw_sw_rect.c ****             else bottom_val = sh_ups_buf[(size - 1) * size + x];
 572              		.loc 1 1090 62 discriminator 1 view .LVU209
 573              	.LBE118:
1097:lvgl/src/draw/sw/lv_draw_sw_rect.c ****             (*sh_ups_tmp_buf) = sh_ups_blur_buf[y];
 574              		.loc 1 1097 15 view .LVU210
 575 011a 0023     		movs	r3, #0
 576              	.LVL58:
1097:lvgl/src/draw/sw/lv_draw_sw_rect.c ****             (*sh_ups_tmp_buf) = sh_ups_blur_buf[y];
 577              		.loc 1 1097 15 view .LVU211
 578 011c 04E0     		b	.L36
 579              	.LVL59:
 580              	.L37:
1098:lvgl/src/draw/sw/lv_draw_sw_rect.c ****         }
 581              		.loc 1 1098 13 is_stmt 1 discriminator 3 view .LVU212
1098:lvgl/src/draw/sw/lv_draw_sw_rect.c ****         }
 582              		.loc 1 1098 48 is_stmt 0 discriminator 3 view .LVU213
 583 011e 35F81320 		ldrh	r2, [r5, r3, lsl #1]
1098:lvgl/src/draw/sw/lv_draw_sw_rect.c ****         }
 584              		.loc 1 1098 31 discriminator 3 view .LVU214
 585 0122 0280     		strh	r2, [r0]	@ movhi
1097:lvgl/src/draw/sw/lv_draw_sw_rect.c ****             (*sh_ups_tmp_buf) = sh_ups_blur_buf[y];
 586              		.loc 1 1097 30 is_stmt 1 discriminator 3 view .LVU215
1097:lvgl/src/draw/sw/lv_draw_sw_rect.c ****             (*sh_ups_tmp_buf) = sh_ups_blur_buf[y];
 587              		.loc 1 1097 31 is_stmt 0 discriminator 3 view .LVU216
 588 0124 0133     		adds	r3, r3, #1
 589              	.LVL60:
1097:lvgl/src/draw/sw/lv_draw_sw_rect.c ****             (*sh_ups_tmp_buf) = sh_ups_blur_buf[y];
 590              		.loc 1 1097 50 discriminator 3 view .LVU217
 591 0126 3044     		add	r0, r0, r6
 592              	.LVL61:
 593              	.L36:
1097:lvgl/src/draw/sw/lv_draw_sw_rect.c ****             (*sh_ups_tmp_buf) = sh_ups_blur_buf[y];
 594              		.loc 1 1097 20 is_stmt 1 discriminator 1 view .LVU218
1097:lvgl/src/draw/sw/lv_draw_sw_rect.c ****             (*sh_ups_tmp_buf) = sh_ups_blur_buf[y];
 595              		.loc 1 1097 9 is_stmt 0 discriminator 1 view .LVU219
 596 0128 9C42     		cmp	r4, r3
 597 012a F8DC     		bgt	.L37
 598              	.LBE116:
1076:lvgl/src/draw/sw/lv_draw_sw_rect.c ****         sh_ups_tmp_buf = &sh_ups_buf[x];
ARM GAS  C:\Users\OSD\AppData\Local\Temp\ccS6lZqb.s 			page 39


 599              		.loc 1 1076 26 is_stmt 1 discriminator 2 view .LVU220
1076:lvgl/src/draw/sw/lv_draw_sw_rect.c ****         sh_ups_tmp_buf = &sh_ups_buf[x];
 600              		.loc 1 1076 27 is_stmt 0 discriminator 2 view .LVU221
 601 012c 0EF1010E 		add	lr, lr, #1
 602              	.LVL62:
 603              	.L28:
1076:lvgl/src/draw/sw/lv_draw_sw_rect.c ****         sh_ups_tmp_buf = &sh_ups_buf[x];
 604              		.loc 1 1076 16 is_stmt 1 discriminator 1 view .LVU222
1076:lvgl/src/draw/sw/lv_draw_sw_rect.c ****         sh_ups_tmp_buf = &sh_ups_buf[x];
 605              		.loc 1 1076 5 is_stmt 0 discriminator 1 view .LVU223
 606 0130 7445     		cmp	r4, lr
 607 0132 09DD     		ble	.L50
 608              	.LBB119:
1077:lvgl/src/draw/sw/lv_draw_sw_rect.c ****         int32_t v = sh_ups_tmp_buf[0] * sw;
 609              		.loc 1 1077 9 is_stmt 1 view .LVU224
1077:lvgl/src/draw/sw/lv_draw_sw_rect.c ****         int32_t v = sh_ups_tmp_buf[0] * sw;
 610              		.loc 1 1077 24 is_stmt 0 view .LVU225
 611 0134 07EB4E00 		add	r0, r7, lr, lsl #1
 612              	.LVL63:
1078:lvgl/src/draw/sw/lv_draw_sw_rect.c ****         for(y = 0; y < size ; y++, sh_ups_tmp_buf += size) {
 613              		.loc 1 1078 9 is_stmt 1 view .LVU226
1078:lvgl/src/draw/sw/lv_draw_sw_rect.c ****         for(y = 0; y < size ; y++, sh_ups_tmp_buf += size) {
 614              		.loc 1 1078 35 is_stmt 0 view .LVU227
 615 0138 37F81E20 		ldrh	r2, [r7, lr, lsl #1]
1078:lvgl/src/draw/sw/lv_draw_sw_rect.c ****         for(y = 0; y < size ; y++, sh_ups_tmp_buf += size) {
 616              		.loc 1 1078 17 view .LVU228
 617 013c 019B     		ldr	r3, [sp, #4]
 618 013e 03FB02F2 		mul	r2, r3, r2
 619              	.LVL64:
1079:lvgl/src/draw/sw/lv_draw_sw_rect.c ****             sh_ups_blur_buf[y] = v < 0 ? 0 : (v >> SHADOW_UPSCALE_SHIFT);
 620              		.loc 1 1079 9 is_stmt 1 view .LVU229
1077:lvgl/src/draw/sw/lv_draw_sw_rect.c ****         int32_t v = sh_ups_tmp_buf[0] * sw;
 621              		.loc 1 1077 24 is_stmt 0 view .LVU230
 622 0142 8446     		mov	ip, r0
1079:lvgl/src/draw/sw/lv_draw_sw_rect.c ****             sh_ups_blur_buf[y] = v < 0 ? 0 : (v >> SHADOW_UPSCALE_SHIFT);
 623              		.loc 1 1079 15 view .LVU231
 624 0144 0023     		movs	r3, #0
1079:lvgl/src/draw/sw/lv_draw_sw_rect.c ****             sh_ups_blur_buf[y] = v < 0 ? 0 : (v >> SHADOW_UPSCALE_SHIFT);
 625              		.loc 1 1079 9 view .LVU232
 626 0146 CDE7     		b	.L29
 627              	.LVL65:
 628              	.L50:
1079:lvgl/src/draw/sw/lv_draw_sw_rect.c ****             sh_ups_blur_buf[y] = v < 0 ? 0 : (v >> SHADOW_UPSCALE_SHIFT);
 629              		.loc 1 1079 9 view .LVU233
 630              	.LBE119:
1102:lvgl/src/draw/sw/lv_draw_sw_rect.c **** }
 631              		.loc 1 1102 5 is_stmt 1 view .LVU234
 632 0148 2846     		mov	r0, r5
 633 014a FFF7FEFF 		bl	lv_mem_buf_release
 634              	.LVL66:
1103:lvgl/src/draw/sw/lv_draw_sw_rect.c **** #endif
 635              		.loc 1 1103 1 is_stmt 0 view .LVU235
 636 014e 03B0     		add	sp, sp, #12
 637              		.cfi_def_cfa_offset 36
 638              		@ sp needed
 639 0150 BDE8F08F 		pop	{r4, r5, r6, r7, r8, r9, r10, fp, pc}
1103:lvgl/src/draw/sw/lv_draw_sw_rect.c **** #endif
ARM GAS  C:\Users\OSD\AppData\Local\Temp\ccS6lZqb.s 			page 40


 640              		.loc 1 1103 1 view .LVU236
 641              		.cfi_endproc
 642              	.LFE168:
 644              		.section	.text.shadow_draw_corner_buf,"ax",%progbits
 645              		.align	1
 646              		.syntax unified
 647              		.thumb
 648              		.thumb_func
 650              	shadow_draw_corner_buf:
 651              	.LVL67:
 652              	.LFB167:
 947:lvgl/src/draw/sw/lv_draw_sw_rect.c ****     int32_t sw_ori = sw;
 653              		.loc 1 947 1 is_stmt 1 view -0
 654              		.cfi_startproc
 655              		@ args = 0, pretend = 0, frame = 32
 656              		@ frame_needed = 0, uses_anonymous_args = 0
 947:lvgl/src/draw/sw/lv_draw_sw_rect.c ****     int32_t sw_ori = sw;
 657              		.loc 1 947 1 is_stmt 0 view .LVU238
 658 0000 2DE9F04F 		push	{r4, r5, r6, r7, r8, r9, r10, fp, lr}
 659              		.cfi_def_cfa_offset 36
 660              		.cfi_offset 4, -36
 661              		.cfi_offset 5, -32
 662              		.cfi_offset 6, -28
 663              		.cfi_offset 7, -24
 664              		.cfi_offset 8, -20
 665              		.cfi_offset 9, -16
 666              		.cfi_offset 10, -12
 667              		.cfi_offset 11, -8
 668              		.cfi_offset 14, -4
 669 0004 8BB0     		sub	sp, sp, #44
 670              		.cfi_def_cfa_offset 80
 671 0006 8846     		mov	r8, r1
 672 0008 9146     		mov	r9, r2
 673 000a 1A46     		mov	r2, r3
 674              	.LVL68:
 948:lvgl/src/draw/sw/lv_draw_sw_rect.c ****     int32_t size = sw_ori  + r;
 675              		.loc 1 948 5 is_stmt 1 view .LVU239
 949:lvgl/src/draw/sw/lv_draw_sw_rect.c **** 
 676              		.loc 1 949 5 view .LVU240
 949:lvgl/src/draw/sw/lv_draw_sw_rect.c **** 
 677              		.loc 1 949 13 is_stmt 0 view .LVU241
 678 000c 03EB0904 		add	r4, r3, r9
 679              	.LVL69:
 951:lvgl/src/draw/sw/lv_draw_sw_rect.c ****     lv_area_copy(&sh_area, coords);
 680              		.loc 1 951 5 is_stmt 1 view .LVU242
 952:lvgl/src/draw/sw/lv_draw_sw_rect.c ****     sh_area.x2 = sw / 2 + r - 1  - ((sw & 1) ? 0 : 1);
 681              		.loc 1 952 5 view .LVU243
 682              	.LBB120:
 683              	.LBI120:
 684              		.file 2 "lvgl/src/draw/sw/../../misc/lv_area.h"
   1:lvgl/src/draw/sw/../../misc/lv_area.h **** /**
   2:lvgl/src/draw/sw/../../misc/lv_area.h ****  * @file lv_area.h
   3:lvgl/src/draw/sw/../../misc/lv_area.h ****  *
   4:lvgl/src/draw/sw/../../misc/lv_area.h ****  */
   5:lvgl/src/draw/sw/../../misc/lv_area.h **** 
   6:lvgl/src/draw/sw/../../misc/lv_area.h **** #ifndef LV_AREA_H
   7:lvgl/src/draw/sw/../../misc/lv_area.h **** #define LV_AREA_H
ARM GAS  C:\Users\OSD\AppData\Local\Temp\ccS6lZqb.s 			page 41


   8:lvgl/src/draw/sw/../../misc/lv_area.h **** 
   9:lvgl/src/draw/sw/../../misc/lv_area.h **** #ifdef __cplusplus
  10:lvgl/src/draw/sw/../../misc/lv_area.h **** extern "C" {
  11:lvgl/src/draw/sw/../../misc/lv_area.h **** #endif
  12:lvgl/src/draw/sw/../../misc/lv_area.h **** 
  13:lvgl/src/draw/sw/../../misc/lv_area.h **** /*********************
  14:lvgl/src/draw/sw/../../misc/lv_area.h ****  *      INCLUDES
  15:lvgl/src/draw/sw/../../misc/lv_area.h ****  *********************/
  16:lvgl/src/draw/sw/../../misc/lv_area.h **** #include "../lv_conf_internal.h"
  17:lvgl/src/draw/sw/../../misc/lv_area.h **** #include <stdbool.h>
  18:lvgl/src/draw/sw/../../misc/lv_area.h **** #include <stdint.h>
  19:lvgl/src/draw/sw/../../misc/lv_area.h **** 
  20:lvgl/src/draw/sw/../../misc/lv_area.h **** /*********************
  21:lvgl/src/draw/sw/../../misc/lv_area.h ****  *      DEFINES
  22:lvgl/src/draw/sw/../../misc/lv_area.h ****  *********************/
  23:lvgl/src/draw/sw/../../misc/lv_area.h **** 
  24:lvgl/src/draw/sw/../../misc/lv_area.h **** #if LV_USE_LARGE_COORD
  25:lvgl/src/draw/sw/../../misc/lv_area.h **** typedef int32_t lv_coord_t;
  26:lvgl/src/draw/sw/../../misc/lv_area.h **** #else
  27:lvgl/src/draw/sw/../../misc/lv_area.h **** typedef int16_t lv_coord_t;
  28:lvgl/src/draw/sw/../../misc/lv_area.h **** #endif
  29:lvgl/src/draw/sw/../../misc/lv_area.h **** 
  30:lvgl/src/draw/sw/../../misc/lv_area.h **** /**********************
  31:lvgl/src/draw/sw/../../misc/lv_area.h ****  *      TYPEDEFS
  32:lvgl/src/draw/sw/../../misc/lv_area.h ****  **********************/
  33:lvgl/src/draw/sw/../../misc/lv_area.h **** 
  34:lvgl/src/draw/sw/../../misc/lv_area.h **** /**
  35:lvgl/src/draw/sw/../../misc/lv_area.h ****  * Represents a point on the screen.
  36:lvgl/src/draw/sw/../../misc/lv_area.h ****  */
  37:lvgl/src/draw/sw/../../misc/lv_area.h **** typedef struct {
  38:lvgl/src/draw/sw/../../misc/lv_area.h ****     lv_coord_t x;
  39:lvgl/src/draw/sw/../../misc/lv_area.h ****     lv_coord_t y;
  40:lvgl/src/draw/sw/../../misc/lv_area.h **** } lv_point_t;
  41:lvgl/src/draw/sw/../../misc/lv_area.h **** 
  42:lvgl/src/draw/sw/../../misc/lv_area.h **** /** Represents an area of the screen.*/
  43:lvgl/src/draw/sw/../../misc/lv_area.h **** typedef struct {
  44:lvgl/src/draw/sw/../../misc/lv_area.h ****     lv_coord_t x1;
  45:lvgl/src/draw/sw/../../misc/lv_area.h ****     lv_coord_t y1;
  46:lvgl/src/draw/sw/../../misc/lv_area.h ****     lv_coord_t x2;
  47:lvgl/src/draw/sw/../../misc/lv_area.h ****     lv_coord_t y2;
  48:lvgl/src/draw/sw/../../misc/lv_area.h **** } lv_area_t;
  49:lvgl/src/draw/sw/../../misc/lv_area.h **** 
  50:lvgl/src/draw/sw/../../misc/lv_area.h **** /** Alignments*/
  51:lvgl/src/draw/sw/../../misc/lv_area.h **** enum {
  52:lvgl/src/draw/sw/../../misc/lv_area.h ****     LV_ALIGN_DEFAULT = 0,
  53:lvgl/src/draw/sw/../../misc/lv_area.h ****     LV_ALIGN_TOP_LEFT,
  54:lvgl/src/draw/sw/../../misc/lv_area.h ****     LV_ALIGN_TOP_MID,
  55:lvgl/src/draw/sw/../../misc/lv_area.h ****     LV_ALIGN_TOP_RIGHT,
  56:lvgl/src/draw/sw/../../misc/lv_area.h ****     LV_ALIGN_BOTTOM_LEFT,
  57:lvgl/src/draw/sw/../../misc/lv_area.h ****     LV_ALIGN_BOTTOM_MID,
  58:lvgl/src/draw/sw/../../misc/lv_area.h ****     LV_ALIGN_BOTTOM_RIGHT,
  59:lvgl/src/draw/sw/../../misc/lv_area.h ****     LV_ALIGN_LEFT_MID,
  60:lvgl/src/draw/sw/../../misc/lv_area.h ****     LV_ALIGN_RIGHT_MID,
  61:lvgl/src/draw/sw/../../misc/lv_area.h ****     LV_ALIGN_CENTER,
  62:lvgl/src/draw/sw/../../misc/lv_area.h **** 
  63:lvgl/src/draw/sw/../../misc/lv_area.h ****     LV_ALIGN_OUT_TOP_LEFT,
  64:lvgl/src/draw/sw/../../misc/lv_area.h ****     LV_ALIGN_OUT_TOP_MID,
ARM GAS  C:\Users\OSD\AppData\Local\Temp\ccS6lZqb.s 			page 42


  65:lvgl/src/draw/sw/../../misc/lv_area.h ****     LV_ALIGN_OUT_TOP_RIGHT,
  66:lvgl/src/draw/sw/../../misc/lv_area.h ****     LV_ALIGN_OUT_BOTTOM_LEFT,
  67:lvgl/src/draw/sw/../../misc/lv_area.h ****     LV_ALIGN_OUT_BOTTOM_MID,
  68:lvgl/src/draw/sw/../../misc/lv_area.h ****     LV_ALIGN_OUT_BOTTOM_RIGHT,
  69:lvgl/src/draw/sw/../../misc/lv_area.h ****     LV_ALIGN_OUT_LEFT_TOP,
  70:lvgl/src/draw/sw/../../misc/lv_area.h ****     LV_ALIGN_OUT_LEFT_MID,
  71:lvgl/src/draw/sw/../../misc/lv_area.h ****     LV_ALIGN_OUT_LEFT_BOTTOM,
  72:lvgl/src/draw/sw/../../misc/lv_area.h ****     LV_ALIGN_OUT_RIGHT_TOP,
  73:lvgl/src/draw/sw/../../misc/lv_area.h ****     LV_ALIGN_OUT_RIGHT_MID,
  74:lvgl/src/draw/sw/../../misc/lv_area.h ****     LV_ALIGN_OUT_RIGHT_BOTTOM,
  75:lvgl/src/draw/sw/../../misc/lv_area.h **** };
  76:lvgl/src/draw/sw/../../misc/lv_area.h **** typedef uint8_t lv_align_t;
  77:lvgl/src/draw/sw/../../misc/lv_area.h **** 
  78:lvgl/src/draw/sw/../../misc/lv_area.h **** enum {
  79:lvgl/src/draw/sw/../../misc/lv_area.h ****     LV_DIR_NONE     = 0x00,
  80:lvgl/src/draw/sw/../../misc/lv_area.h ****     LV_DIR_LEFT     = (1 << 0),
  81:lvgl/src/draw/sw/../../misc/lv_area.h ****     LV_DIR_RIGHT    = (1 << 1),
  82:lvgl/src/draw/sw/../../misc/lv_area.h ****     LV_DIR_TOP      = (1 << 2),
  83:lvgl/src/draw/sw/../../misc/lv_area.h ****     LV_DIR_BOTTOM   = (1 << 3),
  84:lvgl/src/draw/sw/../../misc/lv_area.h ****     LV_DIR_HOR      = LV_DIR_LEFT | LV_DIR_RIGHT,
  85:lvgl/src/draw/sw/../../misc/lv_area.h ****     LV_DIR_VER      = LV_DIR_TOP | LV_DIR_BOTTOM,
  86:lvgl/src/draw/sw/../../misc/lv_area.h ****     LV_DIR_ALL      = LV_DIR_HOR | LV_DIR_VER,
  87:lvgl/src/draw/sw/../../misc/lv_area.h **** };
  88:lvgl/src/draw/sw/../../misc/lv_area.h **** 
  89:lvgl/src/draw/sw/../../misc/lv_area.h **** typedef uint8_t lv_dir_t;
  90:lvgl/src/draw/sw/../../misc/lv_area.h **** 
  91:lvgl/src/draw/sw/../../misc/lv_area.h **** /**********************
  92:lvgl/src/draw/sw/../../misc/lv_area.h ****  * GLOBAL PROTOTYPES
  93:lvgl/src/draw/sw/../../misc/lv_area.h ****  **********************/
  94:lvgl/src/draw/sw/../../misc/lv_area.h **** 
  95:lvgl/src/draw/sw/../../misc/lv_area.h **** /**
  96:lvgl/src/draw/sw/../../misc/lv_area.h ****  * Initialize an area
  97:lvgl/src/draw/sw/../../misc/lv_area.h ****  * @param area_p pointer to an area
  98:lvgl/src/draw/sw/../../misc/lv_area.h ****  * @param x1 left coordinate of the area
  99:lvgl/src/draw/sw/../../misc/lv_area.h ****  * @param y1 top coordinate of the area
 100:lvgl/src/draw/sw/../../misc/lv_area.h ****  * @param x2 right coordinate of the area
 101:lvgl/src/draw/sw/../../misc/lv_area.h ****  * @param y2 bottom coordinate of the area
 102:lvgl/src/draw/sw/../../misc/lv_area.h ****  */
 103:lvgl/src/draw/sw/../../misc/lv_area.h **** void lv_area_set(lv_area_t * area_p, lv_coord_t x1, lv_coord_t y1, lv_coord_t x2, lv_coord_t y2);
 104:lvgl/src/draw/sw/../../misc/lv_area.h **** 
 105:lvgl/src/draw/sw/../../misc/lv_area.h **** /**
 106:lvgl/src/draw/sw/../../misc/lv_area.h ****  * Copy an area
 107:lvgl/src/draw/sw/../../misc/lv_area.h ****  * @param dest pointer to the destination area
 108:lvgl/src/draw/sw/../../misc/lv_area.h ****  * @param src pointer to the source area
 109:lvgl/src/draw/sw/../../misc/lv_area.h ****  */
 110:lvgl/src/draw/sw/../../misc/lv_area.h **** inline static void lv_area_copy(lv_area_t * dest, const lv_area_t * src)
 685              		.loc 2 110 20 view .LVU244
 686              	.LBB121:
 111:lvgl/src/draw/sw/../../misc/lv_area.h **** {
 112:lvgl/src/draw/sw/../../misc/lv_area.h ****     dest->x1 = src->x1;
 687              		.loc 2 112 5 view .LVU245
 688              		.loc 2 112 19 is_stmt 0 view .LVU246
 689 0010 B0F90030 		ldrsh	r3, [r0]
 690              	.LVL70:
 691              		.loc 2 112 14 view .LVU247
 692 0014 ADF82030 		strh	r3, [sp, #32]	@ movhi
 113:lvgl/src/draw/sw/../../misc/lv_area.h ****     dest->y1 = src->y1;
ARM GAS  C:\Users\OSD\AppData\Local\Temp\ccS6lZqb.s 			page 43


 693              		.loc 2 113 5 is_stmt 1 view .LVU248
 694              		.loc 2 113 19 is_stmt 0 view .LVU249
 695 0018 B0F90230 		ldrsh	r3, [r0, #2]
 696              		.loc 2 113 14 view .LVU250
 697 001c ADF82230 		strh	r3, [sp, #34]	@ movhi
 114:lvgl/src/draw/sw/../../misc/lv_area.h ****     dest->x2 = src->x2;
 698              		.loc 2 114 5 is_stmt 1 view .LVU251
 699              		.loc 2 114 19 is_stmt 0 view .LVU252
 700 0020 B0F90430 		ldrsh	r3, [r0, #4]
 701              		.loc 2 114 14 view .LVU253
 702 0024 ADF82430 		strh	r3, [sp, #36]	@ movhi
 115:lvgl/src/draw/sw/../../misc/lv_area.h ****     dest->y2 = src->y2;
 703              		.loc 2 115 5 is_stmt 1 view .LVU254
 704              		.loc 2 115 19 is_stmt 0 view .LVU255
 705 0028 B0F90630 		ldrsh	r3, [r0, #6]
 706              		.loc 2 115 14 view .LVU256
 707 002c ADF82630 		strh	r3, [sp, #38]	@ movhi
 708              	.LVL71:
 709              		.loc 2 115 14 view .LVU257
 710              	.LBE121:
 711              	.LBE120:
 953:lvgl/src/draw/sw/lv_draw_sw_rect.c ****     sh_area.y1 = sw / 2 + 1;
 712              		.loc 1 953 5 is_stmt 1 view .LVU258
 953:lvgl/src/draw/sw/lv_draw_sw_rect.c ****     sh_area.y1 = sw / 2 + 1;
 713              		.loc 1 953 25 is_stmt 0 view .LVU259
 714 0030 4946     		mov	r1, r9
 715              	.LVL72:
 953:lvgl/src/draw/sw/lv_draw_sw_rect.c ****     sh_area.y1 = sw / 2 + 1;
 716              		.loc 1 953 25 view .LVU260
 717 0032 B9F1000F 		cmp	r9, #0
 718 0036 35DB     		blt	.L77
 719              	.L52:
 953:lvgl/src/draw/sw/lv_draw_sw_rect.c ****     sh_area.y1 = sw / 2 + 1;
 720              		.loc 1 953 25 view .LVU261
 721 0038 C1F34F01 		ubfx	r1, r1, #1, #16
 722 003c 8B18     		adds	r3, r1, r2
 723 003e 9BB2     		uxth	r3, r3
 953:lvgl/src/draw/sw/lv_draw_sw_rect.c ****     sh_area.y1 = sw / 2 + 1;
 724              		.loc 1 953 50 view .LVU262
 725 0040 19F0010A 		ands	r10, r9, #1
 726 0044 0CBF     		ite	eq
 727 0046 0125     		moveq	r5, #1
 728 0048 0025     		movne	r5, #0
 953:lvgl/src/draw/sw/lv_draw_sw_rect.c ****     sh_area.y1 = sw / 2 + 1;
 729              		.loc 1 953 34 view .LVU263
 730 004a 5B1B     		subs	r3, r3, r5
 731 004c 013B     		subs	r3, r3, #1
 732 004e 9EB2     		uxth	r6, r3
 953:lvgl/src/draw/sw/lv_draw_sw_rect.c ****     sh_area.y1 = sw / 2 + 1;
 733              		.loc 1 953 16 view .LVU264
 734 0050 ADF82430 		strh	r3, [sp, #36]	@ movhi
 954:lvgl/src/draw/sw/lv_draw_sw_rect.c **** 
 735              		.loc 1 954 5 is_stmt 1 view .LVU265
 954:lvgl/src/draw/sw/lv_draw_sw_rect.c **** 
 736              		.loc 1 954 25 is_stmt 0 view .LVU266
 737 0054 0131     		adds	r1, r1, #1
 954:lvgl/src/draw/sw/lv_draw_sw_rect.c **** 
ARM GAS  C:\Users\OSD\AppData\Local\Temp\ccS6lZqb.s 			page 44


 738              		.loc 1 954 16 view .LVU267
 739 0056 ADF82210 		strh	r1, [sp, #34]	@ movhi
 956:lvgl/src/draw/sw/lv_draw_sw_rect.c ****     sh_area.y2 = sh_area.y1 + lv_area_get_height(coords);
 740              		.loc 1 956 5 is_stmt 1 view .LVU268
 741              	.LVL73:
 742              	.LBB122:
 743              	.LBI122:
 116:lvgl/src/draw/sw/../../misc/lv_area.h **** }
 117:lvgl/src/draw/sw/../../misc/lv_area.h **** 
 118:lvgl/src/draw/sw/../../misc/lv_area.h **** /**
 119:lvgl/src/draw/sw/../../misc/lv_area.h ****  * Get the width of an area
 120:lvgl/src/draw/sw/../../misc/lv_area.h ****  * @param area_p pointer to an area
 121:lvgl/src/draw/sw/../../misc/lv_area.h ****  * @return the width of the area (if x1 == x2 -> width = 1)
 122:lvgl/src/draw/sw/../../misc/lv_area.h ****  */
 123:lvgl/src/draw/sw/../../misc/lv_area.h **** static inline lv_coord_t lv_area_get_width(const lv_area_t * area_p)
 744              		.loc 2 123 26 view .LVU269
 745              	.LBB123:
 124:lvgl/src/draw/sw/../../misc/lv_area.h **** {
 125:lvgl/src/draw/sw/../../misc/lv_area.h ****     return (lv_coord_t)(area_p->x2 - area_p->x1 + 1);
 746              		.loc 2 125 5 view .LVU270
 747              		.loc 2 125 31 is_stmt 0 view .LVU271
 748 005a 8588     		ldrh	r5, [r0, #4]
 749              		.loc 2 125 44 view .LVU272
 750 005c 0388     		ldrh	r3, [r0]
 751              		.loc 2 125 36 view .LVU273
 752 005e ED1A     		subs	r5, r5, r3
 753 0060 ADB2     		uxth	r5, r5
 754              		.loc 2 125 49 view .LVU274
 755 0062 0135     		adds	r5, r5, #1
 756 0064 ADB2     		uxth	r5, r5
 757              	.LVL74:
 758              		.loc 2 125 49 view .LVU275
 759              	.LBE123:
 760              	.LBE122:
 956:lvgl/src/draw/sw/lv_draw_sw_rect.c ****     sh_area.y2 = sh_area.y1 + lv_area_get_height(coords);
 761              		.loc 1 956 29 view .LVU276
 762 0066 751B     		subs	r5, r6, r5
 956:lvgl/src/draw/sw/lv_draw_sw_rect.c ****     sh_area.y2 = sh_area.y1 + lv_area_get_height(coords);
 763              		.loc 1 956 16 view .LVU277
 764 0068 ADF82050 		strh	r5, [sp, #32]	@ movhi
 957:lvgl/src/draw/sw/lv_draw_sw_rect.c **** 
 765              		.loc 1 957 5 is_stmt 1 view .LVU278
 766              	.LVL75:
 767              	.LBB124:
 768              	.LBI124:
 126:lvgl/src/draw/sw/../../misc/lv_area.h **** }
 127:lvgl/src/draw/sw/../../misc/lv_area.h **** 
 128:lvgl/src/draw/sw/../../misc/lv_area.h **** /**
 129:lvgl/src/draw/sw/../../misc/lv_area.h ****  * Get the height of an area
 130:lvgl/src/draw/sw/../../misc/lv_area.h ****  * @param area_p pointer to an area
 131:lvgl/src/draw/sw/../../misc/lv_area.h ****  * @return the height of the area (if y1 == y2 -> height = 1)
 132:lvgl/src/draw/sw/../../misc/lv_area.h ****  */
 133:lvgl/src/draw/sw/../../misc/lv_area.h **** static inline lv_coord_t lv_area_get_height(const lv_area_t * area_p)
 769              		.loc 2 133 26 view .LVU279
 770              	.LBB125:
 134:lvgl/src/draw/sw/../../misc/lv_area.h **** {
 135:lvgl/src/draw/sw/../../misc/lv_area.h ****     return (lv_coord_t)(area_p->y2 - area_p->y1 + 1);
ARM GAS  C:\Users\OSD\AppData\Local\Temp\ccS6lZqb.s 			page 45


 771              		.loc 2 135 5 view .LVU280
 772              		.loc 2 135 31 is_stmt 0 view .LVU281
 773 006c C588     		ldrh	r5, [r0, #6]
 774              		.loc 2 135 44 view .LVU282
 775 006e 4088     		ldrh	r0, [r0, #2]
 776              	.LVL76:
 777              		.loc 2 135 36 view .LVU283
 778 0070 281A     		subs	r0, r5, r0
 779 0072 80B2     		uxth	r0, r0
 780              		.loc 2 135 49 view .LVU284
 781 0074 0130     		adds	r0, r0, #1
 782 0076 80B2     		uxth	r0, r0
 783              	.LVL77:
 784              		.loc 2 135 49 view .LVU285
 785              	.LBE125:
 786              	.LBE124:
 957:lvgl/src/draw/sw/lv_draw_sw_rect.c **** 
 787              		.loc 1 957 29 view .LVU286
 788 0078 10FA81F1 		uxtah	r1, r0, r1
 957:lvgl/src/draw/sw/lv_draw_sw_rect.c **** 
 789              		.loc 1 957 16 view .LVU287
 790 007c ADF82610 		strh	r1, [sp, #38]	@ movhi
 959:lvgl/src/draw/sw/lv_draw_sw_rect.c ****     lv_draw_mask_radius_init(&mask_param, &sh_area, r, false);
 791              		.loc 1 959 5 is_stmt 1 view .LVU288
 960:lvgl/src/draw/sw/lv_draw_sw_rect.c **** 
 792              		.loc 1 960 5 view .LVU289
 793 0080 0023     		movs	r3, #0
 794 0082 08A9     		add	r1, sp, #32
 795 0084 02A8     		add	r0, sp, #8
 796 0086 FFF7FEFF 		bl	lv_draw_mask_radius_init
 797              	.LVL78:
 964:lvgl/src/draw/sw/lv_draw_sw_rect.c ****     else sw = sw_ori >> 1;
 798              		.loc 1 964 5 view .LVU290
 964:lvgl/src/draw/sw/lv_draw_sw_rect.c ****     else sw = sw_ori >> 1;
 799              		.loc 1 964 7 is_stmt 0 view .LVU291
 800 008a B9F1010F 		cmp	r9, #1
 801 008e 0CD0     		beq	.L73
 965:lvgl/src/draw/sw/lv_draw_sw_rect.c **** #endif
 802              		.loc 1 965 10 is_stmt 1 view .LVU292
 965:lvgl/src/draw/sw/lv_draw_sw_rect.c **** #endif
 803              		.loc 1 965 13 is_stmt 0 view .LVU293
 804 0090 4FEA6909 		asr	r9, r9, #1
 805              	.LVL79:
 806              	.L53:
 968:lvgl/src/draw/sw/lv_draw_sw_rect.c ****     lv_opa_t * mask_line = lv_mem_buf_get(size);
 807              		.loc 1 968 5 is_stmt 1 view .LVU294
 969:lvgl/src/draw/sw/lv_draw_sw_rect.c ****     uint16_t * sh_ups_tmp_buf = (uint16_t *)sh_buf;
 808              		.loc 1 969 5 view .LVU295
 969:lvgl/src/draw/sw/lv_draw_sw_rect.c ****     uint16_t * sh_ups_tmp_buf = (uint16_t *)sh_buf;
 809              		.loc 1 969 28 is_stmt 0 view .LVU296
 810 0094 2046     		mov	r0, r4
 811 0096 FFF7FEFF 		bl	lv_mem_buf_get
 812              	.LVL80:
 813 009a 0546     		mov	r5, r0
 814              	.LVL81:
 970:lvgl/src/draw/sw/lv_draw_sw_rect.c ****     for(y = 0; y < size; y++) {
 815              		.loc 1 970 5 is_stmt 1 view .LVU297
ARM GAS  C:\Users\OSD\AppData\Local\Temp\ccS6lZqb.s 			page 46


 971:lvgl/src/draw/sw/lv_draw_sw_rect.c ****         lv_memset_ff(mask_line, size);
 816              		.loc 1 971 5 view .LVU298
 970:lvgl/src/draw/sw/lv_draw_sw_rect.c ****     for(y = 0; y < size; y++) {
 817              		.loc 1 970 16 is_stmt 0 view .LVU299
 818 009c 4646     		mov	r6, r8
 971:lvgl/src/draw/sw/lv_draw_sw_rect.c ****         lv_memset_ff(mask_line, size);
 819              		.loc 1 971 11 view .LVU300
 820 009e 4FF0000B 		mov	fp, #0
 971:lvgl/src/draw/sw/lv_draw_sw_rect.c ****         lv_memset_ff(mask_line, size);
 821              		.loc 1 971 5 view .LVU301
 822 00a2 27E0     		b	.L54
 823              	.LVL82:
 824              	.L77:
 953:lvgl/src/draw/sw/lv_draw_sw_rect.c ****     sh_area.y1 = sw / 2 + 1;
 825              		.loc 1 953 25 view .LVU302
 826 00a4 09F10101 		add	r1, r9, #1
 827              	.LVL83:
 953:lvgl/src/draw/sw/lv_draw_sw_rect.c ****     sh_area.y1 = sw / 2 + 1;
 828              		.loc 1 953 25 view .LVU303
 829 00a8 C6E7     		b	.L52
 830              	.LVL84:
 831              	.L73:
 964:lvgl/src/draw/sw/lv_draw_sw_rect.c ****     else sw = sw_ori >> 1;
 832              		.loc 1 964 24 view .LVU304
 833 00aa 4FF00109 		mov	r9, #1
 834              	.LVL85:
 964:lvgl/src/draw/sw/lv_draw_sw_rect.c ****     else sw = sw_ori >> 1;
 835              		.loc 1 964 24 view .LVU305
 836 00ae F1E7     		b	.L53
 837              	.LVL86:
 838              	.L55:
 839              	.LBB126:
 840              	.LBB127:
 978:lvgl/src/draw/sw/lv_draw_sw_rect.c ****             sh_ups_tmp_buf[0] = (mask_line[0] << SHADOW_UPSCALE_SHIFT) / sw;
 841              		.loc 1 978 13 is_stmt 1 view .LVU306
 979:lvgl/src/draw/sw/lv_draw_sw_rect.c ****             for(i = 1; i < size; i++) {
 842              		.loc 1 979 13 view .LVU307
 979:lvgl/src/draw/sw/lv_draw_sw_rect.c ****             for(i = 1; i < size; i++) {
 843              		.loc 1 979 43 is_stmt 0 view .LVU308
 844 00b0 2B78     		ldrb	r3, [r5]	@ zero_extendqisi2
 979:lvgl/src/draw/sw/lv_draw_sw_rect.c ****             for(i = 1; i < size; i++) {
 845              		.loc 1 979 47 view .LVU309
 846 00b2 9B01     		lsls	r3, r3, #6
 979:lvgl/src/draw/sw/lv_draw_sw_rect.c ****             for(i = 1; i < size; i++) {
 847              		.loc 1 979 72 view .LVU310
 848 00b4 4846     		mov	r0, r9
 849              	.LVL87:
 979:lvgl/src/draw/sw/lv_draw_sw_rect.c ****             for(i = 1; i < size; i++) {
 850              		.loc 1 979 72 view .LVU311
 851 00b6 93FBF9F3 		sdiv	r3, r3, r9
 979:lvgl/src/draw/sw/lv_draw_sw_rect.c ****             for(i = 1; i < size; i++) {
 852              		.loc 1 979 31 view .LVU312
 853 00ba 3380     		strh	r3, [r6]	@ movhi
 980:lvgl/src/draw/sw/lv_draw_sw_rect.c ****                 if(mask_line[i] == mask_line[i - 1]) sh_ups_tmp_buf[i] = sh_ups_tmp_buf[i - 1];
 854              		.loc 1 980 13 is_stmt 1 view .LVU313
 855              	.LVL88:
 980:lvgl/src/draw/sw/lv_draw_sw_rect.c ****                 if(mask_line[i] == mask_line[i - 1]) sh_ups_tmp_buf[i] = sh_ups_tmp_buf[i - 1];
ARM GAS  C:\Users\OSD\AppData\Local\Temp\ccS6lZqb.s 			page 47


 856              		.loc 1 980 19 is_stmt 0 view .LVU314
 857 00bc 0123     		movs	r3, #1
 980:lvgl/src/draw/sw/lv_draw_sw_rect.c ****                 if(mask_line[i] == mask_line[i - 1]) sh_ups_tmp_buf[i] = sh_ups_tmp_buf[i - 1];
 858              		.loc 1 980 13 view .LVU315
 859 00be 07E0     		b	.L57
 860              	.LVL89:
 861              	.L78:
 981:lvgl/src/draw/sw/lv_draw_sw_rect.c ****                 else  sh_ups_tmp_buf[i] = (mask_line[i] << SHADOW_UPSCALE_SHIFT) / sw;
 862              		.loc 1 981 54 is_stmt 1 discriminator 1 view .LVU316
 981:lvgl/src/draw/sw/lv_draw_sw_rect.c ****                 else  sh_ups_tmp_buf[i] = (mask_line[i] << SHADOW_UPSCALE_SHIFT) / sw;
 863              		.loc 1 981 88 is_stmt 0 discriminator 1 view .LVU317
 864 00c0 6FF00042 		mvn	r2, #-2147483648
 865 00c4 1A44     		add	r2, r2, r3
 866 00c6 36F81220 		ldrh	r2, [r6, r2, lsl #1]
 981:lvgl/src/draw/sw/lv_draw_sw_rect.c ****                 else  sh_ups_tmp_buf[i] = (mask_line[i] << SHADOW_UPSCALE_SHIFT) / sw;
 867              		.loc 1 981 72 discriminator 1 view .LVU318
 868 00ca 26F81320 		strh	r2, [r6, r3, lsl #1]	@ movhi
 869              	.L59:
 980:lvgl/src/draw/sw/lv_draw_sw_rect.c ****                 if(mask_line[i] == mask_line[i - 1]) sh_ups_tmp_buf[i] = sh_ups_tmp_buf[i - 1];
 870              		.loc 1 980 34 is_stmt 1 discriminator 2 view .LVU319
 980:lvgl/src/draw/sw/lv_draw_sw_rect.c ****                 if(mask_line[i] == mask_line[i - 1]) sh_ups_tmp_buf[i] = sh_ups_tmp_buf[i - 1];
 871              		.loc 1 980 35 is_stmt 0 discriminator 2 view .LVU320
 872 00ce 0133     		adds	r3, r3, #1
 873              	.LVL90:
 874              	.L57:
 980:lvgl/src/draw/sw/lv_draw_sw_rect.c ****                 if(mask_line[i] == mask_line[i - 1]) sh_ups_tmp_buf[i] = sh_ups_tmp_buf[i - 1];
 875              		.loc 1 980 24 is_stmt 1 discriminator 1 view .LVU321
 980:lvgl/src/draw/sw/lv_draw_sw_rect.c ****                 if(mask_line[i] == mask_line[i - 1]) sh_ups_tmp_buf[i] = sh_ups_tmp_buf[i - 1];
 876              		.loc 1 980 13 is_stmt 0 discriminator 1 view .LVU322
 877 00d0 A342     		cmp	r3, r4
 878 00d2 0BDA     		bge	.L56
 981:lvgl/src/draw/sw/lv_draw_sw_rect.c ****                 else  sh_ups_tmp_buf[i] = (mask_line[i] << SHADOW_UPSCALE_SHIFT) / sw;
 879              		.loc 1 981 17 is_stmt 1 view .LVU323
 981:lvgl/src/draw/sw/lv_draw_sw_rect.c ****                 else  sh_ups_tmp_buf[i] = (mask_line[i] << SHADOW_UPSCALE_SHIFT) / sw;
 880              		.loc 1 981 29 is_stmt 0 view .LVU324
 881 00d4 EA5C     		ldrb	r2, [r5, r3]	@ zero_extendqisi2
 981:lvgl/src/draw/sw/lv_draw_sw_rect.c ****                 else  sh_ups_tmp_buf[i] = (mask_line[i] << SHADOW_UPSCALE_SHIFT) / sw;
 882              		.loc 1 981 45 view .LVU325
 883 00d6 E918     		adds	r1, r5, r3
 884 00d8 11F8011C 		ldrb	r1, [r1, #-1]	@ zero_extendqisi2
 981:lvgl/src/draw/sw/lv_draw_sw_rect.c ****                 else  sh_ups_tmp_buf[i] = (mask_line[i] << SHADOW_UPSCALE_SHIFT) / sw;
 885              		.loc 1 981 19 view .LVU326
 886 00dc 8A42     		cmp	r2, r1
 887 00de EFD0     		beq	.L78
 982:lvgl/src/draw/sw/lv_draw_sw_rect.c ****             }
 888              		.loc 1 982 23 is_stmt 1 view .LVU327
 982:lvgl/src/draw/sw/lv_draw_sw_rect.c ****             }
 889              		.loc 1 982 57 is_stmt 0 view .LVU328
 890 00e0 9201     		lsls	r2, r2, #6
 982:lvgl/src/draw/sw/lv_draw_sw_rect.c ****             }
 891              		.loc 1 982 82 view .LVU329
 892 00e2 92FBF0F2 		sdiv	r2, r2, r0
 982:lvgl/src/draw/sw/lv_draw_sw_rect.c ****             }
 893              		.loc 1 982 41 view .LVU330
 894 00e6 26F81320 		strh	r2, [r6, r3, lsl #1]	@ movhi
 895 00ea F0E7     		b	.L59
 896              	.LVL91:
ARM GAS  C:\Users\OSD\AppData\Local\Temp\ccS6lZqb.s 			page 48


 897              	.L56:
 982:lvgl/src/draw/sw/lv_draw_sw_rect.c ****             }
 898              		.loc 1 982 41 view .LVU331
 899              	.LBE127:
 986:lvgl/src/draw/sw/lv_draw_sw_rect.c ****     }
 900              		.loc 1 986 9 is_stmt 1 discriminator 2 view .LVU332
 986:lvgl/src/draw/sw/lv_draw_sw_rect.c ****     }
 901              		.loc 1 986 24 is_stmt 0 discriminator 2 view .LVU333
 902 00ec 06EB4406 		add	r6, r6, r4, lsl #1
 903              	.LVL92:
 986:lvgl/src/draw/sw/lv_draw_sw_rect.c ****     }
 904              		.loc 1 986 24 discriminator 2 view .LVU334
 905              	.LBE126:
 971:lvgl/src/draw/sw/lv_draw_sw_rect.c ****         lv_memset_ff(mask_line, size);
 906              		.loc 1 971 26 is_stmt 1 discriminator 2 view .LVU335
 971:lvgl/src/draw/sw/lv_draw_sw_rect.c ****         lv_memset_ff(mask_line, size);
 907              		.loc 1 971 27 is_stmt 0 discriminator 2 view .LVU336
 908 00f0 0BF1010B 		add	fp, fp, #1
 909              	.LVL93:
 910              	.L54:
 971:lvgl/src/draw/sw/lv_draw_sw_rect.c ****         lv_memset_ff(mask_line, size);
 911              		.loc 1 971 16 is_stmt 1 discriminator 1 view .LVU337
 971:lvgl/src/draw/sw/lv_draw_sw_rect.c ****         lv_memset_ff(mask_line, size);
 912              		.loc 1 971 5 is_stmt 0 discriminator 1 view .LVU338
 913 00f4 A345     		cmp	fp, r4
 914 00f6 13DA     		bge	.L79
 915              	.LBB128:
 972:lvgl/src/draw/sw/lv_draw_sw_rect.c ****         lv_draw_mask_res_t mask_res = mask_param.dsc.cb(mask_line, 0, y, size, &mask_param);
 916              		.loc 1 972 9 is_stmt 1 view .LVU339
 917 00f8 2146     		mov	r1, r4
 918 00fa 2846     		mov	r0, r5
 919 00fc FFF7FEFF 		bl	lv_memset_ff
 920              	.LVL94:
 973:lvgl/src/draw/sw/lv_draw_sw_rect.c ****         if(mask_res == LV_DRAW_MASK_RES_TRANSP) {
 921              		.loc 1 973 9 view .LVU340
 973:lvgl/src/draw/sw/lv_draw_sw_rect.c ****         if(mask_res == LV_DRAW_MASK_RES_TRANSP) {
 922              		.loc 1 973 39 is_stmt 0 view .LVU341
 923 0100 02AB     		add	r3, sp, #8
 924 0102 0093     		str	r3, [sp]
 925 0104 23B2     		sxth	r3, r4
 926 0106 0FFA8BF2 		sxth	r2, fp
 927 010a 0021     		movs	r1, #0
 928 010c 2846     		mov	r0, r5
 929 010e 029F     		ldr	r7, [sp, #8]
 930 0110 B847     		blx	r7
 931              	.LVL95:
 974:lvgl/src/draw/sw/lv_draw_sw_rect.c ****             lv_memset_00(sh_ups_tmp_buf, size * sizeof(sh_ups_tmp_buf[0]));
 932              		.loc 1 974 9 is_stmt 1 view .LVU342
 974:lvgl/src/draw/sw/lv_draw_sw_rect.c ****             lv_memset_00(sh_ups_tmp_buf, size * sizeof(sh_ups_tmp_buf[0]));
 933              		.loc 1 974 11 is_stmt 0 view .LVU343
 934 0112 0028     		cmp	r0, #0
 935 0114 CCD1     		bne	.L55
 975:lvgl/src/draw/sw/lv_draw_sw_rect.c ****         }
 936              		.loc 1 975 13 is_stmt 1 view .LVU344
 937 0116 6100     		lsls	r1, r4, #1
 938 0118 3046     		mov	r0, r6
 939              	.LVL96:
ARM GAS  C:\Users\OSD\AppData\Local\Temp\ccS6lZqb.s 			page 49


 975:lvgl/src/draw/sw/lv_draw_sw_rect.c ****         }
 940              		.loc 1 975 13 is_stmt 0 view .LVU345
 941 011a FFF7FEFF 		bl	lv_memset_00
 942              	.LVL97:
 943 011e E5E7     		b	.L56
 944              	.L79:
 975:lvgl/src/draw/sw/lv_draw_sw_rect.c ****         }
 945              		.loc 1 975 13 view .LVU346
 946              	.LBE128:
 988:lvgl/src/draw/sw/lv_draw_sw_rect.c **** 
 947              		.loc 1 988 5 is_stmt 1 view .LVU347
 948 0120 2846     		mov	r0, r5
 949 0122 FFF7FEFF 		bl	lv_mem_buf_release
 950              	.LVL98:
 990:lvgl/src/draw/sw/lv_draw_sw_rect.c **** 
 951              		.loc 1 990 5 view .LVU348
 952 0126 02A8     		add	r0, sp, #8
 953 0128 FFF7FEFF 		bl	lv_draw_mask_free_param
 954              	.LVL99:
 992:lvgl/src/draw/sw/lv_draw_sw_rect.c ****         int32_t i;
 955              		.loc 1 992 5 view .LVU349
 992:lvgl/src/draw/sw/lv_draw_sw_rect.c ****         int32_t i;
 956              		.loc 1 992 7 is_stmt 0 view .LVU350
 957 012c B9F1010F 		cmp	r9, #1
 958 0130 1AD0     		beq	.L80
1001:lvgl/src/draw/sw/lv_draw_sw_rect.c **** 
 959              		.loc 1 1001 5 is_stmt 1 view .LVU351
 960 0132 25B2     		sxth	r5, r4
 961              	.LVL100:
1001:lvgl/src/draw/sw/lv_draw_sw_rect.c **** 
 962              		.loc 1 1001 5 is_stmt 0 view .LVU352
 963 0134 4246     		mov	r2, r8
 964 0136 4946     		mov	r1, r9
 965 0138 2846     		mov	r0, r5
 966 013a FFF7FEFF 		bl	shadow_blur_corner
 967              	.LVL101:
1011:lvgl/src/draw/sw/lv_draw_sw_rect.c ****     if(sw > 1) {
 968              		.loc 1 1011 5 is_stmt 1 view .LVU353
1011:lvgl/src/draw/sw/lv_draw_sw_rect.c ****     if(sw > 1) {
 969              		.loc 1 1011 8 is_stmt 0 view .LVU354
 970 013e 0AEB0901 		add	r1, r10, r9
 971              	.LVL102:
1012:lvgl/src/draw/sw/lv_draw_sw_rect.c ****         uint32_t i;
 972              		.loc 1 1012 5 is_stmt 1 view .LVU355
1012:lvgl/src/draw/sw/lv_draw_sw_rect.c ****         uint32_t i;
 973              		.loc 1 1012 7 is_stmt 0 view .LVU356
 974 0142 0129     		cmp	r1, #1
 975 0144 2ADD     		ble	.L66
 976              	.LBB129:
1013:lvgl/src/draw/sw/lv_draw_sw_rect.c ****         uint32_t max_v_div = (LV_OPA_COVER << SHADOW_UPSCALE_SHIFT) / sw;
 977              		.loc 1 1013 9 is_stmt 1 view .LVU357
1014:lvgl/src/draw/sw/lv_draw_sw_rect.c ****         for(i = 0; i < (uint32_t)size * size; i++) {
 978              		.loc 1 1014 9 view .LVU358
1014:lvgl/src/draw/sw/lv_draw_sw_rect.c ****         for(i = 0; i < (uint32_t)size * size; i++) {
 979              		.loc 1 1014 69 is_stmt 0 view .LVU359
 980 0146 4FF47F56 		mov	r6, #16320
 981              	.LVL103:
ARM GAS  C:\Users\OSD\AppData\Local\Temp\ccS6lZqb.s 			page 50


1014:lvgl/src/draw/sw/lv_draw_sw_rect.c ****         for(i = 0; i < (uint32_t)size * size; i++) {
 982              		.loc 1 1014 69 view .LVU360
 983 014a 96FBF1F6 		sdiv	r6, r6, r1
 984              	.LVL104:
1015:lvgl/src/draw/sw/lv_draw_sw_rect.c ****             if(sh_buf[i] == 0) continue;
 985              		.loc 1 1015 9 is_stmt 1 view .LVU361
1015:lvgl/src/draw/sw/lv_draw_sw_rect.c ****             if(sh_buf[i] == 0) continue;
 986              		.loc 1 1015 15 is_stmt 0 view .LVU362
 987 014e 0023     		movs	r3, #0
1015:lvgl/src/draw/sw/lv_draw_sw_rect.c ****             if(sh_buf[i] == 0) continue;
 988              		.loc 1 1015 9 view .LVU363
 989 0150 0FE0     		b	.L67
 990              	.LVL105:
 991              	.L64:
1015:lvgl/src/draw/sw/lv_draw_sw_rect.c ****             if(sh_buf[i] == 0) continue;
 992              		.loc 1 1015 9 view .LVU364
 993              	.LBE129:
 994              	.LBB130:
 996:lvgl/src/draw/sw/lv_draw_sw_rect.c ****         }
 995              		.loc 1 996 13 is_stmt 1 discriminator 3 view .LVU365
 996:lvgl/src/draw/sw/lv_draw_sw_rect.c ****         }
 996              		.loc 1 996 33 is_stmt 0 discriminator 3 view .LVU366
 997 0152 38F81320 		ldrh	r2, [r8, r3, lsl #1]
 996:lvgl/src/draw/sw/lv_draw_sw_rect.c ****         }
 998              		.loc 1 996 24 discriminator 3 view .LVU367
 999 0156 9209     		lsrs	r2, r2, #6
 1000 0158 08F80320 		strb	r2, [r8, r3]
 995:lvgl/src/draw/sw/lv_draw_sw_rect.c ****             res_buf[i] = (sh_buf[i] >> SHADOW_UPSCALE_SHIFT);
 1001              		.loc 1 995 37 is_stmt 1 discriminator 3 view .LVU368
 995:lvgl/src/draw/sw/lv_draw_sw_rect.c ****             res_buf[i] = (sh_buf[i] >> SHADOW_UPSCALE_SHIFT);
 1002              		.loc 1 995 38 is_stmt 0 discriminator 3 view .LVU369
 1003 015c 0133     		adds	r3, r3, #1
 1004              	.LVL106:
 1005              	.L62:
 995:lvgl/src/draw/sw/lv_draw_sw_rect.c ****             res_buf[i] = (sh_buf[i] >> SHADOW_UPSCALE_SHIFT);
 1006              		.loc 1 995 20 is_stmt 1 discriminator 1 view .LVU370
 995:lvgl/src/draw/sw/lv_draw_sw_rect.c ****             res_buf[i] = (sh_buf[i] >> SHADOW_UPSCALE_SHIFT);
 1007              		.loc 1 995 29 is_stmt 0 discriminator 1 view .LVU371
 1008 015e 04FB04F2 		mul	r2, r4, r4
 995:lvgl/src/draw/sw/lv_draw_sw_rect.c ****             res_buf[i] = (sh_buf[i] >> SHADOW_UPSCALE_SHIFT);
 1009              		.loc 1 995 9 discriminator 1 view .LVU372
 1010 0162 9A42     		cmp	r2, r3
 1011 0164 F5DC     		bgt	.L64
 1012 0166 24E0     		b	.L51
 1013              	.LVL107:
 1014              	.L80:
 995:lvgl/src/draw/sw/lv_draw_sw_rect.c ****             res_buf[i] = (sh_buf[i] >> SHADOW_UPSCALE_SHIFT);
 1015              		.loc 1 995 15 view .LVU373
 1016 0168 0023     		movs	r3, #0
 1017 016a F8E7     		b	.L62
 1018              	.LVL108:
 1019              	.L82:
 995:lvgl/src/draw/sw/lv_draw_sw_rect.c ****             res_buf[i] = (sh_buf[i] >> SHADOW_UPSCALE_SHIFT);
 1020              		.loc 1 995 15 view .LVU374
 1021              	.LBE130:
 1022              	.LBB131:
1017:lvgl/src/draw/sw/lv_draw_sw_rect.c ****             else  sh_buf[i] = (sh_buf[i] << SHADOW_UPSCALE_SHIFT) / sw;
ARM GAS  C:\Users\OSD\AppData\Local\Temp\ccS6lZqb.s 			page 51


 1023              		.loc 1 1017 48 is_stmt 1 discriminator 1 view .LVU375
1017:lvgl/src/draw/sw/lv_draw_sw_rect.c ****             else  sh_buf[i] = (sh_buf[i] << SHADOW_UPSCALE_SHIFT) / sw;
 1024              		.loc 1 1017 58 is_stmt 0 discriminator 1 view .LVU376
 1025 016c 28F80060 		strh	r6, [r8, r0]	@ movhi
 1026              	.L68:
1015:lvgl/src/draw/sw/lv_draw_sw_rect.c ****             if(sh_buf[i] == 0) continue;
 1027              		.loc 1 1015 47 is_stmt 1 discriminator 2 view .LVU377
1015:lvgl/src/draw/sw/lv_draw_sw_rect.c ****             if(sh_buf[i] == 0) continue;
 1028              		.loc 1 1015 48 is_stmt 0 discriminator 2 view .LVU378
 1029 0170 0133     		adds	r3, r3, #1
 1030              	.LVL109:
 1031              	.L67:
1015:lvgl/src/draw/sw/lv_draw_sw_rect.c ****             if(sh_buf[i] == 0) continue;
 1032              		.loc 1 1015 20 is_stmt 1 discriminator 1 view .LVU379
1015:lvgl/src/draw/sw/lv_draw_sw_rect.c ****             if(sh_buf[i] == 0) continue;
 1033              		.loc 1 1015 39 is_stmt 0 discriminator 1 view .LVU380
 1034 0172 04FB04F2 		mul	r2, r4, r4
1015:lvgl/src/draw/sw/lv_draw_sw_rect.c ****             if(sh_buf[i] == 0) continue;
 1035              		.loc 1 1015 9 discriminator 1 view .LVU381
 1036 0176 9A42     		cmp	r2, r3
 1037 0178 0CD9     		bls	.L81
1016:lvgl/src/draw/sw/lv_draw_sw_rect.c ****             else if(sh_buf[i] == LV_OPA_COVER) sh_buf[i] = max_v_div;
 1038              		.loc 1 1016 13 is_stmt 1 view .LVU382
1016:lvgl/src/draw/sw/lv_draw_sw_rect.c ****             else if(sh_buf[i] == LV_OPA_COVER) sh_buf[i] = max_v_div;
 1039              		.loc 1 1016 22 is_stmt 0 view .LVU383
 1040 017a 5800     		lsls	r0, r3, #1
 1041 017c 38F81320 		ldrh	r2, [r8, r3, lsl #1]
1016:lvgl/src/draw/sw/lv_draw_sw_rect.c ****             else if(sh_buf[i] == LV_OPA_COVER) sh_buf[i] = max_v_div;
 1042              		.loc 1 1016 15 view .LVU384
 1043 0180 002A     		cmp	r2, #0
 1044 0182 F5D0     		beq	.L68
1017:lvgl/src/draw/sw/lv_draw_sw_rect.c ****             else  sh_buf[i] = (sh_buf[i] << SHADOW_UPSCALE_SHIFT) / sw;
 1045              		.loc 1 1017 18 is_stmt 1 view .LVU385
1017:lvgl/src/draw/sw/lv_draw_sw_rect.c ****             else  sh_buf[i] = (sh_buf[i] << SHADOW_UPSCALE_SHIFT) / sw;
 1046              		.loc 1 1017 20 is_stmt 0 view .LVU386
 1047 0184 FF2A     		cmp	r2, #255
 1048 0186 F1D0     		beq	.L82
1018:lvgl/src/draw/sw/lv_draw_sw_rect.c ****         }
 1049              		.loc 1 1018 19 is_stmt 1 view .LVU387
1018:lvgl/src/draw/sw/lv_draw_sw_rect.c ****         }
 1050              		.loc 1 1018 42 is_stmt 0 view .LVU388
 1051 0188 9201     		lsls	r2, r2, #6
1018:lvgl/src/draw/sw/lv_draw_sw_rect.c ****         }
 1052              		.loc 1 1018 67 view .LVU389
 1053 018a 92FBF1F2 		sdiv	r2, r2, r1
1018:lvgl/src/draw/sw/lv_draw_sw_rect.c ****         }
 1054              		.loc 1 1018 29 view .LVU390
 1055 018e 28F80020 		strh	r2, [r8, r0]	@ movhi
 1056 0192 EDE7     		b	.L68
 1057              	.L81:
1021:lvgl/src/draw/sw/lv_draw_sw_rect.c ****     }
 1058              		.loc 1 1021 9 is_stmt 1 view .LVU391
 1059 0194 4246     		mov	r2, r8
 1060 0196 2846     		mov	r0, r5
 1061 0198 FFF7FEFF 		bl	shadow_blur_corner
 1062              	.LVL110:
 1063              	.L66:
ARM GAS  C:\Users\OSD\AppData\Local\Temp\ccS6lZqb.s 			page 52


1015:lvgl/src/draw/sw/lv_draw_sw_rect.c ****             if(sh_buf[i] == 0) continue;
 1064              		.loc 1 1015 15 is_stmt 0 discriminator 1 view .LVU392
 1065 019c 0023     		movs	r3, #0
 1066 019e 04E0     		b	.L71
 1067              	.LVL111:
 1068              	.L72:
1015:lvgl/src/draw/sw/lv_draw_sw_rect.c ****             if(sh_buf[i] == 0) continue;
 1069              		.loc 1 1015 15 discriminator 1 view .LVU393
 1070              	.LBE131:
1026:lvgl/src/draw/sw/lv_draw_sw_rect.c ****     }
 1071              		.loc 1 1026 9 is_stmt 1 discriminator 3 view .LVU394
1026:lvgl/src/draw/sw/lv_draw_sw_rect.c ****     }
 1072              		.loc 1 1026 28 is_stmt 0 discriminator 3 view .LVU395
 1073 01a0 38F81320 		ldrh	r2, [r8, r3, lsl #1]
1026:lvgl/src/draw/sw/lv_draw_sw_rect.c ****     }
 1074              		.loc 1 1026 20 discriminator 3 view .LVU396
 1075 01a4 08F80320 		strb	r2, [r8, r3]
1025:lvgl/src/draw/sw/lv_draw_sw_rect.c ****         res_buf[x] = sh_buf[x];
 1076              		.loc 1 1025 33 is_stmt 1 discriminator 3 view .LVU397
1025:lvgl/src/draw/sw/lv_draw_sw_rect.c ****         res_buf[x] = sh_buf[x];
 1077              		.loc 1 1025 34 is_stmt 0 discriminator 3 view .LVU398
 1078 01a8 0133     		adds	r3, r3, #1
 1079              	.LVL112:
 1080              	.L71:
1025:lvgl/src/draw/sw/lv_draw_sw_rect.c ****         res_buf[x] = sh_buf[x];
 1081              		.loc 1 1025 16 is_stmt 1 discriminator 1 view .LVU399
1025:lvgl/src/draw/sw/lv_draw_sw_rect.c ****         res_buf[x] = sh_buf[x];
 1082              		.loc 1 1025 25 is_stmt 0 discriminator 1 view .LVU400
 1083 01aa 04FB04F2 		mul	r2, r4, r4
1025:lvgl/src/draw/sw/lv_draw_sw_rect.c ****         res_buf[x] = sh_buf[x];
 1084              		.loc 1 1025 5 discriminator 1 view .LVU401
 1085 01ae 9A42     		cmp	r2, r3
 1086 01b0 F6DC     		bgt	.L72
 1087              	.LVL113:
 1088              	.L51:
1030:lvgl/src/draw/sw/lv_draw_sw_rect.c **** 
 1089              		.loc 1 1030 1 view .LVU402
 1090 01b2 0BB0     		add	sp, sp, #44
 1091              		.cfi_def_cfa_offset 36
 1092              		@ sp needed
 1093 01b4 BDE8F08F 		pop	{r4, r5, r6, r7, r8, r9, r10, fp, pc}
1030:lvgl/src/draw/sw/lv_draw_sw_rect.c **** 
 1094              		.loc 1 1030 1 view .LVU403
 1095              		.cfi_endproc
 1096              	.LFE167:
 1098              		.section	.text.draw_shadow,"ax",%progbits
 1099              		.align	1
 1100              		.syntax unified
 1101              		.thumb
 1102              		.thumb_func
 1104              	draw_shadow:
 1105              	.LVL114:
 1106              	.LFB166:
 429:lvgl/src/draw/sw/lv_draw_sw_rect.c ****     /*Check whether the shadow is visible*/
 1107              		.loc 1 429 1 is_stmt 1 view -0
 1108              		.cfi_startproc
 1109              		@ args = 0, pretend = 0, frame = 152
ARM GAS  C:\Users\OSD\AppData\Local\Temp\ccS6lZqb.s 			page 53


 1110              		@ frame_needed = 0, uses_anonymous_args = 0
 429:lvgl/src/draw/sw/lv_draw_sw_rect.c ****     /*Check whether the shadow is visible*/
 1111              		.loc 1 429 1 is_stmt 0 view .LVU405
 1112 0000 2DE9F04F 		push	{r4, r5, r6, r7, r8, r9, r10, fp, lr}
 1113              		.cfi_def_cfa_offset 36
 1114              		.cfi_offset 4, -36
 1115              		.cfi_offset 5, -32
 1116              		.cfi_offset 6, -28
 1117              		.cfi_offset 7, -24
 1118              		.cfi_offset 8, -20
 1119              		.cfi_offset 9, -16
 1120              		.cfi_offset 10, -12
 1121              		.cfi_offset 11, -8
 1122              		.cfi_offset 14, -4
 1123 0004 A7B0     		sub	sp, sp, #156
 1124              		.cfi_def_cfa_offset 192
 1125 0006 1446     		mov	r4, r2
 431:lvgl/src/draw/sw/lv_draw_sw_rect.c ****     if(dsc->shadow_opa <= LV_OPA_MIN) return;
 1126              		.loc 1 431 5 is_stmt 1 view .LVU406
 431:lvgl/src/draw/sw/lv_draw_sw_rect.c ****     if(dsc->shadow_opa <= LV_OPA_MIN) return;
 1127              		.loc 1 431 11 is_stmt 0 view .LVU407
 1128 0008 B1F94420 		ldrsh	r2, [r1, #68]
 1129              	.LVL115:
 431:lvgl/src/draw/sw/lv_draw_sw_rect.c ****     if(dsc->shadow_opa <= LV_OPA_MIN) return;
 1130              		.loc 1 431 7 view .LVU408
 1131 000c 002A     		cmp	r2, #0
 1132 000e 51D0     		beq	.L83
 1133 0010 0646     		mov	r6, r0
 1134 0012 0D46     		mov	r5, r1
 432:lvgl/src/draw/sw/lv_draw_sw_rect.c **** 
 1135              		.loc 1 432 5 is_stmt 1 view .LVU409
 432:lvgl/src/draw/sw/lv_draw_sw_rect.c **** 
 1136              		.loc 1 432 11 is_stmt 0 view .LVU410
 1137 0014 91F84C90 		ldrb	r9, [r1, #76]	@ zero_extendqisi2
 432:lvgl/src/draw/sw/lv_draw_sw_rect.c **** 
 1138              		.loc 1 432 7 view .LVU411
 1139 0018 B9F1020F 		cmp	r9, #2
 1140 001c 4AD9     		bls	.L83
 434:lvgl/src/draw/sw/lv_draw_sw_rect.c ****        dsc->shadow_ofs_x == 0 && dsc->shadow_ofs_y == 0) {
 1141              		.loc 1 434 5 is_stmt 1 view .LVU412
 434:lvgl/src/draw/sw/lv_draw_sw_rect.c ****        dsc->shadow_ofs_x == 0 && dsc->shadow_ofs_y == 0) {
 1142              		.loc 1 434 7 is_stmt 0 view .LVU413
 1143 001e 012A     		cmp	r2, #1
 1144 0020 4BD0     		beq	.L184
 1145              	.L85:
 440:lvgl/src/draw/sw/lv_draw_sw_rect.c ****     core_area.x1 = coords->x1  + dsc->shadow_ofs_x - dsc->shadow_spread;
 1146              		.loc 1 440 5 is_stmt 1 view .LVU414
 441:lvgl/src/draw/sw/lv_draw_sw_rect.c ****     core_area.x2 = coords->x2  + dsc->shadow_ofs_x + dsc->shadow_spread;
 1147              		.loc 1 441 5 view .LVU415
 441:lvgl/src/draw/sw/lv_draw_sw_rect.c ****     core_area.x2 = coords->x2  + dsc->shadow_ofs_x + dsc->shadow_spread;
 1148              		.loc 1 441 26 is_stmt 0 view .LVU416
 1149 0022 2388     		ldrh	r3, [r4]
 441:lvgl/src/draw/sw/lv_draw_sw_rect.c ****     core_area.x2 = coords->x2  + dsc->shadow_ofs_x + dsc->shadow_spread;
 1150              		.loc 1 441 37 view .LVU417
 1151 0024 B5F84610 		ldrh	r1, [r5, #70]
 1152              	.LVL116:
 441:lvgl/src/draw/sw/lv_draw_sw_rect.c ****     core_area.x2 = coords->x2  + dsc->shadow_ofs_x + dsc->shadow_spread;
ARM GAS  C:\Users\OSD\AppData\Local\Temp\ccS6lZqb.s 			page 54


 1153              		.loc 1 441 32 view .LVU418
 1154 0028 0B44     		add	r3, r3, r1
 1155 002a 9BB2     		uxth	r3, r3
 441:lvgl/src/draw/sw/lv_draw_sw_rect.c ****     core_area.x2 = coords->x2  + dsc->shadow_ofs_x + dsc->shadow_spread;
 1156              		.loc 1 441 57 view .LVU419
 1157 002c B5F84A70 		ldrh	r7, [r5, #74]
 441:lvgl/src/draw/sw/lv_draw_sw_rect.c ****     core_area.x2 = coords->x2  + dsc->shadow_ofs_x + dsc->shadow_spread;
 1158              		.loc 1 441 52 view .LVU420
 1159 0030 DB1B     		subs	r3, r3, r7
 1160 0032 98B2     		uxth	r0, r3
 1161              	.LVL117:
 441:lvgl/src/draw/sw/lv_draw_sw_rect.c ****     core_area.x2 = coords->x2  + dsc->shadow_ofs_x + dsc->shadow_spread;
 1162              		.loc 1 441 18 view .LVU421
 1163 0034 ADF89030 		strh	r3, [sp, #144]	@ movhi
 442:lvgl/src/draw/sw/lv_draw_sw_rect.c ****     core_area.y1 = coords->y1  + dsc->shadow_ofs_y - dsc->shadow_spread;
 1164              		.loc 1 442 5 is_stmt 1 view .LVU422
 442:lvgl/src/draw/sw/lv_draw_sw_rect.c ****     core_area.y1 = coords->y1  + dsc->shadow_ofs_y - dsc->shadow_spread;
 1165              		.loc 1 442 26 is_stmt 0 view .LVU423
 1166 0038 A388     		ldrh	r3, [r4, #4]
 442:lvgl/src/draw/sw/lv_draw_sw_rect.c ****     core_area.y1 = coords->y1  + dsc->shadow_ofs_y - dsc->shadow_spread;
 1167              		.loc 1 442 32 view .LVU424
 1168 003a 0B44     		add	r3, r3, r1
 442:lvgl/src/draw/sw/lv_draw_sw_rect.c ****     core_area.y1 = coords->y1  + dsc->shadow_ofs_y - dsc->shadow_spread;
 1169              		.loc 1 442 52 view .LVU425
 1170 003c 17FA83F3 		uxtah	r3, r7, r3
 1171 0040 1FFA83FC 		uxth	ip, r3
 442:lvgl/src/draw/sw/lv_draw_sw_rect.c ****     core_area.y1 = coords->y1  + dsc->shadow_ofs_y - dsc->shadow_spread;
 1172              		.loc 1 442 18 view .LVU426
 1173 0044 ADF89430 		strh	r3, [sp, #148]	@ movhi
 443:lvgl/src/draw/sw/lv_draw_sw_rect.c ****     core_area.y2 = coords->y2  + dsc->shadow_ofs_y + dsc->shadow_spread;
 1174              		.loc 1 443 5 is_stmt 1 view .LVU427
 443:lvgl/src/draw/sw/lv_draw_sw_rect.c ****     core_area.y2 = coords->y2  + dsc->shadow_ofs_y + dsc->shadow_spread;
 1175              		.loc 1 443 26 is_stmt 0 view .LVU428
 1176 0048 6388     		ldrh	r3, [r4, #2]
 443:lvgl/src/draw/sw/lv_draw_sw_rect.c ****     core_area.y2 = coords->y2  + dsc->shadow_ofs_y + dsc->shadow_spread;
 1177              		.loc 1 443 37 view .LVU429
 1178 004a B5F848E0 		ldrh	lr, [r5, #72]
 443:lvgl/src/draw/sw/lv_draw_sw_rect.c ****     core_area.y2 = coords->y2  + dsc->shadow_ofs_y + dsc->shadow_spread;
 1179              		.loc 1 443 32 view .LVU430
 1180 004e 7344     		add	r3, r3, lr
 1181 0050 9BB2     		uxth	r3, r3
 443:lvgl/src/draw/sw/lv_draw_sw_rect.c ****     core_area.y2 = coords->y2  + dsc->shadow_ofs_y + dsc->shadow_spread;
 1182              		.loc 1 443 52 view .LVU431
 1183 0052 DB1B     		subs	r3, r3, r7
 1184 0054 99B2     		uxth	r1, r3
 443:lvgl/src/draw/sw/lv_draw_sw_rect.c ****     core_area.y2 = coords->y2  + dsc->shadow_ofs_y + dsc->shadow_spread;
 1185              		.loc 1 443 18 view .LVU432
 1186 0056 ADF89230 		strh	r3, [sp, #146]	@ movhi
 444:lvgl/src/draw/sw/lv_draw_sw_rect.c **** 
 1187              		.loc 1 444 5 is_stmt 1 view .LVU433
 444:lvgl/src/draw/sw/lv_draw_sw_rect.c **** 
 1188              		.loc 1 444 26 is_stmt 0 view .LVU434
 1189 005a E388     		ldrh	r3, [r4, #6]
 444:lvgl/src/draw/sw/lv_draw_sw_rect.c **** 
 1190              		.loc 1 444 32 view .LVU435
 1191 005c 9E44     		add	lr, lr, r3
 444:lvgl/src/draw/sw/lv_draw_sw_rect.c **** 
ARM GAS  C:\Users\OSD\AppData\Local\Temp\ccS6lZqb.s 			page 55


 1192              		.loc 1 444 52 view .LVU436
 1193 005e 17FA8EF7 		uxtah	r7, r7, lr
 1194 0062 BBB2     		uxth	r3, r7
 444:lvgl/src/draw/sw/lv_draw_sw_rect.c **** 
 1195              		.loc 1 444 18 view .LVU437
 1196 0064 ADF89670 		strh	r7, [sp, #150]	@ movhi
 447:lvgl/src/draw/sw/lv_draw_sw_rect.c ****     shadow_area.x1 = core_area.x1 - dsc->shadow_width / 2 - 1;
 1197              		.loc 1 447 5 is_stmt 1 view .LVU438
 448:lvgl/src/draw/sw/lv_draw_sw_rect.c ****     shadow_area.x2 = core_area.x2 + dsc->shadow_width / 2 + 1;
 1198              		.loc 1 448 5 view .LVU439
 448:lvgl/src/draw/sw/lv_draw_sw_rect.c ****     shadow_area.x2 = core_area.x2 + dsc->shadow_width / 2 + 1;
 1199              		.loc 1 448 35 is_stmt 0 view .LVU440
 1200 0068 1746     		mov	r7, r2
 1201 006a 002A     		cmp	r2, #0
 1202 006c 32DB     		blt	.L185
 1203              	.L86:
 1204 006e C7F34F07 		ubfx	r7, r7, #1, #16
 1205 0072 C21B     		subs	r2, r0, r7
 1206 0074 92B2     		uxth	r2, r2
 448:lvgl/src/draw/sw/lv_draw_sw_rect.c ****     shadow_area.x2 = core_area.x2 + dsc->shadow_width / 2 + 1;
 1207              		.loc 1 448 59 view .LVU441
 1208 0076 013A     		subs	r2, r2, #1
 448:lvgl/src/draw/sw/lv_draw_sw_rect.c ****     shadow_area.x2 = core_area.x2 + dsc->shadow_width / 2 + 1;
 1209              		.loc 1 448 20 view .LVU442
 1210 0078 ADF88820 		strh	r2, [sp, #136]	@ movhi
 449:lvgl/src/draw/sw/lv_draw_sw_rect.c ****     shadow_area.y1 = core_area.y1 - dsc->shadow_width / 2 - 1;
 1211              		.loc 1 449 5 is_stmt 1 view .LVU443
 449:lvgl/src/draw/sw/lv_draw_sw_rect.c ****     shadow_area.y1 = core_area.y1 - dsc->shadow_width / 2 - 1;
 1212              		.loc 1 449 35 is_stmt 0 view .LVU444
 1213 007c 0CEB0702 		add	r2, ip, r7
 1214 0080 92B2     		uxth	r2, r2
 449:lvgl/src/draw/sw/lv_draw_sw_rect.c ****     shadow_area.y1 = core_area.y1 - dsc->shadow_width / 2 - 1;
 1215              		.loc 1 449 59 view .LVU445
 1216 0082 0132     		adds	r2, r2, #1
 449:lvgl/src/draw/sw/lv_draw_sw_rect.c ****     shadow_area.y1 = core_area.y1 - dsc->shadow_width / 2 - 1;
 1217              		.loc 1 449 20 view .LVU446
 1218 0084 ADF88C20 		strh	r2, [sp, #140]	@ movhi
 450:lvgl/src/draw/sw/lv_draw_sw_rect.c ****     shadow_area.y2 = core_area.y2 + dsc->shadow_width / 2 + 1;
 1219              		.loc 1 450 5 is_stmt 1 view .LVU447
 450:lvgl/src/draw/sw/lv_draw_sw_rect.c ****     shadow_area.y2 = core_area.y2 + dsc->shadow_width / 2 + 1;
 1220              		.loc 1 450 35 is_stmt 0 view .LVU448
 1221 0088 CA1B     		subs	r2, r1, r7
 1222 008a 92B2     		uxth	r2, r2
 450:lvgl/src/draw/sw/lv_draw_sw_rect.c ****     shadow_area.y2 = core_area.y2 + dsc->shadow_width / 2 + 1;
 1223              		.loc 1 450 59 view .LVU449
 1224 008c 013A     		subs	r2, r2, #1
 450:lvgl/src/draw/sw/lv_draw_sw_rect.c ****     shadow_area.y2 = core_area.y2 + dsc->shadow_width / 2 + 1;
 1225              		.loc 1 450 20 view .LVU450
 1226 008e ADF88A20 		strh	r2, [sp, #138]	@ movhi
 451:lvgl/src/draw/sw/lv_draw_sw_rect.c **** 
 1227              		.loc 1 451 5 is_stmt 1 view .LVU451
 451:lvgl/src/draw/sw/lv_draw_sw_rect.c **** 
 1228              		.loc 1 451 35 is_stmt 0 view .LVU452
 1229 0092 3B44     		add	r3, r3, r7
 1230 0094 9BB2     		uxth	r3, r3
 451:lvgl/src/draw/sw/lv_draw_sw_rect.c **** 
 1231              		.loc 1 451 59 view .LVU453
ARM GAS  C:\Users\OSD\AppData\Local\Temp\ccS6lZqb.s 			page 56


 1232 0096 0133     		adds	r3, r3, #1
 451:lvgl/src/draw/sw/lv_draw_sw_rect.c **** 
 1233              		.loc 1 451 20 view .LVU454
 1234 0098 ADF88E30 		strh	r3, [sp, #142]	@ movhi
 453:lvgl/src/draw/sw/lv_draw_sw_rect.c ****     if(opa > LV_OPA_MAX) opa = LV_OPA_COVER;
 1235              		.loc 1 453 5 is_stmt 1 view .LVU455
 1236              	.LVL118:
 454:lvgl/src/draw/sw/lv_draw_sw_rect.c **** 
 1237              		.loc 1 454 5 view .LVU456
 454:lvgl/src/draw/sw/lv_draw_sw_rect.c **** 
 1238              		.loc 1 454 7 is_stmt 0 view .LVU457
 1239 009c B9F1FD0F 		cmp	r9, #253
 1240 00a0 01D9     		bls	.L87
 454:lvgl/src/draw/sw/lv_draw_sw_rect.c **** 
 1241              		.loc 1 454 30 view .LVU458
 1242 00a2 4FF0FF09 		mov	r9, #255
 1243              	.LVL119:
 1244              	.L87:
 458:lvgl/src/draw/sw/lv_draw_sw_rect.c ****     if(!_lv_area_intersect(&draw_area, &shadow_area, draw_ctx->clip_area)) return;
 1245              		.loc 1 458 5 is_stmt 1 view .LVU459
 459:lvgl/src/draw/sw/lv_draw_sw_rect.c **** 
 1246              		.loc 1 459 5 view .LVU460
 459:lvgl/src/draw/sw/lv_draw_sw_rect.c **** 
 1247              		.loc 1 459 9 is_stmt 0 view .LVU461
 1248 00a6 B268     		ldr	r2, [r6, #8]
 1249 00a8 22A9     		add	r1, sp, #136
 1250 00aa 20A8     		add	r0, sp, #128
 1251 00ac FFF7FEFF 		bl	_lv_area_intersect
 1252              	.LVL120:
 459:lvgl/src/draw/sw/lv_draw_sw_rect.c **** 
 1253              		.loc 1 459 7 view .LVU462
 1254 00b0 0090     		str	r0, [sp]
 1255 00b2 88B9     		cbnz	r0, .L186
 1256              	.LVL121:
 1257              	.L83:
 936:lvgl/src/draw/sw/lv_draw_sw_rect.c **** 
 1258              		.loc 1 936 1 view .LVU463
 1259 00b4 27B0     		add	sp, sp, #156
 1260              		.cfi_remember_state
 1261              		.cfi_def_cfa_offset 36
 1262              		@ sp needed
 1263 00b6 BDE8F08F 		pop	{r4, r5, r6, r7, r8, r9, r10, fp, pc}
 1264              	.LVL122:
 1265              	.L184:
 1266              		.cfi_restore_state
 434:lvgl/src/draw/sw/lv_draw_sw_rect.c ****        dsc->shadow_ofs_x == 0 && dsc->shadow_ofs_y == 0) {
 1267              		.loc 1 434 37 discriminator 1 view .LVU464
 1268 00ba B1F94A30 		ldrsh	r3, [r1, #74]
 434:lvgl/src/draw/sw/lv_draw_sw_rect.c ****        dsc->shadow_ofs_x == 0 && dsc->shadow_ofs_y == 0) {
 1269              		.loc 1 434 31 discriminator 1 view .LVU465
 1270 00be 002B     		cmp	r3, #0
 1271 00c0 AFDC     		bgt	.L85
 435:lvgl/src/draw/sw/lv_draw_sw_rect.c ****         return;
 1272              		.loc 1 435 11 discriminator 2 view .LVU466
 1273 00c2 B1F94630 		ldrsh	r3, [r1, #70]
 434:lvgl/src/draw/sw/lv_draw_sw_rect.c ****        dsc->shadow_ofs_x == 0 && dsc->shadow_ofs_y == 0) {
 1274              		.loc 1 434 58 discriminator 2 view .LVU467
ARM GAS  C:\Users\OSD\AppData\Local\Temp\ccS6lZqb.s 			page 57


 1275 00c6 002B     		cmp	r3, #0
 1276 00c8 ABD1     		bne	.L85
 435:lvgl/src/draw/sw/lv_draw_sw_rect.c ****         return;
 1277              		.loc 1 435 37 view .LVU468
 1278 00ca B1F94830 		ldrsh	r3, [r1, #72]
 435:lvgl/src/draw/sw/lv_draw_sw_rect.c ****         return;
 1279              		.loc 1 435 31 view .LVU469
 1280 00ce 002B     		cmp	r3, #0
 1281 00d0 A7D1     		bne	.L85
 1282 00d2 EFE7     		b	.L83
 1283              	.LVL123:
 1284              	.L185:
 448:lvgl/src/draw/sw/lv_draw_sw_rect.c ****     shadow_area.x2 = core_area.x2 + dsc->shadow_width / 2 + 1;
 1285              		.loc 1 448 35 view .LVU470
 1286 00d4 571C     		adds	r7, r2, #1
 1287 00d6 CAE7     		b	.L86
 1288              	.LVL124:
 1289              	.L186:
 462:lvgl/src/draw/sw/lv_draw_sw_rect.c ****     lv_area_copy(&bg_area, coords);
 1290              		.loc 1 462 5 is_stmt 1 view .LVU471
 463:lvgl/src/draw/sw/lv_draw_sw_rect.c ****     lv_area_increase(&bg_area, -1, -1);
 1291              		.loc 1 463 5 view .LVU472
 1292              	.LBB132:
 1293              	.LBI132:
 110:lvgl/src/draw/sw/../../misc/lv_area.h **** {
 1294              		.loc 2 110 20 view .LVU473
 1295              	.LBB133:
 112:lvgl/src/draw/sw/../../misc/lv_area.h ****     dest->y1 = src->y1;
 1296              		.loc 2 112 5 view .LVU474
 112:lvgl/src/draw/sw/../../misc/lv_area.h ****     dest->y1 = src->y1;
 1297              		.loc 2 112 19 is_stmt 0 view .LVU475
 1298 00d8 B4F90030 		ldrsh	r3, [r4]
 112:lvgl/src/draw/sw/../../misc/lv_area.h ****     dest->y1 = src->y1;
 1299              		.loc 2 112 14 view .LVU476
 1300 00dc ADF87830 		strh	r3, [sp, #120]	@ movhi
 113:lvgl/src/draw/sw/../../misc/lv_area.h ****     dest->x2 = src->x2;
 1301              		.loc 2 113 5 is_stmt 1 view .LVU477
 113:lvgl/src/draw/sw/../../misc/lv_area.h ****     dest->x2 = src->x2;
 1302              		.loc 2 113 19 is_stmt 0 view .LVU478
 1303 00e0 B4F90230 		ldrsh	r3, [r4, #2]
 113:lvgl/src/draw/sw/../../misc/lv_area.h ****     dest->x2 = src->x2;
 1304              		.loc 2 113 14 view .LVU479
 1305 00e4 ADF87A30 		strh	r3, [sp, #122]	@ movhi
 114:lvgl/src/draw/sw/../../misc/lv_area.h ****     dest->y2 = src->y2;
 1306              		.loc 2 114 5 is_stmt 1 view .LVU480
 114:lvgl/src/draw/sw/../../misc/lv_area.h ****     dest->y2 = src->y2;
 1307              		.loc 2 114 19 is_stmt 0 view .LVU481
 1308 00e8 B4F90430 		ldrsh	r3, [r4, #4]
 114:lvgl/src/draw/sw/../../misc/lv_area.h ****     dest->y2 = src->y2;
 1309              		.loc 2 114 14 view .LVU482
 1310 00ec ADF87C30 		strh	r3, [sp, #124]	@ movhi
 115:lvgl/src/draw/sw/../../misc/lv_area.h **** }
 1311              		.loc 2 115 5 is_stmt 1 view .LVU483
 115:lvgl/src/draw/sw/../../misc/lv_area.h **** }
 1312              		.loc 2 115 19 is_stmt 0 view .LVU484
 1313 00f0 B4F90630 		ldrsh	r3, [r4, #6]
 115:lvgl/src/draw/sw/../../misc/lv_area.h **** }
ARM GAS  C:\Users\OSD\AppData\Local\Temp\ccS6lZqb.s 			page 58


 1314              		.loc 2 115 14 view .LVU485
 1315 00f4 ADF87E30 		strh	r3, [sp, #126]	@ movhi
 1316              	.LVL125:
 115:lvgl/src/draw/sw/../../misc/lv_area.h **** }
 1317              		.loc 2 115 14 view .LVU486
 1318              	.LBE133:
 1319              	.LBE132:
 464:lvgl/src/draw/sw/lv_draw_sw_rect.c **** 
 1320              		.loc 1 464 5 is_stmt 1 view .LVU487
 1321 00f8 4FF0FF32 		mov	r2, #-1
 1322 00fc 1146     		mov	r1, r2
 1323 00fe 1EA8     		add	r0, sp, #120
 1324 0100 FFF7FEFF 		bl	lv_area_increase
 1325              	.LVL126:
 467:lvgl/src/draw/sw/lv_draw_sw_rect.c ****     lv_coord_t short_side = LV_MIN(lv_area_get_width(&bg_area), lv_area_get_height(&bg_area));
 1326              		.loc 1 467 5 view .LVU488
 467:lvgl/src/draw/sw/lv_draw_sw_rect.c ****     lv_coord_t short_side = LV_MIN(lv_area_get_width(&bg_area), lv_area_get_height(&bg_area));
 1327              		.loc 1 467 23 is_stmt 0 view .LVU489
 1328 0104 B5F90020 		ldrsh	r2, [r5]
 1329              	.LVL127:
 468:lvgl/src/draw/sw/lv_draw_sw_rect.c ****     if(r_bg > short_side >> 1) r_bg = short_side >> 1;
 1330              		.loc 1 468 5 is_stmt 1 view .LVU490
 1331              	.LBB134:
 1332              	.LBI134:
 123:lvgl/src/draw/sw/../../misc/lv_area.h **** {
 1333              		.loc 2 123 26 view .LVU491
 1334              	.LBB135:
 125:lvgl/src/draw/sw/../../misc/lv_area.h **** }
 1335              		.loc 2 125 5 view .LVU492
 125:lvgl/src/draw/sw/../../misc/lv_area.h **** }
 1336              		.loc 2 125 31 is_stmt 0 view .LVU493
 1337 0108 BDF87C10 		ldrh	r1, [sp, #124]
 125:lvgl/src/draw/sw/../../misc/lv_area.h **** }
 1338              		.loc 2 125 44 view .LVU494
 1339 010c BDF87830 		ldrh	r3, [sp, #120]
 125:lvgl/src/draw/sw/../../misc/lv_area.h **** }
 1340              		.loc 2 125 36 view .LVU495
 1341 0110 C91A     		subs	r1, r1, r3
 1342 0112 89B2     		uxth	r1, r1
 125:lvgl/src/draw/sw/../../misc/lv_area.h **** }
 1343              		.loc 2 125 49 view .LVU496
 1344 0114 0131     		adds	r1, r1, #1
 125:lvgl/src/draw/sw/../../misc/lv_area.h **** }
 1345              		.loc 2 125 12 view .LVU497
 1346 0116 09B2     		sxth	r1, r1
 1347              	.LVL128:
 125:lvgl/src/draw/sw/../../misc/lv_area.h **** }
 1348              		.loc 2 125 12 view .LVU498
 1349              	.LBE135:
 1350              	.LBE134:
 1351              	.LBB136:
 1352              	.LBI136:
 133:lvgl/src/draw/sw/../../misc/lv_area.h **** {
 1353              		.loc 2 133 26 is_stmt 1 view .LVU499
 1354              	.LBB137:
 1355              		.loc 2 135 5 view .LVU500
 1356              		.loc 2 135 31 is_stmt 0 view .LVU501
ARM GAS  C:\Users\OSD\AppData\Local\Temp\ccS6lZqb.s 			page 59


 1357 0118 BDF87E30 		ldrh	r3, [sp, #126]
 1358              		.loc 2 135 44 view .LVU502
 1359 011c BDF87A00 		ldrh	r0, [sp, #122]
 1360              		.loc 2 135 36 view .LVU503
 1361 0120 1B1A     		subs	r3, r3, r0
 1362 0122 9BB2     		uxth	r3, r3
 1363              		.loc 2 135 49 view .LVU504
 1364 0124 0133     		adds	r3, r3, #1
 1365              		.loc 2 135 12 view .LVU505
 1366 0126 1BB2     		sxth	r3, r3
 1367              	.LVL129:
 1368              		.loc 2 135 12 view .LVU506
 1369              	.LBE137:
 1370              	.LBE136:
 468:lvgl/src/draw/sw/lv_draw_sw_rect.c ****     if(r_bg > short_side >> 1) r_bg = short_side >> 1;
 1371              		.loc 1 468 16 view .LVU507
 1372 0128 9942     		cmp	r1, r3
 1373 012a 00DA     		bge	.L88
 468:lvgl/src/draw/sw/lv_draw_sw_rect.c ****     if(r_bg > short_side >> 1) r_bg = short_side >> 1;
 1374              		.loc 1 468 29 view .LVU508
 1375 012c 0B46     		mov	r3, r1
 1376              	.L88:
 1377              	.LVL130:
 469:lvgl/src/draw/sw/lv_draw_sw_rect.c **** 
 1378              		.loc 1 469 5 is_stmt 1 discriminator 4 view .LVU509
 469:lvgl/src/draw/sw/lv_draw_sw_rect.c **** 
 1379              		.loc 1 469 26 is_stmt 0 discriminator 4 view .LVU510
 1380 012e 5910     		asrs	r1, r3, #1
 1381 0130 0191     		str	r1, [sp, #4]
 469:lvgl/src/draw/sw/lv_draw_sw_rect.c **** 
 1382              		.loc 1 469 7 discriminator 4 view .LVU511
 1383 0132 B2EB630F 		cmp	r2, r3, asr #1
 1384 0136 00DC     		bgt	.L89
 467:lvgl/src/draw/sw/lv_draw_sw_rect.c ****     lv_coord_t short_side = LV_MIN(lv_area_get_width(&bg_area), lv_area_get_height(&bg_area));
 1385              		.loc 1 467 13 view .LVU512
 1386 0138 0192     		str	r2, [sp, #4]
 1387              	.L89:
 1388              	.LVL131:
 472:lvgl/src/draw/sw/lv_draw_sw_rect.c ****     short_side = LV_MIN(lv_area_get_width(&core_area), lv_area_get_height(&core_area));
 1389              		.loc 1 472 5 is_stmt 1 view .LVU513
 473:lvgl/src/draw/sw/lv_draw_sw_rect.c ****     if(r_sh > short_side >> 1) r_sh = short_side >> 1;
 1390              		.loc 1 473 5 view .LVU514
 1391              	.LBB138:
 1392              	.LBI138:
 123:lvgl/src/draw/sw/../../misc/lv_area.h **** {
 1393              		.loc 2 123 26 view .LVU515
 1394              	.LBB139:
 125:lvgl/src/draw/sw/../../misc/lv_area.h **** }
 1395              		.loc 2 125 5 view .LVU516
 125:lvgl/src/draw/sw/../../misc/lv_area.h **** }
 1396              		.loc 2 125 31 is_stmt 0 view .LVU517
 1397 013a BDF89410 		ldrh	r1, [sp, #148]
 125:lvgl/src/draw/sw/../../misc/lv_area.h **** }
 1398              		.loc 2 125 44 view .LVU518
 1399 013e BDF89030 		ldrh	r3, [sp, #144]
 1400              	.LVL132:
 125:lvgl/src/draw/sw/../../misc/lv_area.h **** }
ARM GAS  C:\Users\OSD\AppData\Local\Temp\ccS6lZqb.s 			page 60


 1401              		.loc 2 125 36 view .LVU519
 1402 0142 C91A     		subs	r1, r1, r3
 1403 0144 89B2     		uxth	r1, r1
 125:lvgl/src/draw/sw/../../misc/lv_area.h **** }
 1404              		.loc 2 125 49 view .LVU520
 1405 0146 0131     		adds	r1, r1, #1
 125:lvgl/src/draw/sw/../../misc/lv_area.h **** }
 1406              		.loc 2 125 12 view .LVU521
 1407 0148 09B2     		sxth	r1, r1
 1408              	.LVL133:
 125:lvgl/src/draw/sw/../../misc/lv_area.h **** }
 1409              		.loc 2 125 12 view .LVU522
 1410              	.LBE139:
 1411              	.LBE138:
 1412              	.LBB140:
 1413              	.LBI140:
 133:lvgl/src/draw/sw/../../misc/lv_area.h **** {
 1414              		.loc 2 133 26 is_stmt 1 view .LVU523
 1415              	.LBB141:
 1416              		.loc 2 135 5 view .LVU524
 1417              		.loc 2 135 31 is_stmt 0 view .LVU525
 1418 014a BDF89630 		ldrh	r3, [sp, #150]
 1419              		.loc 2 135 44 view .LVU526
 1420 014e BDF89200 		ldrh	r0, [sp, #146]
 1421              		.loc 2 135 36 view .LVU527
 1422 0152 1B1A     		subs	r3, r3, r0
 1423 0154 9BB2     		uxth	r3, r3
 1424              		.loc 2 135 49 view .LVU528
 1425 0156 0133     		adds	r3, r3, #1
 1426              		.loc 2 135 12 view .LVU529
 1427 0158 1BB2     		sxth	r3, r3
 1428              	.LVL134:
 1429              		.loc 2 135 12 view .LVU530
 1430              	.LBE141:
 1431              	.LBE140:
 473:lvgl/src/draw/sw/lv_draw_sw_rect.c ****     if(r_sh > short_side >> 1) r_sh = short_side >> 1;
 1432              		.loc 1 473 16 view .LVU531
 1433 015a 8B42     		cmp	r3, r1
 1434 015c 00DD     		ble	.L90
 473:lvgl/src/draw/sw/lv_draw_sw_rect.c ****     if(r_sh > short_side >> 1) r_sh = short_side >> 1;
 1435              		.loc 1 473 18 view .LVU532
 1436 015e 0B46     		mov	r3, r1
 1437              	.L90:
 1438              	.LVL135:
 474:lvgl/src/draw/sw/lv_draw_sw_rect.c **** 
 1439              		.loc 1 474 5 is_stmt 1 discriminator 4 view .LVU533
 474:lvgl/src/draw/sw/lv_draw_sw_rect.c **** 
 1440              		.loc 1 474 26 is_stmt 0 discriminator 4 view .LVU534
 1441 0160 5F10     		asrs	r7, r3, #1
 474:lvgl/src/draw/sw/lv_draw_sw_rect.c **** 
 1442              		.loc 1 474 7 discriminator 4 view .LVU535
 1443 0162 B2EB630F 		cmp	r2, r3, asr #1
 1444 0166 00DC     		bgt	.L91
 472:lvgl/src/draw/sw/lv_draw_sw_rect.c ****     short_side = LV_MIN(lv_area_get_width(&core_area), lv_area_get_height(&core_area));
 1445              		.loc 1 472 13 view .LVU536
 1446 0168 1746     		mov	r7, r2
 1447              	.L91:
ARM GAS  C:\Users\OSD\AppData\Local\Temp\ccS6lZqb.s 			page 61


 1448              	.LVL136:
 477:lvgl/src/draw/sw/lv_draw_sw_rect.c **** 
 1449              		.loc 1 477 5 is_stmt 1 view .LVU537
 477:lvgl/src/draw/sw/lv_draw_sw_rect.c **** 
 1450              		.loc 1 477 30 is_stmt 0 view .LVU538
 1451 016a B5F94440 		ldrsh	r4, [r5, #68]
 1452              	.LVL137:
 477:lvgl/src/draw/sw/lv_draw_sw_rect.c **** 
 1453              		.loc 1 477 13 view .LVU539
 1454 016e 3C44     		add	r4, r4, r7
 1455              	.LVL138:
 479:lvgl/src/draw/sw/lv_draw_sw_rect.c **** 
 1456              		.loc 1 479 5 is_stmt 1 view .LVU540
 500:lvgl/src/draw/sw/lv_draw_sw_rect.c ****     shadow_draw_corner_buf(&core_area, (uint16_t *)sh_buf, dsc->shadow_width, r_sh);
 1457              		.loc 1 500 5 view .LVU541
 500:lvgl/src/draw/sw/lv_draw_sw_rect.c ****     shadow_draw_corner_buf(&core_area, (uint16_t *)sh_buf, dsc->shadow_width, r_sh);
 1458              		.loc 1 500 41 is_stmt 0 view .LVU542
 1459 0170 04FB04F0 		mul	r0, r4, r4
 500:lvgl/src/draw/sw/lv_draw_sw_rect.c ****     shadow_draw_corner_buf(&core_area, (uint16_t *)sh_buf, dsc->shadow_width, r_sh);
 1460              		.loc 1 500 14 view .LVU543
 1461 0174 4000     		lsls	r0, r0, #1
 1462 0176 FFF7FEFF 		bl	lv_mem_buf_get
 1463              	.LVL139:
 500:lvgl/src/draw/sw/lv_draw_sw_rect.c ****     shadow_draw_corner_buf(&core_area, (uint16_t *)sh_buf, dsc->shadow_width, r_sh);
 1464              		.loc 1 500 14 view .LVU544
 1465 017a 0146     		mov	r1, r0
 1466 017c 0390     		str	r0, [sp, #12]
 1467              	.LVL140:
 501:lvgl/src/draw/sw/lv_draw_sw_rect.c **** #endif
 1468              		.loc 1 501 5 is_stmt 1 view .LVU545
 1469 017e 3B46     		mov	r3, r7
 1470 0180 B5F94420 		ldrsh	r2, [r5, #68]
 1471 0184 24A8     		add	r0, sp, #144
 1472              	.LVL141:
 501:lvgl/src/draw/sw/lv_draw_sw_rect.c **** #endif
 1473              		.loc 1 501 5 is_stmt 0 view .LVU546
 1474 0186 FFF7FEFF 		bl	shadow_draw_corner_buf
 1475              	.LVL142:
 505:lvgl/src/draw/sw/lv_draw_sw_rect.c ****     bool simple = true;
 1476              		.loc 1 505 5 is_stmt 1 view .LVU547
 505:lvgl/src/draw/sw/lv_draw_sw_rect.c ****     bool simple = true;
 1477              		.loc 1 505 21 is_stmt 0 view .LVU548
 1478 018a 22A8     		add	r0, sp, #136
 1479 018c FFF7FEFF 		bl	lv_draw_mask_is_any
 1480              	.LVL143:
 506:lvgl/src/draw/sw/lv_draw_sw_rect.c ****     if(mask_any || dsc->bg_opa < LV_OPA_COVER || dsc->blend_mode != LV_BLEND_MODE_NORMAL) simple = 
 1481              		.loc 1 506 5 is_stmt 1 view .LVU549
 507:lvgl/src/draw/sw/lv_draw_sw_rect.c **** 
 1482              		.loc 1 507 5 view .LVU550
 507:lvgl/src/draw/sw/lv_draw_sw_rect.c **** 
 1483              		.loc 1 507 7 is_stmt 0 view .LVU551
 1484 0190 20B9     		cbnz	r0, .L92
 507:lvgl/src/draw/sw/lv_draw_sw_rect.c **** 
 1485              		.loc 1 507 47 discriminator 2 view .LVU552
 1486 0192 6B88     		ldrh	r3, [r5, #2]
 1487 0194 B3F57F4F 		cmp	r3, #65280
 1488 0198 00F02081 		beq	.L168
ARM GAS  C:\Users\OSD\AppData\Local\Temp\ccS6lZqb.s 			page 62


 1489              	.L92:
 507:lvgl/src/draw/sw/lv_draw_sw_rect.c **** 
 1490              		.loc 1 507 91 is_stmt 1 view .LVU553
 1491              	.LVL144:
 511:lvgl/src/draw/sw/lv_draw_sw_rect.c ****     int16_t mask_rout_id = LV_MASK_ID_INV;
 1492              		.loc 1 511 5 view .LVU554
 512:lvgl/src/draw/sw/lv_draw_sw_rect.c ****     if(!simple) {
 1493              		.loc 1 512 5 view .LVU555
 513:lvgl/src/draw/sw/lv_draw_sw_rect.c ****         lv_draw_mask_radius_init(&mask_rout_param, &bg_area, r_bg, true);
 1494              		.loc 1 513 5 view .LVU556
 514:lvgl/src/draw/sw/lv_draw_sw_rect.c ****         mask_rout_id = lv_draw_mask_add(&mask_rout_param, NULL);
 1495              		.loc 1 514 9 view .LVU557
 1496 019c 0123     		movs	r3, #1
 1497 019e 019A     		ldr	r2, [sp, #4]
 1498 01a0 1EA9     		add	r1, sp, #120
 1499 01a2 18A8     		add	r0, sp, #96
 1500              	.LVL145:
 514:lvgl/src/draw/sw/lv_draw_sw_rect.c ****         mask_rout_id = lv_draw_mask_add(&mask_rout_param, NULL);
 1501              		.loc 1 514 9 is_stmt 0 view .LVU558
 1502 01a4 FFF7FEFF 		bl	lv_draw_mask_radius_init
 1503              	.LVL146:
 515:lvgl/src/draw/sw/lv_draw_sw_rect.c ****     }
 1504              		.loc 1 515 9 is_stmt 1 view .LVU559
 515:lvgl/src/draw/sw/lv_draw_sw_rect.c ****     }
 1505              		.loc 1 515 24 is_stmt 0 view .LVU560
 1506 01a8 0021     		movs	r1, #0
 1507 01aa 18A8     		add	r0, sp, #96
 1508 01ac FFF7FEFF 		bl	lv_draw_mask_add
 1509              	.LVL147:
 1510 01b0 0790     		str	r0, [sp, #28]
 1511              	.LVL148:
 507:lvgl/src/draw/sw/lv_draw_sw_rect.c **** 
 1512              		.loc 1 507 98 view .LVU561
 1513 01b2 0023     		movs	r3, #0
 1514 01b4 0093     		str	r3, [sp]
 1515              	.LVL149:
 1516              	.L93:
 517:lvgl/src/draw/sw/lv_draw_sw_rect.c ****     lv_area_t blend_area;
 1517              		.loc 1 517 5 is_stmt 1 view .LVU562
 1518              	.LBB142:
 1519              	.LBI142:
 123:lvgl/src/draw/sw/../../misc/lv_area.h **** {
 1520              		.loc 2 123 26 view .LVU563
 1521              	.LBB143:
 125:lvgl/src/draw/sw/../../misc/lv_area.h **** }
 1522              		.loc 2 125 5 view .LVU564
 125:lvgl/src/draw/sw/../../misc/lv_area.h **** }
 1523              		.loc 2 125 31 is_stmt 0 view .LVU565
 1524 01b6 BDF88C00 		ldrh	r0, [sp, #140]
 125:lvgl/src/draw/sw/../../misc/lv_area.h **** }
 1525              		.loc 2 125 44 view .LVU566
 1526 01ba BDF88830 		ldrh	r3, [sp, #136]
 125:lvgl/src/draw/sw/../../misc/lv_area.h **** }
 1527              		.loc 2 125 36 view .LVU567
 1528 01be C01A     		subs	r0, r0, r3
 1529 01c0 80B2     		uxth	r0, r0
 125:lvgl/src/draw/sw/../../misc/lv_area.h **** }
ARM GAS  C:\Users\OSD\AppData\Local\Temp\ccS6lZqb.s 			page 63


 1530              		.loc 2 125 49 view .LVU568
 1531 01c2 0130     		adds	r0, r0, #1
 1532              	.LVL150:
 125:lvgl/src/draw/sw/../../misc/lv_area.h **** }
 1533              		.loc 2 125 49 view .LVU569
 1534              	.LBE143:
 1535              	.LBE142:
 517:lvgl/src/draw/sw/lv_draw_sw_rect.c ****     lv_area_t blend_area;
 1536              		.loc 1 517 27 view .LVU570
 1537 01c4 00B2     		sxth	r0, r0
 1538 01c6 FFF7FEFF 		bl	lv_mem_buf_get
 1539              	.LVL151:
 1540 01ca 0746     		mov	r7, r0
 1541              	.LVL152:
 517:lvgl/src/draw/sw/lv_draw_sw_rect.c ****     lv_area_t blend_area;
 1542              		.loc 1 517 27 view .LVU571
 1543 01cc 0490     		str	r0, [sp, #16]
 1544              	.LVL153:
 518:lvgl/src/draw/sw/lv_draw_sw_rect.c ****     lv_area_t clip_area_sub;
 1545              		.loc 1 518 5 is_stmt 1 view .LVU572
 519:lvgl/src/draw/sw/lv_draw_sw_rect.c ****     lv_opa_t * sh_buf_tmp;
 1546              		.loc 1 519 5 view .LVU573
 520:lvgl/src/draw/sw/lv_draw_sw_rect.c ****     lv_coord_t y;
 1547              		.loc 1 520 5 view .LVU574
 521:lvgl/src/draw/sw/lv_draw_sw_rect.c ****     bool simple_sub;
 1548              		.loc 1 521 5 view .LVU575
 522:lvgl/src/draw/sw/lv_draw_sw_rect.c **** 
 1549              		.loc 1 522 5 view .LVU576
 524:lvgl/src/draw/sw/lv_draw_sw_rect.c ****     lv_memset_00(&blend_dsc, sizeof(blend_dsc));
 1550              		.loc 1 524 5 view .LVU577
 525:lvgl/src/draw/sw/lv_draw_sw_rect.c ****     blend_dsc.blend_area = &blend_area;
 1551              		.loc 1 525 5 view .LVU578
 1552 01ce 1C21     		movs	r1, #28
 1553 01d0 0DA8     		add	r0, sp, #52
 1554              	.LVL154:
 525:lvgl/src/draw/sw/lv_draw_sw_rect.c ****     blend_dsc.blend_area = &blend_area;
 1555              		.loc 1 525 5 is_stmt 0 view .LVU579
 1556 01d2 FFF7FEFF 		bl	lv_memset_00
 1557              	.LVL155:
 526:lvgl/src/draw/sw/lv_draw_sw_rect.c ****     blend_dsc.mask_area = &blend_area;
 1558              		.loc 1 526 5 is_stmt 1 view .LVU580
 526:lvgl/src/draw/sw/lv_draw_sw_rect.c ****     blend_dsc.mask_area = &blend_area;
 1559              		.loc 1 526 26 is_stmt 0 view .LVU581
 1560 01d6 16AB     		add	r3, sp, #88
 1561 01d8 0D93     		str	r3, [sp, #52]
 527:lvgl/src/draw/sw/lv_draw_sw_rect.c ****     blend_dsc.mask_buf = mask_buf;
 1562              		.loc 1 527 5 is_stmt 1 view .LVU582
 527:lvgl/src/draw/sw/lv_draw_sw_rect.c ****     blend_dsc.mask_buf = mask_buf;
 1563              		.loc 1 527 25 is_stmt 0 view .LVU583
 1564 01da 1293     		str	r3, [sp, #72]
 528:lvgl/src/draw/sw/lv_draw_sw_rect.c ****     blend_dsc.color = dsc->shadow_color;
 1565              		.loc 1 528 5 is_stmt 1 view .LVU584
 528:lvgl/src/draw/sw/lv_draw_sw_rect.c ****     blend_dsc.color = dsc->shadow_color;
 1566              		.loc 1 528 24 is_stmt 0 view .LVU585
 1567 01dc 1097     		str	r7, [sp, #64]
 529:lvgl/src/draw/sw/lv_draw_sw_rect.c ****     blend_dsc.opa = dsc->shadow_opa;
 1568              		.loc 1 529 5 is_stmt 1 view .LVU586
ARM GAS  C:\Users\OSD\AppData\Local\Temp\ccS6lZqb.s 			page 64


 529:lvgl/src/draw/sw/lv_draw_sw_rect.c ****     blend_dsc.opa = dsc->shadow_opa;
 1569              		.loc 1 529 21 is_stmt 0 view .LVU587
 1570 01de 2B6C     		ldr	r3, [r5, #64]
 1571 01e0 0F93     		str	r3, [sp, #60]
 530:lvgl/src/draw/sw/lv_draw_sw_rect.c ****     blend_dsc.blend_mode = dsc->blend_mode;
 1572              		.loc 1 530 5 is_stmt 1 view .LVU588
 530:lvgl/src/draw/sw/lv_draw_sw_rect.c ****     blend_dsc.blend_mode = dsc->blend_mode;
 1573              		.loc 1 530 24 is_stmt 0 view .LVU589
 1574 01e2 95F84C30 		ldrb	r3, [r5, #76]	@ zero_extendqisi2
 530:lvgl/src/draw/sw/lv_draw_sw_rect.c ****     blend_dsc.blend_mode = dsc->blend_mode;
 1575              		.loc 1 530 19 view .LVU590
 1576 01e6 8DF84C30 		strb	r3, [sp, #76]
 531:lvgl/src/draw/sw/lv_draw_sw_rect.c **** 
 1577              		.loc 1 531 5 is_stmt 1 view .LVU591
 531:lvgl/src/draw/sw/lv_draw_sw_rect.c **** 
 1578              		.loc 1 531 31 is_stmt 0 view .LVU592
 1579 01ea AB78     		ldrb	r3, [r5, #2]	@ zero_extendqisi2
 531:lvgl/src/draw/sw/lv_draw_sw_rect.c **** 
 1580              		.loc 1 531 26 view .LVU593
 1581 01ec 8DF84D30 		strb	r3, [sp, #77]
 533:lvgl/src/draw/sw/lv_draw_sw_rect.c ****     lv_coord_t h_half = shadow_area.y1 + lv_area_get_height(&shadow_area) / 2;
 1582              		.loc 1 533 5 is_stmt 1 view .LVU594
 533:lvgl/src/draw/sw/lv_draw_sw_rect.c ****     lv_coord_t h_half = shadow_area.y1 + lv_area_get_height(&shadow_area) / 2;
 1583              		.loc 1 533 36 is_stmt 0 view .LVU595
 1584 01f0 BDF88820 		ldrh	r2, [sp, #136]
 1585              	.LVL156:
 1586              	.LBB144:
 1587              	.LBI144:
 123:lvgl/src/draw/sw/../../misc/lv_area.h **** {
 1588              		.loc 2 123 26 is_stmt 1 view .LVU596
 1589              	.LBB145:
 125:lvgl/src/draw/sw/../../misc/lv_area.h **** }
 1590              		.loc 2 125 5 view .LVU597
 125:lvgl/src/draw/sw/../../misc/lv_area.h **** }
 1591              		.loc 2 125 31 is_stmt 0 view .LVU598
 1592 01f4 BDF98C70 		ldrsh	r7, [sp, #140]
 1593              	.LVL157:
 125:lvgl/src/draw/sw/../../misc/lv_area.h **** }
 1594              		.loc 2 125 31 view .LVU599
 1595 01f8 B9B2     		uxth	r1, r7
 125:lvgl/src/draw/sw/../../misc/lv_area.h **** }
 1596              		.loc 2 125 36 view .LVU600
 1597 01fa 8B1A     		subs	r3, r1, r2
 1598 01fc 9BB2     		uxth	r3, r3
 125:lvgl/src/draw/sw/../../misc/lv_area.h **** }
 1599              		.loc 2 125 49 view .LVU601
 1600 01fe 0133     		adds	r3, r3, #1
 125:lvgl/src/draw/sw/../../misc/lv_area.h **** }
 1601              		.loc 2 125 12 view .LVU602
 1602 0200 1BB2     		sxth	r3, r3
 1603              	.LVL158:
 125:lvgl/src/draw/sw/../../misc/lv_area.h **** }
 1604              		.loc 2 125 12 view .LVU603
 1605              	.LBE145:
 1606              	.LBE144:
 533:lvgl/src/draw/sw/lv_draw_sw_rect.c ****     lv_coord_t h_half = shadow_area.y1 + lv_area_get_height(&shadow_area) / 2;
 1607              		.loc 1 533 40 view .LVU604
ARM GAS  C:\Users\OSD\AppData\Local\Temp\ccS6lZqb.s 			page 65


 1608 0202 002B     		cmp	r3, #0
 1609 0204 C0F2EE80 		blt	.L187
 1610              	.L94:
 1611 0208 02EB6303 		add	r3, r2, r3, asr #1
 533:lvgl/src/draw/sw/lv_draw_sw_rect.c ****     lv_coord_t h_half = shadow_area.y1 + lv_area_get_height(&shadow_area) / 2;
 1612              		.loc 1 533 16 view .LVU605
 1613 020c 1BB2     		sxth	r3, r3
 1614 020e 0293     		str	r3, [sp, #8]
 1615              	.LVL159:
 534:lvgl/src/draw/sw/lv_draw_sw_rect.c **** 
 1616              		.loc 1 534 5 is_stmt 1 view .LVU606
 534:lvgl/src/draw/sw/lv_draw_sw_rect.c **** 
 1617              		.loc 1 534 36 is_stmt 0 view .LVU607
 1618 0210 BDF98A00 		ldrsh	r0, [sp, #138]
 1619 0214 83B2     		uxth	r3, r0
 1620              	.LVL160:
 1621              	.LBB146:
 1622              	.LBI146:
 133:lvgl/src/draw/sw/../../misc/lv_area.h **** {
 1623              		.loc 2 133 26 is_stmt 1 view .LVU608
 1624              	.LBB147:
 1625              		.loc 2 135 5 view .LVU609
 1626              		.loc 2 135 31 is_stmt 0 view .LVU610
 1627 0216 BDF88E20 		ldrh	r2, [sp, #142]
 1628              		.loc 2 135 36 view .LVU611
 1629 021a D21A     		subs	r2, r2, r3
 1630 021c 92B2     		uxth	r2, r2
 1631              		.loc 2 135 49 view .LVU612
 1632 021e 0132     		adds	r2, r2, #1
 1633              		.loc 2 135 12 view .LVU613
 1634 0220 12B2     		sxth	r2, r2
 1635              	.LVL161:
 1636              		.loc 2 135 12 view .LVU614
 1637              	.LBE147:
 1638              	.LBE146:
 534:lvgl/src/draw/sw/lv_draw_sw_rect.c **** 
 1639              		.loc 1 534 40 view .LVU615
 1640 0222 002A     		cmp	r2, #0
 1641 0224 C0F2E080 		blt	.L188
 1642              	.L95:
 1643 0228 03EB620C 		add	ip, r3, r2, asr #1
 1644 022c 1FFA8CF2 		uxth	r2, ip
 1645 0230 0692     		str	r2, [sp, #24]
 534:lvgl/src/draw/sw/lv_draw_sw_rect.c **** 
 1646              		.loc 1 534 16 view .LVU616
 1647 0232 0FFA8CF8 		sxth	r8, ip
 1648              	.LVL162:
 539:lvgl/src/draw/sw/lv_draw_sw_rect.c ****     blend_area.x1 = shadow_area.x2 - corner_size + 1;
 1649              		.loc 1 539 5 is_stmt 1 view .LVU617
 539:lvgl/src/draw/sw/lv_draw_sw_rect.c ****     blend_area.x1 = shadow_area.x2 - corner_size + 1;
 1650              		.loc 1 539 19 is_stmt 0 view .LVU618
 1651 0236 ADF85C70 		strh	r7, [sp, #92]	@ movhi
 540:lvgl/src/draw/sw/lv_draw_sw_rect.c ****     blend_area.y1 = shadow_area.y1;
 1652              		.loc 1 540 5 is_stmt 1 view .LVU619
 540:lvgl/src/draw/sw/lv_draw_sw_rect.c ****     blend_area.y1 = shadow_area.y1;
 1653              		.loc 1 540 36 is_stmt 0 view .LVU620
 1654 023a A7B2     		uxth	r7, r4
ARM GAS  C:\Users\OSD\AppData\Local\Temp\ccS6lZqb.s 			page 66


 1655 023c CA1B     		subs	r2, r1, r7
 1656 023e 92B2     		uxth	r2, r2
 540:lvgl/src/draw/sw/lv_draw_sw_rect.c ****     blend_area.y1 = shadow_area.y1;
 1657              		.loc 1 540 50 view .LVU621
 1658 0240 0132     		adds	r2, r2, #1
 1659 0242 12B2     		sxth	r2, r2
 540:lvgl/src/draw/sw/lv_draw_sw_rect.c ****     blend_area.y1 = shadow_area.y1;
 1660              		.loc 1 540 19 view .LVU622
 1661 0244 ADF85820 		strh	r2, [sp, #88]	@ movhi
 541:lvgl/src/draw/sw/lv_draw_sw_rect.c ****     blend_area.y2 = shadow_area.y1 + corner_size - 1;
 1662              		.loc 1 541 5 is_stmt 1 view .LVU623
 541:lvgl/src/draw/sw/lv_draw_sw_rect.c ****     blend_area.y2 = shadow_area.y1 + corner_size - 1;
 1663              		.loc 1 541 19 is_stmt 0 view .LVU624
 1664 0248 ADF85A00 		strh	r0, [sp, #90]	@ movhi
 542:lvgl/src/draw/sw/lv_draw_sw_rect.c ****     /*Do not overdraw the other top corners*/
 1665              		.loc 1 542 5 is_stmt 1 view .LVU625
 542:lvgl/src/draw/sw/lv_draw_sw_rect.c ****     /*Do not overdraw the other top corners*/
 1666              		.loc 1 542 36 is_stmt 0 view .LVU626
 1667 024c 3B44     		add	r3, r3, r7
 1668 024e 9BB2     		uxth	r3, r3
 542:lvgl/src/draw/sw/lv_draw_sw_rect.c ****     /*Do not overdraw the other top corners*/
 1669              		.loc 1 542 50 view .LVU627
 1670 0250 013B     		subs	r3, r3, #1
 1671 0252 1BB2     		sxth	r3, r3
 542:lvgl/src/draw/sw/lv_draw_sw_rect.c ****     /*Do not overdraw the other top corners*/
 1672              		.loc 1 542 19 view .LVU628
 1673 0254 ADF85E30 		strh	r3, [sp, #94]	@ movhi
 544:lvgl/src/draw/sw/lv_draw_sw_rect.c ****     blend_area.y2 = LV_MIN(blend_area.y2, h_half);
 1674              		.loc 1 544 5 is_stmt 1 view .LVU629
 544:lvgl/src/draw/sw/lv_draw_sw_rect.c ****     blend_area.y2 = LV_MIN(blend_area.y2, h_half);
 1675              		.loc 1 544 21 is_stmt 0 view .LVU630
 1676 0258 0299     		ldr	r1, [sp, #8]
 1677 025a 8A42     		cmp	r2, r1
 1678 025c B8BF     		it	lt
 1679 025e 0A46     		movlt	r2, r1
 544:lvgl/src/draw/sw/lv_draw_sw_rect.c ****     blend_area.y2 = LV_MIN(blend_area.y2, h_half);
 1680              		.loc 1 544 19 view .LVU631
 1681 0260 ADF85820 		strh	r2, [sp, #88]	@ movhi
 545:lvgl/src/draw/sw/lv_draw_sw_rect.c **** 
 1682              		.loc 1 545 5 is_stmt 1 view .LVU632
 545:lvgl/src/draw/sw/lv_draw_sw_rect.c **** 
 1683              		.loc 1 545 21 is_stmt 0 view .LVU633
 1684 0264 4345     		cmp	r3, r8
 1685 0266 A8BF     		it	ge
 1686 0268 4346     		movge	r3, r8
 545:lvgl/src/draw/sw/lv_draw_sw_rect.c **** 
 1687              		.loc 1 545 19 view .LVU634
 1688 026a ADF85E30 		strh	r3, [sp, #94]	@ movhi
 547:lvgl/src/draw/sw/lv_draw_sw_rect.c ****        !_lv_area_is_in(&clip_area_sub, &bg_area, r_bg)) {
 1689              		.loc 1 547 5 is_stmt 1 view .LVU635
 547:lvgl/src/draw/sw/lv_draw_sw_rect.c ****        !_lv_area_is_in(&clip_area_sub, &bg_area, r_bg)) {
 1690              		.loc 1 547 8 is_stmt 0 view .LVU636
 1691 026e B268     		ldr	r2, [r6, #8]
 1692 0270 16A9     		add	r1, sp, #88
 1693 0272 14A8     		add	r0, sp, #80
 1694 0274 FFF7FEFF 		bl	_lv_area_intersect
 1695              	.LVL163:
ARM GAS  C:\Users\OSD\AppData\Local\Temp\ccS6lZqb.s 			page 67


 547:lvgl/src/draw/sw/lv_draw_sw_rect.c ****        !_lv_area_is_in(&clip_area_sub, &bg_area, r_bg)) {
 1696              		.loc 1 547 7 view .LVU637
 1697 0278 0028     		cmp	r0, #0
 1698 027a 40F0B780 		bne	.L189
 1699              	.LVL164:
 1700              	.L96:
 582:lvgl/src/draw/sw/lv_draw_sw_rect.c ****     blend_area.x1 = shadow_area.x2 - corner_size + 1;
 1701              		.loc 1 582 5 is_stmt 1 view .LVU638
 582:lvgl/src/draw/sw/lv_draw_sw_rect.c ****     blend_area.x1 = shadow_area.x2 - corner_size + 1;
 1702              		.loc 1 582 32 is_stmt 0 view .LVU639
 1703 027e BDF98C30 		ldrsh	r3, [sp, #140]
 582:lvgl/src/draw/sw/lv_draw_sw_rect.c ****     blend_area.x1 = shadow_area.x2 - corner_size + 1;
 1704              		.loc 1 582 19 view .LVU640
 1705 0282 ADF85C30 		strh	r3, [sp, #92]	@ movhi
 583:lvgl/src/draw/sw/lv_draw_sw_rect.c ****     blend_area.y1 = shadow_area.y2 - corner_size + 1;
 1706              		.loc 1 583 5 is_stmt 1 view .LVU641
 583:lvgl/src/draw/sw/lv_draw_sw_rect.c ****     blend_area.y1 = shadow_area.y2 - corner_size + 1;
 1707              		.loc 1 583 32 is_stmt 0 view .LVU642
 1708 0286 9BB2     		uxth	r3, r3
 583:lvgl/src/draw/sw/lv_draw_sw_rect.c ****     blend_area.y1 = shadow_area.y2 - corner_size + 1;
 1709              		.loc 1 583 36 view .LVU643
 1710 0288 DB1B     		subs	r3, r3, r7
 1711 028a 9BB2     		uxth	r3, r3
 583:lvgl/src/draw/sw/lv_draw_sw_rect.c ****     blend_area.y1 = shadow_area.y2 - corner_size + 1;
 1712              		.loc 1 583 50 view .LVU644
 1713 028c 0133     		adds	r3, r3, #1
 1714 028e 1BB2     		sxth	r3, r3
 583:lvgl/src/draw/sw/lv_draw_sw_rect.c ****     blend_area.y1 = shadow_area.y2 - corner_size + 1;
 1715              		.loc 1 583 19 view .LVU645
 1716 0290 ADF85830 		strh	r3, [sp, #88]	@ movhi
 584:lvgl/src/draw/sw/lv_draw_sw_rect.c ****     blend_area.y2 = shadow_area.y2;
 1717              		.loc 1 584 5 is_stmt 1 view .LVU646
 584:lvgl/src/draw/sw/lv_draw_sw_rect.c ****     blend_area.y2 = shadow_area.y2;
 1718              		.loc 1 584 32 is_stmt 0 view .LVU647
 1719 0294 BDF98E10 		ldrsh	r1, [sp, #142]
 1720 0298 8AB2     		uxth	r2, r1
 584:lvgl/src/draw/sw/lv_draw_sw_rect.c ****     blend_area.y2 = shadow_area.y2;
 1721              		.loc 1 584 36 view .LVU648
 1722 029a D21B     		subs	r2, r2, r7
 1723 029c 92B2     		uxth	r2, r2
 584:lvgl/src/draw/sw/lv_draw_sw_rect.c ****     blend_area.y2 = shadow_area.y2;
 1724              		.loc 1 584 50 view .LVU649
 1725 029e 0132     		adds	r2, r2, #1
 1726 02a0 12B2     		sxth	r2, r2
 584:lvgl/src/draw/sw/lv_draw_sw_rect.c ****     blend_area.y2 = shadow_area.y2;
 1727              		.loc 1 584 19 view .LVU650
 1728 02a2 ADF85A20 		strh	r2, [sp, #90]	@ movhi
 585:lvgl/src/draw/sw/lv_draw_sw_rect.c ****     /*Do not overdraw the other corners*/
 1729              		.loc 1 585 5 is_stmt 1 view .LVU651
 585:lvgl/src/draw/sw/lv_draw_sw_rect.c ****     /*Do not overdraw the other corners*/
 1730              		.loc 1 585 19 is_stmt 0 view .LVU652
 1731 02a6 ADF85E10 		strh	r1, [sp, #94]	@ movhi
 587:lvgl/src/draw/sw/lv_draw_sw_rect.c ****     blend_area.y1 = LV_MAX(blend_area.y1, h_half + 1);
 1732              		.loc 1 587 5 is_stmt 1 view .LVU653
 587:lvgl/src/draw/sw/lv_draw_sw_rect.c ****     blend_area.y1 = LV_MAX(blend_area.y1, h_half + 1);
 1733              		.loc 1 587 21 is_stmt 0 view .LVU654
 1734 02aa 0299     		ldr	r1, [sp, #8]
ARM GAS  C:\Users\OSD\AppData\Local\Temp\ccS6lZqb.s 			page 68


 1735 02ac 8B42     		cmp	r3, r1
 1736 02ae B8BF     		it	lt
 1737 02b0 0B46     		movlt	r3, r1
 587:lvgl/src/draw/sw/lv_draw_sw_rect.c ****     blend_area.y1 = LV_MAX(blend_area.y1, h_half + 1);
 1738              		.loc 1 587 19 view .LVU655
 1739 02b2 ADF85830 		strh	r3, [sp, #88]	@ movhi
 588:lvgl/src/draw/sw/lv_draw_sw_rect.c **** 
 1740              		.loc 1 588 5 is_stmt 1 view .LVU656
 588:lvgl/src/draw/sw/lv_draw_sw_rect.c **** 
 1741              		.loc 1 588 21 is_stmt 0 view .LVU657
 1742 02b6 08F10103 		add	r3, r8, #1
 1743 02ba 0593     		str	r3, [sp, #20]
 1744 02bc 9A42     		cmp	r2, r3
 1745 02be B8BF     		it	lt
 1746 02c0 1A46     		movlt	r2, r3
 588:lvgl/src/draw/sw/lv_draw_sw_rect.c **** 
 1747              		.loc 1 588 19 view .LVU658
 1748 02c2 ADF85A20 		strh	r2, [sp, #90]	@ movhi
 590:lvgl/src/draw/sw/lv_draw_sw_rect.c ****        !_lv_area_is_in(&clip_area_sub, &bg_area, r_bg)) {
 1749              		.loc 1 590 5 is_stmt 1 view .LVU659
 590:lvgl/src/draw/sw/lv_draw_sw_rect.c ****        !_lv_area_is_in(&clip_area_sub, &bg_area, r_bg)) {
 1750              		.loc 1 590 8 is_stmt 0 view .LVU660
 1751 02c6 B268     		ldr	r2, [r6, #8]
 1752 02c8 16A9     		add	r1, sp, #88
 1753 02ca 14A8     		add	r0, sp, #80
 1754 02cc FFF7FEFF 		bl	_lv_area_intersect
 1755              	.LVL165:
 590:lvgl/src/draw/sw/lv_draw_sw_rect.c ****        !_lv_area_is_in(&clip_area_sub, &bg_area, r_bg)) {
 1756              		.loc 1 590 7 view .LVU661
 1757 02d0 0028     		cmp	r0, #0
 1758 02d2 40F00B81 		bne	.L190
 1759              	.L102:
 624:lvgl/src/draw/sw/lv_draw_sw_rect.c ****     blend_area.x2 = shadow_area.x2 - corner_size;
 1760              		.loc 1 624 5 is_stmt 1 view .LVU662
 624:lvgl/src/draw/sw/lv_draw_sw_rect.c ****     blend_area.x2 = shadow_area.x2 - corner_size;
 1761              		.loc 1 624 32 is_stmt 0 view .LVU663
 1762 02d6 BDF88830 		ldrh	r3, [sp, #136]
 624:lvgl/src/draw/sw/lv_draw_sw_rect.c ****     blend_area.x2 = shadow_area.x2 - corner_size;
 1763              		.loc 1 624 36 view .LVU664
 1764 02da 3B44     		add	r3, r3, r7
 624:lvgl/src/draw/sw/lv_draw_sw_rect.c ****     blend_area.x2 = shadow_area.x2 - corner_size;
 1765              		.loc 1 624 19 view .LVU665
 1766 02dc ADF85830 		strh	r3, [sp, #88]	@ movhi
 625:lvgl/src/draw/sw/lv_draw_sw_rect.c ****     blend_area.y1 = shadow_area.y1;
 1767              		.loc 1 625 5 is_stmt 1 view .LVU666
 625:lvgl/src/draw/sw/lv_draw_sw_rect.c ****     blend_area.y1 = shadow_area.y1;
 1768              		.loc 1 625 32 is_stmt 0 view .LVU667
 1769 02e0 BDF88C30 		ldrh	r3, [sp, #140]
 625:lvgl/src/draw/sw/lv_draw_sw_rect.c ****     blend_area.y1 = shadow_area.y1;
 1770              		.loc 1 625 36 view .LVU668
 1771 02e4 DB1B     		subs	r3, r3, r7
 625:lvgl/src/draw/sw/lv_draw_sw_rect.c ****     blend_area.y1 = shadow_area.y1;
 1772              		.loc 1 625 19 view .LVU669
 1773 02e6 ADF85C30 		strh	r3, [sp, #92]	@ movhi
 626:lvgl/src/draw/sw/lv_draw_sw_rect.c ****     blend_area.y2 = shadow_area.y1 + corner_size - 1;
 1774              		.loc 1 626 5 is_stmt 1 view .LVU670
 626:lvgl/src/draw/sw/lv_draw_sw_rect.c ****     blend_area.y2 = shadow_area.y1 + corner_size - 1;
ARM GAS  C:\Users\OSD\AppData\Local\Temp\ccS6lZqb.s 			page 69


 1775              		.loc 1 626 32 is_stmt 0 view .LVU671
 1776 02ea BDF98A30 		ldrsh	r3, [sp, #138]
 626:lvgl/src/draw/sw/lv_draw_sw_rect.c ****     blend_area.y2 = shadow_area.y1 + corner_size - 1;
 1777              		.loc 1 626 19 view .LVU672
 1778 02ee ADF85A30 		strh	r3, [sp, #90]	@ movhi
 627:lvgl/src/draw/sw/lv_draw_sw_rect.c ****     blend_area.y2 = LV_MIN(blend_area.y2, h_half);
 1779              		.loc 1 627 5 is_stmt 1 view .LVU673
 627:lvgl/src/draw/sw/lv_draw_sw_rect.c ****     blend_area.y2 = LV_MIN(blend_area.y2, h_half);
 1780              		.loc 1 627 36 is_stmt 0 view .LVU674
 1781 02f2 17FA83F3 		uxtah	r3, r7, r3
 1782 02f6 9BB2     		uxth	r3, r3
 627:lvgl/src/draw/sw/lv_draw_sw_rect.c ****     blend_area.y2 = LV_MIN(blend_area.y2, h_half);
 1783              		.loc 1 627 50 view .LVU675
 1784 02f8 013B     		subs	r3, r3, #1
 1785 02fa 1BB2     		sxth	r3, r3
 627:lvgl/src/draw/sw/lv_draw_sw_rect.c ****     blend_area.y2 = LV_MIN(blend_area.y2, h_half);
 1786              		.loc 1 627 19 view .LVU676
 1787 02fc ADF85E30 		strh	r3, [sp, #94]	@ movhi
 628:lvgl/src/draw/sw/lv_draw_sw_rect.c **** 
 1788              		.loc 1 628 5 is_stmt 1 view .LVU677
 628:lvgl/src/draw/sw/lv_draw_sw_rect.c **** 
 1789              		.loc 1 628 21 is_stmt 0 view .LVU678
 1790 0300 4345     		cmp	r3, r8
 1791 0302 A8BF     		it	ge
 1792 0304 4346     		movge	r3, r8
 628:lvgl/src/draw/sw/lv_draw_sw_rect.c **** 
 1793              		.loc 1 628 19 view .LVU679
 1794 0306 ADF85E30 		strh	r3, [sp, #94]	@ movhi
 630:lvgl/src/draw/sw/lv_draw_sw_rect.c ****        !_lv_area_is_in(&clip_area_sub, &bg_area, r_bg)) {
 1795              		.loc 1 630 5 is_stmt 1 view .LVU680
 630:lvgl/src/draw/sw/lv_draw_sw_rect.c ****        !_lv_area_is_in(&clip_area_sub, &bg_area, r_bg)) {
 1796              		.loc 1 630 8 is_stmt 0 view .LVU681
 1797 030a B268     		ldr	r2, [r6, #8]
 1798 030c 16A9     		add	r1, sp, #88
 1799 030e 14A8     		add	r0, sp, #80
 1800 0310 FFF7FEFF 		bl	_lv_area_intersect
 1801              	.LVL166:
 630:lvgl/src/draw/sw/lv_draw_sw_rect.c ****        !_lv_area_is_in(&clip_area_sub, &bg_area, r_bg)) {
 1802              		.loc 1 630 7 view .LVU682
 1803 0314 0028     		cmp	r0, #0
 1804 0316 40F06981 		bne	.L191
 1805              	.LVL167:
 1806              	.L108:
 668:lvgl/src/draw/sw/lv_draw_sw_rect.c **** 
 1807              		.loc 1 668 5 is_stmt 1 view .LVU683
 668:lvgl/src/draw/sw/lv_draw_sw_rect.c **** 
 1808              		.loc 1 668 24 is_stmt 0 view .LVU684
 1809 031a 95F84C30 		ldrb	r3, [r5, #76]	@ zero_extendqisi2
 668:lvgl/src/draw/sw/lv_draw_sw_rect.c **** 
 1810              		.loc 1 668 19 view .LVU685
 1811 031e 8DF84C30 		strb	r3, [sp, #76]
 671:lvgl/src/draw/sw/lv_draw_sw_rect.c ****     blend_area.x2 = shadow_area.x2 - corner_size;
 1812              		.loc 1 671 5 is_stmt 1 view .LVU686
 671:lvgl/src/draw/sw/lv_draw_sw_rect.c ****     blend_area.x2 = shadow_area.x2 - corner_size;
 1813              		.loc 1 671 32 is_stmt 0 view .LVU687
 1814 0322 BDF88830 		ldrh	r3, [sp, #136]
 671:lvgl/src/draw/sw/lv_draw_sw_rect.c ****     blend_area.x2 = shadow_area.x2 - corner_size;
ARM GAS  C:\Users\OSD\AppData\Local\Temp\ccS6lZqb.s 			page 70


 1815              		.loc 1 671 36 view .LVU688
 1816 0326 3B44     		add	r3, r3, r7
 671:lvgl/src/draw/sw/lv_draw_sw_rect.c ****     blend_area.x2 = shadow_area.x2 - corner_size;
 1817              		.loc 1 671 19 view .LVU689
 1818 0328 ADF85830 		strh	r3, [sp, #88]	@ movhi
 672:lvgl/src/draw/sw/lv_draw_sw_rect.c ****     blend_area.y1 = shadow_area.y2 - corner_size + 1;
 1819              		.loc 1 672 5 is_stmt 1 view .LVU690
 672:lvgl/src/draw/sw/lv_draw_sw_rect.c ****     blend_area.y1 = shadow_area.y2 - corner_size + 1;
 1820              		.loc 1 672 32 is_stmt 0 view .LVU691
 1821 032c BDF88C30 		ldrh	r3, [sp, #140]
 672:lvgl/src/draw/sw/lv_draw_sw_rect.c ****     blend_area.y1 = shadow_area.y2 - corner_size + 1;
 1822              		.loc 1 672 36 view .LVU692
 1823 0330 DB1B     		subs	r3, r3, r7
 672:lvgl/src/draw/sw/lv_draw_sw_rect.c ****     blend_area.y1 = shadow_area.y2 - corner_size + 1;
 1824              		.loc 1 672 19 view .LVU693
 1825 0332 ADF85C30 		strh	r3, [sp, #92]	@ movhi
 673:lvgl/src/draw/sw/lv_draw_sw_rect.c ****     blend_area.y2 = shadow_area.y2;
 1826              		.loc 1 673 5 is_stmt 1 view .LVU694
 673:lvgl/src/draw/sw/lv_draw_sw_rect.c ****     blend_area.y2 = shadow_area.y2;
 1827              		.loc 1 673 32 is_stmt 0 view .LVU695
 1828 0336 BDF98E20 		ldrsh	r2, [sp, #142]
 1829 033a 93B2     		uxth	r3, r2
 673:lvgl/src/draw/sw/lv_draw_sw_rect.c ****     blend_area.y2 = shadow_area.y2;
 1830              		.loc 1 673 36 view .LVU696
 1831 033c DB1B     		subs	r3, r3, r7
 1832 033e 9BB2     		uxth	r3, r3
 673:lvgl/src/draw/sw/lv_draw_sw_rect.c ****     blend_area.y2 = shadow_area.y2;
 1833              		.loc 1 673 50 view .LVU697
 1834 0340 0133     		adds	r3, r3, #1
 1835 0342 1BB2     		sxth	r3, r3
 673:lvgl/src/draw/sw/lv_draw_sw_rect.c ****     blend_area.y2 = shadow_area.y2;
 1836              		.loc 1 673 19 view .LVU698
 1837 0344 ADF85A30 		strh	r3, [sp, #90]	@ movhi
 674:lvgl/src/draw/sw/lv_draw_sw_rect.c ****     blend_area.y1 = LV_MAX(blend_area.y1, h_half + 1);
 1838              		.loc 1 674 5 is_stmt 1 view .LVU699
 674:lvgl/src/draw/sw/lv_draw_sw_rect.c ****     blend_area.y1 = LV_MAX(blend_area.y1, h_half + 1);
 1839              		.loc 1 674 19 is_stmt 0 view .LVU700
 1840 0348 ADF85E20 		strh	r2, [sp, #94]	@ movhi
 675:lvgl/src/draw/sw/lv_draw_sw_rect.c **** 
 1841              		.loc 1 675 5 is_stmt 1 view .LVU701
 675:lvgl/src/draw/sw/lv_draw_sw_rect.c **** 
 1842              		.loc 1 675 21 is_stmt 0 view .LVU702
 1843 034c 059A     		ldr	r2, [sp, #20]
 1844 034e 9342     		cmp	r3, r2
 1845 0350 B8BF     		it	lt
 1846 0352 1346     		movlt	r3, r2
 675:lvgl/src/draw/sw/lv_draw_sw_rect.c **** 
 1847              		.loc 1 675 19 view .LVU703
 1848 0354 ADF85A30 		strh	r3, [sp, #90]	@ movhi
 677:lvgl/src/draw/sw/lv_draw_sw_rect.c ****        !_lv_area_is_in(&clip_area_sub, &bg_area, r_bg)) {
 1849              		.loc 1 677 5 is_stmt 1 view .LVU704
 677:lvgl/src/draw/sw/lv_draw_sw_rect.c ****        !_lv_area_is_in(&clip_area_sub, &bg_area, r_bg)) {
 1850              		.loc 1 677 8 is_stmt 0 view .LVU705
 1851 0358 B268     		ldr	r2, [r6, #8]
 1852 035a 16A9     		add	r1, sp, #88
 1853 035c 14A8     		add	r0, sp, #80
 1854 035e FFF7FEFF 		bl	_lv_area_intersect
ARM GAS  C:\Users\OSD\AppData\Local\Temp\ccS6lZqb.s 			page 71


 1855              	.LVL168:
 677:lvgl/src/draw/sw/lv_draw_sw_rect.c ****        !_lv_area_is_in(&clip_area_sub, &bg_area, r_bg)) {
 1856              		.loc 1 677 7 view .LVU706
 1857 0362 0028     		cmp	r0, #0
 1858 0364 40F0C881 		bne	.L192
 1859              	.L119:
 720:lvgl/src/draw/sw/lv_draw_sw_rect.c **** 
 1860              		.loc 1 720 5 is_stmt 1 view .LVU707
 720:lvgl/src/draw/sw/lv_draw_sw_rect.c **** 
 1861              		.loc 1 720 24 is_stmt 0 view .LVU708
 1862 0368 95F84C30 		ldrb	r3, [r5, #76]	@ zero_extendqisi2
 720:lvgl/src/draw/sw/lv_draw_sw_rect.c **** 
 1863              		.loc 1 720 19 view .LVU709
 1864 036c 8DF84C30 		strb	r3, [sp, #76]
 723:lvgl/src/draw/sw/lv_draw_sw_rect.c ****     blend_area.x2 = shadow_area.x2;
 1865              		.loc 1 723 5 is_stmt 1 view .LVU710
 723:lvgl/src/draw/sw/lv_draw_sw_rect.c ****     blend_area.x2 = shadow_area.x2;
 1866              		.loc 1 723 32 is_stmt 0 view .LVU711
 1867 0370 BDF98C30 		ldrsh	r3, [sp, #140]
 1868 0374 9AB2     		uxth	r2, r3
 723:lvgl/src/draw/sw/lv_draw_sw_rect.c ****     blend_area.x2 = shadow_area.x2;
 1869              		.loc 1 723 36 view .LVU712
 1870 0376 D21B     		subs	r2, r2, r7
 1871 0378 92B2     		uxth	r2, r2
 723:lvgl/src/draw/sw/lv_draw_sw_rect.c ****     blend_area.x2 = shadow_area.x2;
 1872              		.loc 1 723 50 view .LVU713
 1873 037a 0132     		adds	r2, r2, #1
 1874 037c 12B2     		sxth	r2, r2
 723:lvgl/src/draw/sw/lv_draw_sw_rect.c ****     blend_area.x2 = shadow_area.x2;
 1875              		.loc 1 723 19 view .LVU714
 1876 037e ADF85820 		strh	r2, [sp, #88]	@ movhi
 724:lvgl/src/draw/sw/lv_draw_sw_rect.c ****     blend_area.y1 = shadow_area.y1 + corner_size;
 1877              		.loc 1 724 5 is_stmt 1 view .LVU715
 724:lvgl/src/draw/sw/lv_draw_sw_rect.c ****     blend_area.y1 = shadow_area.y1 + corner_size;
 1878              		.loc 1 724 19 is_stmt 0 view .LVU716
 1879 0382 ADF85C30 		strh	r3, [sp, #92]	@ movhi
 725:lvgl/src/draw/sw/lv_draw_sw_rect.c ****     blend_area.y2 = shadow_area.y2 - corner_size;
 1880              		.loc 1 725 5 is_stmt 1 view .LVU717
 725:lvgl/src/draw/sw/lv_draw_sw_rect.c ****     blend_area.y2 = shadow_area.y2 - corner_size;
 1881              		.loc 1 725 32 is_stmt 0 view .LVU718
 1882 0386 BDF88A30 		ldrh	r3, [sp, #138]
 725:lvgl/src/draw/sw/lv_draw_sw_rect.c ****     blend_area.y2 = shadow_area.y2 - corner_size;
 1883              		.loc 1 725 36 view .LVU719
 1884 038a 3B44     		add	r3, r3, r7
 1885 038c 1BB2     		sxth	r3, r3
 725:lvgl/src/draw/sw/lv_draw_sw_rect.c ****     blend_area.y2 = shadow_area.y2 - corner_size;
 1886              		.loc 1 725 19 view .LVU720
 1887 038e ADF85A30 		strh	r3, [sp, #90]	@ movhi
 726:lvgl/src/draw/sw/lv_draw_sw_rect.c ****     /*Do not overdraw the other corners*/
 1888              		.loc 1 726 5 is_stmt 1 view .LVU721
 726:lvgl/src/draw/sw/lv_draw_sw_rect.c ****     /*Do not overdraw the other corners*/
 1889              		.loc 1 726 32 is_stmt 0 view .LVU722
 1890 0392 BDF88E10 		ldrh	r1, [sp, #142]
 726:lvgl/src/draw/sw/lv_draw_sw_rect.c ****     /*Do not overdraw the other corners*/
 1891              		.loc 1 726 36 view .LVU723
 1892 0396 C91B     		subs	r1, r1, r7
 1893 0398 09B2     		sxth	r1, r1
ARM GAS  C:\Users\OSD\AppData\Local\Temp\ccS6lZqb.s 			page 72


 726:lvgl/src/draw/sw/lv_draw_sw_rect.c ****     /*Do not overdraw the other corners*/
 1894              		.loc 1 726 19 view .LVU724
 1895 039a ADF85E10 		strh	r1, [sp, #94]	@ movhi
 728:lvgl/src/draw/sw/lv_draw_sw_rect.c ****     blend_area.y2 = LV_MAX(blend_area.y2, h_half);
 1896              		.loc 1 728 5 is_stmt 1 view .LVU725
 728:lvgl/src/draw/sw/lv_draw_sw_rect.c ****     blend_area.y2 = LV_MAX(blend_area.y2, h_half);
 1897              		.loc 1 728 19 is_stmt 0 view .LVU726
 1898 039e 4345     		cmp	r3, r8
 1899 03a0 02DD     		ble	.L131
 728:lvgl/src/draw/sw/lv_draw_sw_rect.c ****     blend_area.y2 = LV_MAX(blend_area.y2, h_half);
 1900              		.loc 1 728 21 discriminator 2 view .LVU727
 1901 03a2 069B     		ldr	r3, [sp, #24]
 1902 03a4 0133     		adds	r3, r3, #1
 728:lvgl/src/draw/sw/lv_draw_sw_rect.c ****     blend_area.y2 = LV_MAX(blend_area.y2, h_half);
 1903              		.loc 1 728 19 discriminator 2 view .LVU728
 1904 03a6 1BB2     		sxth	r3, r3
 1905              	.L131:
 728:lvgl/src/draw/sw/lv_draw_sw_rect.c ****     blend_area.y2 = LV_MAX(blend_area.y2, h_half);
 1906              		.loc 1 728 19 discriminator 4 view .LVU729
 1907 03a8 ADF85A30 		strh	r3, [sp, #90]	@ movhi
 729:lvgl/src/draw/sw/lv_draw_sw_rect.c ****     blend_area.x1 = LV_MAX(blend_area.x1, w_half);
 1908              		.loc 1 729 5 is_stmt 1 discriminator 4 view .LVU730
 729:lvgl/src/draw/sw/lv_draw_sw_rect.c ****     blend_area.x1 = LV_MAX(blend_area.x1, w_half);
 1909              		.loc 1 729 21 is_stmt 0 discriminator 4 view .LVU731
 1910 03ac 4145     		cmp	r1, r8
 1911 03ae B8BF     		it	lt
 1912 03b0 4146     		movlt	r1, r8
 729:lvgl/src/draw/sw/lv_draw_sw_rect.c ****     blend_area.x1 = LV_MAX(blend_area.x1, w_half);
 1913              		.loc 1 729 19 discriminator 4 view .LVU732
 1914 03b2 ADF85E10 		strh	r1, [sp, #94]	@ movhi
 730:lvgl/src/draw/sw/lv_draw_sw_rect.c **** 
 1915              		.loc 1 730 5 is_stmt 1 discriminator 4 view .LVU733
 730:lvgl/src/draw/sw/lv_draw_sw_rect.c **** 
 1916              		.loc 1 730 21 is_stmt 0 discriminator 4 view .LVU734
 1917 03b6 029B     		ldr	r3, [sp, #8]
 1918 03b8 9A42     		cmp	r2, r3
 1919 03ba B8BF     		it	lt
 1920 03bc 1A46     		movlt	r2, r3
 730:lvgl/src/draw/sw/lv_draw_sw_rect.c **** 
 1921              		.loc 1 730 19 discriminator 4 view .LVU735
 1922 03be ADF85820 		strh	r2, [sp, #88]	@ movhi
 732:lvgl/src/draw/sw/lv_draw_sw_rect.c ****        !_lv_area_is_in(&clip_area_sub, &bg_area, r_bg)) {
 1923              		.loc 1 732 5 is_stmt 1 discriminator 4 view .LVU736
 732:lvgl/src/draw/sw/lv_draw_sw_rect.c ****        !_lv_area_is_in(&clip_area_sub, &bg_area, r_bg)) {
 1924              		.loc 1 732 8 is_stmt 0 discriminator 4 view .LVU737
 1925 03c2 B268     		ldr	r2, [r6, #8]
 1926 03c4 16A9     		add	r1, sp, #88
 1927 03c6 14A8     		add	r0, sp, #80
 1928 03c8 FFF7FEFF 		bl	_lv_area_intersect
 1929              	.LVL169:
 732:lvgl/src/draw/sw/lv_draw_sw_rect.c ****        !_lv_area_is_in(&clip_area_sub, &bg_area, r_bg)) {
 1930              		.loc 1 732 7 discriminator 4 view .LVU738
 1931 03cc 0028     		cmp	r0, #0
 1932 03ce 40F01D82 		bne	.L193
 1933              	.LVL170:
 1934              	.L132:
 1935              	.LBB148:
ARM GAS  C:\Users\OSD\AppData\Local\Temp\ccS6lZqb.s 			page 73


 768:lvgl/src/draw/sw/lv_draw_sw_rect.c ****             lv_opa_t tmp = *start;
 1936              		.loc 1 768 15 discriminator 1 view .LVU739
 1937 03d2 DDF80CE0 		ldr	lr, [sp, #12]
 1938 03d6 4FF0000C 		mov	ip, #0
 1939 03da A0E2     		b	.L141
 1940              	.LVL171:
 1941              	.L168:
 768:lvgl/src/draw/sw/lv_draw_sw_rect.c ****             lv_opa_t tmp = *start;
 1942              		.loc 1 768 15 discriminator 1 view .LVU740
 1943              	.LBE148:
 512:lvgl/src/draw/sw/lv_draw_sw_rect.c ****     if(!simple) {
 1944              		.loc 1 512 13 view .LVU741
 1945 03dc 4FF0FF33 		mov	r3, #-1
 1946 03e0 0793     		str	r3, [sp, #28]
 1947 03e2 E8E6     		b	.L93
 1948              	.LVL172:
 1949              	.L187:
 533:lvgl/src/draw/sw/lv_draw_sw_rect.c ****     lv_coord_t h_half = shadow_area.y1 + lv_area_get_height(&shadow_area) / 2;
 1950              		.loc 1 533 40 view .LVU742
 1951 03e4 0133     		adds	r3, r3, #1
 1952 03e6 0FE7     		b	.L94
 1953              	.LVL173:
 1954              	.L188:
 534:lvgl/src/draw/sw/lv_draw_sw_rect.c **** 
 1955              		.loc 1 534 40 view .LVU743
 1956 03e8 0132     		adds	r2, r2, #1
 1957 03ea 1DE7     		b	.L95
 1958              	.LVL174:
 1959              	.L189:
 548:lvgl/src/draw/sw/lv_draw_sw_rect.c ****         lv_coord_t w = lv_area_get_width(&clip_area_sub);
 1960              		.loc 1 548 9 discriminator 1 view .LVU744
 1961 03ec BDF904A0 		ldrsh	r10, [sp, #4]
 1962 03f0 5246     		mov	r2, r10
 1963 03f2 1EA9     		add	r1, sp, #120
 1964 03f4 14A8     		add	r0, sp, #80
 1965 03f6 FFF7FEFF 		bl	_lv_area_is_in
 1966              	.LVL175:
 547:lvgl/src/draw/sw/lv_draw_sw_rect.c ****        !_lv_area_is_in(&clip_area_sub, &bg_area, r_bg)) {
 1967              		.loc 1 547 77 discriminator 1 view .LVU745
 1968 03fa 0028     		cmp	r0, #0
 1969 03fc 7FF43FAF 		bne	.L96
 1970              	.LBB150:
 549:lvgl/src/draw/sw/lv_draw_sw_rect.c ****         sh_buf_tmp = sh_buf;
 1971              		.loc 1 549 9 is_stmt 1 view .LVU746
 1972              	.LVL176:
 1973              	.LBB151:
 1974              	.LBI151:
 123:lvgl/src/draw/sw/../../misc/lv_area.h **** {
 1975              		.loc 2 123 26 view .LVU747
 1976              	.LBB152:
 125:lvgl/src/draw/sw/../../misc/lv_area.h **** }
 1977              		.loc 2 125 5 view .LVU748
 125:lvgl/src/draw/sw/../../misc/lv_area.h **** }
 1978              		.loc 2 125 31 is_stmt 0 view .LVU749
 1979 0400 BDF85430 		ldrh	r3, [sp, #84]
 125:lvgl/src/draw/sw/../../misc/lv_area.h **** }
 1980              		.loc 2 125 44 view .LVU750
ARM GAS  C:\Users\OSD\AppData\Local\Temp\ccS6lZqb.s 			page 74


 1981 0404 BDF95020 		ldrsh	r2, [sp, #80]
 1982 0408 91B2     		uxth	r1, r2
 125:lvgl/src/draw/sw/../../misc/lv_area.h **** }
 1983              		.loc 2 125 36 view .LVU751
 1984 040a 5B1A     		subs	r3, r3, r1
 1985 040c 9BB2     		uxth	r3, r3
 125:lvgl/src/draw/sw/../../misc/lv_area.h **** }
 1986              		.loc 2 125 49 view .LVU752
 1987 040e 0133     		adds	r3, r3, #1
 125:lvgl/src/draw/sw/../../misc/lv_area.h **** }
 1988              		.loc 2 125 12 view .LVU753
 1989 0410 1BB2     		sxth	r3, r3
 1990 0412 0593     		str	r3, [sp, #20]
 1991              	.LVL177:
 125:lvgl/src/draw/sw/../../misc/lv_area.h **** }
 1992              		.loc 2 125 12 view .LVU754
 1993              	.LBE152:
 1994              	.LBE151:
 550:lvgl/src/draw/sw/lv_draw_sw_rect.c ****         sh_buf_tmp += (clip_area_sub.y1 - shadow_area.y1) * corner_size;
 1995              		.loc 1 550 9 is_stmt 1 view .LVU755
 551:lvgl/src/draw/sw/lv_draw_sw_rect.c ****         sh_buf_tmp += clip_area_sub.x1 - (shadow_area.x2 - corner_size + 1);
 1996              		.loc 1 551 9 view .LVU756
 551:lvgl/src/draw/sw/lv_draw_sw_rect.c ****         sh_buf_tmp += clip_area_sub.x1 - (shadow_area.x2 - corner_size + 1);
 1997              		.loc 1 551 37 is_stmt 0 view .LVU757
 1998 0414 BDF95230 		ldrsh	r3, [sp, #82]
 551:lvgl/src/draw/sw/lv_draw_sw_rect.c ****         sh_buf_tmp += clip_area_sub.x1 - (shadow_area.x2 - corner_size + 1);
 1999              		.loc 1 551 54 view .LVU758
 2000 0418 BDF98AB0 		ldrsh	fp, [sp, #138]
 551:lvgl/src/draw/sw/lv_draw_sw_rect.c ****         sh_buf_tmp += clip_area_sub.x1 - (shadow_area.x2 - corner_size + 1);
 2001              		.loc 1 551 41 view .LVU759
 2002 041c A3EB0B03 		sub	r3, r3, fp
 2003              	.LVL178:
 552:lvgl/src/draw/sw/lv_draw_sw_rect.c **** 
 2004              		.loc 1 552 9 is_stmt 1 view .LVU760
 552:lvgl/src/draw/sw/lv_draw_sw_rect.c **** 
 2005              		.loc 1 552 54 is_stmt 0 view .LVU761
 2006 0420 BDF98CB0 		ldrsh	fp, [sp, #140]
 552:lvgl/src/draw/sw/lv_draw_sw_rect.c **** 
 2007              		.loc 1 552 58 view .LVU762
 2008 0424 ABEB040B 		sub	fp, fp, r4
 552:lvgl/src/draw/sw/lv_draw_sw_rect.c **** 
 2009              		.loc 1 552 72 view .LVU763
 2010 0428 0BF1010B 		add	fp, fp, #1
 552:lvgl/src/draw/sw/lv_draw_sw_rect.c **** 
 2011              		.loc 1 552 40 view .LVU764
 2012 042c A2EB0B0B 		sub	fp, r2, fp
 552:lvgl/src/draw/sw/lv_draw_sw_rect.c **** 
 2013              		.loc 1 552 20 view .LVU765
 2014 0430 04FB03BB 		mla	fp, r4, r3, fp
 2015 0434 039B     		ldr	r3, [sp, #12]
 2016              	.LVL179:
 552:lvgl/src/draw/sw/lv_draw_sw_rect.c **** 
 2017              		.loc 1 552 20 view .LVU766
 2018 0436 9B44     		add	fp, fp, r3
 2019              	.LVL180:
 555:lvgl/src/draw/sw/lv_draw_sw_rect.c ****         else simple_sub = simple;
 2020              		.loc 1 555 9 is_stmt 1 view .LVU767
ARM GAS  C:\Users\OSD\AppData\Local\Temp\ccS6lZqb.s 			page 75


 555:lvgl/src/draw/sw/lv_draw_sw_rect.c ****         else simple_sub = simple;
 2021              		.loc 1 555 11 is_stmt 0 view .LVU768
 2022 0438 009B     		ldr	r3, [sp]
 2023 043a EBB9     		cbnz	r3, .L194
 2024 043c 009B     		ldr	r3, [sp]
 2025 043e 1946     		mov	r1, r3
 2026              	.L97:
 2027              	.LVL181:
 557:lvgl/src/draw/sw/lv_draw_sw_rect.c ****             blend_dsc.mask_buf = mask_buf;
 2028              		.loc 1 557 9 is_stmt 1 view .LVU769
 557:lvgl/src/draw/sw/lv_draw_sw_rect.c ****             blend_dsc.mask_buf = mask_buf;
 2029              		.loc 1 557 11 is_stmt 0 view .LVU770
 2030 0440 059B     		ldr	r3, [sp, #20]
 2031 0442 002B     		cmp	r3, #0
 2032 0444 7FF71BAF 		ble	.L96
 558:lvgl/src/draw/sw/lv_draw_sw_rect.c ****             blend_area.x1 = clip_area_sub.x1;
 2033              		.loc 1 558 13 is_stmt 1 view .LVU771
 558:lvgl/src/draw/sw/lv_draw_sw_rect.c ****             blend_area.x1 = clip_area_sub.x1;
 2034              		.loc 1 558 32 is_stmt 0 view .LVU772
 2035 0448 049A     		ldr	r2, [sp, #16]
 2036 044a 1092     		str	r2, [sp, #64]
 559:lvgl/src/draw/sw/lv_draw_sw_rect.c ****             blend_area.x2 = clip_area_sub.x2;
 2037              		.loc 1 559 13 is_stmt 1 view .LVU773
 559:lvgl/src/draw/sw/lv_draw_sw_rect.c ****             blend_area.x2 = clip_area_sub.x2;
 2038              		.loc 1 559 42 is_stmt 0 view .LVU774
 2039 044c BDF95030 		ldrsh	r3, [sp, #80]
 559:lvgl/src/draw/sw/lv_draw_sw_rect.c ****             blend_area.x2 = clip_area_sub.x2;
 2040              		.loc 1 559 27 view .LVU775
 2041 0450 ADF85830 		strh	r3, [sp, #88]	@ movhi
 560:lvgl/src/draw/sw/lv_draw_sw_rect.c ****             blend_dsc.mask_res = LV_DRAW_MASK_RES_CHANGED;    /*In simple mode it won't be overwrit
 2042              		.loc 1 560 13 is_stmt 1 view .LVU776
 560:lvgl/src/draw/sw/lv_draw_sw_rect.c ****             blend_dsc.mask_res = LV_DRAW_MASK_RES_CHANGED;    /*In simple mode it won't be overwrit
 2043              		.loc 1 560 42 is_stmt 0 view .LVU777
 2044 0454 BDF95430 		ldrsh	r3, [sp, #84]
 560:lvgl/src/draw/sw/lv_draw_sw_rect.c ****             blend_dsc.mask_res = LV_DRAW_MASK_RES_CHANGED;    /*In simple mode it won't be overwrit
 2045              		.loc 1 560 27 view .LVU778
 2046 0458 ADF85C30 		strh	r3, [sp, #92]	@ movhi
 561:lvgl/src/draw/sw/lv_draw_sw_rect.c ****             for(y = clip_area_sub.y1; y <= clip_area_sub.y2; y++) {
 2047              		.loc 1 561 13 is_stmt 1 view .LVU779
 561:lvgl/src/draw/sw/lv_draw_sw_rect.c ****             for(y = clip_area_sub.y1; y <= clip_area_sub.y2; y++) {
 2048              		.loc 1 561 32 is_stmt 0 view .LVU780
 2049 045c 0223     		movs	r3, #2
 2050 045e 8DF84430 		strb	r3, [sp, #68]
 562:lvgl/src/draw/sw/lv_draw_sw_rect.c ****                 blend_area.y1 = y;
 2051              		.loc 1 562 13 is_stmt 1 view .LVU781
 562:lvgl/src/draw/sw/lv_draw_sw_rect.c ****                 blend_area.y1 = y;
 2052              		.loc 1 562 19 is_stmt 0 view .LVU782
 2053 0462 BDF952A0 		ldrsh	r10, [sp, #82]
 2054              	.LVL182:
 562:lvgl/src/draw/sw/lv_draw_sw_rect.c ****                 blend_area.y1 = y;
 2055              		.loc 1 562 19 view .LVU783
 2056 0466 CDF82090 		str	r9, [sp, #32]
 2057 046a 0997     		str	r7, [sp, #36]
 2058 046c A146     		mov	r9, r4
 2059              	.LVL183:
 562:lvgl/src/draw/sw/lv_draw_sw_rect.c ****                 blend_area.y1 = y;
 2060              		.loc 1 562 19 view .LVU784
ARM GAS  C:\Users\OSD\AppData\Local\Temp\ccS6lZqb.s 			page 76


 2061 046e 5C46     		mov	r4, fp
 2062              	.LVL184:
 562:lvgl/src/draw/sw/lv_draw_sw_rect.c ****                 blend_area.y1 = y;
 2063              		.loc 1 562 19 view .LVU785
 2064 0470 1746     		mov	r7, r2
 2065 0472 AB46     		mov	fp, r5
 2066              	.LVL185:
 562:lvgl/src/draw/sw/lv_draw_sw_rect.c ****                 blend_area.y1 = y;
 2067              		.loc 1 562 19 view .LVU786
 2068 0474 0D46     		mov	r5, r1
 2069              	.LVL186:
 562:lvgl/src/draw/sw/lv_draw_sw_rect.c ****                 blend_area.y1 = y;
 2070              		.loc 1 562 13 view .LVU787
 2071 0476 23E0     		b	.L98
 2072              	.LVL187:
 2073              	.L194:
 555:lvgl/src/draw/sw/lv_draw_sw_rect.c ****         else simple_sub = simple;
 2074              		.loc 1 555 22 discriminator 1 view .LVU788
 2075 0478 5246     		mov	r2, r10
 2076 047a 1EA9     		add	r1, sp, #120
 2077 047c 14A8     		add	r0, sp, #80
 2078 047e FFF7FEFF 		bl	_lv_area_is_out
 2079              	.LVL188:
 555:lvgl/src/draw/sw/lv_draw_sw_rect.c ****         else simple_sub = simple;
 2080              		.loc 1 555 19 discriminator 1 view .LVU789
 2081 0482 0146     		mov	r1, r0
 2082 0484 0028     		cmp	r0, #0
 2083 0486 DBD1     		bne	.L97
 2084 0488 009B     		ldr	r3, [sp]
 2085 048a 1946     		mov	r1, r3
 2086 048c D8E7     		b	.L97
 2087              	.LVL189:
 2088              	.L197:
 567:lvgl/src/draw/sw/lv_draw_sw_rect.c ****                     blend_dsc.mask_res = lv_draw_mask_apply(mask_buf, clip_area_sub.x1, y, w);
 2089              		.loc 1 567 21 is_stmt 1 view .LVU790
 2090 048e 4A46     		mov	r2, r9
 2091 0490 2146     		mov	r1, r4
 2092 0492 3846     		mov	r0, r7
 2093 0494 FFF7FEFF 		bl	lv_memcpy
 2094              	.LVL190:
 568:lvgl/src/draw/sw/lv_draw_sw_rect.c ****                     if(blend_dsc.mask_res == LV_DRAW_MASK_RES_FULL_COVER) blend_dsc.mask_res = LV_D
 2095              		.loc 1 568 21 view .LVU791
 568:lvgl/src/draw/sw/lv_draw_sw_rect.c ****                     if(blend_dsc.mask_res == LV_DRAW_MASK_RES_FULL_COVER) blend_dsc.mask_res = LV_D
 2096              		.loc 1 568 42 is_stmt 0 view .LVU792
 2097 0498 059B     		ldr	r3, [sp, #20]
 2098 049a 5246     		mov	r2, r10
 2099 049c BDF95010 		ldrsh	r1, [sp, #80]
 2100 04a0 3846     		mov	r0, r7
 2101 04a2 FFF7FEFF 		bl	lv_draw_mask_apply
 2102              	.LVL191:
 568:lvgl/src/draw/sw/lv_draw_sw_rect.c ****                     if(blend_dsc.mask_res == LV_DRAW_MASK_RES_FULL_COVER) blend_dsc.mask_res = LV_D
 2103              		.loc 1 568 40 view .LVU793
 2104 04a6 8DF84400 		strb	r0, [sp, #68]
 569:lvgl/src/draw/sw/lv_draw_sw_rect.c ****                 }
 2105              		.loc 1 569 21 is_stmt 1 view .LVU794
 569:lvgl/src/draw/sw/lv_draw_sw_rect.c ****                 }
 2106              		.loc 1 569 23 is_stmt 0 view .LVU795
ARM GAS  C:\Users\OSD\AppData\Local\Temp\ccS6lZqb.s 			page 77


 2107 04aa 0128     		cmp	r0, #1
 2108 04ac 14D0     		beq	.L195
 2109              	.L100:
 574:lvgl/src/draw/sw/lv_draw_sw_rect.c ****                 sh_buf_tmp += corner_size;
 2110              		.loc 1 574 17 is_stmt 1 discriminator 2 view .LVU796
 2111 04ae 0DA9     		add	r1, sp, #52
 2112 04b0 3046     		mov	r0, r6
 2113 04b2 FFF7FEFF 		bl	lv_draw_sw_blend
 2114              	.LVL192:
 575:lvgl/src/draw/sw/lv_draw_sw_rect.c ****             }
 2115              		.loc 1 575 17 discriminator 2 view .LVU797
 575:lvgl/src/draw/sw/lv_draw_sw_rect.c ****             }
 2116              		.loc 1 575 28 is_stmt 0 discriminator 2 view .LVU798
 2117 04b6 4C44     		add	r4, r4, r9
 2118              	.LVL193:
 562:lvgl/src/draw/sw/lv_draw_sw_rect.c ****                 blend_area.y1 = y;
 2119              		.loc 1 562 62 is_stmt 1 discriminator 2 view .LVU799
 562:lvgl/src/draw/sw/lv_draw_sw_rect.c ****                 blend_area.y1 = y;
 2120              		.loc 1 562 63 is_stmt 0 discriminator 2 view .LVU800
 2121 04b8 0AF1010A 		add	r10, r10, #1
 2122              	.LVL194:
 562:lvgl/src/draw/sw/lv_draw_sw_rect.c ****                 blend_area.y1 = y;
 2123              		.loc 1 562 63 discriminator 2 view .LVU801
 2124 04bc 0FFA8AFA 		sxth	r10, r10
 2125              	.LVL195:
 2126              	.L98:
 562:lvgl/src/draw/sw/lv_draw_sw_rect.c ****                 blend_area.y1 = y;
 2127              		.loc 1 562 39 is_stmt 1 discriminator 1 view .LVU802
 562:lvgl/src/draw/sw/lv_draw_sw_rect.c ****                 blend_area.y1 = y;
 2128              		.loc 1 562 57 is_stmt 0 discriminator 1 view .LVU803
 2129 04c0 BDF95630 		ldrsh	r3, [sp, #86]
 562:lvgl/src/draw/sw/lv_draw_sw_rect.c ****                 blend_area.y1 = y;
 2130              		.loc 1 562 13 discriminator 1 view .LVU804
 2131 04c4 5345     		cmp	r3, r10
 2132 04c6 0BDB     		blt	.L196
 563:lvgl/src/draw/sw/lv_draw_sw_rect.c ****                 blend_area.y2 = y;
 2133              		.loc 1 563 17 is_stmt 1 view .LVU805
 563:lvgl/src/draw/sw/lv_draw_sw_rect.c ****                 blend_area.y2 = y;
 2134              		.loc 1 563 31 is_stmt 0 view .LVU806
 2135 04c8 ADF85AA0 		strh	r10, [sp, #90]	@ movhi
 564:lvgl/src/draw/sw/lv_draw_sw_rect.c **** 
 2136              		.loc 1 564 17 is_stmt 1 view .LVU807
 564:lvgl/src/draw/sw/lv_draw_sw_rect.c **** 
 2137              		.loc 1 564 31 is_stmt 0 view .LVU808
 2138 04cc ADF85EA0 		strh	r10, [sp, #94]	@ movhi
 566:lvgl/src/draw/sw/lv_draw_sw_rect.c ****                     lv_memcpy(mask_buf, sh_buf_tmp, corner_size);
 2139              		.loc 1 566 17 is_stmt 1 view .LVU809
 566:lvgl/src/draw/sw/lv_draw_sw_rect.c ****                     lv_memcpy(mask_buf, sh_buf_tmp, corner_size);
 2140              		.loc 1 566 19 is_stmt 0 view .LVU810
 2141 04d0 002D     		cmp	r5, #0
 2142 04d2 DCD0     		beq	.L197
 572:lvgl/src/draw/sw/lv_draw_sw_rect.c ****                 }
 2143              		.loc 1 572 21 is_stmt 1 view .LVU811
 572:lvgl/src/draw/sw/lv_draw_sw_rect.c ****                 }
 2144              		.loc 1 572 40 is_stmt 0 view .LVU812
 2145 04d4 1094     		str	r4, [sp, #64]
 2146 04d6 EAE7     		b	.L100
ARM GAS  C:\Users\OSD\AppData\Local\Temp\ccS6lZqb.s 			page 78


 2147              	.L195:
 569:lvgl/src/draw/sw/lv_draw_sw_rect.c ****                 }
 2148              		.loc 1 569 75 is_stmt 1 discriminator 1 view .LVU813
 569:lvgl/src/draw/sw/lv_draw_sw_rect.c ****                 }
 2149              		.loc 1 569 94 is_stmt 0 discriminator 1 view .LVU814
 2150 04d8 0223     		movs	r3, #2
 2151 04da 8DF84430 		strb	r3, [sp, #68]
 2152 04de E6E7     		b	.L100
 2153              	.L196:
 569:lvgl/src/draw/sw/lv_draw_sw_rect.c ****                 }
 2154              		.loc 1 569 94 discriminator 1 view .LVU815
 2155 04e0 099F     		ldr	r7, [sp, #36]
 2156 04e2 4C46     		mov	r4, r9
 2157              	.LVL196:
 569:lvgl/src/draw/sw/lv_draw_sw_rect.c ****                 }
 2158              		.loc 1 569 94 discriminator 1 view .LVU816
 2159 04e4 DDF82090 		ldr	r9, [sp, #32]
 2160              	.LVL197:
 569:lvgl/src/draw/sw/lv_draw_sw_rect.c ****                 }
 2161              		.loc 1 569 94 discriminator 1 view .LVU817
 2162 04e8 5D46     		mov	r5, fp
 2163 04ea C8E6     		b	.L96
 2164              	.LVL198:
 2165              	.L190:
 569:lvgl/src/draw/sw/lv_draw_sw_rect.c ****                 }
 2166              		.loc 1 569 94 discriminator 1 view .LVU818
 2167              	.LBE150:
 591:lvgl/src/draw/sw/lv_draw_sw_rect.c ****         lv_coord_t w = lv_area_get_width(&clip_area_sub);
 2168              		.loc 1 591 9 discriminator 1 view .LVU819
 2169 04ec BDF904A0 		ldrsh	r10, [sp, #4]
 2170 04f0 5246     		mov	r2, r10
 2171 04f2 1EA9     		add	r1, sp, #120
 2172 04f4 14A8     		add	r0, sp, #80
 2173 04f6 FFF7FEFF 		bl	_lv_area_is_in
 2174              	.LVL199:
 590:lvgl/src/draw/sw/lv_draw_sw_rect.c ****        !_lv_area_is_in(&clip_area_sub, &bg_area, r_bg)) {
 2175              		.loc 1 590 77 discriminator 1 view .LVU820
 2176 04fa 0028     		cmp	r0, #0
 2177 04fc 7FF4EBAE 		bne	.L102
 2178              	.LBB153:
 592:lvgl/src/draw/sw/lv_draw_sw_rect.c ****         sh_buf_tmp = sh_buf;
 2179              		.loc 1 592 9 is_stmt 1 view .LVU821
 2180              	.LVL200:
 2181              	.LBB154:
 2182              	.LBI154:
 123:lvgl/src/draw/sw/../../misc/lv_area.h **** {
 2183              		.loc 2 123 26 view .LVU822
 2184              	.LBB155:
 125:lvgl/src/draw/sw/../../misc/lv_area.h **** }
 2185              		.loc 2 125 5 view .LVU823
 125:lvgl/src/draw/sw/../../misc/lv_area.h **** }
 2186              		.loc 2 125 31 is_stmt 0 view .LVU824
 2187 0500 BDF85430 		ldrh	r3, [sp, #84]
 125:lvgl/src/draw/sw/../../misc/lv_area.h **** }
 2188              		.loc 2 125 44 view .LVU825
 2189 0504 BDF95020 		ldrsh	r2, [sp, #80]
 2190 0508 91B2     		uxth	r1, r2
ARM GAS  C:\Users\OSD\AppData\Local\Temp\ccS6lZqb.s 			page 79


 125:lvgl/src/draw/sw/../../misc/lv_area.h **** }
 2191              		.loc 2 125 36 view .LVU826
 2192 050a 5B1A     		subs	r3, r3, r1
 2193 050c 9BB2     		uxth	r3, r3
 125:lvgl/src/draw/sw/../../misc/lv_area.h **** }
 2194              		.loc 2 125 49 view .LVU827
 2195 050e 0133     		adds	r3, r3, #1
 125:lvgl/src/draw/sw/../../misc/lv_area.h **** }
 2196              		.loc 2 125 12 view .LVU828
 2197 0510 1BB2     		sxth	r3, r3
 2198 0512 0893     		str	r3, [sp, #32]
 2199              	.LVL201:
 125:lvgl/src/draw/sw/../../misc/lv_area.h **** }
 2200              		.loc 2 125 12 view .LVU829
 2201              	.LBE155:
 2202              	.LBE154:
 593:lvgl/src/draw/sw/lv_draw_sw_rect.c ****         sh_buf_tmp += (blend_area.y2 - clip_area_sub.y2) * corner_size;
 2203              		.loc 1 593 9 is_stmt 1 view .LVU830
 594:lvgl/src/draw/sw/lv_draw_sw_rect.c ****         sh_buf_tmp += clip_area_sub.x1 - (shadow_area.x2 - corner_size + 1);
 2204              		.loc 1 594 9 view .LVU831
 594:lvgl/src/draw/sw/lv_draw_sw_rect.c ****         sh_buf_tmp += clip_area_sub.x1 - (shadow_area.x2 - corner_size + 1);
 2205              		.loc 1 594 34 is_stmt 0 view .LVU832
 2206 0514 BDF95E30 		ldrsh	r3, [sp, #94]
 594:lvgl/src/draw/sw/lv_draw_sw_rect.c ****         sh_buf_tmp += clip_area_sub.x1 - (shadow_area.x2 - corner_size + 1);
 2207              		.loc 1 594 53 view .LVU833
 2208 0518 BDF956B0 		ldrsh	fp, [sp, #86]
 594:lvgl/src/draw/sw/lv_draw_sw_rect.c ****         sh_buf_tmp += clip_area_sub.x1 - (shadow_area.x2 - corner_size + 1);
 2209              		.loc 1 594 38 view .LVU834
 2210 051c A3EB0B03 		sub	r3, r3, fp
 2211              	.LVL202:
 595:lvgl/src/draw/sw/lv_draw_sw_rect.c ****         /*Do not mask if out of the bg*/
 2212              		.loc 1 595 9 is_stmt 1 view .LVU835
 595:lvgl/src/draw/sw/lv_draw_sw_rect.c ****         /*Do not mask if out of the bg*/
 2213              		.loc 1 595 54 is_stmt 0 view .LVU836
 2214 0520 BDF98CB0 		ldrsh	fp, [sp, #140]
 595:lvgl/src/draw/sw/lv_draw_sw_rect.c ****         /*Do not mask if out of the bg*/
 2215              		.loc 1 595 58 view .LVU837
 2216 0524 ABEB040B 		sub	fp, fp, r4
 595:lvgl/src/draw/sw/lv_draw_sw_rect.c ****         /*Do not mask if out of the bg*/
 2217              		.loc 1 595 72 view .LVU838
 2218 0528 0BF1010B 		add	fp, fp, #1
 595:lvgl/src/draw/sw/lv_draw_sw_rect.c ****         /*Do not mask if out of the bg*/
 2219              		.loc 1 595 40 view .LVU839
 2220 052c A2EB0B0B 		sub	fp, r2, fp
 595:lvgl/src/draw/sw/lv_draw_sw_rect.c ****         /*Do not mask if out of the bg*/
 2221              		.loc 1 595 20 view .LVU840
 2222 0530 04FB03BB 		mla	fp, r4, r3, fp
 2223 0534 039B     		ldr	r3, [sp, #12]
 2224              	.LVL203:
 595:lvgl/src/draw/sw/lv_draw_sw_rect.c ****         /*Do not mask if out of the bg*/
 2225              		.loc 1 595 20 view .LVU841
 2226 0536 9B44     		add	fp, fp, r3
 2227              	.LVL204:
 597:lvgl/src/draw/sw/lv_draw_sw_rect.c ****         else simple_sub = simple;
 2228              		.loc 1 597 9 is_stmt 1 view .LVU842
 597:lvgl/src/draw/sw/lv_draw_sw_rect.c ****         else simple_sub = simple;
 2229              		.loc 1 597 11 is_stmt 0 view .LVU843
ARM GAS  C:\Users\OSD\AppData\Local\Temp\ccS6lZqb.s 			page 80


 2230 0538 009B     		ldr	r3, [sp]
 2231 053a EBB9     		cbnz	r3, .L198
 2232 053c 009B     		ldr	r3, [sp]
 2233 053e 1946     		mov	r1, r3
 2234              	.L103:
 2235              	.LVL205:
 600:lvgl/src/draw/sw/lv_draw_sw_rect.c ****             blend_dsc.mask_buf = mask_buf;
 2236              		.loc 1 600 9 is_stmt 1 view .LVU844
 600:lvgl/src/draw/sw/lv_draw_sw_rect.c ****             blend_dsc.mask_buf = mask_buf;
 2237              		.loc 1 600 11 is_stmt 0 view .LVU845
 2238 0540 089B     		ldr	r3, [sp, #32]
 2239 0542 002B     		cmp	r3, #0
 2240 0544 7FF7C7AE 		ble	.L102
 601:lvgl/src/draw/sw/lv_draw_sw_rect.c ****             blend_area.x1 = clip_area_sub.x1;
 2241              		.loc 1 601 13 is_stmt 1 view .LVU846
 601:lvgl/src/draw/sw/lv_draw_sw_rect.c ****             blend_area.x1 = clip_area_sub.x1;
 2242              		.loc 1 601 32 is_stmt 0 view .LVU847
 2243 0548 049A     		ldr	r2, [sp, #16]
 2244 054a 1092     		str	r2, [sp, #64]
 602:lvgl/src/draw/sw/lv_draw_sw_rect.c ****             blend_area.x2 = clip_area_sub.x2;
 2245              		.loc 1 602 13 is_stmt 1 view .LVU848
 602:lvgl/src/draw/sw/lv_draw_sw_rect.c ****             blend_area.x2 = clip_area_sub.x2;
 2246              		.loc 1 602 42 is_stmt 0 view .LVU849
 2247 054c BDF95030 		ldrsh	r3, [sp, #80]
 602:lvgl/src/draw/sw/lv_draw_sw_rect.c ****             blend_area.x2 = clip_area_sub.x2;
 2248              		.loc 1 602 27 view .LVU850
 2249 0550 ADF85830 		strh	r3, [sp, #88]	@ movhi
 603:lvgl/src/draw/sw/lv_draw_sw_rect.c ****             blend_dsc.mask_res = LV_DRAW_MASK_RES_CHANGED;    /*In simple mode it won't be overwrit
 2250              		.loc 1 603 13 is_stmt 1 view .LVU851
 603:lvgl/src/draw/sw/lv_draw_sw_rect.c ****             blend_dsc.mask_res = LV_DRAW_MASK_RES_CHANGED;    /*In simple mode it won't be overwrit
 2251              		.loc 1 603 42 is_stmt 0 view .LVU852
 2252 0554 BDF95430 		ldrsh	r3, [sp, #84]
 603:lvgl/src/draw/sw/lv_draw_sw_rect.c ****             blend_dsc.mask_res = LV_DRAW_MASK_RES_CHANGED;    /*In simple mode it won't be overwrit
 2253              		.loc 1 603 27 view .LVU853
 2254 0558 ADF85C30 		strh	r3, [sp, #92]	@ movhi
 604:lvgl/src/draw/sw/lv_draw_sw_rect.c ****             for(y = clip_area_sub.y2; y >= clip_area_sub.y1; y--) {
 2255              		.loc 1 604 13 is_stmt 1 view .LVU854
 604:lvgl/src/draw/sw/lv_draw_sw_rect.c ****             for(y = clip_area_sub.y2; y >= clip_area_sub.y1; y--) {
 2256              		.loc 1 604 32 is_stmt 0 view .LVU855
 2257 055c 0223     		movs	r3, #2
 2258 055e 8DF84430 		strb	r3, [sp, #68]
 605:lvgl/src/draw/sw/lv_draw_sw_rect.c ****                 blend_area.y1 = y;
 2259              		.loc 1 605 13 is_stmt 1 view .LVU856
 605:lvgl/src/draw/sw/lv_draw_sw_rect.c ****                 blend_area.y1 = y;
 2260              		.loc 1 605 19 is_stmt 0 view .LVU857
 2261 0562 BDF956A0 		ldrsh	r10, [sp, #86]
 2262              	.LVL206:
 605:lvgl/src/draw/sw/lv_draw_sw_rect.c ****                 blend_area.y1 = y;
 2263              		.loc 1 605 19 view .LVU858
 2264 0566 CDF82490 		str	r9, [sp, #36]
 2265 056a 0A97     		str	r7, [sp, #40]
 2266 056c A146     		mov	r9, r4
 2267 056e 5C46     		mov	r4, fp
 2268              	.LVL207:
 605:lvgl/src/draw/sw/lv_draw_sw_rect.c ****                 blend_area.y1 = y;
 2269              		.loc 1 605 19 view .LVU859
 2270 0570 1746     		mov	r7, r2
ARM GAS  C:\Users\OSD\AppData\Local\Temp\ccS6lZqb.s 			page 81


 2271 0572 AB46     		mov	fp, r5
 2272              	.LVL208:
 605:lvgl/src/draw/sw/lv_draw_sw_rect.c ****                 blend_area.y1 = y;
 2273              		.loc 1 605 19 view .LVU860
 2274 0574 0D46     		mov	r5, r1
 2275              	.LVL209:
 605:lvgl/src/draw/sw/lv_draw_sw_rect.c ****                 blend_area.y1 = y;
 2276              		.loc 1 605 13 view .LVU861
 2277 0576 23E0     		b	.L104
 2278              	.LVL210:
 2279              	.L198:
 597:lvgl/src/draw/sw/lv_draw_sw_rect.c ****         else simple_sub = simple;
 2280              		.loc 1 597 22 discriminator 1 view .LVU862
 2281 0578 5246     		mov	r2, r10
 2282 057a 1EA9     		add	r1, sp, #120
 2283 057c 14A8     		add	r0, sp, #80
 2284 057e FFF7FEFF 		bl	_lv_area_is_out
 2285              	.LVL211:
 597:lvgl/src/draw/sw/lv_draw_sw_rect.c ****         else simple_sub = simple;
 2286              		.loc 1 597 19 discriminator 1 view .LVU863
 2287 0582 0146     		mov	r1, r0
 2288 0584 0028     		cmp	r0, #0
 2289 0586 DBD1     		bne	.L103
 2290 0588 009B     		ldr	r3, [sp]
 2291 058a 1946     		mov	r1, r3
 2292 058c D8E7     		b	.L103
 2293              	.LVL212:
 2294              	.L201:
 610:lvgl/src/draw/sw/lv_draw_sw_rect.c ****                     blend_dsc.mask_res = lv_draw_mask_apply(mask_buf, clip_area_sub.x1, y, w);
 2295              		.loc 1 610 21 is_stmt 1 view .LVU864
 2296 058e 4A46     		mov	r2, r9
 2297 0590 2146     		mov	r1, r4
 2298 0592 3846     		mov	r0, r7
 2299 0594 FFF7FEFF 		bl	lv_memcpy
 2300              	.LVL213:
 611:lvgl/src/draw/sw/lv_draw_sw_rect.c ****                     if(blend_dsc.mask_res == LV_DRAW_MASK_RES_FULL_COVER) blend_dsc.mask_res = LV_D
 2301              		.loc 1 611 21 view .LVU865
 611:lvgl/src/draw/sw/lv_draw_sw_rect.c ****                     if(blend_dsc.mask_res == LV_DRAW_MASK_RES_FULL_COVER) blend_dsc.mask_res = LV_D
 2302              		.loc 1 611 42 is_stmt 0 view .LVU866
 2303 0598 089B     		ldr	r3, [sp, #32]
 2304 059a 5246     		mov	r2, r10
 2305 059c BDF95010 		ldrsh	r1, [sp, #80]
 2306 05a0 3846     		mov	r0, r7
 2307 05a2 FFF7FEFF 		bl	lv_draw_mask_apply
 2308              	.LVL214:
 611:lvgl/src/draw/sw/lv_draw_sw_rect.c ****                     if(blend_dsc.mask_res == LV_DRAW_MASK_RES_FULL_COVER) blend_dsc.mask_res = LV_D
 2309              		.loc 1 611 40 view .LVU867
 2310 05a6 8DF84400 		strb	r0, [sp, #68]
 612:lvgl/src/draw/sw/lv_draw_sw_rect.c ****                 }
 2311              		.loc 1 612 21 is_stmt 1 view .LVU868
 612:lvgl/src/draw/sw/lv_draw_sw_rect.c ****                 }
 2312              		.loc 1 612 23 is_stmt 0 view .LVU869
 2313 05aa 0128     		cmp	r0, #1
 2314 05ac 14D0     		beq	.L199
 2315              	.L106:
 617:lvgl/src/draw/sw/lv_draw_sw_rect.c ****                 sh_buf_tmp += corner_size;
 2316              		.loc 1 617 17 is_stmt 1 discriminator 2 view .LVU870
ARM GAS  C:\Users\OSD\AppData\Local\Temp\ccS6lZqb.s 			page 82


 2317 05ae 0DA9     		add	r1, sp, #52
 2318 05b0 3046     		mov	r0, r6
 2319 05b2 FFF7FEFF 		bl	lv_draw_sw_blend
 2320              	.LVL215:
 618:lvgl/src/draw/sw/lv_draw_sw_rect.c ****             }
 2321              		.loc 1 618 17 discriminator 2 view .LVU871
 618:lvgl/src/draw/sw/lv_draw_sw_rect.c ****             }
 2322              		.loc 1 618 28 is_stmt 0 discriminator 2 view .LVU872
 2323 05b6 4C44     		add	r4, r4, r9
 2324              	.LVL216:
 605:lvgl/src/draw/sw/lv_draw_sw_rect.c ****                 blend_area.y1 = y;
 2325              		.loc 1 605 62 is_stmt 1 discriminator 2 view .LVU873
 605:lvgl/src/draw/sw/lv_draw_sw_rect.c ****                 blend_area.y1 = y;
 2326              		.loc 1 605 63 is_stmt 0 discriminator 2 view .LVU874
 2327 05b8 0AF1FF3A 		add	r10, r10, #-1
 2328              	.LVL217:
 605:lvgl/src/draw/sw/lv_draw_sw_rect.c ****                 blend_area.y1 = y;
 2329              		.loc 1 605 63 discriminator 2 view .LVU875
 2330 05bc 0FFA8AFA 		sxth	r10, r10
 2331              	.LVL218:
 2332              	.L104:
 605:lvgl/src/draw/sw/lv_draw_sw_rect.c ****                 blend_area.y1 = y;
 2333              		.loc 1 605 39 is_stmt 1 discriminator 1 view .LVU876
 605:lvgl/src/draw/sw/lv_draw_sw_rect.c ****                 blend_area.y1 = y;
 2334              		.loc 1 605 57 is_stmt 0 discriminator 1 view .LVU877
 2335 05c0 BDF95230 		ldrsh	r3, [sp, #82]
 605:lvgl/src/draw/sw/lv_draw_sw_rect.c ****                 blend_area.y1 = y;
 2336              		.loc 1 605 13 discriminator 1 view .LVU878
 2337 05c4 5345     		cmp	r3, r10
 2338 05c6 0BDC     		bgt	.L200
 606:lvgl/src/draw/sw/lv_draw_sw_rect.c ****                 blend_area.y2 = y;
 2339              		.loc 1 606 17 is_stmt 1 view .LVU879
 606:lvgl/src/draw/sw/lv_draw_sw_rect.c ****                 blend_area.y2 = y;
 2340              		.loc 1 606 31 is_stmt 0 view .LVU880
 2341 05c8 ADF85AA0 		strh	r10, [sp, #90]	@ movhi
 607:lvgl/src/draw/sw/lv_draw_sw_rect.c **** 
 2342              		.loc 1 607 17 is_stmt 1 view .LVU881
 607:lvgl/src/draw/sw/lv_draw_sw_rect.c **** 
 2343              		.loc 1 607 31 is_stmt 0 view .LVU882
 2344 05cc ADF85EA0 		strh	r10, [sp, #94]	@ movhi
 609:lvgl/src/draw/sw/lv_draw_sw_rect.c ****                     lv_memcpy(mask_buf, sh_buf_tmp, corner_size);
 2345              		.loc 1 609 17 is_stmt 1 view .LVU883
 609:lvgl/src/draw/sw/lv_draw_sw_rect.c ****                     lv_memcpy(mask_buf, sh_buf_tmp, corner_size);
 2346              		.loc 1 609 19 is_stmt 0 view .LVU884
 2347 05d0 002D     		cmp	r5, #0
 2348 05d2 DCD0     		beq	.L201
 615:lvgl/src/draw/sw/lv_draw_sw_rect.c ****                 }
 2349              		.loc 1 615 21 is_stmt 1 view .LVU885
 615:lvgl/src/draw/sw/lv_draw_sw_rect.c ****                 }
 2350              		.loc 1 615 40 is_stmt 0 view .LVU886
 2351 05d4 1094     		str	r4, [sp, #64]
 2352 05d6 EAE7     		b	.L106
 2353              	.L199:
 612:lvgl/src/draw/sw/lv_draw_sw_rect.c ****                 }
 2354              		.loc 1 612 75 is_stmt 1 discriminator 1 view .LVU887
 612:lvgl/src/draw/sw/lv_draw_sw_rect.c ****                 }
 2355              		.loc 1 612 94 is_stmt 0 discriminator 1 view .LVU888
ARM GAS  C:\Users\OSD\AppData\Local\Temp\ccS6lZqb.s 			page 83


 2356 05d8 0223     		movs	r3, #2
 2357 05da 8DF84430 		strb	r3, [sp, #68]
 2358 05de E6E7     		b	.L106
 2359              	.L200:
 612:lvgl/src/draw/sw/lv_draw_sw_rect.c ****                 }
 2360              		.loc 1 612 94 discriminator 1 view .LVU889
 2361 05e0 0A9F     		ldr	r7, [sp, #40]
 2362 05e2 4C46     		mov	r4, r9
 2363              	.LVL219:
 612:lvgl/src/draw/sw/lv_draw_sw_rect.c ****                 }
 2364              		.loc 1 612 94 discriminator 1 view .LVU890
 2365 05e4 DDF82490 		ldr	r9, [sp, #36]
 2366              	.LVL220:
 612:lvgl/src/draw/sw/lv_draw_sw_rect.c ****                 }
 2367              		.loc 1 612 94 discriminator 1 view .LVU891
 2368 05e8 5D46     		mov	r5, fp
 2369 05ea 74E6     		b	.L102
 2370              	.LVL221:
 2371              	.L191:
 612:lvgl/src/draw/sw/lv_draw_sw_rect.c ****                 }
 2372              		.loc 1 612 94 discriminator 1 view .LVU892
 2373              	.LBE153:
 631:lvgl/src/draw/sw/lv_draw_sw_rect.c ****         lv_coord_t w = lv_area_get_width(&clip_area_sub);
 2374              		.loc 1 631 9 discriminator 1 view .LVU893
 2375 05ec BDF904A0 		ldrsh	r10, [sp, #4]
 2376 05f0 5246     		mov	r2, r10
 2377 05f2 1EA9     		add	r1, sp, #120
 2378 05f4 14A8     		add	r0, sp, #80
 2379 05f6 FFF7FEFF 		bl	_lv_area_is_in
 2380              	.LVL222:
 630:lvgl/src/draw/sw/lv_draw_sw_rect.c ****        !_lv_area_is_in(&clip_area_sub, &bg_area, r_bg)) {
 2381              		.loc 1 630 77 discriminator 1 view .LVU894
 2382 05fa 0028     		cmp	r0, #0
 2383 05fc 7FF48DAE 		bne	.L108
 2384              	.LBB156:
 632:lvgl/src/draw/sw/lv_draw_sw_rect.c ****         sh_buf_tmp = sh_buf;
 2385              		.loc 1 632 9 is_stmt 1 view .LVU895
 2386              	.LVL223:
 2387              	.LBB157:
 2388              	.LBI157:
 123:lvgl/src/draw/sw/../../misc/lv_area.h **** {
 2389              		.loc 2 123 26 view .LVU896
 2390              	.LBB158:
 125:lvgl/src/draw/sw/../../misc/lv_area.h **** }
 2391              		.loc 2 125 5 view .LVU897
 125:lvgl/src/draw/sw/../../misc/lv_area.h **** }
 2392              		.loc 2 125 31 is_stmt 0 view .LVU898
 2393 0600 BDF85430 		ldrh	r3, [sp, #84]
 125:lvgl/src/draw/sw/../../misc/lv_area.h **** }
 2394              		.loc 2 125 44 view .LVU899
 2395 0604 BDF85020 		ldrh	r2, [sp, #80]
 125:lvgl/src/draw/sw/../../misc/lv_area.h **** }
 2396              		.loc 2 125 36 view .LVU900
 2397 0608 9B1A     		subs	r3, r3, r2
 2398 060a 9BB2     		uxth	r3, r3
 125:lvgl/src/draw/sw/../../misc/lv_area.h **** }
 2399              		.loc 2 125 49 view .LVU901
ARM GAS  C:\Users\OSD\AppData\Local\Temp\ccS6lZqb.s 			page 84


 2400 060c 0133     		adds	r3, r3, #1
 125:lvgl/src/draw/sw/../../misc/lv_area.h **** }
 2401              		.loc 2 125 12 view .LVU902
 2402 060e 1BB2     		sxth	r3, r3
 2403 0610 0893     		str	r3, [sp, #32]
 2404              	.LVL224:
 125:lvgl/src/draw/sw/../../misc/lv_area.h **** }
 2405              		.loc 2 125 12 view .LVU903
 2406              	.LBE158:
 2407              	.LBE157:
 633:lvgl/src/draw/sw/lv_draw_sw_rect.c ****         sh_buf_tmp += (clip_area_sub.y1 - blend_area.y1) * corner_size;
 2408              		.loc 1 633 9 is_stmt 1 view .LVU904
 634:lvgl/src/draw/sw/lv_draw_sw_rect.c **** 
 2409              		.loc 1 634 9 view .LVU905
 634:lvgl/src/draw/sw/lv_draw_sw_rect.c **** 
 2410              		.loc 1 634 37 is_stmt 0 view .LVU906
 2411 0612 BDF952B0 		ldrsh	fp, [sp, #82]
 634:lvgl/src/draw/sw/lv_draw_sw_rect.c **** 
 2412              		.loc 1 634 53 view .LVU907
 2413 0616 BDF95A30 		ldrsh	r3, [sp, #90]
 634:lvgl/src/draw/sw/lv_draw_sw_rect.c **** 
 2414              		.loc 1 634 41 view .LVU908
 2415 061a ABEB030B 		sub	fp, fp, r3
 634:lvgl/src/draw/sw/lv_draw_sw_rect.c **** 
 2416              		.loc 1 634 20 view .LVU909
 2417 061e 039B     		ldr	r3, [sp, #12]
 2418 0620 04FB0B3B 		mla	fp, r4, fp, r3
 2419              	.LVL225:
 637:lvgl/src/draw/sw/lv_draw_sw_rect.c ****         else simple_sub = simple;
 2420              		.loc 1 637 9 is_stmt 1 view .LVU910
 637:lvgl/src/draw/sw/lv_draw_sw_rect.c ****         else simple_sub = simple;
 2421              		.loc 1 637 11 is_stmt 0 view .LVU911
 2422 0624 009B     		ldr	r3, [sp]
 2423 0626 CBB9     		cbnz	r3, .L202
 2424 0628 009B     		ldr	r3, [sp]
 2425 062a 1A46     		mov	r2, r3
 2426              	.L109:
 2427              	.LVL226:
 640:lvgl/src/draw/sw/lv_draw_sw_rect.c ****             if(!simple_sub) {
 2428              		.loc 1 640 9 is_stmt 1 view .LVU912
 640:lvgl/src/draw/sw/lv_draw_sw_rect.c ****             if(!simple_sub) {
 2429              		.loc 1 640 11 is_stmt 0 view .LVU913
 2430 062c 089B     		ldr	r3, [sp, #32]
 2431 062e 002B     		cmp	r3, #0
 2432 0630 7FF773AE 		ble	.L108
 641:lvgl/src/draw/sw/lv_draw_sw_rect.c ****                 blend_dsc.mask_buf = mask_buf;
 2433              		.loc 1 641 13 is_stmt 1 view .LVU914
 641:lvgl/src/draw/sw/lv_draw_sw_rect.c ****                 blend_dsc.mask_buf = mask_buf;
 2434              		.loc 1 641 15 is_stmt 0 view .LVU915
 2435 0634 EAB9     		cbnz	r2, .L110
 642:lvgl/src/draw/sw/lv_draw_sw_rect.c ****             }
 2436              		.loc 1 642 17 is_stmt 1 view .LVU916
 642:lvgl/src/draw/sw/lv_draw_sw_rect.c ****             }
 2437              		.loc 1 642 36 is_stmt 0 view .LVU917
 2438 0636 049B     		ldr	r3, [sp, #16]
 2439 0638 1093     		str	r3, [sp, #64]
 2440              	.L111:
ARM GAS  C:\Users\OSD\AppData\Local\Temp\ccS6lZqb.s 			page 85


 647:lvgl/src/draw/sw/lv_draw_sw_rect.c ****             blend_area.x2 = clip_area_sub.x2;
 2441              		.loc 1 647 13 is_stmt 1 view .LVU918
 647:lvgl/src/draw/sw/lv_draw_sw_rect.c ****             blend_area.x2 = clip_area_sub.x2;
 2442              		.loc 1 647 42 is_stmt 0 view .LVU919
 2443 063a BDF95030 		ldrsh	r3, [sp, #80]
 647:lvgl/src/draw/sw/lv_draw_sw_rect.c ****             blend_area.x2 = clip_area_sub.x2;
 2444              		.loc 1 647 27 view .LVU920
 2445 063e ADF85830 		strh	r3, [sp, #88]	@ movhi
 648:lvgl/src/draw/sw/lv_draw_sw_rect.c **** 
 2446              		.loc 1 648 13 is_stmt 1 view .LVU921
 648:lvgl/src/draw/sw/lv_draw_sw_rect.c **** 
 2447              		.loc 1 648 42 is_stmt 0 view .LVU922
 2448 0642 BDF95430 		ldrsh	r3, [sp, #84]
 648:lvgl/src/draw/sw/lv_draw_sw_rect.c **** 
 2449              		.loc 1 648 27 view .LVU923
 2450 0646 ADF85C30 		strh	r3, [sp, #92]	@ movhi
 650:lvgl/src/draw/sw/lv_draw_sw_rect.c ****                 blend_area.y1 = y;
 2451              		.loc 1 650 13 is_stmt 1 view .LVU924
 650:lvgl/src/draw/sw/lv_draw_sw_rect.c ****                 blend_area.y1 = y;
 2452              		.loc 1 650 19 is_stmt 0 view .LVU925
 2453 064a BDF952A0 		ldrsh	r10, [sp, #82]
 2454              	.LVL227:
 650:lvgl/src/draw/sw/lv_draw_sw_rect.c ****                 blend_area.y1 = y;
 2455              		.loc 1 650 19 view .LVU926
 2456 064e 0997     		str	r7, [sp, #36]
 2457 0650 1746     		mov	r7, r2
 2458 0652 CDF82880 		str	r8, [sp, #40]
 2459 0656 DDF81080 		ldr	r8, [sp, #16]
 2460              	.LVL228:
 650:lvgl/src/draw/sw/lv_draw_sw_rect.c ****                 blend_area.y1 = y;
 2461              		.loc 1 650 13 view .LVU927
 2462 065a 34E0     		b	.L112
 2463              	.LVL229:
 2464              	.L202:
 637:lvgl/src/draw/sw/lv_draw_sw_rect.c ****         else simple_sub = simple;
 2465              		.loc 1 637 22 discriminator 1 view .LVU928
 2466 065c 5246     		mov	r2, r10
 2467 065e 1EA9     		add	r1, sp, #120
 2468 0660 14A8     		add	r0, sp, #80
 2469 0662 FFF7FEFF 		bl	_lv_area_is_out
 2470              	.LVL230:
 637:lvgl/src/draw/sw/lv_draw_sw_rect.c ****         else simple_sub = simple;
 2471              		.loc 1 637 19 discriminator 1 view .LVU929
 2472 0666 0246     		mov	r2, r0
 2473 0668 0028     		cmp	r0, #0
 2474 066a DFD1     		bne	.L109
 2475 066c 009B     		ldr	r3, [sp]
 2476 066e 1A46     		mov	r2, r3
 2477 0670 DCE7     		b	.L109
 2478              	.LVL231:
 2479              	.L110:
 645:lvgl/src/draw/sw/lv_draw_sw_rect.c ****             }
 2480              		.loc 1 645 17 is_stmt 1 view .LVU930
 645:lvgl/src/draw/sw/lv_draw_sw_rect.c ****             }
 2481              		.loc 1 645 36 is_stmt 0 view .LVU931
 2482 0672 0023     		movs	r3, #0
 2483 0674 1093     		str	r3, [sp, #64]
ARM GAS  C:\Users\OSD\AppData\Local\Temp\ccS6lZqb.s 			page 86


 2484 0676 E0E7     		b	.L111
 2485              	.LVL232:
 2486              	.L205:
 655:lvgl/src/draw/sw/lv_draw_sw_rect.c ****                     blend_dsc.mask_res = lv_draw_mask_apply(mask_buf, clip_area_sub.x1, y, w);
 2487              		.loc 1 655 21 is_stmt 1 view .LVU932
 2488 0678 089A     		ldr	r2, [sp, #32]
 2489 067a 9BF80010 		ldrb	r1, [fp]	@ zero_extendqisi2
 2490 067e 4046     		mov	r0, r8
 2491 0680 FFF7FEFF 		bl	lv_memset
 2492              	.LVL233:
 656:lvgl/src/draw/sw/lv_draw_sw_rect.c ****                     if(blend_dsc.mask_res == LV_DRAW_MASK_RES_FULL_COVER) blend_dsc.mask_res = LV_D
 2493              		.loc 1 656 21 view .LVU933
 656:lvgl/src/draw/sw/lv_draw_sw_rect.c ****                     if(blend_dsc.mask_res == LV_DRAW_MASK_RES_FULL_COVER) blend_dsc.mask_res = LV_D
 2494              		.loc 1 656 42 is_stmt 0 view .LVU934
 2495 0684 089B     		ldr	r3, [sp, #32]
 2496 0686 5246     		mov	r2, r10
 2497 0688 BDF95010 		ldrsh	r1, [sp, #80]
 2498 068c 4046     		mov	r0, r8
 2499 068e FFF7FEFF 		bl	lv_draw_mask_apply
 2500              	.LVL234:
 656:lvgl/src/draw/sw/lv_draw_sw_rect.c ****                     if(blend_dsc.mask_res == LV_DRAW_MASK_RES_FULL_COVER) blend_dsc.mask_res = LV_D
 2501              		.loc 1 656 40 view .LVU935
 2502 0692 8DF84400 		strb	r0, [sp, #68]
 657:lvgl/src/draw/sw/lv_draw_sw_rect.c ****                     lv_draw_sw_blend(draw_ctx, &blend_dsc);
 2503              		.loc 1 657 21 is_stmt 1 view .LVU936
 657:lvgl/src/draw/sw/lv_draw_sw_rect.c ****                     lv_draw_sw_blend(draw_ctx, &blend_dsc);
 2504              		.loc 1 657 23 is_stmt 0 view .LVU937
 2505 0696 0128     		cmp	r0, #1
 2506 0698 04D0     		beq	.L203
 2507              	.L114:
 658:lvgl/src/draw/sw/lv_draw_sw_rect.c ****                 }
 2508              		.loc 1 658 21 is_stmt 1 view .LVU938
 2509 069a 0DA9     		add	r1, sp, #52
 2510 069c 3046     		mov	r0, r6
 2511 069e FFF7FEFF 		bl	lv_draw_sw_blend
 2512              	.LVL235:
 2513 06a2 0BE0     		b	.L115
 2514              	.L203:
 657:lvgl/src/draw/sw/lv_draw_sw_rect.c ****                     lv_draw_sw_blend(draw_ctx, &blend_dsc);
 2515              		.loc 1 657 75 discriminator 1 view .LVU939
 657:lvgl/src/draw/sw/lv_draw_sw_rect.c ****                     lv_draw_sw_blend(draw_ctx, &blend_dsc);
 2516              		.loc 1 657 94 is_stmt 0 discriminator 1 view .LVU940
 2517 06a4 0223     		movs	r3, #2
 2518 06a6 8DF84430 		strb	r3, [sp, #68]
 2519 06aa F6E7     		b	.L114
 2520              	.L206:
 661:lvgl/src/draw/sw/lv_draw_sw_rect.c ****                     lv_draw_sw_blend(draw_ctx, &blend_dsc);
 2521              		.loc 1 661 35 discriminator 1 view .LVU941
 2522 06ac 9BF80030 		ldrb	r3, [fp]	@ zero_extendqisi2
 2523              	.L117:
 661:lvgl/src/draw/sw/lv_draw_sw_rect.c ****                     lv_draw_sw_blend(draw_ctx, &blend_dsc);
 2524              		.loc 1 661 35 discriminator 4 view .LVU942
 2525 06b0 8DF84C30 		strb	r3, [sp, #76]
 662:lvgl/src/draw/sw/lv_draw_sw_rect.c ****                 }
 2526              		.loc 1 662 21 is_stmt 1 discriminator 4 view .LVU943
 2527 06b4 0DA9     		add	r1, sp, #52
 2528 06b6 3046     		mov	r0, r6
ARM GAS  C:\Users\OSD\AppData\Local\Temp\ccS6lZqb.s 			page 87


 2529 06b8 FFF7FEFF 		bl	lv_draw_sw_blend
 2530              	.LVL236:
 2531              	.L115:
 664:lvgl/src/draw/sw/lv_draw_sw_rect.c ****             }
 2532              		.loc 1 664 17 discriminator 2 view .LVU944
 664:lvgl/src/draw/sw/lv_draw_sw_rect.c ****             }
 2533              		.loc 1 664 28 is_stmt 0 discriminator 2 view .LVU945
 2534 06bc A344     		add	fp, fp, r4
 2535              	.LVL237:
 650:lvgl/src/draw/sw/lv_draw_sw_rect.c ****                 blend_area.y1 = y;
 2536              		.loc 1 650 62 is_stmt 1 discriminator 2 view .LVU946
 650:lvgl/src/draw/sw/lv_draw_sw_rect.c ****                 blend_area.y1 = y;
 2537              		.loc 1 650 63 is_stmt 0 discriminator 2 view .LVU947
 2538 06be 0AF1010A 		add	r10, r10, #1
 2539              	.LVL238:
 650:lvgl/src/draw/sw/lv_draw_sw_rect.c ****                 blend_area.y1 = y;
 2540              		.loc 1 650 63 discriminator 2 view .LVU948
 2541 06c2 0FFA8AFA 		sxth	r10, r10
 2542              	.LVL239:
 2543              	.L112:
 650:lvgl/src/draw/sw/lv_draw_sw_rect.c ****                 blend_area.y1 = y;
 2544              		.loc 1 650 39 is_stmt 1 discriminator 1 view .LVU949
 650:lvgl/src/draw/sw/lv_draw_sw_rect.c ****                 blend_area.y1 = y;
 2545              		.loc 1 650 57 is_stmt 0 discriminator 1 view .LVU950
 2546 06c6 BDF95630 		ldrsh	r3, [sp, #86]
 650:lvgl/src/draw/sw/lv_draw_sw_rect.c ****                 blend_area.y1 = y;
 2547              		.loc 1 650 13 discriminator 1 view .LVU951
 2548 06ca 5345     		cmp	r3, r10
 2549 06cc 10DB     		blt	.L204
 651:lvgl/src/draw/sw/lv_draw_sw_rect.c ****                 blend_area.y2 = y;
 2550              		.loc 1 651 17 is_stmt 1 view .LVU952
 651:lvgl/src/draw/sw/lv_draw_sw_rect.c ****                 blend_area.y2 = y;
 2551              		.loc 1 651 31 is_stmt 0 view .LVU953
 2552 06ce ADF85AA0 		strh	r10, [sp, #90]	@ movhi
 652:lvgl/src/draw/sw/lv_draw_sw_rect.c **** 
 2553              		.loc 1 652 17 is_stmt 1 view .LVU954
 652:lvgl/src/draw/sw/lv_draw_sw_rect.c **** 
 2554              		.loc 1 652 31 is_stmt 0 view .LVU955
 2555 06d2 ADF85EA0 		strh	r10, [sp, #94]	@ movhi
 654:lvgl/src/draw/sw/lv_draw_sw_rect.c ****                     lv_memset(mask_buf, sh_buf_tmp[0], w);
 2556              		.loc 1 654 17 is_stmt 1 view .LVU956
 654:lvgl/src/draw/sw/lv_draw_sw_rect.c ****                     lv_memset(mask_buf, sh_buf_tmp[0], w);
 2557              		.loc 1 654 19 is_stmt 0 view .LVU957
 2558 06d6 002F     		cmp	r7, #0
 2559 06d8 CED0     		beq	.L205
 661:lvgl/src/draw/sw/lv_draw_sw_rect.c ****                     lv_draw_sw_blend(draw_ctx, &blend_dsc);
 2560              		.loc 1 661 21 is_stmt 1 view .LVU958
 661:lvgl/src/draw/sw/lv_draw_sw_rect.c ****                     lv_draw_sw_blend(draw_ctx, &blend_dsc);
 2561              		.loc 1 661 35 is_stmt 0 view .LVU959
 2562 06da B9F1FF0F 		cmp	r9, #255
 2563 06de E5D0     		beq	.L206
 661:lvgl/src/draw/sw/lv_draw_sw_rect.c ****                     lv_draw_sw_blend(draw_ctx, &blend_dsc);
 2564              		.loc 1 661 86 discriminator 2 view .LVU960
 2565 06e0 9BF80030 		ldrb	r3, [fp]	@ zero_extendqisi2
 661:lvgl/src/draw/sw/lv_draw_sw_rect.c ****                     lv_draw_sw_blend(draw_ctx, &blend_dsc);
 2566              		.loc 1 661 95 discriminator 2 view .LVU961
 2567 06e4 95F84C20 		ldrb	r2, [r5, #76]	@ zero_extendqisi2
ARM GAS  C:\Users\OSD\AppData\Local\Temp\ccS6lZqb.s 			page 88


 661:lvgl/src/draw/sw/lv_draw_sw_rect.c ****                     lv_draw_sw_blend(draw_ctx, &blend_dsc);
 2568              		.loc 1 661 90 discriminator 2 view .LVU962
 2569 06e8 02FB03F3 		mul	r3, r2, r3
 661:lvgl/src/draw/sw/lv_draw_sw_rect.c ****                     lv_draw_sw_blend(draw_ctx, &blend_dsc);
 2570              		.loc 1 661 35 discriminator 2 view .LVU963
 2571 06ec 1B0A     		lsrs	r3, r3, #8
 2572 06ee DFE7     		b	.L117
 2573              	.L204:
 661:lvgl/src/draw/sw/lv_draw_sw_rect.c ****                     lv_draw_sw_blend(draw_ctx, &blend_dsc);
 2574              		.loc 1 661 35 discriminator 2 view .LVU964
 2575 06f0 099F     		ldr	r7, [sp, #36]
 2576 06f2 DDF82880 		ldr	r8, [sp, #40]
 2577 06f6 10E6     		b	.L108
 2578              	.LVL240:
 2579              	.L192:
 661:lvgl/src/draw/sw/lv_draw_sw_rect.c ****                     lv_draw_sw_blend(draw_ctx, &blend_dsc);
 2580              		.loc 1 661 35 discriminator 2 view .LVU965
 2581              	.LBE156:
 678:lvgl/src/draw/sw/lv_draw_sw_rect.c ****         lv_coord_t w = lv_area_get_width(&clip_area_sub);
 2582              		.loc 1 678 9 discriminator 1 view .LVU966
 2583 06f8 BDF90430 		ldrsh	r3, [sp, #4]
 2584 06fc 0893     		str	r3, [sp, #32]
 2585 06fe 1A46     		mov	r2, r3
 2586 0700 1EA9     		add	r1, sp, #120
 2587 0702 14A8     		add	r0, sp, #80
 2588 0704 FFF7FEFF 		bl	_lv_area_is_in
 2589              	.LVL241:
 677:lvgl/src/draw/sw/lv_draw_sw_rect.c ****        !_lv_area_is_in(&clip_area_sub, &bg_area, r_bg)) {
 2590              		.loc 1 677 77 discriminator 1 view .LVU967
 2591 0708 0028     		cmp	r0, #0
 2592 070a 7FF42DAE 		bne	.L119
 2593              	.LBB159:
 679:lvgl/src/draw/sw/lv_draw_sw_rect.c ****         sh_buf_tmp = sh_buf;
 2594              		.loc 1 679 9 is_stmt 1 view .LVU968
 2595              	.LVL242:
 2596              	.LBB160:
 2597              	.LBI160:
 123:lvgl/src/draw/sw/../../misc/lv_area.h **** {
 2598              		.loc 2 123 26 view .LVU969
 2599              	.LBB161:
 125:lvgl/src/draw/sw/../../misc/lv_area.h **** }
 2600              		.loc 2 125 5 view .LVU970
 125:lvgl/src/draw/sw/../../misc/lv_area.h **** }
 2601              		.loc 2 125 31 is_stmt 0 view .LVU971
 2602 070e BDF85430 		ldrh	r3, [sp, #84]
 125:lvgl/src/draw/sw/../../misc/lv_area.h **** }
 2603              		.loc 2 125 44 view .LVU972
 2604 0712 BDF85020 		ldrh	r2, [sp, #80]
 125:lvgl/src/draw/sw/../../misc/lv_area.h **** }
 2605              		.loc 2 125 36 view .LVU973
 2606 0716 9B1A     		subs	r3, r3, r2
 2607 0718 9BB2     		uxth	r3, r3
 125:lvgl/src/draw/sw/../../misc/lv_area.h **** }
 2608              		.loc 2 125 49 view .LVU974
 2609 071a 0133     		adds	r3, r3, #1
 125:lvgl/src/draw/sw/../../misc/lv_area.h **** }
 2610              		.loc 2 125 12 view .LVU975
ARM GAS  C:\Users\OSD\AppData\Local\Temp\ccS6lZqb.s 			page 89


 2611 071c 1AB2     		sxth	r2, r3
 2612 071e 0992     		str	r2, [sp, #36]
 2613              	.LVL243:
 125:lvgl/src/draw/sw/../../misc/lv_area.h **** }
 2614              		.loc 2 125 12 view .LVU976
 2615              	.LBE161:
 2616              	.LBE160:
 680:lvgl/src/draw/sw/lv_draw_sw_rect.c ****         sh_buf_tmp += (blend_area.y2 - clip_area_sub.y2) * corner_size;
 2617              		.loc 1 680 9 is_stmt 1 view .LVU977
 681:lvgl/src/draw/sw/lv_draw_sw_rect.c ****         if(w > 0) {
 2618              		.loc 1 681 9 view .LVU978
 681:lvgl/src/draw/sw/lv_draw_sw_rect.c ****         if(w > 0) {
 2619              		.loc 1 681 34 is_stmt 0 view .LVU979
 2620 0720 BDF95EB0 		ldrsh	fp, [sp, #94]
 681:lvgl/src/draw/sw/lv_draw_sw_rect.c ****         if(w > 0) {
 2621              		.loc 1 681 53 view .LVU980
 2622 0724 BDF95630 		ldrsh	r3, [sp, #86]
 681:lvgl/src/draw/sw/lv_draw_sw_rect.c ****         if(w > 0) {
 2623              		.loc 1 681 38 view .LVU981
 2624 0728 ABEB030B 		sub	fp, fp, r3
 681:lvgl/src/draw/sw/lv_draw_sw_rect.c ****         if(w > 0) {
 2625              		.loc 1 681 20 view .LVU982
 2626 072c 039B     		ldr	r3, [sp, #12]
 2627 072e 04FB0B3B 		mla	fp, r4, fp, r3
 2628              	.LVL244:
 682:lvgl/src/draw/sw/lv_draw_sw_rect.c ****             /*Do not mask if out of the bg*/
 2629              		.loc 1 682 9 is_stmt 1 view .LVU983
 682:lvgl/src/draw/sw/lv_draw_sw_rect.c ****             /*Do not mask if out of the bg*/
 2630              		.loc 1 682 11 is_stmt 0 view .LVU984
 2631 0732 002A     		cmp	r2, #0
 2632 0734 7FF718AE 		ble	.L119
 684:lvgl/src/draw/sw/lv_draw_sw_rect.c ****             else simple_sub = simple;
 2633              		.loc 1 684 13 is_stmt 1 view .LVU985
 684:lvgl/src/draw/sw/lv_draw_sw_rect.c ****             else simple_sub = simple;
 2634              		.loc 1 684 15 is_stmt 0 view .LVU986
 2635 0738 009B     		ldr	r3, [sp]
 2636 073a 23B9     		cbnz	r3, .L207
 2637              	.LVL245:
 2638              	.L120:
 685:lvgl/src/draw/sw/lv_draw_sw_rect.c **** 
 2639              		.loc 1 685 18 is_stmt 1 view .LVU987
 687:lvgl/src/draw/sw/lv_draw_sw_rect.c ****                 blend_dsc.mask_buf = mask_buf;
 2640              		.loc 1 687 13 view .LVU988
 687:lvgl/src/draw/sw/lv_draw_sw_rect.c ****                 blend_dsc.mask_buf = mask_buf;
 2641              		.loc 1 687 15 is_stmt 0 view .LVU989
 2642 073c 009B     		ldr	r3, [sp]
 2643 073e 4BB9     		cbnz	r3, .L121
 688:lvgl/src/draw/sw/lv_draw_sw_rect.c ****             }
 2644              		.loc 1 688 17 is_stmt 1 view .LVU990
 688:lvgl/src/draw/sw/lv_draw_sw_rect.c ****             }
 2645              		.loc 1 688 36 is_stmt 0 view .LVU991
 2646 0740 049B     		ldr	r3, [sp, #16]
 2647 0742 1093     		str	r3, [sp, #64]
 2648 0744 08E0     		b	.L122
 2649              	.LVL246:
 2650              	.L207:
 684:lvgl/src/draw/sw/lv_draw_sw_rect.c ****             else simple_sub = simple;
ARM GAS  C:\Users\OSD\AppData\Local\Temp\ccS6lZqb.s 			page 90


 2651              		.loc 1 684 26 discriminator 1 view .LVU992
 2652 0746 089A     		ldr	r2, [sp, #32]
 2653              	.LVL247:
 684:lvgl/src/draw/sw/lv_draw_sw_rect.c ****             else simple_sub = simple;
 2654              		.loc 1 684 26 discriminator 1 view .LVU993
 2655 0748 1EA9     		add	r1, sp, #120
 2656 074a 14A8     		add	r0, sp, #80
 2657 074c FFF7FEFF 		bl	_lv_area_is_out
 2658              	.LVL248:
 684:lvgl/src/draw/sw/lv_draw_sw_rect.c ****             else simple_sub = simple;
 2659              		.loc 1 684 23 discriminator 1 view .LVU994
 2660 0750 0028     		cmp	r0, #0
 2661 0752 F3D0     		beq	.L120
 2662              	.L121:
 691:lvgl/src/draw/sw/lv_draw_sw_rect.c ****             }
 2663              		.loc 1 691 17 is_stmt 1 view .LVU995
 691:lvgl/src/draw/sw/lv_draw_sw_rect.c ****             }
 2664              		.loc 1 691 36 is_stmt 0 view .LVU996
 2665 0754 0023     		movs	r3, #0
 2666 0756 1093     		str	r3, [sp, #64]
 2667              	.L122:
 693:lvgl/src/draw/sw/lv_draw_sw_rect.c ****             blend_area.x2 = clip_area_sub.x2;
 2668              		.loc 1 693 13 is_stmt 1 view .LVU997
 693:lvgl/src/draw/sw/lv_draw_sw_rect.c ****             blend_area.x2 = clip_area_sub.x2;
 2669              		.loc 1 693 42 is_stmt 0 view .LVU998
 2670 0758 BDF95030 		ldrsh	r3, [sp, #80]
 693:lvgl/src/draw/sw/lv_draw_sw_rect.c ****             blend_area.x2 = clip_area_sub.x2;
 2671              		.loc 1 693 27 view .LVU999
 2672 075c ADF85830 		strh	r3, [sp, #88]	@ movhi
 694:lvgl/src/draw/sw/lv_draw_sw_rect.c **** 
 2673              		.loc 1 694 13 is_stmt 1 view .LVU1000
 694:lvgl/src/draw/sw/lv_draw_sw_rect.c **** 
 2674              		.loc 1 694 42 is_stmt 0 view .LVU1001
 2675 0760 BDF95430 		ldrsh	r3, [sp, #84]
 694:lvgl/src/draw/sw/lv_draw_sw_rect.c **** 
 2676              		.loc 1 694 27 view .LVU1002
 2677 0764 ADF85C30 		strh	r3, [sp, #92]	@ movhi
 696:lvgl/src/draw/sw/lv_draw_sw_rect.c ****                 blend_area.y1 = y;
 2678              		.loc 1 696 13 is_stmt 1 view .LVU1003
 696:lvgl/src/draw/sw/lv_draw_sw_rect.c ****                 blend_area.y1 = y;
 2679              		.loc 1 696 19 is_stmt 0 view .LVU1004
 2680 0768 BDF956A0 		ldrsh	r10, [sp, #86]
 2681              	.LVL249:
 696:lvgl/src/draw/sw/lv_draw_sw_rect.c ****                 blend_area.y1 = y;
 2682              		.loc 1 696 19 view .LVU1005
 2683 076c 0A97     		str	r7, [sp, #40]
 2684 076e 009F     		ldr	r7, [sp]
 2685 0770 CDF82C80 		str	r8, [sp, #44]
 2686 0774 DDF81080 		ldr	r8, [sp, #16]
 696:lvgl/src/draw/sw/lv_draw_sw_rect.c ****                 blend_area.y1 = y;
 2687              		.loc 1 696 13 view .LVU1006
 2688 0778 2DE0     		b	.L123
 2689              	.L210:
 701:lvgl/src/draw/sw/lv_draw_sw_rect.c ****                 else simple_sub = simple;
 2690              		.loc 1 701 30 discriminator 1 view .LVU1007
 2691 077a 089A     		ldr	r2, [sp, #32]
 2692 077c 1EA9     		add	r1, sp, #120
ARM GAS  C:\Users\OSD\AppData\Local\Temp\ccS6lZqb.s 			page 91


 2693 077e 14A8     		add	r0, sp, #80
 2694 0780 FFF7FEFF 		bl	_lv_area_is_out
 2695              	.LVL250:
 701:lvgl/src/draw/sw/lv_draw_sw_rect.c ****                 else simple_sub = simple;
 2696              		.loc 1 701 27 discriminator 1 view .LVU1008
 2697 0784 98BB     		cbnz	r0, .L125
 2698 0786 30E0     		b	.L124
 2699              	.LVL251:
 2700              	.L211:
 705:lvgl/src/draw/sw/lv_draw_sw_rect.c ****                     blend_dsc.mask_res = lv_draw_mask_apply(mask_buf, clip_area_sub.x1, y, w);
 2701              		.loc 1 705 21 is_stmt 1 view .LVU1009
 2702 0788 099A     		ldr	r2, [sp, #36]
 2703 078a 9BF80010 		ldrb	r1, [fp]	@ zero_extendqisi2
 2704 078e 4046     		mov	r0, r8
 2705 0790 FFF7FEFF 		bl	lv_memset
 2706              	.LVL252:
 706:lvgl/src/draw/sw/lv_draw_sw_rect.c ****                     if(blend_dsc.mask_res == LV_DRAW_MASK_RES_FULL_COVER) blend_dsc.mask_res = LV_D
 2707              		.loc 1 706 21 view .LVU1010
 706:lvgl/src/draw/sw/lv_draw_sw_rect.c ****                     if(blend_dsc.mask_res == LV_DRAW_MASK_RES_FULL_COVER) blend_dsc.mask_res = LV_D
 2708              		.loc 1 706 42 is_stmt 0 view .LVU1011
 2709 0794 099B     		ldr	r3, [sp, #36]
 2710 0796 5246     		mov	r2, r10
 2711 0798 BDF95010 		ldrsh	r1, [sp, #80]
 2712 079c 4046     		mov	r0, r8
 2713 079e FFF7FEFF 		bl	lv_draw_mask_apply
 2714              	.LVL253:
 706:lvgl/src/draw/sw/lv_draw_sw_rect.c ****                     if(blend_dsc.mask_res == LV_DRAW_MASK_RES_FULL_COVER) blend_dsc.mask_res = LV_D
 2715              		.loc 1 706 40 view .LVU1012
 2716 07a2 8DF84400 		strb	r0, [sp, #68]
 707:lvgl/src/draw/sw/lv_draw_sw_rect.c ****                     lv_draw_sw_blend(draw_ctx, &blend_dsc);
 2717              		.loc 1 707 21 is_stmt 1 view .LVU1013
 707:lvgl/src/draw/sw/lv_draw_sw_rect.c ****                     lv_draw_sw_blend(draw_ctx, &blend_dsc);
 2718              		.loc 1 707 23 is_stmt 0 view .LVU1014
 2719 07a6 0128     		cmp	r0, #1
 2720 07a8 04D0     		beq	.L208
 2721              	.L126:
 708:lvgl/src/draw/sw/lv_draw_sw_rect.c ****                 }
 2722              		.loc 1 708 21 is_stmt 1 view .LVU1015
 2723 07aa 0DA9     		add	r1, sp, #52
 2724 07ac 3046     		mov	r0, r6
 2725 07ae FFF7FEFF 		bl	lv_draw_sw_blend
 2726              	.LVL254:
 2727 07b2 0BE0     		b	.L127
 2728              	.L208:
 707:lvgl/src/draw/sw/lv_draw_sw_rect.c ****                     lv_draw_sw_blend(draw_ctx, &blend_dsc);
 2729              		.loc 1 707 75 discriminator 1 view .LVU1016
 707:lvgl/src/draw/sw/lv_draw_sw_rect.c ****                     lv_draw_sw_blend(draw_ctx, &blend_dsc);
 2730              		.loc 1 707 94 is_stmt 0 discriminator 1 view .LVU1017
 2731 07b4 0223     		movs	r3, #2
 2732 07b6 8DF84430 		strb	r3, [sp, #68]
 2733 07ba F6E7     		b	.L126
 2734              	.LVL255:
 2735              	.L212:
 711:lvgl/src/draw/sw/lv_draw_sw_rect.c ****                     lv_draw_sw_blend(draw_ctx, &blend_dsc);
 2736              		.loc 1 711 35 discriminator 1 view .LVU1018
 2737 07bc 9BF80030 		ldrb	r3, [fp]	@ zero_extendqisi2
 2738              	.L129:
ARM GAS  C:\Users\OSD\AppData\Local\Temp\ccS6lZqb.s 			page 92


 711:lvgl/src/draw/sw/lv_draw_sw_rect.c ****                     lv_draw_sw_blend(draw_ctx, &blend_dsc);
 2739              		.loc 1 711 35 discriminator 4 view .LVU1019
 2740 07c0 8DF84C30 		strb	r3, [sp, #76]
 712:lvgl/src/draw/sw/lv_draw_sw_rect.c **** 
 2741              		.loc 1 712 21 is_stmt 1 discriminator 4 view .LVU1020
 2742 07c4 0DA9     		add	r1, sp, #52
 2743 07c6 3046     		mov	r0, r6
 2744 07c8 FFF7FEFF 		bl	lv_draw_sw_blend
 2745              	.LVL256:
 2746              	.L127:
 715:lvgl/src/draw/sw/lv_draw_sw_rect.c ****             }
 2747              		.loc 1 715 17 discriminator 2 view .LVU1021
 715:lvgl/src/draw/sw/lv_draw_sw_rect.c ****             }
 2748              		.loc 1 715 28 is_stmt 0 discriminator 2 view .LVU1022
 2749 07cc A344     		add	fp, fp, r4
 2750              	.LVL257:
 696:lvgl/src/draw/sw/lv_draw_sw_rect.c ****                 blend_area.y1 = y;
 2751              		.loc 1 696 62 is_stmt 1 discriminator 2 view .LVU1023
 696:lvgl/src/draw/sw/lv_draw_sw_rect.c ****                 blend_area.y1 = y;
 2752              		.loc 1 696 63 is_stmt 0 discriminator 2 view .LVU1024
 2753 07ce 0AF1FF3A 		add	r10, r10, #-1
 2754              	.LVL258:
 696:lvgl/src/draw/sw/lv_draw_sw_rect.c ****                 blend_area.y1 = y;
 2755              		.loc 1 696 63 discriminator 2 view .LVU1025
 2756 07d2 0FFA8AFA 		sxth	r10, r10
 2757              	.LVL259:
 2758              	.L123:
 696:lvgl/src/draw/sw/lv_draw_sw_rect.c ****                 blend_area.y1 = y;
 2759              		.loc 1 696 39 is_stmt 1 discriminator 1 view .LVU1026
 696:lvgl/src/draw/sw/lv_draw_sw_rect.c ****                 blend_area.y1 = y;
 2760              		.loc 1 696 57 is_stmt 0 discriminator 1 view .LVU1027
 2761 07d6 BDF95230 		ldrsh	r3, [sp, #82]
 696:lvgl/src/draw/sw/lv_draw_sw_rect.c ****                 blend_area.y1 = y;
 2762              		.loc 1 696 13 discriminator 1 view .LVU1028
 2763 07da 5345     		cmp	r3, r10
 2764 07dc 12DC     		bgt	.L209
 697:lvgl/src/draw/sw/lv_draw_sw_rect.c ****                 blend_area.y2 = y;
 2765              		.loc 1 697 17 is_stmt 1 view .LVU1029
 697:lvgl/src/draw/sw/lv_draw_sw_rect.c ****                 blend_area.y2 = y;
 2766              		.loc 1 697 31 is_stmt 0 view .LVU1030
 2767 07de ADF85AA0 		strh	r10, [sp, #90]	@ movhi
 698:lvgl/src/draw/sw/lv_draw_sw_rect.c **** 
 2768              		.loc 1 698 17 is_stmt 1 view .LVU1031
 698:lvgl/src/draw/sw/lv_draw_sw_rect.c **** 
 2769              		.loc 1 698 31 is_stmt 0 view .LVU1032
 2770 07e2 ADF85EA0 		strh	r10, [sp, #94]	@ movhi
 701:lvgl/src/draw/sw/lv_draw_sw_rect.c ****                 else simple_sub = simple;
 2771              		.loc 1 701 17 is_stmt 1 view .LVU1033
 701:lvgl/src/draw/sw/lv_draw_sw_rect.c ****                 else simple_sub = simple;
 2772              		.loc 1 701 19 is_stmt 0 view .LVU1034
 2773 07e6 002F     		cmp	r7, #0
 2774 07e8 C7D1     		bne	.L210
 2775              	.L124:
 702:lvgl/src/draw/sw/lv_draw_sw_rect.c **** 
 2776              		.loc 1 702 22 is_stmt 1 view .LVU1035
 2777              	.LVL260:
 704:lvgl/src/draw/sw/lv_draw_sw_rect.c ****                     lv_memset(mask_buf, sh_buf_tmp[0], w);
ARM GAS  C:\Users\OSD\AppData\Local\Temp\ccS6lZqb.s 			page 93


 2778              		.loc 1 704 17 view .LVU1036
 704:lvgl/src/draw/sw/lv_draw_sw_rect.c ****                     lv_memset(mask_buf, sh_buf_tmp[0], w);
 2779              		.loc 1 704 19 is_stmt 0 view .LVU1037
 2780 07ea 002F     		cmp	r7, #0
 2781 07ec CCD0     		beq	.L211
 2782              	.LVL261:
 2783              	.L125:
 711:lvgl/src/draw/sw/lv_draw_sw_rect.c ****                     lv_draw_sw_blend(draw_ctx, &blend_dsc);
 2784              		.loc 1 711 21 is_stmt 1 view .LVU1038
 711:lvgl/src/draw/sw/lv_draw_sw_rect.c ****                     lv_draw_sw_blend(draw_ctx, &blend_dsc);
 2785              		.loc 1 711 35 is_stmt 0 view .LVU1039
 2786 07ee B9F1FF0F 		cmp	r9, #255
 2787 07f2 E3D0     		beq	.L212
 711:lvgl/src/draw/sw/lv_draw_sw_rect.c ****                     lv_draw_sw_blend(draw_ctx, &blend_dsc);
 2788              		.loc 1 711 86 discriminator 2 view .LVU1040
 2789 07f4 9BF80030 		ldrb	r3, [fp]	@ zero_extendqisi2
 711:lvgl/src/draw/sw/lv_draw_sw_rect.c ****                     lv_draw_sw_blend(draw_ctx, &blend_dsc);
 2790              		.loc 1 711 95 discriminator 2 view .LVU1041
 2791 07f8 95F84C20 		ldrb	r2, [r5, #76]	@ zero_extendqisi2
 711:lvgl/src/draw/sw/lv_draw_sw_rect.c ****                     lv_draw_sw_blend(draw_ctx, &blend_dsc);
 2792              		.loc 1 711 90 discriminator 2 view .LVU1042
 2793 07fc 02FB03F3 		mul	r3, r2, r3
 711:lvgl/src/draw/sw/lv_draw_sw_rect.c ****                     lv_draw_sw_blend(draw_ctx, &blend_dsc);
 2794              		.loc 1 711 35 discriminator 2 view .LVU1043
 2795 0800 1B0A     		lsrs	r3, r3, #8
 2796 0802 DDE7     		b	.L129
 2797              	.L209:
 711:lvgl/src/draw/sw/lv_draw_sw_rect.c ****                     lv_draw_sw_blend(draw_ctx, &blend_dsc);
 2798              		.loc 1 711 35 discriminator 2 view .LVU1044
 2799 0804 0A9F     		ldr	r7, [sp, #40]
 2800 0806 DDF82C80 		ldr	r8, [sp, #44]
 2801 080a ADE5     		b	.L119
 2802              	.LVL262:
 2803              	.L193:
 711:lvgl/src/draw/sw/lv_draw_sw_rect.c ****                     lv_draw_sw_blend(draw_ctx, &blend_dsc);
 2804              		.loc 1 711 35 discriminator 2 view .LVU1045
 2805              	.LBE159:
 733:lvgl/src/draw/sw/lv_draw_sw_rect.c ****         lv_coord_t w = lv_area_get_width(&clip_area_sub);
 2806              		.loc 1 733 9 discriminator 1 view .LVU1046
 2807 080c BDF90450 		ldrsh	r5, [sp, #4]
 2808              	.LVL263:
 733:lvgl/src/draw/sw/lv_draw_sw_rect.c ****         lv_coord_t w = lv_area_get_width(&clip_area_sub);
 2809              		.loc 1 733 9 discriminator 1 view .LVU1047
 2810 0810 2A46     		mov	r2, r5
 2811 0812 1EA9     		add	r1, sp, #120
 2812 0814 14A8     		add	r0, sp, #80
 2813 0816 FFF7FEFF 		bl	_lv_area_is_in
 2814              	.LVL264:
 732:lvgl/src/draw/sw/lv_draw_sw_rect.c ****        !_lv_area_is_in(&clip_area_sub, &bg_area, r_bg)) {
 2815              		.loc 1 732 77 discriminator 1 view .LVU1048
 2816 081a 0028     		cmp	r0, #0
 2817 081c 7FF4D9AD 		bne	.L132
 2818              	.LBB162:
 734:lvgl/src/draw/sw/lv_draw_sw_rect.c ****         sh_buf_tmp = sh_buf;
 2819              		.loc 1 734 9 is_stmt 1 view .LVU1049
 2820              	.LVL265:
 2821              	.LBB163:
ARM GAS  C:\Users\OSD\AppData\Local\Temp\ccS6lZqb.s 			page 94


 2822              	.LBI163:
 123:lvgl/src/draw/sw/../../misc/lv_area.h **** {
 2823              		.loc 2 123 26 view .LVU1050
 2824              	.LBB164:
 125:lvgl/src/draw/sw/../../misc/lv_area.h **** }
 2825              		.loc 2 125 5 view .LVU1051
 125:lvgl/src/draw/sw/../../misc/lv_area.h **** }
 2826              		.loc 2 125 31 is_stmt 0 view .LVU1052
 2827 0820 BDF854A0 		ldrh	r10, [sp, #84]
 125:lvgl/src/draw/sw/../../misc/lv_area.h **** }
 2828              		.loc 2 125 44 view .LVU1053
 2829 0824 BDF95030 		ldrsh	r3, [sp, #80]
 2830 0828 9AB2     		uxth	r2, r3
 125:lvgl/src/draw/sw/../../misc/lv_area.h **** }
 2831              		.loc 2 125 36 view .LVU1054
 2832 082a AAEB020A 		sub	r10, r10, r2
 2833 082e 1FFA8AFA 		uxth	r10, r10
 125:lvgl/src/draw/sw/../../misc/lv_area.h **** }
 2834              		.loc 2 125 49 view .LVU1055
 2835 0832 0AF1010A 		add	r10, r10, #1
 125:lvgl/src/draw/sw/../../misc/lv_area.h **** }
 2836              		.loc 2 125 12 view .LVU1056
 2837 0836 0FFA8AFA 		sxth	r10, r10
 2838              	.LVL266:
 125:lvgl/src/draw/sw/../../misc/lv_area.h **** }
 2839              		.loc 2 125 12 view .LVU1057
 2840              	.LBE164:
 2841              	.LBE163:
 735:lvgl/src/draw/sw/lv_draw_sw_rect.c ****         sh_buf_tmp += (corner_size - 1) * corner_size;
 2842              		.loc 1 735 9 is_stmt 1 view .LVU1058
 736:lvgl/src/draw/sw/lv_draw_sw_rect.c ****         sh_buf_tmp += clip_area_sub.x1 - (shadow_area.x2 - corner_size + 1);
 2843              		.loc 1 736 9 view .LVU1059
 736:lvgl/src/draw/sw/lv_draw_sw_rect.c ****         sh_buf_tmp += clip_area_sub.x1 - (shadow_area.x2 - corner_size + 1);
 2844              		.loc 1 736 36 is_stmt 0 view .LVU1060
 2845 083a 04F1FF3B 		add	fp, r4, #-1
 2846              	.LVL267:
 737:lvgl/src/draw/sw/lv_draw_sw_rect.c **** 
 2847              		.loc 1 737 9 is_stmt 1 view .LVU1061
 737:lvgl/src/draw/sw/lv_draw_sw_rect.c **** 
 2848              		.loc 1 737 54 is_stmt 0 view .LVU1062
 2849 083e BDF98C20 		ldrsh	r2, [sp, #140]
 737:lvgl/src/draw/sw/lv_draw_sw_rect.c **** 
 2850              		.loc 1 737 58 view .LVU1063
 2851 0842 121B     		subs	r2, r2, r4
 737:lvgl/src/draw/sw/lv_draw_sw_rect.c **** 
 2852              		.loc 1 737 72 view .LVU1064
 2853 0844 0132     		adds	r2, r2, #1
 737:lvgl/src/draw/sw/lv_draw_sw_rect.c **** 
 2854              		.loc 1 737 40 view .LVU1065
 2855 0846 9B1A     		subs	r3, r3, r2
 737:lvgl/src/draw/sw/lv_draw_sw_rect.c **** 
 2856              		.loc 1 737 20 view .LVU1066
 2857 0848 04FB0B3B 		mla	fp, r4, fp, r3
 2858 084c 039B     		ldr	r3, [sp, #12]
 2859 084e 9B44     		add	fp, fp, r3
 2860              	.LVL268:
 740:lvgl/src/draw/sw/lv_draw_sw_rect.c ****         else simple_sub = simple;
ARM GAS  C:\Users\OSD\AppData\Local\Temp\ccS6lZqb.s 			page 95


 2861              		.loc 1 740 9 is_stmt 1 view .LVU1067
 740:lvgl/src/draw/sw/lv_draw_sw_rect.c ****         else simple_sub = simple;
 2862              		.loc 1 740 11 is_stmt 0 view .LVU1068
 2863 0850 009B     		ldr	r3, [sp]
 2864 0852 DBB9     		cbnz	r3, .L213
 2865              	.L133:
 741:lvgl/src/draw/sw/lv_draw_sw_rect.c ****         blend_dsc.mask_buf = simple_sub ? sh_buf_tmp : mask_buf;
 2866              		.loc 1 741 14 is_stmt 1 view .LVU1069
 2867              	.LVL269:
 742:lvgl/src/draw/sw/lv_draw_sw_rect.c **** 
 2868              		.loc 1 742 9 view .LVU1070
 742:lvgl/src/draw/sw/lv_draw_sw_rect.c **** 
 2869              		.loc 1 742 54 is_stmt 0 view .LVU1071
 2870 0854 009B     		ldr	r3, [sp]
 2871 0856 1BB3     		cbz	r3, .L176
 2872 0858 9946     		mov	r9, r3
 2873 085a 5B46     		mov	r3, fp
 2874              	.LVL270:
 2875              	.L134:
 742:lvgl/src/draw/sw/lv_draw_sw_rect.c **** 
 2876              		.loc 1 742 28 discriminator 4 view .LVU1072
 2877 085c 1093     		str	r3, [sp, #64]
 744:lvgl/src/draw/sw/lv_draw_sw_rect.c ****             blend_area.x1 = clip_area_sub.x1;
 2878              		.loc 1 744 9 is_stmt 1 discriminator 4 view .LVU1073
 744:lvgl/src/draw/sw/lv_draw_sw_rect.c ****             blend_area.x1 = clip_area_sub.x1;
 2879              		.loc 1 744 11 is_stmt 0 discriminator 4 view .LVU1074
 2880 085e BAF1000F 		cmp	r10, #0
 2881 0862 7FF7B6AD 		ble	.L132
 745:lvgl/src/draw/sw/lv_draw_sw_rect.c ****             blend_area.x2 = clip_area_sub.x2;
 2882              		.loc 1 745 13 is_stmt 1 view .LVU1075
 745:lvgl/src/draw/sw/lv_draw_sw_rect.c ****             blend_area.x2 = clip_area_sub.x2;
 2883              		.loc 1 745 42 is_stmt 0 view .LVU1076
 2884 0866 BDF95030 		ldrsh	r3, [sp, #80]
 745:lvgl/src/draw/sw/lv_draw_sw_rect.c ****             blend_area.x2 = clip_area_sub.x2;
 2885              		.loc 1 745 27 view .LVU1077
 2886 086a ADF85830 		strh	r3, [sp, #88]	@ movhi
 746:lvgl/src/draw/sw/lv_draw_sw_rect.c ****             blend_dsc.mask_res = LV_DRAW_MASK_RES_CHANGED;    /*In simple mode it won't be overwrit
 2887              		.loc 1 746 13 is_stmt 1 view .LVU1078
 746:lvgl/src/draw/sw/lv_draw_sw_rect.c ****             blend_dsc.mask_res = LV_DRAW_MASK_RES_CHANGED;    /*In simple mode it won't be overwrit
 2888              		.loc 1 746 42 is_stmt 0 view .LVU1079
 2889 086e BDF95430 		ldrsh	r3, [sp, #84]
 746:lvgl/src/draw/sw/lv_draw_sw_rect.c ****             blend_dsc.mask_res = LV_DRAW_MASK_RES_CHANGED;    /*In simple mode it won't be overwrit
 2890              		.loc 1 746 27 view .LVU1080
 2891 0872 ADF85C30 		strh	r3, [sp, #92]	@ movhi
 747:lvgl/src/draw/sw/lv_draw_sw_rect.c ****             for(y = clip_area_sub.y1; y <= clip_area_sub.y2; y++) {
 2892              		.loc 1 747 13 is_stmt 1 view .LVU1081
 747:lvgl/src/draw/sw/lv_draw_sw_rect.c ****             for(y = clip_area_sub.y1; y <= clip_area_sub.y2; y++) {
 2893              		.loc 1 747 32 is_stmt 0 view .LVU1082
 2894 0876 0223     		movs	r3, #2
 2895 0878 8DF84430 		strb	r3, [sp, #68]
 748:lvgl/src/draw/sw/lv_draw_sw_rect.c ****                 blend_area.y1 = y;
 2896              		.loc 1 748 13 is_stmt 1 view .LVU1083
 748:lvgl/src/draw/sw/lv_draw_sw_rect.c ****                 blend_area.y1 = y;
 2897              		.loc 1 748 19 is_stmt 0 view .LVU1084
 2898 087c BDF95250 		ldrsh	r5, [sp, #82]
 2899              	.LVL271:
 748:lvgl/src/draw/sw/lv_draw_sw_rect.c ****                 blend_area.y1 = y;
ARM GAS  C:\Users\OSD\AppData\Local\Temp\ccS6lZqb.s 			page 96


 2900              		.loc 1 748 19 view .LVU1085
 2901 0880 0897     		str	r7, [sp, #32]
 2902 0882 2346     		mov	r3, r4
 2903 0884 4C46     		mov	r4, r9
 2904              	.LVL272:
 748:lvgl/src/draw/sw/lv_draw_sw_rect.c ****                 blend_area.y1 = y;
 2905              		.loc 1 748 19 view .LVU1086
 2906 0886 049F     		ldr	r7, [sp, #16]
 2907 0888 9946     		mov	r9, r3
 748:lvgl/src/draw/sw/lv_draw_sw_rect.c ****                 blend_area.y1 = y;
 2908              		.loc 1 748 13 view .LVU1087
 2909 088a 13E0     		b	.L135
 2910              	.LVL273:
 2911              	.L213:
 740:lvgl/src/draw/sw/lv_draw_sw_rect.c ****         else simple_sub = simple;
 2912              		.loc 1 740 22 discriminator 1 view .LVU1088
 2913 088c 2A46     		mov	r2, r5
 2914 088e 1EA9     		add	r1, sp, #120
 2915 0890 14A8     		add	r0, sp, #80
 2916 0892 FFF7FEFF 		bl	_lv_area_is_out
 2917              	.LVL274:
 740:lvgl/src/draw/sw/lv_draw_sw_rect.c ****         else simple_sub = simple;
 2918              		.loc 1 740 19 discriminator 1 view .LVU1089
 2919 0896 8146     		mov	r9, r0
 2920 0898 0028     		cmp	r0, #0
 2921 089a DBD0     		beq	.L133
 742:lvgl/src/draw/sw/lv_draw_sw_rect.c **** 
 2922              		.loc 1 742 54 view .LVU1090
 2923 089c 5B46     		mov	r3, fp
 2924 089e DDE7     		b	.L134
 2925              	.LVL275:
 2926              	.L176:
 742:lvgl/src/draw/sw/lv_draw_sw_rect.c **** 
 2927              		.loc 1 742 54 view .LVU1091
 2928 08a0 DDF80090 		ldr	r9, [sp]
 2929 08a4 049B     		ldr	r3, [sp, #16]
 2930 08a6 D9E7     		b	.L134
 2931              	.LVL276:
 2932              	.L136:
 757:lvgl/src/draw/sw/lv_draw_sw_rect.c ****             }
 2933              		.loc 1 757 17 is_stmt 1 discriminator 2 view .LVU1092
 2934 08a8 0DA9     		add	r1, sp, #52
 2935 08aa 3046     		mov	r0, r6
 2936 08ac FFF7FEFF 		bl	lv_draw_sw_blend
 2937              	.LVL277:
 748:lvgl/src/draw/sw/lv_draw_sw_rect.c ****                 blend_area.y1 = y;
 2938              		.loc 1 748 62 discriminator 2 view .LVU1093
 748:lvgl/src/draw/sw/lv_draw_sw_rect.c ****                 blend_area.y1 = y;
 2939              		.loc 1 748 63 is_stmt 0 discriminator 2 view .LVU1094
 2940 08b0 0135     		adds	r5, r5, #1
 2941              	.LVL278:
 748:lvgl/src/draw/sw/lv_draw_sw_rect.c ****                 blend_area.y1 = y;
 2942              		.loc 1 748 63 discriminator 2 view .LVU1095
 2943 08b2 2DB2     		sxth	r5, r5
 2944              	.LVL279:
 2945              	.L135:
 748:lvgl/src/draw/sw/lv_draw_sw_rect.c ****                 blend_area.y1 = y;
ARM GAS  C:\Users\OSD\AppData\Local\Temp\ccS6lZqb.s 			page 97


 2946              		.loc 1 748 39 is_stmt 1 discriminator 1 view .LVU1096
 748:lvgl/src/draw/sw/lv_draw_sw_rect.c ****                 blend_area.y1 = y;
 2947              		.loc 1 748 57 is_stmt 0 discriminator 1 view .LVU1097
 2948 08b4 BDF95630 		ldrsh	r3, [sp, #86]
 748:lvgl/src/draw/sw/lv_draw_sw_rect.c ****                 blend_area.y1 = y;
 2949              		.loc 1 748 13 discriminator 1 view .LVU1098
 2950 08b8 AB42     		cmp	r3, r5
 2951 08ba 19DB     		blt	.L214
 749:lvgl/src/draw/sw/lv_draw_sw_rect.c ****                 blend_area.y2 = y;
 2952              		.loc 1 749 17 is_stmt 1 view .LVU1099
 749:lvgl/src/draw/sw/lv_draw_sw_rect.c ****                 blend_area.y2 = y;
 2953              		.loc 1 749 31 is_stmt 0 view .LVU1100
 2954 08bc ADF85A50 		strh	r5, [sp, #90]	@ movhi
 750:lvgl/src/draw/sw/lv_draw_sw_rect.c **** 
 2955              		.loc 1 750 17 is_stmt 1 view .LVU1101
 750:lvgl/src/draw/sw/lv_draw_sw_rect.c **** 
 2956              		.loc 1 750 31 is_stmt 0 view .LVU1102
 2957 08c0 ADF85E50 		strh	r5, [sp, #94]	@ movhi
 752:lvgl/src/draw/sw/lv_draw_sw_rect.c ****                     lv_memcpy(mask_buf, sh_buf_tmp, w);
 2958              		.loc 1 752 17 is_stmt 1 view .LVU1103
 752:lvgl/src/draw/sw/lv_draw_sw_rect.c ****                     lv_memcpy(mask_buf, sh_buf_tmp, w);
 2959              		.loc 1 752 19 is_stmt 0 view .LVU1104
 2960 08c4 002C     		cmp	r4, #0
 2961 08c6 EFD1     		bne	.L136
 753:lvgl/src/draw/sw/lv_draw_sw_rect.c ****                     blend_dsc.mask_res = lv_draw_mask_apply(mask_buf, clip_area_sub.x1, y, w);
 2962              		.loc 1 753 21 is_stmt 1 view .LVU1105
 2963 08c8 5246     		mov	r2, r10
 2964 08ca 5946     		mov	r1, fp
 2965 08cc 3846     		mov	r0, r7
 2966 08ce FFF7FEFF 		bl	lv_memcpy
 2967              	.LVL280:
 754:lvgl/src/draw/sw/lv_draw_sw_rect.c ****                     if(blend_dsc.mask_res == LV_DRAW_MASK_RES_FULL_COVER) blend_dsc.mask_res = LV_D
 2968              		.loc 1 754 21 view .LVU1106
 754:lvgl/src/draw/sw/lv_draw_sw_rect.c ****                     if(blend_dsc.mask_res == LV_DRAW_MASK_RES_FULL_COVER) blend_dsc.mask_res = LV_D
 2969              		.loc 1 754 42 is_stmt 0 view .LVU1107
 2970 08d2 5346     		mov	r3, r10
 2971 08d4 2A46     		mov	r2, r5
 2972 08d6 BDF95010 		ldrsh	r1, [sp, #80]
 2973 08da 3846     		mov	r0, r7
 2974 08dc FFF7FEFF 		bl	lv_draw_mask_apply
 2975              	.LVL281:
 754:lvgl/src/draw/sw/lv_draw_sw_rect.c ****                     if(blend_dsc.mask_res == LV_DRAW_MASK_RES_FULL_COVER) blend_dsc.mask_res = LV_D
 2976              		.loc 1 754 40 view .LVU1108
 2977 08e0 8DF84400 		strb	r0, [sp, #68]
 755:lvgl/src/draw/sw/lv_draw_sw_rect.c ****                 }
 2978              		.loc 1 755 21 is_stmt 1 view .LVU1109
 755:lvgl/src/draw/sw/lv_draw_sw_rect.c ****                 }
 2979              		.loc 1 755 23 is_stmt 0 view .LVU1110
 2980 08e4 0128     		cmp	r0, #1
 2981 08e6 DFD1     		bne	.L136
 755:lvgl/src/draw/sw/lv_draw_sw_rect.c ****                 }
 2982              		.loc 1 755 75 is_stmt 1 discriminator 1 view .LVU1111
 755:lvgl/src/draw/sw/lv_draw_sw_rect.c ****                 }
 2983              		.loc 1 755 94 is_stmt 0 discriminator 1 view .LVU1112
 2984 08e8 0223     		movs	r3, #2
 2985 08ea 8DF84430 		strb	r3, [sp, #68]
 2986 08ee DBE7     		b	.L136
ARM GAS  C:\Users\OSD\AppData\Local\Temp\ccS6lZqb.s 			page 98


 2987              	.L214:
 755:lvgl/src/draw/sw/lv_draw_sw_rect.c ****                 }
 2988              		.loc 1 755 94 discriminator 1 view .LVU1113
 2989 08f0 089F     		ldr	r7, [sp, #32]
 2990 08f2 4C46     		mov	r4, r9
 2991 08f4 6DE5     		b	.L132
 2992              	.LVL282:
 2993              	.L139:
 755:lvgl/src/draw/sw/lv_draw_sw_rect.c ****                 }
 2994              		.loc 1 755 94 discriminator 1 view .LVU1114
 2995              	.LBE162:
 2996              	.LBB165:
 768:lvgl/src/draw/sw/lv_draw_sw_rect.c ****             lv_opa_t tmp = *start;
 2997              		.loc 1 768 9 discriminator 1 view .LVU1115
 2998 08f6 B2EB600F 		cmp	r2, r0, asr #1
 2999 08fa 0BDA     		bge	.L215
 3000              	.LBB149:
 769:lvgl/src/draw/sw/lv_draw_sw_rect.c ****             *start = *end;
 3001              		.loc 1 769 13 is_stmt 1 discriminator 3 view .LVU1116
 769:lvgl/src/draw/sw/lv_draw_sw_rect.c ****             *start = *end;
 3002              		.loc 1 769 22 is_stmt 0 discriminator 3 view .LVU1117
 3003 08fc 0878     		ldrb	r0, [r1]	@ zero_extendqisi2
 3004              	.LVL283:
 770:lvgl/src/draw/sw/lv_draw_sw_rect.c ****             *end = tmp;
 3005              		.loc 1 770 13 is_stmt 1 discriminator 3 view .LVU1118
 770:lvgl/src/draw/sw/lv_draw_sw_rect.c ****             *end = tmp;
 3006              		.loc 1 770 22 is_stmt 0 discriminator 3 view .LVU1119
 3007 08fe 1D78     		ldrb	r5, [r3]	@ zero_extendqisi2
 770:lvgl/src/draw/sw/lv_draw_sw_rect.c ****             *end = tmp;
 3008              		.loc 1 770 20 discriminator 3 view .LVU1120
 3009 0900 01F8015B 		strb	r5, [r1], #1
 3010              	.LVL284:
 771:lvgl/src/draw/sw/lv_draw_sw_rect.c **** 
 3011              		.loc 1 771 13 is_stmt 1 discriminator 3 view .LVU1121
 771:lvgl/src/draw/sw/lv_draw_sw_rect.c **** 
 3012              		.loc 1 771 18 is_stmt 0 discriminator 3 view .LVU1122
 3013 0904 03F80109 		strb	r0, [r3], #-1
 3014              	.LVL285:
 773:lvgl/src/draw/sw/lv_draw_sw_rect.c ****             end--;
 3015              		.loc 1 773 13 is_stmt 1 discriminator 3 view .LVU1123
 774:lvgl/src/draw/sw/lv_draw_sw_rect.c ****         }
 3016              		.loc 1 774 13 discriminator 3 view .LVU1124
 774:lvgl/src/draw/sw/lv_draw_sw_rect.c ****         }
 3017              		.loc 1 774 13 is_stmt 0 discriminator 3 view .LVU1125
 3018              	.LBE149:
 768:lvgl/src/draw/sw/lv_draw_sw_rect.c ****             lv_opa_t tmp = *start;
 3019              		.loc 1 768 41 is_stmt 1 discriminator 3 view .LVU1126
 768:lvgl/src/draw/sw/lv_draw_sw_rect.c ****             lv_opa_t tmp = *start;
 3020              		.loc 1 768 42 is_stmt 0 discriminator 3 view .LVU1127
 3021 0908 0132     		adds	r2, r2, #1
 3022              	.LVL286:
 3023              	.L138:
 768:lvgl/src/draw/sw/lv_draw_sw_rect.c ****             lv_opa_t tmp = *start;
 3024              		.loc 1 768 20 is_stmt 1 discriminator 1 view .LVU1128
 768:lvgl/src/draw/sw/lv_draw_sw_rect.c ****             lv_opa_t tmp = *start;
 3025              		.loc 1 768 36 is_stmt 0 discriminator 1 view .LVU1129
 3026 090a 2046     		mov	r0, r4
ARM GAS  C:\Users\OSD\AppData\Local\Temp\ccS6lZqb.s 			page 99


 3027 090c 002C     		cmp	r4, #0
 3028 090e F2DA     		bge	.L139
 3029              	.LVL287:
 768:lvgl/src/draw/sw/lv_draw_sw_rect.c ****             lv_opa_t tmp = *start;
 3030              		.loc 1 768 36 discriminator 1 view .LVU1130
 3031 0910 601C     		adds	r0, r4, #1
 3032              	.LVL288:
 768:lvgl/src/draw/sw/lv_draw_sw_rect.c ****             lv_opa_t tmp = *start;
 3033              		.loc 1 768 36 discriminator 1 view .LVU1131
 3034 0912 F0E7     		b	.L139
 3035              	.L215:
 776:lvgl/src/draw/sw/lv_draw_sw_rect.c ****     }
 3036              		.loc 1 776 9 is_stmt 1 discriminator 2 view .LVU1132
 776:lvgl/src/draw/sw/lv_draw_sw_rect.c ****     }
 3037              		.loc 1 776 20 is_stmt 0 discriminator 2 view .LVU1133
 3038 0914 A644     		add	lr, lr, r4
 3039              	.LVL289:
 776:lvgl/src/draw/sw/lv_draw_sw_rect.c ****     }
 3040              		.loc 1 776 20 discriminator 2 view .LVU1134
 3041              	.LBE165:
 764:lvgl/src/draw/sw/lv_draw_sw_rect.c ****         int32_t x;
 3042              		.loc 1 764 33 is_stmt 1 discriminator 2 view .LVU1135
 764:lvgl/src/draw/sw/lv_draw_sw_rect.c ****         int32_t x;
 3043              		.loc 1 764 34 is_stmt 0 discriminator 2 view .LVU1136
 3044 0916 0CF1010C 		add	ip, ip, #1
 3045              	.LVL290:
 764:lvgl/src/draw/sw/lv_draw_sw_rect.c ****         int32_t x;
 3046              		.loc 1 764 34 discriminator 2 view .LVU1137
 3047 091a 0FFA8CFC 		sxth	ip, ip
 3048              	.LVL291:
 3049              	.L141:
 764:lvgl/src/draw/sw/lv_draw_sw_rect.c ****         int32_t x;
 3050              		.loc 1 764 16 is_stmt 1 discriminator 1 view .LVU1138
 764:lvgl/src/draw/sw/lv_draw_sw_rect.c ****         int32_t x;
 3051              		.loc 1 764 5 is_stmt 0 discriminator 1 view .LVU1139
 3052 091e A445     		cmp	ip, r4
 3053 0920 04DA     		bge	.L216
 3054              	.LBB166:
 765:lvgl/src/draw/sw/lv_draw_sw_rect.c ****         lv_opa_t * start = sh_buf_tmp;
 3055              		.loc 1 765 9 is_stmt 1 view .LVU1140
 766:lvgl/src/draw/sw/lv_draw_sw_rect.c ****         lv_opa_t * end = sh_buf_tmp + corner_size - 1;
 3056              		.loc 1 766 9 view .LVU1141
 3057              	.LVL292:
 767:lvgl/src/draw/sw/lv_draw_sw_rect.c ****         for(x = 0; x < corner_size / 2; x++) {
 3058              		.loc 1 767 9 view .LVU1142
 767:lvgl/src/draw/sw/lv_draw_sw_rect.c ****         for(x = 0; x < corner_size / 2; x++) {
 3059              		.loc 1 767 51 is_stmt 0 view .LVU1143
 3060 0922 631E     		subs	r3, r4, #1
 767:lvgl/src/draw/sw/lv_draw_sw_rect.c ****         for(x = 0; x < corner_size / 2; x++) {
 3061              		.loc 1 767 20 view .LVU1144
 3062 0924 7344     		add	r3, r3, lr
 3063              	.LVL293:
 768:lvgl/src/draw/sw/lv_draw_sw_rect.c ****             lv_opa_t tmp = *start;
 3064              		.loc 1 768 9 is_stmt 1 view .LVU1145
 766:lvgl/src/draw/sw/lv_draw_sw_rect.c ****         lv_opa_t * end = sh_buf_tmp + corner_size - 1;
 3065              		.loc 1 766 20 is_stmt 0 view .LVU1146
 3066 0926 7146     		mov	r1, lr
ARM GAS  C:\Users\OSD\AppData\Local\Temp\ccS6lZqb.s 			page 100


 768:lvgl/src/draw/sw/lv_draw_sw_rect.c ****             lv_opa_t tmp = *start;
 3067              		.loc 1 768 15 view .LVU1147
 3068 0928 0022     		movs	r2, #0
 768:lvgl/src/draw/sw/lv_draw_sw_rect.c ****             lv_opa_t tmp = *start;
 3069              		.loc 1 768 9 view .LVU1148
 3070 092a EEE7     		b	.L138
 3071              	.LVL294:
 3072              	.L216:
 768:lvgl/src/draw/sw/lv_draw_sw_rect.c ****             lv_opa_t tmp = *start;
 3073              		.loc 1 768 9 view .LVU1149
 3074              	.LBE166:
 780:lvgl/src/draw/sw/lv_draw_sw_rect.c ****     blend_area.x2 = shadow_area.x1 + corner_size - 1;
 3075              		.loc 1 780 5 is_stmt 1 view .LVU1150
 780:lvgl/src/draw/sw/lv_draw_sw_rect.c ****     blend_area.x2 = shadow_area.x1 + corner_size - 1;
 3076              		.loc 1 780 32 is_stmt 0 view .LVU1151
 3077 092c BDF98830 		ldrsh	r3, [sp, #136]
 780:lvgl/src/draw/sw/lv_draw_sw_rect.c ****     blend_area.x2 = shadow_area.x1 + corner_size - 1;
 3078              		.loc 1 780 19 view .LVU1152
 3079 0930 ADF85830 		strh	r3, [sp, #88]	@ movhi
 781:lvgl/src/draw/sw/lv_draw_sw_rect.c ****     blend_area.y1 = shadow_area.y1 + corner_size;
 3080              		.loc 1 781 5 is_stmt 1 view .LVU1153
 781:lvgl/src/draw/sw/lv_draw_sw_rect.c ****     blend_area.y1 = shadow_area.y1 + corner_size;
 3081              		.loc 1 781 36 is_stmt 0 view .LVU1154
 3082 0934 17FA83F3 		uxtah	r3, r7, r3
 3083 0938 9BB2     		uxth	r3, r3
 781:lvgl/src/draw/sw/lv_draw_sw_rect.c ****     blend_area.y1 = shadow_area.y1 + corner_size;
 3084              		.loc 1 781 50 view .LVU1155
 3085 093a 013B     		subs	r3, r3, #1
 3086 093c 1BB2     		sxth	r3, r3
 781:lvgl/src/draw/sw/lv_draw_sw_rect.c ****     blend_area.y1 = shadow_area.y1 + corner_size;
 3087              		.loc 1 781 19 view .LVU1156
 3088 093e ADF85C30 		strh	r3, [sp, #92]	@ movhi
 782:lvgl/src/draw/sw/lv_draw_sw_rect.c ****     blend_area.y2 = shadow_area.y2 - corner_size;
 3089              		.loc 1 782 5 is_stmt 1 view .LVU1157
 782:lvgl/src/draw/sw/lv_draw_sw_rect.c ****     blend_area.y2 = shadow_area.y2 - corner_size;
 3090              		.loc 1 782 32 is_stmt 0 view .LVU1158
 3091 0942 BDF88A10 		ldrh	r1, [sp, #138]
 782:lvgl/src/draw/sw/lv_draw_sw_rect.c ****     blend_area.y2 = shadow_area.y2 - corner_size;
 3092              		.loc 1 782 36 view .LVU1159
 3093 0946 3944     		add	r1, r1, r7
 3094 0948 09B2     		sxth	r1, r1
 782:lvgl/src/draw/sw/lv_draw_sw_rect.c ****     blend_area.y2 = shadow_area.y2 - corner_size;
 3095              		.loc 1 782 19 view .LVU1160
 3096 094a ADF85A10 		strh	r1, [sp, #90]	@ movhi
 783:lvgl/src/draw/sw/lv_draw_sw_rect.c ****     /*Do not overdraw the other corners*/
 3097              		.loc 1 783 5 is_stmt 1 view .LVU1161
 783:lvgl/src/draw/sw/lv_draw_sw_rect.c ****     /*Do not overdraw the other corners*/
 3098              		.loc 1 783 32 is_stmt 0 view .LVU1162
 3099 094e BDF88E20 		ldrh	r2, [sp, #142]
 783:lvgl/src/draw/sw/lv_draw_sw_rect.c ****     /*Do not overdraw the other corners*/
 3100              		.loc 1 783 36 view .LVU1163
 3101 0952 D21B     		subs	r2, r2, r7
 3102 0954 12B2     		sxth	r2, r2
 783:lvgl/src/draw/sw/lv_draw_sw_rect.c ****     /*Do not overdraw the other corners*/
 3103              		.loc 1 783 19 view .LVU1164
 3104 0956 ADF85E20 		strh	r2, [sp, #94]	@ movhi
 785:lvgl/src/draw/sw/lv_draw_sw_rect.c ****     blend_area.y2 = LV_MAX(blend_area.y2, h_half);
ARM GAS  C:\Users\OSD\AppData\Local\Temp\ccS6lZqb.s 			page 101


 3105              		.loc 1 785 5 is_stmt 1 view .LVU1165
 785:lvgl/src/draw/sw/lv_draw_sw_rect.c ****     blend_area.y2 = LV_MAX(blend_area.y2, h_half);
 3106              		.loc 1 785 19 is_stmt 0 view .LVU1166
 3107 095a 4145     		cmp	r1, r8
 3108 095c 02DD     		ble	.L143
 785:lvgl/src/draw/sw/lv_draw_sw_rect.c ****     blend_area.y2 = LV_MAX(blend_area.y2, h_half);
 3109              		.loc 1 785 21 discriminator 2 view .LVU1167
 3110 095e 0699     		ldr	r1, [sp, #24]
 3111 0960 0131     		adds	r1, r1, #1
 785:lvgl/src/draw/sw/lv_draw_sw_rect.c ****     blend_area.y2 = LV_MAX(blend_area.y2, h_half);
 3112              		.loc 1 785 19 discriminator 2 view .LVU1168
 3113 0962 09B2     		sxth	r1, r1
 3114              	.L143:
 785:lvgl/src/draw/sw/lv_draw_sw_rect.c ****     blend_area.y2 = LV_MAX(blend_area.y2, h_half);
 3115              		.loc 1 785 19 discriminator 4 view .LVU1169
 3116 0964 ADF85A10 		strh	r1, [sp, #90]	@ movhi
 786:lvgl/src/draw/sw/lv_draw_sw_rect.c ****     blend_area.x2 = LV_MIN(blend_area.x2, w_half - 1);
 3117              		.loc 1 786 5 is_stmt 1 discriminator 4 view .LVU1170
 786:lvgl/src/draw/sw/lv_draw_sw_rect.c ****     blend_area.x2 = LV_MIN(blend_area.x2, w_half - 1);
 3118              		.loc 1 786 21 is_stmt 0 discriminator 4 view .LVU1171
 3119 0968 4245     		cmp	r2, r8
 3120 096a B8BF     		it	lt
 3121 096c 4246     		movlt	r2, r8
 786:lvgl/src/draw/sw/lv_draw_sw_rect.c ****     blend_area.x2 = LV_MIN(blend_area.x2, w_half - 1);
 3122              		.loc 1 786 19 discriminator 4 view .LVU1172
 3123 096e ADF85E20 		strh	r2, [sp, #94]	@ movhi
 787:lvgl/src/draw/sw/lv_draw_sw_rect.c **** 
 3124              		.loc 1 787 5 is_stmt 1 discriminator 4 view .LVU1173
 787:lvgl/src/draw/sw/lv_draw_sw_rect.c **** 
 3125              		.loc 1 787 21 is_stmt 0 discriminator 4 view .LVU1174
 3126 0972 029A     		ldr	r2, [sp, #8]
 3127 0974 551E     		subs	r5, r2, #1
 3128 0976 AB42     		cmp	r3, r5
 3129 0978 A8BF     		it	ge
 3130 097a 2B46     		movge	r3, r5
 787:lvgl/src/draw/sw/lv_draw_sw_rect.c **** 
 3131              		.loc 1 787 19 discriminator 4 view .LVU1175
 3132 097c ADF85C30 		strh	r3, [sp, #92]	@ movhi
 789:lvgl/src/draw/sw/lv_draw_sw_rect.c ****        !_lv_area_is_in(&clip_area_sub, &bg_area, r_bg)) {
 3133              		.loc 1 789 5 is_stmt 1 discriminator 4 view .LVU1176
 789:lvgl/src/draw/sw/lv_draw_sw_rect.c ****        !_lv_area_is_in(&clip_area_sub, &bg_area, r_bg)) {
 3134              		.loc 1 789 8 is_stmt 0 discriminator 4 view .LVU1177
 3135 0980 B268     		ldr	r2, [r6, #8]
 3136 0982 16A9     		add	r1, sp, #88
 3137 0984 14A8     		add	r0, sp, #80
 3138 0986 FFF7FEFF 		bl	_lv_area_intersect
 3139              	.LVL295:
 789:lvgl/src/draw/sw/lv_draw_sw_rect.c ****        !_lv_area_is_in(&clip_area_sub, &bg_area, r_bg)) {
 3140              		.loc 1 789 7 discriminator 4 view .LVU1178
 3141 098a 0028     		cmp	r0, #0
 3142 098c 7AD1     		bne	.L217
 3143              	.LVL296:
 3144              	.L144:
 820:lvgl/src/draw/sw/lv_draw_sw_rect.c ****     blend_area.x2 = shadow_area.x1 + corner_size - 1;
 3145              		.loc 1 820 5 is_stmt 1 view .LVU1179
 820:lvgl/src/draw/sw/lv_draw_sw_rect.c ****     blend_area.x2 = shadow_area.x1 + corner_size - 1;
 3146              		.loc 1 820 32 is_stmt 0 view .LVU1180
ARM GAS  C:\Users\OSD\AppData\Local\Temp\ccS6lZqb.s 			page 102


 3147 098e BDF98830 		ldrsh	r3, [sp, #136]
 820:lvgl/src/draw/sw/lv_draw_sw_rect.c ****     blend_area.x2 = shadow_area.x1 + corner_size - 1;
 3148              		.loc 1 820 19 view .LVU1181
 3149 0992 ADF85830 		strh	r3, [sp, #88]	@ movhi
 821:lvgl/src/draw/sw/lv_draw_sw_rect.c ****     blend_area.y1 = shadow_area.y1;
 3150              		.loc 1 821 5 is_stmt 1 view .LVU1182
 821:lvgl/src/draw/sw/lv_draw_sw_rect.c ****     blend_area.y1 = shadow_area.y1;
 3151              		.loc 1 821 36 is_stmt 0 view .LVU1183
 3152 0996 17FA83F2 		uxtah	r2, r7, r3
 3153 099a 92B2     		uxth	r2, r2
 821:lvgl/src/draw/sw/lv_draw_sw_rect.c ****     blend_area.y1 = shadow_area.y1;
 3154              		.loc 1 821 50 view .LVU1184
 3155 099c 013A     		subs	r2, r2, #1
 3156 099e 12B2     		sxth	r2, r2
 821:lvgl/src/draw/sw/lv_draw_sw_rect.c ****     blend_area.y1 = shadow_area.y1;
 3157              		.loc 1 821 19 view .LVU1185
 3158 09a0 ADF85C20 		strh	r2, [sp, #92]	@ movhi
 822:lvgl/src/draw/sw/lv_draw_sw_rect.c ****     blend_area.y2 = shadow_area.y1 + corner_size - 1;
 3159              		.loc 1 822 5 is_stmt 1 view .LVU1186
 822:lvgl/src/draw/sw/lv_draw_sw_rect.c ****     blend_area.y2 = shadow_area.y1 + corner_size - 1;
 3160              		.loc 1 822 32 is_stmt 0 view .LVU1187
 3161 09a4 BDF98A30 		ldrsh	r3, [sp, #138]
 822:lvgl/src/draw/sw/lv_draw_sw_rect.c ****     blend_area.y2 = shadow_area.y1 + corner_size - 1;
 3162              		.loc 1 822 19 view .LVU1188
 3163 09a8 ADF85A30 		strh	r3, [sp, #90]	@ movhi
 823:lvgl/src/draw/sw/lv_draw_sw_rect.c ****     /*Do not overdraw the other corners*/
 3164              		.loc 1 823 5 is_stmt 1 view .LVU1189
 823:lvgl/src/draw/sw/lv_draw_sw_rect.c ****     /*Do not overdraw the other corners*/
 3165              		.loc 1 823 36 is_stmt 0 view .LVU1190
 3166 09ac 17FA83F3 		uxtah	r3, r7, r3
 3167 09b0 9BB2     		uxth	r3, r3
 823:lvgl/src/draw/sw/lv_draw_sw_rect.c ****     /*Do not overdraw the other corners*/
 3168              		.loc 1 823 50 view .LVU1191
 3169 09b2 013B     		subs	r3, r3, #1
 3170 09b4 1BB2     		sxth	r3, r3
 823:lvgl/src/draw/sw/lv_draw_sw_rect.c ****     /*Do not overdraw the other corners*/
 3171              		.loc 1 823 19 view .LVU1192
 3172 09b6 ADF85E30 		strh	r3, [sp, #94]	@ movhi
 825:lvgl/src/draw/sw/lv_draw_sw_rect.c ****     blend_area.y2 = LV_MIN(blend_area.y2, h_half);
 3173              		.loc 1 825 5 is_stmt 1 view .LVU1193
 825:lvgl/src/draw/sw/lv_draw_sw_rect.c ****     blend_area.y2 = LV_MIN(blend_area.y2, h_half);
 3174              		.loc 1 825 21 is_stmt 0 view .LVU1194
 3175 09ba AA42     		cmp	r2, r5
 3176 09bc A8BF     		it	ge
 3177 09be 2A46     		movge	r2, r5
 825:lvgl/src/draw/sw/lv_draw_sw_rect.c ****     blend_area.y2 = LV_MIN(blend_area.y2, h_half);
 3178              		.loc 1 825 19 view .LVU1195
 3179 09c0 ADF85C20 		strh	r2, [sp, #92]	@ movhi
 826:lvgl/src/draw/sw/lv_draw_sw_rect.c **** 
 3180              		.loc 1 826 5 is_stmt 1 view .LVU1196
 826:lvgl/src/draw/sw/lv_draw_sw_rect.c **** 
 3181              		.loc 1 826 21 is_stmt 0 view .LVU1197
 3182 09c4 4345     		cmp	r3, r8
 3183 09c6 A8BF     		it	ge
 3184 09c8 4346     		movge	r3, r8
 826:lvgl/src/draw/sw/lv_draw_sw_rect.c **** 
 3185              		.loc 1 826 19 view .LVU1198
ARM GAS  C:\Users\OSD\AppData\Local\Temp\ccS6lZqb.s 			page 103


 3186 09ca ADF85E30 		strh	r3, [sp, #94]	@ movhi
 828:lvgl/src/draw/sw/lv_draw_sw_rect.c ****        !_lv_area_is_in(&clip_area_sub, &bg_area, r_bg)) {
 3187              		.loc 1 828 5 is_stmt 1 view .LVU1199
 828:lvgl/src/draw/sw/lv_draw_sw_rect.c ****        !_lv_area_is_in(&clip_area_sub, &bg_area, r_bg)) {
 3188              		.loc 1 828 8 is_stmt 0 view .LVU1200
 3189 09ce B268     		ldr	r2, [r6, #8]
 3190 09d0 16A9     		add	r1, sp, #88
 3191 09d2 14A8     		add	r0, sp, #80
 3192 09d4 FFF7FEFF 		bl	_lv_area_intersect
 3193              	.LVL297:
 828:lvgl/src/draw/sw/lv_draw_sw_rect.c ****        !_lv_area_is_in(&clip_area_sub, &bg_area, r_bg)) {
 3194              		.loc 1 828 7 view .LVU1201
 3195 09d8 0028     		cmp	r0, #0
 3196 09da 40F0C880 		bne	.L218
 3197              	.L150:
 865:lvgl/src/draw/sw/lv_draw_sw_rect.c ****     blend_area.x2 = shadow_area.x1 + corner_size - 1;
 3198              		.loc 1 865 5 is_stmt 1 view .LVU1202
 865:lvgl/src/draw/sw/lv_draw_sw_rect.c ****     blend_area.x2 = shadow_area.x1 + corner_size - 1;
 3199              		.loc 1 865 32 is_stmt 0 view .LVU1203
 3200 09de BDF98830 		ldrsh	r3, [sp, #136]
 865:lvgl/src/draw/sw/lv_draw_sw_rect.c ****     blend_area.x2 = shadow_area.x1 + corner_size - 1;
 3201              		.loc 1 865 19 view .LVU1204
 3202 09e2 ADF85830 		strh	r3, [sp, #88]	@ movhi
 866:lvgl/src/draw/sw/lv_draw_sw_rect.c ****     blend_area.y1 = shadow_area.y2 - corner_size + 1;
 3203              		.loc 1 866 5 is_stmt 1 view .LVU1205
 866:lvgl/src/draw/sw/lv_draw_sw_rect.c ****     blend_area.y1 = shadow_area.y2 - corner_size + 1;
 3204              		.loc 1 866 36 is_stmt 0 view .LVU1206
 3205 09e6 17FA83F3 		uxtah	r3, r7, r3
 3206 09ea 9BB2     		uxth	r3, r3
 866:lvgl/src/draw/sw/lv_draw_sw_rect.c ****     blend_area.y1 = shadow_area.y2 - corner_size + 1;
 3207              		.loc 1 866 50 view .LVU1207
 3208 09ec 013B     		subs	r3, r3, #1
 3209 09ee 1BB2     		sxth	r3, r3
 866:lvgl/src/draw/sw/lv_draw_sw_rect.c ****     blend_area.y1 = shadow_area.y2 - corner_size + 1;
 3210              		.loc 1 866 19 view .LVU1208
 3211 09f0 ADF85C30 		strh	r3, [sp, #92]	@ movhi
 867:lvgl/src/draw/sw/lv_draw_sw_rect.c ****     blend_area.y2 = shadow_area.y2;
 3212              		.loc 1 867 5 is_stmt 1 view .LVU1209
 867:lvgl/src/draw/sw/lv_draw_sw_rect.c ****     blend_area.y2 = shadow_area.y2;
 3213              		.loc 1 867 32 is_stmt 0 view .LVU1210
 3214 09f4 BDF98E10 		ldrsh	r1, [sp, #142]
 3215 09f8 8AB2     		uxth	r2, r1
 867:lvgl/src/draw/sw/lv_draw_sw_rect.c ****     blend_area.y2 = shadow_area.y2;
 3216              		.loc 1 867 36 view .LVU1211
 3217 09fa D21B     		subs	r2, r2, r7
 3218 09fc 92B2     		uxth	r2, r2
 867:lvgl/src/draw/sw/lv_draw_sw_rect.c ****     blend_area.y2 = shadow_area.y2;
 3219              		.loc 1 867 50 view .LVU1212
 3220 09fe 0132     		adds	r2, r2, #1
 3221 0a00 12B2     		sxth	r2, r2
 867:lvgl/src/draw/sw/lv_draw_sw_rect.c ****     blend_area.y2 = shadow_area.y2;
 3222              		.loc 1 867 19 view .LVU1213
 3223 0a02 ADF85A20 		strh	r2, [sp, #90]	@ movhi
 868:lvgl/src/draw/sw/lv_draw_sw_rect.c ****     /*Do not overdraw the other corners*/
 3224              		.loc 1 868 5 is_stmt 1 view .LVU1214
 868:lvgl/src/draw/sw/lv_draw_sw_rect.c ****     /*Do not overdraw the other corners*/
 3225              		.loc 1 868 19 is_stmt 0 view .LVU1215
ARM GAS  C:\Users\OSD\AppData\Local\Temp\ccS6lZqb.s 			page 104


 3226 0a06 ADF85E10 		strh	r1, [sp, #94]	@ movhi
 870:lvgl/src/draw/sw/lv_draw_sw_rect.c ****     blend_area.x2 = LV_MIN(blend_area.x2, w_half - 1);
 3227              		.loc 1 870 5 is_stmt 1 view .LVU1216
 870:lvgl/src/draw/sw/lv_draw_sw_rect.c ****     blend_area.x2 = LV_MIN(blend_area.x2, w_half - 1);
 3228              		.loc 1 870 21 is_stmt 0 view .LVU1217
 3229 0a0a 0599     		ldr	r1, [sp, #20]
 3230 0a0c 9142     		cmp	r1, r2
 3231 0a0e B8BF     		it	lt
 3232 0a10 1146     		movlt	r1, r2
 870:lvgl/src/draw/sw/lv_draw_sw_rect.c ****     blend_area.x2 = LV_MIN(blend_area.x2, w_half - 1);
 3233              		.loc 1 870 19 view .LVU1218
 3234 0a12 ADF85A10 		strh	r1, [sp, #90]	@ movhi
 871:lvgl/src/draw/sw/lv_draw_sw_rect.c **** 
 3235              		.loc 1 871 5 is_stmt 1 view .LVU1219
 871:lvgl/src/draw/sw/lv_draw_sw_rect.c **** 
 3236              		.loc 1 871 21 is_stmt 0 view .LVU1220
 3237 0a16 AB42     		cmp	r3, r5
 3238 0a18 A8BF     		it	ge
 3239 0a1a 2B46     		movge	r3, r5
 871:lvgl/src/draw/sw/lv_draw_sw_rect.c **** 
 3240              		.loc 1 871 19 view .LVU1221
 3241 0a1c ADF85C30 		strh	r3, [sp, #92]	@ movhi
 873:lvgl/src/draw/sw/lv_draw_sw_rect.c ****        !_lv_area_is_in(&clip_area_sub, &bg_area, r_bg)) {
 3242              		.loc 1 873 5 is_stmt 1 view .LVU1222
 873:lvgl/src/draw/sw/lv_draw_sw_rect.c ****        !_lv_area_is_in(&clip_area_sub, &bg_area, r_bg)) {
 3243              		.loc 1 873 8 is_stmt 0 view .LVU1223
 3244 0a20 B268     		ldr	r2, [r6, #8]
 3245 0a22 16A9     		add	r1, sp, #88
 3246 0a24 14A8     		add	r0, sp, #80
 3247 0a26 FFF7FEFF 		bl	_lv_area_intersect
 3248              	.LVL298:
 873:lvgl/src/draw/sw/lv_draw_sw_rect.c ****        !_lv_area_is_in(&clip_area_sub, &bg_area, r_bg)) {
 3249              		.loc 1 873 7 view .LVU1224
 3250 0a2a 0028     		cmp	r0, #0
 3251 0a2c 40F01C81 		bne	.L219
 3252              	.LVL299:
 3253              	.L156:
 907:lvgl/src/draw/sw/lv_draw_sw_rect.c ****     blend_area.x2 = shadow_area.x2 - corner_size;
 3254              		.loc 1 907 5 is_stmt 1 view .LVU1225
 907:lvgl/src/draw/sw/lv_draw_sw_rect.c ****     blend_area.x2 = shadow_area.x2 - corner_size;
 3255              		.loc 1 907 32 is_stmt 0 view .LVU1226
 3256 0a30 BDF88830 		ldrh	r3, [sp, #136]
 907:lvgl/src/draw/sw/lv_draw_sw_rect.c ****     blend_area.x2 = shadow_area.x2 - corner_size;
 3257              		.loc 1 907 36 view .LVU1227
 3258 0a34 3B44     		add	r3, r3, r7
 907:lvgl/src/draw/sw/lv_draw_sw_rect.c ****     blend_area.x2 = shadow_area.x2 - corner_size;
 3259              		.loc 1 907 19 view .LVU1228
 3260 0a36 ADF85830 		strh	r3, [sp, #88]	@ movhi
 908:lvgl/src/draw/sw/lv_draw_sw_rect.c ****     blend_area.y1 = shadow_area.y1 + corner_size;
 3261              		.loc 1 908 5 is_stmt 1 view .LVU1229
 908:lvgl/src/draw/sw/lv_draw_sw_rect.c ****     blend_area.y1 = shadow_area.y1 + corner_size;
 3262              		.loc 1 908 32 is_stmt 0 view .LVU1230
 3263 0a3a BDF88C30 		ldrh	r3, [sp, #140]
 908:lvgl/src/draw/sw/lv_draw_sw_rect.c ****     blend_area.y1 = shadow_area.y1 + corner_size;
 3264              		.loc 1 908 36 view .LVU1231
 3265 0a3e DB1B     		subs	r3, r3, r7
 908:lvgl/src/draw/sw/lv_draw_sw_rect.c ****     blend_area.y1 = shadow_area.y1 + corner_size;
ARM GAS  C:\Users\OSD\AppData\Local\Temp\ccS6lZqb.s 			page 105


 3266              		.loc 1 908 19 view .LVU1232
 3267 0a40 ADF85C30 		strh	r3, [sp, #92]	@ movhi
 909:lvgl/src/draw/sw/lv_draw_sw_rect.c ****     blend_area.y2 = shadow_area.y2 - corner_size;
 3268              		.loc 1 909 5 is_stmt 1 view .LVU1233
 909:lvgl/src/draw/sw/lv_draw_sw_rect.c ****     blend_area.y2 = shadow_area.y2 - corner_size;
 3269              		.loc 1 909 32 is_stmt 0 view .LVU1234
 3270 0a44 BDF88A30 		ldrh	r3, [sp, #138]
 909:lvgl/src/draw/sw/lv_draw_sw_rect.c ****     blend_area.y2 = shadow_area.y2 - corner_size;
 3271              		.loc 1 909 36 view .LVU1235
 3272 0a48 3B44     		add	r3, r3, r7
 909:lvgl/src/draw/sw/lv_draw_sw_rect.c ****     blend_area.y2 = shadow_area.y2 - corner_size;
 3273              		.loc 1 909 19 view .LVU1236
 3274 0a4a ADF85A30 		strh	r3, [sp, #90]	@ movhi
 910:lvgl/src/draw/sw/lv_draw_sw_rect.c ****     blend_dsc.mask_buf = mask_buf;
 3275              		.loc 1 910 5 is_stmt 1 view .LVU1237
 910:lvgl/src/draw/sw/lv_draw_sw_rect.c ****     blend_dsc.mask_buf = mask_buf;
 3276              		.loc 1 910 32 is_stmt 0 view .LVU1238
 3277 0a4e BDF88E30 		ldrh	r3, [sp, #142]
 910:lvgl/src/draw/sw/lv_draw_sw_rect.c ****     blend_dsc.mask_buf = mask_buf;
 3278              		.loc 1 910 36 view .LVU1239
 3279 0a52 DF1B     		subs	r7, r3, r7
 910:lvgl/src/draw/sw/lv_draw_sw_rect.c ****     blend_dsc.mask_buf = mask_buf;
 3280              		.loc 1 910 19 view .LVU1240
 3281 0a54 ADF85E70 		strh	r7, [sp, #94]	@ movhi
 911:lvgl/src/draw/sw/lv_draw_sw_rect.c **** 
 3282              		.loc 1 911 5 is_stmt 1 view .LVU1241
 911:lvgl/src/draw/sw/lv_draw_sw_rect.c **** 
 3283              		.loc 1 911 24 is_stmt 0 view .LVU1242
 3284 0a58 049B     		ldr	r3, [sp, #16]
 3285 0a5a 1093     		str	r3, [sp, #64]
 913:lvgl/src/draw/sw/lv_draw_sw_rect.c ****        !_lv_area_is_in(&clip_area_sub, &bg_area, r_bg)) {
 3286              		.loc 1 913 5 is_stmt 1 view .LVU1243
 913:lvgl/src/draw/sw/lv_draw_sw_rect.c ****        !_lv_area_is_in(&clip_area_sub, &bg_area, r_bg)) {
 3287              		.loc 1 913 8 is_stmt 0 view .LVU1244
 3288 0a5c B268     		ldr	r2, [r6, #8]
 3289 0a5e 16A9     		add	r1, sp, #88
 3290 0a60 14A8     		add	r0, sp, #80
 3291 0a62 FFF7FEFF 		bl	_lv_area_intersect
 3292              	.LVL300:
 913:lvgl/src/draw/sw/lv_draw_sw_rect.c ****        !_lv_area_is_in(&clip_area_sub, &bg_area, r_bg)) {
 3293              		.loc 1 913 7 view .LVU1245
 3294 0a66 0028     		cmp	r0, #0
 3295 0a68 40F07681 		bne	.L220
 3296              	.L162:
 930:lvgl/src/draw/sw/lv_draw_sw_rect.c ****         lv_draw_mask_free_param(&mask_rout_param);
 3297              		.loc 1 930 5 is_stmt 1 view .LVU1246
 930:lvgl/src/draw/sw/lv_draw_sw_rect.c ****         lv_draw_mask_free_param(&mask_rout_param);
 3298              		.loc 1 930 7 is_stmt 0 view .LVU1247
 3299 0a6c 009B     		ldr	r3, [sp]
 3300 0a6e 002B     		cmp	r3, #0
 3301 0a70 00F0AB81 		beq	.L221
 3302              	.L165:
 934:lvgl/src/draw/sw/lv_draw_sw_rect.c ****     lv_mem_buf_release(mask_buf);
 3303              		.loc 1 934 5 is_stmt 1 view .LVU1248
 3304 0a74 0398     		ldr	r0, [sp, #12]
 3305 0a76 FFF7FEFF 		bl	lv_mem_buf_release
 3306              	.LVL301:
ARM GAS  C:\Users\OSD\AppData\Local\Temp\ccS6lZqb.s 			page 106


 935:lvgl/src/draw/sw/lv_draw_sw_rect.c **** }
 3307              		.loc 1 935 5 view .LVU1249
 3308 0a7a 0498     		ldr	r0, [sp, #16]
 3309 0a7c FFF7FEFF 		bl	lv_mem_buf_release
 3310              	.LVL302:
 3311 0a80 FFF718BB 		b	.L83
 3312              	.LVL303:
 3313              	.L217:
 790:lvgl/src/draw/sw/lv_draw_sw_rect.c ****         lv_coord_t w = lv_area_get_width(&clip_area_sub);
 3314              		.loc 1 790 9 is_stmt 0 discriminator 1 view .LVU1250
 3315 0a84 BDF90490 		ldrsh	r9, [sp, #4]
 3316 0a88 4A46     		mov	r2, r9
 3317 0a8a 1EA9     		add	r1, sp, #120
 3318 0a8c 14A8     		add	r0, sp, #80
 3319 0a8e FFF7FEFF 		bl	_lv_area_is_in
 3320              	.LVL304:
 789:lvgl/src/draw/sw/lv_draw_sw_rect.c ****        !_lv_area_is_in(&clip_area_sub, &bg_area, r_bg)) {
 3321              		.loc 1 789 77 discriminator 1 view .LVU1251
 3322 0a92 0028     		cmp	r0, #0
 3323 0a94 7FF47BAF 		bne	.L144
 3324              	.LBB167:
 791:lvgl/src/draw/sw/lv_draw_sw_rect.c ****         sh_buf_tmp = sh_buf;
 3325              		.loc 1 791 9 is_stmt 1 view .LVU1252
 3326              	.LVL305:
 3327              	.LBB168:
 3328              	.LBI168:
 123:lvgl/src/draw/sw/../../misc/lv_area.h **** {
 3329              		.loc 2 123 26 view .LVU1253
 3330              	.LBB169:
 125:lvgl/src/draw/sw/../../misc/lv_area.h **** }
 3331              		.loc 2 125 5 view .LVU1254
 125:lvgl/src/draw/sw/../../misc/lv_area.h **** }
 3332              		.loc 2 125 31 is_stmt 0 view .LVU1255
 3333 0a98 BDF854B0 		ldrh	fp, [sp, #84]
 125:lvgl/src/draw/sw/../../misc/lv_area.h **** }
 3334              		.loc 2 125 44 view .LVU1256
 3335 0a9c BDF95030 		ldrsh	r3, [sp, #80]
 3336 0aa0 9AB2     		uxth	r2, r3
 125:lvgl/src/draw/sw/../../misc/lv_area.h **** }
 3337              		.loc 2 125 36 view .LVU1257
 3338 0aa2 ABEB020B 		sub	fp, fp, r2
 3339 0aa6 1FFA8BFB 		uxth	fp, fp
 125:lvgl/src/draw/sw/../../misc/lv_area.h **** }
 3340              		.loc 2 125 49 view .LVU1258
 3341 0aaa 0BF1010B 		add	fp, fp, #1
 125:lvgl/src/draw/sw/../../misc/lv_area.h **** }
 3342              		.loc 2 125 12 view .LVU1259
 3343 0aae 0FFA8BFB 		sxth	fp, fp
 3344              	.LVL306:
 125:lvgl/src/draw/sw/../../misc/lv_area.h **** }
 3345              		.loc 2 125 12 view .LVU1260
 3346              	.LBE169:
 3347              	.LBE168:
 792:lvgl/src/draw/sw/lv_draw_sw_rect.c ****         sh_buf_tmp += (corner_size - 1) * corner_size;
 3348              		.loc 1 792 9 is_stmt 1 view .LVU1261
 793:lvgl/src/draw/sw/lv_draw_sw_rect.c ****         sh_buf_tmp += clip_area_sub.x1 - blend_area.x1;
 3349              		.loc 1 793 9 view .LVU1262
ARM GAS  C:\Users\OSD\AppData\Local\Temp\ccS6lZqb.s 			page 107


 793:lvgl/src/draw/sw/lv_draw_sw_rect.c ****         sh_buf_tmp += clip_area_sub.x1 - blend_area.x1;
 3350              		.loc 1 793 36 is_stmt 0 view .LVU1263
 3351 0ab2 621E     		subs	r2, r4, #1
 3352              	.LVL307:
 794:lvgl/src/draw/sw/lv_draw_sw_rect.c **** 
 3353              		.loc 1 794 9 is_stmt 1 view .LVU1264
 794:lvgl/src/draw/sw/lv_draw_sw_rect.c **** 
 3354              		.loc 1 794 52 is_stmt 0 view .LVU1265
 3355 0ab4 BDF95810 		ldrsh	r1, [sp, #88]
 794:lvgl/src/draw/sw/lv_draw_sw_rect.c **** 
 3356              		.loc 1 794 40 view .LVU1266
 3357 0ab8 5B1A     		subs	r3, r3, r1
 794:lvgl/src/draw/sw/lv_draw_sw_rect.c **** 
 3358              		.loc 1 794 20 view .LVU1267
 3359 0aba 04FB0233 		mla	r3, r4, r2, r3
 3360 0abe 039A     		ldr	r2, [sp, #12]
 3361 0ac0 D318     		adds	r3, r2, r3
 3362 0ac2 0293     		str	r3, [sp, #8]
 3363              	.LVL308:
 797:lvgl/src/draw/sw/lv_draw_sw_rect.c ****         else simple_sub = simple;
 3364              		.loc 1 797 9 is_stmt 1 view .LVU1268
 797:lvgl/src/draw/sw/lv_draw_sw_rect.c ****         else simple_sub = simple;
 3365              		.loc 1 797 11 is_stmt 0 view .LVU1269
 3366 0ac4 009B     		ldr	r3, [sp]
 3367              	.LVL309:
 797:lvgl/src/draw/sw/lv_draw_sw_rect.c ****         else simple_sub = simple;
 3368              		.loc 1 797 11 view .LVU1270
 3369 0ac6 DBB9     		cbnz	r3, .L222
 3370              	.L145:
 798:lvgl/src/draw/sw/lv_draw_sw_rect.c ****         blend_dsc.mask_buf = simple_sub ? sh_buf_tmp : mask_buf;
 3371              		.loc 1 798 14 is_stmt 1 view .LVU1271
 3372              	.LVL310:
 799:lvgl/src/draw/sw/lv_draw_sw_rect.c ****         if(w > 0) {
 3373              		.loc 1 799 9 view .LVU1272
 799:lvgl/src/draw/sw/lv_draw_sw_rect.c ****         if(w > 0) {
 3374              		.loc 1 799 54 is_stmt 0 view .LVU1273
 3375 0ac8 009B     		ldr	r3, [sp]
 3376 0aca 1BB3     		cbz	r3, .L178
 3377 0acc 9A46     		mov	r10, r3
 3378 0ace 029B     		ldr	r3, [sp, #8]
 3379              	.LVL311:
 3380              	.L146:
 799:lvgl/src/draw/sw/lv_draw_sw_rect.c ****         if(w > 0) {
 3381              		.loc 1 799 28 discriminator 4 view .LVU1274
 3382 0ad0 1093     		str	r3, [sp, #64]
 800:lvgl/src/draw/sw/lv_draw_sw_rect.c ****             blend_area.x1 = clip_area_sub.x1;
 3383              		.loc 1 800 9 is_stmt 1 discriminator 4 view .LVU1275
 800:lvgl/src/draw/sw/lv_draw_sw_rect.c ****             blend_area.x1 = clip_area_sub.x1;
 3384              		.loc 1 800 11 is_stmt 0 discriminator 4 view .LVU1276
 3385 0ad2 BBF1000F 		cmp	fp, #0
 3386 0ad6 7FF75AAF 		ble	.L144
 801:lvgl/src/draw/sw/lv_draw_sw_rect.c ****             blend_area.x2 = clip_area_sub.x2;
 3387              		.loc 1 801 13 is_stmt 1 view .LVU1277
 801:lvgl/src/draw/sw/lv_draw_sw_rect.c ****             blend_area.x2 = clip_area_sub.x2;
 3388              		.loc 1 801 42 is_stmt 0 view .LVU1278
 3389 0ada BDF95030 		ldrsh	r3, [sp, #80]
 801:lvgl/src/draw/sw/lv_draw_sw_rect.c ****             blend_area.x2 = clip_area_sub.x2;
ARM GAS  C:\Users\OSD\AppData\Local\Temp\ccS6lZqb.s 			page 108


 3390              		.loc 1 801 27 view .LVU1279
 3391 0ade ADF85830 		strh	r3, [sp, #88]	@ movhi
 802:lvgl/src/draw/sw/lv_draw_sw_rect.c ****             blend_dsc.mask_res = LV_DRAW_MASK_RES_CHANGED;    /*In simple mode it won't be overwrit
 3392              		.loc 1 802 13 is_stmt 1 view .LVU1280
 802:lvgl/src/draw/sw/lv_draw_sw_rect.c ****             blend_dsc.mask_res = LV_DRAW_MASK_RES_CHANGED;    /*In simple mode it won't be overwrit
 3393              		.loc 1 802 42 is_stmt 0 view .LVU1281
 3394 0ae2 BDF95430 		ldrsh	r3, [sp, #84]
 802:lvgl/src/draw/sw/lv_draw_sw_rect.c ****             blend_dsc.mask_res = LV_DRAW_MASK_RES_CHANGED;    /*In simple mode it won't be overwrit
 3395              		.loc 1 802 27 view .LVU1282
 3396 0ae6 ADF85C30 		strh	r3, [sp, #92]	@ movhi
 803:lvgl/src/draw/sw/lv_draw_sw_rect.c ****             for(y = clip_area_sub.y1; y <= clip_area_sub.y2; y++) {
 3397              		.loc 1 803 13 is_stmt 1 view .LVU1283
 803:lvgl/src/draw/sw/lv_draw_sw_rect.c ****             for(y = clip_area_sub.y1; y <= clip_area_sub.y2; y++) {
 3398              		.loc 1 803 32 is_stmt 0 view .LVU1284
 3399 0aea 0223     		movs	r3, #2
 3400 0aec 8DF84430 		strb	r3, [sp, #68]
 804:lvgl/src/draw/sw/lv_draw_sw_rect.c ****                 blend_area.y1 = y;
 3401              		.loc 1 804 13 is_stmt 1 view .LVU1285
 804:lvgl/src/draw/sw/lv_draw_sw_rect.c ****                 blend_area.y1 = y;
 3402              		.loc 1 804 19 is_stmt 0 view .LVU1286
 3403 0af0 BDF95290 		ldrsh	r9, [sp, #82]
 3404              	.LVL312:
 804:lvgl/src/draw/sw/lv_draw_sw_rect.c ****                 blend_area.y1 = y;
 3405              		.loc 1 804 19 view .LVU1287
 3406 0af4 0695     		str	r5, [sp, #24]
 3407 0af6 2346     		mov	r3, r4
 3408 0af8 5446     		mov	r4, r10
 3409              	.LVL313:
 804:lvgl/src/draw/sw/lv_draw_sw_rect.c ****                 blend_area.y1 = y;
 3410              		.loc 1 804 19 view .LVU1288
 3411 0afa 049D     		ldr	r5, [sp, #16]
 3412 0afc 9A46     		mov	r10, r3
 804:lvgl/src/draw/sw/lv_draw_sw_rect.c ****                 blend_area.y1 = y;
 3413              		.loc 1 804 13 view .LVU1289
 3414 0afe 15E0     		b	.L147
 3415              	.LVL314:
 3416              	.L222:
 797:lvgl/src/draw/sw/lv_draw_sw_rect.c ****         else simple_sub = simple;
 3417              		.loc 1 797 22 discriminator 1 view .LVU1290
 3418 0b00 4A46     		mov	r2, r9
 3419 0b02 1EA9     		add	r1, sp, #120
 3420 0b04 14A8     		add	r0, sp, #80
 3421 0b06 FFF7FEFF 		bl	_lv_area_is_out
 3422              	.LVL315:
 797:lvgl/src/draw/sw/lv_draw_sw_rect.c ****         else simple_sub = simple;
 3423              		.loc 1 797 19 discriminator 1 view .LVU1291
 3424 0b0a 8246     		mov	r10, r0
 3425 0b0c 0028     		cmp	r0, #0
 3426 0b0e DBD0     		beq	.L145
 799:lvgl/src/draw/sw/lv_draw_sw_rect.c ****         if(w > 0) {
 3427              		.loc 1 799 54 view .LVU1292
 3428 0b10 029B     		ldr	r3, [sp, #8]
 3429 0b12 DDE7     		b	.L146
 3430              	.LVL316:
 3431              	.L178:
 799:lvgl/src/draw/sw/lv_draw_sw_rect.c ****         if(w > 0) {
 3432              		.loc 1 799 54 view .LVU1293
ARM GAS  C:\Users\OSD\AppData\Local\Temp\ccS6lZqb.s 			page 109


 3433 0b14 DDF800A0 		ldr	r10, [sp]
 3434 0b18 049B     		ldr	r3, [sp, #16]
 3435 0b1a D9E7     		b	.L146
 3436              	.LVL317:
 3437              	.L148:
 814:lvgl/src/draw/sw/lv_draw_sw_rect.c ****             }
 3438              		.loc 1 814 17 is_stmt 1 discriminator 2 view .LVU1294
 3439 0b1c 0DA9     		add	r1, sp, #52
 3440 0b1e 3046     		mov	r0, r6
 3441 0b20 FFF7FEFF 		bl	lv_draw_sw_blend
 3442              	.LVL318:
 804:lvgl/src/draw/sw/lv_draw_sw_rect.c ****                 blend_area.y1 = y;
 3443              		.loc 1 804 62 discriminator 2 view .LVU1295
 804:lvgl/src/draw/sw/lv_draw_sw_rect.c ****                 blend_area.y1 = y;
 3444              		.loc 1 804 63 is_stmt 0 discriminator 2 view .LVU1296
 3445 0b24 09F10109 		add	r9, r9, #1
 3446              	.LVL319:
 804:lvgl/src/draw/sw/lv_draw_sw_rect.c ****                 blend_area.y1 = y;
 3447              		.loc 1 804 63 discriminator 2 view .LVU1297
 3448 0b28 0FFA89F9 		sxth	r9, r9
 3449              	.LVL320:
 3450              	.L147:
 804:lvgl/src/draw/sw/lv_draw_sw_rect.c ****                 blend_area.y1 = y;
 3451              		.loc 1 804 39 is_stmt 1 discriminator 1 view .LVU1298
 804:lvgl/src/draw/sw/lv_draw_sw_rect.c ****                 blend_area.y1 = y;
 3452              		.loc 1 804 57 is_stmt 0 discriminator 1 view .LVU1299
 3453 0b2c BDF95630 		ldrsh	r3, [sp, #86]
 804:lvgl/src/draw/sw/lv_draw_sw_rect.c ****                 blend_area.y1 = y;
 3454              		.loc 1 804 13 discriminator 1 view .LVU1300
 3455 0b30 4B45     		cmp	r3, r9
 3456 0b32 19DB     		blt	.L223
 805:lvgl/src/draw/sw/lv_draw_sw_rect.c ****                 blend_area.y2 = y;
 3457              		.loc 1 805 17 is_stmt 1 view .LVU1301
 805:lvgl/src/draw/sw/lv_draw_sw_rect.c ****                 blend_area.y2 = y;
 3458              		.loc 1 805 31 is_stmt 0 view .LVU1302
 3459 0b34 ADF85A90 		strh	r9, [sp, #90]	@ movhi
 806:lvgl/src/draw/sw/lv_draw_sw_rect.c **** 
 3460              		.loc 1 806 17 is_stmt 1 view .LVU1303
 806:lvgl/src/draw/sw/lv_draw_sw_rect.c **** 
 3461              		.loc 1 806 31 is_stmt 0 view .LVU1304
 3462 0b38 ADF85E90 		strh	r9, [sp, #94]	@ movhi
 808:lvgl/src/draw/sw/lv_draw_sw_rect.c ****                     lv_memcpy(mask_buf, sh_buf_tmp, w);
 3463              		.loc 1 808 17 is_stmt 1 view .LVU1305
 808:lvgl/src/draw/sw/lv_draw_sw_rect.c ****                     lv_memcpy(mask_buf, sh_buf_tmp, w);
 3464              		.loc 1 808 19 is_stmt 0 view .LVU1306
 3465 0b3c 002C     		cmp	r4, #0
 3466 0b3e EDD1     		bne	.L148
 809:lvgl/src/draw/sw/lv_draw_sw_rect.c ****                     blend_dsc.mask_res = lv_draw_mask_apply(mask_buf, clip_area_sub.x1, y, w);
 3467              		.loc 1 809 21 is_stmt 1 view .LVU1307
 3468 0b40 5A46     		mov	r2, fp
 3469 0b42 0299     		ldr	r1, [sp, #8]
 3470 0b44 2846     		mov	r0, r5
 3471 0b46 FFF7FEFF 		bl	lv_memcpy
 3472              	.LVL321:
 810:lvgl/src/draw/sw/lv_draw_sw_rect.c ****                     if(blend_dsc.mask_res == LV_DRAW_MASK_RES_FULL_COVER) blend_dsc.mask_res = LV_D
 3473              		.loc 1 810 21 view .LVU1308
 810:lvgl/src/draw/sw/lv_draw_sw_rect.c ****                     if(blend_dsc.mask_res == LV_DRAW_MASK_RES_FULL_COVER) blend_dsc.mask_res = LV_D
ARM GAS  C:\Users\OSD\AppData\Local\Temp\ccS6lZqb.s 			page 110


 3474              		.loc 1 810 42 is_stmt 0 view .LVU1309
 3475 0b4a 5B46     		mov	r3, fp
 3476 0b4c 4A46     		mov	r2, r9
 3477 0b4e BDF95010 		ldrsh	r1, [sp, #80]
 3478 0b52 2846     		mov	r0, r5
 3479 0b54 FFF7FEFF 		bl	lv_draw_mask_apply
 3480              	.LVL322:
 810:lvgl/src/draw/sw/lv_draw_sw_rect.c ****                     if(blend_dsc.mask_res == LV_DRAW_MASK_RES_FULL_COVER) blend_dsc.mask_res = LV_D
 3481              		.loc 1 810 40 view .LVU1310
 3482 0b58 8DF84400 		strb	r0, [sp, #68]
 811:lvgl/src/draw/sw/lv_draw_sw_rect.c ****                 }
 3483              		.loc 1 811 21 is_stmt 1 view .LVU1311
 811:lvgl/src/draw/sw/lv_draw_sw_rect.c ****                 }
 3484              		.loc 1 811 23 is_stmt 0 view .LVU1312
 3485 0b5c 0128     		cmp	r0, #1
 3486 0b5e DDD1     		bne	.L148
 811:lvgl/src/draw/sw/lv_draw_sw_rect.c ****                 }
 3487              		.loc 1 811 75 is_stmt 1 discriminator 1 view .LVU1313
 811:lvgl/src/draw/sw/lv_draw_sw_rect.c ****                 }
 3488              		.loc 1 811 94 is_stmt 0 discriminator 1 view .LVU1314
 3489 0b60 0223     		movs	r3, #2
 3490 0b62 8DF84430 		strb	r3, [sp, #68]
 3491 0b66 D9E7     		b	.L148
 3492              	.L223:
 3493 0b68 069D     		ldr	r5, [sp, #24]
 3494 0b6a 5446     		mov	r4, r10
 3495 0b6c 0FE7     		b	.L144
 3496              	.LVL323:
 3497              	.L218:
 811:lvgl/src/draw/sw/lv_draw_sw_rect.c ****                 }
 3498              		.loc 1 811 94 discriminator 1 view .LVU1315
 3499              	.LBE167:
 829:lvgl/src/draw/sw/lv_draw_sw_rect.c ****         lv_coord_t w = lv_area_get_width(&clip_area_sub);
 3500              		.loc 1 829 9 discriminator 1 view .LVU1316
 3501 0b6e BDF90480 		ldrsh	r8, [sp, #4]
 3502 0b72 4246     		mov	r2, r8
 3503 0b74 1EA9     		add	r1, sp, #120
 3504 0b76 14A8     		add	r0, sp, #80
 3505 0b78 FFF7FEFF 		bl	_lv_area_is_in
 3506              	.LVL324:
 828:lvgl/src/draw/sw/lv_draw_sw_rect.c ****        !_lv_area_is_in(&clip_area_sub, &bg_area, r_bg)) {
 3507              		.loc 1 828 77 discriminator 1 view .LVU1317
 3508 0b7c 0028     		cmp	r0, #0
 3509 0b7e 7FF42EAF 		bne	.L150
 3510              	.LBB170:
 830:lvgl/src/draw/sw/lv_draw_sw_rect.c ****         sh_buf_tmp = sh_buf;
 3511              		.loc 1 830 9 is_stmt 1 view .LVU1318
 3512              	.LVL325:
 3513              	.LBB171:
 3514              	.LBI171:
 123:lvgl/src/draw/sw/../../misc/lv_area.h **** {
 3515              		.loc 2 123 26 view .LVU1319
 3516              	.LBB172:
 125:lvgl/src/draw/sw/../../misc/lv_area.h **** }
 3517              		.loc 2 125 5 view .LVU1320
 125:lvgl/src/draw/sw/../../misc/lv_area.h **** }
 3518              		.loc 2 125 31 is_stmt 0 view .LVU1321
ARM GAS  C:\Users\OSD\AppData\Local\Temp\ccS6lZqb.s 			page 111


 3519 0b82 BDF854A0 		ldrh	r10, [sp, #84]
 125:lvgl/src/draw/sw/../../misc/lv_area.h **** }
 3520              		.loc 2 125 44 view .LVU1322
 3521 0b86 BDF95030 		ldrsh	r3, [sp, #80]
 3522 0b8a 9AB2     		uxth	r2, r3
 125:lvgl/src/draw/sw/../../misc/lv_area.h **** }
 3523              		.loc 2 125 36 view .LVU1323
 3524 0b8c AAEB020A 		sub	r10, r10, r2
 3525 0b90 1FFA8AFA 		uxth	r10, r10
 125:lvgl/src/draw/sw/../../misc/lv_area.h **** }
 3526              		.loc 2 125 49 view .LVU1324
 3527 0b94 0AF1010A 		add	r10, r10, #1
 125:lvgl/src/draw/sw/../../misc/lv_area.h **** }
 3528              		.loc 2 125 12 view .LVU1325
 3529 0b98 0FFA8AFA 		sxth	r10, r10
 3530              	.LVL326:
 125:lvgl/src/draw/sw/../../misc/lv_area.h **** }
 3531              		.loc 2 125 12 view .LVU1326
 3532              	.LBE172:
 3533              	.LBE171:
 831:lvgl/src/draw/sw/lv_draw_sw_rect.c ****         sh_buf_tmp += (clip_area_sub.y1 - blend_area.y1) * corner_size;
 3534              		.loc 1 831 9 is_stmt 1 view .LVU1327
 832:lvgl/src/draw/sw/lv_draw_sw_rect.c ****         sh_buf_tmp += clip_area_sub.x1 - blend_area.x1;
 3535              		.loc 1 832 9 view .LVU1328
 832:lvgl/src/draw/sw/lv_draw_sw_rect.c ****         sh_buf_tmp += clip_area_sub.x1 - blend_area.x1;
 3536              		.loc 1 832 37 is_stmt 0 view .LVU1329
 3537 0b9c BDF95220 		ldrsh	r2, [sp, #82]
 832:lvgl/src/draw/sw/lv_draw_sw_rect.c ****         sh_buf_tmp += clip_area_sub.x1 - blend_area.x1;
 3538              		.loc 1 832 53 view .LVU1330
 3539 0ba0 BDF95A90 		ldrsh	r9, [sp, #90]
 832:lvgl/src/draw/sw/lv_draw_sw_rect.c ****         sh_buf_tmp += clip_area_sub.x1 - blend_area.x1;
 3540              		.loc 1 832 41 view .LVU1331
 3541 0ba4 A2EB0902 		sub	r2, r2, r9
 3542              	.LVL327:
 833:lvgl/src/draw/sw/lv_draw_sw_rect.c **** 
 3543              		.loc 1 833 9 is_stmt 1 view .LVU1332
 833:lvgl/src/draw/sw/lv_draw_sw_rect.c **** 
 3544              		.loc 1 833 52 is_stmt 0 view .LVU1333
 3545 0ba8 BDF95890 		ldrsh	r9, [sp, #88]
 833:lvgl/src/draw/sw/lv_draw_sw_rect.c **** 
 3546              		.loc 1 833 40 view .LVU1334
 3547 0bac A3EB0909 		sub	r9, r3, r9
 833:lvgl/src/draw/sw/lv_draw_sw_rect.c **** 
 3548              		.loc 1 833 20 view .LVU1335
 3549 0bb0 04FB0299 		mla	r9, r4, r2, r9
 3550 0bb4 039B     		ldr	r3, [sp, #12]
 3551 0bb6 9944     		add	r9, r9, r3
 3552              	.LVL328:
 836:lvgl/src/draw/sw/lv_draw_sw_rect.c ****         else simple_sub = simple;
 3553              		.loc 1 836 9 is_stmt 1 view .LVU1336
 836:lvgl/src/draw/sw/lv_draw_sw_rect.c ****         else simple_sub = simple;
 3554              		.loc 1 836 11 is_stmt 0 view .LVU1337
 3555 0bb8 009B     		ldr	r3, [sp]
 3556 0bba EBB9     		cbnz	r3, .L224
 3557 0bbc DDF800B0 		ldr	fp, [sp]
 3558              	.L151:
 3559              	.LVL329:
ARM GAS  C:\Users\OSD\AppData\Local\Temp\ccS6lZqb.s 			page 112


 838:lvgl/src/draw/sw/lv_draw_sw_rect.c **** 
 3560              		.loc 1 838 9 is_stmt 1 view .LVU1338
 838:lvgl/src/draw/sw/lv_draw_sw_rect.c **** 
 3561              		.loc 1 838 28 is_stmt 0 view .LVU1339
 3562 0bc0 049A     		ldr	r2, [sp, #16]
 3563 0bc2 1092     		str	r2, [sp, #64]
 840:lvgl/src/draw/sw/lv_draw_sw_rect.c ****             blend_area.x1 = clip_area_sub.x1;
 3564              		.loc 1 840 9 is_stmt 1 view .LVU1340
 840:lvgl/src/draw/sw/lv_draw_sw_rect.c ****             blend_area.x1 = clip_area_sub.x1;
 3565              		.loc 1 840 11 is_stmt 0 view .LVU1341
 3566 0bc4 BAF1000F 		cmp	r10, #0
 3567 0bc8 7FF709AF 		ble	.L150
 841:lvgl/src/draw/sw/lv_draw_sw_rect.c ****             blend_area.x2 = clip_area_sub.x2;
 3568              		.loc 1 841 13 is_stmt 1 view .LVU1342
 841:lvgl/src/draw/sw/lv_draw_sw_rect.c ****             blend_area.x2 = clip_area_sub.x2;
 3569              		.loc 1 841 42 is_stmt 0 view .LVU1343
 3570 0bcc BDF95030 		ldrsh	r3, [sp, #80]
 841:lvgl/src/draw/sw/lv_draw_sw_rect.c ****             blend_area.x2 = clip_area_sub.x2;
 3571              		.loc 1 841 27 view .LVU1344
 3572 0bd0 ADF85830 		strh	r3, [sp, #88]	@ movhi
 842:lvgl/src/draw/sw/lv_draw_sw_rect.c ****             blend_dsc.mask_res = LV_DRAW_MASK_RES_CHANGED;    /*In simple mode it won't be overwrit
 3573              		.loc 1 842 13 is_stmt 1 view .LVU1345
 842:lvgl/src/draw/sw/lv_draw_sw_rect.c ****             blend_dsc.mask_res = LV_DRAW_MASK_RES_CHANGED;    /*In simple mode it won't be overwrit
 3574              		.loc 1 842 42 is_stmt 0 view .LVU1346
 3575 0bd4 BDF95430 		ldrsh	r3, [sp, #84]
 842:lvgl/src/draw/sw/lv_draw_sw_rect.c ****             blend_dsc.mask_res = LV_DRAW_MASK_RES_CHANGED;    /*In simple mode it won't be overwrit
 3576              		.loc 1 842 27 view .LVU1347
 3577 0bd8 ADF85C30 		strh	r3, [sp, #92]	@ movhi
 843:lvgl/src/draw/sw/lv_draw_sw_rect.c ****             for(y = clip_area_sub.y1; y <= clip_area_sub.y2; y++) {
 3578              		.loc 1 843 13 is_stmt 1 view .LVU1348
 843:lvgl/src/draw/sw/lv_draw_sw_rect.c ****             for(y = clip_area_sub.y1; y <= clip_area_sub.y2; y++) {
 3579              		.loc 1 843 32 is_stmt 0 view .LVU1349
 3580 0bdc 0223     		movs	r3, #2
 3581 0bde 8DF84430 		strb	r3, [sp, #68]
 844:lvgl/src/draw/sw/lv_draw_sw_rect.c ****                 blend_area.y1 = y;
 3582              		.loc 1 844 13 is_stmt 1 view .LVU1350
 844:lvgl/src/draw/sw/lv_draw_sw_rect.c ****                 blend_area.y1 = y;
 3583              		.loc 1 844 19 is_stmt 0 view .LVU1351
 3584 0be2 BDF95280 		ldrsh	r8, [sp, #82]
 3585              	.LVL330:
 844:lvgl/src/draw/sw/lv_draw_sw_rect.c ****                 blend_area.y1 = y;
 3586              		.loc 1 844 19 view .LVU1352
 3587 0be6 0297     		str	r7, [sp, #8]
 3588 0be8 5946     		mov	r1, fp
 3589 0bea AB46     		mov	fp, r5
 3590              	.LVL331:
 844:lvgl/src/draw/sw/lv_draw_sw_rect.c ****                 blend_area.y1 = y;
 3591              		.loc 1 844 19 view .LVU1353
 3592 0bec 2346     		mov	r3, r4
 3593 0bee 4C46     		mov	r4, r9
 3594              	.LVL332:
 844:lvgl/src/draw/sw/lv_draw_sw_rect.c ****                 blend_area.y1 = y;
 3595              		.loc 1 844 19 view .LVU1354
 3596 0bf0 1746     		mov	r7, r2
 3597 0bf2 9946     		mov	r9, r3
 3598              	.LVL333:
 844:lvgl/src/draw/sw/lv_draw_sw_rect.c ****                 blend_area.y1 = y;
ARM GAS  C:\Users\OSD\AppData\Local\Temp\ccS6lZqb.s 			page 113


 3599              		.loc 1 844 19 view .LVU1355
 3600 0bf4 0D46     		mov	r5, r1
 844:lvgl/src/draw/sw/lv_draw_sw_rect.c ****                 blend_area.y1 = y;
 3601              		.loc 1 844 13 view .LVU1356
 3602 0bf6 23E0     		b	.L152
 3603              	.LVL334:
 3604              	.L224:
 836:lvgl/src/draw/sw/lv_draw_sw_rect.c ****         else simple_sub = simple;
 3605              		.loc 1 836 22 discriminator 1 view .LVU1357
 3606 0bf8 4246     		mov	r2, r8
 3607 0bfa 1EA9     		add	r1, sp, #120
 3608 0bfc 14A8     		add	r0, sp, #80
 3609 0bfe FFF7FEFF 		bl	_lv_area_is_out
 3610              	.LVL335:
 836:lvgl/src/draw/sw/lv_draw_sw_rect.c ****         else simple_sub = simple;
 3611              		.loc 1 836 19 discriminator 1 view .LVU1358
 3612 0c02 8346     		mov	fp, r0
 3613 0c04 0028     		cmp	r0, #0
 3614 0c06 DBD1     		bne	.L151
 3615 0c08 DDF800B0 		ldr	fp, [sp]
 3616 0c0c D8E7     		b	.L151
 3617              	.LVL336:
 3618              	.L227:
 849:lvgl/src/draw/sw/lv_draw_sw_rect.c ****                     blend_dsc.mask_res = lv_draw_mask_apply(mask_buf, clip_area_sub.x1, y, w);
 3619              		.loc 1 849 21 is_stmt 1 view .LVU1359
 3620 0c0e 4A46     		mov	r2, r9
 3621 0c10 2146     		mov	r1, r4
 3622 0c12 3846     		mov	r0, r7
 3623 0c14 FFF7FEFF 		bl	lv_memcpy
 3624              	.LVL337:
 850:lvgl/src/draw/sw/lv_draw_sw_rect.c ****                     if(blend_dsc.mask_res == LV_DRAW_MASK_RES_FULL_COVER) blend_dsc.mask_res = LV_D
 3625              		.loc 1 850 21 view .LVU1360
 850:lvgl/src/draw/sw/lv_draw_sw_rect.c ****                     if(blend_dsc.mask_res == LV_DRAW_MASK_RES_FULL_COVER) blend_dsc.mask_res = LV_D
 3626              		.loc 1 850 42 is_stmt 0 view .LVU1361
 3627 0c18 5346     		mov	r3, r10
 3628 0c1a 4246     		mov	r2, r8
 3629 0c1c BDF95010 		ldrsh	r1, [sp, #80]
 3630 0c20 3846     		mov	r0, r7
 3631 0c22 FFF7FEFF 		bl	lv_draw_mask_apply
 3632              	.LVL338:
 850:lvgl/src/draw/sw/lv_draw_sw_rect.c ****                     if(blend_dsc.mask_res == LV_DRAW_MASK_RES_FULL_COVER) blend_dsc.mask_res = LV_D
 3633              		.loc 1 850 40 view .LVU1362
 3634 0c26 8DF84400 		strb	r0, [sp, #68]
 851:lvgl/src/draw/sw/lv_draw_sw_rect.c ****                 }
 3635              		.loc 1 851 21 is_stmt 1 view .LVU1363
 851:lvgl/src/draw/sw/lv_draw_sw_rect.c ****                 }
 3636              		.loc 1 851 23 is_stmt 0 view .LVU1364
 3637 0c2a 0128     		cmp	r0, #1
 3638 0c2c 14D0     		beq	.L225
 3639              	.L154:
 857:lvgl/src/draw/sw/lv_draw_sw_rect.c ****                 sh_buf_tmp += corner_size;
 3640              		.loc 1 857 17 is_stmt 1 discriminator 2 view .LVU1365
 3641 0c2e 0DA9     		add	r1, sp, #52
 3642 0c30 3046     		mov	r0, r6
 3643 0c32 FFF7FEFF 		bl	lv_draw_sw_blend
 3644              	.LVL339:
 858:lvgl/src/draw/sw/lv_draw_sw_rect.c ****             }
ARM GAS  C:\Users\OSD\AppData\Local\Temp\ccS6lZqb.s 			page 114


 3645              		.loc 1 858 17 discriminator 2 view .LVU1366
 858:lvgl/src/draw/sw/lv_draw_sw_rect.c ****             }
 3646              		.loc 1 858 28 is_stmt 0 discriminator 2 view .LVU1367
 3647 0c36 4C44     		add	r4, r4, r9
 3648              	.LVL340:
 844:lvgl/src/draw/sw/lv_draw_sw_rect.c ****                 blend_area.y1 = y;
 3649              		.loc 1 844 62 is_stmt 1 discriminator 2 view .LVU1368
 844:lvgl/src/draw/sw/lv_draw_sw_rect.c ****                 blend_area.y1 = y;
 3650              		.loc 1 844 63 is_stmt 0 discriminator 2 view .LVU1369
 3651 0c38 08F10108 		add	r8, r8, #1
 3652              	.LVL341:
 844:lvgl/src/draw/sw/lv_draw_sw_rect.c ****                 blend_area.y1 = y;
 3653              		.loc 1 844 63 discriminator 2 view .LVU1370
 3654 0c3c 0FFA88F8 		sxth	r8, r8
 3655              	.LVL342:
 3656              	.L152:
 844:lvgl/src/draw/sw/lv_draw_sw_rect.c ****                 blend_area.y1 = y;
 3657              		.loc 1 844 39 is_stmt 1 discriminator 1 view .LVU1371
 844:lvgl/src/draw/sw/lv_draw_sw_rect.c ****                 blend_area.y1 = y;
 3658              		.loc 1 844 57 is_stmt 0 discriminator 1 view .LVU1372
 3659 0c40 BDF95630 		ldrsh	r3, [sp, #86]
 844:lvgl/src/draw/sw/lv_draw_sw_rect.c ****                 blend_area.y1 = y;
 3660              		.loc 1 844 13 discriminator 1 view .LVU1373
 3661 0c44 4345     		cmp	r3, r8
 3662 0c46 0BDB     		blt	.L226
 845:lvgl/src/draw/sw/lv_draw_sw_rect.c ****                 blend_area.y2 = y;
 3663              		.loc 1 845 17 is_stmt 1 view .LVU1374
 845:lvgl/src/draw/sw/lv_draw_sw_rect.c ****                 blend_area.y2 = y;
 3664              		.loc 1 845 31 is_stmt 0 view .LVU1375
 3665 0c48 ADF85A80 		strh	r8, [sp, #90]	@ movhi
 846:lvgl/src/draw/sw/lv_draw_sw_rect.c **** 
 3666              		.loc 1 846 17 is_stmt 1 view .LVU1376
 846:lvgl/src/draw/sw/lv_draw_sw_rect.c **** 
 3667              		.loc 1 846 31 is_stmt 0 view .LVU1377
 3668 0c4c ADF85E80 		strh	r8, [sp, #94]	@ movhi
 848:lvgl/src/draw/sw/lv_draw_sw_rect.c ****                     lv_memcpy(mask_buf, sh_buf_tmp, corner_size);
 3669              		.loc 1 848 17 is_stmt 1 view .LVU1378
 848:lvgl/src/draw/sw/lv_draw_sw_rect.c ****                     lv_memcpy(mask_buf, sh_buf_tmp, corner_size);
 3670              		.loc 1 848 19 is_stmt 0 view .LVU1379
 3671 0c50 002D     		cmp	r5, #0
 3672 0c52 DCD0     		beq	.L227
 854:lvgl/src/draw/sw/lv_draw_sw_rect.c ****                 }
 3673              		.loc 1 854 21 is_stmt 1 view .LVU1380
 854:lvgl/src/draw/sw/lv_draw_sw_rect.c ****                 }
 3674              		.loc 1 854 40 is_stmt 0 view .LVU1381
 3675 0c54 1094     		str	r4, [sp, #64]
 3676 0c56 EAE7     		b	.L154
 3677              	.L225:
 851:lvgl/src/draw/sw/lv_draw_sw_rect.c ****                 }
 3678              		.loc 1 851 75 is_stmt 1 discriminator 1 view .LVU1382
 851:lvgl/src/draw/sw/lv_draw_sw_rect.c ****                 }
 3679              		.loc 1 851 94 is_stmt 0 discriminator 1 view .LVU1383
 3680 0c58 0223     		movs	r3, #2
 3681 0c5a 8DF84430 		strb	r3, [sp, #68]
 3682 0c5e E6E7     		b	.L154
 3683              	.L226:
 851:lvgl/src/draw/sw/lv_draw_sw_rect.c ****                 }
ARM GAS  C:\Users\OSD\AppData\Local\Temp\ccS6lZqb.s 			page 115


 3684              		.loc 1 851 94 discriminator 1 view .LVU1384
 3685 0c60 029F     		ldr	r7, [sp, #8]
 3686 0c62 5D46     		mov	r5, fp
 3687 0c64 4C46     		mov	r4, r9
 3688              	.LVL343:
 851:lvgl/src/draw/sw/lv_draw_sw_rect.c ****                 }
 3689              		.loc 1 851 94 discriminator 1 view .LVU1385
 3690 0c66 BAE6     		b	.L150
 3691              	.LVL344:
 3692              	.L219:
 851:lvgl/src/draw/sw/lv_draw_sw_rect.c ****                 }
 3693              		.loc 1 851 94 discriminator 1 view .LVU1386
 3694              	.LBE170:
 874:lvgl/src/draw/sw/lv_draw_sw_rect.c ****         lv_coord_t w = lv_area_get_width(&clip_area_sub);
 3695              		.loc 1 874 9 discriminator 1 view .LVU1387
 3696 0c68 BDF90450 		ldrsh	r5, [sp, #4]
 3697 0c6c 2A46     		mov	r2, r5
 3698 0c6e 1EA9     		add	r1, sp, #120
 3699 0c70 14A8     		add	r0, sp, #80
 3700 0c72 FFF7FEFF 		bl	_lv_area_is_in
 3701              	.LVL345:
 873:lvgl/src/draw/sw/lv_draw_sw_rect.c ****        !_lv_area_is_in(&clip_area_sub, &bg_area, r_bg)) {
 3702              		.loc 1 873 77 discriminator 1 view .LVU1388
 3703 0c76 0028     		cmp	r0, #0
 3704 0c78 7FF4DAAE 		bne	.L156
 3705              	.LBB173:
 875:lvgl/src/draw/sw/lv_draw_sw_rect.c ****         sh_buf_tmp = sh_buf;
 3706              		.loc 1 875 9 is_stmt 1 view .LVU1389
 3707              	.LVL346:
 3708              	.LBB174:
 3709              	.LBI174:
 123:lvgl/src/draw/sw/../../misc/lv_area.h **** {
 3710              		.loc 2 123 26 view .LVU1390
 3711              	.LBB175:
 125:lvgl/src/draw/sw/../../misc/lv_area.h **** }
 3712              		.loc 2 125 5 view .LVU1391
 125:lvgl/src/draw/sw/../../misc/lv_area.h **** }
 3713              		.loc 2 125 31 is_stmt 0 view .LVU1392
 3714 0c7c BDF85490 		ldrh	r9, [sp, #84]
 125:lvgl/src/draw/sw/../../misc/lv_area.h **** }
 3715              		.loc 2 125 44 view .LVU1393
 3716 0c80 BDF95030 		ldrsh	r3, [sp, #80]
 3717 0c84 9AB2     		uxth	r2, r3
 125:lvgl/src/draw/sw/../../misc/lv_area.h **** }
 3718              		.loc 2 125 36 view .LVU1394
 3719 0c86 A9EB0209 		sub	r9, r9, r2
 3720 0c8a 1FFA89F9 		uxth	r9, r9
 125:lvgl/src/draw/sw/../../misc/lv_area.h **** }
 3721              		.loc 2 125 49 view .LVU1395
 3722 0c8e 09F10109 		add	r9, r9, #1
 125:lvgl/src/draw/sw/../../misc/lv_area.h **** }
 3723              		.loc 2 125 12 view .LVU1396
 3724 0c92 0FFA89F9 		sxth	r9, r9
 3725              	.LVL347:
 125:lvgl/src/draw/sw/../../misc/lv_area.h **** }
 3726              		.loc 2 125 12 view .LVU1397
 3727              	.LBE175:
ARM GAS  C:\Users\OSD\AppData\Local\Temp\ccS6lZqb.s 			page 116


 3728              	.LBE174:
 876:lvgl/src/draw/sw/lv_draw_sw_rect.c ****         sh_buf_tmp += (blend_area.y2 - clip_area_sub.y2) * corner_size;
 3729              		.loc 1 876 9 is_stmt 1 view .LVU1398
 877:lvgl/src/draw/sw/lv_draw_sw_rect.c ****         sh_buf_tmp += clip_area_sub.x1 - blend_area.x1;
 3730              		.loc 1 877 9 view .LVU1399
 877:lvgl/src/draw/sw/lv_draw_sw_rect.c ****         sh_buf_tmp += clip_area_sub.x1 - blend_area.x1;
 3731              		.loc 1 877 34 is_stmt 0 view .LVU1400
 3732 0c96 BDF95E20 		ldrsh	r2, [sp, #94]
 877:lvgl/src/draw/sw/lv_draw_sw_rect.c ****         sh_buf_tmp += clip_area_sub.x1 - blend_area.x1;
 3733              		.loc 1 877 53 view .LVU1401
 3734 0c9a BDF95680 		ldrsh	r8, [sp, #86]
 877:lvgl/src/draw/sw/lv_draw_sw_rect.c ****         sh_buf_tmp += clip_area_sub.x1 - blend_area.x1;
 3735              		.loc 1 877 38 view .LVU1402
 3736 0c9e A2EB0802 		sub	r2, r2, r8
 3737              	.LVL348:
 878:lvgl/src/draw/sw/lv_draw_sw_rect.c **** 
 3738              		.loc 1 878 9 is_stmt 1 view .LVU1403
 878:lvgl/src/draw/sw/lv_draw_sw_rect.c **** 
 3739              		.loc 1 878 52 is_stmt 0 view .LVU1404
 3740 0ca2 BDF95880 		ldrsh	r8, [sp, #88]
 878:lvgl/src/draw/sw/lv_draw_sw_rect.c **** 
 3741              		.loc 1 878 40 view .LVU1405
 3742 0ca6 A3EB0808 		sub	r8, r3, r8
 878:lvgl/src/draw/sw/lv_draw_sw_rect.c **** 
 3743              		.loc 1 878 20 view .LVU1406
 3744 0caa 04FB0288 		mla	r8, r4, r2, r8
 3745 0cae 039B     		ldr	r3, [sp, #12]
 3746 0cb0 9844     		add	r8, r8, r3
 3747              	.LVL349:
 881:lvgl/src/draw/sw/lv_draw_sw_rect.c ****         else simple_sub = simple;
 3748              		.loc 1 881 9 is_stmt 1 view .LVU1407
 881:lvgl/src/draw/sw/lv_draw_sw_rect.c ****         else simple_sub = simple;
 3749              		.loc 1 881 11 is_stmt 0 view .LVU1408
 3750 0cb2 009B     		ldr	r3, [sp]
 3751 0cb4 E3B9     		cbnz	r3, .L228
 3752 0cb6 DDF800A0 		ldr	r10, [sp]
 3753              	.L157:
 3754              	.LVL350:
 883:lvgl/src/draw/sw/lv_draw_sw_rect.c ****         if(w > 0) {
 3755              		.loc 1 883 9 is_stmt 1 view .LVU1409
 883:lvgl/src/draw/sw/lv_draw_sw_rect.c ****         if(w > 0) {
 3756              		.loc 1 883 28 is_stmt 0 view .LVU1410
 3757 0cba 049A     		ldr	r2, [sp, #16]
 3758 0cbc 1092     		str	r2, [sp, #64]
 884:lvgl/src/draw/sw/lv_draw_sw_rect.c ****             blend_area.x1 = clip_area_sub.x1;
 3759              		.loc 1 884 9 is_stmt 1 view .LVU1411
 884:lvgl/src/draw/sw/lv_draw_sw_rect.c ****             blend_area.x1 = clip_area_sub.x1;
 3760              		.loc 1 884 11 is_stmt 0 view .LVU1412
 3761 0cbe B9F1000F 		cmp	r9, #0
 3762 0cc2 7FF7B5AE 		ble	.L156
 885:lvgl/src/draw/sw/lv_draw_sw_rect.c ****             blend_area.x2 = clip_area_sub.x2;
 3763              		.loc 1 885 13 is_stmt 1 view .LVU1413
 885:lvgl/src/draw/sw/lv_draw_sw_rect.c ****             blend_area.x2 = clip_area_sub.x2;
 3764              		.loc 1 885 42 is_stmt 0 view .LVU1414
 3765 0cc6 BDF95030 		ldrsh	r3, [sp, #80]
 885:lvgl/src/draw/sw/lv_draw_sw_rect.c ****             blend_area.x2 = clip_area_sub.x2;
 3766              		.loc 1 885 27 view .LVU1415
ARM GAS  C:\Users\OSD\AppData\Local\Temp\ccS6lZqb.s 			page 117


 3767 0cca ADF85830 		strh	r3, [sp, #88]	@ movhi
 886:lvgl/src/draw/sw/lv_draw_sw_rect.c ****             blend_dsc.mask_res = LV_DRAW_MASK_RES_CHANGED;    /*In simple mode it won't be overwrit
 3768              		.loc 1 886 13 is_stmt 1 view .LVU1416
 886:lvgl/src/draw/sw/lv_draw_sw_rect.c ****             blend_dsc.mask_res = LV_DRAW_MASK_RES_CHANGED;    /*In simple mode it won't be overwrit
 3769              		.loc 1 886 42 is_stmt 0 view .LVU1417
 3770 0cce BDF95430 		ldrsh	r3, [sp, #84]
 886:lvgl/src/draw/sw/lv_draw_sw_rect.c ****             blend_dsc.mask_res = LV_DRAW_MASK_RES_CHANGED;    /*In simple mode it won't be overwrit
 3771              		.loc 1 886 27 view .LVU1418
 3772 0cd2 ADF85C30 		strh	r3, [sp, #92]	@ movhi
 887:lvgl/src/draw/sw/lv_draw_sw_rect.c ****             for(y = clip_area_sub.y2; y >= clip_area_sub.y1; y--) {
 3773              		.loc 1 887 13 is_stmt 1 view .LVU1419
 887:lvgl/src/draw/sw/lv_draw_sw_rect.c ****             for(y = clip_area_sub.y2; y >= clip_area_sub.y1; y--) {
 3774              		.loc 1 887 32 is_stmt 0 view .LVU1420
 3775 0cd6 0223     		movs	r3, #2
 3776 0cd8 8DF84430 		strb	r3, [sp, #68]
 888:lvgl/src/draw/sw/lv_draw_sw_rect.c ****                 blend_area.y1 = y;
 3777              		.loc 1 888 13 is_stmt 1 view .LVU1421
 888:lvgl/src/draw/sw/lv_draw_sw_rect.c ****                 blend_area.y1 = y;
 3778              		.loc 1 888 19 is_stmt 0 view .LVU1422
 3779 0cdc BDF95650 		ldrsh	r5, [sp, #86]
 3780              	.LVL351:
 888:lvgl/src/draw/sw/lv_draw_sw_rect.c ****                 blend_area.y1 = y;
 3781              		.loc 1 888 19 view .LVU1423
 3782 0ce0 2146     		mov	r1, r4
 3783 0ce2 4446     		mov	r4, r8
 3784              	.LVL352:
 888:lvgl/src/draw/sw/lv_draw_sw_rect.c ****                 blend_area.y1 = y;
 3785              		.loc 1 888 19 view .LVU1424
 3786 0ce4 9346     		mov	fp, r2
 3787 0ce6 3346     		mov	r3, r6
 3788 0ce8 5646     		mov	r6, r10
 3789              	.LVL353:
 888:lvgl/src/draw/sw/lv_draw_sw_rect.c ****                 blend_area.y1 = y;
 3790              		.loc 1 888 19 view .LVU1425
 3791 0cea 9A46     		mov	r10, r3
 3792              	.LVL354:
 888:lvgl/src/draw/sw/lv_draw_sw_rect.c ****                 blend_area.y1 = y;
 3793              		.loc 1 888 19 view .LVU1426
 3794 0cec 8846     		mov	r8, r1
 3795              	.LVL355:
 888:lvgl/src/draw/sw/lv_draw_sw_rect.c ****                 blend_area.y1 = y;
 3796              		.loc 1 888 13 view .LVU1427
 3797 0cee 21E0     		b	.L158
 3798              	.LVL356:
 3799              	.L228:
 881:lvgl/src/draw/sw/lv_draw_sw_rect.c ****         else simple_sub = simple;
 3800              		.loc 1 881 22 discriminator 1 view .LVU1428
 3801 0cf0 2A46     		mov	r2, r5
 3802 0cf2 1EA9     		add	r1, sp, #120
 3803 0cf4 14A8     		add	r0, sp, #80
 3804 0cf6 FFF7FEFF 		bl	_lv_area_is_out
 3805              	.LVL357:
 881:lvgl/src/draw/sw/lv_draw_sw_rect.c ****         else simple_sub = simple;
 3806              		.loc 1 881 19 discriminator 1 view .LVU1429
 3807 0cfa 8246     		mov	r10, r0
 3808 0cfc 0028     		cmp	r0, #0
 3809 0cfe DCD1     		bne	.L157
ARM GAS  C:\Users\OSD\AppData\Local\Temp\ccS6lZqb.s 			page 118


 3810 0d00 DDF800A0 		ldr	r10, [sp]
 3811 0d04 D9E7     		b	.L157
 3812              	.LVL358:
 3813              	.L231:
 893:lvgl/src/draw/sw/lv_draw_sw_rect.c ****                     blend_dsc.mask_res = lv_draw_mask_apply(mask_buf, clip_area_sub.x1, y, w);
 3814              		.loc 1 893 21 is_stmt 1 view .LVU1430
 3815 0d06 4246     		mov	r2, r8
 3816 0d08 2146     		mov	r1, r4
 3817 0d0a 5846     		mov	r0, fp
 3818 0d0c FFF7FEFF 		bl	lv_memcpy
 3819              	.LVL359:
 894:lvgl/src/draw/sw/lv_draw_sw_rect.c ****                     if(blend_dsc.mask_res == LV_DRAW_MASK_RES_FULL_COVER) blend_dsc.mask_res = LV_D
 3820              		.loc 1 894 21 view .LVU1431
 894:lvgl/src/draw/sw/lv_draw_sw_rect.c ****                     if(blend_dsc.mask_res == LV_DRAW_MASK_RES_FULL_COVER) blend_dsc.mask_res = LV_D
 3821              		.loc 1 894 42 is_stmt 0 view .LVU1432
 3822 0d10 4B46     		mov	r3, r9
 3823 0d12 2A46     		mov	r2, r5
 3824 0d14 BDF95010 		ldrsh	r1, [sp, #80]
 3825 0d18 5846     		mov	r0, fp
 3826 0d1a FFF7FEFF 		bl	lv_draw_mask_apply
 3827              	.LVL360:
 894:lvgl/src/draw/sw/lv_draw_sw_rect.c ****                     if(blend_dsc.mask_res == LV_DRAW_MASK_RES_FULL_COVER) blend_dsc.mask_res = LV_D
 3828              		.loc 1 894 40 view .LVU1433
 3829 0d1e 8DF84400 		strb	r0, [sp, #68]
 895:lvgl/src/draw/sw/lv_draw_sw_rect.c ****                 }
 3830              		.loc 1 895 21 is_stmt 1 view .LVU1434
 895:lvgl/src/draw/sw/lv_draw_sw_rect.c ****                 }
 3831              		.loc 1 895 23 is_stmt 0 view .LVU1435
 3832 0d22 0128     		cmp	r0, #1
 3833 0d24 12D0     		beq	.L229
 3834              	.L160:
 900:lvgl/src/draw/sw/lv_draw_sw_rect.c ****                 sh_buf_tmp += corner_size;
 3835              		.loc 1 900 17 is_stmt 1 discriminator 2 view .LVU1436
 3836 0d26 0DA9     		add	r1, sp, #52
 3837 0d28 5046     		mov	r0, r10
 3838 0d2a FFF7FEFF 		bl	lv_draw_sw_blend
 3839              	.LVL361:
 901:lvgl/src/draw/sw/lv_draw_sw_rect.c ****             }
 3840              		.loc 1 901 17 discriminator 2 view .LVU1437
 901:lvgl/src/draw/sw/lv_draw_sw_rect.c ****             }
 3841              		.loc 1 901 28 is_stmt 0 discriminator 2 view .LVU1438
 3842 0d2e 4444     		add	r4, r4, r8
 3843              	.LVL362:
 888:lvgl/src/draw/sw/lv_draw_sw_rect.c ****                 blend_area.y1 = y;
 3844              		.loc 1 888 62 is_stmt 1 discriminator 2 view .LVU1439
 888:lvgl/src/draw/sw/lv_draw_sw_rect.c ****                 blend_area.y1 = y;
 3845              		.loc 1 888 63 is_stmt 0 discriminator 2 view .LVU1440
 3846 0d30 013D     		subs	r5, r5, #1
 3847              	.LVL363:
 888:lvgl/src/draw/sw/lv_draw_sw_rect.c ****                 blend_area.y1 = y;
 3848              		.loc 1 888 63 discriminator 2 view .LVU1441
 3849 0d32 2DB2     		sxth	r5, r5
 3850              	.LVL364:
 3851              	.L158:
 888:lvgl/src/draw/sw/lv_draw_sw_rect.c ****                 blend_area.y1 = y;
 3852              		.loc 1 888 39 is_stmt 1 discriminator 1 view .LVU1442
 888:lvgl/src/draw/sw/lv_draw_sw_rect.c ****                 blend_area.y1 = y;
ARM GAS  C:\Users\OSD\AppData\Local\Temp\ccS6lZqb.s 			page 119


 3853              		.loc 1 888 57 is_stmt 0 discriminator 1 view .LVU1443
 3854 0d34 BDF95230 		ldrsh	r3, [sp, #82]
 888:lvgl/src/draw/sw/lv_draw_sw_rect.c ****                 blend_area.y1 = y;
 3855              		.loc 1 888 13 discriminator 1 view .LVU1444
 3856 0d38 AB42     		cmp	r3, r5
 3857 0d3a 0BDC     		bgt	.L230
 889:lvgl/src/draw/sw/lv_draw_sw_rect.c ****                 blend_area.y2 = y;
 3858              		.loc 1 889 17 is_stmt 1 view .LVU1445
 889:lvgl/src/draw/sw/lv_draw_sw_rect.c ****                 blend_area.y2 = y;
 3859              		.loc 1 889 31 is_stmt 0 view .LVU1446
 3860 0d3c ADF85A50 		strh	r5, [sp, #90]	@ movhi
 890:lvgl/src/draw/sw/lv_draw_sw_rect.c **** 
 3861              		.loc 1 890 17 is_stmt 1 view .LVU1447
 890:lvgl/src/draw/sw/lv_draw_sw_rect.c **** 
 3862              		.loc 1 890 31 is_stmt 0 view .LVU1448
 3863 0d40 ADF85E50 		strh	r5, [sp, #94]	@ movhi
 892:lvgl/src/draw/sw/lv_draw_sw_rect.c ****                     lv_memcpy(mask_buf, sh_buf_tmp, corner_size);
 3864              		.loc 1 892 17 is_stmt 1 view .LVU1449
 892:lvgl/src/draw/sw/lv_draw_sw_rect.c ****                     lv_memcpy(mask_buf, sh_buf_tmp, corner_size);
 3865              		.loc 1 892 19 is_stmt 0 view .LVU1450
 3866 0d44 002E     		cmp	r6, #0
 3867 0d46 DED0     		beq	.L231
 898:lvgl/src/draw/sw/lv_draw_sw_rect.c ****                 }
 3868              		.loc 1 898 21 is_stmt 1 view .LVU1451
 898:lvgl/src/draw/sw/lv_draw_sw_rect.c ****                 }
 3869              		.loc 1 898 40 is_stmt 0 view .LVU1452
 3870 0d48 1094     		str	r4, [sp, #64]
 3871 0d4a ECE7     		b	.L160
 3872              	.L229:
 895:lvgl/src/draw/sw/lv_draw_sw_rect.c ****                 }
 3873              		.loc 1 895 75 is_stmt 1 discriminator 1 view .LVU1453
 895:lvgl/src/draw/sw/lv_draw_sw_rect.c ****                 }
 3874              		.loc 1 895 94 is_stmt 0 discriminator 1 view .LVU1454
 3875 0d4c 0223     		movs	r3, #2
 3876 0d4e 8DF84430 		strb	r3, [sp, #68]
 3877 0d52 E8E7     		b	.L160
 3878              	.L230:
 895:lvgl/src/draw/sw/lv_draw_sw_rect.c ****                 }
 3879              		.loc 1 895 94 discriminator 1 view .LVU1455
 3880 0d54 5646     		mov	r6, r10
 3881 0d56 6BE6     		b	.L156
 3882              	.LVL365:
 3883              	.L220:
 895:lvgl/src/draw/sw/lv_draw_sw_rect.c ****                 }
 3884              		.loc 1 895 94 discriminator 1 view .LVU1456
 3885              	.LBE173:
 914:lvgl/src/draw/sw/lv_draw_sw_rect.c ****         lv_coord_t w = lv_area_get_width(&clip_area_sub);
 3886              		.loc 1 914 9 discriminator 1 view .LVU1457
 3887 0d58 019A     		ldr	r2, [sp, #4]
 3888 0d5a 1EA9     		add	r1, sp, #120
 3889 0d5c 14A8     		add	r0, sp, #80
 3890 0d5e FFF7FEFF 		bl	_lv_area_is_in
 3891              	.LVL366:
 913:lvgl/src/draw/sw/lv_draw_sw_rect.c ****        !_lv_area_is_in(&clip_area_sub, &bg_area, r_bg)) {
 3892              		.loc 1 913 77 discriminator 1 view .LVU1458
 3893 0d62 0028     		cmp	r0, #0
 3894 0d64 7FF482AE 		bne	.L162
ARM GAS  C:\Users\OSD\AppData\Local\Temp\ccS6lZqb.s 			page 120


 3895              	.LBB176:
 915:lvgl/src/draw/sw/lv_draw_sw_rect.c ****         if(w > 0) {
 3896              		.loc 1 915 9 is_stmt 1 view .LVU1459
 3897              	.LVL367:
 3898              	.LBB177:
 3899              	.LBI177:
 123:lvgl/src/draw/sw/../../misc/lv_area.h **** {
 3900              		.loc 2 123 26 view .LVU1460
 3901              	.LBB178:
 125:lvgl/src/draw/sw/../../misc/lv_area.h **** }
 3902              		.loc 2 125 5 view .LVU1461
 125:lvgl/src/draw/sw/../../misc/lv_area.h **** }
 3903              		.loc 2 125 31 is_stmt 0 view .LVU1462
 3904 0d68 BDF95430 		ldrsh	r3, [sp, #84]
 3905 0d6c 9DB2     		uxth	r5, r3
 125:lvgl/src/draw/sw/../../misc/lv_area.h **** }
 3906              		.loc 2 125 44 view .LVU1463
 3907 0d6e BDF95020 		ldrsh	r2, [sp, #80]
 3908 0d72 91B2     		uxth	r1, r2
 125:lvgl/src/draw/sw/../../misc/lv_area.h **** }
 3909              		.loc 2 125 36 view .LVU1464
 3910 0d74 6D1A     		subs	r5, r5, r1
 3911 0d76 ADB2     		uxth	r5, r5
 125:lvgl/src/draw/sw/../../misc/lv_area.h **** }
 3912              		.loc 2 125 49 view .LVU1465
 3913 0d78 0135     		adds	r5, r5, #1
 125:lvgl/src/draw/sw/../../misc/lv_area.h **** }
 3914              		.loc 2 125 12 view .LVU1466
 3915 0d7a 2DB2     		sxth	r5, r5
 3916              	.LVL368:
 125:lvgl/src/draw/sw/../../misc/lv_area.h **** }
 3917              		.loc 2 125 12 view .LVU1467
 3918              	.LBE178:
 3919              	.LBE177:
 916:lvgl/src/draw/sw/lv_draw_sw_rect.c ****             blend_area.x1 = clip_area_sub.x1;
 3920              		.loc 1 916 9 is_stmt 1 view .LVU1468
 916:lvgl/src/draw/sw/lv_draw_sw_rect.c ****             blend_area.x1 = clip_area_sub.x1;
 3921              		.loc 1 916 11 is_stmt 0 view .LVU1469
 3922 0d7c 002D     		cmp	r5, #0
 3923 0d7e 7FF775AE 		ble	.L162
 917:lvgl/src/draw/sw/lv_draw_sw_rect.c ****             blend_area.x2 = clip_area_sub.x2;
 3924              		.loc 1 917 13 is_stmt 1 view .LVU1470
 917:lvgl/src/draw/sw/lv_draw_sw_rect.c ****             blend_area.x2 = clip_area_sub.x2;
 3925              		.loc 1 917 27 is_stmt 0 view .LVU1471
 3926 0d82 ADF85820 		strh	r2, [sp, #88]	@ movhi
 918:lvgl/src/draw/sw/lv_draw_sw_rect.c ****             for(y = clip_area_sub.y1; y <= clip_area_sub.y2; y++) {
 3927              		.loc 1 918 13 is_stmt 1 view .LVU1472
 918:lvgl/src/draw/sw/lv_draw_sw_rect.c ****             for(y = clip_area_sub.y1; y <= clip_area_sub.y2; y++) {
 3928              		.loc 1 918 27 is_stmt 0 view .LVU1473
 3929 0d86 ADF85C30 		strh	r3, [sp, #92]	@ movhi
 919:lvgl/src/draw/sw/lv_draw_sw_rect.c ****                 blend_area.y1 = y;
 3930              		.loc 1 919 13 is_stmt 1 view .LVU1474
 919:lvgl/src/draw/sw/lv_draw_sw_rect.c ****                 blend_area.y1 = y;
 3931              		.loc 1 919 19 is_stmt 0 view .LVU1475
 3932 0d8a BDF95240 		ldrsh	r4, [sp, #82]
 3933              	.LVL369:
 919:lvgl/src/draw/sw/lv_draw_sw_rect.c ****                 blend_area.y1 = y;
ARM GAS  C:\Users\OSD\AppData\Local\Temp\ccS6lZqb.s 			page 121


 3934              		.loc 1 919 19 view .LVU1476
 3935 0d8e 049F     		ldr	r7, [sp, #16]
 3936              	.L163:
 919:lvgl/src/draw/sw/lv_draw_sw_rect.c ****                 blend_area.y1 = y;
 3937              		.loc 1 919 39 is_stmt 1 discriminator 1 view .LVU1477
 919:lvgl/src/draw/sw/lv_draw_sw_rect.c ****                 blend_area.y1 = y;
 3938              		.loc 1 919 57 is_stmt 0 discriminator 1 view .LVU1478
 3939 0d90 BDF95630 		ldrsh	r3, [sp, #86]
 919:lvgl/src/draw/sw/lv_draw_sw_rect.c ****                 blend_area.y1 = y;
 3940              		.loc 1 919 13 discriminator 1 view .LVU1479
 3941 0d94 A342     		cmp	r3, r4
 3942 0d96 FFF669AE 		blt	.L162
 920:lvgl/src/draw/sw/lv_draw_sw_rect.c ****                 blend_area.y2 = y;
 3943              		.loc 1 920 17 is_stmt 1 discriminator 3 view .LVU1480
 920:lvgl/src/draw/sw/lv_draw_sw_rect.c ****                 blend_area.y2 = y;
 3944              		.loc 1 920 31 is_stmt 0 discriminator 3 view .LVU1481
 3945 0d9a ADF85A40 		strh	r4, [sp, #90]	@ movhi
 921:lvgl/src/draw/sw/lv_draw_sw_rect.c **** 
 3946              		.loc 1 921 17 is_stmt 1 discriminator 3 view .LVU1482
 921:lvgl/src/draw/sw/lv_draw_sw_rect.c **** 
 3947              		.loc 1 921 31 is_stmt 0 discriminator 3 view .LVU1483
 3948 0d9e ADF85E40 		strh	r4, [sp, #94]	@ movhi
 923:lvgl/src/draw/sw/lv_draw_sw_rect.c ****                 blend_dsc.mask_res = lv_draw_mask_apply(mask_buf, clip_area_sub.x1, y, w);
 3949              		.loc 1 923 17 is_stmt 1 discriminator 3 view .LVU1484
 3950 0da2 2946     		mov	r1, r5
 3951 0da4 3846     		mov	r0, r7
 3952 0da6 FFF7FEFF 		bl	lv_memset_ff
 3953              	.LVL370:
 924:lvgl/src/draw/sw/lv_draw_sw_rect.c ****                 lv_draw_sw_blend(draw_ctx, &blend_dsc);
 3954              		.loc 1 924 17 discriminator 3 view .LVU1485
 924:lvgl/src/draw/sw/lv_draw_sw_rect.c ****                 lv_draw_sw_blend(draw_ctx, &blend_dsc);
 3955              		.loc 1 924 38 is_stmt 0 discriminator 3 view .LVU1486
 3956 0daa 2B46     		mov	r3, r5
 3957 0dac 2246     		mov	r2, r4
 3958 0dae BDF95010 		ldrsh	r1, [sp, #80]
 3959 0db2 3846     		mov	r0, r7
 3960 0db4 FFF7FEFF 		bl	lv_draw_mask_apply
 3961              	.LVL371:
 924:lvgl/src/draw/sw/lv_draw_sw_rect.c ****                 lv_draw_sw_blend(draw_ctx, &blend_dsc);
 3962              		.loc 1 924 36 discriminator 3 view .LVU1487
 3963 0db8 8DF84400 		strb	r0, [sp, #68]
 925:lvgl/src/draw/sw/lv_draw_sw_rect.c ****             }
 3964              		.loc 1 925 17 is_stmt 1 discriminator 3 view .LVU1488
 3965 0dbc 0DA9     		add	r1, sp, #52
 3966 0dbe 3046     		mov	r0, r6
 3967 0dc0 FFF7FEFF 		bl	lv_draw_sw_blend
 3968              	.LVL372:
 919:lvgl/src/draw/sw/lv_draw_sw_rect.c ****                 blend_area.y1 = y;
 3969              		.loc 1 919 62 discriminator 3 view .LVU1489
 919:lvgl/src/draw/sw/lv_draw_sw_rect.c ****                 blend_area.y1 = y;
 3970              		.loc 1 919 63 is_stmt 0 discriminator 3 view .LVU1490
 3971 0dc4 0134     		adds	r4, r4, #1
 3972              	.LVL373:
 919:lvgl/src/draw/sw/lv_draw_sw_rect.c ****                 blend_area.y1 = y;
 3973              		.loc 1 919 63 discriminator 3 view .LVU1491
 3974 0dc6 24B2     		sxth	r4, r4
 3975              	.LVL374:
ARM GAS  C:\Users\OSD\AppData\Local\Temp\ccS6lZqb.s 			page 122


 919:lvgl/src/draw/sw/lv_draw_sw_rect.c ****                 blend_area.y1 = y;
 3976              		.loc 1 919 63 discriminator 3 view .LVU1492
 3977 0dc8 E2E7     		b	.L163
 3978              	.LVL375:
 3979              	.L221:
 919:lvgl/src/draw/sw/lv_draw_sw_rect.c ****                 blend_area.y1 = y;
 3980              		.loc 1 919 63 discriminator 3 view .LVU1493
 3981              	.LBE176:
 931:lvgl/src/draw/sw/lv_draw_sw_rect.c ****         lv_draw_mask_remove_id(mask_rout_id);
 3982              		.loc 1 931 9 is_stmt 1 view .LVU1494
 3983 0dca 18A8     		add	r0, sp, #96
 3984 0dcc FFF7FEFF 		bl	lv_draw_mask_free_param
 3985              	.LVL376:
 932:lvgl/src/draw/sw/lv_draw_sw_rect.c ****     }
 3986              		.loc 1 932 9 view .LVU1495
 3987 0dd0 0798     		ldr	r0, [sp, #28]
 3988 0dd2 FFF7FEFF 		bl	lv_draw_mask_remove_id
 3989              	.LVL377:
 3990 0dd6 4DE6     		b	.L165
 3991              		.cfi_endproc
 3992              	.LFE166:
 3994              		.section	.text.draw_bg,"ax",%progbits
 3995              		.align	1
 3996              		.syntax unified
 3997              		.thumb
 3998              		.thumb_func
 4000              	draw_bg:
 4001              	.LVL378:
 4002              	.LFB163:
  98:lvgl/src/draw/sw/lv_draw_sw_rect.c ****     if(dsc->bg_opa <= LV_OPA_MIN) return;
 4003              		.loc 1 98 1 view -0
 4004              		.cfi_startproc
 4005              		@ args = 0, pretend = 0, frame = 104
 4006              		@ frame_needed = 0, uses_anonymous_args = 0
  99:lvgl/src/draw/sw/lv_draw_sw_rect.c **** 
 4007              		.loc 1 99 5 view .LVU1497
  99:lvgl/src/draw/sw/lv_draw_sw_rect.c **** 
 4008              		.loc 1 99 11 is_stmt 0 view .LVU1498
 4009 0000 CB78     		ldrb	r3, [r1, #3]	@ zero_extendqisi2
  99:lvgl/src/draw/sw/lv_draw_sw_rect.c **** 
 4010              		.loc 1 99 7 view .LVU1499
 4011 0002 022B     		cmp	r3, #2
 4012 0004 40F2F681 		bls	.L268
  98:lvgl/src/draw/sw/lv_draw_sw_rect.c ****     if(dsc->bg_opa <= LV_OPA_MIN) return;
 4013              		.loc 1 98 1 view .LVU1500
 4014 0008 2DE9F04F 		push	{r4, r5, r6, r7, r8, r9, r10, fp, lr}
 4015              		.cfi_def_cfa_offset 36
 4016              		.cfi_offset 4, -36
 4017              		.cfi_offset 5, -32
 4018              		.cfi_offset 6, -28
 4019              		.cfi_offset 7, -24
 4020              		.cfi_offset 8, -20
 4021              		.cfi_offset 9, -16
 4022              		.cfi_offset 10, -12
 4023              		.cfi_offset 11, -8
 4024              		.cfi_offset 14, -4
 4025 000c 9BB0     		sub	sp, sp, #108
ARM GAS  C:\Users\OSD\AppData\Local\Temp\ccS6lZqb.s 			page 123


 4026              		.cfi_def_cfa_offset 144
 4027 000e 8146     		mov	r9, r0
 4028 0010 0C46     		mov	r4, r1
 101:lvgl/src/draw/sw/lv_draw_sw_rect.c ****     lv_area_copy(&bg_coords, coords);
 4029              		.loc 1 101 5 is_stmt 1 view .LVU1501
 102:lvgl/src/draw/sw/lv_draw_sw_rect.c **** 
 4030              		.loc 1 102 5 view .LVU1502
 4031              	.LVL379:
 4032              	.LBB179:
 4033              	.LBI179:
 110:lvgl/src/draw/sw/../../misc/lv_area.h **** {
 4034              		.loc 2 110 20 view .LVU1503
 4035              	.LBB180:
 112:lvgl/src/draw/sw/../../misc/lv_area.h ****     dest->y1 = src->y1;
 4036              		.loc 2 112 5 view .LVU1504
 112:lvgl/src/draw/sw/../../misc/lv_area.h ****     dest->y1 = src->y1;
 4037              		.loc 2 112 19 is_stmt 0 view .LVU1505
 4038 0012 B2F90050 		ldrsh	r5, [r2]
 112:lvgl/src/draw/sw/../../misc/lv_area.h ****     dest->y1 = src->y1;
 4039              		.loc 2 112 14 view .LVU1506
 4040 0016 ADF86050 		strh	r5, [sp, #96]	@ movhi
 113:lvgl/src/draw/sw/../../misc/lv_area.h ****     dest->x2 = src->x2;
 4041              		.loc 2 113 5 is_stmt 1 view .LVU1507
 113:lvgl/src/draw/sw/../../misc/lv_area.h ****     dest->x2 = src->x2;
 4042              		.loc 2 113 19 is_stmt 0 view .LVU1508
 4043 001a B2F90200 		ldrsh	r0, [r2, #2]
 4044              	.LVL380:
 113:lvgl/src/draw/sw/../../misc/lv_area.h ****     dest->x2 = src->x2;
 4045              		.loc 2 113 14 view .LVU1509
 4046 001e ADF86200 		strh	r0, [sp, #98]	@ movhi
 114:lvgl/src/draw/sw/../../misc/lv_area.h ****     dest->y2 = src->y2;
 4047              		.loc 2 114 5 is_stmt 1 view .LVU1510
 114:lvgl/src/draw/sw/../../misc/lv_area.h ****     dest->y2 = src->y2;
 4048              		.loc 2 114 19 is_stmt 0 view .LVU1511
 4049 0022 B2F90410 		ldrsh	r1, [r2, #4]
 4050              	.LVL381:
 114:lvgl/src/draw/sw/../../misc/lv_area.h ****     dest->y2 = src->y2;
 4051              		.loc 2 114 14 view .LVU1512
 4052 0026 ADF86410 		strh	r1, [sp, #100]	@ movhi
 115:lvgl/src/draw/sw/../../misc/lv_area.h **** }
 4053              		.loc 2 115 5 is_stmt 1 view .LVU1513
 115:lvgl/src/draw/sw/../../misc/lv_area.h **** }
 4054              		.loc 2 115 19 is_stmt 0 view .LVU1514
 4055 002a B2F90630 		ldrsh	r3, [r2, #6]
 115:lvgl/src/draw/sw/../../misc/lv_area.h **** }
 4056              		.loc 2 115 14 view .LVU1515
 4057 002e ADF86630 		strh	r3, [sp, #102]	@ movhi
 4058              	.LVL382:
 115:lvgl/src/draw/sw/../../misc/lv_area.h **** }
 4059              		.loc 2 115 14 view .LVU1516
 4060              	.LBE180:
 4061              	.LBE179:
 105:lvgl/src/draw/sw/lv_draw_sw_rect.c ****         bg_coords.x1 += (dsc->border_side & LV_BORDER_SIDE_LEFT) ? 1 : 0;
 4062              		.loc 1 105 5 is_stmt 1 view .LVU1517
 105:lvgl/src/draw/sw/lv_draw_sw_rect.c ****         bg_coords.x1 += (dsc->border_side & LV_BORDER_SIDE_LEFT) ? 1 : 0;
 4063              		.loc 1 105 11 is_stmt 0 view .LVU1518
 4064 0032 B4F93020 		ldrsh	r2, [r4, #48]
ARM GAS  C:\Users\OSD\AppData\Local\Temp\ccS6lZqb.s 			page 124


 4065              	.LVL383:
 105:lvgl/src/draw/sw/lv_draw_sw_rect.c ****         bg_coords.x1 += (dsc->border_side & LV_BORDER_SIDE_LEFT) ? 1 : 0;
 4066              		.loc 1 105 7 view .LVU1519
 4067 0036 012A     		cmp	r2, #1
 4068 0038 1CDD     		ble	.L234
 105:lvgl/src/draw/sw/lv_draw_sw_rect.c ****         bg_coords.x1 += (dsc->border_side & LV_BORDER_SIDE_LEFT) ? 1 : 0;
 4069              		.loc 1 105 36 discriminator 1 view .LVU1520
 4070 003a 94F83220 		ldrb	r2, [r4, #50]	@ zero_extendqisi2
 105:lvgl/src/draw/sw/lv_draw_sw_rect.c ****         bg_coords.x1 += (dsc->border_side & LV_BORDER_SIDE_LEFT) ? 1 : 0;
 4071              		.loc 1 105 30 discriminator 1 view .LVU1521
 4072 003e FC2A     		cmp	r2, #252
 4073 0040 18D9     		bls	.L234
 105:lvgl/src/draw/sw/lv_draw_sw_rect.c ****         bg_coords.x1 += (dsc->border_side & LV_BORDER_SIDE_LEFT) ? 1 : 0;
 4074              		.loc 1 105 69 discriminator 2 view .LVU1522
 4075 0042 B4F90020 		ldrsh	r2, [r4]
 105:lvgl/src/draw/sw/lv_draw_sw_rect.c ****         bg_coords.x1 += (dsc->border_side & LV_BORDER_SIDE_LEFT) ? 1 : 0;
 4076              		.loc 1 105 63 discriminator 2 view .LVU1523
 4077 0046 AAB1     		cbz	r2, .L234
 106:lvgl/src/draw/sw/lv_draw_sw_rect.c ****         bg_coords.y1 += (dsc->border_side & LV_BORDER_SIDE_TOP) ? 1 : 0;
 4078              		.loc 1 106 9 is_stmt 1 view .LVU1524
 106:lvgl/src/draw/sw/lv_draw_sw_rect.c ****         bg_coords.y1 += (dsc->border_side & LV_BORDER_SIDE_TOP) ? 1 : 0;
 4079              		.loc 1 106 29 is_stmt 0 view .LVU1525
 4080 0048 94F83320 		ldrb	r2, [r4, #51]	@ zero_extendqisi2
 106:lvgl/src/draw/sw/lv_draw_sw_rect.c ****         bg_coords.y1 += (dsc->border_side & LV_BORDER_SIDE_TOP) ? 1 : 0;
 4081              		.loc 1 106 70 view .LVU1526
 4082 004c C2F3C006 		ubfx	r6, r2, #3, #1
 106:lvgl/src/draw/sw/lv_draw_sw_rect.c ****         bg_coords.y1 += (dsc->border_side & LV_BORDER_SIDE_TOP) ? 1 : 0;
 4083              		.loc 1 106 22 view .LVU1527
 4084 0050 3544     		add	r5, r5, r6
 4085 0052 ADF86050 		strh	r5, [sp, #96]	@ movhi
 107:lvgl/src/draw/sw/lv_draw_sw_rect.c ****         bg_coords.x2 -= (dsc->border_side & LV_BORDER_SIDE_RIGHT) ? 1 : 0;
 4086              		.loc 1 107 9 is_stmt 1 view .LVU1528
 107:lvgl/src/draw/sw/lv_draw_sw_rect.c ****         bg_coords.x2 -= (dsc->border_side & LV_BORDER_SIDE_RIGHT) ? 1 : 0;
 4087              		.loc 1 107 69 is_stmt 0 view .LVU1529
 4088 0056 C2F38005 		ubfx	r5, r2, #2, #1
 107:lvgl/src/draw/sw/lv_draw_sw_rect.c ****         bg_coords.x2 -= (dsc->border_side & LV_BORDER_SIDE_RIGHT) ? 1 : 0;
 4089              		.loc 1 107 22 view .LVU1530
 4090 005a 2844     		add	r0, r0, r5
 4091 005c ADF86200 		strh	r0, [sp, #98]	@ movhi
 108:lvgl/src/draw/sw/lv_draw_sw_rect.c ****         bg_coords.y2 -= (dsc->border_side & LV_BORDER_SIDE_BOTTOM) ? 1 : 0;
 4092              		.loc 1 108 9 is_stmt 1 view .LVU1531
 108:lvgl/src/draw/sw/lv_draw_sw_rect.c ****         bg_coords.y2 -= (dsc->border_side & LV_BORDER_SIDE_BOTTOM) ? 1 : 0;
 4093              		.loc 1 108 71 is_stmt 0 view .LVU1532
 4094 0060 C2F30010 		ubfx	r0, r2, #4, #1
 108:lvgl/src/draw/sw/lv_draw_sw_rect.c ****         bg_coords.y2 -= (dsc->border_side & LV_BORDER_SIDE_BOTTOM) ? 1 : 0;
 4095              		.loc 1 108 22 view .LVU1533
 4096 0064 091A     		subs	r1, r1, r0
 4097 0066 ADF86410 		strh	r1, [sp, #100]	@ movhi
 109:lvgl/src/draw/sw/lv_draw_sw_rect.c ****     }
 4098              		.loc 1 109 9 is_stmt 1 view .LVU1534
 109:lvgl/src/draw/sw/lv_draw_sw_rect.c ****     }
 4099              		.loc 1 109 72 is_stmt 0 view .LVU1535
 4100 006a C2F34002 		ubfx	r2, r2, #1, #1
 109:lvgl/src/draw/sw/lv_draw_sw_rect.c ****     }
 4101              		.loc 1 109 22 view .LVU1536
 4102 006e 9B1A     		subs	r3, r3, r2
 4103 0070 ADF86630 		strh	r3, [sp, #102]	@ movhi
ARM GAS  C:\Users\OSD\AppData\Local\Temp\ccS6lZqb.s 			page 125


 4104              	.L234:
 112:lvgl/src/draw/sw/lv_draw_sw_rect.c ****     if(!_lv_area_intersect(&clipped_coords, &bg_coords, draw_ctx->clip_area)) return;
 4105              		.loc 1 112 5 is_stmt 1 view .LVU1537
 113:lvgl/src/draw/sw/lv_draw_sw_rect.c **** 
 4106              		.loc 1 113 5 view .LVU1538
 113:lvgl/src/draw/sw/lv_draw_sw_rect.c **** 
 4107              		.loc 1 113 9 is_stmt 0 view .LVU1539
 4108 0074 D9F80820 		ldr	r2, [r9, #8]
 4109 0078 18A9     		add	r1, sp, #96
 4110 007a 16A8     		add	r0, sp, #88
 4111 007c FFF7FEFF 		bl	_lv_area_intersect
 4112              	.LVL384:
 113:lvgl/src/draw/sw/lv_draw_sw_rect.c **** 
 4113              		.loc 1 113 7 view .LVU1540
 4114 0080 0028     		cmp	r0, #0
 4115 0082 00F08181 		beq	.L232
 115:lvgl/src/draw/sw/lv_draw_sw_rect.c ****     lv_color_t bg_color    = grad_dir == LV_GRAD_DIR_NONE ? dsc->bg_color : dsc->bg_grad.stops[0].c
 4116              		.loc 1 115 5 is_stmt 1 view .LVU1541
 115:lvgl/src/draw/sw/lv_draw_sw_rect.c ****     lv_color_t bg_color    = grad_dir == LV_GRAD_DIR_NONE ? dsc->bg_color : dsc->bg_grad.stops[0].c
 4117              		.loc 1 115 42 is_stmt 0 view .LVU1542
 4118 0086 94F819A0 		ldrb	r10, [r4, #25]	@ zero_extendqisi2
 4119              	.LVL385:
 116:lvgl/src/draw/sw/lv_draw_sw_rect.c ****     if(bg_color.full == dsc->bg_grad.stops[1].color.full) grad_dir = LV_GRAD_DIR_NONE;
 4120              		.loc 1 116 5 is_stmt 1 view .LVU1543
 116:lvgl/src/draw/sw/lv_draw_sw_rect.c ****     if(bg_color.full == dsc->bg_grad.stops[1].color.full) grad_dir = LV_GRAD_DIR_NONE;
 4121              		.loc 1 116 16 is_stmt 0 view .LVU1544
 4122 008a 1AF0070A 		ands	r10, r10, #7
 4123              	.LVL386:
 116:lvgl/src/draw/sw/lv_draw_sw_rect.c ****     if(bg_color.full == dsc->bg_grad.stops[1].color.full) grad_dir = LV_GRAD_DIR_NONE;
 4124              		.loc 1 116 16 view .LVU1545
 4125 008e 7ED1     		bne	.L235
 116:lvgl/src/draw/sw/lv_draw_sw_rect.c ****     if(bg_color.full == dsc->bg_grad.stops[1].color.full) grad_dir = LV_GRAD_DIR_NONE;
 4126              		.loc 1 116 16 discriminator 1 view .LVU1546
 4127 0090 6568     		ldr	r5, [r4, #4]
 4128              	.LVL387:
 4129              	.L236:
 117:lvgl/src/draw/sw/lv_draw_sw_rect.c **** 
 4130              		.loc 1 117 5 is_stmt 1 view .LVU1547
 117:lvgl/src/draw/sw/lv_draw_sw_rect.c **** 
 4131              		.loc 1 117 52 is_stmt 0 view .LVU1548
 4132 0092 2369     		ldr	r3, [r4, #16]
 4133              	.LVL388:
 117:lvgl/src/draw/sw/lv_draw_sw_rect.c **** 
 4134              		.loc 1 117 7 view .LVU1549
 4135 0094 9D42     		cmp	r5, r3
 4136 0096 7CD0     		beq	.L271
 4137              	.L237:
 4138              	.LVL389:
 119:lvgl/src/draw/sw/lv_draw_sw_rect.c ****     lv_draw_sw_blend_dsc_t blend_dsc = {0};
 4139              		.loc 1 119 5 is_stmt 1 view .LVU1550
 119:lvgl/src/draw/sw/lv_draw_sw_rect.c ****     lv_draw_sw_blend_dsc_t blend_dsc = {0};
 4140              		.loc 1 119 21 is_stmt 0 view .LVU1551
 4141 0098 18A8     		add	r0, sp, #96
 4142 009a FFF7FEFF 		bl	lv_draw_mask_is_any
 4143              	.LVL390:
 120:lvgl/src/draw/sw/lv_draw_sw_rect.c ****     blend_dsc.blend_mode = dsc->blend_mode;
 4144              		.loc 1 120 5 is_stmt 1 view .LVU1552
ARM GAS  C:\Users\OSD\AppData\Local\Temp\ccS6lZqb.s 			page 126


 120:lvgl/src/draw/sw/lv_draw_sw_rect.c ****     blend_dsc.blend_mode = dsc->blend_mode;
 4145              		.loc 1 120 28 is_stmt 0 view .LVU1553
 4146 009e 0023     		movs	r3, #0
 4147 00a0 0F93     		str	r3, [sp, #60]
 4148 00a2 1093     		str	r3, [sp, #64]
 4149 00a4 1193     		str	r3, [sp, #68]
 4150 00a6 1293     		str	r3, [sp, #72]
 4151 00a8 1393     		str	r3, [sp, #76]
 4152 00aa 1493     		str	r3, [sp, #80]
 4153 00ac 1593     		str	r3, [sp, #84]
 121:lvgl/src/draw/sw/lv_draw_sw_rect.c ****     blend_dsc.color = bg_color;
 4154              		.loc 1 121 5 is_stmt 1 view .LVU1554
 121:lvgl/src/draw/sw/lv_draw_sw_rect.c ****     blend_dsc.color = bg_color;
 4155              		.loc 1 121 31 is_stmt 0 view .LVU1555
 4156 00ae A378     		ldrb	r3, [r4, #2]	@ zero_extendqisi2
 121:lvgl/src/draw/sw/lv_draw_sw_rect.c ****     blend_dsc.color = bg_color;
 4157              		.loc 1 121 26 view .LVU1556
 4158 00b0 8DF85530 		strb	r3, [sp, #85]
 122:lvgl/src/draw/sw/lv_draw_sw_rect.c **** 
 4159              		.loc 1 122 5 is_stmt 1 view .LVU1557
 122:lvgl/src/draw/sw/lv_draw_sw_rect.c **** 
 4160              		.loc 1 122 21 is_stmt 0 view .LVU1558
 4161 00b4 1195     		str	r5, [sp, #68]
 125:lvgl/src/draw/sw/lv_draw_sw_rect.c ****         blend_dsc.blend_area = &bg_coords;
 4162              		.loc 1 125 5 is_stmt 1 view .LVU1559
 125:lvgl/src/draw/sw/lv_draw_sw_rect.c ****         blend_dsc.blend_area = &bg_coords;
 4163              		.loc 1 125 7 is_stmt 0 view .LVU1560
 4164 00b6 0290     		str	r0, [sp, #8]
 4165 00b8 28B9     		cbnz	r0, .L238
 125:lvgl/src/draw/sw/lv_draw_sw_rect.c ****         blend_dsc.blend_area = &bg_coords;
 4166              		.loc 1 125 24 discriminator 1 view .LVU1561
 4167 00ba B4F90030 		ldrsh	r3, [r4]
 125:lvgl/src/draw/sw/lv_draw_sw_rect.c ****         blend_dsc.blend_area = &bg_coords;
 4168              		.loc 1 125 18 discriminator 1 view .LVU1562
 4169 00be 13B9     		cbnz	r3, .L238
 125:lvgl/src/draw/sw/lv_draw_sw_rect.c ****         blend_dsc.blend_area = &bg_coords;
 4170              		.loc 1 125 38 discriminator 2 view .LVU1563
 4171 00c0 BAF1000F 		cmp	r10, #0
 4172 00c4 68D0     		beq	.L272
 4173              	.L238:
 136:lvgl/src/draw/sw/lv_draw_sw_rect.c **** 
 4174              		.loc 1 136 5 is_stmt 1 view .LVU1564
 136:lvgl/src/draw/sw/lv_draw_sw_rect.c **** 
 4175              		.loc 1 136 23 is_stmt 0 view .LVU1565
 4176 00c6 E378     		ldrb	r3, [r4, #3]	@ zero_extendqisi2
 4177 00c8 0093     		str	r3, [sp]
 136:lvgl/src/draw/sw/lv_draw_sw_rect.c **** 
 4178              		.loc 1 136 14 view .LVU1566
 4179 00ca FC2B     		cmp	r3, #252
 4180 00cc 01D9     		bls	.L239
 4181 00ce FF23     		movs	r3, #255
 4182 00d0 0093     		str	r3, [sp]
 4183              	.L239:
 4184              	.LVL391:
 139:lvgl/src/draw/sw/lv_draw_sw_rect.c ****     lv_coord_t coords_bg_h = lv_area_get_height(&bg_coords);
 4185              		.loc 1 139 5 is_stmt 1 discriminator 4 view .LVU1567
 4186              	.LBB181:
ARM GAS  C:\Users\OSD\AppData\Local\Temp\ccS6lZqb.s 			page 127


 4187              	.LBI181:
 123:lvgl/src/draw/sw/../../misc/lv_area.h **** {
 4188              		.loc 2 123 26 discriminator 4 view .LVU1568
 4189              	.LBB182:
 125:lvgl/src/draw/sw/../../misc/lv_area.h **** }
 4190              		.loc 2 125 5 discriminator 4 view .LVU1569
 125:lvgl/src/draw/sw/../../misc/lv_area.h **** }
 4191              		.loc 2 125 31 is_stmt 0 discriminator 4 view .LVU1570
 4192 00d2 BDF86450 		ldrh	r5, [sp, #100]
 4193              	.LVL392:
 125:lvgl/src/draw/sw/../../misc/lv_area.h **** }
 4194              		.loc 2 125 44 discriminator 4 view .LVU1571
 4195 00d6 BDF86030 		ldrh	r3, [sp, #96]
 125:lvgl/src/draw/sw/../../misc/lv_area.h **** }
 4196              		.loc 2 125 36 discriminator 4 view .LVU1572
 4197 00da ED1A     		subs	r5, r5, r3
 4198 00dc ADB2     		uxth	r5, r5
 125:lvgl/src/draw/sw/../../misc/lv_area.h **** }
 4199              		.loc 2 125 49 discriminator 4 view .LVU1573
 4200 00de 0135     		adds	r5, r5, #1
 125:lvgl/src/draw/sw/../../misc/lv_area.h **** }
 4201              		.loc 2 125 12 discriminator 4 view .LVU1574
 4202 00e0 2DB2     		sxth	r5, r5
 4203              	.LVL393:
 125:lvgl/src/draw/sw/../../misc/lv_area.h **** }
 4204              		.loc 2 125 12 discriminator 4 view .LVU1575
 4205              	.LBE182:
 4206              	.LBE181:
 140:lvgl/src/draw/sw/lv_draw_sw_rect.c ****     int32_t short_side = LV_MIN(coords_bg_w, coords_bg_h);
 4207              		.loc 1 140 5 is_stmt 1 discriminator 4 view .LVU1576
 4208              	.LBB183:
 4209              	.LBI183:
 133:lvgl/src/draw/sw/../../misc/lv_area.h **** {
 4210              		.loc 2 133 26 discriminator 4 view .LVU1577
 4211              	.LBB184:
 4212              		.loc 2 135 5 discriminator 4 view .LVU1578
 4213              		.loc 2 135 31 is_stmt 0 discriminator 4 view .LVU1579
 4214 00e2 BDF86670 		ldrh	r7, [sp, #102]
 4215              		.loc 2 135 44 discriminator 4 view .LVU1580
 4216 00e6 BDF86230 		ldrh	r3, [sp, #98]
 4217              		.loc 2 135 36 discriminator 4 view .LVU1581
 4218 00ea FF1A     		subs	r7, r7, r3
 4219 00ec BFB2     		uxth	r7, r7
 4220              		.loc 2 135 49 discriminator 4 view .LVU1582
 4221 00ee 0137     		adds	r7, r7, #1
 4222              		.loc 2 135 12 discriminator 4 view .LVU1583
 4223 00f0 3FB2     		sxth	r7, r7
 4224              	.LVL394:
 4225              		.loc 2 135 12 discriminator 4 view .LVU1584
 4226              	.LBE184:
 4227              	.LBE183:
 141:lvgl/src/draw/sw/lv_draw_sw_rect.c ****     int32_t rout = LV_MIN(dsc->radius, short_side >> 1);
 4228              		.loc 1 141 5 is_stmt 1 discriminator 4 view .LVU1585
 141:lvgl/src/draw/sw/lv_draw_sw_rect.c ****     int32_t rout = LV_MIN(dsc->radius, short_side >> 1);
 4229              		.loc 1 141 26 is_stmt 0 discriminator 4 view .LVU1586
 4230 00f2 BB46     		mov	fp, r7
 4231 00f4 AF42     		cmp	r7, r5
ARM GAS  C:\Users\OSD\AppData\Local\Temp\ccS6lZqb.s 			page 128


 4232 00f6 A8BF     		it	ge
 4233 00f8 AB46     		movge	fp, r5
 4234              	.LVL395:
 142:lvgl/src/draw/sw/lv_draw_sw_rect.c **** 
 4235              		.loc 1 142 5 is_stmt 1 discriminator 4 view .LVU1587
 142:lvgl/src/draw/sw/lv_draw_sw_rect.c **** 
 4236              		.loc 1 142 20 is_stmt 0 discriminator 4 view .LVU1588
 4237 00fa 4FEA6B0B 		asr	fp, fp, #1
 4238              	.LVL396:
 142:lvgl/src/draw/sw/lv_draw_sw_rect.c **** 
 4239              		.loc 1 142 20 discriminator 4 view .LVU1589
 4240 00fe B4F90030 		ldrsh	r3, [r4]
 142:lvgl/src/draw/sw/lv_draw_sw_rect.c **** 
 4241              		.loc 1 142 13 discriminator 4 view .LVU1590
 4242 0102 9B45     		cmp	fp, r3
 4243              	.LVL397:
 142:lvgl/src/draw/sw/lv_draw_sw_rect.c **** 
 4244              		.loc 1 142 13 discriminator 4 view .LVU1591
 4245 0104 A8BF     		it	ge
 4246 0106 9B46     		movge	fp, r3
 4247              	.LVL398:
 145:lvgl/src/draw/sw/lv_draw_sw_rect.c ****     int16_t mask_rout_id = LV_MASK_ID_INV;
 4248              		.loc 1 145 5 is_stmt 1 discriminator 4 view .LVU1592
 4249              	.LBB185:
 4250              	.LBI185:
 123:lvgl/src/draw/sw/../../misc/lv_area.h **** {
 4251              		.loc 2 123 26 discriminator 4 view .LVU1593
 4252              	.LBB186:
 125:lvgl/src/draw/sw/../../misc/lv_area.h **** }
 4253              		.loc 2 125 5 discriminator 4 view .LVU1594
 125:lvgl/src/draw/sw/../../misc/lv_area.h **** }
 4254              		.loc 2 125 31 is_stmt 0 discriminator 4 view .LVU1595
 4255 0108 BDF85C60 		ldrh	r6, [sp, #92]
 125:lvgl/src/draw/sw/../../misc/lv_area.h **** }
 4256              		.loc 2 125 44 discriminator 4 view .LVU1596
 4257 010c BDF85830 		ldrh	r3, [sp, #88]
 125:lvgl/src/draw/sw/../../misc/lv_area.h **** }
 4258              		.loc 2 125 36 discriminator 4 view .LVU1597
 4259 0110 F61A     		subs	r6, r6, r3
 4260 0112 B6B2     		uxth	r6, r6
 125:lvgl/src/draw/sw/../../misc/lv_area.h **** }
 4261              		.loc 2 125 49 discriminator 4 view .LVU1598
 4262 0114 0136     		adds	r6, r6, #1
 125:lvgl/src/draw/sw/../../misc/lv_area.h **** }
 4263              		.loc 2 125 12 discriminator 4 view .LVU1599
 4264 0116 36B2     		sxth	r6, r6
 4265              	.LVL399:
 125:lvgl/src/draw/sw/../../misc/lv_area.h **** }
 4266              		.loc 2 125 12 discriminator 4 view .LVU1600
 4267              	.LBE186:
 4268              	.LBE185:
 146:lvgl/src/draw/sw/lv_draw_sw_rect.c ****     lv_opa_t * mask_buf = NULL;
 4269              		.loc 1 146 5 is_stmt 1 discriminator 4 view .LVU1601
 147:lvgl/src/draw/sw/lv_draw_sw_rect.c ****     lv_draw_mask_radius_param_t mask_rout_param;
 4270              		.loc 1 147 5 discriminator 4 view .LVU1602
 148:lvgl/src/draw/sw/lv_draw_sw_rect.c ****     if(rout > 0 || mask_any) {
 4271              		.loc 1 148 5 discriminator 4 view .LVU1603
ARM GAS  C:\Users\OSD\AppData\Local\Temp\ccS6lZqb.s 			page 129


 149:lvgl/src/draw/sw/lv_draw_sw_rect.c ****         mask_buf = lv_mem_buf_get(clipped_w);
 4272              		.loc 1 149 5 discriminator 4 view .LVU1604
 149:lvgl/src/draw/sw/lv_draw_sw_rect.c ****         mask_buf = lv_mem_buf_get(clipped_w);
 4273              		.loc 1 149 17 is_stmt 0 discriminator 4 view .LVU1605
 4274 0118 029B     		ldr	r3, [sp, #8]
 4275 011a BBF1000F 		cmp	fp, #0
 4276 011e C8BF     		it	gt
 4277 0120 43F00103 		orrgt	r3, r3, #1
 149:lvgl/src/draw/sw/lv_draw_sw_rect.c ****         mask_buf = lv_mem_buf_get(clipped_w);
 4278              		.loc 1 149 7 discriminator 4 view .LVU1606
 4279 0124 13F0FF0F 		tst	r3, #255
 4280 0128 40D1     		bne	.L273
 147:lvgl/src/draw/sw/lv_draw_sw_rect.c ****     lv_draw_mask_radius_param_t mask_rout_param;
 4281              		.loc 1 147 16 view .LVU1607
 4282 012a 4FF00008 		mov	r8, #0
 146:lvgl/src/draw/sw/lv_draw_sw_rect.c ****     lv_opa_t * mask_buf = NULL;
 4283              		.loc 1 146 13 view .LVU1608
 4284 012e 4FF0FF33 		mov	r3, #-1
 4285 0132 0393     		str	r3, [sp, #12]
 4286              	.LVL400:
 4287              	.L240:
 155:lvgl/src/draw/sw/lv_draw_sw_rect.c **** 
 4288              		.loc 1 155 5 is_stmt 1 view .LVU1609
 157:lvgl/src/draw/sw/lv_draw_sw_rect.c ****     blend_area.x1 = clipped_coords.x1;
 4289              		.loc 1 157 5 view .LVU1610
 158:lvgl/src/draw/sw/lv_draw_sw_rect.c ****     blend_area.x2 = clipped_coords.x2;
 4290              		.loc 1 158 5 view .LVU1611
 158:lvgl/src/draw/sw/lv_draw_sw_rect.c ****     blend_area.x2 = clipped_coords.x2;
 4291              		.loc 1 158 35 is_stmt 0 view .LVU1612
 4292 0134 BDF95830 		ldrsh	r3, [sp, #88]
 158:lvgl/src/draw/sw/lv_draw_sw_rect.c ****     blend_area.x2 = clipped_coords.x2;
 4293              		.loc 1 158 19 view .LVU1613
 4294 0138 ADF81C30 		strh	r3, [sp, #28]	@ movhi
 159:lvgl/src/draw/sw/lv_draw_sw_rect.c **** 
 4295              		.loc 1 159 5 is_stmt 1 view .LVU1614
 159:lvgl/src/draw/sw/lv_draw_sw_rect.c **** 
 4296              		.loc 1 159 35 is_stmt 0 view .LVU1615
 4297 013c BDF95C30 		ldrsh	r3, [sp, #92]
 159:lvgl/src/draw/sw/lv_draw_sw_rect.c **** 
 4298              		.loc 1 159 19 view .LVU1616
 4299 0140 ADF82030 		strh	r3, [sp, #32]	@ movhi
 161:lvgl/src/draw/sw/lv_draw_sw_rect.c ****     blend_dsc.blend_area = &blend_area;
 4300              		.loc 1 161 5 is_stmt 1 view .LVU1617
 161:lvgl/src/draw/sw/lv_draw_sw_rect.c ****     blend_dsc.blend_area = &blend_area;
 4301              		.loc 1 161 24 is_stmt 0 view .LVU1618
 4302 0144 CDF84880 		str	r8, [sp, #72]
 162:lvgl/src/draw/sw/lv_draw_sw_rect.c ****     blend_dsc.mask_area = &blend_area;
 4303              		.loc 1 162 5 is_stmt 1 view .LVU1619
 162:lvgl/src/draw/sw/lv_draw_sw_rect.c ****     blend_dsc.mask_area = &blend_area;
 4304              		.loc 1 162 26 is_stmt 0 view .LVU1620
 4305 0148 07AB     		add	r3, sp, #28
 4306 014a 0F93     		str	r3, [sp, #60]
 163:lvgl/src/draw/sw/lv_draw_sw_rect.c ****     blend_dsc.opa = LV_OPA_COVER;
 4307              		.loc 1 163 5 is_stmt 1 view .LVU1621
 163:lvgl/src/draw/sw/lv_draw_sw_rect.c ****     blend_dsc.opa = LV_OPA_COVER;
 4308              		.loc 1 163 25 is_stmt 0 view .LVU1622
 4309 014c 1493     		str	r3, [sp, #80]
ARM GAS  C:\Users\OSD\AppData\Local\Temp\ccS6lZqb.s 			page 130


 164:lvgl/src/draw/sw/lv_draw_sw_rect.c **** 
 4310              		.loc 1 164 5 is_stmt 1 view .LVU1623
 164:lvgl/src/draw/sw/lv_draw_sw_rect.c **** 
 4311              		.loc 1 164 19 is_stmt 0 view .LVU1624
 4312 014e FF23     		movs	r3, #255
 4313 0150 8DF85430 		strb	r3, [sp, #84]
 167:lvgl/src/draw/sw/lv_draw_sw_rect.c ****     if(grad && grad_dir == LV_GRAD_DIR_HOR) {
 4314              		.loc 1 167 5 is_stmt 1 view .LVU1625
 167:lvgl/src/draw/sw/lv_draw_sw_rect.c ****     if(grad && grad_dir == LV_GRAD_DIR_HOR) {
 4315              		.loc 1 167 24 is_stmt 0 view .LVU1626
 4316 0154 3A46     		mov	r2, r7
 4317 0156 2946     		mov	r1, r5
 4318 0158 04F10800 		add	r0, r4, #8
 4319 015c FFF7FEFF 		bl	lv_gradient_get
 4320              	.LVL401:
 168:lvgl/src/draw/sw/lv_draw_sw_rect.c ****         blend_dsc.src_buf = grad->map + clipped_coords.x1 - bg_coords.x1;
 4321              		.loc 1 168 5 is_stmt 1 view .LVU1627
 168:lvgl/src/draw/sw/lv_draw_sw_rect.c ****         blend_dsc.src_buf = grad->map + clipped_coords.x1 - bg_coords.x1;
 4322              		.loc 1 168 8 is_stmt 0 view .LVU1628
 4323 0160 0346     		mov	r3, r0
 4324 0162 0190     		str	r0, [sp, #4]
 168:lvgl/src/draw/sw/lv_draw_sw_rect.c ****         blend_dsc.src_buf = grad->map + clipped_coords.x1 - bg_coords.x1;
 4325              		.loc 1 168 13 view .LVU1629
 4326 0164 0038     		subs	r0, r0, #0
 4327              	.LVL402:
 168:lvgl/src/draw/sw/lv_draw_sw_rect.c ****         blend_dsc.src_buf = grad->map + clipped_coords.x1 - bg_coords.x1;
 4328              		.loc 1 168 13 view .LVU1630
 4329 0166 18BF     		it	ne
 4330 0168 0120     		movne	r0, #1
 4331 016a BAF1020F 		cmp	r10, #2
 4332 016e 18BF     		it	ne
 4333 0170 0020     		movne	r0, #0
 168:lvgl/src/draw/sw/lv_draw_sw_rect.c ****         blend_dsc.src_buf = grad->map + clipped_coords.x1 - bg_coords.x1;
 4334              		.loc 1 168 7 view .LVU1631
 4335 0172 40B1     		cbz	r0, .L241
 169:lvgl/src/draw/sw/lv_draw_sw_rect.c ****     }
 4336              		.loc 1 169 9 is_stmt 1 view .LVU1632
 169:lvgl/src/draw/sw/lv_draw_sw_rect.c ****     }
 4337              		.loc 1 169 33 is_stmt 0 view .LVU1633
 4338 0174 9B68     		ldr	r3, [r3, #8]
 4339              	.LVL403:
 169:lvgl/src/draw/sw/lv_draw_sw_rect.c ****     }
 4340              		.loc 1 169 55 view .LVU1634
 4341 0176 BDF95820 		ldrsh	r2, [sp, #88]
 169:lvgl/src/draw/sw/lv_draw_sw_rect.c ****     }
 4342              		.loc 1 169 70 view .LVU1635
 4343 017a BDF96010 		ldrsh	r1, [sp, #96]
 169:lvgl/src/draw/sw/lv_draw_sw_rect.c ****     }
 4344              		.loc 1 169 59 view .LVU1636
 4345 017e 521A     		subs	r2, r2, r1
 4346 0180 03EB8203 		add	r3, r3, r2, lsl #2
 169:lvgl/src/draw/sw/lv_draw_sw_rect.c ****     }
 4347              		.loc 1 169 27 view .LVU1637
 4348 0184 1093     		str	r3, [sp, #64]
 4349              	.L241:
 217:lvgl/src/draw/sw/lv_draw_sw_rect.c ****         for(h = clipped_coords.y1; h <= clipped_coords.y2; h++) {
 4350              		.loc 1 217 5 is_stmt 1 view .LVU1638
ARM GAS  C:\Users\OSD\AppData\Local\Temp\ccS6lZqb.s 			page 131


 217:lvgl/src/draw/sw/lv_draw_sw_rect.c ****         for(h = clipped_coords.y1; h <= clipped_coords.y2; h++) {
 4351              		.loc 1 217 7 is_stmt 0 view .LVU1639
 4352 0186 029B     		ldr	r3, [sp, #8]
 4353 0188 03BB     		cbnz	r3, .L274
 238:lvgl/src/draw/sw/lv_draw_sw_rect.c ****         lv_coord_t top_y = bg_coords.y1 + h;
 4354              		.loc 1 238 11 view .LVU1640
 4355 018a 0027     		movs	r7, #0
 4356              	.LVL404:
 238:lvgl/src/draw/sw/lv_draw_sw_rect.c ****         lv_coord_t top_y = bg_coords.y1 + h;
 4357              		.loc 1 238 11 view .LVU1641
 4358 018c 64E0     		b	.L242
 4359              	.LVL405:
 4360              	.L235:
 116:lvgl/src/draw/sw/lv_draw_sw_rect.c ****     if(bg_color.full == dsc->bg_grad.stops[1].color.full) grad_dir = LV_GRAD_DIR_NONE;
 4361              		.loc 1 116 16 discriminator 2 view .LVU1642
 4362 018e A568     		ldr	r5, [r4, #8]
 116:lvgl/src/draw/sw/lv_draw_sw_rect.c ****     if(bg_color.full == dsc->bg_grad.stops[1].color.full) grad_dir = LV_GRAD_DIR_NONE;
 4363              		.loc 1 116 16 discriminator 2 view .LVU1643
 4364 0190 7FE7     		b	.L236
 4365              	.LVL406:
 4366              	.L271:
 117:lvgl/src/draw/sw/lv_draw_sw_rect.c **** 
 4367              		.loc 1 117 68 view .LVU1644
 4368 0192 4FF0000A 		mov	r10, #0
 4369 0196 7FE7     		b	.L237
 4370              	.LVL407:
 4371              	.L272:
 126:lvgl/src/draw/sw/lv_draw_sw_rect.c ****         blend_dsc.opa = dsc->bg_opa;
 4372              		.loc 1 126 9 is_stmt 1 view .LVU1645
 126:lvgl/src/draw/sw/lv_draw_sw_rect.c ****         blend_dsc.opa = dsc->bg_opa;
 4373              		.loc 1 126 30 is_stmt 0 view .LVU1646
 4374 0198 18AB     		add	r3, sp, #96
 4375 019a 0F93     		str	r3, [sp, #60]
 127:lvgl/src/draw/sw/lv_draw_sw_rect.c ****         lv_draw_sw_blend(draw_ctx, &blend_dsc);
 4376              		.loc 1 127 9 is_stmt 1 view .LVU1647
 127:lvgl/src/draw/sw/lv_draw_sw_rect.c ****         lv_draw_sw_blend(draw_ctx, &blend_dsc);
 4377              		.loc 1 127 28 is_stmt 0 view .LVU1648
 4378 019c E378     		ldrb	r3, [r4, #3]	@ zero_extendqisi2
 127:lvgl/src/draw/sw/lv_draw_sw_rect.c ****         lv_draw_sw_blend(draw_ctx, &blend_dsc);
 4379              		.loc 1 127 23 view .LVU1649
 4380 019e 8DF85430 		strb	r3, [sp, #84]
 128:lvgl/src/draw/sw/lv_draw_sw_rect.c ****         return;
 4381              		.loc 1 128 9 is_stmt 1 view .LVU1650
 4382 01a2 0FA9     		add	r1, sp, #60
 4383 01a4 4846     		mov	r0, r9
 4384              	.LVL408:
 128:lvgl/src/draw/sw/lv_draw_sw_rect.c ****         return;
 4385              		.loc 1 128 9 is_stmt 0 view .LVU1651
 4386 01a6 FFF7FEFF 		bl	lv_draw_sw_blend
 4387              	.LVL409:
 129:lvgl/src/draw/sw/lv_draw_sw_rect.c ****     }
 4388              		.loc 1 129 9 is_stmt 1 view .LVU1652
 4389 01aa EDE0     		b	.L232
 4390              	.LVL410:
 4391              	.L273:
 150:lvgl/src/draw/sw/lv_draw_sw_rect.c ****         lv_draw_mask_radius_init(&mask_rout_param, &bg_coords, rout, false);
 4392              		.loc 1 150 9 view .LVU1653
ARM GAS  C:\Users\OSD\AppData\Local\Temp\ccS6lZqb.s 			page 132


 150:lvgl/src/draw/sw/lv_draw_sw_rect.c ****         lv_draw_mask_radius_init(&mask_rout_param, &bg_coords, rout, false);
 4393              		.loc 1 150 20 is_stmt 0 view .LVU1654
 4394 01ac 3046     		mov	r0, r6
 4395              	.LVL411:
 150:lvgl/src/draw/sw/lv_draw_sw_rect.c ****         lv_draw_mask_radius_init(&mask_rout_param, &bg_coords, rout, false);
 4396              		.loc 1 150 20 view .LVU1655
 4397 01ae FFF7FEFF 		bl	lv_mem_buf_get
 4398              	.LVL412:
 4399 01b2 8046     		mov	r8, r0
 4400              	.LVL413:
 151:lvgl/src/draw/sw/lv_draw_sw_rect.c ****         mask_rout_id = lv_draw_mask_add(&mask_rout_param, NULL);
 4401              		.loc 1 151 9 is_stmt 1 view .LVU1656
 4402 01b4 0023     		movs	r3, #0
 4403 01b6 5A46     		mov	r2, fp
 4404 01b8 18A9     		add	r1, sp, #96
 4405 01ba 09A8     		add	r0, sp, #36
 4406              	.LVL414:
 151:lvgl/src/draw/sw/lv_draw_sw_rect.c ****         mask_rout_id = lv_draw_mask_add(&mask_rout_param, NULL);
 4407              		.loc 1 151 9 is_stmt 0 view .LVU1657
 4408 01bc FFF7FEFF 		bl	lv_draw_mask_radius_init
 4409              	.LVL415:
 152:lvgl/src/draw/sw/lv_draw_sw_rect.c ****     }
 4410              		.loc 1 152 9 is_stmt 1 view .LVU1658
 152:lvgl/src/draw/sw/lv_draw_sw_rect.c ****     }
 4411              		.loc 1 152 24 is_stmt 0 view .LVU1659
 4412 01c0 0021     		movs	r1, #0
 4413 01c2 09A8     		add	r0, sp, #36
 4414 01c4 FFF7FEFF 		bl	lv_draw_mask_add
 4415              	.LVL416:
 4416 01c8 0390     		str	r0, [sp, #12]
 4417              	.LVL417:
 152:lvgl/src/draw/sw/lv_draw_sw_rect.c ****     }
 4418              		.loc 1 152 24 view .LVU1660
 4419 01ca B3E7     		b	.L240
 4420              	.LVL418:
 4421              	.L274:
 218:lvgl/src/draw/sw/lv_draw_sw_rect.c ****             blend_area.y1 = h;
 4422              		.loc 1 218 9 is_stmt 1 view .LVU1661
 218:lvgl/src/draw/sw/lv_draw_sw_rect.c ****             blend_area.y1 = h;
 4423              		.loc 1 218 31 is_stmt 0 view .LVU1662
 4424 01cc BDF95A40 		ldrsh	r4, [sp, #90]
 4425              	.LVL419:
 218:lvgl/src/draw/sw/lv_draw_sw_rect.c ****             blend_area.y1 = h;
 4426              		.loc 1 218 31 view .LVU1663
 4427 01d0 009D     		ldr	r5, [sp]
 4428              	.LVL420:
 218:lvgl/src/draw/sw/lv_draw_sw_rect.c ****             blend_area.y1 = h;
 4429              		.loc 1 218 31 view .LVU1664
 4430 01d2 019F     		ldr	r7, [sp, #4]
 4431              	.LVL421:
 218:lvgl/src/draw/sw/lv_draw_sw_rect.c ****             blend_area.y1 = h;
 4432              		.loc 1 218 9 view .LVU1665
 4433 01d4 08E0     		b	.L243
 4434              	.LVL422:
 4435              	.L275:
 226:lvgl/src/draw/sw/lv_draw_sw_rect.c **** 
 4436              		.loc 1 226 67 is_stmt 1 discriminator 1 view .LVU1666
ARM GAS  C:\Users\OSD\AppData\Local\Temp\ccS6lZqb.s 			page 133


 226:lvgl/src/draw/sw/lv_draw_sw_rect.c **** 
 4437              		.loc 1 226 86 is_stmt 0 discriminator 1 view .LVU1667
 4438 01d6 0223     		movs	r3, #2
 4439 01d8 8DF84C30 		strb	r3, [sp, #76]
 4440 01dc 1FE0     		b	.L244
 4441              	.L245:
 232:lvgl/src/draw/sw/lv_draw_sw_rect.c ****         }
 4442              		.loc 1 232 13 is_stmt 1 discriminator 2 view .LVU1668
 4443 01de 0FA9     		add	r1, sp, #60
 4444 01e0 4846     		mov	r0, r9
 4445 01e2 FFF7FEFF 		bl	lv_draw_sw_blend
 4446              	.LVL423:
 218:lvgl/src/draw/sw/lv_draw_sw_rect.c ****             blend_area.y1 = h;
 4447              		.loc 1 218 60 discriminator 2 view .LVU1669
 218:lvgl/src/draw/sw/lv_draw_sw_rect.c ****             blend_area.y1 = h;
 4448              		.loc 1 218 61 is_stmt 0 discriminator 2 view .LVU1670
 4449 01e6 0134     		adds	r4, r4, #1
 4450              	.LVL424:
 4451              	.L243:
 218:lvgl/src/draw/sw/lv_draw_sw_rect.c ****             blend_area.y1 = h;
 4452              		.loc 1 218 36 is_stmt 1 discriminator 1 view .LVU1671
 218:lvgl/src/draw/sw/lv_draw_sw_rect.c ****             blend_area.y1 = h;
 4453              		.loc 1 218 55 is_stmt 0 discriminator 1 view .LVU1672
 4454 01e8 BDF95E30 		ldrsh	r3, [sp, #94]
 218:lvgl/src/draw/sw/lv_draw_sw_rect.c ****             blend_area.y1 = h;
 4455              		.loc 1 218 9 discriminator 1 view .LVU1673
 4456 01ec A342     		cmp	r3, r4
 4457 01ee C0F2BC80 		blt	.L247
 219:lvgl/src/draw/sw/lv_draw_sw_rect.c ****             blend_area.y2 = h;
 4458              		.loc 1 219 13 is_stmt 1 view .LVU1674
 219:lvgl/src/draw/sw/lv_draw_sw_rect.c ****             blend_area.y2 = h;
 4459              		.loc 1 219 27 is_stmt 0 view .LVU1675
 4460 01f2 0FFA84FB 		sxth	fp, r4
 4461 01f6 ADF81EB0 		strh	fp, [sp, #30]	@ movhi
 220:lvgl/src/draw/sw/lv_draw_sw_rect.c **** 
 4462              		.loc 1 220 13 is_stmt 1 view .LVU1676
 220:lvgl/src/draw/sw/lv_draw_sw_rect.c **** 
 4463              		.loc 1 220 27 is_stmt 0 view .LVU1677
 4464 01fa ADF822B0 		strh	fp, [sp, #34]	@ movhi
 224:lvgl/src/draw/sw/lv_draw_sw_rect.c ****             blend_dsc.mask_res = lv_draw_mask_apply(mask_buf, clipped_coords.x1, h, clipped_w);
 4465              		.loc 1 224 13 is_stmt 1 view .LVU1678
 4466 01fe 3246     		mov	r2, r6
 4467 0200 2946     		mov	r1, r5
 4468 0202 4046     		mov	r0, r8
 4469 0204 FFF7FEFF 		bl	lv_memset
 4470              	.LVL425:
 225:lvgl/src/draw/sw/lv_draw_sw_rect.c ****             if(blend_dsc.mask_res == LV_DRAW_MASK_RES_FULL_COVER) blend_dsc.mask_res = LV_DRAW_MASK
 4471              		.loc 1 225 13 view .LVU1679
 225:lvgl/src/draw/sw/lv_draw_sw_rect.c ****             if(blend_dsc.mask_res == LV_DRAW_MASK_RES_FULL_COVER) blend_dsc.mask_res = LV_DRAW_MASK
 4472              		.loc 1 225 34 is_stmt 0 view .LVU1680
 4473 0208 3346     		mov	r3, r6
 4474 020a 5A46     		mov	r2, fp
 4475 020c BDF95810 		ldrsh	r1, [sp, #88]
 4476 0210 4046     		mov	r0, r8
 4477 0212 FFF7FEFF 		bl	lv_draw_mask_apply
 4478              	.LVL426:
 225:lvgl/src/draw/sw/lv_draw_sw_rect.c ****             if(blend_dsc.mask_res == LV_DRAW_MASK_RES_FULL_COVER) blend_dsc.mask_res = LV_DRAW_MASK
ARM GAS  C:\Users\OSD\AppData\Local\Temp\ccS6lZqb.s 			page 134


 4479              		.loc 1 225 32 view .LVU1681
 4480 0216 8DF84C00 		strb	r0, [sp, #76]
 226:lvgl/src/draw/sw/lv_draw_sw_rect.c **** 
 4481              		.loc 1 226 13 is_stmt 1 view .LVU1682
 226:lvgl/src/draw/sw/lv_draw_sw_rect.c **** 
 4482              		.loc 1 226 15 is_stmt 0 view .LVU1683
 4483 021a 0128     		cmp	r0, #1
 4484 021c DBD0     		beq	.L275
 4485              	.L244:
 231:lvgl/src/draw/sw/lv_draw_sw_rect.c ****             lv_draw_sw_blend(draw_ctx, &blend_dsc);
 4486              		.loc 1 231 13 is_stmt 1 view .LVU1684
 231:lvgl/src/draw/sw/lv_draw_sw_rect.c ****             lv_draw_sw_blend(draw_ctx, &blend_dsc);
 4487              		.loc 1 231 15 is_stmt 0 view .LVU1685
 4488 021e BAF1010F 		cmp	r10, #1
 4489 0222 DCD1     		bne	.L245
 231:lvgl/src/draw/sw/lv_draw_sw_rect.c ****             lv_draw_sw_blend(draw_ctx, &blend_dsc);
 4490              		.loc 1 231 45 is_stmt 1 discriminator 1 view .LVU1686
 231:lvgl/src/draw/sw/lv_draw_sw_rect.c ****             lv_draw_sw_blend(draw_ctx, &blend_dsc);
 4491              		.loc 1 231 67 is_stmt 0 discriminator 1 view .LVU1687
 4492 0224 BA68     		ldr	r2, [r7, #8]
 231:lvgl/src/draw/sw/lv_draw_sw_rect.c ****             lv_draw_sw_blend(draw_ctx, &blend_dsc);
 4493              		.loc 1 231 86 discriminator 1 view .LVU1688
 4494 0226 BDF96230 		ldrsh	r3, [sp, #98]
 231:lvgl/src/draw/sw/lv_draw_sw_rect.c ****             lv_draw_sw_blend(draw_ctx, &blend_dsc);
 4495              		.loc 1 231 75 discriminator 1 view .LVU1689
 4496 022a E31A     		subs	r3, r4, r3
 231:lvgl/src/draw/sw/lv_draw_sw_rect.c ****             lv_draw_sw_blend(draw_ctx, &blend_dsc);
 4497              		.loc 1 231 61 discriminator 1 view .LVU1690
 4498 022c 52F82330 		ldr	r3, [r2, r3, lsl #2]
 4499 0230 1193     		str	r3, [sp, #68]
 4500 0232 D4E7     		b	.L245
 4501              	.LVL427:
 4502              	.L277:
 4503              	.LBB187:
 247:lvgl/src/draw/sw/lv_draw_sw_rect.c **** 
 4504              		.loc 1 247 63 is_stmt 1 discriminator 1 view .LVU1691
 247:lvgl/src/draw/sw/lv_draw_sw_rect.c **** 
 4505              		.loc 1 247 82 is_stmt 0 discriminator 1 view .LVU1692
 4506 0234 0223     		movs	r3, #2
 4507 0236 8DF84C30 		strb	r3, [sp, #76]
 4508 023a 30E0     		b	.L250
 4509              	.L278:
 256:lvgl/src/draw/sw/lv_draw_sw_rect.c ****             lv_draw_sw_blend(draw_ctx, &blend_dsc);
 4510              		.loc 1 256 45 is_stmt 1 discriminator 1 view .LVU1693
 256:lvgl/src/draw/sw/lv_draw_sw_rect.c ****             lv_draw_sw_blend(draw_ctx, &blend_dsc);
 4511              		.loc 1 256 67 is_stmt 0 discriminator 1 view .LVU1694
 4512 023c 019B     		ldr	r3, [sp, #4]
 4513 023e 9B68     		ldr	r3, [r3, #8]
 256:lvgl/src/draw/sw/lv_draw_sw_rect.c ****             lv_draw_sw_blend(draw_ctx, &blend_dsc);
 4514              		.loc 1 256 90 discriminator 1 view .LVU1695
 4515 0240 BDF96220 		ldrsh	r2, [sp, #98]
 256:lvgl/src/draw/sw/lv_draw_sw_rect.c ****             lv_draw_sw_blend(draw_ctx, &blend_dsc);
 4516              		.loc 1 256 79 discriminator 1 view .LVU1696
 4517 0244 A41A     		subs	r4, r4, r2
 4518              	.LVL428:
 256:lvgl/src/draw/sw/lv_draw_sw_rect.c ****             lv_draw_sw_blend(draw_ctx, &blend_dsc);
 4519              		.loc 1 256 61 discriminator 1 view .LVU1697
ARM GAS  C:\Users\OSD\AppData\Local\Temp\ccS6lZqb.s 			page 135


 4520 0246 53F82430 		ldr	r3, [r3, r4, lsl #2]
 4521 024a 1193     		str	r3, [sp, #68]
 4522 024c 32E0     		b	.L252
 4523              	.LVL429:
 4524              	.L253:
 268:lvgl/src/draw/sw/lv_draw_sw_rect.c ****         }
 4525              		.loc 1 268 13 is_stmt 1 view .LVU1698
 4526 024e 0FA9     		add	r1, sp, #60
 4527 0250 4846     		mov	r0, r9
 4528 0252 FFF7FEFF 		bl	lv_draw_sw_blend
 4529              	.LVL430:
 4530              	.L249:
 268:lvgl/src/draw/sw/lv_draw_sw_rect.c ****         }
 4531              		.loc 1 268 13 is_stmt 0 view .LVU1699
 4532              	.LBE187:
 238:lvgl/src/draw/sw/lv_draw_sw_rect.c ****         lv_coord_t top_y = bg_coords.y1 + h;
 4533              		.loc 1 238 26 is_stmt 1 discriminator 2 view .LVU1700
 238:lvgl/src/draw/sw/lv_draw_sw_rect.c ****         lv_coord_t top_y = bg_coords.y1 + h;
 4534              		.loc 1 238 27 is_stmt 0 discriminator 2 view .LVU1701
 4535 0256 0137     		adds	r7, r7, #1
 4536              	.LVL431:
 4537              	.L242:
 238:lvgl/src/draw/sw/lv_draw_sw_rect.c ****         lv_coord_t top_y = bg_coords.y1 + h;
 4538              		.loc 1 238 16 is_stmt 1 discriminator 1 view .LVU1702
 238:lvgl/src/draw/sw/lv_draw_sw_rect.c ****         lv_coord_t top_y = bg_coords.y1 + h;
 4539              		.loc 1 238 5 is_stmt 0 discriminator 1 view .LVU1703
 4540 0258 5F45     		cmp	r7, fp
 4541 025a 43DA     		bge	.L276
 4542              	.LBB188:
 239:lvgl/src/draw/sw/lv_draw_sw_rect.c ****         lv_coord_t bottom_y = bg_coords.y2 - h;
 4543              		.loc 1 239 9 is_stmt 1 view .LVU1704
 239:lvgl/src/draw/sw/lv_draw_sw_rect.c ****         lv_coord_t bottom_y = bg_coords.y2 - h;
 4544              		.loc 1 239 37 is_stmt 0 view .LVU1705
 4545 025c BDF86240 		ldrh	r4, [sp, #98]
 239:lvgl/src/draw/sw/lv_draw_sw_rect.c ****         lv_coord_t bottom_y = bg_coords.y2 - h;
 4546              		.loc 1 239 41 view .LVU1706
 4547 0260 BBB2     		uxth	r3, r7
 4548 0262 1C44     		add	r4, r4, r3
 239:lvgl/src/draw/sw/lv_draw_sw_rect.c ****         lv_coord_t bottom_y = bg_coords.y2 - h;
 4549              		.loc 1 239 20 view .LVU1707
 4550 0264 24B2     		sxth	r4, r4
 4551              	.LVL432:
 240:lvgl/src/draw/sw/lv_draw_sw_rect.c ****         if(top_y < clipped_coords.y1 && bottom_y > clipped_coords.y2) continue;   /*This line is cl
 4552              		.loc 1 240 9 is_stmt 1 view .LVU1708
 240:lvgl/src/draw/sw/lv_draw_sw_rect.c ****         if(top_y < clipped_coords.y1 && bottom_y > clipped_coords.y2) continue;   /*This line is cl
 4553              		.loc 1 240 40 is_stmt 0 view .LVU1709
 4554 0266 BDF86650 		ldrh	r5, [sp, #102]
 240:lvgl/src/draw/sw/lv_draw_sw_rect.c ****         if(top_y < clipped_coords.y1 && bottom_y > clipped_coords.y2) continue;   /*This line is cl
 4555              		.loc 1 240 44 view .LVU1710
 4556 026a ED1A     		subs	r5, r5, r3
 240:lvgl/src/draw/sw/lv_draw_sw_rect.c ****         if(top_y < clipped_coords.y1 && bottom_y > clipped_coords.y2) continue;   /*This line is cl
 4557              		.loc 1 240 20 view .LVU1711
 4558 026c 2DB2     		sxth	r5, r5
 4559              	.LVL433:
 241:lvgl/src/draw/sw/lv_draw_sw_rect.c **** 
 4560              		.loc 1 241 9 is_stmt 1 view .LVU1712
 241:lvgl/src/draw/sw/lv_draw_sw_rect.c **** 
ARM GAS  C:\Users\OSD\AppData\Local\Temp\ccS6lZqb.s 			page 136


 4561              		.loc 1 241 34 is_stmt 0 view .LVU1713
 4562 026e BDF95A30 		ldrsh	r3, [sp, #90]
 241:lvgl/src/draw/sw/lv_draw_sw_rect.c **** 
 4563              		.loc 1 241 11 view .LVU1714
 4564 0272 A342     		cmp	r3, r4
 4565 0274 03DD     		ble	.L248
 241:lvgl/src/draw/sw/lv_draw_sw_rect.c **** 
 4566              		.loc 1 241 66 discriminator 1 view .LVU1715
 4567 0276 BDF95E30 		ldrsh	r3, [sp, #94]
 241:lvgl/src/draw/sw/lv_draw_sw_rect.c **** 
 4568              		.loc 1 241 38 discriminator 1 view .LVU1716
 4569 027a AB42     		cmp	r3, r5
 4570 027c EBDB     		blt	.L249
 4571              	.L248:
 245:lvgl/src/draw/sw/lv_draw_sw_rect.c ****         blend_dsc.mask_res = lv_draw_mask_apply(mask_buf, blend_area.x1, top_y, clipped_w);
 4572              		.loc 1 245 9 is_stmt 1 view .LVU1717
 4573 027e 3246     		mov	r2, r6
 4574 0280 0099     		ldr	r1, [sp]
 4575 0282 4046     		mov	r0, r8
 4576 0284 FFF7FEFF 		bl	lv_memset
 4577              	.LVL434:
 246:lvgl/src/draw/sw/lv_draw_sw_rect.c ****         if(blend_dsc.mask_res == LV_DRAW_MASK_RES_FULL_COVER) blend_dsc.mask_res = LV_DRAW_MASK_RES
 4578              		.loc 1 246 9 view .LVU1718
 246:lvgl/src/draw/sw/lv_draw_sw_rect.c ****         if(blend_dsc.mask_res == LV_DRAW_MASK_RES_FULL_COVER) blend_dsc.mask_res = LV_DRAW_MASK_RES
 4579              		.loc 1 246 30 is_stmt 0 view .LVU1719
 4580 0288 3346     		mov	r3, r6
 4581 028a 2246     		mov	r2, r4
 4582 028c BDF91C10 		ldrsh	r1, [sp, #28]
 4583 0290 4046     		mov	r0, r8
 4584 0292 FFF7FEFF 		bl	lv_draw_mask_apply
 4585              	.LVL435:
 246:lvgl/src/draw/sw/lv_draw_sw_rect.c ****         if(blend_dsc.mask_res == LV_DRAW_MASK_RES_FULL_COVER) blend_dsc.mask_res = LV_DRAW_MASK_RES
 4586              		.loc 1 246 28 view .LVU1720
 4587 0296 8DF84C00 		strb	r0, [sp, #76]
 247:lvgl/src/draw/sw/lv_draw_sw_rect.c **** 
 4588              		.loc 1 247 9 is_stmt 1 view .LVU1721
 247:lvgl/src/draw/sw/lv_draw_sw_rect.c **** 
 4589              		.loc 1 247 11 is_stmt 0 view .LVU1722
 4590 029a 0128     		cmp	r0, #1
 4591 029c CAD0     		beq	.L277
 4592              	.L250:
 249:lvgl/src/draw/sw/lv_draw_sw_rect.c ****             blend_area.y1 = top_y;
 4593              		.loc 1 249 9 is_stmt 1 view .LVU1723
 249:lvgl/src/draw/sw/lv_draw_sw_rect.c ****             blend_area.y1 = top_y;
 4594              		.loc 1 249 35 is_stmt 0 view .LVU1724
 4595 029e BDF95A30 		ldrsh	r3, [sp, #90]
 249:lvgl/src/draw/sw/lv_draw_sw_rect.c ****             blend_area.y1 = top_y;
 4596              		.loc 1 249 11 view .LVU1725
 4597 02a2 A342     		cmp	r3, r4
 4598 02a4 0ADC     		bgt	.L251
 250:lvgl/src/draw/sw/lv_draw_sw_rect.c ****             blend_area.y2 = top_y;
 4599              		.loc 1 250 13 is_stmt 1 view .LVU1726
 250:lvgl/src/draw/sw/lv_draw_sw_rect.c ****             blend_area.y2 = top_y;
 4600              		.loc 1 250 27 is_stmt 0 view .LVU1727
 4601 02a6 ADF81E40 		strh	r4, [sp, #30]	@ movhi
 251:lvgl/src/draw/sw/lv_draw_sw_rect.c **** 
 4602              		.loc 1 251 13 is_stmt 1 view .LVU1728
ARM GAS  C:\Users\OSD\AppData\Local\Temp\ccS6lZqb.s 			page 137


 251:lvgl/src/draw/sw/lv_draw_sw_rect.c **** 
 4603              		.loc 1 251 27 is_stmt 0 view .LVU1729
 4604 02aa ADF82240 		strh	r4, [sp, #34]	@ movhi
 256:lvgl/src/draw/sw/lv_draw_sw_rect.c ****             lv_draw_sw_blend(draw_ctx, &blend_dsc);
 4605              		.loc 1 256 13 is_stmt 1 view .LVU1730
 256:lvgl/src/draw/sw/lv_draw_sw_rect.c ****             lv_draw_sw_blend(draw_ctx, &blend_dsc);
 4606              		.loc 1 256 15 is_stmt 0 view .LVU1731
 4607 02ae BAF1010F 		cmp	r10, #1
 4608 02b2 C3D0     		beq	.L278
 4609              	.LVL436:
 4610              	.L252:
 257:lvgl/src/draw/sw/lv_draw_sw_rect.c ****         }
 4611              		.loc 1 257 13 is_stmt 1 view .LVU1732
 4612 02b4 0FA9     		add	r1, sp, #60
 4613 02b6 4846     		mov	r0, r9
 4614 02b8 FFF7FEFF 		bl	lv_draw_sw_blend
 4615              	.LVL437:
 4616              	.L251:
 260:lvgl/src/draw/sw/lv_draw_sw_rect.c ****             blend_area.y1 = bottom_y;
 4617              		.loc 1 260 9 view .LVU1733
 260:lvgl/src/draw/sw/lv_draw_sw_rect.c ****             blend_area.y1 = bottom_y;
 4618              		.loc 1 260 38 is_stmt 0 view .LVU1734
 4619 02bc BDF95E30 		ldrsh	r3, [sp, #94]
 260:lvgl/src/draw/sw/lv_draw_sw_rect.c ****             blend_area.y1 = bottom_y;
 4620              		.loc 1 260 11 view .LVU1735
 4621 02c0 AB42     		cmp	r3, r5
 4622 02c2 C8DB     		blt	.L249
 261:lvgl/src/draw/sw/lv_draw_sw_rect.c ****             blend_area.y2 = bottom_y;
 4623              		.loc 1 261 13 is_stmt 1 view .LVU1736
 261:lvgl/src/draw/sw/lv_draw_sw_rect.c ****             blend_area.y2 = bottom_y;
 4624              		.loc 1 261 27 is_stmt 0 view .LVU1737
 4625 02c4 ADF81E50 		strh	r5, [sp, #30]	@ movhi
 262:lvgl/src/draw/sw/lv_draw_sw_rect.c **** 
 4626              		.loc 1 262 13 is_stmt 1 view .LVU1738
 262:lvgl/src/draw/sw/lv_draw_sw_rect.c **** 
 4627              		.loc 1 262 27 is_stmt 0 view .LVU1739
 4628 02c8 ADF82250 		strh	r5, [sp, #34]	@ movhi
 267:lvgl/src/draw/sw/lv_draw_sw_rect.c ****             lv_draw_sw_blend(draw_ctx, &blend_dsc);
 4629              		.loc 1 267 13 is_stmt 1 view .LVU1740
 267:lvgl/src/draw/sw/lv_draw_sw_rect.c ****             lv_draw_sw_blend(draw_ctx, &blend_dsc);
 4630              		.loc 1 267 15 is_stmt 0 view .LVU1741
 4631 02cc BAF1010F 		cmp	r10, #1
 4632 02d0 BDD1     		bne	.L253
 267:lvgl/src/draw/sw/lv_draw_sw_rect.c ****             lv_draw_sw_blend(draw_ctx, &blend_dsc);
 4633              		.loc 1 267 45 is_stmt 1 discriminator 1 view .LVU1742
 267:lvgl/src/draw/sw/lv_draw_sw_rect.c ****             lv_draw_sw_blend(draw_ctx, &blend_dsc);
 4634              		.loc 1 267 67 is_stmt 0 discriminator 1 view .LVU1743
 4635 02d2 019B     		ldr	r3, [sp, #4]
 4636 02d4 9B68     		ldr	r3, [r3, #8]
 267:lvgl/src/draw/sw/lv_draw_sw_rect.c ****             lv_draw_sw_blend(draw_ctx, &blend_dsc);
 4637              		.loc 1 267 93 discriminator 1 view .LVU1744
 4638 02d6 BDF96220 		ldrsh	r2, [sp, #98]
 267:lvgl/src/draw/sw/lv_draw_sw_rect.c ****             lv_draw_sw_blend(draw_ctx, &blend_dsc);
 4639              		.loc 1 267 82 discriminator 1 view .LVU1745
 4640 02da AD1A     		subs	r5, r5, r2
 4641              	.LVL438:
 267:lvgl/src/draw/sw/lv_draw_sw_rect.c ****             lv_draw_sw_blend(draw_ctx, &blend_dsc);
ARM GAS  C:\Users\OSD\AppData\Local\Temp\ccS6lZqb.s 			page 138


 4642              		.loc 1 267 61 discriminator 1 view .LVU1746
 4643 02dc 53F82530 		ldr	r3, [r3, r5, lsl #2]
 4644 02e0 1193     		str	r3, [sp, #68]
 4645 02e2 B4E7     		b	.L253
 4646              	.LVL439:
 4647              	.L276:
 267:lvgl/src/draw/sw/lv_draw_sw_rect.c ****             lv_draw_sw_blend(draw_ctx, &blend_dsc);
 4648              		.loc 1 267 61 discriminator 1 view .LVU1747
 4649              	.LBE188:
 275:lvgl/src/draw/sw/lv_draw_sw_rect.c ****     center_coords.x1 = bg_coords.x1;
 4650              		.loc 1 275 5 is_stmt 1 view .LVU1748
 276:lvgl/src/draw/sw/lv_draw_sw_rect.c ****     center_coords.x2 = bg_coords.x2;
 4651              		.loc 1 276 5 view .LVU1749
 276:lvgl/src/draw/sw/lv_draw_sw_rect.c ****     center_coords.x2 = bg_coords.x2;
 4652              		.loc 1 276 33 is_stmt 0 view .LVU1750
 4653 02e4 BDF96030 		ldrsh	r3, [sp, #96]
 276:lvgl/src/draw/sw/lv_draw_sw_rect.c ****     center_coords.x2 = bg_coords.x2;
 4654              		.loc 1 276 22 view .LVU1751
 4655 02e8 ADF81430 		strh	r3, [sp, #20]	@ movhi
 277:lvgl/src/draw/sw/lv_draw_sw_rect.c ****     center_coords.y1 = bg_coords.y1 + rout;
 4656              		.loc 1 277 5 is_stmt 1 view .LVU1752
 277:lvgl/src/draw/sw/lv_draw_sw_rect.c ****     center_coords.y1 = bg_coords.y1 + rout;
 4657              		.loc 1 277 33 is_stmt 0 view .LVU1753
 4658 02ec BDF96430 		ldrsh	r3, [sp, #100]
 277:lvgl/src/draw/sw/lv_draw_sw_rect.c ****     center_coords.y1 = bg_coords.y1 + rout;
 4659              		.loc 1 277 22 view .LVU1754
 4660 02f0 ADF81830 		strh	r3, [sp, #24]	@ movhi
 278:lvgl/src/draw/sw/lv_draw_sw_rect.c ****     center_coords.y2 = bg_coords.y2 - rout;
 4661              		.loc 1 278 5 is_stmt 1 view .LVU1755
 278:lvgl/src/draw/sw/lv_draw_sw_rect.c ****     center_coords.y2 = bg_coords.y2 - rout;
 4662              		.loc 1 278 33 is_stmt 0 view .LVU1756
 4663 02f4 BDF86230 		ldrh	r3, [sp, #98]
 278:lvgl/src/draw/sw/lv_draw_sw_rect.c ****     center_coords.y2 = bg_coords.y2 - rout;
 4664              		.loc 1 278 37 view .LVU1757
 4665 02f8 1FFA8BF5 		uxth	r5, fp
 4666 02fc 2B44     		add	r3, r3, r5
 278:lvgl/src/draw/sw/lv_draw_sw_rect.c ****     center_coords.y2 = bg_coords.y2 - rout;
 4667              		.loc 1 278 22 view .LVU1758
 4668 02fe ADF81630 		strh	r3, [sp, #22]	@ movhi
 279:lvgl/src/draw/sw/lv_draw_sw_rect.c ****     bool mask_any_center = lv_draw_mask_is_any(&center_coords);
 4669              		.loc 1 279 5 is_stmt 1 view .LVU1759
 279:lvgl/src/draw/sw/lv_draw_sw_rect.c ****     bool mask_any_center = lv_draw_mask_is_any(&center_coords);
 4670              		.loc 1 279 33 is_stmt 0 view .LVU1760
 4671 0302 BDF86630 		ldrh	r3, [sp, #102]
 279:lvgl/src/draw/sw/lv_draw_sw_rect.c ****     bool mask_any_center = lv_draw_mask_is_any(&center_coords);
 4672              		.loc 1 279 37 view .LVU1761
 4673 0306 5B1B     		subs	r3, r3, r5
 279:lvgl/src/draw/sw/lv_draw_sw_rect.c ****     bool mask_any_center = lv_draw_mask_is_any(&center_coords);
 4674              		.loc 1 279 22 view .LVU1762
 4675 0308 ADF81A30 		strh	r3, [sp, #26]	@ movhi
 280:lvgl/src/draw/sw/lv_draw_sw_rect.c ****     if(!mask_any_center && grad_dir == LV_GRAD_DIR_NONE) {
 4676              		.loc 1 280 5 is_stmt 1 view .LVU1763
 280:lvgl/src/draw/sw/lv_draw_sw_rect.c ****     if(!mask_any_center && grad_dir == LV_GRAD_DIR_NONE) {
 4677              		.loc 1 280 28 is_stmt 0 view .LVU1764
 4678 030c 05A8     		add	r0, sp, #20
 4679 030e FFF7FEFF 		bl	lv_draw_mask_is_any
 4680              	.LVL440:
ARM GAS  C:\Users\OSD\AppData\Local\Temp\ccS6lZqb.s 			page 139


 4681 0312 0446     		mov	r4, r0
 4682              	.LVL441:
 281:lvgl/src/draw/sw/lv_draw_sw_rect.c ****         blend_area.y1 = bg_coords.y1 + rout;
 4683              		.loc 1 281 5 is_stmt 1 view .LVU1765
 281:lvgl/src/draw/sw/lv_draw_sw_rect.c ****         blend_area.y1 = bg_coords.y1 + rout;
 4684              		.loc 1 281 8 is_stmt 0 view .LVU1766
 4685 0314 80F00103 		eor	r3, r0, #1
 281:lvgl/src/draw/sw/lv_draw_sw_rect.c ****         blend_area.y1 = bg_coords.y1 + rout;
 4686              		.loc 1 281 25 view .LVU1767
 4687 0318 BAF1000F 		cmp	r10, #0
 4688 031c 14BF     		ite	ne
 4689 031e 0023     		movne	r3, #0
 4690 0320 03F00103 		andeq	r3, r3, #1
 281:lvgl/src/draw/sw/lv_draw_sw_rect.c ****         blend_area.y1 = bg_coords.y1 + rout;
 4691              		.loc 1 281 7 view .LVU1768
 4692 0324 73B9     		cbnz	r3, .L279
 4693              	.LBB189:
 290:lvgl/src/draw/sw/lv_draw_sw_rect.c ****         blend_dsc.mask_res = LV_DRAW_MASK_RES_FULL_COVER;
 4694              		.loc 1 290 9 is_stmt 1 view .LVU1769
 290:lvgl/src/draw/sw/lv_draw_sw_rect.c ****         blend_dsc.mask_res = LV_DRAW_MASK_RES_FULL_COVER;
 4695              		.loc 1 290 23 is_stmt 0 view .LVU1770
 4696 0326 009B     		ldr	r3, [sp]
 4697 0328 8DF85430 		strb	r3, [sp, #84]
 291:lvgl/src/draw/sw/lv_draw_sw_rect.c ****         int32_t h_end = bg_coords.y2 - rout;
 4698              		.loc 1 291 9 is_stmt 1 view .LVU1771
 291:lvgl/src/draw/sw/lv_draw_sw_rect.c ****         int32_t h_end = bg_coords.y2 - rout;
 4699              		.loc 1 291 28 is_stmt 0 view .LVU1772
 4700 032c 0123     		movs	r3, #1
 4701 032e 8DF84C30 		strb	r3, [sp, #76]
 292:lvgl/src/draw/sw/lv_draw_sw_rect.c ****         for(h = bg_coords.y1 + rout; h <= h_end; h++) {
 4702              		.loc 1 292 9 is_stmt 1 view .LVU1773
 292:lvgl/src/draw/sw/lv_draw_sw_rect.c ****         for(h = bg_coords.y1 + rout; h <= h_end; h++) {
 4703              		.loc 1 292 34 is_stmt 0 view .LVU1774
 4704 0332 BDF96650 		ldrsh	r5, [sp, #102]
 292:lvgl/src/draw/sw/lv_draw_sw_rect.c ****         for(h = bg_coords.y1 + rout; h <= h_end; h++) {
 4705              		.loc 1 292 17 view .LVU1775
 4706 0336 A5EB0B05 		sub	r5, r5, fp
 4707              	.LVL442:
 293:lvgl/src/draw/sw/lv_draw_sw_rect.c ****             /*If there is no other mask do not apply mask as in the center there is no radius to ma
 4708              		.loc 1 293 9 is_stmt 1 view .LVU1776
 293:lvgl/src/draw/sw/lv_draw_sw_rect.c ****             /*If there is no other mask do not apply mask as in the center there is no radius to ma
 4709              		.loc 1 293 26 is_stmt 0 view .LVU1777
 4710 033a BDF96230 		ldrsh	r3, [sp, #98]
 293:lvgl/src/draw/sw/lv_draw_sw_rect.c ****             /*If there is no other mask do not apply mask as in the center there is no radius to ma
 4711              		.loc 1 293 15 view .LVU1778
 4712 033e 9B44     		add	fp, fp, r3
 4713              	.LVL443:
 293:lvgl/src/draw/sw/lv_draw_sw_rect.c ****             /*If there is no other mask do not apply mask as in the center there is no radius to ma
 4714              		.loc 1 293 15 view .LVU1779
 4715 0340 019F     		ldr	r7, [sp, #4]
 293:lvgl/src/draw/sw/lv_draw_sw_rect.c ****             /*If there is no other mask do not apply mask as in the center there is no radius to ma
 4716              		.loc 1 293 9 view .LVU1780
 4717 0342 3AE0     		b	.L256
 4718              	.LVL444:
 4719              	.L279:
 293:lvgl/src/draw/sw/lv_draw_sw_rect.c ****             /*If there is no other mask do not apply mask as in the center there is no radius to ma
 4720              		.loc 1 293 9 view .LVU1781
ARM GAS  C:\Users\OSD\AppData\Local\Temp\ccS6lZqb.s 			page 140


 4721              	.LBE189:
 282:lvgl/src/draw/sw/lv_draw_sw_rect.c ****         blend_area.y2 = bg_coords.y2 - rout;
 4722              		.loc 1 282 9 is_stmt 1 view .LVU1782
 282:lvgl/src/draw/sw/lv_draw_sw_rect.c ****         blend_area.y2 = bg_coords.y2 - rout;
 4723              		.loc 1 282 34 is_stmt 0 view .LVU1783
 4724 0344 BDF86230 		ldrh	r3, [sp, #98]
 282:lvgl/src/draw/sw/lv_draw_sw_rect.c ****         blend_area.y2 = bg_coords.y2 - rout;
 4725              		.loc 1 282 38 view .LVU1784
 4726 0348 2B44     		add	r3, r3, r5
 282:lvgl/src/draw/sw/lv_draw_sw_rect.c ****         blend_area.y2 = bg_coords.y2 - rout;
 4727              		.loc 1 282 23 view .LVU1785
 4728 034a ADF81E30 		strh	r3, [sp, #30]	@ movhi
 283:lvgl/src/draw/sw/lv_draw_sw_rect.c ****         blend_dsc.opa = opa;
 4729              		.loc 1 283 9 is_stmt 1 view .LVU1786
 283:lvgl/src/draw/sw/lv_draw_sw_rect.c ****         blend_dsc.opa = opa;
 4730              		.loc 1 283 34 is_stmt 0 view .LVU1787
 4731 034e BDF86630 		ldrh	r3, [sp, #102]
 283:lvgl/src/draw/sw/lv_draw_sw_rect.c ****         blend_dsc.opa = opa;
 4732              		.loc 1 283 38 view .LVU1788
 4733 0352 5D1B     		subs	r5, r3, r5
 283:lvgl/src/draw/sw/lv_draw_sw_rect.c ****         blend_dsc.opa = opa;
 4734              		.loc 1 283 23 view .LVU1789
 4735 0354 ADF82250 		strh	r5, [sp, #34]	@ movhi
 284:lvgl/src/draw/sw/lv_draw_sw_rect.c ****         blend_dsc.mask_buf = NULL;
 4736              		.loc 1 284 9 is_stmt 1 view .LVU1790
 284:lvgl/src/draw/sw/lv_draw_sw_rect.c ****         blend_dsc.mask_buf = NULL;
 4737              		.loc 1 284 23 is_stmt 0 view .LVU1791
 4738 0358 009B     		ldr	r3, [sp]
 4739 035a 8DF85430 		strb	r3, [sp, #84]
 285:lvgl/src/draw/sw/lv_draw_sw_rect.c ****         lv_draw_sw_blend(draw_ctx, &blend_dsc);
 4740              		.loc 1 285 9 is_stmt 1 view .LVU1792
 285:lvgl/src/draw/sw/lv_draw_sw_rect.c ****         lv_draw_sw_blend(draw_ctx, &blend_dsc);
 4741              		.loc 1 285 28 is_stmt 0 view .LVU1793
 4742 035e 0023     		movs	r3, #0
 4743 0360 1293     		str	r3, [sp, #72]
 286:lvgl/src/draw/sw/lv_draw_sw_rect.c ****     }
 4744              		.loc 1 286 9 is_stmt 1 view .LVU1794
 4745 0362 0FA9     		add	r1, sp, #60
 4746 0364 4846     		mov	r0, r9
 4747              	.LVL445:
 286:lvgl/src/draw/sw/lv_draw_sw_rect.c ****     }
 4748              		.loc 1 286 9 is_stmt 0 view .LVU1795
 4749 0366 FFF7FEFF 		bl	lv_draw_sw_blend
 4750              	.LVL446:
 4751              	.L247:
 312:lvgl/src/draw/sw/lv_draw_sw_rect.c ****     if(mask_rout_id != LV_MASK_ID_INV) {
 4752              		.loc 1 312 5 is_stmt 1 view .LVU1796
 312:lvgl/src/draw/sw/lv_draw_sw_rect.c ****     if(mask_rout_id != LV_MASK_ID_INV) {
 4753              		.loc 1 312 7 is_stmt 0 view .LVU1797
 4754 036a B8F1000F 		cmp	r8, #0
 4755 036e 02D0     		beq	.L260
 312:lvgl/src/draw/sw/lv_draw_sw_rect.c ****     if(mask_rout_id != LV_MASK_ID_INV) {
 4756              		.loc 1 312 18 is_stmt 1 discriminator 1 view .LVU1798
 4757 0370 4046     		mov	r0, r8
 4758 0372 FFF7FEFF 		bl	lv_mem_buf_release
 4759              	.LVL447:
 4760              	.L260:
ARM GAS  C:\Users\OSD\AppData\Local\Temp\ccS6lZqb.s 			page 141


 313:lvgl/src/draw/sw/lv_draw_sw_rect.c ****         lv_draw_mask_remove_id(mask_rout_id);
 4761              		.loc 1 313 5 view .LVU1799
 313:lvgl/src/draw/sw/lv_draw_sw_rect.c ****         lv_draw_mask_remove_id(mask_rout_id);
 4762              		.loc 1 313 7 is_stmt 0 view .LVU1800
 4763 0376 039B     		ldr	r3, [sp, #12]
 4764 0378 B3F1FF3F 		cmp	r3, #-1
 4765 037c 33D1     		bne	.L280
 4766              	.L261:
 317:lvgl/src/draw/sw/lv_draw_sw_rect.c ****         lv_gradient_cleanup(grad);
 4767              		.loc 1 317 5 is_stmt 1 view .LVU1801
 317:lvgl/src/draw/sw/lv_draw_sw_rect.c ****         lv_gradient_cleanup(grad);
 4768              		.loc 1 317 7 is_stmt 0 view .LVU1802
 4769 037e 019B     		ldr	r3, [sp, #4]
 4770 0380 13B1     		cbz	r3, .L232
 318:lvgl/src/draw/sw/lv_draw_sw_rect.c ****     }
 4771              		.loc 1 318 9 is_stmt 1 view .LVU1803
 4772 0382 1846     		mov	r0, r3
 4773 0384 FFF7FEFF 		bl	lv_gradient_cleanup
 4774              	.LVL448:
 4775              	.L232:
 322:lvgl/src/draw/sw/lv_draw_sw_rect.c **** 
 4776              		.loc 1 322 1 is_stmt 0 view .LVU1804
 4777 0388 1BB0     		add	sp, sp, #108
 4778              		.cfi_remember_state
 4779              		.cfi_def_cfa_offset 36
 4780              		@ sp needed
 4781 038a BDE8F08F 		pop	{r4, r5, r6, r7, r8, r9, r10, fp, pc}
 4782              	.LVL449:
 4783              	.L281:
 4784              		.cfi_restore_state
 4785              	.LBB190:
 296:lvgl/src/draw/sw/lv_draw_sw_rect.c ****                 blend_dsc.mask_res = lv_draw_mask_apply(mask_buf, clipped_coords.x1, h, clipped_w);
 4786              		.loc 1 296 17 is_stmt 1 view .LVU1805
 4787 038e 3246     		mov	r2, r6
 4788 0390 0099     		ldr	r1, [sp]
 4789 0392 4046     		mov	r0, r8
 4790 0394 FFF7FEFF 		bl	lv_memset
 4791              	.LVL450:
 297:lvgl/src/draw/sw/lv_draw_sw_rect.c ****             }
 4792              		.loc 1 297 17 view .LVU1806
 297:lvgl/src/draw/sw/lv_draw_sw_rect.c ****             }
 4793              		.loc 1 297 38 is_stmt 0 view .LVU1807
 4794 0398 3346     		mov	r3, r6
 4795 039a 0FFA8BF2 		sxth	r2, fp
 4796 039e BDF95810 		ldrsh	r1, [sp, #88]
 4797 03a2 4046     		mov	r0, r8
 4798 03a4 FFF7FEFF 		bl	lv_draw_mask_apply
 4799              	.LVL451:
 297:lvgl/src/draw/sw/lv_draw_sw_rect.c ****             }
 4800              		.loc 1 297 36 view .LVU1808
 4801 03a8 8DF84C00 		strb	r0, [sp, #76]
 4802 03ac 09E0     		b	.L257
 4803              	.L258:
 307:lvgl/src/draw/sw/lv_draw_sw_rect.c ****         }
 4804              		.loc 1 307 13 is_stmt 1 discriminator 2 view .LVU1809
 4805 03ae 0FA9     		add	r1, sp, #60
 4806 03b0 4846     		mov	r0, r9
ARM GAS  C:\Users\OSD\AppData\Local\Temp\ccS6lZqb.s 			page 142


 4807 03b2 FFF7FEFF 		bl	lv_draw_sw_blend
 4808              	.LVL452:
 293:lvgl/src/draw/sw/lv_draw_sw_rect.c ****             /*If there is no other mask do not apply mask as in the center there is no radius to ma
 4809              		.loc 1 293 50 discriminator 2 view .LVU1810
 293:lvgl/src/draw/sw/lv_draw_sw_rect.c ****             /*If there is no other mask do not apply mask as in the center there is no radius to ma
 4810              		.loc 1 293 51 is_stmt 0 discriminator 2 view .LVU1811
 4811 03b6 0BF1010B 		add	fp, fp, #1
 4812              	.LVL453:
 4813              	.L256:
 293:lvgl/src/draw/sw/lv_draw_sw_rect.c ****             /*If there is no other mask do not apply mask as in the center there is no radius to ma
 4814              		.loc 1 293 38 is_stmt 1 discriminator 1 view .LVU1812
 293:lvgl/src/draw/sw/lv_draw_sw_rect.c ****             /*If there is no other mask do not apply mask as in the center there is no radius to ma
 4815              		.loc 1 293 9 is_stmt 0 discriminator 1 view .LVU1813
 4816 03ba AB45     		cmp	fp, r5
 4817 03bc D5DC     		bgt	.L247
 295:lvgl/src/draw/sw/lv_draw_sw_rect.c ****                 lv_memset(mask_buf, opa, clipped_w);
 4818              		.loc 1 295 13 is_stmt 1 view .LVU1814
 295:lvgl/src/draw/sw/lv_draw_sw_rect.c ****                 lv_memset(mask_buf, opa, clipped_w);
 4819              		.loc 1 295 15 is_stmt 0 view .LVU1815
 4820 03be 002C     		cmp	r4, #0
 4821 03c0 E5D1     		bne	.L281
 4822              	.L257:
 300:lvgl/src/draw/sw/lv_draw_sw_rect.c ****             blend_area.y2 = h;
 4823              		.loc 1 300 13 is_stmt 1 view .LVU1816
 300:lvgl/src/draw/sw/lv_draw_sw_rect.c ****             blend_area.y2 = h;
 4824              		.loc 1 300 27 is_stmt 0 view .LVU1817
 4825 03c2 0FFA8BF3 		sxth	r3, fp
 4826 03c6 ADF81E30 		strh	r3, [sp, #30]	@ movhi
 301:lvgl/src/draw/sw/lv_draw_sw_rect.c **** 
 4827              		.loc 1 301 13 is_stmt 1 view .LVU1818
 301:lvgl/src/draw/sw/lv_draw_sw_rect.c **** 
 4828              		.loc 1 301 27 is_stmt 0 view .LVU1819
 4829 03ca ADF82230 		strh	r3, [sp, #34]	@ movhi
 306:lvgl/src/draw/sw/lv_draw_sw_rect.c ****             lv_draw_sw_blend(draw_ctx, &blend_dsc);
 4830              		.loc 1 306 13 is_stmt 1 view .LVU1820
 306:lvgl/src/draw/sw/lv_draw_sw_rect.c ****             lv_draw_sw_blend(draw_ctx, &blend_dsc);
 4831              		.loc 1 306 15 is_stmt 0 view .LVU1821
 4832 03ce BAF1010F 		cmp	r10, #1
 4833 03d2 ECD1     		bne	.L258
 306:lvgl/src/draw/sw/lv_draw_sw_rect.c ****             lv_draw_sw_blend(draw_ctx, &blend_dsc);
 4834              		.loc 1 306 45 is_stmt 1 discriminator 1 view .LVU1822
 306:lvgl/src/draw/sw/lv_draw_sw_rect.c ****             lv_draw_sw_blend(draw_ctx, &blend_dsc);
 4835              		.loc 1 306 67 is_stmt 0 discriminator 1 view .LVU1823
 4836 03d4 BA68     		ldr	r2, [r7, #8]
 306:lvgl/src/draw/sw/lv_draw_sw_rect.c ****             lv_draw_sw_blend(draw_ctx, &blend_dsc);
 4837              		.loc 1 306 86 discriminator 1 view .LVU1824
 4838 03d6 BDF96230 		ldrsh	r3, [sp, #98]
 306:lvgl/src/draw/sw/lv_draw_sw_rect.c ****             lv_draw_sw_blend(draw_ctx, &blend_dsc);
 4839              		.loc 1 306 75 discriminator 1 view .LVU1825
 4840 03da ABEB0303 		sub	r3, fp, r3
 306:lvgl/src/draw/sw/lv_draw_sw_rect.c ****             lv_draw_sw_blend(draw_ctx, &blend_dsc);
 4841              		.loc 1 306 61 discriminator 1 view .LVU1826
 4842 03de 52F82330 		ldr	r3, [r2, r3, lsl #2]
 4843 03e2 1193     		str	r3, [sp, #68]
 4844 03e4 E3E7     		b	.L258
 4845              	.LVL454:
 4846              	.L280:
ARM GAS  C:\Users\OSD\AppData\Local\Temp\ccS6lZqb.s 			page 143


 306:lvgl/src/draw/sw/lv_draw_sw_rect.c ****             lv_draw_sw_blend(draw_ctx, &blend_dsc);
 4847              		.loc 1 306 61 discriminator 1 view .LVU1827
 4848              	.LBE190:
 314:lvgl/src/draw/sw/lv_draw_sw_rect.c ****         lv_draw_mask_free_param(&mask_rout_param);
 4849              		.loc 1 314 9 is_stmt 1 view .LVU1828
 4850 03e6 1846     		mov	r0, r3
 4851 03e8 FFF7FEFF 		bl	lv_draw_mask_remove_id
 4852              	.LVL455:
 315:lvgl/src/draw/sw/lv_draw_sw_rect.c ****     }
 4853              		.loc 1 315 9 view .LVU1829
 4854 03ec 09A8     		add	r0, sp, #36
 4855 03ee FFF7FEFF 		bl	lv_draw_mask_free_param
 4856              	.LVL456:
 4857 03f2 C4E7     		b	.L261
 4858              	.LVL457:
 4859              	.L268:
 4860              		.cfi_def_cfa_offset 0
 4861              		.cfi_restore 4
 4862              		.cfi_restore 5
 4863              		.cfi_restore 6
 4864              		.cfi_restore 7
 4865              		.cfi_restore 8
 4866              		.cfi_restore 9
 4867              		.cfi_restore 10
 4868              		.cfi_restore 11
 4869              		.cfi_restore 14
 315:lvgl/src/draw/sw/lv_draw_sw_rect.c ****     }
 4870              		.loc 1 315 9 is_stmt 0 view .LVU1830
 4871 03f4 7047     		bx	lr
 4872              		.cfi_endproc
 4873              	.LFE163:
 4875              		.section	.text.draw_bg_img,"ax",%progbits
 4876              		.align	1
 4877              		.syntax unified
 4878              		.thumb
 4879              		.thumb_func
 4881              	draw_bg_img:
 4882              	.LVL458:
 4883              	.LFB164:
 325:lvgl/src/draw/sw/lv_draw_sw_rect.c ****     if(dsc->bg_img_src == NULL) return;
 4884              		.loc 1 325 1 is_stmt 1 view -0
 4885              		.cfi_startproc
 4886              		@ args = 0, pretend = 0, frame = 64
 4887              		@ frame_needed = 0, uses_anonymous_args = 0
 326:lvgl/src/draw/sw/lv_draw_sw_rect.c ****     if(dsc->bg_img_opa <= LV_OPA_MIN) return;
 4888              		.loc 1 326 5 view .LVU1832
 326:lvgl/src/draw/sw/lv_draw_sw_rect.c ****     if(dsc->bg_img_opa <= LV_OPA_MIN) return;
 4889              		.loc 1 326 11 is_stmt 0 view .LVU1833
 4890 0000 CB69     		ldr	r3, [r1, #28]
 326:lvgl/src/draw/sw/lv_draw_sw_rect.c ****     if(dsc->bg_img_opa <= LV_OPA_MIN) return;
 4891              		.loc 1 326 7 view .LVU1834
 4892 0002 002B     		cmp	r3, #0
 4893 0004 00F02181 		beq	.L303
 325:lvgl/src/draw/sw/lv_draw_sw_rect.c ****     if(dsc->bg_img_src == NULL) return;
 4894              		.loc 1 325 1 view .LVU1835
 4895 0008 F0B5     		push	{r4, r5, r6, r7, lr}
 4896              		.cfi_def_cfa_offset 20
ARM GAS  C:\Users\OSD\AppData\Local\Temp\ccS6lZqb.s 			page 144


 4897              		.cfi_offset 4, -20
 4898              		.cfi_offset 5, -16
 4899              		.cfi_offset 6, -12
 4900              		.cfi_offset 7, -8
 4901              		.cfi_offset 14, -4
 4902 000a 95B0     		sub	sp, sp, #84
 4903              		.cfi_def_cfa_offset 104
 4904 000c 0646     		mov	r6, r0
 4905 000e 0C46     		mov	r4, r1
 4906 0010 1546     		mov	r5, r2
 327:lvgl/src/draw/sw/lv_draw_sw_rect.c **** 
 4907              		.loc 1 327 5 is_stmt 1 view .LVU1836
 327:lvgl/src/draw/sw/lv_draw_sw_rect.c **** 
 4908              		.loc 1 327 11 is_stmt 0 view .LVU1837
 4909 0012 91F82830 		ldrb	r3, [r1, #40]	@ zero_extendqisi2
 327:lvgl/src/draw/sw/lv_draw_sw_rect.c **** 
 4910              		.loc 1 327 7 view .LVU1838
 4911 0016 022B     		cmp	r3, #2
 4912 0018 01D8     		bhi	.L306
 4913              	.LVL459:
 4914              	.L282:
 396:lvgl/src/draw/sw/lv_draw_sw_rect.c **** 
 4915              		.loc 1 396 1 view .LVU1839
 4916 001a 15B0     		add	sp, sp, #84
 4917              		.cfi_remember_state
 4918              		.cfi_def_cfa_offset 20
 4919              		@ sp needed
 4920 001c F0BD     		pop	{r4, r5, r6, r7, pc}
 4921              	.LVL460:
 4922              	.L306:
 4923              		.cfi_restore_state
 329:lvgl/src/draw/sw/lv_draw_sw_rect.c ****     if(!_lv_area_intersect(&clip_area, coords, draw_ctx->clip_area)) {
 4924              		.loc 1 329 5 is_stmt 1 view .LVU1840
 330:lvgl/src/draw/sw/lv_draw_sw_rect.c ****         return;
 4925              		.loc 1 330 5 view .LVU1841
 330:lvgl/src/draw/sw/lv_draw_sw_rect.c ****         return;
 4926              		.loc 1 330 9 is_stmt 0 view .LVU1842
 4927 001e 8268     		ldr	r2, [r0, #8]
 4928              	.LVL461:
 330:lvgl/src/draw/sw/lv_draw_sw_rect.c ****         return;
 4929              		.loc 1 330 9 view .LVU1843
 4930 0020 2946     		mov	r1, r5
 4931              	.LVL462:
 330:lvgl/src/draw/sw/lv_draw_sw_rect.c ****         return;
 4932              		.loc 1 330 9 view .LVU1844
 4933 0022 12A8     		add	r0, sp, #72
 4934              	.LVL463:
 330:lvgl/src/draw/sw/lv_draw_sw_rect.c ****         return;
 4935              		.loc 1 330 9 view .LVU1845
 4936 0024 FFF7FEFF 		bl	_lv_area_intersect
 4937              	.LVL464:
 330:lvgl/src/draw/sw/lv_draw_sw_rect.c ****         return;
 4938              		.loc 1 330 7 view .LVU1846
 4939 0028 0028     		cmp	r0, #0
 4940 002a F6D0     		beq	.L282
 334:lvgl/src/draw/sw/lv_draw_sw_rect.c ****     draw_ctx->clip_area = &clip_area;
 4941              		.loc 1 334 5 is_stmt 1 view .LVU1847
ARM GAS  C:\Users\OSD\AppData\Local\Temp\ccS6lZqb.s 			page 145


 334:lvgl/src/draw/sw/lv_draw_sw_rect.c ****     draw_ctx->clip_area = &clip_area;
 4942              		.loc 1 334 23 is_stmt 0 view .LVU1848
 4943 002c B768     		ldr	r7, [r6, #8]
 4944              	.LVL465:
 335:lvgl/src/draw/sw/lv_draw_sw_rect.c **** 
 4945              		.loc 1 335 5 is_stmt 1 view .LVU1849
 335:lvgl/src/draw/sw/lv_draw_sw_rect.c **** 
 4946              		.loc 1 335 25 is_stmt 0 view .LVU1850
 4947 002e 12AB     		add	r3, sp, #72
 4948 0030 B360     		str	r3, [r6, #8]
 337:lvgl/src/draw/sw/lv_draw_sw_rect.c ****     if(src_type == LV_IMG_SRC_SYMBOL) {
 4949              		.loc 1 337 5 is_stmt 1 view .LVU1851
 337:lvgl/src/draw/sw/lv_draw_sw_rect.c ****     if(src_type == LV_IMG_SRC_SYMBOL) {
 4950              		.loc 1 337 29 is_stmt 0 view .LVU1852
 4951 0032 E069     		ldr	r0, [r4, #28]
 4952 0034 FFF7FEFF 		bl	lv_img_src_get_type
 4953              	.LVL466:
 338:lvgl/src/draw/sw/lv_draw_sw_rect.c ****         lv_point_t size;
 4954              		.loc 1 338 5 is_stmt 1 view .LVU1853
 338:lvgl/src/draw/sw/lv_draw_sw_rect.c ****         lv_point_t size;
 4955              		.loc 1 338 7 is_stmt 0 view .LVU1854
 4956 0038 0228     		cmp	r0, #2
 4957 003a 07D0     		beq	.L307
 4958              	.LBB191:
 355:lvgl/src/draw/sw/lv_draw_sw_rect.c ****         lv_res_t res = lv_img_decoder_get_info(dsc->bg_img_src, &header);
 4959              		.loc 1 355 9 is_stmt 1 view .LVU1855
 356:lvgl/src/draw/sw/lv_draw_sw_rect.c ****         if(res == LV_RES_OK) {
 4960              		.loc 1 356 9 view .LVU1856
 356:lvgl/src/draw/sw/lv_draw_sw_rect.c ****         if(res == LV_RES_OK) {
 4961              		.loc 1 356 24 is_stmt 0 view .LVU1857
 4962 003c 05A9     		add	r1, sp, #20
 4963 003e E069     		ldr	r0, [r4, #28]
 4964              	.LVL467:
 356:lvgl/src/draw/sw/lv_draw_sw_rect.c ****         if(res == LV_RES_OK) {
 4965              		.loc 1 356 24 view .LVU1858
 4966 0040 FFF7FEFF 		bl	lv_img_decoder_get_info
 4967              	.LVL468:
 357:lvgl/src/draw/sw/lv_draw_sw_rect.c ****             lv_draw_img_dsc_t img_dsc;
 4968              		.loc 1 357 9 is_stmt 1 view .LVU1859
 357:lvgl/src/draw/sw/lv_draw_sw_rect.c ****             lv_draw_img_dsc_t img_dsc;
 4969              		.loc 1 357 11 is_stmt 0 view .LVU1860
 4970 0044 0128     		cmp	r0, #1
 4971 0046 5ED0     		beq	.L308
 4972              	.LVL469:
 4973              	.L289:
 357:lvgl/src/draw/sw/lv_draw_sw_rect.c ****             lv_draw_img_dsc_t img_dsc;
 4974              		.loc 1 357 11 view .LVU1861
 4975              	.LBE191:
 395:lvgl/src/draw/sw/lv_draw_sw_rect.c **** }
 4976              		.loc 1 395 5 is_stmt 1 discriminator 5 view .LVU1862
 395:lvgl/src/draw/sw/lv_draw_sw_rect.c **** }
 4977              		.loc 1 395 25 is_stmt 0 discriminator 5 view .LVU1863
 4978 0048 B760     		str	r7, [r6, #8]
 4979 004a E6E7     		b	.L282
 4980              	.LVL470:
 4981              	.L307:
 4982              	.LBB201:
ARM GAS  C:\Users\OSD\AppData\Local\Temp\ccS6lZqb.s 			page 146


 339:lvgl/src/draw/sw/lv_draw_sw_rect.c ****         lv_txt_get_size(&size, dsc->bg_img_src, dsc->bg_img_symbol_font, 0, 0, LV_COORD_MAX, LV_TEX
 4983              		.loc 1 339 9 is_stmt 1 view .LVU1864
 340:lvgl/src/draw/sw/lv_draw_sw_rect.c ****         lv_area_t a;
 4984              		.loc 1 340 9 view .LVU1865
 4985 004c 0023     		movs	r3, #0
 4986 004e 0293     		str	r3, [sp, #8]
 4987 0050 41F6FF72 		movw	r2, #8191
 4988 0054 0192     		str	r2, [sp, #4]
 4989 0056 0093     		str	r3, [sp]
 4990 0058 226A     		ldr	r2, [r4, #32]
 4991 005a E169     		ldr	r1, [r4, #28]
 4992 005c 05A8     		add	r0, sp, #20
 4993              	.LVL471:
 340:lvgl/src/draw/sw/lv_draw_sw_rect.c ****         lv_area_t a;
 4994              		.loc 1 340 9 is_stmt 0 view .LVU1866
 4995 005e FFF7FEFF 		bl	lv_txt_get_size
 4996              	.LVL472:
 341:lvgl/src/draw/sw/lv_draw_sw_rect.c ****         a.x1 = coords->x1 + lv_area_get_width(coords) / 2 - size.x / 2;
 4997              		.loc 1 341 9 is_stmt 1 view .LVU1867
 342:lvgl/src/draw/sw/lv_draw_sw_rect.c ****         a.x2 = a.x1 + size.x - 1;
 4998              		.loc 1 342 9 view .LVU1868
 342:lvgl/src/draw/sw/lv_draw_sw_rect.c ****         a.x2 = a.x1 + size.x - 1;
 4999              		.loc 1 342 22 is_stmt 0 view .LVU1869
 5000 0062 2B88     		ldrh	r3, [r5]
 5001              	.LVL473:
 5002              	.LBB202:
 5003              	.LBI202:
 123:lvgl/src/draw/sw/../../misc/lv_area.h **** {
 5004              		.loc 2 123 26 is_stmt 1 view .LVU1870
 5005              	.LBB203:
 125:lvgl/src/draw/sw/../../misc/lv_area.h **** }
 5006              		.loc 2 125 5 view .LVU1871
 125:lvgl/src/draw/sw/../../misc/lv_area.h **** }
 5007              		.loc 2 125 31 is_stmt 0 view .LVU1872
 5008 0064 AA88     		ldrh	r2, [r5, #4]
 125:lvgl/src/draw/sw/../../misc/lv_area.h **** }
 5009              		.loc 2 125 36 view .LVU1873
 5010 0066 D21A     		subs	r2, r2, r3
 5011 0068 92B2     		uxth	r2, r2
 125:lvgl/src/draw/sw/../../misc/lv_area.h **** }
 5012              		.loc 2 125 49 view .LVU1874
 5013 006a 0132     		adds	r2, r2, #1
 125:lvgl/src/draw/sw/../../misc/lv_area.h **** }
 5014              		.loc 2 125 12 view .LVU1875
 5015 006c 12B2     		sxth	r2, r2
 5016              	.LVL474:
 125:lvgl/src/draw/sw/../../misc/lv_area.h **** }
 5017              		.loc 2 125 12 view .LVU1876
 5018              	.LBE203:
 5019              	.LBE202:
 342:lvgl/src/draw/sw/lv_draw_sw_rect.c ****         a.x2 = a.x1 + size.x - 1;
 5020              		.loc 1 342 27 view .LVU1877
 5021 006e 002A     		cmp	r2, #0
 5022 0070 41DB     		blt	.L309
 5023              	.L285:
 5024 0072 03EB6203 		add	r3, r3, r2, asr #1
 5025 0076 9BB2     		uxth	r3, r3
ARM GAS  C:\Users\OSD\AppData\Local\Temp\ccS6lZqb.s 			page 147


 342:lvgl/src/draw/sw/lv_draw_sw_rect.c ****         a.x2 = a.x1 + size.x - 1;
 5026              		.loc 1 342 65 view .LVU1878
 5027 0078 BDF91420 		ldrsh	r2, [sp, #20]
 342:lvgl/src/draw/sw/lv_draw_sw_rect.c ****         a.x2 = a.x1 + size.x - 1;
 5028              		.loc 1 342 59 view .LVU1879
 5029 007c 1146     		mov	r1, r2
 5030 007e 002A     		cmp	r2, #0
 5031 0080 3BDB     		blt	.L310
 5032              	.L286:
 5033 0082 A3EB6103 		sub	r3, r3, r1, asr #1
 342:lvgl/src/draw/sw/lv_draw_sw_rect.c ****         a.x2 = a.x1 + size.x - 1;
 5034              		.loc 1 342 14 view .LVU1880
 5035 0086 ADF81830 		strh	r3, [sp, #24]	@ movhi
 343:lvgl/src/draw/sw/lv_draw_sw_rect.c ****         a.y1 = coords->y1 + lv_area_get_height(coords) / 2 - size.y / 2;
 5036              		.loc 1 343 9 is_stmt 1 view .LVU1881
 343:lvgl/src/draw/sw/lv_draw_sw_rect.c ****         a.y1 = coords->y1 + lv_area_get_height(coords) / 2 - size.y / 2;
 5037              		.loc 1 343 27 is_stmt 0 view .LVU1882
 5038 008a 92B2     		uxth	r2, r2
 343:lvgl/src/draw/sw/lv_draw_sw_rect.c ****         a.y1 = coords->y1 + lv_area_get_height(coords) / 2 - size.y / 2;
 5039              		.loc 1 343 21 view .LVU1883
 5040 008c 12FA83F3 		uxtah	r3, r2, r3
 5041 0090 9BB2     		uxth	r3, r3
 343:lvgl/src/draw/sw/lv_draw_sw_rect.c ****         a.y1 = coords->y1 + lv_area_get_height(coords) / 2 - size.y / 2;
 5042              		.loc 1 343 30 view .LVU1884
 5043 0092 013B     		subs	r3, r3, #1
 343:lvgl/src/draw/sw/lv_draw_sw_rect.c ****         a.y1 = coords->y1 + lv_area_get_height(coords) / 2 - size.y / 2;
 5044              		.loc 1 343 14 view .LVU1885
 5045 0094 ADF81C30 		strh	r3, [sp, #28]	@ movhi
 344:lvgl/src/draw/sw/lv_draw_sw_rect.c ****         a.y2 = a.y1 + size.y - 1;
 5046              		.loc 1 344 9 is_stmt 1 view .LVU1886
 344:lvgl/src/draw/sw/lv_draw_sw_rect.c ****         a.y2 = a.y1 + size.y - 1;
 5047              		.loc 1 344 22 is_stmt 0 view .LVU1887
 5048 0098 6B88     		ldrh	r3, [r5, #2]
 5049              	.LVL475:
 5050              	.LBB204:
 5051              	.LBI204:
 133:lvgl/src/draw/sw/../../misc/lv_area.h **** {
 5052              		.loc 2 133 26 is_stmt 1 view .LVU1888
 5053              	.LBB205:
 5054              		.loc 2 135 5 view .LVU1889
 5055              		.loc 2 135 31 is_stmt 0 view .LVU1890
 5056 009a EA88     		ldrh	r2, [r5, #6]
 5057              		.loc 2 135 36 view .LVU1891
 5058 009c D21A     		subs	r2, r2, r3
 5059 009e 92B2     		uxth	r2, r2
 5060              		.loc 2 135 49 view .LVU1892
 5061 00a0 0132     		adds	r2, r2, #1
 5062              		.loc 2 135 12 view .LVU1893
 5063 00a2 12B2     		sxth	r2, r2
 5064              	.LVL476:
 5065              		.loc 2 135 12 view .LVU1894
 5066              	.LBE205:
 5067              	.LBE204:
 344:lvgl/src/draw/sw/lv_draw_sw_rect.c ****         a.y2 = a.y1 + size.y - 1;
 5068              		.loc 1 344 27 view .LVU1895
 5069 00a4 002A     		cmp	r2, #0
 5070 00a6 2ADB     		blt	.L311
ARM GAS  C:\Users\OSD\AppData\Local\Temp\ccS6lZqb.s 			page 148


 5071              	.L287:
 5072 00a8 03EB6203 		add	r3, r3, r2, asr #1
 5073 00ac 9BB2     		uxth	r3, r3
 344:lvgl/src/draw/sw/lv_draw_sw_rect.c ****         a.y2 = a.y1 + size.y - 1;
 5074              		.loc 1 344 66 view .LVU1896
 5075 00ae BDF91620 		ldrsh	r2, [sp, #22]
 344:lvgl/src/draw/sw/lv_draw_sw_rect.c ****         a.y2 = a.y1 + size.y - 1;
 5076              		.loc 1 344 60 view .LVU1897
 5077 00b2 1146     		mov	r1, r2
 5078 00b4 002A     		cmp	r2, #0
 5079 00b6 24DB     		blt	.L312
 5080              	.L288:
 5081 00b8 A3EB6103 		sub	r3, r3, r1, asr #1
 344:lvgl/src/draw/sw/lv_draw_sw_rect.c ****         a.y2 = a.y1 + size.y - 1;
 5082              		.loc 1 344 14 view .LVU1898
 5083 00bc ADF81A30 		strh	r3, [sp, #26]	@ movhi
 345:lvgl/src/draw/sw/lv_draw_sw_rect.c **** 
 5084              		.loc 1 345 9 is_stmt 1 view .LVU1899
 345:lvgl/src/draw/sw/lv_draw_sw_rect.c **** 
 5085              		.loc 1 345 27 is_stmt 0 view .LVU1900
 5086 00c0 92B2     		uxth	r2, r2
 345:lvgl/src/draw/sw/lv_draw_sw_rect.c **** 
 5087              		.loc 1 345 21 view .LVU1901
 5088 00c2 12FA83F3 		uxtah	r3, r2, r3
 5089 00c6 9BB2     		uxth	r3, r3
 345:lvgl/src/draw/sw/lv_draw_sw_rect.c **** 
 5090              		.loc 1 345 30 view .LVU1902
 5091 00c8 013B     		subs	r3, r3, #1
 345:lvgl/src/draw/sw/lv_draw_sw_rect.c **** 
 5092              		.loc 1 345 14 view .LVU1903
 5093 00ca ADF81E30 		strh	r3, [sp, #30]	@ movhi
 347:lvgl/src/draw/sw/lv_draw_sw_rect.c ****         lv_draw_label_dsc_init(&label_draw_dsc);
 5094              		.loc 1 347 9 is_stmt 1 view .LVU1904
 348:lvgl/src/draw/sw/lv_draw_sw_rect.c ****         label_draw_dsc.font = dsc->bg_img_symbol_font;
 5095              		.loc 1 348 9 view .LVU1905
 5096 00ce 08A8     		add	r0, sp, #32
 5097 00d0 FFF7FEFF 		bl	lv_draw_label_dsc_init
 5098              	.LVL477:
 349:lvgl/src/draw/sw/lv_draw_sw_rect.c ****         label_draw_dsc.color = dsc->bg_img_recolor;
 5099              		.loc 1 349 9 view .LVU1906
 349:lvgl/src/draw/sw/lv_draw_sw_rect.c ****         label_draw_dsc.color = dsc->bg_img_recolor;
 5100              		.loc 1 349 34 is_stmt 0 view .LVU1907
 5101 00d4 236A     		ldr	r3, [r4, #32]
 349:lvgl/src/draw/sw/lv_draw_sw_rect.c ****         label_draw_dsc.color = dsc->bg_img_recolor;
 5102              		.loc 1 349 29 view .LVU1908
 5103 00d6 0893     		str	r3, [sp, #32]
 350:lvgl/src/draw/sw/lv_draw_sw_rect.c ****         label_draw_dsc.opa = dsc->bg_img_opa;
 5104              		.loc 1 350 9 is_stmt 1 view .LVU1909
 350:lvgl/src/draw/sw/lv_draw_sw_rect.c ****         label_draw_dsc.opa = dsc->bg_img_opa;
 5105              		.loc 1 350 30 is_stmt 0 view .LVU1910
 5106 00d8 636A     		ldr	r3, [r4, #36]
 5107 00da 0B93     		str	r3, [sp, #44]
 351:lvgl/src/draw/sw/lv_draw_sw_rect.c ****         lv_draw_label(draw_ctx, &label_draw_dsc, &a, dsc->bg_img_src, NULL);
 5108              		.loc 1 351 9 is_stmt 1 view .LVU1911
 351:lvgl/src/draw/sw/lv_draw_sw_rect.c ****         lv_draw_label(draw_ctx, &label_draw_dsc, &a, dsc->bg_img_src, NULL);
 5109              		.loc 1 351 33 is_stmt 0 view .LVU1912
 5110 00dc 94F82830 		ldrb	r3, [r4, #40]	@ zero_extendqisi2
ARM GAS  C:\Users\OSD\AppData\Local\Temp\ccS6lZqb.s 			page 149


 351:lvgl/src/draw/sw/lv_draw_sw_rect.c ****         lv_draw_label(draw_ctx, &label_draw_dsc, &a, dsc->bg_img_src, NULL);
 5111              		.loc 1 351 28 view .LVU1913
 5112 00e0 8DF84030 		strb	r3, [sp, #64]
 352:lvgl/src/draw/sw/lv_draw_sw_rect.c ****     }
 5113              		.loc 1 352 9 is_stmt 1 view .LVU1914
 5114 00e4 0023     		movs	r3, #0
 5115 00e6 0093     		str	r3, [sp]
 5116 00e8 E369     		ldr	r3, [r4, #28]
 5117 00ea 06AA     		add	r2, sp, #24
 5118 00ec 08A9     		add	r1, sp, #32
 5119 00ee 3046     		mov	r0, r6
 5120 00f0 FFF7FEFF 		bl	lv_draw_label
 5121              	.LVL478:
 5122              	.LBE201:
 5123 00f4 A8E7     		b	.L289
 5124              	.L309:
 5125              	.LBB206:
 342:lvgl/src/draw/sw/lv_draw_sw_rect.c ****         a.x2 = a.x1 + size.x - 1;
 5126              		.loc 1 342 27 is_stmt 0 view .LVU1915
 5127 00f6 0132     		adds	r2, r2, #1
 5128 00f8 BBE7     		b	.L285
 5129              	.L310:
 342:lvgl/src/draw/sw/lv_draw_sw_rect.c ****         a.x2 = a.x1 + size.x - 1;
 5130              		.loc 1 342 59 view .LVU1916
 5131 00fa 511C     		adds	r1, r2, #1
 5132 00fc C1E7     		b	.L286
 5133              	.L311:
 344:lvgl/src/draw/sw/lv_draw_sw_rect.c ****         a.y2 = a.y1 + size.y - 1;
 5134              		.loc 1 344 27 view .LVU1917
 5135 00fe 0132     		adds	r2, r2, #1
 5136 0100 D2E7     		b	.L287
 5137              	.L312:
 344:lvgl/src/draw/sw/lv_draw_sw_rect.c ****         a.y2 = a.y1 + size.y - 1;
 5138              		.loc 1 344 60 view .LVU1918
 5139 0102 511C     		adds	r1, r2, #1
 5140 0104 D8E7     		b	.L288
 5141              	.LVL479:
 5142              	.L308:
 344:lvgl/src/draw/sw/lv_draw_sw_rect.c ****         a.y2 = a.y1 + size.y - 1;
 5143              		.loc 1 344 60 view .LVU1919
 5144              	.LBE206:
 5145              	.LBB207:
 5146              	.LBB192:
 358:lvgl/src/draw/sw/lv_draw_sw_rect.c ****             lv_draw_img_dsc_init(&img_dsc);
 5147              		.loc 1 358 13 is_stmt 1 view .LVU1920
 359:lvgl/src/draw/sw/lv_draw_sw_rect.c ****             img_dsc.blend_mode = dsc->blend_mode;
 5148              		.loc 1 359 13 view .LVU1921
 5149 0106 08A8     		add	r0, sp, #32
 5150              	.LVL480:
 359:lvgl/src/draw/sw/lv_draw_sw_rect.c ****             img_dsc.blend_mode = dsc->blend_mode;
 5151              		.loc 1 359 13 is_stmt 0 view .LVU1922
 5152 0108 FFF7FEFF 		bl	lv_draw_img_dsc_init
 5153              	.LVL481:
 360:lvgl/src/draw/sw/lv_draw_sw_rect.c ****             img_dsc.recolor = dsc->bg_img_recolor;
 5154              		.loc 1 360 13 is_stmt 1 view .LVU1923
 360:lvgl/src/draw/sw/lv_draw_sw_rect.c ****             img_dsc.recolor = dsc->bg_img_recolor;
 5155              		.loc 1 360 37 is_stmt 0 view .LVU1924
ARM GAS  C:\Users\OSD\AppData\Local\Temp\ccS6lZqb.s 			page 150


 5156 010c A278     		ldrb	r2, [r4, #2]	@ zero_extendqisi2
 360:lvgl/src/draw/sw/lv_draw_sw_rect.c ****             img_dsc.recolor = dsc->bg_img_recolor;
 5157              		.loc 1 360 32 view .LVU1925
 5158 010e 9DF82E30 		ldrb	r3, [sp, #46]	@ zero_extendqisi2
 5159 0112 62F30303 		bfi	r3, r2, #0, #4
 5160 0116 8DF82E30 		strb	r3, [sp, #46]
 361:lvgl/src/draw/sw/lv_draw_sw_rect.c ****             img_dsc.recolor_opa = dsc->bg_img_recolor_opa;
 5161              		.loc 1 361 13 is_stmt 1 view .LVU1926
 361:lvgl/src/draw/sw/lv_draw_sw_rect.c ****             img_dsc.recolor_opa = dsc->bg_img_recolor_opa;
 5162              		.loc 1 361 29 is_stmt 0 view .LVU1927
 5163 011a 636A     		ldr	r3, [r4, #36]
 5164 011c 0A93     		str	r3, [sp, #40]
 362:lvgl/src/draw/sw/lv_draw_sw_rect.c ****             img_dsc.opa = dsc->bg_img_opa;
 5165              		.loc 1 362 13 is_stmt 1 view .LVU1928
 362:lvgl/src/draw/sw/lv_draw_sw_rect.c ****             img_dsc.opa = dsc->bg_img_opa;
 5166              		.loc 1 362 38 is_stmt 0 view .LVU1929
 5167 011e 94F82930 		ldrb	r3, [r4, #41]	@ zero_extendqisi2
 362:lvgl/src/draw/sw/lv_draw_sw_rect.c ****             img_dsc.opa = dsc->bg_img_opa;
 5168              		.loc 1 362 33 view .LVU1930
 5169 0122 8DF82C30 		strb	r3, [sp, #44]
 363:lvgl/src/draw/sw/lv_draw_sw_rect.c **** 
 5170              		.loc 1 363 13 is_stmt 1 view .LVU1931
 363:lvgl/src/draw/sw/lv_draw_sw_rect.c **** 
 5171              		.loc 1 363 30 is_stmt 0 view .LVU1932
 5172 0126 94F82830 		ldrb	r3, [r4, #40]	@ zero_extendqisi2
 363:lvgl/src/draw/sw/lv_draw_sw_rect.c **** 
 5173              		.loc 1 363 25 view .LVU1933
 5174 012a 8DF82D30 		strb	r3, [sp, #45]
 366:lvgl/src/draw/sw/lv_draw_sw_rect.c ****                 lv_area_t area;
 5175              		.loc 1 366 13 is_stmt 1 view .LVU1934
 366:lvgl/src/draw/sw/lv_draw_sw_rect.c ****                 lv_area_t area;
 5176              		.loc 1 366 19 is_stmt 0 view .LVU1935
 5177 012e 94F82A30 		ldrb	r3, [r4, #42]	@ zero_extendqisi2
 366:lvgl/src/draw/sw/lv_draw_sw_rect.c ****                 lv_area_t area;
 5178              		.loc 1 366 15 view .LVU1936
 5179 0132 73B1     		cbz	r3, .L313
 5180              	.LBB193:
 376:lvgl/src/draw/sw/lv_draw_sw_rect.c ****                 area.y1 = coords->y1;
 5181              		.loc 1 376 17 is_stmt 1 view .LVU1937
 377:lvgl/src/draw/sw/lv_draw_sw_rect.c ****                 area.y2 = area.y1 + header.h - 1;
 5182              		.loc 1 377 17 view .LVU1938
 377:lvgl/src/draw/sw/lv_draw_sw_rect.c ****                 area.y2 = area.y1 + header.h - 1;
 5183              		.loc 1 377 33 is_stmt 0 view .LVU1939
 5184 0134 B5F90230 		ldrsh	r3, [r5, #2]
 377:lvgl/src/draw/sw/lv_draw_sw_rect.c ****                 area.y2 = area.y1 + header.h - 1;
 5185              		.loc 1 377 25 view .LVU1940
 5186 0138 ADF81A30 		strh	r3, [sp, #26]	@ movhi
 378:lvgl/src/draw/sw/lv_draw_sw_rect.c **** 
 5187              		.loc 1 378 17 is_stmt 1 view .LVU1941
 378:lvgl/src/draw/sw/lv_draw_sw_rect.c **** 
 5188              		.loc 1 378 43 is_stmt 0 view .LVU1942
 5189 013c BDF81620 		ldrh	r2, [sp, #22]
 5190 0140 C2F34A12 		ubfx	r2, r2, #5, #11
 378:lvgl/src/draw/sw/lv_draw_sw_rect.c **** 
 5191              		.loc 1 378 35 view .LVU1943
 5192 0144 12FA83F3 		uxtah	r3, r2, r3
 5193 0148 9BB2     		uxth	r3, r3
ARM GAS  C:\Users\OSD\AppData\Local\Temp\ccS6lZqb.s 			page 151


 378:lvgl/src/draw/sw/lv_draw_sw_rect.c **** 
 5194              		.loc 1 378 46 view .LVU1944
 5195 014a 013B     		subs	r3, r3, #1
 378:lvgl/src/draw/sw/lv_draw_sw_rect.c **** 
 5196              		.loc 1 378 25 view .LVU1945
 5197 014c ADF81E30 		strh	r3, [sp, #30]	@ movhi
 380:lvgl/src/draw/sw/lv_draw_sw_rect.c **** 
 5198              		.loc 1 380 17 is_stmt 1 view .LVU1946
 5199 0150 66E0     		b	.L297
 5200              	.L313:
 380:lvgl/src/draw/sw/lv_draw_sw_rect.c **** 
 5201              		.loc 1 380 17 is_stmt 0 view .LVU1947
 5202              	.LBE193:
 5203              	.LBB194:
 367:lvgl/src/draw/sw/lv_draw_sw_rect.c ****                 area.x1 = coords->x1 + lv_area_get_width(coords) / 2 - header.w / 2;
 5204              		.loc 1 367 17 is_stmt 1 view .LVU1948
 368:lvgl/src/draw/sw/lv_draw_sw_rect.c ****                 area.y1 = coords->y1 + lv_area_get_height(coords) / 2 - header.h / 2;
 5205              		.loc 1 368 17 view .LVU1949
 368:lvgl/src/draw/sw/lv_draw_sw_rect.c ****                 area.y1 = coords->y1 + lv_area_get_height(coords) / 2 - header.h / 2;
 5206              		.loc 1 368 33 is_stmt 0 view .LVU1950
 5207 0152 2A88     		ldrh	r2, [r5]
 5208              	.LVL482:
 5209              	.LBB195:
 5210              	.LBI195:
 123:lvgl/src/draw/sw/../../misc/lv_area.h **** {
 5211              		.loc 2 123 26 is_stmt 1 view .LVU1951
 5212              	.LBB196:
 125:lvgl/src/draw/sw/../../misc/lv_area.h **** }
 5213              		.loc 2 125 5 view .LVU1952
 125:lvgl/src/draw/sw/../../misc/lv_area.h **** }
 5214              		.loc 2 125 31 is_stmt 0 view .LVU1953
 5215 0154 AB88     		ldrh	r3, [r5, #4]
 125:lvgl/src/draw/sw/../../misc/lv_area.h **** }
 5216              		.loc 2 125 36 view .LVU1954
 5217 0156 9B1A     		subs	r3, r3, r2
 5218 0158 9BB2     		uxth	r3, r3
 125:lvgl/src/draw/sw/../../misc/lv_area.h **** }
 5219              		.loc 2 125 49 view .LVU1955
 5220 015a 0133     		adds	r3, r3, #1
 125:lvgl/src/draw/sw/../../misc/lv_area.h **** }
 5221              		.loc 2 125 12 view .LVU1956
 5222 015c 1BB2     		sxth	r3, r3
 5223              	.LVL483:
 125:lvgl/src/draw/sw/../../misc/lv_area.h **** }
 5224              		.loc 2 125 12 view .LVU1957
 5225              	.LBE196:
 5226              	.LBE195:
 368:lvgl/src/draw/sw/lv_draw_sw_rect.c ****                 area.y1 = coords->y1 + lv_area_get_height(coords) / 2 - header.h / 2;
 5227              		.loc 1 368 38 view .LVU1958
 5228 015e 002B     		cmp	r3, #0
 5229 0160 33DB     		blt	.L314
 5230              	.L292:
 5231 0162 02EB6303 		add	r3, r2, r3, asr #1
 368:lvgl/src/draw/sw/lv_draw_sw_rect.c ****                 area.y1 = coords->y1 + lv_area_get_height(coords) / 2 - header.h / 2;
 5232              		.loc 1 368 78 view .LVU1959
 5233 0166 059A     		ldr	r2, [sp, #20]
 5234 0168 C2F38A20 		ubfx	r0, r2, #10, #11
ARM GAS  C:\Users\OSD\AppData\Local\Temp\ccS6lZqb.s 			page 152


 368:lvgl/src/draw/sw/lv_draw_sw_rect.c ****                 area.y1 = coords->y1 + lv_area_get_height(coords) / 2 - header.h / 2;
 5235              		.loc 1 368 81 view .LVU1960
 5236 016c C2F3C922 		ubfx	r2, r2, #11, #10
 5237 0170 5242     		rsbs	r2, r2, #0
 368:lvgl/src/draw/sw/lv_draw_sw_rect.c ****                 area.y1 = coords->y1 + lv_area_get_height(coords) / 2 - header.h / 2;
 5238              		.loc 1 368 70 view .LVU1961
 5239 0172 12FA83F3 		uxtah	r3, r2, r3
 5240 0176 99B2     		uxth	r1, r3
 368:lvgl/src/draw/sw/lv_draw_sw_rect.c ****                 area.y1 = coords->y1 + lv_area_get_height(coords) / 2 - header.h / 2;
 5241              		.loc 1 368 25 view .LVU1962
 5242 0178 ADF81830 		strh	r3, [sp, #24]	@ movhi
 369:lvgl/src/draw/sw/lv_draw_sw_rect.c ****                 area.x2 = area.x1 + header.w - 1;
 5243              		.loc 1 369 17 is_stmt 1 view .LVU1963
 369:lvgl/src/draw/sw/lv_draw_sw_rect.c ****                 area.x2 = area.x1 + header.w - 1;
 5244              		.loc 1 369 33 is_stmt 0 view .LVU1964
 5245 017c 6B88     		ldrh	r3, [r5, #2]
 5246              	.LVL484:
 5247              	.LBB197:
 5248              	.LBI197:
 133:lvgl/src/draw/sw/../../misc/lv_area.h **** {
 5249              		.loc 2 133 26 is_stmt 1 view .LVU1965
 5250              	.LBB198:
 5251              		.loc 2 135 5 view .LVU1966
 5252              		.loc 2 135 31 is_stmt 0 view .LVU1967
 5253 017e EA88     		ldrh	r2, [r5, #6]
 5254              		.loc 2 135 36 view .LVU1968
 5255 0180 D21A     		subs	r2, r2, r3
 5256 0182 92B2     		uxth	r2, r2
 5257              		.loc 2 135 49 view .LVU1969
 5258 0184 0132     		adds	r2, r2, #1
 5259              		.loc 2 135 12 view .LVU1970
 5260 0186 12B2     		sxth	r2, r2
 5261              	.LVL485:
 5262              		.loc 2 135 12 view .LVU1971
 5263              	.LBE198:
 5264              	.LBE197:
 369:lvgl/src/draw/sw/lv_draw_sw_rect.c ****                 area.x2 = area.x1 + header.w - 1;
 5265              		.loc 1 369 38 view .LVU1972
 5266 0188 002A     		cmp	r2, #0
 5267 018a 20DB     		blt	.L315
 5268              	.L294:
 5269 018c 03EB6203 		add	r3, r3, r2, asr #1
 369:lvgl/src/draw/sw/lv_draw_sw_rect.c ****                 area.x2 = area.x1 + header.w - 1;
 5270              		.loc 1 369 79 view .LVU1973
 5271 0190 BDF81620 		ldrh	r2, [sp, #22]
 5272 0194 C2F34A15 		ubfx	r5, r2, #5, #11
 5273              	.LVL486:
 369:lvgl/src/draw/sw/lv_draw_sw_rect.c ****                 area.x2 = area.x1 + header.w - 1;
 5274              		.loc 1 369 82 view .LVU1974
 5275 0198 C2F38912 		ubfx	r2, r2, #6, #10
 5276 019c 5242     		rsbs	r2, r2, #0
 369:lvgl/src/draw/sw/lv_draw_sw_rect.c ****                 area.x2 = area.x1 + header.w - 1;
 5277              		.loc 1 369 71 view .LVU1975
 5278 019e 12FA83F3 		uxtah	r3, r2, r3
 369:lvgl/src/draw/sw/lv_draw_sw_rect.c ****                 area.x2 = area.x1 + header.w - 1;
 5279              		.loc 1 369 25 view .LVU1976
 5280 01a2 ADF81A30 		strh	r3, [sp, #26]	@ movhi
ARM GAS  C:\Users\OSD\AppData\Local\Temp\ccS6lZqb.s 			page 153


 370:lvgl/src/draw/sw/lv_draw_sw_rect.c ****                 area.y2 = area.y1 + header.h - 1;
 5281              		.loc 1 370 17 is_stmt 1 view .LVU1977
 370:lvgl/src/draw/sw/lv_draw_sw_rect.c ****                 area.y2 = area.y1 + header.h - 1;
 5282              		.loc 1 370 35 is_stmt 0 view .LVU1978
 5283 01a6 0A18     		adds	r2, r1, r0
 5284 01a8 92B2     		uxth	r2, r2
 370:lvgl/src/draw/sw/lv_draw_sw_rect.c ****                 area.y2 = area.y1 + header.h - 1;
 5285              		.loc 1 370 46 view .LVU1979
 5286 01aa 013A     		subs	r2, r2, #1
 370:lvgl/src/draw/sw/lv_draw_sw_rect.c ****                 area.y2 = area.y1 + header.h - 1;
 5287              		.loc 1 370 25 view .LVU1980
 5288 01ac ADF81C20 		strh	r2, [sp, #28]	@ movhi
 371:lvgl/src/draw/sw/lv_draw_sw_rect.c **** 
 5289              		.loc 1 371 17 is_stmt 1 view .LVU1981
 371:lvgl/src/draw/sw/lv_draw_sw_rect.c **** 
 5290              		.loc 1 371 35 is_stmt 0 view .LVU1982
 5291 01b0 15FA83F3 		uxtah	r3, r5, r3
 5292 01b4 9BB2     		uxth	r3, r3
 371:lvgl/src/draw/sw/lv_draw_sw_rect.c **** 
 5293              		.loc 1 371 46 view .LVU1983
 5294 01b6 013B     		subs	r3, r3, #1
 371:lvgl/src/draw/sw/lv_draw_sw_rect.c **** 
 5295              		.loc 1 371 25 view .LVU1984
 5296 01b8 ADF81E30 		strh	r3, [sp, #30]	@ movhi
 373:lvgl/src/draw/sw/lv_draw_sw_rect.c ****             }
 5297              		.loc 1 373 17 is_stmt 1 view .LVU1985
 5298 01bc E369     		ldr	r3, [r4, #28]
 5299 01be 06AA     		add	r2, sp, #24
 5300 01c0 08A9     		add	r1, sp, #32
 5301 01c2 3046     		mov	r0, r6
 5302 01c4 FFF7FEFF 		bl	lv_draw_img
 5303              	.LVL487:
 5304              	.LBE194:
 5305 01c8 3EE7     		b	.L289
 5306              	.LVL488:
 5307              	.L314:
 5308              	.LBB199:
 368:lvgl/src/draw/sw/lv_draw_sw_rect.c ****                 area.y1 = coords->y1 + lv_area_get_height(coords) / 2 - header.h / 2;
 5309              		.loc 1 368 38 is_stmt 0 view .LVU1986
 5310 01ca 0133     		adds	r3, r3, #1
 5311 01cc C9E7     		b	.L292
 5312              	.L315:
 369:lvgl/src/draw/sw/lv_draw_sw_rect.c ****                 area.x2 = area.x1 + header.w - 1;
 5313              		.loc 1 369 38 view .LVU1987
 5314 01ce 0132     		adds	r2, r2, #1
 5315 01d0 DCE7     		b	.L294
 5316              	.L299:
 369:lvgl/src/draw/sw/lv_draw_sw_rect.c ****                 area.x2 = area.x1 + header.w - 1;
 5317              		.loc 1 369 38 view .LVU1988
 5318              	.LBE199:
 5319              	.LBB200:
 385:lvgl/src/draw/sw/lv_draw_sw_rect.c ****                     }
 5320              		.loc 1 385 25 is_stmt 1 discriminator 2 view .LVU1989
 5321 01d2 E369     		ldr	r3, [r4, #28]
 5322 01d4 06AA     		add	r2, sp, #24
 5323 01d6 08A9     		add	r1, sp, #32
 5324 01d8 3046     		mov	r0, r6
ARM GAS  C:\Users\OSD\AppData\Local\Temp\ccS6lZqb.s 			page 154


 5325 01da FFF7FEFF 		bl	lv_draw_img
 5326              	.LVL489:
 384:lvgl/src/draw/sw/lv_draw_sw_rect.c ****                         lv_draw_img(draw_ctx, &img_dsc, &area, dsc->bg_img_src);
 5327              		.loc 1 384 50 discriminator 2 view .LVU1990
 384:lvgl/src/draw/sw/lv_draw_sw_rect.c ****                         lv_draw_img(draw_ctx, &img_dsc, &area, dsc->bg_img_src);
 5328              		.loc 1 384 67 is_stmt 0 discriminator 2 view .LVU1991
 5329 01de 059B     		ldr	r3, [sp, #20]
 5330 01e0 C3F38A23 		ubfx	r3, r3, #10, #11
 384:lvgl/src/draw/sw/lv_draw_sw_rect.c ****                         lv_draw_img(draw_ctx, &img_dsc, &area, dsc->bg_img_src);
 5331              		.loc 1 384 58 discriminator 2 view .LVU1992
 5332 01e4 BDF81820 		ldrh	r2, [sp, #24]
 5333 01e8 1A44     		add	r2, r2, r3
 5334 01ea ADF81820 		strh	r2, [sp, #24]	@ movhi
 384:lvgl/src/draw/sw/lv_draw_sw_rect.c ****                         lv_draw_img(draw_ctx, &img_dsc, &area, dsc->bg_img_src);
 5335              		.loc 1 384 79 discriminator 2 view .LVU1993
 5336 01ee BDF81C20 		ldrh	r2, [sp, #28]
 5337 01f2 1344     		add	r3, r3, r2
 5338 01f4 ADF81C30 		strh	r3, [sp, #28]	@ movhi
 5339              	.L298:
 384:lvgl/src/draw/sw/lv_draw_sw_rect.c ****                         lv_draw_img(draw_ctx, &img_dsc, &area, dsc->bg_img_src);
 5340              		.loc 1 384 27 is_stmt 1 discriminator 1 view .LVU1994
 384:lvgl/src/draw/sw/lv_draw_sw_rect.c ****                         lv_draw_img(draw_ctx, &img_dsc, &area, dsc->bg_img_src);
 5341              		.loc 1 384 31 is_stmt 0 discriminator 1 view .LVU1995
 5342 01f8 BDF91820 		ldrsh	r2, [sp, #24]
 384:lvgl/src/draw/sw/lv_draw_sw_rect.c ****                         lv_draw_img(draw_ctx, &img_dsc, &area, dsc->bg_img_src);
 5343              		.loc 1 384 44 discriminator 1 view .LVU1996
 5344 01fc B5F90430 		ldrsh	r3, [r5, #4]
 384:lvgl/src/draw/sw/lv_draw_sw_rect.c ****                         lv_draw_img(draw_ctx, &img_dsc, &area, dsc->bg_img_src);
 5345              		.loc 1 384 21 discriminator 1 view .LVU1997
 5346 0200 9A42     		cmp	r2, r3
 5347 0202 E6DD     		ble	.L299
 380:lvgl/src/draw/sw/lv_draw_sw_rect.c **** 
 5348              		.loc 1 380 46 is_stmt 1 view .LVU1998
 380:lvgl/src/draw/sw/lv_draw_sw_rect.c **** 
 5349              		.loc 1 380 63 is_stmt 0 view .LVU1999
 5350 0204 BDF81630 		ldrh	r3, [sp, #22]
 5351 0208 C3F34A13 		ubfx	r3, r3, #5, #11
 380:lvgl/src/draw/sw/lv_draw_sw_rect.c **** 
 5352              		.loc 1 380 54 view .LVU2000
 5353 020c BDF81A20 		ldrh	r2, [sp, #26]
 5354 0210 1A44     		add	r2, r2, r3
 5355 0212 ADF81A20 		strh	r2, [sp, #26]	@ movhi
 380:lvgl/src/draw/sw/lv_draw_sw_rect.c **** 
 5356              		.loc 1 380 75 view .LVU2001
 5357 0216 BDF81E20 		ldrh	r2, [sp, #30]
 5358 021a 1344     		add	r3, r3, r2
 5359 021c ADF81E30 		strh	r3, [sp, #30]	@ movhi
 5360              	.L297:
 380:lvgl/src/draw/sw/lv_draw_sw_rect.c **** 
 5361              		.loc 1 380 23 is_stmt 1 discriminator 1 view .LVU2002
 380:lvgl/src/draw/sw/lv_draw_sw_rect.c **** 
 5362              		.loc 1 380 27 is_stmt 0 discriminator 1 view .LVU2003
 5363 0220 BDF91A20 		ldrsh	r2, [sp, #26]
 380:lvgl/src/draw/sw/lv_draw_sw_rect.c **** 
 5364              		.loc 1 380 40 discriminator 1 view .LVU2004
 5365 0224 B5F90630 		ldrsh	r3, [r5, #6]
 380:lvgl/src/draw/sw/lv_draw_sw_rect.c **** 
ARM GAS  C:\Users\OSD\AppData\Local\Temp\ccS6lZqb.s 			page 155


 5366              		.loc 1 380 17 discriminator 1 view .LVU2005
 5367 0228 9A42     		cmp	r2, r3
 5368 022a 3FF70DAF 		bgt	.L289
 382:lvgl/src/draw/sw/lv_draw_sw_rect.c ****                     area.x2 = area.x1 + header.w - 1;
 5369              		.loc 1 382 21 is_stmt 1 view .LVU2006
 382:lvgl/src/draw/sw/lv_draw_sw_rect.c ****                     area.x2 = area.x1 + header.w - 1;
 5370              		.loc 1 382 37 is_stmt 0 view .LVU2007
 5371 022e B5F90030 		ldrsh	r3, [r5]
 382:lvgl/src/draw/sw/lv_draw_sw_rect.c ****                     area.x2 = area.x1 + header.w - 1;
 5372              		.loc 1 382 29 view .LVU2008
 5373 0232 ADF81830 		strh	r3, [sp, #24]	@ movhi
 383:lvgl/src/draw/sw/lv_draw_sw_rect.c ****                     for(; area.x1 <= coords->x2; area.x1 += header.w, area.x2 += header.w) {
 5374              		.loc 1 383 21 is_stmt 1 view .LVU2009
 383:lvgl/src/draw/sw/lv_draw_sw_rect.c ****                     for(; area.x1 <= coords->x2; area.x1 += header.w, area.x2 += header.w) {
 5375              		.loc 1 383 47 is_stmt 0 view .LVU2010
 5376 0236 059A     		ldr	r2, [sp, #20]
 5377 0238 C2F38A22 		ubfx	r2, r2, #10, #11
 383:lvgl/src/draw/sw/lv_draw_sw_rect.c ****                     for(; area.x1 <= coords->x2; area.x1 += header.w, area.x2 += header.w) {
 5378              		.loc 1 383 39 view .LVU2011
 5379 023c 12FA83F3 		uxtah	r3, r2, r3
 5380 0240 9BB2     		uxth	r3, r3
 383:lvgl/src/draw/sw/lv_draw_sw_rect.c ****                     for(; area.x1 <= coords->x2; area.x1 += header.w, area.x2 += header.w) {
 5381              		.loc 1 383 50 view .LVU2012
 5382 0242 013B     		subs	r3, r3, #1
 383:lvgl/src/draw/sw/lv_draw_sw_rect.c ****                     for(; area.x1 <= coords->x2; area.x1 += header.w, area.x2 += header.w) {
 5383              		.loc 1 383 29 view .LVU2013
 5384 0244 ADF81C30 		strh	r3, [sp, #28]	@ movhi
 384:lvgl/src/draw/sw/lv_draw_sw_rect.c ****                         lv_draw_img(draw_ctx, &img_dsc, &area, dsc->bg_img_src);
 5385              		.loc 1 384 21 is_stmt 1 view .LVU2014
 5386 0248 D6E7     		b	.L298
 5387              	.LVL490:
 5388              	.L303:
 5389              		.cfi_def_cfa_offset 0
 5390              		.cfi_restore 4
 5391              		.cfi_restore 5
 5392              		.cfi_restore 6
 5393              		.cfi_restore 7
 5394              		.cfi_restore 14
 384:lvgl/src/draw/sw/lv_draw_sw_rect.c ****                         lv_draw_img(draw_ctx, &img_dsc, &area, dsc->bg_img_src);
 5395              		.loc 1 384 21 is_stmt 0 view .LVU2015
 5396 024a 7047     		bx	lr
 5397              	.LBE200:
 5398              	.LBE192:
 5399              	.LBE207:
 5400              		.cfi_endproc
 5401              	.LFE164:
 5403              		.section	.text.lv_draw_sw_bg,"ax",%progbits
 5404              		.align	1
 5405              		.global	lv_draw_sw_bg
 5406              		.syntax unified
 5407              		.thumb
 5408              		.thumb_func
 5410              	lv_draw_sw_bg:
 5411              	.LVL491:
 5412              	.LFB162:
  84:lvgl/src/draw/sw/lv_draw_sw_rect.c **** #if LV_COLOR_SCREEN_TRANSP && LV_COLOR_DEPTH == 32
 5413              		.loc 1 84 1 is_stmt 1 view -0
ARM GAS  C:\Users\OSD\AppData\Local\Temp\ccS6lZqb.s 			page 156


 5414              		.cfi_startproc
 5415              		@ args = 0, pretend = 0, frame = 0
 5416              		@ frame_needed = 0, uses_anonymous_args = 0
  84:lvgl/src/draw/sw/lv_draw_sw_rect.c **** #if LV_COLOR_SCREEN_TRANSP && LV_COLOR_DEPTH == 32
 5417              		.loc 1 84 1 is_stmt 0 view .LVU2017
 5418 0000 70B5     		push	{r4, r5, r6, lr}
 5419              		.cfi_def_cfa_offset 16
 5420              		.cfi_offset 4, -16
 5421              		.cfi_offset 5, -12
 5422              		.cfi_offset 6, -8
 5423              		.cfi_offset 14, -4
 5424 0002 0446     		mov	r4, r0
 5425 0004 0D46     		mov	r5, r1
 5426 0006 1646     		mov	r6, r2
  89:lvgl/src/draw/sw/lv_draw_sw_rect.c ****     draw_bg_img(draw_ctx, dsc, coords);
 5427              		.loc 1 89 5 is_stmt 1 view .LVU2018
 5428 0008 FFF7FEFF 		bl	draw_bg
 5429              	.LVL492:
  90:lvgl/src/draw/sw/lv_draw_sw_rect.c **** }
 5430              		.loc 1 90 5 view .LVU2019
 5431 000c 3246     		mov	r2, r6
 5432 000e 2946     		mov	r1, r5
 5433 0010 2046     		mov	r0, r4
 5434 0012 FFF7FEFF 		bl	draw_bg_img
 5435              	.LVL493:
  91:lvgl/src/draw/sw/lv_draw_sw_rect.c **** 
 5436              		.loc 1 91 1 is_stmt 0 view .LVU2020
 5437 0016 70BD     		pop	{r4, r5, r6, pc}
  91:lvgl/src/draw/sw/lv_draw_sw_rect.c **** 
 5438              		.loc 1 91 1 view .LVU2021
 5439              		.cfi_endproc
 5440              	.LFE162:
 5442              		.section	.text.draw_border_generic,"ax",%progbits
 5443              		.align	1
 5444              		.global	draw_border_generic
 5445              		.syntax unified
 5446              		.thumb
 5447              		.thumb_func
 5449              	draw_border_generic:
 5450              	.LVL494:
 5451              	.LFB170:
1148:lvgl/src/draw/sw/lv_draw_sw_rect.c ****     opa = opa >= LV_OPA_COVER ? LV_OPA_COVER : opa;
 5452              		.loc 1 1148 1 is_stmt 1 view -0
 5453              		.cfi_startproc
 5454              		@ args = 16, pretend = 0, frame = 160
 5455              		@ frame_needed = 0, uses_anonymous_args = 0
1148:lvgl/src/draw/sw/lv_draw_sw_rect.c ****     opa = opa >= LV_OPA_COVER ? LV_OPA_COVER : opa;
 5456              		.loc 1 1148 1 is_stmt 0 view .LVU2023
 5457 0000 2DE9F04F 		push	{r4, r5, r6, r7, r8, r9, r10, fp, lr}
 5458              		.cfi_def_cfa_offset 36
 5459              		.cfi_offset 4, -36
 5460              		.cfi_offset 5, -32
 5461              		.cfi_offset 6, -28
 5462              		.cfi_offset 7, -24
 5463              		.cfi_offset 8, -20
 5464              		.cfi_offset 9, -16
 5465              		.cfi_offset 10, -12
ARM GAS  C:\Users\OSD\AppData\Local\Temp\ccS6lZqb.s 			page 157


 5466              		.cfi_offset 11, -8
 5467              		.cfi_offset 14, -4
 5468 0004 ABB0     		sub	sp, sp, #172
 5469              		.cfi_def_cfa_offset 208
 5470 0006 0646     		mov	r6, r0
 5471 0008 0C46     		mov	r4, r1
 5472 000a 9246     		mov	r10, r2
 5473 000c 1F46     		mov	r7, r3
 5474 000e BDF9D080 		ldrsh	r8, [sp, #208]
 5475 0012 9DF8D890 		ldrb	r9, [sp, #216]	@ zero_extendqisi2
1149:lvgl/src/draw/sw/lv_draw_sw_rect.c **** 
 5476              		.loc 1 1149 5 is_stmt 1 view .LVU2024
 5477              	.LVL495:
1151:lvgl/src/draw/sw/lv_draw_sw_rect.c **** 
 5478              		.loc 1 1151 5 view .LVU2025
1151:lvgl/src/draw/sw/lv_draw_sw_rect.c **** 
 5479              		.loc 1 1151 21 is_stmt 0 view .LVU2026
 5480 0016 0846     		mov	r0, r1
 5481              	.LVL496:
1151:lvgl/src/draw/sw/lv_draw_sw_rect.c **** 
 5482              		.loc 1 1151 21 view .LVU2027
 5483 0018 FFF7FEFF 		bl	lv_draw_mask_is_any
 5484              	.LVL497:
1151:lvgl/src/draw/sw/lv_draw_sw_rect.c **** 
 5485              		.loc 1 1151 21 view .LVU2028
 5486 001c 0590     		str	r0, [sp, #20]
 5487              	.LVL498:
1155:lvgl/src/draw/sw/lv_draw_sw_rect.c ****         draw_border_simple(draw_ctx, outer_area, inner_area, color, opa);
 5488              		.loc 1 1155 5 is_stmt 1 view .LVU2029
1155:lvgl/src/draw/sw/lv_draw_sw_rect.c ****         draw_border_simple(draw_ctx, outer_area, inner_area, color, opa);
 5489              		.loc 1 1155 8 is_stmt 0 view .LVU2030
 5490 001e 80F00103 		eor	r3, r0, #1
1155:lvgl/src/draw/sw/lv_draw_sw_rect.c ****         draw_border_simple(draw_ctx, outer_area, inner_area, color, opa);
 5491              		.loc 1 1155 18 view .LVU2031
 5492 0022 002F     		cmp	r7, #0
 5493 0024 14BF     		ite	ne
 5494 0026 0023     		movne	r3, #0
 5495 0028 03F00103 		andeq	r3, r3, #1
1155:lvgl/src/draw/sw/lv_draw_sw_rect.c ****         draw_border_simple(draw_ctx, outer_area, inner_area, color, opa);
 5496              		.loc 1 1155 7 view .LVU2032
 5497 002c 13B1     		cbz	r3, .L319
1155:lvgl/src/draw/sw/lv_draw_sw_rect.c ****         draw_border_simple(draw_ctx, outer_area, inner_area, color, opa);
 5498              		.loc 1 1155 31 discriminator 1 view .LVU2033
 5499 002e B8F1000F 		cmp	r8, #0
 5500 0032 09D0     		beq	.L358
 5501              	.L319:
1162:lvgl/src/draw/sw/lv_draw_sw_rect.c ****     if(!_lv_area_intersect(&draw_area, outer_area, draw_ctx->clip_area)) return;
 5502              		.loc 1 1162 5 is_stmt 1 view .LVU2034
1163:lvgl/src/draw/sw/lv_draw_sw_rect.c ****     int32_t draw_area_w = lv_area_get_width(&draw_area);
 5503              		.loc 1 1163 5 view .LVU2035
1163:lvgl/src/draw/sw/lv_draw_sw_rect.c ****     int32_t draw_area_w = lv_area_get_width(&draw_area);
 5504              		.loc 1 1163 9 is_stmt 0 view .LVU2036
 5505 0034 B268     		ldr	r2, [r6, #8]
 5506 0036 2146     		mov	r1, r4
 5507 0038 28A8     		add	r0, sp, #160
 5508 003a FFF7FEFF 		bl	_lv_area_intersect
 5509              	.LVL499:
ARM GAS  C:\Users\OSD\AppData\Local\Temp\ccS6lZqb.s 			page 158


1163:lvgl/src/draw/sw/lv_draw_sw_rect.c ****     int32_t draw_area_w = lv_area_get_width(&draw_area);
 5510              		.loc 1 1163 7 view .LVU2037
 5511 003e 0290     		str	r0, [sp, #8]
 5512 0040 58B9     		cbnz	r0, .L359
 5513              	.LVL500:
 5514              	.L318:
1377:lvgl/src/draw/sw/lv_draw_sw_rect.c **** static void draw_border_simple(lv_draw_ctx_t * draw_ctx, const lv_area_t * outer_area, const lv_are
 5515              		.loc 1 1377 1 view .LVU2038
 5516 0042 2BB0     		add	sp, sp, #172
 5517              		.cfi_remember_state
 5518              		.cfi_def_cfa_offset 36
 5519              		@ sp needed
 5520 0044 BDE8F08F 		pop	{r4, r5, r6, r7, r8, r9, r10, fp, pc}
 5521              	.LVL501:
 5522              	.L358:
 5523              		.cfi_restore_state
1156:lvgl/src/draw/sw/lv_draw_sw_rect.c ****         return;
 5524              		.loc 1 1156 9 is_stmt 1 view .LVU2039
 5525 0048 CDF80090 		str	r9, [sp]
 5526 004c 359B     		ldr	r3, [sp, #212]
 5527 004e 5246     		mov	r2, r10
 5528 0050 2146     		mov	r1, r4
 5529 0052 3046     		mov	r0, r6
 5530 0054 FFF7FEFF 		bl	draw_border_simple
 5531              	.LVL502:
1157:lvgl/src/draw/sw/lv_draw_sw_rect.c ****     }
 5532              		.loc 1 1157 9 view .LVU2040
 5533 0058 F3E7     		b	.L318
 5534              	.L359:
1164:lvgl/src/draw/sw/lv_draw_sw_rect.c **** 
 5535              		.loc 1 1164 5 view .LVU2041
 5536              	.LVL503:
 5537              	.LBB208:
 5538              	.LBI208:
 123:lvgl/src/draw/sw/../../misc/lv_area.h **** {
 5539              		.loc 2 123 26 view .LVU2042
 5540              	.LBB209:
 125:lvgl/src/draw/sw/../../misc/lv_area.h **** }
 5541              		.loc 2 125 5 view .LVU2043
 125:lvgl/src/draw/sw/../../misc/lv_area.h **** }
 5542              		.loc 2 125 31 is_stmt 0 view .LVU2044
 5543 005a BDF8A450 		ldrh	r5, [sp, #164]
 125:lvgl/src/draw/sw/../../misc/lv_area.h **** }
 5544              		.loc 2 125 44 view .LVU2045
 5545 005e BDF8A030 		ldrh	r3, [sp, #160]
 125:lvgl/src/draw/sw/../../misc/lv_area.h **** }
 5546              		.loc 2 125 36 view .LVU2046
 5547 0062 ED1A     		subs	r5, r5, r3
 5548 0064 ADB2     		uxth	r5, r5
 125:lvgl/src/draw/sw/../../misc/lv_area.h **** }
 5549              		.loc 2 125 49 view .LVU2047
 5550 0066 0135     		adds	r5, r5, #1
 125:lvgl/src/draw/sw/../../misc/lv_area.h **** }
 5551              		.loc 2 125 12 view .LVU2048
 5552 0068 2DB2     		sxth	r5, r5
 5553              	.LVL504:
 125:lvgl/src/draw/sw/../../misc/lv_area.h **** }
ARM GAS  C:\Users\OSD\AppData\Local\Temp\ccS6lZqb.s 			page 159


 5554              		.loc 2 125 12 view .LVU2049
 5555              	.LBE209:
 5556              	.LBE208:
1166:lvgl/src/draw/sw/lv_draw_sw_rect.c ****     lv_memset_00(&blend_dsc, sizeof(blend_dsc));
 5557              		.loc 1 1166 5 is_stmt 1 view .LVU2050
1167:lvgl/src/draw/sw/lv_draw_sw_rect.c ****     blend_dsc.mask_buf = lv_mem_buf_get(draw_area_w);;
 5558              		.loc 1 1167 5 view .LVU2051
 5559 006a 1C21     		movs	r1, #28
 5560 006c 21A8     		add	r0, sp, #132
 5561 006e FFF7FEFF 		bl	lv_memset_00
 5562              	.LVL505:
1168:lvgl/src/draw/sw/lv_draw_sw_rect.c **** 
 5563              		.loc 1 1168 5 view .LVU2052
1168:lvgl/src/draw/sw/lv_draw_sw_rect.c **** 
 5564              		.loc 1 1168 26 is_stmt 0 view .LVU2053
 5565 0072 2846     		mov	r0, r5
 5566 0074 FFF7FEFF 		bl	lv_mem_buf_get
 5567              	.LVL506:
1168:lvgl/src/draw/sw/lv_draw_sw_rect.c **** 
 5568              		.loc 1 1168 24 view .LVU2054
 5569 0078 2490     		str	r0, [sp, #144]
1168:lvgl/src/draw/sw/lv_draw_sw_rect.c **** 
 5570              		.loc 1 1168 54 is_stmt 1 view .LVU2055
1171:lvgl/src/draw/sw/lv_draw_sw_rect.c ****     lv_draw_mask_radius_param_t mask_rout_param;
 5571              		.loc 1 1171 5 view .LVU2056
 5572              	.LVL507:
1172:lvgl/src/draw/sw/lv_draw_sw_rect.c ****     if(rout > 0) {
 5573              		.loc 1 1172 5 view .LVU2057
1173:lvgl/src/draw/sw/lv_draw_sw_rect.c ****         lv_draw_mask_radius_init(&mask_rout_param, outer_area, rout, false);
 5574              		.loc 1 1173 5 view .LVU2058
1173:lvgl/src/draw/sw/lv_draw_sw_rect.c ****         lv_draw_mask_radius_init(&mask_rout_param, outer_area, rout, false);
 5575              		.loc 1 1173 7 is_stmt 0 view .LVU2059
 5576 007a 002F     		cmp	r7, #0
 5577 007c 7DDC     		bgt	.L360
1171:lvgl/src/draw/sw/lv_draw_sw_rect.c ****     lv_draw_mask_radius_param_t mask_rout_param;
 5578              		.loc 1 1171 13 view .LVU2060
 5579 007e 4FF0FF33 		mov	r3, #-1
 5580 0082 0D93     		str	r3, [sp, #52]
 5581              	.LVL508:
 5582              	.L321:
1179:lvgl/src/draw/sw/lv_draw_sw_rect.c ****     lv_draw_mask_radius_init(&mask_rin_param, inner_area, rin, true);
 5583              		.loc 1 1179 5 is_stmt 1 view .LVU2061
1180:lvgl/src/draw/sw/lv_draw_sw_rect.c ****     int16_t mask_rin_id = lv_draw_mask_add(&mask_rin_param, NULL);
 5584              		.loc 1 1180 5 view .LVU2062
 5585 0084 0123     		movs	r3, #1
 5586 0086 4246     		mov	r2, r8
 5587 0088 5146     		mov	r1, r10
 5588 008a 15A8     		add	r0, sp, #84
 5589 008c FFF7FEFF 		bl	lv_draw_mask_radius_init
 5590              	.LVL509:
1181:lvgl/src/draw/sw/lv_draw_sw_rect.c **** 
 5591              		.loc 1 1181 5 view .LVU2063
1181:lvgl/src/draw/sw/lv_draw_sw_rect.c **** 
 5592              		.loc 1 1181 27 is_stmt 0 view .LVU2064
 5593 0090 0021     		movs	r1, #0
 5594 0092 15A8     		add	r0, sp, #84
 5595 0094 FFF7FEFF 		bl	lv_draw_mask_add
ARM GAS  C:\Users\OSD\AppData\Local\Temp\ccS6lZqb.s 			page 160


 5596              	.LVL510:
 5597 0098 0C90     		str	r0, [sp, #48]
 5598              	.LVL511:
1183:lvgl/src/draw/sw/lv_draw_sw_rect.c ****     lv_area_t blend_area;
 5599              		.loc 1 1183 5 is_stmt 1 view .LVU2065
1184:lvgl/src/draw/sw/lv_draw_sw_rect.c ****     blend_dsc.blend_area = &blend_area;
 5600              		.loc 1 1184 5 view .LVU2066
1185:lvgl/src/draw/sw/lv_draw_sw_rect.c ****     blend_dsc.mask_area = &blend_area;
 5601              		.loc 1 1185 5 view .LVU2067
1185:lvgl/src/draw/sw/lv_draw_sw_rect.c ****     blend_dsc.mask_area = &blend_area;
 5602              		.loc 1 1185 26 is_stmt 0 view .LVU2068
 5603 009a 13AB     		add	r3, sp, #76
 5604 009c 2193     		str	r3, [sp, #132]
1186:lvgl/src/draw/sw/lv_draw_sw_rect.c ****     blend_dsc.color = color;
 5605              		.loc 1 1186 5 is_stmt 1 view .LVU2069
1186:lvgl/src/draw/sw/lv_draw_sw_rect.c ****     blend_dsc.color = color;
 5606              		.loc 1 1186 25 is_stmt 0 view .LVU2070
 5607 009e 2693     		str	r3, [sp, #152]
1187:lvgl/src/draw/sw/lv_draw_sw_rect.c ****     blend_dsc.opa = opa;
 5608              		.loc 1 1187 5 is_stmt 1 view .LVU2071
1187:lvgl/src/draw/sw/lv_draw_sw_rect.c ****     blend_dsc.opa = opa;
 5609              		.loc 1 1187 21 is_stmt 0 view .LVU2072
 5610 00a0 359B     		ldr	r3, [sp, #212]
 5611 00a2 2393     		str	r3, [sp, #140]
1188:lvgl/src/draw/sw/lv_draw_sw_rect.c ****     blend_dsc.blend_mode = blend_mode;
 5612              		.loc 1 1188 5 is_stmt 1 view .LVU2073
1188:lvgl/src/draw/sw/lv_draw_sw_rect.c ****     blend_dsc.blend_mode = blend_mode;
 5613              		.loc 1 1188 19 is_stmt 0 view .LVU2074
 5614 00a4 8DF89C90 		strb	r9, [sp, #156]
1189:lvgl/src/draw/sw/lv_draw_sw_rect.c **** 
 5615              		.loc 1 1189 5 is_stmt 1 view .LVU2075
1189:lvgl/src/draw/sw/lv_draw_sw_rect.c **** 
 5616              		.loc 1 1189 26 is_stmt 0 view .LVU2076
 5617 00a8 9DF8DC30 		ldrb	r3, [sp, #220]	@ zero_extendqisi2
 5618 00ac 8DF89D30 		strb	r3, [sp, #157]
1192:lvgl/src/draw/sw/lv_draw_sw_rect.c ****     core_area.x1 = LV_MAX(outer_area->x1 + rout, inner_area->x1);
 5619              		.loc 1 1192 5 is_stmt 1 view .LVU2077
1193:lvgl/src/draw/sw/lv_draw_sw_rect.c ****     core_area.x2 = LV_MIN(outer_area->x2 - rout, inner_area->x2);
 5620              		.loc 1 1193 5 view .LVU2078
1193:lvgl/src/draw/sw/lv_draw_sw_rect.c ****     core_area.x2 = LV_MIN(outer_area->x2 - rout, inner_area->x2);
 5621              		.loc 1 1193 20 is_stmt 0 view .LVU2079
 5622 00b0 BAF90020 		ldrsh	r2, [r10]
 5623 00b4 0892     		str	r2, [sp, #32]
 5624 00b6 B4F90030 		ldrsh	r3, [r4]
 5625 00ba 0993     		str	r3, [sp, #36]
 5626 00bc 3B44     		add	r3, r3, r7
 5627 00be 9342     		cmp	r3, r2
 5628 00c0 B8BF     		it	lt
 5629 00c2 1346     		movlt	r3, r2
1193:lvgl/src/draw/sw/lv_draw_sw_rect.c ****     core_area.x2 = LV_MIN(outer_area->x2 - rout, inner_area->x2);
 5630              		.loc 1 1193 18 view .LVU2080
 5631 00c4 1AB2     		sxth	r2, r3
 5632 00c6 0E92     		str	r2, [sp, #56]
 5633 00c8 ADF84420 		strh	r2, [sp, #68]	@ movhi
1194:lvgl/src/draw/sw/lv_draw_sw_rect.c ****     core_area.y1 = LV_MAX(outer_area->y1 + rout, inner_area->y1);
 5634              		.loc 1 1194 5 is_stmt 1 view .LVU2081
1194:lvgl/src/draw/sw/lv_draw_sw_rect.c ****     core_area.y1 = LV_MAX(outer_area->y1 + rout, inner_area->y1);
ARM GAS  C:\Users\OSD\AppData\Local\Temp\ccS6lZqb.s 			page 161


 5635              		.loc 1 1194 20 is_stmt 0 view .LVU2082
 5636 00cc BAF90410 		ldrsh	r1, [r10, #4]
 5637 00d0 0A91     		str	r1, [sp, #40]
 5638 00d2 B4F90430 		ldrsh	r3, [r4, #4]
 5639 00d6 0B93     		str	r3, [sp, #44]
 5640 00d8 DB1B     		subs	r3, r3, r7
 5641 00da 8B42     		cmp	r3, r1
 5642 00dc A8BF     		it	ge
 5643 00de 0B46     		movge	r3, r1
1194:lvgl/src/draw/sw/lv_draw_sw_rect.c ****     core_area.y1 = LV_MAX(outer_area->y1 + rout, inner_area->y1);
 5644              		.loc 1 1194 18 view .LVU2083
 5645 00e0 19B2     		sxth	r1, r3
 5646 00e2 0F91     		str	r1, [sp, #60]
 5647 00e4 ADF84810 		strh	r1, [sp, #72]	@ movhi
1195:lvgl/src/draw/sw/lv_draw_sw_rect.c ****     core_area.y2 = LV_MIN(outer_area->y2 - rout, inner_area->y2);
 5648              		.loc 1 1195 5 is_stmt 1 view .LVU2084
1195:lvgl/src/draw/sw/lv_draw_sw_rect.c ****     core_area.y2 = LV_MIN(outer_area->y2 - rout, inner_area->y2);
 5649              		.loc 1 1195 20 is_stmt 0 view .LVU2085
 5650 00e8 BAF90280 		ldrsh	r8, [r10, #2]
 5651 00ec B4F90290 		ldrsh	r9, [r4, #2]
 5652              	.LVL512:
1195:lvgl/src/draw/sw/lv_draw_sw_rect.c ****     core_area.y2 = LV_MIN(outer_area->y2 - rout, inner_area->y2);
 5653              		.loc 1 1195 20 view .LVU2086
 5654 00f0 07EB0903 		add	r3, r7, r9
 5655 00f4 4345     		cmp	r3, r8
 5656 00f6 B8BF     		it	lt
 5657 00f8 4346     		movlt	r3, r8
1195:lvgl/src/draw/sw/lv_draw_sw_rect.c ****     core_area.y2 = LV_MIN(outer_area->y2 - rout, inner_area->y2);
 5658              		.loc 1 1195 18 view .LVU2087
 5659 00fa 1BB2     		sxth	r3, r3
 5660 00fc 0493     		str	r3, [sp, #16]
 5661 00fe ADF84630 		strh	r3, [sp, #70]	@ movhi
1196:lvgl/src/draw/sw/lv_draw_sw_rect.c ****     lv_coord_t core_w = lv_area_get_width(&core_area);
 5662              		.loc 1 1196 5 is_stmt 1 view .LVU2088
1196:lvgl/src/draw/sw/lv_draw_sw_rect.c ****     lv_coord_t core_w = lv_area_get_width(&core_area);
 5663              		.loc 1 1196 20 is_stmt 0 view .LVU2089
 5664 0102 BAF90600 		ldrsh	r0, [r10, #6]
 5665 0106 B4F906B0 		ldrsh	fp, [r4, #6]
 5666 010a ABEB0703 		sub	r3, fp, r7
 5667 010e 8342     		cmp	r3, r0
 5668 0110 A8BF     		it	ge
 5669 0112 0346     		movge	r3, r0
1196:lvgl/src/draw/sw/lv_draw_sw_rect.c ****     lv_coord_t core_w = lv_area_get_width(&core_area);
 5670              		.loc 1 1196 18 view .LVU2090
 5671 0114 1BB2     		sxth	r3, r3
 5672 0116 0393     		str	r3, [sp, #12]
 5673 0118 ADF84A30 		strh	r3, [sp, #74]	@ movhi
1197:lvgl/src/draw/sw/lv_draw_sw_rect.c **** 
 5674              		.loc 1 1197 5 is_stmt 1 view .LVU2091
 5675              	.LVL513:
 5676              	.LBB210:
 5677              	.LBI210:
 123:lvgl/src/draw/sw/../../misc/lv_area.h **** {
 5678              		.loc 2 123 26 view .LVU2092
 5679              	.LBB211:
 125:lvgl/src/draw/sw/../../misc/lv_area.h **** }
 5680              		.loc 2 125 5 view .LVU2093
ARM GAS  C:\Users\OSD\AppData\Local\Temp\ccS6lZqb.s 			page 162


 125:lvgl/src/draw/sw/../../misc/lv_area.h **** }
 5681              		.loc 2 125 31 is_stmt 0 view .LVU2094
 5682 011c 8BB2     		uxth	r3, r1
 125:lvgl/src/draw/sw/../../misc/lv_area.h **** }
 5683              		.loc 2 125 44 view .LVU2095
 5684 011e 92B2     		uxth	r2, r2
 125:lvgl/src/draw/sw/../../misc/lv_area.h **** }
 5685              		.loc 2 125 36 view .LVU2096
 5686 0120 9B1A     		subs	r3, r3, r2
 5687 0122 9BB2     		uxth	r3, r3
 125:lvgl/src/draw/sw/../../misc/lv_area.h **** }
 5688              		.loc 2 125 49 view .LVU2097
 5689 0124 0133     		adds	r3, r3, #1
 125:lvgl/src/draw/sw/../../misc/lv_area.h **** }
 5690              		.loc 2 125 12 view .LVU2098
 5691 0126 1BB2     		sxth	r3, r3
 5692              	.LVL514:
 125:lvgl/src/draw/sw/../../misc/lv_area.h **** }
 5693              		.loc 2 125 12 view .LVU2099
 5694              	.LBE211:
 5695              	.LBE210:
1199:lvgl/src/draw/sw/lv_draw_sw_rect.c ****     bool bottom_side = outer_area->y2 >= inner_area->y2 ? true : false;
 5696              		.loc 1 1199 5 is_stmt 1 view .LVU2100
1199:lvgl/src/draw/sw/lv_draw_sw_rect.c ****     bool bottom_side = outer_area->y2 >= inner_area->y2 ? true : false;
 5697              		.loc 1 1199 10 is_stmt 0 view .LVU2101
 5698 0128 C845     		cmp	r8, r9
 5699 012a B4BF     		ite	lt
 5700 012c 0022     		movlt	r2, #0
 5701 012e 0122     		movge	r2, #1
 5702 0130 0692     		str	r2, [sp, #24]
 5703              	.LVL515:
1200:lvgl/src/draw/sw/lv_draw_sw_rect.c **** 
 5704              		.loc 1 1200 5 is_stmt 1 view .LVU2102
1200:lvgl/src/draw/sw/lv_draw_sw_rect.c **** 
 5705              		.loc 1 1200 10 is_stmt 0 view .LVU2103
 5706 0132 5845     		cmp	r0, fp
 5707 0134 CCBF     		ite	gt
 5708 0136 0022     		movgt	r2, #0
 5709 0138 0122     		movle	r2, #1
 5710 013a 0792     		str	r2, [sp, #28]
 5711              	.LVL516:
1203:lvgl/src/draw/sw/lv_draw_sw_rect.c ****         blend_area.x1 = draw_area.x1;
 5712              		.loc 1 1203 5 is_stmt 1 view .LVU2104
1203:lvgl/src/draw/sw/lv_draw_sw_rect.c ****         blend_area.x1 = draw_area.x1;
 5713              		.loc 1 1203 7 is_stmt 0 view .LVU2105
 5714 013c 059A     		ldr	r2, [sp, #20]
 5715 013e 42BB     		cbnz	r2, .L361
1229:lvgl/src/draw/sw/lv_draw_sw_rect.c ****     bool right_side = outer_area->x2 >= inner_area->x2 ? true : false;
 5716              		.loc 1 1229 5 is_stmt 1 view .LVU2106
1229:lvgl/src/draw/sw/lv_draw_sw_rect.c ****     bool right_side = outer_area->x2 >= inner_area->x2 ? true : false;
 5717              		.loc 1 1229 10 is_stmt 0 view .LVU2107
 5718 0140 089A     		ldr	r2, [sp, #32]
 5719 0142 0999     		ldr	r1, [sp, #36]
 5720 0144 8A42     		cmp	r2, r1
 5721 0146 B4BF     		ite	lt
 5722 0148 4FF00008 		movlt	r8, #0
 5723 014c 4FF00108 		movge	r8, #1
ARM GAS  C:\Users\OSD\AppData\Local\Temp\ccS6lZqb.s 			page 163


 5724              	.LVL517:
1230:lvgl/src/draw/sw/lv_draw_sw_rect.c **** 
 5725              		.loc 1 1230 5 is_stmt 1 view .LVU2108
1230:lvgl/src/draw/sw/lv_draw_sw_rect.c **** 
 5726              		.loc 1 1230 10 is_stmt 0 view .LVU2109
 5727 0150 0A9A     		ldr	r2, [sp, #40]
 5728 0152 0B99     		ldr	r1, [sp, #44]
 5729 0154 8A42     		cmp	r2, r1
 5730 0156 CCBF     		ite	gt
 5731 0158 4FF00009 		movgt	r9, #0
 5732 015c 4FF00109 		movle	r9, #1
 5733              	.LVL518:
1232:lvgl/src/draw/sw/lv_draw_sw_rect.c ****     if(left_side && right_side && top_side && bottom_side &&
 5734              		.loc 1 1232 5 is_stmt 1 view .LVU2110
1233:lvgl/src/draw/sw/lv_draw_sw_rect.c ****        core_w < SPLIT_LIMIT) {
 5735              		.loc 1 1233 5 view .LVU2111
1233:lvgl/src/draw/sw/lv_draw_sw_rect.c ****        core_w < SPLIT_LIMIT) {
 5736              		.loc 1 1233 7 is_stmt 0 view .LVU2112
 5737 0160 18EA0902 		ands	r2, r8, r9
 5738 0164 5DD0     		beq	.L330
1233:lvgl/src/draw/sw/lv_draw_sw_rect.c ****        core_w < SPLIT_LIMIT) {
 5739              		.loc 1 1233 44 discriminator 1 view .LVU2113
 5740 0166 0699     		ldr	r1, [sp, #24]
 5741 0168 0798     		ldr	r0, [sp, #28]
 5742 016a 0140     		ands	r1, r1, r0
 5743 016c 0291     		str	r1, [sp, #8]
 5744 016e 57D0     		beq	.L355
1233:lvgl/src/draw/sw/lv_draw_sw_rect.c ****        core_w < SPLIT_LIMIT) {
 5745              		.loc 1 1233 59 discriminator 2 view .LVU2114
 5746 0170 312B     		cmp	r3, #49
 5747 0172 56DC     		bgt	.L330
1235:lvgl/src/draw/sw/lv_draw_sw_rect.c ****     }
 5748              		.loc 1 1235 19 view .LVU2115
 5749 0174 059B     		ldr	r3, [sp, #20]
 5750              	.LVL519:
1235:lvgl/src/draw/sw/lv_draw_sw_rect.c ****     }
 5751              		.loc 1 1235 19 view .LVU2116
 5752 0176 0293     		str	r3, [sp, #8]
 5753 0178 53E0     		b	.L330
 5754              	.LVL520:
 5755              	.L360:
1174:lvgl/src/draw/sw/lv_draw_sw_rect.c ****         mask_rout_id = lv_draw_mask_add(&mask_rout_param, NULL);
 5756              		.loc 1 1174 9 is_stmt 1 view .LVU2117
 5757 017a 0023     		movs	r3, #0
 5758 017c 3A46     		mov	r2, r7
 5759 017e 2146     		mov	r1, r4
 5760 0180 1BA8     		add	r0, sp, #108
 5761 0182 FFF7FEFF 		bl	lv_draw_mask_radius_init
 5762              	.LVL521:
1175:lvgl/src/draw/sw/lv_draw_sw_rect.c ****     }
 5763              		.loc 1 1175 9 view .LVU2118
1175:lvgl/src/draw/sw/lv_draw_sw_rect.c ****     }
 5764              		.loc 1 1175 24 is_stmt 0 view .LVU2119
 5765 0186 0021     		movs	r1, #0
 5766 0188 1BA8     		add	r0, sp, #108
 5767 018a FFF7FEFF 		bl	lv_draw_mask_add
 5768              	.LVL522:
ARM GAS  C:\Users\OSD\AppData\Local\Temp\ccS6lZqb.s 			page 164


 5769 018e 0D90     		str	r0, [sp, #52]
 5770              	.LVL523:
1175:lvgl/src/draw/sw/lv_draw_sw_rect.c ****     }
 5771              		.loc 1 1175 24 view .LVU2120
 5772 0190 78E7     		b	.L321
 5773              	.LVL524:
 5774              	.L361:
1204:lvgl/src/draw/sw/lv_draw_sw_rect.c ****         blend_area.x2 = draw_area.x2;
 5775              		.loc 1 1204 9 is_stmt 1 view .LVU2121
1204:lvgl/src/draw/sw/lv_draw_sw_rect.c ****         blend_area.x2 = draw_area.x2;
 5776              		.loc 1 1204 34 is_stmt 0 view .LVU2122
 5777 0192 BDF9A030 		ldrsh	r3, [sp, #160]
 5778              	.LVL525:
1204:lvgl/src/draw/sw/lv_draw_sw_rect.c ****         blend_area.x2 = draw_area.x2;
 5779              		.loc 1 1204 23 view .LVU2123
 5780 0196 ADF84C30 		strh	r3, [sp, #76]	@ movhi
1205:lvgl/src/draw/sw/lv_draw_sw_rect.c ****         for(h = draw_area.y1; h <= draw_area.y2; h++) {
 5781              		.loc 1 1205 9 is_stmt 1 view .LVU2124
1205:lvgl/src/draw/sw/lv_draw_sw_rect.c ****         for(h = draw_area.y1; h <= draw_area.y2; h++) {
 5782              		.loc 1 1205 34 is_stmt 0 view .LVU2125
 5783 019a BDF9A430 		ldrsh	r3, [sp, #164]
1205:lvgl/src/draw/sw/lv_draw_sw_rect.c ****         for(h = draw_area.y1; h <= draw_area.y2; h++) {
 5784              		.loc 1 1205 23 view .LVU2126
 5785 019e ADF85030 		strh	r3, [sp, #80]	@ movhi
1206:lvgl/src/draw/sw/lv_draw_sw_rect.c ****             if(!top_side && h < core_area.y1) continue;
 5786              		.loc 1 1206 9 is_stmt 1 view .LVU2127
1206:lvgl/src/draw/sw/lv_draw_sw_rect.c ****             if(!top_side && h < core_area.y1) continue;
 5787              		.loc 1 1206 26 is_stmt 0 view .LVU2128
 5788 01a2 BDF9A240 		ldrsh	r4, [sp, #162]
 5789              	.LVL526:
1206:lvgl/src/draw/sw/lv_draw_sw_rect.c ****             if(!top_side && h < core_area.y1) continue;
 5790              		.loc 1 1206 26 view .LVU2129
 5791 01a6 8246     		mov	r10, r0
 5792              	.LVL527:
1206:lvgl/src/draw/sw/lv_draw_sw_rect.c ****             if(!top_side && h < core_area.y1) continue;
 5793              		.loc 1 1206 9 view .LVU2130
 5794 01a8 1BE0     		b	.L323
 5795              	.LVL528:
 5796              	.L324:
1208:lvgl/src/draw/sw/lv_draw_sw_rect.c **** 
 5797              		.loc 1 1208 13 is_stmt 1 view .LVU2131
1208:lvgl/src/draw/sw/lv_draw_sw_rect.c **** 
 5798              		.loc 1 1208 15 is_stmt 0 view .LVU2132
 5799 01aa DA45     		cmp	r10, fp
 5800 01ac 02DD     		ble	.L326
1208:lvgl/src/draw/sw/lv_draw_sw_rect.c **** 
 5801              		.loc 1 1208 29 discriminator 1 view .LVU2133
 5802 01ae 039B     		ldr	r3, [sp, #12]
 5803 01b0 A342     		cmp	r3, r4
 5804 01b2 20DB     		blt	.L327
 5805              	.L326:
1210:lvgl/src/draw/sw/lv_draw_sw_rect.c ****             blend_area.y2 = h;
 5806              		.loc 1 1210 13 is_stmt 1 view .LVU2134
1210:lvgl/src/draw/sw/lv_draw_sw_rect.c ****             blend_area.y2 = h;
 5807              		.loc 1 1210 27 is_stmt 0 view .LVU2135
 5808 01b4 27B2     		sxth	r7, r4
 5809 01b6 ADF84E70 		strh	r7, [sp, #78]	@ movhi
ARM GAS  C:\Users\OSD\AppData\Local\Temp\ccS6lZqb.s 			page 165


1211:lvgl/src/draw/sw/lv_draw_sw_rect.c **** 
 5810              		.loc 1 1211 13 is_stmt 1 view .LVU2136
1211:lvgl/src/draw/sw/lv_draw_sw_rect.c **** 
 5811              		.loc 1 1211 27 is_stmt 0 view .LVU2137
 5812 01ba ADF85270 		strh	r7, [sp, #82]	@ movhi
1213:lvgl/src/draw/sw/lv_draw_sw_rect.c ****             blend_dsc.mask_res = lv_draw_mask_apply(blend_dsc.mask_buf, draw_area.x1, h, draw_area_
 5813              		.loc 1 1213 13 is_stmt 1 view .LVU2138
 5814 01be 2946     		mov	r1, r5
 5815 01c0 2498     		ldr	r0, [sp, #144]
 5816 01c2 FFF7FEFF 		bl	lv_memset_ff
 5817              	.LVL529:
1214:lvgl/src/draw/sw/lv_draw_sw_rect.c ****             lv_draw_sw_blend(draw_ctx, &blend_dsc);
 5818              		.loc 1 1214 13 view .LVU2139
1214:lvgl/src/draw/sw/lv_draw_sw_rect.c ****             lv_draw_sw_blend(draw_ctx, &blend_dsc);
 5819              		.loc 1 1214 34 is_stmt 0 view .LVU2140
 5820 01c6 2B46     		mov	r3, r5
 5821 01c8 3A46     		mov	r2, r7
 5822 01ca BDF9A010 		ldrsh	r1, [sp, #160]
 5823 01ce 2498     		ldr	r0, [sp, #144]
 5824 01d0 FFF7FEFF 		bl	lv_draw_mask_apply
 5825              	.LVL530:
1214:lvgl/src/draw/sw/lv_draw_sw_rect.c ****             lv_draw_sw_blend(draw_ctx, &blend_dsc);
 5826              		.loc 1 1214 32 view .LVU2141
 5827 01d4 8DF89400 		strb	r0, [sp, #148]
1215:lvgl/src/draw/sw/lv_draw_sw_rect.c ****         }
 5828              		.loc 1 1215 13 is_stmt 1 view .LVU2142
 5829 01d8 21A9     		add	r1, sp, #132
 5830 01da 3046     		mov	r0, r6
 5831 01dc FFF7FEFF 		bl	lv_draw_sw_blend
 5832              	.LVL531:
 5833              	.L325:
1206:lvgl/src/draw/sw/lv_draw_sw_rect.c ****             if(!top_side && h < core_area.y1) continue;
 5834              		.loc 1 1206 50 discriminator 2 view .LVU2143
1206:lvgl/src/draw/sw/lv_draw_sw_rect.c ****             if(!top_side && h < core_area.y1) continue;
 5835              		.loc 1 1206 51 is_stmt 0 discriminator 2 view .LVU2144
 5836 01e0 0134     		adds	r4, r4, #1
 5837              	.LVL532:
 5838              	.L323:
1206:lvgl/src/draw/sw/lv_draw_sw_rect.c ****             if(!top_side && h < core_area.y1) continue;
 5839              		.loc 1 1206 31 is_stmt 1 discriminator 1 view .LVU2145
1206:lvgl/src/draw/sw/lv_draw_sw_rect.c ****             if(!top_side && h < core_area.y1) continue;
 5840              		.loc 1 1206 45 is_stmt 0 discriminator 1 view .LVU2146
 5841 01e2 BDF9A630 		ldrsh	r3, [sp, #166]
1206:lvgl/src/draw/sw/lv_draw_sw_rect.c ****             if(!top_side && h < core_area.y1) continue;
 5842              		.loc 1 1206 9 discriminator 1 view .LVU2147
 5843 01e6 A342     		cmp	r3, r4
 5844 01e8 05DB     		blt	.L327
1207:lvgl/src/draw/sw/lv_draw_sw_rect.c ****             if(!bottom_side && h > core_area.y2) break;
 5845              		.loc 1 1207 13 is_stmt 1 view .LVU2148
1207:lvgl/src/draw/sw/lv_draw_sw_rect.c ****             if(!bottom_side && h > core_area.y2) break;
 5846              		.loc 1 1207 15 is_stmt 0 view .LVU2149
 5847 01ea C845     		cmp	r8, r9
 5848 01ec DDDA     		bge	.L324
1207:lvgl/src/draw/sw/lv_draw_sw_rect.c ****             if(!bottom_side && h > core_area.y2) break;
 5849              		.loc 1 1207 26 discriminator 1 view .LVU2150
 5850 01ee 049B     		ldr	r3, [sp, #16]
 5851 01f0 A342     		cmp	r3, r4
ARM GAS  C:\Users\OSD\AppData\Local\Temp\ccS6lZqb.s 			page 166


 5852 01f2 DADD     		ble	.L324
 5853 01f4 F4E7     		b	.L325
 5854              	.L327:
1218:lvgl/src/draw/sw/lv_draw_sw_rect.c ****         lv_draw_mask_remove_id(mask_rin_id);
 5855              		.loc 1 1218 9 is_stmt 1 view .LVU2151
 5856 01f6 15A8     		add	r0, sp, #84
 5857 01f8 FFF7FEFF 		bl	lv_draw_mask_free_param
 5858              	.LVL533:
1219:lvgl/src/draw/sw/lv_draw_sw_rect.c ****         if(mask_rout_id != LV_MASK_ID_INV) {
 5859              		.loc 1 1219 9 view .LVU2152
 5860 01fc 0C98     		ldr	r0, [sp, #48]
 5861 01fe FFF7FEFF 		bl	lv_draw_mask_remove_id
 5862              	.LVL534:
1220:lvgl/src/draw/sw/lv_draw_sw_rect.c ****             lv_draw_mask_free_param(&mask_rout_param);
 5863              		.loc 1 1220 9 view .LVU2153
1220:lvgl/src/draw/sw/lv_draw_sw_rect.c ****             lv_draw_mask_free_param(&mask_rout_param);
 5864              		.loc 1 1220 11 is_stmt 0 view .LVU2154
 5865 0202 0D9C     		ldr	r4, [sp, #52]
 5866              	.LVL535:
1220:lvgl/src/draw/sw/lv_draw_sw_rect.c ****             lv_draw_mask_free_param(&mask_rout_param);
 5867              		.loc 1 1220 11 view .LVU2155
 5868 0204 B4F1FF3F 		cmp	r4, #-1
 5869 0208 03D1     		bne	.L362
 5870              	.L329:
1224:lvgl/src/draw/sw/lv_draw_sw_rect.c ****         return;
 5871              		.loc 1 1224 9 is_stmt 1 view .LVU2156
 5872 020a 2498     		ldr	r0, [sp, #144]
 5873 020c FFF7FEFF 		bl	lv_mem_buf_release
 5874              	.LVL536:
1225:lvgl/src/draw/sw/lv_draw_sw_rect.c ****     }
 5875              		.loc 1 1225 9 view .LVU2157
 5876 0210 17E7     		b	.L318
 5877              	.L362:
1221:lvgl/src/draw/sw/lv_draw_sw_rect.c ****             lv_draw_mask_remove_id(mask_rout_id);
 5878              		.loc 1 1221 13 view .LVU2158
 5879 0212 1BA8     		add	r0, sp, #108
 5880 0214 FFF7FEFF 		bl	lv_draw_mask_free_param
 5881              	.LVL537:
1222:lvgl/src/draw/sw/lv_draw_sw_rect.c ****         }
 5882              		.loc 1 1222 13 view .LVU2159
 5883 0218 2046     		mov	r0, r4
 5884 021a FFF7FEFF 		bl	lv_draw_mask_remove_id
 5885              	.LVL538:
 5886 021e F4E7     		b	.L329
 5887              	.LVL539:
 5888              	.L355:
1232:lvgl/src/draw/sw/lv_draw_sw_rect.c ****     if(left_side && right_side && top_side && bottom_side &&
 5889              		.loc 1 1232 10 is_stmt 0 view .LVU2160
 5890 0220 0292     		str	r2, [sp, #8]
 5891              	.LVL540:
 5892              	.L330:
1238:lvgl/src/draw/sw/lv_draw_sw_rect.c ****     /*Draw the straight lines first if they are long enough*/
 5893              		.loc 1 1238 5 is_stmt 1 view .LVU2161
1238:lvgl/src/draw/sw/lv_draw_sw_rect.c ****     /*Draw the straight lines first if they are long enough*/
 5894              		.loc 1 1238 24 is_stmt 0 view .LVU2162
 5895 0222 0123     		movs	r3, #1
 5896 0224 8DF89430 		strb	r3, [sp, #148]
ARM GAS  C:\Users\OSD\AppData\Local\Temp\ccS6lZqb.s 			page 167


1240:lvgl/src/draw/sw/lv_draw_sw_rect.c ****         blend_area.x1 = core_area.x1;
 5897              		.loc 1 1240 5 is_stmt 1 view .LVU2163
1240:lvgl/src/draw/sw/lv_draw_sw_rect.c ****         blend_area.x1 = core_area.x1;
 5898              		.loc 1 1240 7 is_stmt 0 view .LVU2164
 5899 0228 029B     		ldr	r3, [sp, #8]
 5900 022a 069A     		ldr	r2, [sp, #24]
 5901 022c 1342     		tst	r3, r2
 5902 022e 26D1     		bne	.L363
 5903              	.LVL541:
 5904              	.L331:
1248:lvgl/src/draw/sw/lv_draw_sw_rect.c ****         blend_area.x1 = core_area.x1;
 5905              		.loc 1 1248 5 is_stmt 1 view .LVU2165
1248:lvgl/src/draw/sw/lv_draw_sw_rect.c ****         blend_area.x1 = core_area.x1;
 5906              		.loc 1 1248 7 is_stmt 0 view .LVU2166
 5907 0230 029B     		ldr	r3, [sp, #8]
 5908 0232 079A     		ldr	r2, [sp, #28]
 5909 0234 1342     		tst	r3, r2
 5910 0236 36D1     		bne	.L364
 5911              	.L332:
1256:lvgl/src/draw/sw/lv_draw_sw_rect.c ****         blend_area.x1 = outer_area->x1;
 5912              		.loc 1 1256 5 is_stmt 1 view .LVU2167
1256:lvgl/src/draw/sw/lv_draw_sw_rect.c ****         blend_area.x1 = outer_area->x1;
 5913              		.loc 1 1256 7 is_stmt 0 view .LVU2168
 5914 0238 089B     		ldr	r3, [sp, #32]
 5915 023a 099A     		ldr	r2, [sp, #36]
 5916 023c 9342     		cmp	r3, r2
 5917 023e 46DA     		bge	.L365
 5918              	.L333:
1264:lvgl/src/draw/sw/lv_draw_sw_rect.c ****         blend_area.x1 = inner_area->x2 + 1;
 5919              		.loc 1 1264 5 is_stmt 1 view .LVU2169
1264:lvgl/src/draw/sw/lv_draw_sw_rect.c ****         blend_area.x1 = inner_area->x2 + 1;
 5920              		.loc 1 1264 7 is_stmt 0 view .LVU2170
 5921 0240 0A9B     		ldr	r3, [sp, #40]
 5922 0242 0B9A     		ldr	r2, [sp, #44]
 5923 0244 9342     		cmp	r3, r2
 5924 0246 56DD     		ble	.L366
 5925              	.L334:
1273:lvgl/src/draw/sw/lv_draw_sw_rect.c **** 
 5926              		.loc 1 1273 5 is_stmt 1 view .LVU2171
1276:lvgl/src/draw/sw/lv_draw_sw_rect.c ****         /*Calculate the top corner and mirror it to the bottom*/
 5927              		.loc 1 1276 5 view .LVU2172
1276:lvgl/src/draw/sw/lv_draw_sw_rect.c ****         /*Calculate the top corner and mirror it to the bottom*/
 5928              		.loc 1 1276 7 is_stmt 0 view .LVU2173
 5929 0248 029B     		ldr	r3, [sp, #8]
 5930 024a 002B     		cmp	r3, #0
 5931 024c 40F0A780 		bne	.L335
 5932              	.LBB212:
1278:lvgl/src/draw/sw/lv_draw_sw_rect.c ****         blend_area.x2 = draw_area.x2;
 5933              		.loc 1 1278 9 is_stmt 1 view .LVU2174
1278:lvgl/src/draw/sw/lv_draw_sw_rect.c ****         blend_area.x2 = draw_area.x2;
 5934              		.loc 1 1278 34 is_stmt 0 view .LVU2175
 5935 0250 BDF9A030 		ldrsh	r3, [sp, #160]
1278:lvgl/src/draw/sw/lv_draw_sw_rect.c ****         blend_area.x2 = draw_area.x2;
 5936              		.loc 1 1278 23 view .LVU2176
 5937 0254 ADF84C30 		strh	r3, [sp, #76]	@ movhi
1279:lvgl/src/draw/sw/lv_draw_sw_rect.c ****         lv_coord_t max_h = LV_MAX(rout, inner_area->y1 - outer_area->y1);
 5938              		.loc 1 1279 9 is_stmt 1 view .LVU2177
ARM GAS  C:\Users\OSD\AppData\Local\Temp\ccS6lZqb.s 			page 168


1279:lvgl/src/draw/sw/lv_draw_sw_rect.c ****         lv_coord_t max_h = LV_MAX(rout, inner_area->y1 - outer_area->y1);
 5939              		.loc 1 1279 34 is_stmt 0 view .LVU2178
 5940 0258 BDF9A430 		ldrsh	r3, [sp, #164]
1279:lvgl/src/draw/sw/lv_draw_sw_rect.c ****         lv_coord_t max_h = LV_MAX(rout, inner_area->y1 - outer_area->y1);
 5941              		.loc 1 1279 23 view .LVU2179
 5942 025c ADF85030 		strh	r3, [sp, #80]	@ movhi
1280:lvgl/src/draw/sw/lv_draw_sw_rect.c ****         for(h = 0; h < max_h; h++) {
 5943              		.loc 1 1280 9 is_stmt 1 view .LVU2180
1280:lvgl/src/draw/sw/lv_draw_sw_rect.c ****         for(h = 0; h < max_h; h++) {
 5944              		.loc 1 1280 28 is_stmt 0 view .LVU2181
 5945 0260 BAF90290 		ldrsh	r9, [r10, #2]
 5946              	.LVL542:
1280:lvgl/src/draw/sw/lv_draw_sw_rect.c ****         for(h = 0; h < max_h; h++) {
 5947              		.loc 1 1280 28 view .LVU2182
 5948 0264 B4F90230 		ldrsh	r3, [r4, #2]
 5949 0268 A9EB0309 		sub	r9, r9, r3
 5950 026c 3B46     		mov	r3, r7
 5951 026e 4F45     		cmp	r7, r9
 5952 0270 B8BF     		it	lt
 5953 0272 4B46     		movlt	r3, r9
1280:lvgl/src/draw/sw/lv_draw_sw_rect.c ****         for(h = 0; h < max_h; h++) {
 5954              		.loc 1 1280 20 view .LVU2183
 5955 0274 0FFA83F9 		sxth	r9, r3
 5956              	.LVL543:
1281:lvgl/src/draw/sw/lv_draw_sw_rect.c ****             lv_coord_t top_y = outer_area->y1 + h;
 5957              		.loc 1 1281 9 is_stmt 1 view .LVU2184
1281:lvgl/src/draw/sw/lv_draw_sw_rect.c ****             lv_coord_t top_y = outer_area->y1 + h;
 5958              		.loc 1 1281 15 is_stmt 0 view .LVU2185
 5959 0278 4FF0000A 		mov	r10, #0
 5960              	.LVL544:
1281:lvgl/src/draw/sw/lv_draw_sw_rect.c ****             lv_coord_t top_y = outer_area->y1 + h;
 5961              		.loc 1 1281 9 view .LVU2186
 5962 027c 66E0     		b	.L336
 5963              	.LVL545:
 5964              	.L363:
1281:lvgl/src/draw/sw/lv_draw_sw_rect.c ****             lv_coord_t top_y = outer_area->y1 + h;
 5965              		.loc 1 1281 9 view .LVU2187
 5966              	.LBE212:
1241:lvgl/src/draw/sw/lv_draw_sw_rect.c ****         blend_area.x2 = core_area.x2;
 5967              		.loc 1 1241 9 is_stmt 1 view .LVU2188
1241:lvgl/src/draw/sw/lv_draw_sw_rect.c ****         blend_area.x2 = core_area.x2;
 5968              		.loc 1 1241 23 is_stmt 0 view .LVU2189
 5969 027e 0E9B     		ldr	r3, [sp, #56]
 5970 0280 ADF84C30 		strh	r3, [sp, #76]	@ movhi
1242:lvgl/src/draw/sw/lv_draw_sw_rect.c ****         blend_area.y1 = outer_area->y1;
 5971              		.loc 1 1242 9 is_stmt 1 view .LVU2190
1242:lvgl/src/draw/sw/lv_draw_sw_rect.c ****         blend_area.y1 = outer_area->y1;
 5972              		.loc 1 1242 23 is_stmt 0 view .LVU2191
 5973 0284 0F9B     		ldr	r3, [sp, #60]
 5974 0286 ADF85030 		strh	r3, [sp, #80]	@ movhi
1243:lvgl/src/draw/sw/lv_draw_sw_rect.c ****         blend_area.y2 = inner_area->y1 - 1;
 5975              		.loc 1 1243 9 is_stmt 1 view .LVU2192
1243:lvgl/src/draw/sw/lv_draw_sw_rect.c ****         blend_area.y2 = inner_area->y1 - 1;
 5976              		.loc 1 1243 35 is_stmt 0 view .LVU2193
 5977 028a B4F90230 		ldrsh	r3, [r4, #2]
1243:lvgl/src/draw/sw/lv_draw_sw_rect.c ****         blend_area.y2 = inner_area->y1 - 1;
 5978              		.loc 1 1243 23 view .LVU2194
ARM GAS  C:\Users\OSD\AppData\Local\Temp\ccS6lZqb.s 			page 169


 5979 028e ADF84E30 		strh	r3, [sp, #78]	@ movhi
1244:lvgl/src/draw/sw/lv_draw_sw_rect.c ****         lv_draw_sw_blend(draw_ctx, &blend_dsc);
 5980              		.loc 1 1244 9 is_stmt 1 view .LVU2195
1244:lvgl/src/draw/sw/lv_draw_sw_rect.c ****         lv_draw_sw_blend(draw_ctx, &blend_dsc);
 5981              		.loc 1 1244 35 is_stmt 0 view .LVU2196
 5982 0292 BAF80230 		ldrh	r3, [r10, #2]
1244:lvgl/src/draw/sw/lv_draw_sw_rect.c ****         lv_draw_sw_blend(draw_ctx, &blend_dsc);
 5983              		.loc 1 1244 40 view .LVU2197
 5984 0296 013B     		subs	r3, r3, #1
1244:lvgl/src/draw/sw/lv_draw_sw_rect.c ****         lv_draw_sw_blend(draw_ctx, &blend_dsc);
 5985              		.loc 1 1244 23 view .LVU2198
 5986 0298 ADF85230 		strh	r3, [sp, #82]	@ movhi
1245:lvgl/src/draw/sw/lv_draw_sw_rect.c ****     }
 5987              		.loc 1 1245 9 is_stmt 1 view .LVU2199
 5988 029c 21A9     		add	r1, sp, #132
 5989 029e 3046     		mov	r0, r6
 5990 02a0 FFF7FEFF 		bl	lv_draw_sw_blend
 5991              	.LVL546:
1245:lvgl/src/draw/sw/lv_draw_sw_rect.c ****     }
 5992              		.loc 1 1245 9 is_stmt 0 view .LVU2200
 5993 02a4 C4E7     		b	.L331
 5994              	.L364:
1249:lvgl/src/draw/sw/lv_draw_sw_rect.c ****         blend_area.x2 = core_area.x2;
 5995              		.loc 1 1249 9 is_stmt 1 view .LVU2201
1249:lvgl/src/draw/sw/lv_draw_sw_rect.c ****         blend_area.x2 = core_area.x2;
 5996              		.loc 1 1249 23 is_stmt 0 view .LVU2202
 5997 02a6 0E9B     		ldr	r3, [sp, #56]
 5998 02a8 ADF84C30 		strh	r3, [sp, #76]	@ movhi
1250:lvgl/src/draw/sw/lv_draw_sw_rect.c ****         blend_area.y1 = inner_area->y2 + 1;
 5999              		.loc 1 1250 9 is_stmt 1 view .LVU2203
1250:lvgl/src/draw/sw/lv_draw_sw_rect.c ****         blend_area.y1 = inner_area->y2 + 1;
 6000              		.loc 1 1250 23 is_stmt 0 view .LVU2204
 6001 02ac 0F9B     		ldr	r3, [sp, #60]
 6002 02ae ADF85030 		strh	r3, [sp, #80]	@ movhi
1251:lvgl/src/draw/sw/lv_draw_sw_rect.c ****         blend_area.y2 = outer_area->y2;
 6003              		.loc 1 1251 9 is_stmt 1 view .LVU2205
1251:lvgl/src/draw/sw/lv_draw_sw_rect.c ****         blend_area.y2 = outer_area->y2;
 6004              		.loc 1 1251 35 is_stmt 0 view .LVU2206
 6005 02b2 BAF80630 		ldrh	r3, [r10, #6]
1251:lvgl/src/draw/sw/lv_draw_sw_rect.c ****         blend_area.y2 = outer_area->y2;
 6006              		.loc 1 1251 40 view .LVU2207
 6007 02b6 0133     		adds	r3, r3, #1
1251:lvgl/src/draw/sw/lv_draw_sw_rect.c ****         blend_area.y2 = outer_area->y2;
 6008              		.loc 1 1251 23 view .LVU2208
 6009 02b8 ADF84E30 		strh	r3, [sp, #78]	@ movhi
1252:lvgl/src/draw/sw/lv_draw_sw_rect.c ****         lv_draw_sw_blend(draw_ctx, &blend_dsc);
 6010              		.loc 1 1252 9 is_stmt 1 view .LVU2209
1252:lvgl/src/draw/sw/lv_draw_sw_rect.c ****         lv_draw_sw_blend(draw_ctx, &blend_dsc);
 6011              		.loc 1 1252 35 is_stmt 0 view .LVU2210
 6012 02bc B4F90630 		ldrsh	r3, [r4, #6]
1252:lvgl/src/draw/sw/lv_draw_sw_rect.c ****         lv_draw_sw_blend(draw_ctx, &blend_dsc);
 6013              		.loc 1 1252 23 view .LVU2211
 6014 02c0 ADF85230 		strh	r3, [sp, #82]	@ movhi
1253:lvgl/src/draw/sw/lv_draw_sw_rect.c ****     }
 6015              		.loc 1 1253 9 is_stmt 1 view .LVU2212
 6016 02c4 21A9     		add	r1, sp, #132
 6017 02c6 3046     		mov	r0, r6
ARM GAS  C:\Users\OSD\AppData\Local\Temp\ccS6lZqb.s 			page 170


 6018 02c8 FFF7FEFF 		bl	lv_draw_sw_blend
 6019              	.LVL547:
 6020 02cc B4E7     		b	.L332
 6021              	.L365:
1257:lvgl/src/draw/sw/lv_draw_sw_rect.c ****         blend_area.x2 = inner_area->x1 - 1;
 6022              		.loc 1 1257 9 view .LVU2213
1257:lvgl/src/draw/sw/lv_draw_sw_rect.c ****         blend_area.x2 = inner_area->x1 - 1;
 6023              		.loc 1 1257 35 is_stmt 0 view .LVU2214
 6024 02ce B4F90030 		ldrsh	r3, [r4]
1257:lvgl/src/draw/sw/lv_draw_sw_rect.c ****         blend_area.x2 = inner_area->x1 - 1;
 6025              		.loc 1 1257 23 view .LVU2215
 6026 02d2 ADF84C30 		strh	r3, [sp, #76]	@ movhi
1258:lvgl/src/draw/sw/lv_draw_sw_rect.c ****         blend_area.y1 = core_area.y1;
 6027              		.loc 1 1258 9 is_stmt 1 view .LVU2216
1258:lvgl/src/draw/sw/lv_draw_sw_rect.c ****         blend_area.y1 = core_area.y1;
 6028              		.loc 1 1258 35 is_stmt 0 view .LVU2217
 6029 02d6 BAF80030 		ldrh	r3, [r10]
1258:lvgl/src/draw/sw/lv_draw_sw_rect.c ****         blend_area.y1 = core_area.y1;
 6030              		.loc 1 1258 40 view .LVU2218
 6031 02da 013B     		subs	r3, r3, #1
1258:lvgl/src/draw/sw/lv_draw_sw_rect.c ****         blend_area.y1 = core_area.y1;
 6032              		.loc 1 1258 23 view .LVU2219
 6033 02dc ADF85030 		strh	r3, [sp, #80]	@ movhi
1259:lvgl/src/draw/sw/lv_draw_sw_rect.c ****         blend_area.y2 = core_area.y2;
 6034              		.loc 1 1259 9 is_stmt 1 view .LVU2220
1259:lvgl/src/draw/sw/lv_draw_sw_rect.c ****         blend_area.y2 = core_area.y2;
 6035              		.loc 1 1259 23 is_stmt 0 view .LVU2221
 6036 02e0 049B     		ldr	r3, [sp, #16]
 6037 02e2 ADF84E30 		strh	r3, [sp, #78]	@ movhi
1260:lvgl/src/draw/sw/lv_draw_sw_rect.c ****         lv_draw_sw_blend(draw_ctx, &blend_dsc);
 6038              		.loc 1 1260 9 is_stmt 1 view .LVU2222
1260:lvgl/src/draw/sw/lv_draw_sw_rect.c ****         lv_draw_sw_blend(draw_ctx, &blend_dsc);
 6039              		.loc 1 1260 23 is_stmt 0 view .LVU2223
 6040 02e6 039B     		ldr	r3, [sp, #12]
 6041 02e8 ADF85230 		strh	r3, [sp, #82]	@ movhi
1261:lvgl/src/draw/sw/lv_draw_sw_rect.c ****     }
 6042              		.loc 1 1261 9 is_stmt 1 view .LVU2224
 6043 02ec 21A9     		add	r1, sp, #132
 6044 02ee 3046     		mov	r0, r6
 6045 02f0 FFF7FEFF 		bl	lv_draw_sw_blend
 6046              	.LVL548:
 6047 02f4 A4E7     		b	.L333
 6048              	.L366:
1265:lvgl/src/draw/sw/lv_draw_sw_rect.c ****         blend_area.x2 = outer_area->x2;
 6049              		.loc 1 1265 9 view .LVU2225
1265:lvgl/src/draw/sw/lv_draw_sw_rect.c ****         blend_area.x2 = outer_area->x2;
 6050              		.loc 1 1265 35 is_stmt 0 view .LVU2226
 6051 02f6 BAF80430 		ldrh	r3, [r10, #4]
1265:lvgl/src/draw/sw/lv_draw_sw_rect.c ****         blend_area.x2 = outer_area->x2;
 6052              		.loc 1 1265 40 view .LVU2227
 6053 02fa 0133     		adds	r3, r3, #1
1265:lvgl/src/draw/sw/lv_draw_sw_rect.c ****         blend_area.x2 = outer_area->x2;
 6054              		.loc 1 1265 23 view .LVU2228
 6055 02fc ADF84C30 		strh	r3, [sp, #76]	@ movhi
1266:lvgl/src/draw/sw/lv_draw_sw_rect.c ****         blend_area.y1 = core_area.y1;
 6056              		.loc 1 1266 9 is_stmt 1 view .LVU2229
1266:lvgl/src/draw/sw/lv_draw_sw_rect.c ****         blend_area.y1 = core_area.y1;
ARM GAS  C:\Users\OSD\AppData\Local\Temp\ccS6lZqb.s 			page 171


 6057              		.loc 1 1266 35 is_stmt 0 view .LVU2230
 6058 0300 B4F90430 		ldrsh	r3, [r4, #4]
1266:lvgl/src/draw/sw/lv_draw_sw_rect.c ****         blend_area.y1 = core_area.y1;
 6059              		.loc 1 1266 23 view .LVU2231
 6060 0304 ADF85030 		strh	r3, [sp, #80]	@ movhi
1267:lvgl/src/draw/sw/lv_draw_sw_rect.c ****         blend_area.y2 = core_area.y2;
 6061              		.loc 1 1267 9 is_stmt 1 view .LVU2232
1267:lvgl/src/draw/sw/lv_draw_sw_rect.c ****         blend_area.y2 = core_area.y2;
 6062              		.loc 1 1267 23 is_stmt 0 view .LVU2233
 6063 0308 049B     		ldr	r3, [sp, #16]
 6064 030a ADF84E30 		strh	r3, [sp, #78]	@ movhi
1268:lvgl/src/draw/sw/lv_draw_sw_rect.c ****         lv_draw_sw_blend(draw_ctx, &blend_dsc);
 6065              		.loc 1 1268 9 is_stmt 1 view .LVU2234
1268:lvgl/src/draw/sw/lv_draw_sw_rect.c ****         lv_draw_sw_blend(draw_ctx, &blend_dsc);
 6066              		.loc 1 1268 23 is_stmt 0 view .LVU2235
 6067 030e 039B     		ldr	r3, [sp, #12]
 6068 0310 ADF85230 		strh	r3, [sp, #82]	@ movhi
1269:lvgl/src/draw/sw/lv_draw_sw_rect.c ****     }
 6069              		.loc 1 1269 9 is_stmt 1 view .LVU2236
 6070 0314 21A9     		add	r1, sp, #132
 6071 0316 3046     		mov	r0, r6
 6072 0318 FFF7FEFF 		bl	lv_draw_sw_blend
 6073              	.LVL549:
 6074 031c 94E7     		b	.L334
 6075              	.LVL550:
 6076              	.L337:
 6077              	.LBB215:
 6078              	.LBB213:
1286:lvgl/src/draw/sw/lv_draw_sw_rect.c ****             blend_dsc.mask_res = lv_draw_mask_apply(blend_dsc.mask_buf, blend_area.x1, top_y, draw_
 6079              		.loc 1 1286 13 view .LVU2237
 6080 031e 2946     		mov	r1, r5
 6081 0320 2498     		ldr	r0, [sp, #144]
 6082 0322 FFF7FEFF 		bl	lv_memset_ff
 6083              	.LVL551:
1287:lvgl/src/draw/sw/lv_draw_sw_rect.c **** 
 6084              		.loc 1 1287 13 view .LVU2238
1287:lvgl/src/draw/sw/lv_draw_sw_rect.c **** 
 6085              		.loc 1 1287 34 is_stmt 0 view .LVU2239
 6086 0326 2B46     		mov	r3, r5
 6087 0328 3A46     		mov	r2, r7
 6088 032a BDF94C10 		ldrsh	r1, [sp, #76]
 6089 032e 2498     		ldr	r0, [sp, #144]
 6090 0330 FFF7FEFF 		bl	lv_draw_mask_apply
 6091              	.LVL552:
1287:lvgl/src/draw/sw/lv_draw_sw_rect.c **** 
 6092              		.loc 1 1287 32 view .LVU2240
 6093 0334 8DF89400 		strb	r0, [sp, #148]
1289:lvgl/src/draw/sw/lv_draw_sw_rect.c ****                 blend_area.y1 = top_y;
 6094              		.loc 1 1289 13 is_stmt 1 view .LVU2241
1289:lvgl/src/draw/sw/lv_draw_sw_rect.c ****                 blend_area.y1 = top_y;
 6095              		.loc 1 1289 34 is_stmt 0 view .LVU2242
 6096 0338 BDF9A230 		ldrsh	r3, [sp, #162]
1289:lvgl/src/draw/sw/lv_draw_sw_rect.c ****                 blend_area.y1 = top_y;
 6097              		.loc 1 1289 15 view .LVU2243
 6098 033c BB42     		cmp	r3, r7
 6099 033e 1CDD     		ble	.L367
 6100              	.L339:
ARM GAS  C:\Users\OSD\AppData\Local\Temp\ccS6lZqb.s 			page 172


1295:lvgl/src/draw/sw/lv_draw_sw_rect.c ****                 blend_area.y1 = bottom_y;
 6101              		.loc 1 1295 13 is_stmt 1 view .LVU2244
1295:lvgl/src/draw/sw/lv_draw_sw_rect.c ****                 blend_area.y1 = bottom_y;
 6102              		.loc 1 1295 37 is_stmt 0 view .LVU2245
 6103 0340 BDF9A630 		ldrsh	r3, [sp, #166]
1295:lvgl/src/draw/sw/lv_draw_sw_rect.c ****                 blend_area.y1 = bottom_y;
 6104              		.loc 1 1295 15 view .LVU2246
 6105 0344 4345     		cmp	r3, r8
 6106 0346 21DA     		bge	.L368
 6107              	.L338:
 6108              	.LBE213:
1281:lvgl/src/draw/sw/lv_draw_sw_rect.c ****             lv_coord_t top_y = outer_area->y1 + h;
 6109              		.loc 1 1281 31 is_stmt 1 discriminator 2 view .LVU2247
1281:lvgl/src/draw/sw/lv_draw_sw_rect.c ****             lv_coord_t top_y = outer_area->y1 + h;
 6110              		.loc 1 1281 32 is_stmt 0 discriminator 2 view .LVU2248
 6111 0348 0AF1010A 		add	r10, r10, #1
 6112              	.LVL553:
 6113              	.L336:
1281:lvgl/src/draw/sw/lv_draw_sw_rect.c ****             lv_coord_t top_y = outer_area->y1 + h;
 6114              		.loc 1 1281 20 is_stmt 1 discriminator 1 view .LVU2249
1281:lvgl/src/draw/sw/lv_draw_sw_rect.c ****             lv_coord_t top_y = outer_area->y1 + h;
 6115              		.loc 1 1281 9 is_stmt 0 discriminator 1 view .LVU2250
 6116 034c D145     		cmp	r9, r10
 6117 034e 40F3DA80 		ble	.L341
 6118              	.LBB214:
1282:lvgl/src/draw/sw/lv_draw_sw_rect.c ****             lv_coord_t bottom_y = outer_area->y2 - h;
 6119              		.loc 1 1282 13 is_stmt 1 view .LVU2251
1282:lvgl/src/draw/sw/lv_draw_sw_rect.c ****             lv_coord_t bottom_y = outer_area->y2 - h;
 6120              		.loc 1 1282 42 is_stmt 0 view .LVU2252
 6121 0352 6788     		ldrh	r7, [r4, #2]
1282:lvgl/src/draw/sw/lv_draw_sw_rect.c ****             lv_coord_t bottom_y = outer_area->y2 - h;
 6122              		.loc 1 1282 47 view .LVU2253
 6123 0354 1FFA8AF3 		uxth	r3, r10
 6124 0358 1F44     		add	r7, r7, r3
1282:lvgl/src/draw/sw/lv_draw_sw_rect.c ****             lv_coord_t bottom_y = outer_area->y2 - h;
 6125              		.loc 1 1282 24 view .LVU2254
 6126 035a 3FB2     		sxth	r7, r7
 6127              	.LVL554:
1283:lvgl/src/draw/sw/lv_draw_sw_rect.c ****             if(top_y < draw_area.y1 && bottom_y > draw_area.y2) continue;   /*This line is clipped 
 6128              		.loc 1 1283 13 is_stmt 1 view .LVU2255
1283:lvgl/src/draw/sw/lv_draw_sw_rect.c ****             if(top_y < draw_area.y1 && bottom_y > draw_area.y2) continue;   /*This line is clipped 
 6129              		.loc 1 1283 45 is_stmt 0 view .LVU2256
 6130 035c B4F80680 		ldrh	r8, [r4, #6]
1283:lvgl/src/draw/sw/lv_draw_sw_rect.c ****             if(top_y < draw_area.y1 && bottom_y > draw_area.y2) continue;   /*This line is clipped 
 6131              		.loc 1 1283 50 view .LVU2257
 6132 0360 A8EB0308 		sub	r8, r8, r3
1283:lvgl/src/draw/sw/lv_draw_sw_rect.c ****             if(top_y < draw_area.y1 && bottom_y > draw_area.y2) continue;   /*This line is clipped 
 6133              		.loc 1 1283 24 view .LVU2258
 6134 0364 0FFA88F8 		sxth	r8, r8
 6135              	.LVL555:
1284:lvgl/src/draw/sw/lv_draw_sw_rect.c **** 
 6136              		.loc 1 1284 13 is_stmt 1 view .LVU2259
1284:lvgl/src/draw/sw/lv_draw_sw_rect.c **** 
 6137              		.loc 1 1284 33 is_stmt 0 view .LVU2260
 6138 0368 BDF9A230 		ldrsh	r3, [sp, #162]
1284:lvgl/src/draw/sw/lv_draw_sw_rect.c **** 
 6139              		.loc 1 1284 15 view .LVU2261
ARM GAS  C:\Users\OSD\AppData\Local\Temp\ccS6lZqb.s 			page 173


 6140 036c BB42     		cmp	r3, r7
 6141 036e D6DD     		ble	.L337
1284:lvgl/src/draw/sw/lv_draw_sw_rect.c **** 
 6142              		.loc 1 1284 60 discriminator 1 view .LVU2262
 6143 0370 BDF9A630 		ldrsh	r3, [sp, #166]
1284:lvgl/src/draw/sw/lv_draw_sw_rect.c **** 
 6144              		.loc 1 1284 37 discriminator 1 view .LVU2263
 6145 0374 4345     		cmp	r3, r8
 6146 0376 D2DA     		bge	.L337
 6147 0378 E6E7     		b	.L338
 6148              	.L367:
1290:lvgl/src/draw/sw/lv_draw_sw_rect.c ****                 blend_area.y2 = top_y;
 6149              		.loc 1 1290 17 is_stmt 1 view .LVU2264
1290:lvgl/src/draw/sw/lv_draw_sw_rect.c ****                 blend_area.y2 = top_y;
 6150              		.loc 1 1290 31 is_stmt 0 view .LVU2265
 6151 037a ADF84E70 		strh	r7, [sp, #78]	@ movhi
1291:lvgl/src/draw/sw/lv_draw_sw_rect.c ****                 lv_draw_sw_blend(draw_ctx, &blend_dsc);
 6152              		.loc 1 1291 17 is_stmt 1 view .LVU2266
1291:lvgl/src/draw/sw/lv_draw_sw_rect.c ****                 lv_draw_sw_blend(draw_ctx, &blend_dsc);
 6153              		.loc 1 1291 31 is_stmt 0 view .LVU2267
 6154 037e ADF85270 		strh	r7, [sp, #82]	@ movhi
1292:lvgl/src/draw/sw/lv_draw_sw_rect.c ****             }
 6155              		.loc 1 1292 17 is_stmt 1 view .LVU2268
 6156 0382 21A9     		add	r1, sp, #132
 6157 0384 3046     		mov	r0, r6
 6158 0386 FFF7FEFF 		bl	lv_draw_sw_blend
 6159              	.LVL556:
 6160 038a D9E7     		b	.L339
 6161              	.L368:
1296:lvgl/src/draw/sw/lv_draw_sw_rect.c ****                 blend_area.y2 = bottom_y;
 6162              		.loc 1 1296 17 view .LVU2269
1296:lvgl/src/draw/sw/lv_draw_sw_rect.c ****                 blend_area.y2 = bottom_y;
 6163              		.loc 1 1296 31 is_stmt 0 view .LVU2270
 6164 038c ADF84E80 		strh	r8, [sp, #78]	@ movhi
1297:lvgl/src/draw/sw/lv_draw_sw_rect.c ****                 lv_draw_sw_blend(draw_ctx, &blend_dsc);
 6165              		.loc 1 1297 17 is_stmt 1 view .LVU2271
1297:lvgl/src/draw/sw/lv_draw_sw_rect.c ****                 lv_draw_sw_blend(draw_ctx, &blend_dsc);
 6166              		.loc 1 1297 31 is_stmt 0 view .LVU2272
 6167 0390 ADF85280 		strh	r8, [sp, #82]	@ movhi
1298:lvgl/src/draw/sw/lv_draw_sw_rect.c ****             }
 6168              		.loc 1 1298 17 is_stmt 1 view .LVU2273
 6169 0394 21A9     		add	r1, sp, #132
 6170 0396 3046     		mov	r0, r6
 6171 0398 FFF7FEFF 		bl	lv_draw_sw_blend
 6172              	.LVL557:
 6173 039c D4E7     		b	.L338
 6174              	.LVL558:
 6175              	.L335:
1298:lvgl/src/draw/sw/lv_draw_sw_rect.c ****             }
 6176              		.loc 1 1298 17 is_stmt 0 view .LVU2274
 6177              	.LBE214:
 6178              	.LBE215:
1304:lvgl/src/draw/sw/lv_draw_sw_rect.c ****         blend_area.x2 = LV_MIN(draw_area.x2, core_area.x1 - 1);
 6179              		.loc 1 1304 9 is_stmt 1 view .LVU2275
1304:lvgl/src/draw/sw/lv_draw_sw_rect.c ****         blend_area.x2 = LV_MIN(draw_area.x2, core_area.x1 - 1);
 6180              		.loc 1 1304 34 is_stmt 0 view .LVU2276
 6181 039e BDF9A020 		ldrsh	r2, [sp, #160]
ARM GAS  C:\Users\OSD\AppData\Local\Temp\ccS6lZqb.s 			page 174


1304:lvgl/src/draw/sw/lv_draw_sw_rect.c ****         blend_area.x2 = LV_MIN(draw_area.x2, core_area.x1 - 1);
 6182              		.loc 1 1304 23 view .LVU2277
 6183 03a2 ADF84C20 		strh	r2, [sp, #76]	@ movhi
1305:lvgl/src/draw/sw/lv_draw_sw_rect.c ****         blend_w = lv_area_get_width(&blend_area);
 6184              		.loc 1 1305 9 is_stmt 1 view .LVU2278
1305:lvgl/src/draw/sw/lv_draw_sw_rect.c ****         blend_w = lv_area_get_width(&blend_area);
 6185              		.loc 1 1305 25 is_stmt 0 view .LVU2279
 6186 03a6 0E9B     		ldr	r3, [sp, #56]
 6187 03a8 013B     		subs	r3, r3, #1
 6188 03aa BDF9A410 		ldrsh	r1, [sp, #164]
 6189 03ae 8B42     		cmp	r3, r1
 6190 03b0 A8BF     		it	ge
 6191 03b2 0B46     		movge	r3, r1
1305:lvgl/src/draw/sw/lv_draw_sw_rect.c ****         blend_w = lv_area_get_width(&blend_area);
 6192              		.loc 1 1305 23 view .LVU2280
 6193 03b4 1BB2     		sxth	r3, r3
 6194 03b6 ADF85030 		strh	r3, [sp, #80]	@ movhi
1306:lvgl/src/draw/sw/lv_draw_sw_rect.c ****         if(blend_w > 0) {
 6195              		.loc 1 1306 9 is_stmt 1 view .LVU2281
 6196              	.LVL559:
 6197              	.LBB216:
 6198              	.LBI216:
 123:lvgl/src/draw/sw/../../misc/lv_area.h **** {
 6199              		.loc 2 123 26 view .LVU2282
 6200              	.LBB217:
 125:lvgl/src/draw/sw/../../misc/lv_area.h **** }
 6201              		.loc 2 125 5 view .LVU2283
 125:lvgl/src/draw/sw/../../misc/lv_area.h **** }
 6202              		.loc 2 125 31 is_stmt 0 view .LVU2284
 6203 03ba 9CB2     		uxth	r4, r3
 6204              	.LVL560:
 125:lvgl/src/draw/sw/../../misc/lv_area.h **** }
 6205              		.loc 2 125 44 view .LVU2285
 6206 03bc 92B2     		uxth	r2, r2
 125:lvgl/src/draw/sw/../../misc/lv_area.h **** }
 6207              		.loc 2 125 36 view .LVU2286
 6208 03be A41A     		subs	r4, r4, r2
 6209 03c0 A4B2     		uxth	r4, r4
 125:lvgl/src/draw/sw/../../misc/lv_area.h **** }
 6210              		.loc 2 125 49 view .LVU2287
 6211 03c2 0134     		adds	r4, r4, #1
 125:lvgl/src/draw/sw/../../misc/lv_area.h **** }
 6212              		.loc 2 125 12 view .LVU2288
 6213 03c4 24B2     		sxth	r4, r4
 6214              	.LVL561:
 125:lvgl/src/draw/sw/../../misc/lv_area.h **** }
 6215              		.loc 2 125 12 view .LVU2289
 6216              	.LBE217:
 6217              	.LBE216:
1307:lvgl/src/draw/sw/lv_draw_sw_rect.c ****             if(left_side || top_side) {
 6218              		.loc 1 1307 9 is_stmt 1 view .LVU2290
1307:lvgl/src/draw/sw/lv_draw_sw_rect.c ****             if(left_side || top_side) {
 6219              		.loc 1 1307 11 is_stmt 0 view .LVU2291
 6220 03c6 002C     		cmp	r4, #0
 6221 03c8 43DD     		ble	.L342
1308:lvgl/src/draw/sw/lv_draw_sw_rect.c ****                 for(h = draw_area.y1; h < core_area.y1; h++) {
 6222              		.loc 1 1308 13 is_stmt 1 view .LVU2292
ARM GAS  C:\Users\OSD\AppData\Local\Temp\ccS6lZqb.s 			page 175


1308:lvgl/src/draw/sw/lv_draw_sw_rect.c ****                 for(h = draw_area.y1; h < core_area.y1; h++) {
 6223              		.loc 1 1308 15 is_stmt 0 view .LVU2293
 6224 03ca 069B     		ldr	r3, [sp, #24]
 6225 03cc 53EA0803 		orrs	r3, r3, r8
 6226 03d0 1DD0     		beq	.L343
1309:lvgl/src/draw/sw/lv_draw_sw_rect.c ****                     blend_area.y1 = h;
 6227              		.loc 1 1309 17 is_stmt 1 view .LVU2294
1309:lvgl/src/draw/sw/lv_draw_sw_rect.c ****                     blend_area.y1 = h;
 6228              		.loc 1 1309 34 is_stmt 0 view .LVU2295
 6229 03d2 BDF9A250 		ldrsh	r5, [sp, #162]
 6230              	.LVL562:
1309:lvgl/src/draw/sw/lv_draw_sw_rect.c ****                     blend_area.y1 = h;
 6231              		.loc 1 1309 34 view .LVU2296
 6232 03d6 DDF810A0 		ldr	r10, [sp, #16]
 6233              	.LVL563:
 6234              	.L344:
1309:lvgl/src/draw/sw/lv_draw_sw_rect.c ****                     blend_area.y1 = h;
 6235              		.loc 1 1309 39 is_stmt 1 discriminator 1 view .LVU2297
1309:lvgl/src/draw/sw/lv_draw_sw_rect.c ****                     blend_area.y1 = h;
 6236              		.loc 1 1309 17 is_stmt 0 discriminator 1 view .LVU2298
 6237 03da AA45     		cmp	r10, r5
 6238 03dc 17DD     		ble	.L343
1310:lvgl/src/draw/sw/lv_draw_sw_rect.c ****                     blend_area.y2 = h;
 6239              		.loc 1 1310 21 is_stmt 1 discriminator 3 view .LVU2299
1310:lvgl/src/draw/sw/lv_draw_sw_rect.c ****                     blend_area.y2 = h;
 6240              		.loc 1 1310 35 is_stmt 0 discriminator 3 view .LVU2300
 6241 03de 2FB2     		sxth	r7, r5
 6242 03e0 ADF84E70 		strh	r7, [sp, #78]	@ movhi
1311:lvgl/src/draw/sw/lv_draw_sw_rect.c **** 
 6243              		.loc 1 1311 21 is_stmt 1 discriminator 3 view .LVU2301
1311:lvgl/src/draw/sw/lv_draw_sw_rect.c **** 
 6244              		.loc 1 1311 35 is_stmt 0 discriminator 3 view .LVU2302
 6245 03e4 ADF85270 		strh	r7, [sp, #82]	@ movhi
1313:lvgl/src/draw/sw/lv_draw_sw_rect.c ****                     blend_dsc.mask_res = lv_draw_mask_apply(blend_dsc.mask_buf, blend_area.x1, h, b
 6246              		.loc 1 1313 21 is_stmt 1 discriminator 3 view .LVU2303
 6247 03e8 2146     		mov	r1, r4
 6248 03ea 2498     		ldr	r0, [sp, #144]
 6249 03ec FFF7FEFF 		bl	lv_memset_ff
 6250              	.LVL564:
1314:lvgl/src/draw/sw/lv_draw_sw_rect.c ****                     lv_draw_sw_blend(draw_ctx, &blend_dsc);
 6251              		.loc 1 1314 21 discriminator 3 view .LVU2304
1314:lvgl/src/draw/sw/lv_draw_sw_rect.c ****                     lv_draw_sw_blend(draw_ctx, &blend_dsc);
 6252              		.loc 1 1314 42 is_stmt 0 discriminator 3 view .LVU2305
 6253 03f0 2346     		mov	r3, r4
 6254 03f2 3A46     		mov	r2, r7
 6255 03f4 BDF94C10 		ldrsh	r1, [sp, #76]
 6256 03f8 2498     		ldr	r0, [sp, #144]
 6257 03fa FFF7FEFF 		bl	lv_draw_mask_apply
 6258              	.LVL565:
1314:lvgl/src/draw/sw/lv_draw_sw_rect.c ****                     lv_draw_sw_blend(draw_ctx, &blend_dsc);
 6259              		.loc 1 1314 40 discriminator 3 view .LVU2306
 6260 03fe 8DF89400 		strb	r0, [sp, #148]
1315:lvgl/src/draw/sw/lv_draw_sw_rect.c ****                 }
 6261              		.loc 1 1315 21 is_stmt 1 discriminator 3 view .LVU2307
 6262 0402 21A9     		add	r1, sp, #132
 6263 0404 3046     		mov	r0, r6
 6264 0406 FFF7FEFF 		bl	lv_draw_sw_blend
ARM GAS  C:\Users\OSD\AppData\Local\Temp\ccS6lZqb.s 			page 176


 6265              	.LVL566:
1309:lvgl/src/draw/sw/lv_draw_sw_rect.c ****                     blend_area.y1 = h;
 6266              		.loc 1 1309 57 discriminator 3 view .LVU2308
1309:lvgl/src/draw/sw/lv_draw_sw_rect.c ****                     blend_area.y1 = h;
 6267              		.loc 1 1309 58 is_stmt 0 discriminator 3 view .LVU2309
 6268 040a 0135     		adds	r5, r5, #1
 6269              	.LVL567:
1309:lvgl/src/draw/sw/lv_draw_sw_rect.c ****                     blend_area.y1 = h;
 6270              		.loc 1 1309 58 discriminator 3 view .LVU2310
 6271 040c E5E7     		b	.L344
 6272              	.LVL568:
 6273              	.L343:
1319:lvgl/src/draw/sw/lv_draw_sw_rect.c ****                 for(h = core_area.y2 + 1; h <= draw_area.y2; h++) {
 6274              		.loc 1 1319 13 is_stmt 1 view .LVU2311
1319:lvgl/src/draw/sw/lv_draw_sw_rect.c ****                 for(h = core_area.y2 + 1; h <= draw_area.y2; h++) {
 6275              		.loc 1 1319 15 is_stmt 0 view .LVU2312
 6276 040e 079B     		ldr	r3, [sp, #28]
 6277 0410 53EA0803 		orrs	r3, r3, r8
 6278 0414 1DD0     		beq	.L342
1320:lvgl/src/draw/sw/lv_draw_sw_rect.c ****                     blend_area.y1 = h;
 6279              		.loc 1 1320 17 is_stmt 1 view .LVU2313
1320:lvgl/src/draw/sw/lv_draw_sw_rect.c ****                     blend_area.y1 = h;
 6280              		.loc 1 1320 23 is_stmt 0 view .LVU2314
 6281 0416 039B     		ldr	r3, [sp, #12]
 6282 0418 5D1C     		adds	r5, r3, #1
 6283              	.LVL569:
 6284              	.L346:
1320:lvgl/src/draw/sw/lv_draw_sw_rect.c ****                     blend_area.y1 = h;
 6285              		.loc 1 1320 43 is_stmt 1 discriminator 1 view .LVU2315
1320:lvgl/src/draw/sw/lv_draw_sw_rect.c ****                     blend_area.y1 = h;
 6286              		.loc 1 1320 57 is_stmt 0 discriminator 1 view .LVU2316
 6287 041a BDF9A630 		ldrsh	r3, [sp, #166]
1320:lvgl/src/draw/sw/lv_draw_sw_rect.c ****                     blend_area.y1 = h;
 6288              		.loc 1 1320 17 discriminator 1 view .LVU2317
 6289 041e AB42     		cmp	r3, r5
 6290 0420 17DB     		blt	.L342
1321:lvgl/src/draw/sw/lv_draw_sw_rect.c ****                     blend_area.y2 = h;
 6291              		.loc 1 1321 21 is_stmt 1 discriminator 3 view .LVU2318
1321:lvgl/src/draw/sw/lv_draw_sw_rect.c ****                     blend_area.y2 = h;
 6292              		.loc 1 1321 35 is_stmt 0 discriminator 3 view .LVU2319
 6293 0422 2FB2     		sxth	r7, r5
 6294 0424 ADF84E70 		strh	r7, [sp, #78]	@ movhi
1322:lvgl/src/draw/sw/lv_draw_sw_rect.c **** 
 6295              		.loc 1 1322 21 is_stmt 1 discriminator 3 view .LVU2320
1322:lvgl/src/draw/sw/lv_draw_sw_rect.c **** 
 6296              		.loc 1 1322 35 is_stmt 0 discriminator 3 view .LVU2321
 6297 0428 ADF85270 		strh	r7, [sp, #82]	@ movhi
1324:lvgl/src/draw/sw/lv_draw_sw_rect.c ****                     blend_dsc.mask_res = lv_draw_mask_apply(blend_dsc.mask_buf, blend_area.x1, h, b
 6298              		.loc 1 1324 21 is_stmt 1 discriminator 3 view .LVU2322
 6299 042c 2146     		mov	r1, r4
 6300 042e 2498     		ldr	r0, [sp, #144]
 6301 0430 FFF7FEFF 		bl	lv_memset_ff
 6302              	.LVL570:
1325:lvgl/src/draw/sw/lv_draw_sw_rect.c ****                     lv_draw_sw_blend(draw_ctx, &blend_dsc);
 6303              		.loc 1 1325 21 discriminator 3 view .LVU2323
1325:lvgl/src/draw/sw/lv_draw_sw_rect.c ****                     lv_draw_sw_blend(draw_ctx, &blend_dsc);
 6304              		.loc 1 1325 42 is_stmt 0 discriminator 3 view .LVU2324
ARM GAS  C:\Users\OSD\AppData\Local\Temp\ccS6lZqb.s 			page 177


 6305 0434 2346     		mov	r3, r4
 6306 0436 3A46     		mov	r2, r7
 6307 0438 BDF94C10 		ldrsh	r1, [sp, #76]
 6308 043c 2498     		ldr	r0, [sp, #144]
 6309 043e FFF7FEFF 		bl	lv_draw_mask_apply
 6310              	.LVL571:
1325:lvgl/src/draw/sw/lv_draw_sw_rect.c ****                     lv_draw_sw_blend(draw_ctx, &blend_dsc);
 6311              		.loc 1 1325 40 discriminator 3 view .LVU2325
 6312 0442 8DF89400 		strb	r0, [sp, #148]
1326:lvgl/src/draw/sw/lv_draw_sw_rect.c ****                 }
 6313              		.loc 1 1326 21 is_stmt 1 discriminator 3 view .LVU2326
 6314 0446 21A9     		add	r1, sp, #132
 6315 0448 3046     		mov	r0, r6
 6316 044a FFF7FEFF 		bl	lv_draw_sw_blend
 6317              	.LVL572:
1320:lvgl/src/draw/sw/lv_draw_sw_rect.c ****                     blend_area.y1 = h;
 6318              		.loc 1 1320 62 discriminator 3 view .LVU2327
1320:lvgl/src/draw/sw/lv_draw_sw_rect.c ****                     blend_area.y1 = h;
 6319              		.loc 1 1320 63 is_stmt 0 discriminator 3 view .LVU2328
 6320 044e 0135     		adds	r5, r5, #1
 6321              	.LVL573:
1320:lvgl/src/draw/sw/lv_draw_sw_rect.c ****                     blend_area.y1 = h;
 6322              		.loc 1 1320 63 discriminator 3 view .LVU2329
 6323 0450 E3E7     		b	.L346
 6324              	.LVL574:
 6325              	.L342:
1332:lvgl/src/draw/sw/lv_draw_sw_rect.c ****         blend_area.x2 = draw_area.x2;
 6326              		.loc 1 1332 9 is_stmt 1 view .LVU2330
1332:lvgl/src/draw/sw/lv_draw_sw_rect.c ****         blend_area.x2 = draw_area.x2;
 6327              		.loc 1 1332 25 is_stmt 0 view .LVU2331
 6328 0452 0F9B     		ldr	r3, [sp, #60]
 6329 0454 0133     		adds	r3, r3, #1
 6330 0456 BDF9A020 		ldrsh	r2, [sp, #160]
 6331 045a 9342     		cmp	r3, r2
 6332 045c B8BF     		it	lt
 6333 045e 1346     		movlt	r3, r2
1332:lvgl/src/draw/sw/lv_draw_sw_rect.c ****         blend_area.x2 = draw_area.x2;
 6334              		.loc 1 1332 23 view .LVU2332
 6335 0460 1BB2     		sxth	r3, r3
 6336 0462 ADF84C30 		strh	r3, [sp, #76]	@ movhi
1333:lvgl/src/draw/sw/lv_draw_sw_rect.c ****         blend_w = lv_area_get_width(&blend_area);
 6337              		.loc 1 1333 9 is_stmt 1 view .LVU2333
1333:lvgl/src/draw/sw/lv_draw_sw_rect.c ****         blend_w = lv_area_get_width(&blend_area);
 6338              		.loc 1 1333 34 is_stmt 0 view .LVU2334
 6339 0466 BDF9A420 		ldrsh	r2, [sp, #164]
1333:lvgl/src/draw/sw/lv_draw_sw_rect.c ****         blend_w = lv_area_get_width(&blend_area);
 6340              		.loc 1 1333 23 view .LVU2335
 6341 046a ADF85020 		strh	r2, [sp, #80]	@ movhi
1334:lvgl/src/draw/sw/lv_draw_sw_rect.c **** 
 6342              		.loc 1 1334 9 is_stmt 1 view .LVU2336
 6343              	.LVL575:
 6344              	.LBB218:
 6345              	.LBI218:
 123:lvgl/src/draw/sw/../../misc/lv_area.h **** {
 6346              		.loc 2 123 26 view .LVU2337
 6347              	.LBB219:
 125:lvgl/src/draw/sw/../../misc/lv_area.h **** }
ARM GAS  C:\Users\OSD\AppData\Local\Temp\ccS6lZqb.s 			page 178


 6348              		.loc 2 125 5 view .LVU2338
 125:lvgl/src/draw/sw/../../misc/lv_area.h **** }
 6349              		.loc 2 125 31 is_stmt 0 view .LVU2339
 6350 046e 94B2     		uxth	r4, r2
 6351              	.LVL576:
 125:lvgl/src/draw/sw/../../misc/lv_area.h **** }
 6352              		.loc 2 125 44 view .LVU2340
 6353 0470 9BB2     		uxth	r3, r3
 125:lvgl/src/draw/sw/../../misc/lv_area.h **** }
 6354              		.loc 2 125 36 view .LVU2341
 6355 0472 E31A     		subs	r3, r4, r3
 6356 0474 9CB2     		uxth	r4, r3
 125:lvgl/src/draw/sw/../../misc/lv_area.h **** }
 6357              		.loc 2 125 49 view .LVU2342
 6358 0476 0134     		adds	r4, r4, #1
 125:lvgl/src/draw/sw/../../misc/lv_area.h **** }
 6359              		.loc 2 125 12 view .LVU2343
 6360 0478 24B2     		sxth	r4, r4
 6361              	.LVL577:
 125:lvgl/src/draw/sw/../../misc/lv_area.h **** }
 6362              		.loc 2 125 12 view .LVU2344
 6363              	.LBE219:
 6364              	.LBE218:
1336:lvgl/src/draw/sw/lv_draw_sw_rect.c ****             if(right_side || top_side) {
 6365              		.loc 1 1336 9 is_stmt 1 view .LVU2345
1336:lvgl/src/draw/sw/lv_draw_sw_rect.c ****             if(right_side || top_side) {
 6366              		.loc 1 1336 11 is_stmt 0 view .LVU2346
 6367 047a 002C     		cmp	r4, #0
 6368 047c 43DD     		ble	.L341
1337:lvgl/src/draw/sw/lv_draw_sw_rect.c ****                 for(h = draw_area.y1; h < core_area.y1; h++) {
 6369              		.loc 1 1337 13 is_stmt 1 view .LVU2347
1337:lvgl/src/draw/sw/lv_draw_sw_rect.c ****                 for(h = draw_area.y1; h < core_area.y1; h++) {
 6370              		.loc 1 1337 15 is_stmt 0 view .LVU2348
 6371 047e 069B     		ldr	r3, [sp, #24]
 6372 0480 53EA0903 		orrs	r3, r3, r9
 6373 0484 1DD0     		beq	.L348
1338:lvgl/src/draw/sw/lv_draw_sw_rect.c ****                     blend_area.y1 = h;
 6374              		.loc 1 1338 17 is_stmt 1 view .LVU2349
1338:lvgl/src/draw/sw/lv_draw_sw_rect.c ****                     blend_area.y1 = h;
 6375              		.loc 1 1338 34 is_stmt 0 view .LVU2350
 6376 0486 BDF9A250 		ldrsh	r5, [sp, #162]
 6377              	.LVL578:
1338:lvgl/src/draw/sw/lv_draw_sw_rect.c ****                     blend_area.y1 = h;
 6378              		.loc 1 1338 34 view .LVU2351
 6379 048a DDF81080 		ldr	r8, [sp, #16]
 6380              	.LVL579:
1338:lvgl/src/draw/sw/lv_draw_sw_rect.c ****                     blend_area.y1 = h;
 6381              		.loc 1 1338 17 view .LVU2352
 6382 048e 16E0     		b	.L349
 6383              	.L350:
1339:lvgl/src/draw/sw/lv_draw_sw_rect.c ****                     blend_area.y2 = h;
 6384              		.loc 1 1339 21 is_stmt 1 discriminator 3 view .LVU2353
1339:lvgl/src/draw/sw/lv_draw_sw_rect.c ****                     blend_area.y2 = h;
 6385              		.loc 1 1339 35 is_stmt 0 discriminator 3 view .LVU2354
 6386 0490 2FB2     		sxth	r7, r5
 6387 0492 ADF84E70 		strh	r7, [sp, #78]	@ movhi
1340:lvgl/src/draw/sw/lv_draw_sw_rect.c **** 
ARM GAS  C:\Users\OSD\AppData\Local\Temp\ccS6lZqb.s 			page 179


 6388              		.loc 1 1340 21 is_stmt 1 discriminator 3 view .LVU2355
1340:lvgl/src/draw/sw/lv_draw_sw_rect.c **** 
 6389              		.loc 1 1340 35 is_stmt 0 discriminator 3 view .LVU2356
 6390 0496 ADF85270 		strh	r7, [sp, #82]	@ movhi
1342:lvgl/src/draw/sw/lv_draw_sw_rect.c ****                     blend_dsc.mask_res = lv_draw_mask_apply(blend_dsc.mask_buf, blend_area.x1, h, b
 6391              		.loc 1 1342 21 is_stmt 1 discriminator 3 view .LVU2357
 6392 049a 2146     		mov	r1, r4
 6393 049c 2498     		ldr	r0, [sp, #144]
 6394 049e FFF7FEFF 		bl	lv_memset_ff
 6395              	.LVL580:
1343:lvgl/src/draw/sw/lv_draw_sw_rect.c ****                     lv_draw_sw_blend(draw_ctx, &blend_dsc);
 6396              		.loc 1 1343 21 discriminator 3 view .LVU2358
1343:lvgl/src/draw/sw/lv_draw_sw_rect.c ****                     lv_draw_sw_blend(draw_ctx, &blend_dsc);
 6397              		.loc 1 1343 42 is_stmt 0 discriminator 3 view .LVU2359
 6398 04a2 2346     		mov	r3, r4
 6399 04a4 3A46     		mov	r2, r7
 6400 04a6 BDF94C10 		ldrsh	r1, [sp, #76]
 6401 04aa 2498     		ldr	r0, [sp, #144]
 6402 04ac FFF7FEFF 		bl	lv_draw_mask_apply
 6403              	.LVL581:
1343:lvgl/src/draw/sw/lv_draw_sw_rect.c ****                     lv_draw_sw_blend(draw_ctx, &blend_dsc);
 6404              		.loc 1 1343 40 discriminator 3 view .LVU2360
 6405 04b0 8DF89400 		strb	r0, [sp, #148]
1344:lvgl/src/draw/sw/lv_draw_sw_rect.c ****                 }
 6406              		.loc 1 1344 21 is_stmt 1 discriminator 3 view .LVU2361
 6407 04b4 21A9     		add	r1, sp, #132
 6408 04b6 3046     		mov	r0, r6
 6409 04b8 FFF7FEFF 		bl	lv_draw_sw_blend
 6410              	.LVL582:
1338:lvgl/src/draw/sw/lv_draw_sw_rect.c ****                     blend_area.y1 = h;
 6411              		.loc 1 1338 57 discriminator 3 view .LVU2362
1338:lvgl/src/draw/sw/lv_draw_sw_rect.c ****                     blend_area.y1 = h;
 6412              		.loc 1 1338 58 is_stmt 0 discriminator 3 view .LVU2363
 6413 04bc 0135     		adds	r5, r5, #1
 6414              	.LVL583:
 6415              	.L349:
1338:lvgl/src/draw/sw/lv_draw_sw_rect.c ****                     blend_area.y1 = h;
 6416              		.loc 1 1338 39 is_stmt 1 discriminator 1 view .LVU2364
1338:lvgl/src/draw/sw/lv_draw_sw_rect.c ****                     blend_area.y1 = h;
 6417              		.loc 1 1338 17 is_stmt 0 discriminator 1 view .LVU2365
 6418 04be A845     		cmp	r8, r5
 6419 04c0 E6DC     		bgt	.L350
 6420              	.LVL584:
 6421              	.L348:
1348:lvgl/src/draw/sw/lv_draw_sw_rect.c ****                 for(h = core_area.y2 + 1; h <= draw_area.y2; h++) {
 6422              		.loc 1 1348 13 is_stmt 1 view .LVU2366
1348:lvgl/src/draw/sw/lv_draw_sw_rect.c ****                 for(h = core_area.y2 + 1; h <= draw_area.y2; h++) {
 6423              		.loc 1 1348 15 is_stmt 0 view .LVU2367
 6424 04c2 079B     		ldr	r3, [sp, #28]
 6425 04c4 53EA0903 		orrs	r3, r3, r9
 6426 04c8 1DD0     		beq	.L341
1349:lvgl/src/draw/sw/lv_draw_sw_rect.c ****                     blend_area.y1 = h;
 6427              		.loc 1 1349 17 is_stmt 1 view .LVU2368
1349:lvgl/src/draw/sw/lv_draw_sw_rect.c ****                     blend_area.y1 = h;
 6428              		.loc 1 1349 23 is_stmt 0 view .LVU2369
 6429 04ca 039D     		ldr	r5, [sp, #12]
 6430 04cc 0135     		adds	r5, r5, #1
ARM GAS  C:\Users\OSD\AppData\Local\Temp\ccS6lZqb.s 			page 180


 6431              	.LVL585:
1349:lvgl/src/draw/sw/lv_draw_sw_rect.c ****                     blend_area.y1 = h;
 6432              		.loc 1 1349 17 view .LVU2370
 6433 04ce 16E0     		b	.L351
 6434              	.L352:
1350:lvgl/src/draw/sw/lv_draw_sw_rect.c ****                     blend_area.y2 = h;
 6435              		.loc 1 1350 21 is_stmt 1 discriminator 3 view .LVU2371
1350:lvgl/src/draw/sw/lv_draw_sw_rect.c ****                     blend_area.y2 = h;
 6436              		.loc 1 1350 35 is_stmt 0 discriminator 3 view .LVU2372
 6437 04d0 2FB2     		sxth	r7, r5
 6438 04d2 ADF84E70 		strh	r7, [sp, #78]	@ movhi
1351:lvgl/src/draw/sw/lv_draw_sw_rect.c **** 
 6439              		.loc 1 1351 21 is_stmt 1 discriminator 3 view .LVU2373
1351:lvgl/src/draw/sw/lv_draw_sw_rect.c **** 
 6440              		.loc 1 1351 35 is_stmt 0 discriminator 3 view .LVU2374
 6441 04d6 ADF85270 		strh	r7, [sp, #82]	@ movhi
1353:lvgl/src/draw/sw/lv_draw_sw_rect.c ****                     blend_dsc.mask_res = lv_draw_mask_apply(blend_dsc.mask_buf, blend_area.x1, h, b
 6442              		.loc 1 1353 21 is_stmt 1 discriminator 3 view .LVU2375
 6443 04da 2146     		mov	r1, r4
 6444 04dc 2498     		ldr	r0, [sp, #144]
 6445 04de FFF7FEFF 		bl	lv_memset_ff
 6446              	.LVL586:
1354:lvgl/src/draw/sw/lv_draw_sw_rect.c ****                     lv_draw_sw_blend(draw_ctx, &blend_dsc);
 6447              		.loc 1 1354 21 discriminator 3 view .LVU2376
1354:lvgl/src/draw/sw/lv_draw_sw_rect.c ****                     lv_draw_sw_blend(draw_ctx, &blend_dsc);
 6448              		.loc 1 1354 42 is_stmt 0 discriminator 3 view .LVU2377
 6449 04e2 2346     		mov	r3, r4
 6450 04e4 3A46     		mov	r2, r7
 6451 04e6 BDF94C10 		ldrsh	r1, [sp, #76]
 6452 04ea 2498     		ldr	r0, [sp, #144]
 6453 04ec FFF7FEFF 		bl	lv_draw_mask_apply
 6454              	.LVL587:
1354:lvgl/src/draw/sw/lv_draw_sw_rect.c ****                     lv_draw_sw_blend(draw_ctx, &blend_dsc);
 6455              		.loc 1 1354 40 discriminator 3 view .LVU2378
 6456 04f0 8DF89400 		strb	r0, [sp, #148]
1355:lvgl/src/draw/sw/lv_draw_sw_rect.c ****                 }
 6457              		.loc 1 1355 21 is_stmt 1 discriminator 3 view .LVU2379
 6458 04f4 21A9     		add	r1, sp, #132
 6459 04f6 3046     		mov	r0, r6
 6460 04f8 FFF7FEFF 		bl	lv_draw_sw_blend
 6461              	.LVL588:
1349:lvgl/src/draw/sw/lv_draw_sw_rect.c ****                     blend_area.y1 = h;
 6462              		.loc 1 1349 62 discriminator 3 view .LVU2380
1349:lvgl/src/draw/sw/lv_draw_sw_rect.c ****                     blend_area.y1 = h;
 6463              		.loc 1 1349 63 is_stmt 0 discriminator 3 view .LVU2381
 6464 04fc 0135     		adds	r5, r5, #1
 6465              	.LVL589:
 6466              	.L351:
1349:lvgl/src/draw/sw/lv_draw_sw_rect.c ****                     blend_area.y1 = h;
 6467              		.loc 1 1349 43 is_stmt 1 discriminator 1 view .LVU2382
1349:lvgl/src/draw/sw/lv_draw_sw_rect.c ****                     blend_area.y1 = h;
 6468              		.loc 1 1349 57 is_stmt 0 discriminator 1 view .LVU2383
 6469 04fe BDF9A630 		ldrsh	r3, [sp, #166]
1349:lvgl/src/draw/sw/lv_draw_sw_rect.c ****                     blend_area.y1 = h;
 6470              		.loc 1 1349 17 discriminator 1 view .LVU2384
 6471 0502 AB42     		cmp	r3, r5
 6472 0504 E4DA     		bge	.L352
ARM GAS  C:\Users\OSD\AppData\Local\Temp\ccS6lZqb.s 			page 181


 6473              	.LVL590:
 6474              	.L341:
1361:lvgl/src/draw/sw/lv_draw_sw_rect.c ****     lv_draw_mask_remove_id(mask_rin_id);
 6475              		.loc 1 1361 5 is_stmt 1 discriminator 1 view .LVU2385
 6476 0506 15A8     		add	r0, sp, #84
 6477 0508 FFF7FEFF 		bl	lv_draw_mask_free_param
 6478              	.LVL591:
1362:lvgl/src/draw/sw/lv_draw_sw_rect.c ****     lv_draw_mask_free_param(&mask_rout_param);
 6479              		.loc 1 1362 5 discriminator 1 view .LVU2386
 6480 050c 0C98     		ldr	r0, [sp, #48]
 6481 050e FFF7FEFF 		bl	lv_draw_mask_remove_id
 6482              	.LVL592:
1363:lvgl/src/draw/sw/lv_draw_sw_rect.c ****     lv_draw_mask_remove_id(mask_rout_id);
 6483              		.loc 1 1363 5 discriminator 1 view .LVU2387
 6484 0512 1BA8     		add	r0, sp, #108
 6485 0514 FFF7FEFF 		bl	lv_draw_mask_free_param
 6486              	.LVL593:
1364:lvgl/src/draw/sw/lv_draw_sw_rect.c ****     lv_mem_buf_release(blend_dsc.mask_buf);
 6487              		.loc 1 1364 5 discriminator 1 view .LVU2388
 6488 0518 0D98     		ldr	r0, [sp, #52]
 6489 051a FFF7FEFF 		bl	lv_draw_mask_remove_id
 6490              	.LVL594:
1365:lvgl/src/draw/sw/lv_draw_sw_rect.c **** 
 6491              		.loc 1 1365 5 discriminator 1 view .LVU2389
 6492 051e 2498     		ldr	r0, [sp, #144]
 6493 0520 FFF7FEFF 		bl	lv_mem_buf_release
 6494              	.LVL595:
 6495 0524 8DE5     		b	.L318
 6496              		.cfi_endproc
 6497              	.LFE170:
 6499              		.section	.text.draw_border,"ax",%progbits
 6500              		.align	1
 6501              		.syntax unified
 6502              		.thumb
 6503              		.thumb_func
 6505              	draw_border:
 6506              	.LVL596:
 6507              	.LFB165:
 399:lvgl/src/draw/sw/lv_draw_sw_rect.c ****     if(dsc->border_opa <= LV_OPA_MIN) return;
 6508              		.loc 1 399 1 view -0
 6509              		.cfi_startproc
 6510              		@ args = 0, pretend = 0, frame = 16
 6511              		@ frame_needed = 0, uses_anonymous_args = 0
 399:lvgl/src/draw/sw/lv_draw_sw_rect.c ****     if(dsc->border_opa <= LV_OPA_MIN) return;
 6512              		.loc 1 399 1 is_stmt 0 view .LVU2391
 6513 0000 2DE9F04F 		push	{r4, r5, r6, r7, r8, r9, r10, fp, lr}
 6514              		.cfi_def_cfa_offset 36
 6515              		.cfi_offset 4, -36
 6516              		.cfi_offset 5, -32
 6517              		.cfi_offset 6, -28
 6518              		.cfi_offset 7, -24
 6519              		.cfi_offset 8, -20
 6520              		.cfi_offset 9, -16
 6521              		.cfi_offset 10, -12
 6522              		.cfi_offset 11, -8
 6523              		.cfi_offset 14, -4
 6524 0004 89B0     		sub	sp, sp, #36
ARM GAS  C:\Users\OSD\AppData\Local\Temp\ccS6lZqb.s 			page 182


 6525              		.cfi_def_cfa_offset 72
 6526 0006 0490     		str	r0, [sp, #16]
 400:lvgl/src/draw/sw/lv_draw_sw_rect.c ****     if(dsc->border_width == 0) return;
 6527              		.loc 1 400 5 is_stmt 1 view .LVU2392
 400:lvgl/src/draw/sw/lv_draw_sw_rect.c ****     if(dsc->border_width == 0) return;
 6528              		.loc 1 400 11 is_stmt 0 view .LVU2393
 6529 0008 91F83240 		ldrb	r4, [r1, #50]	@ zero_extendqisi2
 400:lvgl/src/draw/sw/lv_draw_sw_rect.c ****     if(dsc->border_width == 0) return;
 6530              		.loc 1 400 7 view .LVU2394
 6531 000c 022C     		cmp	r4, #2
 6532 000e 73D9     		bls	.L369
 6533 0010 1046     		mov	r0, r2
 6534              	.LVL597:
 401:lvgl/src/draw/sw/lv_draw_sw_rect.c ****     if(dsc->border_side == LV_BORDER_SIDE_NONE) return;
 6535              		.loc 1 401 5 is_stmt 1 view .LVU2395
 401:lvgl/src/draw/sw/lv_draw_sw_rect.c ****     if(dsc->border_side == LV_BORDER_SIDE_NONE) return;
 6536              		.loc 1 401 11 is_stmt 0 view .LVU2396
 6537 0012 B1F93020 		ldrsh	r2, [r1, #48]
 6538              	.LVL598:
 401:lvgl/src/draw/sw/lv_draw_sw_rect.c ****     if(dsc->border_side == LV_BORDER_SIDE_NONE) return;
 6539              		.loc 1 401 7 view .LVU2397
 6540 0016 002A     		cmp	r2, #0
 6541 0018 6ED0     		beq	.L369
 402:lvgl/src/draw/sw/lv_draw_sw_rect.c ****     if(dsc->border_post) return;
 6542              		.loc 1 402 5 is_stmt 1 view .LVU2398
 402:lvgl/src/draw/sw/lv_draw_sw_rect.c ****     if(dsc->border_post) return;
 6543              		.loc 1 402 25 is_stmt 0 view .LVU2399
 6544 001a 91F83330 		ldrb	r3, [r1, #51]	@ zero_extendqisi2
 402:lvgl/src/draw/sw/lv_draw_sw_rect.c ****     if(dsc->border_post) return;
 6545              		.loc 1 402 7 view .LVU2400
 6546 001e 13F03E0F 		tst	r3, #62
 6547 0022 69D0     		beq	.L369
 403:lvgl/src/draw/sw/lv_draw_sw_rect.c **** 
 6548              		.loc 1 403 5 is_stmt 1 view .LVU2401
 403:lvgl/src/draw/sw/lv_draw_sw_rect.c **** 
 6549              		.loc 1 403 7 is_stmt 0 view .LVU2402
 6550 0024 13F0010F 		tst	r3, #1
 6551 0028 66D1     		bne	.L369
 405:lvgl/src/draw/sw/lv_draw_sw_rect.c ****     int32_t coords_h = lv_area_get_height(coords);
 6552              		.loc 1 405 5 is_stmt 1 view .LVU2403
 6553              	.LVL599:
 6554              	.LBB220:
 6555              	.LBI220:
 123:lvgl/src/draw/sw/../../misc/lv_area.h **** {
 6556              		.loc 2 123 26 view .LVU2404
 6557              	.LBB221:
 125:lvgl/src/draw/sw/../../misc/lv_area.h **** }
 6558              		.loc 2 125 5 view .LVU2405
 125:lvgl/src/draw/sw/../../misc/lv_area.h **** }
 6559              		.loc 2 125 31 is_stmt 0 view .LVU2406
 6560 002a B0F90480 		ldrsh	r8, [r0, #4]
 6561 002e 1FFA88F3 		uxth	r3, r8
 6562 0032 0593     		str	r3, [sp, #20]
 125:lvgl/src/draw/sw/../../misc/lv_area.h **** }
 6563              		.loc 2 125 44 view .LVU2407
 6564 0034 B0F900A0 		ldrsh	r10, [r0]
 6565 0038 1FFA8AF7 		uxth	r7, r10
ARM GAS  C:\Users\OSD\AppData\Local\Temp\ccS6lZqb.s 			page 183


 125:lvgl/src/draw/sw/../../misc/lv_area.h **** }
 6566              		.loc 2 125 36 view .LVU2408
 6567 003c A3EB070C 		sub	ip, r3, r7
 6568 0040 1FFA8CFC 		uxth	ip, ip
 125:lvgl/src/draw/sw/../../misc/lv_area.h **** }
 6569              		.loc 2 125 49 view .LVU2409
 6570 0044 0CF1010C 		add	ip, ip, #1
 125:lvgl/src/draw/sw/../../misc/lv_area.h **** }
 6571              		.loc 2 125 12 view .LVU2410
 6572 0048 0FFA8CF3 		sxth	r3, ip
 6573              	.LVL600:
 125:lvgl/src/draw/sw/../../misc/lv_area.h **** }
 6574              		.loc 2 125 12 view .LVU2411
 6575              	.LBE221:
 6576              	.LBE220:
 406:lvgl/src/draw/sw/lv_draw_sw_rect.c ****     int32_t rout = dsc->radius;
 6577              		.loc 1 406 5 is_stmt 1 view .LVU2412
 6578              	.LBB222:
 6579              	.LBI222:
 133:lvgl/src/draw/sw/../../misc/lv_area.h **** {
 6580              		.loc 2 133 26 view .LVU2413
 6581              	.LBB223:
 6582              		.loc 2 135 5 view .LVU2414
 6583              		.loc 2 135 31 is_stmt 0 view .LVU2415
 6584 004c B0F906B0 		ldrsh	fp, [r0, #6]
 6585 0050 1FFA8BFE 		uxth	lr, fp
 6586              		.loc 2 135 44 view .LVU2416
 6587 0054 B0F90290 		ldrsh	r9, [r0, #2]
 6588 0058 1FFA89F6 		uxth	r6, r9
 6589              		.loc 2 135 36 view .LVU2417
 6590 005c AEEB060C 		sub	ip, lr, r6
 6591 0060 1FFA8CFC 		uxth	ip, ip
 6592              		.loc 2 135 49 view .LVU2418
 6593 0064 0CF1010C 		add	ip, ip, #1
 6594              		.loc 2 135 12 view .LVU2419
 6595 0068 0FFA8CFC 		sxth	ip, ip
 6596              	.LVL601:
 6597              		.loc 2 135 12 view .LVU2420
 6598              	.LBE223:
 6599              	.LBE222:
 407:lvgl/src/draw/sw/lv_draw_sw_rect.c ****     int32_t short_side = LV_MIN(coords_w, coords_h);
 6600              		.loc 1 407 5 is_stmt 1 view .LVU2421
 407:lvgl/src/draw/sw/lv_draw_sw_rect.c ****     int32_t short_side = LV_MIN(coords_w, coords_h);
 6601              		.loc 1 407 23 is_stmt 0 view .LVU2422
 6602 006c B1F90050 		ldrsh	r5, [r1]
 6603              	.LVL602:
 408:lvgl/src/draw/sw/lv_draw_sw_rect.c ****     if(rout > short_side >> 1) rout = short_side >> 1;
 6604              		.loc 1 408 5 is_stmt 1 view .LVU2423
 408:lvgl/src/draw/sw/lv_draw_sw_rect.c ****     if(rout > short_side >> 1) rout = short_side >> 1;
 6605              		.loc 1 408 13 is_stmt 0 view .LVU2424
 6606 0070 9C45     		cmp	ip, r3
 6607 0072 A8BF     		it	ge
 6608 0074 9C46     		movge	ip, r3
 6609              	.LVL603:
 409:lvgl/src/draw/sw/lv_draw_sw_rect.c **** 
 6610              		.loc 1 409 5 is_stmt 1 view .LVU2425
 409:lvgl/src/draw/sw/lv_draw_sw_rect.c **** 
ARM GAS  C:\Users\OSD\AppData\Local\Temp\ccS6lZqb.s 			page 184


 6611              		.loc 1 409 26 is_stmt 0 view .LVU2426
 6612 0076 4FEA6C03 		asr	r3, ip, #1
 6613              	.LVL604:
 409:lvgl/src/draw/sw/lv_draw_sw_rect.c **** 
 6614              		.loc 1 409 7 view .LVU2427
 6615 007a B5EB6C0F 		cmp	r5, ip, asr #1
 6616 007e 00DC     		bgt	.L371
 407:lvgl/src/draw/sw/lv_draw_sw_rect.c ****     int32_t short_side = LV_MIN(coords_w, coords_h);
 6617              		.loc 1 407 13 view .LVU2428
 6618 0080 2B46     		mov	r3, r5
 6619              	.L371:
 6620              	.LVL605:
 412:lvgl/src/draw/sw/lv_draw_sw_rect.c ****     lv_area_copy(&area_inner, coords);
 6621              		.loc 1 412 5 is_stmt 1 view .LVU2429
 413:lvgl/src/draw/sw/lv_draw_sw_rect.c ****     area_inner.x1 += ((dsc->border_side & LV_BORDER_SIDE_LEFT) ? dsc->border_width : - (dsc->border
 6622              		.loc 1 413 5 view .LVU2430
 6623              	.LBB224:
 6624              	.LBI224:
 110:lvgl/src/draw/sw/../../misc/lv_area.h **** {
 6625              		.loc 2 110 20 view .LVU2431
 6626              	.LBB225:
 112:lvgl/src/draw/sw/../../misc/lv_area.h ****     dest->y1 = src->y1;
 6627              		.loc 2 112 5 view .LVU2432
 112:lvgl/src/draw/sw/../../misc/lv_area.h ****     dest->y1 = src->y1;
 6628              		.loc 2 112 14 is_stmt 0 view .LVU2433
 6629 0082 ADF818A0 		strh	r10, [sp, #24]	@ movhi
 113:lvgl/src/draw/sw/../../misc/lv_area.h ****     dest->x2 = src->x2;
 6630              		.loc 2 113 5 is_stmt 1 view .LVU2434
 113:lvgl/src/draw/sw/../../misc/lv_area.h ****     dest->x2 = src->x2;
 6631              		.loc 2 113 14 is_stmt 0 view .LVU2435
 6632 0086 ADF81A90 		strh	r9, [sp, #26]	@ movhi
 114:lvgl/src/draw/sw/../../misc/lv_area.h ****     dest->y2 = src->y2;
 6633              		.loc 2 114 5 is_stmt 1 view .LVU2436
 114:lvgl/src/draw/sw/../../misc/lv_area.h ****     dest->y2 = src->y2;
 6634              		.loc 2 114 14 is_stmt 0 view .LVU2437
 6635 008a ADF81C80 		strh	r8, [sp, #28]	@ movhi
 115:lvgl/src/draw/sw/../../misc/lv_area.h **** }
 6636              		.loc 2 115 5 is_stmt 1 view .LVU2438
 115:lvgl/src/draw/sw/../../misc/lv_area.h **** }
 6637              		.loc 2 115 14 is_stmt 0 view .LVU2439
 6638 008e ADF81EB0 		strh	fp, [sp, #30]	@ movhi
 6639              	.LVL606:
 115:lvgl/src/draw/sw/../../misc/lv_area.h **** }
 6640              		.loc 2 115 14 view .LVU2440
 6641              	.LBE225:
 6642              	.LBE224:
 414:lvgl/src/draw/sw/lv_draw_sw_rect.c ****     area_inner.x2 -= ((dsc->border_side & LV_BORDER_SIDE_RIGHT) ? dsc->border_width : - (dsc->borde
 6643              		.loc 1 414 5 is_stmt 1 view .LVU2441
 414:lvgl/src/draw/sw/lv_draw_sw_rect.c ****     area_inner.x2 -= ((dsc->border_side & LV_BORDER_SIDE_RIGHT) ? dsc->border_width : - (dsc->borde
 6644              		.loc 1 414 27 is_stmt 0 view .LVU2442
 6645 0092 91F83380 		ldrb	r8, [r1, #51]	@ zero_extendqisi2
 6646 0096 C8F3440C 		ubfx	ip, r8, #1, #5
 6647              	.LVL607:
 414:lvgl/src/draw/sw/lv_draw_sw_rect.c ****     area_inner.x2 -= ((dsc->border_side & LV_BORDER_SIDE_RIGHT) ? dsc->border_width : - (dsc->borde
 6648              		.loc 1 414 19 view .LVU2443
 6649 009a 18F0080F 		tst	r8, #8
 6650 009e 2ED0     		beq	.L372
ARM GAS  C:\Users\OSD\AppData\Local\Temp\ccS6lZqb.s 			page 185


 414:lvgl/src/draw/sw/lv_draw_sw_rect.c ****     area_inner.x2 -= ((dsc->border_side & LV_BORDER_SIDE_RIGHT) ? dsc->border_width : - (dsc->borde
 6651              		.loc 1 414 19 discriminator 1 view .LVU2444
 6652 00a0 1FFA82F8 		uxth	r8, r2
 6653              	.L373:
 414:lvgl/src/draw/sw/lv_draw_sw_rect.c ****     area_inner.x2 -= ((dsc->border_side & LV_BORDER_SIDE_RIGHT) ? dsc->border_width : - (dsc->borde
 6654              		.loc 1 414 19 discriminator 4 view .LVU2445
 6655 00a4 4744     		add	r7, r7, r8
 6656              	.LVL608:
 414:lvgl/src/draw/sw/lv_draw_sw_rect.c ****     area_inner.x2 -= ((dsc->border_side & LV_BORDER_SIDE_RIGHT) ? dsc->border_width : - (dsc->borde
 6657              		.loc 1 414 19 discriminator 4 view .LVU2446
 6658 00a6 ADF81870 		strh	r7, [sp, #24]	@ movhi
 415:lvgl/src/draw/sw/lv_draw_sw_rect.c ****     area_inner.y1 += ((dsc->border_side & LV_BORDER_SIDE_TOP) ? dsc->border_width : - (dsc->border_
 6659              		.loc 1 415 5 is_stmt 1 discriminator 4 view .LVU2447
 415:lvgl/src/draw/sw/lv_draw_sw_rect.c ****     area_inner.y1 += ((dsc->border_side & LV_BORDER_SIDE_TOP) ? dsc->border_width : - (dsc->border_
 6660              		.loc 1 415 19 is_stmt 0 discriminator 4 view .LVU2448
 6661 00aa 1CF0080F 		tst	ip, #8
 6662 00ae 2FD0     		beq	.L374
 415:lvgl/src/draw/sw/lv_draw_sw_rect.c ****     area_inner.y1 += ((dsc->border_side & LV_BORDER_SIDE_TOP) ? dsc->border_width : - (dsc->border_
 6663              		.loc 1 415 19 discriminator 1 view .LVU2449
 6664 00b0 97B2     		uxth	r7, r2
 6665              	.L375:
 415:lvgl/src/draw/sw/lv_draw_sw_rect.c ****     area_inner.y1 += ((dsc->border_side & LV_BORDER_SIDE_TOP) ? dsc->border_width : - (dsc->border_
 6666              		.loc 1 415 19 discriminator 4 view .LVU2450
 6667 00b2 059D     		ldr	r5, [sp, #20]
 6668 00b4 ED1B     		subs	r5, r5, r7
 6669 00b6 ADF81C50 		strh	r5, [sp, #28]	@ movhi
 416:lvgl/src/draw/sw/lv_draw_sw_rect.c ****     area_inner.y2 -= ((dsc->border_side & LV_BORDER_SIDE_BOTTOM) ? dsc->border_width : - (dsc->bord
 6670              		.loc 1 416 5 is_stmt 1 discriminator 4 view .LVU2451
 416:lvgl/src/draw/sw/lv_draw_sw_rect.c ****     area_inner.y2 -= ((dsc->border_side & LV_BORDER_SIDE_BOTTOM) ? dsc->border_width : - (dsc->bord
 6671              		.loc 1 416 19 is_stmt 0 discriminator 4 view .LVU2452
 6672 00ba 1CF0020F 		tst	ip, #2
 6673 00be 2DD0     		beq	.L376
 416:lvgl/src/draw/sw/lv_draw_sw_rect.c ****     area_inner.y2 -= ((dsc->border_side & LV_BORDER_SIDE_BOTTOM) ? dsc->border_width : - (dsc->bord
 6674              		.loc 1 416 19 discriminator 1 view .LVU2453
 6675 00c0 95B2     		uxth	r5, r2
 6676              	.L377:
 416:lvgl/src/draw/sw/lv_draw_sw_rect.c ****     area_inner.y2 -= ((dsc->border_side & LV_BORDER_SIDE_BOTTOM) ? dsc->border_width : - (dsc->bord
 6677              		.loc 1 416 19 discriminator 4 view .LVU2454
 6678 00c2 2E44     		add	r6, r6, r5
 6679              	.LVL609:
 416:lvgl/src/draw/sw/lv_draw_sw_rect.c ****     area_inner.y2 -= ((dsc->border_side & LV_BORDER_SIDE_BOTTOM) ? dsc->border_width : - (dsc->bord
 6680              		.loc 1 416 19 discriminator 4 view .LVU2455
 6681 00c4 ADF81A60 		strh	r6, [sp, #26]	@ movhi
 417:lvgl/src/draw/sw/lv_draw_sw_rect.c **** 
 6682              		.loc 1 417 5 is_stmt 1 discriminator 4 view .LVU2456
 417:lvgl/src/draw/sw/lv_draw_sw_rect.c **** 
 6683              		.loc 1 417 19 is_stmt 0 discriminator 4 view .LVU2457
 6684 00c8 1CF0010F 		tst	ip, #1
 6685 00cc 2CD0     		beq	.L378
 417:lvgl/src/draw/sw/lv_draw_sw_rect.c **** 
 6686              		.loc 1 417 19 discriminator 1 view .LVU2458
 6687 00ce 95B2     		uxth	r5, r2
 6688              	.L379:
 417:lvgl/src/draw/sw/lv_draw_sw_rect.c **** 
 6689              		.loc 1 417 19 discriminator 4 view .LVU2459
 6690 00d0 AEEB050E 		sub	lr, lr, r5
 6691              	.LVL610:
ARM GAS  C:\Users\OSD\AppData\Local\Temp\ccS6lZqb.s 			page 186


 417:lvgl/src/draw/sw/lv_draw_sw_rect.c **** 
 6692              		.loc 1 417 19 discriminator 4 view .LVU2460
 6693 00d4 ADF81EE0 		strh	lr, [sp, #30]	@ movhi
 419:lvgl/src/draw/sw/lv_draw_sw_rect.c ****     if(rin < 0) rin = 0;
 6694              		.loc 1 419 5 is_stmt 1 discriminator 4 view .LVU2461
 419:lvgl/src/draw/sw/lv_draw_sw_rect.c ****     if(rin < 0) rin = 0;
 6695              		.loc 1 419 32 is_stmt 0 discriminator 4 view .LVU2462
 6696 00d8 92B2     		uxth	r2, r2
 419:lvgl/src/draw/sw/lv_draw_sw_rect.c ****     if(rin < 0) rin = 0;
 6697              		.loc 1 419 27 discriminator 4 view .LVU2463
 6698 00da 9A1A     		subs	r2, r3, r2
 419:lvgl/src/draw/sw/lv_draw_sw_rect.c ****     if(rin < 0) rin = 0;
 6699              		.loc 1 419 16 discriminator 4 view .LVU2464
 6700 00dc 12B2     		sxth	r2, r2
 6701              	.LVL611:
 420:lvgl/src/draw/sw/lv_draw_sw_rect.c **** 
 6702              		.loc 1 420 5 is_stmt 1 discriminator 4 view .LVU2465
 420:lvgl/src/draw/sw/lv_draw_sw_rect.c **** 
 6703              		.loc 1 420 7 is_stmt 0 discriminator 4 view .LVU2466
 6704 00de 002A     		cmp	r2, #0
 6705 00e0 28DB     		blt	.L384
 6706              	.LVL612:
 6707              	.L380:
 422:lvgl/src/draw/sw/lv_draw_sw_rect.c **** 
 6708              		.loc 1 422 5 is_stmt 1 view .LVU2467
 6709 00e2 8D78     		ldrb	r5, [r1, #2]	@ zero_extendqisi2
 6710 00e4 0395     		str	r5, [sp, #12]
 6711 00e6 0294     		str	r4, [sp, #8]
 6712 00e8 C96A     		ldr	r1, [r1, #44]
 6713              	.LVL613:
 422:lvgl/src/draw/sw/lv_draw_sw_rect.c **** 
 6714              		.loc 1 422 5 is_stmt 0 view .LVU2468
 6715 00ea 0191     		str	r1, [sp, #4]
 6716 00ec 0092     		str	r2, [sp]
 6717 00ee 06AA     		add	r2, sp, #24
 6718              	.LVL614:
 422:lvgl/src/draw/sw/lv_draw_sw_rect.c **** 
 6719              		.loc 1 422 5 view .LVU2469
 6720 00f0 0146     		mov	r1, r0
 6721 00f2 0498     		ldr	r0, [sp, #16]
 6722              	.LVL615:
 422:lvgl/src/draw/sw/lv_draw_sw_rect.c **** 
 6723              		.loc 1 422 5 view .LVU2470
 6724 00f4 FFF7FEFF 		bl	draw_border_generic
 6725              	.LVL616:
 6726              	.L369:
 424:lvgl/src/draw/sw/lv_draw_sw_rect.c **** 
 6727              		.loc 1 424 1 view .LVU2471
 6728 00f8 09B0     		add	sp, sp, #36
 6729              		.cfi_remember_state
 6730              		.cfi_def_cfa_offset 36
 6731              		@ sp needed
 6732 00fa BDE8F08F 		pop	{r4, r5, r6, r7, r8, r9, r10, fp, pc}
 6733              	.LVL617:
 6734              	.L372:
 6735              		.cfi_restore_state
 414:lvgl/src/draw/sw/lv_draw_sw_rect.c ****     area_inner.x2 -= ((dsc->border_side & LV_BORDER_SIDE_RIGHT) ? dsc->border_width : - (dsc->borde
ARM GAS  C:\Users\OSD\AppData\Local\Temp\ccS6lZqb.s 			page 187


 6736              		.loc 1 414 107 discriminator 2 view .LVU2472
 6737 00fe 13FA82F8 		uxtah	r8, r3, r2
 6738 0102 1FFA88F8 		uxth	r8, r8
 414:lvgl/src/draw/sw/lv_draw_sw_rect.c ****     area_inner.x2 -= ((dsc->border_side & LV_BORDER_SIDE_RIGHT) ? dsc->border_width : - (dsc->borde
 6739              		.loc 1 414 19 discriminator 2 view .LVU2473
 6740 0106 C8F10008 		rsb	r8, r8, #0
 6741 010a 1FFA88F8 		uxth	r8, r8
 6742 010e C9E7     		b	.L373
 6743              	.LVL618:
 6744              	.L374:
 415:lvgl/src/draw/sw/lv_draw_sw_rect.c ****     area_inner.y1 += ((dsc->border_side & LV_BORDER_SIDE_TOP) ? dsc->border_width : - (dsc->border_
 6745              		.loc 1 415 108 discriminator 2 view .LVU2474
 6746 0110 13FA82F7 		uxtah	r7, r3, r2
 6747 0114 BFB2     		uxth	r7, r7
 415:lvgl/src/draw/sw/lv_draw_sw_rect.c ****     area_inner.y1 += ((dsc->border_side & LV_BORDER_SIDE_TOP) ? dsc->border_width : - (dsc->border_
 6748              		.loc 1 415 19 discriminator 2 view .LVU2475
 6749 0116 7F42     		rsbs	r7, r7, #0
 6750 0118 BFB2     		uxth	r7, r7
 6751 011a CAE7     		b	.L375
 6752              	.L376:
 416:lvgl/src/draw/sw/lv_draw_sw_rect.c ****     area_inner.y2 -= ((dsc->border_side & LV_BORDER_SIDE_BOTTOM) ? dsc->border_width : - (dsc->bord
 6753              		.loc 1 416 106 discriminator 2 view .LVU2476
 6754 011c 13FA82F5 		uxtah	r5, r3, r2
 6755 0120 ADB2     		uxth	r5, r5
 416:lvgl/src/draw/sw/lv_draw_sw_rect.c ****     area_inner.y2 -= ((dsc->border_side & LV_BORDER_SIDE_BOTTOM) ? dsc->border_width : - (dsc->bord
 6756              		.loc 1 416 19 discriminator 2 view .LVU2477
 6757 0122 6D42     		rsbs	r5, r5, #0
 6758 0124 ADB2     		uxth	r5, r5
 6759 0126 CCE7     		b	.L377
 6760              	.LVL619:
 6761              	.L378:
 417:lvgl/src/draw/sw/lv_draw_sw_rect.c **** 
 6762              		.loc 1 417 109 discriminator 2 view .LVU2478
 6763 0128 13FA82F5 		uxtah	r5, r3, r2
 6764 012c ADB2     		uxth	r5, r5
 417:lvgl/src/draw/sw/lv_draw_sw_rect.c **** 
 6765              		.loc 1 417 19 discriminator 2 view .LVU2479
 6766 012e 6D42     		rsbs	r5, r5, #0
 6767 0130 ADB2     		uxth	r5, r5
 6768 0132 CDE7     		b	.L379
 6769              	.LVL620:
 6770              	.L384:
 420:lvgl/src/draw/sw/lv_draw_sw_rect.c **** 
 6771              		.loc 1 420 21 view .LVU2480
 6772 0134 0022     		movs	r2, #0
 6773              	.LVL621:
 420:lvgl/src/draw/sw/lv_draw_sw_rect.c **** 
 6774              		.loc 1 420 21 view .LVU2481
 6775 0136 D4E7     		b	.L380
 6776              		.cfi_endproc
 6777              	.LFE165:
 6779              		.section	.text.draw_outline,"ax",%progbits
 6780              		.align	1
 6781              		.syntax unified
 6782              		.thumb
 6783              		.thumb_func
 6785              	draw_outline:
ARM GAS  C:\Users\OSD\AppData\Local\Temp\ccS6lZqb.s 			page 188


 6786              	.LVL622:
 6787              	.LFB169:
1107:lvgl/src/draw/sw/lv_draw_sw_rect.c ****     if(dsc->outline_opa <= LV_OPA_MIN) return;
 6788              		.loc 1 1107 1 is_stmt 1 view -0
 6789              		.cfi_startproc
 6790              		@ args = 0, pretend = 0, frame = 16
 6791              		@ frame_needed = 0, uses_anonymous_args = 0
1107:lvgl/src/draw/sw/lv_draw_sw_rect.c ****     if(dsc->outline_opa <= LV_OPA_MIN) return;
 6792              		.loc 1 1107 1 is_stmt 0 view .LVU2483
 6793 0000 2DE9F043 		push	{r4, r5, r6, r7, r8, r9, lr}
 6794              		.cfi_def_cfa_offset 28
 6795              		.cfi_offset 4, -28
 6796              		.cfi_offset 5, -24
 6797              		.cfi_offset 6, -20
 6798              		.cfi_offset 7, -16
 6799              		.cfi_offset 8, -12
 6800              		.cfi_offset 9, -8
 6801              		.cfi_offset 14, -4
 6802 0004 89B0     		sub	sp, sp, #36
 6803              		.cfi_def_cfa_offset 64
1108:lvgl/src/draw/sw/lv_draw_sw_rect.c ****     if(dsc->outline_width == 0) return;
 6804              		.loc 1 1108 5 is_stmt 1 view .LVU2484
1108:lvgl/src/draw/sw/lv_draw_sw_rect.c ****     if(dsc->outline_width == 0) return;
 6805              		.loc 1 1108 11 is_stmt 0 view .LVU2485
 6806 0006 91F83C40 		ldrb	r4, [r1, #60]	@ zero_extendqisi2
1108:lvgl/src/draw/sw/lv_draw_sw_rect.c ****     if(dsc->outline_width == 0) return;
 6807              		.loc 1 1108 7 view .LVU2486
 6808 000a 022C     		cmp	r4, #2
 6809 000c 6AD9     		bls	.L385
1109:lvgl/src/draw/sw/lv_draw_sw_rect.c **** 
 6810              		.loc 1 1109 5 is_stmt 1 view .LVU2487
1109:lvgl/src/draw/sw/lv_draw_sw_rect.c **** 
 6811              		.loc 1 1109 11 is_stmt 0 view .LVU2488
 6812 000e B1F93870 		ldrsh	r7, [r1, #56]
1109:lvgl/src/draw/sw/lv_draw_sw_rect.c **** 
 6813              		.loc 1 1109 7 view .LVU2489
 6814 0012 002F     		cmp	r7, #0
 6815 0014 66D0     		beq	.L385
1111:lvgl/src/draw/sw/lv_draw_sw_rect.c **** 
 6816              		.loc 1 1111 5 is_stmt 1 view .LVU2490
 6817              	.LVL623:
1113:lvgl/src/draw/sw/lv_draw_sw_rect.c **** 
 6818              		.loc 1 1113 5 view .LVU2491
1116:lvgl/src/draw/sw/lv_draw_sw_rect.c ****     lv_area_copy(&area_inner, coords);
 6819              		.loc 1 1116 5 view .LVU2492
1117:lvgl/src/draw/sw/lv_draw_sw_rect.c **** 
 6820              		.loc 1 1117 5 view .LVU2493
 6821              	.LBB226:
 6822              	.LBI226:
 110:lvgl/src/draw/sw/../../misc/lv_area.h **** {
 6823              		.loc 2 110 20 view .LVU2494
 6824              	.LBB227:
 112:lvgl/src/draw/sw/../../misc/lv_area.h ****     dest->y1 = src->y1;
 6825              		.loc 2 112 5 view .LVU2495
 112:lvgl/src/draw/sw/../../misc/lv_area.h ****     dest->y1 = src->y1;
 6826              		.loc 2 112 19 is_stmt 0 view .LVU2496
 6827 0016 B2F90090 		ldrsh	r9, [r2]
ARM GAS  C:\Users\OSD\AppData\Local\Temp\ccS6lZqb.s 			page 189


 112:lvgl/src/draw/sw/../../misc/lv_area.h ****     dest->y1 = src->y1;
 6828              		.loc 2 112 14 view .LVU2497
 6829 001a ADF81890 		strh	r9, [sp, #24]	@ movhi
 113:lvgl/src/draw/sw/../../misc/lv_area.h ****     dest->x2 = src->x2;
 6830              		.loc 2 113 5 is_stmt 1 view .LVU2498
 113:lvgl/src/draw/sw/../../misc/lv_area.h ****     dest->x2 = src->x2;
 6831              		.loc 2 113 19 is_stmt 0 view .LVU2499
 6832 001e B2F90260 		ldrsh	r6, [r2, #2]
 113:lvgl/src/draw/sw/../../misc/lv_area.h ****     dest->x2 = src->x2;
 6833              		.loc 2 113 14 view .LVU2500
 6834 0022 ADF81A60 		strh	r6, [sp, #26]	@ movhi
 114:lvgl/src/draw/sw/../../misc/lv_area.h ****     dest->y2 = src->y2;
 6835              		.loc 2 114 5 is_stmt 1 view .LVU2501
 114:lvgl/src/draw/sw/../../misc/lv_area.h ****     dest->y2 = src->y2;
 6836              		.loc 2 114 19 is_stmt 0 view .LVU2502
 6837 0026 B2F90450 		ldrsh	r5, [r2, #4]
 114:lvgl/src/draw/sw/../../misc/lv_area.h ****     dest->y2 = src->y2;
 6838              		.loc 2 114 14 view .LVU2503
 6839 002a ADF81C50 		strh	r5, [sp, #28]	@ movhi
 115:lvgl/src/draw/sw/../../misc/lv_area.h **** }
 6840              		.loc 2 115 5 is_stmt 1 view .LVU2504
 115:lvgl/src/draw/sw/../../misc/lv_area.h **** }
 6841              		.loc 2 115 19 is_stmt 0 view .LVU2505
 6842 002e B2F906C0 		ldrsh	ip, [r2, #6]
 115:lvgl/src/draw/sw/../../misc/lv_area.h **** }
 6843              		.loc 2 115 14 view .LVU2506
 6844 0032 ADF81EC0 		strh	ip, [sp, #30]	@ movhi
 6845              	.LVL624:
 115:lvgl/src/draw/sw/../../misc/lv_area.h **** }
 6846              		.loc 2 115 14 view .LVU2507
 6847              	.LBE227:
 6848              	.LBE226:
1120:lvgl/src/draw/sw/lv_draw_sw_rect.c ****     area_inner.x1 -= pad;
 6849              		.loc 1 1120 5 is_stmt 1 view .LVU2508
1120:lvgl/src/draw/sw/lv_draw_sw_rect.c ****     area_inner.x1 -= pad;
 6850              		.loc 1 1120 25 is_stmt 0 view .LVU2509
 6851 0036 4B8F     		ldrh	r3, [r1, #58]
1120:lvgl/src/draw/sw/lv_draw_sw_rect.c ****     area_inner.x1 -= pad;
 6852              		.loc 1 1120 39 view .LVU2510
 6853 0038 013B     		subs	r3, r3, #1
 6854 003a 9BB2     		uxth	r3, r3
 6855              	.LVL625:
1121:lvgl/src/draw/sw/lv_draw_sw_rect.c ****     area_inner.y1 -= pad;
 6856              		.loc 1 1121 5 is_stmt 1 view .LVU2511
1121:lvgl/src/draw/sw/lv_draw_sw_rect.c ****     area_inner.y1 -= pad;
 6857              		.loc 1 1121 19 is_stmt 0 view .LVU2512
 6858 003c A9EB0309 		sub	r9, r9, r3
 6859 0040 1FFA89F8 		uxth	r8, r9
 6860 0044 0FFA89F9 		sxth	r9, r9
 6861 0048 ADF81890 		strh	r9, [sp, #24]	@ movhi
1122:lvgl/src/draw/sw/lv_draw_sw_rect.c ****     area_inner.x2 += pad;
 6862              		.loc 1 1122 5 is_stmt 1 view .LVU2513
1122:lvgl/src/draw/sw/lv_draw_sw_rect.c ****     area_inner.x2 += pad;
 6863              		.loc 1 1122 19 is_stmt 0 view .LVU2514
 6864 004c F61A     		subs	r6, r6, r3
 6865 004e 1FFA86FE 		uxth	lr, r6
 6866 0052 36B2     		sxth	r6, r6
ARM GAS  C:\Users\OSD\AppData\Local\Temp\ccS6lZqb.s 			page 190


 6867 0054 ADF81A60 		strh	r6, [sp, #26]	@ movhi
1123:lvgl/src/draw/sw/lv_draw_sw_rect.c ****     area_inner.y2 += pad;
 6868              		.loc 1 1123 5 is_stmt 1 view .LVU2515
1123:lvgl/src/draw/sw/lv_draw_sw_rect.c ****     area_inner.y2 += pad;
 6869              		.loc 1 1123 19 is_stmt 0 view .LVU2516
 6870 0058 1D44     		add	r5, r5, r3
 6871 005a AAB2     		uxth	r2, r5
 6872              	.LVL626:
1123:lvgl/src/draw/sw/lv_draw_sw_rect.c ****     area_inner.y2 += pad;
 6873              		.loc 1 1123 19 view .LVU2517
 6874 005c 2DB2     		sxth	r5, r5
 6875 005e ADF81C50 		strh	r5, [sp, #28]	@ movhi
1124:lvgl/src/draw/sw/lv_draw_sw_rect.c **** 
 6876              		.loc 1 1124 5 is_stmt 1 view .LVU2518
1124:lvgl/src/draw/sw/lv_draw_sw_rect.c **** 
 6877              		.loc 1 1124 19 is_stmt 0 view .LVU2519
 6878 0062 6344     		add	r3, r3, ip
 6879              	.LVL627:
1124:lvgl/src/draw/sw/lv_draw_sw_rect.c **** 
 6880              		.loc 1 1124 19 view .LVU2520
 6881 0064 1FFA83FC 		uxth	ip, r3
 6882 0068 1BB2     		sxth	r3, r3
 6883 006a ADF81E30 		strh	r3, [sp, #30]	@ movhi
1126:lvgl/src/draw/sw/lv_draw_sw_rect.c ****     lv_area_copy(&area_outer, &area_inner);
 6884              		.loc 1 1126 5 is_stmt 1 view .LVU2521
1127:lvgl/src/draw/sw/lv_draw_sw_rect.c **** 
 6885              		.loc 1 1127 5 view .LVU2522
 6886              	.LVL628:
 6887              	.LBB228:
 6888              	.LBI228:
 110:lvgl/src/draw/sw/../../misc/lv_area.h **** {
 6889              		.loc 2 110 20 view .LVU2523
 6890              	.LBB229:
 112:lvgl/src/draw/sw/../../misc/lv_area.h ****     dest->y1 = src->y1;
 6891              		.loc 2 112 5 view .LVU2524
 112:lvgl/src/draw/sw/../../misc/lv_area.h ****     dest->y1 = src->y1;
 6892              		.loc 2 112 14 is_stmt 0 view .LVU2525
 6893 006e ADF81090 		strh	r9, [sp, #16]	@ movhi
 113:lvgl/src/draw/sw/../../misc/lv_area.h ****     dest->x2 = src->x2;
 6894              		.loc 2 113 5 is_stmt 1 view .LVU2526
 113:lvgl/src/draw/sw/../../misc/lv_area.h ****     dest->x2 = src->x2;
 6895              		.loc 2 113 14 is_stmt 0 view .LVU2527
 6896 0072 ADF81260 		strh	r6, [sp, #18]	@ movhi
 114:lvgl/src/draw/sw/../../misc/lv_area.h ****     dest->y2 = src->y2;
 6897              		.loc 2 114 5 is_stmt 1 view .LVU2528
 114:lvgl/src/draw/sw/../../misc/lv_area.h ****     dest->y2 = src->y2;
 6898              		.loc 2 114 14 is_stmt 0 view .LVU2529
 6899 0076 ADF81450 		strh	r5, [sp, #20]	@ movhi
 115:lvgl/src/draw/sw/../../misc/lv_area.h **** }
 6900              		.loc 2 115 5 is_stmt 1 view .LVU2530
 115:lvgl/src/draw/sw/../../misc/lv_area.h **** }
 6901              		.loc 2 115 14 is_stmt 0 view .LVU2531
 6902 007a ADF81630 		strh	r3, [sp, #22]	@ movhi
 6903              	.LVL629:
 115:lvgl/src/draw/sw/../../misc/lv_area.h **** }
 6904              		.loc 2 115 14 view .LVU2532
 6905              	.LBE229:
ARM GAS  C:\Users\OSD\AppData\Local\Temp\ccS6lZqb.s 			page 191


 6906              	.LBE228:
1129:lvgl/src/draw/sw/lv_draw_sw_rect.c ****     area_outer.x2 += dsc->outline_width;
 6907              		.loc 1 1129 5 is_stmt 1 view .LVU2533
1129:lvgl/src/draw/sw/lv_draw_sw_rect.c ****     area_outer.x2 += dsc->outline_width;
 6908              		.loc 1 1129 25 is_stmt 0 view .LVU2534
 6909 007e BBB2     		uxth	r3, r7
1129:lvgl/src/draw/sw/lv_draw_sw_rect.c ****     area_outer.x2 += dsc->outline_width;
 6910              		.loc 1 1129 19 view .LVU2535
 6911 0080 A8EB0305 		sub	r5, r8, r3
 6912 0084 ADF81050 		strh	r5, [sp, #16]	@ movhi
1130:lvgl/src/draw/sw/lv_draw_sw_rect.c ****     area_outer.y1 -= dsc->outline_width;
 6913              		.loc 1 1130 5 is_stmt 1 view .LVU2536
1130:lvgl/src/draw/sw/lv_draw_sw_rect.c ****     area_outer.y1 -= dsc->outline_width;
 6914              		.loc 1 1130 19 is_stmt 0 view .LVU2537
 6915 0088 D518     		adds	r5, r2, r3
 6916 008a ADF81450 		strh	r5, [sp, #20]	@ movhi
1131:lvgl/src/draw/sw/lv_draw_sw_rect.c ****     area_outer.y2 += dsc->outline_width;
 6917              		.loc 1 1131 5 is_stmt 1 view .LVU2538
1131:lvgl/src/draw/sw/lv_draw_sw_rect.c ****     area_outer.y2 += dsc->outline_width;
 6918              		.loc 1 1131 19 is_stmt 0 view .LVU2539
 6919 008e AEEB0305 		sub	r5, lr, r3
 6920 0092 ADF81250 		strh	r5, [sp, #18]	@ movhi
1132:lvgl/src/draw/sw/lv_draw_sw_rect.c **** 
 6921              		.loc 1 1132 5 is_stmt 1 view .LVU2540
1132:lvgl/src/draw/sw/lv_draw_sw_rect.c **** 
 6922              		.loc 1 1132 19 is_stmt 0 view .LVU2541
 6923 0096 0CEB0305 		add	r5, ip, r3
 6924 009a ADF81650 		strh	r5, [sp, #22]	@ movhi
1134:lvgl/src/draw/sw/lv_draw_sw_rect.c ****     int32_t inner_h = lv_area_get_height(&area_inner);
 6925              		.loc 1 1134 5 is_stmt 1 view .LVU2542
 6926              	.LVL630:
 6927              	.LBB230:
 6928              	.LBI230:
 123:lvgl/src/draw/sw/../../misc/lv_area.h **** {
 6929              		.loc 2 123 26 view .LVU2543
 6930              	.LBB231:
 125:lvgl/src/draw/sw/../../misc/lv_area.h **** }
 6931              		.loc 2 125 5 view .LVU2544
 125:lvgl/src/draw/sw/../../misc/lv_area.h **** }
 6932              		.loc 2 125 36 is_stmt 0 view .LVU2545
 6933 009e A2EB0802 		sub	r2, r2, r8
 6934 00a2 92B2     		uxth	r2, r2
 125:lvgl/src/draw/sw/../../misc/lv_area.h **** }
 6935              		.loc 2 125 49 view .LVU2546
 6936 00a4 0132     		adds	r2, r2, #1
 125:lvgl/src/draw/sw/../../misc/lv_area.h **** }
 6937              		.loc 2 125 12 view .LVU2547
 6938 00a6 12B2     		sxth	r2, r2
 6939              	.LVL631:
 125:lvgl/src/draw/sw/../../misc/lv_area.h **** }
 6940              		.loc 2 125 12 view .LVU2548
 6941              	.LBE231:
 6942              	.LBE230:
1135:lvgl/src/draw/sw/lv_draw_sw_rect.c ****     int32_t rin = dsc->radius;
 6943              		.loc 1 1135 5 is_stmt 1 view .LVU2549
 6944              	.LBB232:
 6945              	.LBI232:
ARM GAS  C:\Users\OSD\AppData\Local\Temp\ccS6lZqb.s 			page 192


 133:lvgl/src/draw/sw/../../misc/lv_area.h **** {
 6946              		.loc 2 133 26 view .LVU2550
 6947              	.LBB233:
 6948              		.loc 2 135 5 view .LVU2551
 6949              		.loc 2 135 36 is_stmt 0 view .LVU2552
 6950 00a8 ACEB0E0C 		sub	ip, ip, lr
 6951 00ac 1FFA8CFC 		uxth	ip, ip
 6952              		.loc 2 135 49 view .LVU2553
 6953 00b0 0CF1010C 		add	ip, ip, #1
 6954              		.loc 2 135 12 view .LVU2554
 6955 00b4 0FFA8CFC 		sxth	ip, ip
 6956              	.LVL632:
 6957              		.loc 2 135 12 view .LVU2555
 6958              	.LBE233:
 6959              	.LBE232:
1136:lvgl/src/draw/sw/lv_draw_sw_rect.c ****     int32_t short_side = LV_MIN(inner_w, inner_h);
 6960              		.loc 1 1136 5 is_stmt 1 view .LVU2556
1136:lvgl/src/draw/sw/lv_draw_sw_rect.c ****     int32_t short_side = LV_MIN(inner_w, inner_h);
 6961              		.loc 1 1136 22 is_stmt 0 view .LVU2557
 6962 00b8 B1F90060 		ldrsh	r6, [r1]
 6963              	.LVL633:
1137:lvgl/src/draw/sw/lv_draw_sw_rect.c ****     if(rin > short_side >> 1) rin = short_side >> 1;
 6964              		.loc 1 1137 5 is_stmt 1 view .LVU2558
1137:lvgl/src/draw/sw/lv_draw_sw_rect.c ****     if(rin > short_side >> 1) rin = short_side >> 1;
 6965              		.loc 1 1137 13 is_stmt 0 view .LVU2559
 6966 00bc 6245     		cmp	r2, ip
 6967 00be A8BF     		it	ge
 6968 00c0 6246     		movge	r2, ip
 6969              	.LVL634:
1138:lvgl/src/draw/sw/lv_draw_sw_rect.c **** 
 6970              		.loc 1 1138 5 is_stmt 1 view .LVU2560
1138:lvgl/src/draw/sw/lv_draw_sw_rect.c **** 
 6971              		.loc 1 1138 25 is_stmt 0 view .LVU2561
 6972 00c2 5510     		asrs	r5, r2, #1
1138:lvgl/src/draw/sw/lv_draw_sw_rect.c **** 
 6973              		.loc 1 1138 7 view .LVU2562
 6974 00c4 B6EB620F 		cmp	r6, r2, asr #1
 6975 00c8 00DC     		bgt	.L387
1136:lvgl/src/draw/sw/lv_draw_sw_rect.c ****     int32_t short_side = LV_MIN(inner_w, inner_h);
 6976              		.loc 1 1136 13 view .LVU2563
 6977 00ca 3546     		mov	r5, r6
 6978              	.L387:
 6979              	.LVL635:
1140:lvgl/src/draw/sw/lv_draw_sw_rect.c **** 
 6980              		.loc 1 1140 5 is_stmt 1 view .LVU2564
1140:lvgl/src/draw/sw/lv_draw_sw_rect.c **** 
 6981              		.loc 1 1140 27 is_stmt 0 view .LVU2565
 6982 00cc 2B44     		add	r3, r3, r5
 6983              	.LVL636:
1142:lvgl/src/draw/sw/lv_draw_sw_rect.c ****                         dsc->blend_mode);
 6984              		.loc 1 1142 5 is_stmt 1 view .LVU2566
 6985 00ce 8A78     		ldrb	r2, [r1, #2]	@ zero_extendqisi2
 6986              	.LVL637:
1142:lvgl/src/draw/sw/lv_draw_sw_rect.c ****                         dsc->blend_mode);
 6987              		.loc 1 1142 5 is_stmt 0 view .LVU2567
 6988 00d0 0392     		str	r2, [sp, #12]
 6989              	.LVL638:
ARM GAS  C:\Users\OSD\AppData\Local\Temp\ccS6lZqb.s 			page 193


1142:lvgl/src/draw/sw/lv_draw_sw_rect.c ****                         dsc->blend_mode);
 6990              		.loc 1 1142 5 view .LVU2568
 6991 00d2 0294     		str	r4, [sp, #8]
 6992 00d4 4A6B     		ldr	r2, [r1, #52]
 6993 00d6 0192     		str	r2, [sp, #4]
 6994 00d8 0095     		str	r5, [sp]
 6995 00da 1BB2     		sxth	r3, r3
1142:lvgl/src/draw/sw/lv_draw_sw_rect.c ****                         dsc->blend_mode);
 6996              		.loc 1 1142 5 view .LVU2569
 6997 00dc 06AA     		add	r2, sp, #24
 6998 00de 04A9     		add	r1, sp, #16
 6999              	.LVL639:
1142:lvgl/src/draw/sw/lv_draw_sw_rect.c ****                         dsc->blend_mode);
 7000              		.loc 1 1142 5 view .LVU2570
 7001 00e0 FFF7FEFF 		bl	draw_border_generic
 7002              	.LVL640:
 7003              	.L385:
1144:lvgl/src/draw/sw/lv_draw_sw_rect.c **** 
 7004              		.loc 1 1144 1 view .LVU2571
 7005 00e4 09B0     		add	sp, sp, #36
 7006              		.cfi_def_cfa_offset 28
 7007              		@ sp needed
 7008 00e6 BDE8F083 		pop	{r4, r5, r6, r7, r8, r9, pc}
 7009              		.cfi_endproc
 7010              	.LFE169:
 7012              		.section	.text.lv_draw_sw_rect,"ax",%progbits
 7013              		.align	1
 7014              		.global	lv_draw_sw_rect
 7015              		.syntax unified
 7016              		.thumb
 7017              		.thumb_func
 7019              	lv_draw_sw_rect:
 7020              	.LVL641:
 7021              	.LFB161:
  68:lvgl/src/draw/sw/lv_draw_sw_rect.c **** #if LV_DRAW_COMPLEX
 7022              		.loc 1 68 1 is_stmt 1 view -0
 7023              		.cfi_startproc
 7024              		@ args = 0, pretend = 0, frame = 0
 7025              		@ frame_needed = 0, uses_anonymous_args = 0
  68:lvgl/src/draw/sw/lv_draw_sw_rect.c **** #if LV_DRAW_COMPLEX
 7026              		.loc 1 68 1 is_stmt 0 view .LVU2573
 7027 0000 70B5     		push	{r4, r5, r6, lr}
 7028              		.cfi_def_cfa_offset 16
 7029              		.cfi_offset 4, -16
 7030              		.cfi_offset 5, -12
 7031              		.cfi_offset 6, -8
 7032              		.cfi_offset 14, -4
 7033 0002 0446     		mov	r4, r0
 7034 0004 0D46     		mov	r5, r1
 7035 0006 1646     		mov	r6, r2
  70:lvgl/src/draw/sw/lv_draw_sw_rect.c **** #endif
 7036              		.loc 1 70 5 is_stmt 1 view .LVU2574
 7037 0008 FFF7FEFF 		bl	draw_shadow
 7038              	.LVL642:
  73:lvgl/src/draw/sw/lv_draw_sw_rect.c ****     draw_bg_img(draw_ctx, dsc, coords);
 7039              		.loc 1 73 5 view .LVU2575
 7040 000c 3246     		mov	r2, r6
ARM GAS  C:\Users\OSD\AppData\Local\Temp\ccS6lZqb.s 			page 194


 7041 000e 2946     		mov	r1, r5
 7042 0010 2046     		mov	r0, r4
 7043 0012 FFF7FEFF 		bl	draw_bg
 7044              	.LVL643:
  74:lvgl/src/draw/sw/lv_draw_sw_rect.c **** 
 7045              		.loc 1 74 5 view .LVU2576
 7046 0016 3246     		mov	r2, r6
 7047 0018 2946     		mov	r1, r5
 7048 001a 2046     		mov	r0, r4
 7049 001c FFF7FEFF 		bl	draw_bg_img
 7050              	.LVL644:
  76:lvgl/src/draw/sw/lv_draw_sw_rect.c **** 
 7051              		.loc 1 76 5 view .LVU2577
 7052 0020 3246     		mov	r2, r6
 7053 0022 2946     		mov	r1, r5
 7054 0024 2046     		mov	r0, r4
 7055 0026 FFF7FEFF 		bl	draw_border
 7056              	.LVL645:
  78:lvgl/src/draw/sw/lv_draw_sw_rect.c **** 
 7057              		.loc 1 78 5 view .LVU2578
 7058 002a 3246     		mov	r2, r6
 7059 002c 2946     		mov	r1, r5
 7060 002e 2046     		mov	r0, r4
 7061 0030 FFF7FEFF 		bl	draw_outline
 7062              	.LVL646:
  80:lvgl/src/draw/sw/lv_draw_sw_rect.c **** }
 7063              		.loc 1 80 30 view .LVU2579
  81:lvgl/src/draw/sw/lv_draw_sw_rect.c **** 
 7064              		.loc 1 81 1 is_stmt 0 view .LVU2580
 7065 0034 70BD     		pop	{r4, r5, r6, pc}
  81:lvgl/src/draw/sw/lv_draw_sw_rect.c **** 
 7066              		.loc 1 81 1 view .LVU2581
 7067              		.cfi_endproc
 7068              	.LFE161:
 7070              		.text
 7071              	.Letext0:
 7072              		.file 3 "c:\\tools\\gcc-arm-none-eabi\\arm-none-eabi\\include\\machine\\_default_types.h"
 7073              		.file 4 "c:\\tools\\gcc-arm-none-eabi\\arm-none-eabi\\include\\sys\\_stdint.h"
 7074              		.file 5 "lvgl/src/draw/sw/../../misc/lv_types.h"
 7075              		.file 6 "c:\\tools\\gcc-arm-none-eabi\\lib\\gcc\\arm-none-eabi\\10.3.1\\include\\stddef.h"
 7076              		.file 7 "lvgl/src/draw/sw/../../misc/lv_color.h"
 7077              		.file 8 "lvgl/src/draw/sw/../../misc/../font/lv_font.h"
 7078              		.file 9 "lvgl/src/draw/sw/../../misc/lv_txt.h"
 7079              		.file 10 "lvgl/src/draw/sw/../../misc/lv_bidi.h"
 7080              		.file 11 "lvgl/src/draw/sw/../../misc/lv_style.h"
 7081              		.file 12 "lvgl/src/draw/sw/../lv_draw_mask.h"
 7082              		.file 13 "lvgl/src/draw/sw/lv_draw_sw_blend.h"
 7083              		.file 14 "lvgl/src/draw/sw/../lv_img_buf.h"
 7084              		.file 15 "lvgl/src/draw/sw/../lv_img_decoder.h"
 7085              		.file 16 "lvgl/src/draw/sw/../sw/lv_draw_sw_gradient.h"
 7086              		.file 17 "lvgl/src/draw/sw/../lv_draw_rect.h"
 7087              		.file 18 "lvgl/src/draw/sw/../lv_draw_label.h"
 7088              		.file 19 "lvgl/src/draw/sw/../lv_draw_img.h"
 7089              		.file 20 "lvgl/src/draw/sw/../lv_draw_line.h"
 7090              		.file 21 "lvgl/src/draw/sw/../lv_draw_arc.h"
 7091              		.file 22 "lvgl/src/draw/sw/../lv_draw_layer.h"
 7092              		.file 23 "lvgl/src/draw/sw/../lv_draw.h"
ARM GAS  C:\Users\OSD\AppData\Local\Temp\ccS6lZqb.s 			page 195


 7093              		.file 24 "lvgl/src/draw/sw/../../misc/lv_mem.h"
ARM GAS  C:\Users\OSD\AppData\Local\Temp\ccS6lZqb.s 			page 196


DEFINED SYMBOLS
                            *ABS*:00000000 lv_draw_sw_rect.c
C:\Users\OSD\AppData\Local\Temp\ccS6lZqb.s:19     .text.draw_border_simple:00000000 $t
C:\Users\OSD\AppData\Local\Temp\ccS6lZqb.s:24     .text.draw_border_simple:00000000 draw_border_simple
C:\Users\OSD\AppData\Local\Temp\ccS6lZqb.s:242    .text.shadow_blur_corner:00000000 $t
C:\Users\OSD\AppData\Local\Temp\ccS6lZqb.s:247    .text.shadow_blur_corner:00000000 shadow_blur_corner
C:\Users\OSD\AppData\Local\Temp\ccS6lZqb.s:645    .text.shadow_draw_corner_buf:00000000 $t
C:\Users\OSD\AppData\Local\Temp\ccS6lZqb.s:650    .text.shadow_draw_corner_buf:00000000 shadow_draw_corner_buf
C:\Users\OSD\AppData\Local\Temp\ccS6lZqb.s:1099   .text.draw_shadow:00000000 $t
C:\Users\OSD\AppData\Local\Temp\ccS6lZqb.s:1104   .text.draw_shadow:00000000 draw_shadow
C:\Users\OSD\AppData\Local\Temp\ccS6lZqb.s:3995   .text.draw_bg:00000000 $t
C:\Users\OSD\AppData\Local\Temp\ccS6lZqb.s:4000   .text.draw_bg:00000000 draw_bg
C:\Users\OSD\AppData\Local\Temp\ccS6lZqb.s:4876   .text.draw_bg_img:00000000 $t
C:\Users\OSD\AppData\Local\Temp\ccS6lZqb.s:4881   .text.draw_bg_img:00000000 draw_bg_img
C:\Users\OSD\AppData\Local\Temp\ccS6lZqb.s:5404   .text.lv_draw_sw_bg:00000000 $t
C:\Users\OSD\AppData\Local\Temp\ccS6lZqb.s:5410   .text.lv_draw_sw_bg:00000000 lv_draw_sw_bg
C:\Users\OSD\AppData\Local\Temp\ccS6lZqb.s:5443   .text.draw_border_generic:00000000 $t
C:\Users\OSD\AppData\Local\Temp\ccS6lZqb.s:5449   .text.draw_border_generic:00000000 draw_border_generic
C:\Users\OSD\AppData\Local\Temp\ccS6lZqb.s:6500   .text.draw_border:00000000 $t
C:\Users\OSD\AppData\Local\Temp\ccS6lZqb.s:6505   .text.draw_border:00000000 draw_border
C:\Users\OSD\AppData\Local\Temp\ccS6lZqb.s:6780   .text.draw_outline:00000000 $t
C:\Users\OSD\AppData\Local\Temp\ccS6lZqb.s:6785   .text.draw_outline:00000000 draw_outline
C:\Users\OSD\AppData\Local\Temp\ccS6lZqb.s:7013   .text.lv_draw_sw_rect:00000000 $t
C:\Users\OSD\AppData\Local\Temp\ccS6lZqb.s:7019   .text.lv_draw_sw_rect:00000000 lv_draw_sw_rect

UNDEFINED SYMBOLS
lv_memset_00
lv_draw_sw_blend
lv_mem_buf_get
lv_memcpy
lv_mem_buf_release
lv_draw_mask_radius_init
lv_memset_ff
lv_draw_mask_free_param
_lv_area_intersect
lv_area_increase
lv_draw_mask_is_any
lv_draw_mask_add
_lv_area_is_in
_lv_area_is_out
lv_draw_mask_apply
lv_memset
lv_draw_mask_remove_id
lv_gradient_get
lv_gradient_cleanup
lv_img_src_get_type
lv_img_decoder_get_info
lv_txt_get_size
lv_draw_label_dsc_init
lv_draw_label
lv_draw_img_dsc_init
lv_draw_img
