ARM GAS  C:\Users\OSD\AppData\Local\Temp\ccgzvg7d.s 			page 1


   1              		.cpu cortex-m7
   2              		.arch armv7e-m
   3              		.fpu fpv5-d16
   4              		.eabi_attribute 28, 1
   5              		.eabi_attribute 20, 1
   6              		.eabi_attribute 21, 1
   7              		.eabi_attribute 23, 3
   8              		.eabi_attribute 24, 1
   9              		.eabi_attribute 25, 1
  10              		.eabi_attribute 26, 1
  11              		.eabi_attribute 30, 1
  12              		.eabi_attribute 34, 1
  13              		.eabi_attribute 18, 4
  14              		.file	"lv_draw_sw_line.c"
  15              		.text
  16              	.Ltext0:
  17              		.cfi_sections	.debug_frame
  18              		.section	.text.draw_line_hor,"ax",%progbits
  19              		.align	1
  20              		.syntax unified
  21              		.thumb
  22              		.thumb_func
  24              	draw_line_hor:
  25              	.LVL0:
  26              	.LFB162:
  27              		.file 1 "lvgl/src/draw/sw/lv_draw_sw_line.c"
   1:lvgl/src/draw/sw/lv_draw_sw_line.c **** /**
   2:lvgl/src/draw/sw/lv_draw_sw_line.c ****  * @file lv_draw_line.c
   3:lvgl/src/draw/sw/lv_draw_sw_line.c ****  *
   4:lvgl/src/draw/sw/lv_draw_sw_line.c ****  */
   5:lvgl/src/draw/sw/lv_draw_sw_line.c **** 
   6:lvgl/src/draw/sw/lv_draw_sw_line.c **** /*********************
   7:lvgl/src/draw/sw/lv_draw_sw_line.c ****  *      INCLUDES
   8:lvgl/src/draw/sw/lv_draw_sw_line.c ****  *********************/
   9:lvgl/src/draw/sw/lv_draw_sw_line.c **** #include <stdbool.h>
  10:lvgl/src/draw/sw/lv_draw_sw_line.c **** #include "lv_draw_sw.h"
  11:lvgl/src/draw/sw/lv_draw_sw_line.c **** #include "../../misc/lv_math.h"
  12:lvgl/src/draw/sw/lv_draw_sw_line.c **** #include "../../core/lv_refr.h"
  13:lvgl/src/draw/sw/lv_draw_sw_line.c **** 
  14:lvgl/src/draw/sw/lv_draw_sw_line.c **** /*********************
  15:lvgl/src/draw/sw/lv_draw_sw_line.c ****  *      DEFINES
  16:lvgl/src/draw/sw/lv_draw_sw_line.c ****  *********************/
  17:lvgl/src/draw/sw/lv_draw_sw_line.c **** 
  18:lvgl/src/draw/sw/lv_draw_sw_line.c **** /**********************
  19:lvgl/src/draw/sw/lv_draw_sw_line.c ****  *      TYPEDEFS
  20:lvgl/src/draw/sw/lv_draw_sw_line.c ****  **********************/
  21:lvgl/src/draw/sw/lv_draw_sw_line.c **** 
  22:lvgl/src/draw/sw/lv_draw_sw_line.c **** /**********************
  23:lvgl/src/draw/sw/lv_draw_sw_line.c ****  *  STATIC PROTOTYPES
  24:lvgl/src/draw/sw/lv_draw_sw_line.c ****  **********************/
  25:lvgl/src/draw/sw/lv_draw_sw_line.c **** 
  26:lvgl/src/draw/sw/lv_draw_sw_line.c **** static void /* LV_ATTRIBUTE_FAST_MEM */ draw_line_skew(struct _lv_draw_ctx_t * draw_ctx, const lv_d
  27:lvgl/src/draw/sw/lv_draw_sw_line.c ****                                                        const lv_point_t * point1, const lv_point_t 
  28:lvgl/src/draw/sw/lv_draw_sw_line.c **** static void /* LV_ATTRIBUTE_FAST_MEM */ draw_line_hor(struct _lv_draw_ctx_t * draw_ctx, const lv_dr
  29:lvgl/src/draw/sw/lv_draw_sw_line.c ****                                                       const lv_point_t * point1, const lv_point_t *
  30:lvgl/src/draw/sw/lv_draw_sw_line.c **** static void /* LV_ATTRIBUTE_FAST_MEM */ draw_line_ver(struct _lv_draw_ctx_t * draw_ctx, const lv_dr
  31:lvgl/src/draw/sw/lv_draw_sw_line.c ****                                                       const lv_point_t * point1, const lv_point_t *
ARM GAS  C:\Users\OSD\AppData\Local\Temp\ccgzvg7d.s 			page 2


  32:lvgl/src/draw/sw/lv_draw_sw_line.c **** 
  33:lvgl/src/draw/sw/lv_draw_sw_line.c **** /**********************
  34:lvgl/src/draw/sw/lv_draw_sw_line.c ****  *  STATIC VARIABLES
  35:lvgl/src/draw/sw/lv_draw_sw_line.c ****  **********************/
  36:lvgl/src/draw/sw/lv_draw_sw_line.c **** 
  37:lvgl/src/draw/sw/lv_draw_sw_line.c **** /**********************
  38:lvgl/src/draw/sw/lv_draw_sw_line.c ****  *      MACROS
  39:lvgl/src/draw/sw/lv_draw_sw_line.c ****  **********************/
  40:lvgl/src/draw/sw/lv_draw_sw_line.c **** 
  41:lvgl/src/draw/sw/lv_draw_sw_line.c **** /**********************
  42:lvgl/src/draw/sw/lv_draw_sw_line.c ****  *   GLOBAL FUNCTIONS
  43:lvgl/src/draw/sw/lv_draw_sw_line.c ****  **********************/
  44:lvgl/src/draw/sw/lv_draw_sw_line.c **** 
  45:lvgl/src/draw/sw/lv_draw_sw_line.c **** /**
  46:lvgl/src/draw/sw/lv_draw_sw_line.c ****  * Draw a line
  47:lvgl/src/draw/sw/lv_draw_sw_line.c ****  * @param point1 first point of the line
  48:lvgl/src/draw/sw/lv_draw_sw_line.c ****  * @param point2 second point of the line
  49:lvgl/src/draw/sw/lv_draw_sw_line.c ****  * @param clip the line will be drawn only in this area
  50:lvgl/src/draw/sw/lv_draw_sw_line.c ****  * @param dsc pointer to an initialized `lv_draw_line_dsc_t` variable
  51:lvgl/src/draw/sw/lv_draw_sw_line.c ****  */
  52:lvgl/src/draw/sw/lv_draw_sw_line.c **** void LV_ATTRIBUTE_FAST_MEM lv_draw_sw_line(struct _lv_draw_ctx_t * draw_ctx, const lv_draw_line_dsc
  53:lvgl/src/draw/sw/lv_draw_sw_line.c ****                                            const lv_point_t * point1, const lv_point_t * point2)
  54:lvgl/src/draw/sw/lv_draw_sw_line.c **** {
  55:lvgl/src/draw/sw/lv_draw_sw_line.c ****     if(dsc->width == 0) return;
  56:lvgl/src/draw/sw/lv_draw_sw_line.c ****     if(dsc->opa <= LV_OPA_MIN) return;
  57:lvgl/src/draw/sw/lv_draw_sw_line.c **** 
  58:lvgl/src/draw/sw/lv_draw_sw_line.c ****     if(point1->x == point2->x && point1->y == point2->y) return;
  59:lvgl/src/draw/sw/lv_draw_sw_line.c **** 
  60:lvgl/src/draw/sw/lv_draw_sw_line.c ****     lv_area_t clip_line;
  61:lvgl/src/draw/sw/lv_draw_sw_line.c ****     clip_line.x1 = LV_MIN(point1->x, point2->x) - dsc->width / 2;
  62:lvgl/src/draw/sw/lv_draw_sw_line.c ****     clip_line.x2 = LV_MAX(point1->x, point2->x) + dsc->width / 2;
  63:lvgl/src/draw/sw/lv_draw_sw_line.c ****     clip_line.y1 = LV_MIN(point1->y, point2->y) - dsc->width / 2;
  64:lvgl/src/draw/sw/lv_draw_sw_line.c ****     clip_line.y2 = LV_MAX(point1->y, point2->y) + dsc->width / 2;
  65:lvgl/src/draw/sw/lv_draw_sw_line.c **** 
  66:lvgl/src/draw/sw/lv_draw_sw_line.c ****     bool is_common;
  67:lvgl/src/draw/sw/lv_draw_sw_line.c ****     is_common = _lv_area_intersect(&clip_line, &clip_line, draw_ctx->clip_area);
  68:lvgl/src/draw/sw/lv_draw_sw_line.c ****     if(!is_common) return;
  69:lvgl/src/draw/sw/lv_draw_sw_line.c ****     const lv_area_t * clip_area_ori = draw_ctx->clip_area;
  70:lvgl/src/draw/sw/lv_draw_sw_line.c ****     draw_ctx->clip_area = &clip_line;
  71:lvgl/src/draw/sw/lv_draw_sw_line.c **** 
  72:lvgl/src/draw/sw/lv_draw_sw_line.c ****     if(point1->y == point2->y) draw_line_hor(draw_ctx, dsc, point1, point2);
  73:lvgl/src/draw/sw/lv_draw_sw_line.c ****     else if(point1->x == point2->x) draw_line_ver(draw_ctx, dsc, point1, point2);
  74:lvgl/src/draw/sw/lv_draw_sw_line.c ****     else draw_line_skew(draw_ctx, dsc, point1, point2);
  75:lvgl/src/draw/sw/lv_draw_sw_line.c **** 
  76:lvgl/src/draw/sw/lv_draw_sw_line.c ****     if(dsc->round_end || dsc->round_start) {
  77:lvgl/src/draw/sw/lv_draw_sw_line.c ****         lv_draw_rect_dsc_t cir_dsc;
  78:lvgl/src/draw/sw/lv_draw_sw_line.c ****         lv_draw_rect_dsc_init(&cir_dsc);
  79:lvgl/src/draw/sw/lv_draw_sw_line.c ****         cir_dsc.bg_color = dsc->color;
  80:lvgl/src/draw/sw/lv_draw_sw_line.c ****         cir_dsc.radius = LV_RADIUS_CIRCLE;
  81:lvgl/src/draw/sw/lv_draw_sw_line.c ****         cir_dsc.bg_opa = dsc->opa;
  82:lvgl/src/draw/sw/lv_draw_sw_line.c **** 
  83:lvgl/src/draw/sw/lv_draw_sw_line.c ****         int32_t r = (dsc->width >> 1);
  84:lvgl/src/draw/sw/lv_draw_sw_line.c ****         int32_t r_corr = (dsc->width & 1) ? 0 : 1;
  85:lvgl/src/draw/sw/lv_draw_sw_line.c ****         lv_area_t cir_area;
  86:lvgl/src/draw/sw/lv_draw_sw_line.c **** 
  87:lvgl/src/draw/sw/lv_draw_sw_line.c ****         if(dsc->round_start) {
  88:lvgl/src/draw/sw/lv_draw_sw_line.c ****             cir_area.x1 = point1->x - r;
ARM GAS  C:\Users\OSD\AppData\Local\Temp\ccgzvg7d.s 			page 3


  89:lvgl/src/draw/sw/lv_draw_sw_line.c ****             cir_area.y1 = point1->y - r;
  90:lvgl/src/draw/sw/lv_draw_sw_line.c ****             cir_area.x2 = point1->x + r - r_corr;
  91:lvgl/src/draw/sw/lv_draw_sw_line.c ****             cir_area.y2 = point1->y + r - r_corr ;
  92:lvgl/src/draw/sw/lv_draw_sw_line.c ****             lv_draw_rect(draw_ctx, &cir_dsc, &cir_area);
  93:lvgl/src/draw/sw/lv_draw_sw_line.c ****         }
  94:lvgl/src/draw/sw/lv_draw_sw_line.c **** 
  95:lvgl/src/draw/sw/lv_draw_sw_line.c ****         if(dsc->round_end) {
  96:lvgl/src/draw/sw/lv_draw_sw_line.c ****             cir_area.x1 = point2->x - r;
  97:lvgl/src/draw/sw/lv_draw_sw_line.c ****             cir_area.y1 = point2->y - r;
  98:lvgl/src/draw/sw/lv_draw_sw_line.c ****             cir_area.x2 = point2->x + r - r_corr;
  99:lvgl/src/draw/sw/lv_draw_sw_line.c ****             cir_area.y2 = point2->y + r - r_corr ;
 100:lvgl/src/draw/sw/lv_draw_sw_line.c ****             lv_draw_rect(draw_ctx, &cir_dsc, &cir_area);
 101:lvgl/src/draw/sw/lv_draw_sw_line.c ****         }
 102:lvgl/src/draw/sw/lv_draw_sw_line.c ****     }
 103:lvgl/src/draw/sw/lv_draw_sw_line.c **** 
 104:lvgl/src/draw/sw/lv_draw_sw_line.c ****     draw_ctx->clip_area = clip_area_ori;
 105:lvgl/src/draw/sw/lv_draw_sw_line.c **** }
 106:lvgl/src/draw/sw/lv_draw_sw_line.c **** 
 107:lvgl/src/draw/sw/lv_draw_sw_line.c **** /**********************
 108:lvgl/src/draw/sw/lv_draw_sw_line.c ****  *   STATIC FUNCTIONS
 109:lvgl/src/draw/sw/lv_draw_sw_line.c ****  **********************/
 110:lvgl/src/draw/sw/lv_draw_sw_line.c **** 
 111:lvgl/src/draw/sw/lv_draw_sw_line.c **** static void LV_ATTRIBUTE_FAST_MEM draw_line_hor(struct _lv_draw_ctx_t * draw_ctx, const lv_draw_lin
 112:lvgl/src/draw/sw/lv_draw_sw_line.c ****                                                 const lv_point_t * point1, const lv_point_t * point
 113:lvgl/src/draw/sw/lv_draw_sw_line.c **** {
  28              		.loc 1 113 1 view -0
  29              		.cfi_startproc
  30              		@ args = 0, pretend = 0, frame = 40
  31              		@ frame_needed = 0, uses_anonymous_args = 0
  32              		.loc 1 113 1 is_stmt 0 view .LVU1
  33 0000 2DE9F04F 		push	{r4, r5, r6, r7, r8, r9, r10, fp, lr}
  34              		.cfi_def_cfa_offset 36
  35              		.cfi_offset 4, -36
  36              		.cfi_offset 5, -32
  37              		.cfi_offset 6, -28
  38              		.cfi_offset 7, -24
  39              		.cfi_offset 8, -20
  40              		.cfi_offset 9, -16
  41              		.cfi_offset 10, -12
  42              		.cfi_offset 11, -8
  43              		.cfi_offset 14, -4
  44 0004 8BB0     		sub	sp, sp, #44
  45              		.cfi_def_cfa_offset 80
  46 0006 8046     		mov	r8, r0
  47 0008 0E46     		mov	r6, r1
 114:lvgl/src/draw/sw/lv_draw_sw_line.c ****     int32_t w = dsc->width - 1;
  48              		.loc 1 114 5 is_stmt 1 view .LVU2
  49              		.loc 1 114 20 is_stmt 0 view .LVU3
  50 000a B1F90410 		ldrsh	r1, [r1, #4]
  51              	.LVL1:
  52              		.loc 1 114 13 view .LVU4
  53 000e 0139     		subs	r1, r1, #1
  54              	.LVL2:
 115:lvgl/src/draw/sw/lv_draw_sw_line.c ****     int32_t w_half0 = w >> 1;
  55              		.loc 1 115 5 is_stmt 1 view .LVU5
 116:lvgl/src/draw/sw/lv_draw_sw_line.c ****     int32_t w_half1 = w_half0 + (w & 0x1); /*Compensate rounding error*/
  56              		.loc 1 116 5 view .LVU6
ARM GAS  C:\Users\OSD\AppData\Local\Temp\ccgzvg7d.s 			page 4


  57              		.loc 1 116 36 is_stmt 0 view .LVU7
  58 0010 01F00100 		and	r0, r1, #1
  59              	.LVL3:
  60              		.loc 1 116 13 view .LVU8
  61 0014 00EB6100 		add	r0, r0, r1, asr #1
  62              	.LVL4:
 117:lvgl/src/draw/sw/lv_draw_sw_line.c **** 
 118:lvgl/src/draw/sw/lv_draw_sw_line.c ****     lv_area_t blend_area;
  63              		.loc 1 118 5 is_stmt 1 view .LVU9
 119:lvgl/src/draw/sw/lv_draw_sw_line.c ****     blend_area.x1 = LV_MIN(point1->x, point2->x);
  64              		.loc 1 119 5 view .LVU10
  65              		.loc 1 119 21 is_stmt 0 view .LVU11
  66 0018 B3F90030 		ldrsh	r3, [r3]
  67              	.LVL5:
  68              		.loc 1 119 21 view .LVU12
  69 001c B2F90040 		ldrsh	r4, [r2]
  70 0020 1D46     		mov	r5, r3
  71 0022 A342     		cmp	r3, r4
  72 0024 A8BF     		it	ge
  73 0026 2546     		movge	r5, r4
  74              		.loc 1 119 19 view .LVU13
  75 0028 ADF82050 		strh	r5, [sp, #32]	@ movhi
 120:lvgl/src/draw/sw/lv_draw_sw_line.c ****     blend_area.x2 = LV_MAX(point1->x, point2->x)  - 1;
  76              		.loc 1 120 5 is_stmt 1 view .LVU14
  77              		.loc 1 120 21 is_stmt 0 view .LVU15
  78 002c A342     		cmp	r3, r4
  79 002e B8BF     		it	lt
  80 0030 2346     		movlt	r3, r4
  81 0032 9BB2     		uxth	r3, r3
  82              		.loc 1 120 51 view .LVU16
  83 0034 013B     		subs	r3, r3, #1
  84              		.loc 1 120 19 view .LVU17
  85 0036 ADF82430 		strh	r3, [sp, #36]	@ movhi
 121:lvgl/src/draw/sw/lv_draw_sw_line.c ****     blend_area.y1 = point1->y - w_half1;
  86              		.loc 1 121 5 is_stmt 1 view .LVU18
  87              		.loc 1 121 27 is_stmt 0 view .LVU19
  88 003a 5388     		ldrh	r3, [r2, #2]
  89              		.loc 1 121 31 view .LVU20
  90 003c 181A     		subs	r0, r3, r0
  91              	.LVL6:
  92              		.loc 1 121 19 view .LVU21
  93 003e ADF82200 		strh	r0, [sp, #34]	@ movhi
 122:lvgl/src/draw/sw/lv_draw_sw_line.c ****     blend_area.y2 = point1->y + w_half0;
  94              		.loc 1 122 5 is_stmt 1 view .LVU22
  95              		.loc 1 122 31 is_stmt 0 view .LVU23
  96 0042 03EB6103 		add	r3, r3, r1, asr #1
  97              		.loc 1 122 19 view .LVU24
  98 0046 ADF82630 		strh	r3, [sp, #38]	@ movhi
 123:lvgl/src/draw/sw/lv_draw_sw_line.c **** 
 124:lvgl/src/draw/sw/lv_draw_sw_line.c ****     bool is_common;
  99              		.loc 1 124 5 is_stmt 1 view .LVU25
 125:lvgl/src/draw/sw/lv_draw_sw_line.c ****     is_common = _lv_area_intersect(&blend_area, &blend_area, draw_ctx->clip_area);
 100              		.loc 1 125 5 view .LVU26
 101              		.loc 1 125 17 is_stmt 0 view .LVU27
 102 004a D8F80820 		ldr	r2, [r8, #8]
 103              	.LVL7:
 104              		.loc 1 125 17 view .LVU28
ARM GAS  C:\Users\OSD\AppData\Local\Temp\ccgzvg7d.s 			page 5


 105 004e 08A9     		add	r1, sp, #32
 106              	.LVL8:
 107              		.loc 1 125 17 view .LVU29
 108 0050 0846     		mov	r0, r1
 109 0052 FFF7FEFF 		bl	_lv_area_intersect
 110              	.LVL9:
 126:lvgl/src/draw/sw/lv_draw_sw_line.c ****     if(!is_common) return;
 111              		.loc 1 126 5 is_stmt 1 view .LVU30
 112              		.loc 1 126 7 is_stmt 0 view .LVU31
 113 0056 0028     		cmp	r0, #0
 114 0058 00F09C80 		beq	.L1
 115 005c 0546     		mov	r5, r0
 127:lvgl/src/draw/sw/lv_draw_sw_line.c **** 
 128:lvgl/src/draw/sw/lv_draw_sw_line.c ****     bool dashed = dsc->dash_gap && dsc->dash_width ? true : false;
 116              		.loc 1 128 5 is_stmt 1 view .LVU32
 117              		.loc 1 128 22 is_stmt 0 view .LVU33
 118 005e B6F90830 		ldrsh	r3, [r6, #8]
 119              		.loc 1 128 59 view .LVU34
 120 0062 2BB1     		cbz	r3, .L16
 121              		.loc 1 128 39 discriminator 1 view .LVU35
 122 0064 B6F90630 		ldrsh	r3, [r6, #6]
 123              		.loc 1 128 59 discriminator 1 view .LVU36
 124 0068 73B9     		cbnz	r3, .L17
 125              		.loc 1 128 59 view .LVU37
 126 006a 4FF00009 		mov	r9, #0
 127 006e 01E0     		b	.L4
 128              	.L16:
 129 0070 4FF00009 		mov	r9, #0
 130              	.L4:
 131              	.LVL10:
 129:lvgl/src/draw/sw/lv_draw_sw_line.c ****     bool simple_mode = true;
 132              		.loc 1 129 5 is_stmt 1 discriminator 6 view .LVU38
 130:lvgl/src/draw/sw/lv_draw_sw_line.c ****     if(lv_draw_mask_is_any(&blend_area)) simple_mode = false;
 133              		.loc 1 130 5 discriminator 6 view .LVU39
 134              		.loc 1 130 8 is_stmt 0 discriminator 6 view .LVU40
 135 0074 08A8     		add	r0, sp, #32
 136              	.LVL11:
 137              		.loc 1 130 8 discriminator 6 view .LVU41
 138 0076 FFF7FEFF 		bl	lv_draw_mask_is_any
 139              	.LVL12:
 140              		.loc 1 130 7 discriminator 6 view .LVU42
 141 007a 0446     		mov	r4, r0
 142 007c 38B9     		cbnz	r0, .L18
 131:lvgl/src/draw/sw/lv_draw_sw_line.c ****     else if(dashed) simple_mode = false;
 143              		.loc 1 131 10 is_stmt 1 view .LVU43
 144              		.loc 1 131 12 is_stmt 0 view .LVU44
 145 007e B9F1000F 		cmp	r9, #0
 146 0082 05D1     		bne	.L5
 129:lvgl/src/draw/sw/lv_draw_sw_line.c ****     bool simple_mode = true;
 147              		.loc 1 129 10 view .LVU45
 148 0084 2C46     		mov	r4, r5
 149 0086 03E0     		b	.L5
 150              	.LVL13:
 151              	.L17:
 128:lvgl/src/draw/sw/lv_draw_sw_line.c ****     bool simple_mode = true;
 152              		.loc 1 128 59 view .LVU46
 153 0088 4FF00109 		mov	r9, #1
ARM GAS  C:\Users\OSD\AppData\Local\Temp\ccgzvg7d.s 			page 6


 154 008c F2E7     		b	.L4
 155              	.LVL14:
 156              	.L18:
 130:lvgl/src/draw/sw/lv_draw_sw_line.c ****     if(lv_draw_mask_is_any(&blend_area)) simple_mode = false;
 157              		.loc 1 130 54 view .LVU47
 158 008e 0024     		movs	r4, #0
 159              	.L5:
 160              	.LVL15:
 132:lvgl/src/draw/sw/lv_draw_sw_line.c **** 
 133:lvgl/src/draw/sw/lv_draw_sw_line.c ****     lv_draw_sw_blend_dsc_t blend_dsc;
 161              		.loc 1 133 5 is_stmt 1 view .LVU48
 134:lvgl/src/draw/sw/lv_draw_sw_line.c ****     lv_memset_00(&blend_dsc, sizeof(blend_dsc));
 162              		.loc 1 134 5 view .LVU49
 163 0090 1C21     		movs	r1, #28
 164 0092 01A8     		add	r0, sp, #4
 165 0094 FFF7FEFF 		bl	lv_memset_00
 166              	.LVL16:
 135:lvgl/src/draw/sw/lv_draw_sw_line.c ****     blend_dsc.blend_area = &blend_area;
 167              		.loc 1 135 5 view .LVU50
 168              		.loc 1 135 26 is_stmt 0 view .LVU51
 169 0098 08AB     		add	r3, sp, #32
 170 009a 0193     		str	r3, [sp, #4]
 136:lvgl/src/draw/sw/lv_draw_sw_line.c ****     blend_dsc.color = dsc->color;
 171              		.loc 1 136 5 is_stmt 1 view .LVU52
 172              		.loc 1 136 21 is_stmt 0 view .LVU53
 173 009c 3368     		ldr	r3, [r6]
 174 009e 0393     		str	r3, [sp, #12]
 137:lvgl/src/draw/sw/lv_draw_sw_line.c ****     blend_dsc.opa = dsc->opa;
 175              		.loc 1 137 5 is_stmt 1 view .LVU54
 176              		.loc 1 137 24 is_stmt 0 view .LVU55
 177 00a0 B37A     		ldrb	r3, [r6, #10]	@ zero_extendqisi2
 178              		.loc 1 137 19 view .LVU56
 179 00a2 8DF81C30 		strb	r3, [sp, #28]
 138:lvgl/src/draw/sw/lv_draw_sw_line.c **** 
 139:lvgl/src/draw/sw/lv_draw_sw_line.c ****     /*If there is no mask then simply draw a rectangle*/
 140:lvgl/src/draw/sw/lv_draw_sw_line.c ****     if(simple_mode) {
 180              		.loc 1 140 5 is_stmt 1 view .LVU57
 181              		.loc 1 140 7 is_stmt 0 view .LVU58
 182 00a6 3CBB     		cbnz	r4, .L23
 183              	.LBB12:
 141:lvgl/src/draw/sw/lv_draw_sw_line.c ****         lv_draw_sw_blend(draw_ctx, &blend_dsc);
 142:lvgl/src/draw/sw/lv_draw_sw_line.c ****     }
 143:lvgl/src/draw/sw/lv_draw_sw_line.c **** #if LV_DRAW_COMPLEX
 144:lvgl/src/draw/sw/lv_draw_sw_line.c ****     /*If there other mask apply it*/
 145:lvgl/src/draw/sw/lv_draw_sw_line.c ****     else {
 146:lvgl/src/draw/sw/lv_draw_sw_line.c **** 
 147:lvgl/src/draw/sw/lv_draw_sw_line.c ****         int32_t blend_area_w = lv_area_get_width(&blend_area);
 184              		.loc 1 147 9 is_stmt 1 view .LVU59
 185              	.LVL17:
 186              	.LBB13:
 187              	.LBI13:
 188              		.file 2 "lvgl/src/draw/sw/../../misc/lv_area.h"
   1:lvgl/src/draw/sw/../../misc/lv_area.h **** /**
   2:lvgl/src/draw/sw/../../misc/lv_area.h ****  * @file lv_area.h
   3:lvgl/src/draw/sw/../../misc/lv_area.h ****  *
   4:lvgl/src/draw/sw/../../misc/lv_area.h ****  */
   5:lvgl/src/draw/sw/../../misc/lv_area.h **** 
ARM GAS  C:\Users\OSD\AppData\Local\Temp\ccgzvg7d.s 			page 7


   6:lvgl/src/draw/sw/../../misc/lv_area.h **** #ifndef LV_AREA_H
   7:lvgl/src/draw/sw/../../misc/lv_area.h **** #define LV_AREA_H
   8:lvgl/src/draw/sw/../../misc/lv_area.h **** 
   9:lvgl/src/draw/sw/../../misc/lv_area.h **** #ifdef __cplusplus
  10:lvgl/src/draw/sw/../../misc/lv_area.h **** extern "C" {
  11:lvgl/src/draw/sw/../../misc/lv_area.h **** #endif
  12:lvgl/src/draw/sw/../../misc/lv_area.h **** 
  13:lvgl/src/draw/sw/../../misc/lv_area.h **** /*********************
  14:lvgl/src/draw/sw/../../misc/lv_area.h ****  *      INCLUDES
  15:lvgl/src/draw/sw/../../misc/lv_area.h ****  *********************/
  16:lvgl/src/draw/sw/../../misc/lv_area.h **** #include "../lv_conf_internal.h"
  17:lvgl/src/draw/sw/../../misc/lv_area.h **** #include <stdbool.h>
  18:lvgl/src/draw/sw/../../misc/lv_area.h **** #include <stdint.h>
  19:lvgl/src/draw/sw/../../misc/lv_area.h **** 
  20:lvgl/src/draw/sw/../../misc/lv_area.h **** /*********************
  21:lvgl/src/draw/sw/../../misc/lv_area.h ****  *      DEFINES
  22:lvgl/src/draw/sw/../../misc/lv_area.h ****  *********************/
  23:lvgl/src/draw/sw/../../misc/lv_area.h **** 
  24:lvgl/src/draw/sw/../../misc/lv_area.h **** #if LV_USE_LARGE_COORD
  25:lvgl/src/draw/sw/../../misc/lv_area.h **** typedef int32_t lv_coord_t;
  26:lvgl/src/draw/sw/../../misc/lv_area.h **** #else
  27:lvgl/src/draw/sw/../../misc/lv_area.h **** typedef int16_t lv_coord_t;
  28:lvgl/src/draw/sw/../../misc/lv_area.h **** #endif
  29:lvgl/src/draw/sw/../../misc/lv_area.h **** 
  30:lvgl/src/draw/sw/../../misc/lv_area.h **** /**********************
  31:lvgl/src/draw/sw/../../misc/lv_area.h ****  *      TYPEDEFS
  32:lvgl/src/draw/sw/../../misc/lv_area.h ****  **********************/
  33:lvgl/src/draw/sw/../../misc/lv_area.h **** 
  34:lvgl/src/draw/sw/../../misc/lv_area.h **** /**
  35:lvgl/src/draw/sw/../../misc/lv_area.h ****  * Represents a point on the screen.
  36:lvgl/src/draw/sw/../../misc/lv_area.h ****  */
  37:lvgl/src/draw/sw/../../misc/lv_area.h **** typedef struct {
  38:lvgl/src/draw/sw/../../misc/lv_area.h ****     lv_coord_t x;
  39:lvgl/src/draw/sw/../../misc/lv_area.h ****     lv_coord_t y;
  40:lvgl/src/draw/sw/../../misc/lv_area.h **** } lv_point_t;
  41:lvgl/src/draw/sw/../../misc/lv_area.h **** 
  42:lvgl/src/draw/sw/../../misc/lv_area.h **** /** Represents an area of the screen.*/
  43:lvgl/src/draw/sw/../../misc/lv_area.h **** typedef struct {
  44:lvgl/src/draw/sw/../../misc/lv_area.h ****     lv_coord_t x1;
  45:lvgl/src/draw/sw/../../misc/lv_area.h ****     lv_coord_t y1;
  46:lvgl/src/draw/sw/../../misc/lv_area.h ****     lv_coord_t x2;
  47:lvgl/src/draw/sw/../../misc/lv_area.h ****     lv_coord_t y2;
  48:lvgl/src/draw/sw/../../misc/lv_area.h **** } lv_area_t;
  49:lvgl/src/draw/sw/../../misc/lv_area.h **** 
  50:lvgl/src/draw/sw/../../misc/lv_area.h **** /** Alignments*/
  51:lvgl/src/draw/sw/../../misc/lv_area.h **** enum {
  52:lvgl/src/draw/sw/../../misc/lv_area.h ****     LV_ALIGN_DEFAULT = 0,
  53:lvgl/src/draw/sw/../../misc/lv_area.h ****     LV_ALIGN_TOP_LEFT,
  54:lvgl/src/draw/sw/../../misc/lv_area.h ****     LV_ALIGN_TOP_MID,
  55:lvgl/src/draw/sw/../../misc/lv_area.h ****     LV_ALIGN_TOP_RIGHT,
  56:lvgl/src/draw/sw/../../misc/lv_area.h ****     LV_ALIGN_BOTTOM_LEFT,
  57:lvgl/src/draw/sw/../../misc/lv_area.h ****     LV_ALIGN_BOTTOM_MID,
  58:lvgl/src/draw/sw/../../misc/lv_area.h ****     LV_ALIGN_BOTTOM_RIGHT,
  59:lvgl/src/draw/sw/../../misc/lv_area.h ****     LV_ALIGN_LEFT_MID,
  60:lvgl/src/draw/sw/../../misc/lv_area.h ****     LV_ALIGN_RIGHT_MID,
  61:lvgl/src/draw/sw/../../misc/lv_area.h ****     LV_ALIGN_CENTER,
  62:lvgl/src/draw/sw/../../misc/lv_area.h **** 
ARM GAS  C:\Users\OSD\AppData\Local\Temp\ccgzvg7d.s 			page 8


  63:lvgl/src/draw/sw/../../misc/lv_area.h ****     LV_ALIGN_OUT_TOP_LEFT,
  64:lvgl/src/draw/sw/../../misc/lv_area.h ****     LV_ALIGN_OUT_TOP_MID,
  65:lvgl/src/draw/sw/../../misc/lv_area.h ****     LV_ALIGN_OUT_TOP_RIGHT,
  66:lvgl/src/draw/sw/../../misc/lv_area.h ****     LV_ALIGN_OUT_BOTTOM_LEFT,
  67:lvgl/src/draw/sw/../../misc/lv_area.h ****     LV_ALIGN_OUT_BOTTOM_MID,
  68:lvgl/src/draw/sw/../../misc/lv_area.h ****     LV_ALIGN_OUT_BOTTOM_RIGHT,
  69:lvgl/src/draw/sw/../../misc/lv_area.h ****     LV_ALIGN_OUT_LEFT_TOP,
  70:lvgl/src/draw/sw/../../misc/lv_area.h ****     LV_ALIGN_OUT_LEFT_MID,
  71:lvgl/src/draw/sw/../../misc/lv_area.h ****     LV_ALIGN_OUT_LEFT_BOTTOM,
  72:lvgl/src/draw/sw/../../misc/lv_area.h ****     LV_ALIGN_OUT_RIGHT_TOP,
  73:lvgl/src/draw/sw/../../misc/lv_area.h ****     LV_ALIGN_OUT_RIGHT_MID,
  74:lvgl/src/draw/sw/../../misc/lv_area.h ****     LV_ALIGN_OUT_RIGHT_BOTTOM,
  75:lvgl/src/draw/sw/../../misc/lv_area.h **** };
  76:lvgl/src/draw/sw/../../misc/lv_area.h **** typedef uint8_t lv_align_t;
  77:lvgl/src/draw/sw/../../misc/lv_area.h **** 
  78:lvgl/src/draw/sw/../../misc/lv_area.h **** enum {
  79:lvgl/src/draw/sw/../../misc/lv_area.h ****     LV_DIR_NONE     = 0x00,
  80:lvgl/src/draw/sw/../../misc/lv_area.h ****     LV_DIR_LEFT     = (1 << 0),
  81:lvgl/src/draw/sw/../../misc/lv_area.h ****     LV_DIR_RIGHT    = (1 << 1),
  82:lvgl/src/draw/sw/../../misc/lv_area.h ****     LV_DIR_TOP      = (1 << 2),
  83:lvgl/src/draw/sw/../../misc/lv_area.h ****     LV_DIR_BOTTOM   = (1 << 3),
  84:lvgl/src/draw/sw/../../misc/lv_area.h ****     LV_DIR_HOR      = LV_DIR_LEFT | LV_DIR_RIGHT,
  85:lvgl/src/draw/sw/../../misc/lv_area.h ****     LV_DIR_VER      = LV_DIR_TOP | LV_DIR_BOTTOM,
  86:lvgl/src/draw/sw/../../misc/lv_area.h ****     LV_DIR_ALL      = LV_DIR_HOR | LV_DIR_VER,
  87:lvgl/src/draw/sw/../../misc/lv_area.h **** };
  88:lvgl/src/draw/sw/../../misc/lv_area.h **** 
  89:lvgl/src/draw/sw/../../misc/lv_area.h **** typedef uint8_t lv_dir_t;
  90:lvgl/src/draw/sw/../../misc/lv_area.h **** 
  91:lvgl/src/draw/sw/../../misc/lv_area.h **** /**********************
  92:lvgl/src/draw/sw/../../misc/lv_area.h ****  * GLOBAL PROTOTYPES
  93:lvgl/src/draw/sw/../../misc/lv_area.h ****  **********************/
  94:lvgl/src/draw/sw/../../misc/lv_area.h **** 
  95:lvgl/src/draw/sw/../../misc/lv_area.h **** /**
  96:lvgl/src/draw/sw/../../misc/lv_area.h ****  * Initialize an area
  97:lvgl/src/draw/sw/../../misc/lv_area.h ****  * @param area_p pointer to an area
  98:lvgl/src/draw/sw/../../misc/lv_area.h ****  * @param x1 left coordinate of the area
  99:lvgl/src/draw/sw/../../misc/lv_area.h ****  * @param y1 top coordinate of the area
 100:lvgl/src/draw/sw/../../misc/lv_area.h ****  * @param x2 right coordinate of the area
 101:lvgl/src/draw/sw/../../misc/lv_area.h ****  * @param y2 bottom coordinate of the area
 102:lvgl/src/draw/sw/../../misc/lv_area.h ****  */
 103:lvgl/src/draw/sw/../../misc/lv_area.h **** void lv_area_set(lv_area_t * area_p, lv_coord_t x1, lv_coord_t y1, lv_coord_t x2, lv_coord_t y2);
 104:lvgl/src/draw/sw/../../misc/lv_area.h **** 
 105:lvgl/src/draw/sw/../../misc/lv_area.h **** /**
 106:lvgl/src/draw/sw/../../misc/lv_area.h ****  * Copy an area
 107:lvgl/src/draw/sw/../../misc/lv_area.h ****  * @param dest pointer to the destination area
 108:lvgl/src/draw/sw/../../misc/lv_area.h ****  * @param src pointer to the source area
 109:lvgl/src/draw/sw/../../misc/lv_area.h ****  */
 110:lvgl/src/draw/sw/../../misc/lv_area.h **** inline static void lv_area_copy(lv_area_t * dest, const lv_area_t * src)
 111:lvgl/src/draw/sw/../../misc/lv_area.h **** {
 112:lvgl/src/draw/sw/../../misc/lv_area.h ****     dest->x1 = src->x1;
 113:lvgl/src/draw/sw/../../misc/lv_area.h ****     dest->y1 = src->y1;
 114:lvgl/src/draw/sw/../../misc/lv_area.h ****     dest->x2 = src->x2;
 115:lvgl/src/draw/sw/../../misc/lv_area.h ****     dest->y2 = src->y2;
 116:lvgl/src/draw/sw/../../misc/lv_area.h **** }
 117:lvgl/src/draw/sw/../../misc/lv_area.h **** 
 118:lvgl/src/draw/sw/../../misc/lv_area.h **** /**
 119:lvgl/src/draw/sw/../../misc/lv_area.h ****  * Get the width of an area
ARM GAS  C:\Users\OSD\AppData\Local\Temp\ccgzvg7d.s 			page 9


 120:lvgl/src/draw/sw/../../misc/lv_area.h ****  * @param area_p pointer to an area
 121:lvgl/src/draw/sw/../../misc/lv_area.h ****  * @return the width of the area (if x1 == x2 -> width = 1)
 122:lvgl/src/draw/sw/../../misc/lv_area.h ****  */
 123:lvgl/src/draw/sw/../../misc/lv_area.h **** static inline lv_coord_t lv_area_get_width(const lv_area_t * area_p)
 189              		.loc 2 123 26 view .LVU60
 190              	.LBB14:
 124:lvgl/src/draw/sw/../../misc/lv_area.h **** {
 125:lvgl/src/draw/sw/../../misc/lv_area.h ****     return (lv_coord_t)(area_p->x2 - area_p->x1 + 1);
 191              		.loc 2 125 5 view .LVU61
 192              		.loc 2 125 31 is_stmt 0 view .LVU62
 193 00a8 BDF82440 		ldrh	r4, [sp, #36]
 194              	.LVL18:
 195              		.loc 2 125 44 view .LVU63
 196 00ac BDF920B0 		ldrsh	fp, [sp, #32]
 197 00b0 1FFA8BF3 		uxth	r3, fp
 198              		.loc 2 125 36 view .LVU64
 199 00b4 E41A     		subs	r4, r4, r3
 200 00b6 A4B2     		uxth	r4, r4
 201              		.loc 2 125 49 view .LVU65
 202 00b8 0134     		adds	r4, r4, #1
 203              		.loc 2 125 12 view .LVU66
 204 00ba 24B2     		sxth	r4, r4
 205              	.LVL19:
 206              		.loc 2 125 12 view .LVU67
 207              	.LBE14:
 208              	.LBE13:
 148:lvgl/src/draw/sw/lv_draw_sw_line.c **** 
 149:lvgl/src/draw/sw/lv_draw_sw_line.c ****         lv_coord_t y2 = blend_area.y2;
 209              		.loc 1 149 9 is_stmt 1 view .LVU68
 210              		.loc 1 149 20 is_stmt 0 view .LVU69
 211 00bc BDF926A0 		ldrsh	r10, [sp, #38]
 212              	.LVL20:
 150:lvgl/src/draw/sw/lv_draw_sw_line.c ****         blend_area.y2 = blend_area.y1;
 213              		.loc 1 150 9 is_stmt 1 view .LVU70
 214              		.loc 1 150 35 is_stmt 0 view .LVU71
 215 00c0 BDF92230 		ldrsh	r3, [sp, #34]
 216              		.loc 1 150 23 view .LVU72
 217 00c4 ADF82630 		strh	r3, [sp, #38]	@ movhi
 151:lvgl/src/draw/sw/lv_draw_sw_line.c **** 
 152:lvgl/src/draw/sw/lv_draw_sw_line.c ****         lv_coord_t dash_start = 0;
 218              		.loc 1 152 9 is_stmt 1 view .LVU73
 219              	.LVL21:
 153:lvgl/src/draw/sw/lv_draw_sw_line.c ****         if(dashed) {
 220              		.loc 1 153 9 view .LVU74
 221              		.loc 1 153 11 is_stmt 0 view .LVU75
 222 00c8 B9F1000F 		cmp	r9, #0
 223 00cc 19D0     		beq	.L19
 154:lvgl/src/draw/sw/lv_draw_sw_line.c ****             dash_start = (blend_area.x1) % (dsc->dash_gap + dsc->dash_width);
 224              		.loc 1 154 13 is_stmt 1 view .LVU76
 225              		.loc 1 154 48 is_stmt 0 view .LVU77
 226 00ce B6F90830 		ldrsh	r3, [r6, #8]
 227              		.loc 1 154 64 view .LVU78
 228 00d2 B6F90620 		ldrsh	r2, [r6, #6]
 229              		.loc 1 154 59 view .LVU79
 230 00d6 1344     		add	r3, r3, r2
 231              		.loc 1 154 42 view .LVU80
 232 00d8 9BFBF3F2 		sdiv	r2, fp, r3
ARM GAS  C:\Users\OSD\AppData\Local\Temp\ccgzvg7d.s 			page 10


 233 00dc 03FB12BB 		mls	fp, r3, r2, fp
 234              		.loc 1 154 24 view .LVU81
 235 00e0 0FFA8BFB 		sxth	fp, fp
 236              	.LVL22:
 237              	.L8:
 155:lvgl/src/draw/sw/lv_draw_sw_line.c ****         }
 156:lvgl/src/draw/sw/lv_draw_sw_line.c **** 
 157:lvgl/src/draw/sw/lv_draw_sw_line.c ****         lv_opa_t * mask_buf = lv_mem_buf_get(blend_area_w);
 238              		.loc 1 157 9 is_stmt 1 view .LVU82
 239              		.loc 1 157 31 is_stmt 0 view .LVU83
 240 00e4 2046     		mov	r0, r4
 241 00e6 FFF7FEFF 		bl	lv_mem_buf_get
 242              	.LVL23:
 243 00ea 0746     		mov	r7, r0
 244              	.LVL24:
 158:lvgl/src/draw/sw/lv_draw_sw_line.c ****         blend_dsc.mask_buf = mask_buf;
 245              		.loc 1 158 9 is_stmt 1 view .LVU84
 246              		.loc 1 158 28 is_stmt 0 view .LVU85
 247 00ec 0490     		str	r0, [sp, #16]
 159:lvgl/src/draw/sw/lv_draw_sw_line.c ****         blend_dsc.mask_area = &blend_area;
 248              		.loc 1 159 9 is_stmt 1 view .LVU86
 249              		.loc 1 159 29 is_stmt 0 view .LVU87
 250 00ee 08AB     		add	r3, sp, #32
 251 00f0 0693     		str	r3, [sp, #24]
 160:lvgl/src/draw/sw/lv_draw_sw_line.c ****         int32_t h;
 252              		.loc 1 160 9 is_stmt 1 view .LVU88
 161:lvgl/src/draw/sw/lv_draw_sw_line.c ****         for(h = blend_area.y1; h <= y2; h++) {
 253              		.loc 1 161 9 view .LVU89
 254              		.loc 1 161 27 is_stmt 0 view .LVU90
 255 00f2 BDF92250 		ldrsh	r5, [sp, #34]
 256              	.LVL25:
 257              		.loc 1 161 9 view .LVU91
 258 00f6 33E0     		b	.L9
 259              	.LVL26:
 260              	.L23:
 261              		.loc 1 161 9 view .LVU92
 262              	.LBE12:
 141:lvgl/src/draw/sw/lv_draw_sw_line.c ****     }
 263              		.loc 1 141 9 is_stmt 1 view .LVU93
 264 00f8 01A9     		add	r1, sp, #4
 265 00fa 4046     		mov	r0, r8
 266 00fc FFF7FEFF 		bl	lv_draw_sw_blend
 267              	.LVL27:
 268 0100 48E0     		b	.L1
 269              	.LVL28:
 270              	.L19:
 271              	.LBB18:
 152:lvgl/src/draw/sw/lv_draw_sw_line.c ****         if(dashed) {
 272              		.loc 1 152 20 is_stmt 0 view .LVU94
 273 0102 4FF0000B 		mov	fp, #0
 274 0106 EDE7     		b	.L8
 275              	.LVL29:
 276              	.L12:
 277              	.LBB15:
 162:lvgl/src/draw/sw/lv_draw_sw_line.c ****             lv_memset_ff(mask_buf, blend_area_w);
 163:lvgl/src/draw/sw/lv_draw_sw_line.c ****             blend_dsc.mask_res = lv_draw_mask_apply(mask_buf, blend_area.x1, h, blend_area_w);
 164:lvgl/src/draw/sw/lv_draw_sw_line.c **** 
ARM GAS  C:\Users\OSD\AppData\Local\Temp\ccgzvg7d.s 			page 11


 165:lvgl/src/draw/sw/lv_draw_sw_line.c ****             if(dashed) {
 166:lvgl/src/draw/sw/lv_draw_sw_line.c ****                 if(blend_dsc.mask_res != LV_DRAW_MASK_RES_TRANSP) {
 167:lvgl/src/draw/sw/lv_draw_sw_line.c ****                     lv_coord_t dash_cnt = dash_start;
 168:lvgl/src/draw/sw/lv_draw_sw_line.c ****                     lv_coord_t i;
 169:lvgl/src/draw/sw/lv_draw_sw_line.c ****                     for(i = 0; i < blend_area_w; i++, dash_cnt++) {
 170:lvgl/src/draw/sw/lv_draw_sw_line.c ****                         if(dash_cnt <= dsc->dash_width) {
 171:lvgl/src/draw/sw/lv_draw_sw_line.c ****                             int16_t diff = dsc->dash_width - dash_cnt;
 172:lvgl/src/draw/sw/lv_draw_sw_line.c ****                             i += diff;
 173:lvgl/src/draw/sw/lv_draw_sw_line.c ****                             dash_cnt += diff;
 174:lvgl/src/draw/sw/lv_draw_sw_line.c ****                         }
 175:lvgl/src/draw/sw/lv_draw_sw_line.c ****                         else if(dash_cnt >= dsc->dash_gap + dsc->dash_width) {
 278              		.loc 1 175 30 is_stmt 1 view .LVU95
 279              		.loc 1 175 48 is_stmt 0 view .LVU96
 280 0108 B6F90800 		ldrsh	r0, [r6, #8]
 281              		.loc 1 175 59 view .LVU97
 282 010c 0344     		add	r3, r3, r0
 283              		.loc 1 175 32 view .LVU98
 284 010e 9942     		cmp	r1, r3
 285 0110 12DA     		bge	.L21
 176:lvgl/src/draw/sw/lv_draw_sw_line.c ****                             dash_cnt = 0;
 177:lvgl/src/draw/sw/lv_draw_sw_line.c ****                         }
 178:lvgl/src/draw/sw/lv_draw_sw_line.c ****                         else {
 179:lvgl/src/draw/sw/lv_draw_sw_line.c ****                             mask_buf[i] = 0x00;
 286              		.loc 1 179 29 is_stmt 1 view .LVU99
 287              		.loc 1 179 41 is_stmt 0 view .LVU100
 288 0112 0023     		movs	r3, #0
 289 0114 BB54     		strb	r3, [r7, r2]
 290 0116 0B46     		mov	r3, r1
 291              	.LVL30:
 292              	.L13:
 169:lvgl/src/draw/sw/lv_draw_sw_line.c ****                         if(dash_cnt <= dsc->dash_width) {
 293              		.loc 1 169 50 is_stmt 1 discriminator 2 view .LVU101
 169:lvgl/src/draw/sw/lv_draw_sw_line.c ****                         if(dash_cnt <= dsc->dash_width) {
 294              		.loc 1 169 51 is_stmt 0 discriminator 2 view .LVU102
 295 0118 0132     		adds	r2, r2, #1
 296              	.LVL31:
 169:lvgl/src/draw/sw/lv_draw_sw_line.c ****                         if(dash_cnt <= dsc->dash_width) {
 297              		.loc 1 169 51 discriminator 2 view .LVU103
 298 011a 12B2     		sxth	r2, r2
 299              	.LVL32:
 169:lvgl/src/draw/sw/lv_draw_sw_line.c ****                         if(dash_cnt <= dsc->dash_width) {
 300              		.loc 1 169 63 discriminator 2 view .LVU104
 301 011c 0133     		adds	r3, r3, #1
 302              	.LVL33:
 169:lvgl/src/draw/sw/lv_draw_sw_line.c ****                         if(dash_cnt <= dsc->dash_width) {
 303              		.loc 1 169 63 discriminator 2 view .LVU105
 304 011e 19B2     		sxth	r1, r3
 305              	.LVL34:
 306              	.L11:
 169:lvgl/src/draw/sw/lv_draw_sw_line.c ****                         if(dash_cnt <= dsc->dash_width) {
 307              		.loc 1 169 32 is_stmt 1 discriminator 1 view .LVU106
 169:lvgl/src/draw/sw/lv_draw_sw_line.c ****                         if(dash_cnt <= dsc->dash_width) {
 308              		.loc 1 169 21 is_stmt 0 discriminator 1 view .LVU107
 309 0120 A242     		cmp	r2, r4
 310 0122 0BDA     		bge	.L24
 170:lvgl/src/draw/sw/lv_draw_sw_line.c ****                             int16_t diff = dsc->dash_width - dash_cnt;
 311              		.loc 1 170 25 is_stmt 1 view .LVU108
ARM GAS  C:\Users\OSD\AppData\Local\Temp\ccgzvg7d.s 			page 12


 170:lvgl/src/draw/sw/lv_draw_sw_line.c ****                             int16_t diff = dsc->dash_width - dash_cnt;
 312              		.loc 1 170 43 is_stmt 0 view .LVU109
 313 0124 B6F90630 		ldrsh	r3, [r6, #6]
 170:lvgl/src/draw/sw/lv_draw_sw_line.c ****                             int16_t diff = dsc->dash_width - dash_cnt;
 314              		.loc 1 170 27 view .LVU110
 315 0128 8B42     		cmp	r3, r1
 316 012a EDDB     		blt	.L12
 317              	.LBB16:
 171:lvgl/src/draw/sw/lv_draw_sw_line.c ****                             i += diff;
 318              		.loc 1 171 29 is_stmt 1 view .LVU111
 171:lvgl/src/draw/sw/lv_draw_sw_line.c ****                             i += diff;
 319              		.loc 1 171 47 is_stmt 0 view .LVU112
 320 012c 98B2     		uxth	r0, r3
 171:lvgl/src/draw/sw/lv_draw_sw_line.c ****                             i += diff;
 321              		.loc 1 171 60 view .LVU113
 322 012e 411A     		subs	r1, r0, r1
 323              	.LVL35:
 172:lvgl/src/draw/sw/lv_draw_sw_line.c ****                             dash_cnt += diff;
 324              		.loc 1 172 29 is_stmt 1 view .LVU114
 172:lvgl/src/draw/sw/lv_draw_sw_line.c ****                             dash_cnt += diff;
 325              		.loc 1 172 31 is_stmt 0 view .LVU115
 326 0130 12FA81F2 		uxtah	r2, r2, r1
 327              	.LVL36:
 172:lvgl/src/draw/sw/lv_draw_sw_line.c ****                             dash_cnt += diff;
 328              		.loc 1 172 31 view .LVU116
 329 0134 12B2     		sxth	r2, r2
 330              	.LVL37:
 173:lvgl/src/draw/sw/lv_draw_sw_line.c ****                         }
 331              		.loc 1 173 29 is_stmt 1 view .LVU117
 173:lvgl/src/draw/sw/lv_draw_sw_line.c ****                         }
 332              		.loc 1 173 29 is_stmt 0 view .LVU118
 333              	.LBE16:
 334 0136 EFE7     		b	.L13
 335              	.LVL38:
 336              	.L21:
 176:lvgl/src/draw/sw/lv_draw_sw_line.c ****                         }
 337              		.loc 1 176 38 view .LVU119
 338 0138 0023     		movs	r3, #0
 339 013a EDE7     		b	.L13
 340              	.L24:
 180:lvgl/src/draw/sw/lv_draw_sw_line.c ****                         }
 181:lvgl/src/draw/sw/lv_draw_sw_line.c ****                     }
 182:lvgl/src/draw/sw/lv_draw_sw_line.c **** 
 183:lvgl/src/draw/sw/lv_draw_sw_line.c ****                     blend_dsc.mask_res = LV_DRAW_MASK_RES_CHANGED;
 341              		.loc 1 183 21 is_stmt 1 view .LVU120
 342              		.loc 1 183 40 is_stmt 0 view .LVU121
 343 013c 0223     		movs	r3, #2
 344 013e 8DF81430 		strb	r3, [sp, #20]
 345              	.LVL39:
 346              	.L10:
 347              		.loc 1 183 40 view .LVU122
 348              	.LBE15:
 184:lvgl/src/draw/sw/lv_draw_sw_line.c ****                 }
 185:lvgl/src/draw/sw/lv_draw_sw_line.c ****             }
 186:lvgl/src/draw/sw/lv_draw_sw_line.c **** 
 187:lvgl/src/draw/sw/lv_draw_sw_line.c ****             lv_draw_sw_blend(draw_ctx, &blend_dsc);
 349              		.loc 1 187 13 is_stmt 1 discriminator 2 view .LVU123
ARM GAS  C:\Users\OSD\AppData\Local\Temp\ccgzvg7d.s 			page 13


 350 0142 01A9     		add	r1, sp, #4
 351 0144 4046     		mov	r0, r8
 352 0146 FFF7FEFF 		bl	lv_draw_sw_blend
 353              	.LVL40:
 188:lvgl/src/draw/sw/lv_draw_sw_line.c **** 
 189:lvgl/src/draw/sw/lv_draw_sw_line.c ****             blend_area.y1++;
 354              		.loc 1 189 13 discriminator 2 view .LVU124
 355              		.loc 1 189 23 is_stmt 0 discriminator 2 view .LVU125
 356 014a BDF92230 		ldrsh	r3, [sp, #34]
 357              		.loc 1 189 26 discriminator 2 view .LVU126
 358 014e 0133     		adds	r3, r3, #1
 359 0150 ADF82230 		strh	r3, [sp, #34]	@ movhi
 190:lvgl/src/draw/sw/lv_draw_sw_line.c ****             blend_area.y2++;
 360              		.loc 1 190 13 is_stmt 1 discriminator 2 view .LVU127
 361              		.loc 1 190 23 is_stmt 0 discriminator 2 view .LVU128
 362 0154 BDF92630 		ldrsh	r3, [sp, #38]
 363              		.loc 1 190 26 discriminator 2 view .LVU129
 364 0158 0133     		adds	r3, r3, #1
 365 015a ADF82630 		strh	r3, [sp, #38]	@ movhi
 161:lvgl/src/draw/sw/lv_draw_sw_line.c ****             lv_memset_ff(mask_buf, blend_area_w);
 366              		.loc 1 161 41 is_stmt 1 discriminator 2 view .LVU130
 161:lvgl/src/draw/sw/lv_draw_sw_line.c ****             lv_memset_ff(mask_buf, blend_area_w);
 367              		.loc 1 161 42 is_stmt 0 discriminator 2 view .LVU131
 368 015e 0135     		adds	r5, r5, #1
 369              	.LVL41:
 370              	.L9:
 161:lvgl/src/draw/sw/lv_draw_sw_line.c ****             lv_memset_ff(mask_buf, blend_area_w);
 371              		.loc 1 161 32 is_stmt 1 discriminator 1 view .LVU132
 161:lvgl/src/draw/sw/lv_draw_sw_line.c ****             lv_memset_ff(mask_buf, blend_area_w);
 372              		.loc 1 161 9 is_stmt 0 discriminator 1 view .LVU133
 373 0160 AA45     		cmp	r10, r5
 374 0162 14DB     		blt	.L25
 162:lvgl/src/draw/sw/lv_draw_sw_line.c ****             blend_dsc.mask_res = lv_draw_mask_apply(mask_buf, blend_area.x1, h, blend_area_w);
 375              		.loc 1 162 13 is_stmt 1 view .LVU134
 376 0164 2146     		mov	r1, r4
 377 0166 3846     		mov	r0, r7
 378 0168 FFF7FEFF 		bl	lv_memset_ff
 379              	.LVL42:
 163:lvgl/src/draw/sw/lv_draw_sw_line.c **** 
 380              		.loc 1 163 13 view .LVU135
 163:lvgl/src/draw/sw/lv_draw_sw_line.c **** 
 381              		.loc 1 163 34 is_stmt 0 view .LVU136
 382 016c 2346     		mov	r3, r4
 383 016e 2AB2     		sxth	r2, r5
 384 0170 BDF92010 		ldrsh	r1, [sp, #32]
 385 0174 3846     		mov	r0, r7
 386 0176 FFF7FEFF 		bl	lv_draw_mask_apply
 387              	.LVL43:
 163:lvgl/src/draw/sw/lv_draw_sw_line.c **** 
 388              		.loc 1 163 32 view .LVU137
 389 017a 8DF81400 		strb	r0, [sp, #20]
 165:lvgl/src/draw/sw/lv_draw_sw_line.c ****                 if(blend_dsc.mask_res != LV_DRAW_MASK_RES_TRANSP) {
 390              		.loc 1 165 13 is_stmt 1 view .LVU138
 165:lvgl/src/draw/sw/lv_draw_sw_line.c ****                 if(blend_dsc.mask_res != LV_DRAW_MASK_RES_TRANSP) {
 391              		.loc 1 165 15 is_stmt 0 view .LVU139
 392 017e B9F1000F 		cmp	r9, #0
 393 0182 DED0     		beq	.L10
ARM GAS  C:\Users\OSD\AppData\Local\Temp\ccgzvg7d.s 			page 14


 166:lvgl/src/draw/sw/lv_draw_sw_line.c ****                     lv_coord_t dash_cnt = dash_start;
 394              		.loc 1 166 17 is_stmt 1 view .LVU140
 166:lvgl/src/draw/sw/lv_draw_sw_line.c ****                     lv_coord_t dash_cnt = dash_start;
 395              		.loc 1 166 19 is_stmt 0 view .LVU141
 396 0184 0028     		cmp	r0, #0
 397 0186 DCD0     		beq	.L10
 398              	.LBB17:
 167:lvgl/src/draw/sw/lv_draw_sw_line.c ****                     lv_coord_t i;
 399              		.loc 1 167 32 view .LVU142
 400 0188 5946     		mov	r1, fp
 169:lvgl/src/draw/sw/lv_draw_sw_line.c ****                         if(dash_cnt <= dsc->dash_width) {
 401              		.loc 1 169 27 view .LVU143
 402 018a 0022     		movs	r2, #0
 403 018c C8E7     		b	.L11
 404              	.L25:
 169:lvgl/src/draw/sw/lv_draw_sw_line.c ****                         if(dash_cnt <= dsc->dash_width) {
 405              		.loc 1 169 27 view .LVU144
 406              	.LBE17:
 191:lvgl/src/draw/sw/lv_draw_sw_line.c ****         }
 192:lvgl/src/draw/sw/lv_draw_sw_line.c ****         lv_mem_buf_release(mask_buf);
 407              		.loc 1 192 9 is_stmt 1 view .LVU145
 408 018e 3846     		mov	r0, r7
 409 0190 FFF7FEFF 		bl	lv_mem_buf_release
 410              	.LVL44:
 411              	.L1:
 412              		.loc 1 192 9 is_stmt 0 view .LVU146
 413              	.LBE18:
 193:lvgl/src/draw/sw/lv_draw_sw_line.c ****     }
 194:lvgl/src/draw/sw/lv_draw_sw_line.c **** #endif /*LV_DRAW_COMPLEX*/
 195:lvgl/src/draw/sw/lv_draw_sw_line.c **** }
 414              		.loc 1 195 1 view .LVU147
 415 0194 0BB0     		add	sp, sp, #44
 416              		.cfi_def_cfa_offset 36
 417              		@ sp needed
 418 0196 BDE8F08F 		pop	{r4, r5, r6, r7, r8, r9, r10, fp, pc}
 419              		.loc 1 195 1 view .LVU148
 420              		.cfi_endproc
 421              	.LFE162:
 423              		.section	.text.draw_line_ver,"ax",%progbits
 424              		.align	1
 425              		.syntax unified
 426              		.thumb
 427              		.thumb_func
 429              	draw_line_ver:
 430              	.LVL45:
 431              	.LFB163:
 196:lvgl/src/draw/sw/lv_draw_sw_line.c **** 
 197:lvgl/src/draw/sw/lv_draw_sw_line.c **** static void LV_ATTRIBUTE_FAST_MEM draw_line_ver(struct _lv_draw_ctx_t * draw_ctx, const lv_draw_lin
 198:lvgl/src/draw/sw/lv_draw_sw_line.c ****                                                 const lv_point_t * point1, const lv_point_t * point
 199:lvgl/src/draw/sw/lv_draw_sw_line.c **** {
 432              		.loc 1 199 1 is_stmt 1 view -0
 433              		.cfi_startproc
 434              		@ args = 0, pretend = 0, frame = 40
 435              		@ frame_needed = 0, uses_anonymous_args = 0
 436              		.loc 1 199 1 is_stmt 0 view .LVU150
 437 0000 2DE9F04F 		push	{r4, r5, r6, r7, r8, r9, r10, fp, lr}
 438              		.cfi_def_cfa_offset 36
ARM GAS  C:\Users\OSD\AppData\Local\Temp\ccgzvg7d.s 			page 15


 439              		.cfi_offset 4, -36
 440              		.cfi_offset 5, -32
 441              		.cfi_offset 6, -28
 442              		.cfi_offset 7, -24
 443              		.cfi_offset 8, -20
 444              		.cfi_offset 9, -16
 445              		.cfi_offset 10, -12
 446              		.cfi_offset 11, -8
 447              		.cfi_offset 14, -4
 448 0004 8BB0     		sub	sp, sp, #44
 449              		.cfi_def_cfa_offset 80
 450 0006 8046     		mov	r8, r0
 451 0008 0E46     		mov	r6, r1
 200:lvgl/src/draw/sw/lv_draw_sw_line.c ****     int32_t w = dsc->width - 1;
 452              		.loc 1 200 5 is_stmt 1 view .LVU151
 453              		.loc 1 200 20 is_stmt 0 view .LVU152
 454 000a B1F90410 		ldrsh	r1, [r1, #4]
 455              	.LVL46:
 456              		.loc 1 200 13 view .LVU153
 457 000e 0139     		subs	r1, r1, #1
 458              	.LVL47:
 201:lvgl/src/draw/sw/lv_draw_sw_line.c ****     int32_t w_half0 = w >> 1;
 459              		.loc 1 201 5 is_stmt 1 view .LVU154
 202:lvgl/src/draw/sw/lv_draw_sw_line.c ****     int32_t w_half1 = w_half0 + (w & 0x1); /*Compensate rounding error*/
 460              		.loc 1 202 5 view .LVU155
 461              		.loc 1 202 36 is_stmt 0 view .LVU156
 462 0010 01F00100 		and	r0, r1, #1
 463              	.LVL48:
 464              		.loc 1 202 13 view .LVU157
 465 0014 00EB6100 		add	r0, r0, r1, asr #1
 466              	.LVL49:
 203:lvgl/src/draw/sw/lv_draw_sw_line.c **** 
 204:lvgl/src/draw/sw/lv_draw_sw_line.c ****     lv_area_t blend_area;
 467              		.loc 1 204 5 is_stmt 1 view .LVU158
 205:lvgl/src/draw/sw/lv_draw_sw_line.c ****     blend_area.x1 = point1->x - w_half1;
 468              		.loc 1 205 5 view .LVU159
 469              		.loc 1 205 27 is_stmt 0 view .LVU160
 470 0018 1488     		ldrh	r4, [r2]
 471              		.loc 1 205 31 view .LVU161
 472 001a 201A     		subs	r0, r4, r0
 473              	.LVL50:
 474              		.loc 1 205 19 view .LVU162
 475 001c ADF82000 		strh	r0, [sp, #32]	@ movhi
 206:lvgl/src/draw/sw/lv_draw_sw_line.c ****     blend_area.x2 = point1->x + w_half0;
 476              		.loc 1 206 5 is_stmt 1 view .LVU163
 477              		.loc 1 206 31 is_stmt 0 view .LVU164
 478 0020 04EB6101 		add	r1, r4, r1, asr #1
 479              	.LVL51:
 480              		.loc 1 206 19 view .LVU165
 481 0024 ADF82410 		strh	r1, [sp, #36]	@ movhi
 482              	.LVL52:
 207:lvgl/src/draw/sw/lv_draw_sw_line.c ****     blend_area.y1 = LV_MIN(point1->y, point2->y);
 483              		.loc 1 207 5 is_stmt 1 view .LVU166
 484              		.loc 1 207 21 is_stmt 0 view .LVU167
 485 0028 B3F90230 		ldrsh	r3, [r3, #2]
 486              	.LVL53:
 487              		.loc 1 207 21 view .LVU168
ARM GAS  C:\Users\OSD\AppData\Local\Temp\ccgzvg7d.s 			page 16


 488 002c B2F90220 		ldrsh	r2, [r2, #2]
 489              	.LVL54:
 490              		.loc 1 207 21 view .LVU169
 491 0030 1946     		mov	r1, r3
 492 0032 9342     		cmp	r3, r2
 493 0034 A8BF     		it	ge
 494 0036 1146     		movge	r1, r2
 495              		.loc 1 207 19 view .LVU170
 496 0038 ADF82210 		strh	r1, [sp, #34]	@ movhi
 208:lvgl/src/draw/sw/lv_draw_sw_line.c ****     blend_area.y2 = LV_MAX(point1->y, point2->y) - 1;
 497              		.loc 1 208 5 is_stmt 1 view .LVU171
 498              		.loc 1 208 21 is_stmt 0 view .LVU172
 499 003c 9342     		cmp	r3, r2
 500 003e B8BF     		it	lt
 501 0040 1346     		movlt	r3, r2
 502 0042 9BB2     		uxth	r3, r3
 503              		.loc 1 208 50 view .LVU173
 504 0044 013B     		subs	r3, r3, #1
 505              		.loc 1 208 19 view .LVU174
 506 0046 ADF82630 		strh	r3, [sp, #38]	@ movhi
 209:lvgl/src/draw/sw/lv_draw_sw_line.c **** 
 210:lvgl/src/draw/sw/lv_draw_sw_line.c ****     bool is_common;
 507              		.loc 1 210 5 is_stmt 1 view .LVU175
 211:lvgl/src/draw/sw/lv_draw_sw_line.c ****     is_common = _lv_area_intersect(&blend_area, &blend_area, draw_ctx->clip_area);
 508              		.loc 1 211 5 view .LVU176
 509              		.loc 1 211 17 is_stmt 0 view .LVU177
 510 004a D8F80820 		ldr	r2, [r8, #8]
 511 004e 08A9     		add	r1, sp, #32
 512 0050 0846     		mov	r0, r1
 513 0052 FFF7FEFF 		bl	_lv_area_intersect
 514              	.LVL55:
 212:lvgl/src/draw/sw/lv_draw_sw_line.c ****     if(!is_common) return;
 515              		.loc 1 212 5 is_stmt 1 view .LVU178
 516              		.loc 1 212 7 is_stmt 0 view .LVU179
 517 0056 48B3     		cbz	r0, .L26
 518 0058 0546     		mov	r5, r0
 213:lvgl/src/draw/sw/lv_draw_sw_line.c **** 
 214:lvgl/src/draw/sw/lv_draw_sw_line.c ****     bool dashed = dsc->dash_gap && dsc->dash_width ? true : false;
 519              		.loc 1 214 5 is_stmt 1 view .LVU180
 520              		.loc 1 214 22 is_stmt 0 view .LVU181
 521 005a B6F90830 		ldrsh	r3, [r6, #8]
 522              		.loc 1 214 59 view .LVU182
 523 005e 2BB1     		cbz	r3, .L39
 524              		.loc 1 214 39 discriminator 1 view .LVU183
 525 0060 B6F90630 		ldrsh	r3, [r6, #6]
 526              		.loc 1 214 59 discriminator 1 view .LVU184
 527 0064 73B9     		cbnz	r3, .L40
 528              		.loc 1 214 59 view .LVU185
 529 0066 4FF0000A 		mov	r10, #0
 530 006a 01E0     		b	.L29
 531              	.L39:
 532 006c 4FF0000A 		mov	r10, #0
 533              	.L29:
 534              	.LVL56:
 215:lvgl/src/draw/sw/lv_draw_sw_line.c ****     bool simple_mode = true;
 535              		.loc 1 215 5 is_stmt 1 discriminator 6 view .LVU186
 216:lvgl/src/draw/sw/lv_draw_sw_line.c ****     if(lv_draw_mask_is_any(&blend_area)) simple_mode = false;
ARM GAS  C:\Users\OSD\AppData\Local\Temp\ccgzvg7d.s 			page 17


 536              		.loc 1 216 5 discriminator 6 view .LVU187
 537              		.loc 1 216 8 is_stmt 0 discriminator 6 view .LVU188
 538 0070 08A8     		add	r0, sp, #32
 539              	.LVL57:
 540              		.loc 1 216 8 discriminator 6 view .LVU189
 541 0072 FFF7FEFF 		bl	lv_draw_mask_is_any
 542              	.LVL58:
 543              		.loc 1 216 7 discriminator 6 view .LVU190
 544 0076 0446     		mov	r4, r0
 545 0078 38B9     		cbnz	r0, .L41
 217:lvgl/src/draw/sw/lv_draw_sw_line.c ****     else if(dashed) simple_mode = false;
 546              		.loc 1 217 10 is_stmt 1 view .LVU191
 547              		.loc 1 217 12 is_stmt 0 view .LVU192
 548 007a BAF1000F 		cmp	r10, #0
 549 007e 05D1     		bne	.L30
 215:lvgl/src/draw/sw/lv_draw_sw_line.c ****     bool simple_mode = true;
 550              		.loc 1 215 10 view .LVU193
 551 0080 2C46     		mov	r4, r5
 552 0082 03E0     		b	.L30
 553              	.LVL59:
 554              	.L40:
 214:lvgl/src/draw/sw/lv_draw_sw_line.c ****     bool simple_mode = true;
 555              		.loc 1 214 59 view .LVU194
 556 0084 4FF0010A 		mov	r10, #1
 557 0088 F2E7     		b	.L29
 558              	.LVL60:
 559              	.L41:
 216:lvgl/src/draw/sw/lv_draw_sw_line.c ****     if(lv_draw_mask_is_any(&blend_area)) simple_mode = false;
 560              		.loc 1 216 54 view .LVU195
 561 008a 0024     		movs	r4, #0
 562              	.L30:
 563              	.LVL61:
 218:lvgl/src/draw/sw/lv_draw_sw_line.c **** 
 219:lvgl/src/draw/sw/lv_draw_sw_line.c ****     lv_draw_sw_blend_dsc_t blend_dsc;
 564              		.loc 1 219 5 is_stmt 1 view .LVU196
 220:lvgl/src/draw/sw/lv_draw_sw_line.c ****     lv_memset_00(&blend_dsc, sizeof(blend_dsc));
 565              		.loc 1 220 5 view .LVU197
 566 008c 1C21     		movs	r1, #28
 567 008e 01A8     		add	r0, sp, #4
 568 0090 FFF7FEFF 		bl	lv_memset_00
 569              	.LVL62:
 221:lvgl/src/draw/sw/lv_draw_sw_line.c ****     blend_dsc.blend_area = &blend_area;
 570              		.loc 1 221 5 view .LVU198
 571              		.loc 1 221 26 is_stmt 0 view .LVU199
 572 0094 08AB     		add	r3, sp, #32
 573 0096 0193     		str	r3, [sp, #4]
 222:lvgl/src/draw/sw/lv_draw_sw_line.c ****     blend_dsc.color = dsc->color;
 574              		.loc 1 222 5 is_stmt 1 view .LVU200
 575              		.loc 1 222 21 is_stmt 0 view .LVU201
 576 0098 3368     		ldr	r3, [r6]
 577 009a 0393     		str	r3, [sp, #12]
 223:lvgl/src/draw/sw/lv_draw_sw_line.c ****     blend_dsc.opa = dsc->opa;
 578              		.loc 1 223 5 is_stmt 1 view .LVU202
 579              		.loc 1 223 24 is_stmt 0 view .LVU203
 580 009c B37A     		ldrb	r3, [r6, #10]	@ zero_extendqisi2
 581              		.loc 1 223 19 view .LVU204
 582 009e 8DF81C30 		strb	r3, [sp, #28]
ARM GAS  C:\Users\OSD\AppData\Local\Temp\ccgzvg7d.s 			page 18


 224:lvgl/src/draw/sw/lv_draw_sw_line.c **** 
 225:lvgl/src/draw/sw/lv_draw_sw_line.c ****     /*If there is no mask then simply draw a rectangle*/
 226:lvgl/src/draw/sw/lv_draw_sw_line.c ****     if(simple_mode) {
 583              		.loc 1 226 5 is_stmt 1 view .LVU205
 584              		.loc 1 226 7 is_stmt 0 view .LVU206
 585 00a2 34B1     		cbz	r4, .L31
 227:lvgl/src/draw/sw/lv_draw_sw_line.c ****         lv_draw_sw_blend(draw_ctx, &blend_dsc);
 586              		.loc 1 227 9 is_stmt 1 view .LVU207
 587 00a4 01A9     		add	r1, sp, #4
 588 00a6 4046     		mov	r0, r8
 589 00a8 FFF7FEFF 		bl	lv_draw_sw_blend
 590              	.LVL63:
 591              	.L26:
 228:lvgl/src/draw/sw/lv_draw_sw_line.c ****     }
 229:lvgl/src/draw/sw/lv_draw_sw_line.c **** 
 230:lvgl/src/draw/sw/lv_draw_sw_line.c **** #if LV_DRAW_COMPLEX
 231:lvgl/src/draw/sw/lv_draw_sw_line.c ****     /*If there other mask apply it*/
 232:lvgl/src/draw/sw/lv_draw_sw_line.c ****     else {
 233:lvgl/src/draw/sw/lv_draw_sw_line.c ****         int32_t draw_area_w = lv_area_get_width(&blend_area);
 234:lvgl/src/draw/sw/lv_draw_sw_line.c **** 
 235:lvgl/src/draw/sw/lv_draw_sw_line.c ****         lv_coord_t y2 = blend_area.y2;
 236:lvgl/src/draw/sw/lv_draw_sw_line.c ****         blend_area.y2 = blend_area.y1;
 237:lvgl/src/draw/sw/lv_draw_sw_line.c **** 
 238:lvgl/src/draw/sw/lv_draw_sw_line.c ****         lv_opa_t * mask_buf = lv_mem_buf_get(draw_area_w);
 239:lvgl/src/draw/sw/lv_draw_sw_line.c ****         blend_dsc.mask_buf = mask_buf;
 240:lvgl/src/draw/sw/lv_draw_sw_line.c ****         blend_dsc.mask_area = &blend_area;
 241:lvgl/src/draw/sw/lv_draw_sw_line.c **** 
 242:lvgl/src/draw/sw/lv_draw_sw_line.c ****         lv_coord_t dash_start = 0;
 243:lvgl/src/draw/sw/lv_draw_sw_line.c ****         if(dashed) {
 244:lvgl/src/draw/sw/lv_draw_sw_line.c ****             dash_start = (blend_area.y1) % (dsc->dash_gap + dsc->dash_width);
 245:lvgl/src/draw/sw/lv_draw_sw_line.c ****         }
 246:lvgl/src/draw/sw/lv_draw_sw_line.c **** 
 247:lvgl/src/draw/sw/lv_draw_sw_line.c ****         lv_coord_t dash_cnt = dash_start;
 248:lvgl/src/draw/sw/lv_draw_sw_line.c **** 
 249:lvgl/src/draw/sw/lv_draw_sw_line.c ****         int32_t h;
 250:lvgl/src/draw/sw/lv_draw_sw_line.c ****         for(h = blend_area.y1; h <= y2; h++) {
 251:lvgl/src/draw/sw/lv_draw_sw_line.c ****             lv_memset_ff(mask_buf, draw_area_w);
 252:lvgl/src/draw/sw/lv_draw_sw_line.c ****             blend_dsc.mask_res = lv_draw_mask_apply(mask_buf, blend_area.x1, h, draw_area_w);
 253:lvgl/src/draw/sw/lv_draw_sw_line.c **** 
 254:lvgl/src/draw/sw/lv_draw_sw_line.c ****             if(dashed) {
 255:lvgl/src/draw/sw/lv_draw_sw_line.c ****                 if(blend_dsc.mask_res != LV_DRAW_MASK_RES_TRANSP) {
 256:lvgl/src/draw/sw/lv_draw_sw_line.c ****                     if(dash_cnt > dsc->dash_width) {
 257:lvgl/src/draw/sw/lv_draw_sw_line.c ****                         blend_dsc.mask_res = LV_DRAW_MASK_RES_TRANSP;
 258:lvgl/src/draw/sw/lv_draw_sw_line.c ****                     }
 259:lvgl/src/draw/sw/lv_draw_sw_line.c **** 
 260:lvgl/src/draw/sw/lv_draw_sw_line.c ****                     if(dash_cnt >= dsc->dash_gap + dsc->dash_width) {
 261:lvgl/src/draw/sw/lv_draw_sw_line.c ****                         dash_cnt = 0;
 262:lvgl/src/draw/sw/lv_draw_sw_line.c ****                     }
 263:lvgl/src/draw/sw/lv_draw_sw_line.c ****                 }
 264:lvgl/src/draw/sw/lv_draw_sw_line.c ****                 dash_cnt ++;
 265:lvgl/src/draw/sw/lv_draw_sw_line.c ****             }
 266:lvgl/src/draw/sw/lv_draw_sw_line.c **** 
 267:lvgl/src/draw/sw/lv_draw_sw_line.c ****             lv_draw_sw_blend(draw_ctx, &blend_dsc);
 268:lvgl/src/draw/sw/lv_draw_sw_line.c **** 
 269:lvgl/src/draw/sw/lv_draw_sw_line.c ****             blend_area.y1++;
 270:lvgl/src/draw/sw/lv_draw_sw_line.c ****             blend_area.y2++;
 271:lvgl/src/draw/sw/lv_draw_sw_line.c ****         }
ARM GAS  C:\Users\OSD\AppData\Local\Temp\ccgzvg7d.s 			page 19


 272:lvgl/src/draw/sw/lv_draw_sw_line.c ****         lv_mem_buf_release(mask_buf);
 273:lvgl/src/draw/sw/lv_draw_sw_line.c ****     }
 274:lvgl/src/draw/sw/lv_draw_sw_line.c **** #endif /*LV_DRAW_COMPLEX*/
 275:lvgl/src/draw/sw/lv_draw_sw_line.c **** }
 592              		.loc 1 275 1 is_stmt 0 view .LVU208
 593 00ac 0BB0     		add	sp, sp, #44
 594              		.cfi_remember_state
 595              		.cfi_def_cfa_offset 36
 596              		@ sp needed
 597 00ae BDE8F08F 		pop	{r4, r5, r6, r7, r8, r9, r10, fp, pc}
 598              	.LVL64:
 599              	.L31:
 600              		.cfi_restore_state
 601              	.LBB19:
 233:lvgl/src/draw/sw/lv_draw_sw_line.c **** 
 602              		.loc 1 233 9 is_stmt 1 view .LVU209
 603              	.LBB20:
 604              	.LBI20:
 123:lvgl/src/draw/sw/../../misc/lv_area.h **** {
 605              		.loc 2 123 26 view .LVU210
 606              	.LBB21:
 607              		.loc 2 125 5 view .LVU211
 608              		.loc 2 125 31 is_stmt 0 view .LVU212
 609 00b2 BDF82450 		ldrh	r5, [sp, #36]
 610              		.loc 2 125 44 view .LVU213
 611 00b6 BDF82030 		ldrh	r3, [sp, #32]
 612              		.loc 2 125 36 view .LVU214
 613 00ba ED1A     		subs	r5, r5, r3
 614 00bc ADB2     		uxth	r5, r5
 615              		.loc 2 125 49 view .LVU215
 616 00be 0135     		adds	r5, r5, #1
 617              		.loc 2 125 12 view .LVU216
 618 00c0 2DB2     		sxth	r5, r5
 619              	.LVL65:
 620              		.loc 2 125 12 view .LVU217
 621              	.LBE21:
 622              	.LBE20:
 235:lvgl/src/draw/sw/lv_draw_sw_line.c ****         blend_area.y2 = blend_area.y1;
 623              		.loc 1 235 9 is_stmt 1 view .LVU218
 235:lvgl/src/draw/sw/lv_draw_sw_line.c ****         blend_area.y2 = blend_area.y1;
 624              		.loc 1 235 20 is_stmt 0 view .LVU219
 625 00c2 BDF926B0 		ldrsh	fp, [sp, #38]
 626              	.LVL66:
 236:lvgl/src/draw/sw/lv_draw_sw_line.c **** 
 627              		.loc 1 236 9 is_stmt 1 view .LVU220
 236:lvgl/src/draw/sw/lv_draw_sw_line.c **** 
 628              		.loc 1 236 35 is_stmt 0 view .LVU221
 629 00c6 BDF92230 		ldrsh	r3, [sp, #34]
 236:lvgl/src/draw/sw/lv_draw_sw_line.c **** 
 630              		.loc 1 236 23 view .LVU222
 631 00ca ADF82630 		strh	r3, [sp, #38]	@ movhi
 238:lvgl/src/draw/sw/lv_draw_sw_line.c ****         blend_dsc.mask_buf = mask_buf;
 632              		.loc 1 238 9 is_stmt 1 view .LVU223
 238:lvgl/src/draw/sw/lv_draw_sw_line.c ****         blend_dsc.mask_buf = mask_buf;
 633              		.loc 1 238 31 is_stmt 0 view .LVU224
 634 00ce 2846     		mov	r0, r5
 635 00d0 FFF7FEFF 		bl	lv_mem_buf_get
ARM GAS  C:\Users\OSD\AppData\Local\Temp\ccgzvg7d.s 			page 20


 636              	.LVL67:
 637 00d4 8146     		mov	r9, r0
 638              	.LVL68:
 239:lvgl/src/draw/sw/lv_draw_sw_line.c ****         blend_dsc.mask_area = &blend_area;
 639              		.loc 1 239 9 is_stmt 1 view .LVU225
 239:lvgl/src/draw/sw/lv_draw_sw_line.c ****         blend_dsc.mask_area = &blend_area;
 640              		.loc 1 239 28 is_stmt 0 view .LVU226
 641 00d6 0490     		str	r0, [sp, #16]
 240:lvgl/src/draw/sw/lv_draw_sw_line.c **** 
 642              		.loc 1 240 9 is_stmt 1 view .LVU227
 240:lvgl/src/draw/sw/lv_draw_sw_line.c **** 
 643              		.loc 1 240 29 is_stmt 0 view .LVU228
 644 00d8 08AB     		add	r3, sp, #32
 645 00da 0693     		str	r3, [sp, #24]
 242:lvgl/src/draw/sw/lv_draw_sw_line.c ****         if(dashed) {
 646              		.loc 1 242 9 is_stmt 1 view .LVU229
 647              	.LVL69:
 243:lvgl/src/draw/sw/lv_draw_sw_line.c ****             dash_start = (blend_area.y1) % (dsc->dash_gap + dsc->dash_width);
 648              		.loc 1 243 9 view .LVU230
 243:lvgl/src/draw/sw/lv_draw_sw_line.c ****             dash_start = (blend_area.y1) % (dsc->dash_gap + dsc->dash_width);
 649              		.loc 1 243 11 is_stmt 0 view .LVU231
 650 00dc BAF1000F 		cmp	r10, #0
 651 00e0 0ED0     		beq	.L42
 244:lvgl/src/draw/sw/lv_draw_sw_line.c ****         }
 652              		.loc 1 244 13 is_stmt 1 view .LVU232
 244:lvgl/src/draw/sw/lv_draw_sw_line.c ****         }
 653              		.loc 1 244 37 is_stmt 0 view .LVU233
 654 00e2 BDF92270 		ldrsh	r7, [sp, #34]
 244:lvgl/src/draw/sw/lv_draw_sw_line.c ****         }
 655              		.loc 1 244 48 view .LVU234
 656 00e6 B6F90830 		ldrsh	r3, [r6, #8]
 244:lvgl/src/draw/sw/lv_draw_sw_line.c ****         }
 657              		.loc 1 244 64 view .LVU235
 658 00ea B6F90620 		ldrsh	r2, [r6, #6]
 244:lvgl/src/draw/sw/lv_draw_sw_line.c ****         }
 659              		.loc 1 244 59 view .LVU236
 660 00ee 1344     		add	r3, r3, r2
 244:lvgl/src/draw/sw/lv_draw_sw_line.c ****         }
 661              		.loc 1 244 42 view .LVU237
 662 00f0 97FBF3F2 		sdiv	r2, r7, r3
 663 00f4 03FB1277 		mls	r7, r3, r2, r7
 244:lvgl/src/draw/sw/lv_draw_sw_line.c ****         }
 664              		.loc 1 244 24 view .LVU238
 665 00f8 3FB2     		sxth	r7, r7
 666              	.LVL70:
 667              	.L33:
 247:lvgl/src/draw/sw/lv_draw_sw_line.c **** 
 668              		.loc 1 247 9 is_stmt 1 view .LVU239
 249:lvgl/src/draw/sw/lv_draw_sw_line.c ****         for(h = blend_area.y1; h <= y2; h++) {
 669              		.loc 1 249 9 view .LVU240
 250:lvgl/src/draw/sw/lv_draw_sw_line.c ****             lv_memset_ff(mask_buf, draw_area_w);
 670              		.loc 1 250 9 view .LVU241
 250:lvgl/src/draw/sw/lv_draw_sw_line.c ****             lv_memset_ff(mask_buf, draw_area_w);
 671              		.loc 1 250 27 is_stmt 0 view .LVU242
 672 00fa BDF92240 		ldrsh	r4, [sp, #34]
 673              	.LVL71:
 250:lvgl/src/draw/sw/lv_draw_sw_line.c ****             lv_memset_ff(mask_buf, draw_area_w);
ARM GAS  C:\Users\OSD\AppData\Local\Temp\ccgzvg7d.s 			page 21


 674              		.loc 1 250 9 view .LVU243
 675 00fe 12E0     		b	.L34
 676              	.LVL72:
 677              	.L42:
 242:lvgl/src/draw/sw/lv_draw_sw_line.c ****         if(dashed) {
 678              		.loc 1 242 20 view .LVU244
 679 0100 0027     		movs	r7, #0
 680 0102 FAE7     		b	.L33
 681              	.LVL73:
 682              	.L36:
 264:lvgl/src/draw/sw/lv_draw_sw_line.c ****             }
 683              		.loc 1 264 17 is_stmt 1 view .LVU245
 264:lvgl/src/draw/sw/lv_draw_sw_line.c ****             }
 684              		.loc 1 264 26 is_stmt 0 view .LVU246
 685 0104 0137     		adds	r7, r7, #1
 686              	.LVL74:
 264:lvgl/src/draw/sw/lv_draw_sw_line.c ****             }
 687              		.loc 1 264 26 view .LVU247
 688 0106 3FB2     		sxth	r7, r7
 689              	.LVL75:
 690              	.L35:
 267:lvgl/src/draw/sw/lv_draw_sw_line.c **** 
 691              		.loc 1 267 13 is_stmt 1 discriminator 2 view .LVU248
 692 0108 01A9     		add	r1, sp, #4
 693 010a 4046     		mov	r0, r8
 694 010c FFF7FEFF 		bl	lv_draw_sw_blend
 695              	.LVL76:
 269:lvgl/src/draw/sw/lv_draw_sw_line.c ****             blend_area.y2++;
 696              		.loc 1 269 13 discriminator 2 view .LVU249
 269:lvgl/src/draw/sw/lv_draw_sw_line.c ****             blend_area.y2++;
 697              		.loc 1 269 23 is_stmt 0 discriminator 2 view .LVU250
 698 0110 BDF92230 		ldrsh	r3, [sp, #34]
 269:lvgl/src/draw/sw/lv_draw_sw_line.c ****             blend_area.y2++;
 699              		.loc 1 269 26 discriminator 2 view .LVU251
 700 0114 0133     		adds	r3, r3, #1
 701 0116 ADF82230 		strh	r3, [sp, #34]	@ movhi
 270:lvgl/src/draw/sw/lv_draw_sw_line.c ****         }
 702              		.loc 1 270 13 is_stmt 1 discriminator 2 view .LVU252
 270:lvgl/src/draw/sw/lv_draw_sw_line.c ****         }
 703              		.loc 1 270 23 is_stmt 0 discriminator 2 view .LVU253
 704 011a BDF92630 		ldrsh	r3, [sp, #38]
 270:lvgl/src/draw/sw/lv_draw_sw_line.c ****         }
 705              		.loc 1 270 26 discriminator 2 view .LVU254
 706 011e 0133     		adds	r3, r3, #1
 707 0120 ADF82630 		strh	r3, [sp, #38]	@ movhi
 250:lvgl/src/draw/sw/lv_draw_sw_line.c ****             lv_memset_ff(mask_buf, draw_area_w);
 708              		.loc 1 250 41 is_stmt 1 discriminator 2 view .LVU255
 250:lvgl/src/draw/sw/lv_draw_sw_line.c ****             lv_memset_ff(mask_buf, draw_area_w);
 709              		.loc 1 250 42 is_stmt 0 discriminator 2 view .LVU256
 710 0124 0134     		adds	r4, r4, #1
 711              	.LVL77:
 712              	.L34:
 250:lvgl/src/draw/sw/lv_draw_sw_line.c ****             lv_memset_ff(mask_buf, draw_area_w);
 713              		.loc 1 250 32 is_stmt 1 discriminator 1 view .LVU257
 250:lvgl/src/draw/sw/lv_draw_sw_line.c ****             lv_memset_ff(mask_buf, draw_area_w);
 714              		.loc 1 250 9 is_stmt 0 discriminator 1 view .LVU258
 715 0126 A345     		cmp	fp, r4
ARM GAS  C:\Users\OSD\AppData\Local\Temp\ccgzvg7d.s 			page 22


 716 0128 21DB     		blt	.L45
 251:lvgl/src/draw/sw/lv_draw_sw_line.c ****             blend_dsc.mask_res = lv_draw_mask_apply(mask_buf, blend_area.x1, h, draw_area_w);
 717              		.loc 1 251 13 is_stmt 1 view .LVU259
 718 012a 2946     		mov	r1, r5
 719 012c 4846     		mov	r0, r9
 720 012e FFF7FEFF 		bl	lv_memset_ff
 721              	.LVL78:
 252:lvgl/src/draw/sw/lv_draw_sw_line.c **** 
 722              		.loc 1 252 13 view .LVU260
 252:lvgl/src/draw/sw/lv_draw_sw_line.c **** 
 723              		.loc 1 252 34 is_stmt 0 view .LVU261
 724 0132 2B46     		mov	r3, r5
 725 0134 22B2     		sxth	r2, r4
 726 0136 BDF92010 		ldrsh	r1, [sp, #32]
 727 013a 4846     		mov	r0, r9
 728 013c FFF7FEFF 		bl	lv_draw_mask_apply
 729              	.LVL79:
 252:lvgl/src/draw/sw/lv_draw_sw_line.c **** 
 730              		.loc 1 252 32 view .LVU262
 731 0140 8DF81400 		strb	r0, [sp, #20]
 254:lvgl/src/draw/sw/lv_draw_sw_line.c ****                 if(blend_dsc.mask_res != LV_DRAW_MASK_RES_TRANSP) {
 732              		.loc 1 254 13 is_stmt 1 view .LVU263
 254:lvgl/src/draw/sw/lv_draw_sw_line.c ****                 if(blend_dsc.mask_res != LV_DRAW_MASK_RES_TRANSP) {
 733              		.loc 1 254 15 is_stmt 0 view .LVU264
 734 0144 BAF1000F 		cmp	r10, #0
 735 0148 DED0     		beq	.L35
 255:lvgl/src/draw/sw/lv_draw_sw_line.c ****                     if(dash_cnt > dsc->dash_width) {
 736              		.loc 1 255 17 is_stmt 1 view .LVU265
 255:lvgl/src/draw/sw/lv_draw_sw_line.c ****                     if(dash_cnt > dsc->dash_width) {
 737              		.loc 1 255 19 is_stmt 0 view .LVU266
 738 014a 0028     		cmp	r0, #0
 739 014c DAD0     		beq	.L36
 256:lvgl/src/draw/sw/lv_draw_sw_line.c ****                         blend_dsc.mask_res = LV_DRAW_MASK_RES_TRANSP;
 740              		.loc 1 256 21 is_stmt 1 view .LVU267
 256:lvgl/src/draw/sw/lv_draw_sw_line.c ****                         blend_dsc.mask_res = LV_DRAW_MASK_RES_TRANSP;
 741              		.loc 1 256 38 is_stmt 0 view .LVU268
 742 014e B6F90630 		ldrsh	r3, [r6, #6]
 256:lvgl/src/draw/sw/lv_draw_sw_line.c ****                         blend_dsc.mask_res = LV_DRAW_MASK_RES_TRANSP;
 743              		.loc 1 256 23 view .LVU269
 744 0152 BB42     		cmp	r3, r7
 745 0154 02DA     		bge	.L37
 257:lvgl/src/draw/sw/lv_draw_sw_line.c ****                     }
 746              		.loc 1 257 25 is_stmt 1 view .LVU270
 257:lvgl/src/draw/sw/lv_draw_sw_line.c ****                     }
 747              		.loc 1 257 44 is_stmt 0 view .LVU271
 748 0156 0023     		movs	r3, #0
 749 0158 8DF81430 		strb	r3, [sp, #20]
 750              	.L37:
 260:lvgl/src/draw/sw/lv_draw_sw_line.c ****                         dash_cnt = 0;
 751              		.loc 1 260 21 is_stmt 1 view .LVU272
 260:lvgl/src/draw/sw/lv_draw_sw_line.c ****                         dash_cnt = 0;
 752              		.loc 1 260 39 is_stmt 0 view .LVU273
 753 015c B6F90830 		ldrsh	r3, [r6, #8]
 260:lvgl/src/draw/sw/lv_draw_sw_line.c ****                         dash_cnt = 0;
 754              		.loc 1 260 55 view .LVU274
 755 0160 B6F90620 		ldrsh	r2, [r6, #6]
 260:lvgl/src/draw/sw/lv_draw_sw_line.c ****                         dash_cnt = 0;
ARM GAS  C:\Users\OSD\AppData\Local\Temp\ccgzvg7d.s 			page 23


 756              		.loc 1 260 50 view .LVU275
 757 0164 1344     		add	r3, r3, r2
 260:lvgl/src/draw/sw/lv_draw_sw_line.c ****                         dash_cnt = 0;
 758              		.loc 1 260 23 view .LVU276
 759 0166 9F42     		cmp	r7, r3
 760 0168 CCDB     		blt	.L36
 261:lvgl/src/draw/sw/lv_draw_sw_line.c ****                     }
 761              		.loc 1 261 34 view .LVU277
 762 016a 0027     		movs	r7, #0
 763              	.LVL80:
 261:lvgl/src/draw/sw/lv_draw_sw_line.c ****                     }
 764              		.loc 1 261 34 view .LVU278
 765 016c CAE7     		b	.L36
 766              	.LVL81:
 767              	.L45:
 272:lvgl/src/draw/sw/lv_draw_sw_line.c ****     }
 768              		.loc 1 272 9 is_stmt 1 view .LVU279
 769 016e 4846     		mov	r0, r9
 770 0170 FFF7FEFF 		bl	lv_mem_buf_release
 771              	.LVL82:
 772 0174 9AE7     		b	.L26
 773              	.LBE19:
 774              		.cfi_endproc
 775              	.LFE163:
 777              		.section	.text.draw_line_skew,"ax",%progbits
 778              		.align	1
 779              		.syntax unified
 780              		.thumb
 781              		.thumb_func
 783              	draw_line_skew:
 784              	.LVL83:
 785              	.LFB164:
 276:lvgl/src/draw/sw/lv_draw_sw_line.c **** 
 277:lvgl/src/draw/sw/lv_draw_sw_line.c **** static void LV_ATTRIBUTE_FAST_MEM draw_line_skew(struct _lv_draw_ctx_t * draw_ctx, const lv_draw_li
 278:lvgl/src/draw/sw/lv_draw_sw_line.c ****                                                  const lv_point_t * point1, const lv_point_t * poin
 279:lvgl/src/draw/sw/lv_draw_sw_line.c **** {
 786              		.loc 1 279 1 view -0
 787              		.cfi_startproc
 788              		@ args = 0, pretend = 0, frame = 248
 789              		@ frame_needed = 0, uses_anonymous_args = 0
 790              		.loc 1 279 1 is_stmt 0 view .LVU281
 791 0000 2DE9F04F 		push	{r4, r5, r6, r7, r8, r9, r10, fp, lr}
 792              		.cfi_def_cfa_offset 36
 793              		.cfi_offset 4, -36
 794              		.cfi_offset 5, -32
 795              		.cfi_offset 6, -28
 796              		.cfi_offset 7, -24
 797              		.cfi_offset 8, -20
 798              		.cfi_offset 9, -16
 799              		.cfi_offset 10, -12
 800              		.cfi_offset 11, -8
 801              		.cfi_offset 14, -4
 802 0004 C1B0     		sub	sp, sp, #260
 803              		.cfi_def_cfa_offset 296
 804 0006 0390     		str	r0, [sp, #12]
 805 0008 0C46     		mov	r4, r1
 280:lvgl/src/draw/sw/lv_draw_sw_line.c **** #if LV_DRAW_COMPLEX
ARM GAS  C:\Users\OSD\AppData\Local\Temp\ccgzvg7d.s 			page 24


 281:lvgl/src/draw/sw/lv_draw_sw_line.c ****     /*Keep the great y in p1*/
 282:lvgl/src/draw/sw/lv_draw_sw_line.c ****     lv_point_t p1;
 806              		.loc 1 282 5 is_stmt 1 view .LVU282
 283:lvgl/src/draw/sw/lv_draw_sw_line.c ****     lv_point_t p2;
 807              		.loc 1 283 5 view .LVU283
 284:lvgl/src/draw/sw/lv_draw_sw_line.c ****     if(point1->y < point2->y) {
 808              		.loc 1 284 5 view .LVU284
 809              		.loc 1 284 14 is_stmt 0 view .LVU285
 810 000a B2F90210 		ldrsh	r1, [r2, #2]
 811              	.LVL84:
 812              		.loc 1 284 26 view .LVU286
 813 000e B3F90200 		ldrsh	r0, [r3, #2]
 814              	.LVL85:
 815              		.loc 1 284 7 view .LVU287
 816 0012 8142     		cmp	r1, r0
 817 0014 80F2D280 		bge	.L47
 285:lvgl/src/draw/sw/lv_draw_sw_line.c ****         p1.y = point1->y;
 818              		.loc 1 285 9 is_stmt 1 view .LVU288
 819              		.loc 1 285 14 is_stmt 0 view .LVU289
 820 0018 ADF8FE10 		strh	r1, [sp, #254]	@ movhi
 286:lvgl/src/draw/sw/lv_draw_sw_line.c ****         p2.y = point2->y;
 821              		.loc 1 286 9 is_stmt 1 view .LVU290
 822              		.loc 1 286 14 is_stmt 0 view .LVU291
 823 001c ADF8FA00 		strh	r0, [sp, #250]	@ movhi
 287:lvgl/src/draw/sw/lv_draw_sw_line.c ****         p1.x = point1->x;
 824              		.loc 1 287 9 is_stmt 1 view .LVU292
 825              		.loc 1 287 22 is_stmt 0 view .LVU293
 826 0020 B2F90020 		ldrsh	r2, [r2]
 827              	.LVL86:
 828              		.loc 1 287 14 view .LVU294
 829 0024 ADF8FC20 		strh	r2, [sp, #252]	@ movhi
 288:lvgl/src/draw/sw/lv_draw_sw_line.c ****         p2.x = point2->x;
 830              		.loc 1 288 9 is_stmt 1 view .LVU295
 831              		.loc 1 288 22 is_stmt 0 view .LVU296
 832 0028 B3F90030 		ldrsh	r3, [r3]
 833              	.LVL87:
 834              		.loc 1 288 14 view .LVU297
 835 002c ADF8F830 		strh	r3, [sp, #248]	@ movhi
 836              	.L48:
 289:lvgl/src/draw/sw/lv_draw_sw_line.c ****     }
 290:lvgl/src/draw/sw/lv_draw_sw_line.c ****     else {
 291:lvgl/src/draw/sw/lv_draw_sw_line.c ****         p1.y = point2->y;
 292:lvgl/src/draw/sw/lv_draw_sw_line.c ****         p2.y = point1->y;
 293:lvgl/src/draw/sw/lv_draw_sw_line.c ****         p1.x = point2->x;
 294:lvgl/src/draw/sw/lv_draw_sw_line.c ****         p2.x = point1->x;
 295:lvgl/src/draw/sw/lv_draw_sw_line.c ****     }
 296:lvgl/src/draw/sw/lv_draw_sw_line.c **** 
 297:lvgl/src/draw/sw/lv_draw_sw_line.c ****     int32_t xdiff = p2.x - p1.x;
 837              		.loc 1 297 5 is_stmt 1 view .LVU298
 838              		.loc 1 297 23 is_stmt 0 view .LVU299
 839 0030 BDF9F850 		ldrsh	r5, [sp, #248]
 840              		.loc 1 297 30 view .LVU300
 841 0034 BDF9FC60 		ldrsh	r6, [sp, #252]
 842              		.loc 1 297 13 view .LVU301
 843 0038 A5EB0609 		sub	r9, r5, r6
 844              	.LVL88:
 298:lvgl/src/draw/sw/lv_draw_sw_line.c ****     int32_t ydiff = p2.y - p1.y;
ARM GAS  C:\Users\OSD\AppData\Local\Temp\ccgzvg7d.s 			page 25


 845              		.loc 1 298 5 is_stmt 1 view .LVU302
 846              		.loc 1 298 23 is_stmt 0 view .LVU303
 847 003c BDF9FA70 		ldrsh	r7, [sp, #250]
 848              		.loc 1 298 30 view .LVU304
 849 0040 BDF9FE80 		ldrsh	r8, [sp, #254]
 850              		.loc 1 298 13 view .LVU305
 851 0044 A7EB0803 		sub	r3, r7, r8
 852 0048 0793     		str	r3, [sp, #28]
 853              	.LVL89:
 299:lvgl/src/draw/sw/lv_draw_sw_line.c ****     bool flat = LV_ABS(xdiff) > LV_ABS(ydiff) ? true : false;
 854              		.loc 1 299 5 is_stmt 1 view .LVU306
 855              		.loc 1 299 17 is_stmt 0 view .LVU307
 856 004a 89EAE97B 		eor	fp, r9, r9, asr #31
 857 004e ABEBE97B 		sub	fp, fp, r9, asr #31
 858              		.loc 1 299 33 view .LVU308
 859 0052 83EAE37A 		eor	r10, r3, r3, asr #31
 860 0056 AAEBE37A 		sub	r10, r10, r3, asr #31
 861              	.LVL90:
 300:lvgl/src/draw/sw/lv_draw_sw_line.c **** 
 301:lvgl/src/draw/sw/lv_draw_sw_line.c ****     static const uint8_t wcorr[] = {
 862              		.loc 1 301 5 is_stmt 1 view .LVU309
 302:lvgl/src/draw/sw/lv_draw_sw_line.c ****         128, 128, 128, 129, 129, 130, 130, 131,
 303:lvgl/src/draw/sw/lv_draw_sw_line.c ****         132, 133, 134, 135, 137, 138, 140, 141,
 304:lvgl/src/draw/sw/lv_draw_sw_line.c ****         143, 145, 147, 149, 151, 153, 155, 158,
 305:lvgl/src/draw/sw/lv_draw_sw_line.c ****         160, 162, 165, 167, 170, 173, 175, 178,
 306:lvgl/src/draw/sw/lv_draw_sw_line.c ****         181,
 307:lvgl/src/draw/sw/lv_draw_sw_line.c ****     };
 308:lvgl/src/draw/sw/lv_draw_sw_line.c **** 
 309:lvgl/src/draw/sw/lv_draw_sw_line.c ****     int32_t w = dsc->width;
 863              		.loc 1 309 5 view .LVU310
 864              		.loc 1 309 20 is_stmt 0 view .LVU311
 865 005a B4F90410 		ldrsh	r1, [r4, #4]
 866              	.LVL91:
 310:lvgl/src/draw/sw/lv_draw_sw_line.c ****     int32_t wcorr_i = 0;
 867              		.loc 1 310 5 is_stmt 1 view .LVU312
 311:lvgl/src/draw/sw/lv_draw_sw_line.c ****     if(flat) wcorr_i = (LV_ABS(ydiff) << 5) / LV_ABS(xdiff);
 868              		.loc 1 311 5 view .LVU313
 869              		.loc 1 311 7 is_stmt 0 view .LVU314
 870 005e D345     		cmp	fp, r10
 871 0060 40F3B980 		ble	.L49
 872              		.loc 1 311 14 is_stmt 1 discriminator 1 view .LVU315
 873              		.loc 1 311 39 is_stmt 0 discriminator 1 view .LVU316
 874 0064 4FEA4A12 		lsl	r2, r10, #5
 875              		.loc 1 311 22 discriminator 1 view .LVU317
 876 0068 92FBFBF2 		sdiv	r2, r2, fp
 877              	.LVL92:
 878              	.L50:
 312:lvgl/src/draw/sw/lv_draw_sw_line.c ****     else wcorr_i = (LV_ABS(xdiff) << 5) / LV_ABS(ydiff);
 313:lvgl/src/draw/sw/lv_draw_sw_line.c **** 
 314:lvgl/src/draw/sw/lv_draw_sw_line.c ****     w = (w * wcorr[wcorr_i] + 63) >> 7;     /*+ 63 for rounding*/
 879              		.loc 1 314 5 is_stmt 1 view .LVU318
 880              		.loc 1 314 19 is_stmt 0 view .LVU319
 881 006c C54B     		ldr	r3, .L76
 882              	.LVL93:
 883              		.loc 1 314 19 view .LVU320
 884 006e 9B5C     		ldrb	r3, [r3, r2]	@ zero_extendqisi2
 885              		.loc 1 314 12 view .LVU321
ARM GAS  C:\Users\OSD\AppData\Local\Temp\ccgzvg7d.s 			page 26


 886 0070 01FB03F3 		mul	r3, r1, r3
 887              		.loc 1 314 29 view .LVU322
 888 0074 3F33     		adds	r3, r3, #63
 889              	.LVL94:
 315:lvgl/src/draw/sw/lv_draw_sw_line.c ****     int32_t w_half0 = w >> 1;
 890              		.loc 1 315 5 is_stmt 1 view .LVU323
 891              		.loc 1 315 13 is_stmt 0 view .LVU324
 892 0076 1A12     		asrs	r2, r3, #8
 893              	.LVL95:
 894              		.loc 1 315 13 view .LVU325
 895 0078 0492     		str	r2, [sp, #16]
 896              	.LVL96:
 316:lvgl/src/draw/sw/lv_draw_sw_line.c ****     int32_t w_half1 = w_half0 + (w & 0x1); /*Compensate rounding error*/
 897              		.loc 1 316 5 is_stmt 1 view .LVU326
 898              		.loc 1 316 36 is_stmt 0 view .LVU327
 899 007a C3F3C012 		ubfx	r2, r3, #7, #1
 900              	.LVL97:
 901              		.loc 1 316 13 view .LVU328
 902 007e 02EB2321 		add	r1, r2, r3, asr #8
 903 0082 0591     		str	r1, [sp, #20]
 904              	.LVL98:
 317:lvgl/src/draw/sw/lv_draw_sw_line.c **** 
 318:lvgl/src/draw/sw/lv_draw_sw_line.c ****     lv_area_t blend_area;
 905              		.loc 1 318 5 is_stmt 1 view .LVU329
 319:lvgl/src/draw/sw/lv_draw_sw_line.c ****     blend_area.x1 = LV_MIN(p1.x, p2.x) - w;
 906              		.loc 1 319 5 view .LVU330
 907              		.loc 1 319 21 is_stmt 0 view .LVU331
 908 0084 2A46     		mov	r2, r5
 909 0086 B542     		cmp	r5, r6
 910 0088 A8BF     		it	ge
 911 008a 3246     		movge	r2, r6
 912 008c 92B2     		uxth	r2, r2
 913              		.loc 1 319 40 view .LVU332
 914 008e C3F3CF13 		ubfx	r3, r3, #7, #16
 915              	.LVL99:
 916              		.loc 1 319 40 view .LVU333
 917 0092 D21A     		subs	r2, r2, r3
 918              		.loc 1 319 19 view .LVU334
 919 0094 ADF8F020 		strh	r2, [sp, #240]	@ movhi
 320:lvgl/src/draw/sw/lv_draw_sw_line.c ****     blend_area.x2 = LV_MAX(p1.x, p2.x) + w;
 920              		.loc 1 320 5 is_stmt 1 view .LVU335
 921              		.loc 1 320 21 is_stmt 0 view .LVU336
 922 0098 2A46     		mov	r2, r5
 923 009a B542     		cmp	r5, r6
 924 009c B8BF     		it	lt
 925 009e 3246     		movlt	r2, r6
 926              		.loc 1 320 40 view .LVU337
 927 00a0 13FA82F2 		uxtah	r2, r3, r2
 928              		.loc 1 320 19 view .LVU338
 929 00a4 ADF8F420 		strh	r2, [sp, #244]	@ movhi
 321:lvgl/src/draw/sw/lv_draw_sw_line.c ****     blend_area.y1 = LV_MIN(p1.y, p2.y) - w;
 930              		.loc 1 321 5 is_stmt 1 view .LVU339
 931              		.loc 1 321 21 is_stmt 0 view .LVU340
 932 00a8 3A46     		mov	r2, r7
 933 00aa 4745     		cmp	r7, r8
 934 00ac A8BF     		it	ge
 935 00ae 4246     		movge	r2, r8
ARM GAS  C:\Users\OSD\AppData\Local\Temp\ccgzvg7d.s 			page 27


 936 00b0 92B2     		uxth	r2, r2
 937              		.loc 1 321 40 view .LVU341
 938 00b2 D21A     		subs	r2, r2, r3
 939              		.loc 1 321 19 view .LVU342
 940 00b4 ADF8F220 		strh	r2, [sp, #242]	@ movhi
 322:lvgl/src/draw/sw/lv_draw_sw_line.c ****     blend_area.y2 = LV_MAX(p1.y, p2.y) + w;
 941              		.loc 1 322 5 is_stmt 1 view .LVU343
 942              		.loc 1 322 21 is_stmt 0 view .LVU344
 943 00b8 3A46     		mov	r2, r7
 944 00ba 4745     		cmp	r7, r8
 945 00bc B8BF     		it	lt
 946 00be 4246     		movlt	r2, r8
 947              		.loc 1 322 40 view .LVU345
 948 00c0 13FA82F3 		uxtah	r3, r3, r2
 949              		.loc 1 322 19 view .LVU346
 950 00c4 ADF8F630 		strh	r3, [sp, #246]	@ movhi
 323:lvgl/src/draw/sw/lv_draw_sw_line.c **** 
 324:lvgl/src/draw/sw/lv_draw_sw_line.c ****     /*Get the union of `coords` and `clip`*/
 325:lvgl/src/draw/sw/lv_draw_sw_line.c ****     /*`clip` is already truncated to the `draw_buf` size
 326:lvgl/src/draw/sw/lv_draw_sw_line.c ****      *in 'lv_refr_area' function*/
 327:lvgl/src/draw/sw/lv_draw_sw_line.c ****     bool is_common = _lv_area_intersect(&blend_area, &blend_area, draw_ctx->clip_area);
 951              		.loc 1 327 5 is_stmt 1 view .LVU347
 952              		.loc 1 327 22 is_stmt 0 view .LVU348
 953 00c8 039B     		ldr	r3, [sp, #12]
 954 00ca 9A68     		ldr	r2, [r3, #8]
 955 00cc 3CAB     		add	r3, sp, #240
 956 00ce 1946     		mov	r1, r3
 957              	.LVL100:
 958              		.loc 1 327 22 view .LVU349
 959 00d0 1846     		mov	r0, r3
 960 00d2 FFF7FEFF 		bl	_lv_area_intersect
 961              	.LVL101:
 328:lvgl/src/draw/sw/lv_draw_sw_line.c ****     if(is_common == false) return;
 962              		.loc 1 328 5 is_stmt 1 view .LVU350
 963              		.loc 1 328 7 is_stmt 0 view .LVU351
 964 00d6 0028     		cmp	r0, #0
 965 00d8 00F05181 		beq	.L46
 329:lvgl/src/draw/sw/lv_draw_sw_line.c **** 
 330:lvgl/src/draw/sw/lv_draw_sw_line.c ****     lv_draw_mask_line_param_t mask_left_param;
 966              		.loc 1 330 5 is_stmt 1 view .LVU352
 331:lvgl/src/draw/sw/lv_draw_sw_line.c ****     lv_draw_mask_line_param_t mask_right_param;
 967              		.loc 1 331 5 view .LVU353
 332:lvgl/src/draw/sw/lv_draw_sw_line.c ****     lv_draw_mask_line_param_t mask_top_param;
 968              		.loc 1 332 5 view .LVU354
 333:lvgl/src/draw/sw/lv_draw_sw_line.c ****     lv_draw_mask_line_param_t mask_bottom_param;
 969              		.loc 1 333 5 view .LVU355
 334:lvgl/src/draw/sw/lv_draw_sw_line.c **** 
 335:lvgl/src/draw/sw/lv_draw_sw_line.c ****     if(flat) {
 970              		.loc 1 335 5 view .LVU356
 971              		.loc 1 335 7 is_stmt 0 view .LVU357
 972 00dc D345     		cmp	fp, r10
 973 00de 40F3A480 		ble	.L53
 336:lvgl/src/draw/sw/lv_draw_sw_line.c ****         if(xdiff > 0) {
 974              		.loc 1 336 9 is_stmt 1 view .LVU358
 975              		.loc 1 336 11 is_stmt 0 view .LVU359
 976 00e2 B9F1000F 		cmp	r9, #0
 977 00e6 7BDD     		ble	.L54
ARM GAS  C:\Users\OSD\AppData\Local\Temp\ccgzvg7d.s 			page 28


 337:lvgl/src/draw/sw/lv_draw_sw_line.c ****             lv_draw_mask_line_points_init(&mask_left_param, p1.x, p1.y - w_half0, p2.x, p2.y - w_ha
 978              		.loc 1 337 13 is_stmt 1 view .LVU360
 979              		.loc 1 337 69 is_stmt 0 view .LVU361
 980 00e8 1FFA88FB 		uxth	fp, r8
 981              	.LVL102:
 982              		.loc 1 337 72 view .LVU362
 983 00ec BDF81030 		ldrh	r3, [sp, #16]
 984 00f0 ABEB0302 		sub	r2, fp, r3
 985              		.loc 1 337 91 view .LVU363
 986 00f4 1FFA87FA 		uxth	r10, r7
 987              	.LVL103:
 988              		.loc 1 337 94 view .LVU364
 989 00f8 AAEB0303 		sub	r3, r10, r3
 990              		.loc 1 337 13 view .LVU365
 991 00fc 0021     		movs	r1, #0
 992 00fe 0191     		str	r1, [sp, #4]
 993 0100 1BB2     		sxth	r3, r3
 994 0102 0093     		str	r3, [sp]
 995 0104 2B46     		mov	r3, r5
 996 0106 12B2     		sxth	r2, r2
 997 0108 3146     		mov	r1, r6
 998 010a 31A8     		add	r0, sp, #196
 999              	.LVL104:
 1000              		.loc 1 337 13 view .LVU366
 1001 010c FFF7FEFF 		bl	lv_draw_mask_line_points_init
 1002              	.LVL105:
 338:lvgl/src/draw/sw/lv_draw_sw_line.c ****                                           LV_DRAW_MASK_LINE_SIDE_LEFT);
 339:lvgl/src/draw/sw/lv_draw_sw_line.c ****             lv_draw_mask_line_points_init(&mask_right_param, p1.x, p1.y + w_half1, p2.x, p2.y + w_h
 1003              		.loc 1 339 13 is_stmt 1 view .LVU367
 1004              		.loc 1 339 73 is_stmt 0 view .LVU368
 1005 0110 BDF81430 		ldrh	r3, [sp, #20]
 1006 0114 0BEB0302 		add	r2, fp, r3
 1007              		.loc 1 339 95 view .LVU369
 1008 0118 9A44     		add	r10, r10, r3
 1009              		.loc 1 339 13 view .LVU370
 1010 011a 0123     		movs	r3, #1
 1011 011c 0193     		str	r3, [sp, #4]
 1012 011e 0FFA8AF3 		sxth	r3, r10
 1013 0122 0093     		str	r3, [sp]
 1014 0124 2B46     		mov	r3, r5
 1015 0126 12B2     		sxth	r2, r2
 1016 0128 3146     		mov	r1, r6
 1017 012a 26A8     		add	r0, sp, #152
 1018 012c FFF7FEFF 		bl	lv_draw_mask_line_points_init
 1019              	.LVL106:
 1020              	.L55:
 340:lvgl/src/draw/sw/lv_draw_sw_line.c ****                                           LV_DRAW_MASK_LINE_SIDE_RIGHT);
 341:lvgl/src/draw/sw/lv_draw_sw_line.c ****         }
 342:lvgl/src/draw/sw/lv_draw_sw_line.c ****         else {
 343:lvgl/src/draw/sw/lv_draw_sw_line.c ****             lv_draw_mask_line_points_init(&mask_left_param, p1.x, p1.y + w_half1, p2.x, p2.y + w_ha
 344:lvgl/src/draw/sw/lv_draw_sw_line.c ****                                           LV_DRAW_MASK_LINE_SIDE_LEFT);
 345:lvgl/src/draw/sw/lv_draw_sw_line.c ****             lv_draw_mask_line_points_init(&mask_right_param, p1.x, p1.y - w_half0, p2.x, p2.y - w_h
 346:lvgl/src/draw/sw/lv_draw_sw_line.c ****                                           LV_DRAW_MASK_LINE_SIDE_RIGHT);
 347:lvgl/src/draw/sw/lv_draw_sw_line.c ****         }
 348:lvgl/src/draw/sw/lv_draw_sw_line.c ****     }
 349:lvgl/src/draw/sw/lv_draw_sw_line.c ****     else {
 350:lvgl/src/draw/sw/lv_draw_sw_line.c ****         lv_draw_mask_line_points_init(&mask_left_param, p1.x + w_half1, p1.y, p2.x + w_half1, p2.y,
ARM GAS  C:\Users\OSD\AppData\Local\Temp\ccgzvg7d.s 			page 29


 351:lvgl/src/draw/sw/lv_draw_sw_line.c ****                                       LV_DRAW_MASK_LINE_SIDE_LEFT);
 352:lvgl/src/draw/sw/lv_draw_sw_line.c ****         lv_draw_mask_line_points_init(&mask_right_param, p1.x - w_half0, p1.y, p2.x - w_half0, p2.y
 353:lvgl/src/draw/sw/lv_draw_sw_line.c ****                                       LV_DRAW_MASK_LINE_SIDE_RIGHT);
 354:lvgl/src/draw/sw/lv_draw_sw_line.c ****     }
 355:lvgl/src/draw/sw/lv_draw_sw_line.c **** 
 356:lvgl/src/draw/sw/lv_draw_sw_line.c ****     /*Use the normal vector for the endings*/
 357:lvgl/src/draw/sw/lv_draw_sw_line.c **** 
 358:lvgl/src/draw/sw/lv_draw_sw_line.c ****     int16_t mask_left_id = lv_draw_mask_add(&mask_left_param, NULL);
 1021              		.loc 1 358 5 is_stmt 1 view .LVU371
 1022              		.loc 1 358 28 is_stmt 0 view .LVU372
 1023 0130 0021     		movs	r1, #0
 1024 0132 31A8     		add	r0, sp, #196
 1025 0134 FFF7FEFF 		bl	lv_draw_mask_add
 1026              	.LVL107:
 1027 0138 0590     		str	r0, [sp, #20]
 1028              	.LVL108:
 359:lvgl/src/draw/sw/lv_draw_sw_line.c ****     int16_t mask_right_id = lv_draw_mask_add(&mask_right_param, NULL);
 1029              		.loc 1 359 5 is_stmt 1 view .LVU373
 1030              		.loc 1 359 29 is_stmt 0 view .LVU374
 1031 013a 0021     		movs	r1, #0
 1032 013c 26A8     		add	r0, sp, #152
 1033 013e FFF7FEFF 		bl	lv_draw_mask_add
 1034              	.LVL109:
 1035 0142 0690     		str	r0, [sp, #24]
 1036              	.LVL110:
 360:lvgl/src/draw/sw/lv_draw_sw_line.c ****     int16_t mask_top_id = LV_MASK_ID_INV;
 1037              		.loc 1 360 5 is_stmt 1 view .LVU375
 361:lvgl/src/draw/sw/lv_draw_sw_line.c ****     int16_t mask_bottom_id = LV_MASK_ID_INV;
 1038              		.loc 1 361 5 view .LVU376
 362:lvgl/src/draw/sw/lv_draw_sw_line.c **** 
 363:lvgl/src/draw/sw/lv_draw_sw_line.c ****     if(!dsc->raw_end) {
 1039              		.loc 1 363 5 view .LVU377
 1040              		.loc 1 363 8 is_stmt 0 view .LVU378
 1041 0144 E37A     		ldrb	r3, [r4, #11]	@ zero_extendqisi2
 1042              		.loc 1 363 7 view .LVU379
 1043 0146 13F0100F 		tst	r3, #16
 1044 014a 00F09080 		beq	.L68
 361:lvgl/src/draw/sw/lv_draw_sw_line.c ****     int16_t mask_bottom_id = LV_MASK_ID_INV;
 1045              		.loc 1 361 13 view .LVU380
 1046 014e 4FF0FF3B 		mov	fp, #-1
 360:lvgl/src/draw/sw/lv_draw_sw_line.c ****     int16_t mask_bottom_id = LV_MASK_ID_INV;
 1047              		.loc 1 360 13 view .LVU381
 1048 0152 CDF810B0 		str	fp, [sp, #16]
 1049              	.LVL111:
 1050              	.L56:
 364:lvgl/src/draw/sw/lv_draw_sw_line.c ****         lv_draw_mask_line_points_init(&mask_top_param, p1.x, p1.y, p1.x - ydiff, p1.y + xdiff, LV_D
 365:lvgl/src/draw/sw/lv_draw_sw_line.c ****         lv_draw_mask_line_points_init(&mask_bottom_param, p2.x, p2.y, p2.x - ydiff, p2.y + xdiff,  
 366:lvgl/src/draw/sw/lv_draw_sw_line.c ****         mask_top_id = lv_draw_mask_add(&mask_top_param, NULL);
 367:lvgl/src/draw/sw/lv_draw_sw_line.c ****         mask_bottom_id = lv_draw_mask_add(&mask_bottom_param, NULL);
 368:lvgl/src/draw/sw/lv_draw_sw_line.c ****     }
 369:lvgl/src/draw/sw/lv_draw_sw_line.c **** 
 370:lvgl/src/draw/sw/lv_draw_sw_line.c ****     /*The real draw area is around the line.
 371:lvgl/src/draw/sw/lv_draw_sw_line.c ****      *It's easy to calculate with steep lines, but the area can be very wide with very flat lines.
 372:lvgl/src/draw/sw/lv_draw_sw_line.c ****      *So deal with it only with steep lines.*/
 373:lvgl/src/draw/sw/lv_draw_sw_line.c ****     int32_t draw_area_w = lv_area_get_width(&blend_area);
 1051              		.loc 1 373 5 is_stmt 1 view .LVU382
 1052              	.LBB22:
ARM GAS  C:\Users\OSD\AppData\Local\Temp\ccgzvg7d.s 			page 30


 1053              	.LBI22:
 123:lvgl/src/draw/sw/../../misc/lv_area.h **** {
 1054              		.loc 2 123 26 view .LVU383
 1055              	.LBB23:
 1056              		.loc 2 125 5 view .LVU384
 1057              		.loc 2 125 31 is_stmt 0 view .LVU385
 1058 0156 BDF8F450 		ldrh	r5, [sp, #244]
 1059              	.LVL112:
 1060              		.loc 2 125 44 view .LVU386
 1061 015a BDF8F030 		ldrh	r3, [sp, #240]
 1062              		.loc 2 125 36 view .LVU387
 1063 015e ED1A     		subs	r5, r5, r3
 1064 0160 ADB2     		uxth	r5, r5
 1065              		.loc 2 125 49 view .LVU388
 1066 0162 0135     		adds	r5, r5, #1
 1067              		.loc 2 125 12 view .LVU389
 1068 0164 2DB2     		sxth	r5, r5
 1069              	.LVL113:
 1070              		.loc 2 125 12 view .LVU390
 1071              	.LBE23:
 1072              	.LBE22:
 374:lvgl/src/draw/sw/lv_draw_sw_line.c **** 
 375:lvgl/src/draw/sw/lv_draw_sw_line.c ****     /*Draw the background line by line*/
 376:lvgl/src/draw/sw/lv_draw_sw_line.c ****     int32_t h;
 1073              		.loc 1 376 5 is_stmt 1 view .LVU391
 377:lvgl/src/draw/sw/lv_draw_sw_line.c ****     uint32_t hor_res = (uint32_t)lv_disp_get_hor_res(_lv_refr_get_disp_refreshing());
 1074              		.loc 1 377 5 view .LVU392
 1075              		.loc 1 377 34 is_stmt 0 view .LVU393
 1076 0166 FFF7FEFF 		bl	_lv_refr_get_disp_refreshing
 1077              	.LVL114:
 1078 016a FFF7FEFF 		bl	lv_disp_get_hor_res
 1079              	.LVL115:
 1080 016e 0646     		mov	r6, r0
 1081              	.LVL116:
 1082              		.loc 1 377 14 view .LVU394
 1083 0170 8146     		mov	r9, r0
 1084              	.LVL117:
 378:lvgl/src/draw/sw/lv_draw_sw_line.c ****     size_t mask_buf_size = LV_MIN(lv_area_get_size(&blend_area), hor_res);
 1085              		.loc 1 378 5 is_stmt 1 view .LVU395
 1086              		.loc 1 378 28 is_stmt 0 view .LVU396
 1087 0172 3CA8     		add	r0, sp, #240
 1088              	.LVL118:
 1089              		.loc 1 378 28 view .LVU397
 1090 0174 FFF7FEFF 		bl	lv_area_get_size
 1091              	.LVL119:
 1092 0178 B042     		cmp	r0, r6
 1093 017a C0F0A680 		bcc	.L69
 1094              	.L57:
 1095              	.LVL120:
 379:lvgl/src/draw/sw/lv_draw_sw_line.c ****     lv_opa_t * mask_buf = lv_mem_buf_get(mask_buf_size);
 1096              		.loc 1 379 5 is_stmt 1 discriminator 4 view .LVU398
 1097              		.loc 1 379 27 is_stmt 0 discriminator 4 view .LVU399
 1098 017e 4846     		mov	r0, r9
 1099 0180 FFF7FEFF 		bl	lv_mem_buf_get
 1100              	.LVL121:
 1101 0184 8046     		mov	r8, r0
 1102              	.LVL122:
ARM GAS  C:\Users\OSD\AppData\Local\Temp\ccgzvg7d.s 			page 31


 380:lvgl/src/draw/sw/lv_draw_sw_line.c **** 
 381:lvgl/src/draw/sw/lv_draw_sw_line.c ****     lv_coord_t y2 = blend_area.y2;
 1103              		.loc 1 381 5 is_stmt 1 discriminator 4 view .LVU400
 1104              		.loc 1 381 16 is_stmt 0 discriminator 4 view .LVU401
 1105 0186 BDF9F6A0 		ldrsh	r10, [sp, #246]
 1106              	.LVL123:
 382:lvgl/src/draw/sw/lv_draw_sw_line.c ****     blend_area.y2 = blend_area.y1;
 1107              		.loc 1 382 5 is_stmt 1 discriminator 4 view .LVU402
 1108              		.loc 1 382 31 is_stmt 0 discriminator 4 view .LVU403
 1109 018a BDF9F230 		ldrsh	r3, [sp, #242]
 1110              		.loc 1 382 19 discriminator 4 view .LVU404
 1111 018e ADF8F630 		strh	r3, [sp, #246]	@ movhi
 383:lvgl/src/draw/sw/lv_draw_sw_line.c **** 
 384:lvgl/src/draw/sw/lv_draw_sw_line.c ****     uint32_t mask_p = 0;
 1112              		.loc 1 384 5 is_stmt 1 discriminator 4 view .LVU405
 1113              	.LVL124:
 385:lvgl/src/draw/sw/lv_draw_sw_line.c ****     lv_memset_ff(mask_buf, mask_buf_size);
 1114              		.loc 1 385 5 discriminator 4 view .LVU406
 1115 0192 4946     		mov	r1, r9
 1116 0194 FFF7FEFF 		bl	lv_memset_ff
 1117              	.LVL125:
 386:lvgl/src/draw/sw/lv_draw_sw_line.c **** 
 387:lvgl/src/draw/sw/lv_draw_sw_line.c ****     lv_draw_sw_blend_dsc_t blend_dsc;
 1118              		.loc 1 387 5 discriminator 4 view .LVU407
 388:lvgl/src/draw/sw/lv_draw_sw_line.c ****     lv_memset_00(&blend_dsc, sizeof(blend_dsc));
 1119              		.loc 1 388 5 discriminator 4 view .LVU408
 1120 0198 1C21     		movs	r1, #28
 1121 019a 09A8     		add	r0, sp, #36
 1122 019c FFF7FEFF 		bl	lv_memset_00
 1123              	.LVL126:
 389:lvgl/src/draw/sw/lv_draw_sw_line.c ****     blend_dsc.blend_area = &blend_area;
 1124              		.loc 1 389 5 discriminator 4 view .LVU409
 1125              		.loc 1 389 26 is_stmt 0 discriminator 4 view .LVU410
 1126 01a0 3CAB     		add	r3, sp, #240
 1127 01a2 0993     		str	r3, [sp, #36]
 390:lvgl/src/draw/sw/lv_draw_sw_line.c ****     blend_dsc.color = dsc->color;
 1128              		.loc 1 390 5 is_stmt 1 discriminator 4 view .LVU411
 1129              		.loc 1 390 21 is_stmt 0 discriminator 4 view .LVU412
 1130 01a4 2268     		ldr	r2, [r4]
 1131 01a6 0B92     		str	r2, [sp, #44]
 391:lvgl/src/draw/sw/lv_draw_sw_line.c ****     blend_dsc.opa = dsc->opa;
 1132              		.loc 1 391 5 is_stmt 1 discriminator 4 view .LVU413
 1133              		.loc 1 391 24 is_stmt 0 discriminator 4 view .LVU414
 1134 01a8 A27A     		ldrb	r2, [r4, #10]	@ zero_extendqisi2
 1135              		.loc 1 391 19 discriminator 4 view .LVU415
 1136 01aa 8DF83C20 		strb	r2, [sp, #60]
 392:lvgl/src/draw/sw/lv_draw_sw_line.c ****     blend_dsc.mask_buf = mask_buf;
 1137              		.loc 1 392 5 is_stmt 1 discriminator 4 view .LVU416
 1138              		.loc 1 392 24 is_stmt 0 discriminator 4 view .LVU417
 1139 01ae CDF83080 		str	r8, [sp, #48]
 393:lvgl/src/draw/sw/lv_draw_sw_line.c ****     blend_dsc.mask_area = &blend_area;
 1140              		.loc 1 393 5 is_stmt 1 discriminator 4 view .LVU418
 1141              		.loc 1 393 25 is_stmt 0 discriminator 4 view .LVU419
 1142 01b2 0E93     		str	r3, [sp, #56]
 394:lvgl/src/draw/sw/lv_draw_sw_line.c **** 
 395:lvgl/src/draw/sw/lv_draw_sw_line.c ****     /*Fill the first row with 'color'*/
 396:lvgl/src/draw/sw/lv_draw_sw_line.c ****     for(h = blend_area.y1; h <= y2; h++) {
ARM GAS  C:\Users\OSD\AppData\Local\Temp\ccgzvg7d.s 			page 32


 1143              		.loc 1 396 5 is_stmt 1 discriminator 4 view .LVU420
 1144              		.loc 1 396 23 is_stmt 0 discriminator 4 view .LVU421
 1145 01b4 BDF9F260 		ldrsh	r6, [sp, #242]
 1146              	.LVL127:
 384:lvgl/src/draw/sw/lv_draw_sw_line.c ****     lv_memset_ff(mask_buf, mask_buf_size);
 1147              		.loc 1 384 14 discriminator 4 view .LVU422
 1148 01b8 0024     		movs	r4, #0
 1149              	.LVL128:
 1150              		.loc 1 396 5 discriminator 4 view .LVU423
 1151 01ba 96E0     		b	.L58
 1152              	.LVL129:
 1153              	.L47:
 291:lvgl/src/draw/sw/lv_draw_sw_line.c ****         p2.y = point1->y;
 1154              		.loc 1 291 9 is_stmt 1 view .LVU424
 291:lvgl/src/draw/sw/lv_draw_sw_line.c ****         p2.y = point1->y;
 1155              		.loc 1 291 14 is_stmt 0 view .LVU425
 1156 01bc ADF8FE00 		strh	r0, [sp, #254]	@ movhi
 292:lvgl/src/draw/sw/lv_draw_sw_line.c ****         p1.x = point2->x;
 1157              		.loc 1 292 9 is_stmt 1 view .LVU426
 292:lvgl/src/draw/sw/lv_draw_sw_line.c ****         p1.x = point2->x;
 1158              		.loc 1 292 14 is_stmt 0 view .LVU427
 1159 01c0 ADF8FA10 		strh	r1, [sp, #250]	@ movhi
 293:lvgl/src/draw/sw/lv_draw_sw_line.c ****         p2.x = point1->x;
 1160              		.loc 1 293 9 is_stmt 1 view .LVU428
 293:lvgl/src/draw/sw/lv_draw_sw_line.c ****         p2.x = point1->x;
 1161              		.loc 1 293 22 is_stmt 0 view .LVU429
 1162 01c4 B3F90030 		ldrsh	r3, [r3]
 1163              	.LVL130:
 293:lvgl/src/draw/sw/lv_draw_sw_line.c ****         p2.x = point1->x;
 1164              		.loc 1 293 14 view .LVU430
 1165 01c8 ADF8FC30 		strh	r3, [sp, #252]	@ movhi
 294:lvgl/src/draw/sw/lv_draw_sw_line.c ****     }
 1166              		.loc 1 294 9 is_stmt 1 view .LVU431
 294:lvgl/src/draw/sw/lv_draw_sw_line.c ****     }
 1167              		.loc 1 294 22 is_stmt 0 view .LVU432
 1168 01cc B2F90030 		ldrsh	r3, [r2]
 294:lvgl/src/draw/sw/lv_draw_sw_line.c ****     }
 1169              		.loc 1 294 14 view .LVU433
 1170 01d0 ADF8F830 		strh	r3, [sp, #248]	@ movhi
 1171 01d4 2CE7     		b	.L48
 1172              	.LVL131:
 1173              	.L49:
 312:lvgl/src/draw/sw/lv_draw_sw_line.c **** 
 1174              		.loc 1 312 10 is_stmt 1 view .LVU434
 312:lvgl/src/draw/sw/lv_draw_sw_line.c **** 
 1175              		.loc 1 312 35 is_stmt 0 view .LVU435
 1176 01d6 4FEA4B12 		lsl	r2, fp, #5
 312:lvgl/src/draw/sw/lv_draw_sw_line.c **** 
 1177              		.loc 1 312 18 view .LVU436
 1178 01da 92FBFAF2 		sdiv	r2, r2, r10
 1179              	.LVL132:
 312:lvgl/src/draw/sw/lv_draw_sw_line.c **** 
 1180              		.loc 1 312 18 view .LVU437
 1181 01de 45E7     		b	.L50
 1182              	.LVL133:
 1183              	.L54:
 343:lvgl/src/draw/sw/lv_draw_sw_line.c ****                                           LV_DRAW_MASK_LINE_SIDE_LEFT);
ARM GAS  C:\Users\OSD\AppData\Local\Temp\ccgzvg7d.s 			page 33


 1184              		.loc 1 343 13 is_stmt 1 view .LVU438
 343:lvgl/src/draw/sw/lv_draw_sw_line.c ****                                           LV_DRAW_MASK_LINE_SIDE_LEFT);
 1185              		.loc 1 343 69 is_stmt 0 view .LVU439
 1186 01e0 1FFA88FB 		uxth	fp, r8
 1187              	.LVL134:
 343:lvgl/src/draw/sw/lv_draw_sw_line.c ****                                           LV_DRAW_MASK_LINE_SIDE_LEFT);
 1188              		.loc 1 343 72 view .LVU440
 1189 01e4 BDF81430 		ldrh	r3, [sp, #20]
 1190 01e8 0BEB0302 		add	r2, fp, r3
 343:lvgl/src/draw/sw/lv_draw_sw_line.c ****                                           LV_DRAW_MASK_LINE_SIDE_LEFT);
 1191              		.loc 1 343 91 view .LVU441
 1192 01ec 1FFA87FA 		uxth	r10, r7
 1193              	.LVL135:
 343:lvgl/src/draw/sw/lv_draw_sw_line.c ****                                           LV_DRAW_MASK_LINE_SIDE_LEFT);
 1194              		.loc 1 343 94 view .LVU442
 1195 01f0 5344     		add	r3, r3, r10
 343:lvgl/src/draw/sw/lv_draw_sw_line.c ****                                           LV_DRAW_MASK_LINE_SIDE_LEFT);
 1196              		.loc 1 343 13 view .LVU443
 1197 01f2 0021     		movs	r1, #0
 1198 01f4 0191     		str	r1, [sp, #4]
 1199 01f6 1BB2     		sxth	r3, r3
 1200 01f8 0093     		str	r3, [sp]
 1201 01fa 2B46     		mov	r3, r5
 1202 01fc 12B2     		sxth	r2, r2
 1203 01fe 3146     		mov	r1, r6
 1204 0200 31A8     		add	r0, sp, #196
 1205              	.LVL136:
 343:lvgl/src/draw/sw/lv_draw_sw_line.c ****                                           LV_DRAW_MASK_LINE_SIDE_LEFT);
 1206              		.loc 1 343 13 view .LVU444
 1207 0202 FFF7FEFF 		bl	lv_draw_mask_line_points_init
 1208              	.LVL137:
 345:lvgl/src/draw/sw/lv_draw_sw_line.c ****                                           LV_DRAW_MASK_LINE_SIDE_RIGHT);
 1209              		.loc 1 345 13 is_stmt 1 view .LVU445
 345:lvgl/src/draw/sw/lv_draw_sw_line.c ****                                           LV_DRAW_MASK_LINE_SIDE_RIGHT);
 1210              		.loc 1 345 73 is_stmt 0 view .LVU446
 1211 0206 BDF81030 		ldrh	r3, [sp, #16]
 1212 020a ABEB0302 		sub	r2, fp, r3
 345:lvgl/src/draw/sw/lv_draw_sw_line.c ****                                           LV_DRAW_MASK_LINE_SIDE_RIGHT);
 1213              		.loc 1 345 95 view .LVU447
 1214 020e AAEB030A 		sub	r10, r10, r3
 345:lvgl/src/draw/sw/lv_draw_sw_line.c ****                                           LV_DRAW_MASK_LINE_SIDE_RIGHT);
 1215              		.loc 1 345 13 view .LVU448
 1216 0212 0123     		movs	r3, #1
 1217 0214 0193     		str	r3, [sp, #4]
 1218 0216 0FFA8AF3 		sxth	r3, r10
 1219 021a 0093     		str	r3, [sp]
 1220 021c 2B46     		mov	r3, r5
 1221 021e 12B2     		sxth	r2, r2
 1222 0220 3146     		mov	r1, r6
 1223 0222 26A8     		add	r0, sp, #152
 1224 0224 FFF7FEFF 		bl	lv_draw_mask_line_points_init
 1225              	.LVL138:
 1226 0228 82E7     		b	.L55
 1227              	.LVL139:
 1228              	.L53:
 350:lvgl/src/draw/sw/lv_draw_sw_line.c ****                                       LV_DRAW_MASK_LINE_SIDE_LEFT);
 1229              		.loc 1 350 9 is_stmt 1 view .LVU449
ARM GAS  C:\Users\OSD\AppData\Local\Temp\ccgzvg7d.s 			page 34


 350:lvgl/src/draw/sw/lv_draw_sw_line.c ****                                       LV_DRAW_MASK_LINE_SIDE_LEFT);
 1230              		.loc 1 350 59 is_stmt 0 view .LVU450
 1231 022a 1FFA86FB 		uxth	fp, r6
 1232              	.LVL140:
 350:lvgl/src/draw/sw/lv_draw_sw_line.c ****                                       LV_DRAW_MASK_LINE_SIDE_LEFT);
 1233              		.loc 1 350 62 view .LVU451
 1234 022e BDF81430 		ldrh	r3, [sp, #20]
 1235 0232 0BEB0301 		add	r1, fp, r3
 350:lvgl/src/draw/sw/lv_draw_sw_line.c ****                                       LV_DRAW_MASK_LINE_SIDE_LEFT);
 1236              		.loc 1 350 81 view .LVU452
 1237 0236 1FFA85FA 		uxth	r10, r5
 1238              	.LVL141:
 350:lvgl/src/draw/sw/lv_draw_sw_line.c ****                                       LV_DRAW_MASK_LINE_SIDE_LEFT);
 1239              		.loc 1 350 84 view .LVU453
 1240 023a 5344     		add	r3, r3, r10
 350:lvgl/src/draw/sw/lv_draw_sw_line.c ****                                       LV_DRAW_MASK_LINE_SIDE_LEFT);
 1241              		.loc 1 350 9 view .LVU454
 1242 023c 0022     		movs	r2, #0
 1243 023e 0192     		str	r2, [sp, #4]
 1244 0240 0097     		str	r7, [sp]
 1245 0242 1BB2     		sxth	r3, r3
 1246 0244 4246     		mov	r2, r8
 1247 0246 09B2     		sxth	r1, r1
 1248 0248 31A8     		add	r0, sp, #196
 1249              	.LVL142:
 350:lvgl/src/draw/sw/lv_draw_sw_line.c ****                                       LV_DRAW_MASK_LINE_SIDE_LEFT);
 1250              		.loc 1 350 9 view .LVU455
 1251 024a FFF7FEFF 		bl	lv_draw_mask_line_points_init
 1252              	.LVL143:
 352:lvgl/src/draw/sw/lv_draw_sw_line.c ****                                       LV_DRAW_MASK_LINE_SIDE_RIGHT);
 1253              		.loc 1 352 9 is_stmt 1 view .LVU456
 352:lvgl/src/draw/sw/lv_draw_sw_line.c ****                                       LV_DRAW_MASK_LINE_SIDE_RIGHT);
 1254              		.loc 1 352 63 is_stmt 0 view .LVU457
 1255 024e BDF81030 		ldrh	r3, [sp, #16]
 1256 0252 ABEB0301 		sub	r1, fp, r3
 352:lvgl/src/draw/sw/lv_draw_sw_line.c ****                                       LV_DRAW_MASK_LINE_SIDE_RIGHT);
 1257              		.loc 1 352 85 view .LVU458
 1258 0256 AAEB0303 		sub	r3, r10, r3
 352:lvgl/src/draw/sw/lv_draw_sw_line.c ****                                       LV_DRAW_MASK_LINE_SIDE_RIGHT);
 1259              		.loc 1 352 9 view .LVU459
 1260 025a 0122     		movs	r2, #1
 1261 025c 0192     		str	r2, [sp, #4]
 1262 025e 0097     		str	r7, [sp]
 1263 0260 1BB2     		sxth	r3, r3
 1264 0262 4246     		mov	r2, r8
 1265 0264 09B2     		sxth	r1, r1
 1266 0266 26A8     		add	r0, sp, #152
 1267 0268 FFF7FEFF 		bl	lv_draw_mask_line_points_init
 1268              	.LVL144:
 1269 026c 60E7     		b	.L55
 1270              	.LVL145:
 1271              	.L68:
 364:lvgl/src/draw/sw/lv_draw_sw_line.c ****         lv_draw_mask_line_points_init(&mask_bottom_param, p2.x, p2.y, p2.x - ydiff, p2.y + xdiff,  
 1272              		.loc 1 364 9 is_stmt 1 view .LVU460
 364:lvgl/src/draw/sw/lv_draw_sw_line.c ****         lv_draw_mask_line_points_init(&mask_bottom_param, p2.x, p2.y, p2.x - ydiff, p2.y + xdiff,  
 1273              		.loc 1 364 70 is_stmt 0 view .LVU461
 1274 026e B3B2     		uxth	r3, r6
ARM GAS  C:\Users\OSD\AppData\Local\Temp\ccgzvg7d.s 			page 35


 364:lvgl/src/draw/sw/lv_draw_sw_line.c ****         lv_draw_mask_line_points_init(&mask_bottom_param, p2.x, p2.y, p2.x - ydiff, p2.y + xdiff,  
 1275              		.loc 1 364 73 view .LVU462
 1276 0270 BDF81CA0 		ldrh	r10, [sp, #28]
 1277 0274 A3EB0A03 		sub	r3, r3, r10
 364:lvgl/src/draw/sw/lv_draw_sw_line.c ****         lv_draw_mask_line_points_init(&mask_bottom_param, p2.x, p2.y, p2.x - ydiff, p2.y + xdiff,  
 1278              		.loc 1 364 87 view .LVU463
 1279 0278 1FFA89F9 		uxth	r9, r9
 1280              	.LVL146:
 364:lvgl/src/draw/sw/lv_draw_sw_line.c ****         lv_draw_mask_line_points_init(&mask_bottom_param, p2.x, p2.y, p2.x - ydiff, p2.y + xdiff,  
 1281              		.loc 1 364 87 view .LVU464
 1282 027c 19FA88F2 		uxtah	r2, r9, r8
 364:lvgl/src/draw/sw/lv_draw_sw_line.c ****         lv_draw_mask_line_points_init(&mask_bottom_param, p2.x, p2.y, p2.x - ydiff, p2.y + xdiff,  
 1283              		.loc 1 364 9 view .LVU465
 1284 0280 0321     		movs	r1, #3
 1285 0282 0191     		str	r1, [sp, #4]
 1286 0284 12B2     		sxth	r2, r2
 1287 0286 0092     		str	r2, [sp]
 1288 0288 1BB2     		sxth	r3, r3
 1289 028a 4246     		mov	r2, r8
 1290 028c 3146     		mov	r1, r6
 1291 028e 1BA8     		add	r0, sp, #108
 1292 0290 FFF7FEFF 		bl	lv_draw_mask_line_points_init
 1293              	.LVL147:
 365:lvgl/src/draw/sw/lv_draw_sw_line.c ****         mask_top_id = lv_draw_mask_add(&mask_top_param, NULL);
 1294              		.loc 1 365 9 is_stmt 1 view .LVU466
 365:lvgl/src/draw/sw/lv_draw_sw_line.c ****         mask_top_id = lv_draw_mask_add(&mask_top_param, NULL);
 1295              		.loc 1 365 73 is_stmt 0 view .LVU467
 1296 0294 ABB2     		uxth	r3, r5
 365:lvgl/src/draw/sw/lv_draw_sw_line.c ****         mask_top_id = lv_draw_mask_add(&mask_top_param, NULL);
 1297              		.loc 1 365 76 view .LVU468
 1298 0296 A3EB0A03 		sub	r3, r3, r10
 365:lvgl/src/draw/sw/lv_draw_sw_line.c ****         mask_top_id = lv_draw_mask_add(&mask_top_param, NULL);
 1299              		.loc 1 365 90 view .LVU469
 1300 029a 19FA87F9 		uxtah	r9, r9, r7
 365:lvgl/src/draw/sw/lv_draw_sw_line.c ****         mask_top_id = lv_draw_mask_add(&mask_top_param, NULL);
 1301              		.loc 1 365 9 view .LVU470
 1302 029e 0222     		movs	r2, #2
 1303 02a0 0192     		str	r2, [sp, #4]
 1304 02a2 0FFA89F2 		sxth	r2, r9
 1305 02a6 0092     		str	r2, [sp]
 1306 02a8 1BB2     		sxth	r3, r3
 1307 02aa 3A46     		mov	r2, r7
 1308 02ac 2946     		mov	r1, r5
 1309 02ae 10A8     		add	r0, sp, #64
 1310 02b0 FFF7FEFF 		bl	lv_draw_mask_line_points_init
 1311              	.LVL148:
 366:lvgl/src/draw/sw/lv_draw_sw_line.c ****         mask_bottom_id = lv_draw_mask_add(&mask_bottom_param, NULL);
 1312              		.loc 1 366 9 is_stmt 1 view .LVU471
 366:lvgl/src/draw/sw/lv_draw_sw_line.c ****         mask_bottom_id = lv_draw_mask_add(&mask_bottom_param, NULL);
 1313              		.loc 1 366 23 is_stmt 0 view .LVU472
 1314 02b4 0021     		movs	r1, #0
 1315 02b6 1BA8     		add	r0, sp, #108
 1316 02b8 FFF7FEFF 		bl	lv_draw_mask_add
 1317              	.LVL149:
 1318 02bc 0490     		str	r0, [sp, #16]
 1319              	.LVL150:
 367:lvgl/src/draw/sw/lv_draw_sw_line.c ****     }
ARM GAS  C:\Users\OSD\AppData\Local\Temp\ccgzvg7d.s 			page 36


 1320              		.loc 1 367 9 is_stmt 1 view .LVU473
 367:lvgl/src/draw/sw/lv_draw_sw_line.c ****     }
 1321              		.loc 1 367 26 is_stmt 0 view .LVU474
 1322 02be 0021     		movs	r1, #0
 1323 02c0 10A8     		add	r0, sp, #64
 1324 02c2 FFF7FEFF 		bl	lv_draw_mask_add
 1325              	.LVL151:
 1326 02c6 8346     		mov	fp, r0
 1327              	.LVL152:
 367:lvgl/src/draw/sw/lv_draw_sw_line.c ****     }
 1328              		.loc 1 367 26 view .LVU475
 1329 02c8 45E7     		b	.L56
 1330              	.LVL153:
 1331              	.L69:
 378:lvgl/src/draw/sw/lv_draw_sw_line.c ****     lv_opa_t * mask_buf = lv_mem_buf_get(mask_buf_size);
 1332              		.loc 1 378 28 discriminator 1 view .LVU476
 1333 02ca 3CA8     		add	r0, sp, #240
 1334 02cc FFF7FEFF 		bl	lv_area_get_size
 1335              	.LVL154:
 1336 02d0 8146     		mov	r9, r0
 1337 02d2 54E7     		b	.L57
 1338              	.LVL155:
 1339              	.L71:
 397:lvgl/src/draw/sw/lv_draw_sw_line.c ****         blend_dsc.mask_res = lv_draw_mask_apply(&mask_buf[mask_p], blend_area.x1, h, draw_area_w);
 398:lvgl/src/draw/sw/lv_draw_sw_line.c ****         if(blend_dsc.mask_res == LV_DRAW_MASK_RES_TRANSP) {
 399:lvgl/src/draw/sw/lv_draw_sw_line.c ****             lv_memset_00(&mask_buf[mask_p], draw_area_w);
 1340              		.loc 1 399 13 is_stmt 1 view .LVU477
 1341 02d4 2946     		mov	r1, r5
 1342 02d6 3846     		mov	r0, r7
 1343 02d8 FFF7FEFF 		bl	lv_memset_00
 1344              	.LVL156:
 1345 02dc 14E0     		b	.L59
 1346              	.L72:
 400:lvgl/src/draw/sw/lv_draw_sw_line.c ****         }
 401:lvgl/src/draw/sw/lv_draw_sw_line.c **** 
 402:lvgl/src/draw/sw/lv_draw_sw_line.c ****         mask_p += draw_area_w;
 403:lvgl/src/draw/sw/lv_draw_sw_line.c ****         if((uint32_t) mask_p + draw_area_w < mask_buf_size) {
 404:lvgl/src/draw/sw/lv_draw_sw_line.c ****             blend_area.y2 ++;
 1347              		.loc 1 404 13 view .LVU478
 1348              		.loc 1 404 23 is_stmt 0 view .LVU479
 1349 02de BDF9F630 		ldrsh	r3, [sp, #246]
 1350              		.loc 1 404 27 view .LVU480
 1351 02e2 0133     		adds	r3, r3, #1
 1352 02e4 ADF8F630 		strh	r3, [sp, #246]	@ movhi
 1353              	.LVL157:
 1354              	.L61:
 396:lvgl/src/draw/sw/lv_draw_sw_line.c ****         blend_dsc.mask_res = lv_draw_mask_apply(&mask_buf[mask_p], blend_area.x1, h, draw_area_w);
 1355              		.loc 1 396 37 is_stmt 1 discriminator 2 view .LVU481
 396:lvgl/src/draw/sw/lv_draw_sw_line.c ****         blend_dsc.mask_res = lv_draw_mask_apply(&mask_buf[mask_p], blend_area.x1, h, draw_area_w);
 1356              		.loc 1 396 38 is_stmt 0 discriminator 2 view .LVU482
 1357 02e8 0136     		adds	r6, r6, #1
 1358              	.LVL158:
 1359              	.L58:
 396:lvgl/src/draw/sw/lv_draw_sw_line.c ****         blend_dsc.mask_res = lv_draw_mask_apply(&mask_buf[mask_p], blend_area.x1, h, draw_area_w);
 1360              		.loc 1 396 28 is_stmt 1 discriminator 1 view .LVU483
 396:lvgl/src/draw/sw/lv_draw_sw_line.c ****         blend_dsc.mask_res = lv_draw_mask_apply(&mask_buf[mask_p], blend_area.x1, h, draw_area_w);
 1361              		.loc 1 396 5 is_stmt 0 discriminator 1 view .LVU484
ARM GAS  C:\Users\OSD\AppData\Local\Temp\ccgzvg7d.s 			page 37


 1362 02ea B245     		cmp	r10, r6
 1363 02ec 25DB     		blt	.L70
 397:lvgl/src/draw/sw/lv_draw_sw_line.c ****         blend_dsc.mask_res = lv_draw_mask_apply(&mask_buf[mask_p], blend_area.x1, h, draw_area_w);
 1364              		.loc 1 397 9 is_stmt 1 view .LVU485
 397:lvgl/src/draw/sw/lv_draw_sw_line.c ****         blend_dsc.mask_res = lv_draw_mask_apply(&mask_buf[mask_p], blend_area.x1, h, draw_area_w);
 1365              		.loc 1 397 30 is_stmt 0 view .LVU486
 1366 02ee 08EB0407 		add	r7, r8, r4
 1367 02f2 2B46     		mov	r3, r5
 1368 02f4 32B2     		sxth	r2, r6
 1369 02f6 BDF9F010 		ldrsh	r1, [sp, #240]
 1370 02fa 3846     		mov	r0, r7
 1371 02fc FFF7FEFF 		bl	lv_draw_mask_apply
 1372              	.LVL159:
 397:lvgl/src/draw/sw/lv_draw_sw_line.c ****         blend_dsc.mask_res = lv_draw_mask_apply(&mask_buf[mask_p], blend_area.x1, h, draw_area_w);
 1373              		.loc 1 397 28 view .LVU487
 1374 0300 8DF83400 		strb	r0, [sp, #52]
 398:lvgl/src/draw/sw/lv_draw_sw_line.c ****             lv_memset_00(&mask_buf[mask_p], draw_area_w);
 1375              		.loc 1 398 9 is_stmt 1 view .LVU488
 398:lvgl/src/draw/sw/lv_draw_sw_line.c ****             lv_memset_00(&mask_buf[mask_p], draw_area_w);
 1376              		.loc 1 398 11 is_stmt 0 view .LVU489
 1377 0304 0028     		cmp	r0, #0
 1378 0306 E5D0     		beq	.L71
 1379              	.L59:
 402:lvgl/src/draw/sw/lv_draw_sw_line.c ****         if((uint32_t) mask_p + draw_area_w < mask_buf_size) {
 1380              		.loc 1 402 9 is_stmt 1 view .LVU490
 402:lvgl/src/draw/sw/lv_draw_sw_line.c ****         if((uint32_t) mask_p + draw_area_w < mask_buf_size) {
 1381              		.loc 1 402 16 is_stmt 0 view .LVU491
 1382 0308 2C44     		add	r4, r4, r5
 1383              	.LVL160:
 403:lvgl/src/draw/sw/lv_draw_sw_line.c ****             blend_area.y2 ++;
 1384              		.loc 1 403 9 is_stmt 1 view .LVU492
 403:lvgl/src/draw/sw/lv_draw_sw_line.c ****             blend_area.y2 ++;
 1385              		.loc 1 403 30 is_stmt 0 view .LVU493
 1386 030a 2B19     		adds	r3, r5, r4
 403:lvgl/src/draw/sw/lv_draw_sw_line.c ****             blend_area.y2 ++;
 1387              		.loc 1 403 11 view .LVU494
 1388 030c 4B45     		cmp	r3, r9
 1389 030e E6D3     		bcc	.L72
 405:lvgl/src/draw/sw/lv_draw_sw_line.c ****         }
 406:lvgl/src/draw/sw/lv_draw_sw_line.c ****         else {
 407:lvgl/src/draw/sw/lv_draw_sw_line.c ****             blend_dsc.mask_res = LV_DRAW_MASK_RES_CHANGED;
 1390              		.loc 1 407 13 is_stmt 1 view .LVU495
 1391              		.loc 1 407 32 is_stmt 0 view .LVU496
 1392 0310 0223     		movs	r3, #2
 1393 0312 8DF83430 		strb	r3, [sp, #52]
 408:lvgl/src/draw/sw/lv_draw_sw_line.c ****             lv_draw_sw_blend(draw_ctx, &blend_dsc);
 1394              		.loc 1 408 13 is_stmt 1 view .LVU497
 1395 0316 09A9     		add	r1, sp, #36
 1396 0318 0398     		ldr	r0, [sp, #12]
 1397 031a FFF7FEFF 		bl	lv_draw_sw_blend
 1398              	.LVL161:
 409:lvgl/src/draw/sw/lv_draw_sw_line.c **** 
 410:lvgl/src/draw/sw/lv_draw_sw_line.c ****             blend_area.y1 = blend_area.y2 + 1;
 1399              		.loc 1 410 13 view .LVU498
 1400              		.loc 1 410 39 is_stmt 0 view .LVU499
 1401 031e BDF8F630 		ldrh	r3, [sp, #246]
 1402              		.loc 1 410 43 view .LVU500
ARM GAS  C:\Users\OSD\AppData\Local\Temp\ccgzvg7d.s 			page 38


 1403 0322 0133     		adds	r3, r3, #1
 1404 0324 1BB2     		sxth	r3, r3
 1405              		.loc 1 410 27 view .LVU501
 1406 0326 ADF8F230 		strh	r3, [sp, #242]	@ movhi
 411:lvgl/src/draw/sw/lv_draw_sw_line.c ****             blend_area.y2 = blend_area.y1;
 1407              		.loc 1 411 13 is_stmt 1 view .LVU502
 1408              		.loc 1 411 27 is_stmt 0 view .LVU503
 1409 032a ADF8F630 		strh	r3, [sp, #246]	@ movhi
 412:lvgl/src/draw/sw/lv_draw_sw_line.c ****             mask_p = 0;
 1410              		.loc 1 412 13 is_stmt 1 view .LVU504
 1411              	.LVL162:
 413:lvgl/src/draw/sw/lv_draw_sw_line.c ****             lv_memset_ff(mask_buf, mask_buf_size);
 1412              		.loc 1 413 13 view .LVU505
 1413 032e 4946     		mov	r1, r9
 1414 0330 4046     		mov	r0, r8
 1415 0332 FFF7FEFF 		bl	lv_memset_ff
 1416              	.LVL163:
 412:lvgl/src/draw/sw/lv_draw_sw_line.c ****             mask_p = 0;
 1417              		.loc 1 412 20 is_stmt 0 view .LVU506
 1418 0336 0024     		movs	r4, #0
 1419 0338 D6E7     		b	.L61
 1420              	.LVL164:
 1421              	.L70:
 414:lvgl/src/draw/sw/lv_draw_sw_line.c ****         }
 415:lvgl/src/draw/sw/lv_draw_sw_line.c ****     }
 416:lvgl/src/draw/sw/lv_draw_sw_line.c **** 
 417:lvgl/src/draw/sw/lv_draw_sw_line.c ****     /*Flush the last part*/
 418:lvgl/src/draw/sw/lv_draw_sw_line.c ****     if(blend_area.y1 != blend_area.y2) {
 1422              		.loc 1 418 5 is_stmt 1 view .LVU507
 1423              		.loc 1 418 18 is_stmt 0 view .LVU508
 1424 033a BDF9F220 		ldrsh	r2, [sp, #242]
 1425              		.loc 1 418 35 view .LVU509
 1426 033e BDF9F630 		ldrsh	r3, [sp, #246]
 1427              		.loc 1 418 7 view .LVU510
 1428 0342 9A42     		cmp	r2, r3
 1429 0344 20D1     		bne	.L73
 1430              	.L63:
 419:lvgl/src/draw/sw/lv_draw_sw_line.c ****         blend_area.y2--;
 420:lvgl/src/draw/sw/lv_draw_sw_line.c ****         blend_dsc.mask_res = LV_DRAW_MASK_RES_CHANGED;
 421:lvgl/src/draw/sw/lv_draw_sw_line.c ****         lv_draw_sw_blend(draw_ctx, &blend_dsc);
 422:lvgl/src/draw/sw/lv_draw_sw_line.c ****     }
 423:lvgl/src/draw/sw/lv_draw_sw_line.c **** 
 424:lvgl/src/draw/sw/lv_draw_sw_line.c ****     lv_mem_buf_release(mask_buf);
 1431              		.loc 1 424 5 is_stmt 1 view .LVU511
 1432 0346 4046     		mov	r0, r8
 1433 0348 FFF7FEFF 		bl	lv_mem_buf_release
 1434              	.LVL165:
 425:lvgl/src/draw/sw/lv_draw_sw_line.c **** 
 426:lvgl/src/draw/sw/lv_draw_sw_line.c ****     lv_draw_mask_free_param(&mask_left_param);
 1435              		.loc 1 426 5 view .LVU512
 1436 034c 31A8     		add	r0, sp, #196
 1437 034e FFF7FEFF 		bl	lv_draw_mask_free_param
 1438              	.LVL166:
 427:lvgl/src/draw/sw/lv_draw_sw_line.c ****     lv_draw_mask_free_param(&mask_right_param);
 1439              		.loc 1 427 5 view .LVU513
 1440 0352 26A8     		add	r0, sp, #152
 1441 0354 FFF7FEFF 		bl	lv_draw_mask_free_param
ARM GAS  C:\Users\OSD\AppData\Local\Temp\ccgzvg7d.s 			page 39


 1442              	.LVL167:
 428:lvgl/src/draw/sw/lv_draw_sw_line.c ****     if(mask_top_id != LV_MASK_ID_INV) lv_draw_mask_free_param(&mask_top_param);
 1443              		.loc 1 428 5 view .LVU514
 1444              		.loc 1 428 7 is_stmt 0 view .LVU515
 1445 0358 049B     		ldr	r3, [sp, #16]
 1446 035a B3F1FF3F 		cmp	r3, #-1
 1447 035e 1ED1     		bne	.L74
 1448              	.L64:
 429:lvgl/src/draw/sw/lv_draw_sw_line.c ****     if(mask_bottom_id != LV_MASK_ID_INV) lv_draw_mask_free_param(&mask_bottom_param);
 1449              		.loc 1 429 5 is_stmt 1 view .LVU516
 1450              		.loc 1 429 7 is_stmt 0 view .LVU517
 1451 0360 BBF1FF3F 		cmp	fp, #-1
 1452 0364 1FD1     		bne	.L75
 1453              	.L65:
 430:lvgl/src/draw/sw/lv_draw_sw_line.c ****     lv_draw_mask_remove_id(mask_left_id);
 1454              		.loc 1 430 5 is_stmt 1 view .LVU518
 1455 0366 0598     		ldr	r0, [sp, #20]
 1456 0368 FFF7FEFF 		bl	lv_draw_mask_remove_id
 1457              	.LVL168:
 431:lvgl/src/draw/sw/lv_draw_sw_line.c ****     lv_draw_mask_remove_id(mask_right_id);
 1458              		.loc 1 431 5 view .LVU519
 1459 036c 0698     		ldr	r0, [sp, #24]
 1460 036e FFF7FEFF 		bl	lv_draw_mask_remove_id
 1461              	.LVL169:
 432:lvgl/src/draw/sw/lv_draw_sw_line.c ****     lv_draw_mask_remove_id(mask_top_id);
 1462              		.loc 1 432 5 view .LVU520
 1463 0372 0498     		ldr	r0, [sp, #16]
 1464 0374 FFF7FEFF 		bl	lv_draw_mask_remove_id
 1465              	.LVL170:
 433:lvgl/src/draw/sw/lv_draw_sw_line.c ****     lv_draw_mask_remove_id(mask_bottom_id);
 1466              		.loc 1 433 5 view .LVU521
 1467 0378 5846     		mov	r0, fp
 1468 037a FFF7FEFF 		bl	lv_draw_mask_remove_id
 1469              	.LVL171:
 1470              	.L46:
 434:lvgl/src/draw/sw/lv_draw_sw_line.c **** #else
 435:lvgl/src/draw/sw/lv_draw_sw_line.c ****     LV_UNUSED(point1);
 436:lvgl/src/draw/sw/lv_draw_sw_line.c ****     LV_UNUSED(point2);
 437:lvgl/src/draw/sw/lv_draw_sw_line.c ****     LV_UNUSED(draw_ctx);
 438:lvgl/src/draw/sw/lv_draw_sw_line.c ****     LV_UNUSED(dsc);
 439:lvgl/src/draw/sw/lv_draw_sw_line.c ****     LV_LOG_WARN("Can't draw skewed line with LV_DRAW_COMPLEX == 0");
 440:lvgl/src/draw/sw/lv_draw_sw_line.c **** #endif /*LV_DRAW_COMPLEX*/
 441:lvgl/src/draw/sw/lv_draw_sw_line.c **** }
 1471              		.loc 1 441 1 is_stmt 0 view .LVU522
 1472 037e 41B0     		add	sp, sp, #260
 1473              		.cfi_remember_state
 1474              		.cfi_def_cfa_offset 36
 1475              		@ sp needed
 1476 0380 BDE8F08F 		pop	{r4, r5, r6, r7, r8, r9, r10, fp, pc}
 1477              	.LVL172:
 1478              	.L77:
 1479              		.loc 1 441 1 view .LVU523
 1480              		.align	2
 1481              	.L76:
 1482 0384 00000000 		.word	.LANCHOR0
 1483              	.LVL173:
 1484              	.L73:
ARM GAS  C:\Users\OSD\AppData\Local\Temp\ccgzvg7d.s 			page 40


 1485              		.cfi_restore_state
 419:lvgl/src/draw/sw/lv_draw_sw_line.c ****         blend_dsc.mask_res = LV_DRAW_MASK_RES_CHANGED;
 1486              		.loc 1 419 9 is_stmt 1 view .LVU524
 419:lvgl/src/draw/sw/lv_draw_sw_line.c ****         blend_dsc.mask_res = LV_DRAW_MASK_RES_CHANGED;
 1487              		.loc 1 419 22 is_stmt 0 view .LVU525
 1488 0388 013B     		subs	r3, r3, #1
 1489 038a ADF8F630 		strh	r3, [sp, #246]	@ movhi
 420:lvgl/src/draw/sw/lv_draw_sw_line.c ****         lv_draw_sw_blend(draw_ctx, &blend_dsc);
 1490              		.loc 1 420 9 is_stmt 1 view .LVU526
 420:lvgl/src/draw/sw/lv_draw_sw_line.c ****         lv_draw_sw_blend(draw_ctx, &blend_dsc);
 1491              		.loc 1 420 28 is_stmt 0 view .LVU527
 1492 038e 0223     		movs	r3, #2
 1493 0390 8DF83430 		strb	r3, [sp, #52]
 421:lvgl/src/draw/sw/lv_draw_sw_line.c ****     }
 1494              		.loc 1 421 9 is_stmt 1 view .LVU528
 1495 0394 09A9     		add	r1, sp, #36
 1496 0396 0398     		ldr	r0, [sp, #12]
 1497 0398 FFF7FEFF 		bl	lv_draw_sw_blend
 1498              	.LVL174:
 1499 039c D3E7     		b	.L63
 1500              	.L74:
 428:lvgl/src/draw/sw/lv_draw_sw_line.c ****     if(mask_bottom_id != LV_MASK_ID_INV) lv_draw_mask_free_param(&mask_bottom_param);
 1501              		.loc 1 428 39 discriminator 1 view .LVU529
 1502 039e 1BA8     		add	r0, sp, #108
 1503 03a0 FFF7FEFF 		bl	lv_draw_mask_free_param
 1504              	.LVL175:
 1505 03a4 DCE7     		b	.L64
 1506              	.L75:
 429:lvgl/src/draw/sw/lv_draw_sw_line.c ****     lv_draw_mask_remove_id(mask_left_id);
 1507              		.loc 1 429 42 discriminator 1 view .LVU530
 1508 03a6 10A8     		add	r0, sp, #64
 1509 03a8 FFF7FEFF 		bl	lv_draw_mask_free_param
 1510              	.LVL176:
 1511 03ac DBE7     		b	.L65
 1512              		.cfi_endproc
 1513              	.LFE164:
 1515 03ae 00BF     		.section	.text.lv_draw_sw_line,"ax",%progbits
 1516              		.align	1
 1517              		.global	lv_draw_sw_line
 1518              		.syntax unified
 1519              		.thumb
 1520              		.thumb_func
 1522              	lv_draw_sw_line:
 1523              	.LVL177:
 1524              	.LFB161:
  54:lvgl/src/draw/sw/lv_draw_sw_line.c ****     if(dsc->width == 0) return;
 1525              		.loc 1 54 1 view -0
 1526              		.cfi_startproc
 1527              		@ args = 0, pretend = 0, frame = 96
 1528              		@ frame_needed = 0, uses_anonymous_args = 0
  54:lvgl/src/draw/sw/lv_draw_sw_line.c ****     if(dsc->width == 0) return;
 1529              		.loc 1 54 1 is_stmt 0 view .LVU532
 1530 0000 2DE9F047 		push	{r4, r5, r6, r7, r8, r9, r10, lr}
 1531              		.cfi_def_cfa_offset 32
 1532              		.cfi_offset 4, -32
 1533              		.cfi_offset 5, -28
 1534              		.cfi_offset 6, -24
ARM GAS  C:\Users\OSD\AppData\Local\Temp\ccgzvg7d.s 			page 41


 1535              		.cfi_offset 7, -20
 1536              		.cfi_offset 8, -16
 1537              		.cfi_offset 9, -12
 1538              		.cfi_offset 10, -8
 1539              		.cfi_offset 14, -4
 1540 0004 98B0     		sub	sp, sp, #96
 1541              		.cfi_def_cfa_offset 128
 1542 0006 1646     		mov	r6, r2
  55:lvgl/src/draw/sw/lv_draw_sw_line.c ****     if(dsc->opa <= LV_OPA_MIN) return;
 1543              		.loc 1 55 5 is_stmt 1 view .LVU533
  55:lvgl/src/draw/sw/lv_draw_sw_line.c ****     if(dsc->opa <= LV_OPA_MIN) return;
 1544              		.loc 1 55 11 is_stmt 0 view .LVU534
 1545 0008 B1F90420 		ldrsh	r2, [r1, #4]
 1546              	.LVL178:
  55:lvgl/src/draw/sw/lv_draw_sw_line.c ****     if(dsc->opa <= LV_OPA_MIN) return;
 1547              		.loc 1 55 7 view .LVU535
 1548 000c 002A     		cmp	r2, #0
 1549 000e 66D0     		beq	.L78
 1550 0010 0746     		mov	r7, r0
 1551 0012 0C46     		mov	r4, r1
 1552 0014 1D46     		mov	r5, r3
  56:lvgl/src/draw/sw/lv_draw_sw_line.c **** 
 1553              		.loc 1 56 5 is_stmt 1 view .LVU536
  56:lvgl/src/draw/sw/lv_draw_sw_line.c **** 
 1554              		.loc 1 56 11 is_stmt 0 view .LVU537
 1555 0016 8B7A     		ldrb	r3, [r1, #10]	@ zero_extendqisi2
 1556              	.LVL179:
  56:lvgl/src/draw/sw/lv_draw_sw_line.c **** 
 1557              		.loc 1 56 7 view .LVU538
 1558 0018 022B     		cmp	r3, #2
 1559 001a 60D9     		bls	.L78
  58:lvgl/src/draw/sw/lv_draw_sw_line.c **** 
 1560              		.loc 1 58 5 is_stmt 1 view .LVU539
  58:lvgl/src/draw/sw/lv_draw_sw_line.c **** 
 1561              		.loc 1 58 14 is_stmt 0 view .LVU540
 1562 001c B6F90030 		ldrsh	r3, [r6]
  58:lvgl/src/draw/sw/lv_draw_sw_line.c **** 
 1563              		.loc 1 58 27 view .LVU541
 1564 0020 B5F90010 		ldrsh	r1, [r5]
 1565              	.LVL180:
  58:lvgl/src/draw/sw/lv_draw_sw_line.c **** 
 1566              		.loc 1 58 7 view .LVU542
 1567 0024 8B42     		cmp	r3, r1
 1568 0026 05D1     		bne	.L80
  58:lvgl/src/draw/sw/lv_draw_sw_line.c **** 
 1569              		.loc 1 58 40 discriminator 1 view .LVU543
 1570 0028 B6F902C0 		ldrsh	ip, [r6, #2]
  58:lvgl/src/draw/sw/lv_draw_sw_line.c **** 
 1571              		.loc 1 58 53 discriminator 1 view .LVU544
 1572 002c B5F90200 		ldrsh	r0, [r5, #2]
 1573              	.LVL181:
  58:lvgl/src/draw/sw/lv_draw_sw_line.c **** 
 1574              		.loc 1 58 31 discriminator 1 view .LVU545
 1575 0030 8445     		cmp	ip, r0
 1576 0032 54D0     		beq	.L78
 1577              	.L80:
  60:lvgl/src/draw/sw/lv_draw_sw_line.c ****     clip_line.x1 = LV_MIN(point1->x, point2->x) - dsc->width / 2;
ARM GAS  C:\Users\OSD\AppData\Local\Temp\ccgzvg7d.s 			page 42


 1578              		.loc 1 60 5 is_stmt 1 view .LVU546
  61:lvgl/src/draw/sw/lv_draw_sw_line.c ****     clip_line.x2 = LV_MAX(point1->x, point2->x) + dsc->width / 2;
 1579              		.loc 1 61 5 view .LVU547
  61:lvgl/src/draw/sw/lv_draw_sw_line.c ****     clip_line.x2 = LV_MAX(point1->x, point2->x) + dsc->width / 2;
 1580              		.loc 1 61 20 is_stmt 0 view .LVU548
 1581 0034 8B42     		cmp	r3, r1
 1582 0036 A8BF     		it	ge
 1583 0038 0B46     		movge	r3, r1
 1584 003a 9BB2     		uxth	r3, r3
  61:lvgl/src/draw/sw/lv_draw_sw_line.c ****     clip_line.x2 = LV_MAX(point1->x, point2->x) + dsc->width / 2;
 1585              		.loc 1 61 49 view .LVU549
 1586 003c 1146     		mov	r1, r2
 1587 003e 002A     		cmp	r2, #0
 1588 0040 50DB     		blt	.L91
 1589              	.L81:
 1590 0042 C1F34F02 		ubfx	r2, r1, #1, #16
 1591 0046 9B1A     		subs	r3, r3, r2
  61:lvgl/src/draw/sw/lv_draw_sw_line.c ****     clip_line.x2 = LV_MAX(point1->x, point2->x) + dsc->width / 2;
 1592              		.loc 1 61 18 view .LVU550
 1593 0048 ADF85830 		strh	r3, [sp, #88]	@ movhi
  62:lvgl/src/draw/sw/lv_draw_sw_line.c ****     clip_line.y1 = LV_MIN(point1->y, point2->y) - dsc->width / 2;
 1594              		.loc 1 62 5 is_stmt 1 view .LVU551
  62:lvgl/src/draw/sw/lv_draw_sw_line.c ****     clip_line.y1 = LV_MIN(point1->y, point2->y) - dsc->width / 2;
 1595              		.loc 1 62 20 is_stmt 0 view .LVU552
 1596 004c B5F90030 		ldrsh	r3, [r5]
 1597 0050 B6F90010 		ldrsh	r1, [r6]
 1598 0054 8B42     		cmp	r3, r1
 1599 0056 B8BF     		it	lt
 1600 0058 0B46     		movlt	r3, r1
  62:lvgl/src/draw/sw/lv_draw_sw_line.c ****     clip_line.y1 = LV_MIN(point1->y, point2->y) - dsc->width / 2;
 1601              		.loc 1 62 49 view .LVU553
 1602 005a 12FA83F3 		uxtah	r3, r2, r3
  62:lvgl/src/draw/sw/lv_draw_sw_line.c ****     clip_line.y1 = LV_MIN(point1->y, point2->y) - dsc->width / 2;
 1603              		.loc 1 62 18 view .LVU554
 1604 005e ADF85C30 		strh	r3, [sp, #92]	@ movhi
  63:lvgl/src/draw/sw/lv_draw_sw_line.c ****     clip_line.y2 = LV_MAX(point1->y, point2->y) + dsc->width / 2;
 1605              		.loc 1 63 5 is_stmt 1 view .LVU555
  63:lvgl/src/draw/sw/lv_draw_sw_line.c ****     clip_line.y2 = LV_MAX(point1->y, point2->y) + dsc->width / 2;
 1606              		.loc 1 63 20 is_stmt 0 view .LVU556
 1607 0062 B5F90230 		ldrsh	r3, [r5, #2]
 1608 0066 B6F90220 		ldrsh	r2, [r6, #2]
 1609 006a 9342     		cmp	r3, r2
 1610 006c A8BF     		it	ge
 1611 006e 1346     		movge	r3, r2
 1612 0070 9BB2     		uxth	r3, r3
  63:lvgl/src/draw/sw/lv_draw_sw_line.c ****     clip_line.y2 = LV_MAX(point1->y, point2->y) + dsc->width / 2;
 1613              		.loc 1 63 54 view .LVU557
 1614 0072 B4F90420 		ldrsh	r2, [r4, #4]
  63:lvgl/src/draw/sw/lv_draw_sw_line.c ****     clip_line.y2 = LV_MAX(point1->y, point2->y) + dsc->width / 2;
 1615              		.loc 1 63 49 view .LVU558
 1616 0076 002A     		cmp	r2, #0
 1617 0078 36DB     		blt	.L92
 1618              	.L82:
 1619 007a C2F34F02 		ubfx	r2, r2, #1, #16
 1620 007e 9B1A     		subs	r3, r3, r2
  63:lvgl/src/draw/sw/lv_draw_sw_line.c ****     clip_line.y2 = LV_MAX(point1->y, point2->y) + dsc->width / 2;
 1621              		.loc 1 63 18 view .LVU559
ARM GAS  C:\Users\OSD\AppData\Local\Temp\ccgzvg7d.s 			page 43


 1622 0080 ADF85A30 		strh	r3, [sp, #90]	@ movhi
  64:lvgl/src/draw/sw/lv_draw_sw_line.c **** 
 1623              		.loc 1 64 5 is_stmt 1 view .LVU560
  64:lvgl/src/draw/sw/lv_draw_sw_line.c **** 
 1624              		.loc 1 64 20 is_stmt 0 view .LVU561
 1625 0084 B5F90230 		ldrsh	r3, [r5, #2]
 1626 0088 B6F90210 		ldrsh	r1, [r6, #2]
 1627 008c 8B42     		cmp	r3, r1
 1628 008e B8BF     		it	lt
 1629 0090 0B46     		movlt	r3, r1
  64:lvgl/src/draw/sw/lv_draw_sw_line.c **** 
 1630              		.loc 1 64 49 view .LVU562
 1631 0092 12FA83F2 		uxtah	r2, r2, r3
  64:lvgl/src/draw/sw/lv_draw_sw_line.c **** 
 1632              		.loc 1 64 18 view .LVU563
 1633 0096 ADF85E20 		strh	r2, [sp, #94]	@ movhi
  66:lvgl/src/draw/sw/lv_draw_sw_line.c ****     is_common = _lv_area_intersect(&clip_line, &clip_line, draw_ctx->clip_area);
 1634              		.loc 1 66 5 is_stmt 1 view .LVU564
  67:lvgl/src/draw/sw/lv_draw_sw_line.c ****     if(!is_common) return;
 1635              		.loc 1 67 5 view .LVU565
  67:lvgl/src/draw/sw/lv_draw_sw_line.c ****     if(!is_common) return;
 1636              		.loc 1 67 17 is_stmt 0 view .LVU566
 1637 009a BA68     		ldr	r2, [r7, #8]
 1638 009c 16A9     		add	r1, sp, #88
 1639 009e 0846     		mov	r0, r1
 1640 00a0 FFF7FEFF 		bl	_lv_area_intersect
 1641              	.LVL182:
  68:lvgl/src/draw/sw/lv_draw_sw_line.c ****     const lv_area_t * clip_area_ori = draw_ctx->clip_area;
 1642              		.loc 1 68 5 is_stmt 1 view .LVU567
  68:lvgl/src/draw/sw/lv_draw_sw_line.c ****     const lv_area_t * clip_area_ori = draw_ctx->clip_area;
 1643              		.loc 1 68 7 is_stmt 0 view .LVU568
 1644 00a4 D8B1     		cbz	r0, .L78
  69:lvgl/src/draw/sw/lv_draw_sw_line.c ****     draw_ctx->clip_area = &clip_line;
 1645              		.loc 1 69 5 is_stmt 1 view .LVU569
  69:lvgl/src/draw/sw/lv_draw_sw_line.c ****     draw_ctx->clip_area = &clip_line;
 1646              		.loc 1 69 23 is_stmt 0 view .LVU570
 1647 00a6 D7F80890 		ldr	r9, [r7, #8]
 1648              	.LVL183:
  70:lvgl/src/draw/sw/lv_draw_sw_line.c **** 
 1649              		.loc 1 70 5 is_stmt 1 view .LVU571
  70:lvgl/src/draw/sw/lv_draw_sw_line.c **** 
 1650              		.loc 1 70 25 is_stmt 0 view .LVU572
 1651 00aa 16AB     		add	r3, sp, #88
 1652 00ac BB60     		str	r3, [r7, #8]
  72:lvgl/src/draw/sw/lv_draw_sw_line.c ****     else if(point1->x == point2->x) draw_line_ver(draw_ctx, dsc, point1, point2);
 1653              		.loc 1 72 5 is_stmt 1 view .LVU573
  72:lvgl/src/draw/sw/lv_draw_sw_line.c ****     else if(point1->x == point2->x) draw_line_ver(draw_ctx, dsc, point1, point2);
 1654              		.loc 1 72 14 is_stmt 0 view .LVU574
 1655 00ae B6F90220 		ldrsh	r2, [r6, #2]
  72:lvgl/src/draw/sw/lv_draw_sw_line.c ****     else if(point1->x == point2->x) draw_line_ver(draw_ctx, dsc, point1, point2);
 1656              		.loc 1 72 27 view .LVU575
 1657 00b2 B5F90230 		ldrsh	r3, [r5, #2]
  72:lvgl/src/draw/sw/lv_draw_sw_line.c ****     else if(point1->x == point2->x) draw_line_ver(draw_ctx, dsc, point1, point2);
 1658              		.loc 1 72 7 view .LVU576
 1659 00b6 9A42     		cmp	r2, r3
 1660 00b8 18D0     		beq	.L93
  73:lvgl/src/draw/sw/lv_draw_sw_line.c ****     else draw_line_skew(draw_ctx, dsc, point1, point2);
ARM GAS  C:\Users\OSD\AppData\Local\Temp\ccgzvg7d.s 			page 44


 1661              		.loc 1 73 10 is_stmt 1 view .LVU577
  73:lvgl/src/draw/sw/lv_draw_sw_line.c ****     else draw_line_skew(draw_ctx, dsc, point1, point2);
 1662              		.loc 1 73 19 is_stmt 0 view .LVU578
 1663 00ba B6F90020 		ldrsh	r2, [r6]
  73:lvgl/src/draw/sw/lv_draw_sw_line.c ****     else draw_line_skew(draw_ctx, dsc, point1, point2);
 1664              		.loc 1 73 32 view .LVU579
 1665 00be B5F90030 		ldrsh	r3, [r5]
  73:lvgl/src/draw/sw/lv_draw_sw_line.c ****     else draw_line_skew(draw_ctx, dsc, point1, point2);
 1666              		.loc 1 73 12 view .LVU580
 1667 00c2 9A42     		cmp	r2, r3
 1668 00c4 19D0     		beq	.L94
  74:lvgl/src/draw/sw/lv_draw_sw_line.c **** 
 1669              		.loc 1 74 10 is_stmt 1 view .LVU581
 1670 00c6 2B46     		mov	r3, r5
 1671 00c8 3246     		mov	r2, r6
 1672 00ca 2146     		mov	r1, r4
 1673 00cc 3846     		mov	r0, r7
 1674              	.LVL184:
  74:lvgl/src/draw/sw/lv_draw_sw_line.c **** 
 1675              		.loc 1 74 10 is_stmt 0 view .LVU582
 1676 00ce FFF7FEFF 		bl	draw_line_skew
 1677              	.LVL185:
 1678              	.L84:
  76:lvgl/src/draw/sw/lv_draw_sw_line.c ****         lv_draw_rect_dsc_t cir_dsc;
 1679              		.loc 1 76 5 is_stmt 1 view .LVU583
  76:lvgl/src/draw/sw/lv_draw_sw_line.c ****         lv_draw_rect_dsc_t cir_dsc;
 1680              		.loc 1 76 23 is_stmt 0 view .LVU584
 1681 00d2 E37A     		ldrb	r3, [r4, #11]	@ zero_extendqisi2
  76:lvgl/src/draw/sw/lv_draw_sw_line.c ****         lv_draw_rect_dsc_t cir_dsc;
 1682              		.loc 1 76 7 view .LVU585
 1683 00d4 13F00C0F 		tst	r3, #12
 1684 00d8 16D1     		bne	.L95
 1685              	.L86:
 104:lvgl/src/draw/sw/lv_draw_sw_line.c **** }
 1686              		.loc 1 104 5 is_stmt 1 discriminator 1 view .LVU586
 104:lvgl/src/draw/sw/lv_draw_sw_line.c **** }
 1687              		.loc 1 104 25 is_stmt 0 discriminator 1 view .LVU587
 1688 00da C7F80890 		str	r9, [r7, #8]
 1689              	.LVL186:
 1690              	.L78:
 105:lvgl/src/draw/sw/lv_draw_sw_line.c **** 
 1691              		.loc 1 105 1 view .LVU588
 1692 00de 18B0     		add	sp, sp, #96
 1693              		.cfi_remember_state
 1694              		.cfi_def_cfa_offset 32
 1695              		@ sp needed
 1696 00e0 BDE8F087 		pop	{r4, r5, r6, r7, r8, r9, r10, pc}
 1697              	.LVL187:
 1698              	.L91:
 1699              		.cfi_restore_state
  61:lvgl/src/draw/sw/lv_draw_sw_line.c ****     clip_line.x2 = LV_MAX(point1->x, point2->x) + dsc->width / 2;
 1700              		.loc 1 61 49 view .LVU589
 1701 00e4 511C     		adds	r1, r2, #1
 1702 00e6 ACE7     		b	.L81
 1703              	.L92:
  63:lvgl/src/draw/sw/lv_draw_sw_line.c ****     clip_line.y2 = LV_MAX(point1->y, point2->y) + dsc->width / 2;
 1704              		.loc 1 63 49 view .LVU590
ARM GAS  C:\Users\OSD\AppData\Local\Temp\ccgzvg7d.s 			page 45


 1705 00e8 0132     		adds	r2, r2, #1
 1706 00ea C6E7     		b	.L82
 1707              	.LVL188:
 1708              	.L93:
  72:lvgl/src/draw/sw/lv_draw_sw_line.c ****     else if(point1->x == point2->x) draw_line_ver(draw_ctx, dsc, point1, point2);
 1709              		.loc 1 72 32 is_stmt 1 discriminator 1 view .LVU591
 1710 00ec 2B46     		mov	r3, r5
 1711 00ee 3246     		mov	r2, r6
 1712 00f0 2146     		mov	r1, r4
 1713 00f2 3846     		mov	r0, r7
 1714              	.LVL189:
  72:lvgl/src/draw/sw/lv_draw_sw_line.c ****     else if(point1->x == point2->x) draw_line_ver(draw_ctx, dsc, point1, point2);
 1715              		.loc 1 72 32 is_stmt 0 discriminator 1 view .LVU592
 1716 00f4 FFF7FEFF 		bl	draw_line_hor
 1717              	.LVL190:
 1718 00f8 EBE7     		b	.L84
 1719              	.LVL191:
 1720              	.L94:
  73:lvgl/src/draw/sw/lv_draw_sw_line.c ****     else draw_line_skew(draw_ctx, dsc, point1, point2);
 1721              		.loc 1 73 37 is_stmt 1 discriminator 1 view .LVU593
 1722 00fa 2B46     		mov	r3, r5
 1723 00fc 3246     		mov	r2, r6
 1724 00fe 2146     		mov	r1, r4
 1725 0100 3846     		mov	r0, r7
 1726              	.LVL192:
  73:lvgl/src/draw/sw/lv_draw_sw_line.c ****     else draw_line_skew(draw_ctx, dsc, point1, point2);
 1727              		.loc 1 73 37 is_stmt 0 discriminator 1 view .LVU594
 1728 0102 FFF7FEFF 		bl	draw_line_ver
 1729              	.LVL193:
 1730 0106 E4E7     		b	.L84
 1731              	.L95:
 1732              	.LBB24:
  77:lvgl/src/draw/sw/lv_draw_sw_line.c ****         lv_draw_rect_dsc_init(&cir_dsc);
 1733              		.loc 1 77 9 is_stmt 1 view .LVU595
  78:lvgl/src/draw/sw/lv_draw_sw_line.c ****         cir_dsc.bg_color = dsc->color;
 1734              		.loc 1 78 9 view .LVU596
 1735 0108 02A8     		add	r0, sp, #8
 1736 010a FFF7FEFF 		bl	lv_draw_rect_dsc_init
 1737              	.LVL194:
  79:lvgl/src/draw/sw/lv_draw_sw_line.c ****         cir_dsc.radius = LV_RADIUS_CIRCLE;
 1738              		.loc 1 79 9 view .LVU597
  79:lvgl/src/draw/sw/lv_draw_sw_line.c ****         cir_dsc.radius = LV_RADIUS_CIRCLE;
 1739              		.loc 1 79 26 is_stmt 0 view .LVU598
 1740 010e 2368     		ldr	r3, [r4]
 1741 0110 0393     		str	r3, [sp, #12]
  80:lvgl/src/draw/sw/lv_draw_sw_line.c ****         cir_dsc.bg_opa = dsc->opa;
 1742              		.loc 1 80 9 is_stmt 1 view .LVU599
  80:lvgl/src/draw/sw/lv_draw_sw_line.c ****         cir_dsc.bg_opa = dsc->opa;
 1743              		.loc 1 80 24 is_stmt 0 view .LVU600
 1744 0112 47F6FF73 		movw	r3, #32767
 1745 0116 ADF80830 		strh	r3, [sp, #8]	@ movhi
  81:lvgl/src/draw/sw/lv_draw_sw_line.c **** 
 1746              		.loc 1 81 9 is_stmt 1 view .LVU601
  81:lvgl/src/draw/sw/lv_draw_sw_line.c **** 
 1747              		.loc 1 81 29 is_stmt 0 view .LVU602
 1748 011a A37A     		ldrb	r3, [r4, #10]	@ zero_extendqisi2
  81:lvgl/src/draw/sw/lv_draw_sw_line.c **** 
ARM GAS  C:\Users\OSD\AppData\Local\Temp\ccgzvg7d.s 			page 46


 1749              		.loc 1 81 24 view .LVU603
 1750 011c 8DF80B30 		strb	r3, [sp, #11]
  83:lvgl/src/draw/sw/lv_draw_sw_line.c ****         int32_t r_corr = (dsc->width & 1) ? 0 : 1;
 1751              		.loc 1 83 9 is_stmt 1 view .LVU604
  83:lvgl/src/draw/sw/lv_draw_sw_line.c ****         int32_t r_corr = (dsc->width & 1) ? 0 : 1;
 1752              		.loc 1 83 25 is_stmt 0 view .LVU605
 1753 0120 B4F90430 		ldrsh	r3, [r4, #4]
  83:lvgl/src/draw/sw/lv_draw_sw_line.c ****         int32_t r_corr = (dsc->width & 1) ? 0 : 1;
 1754              		.loc 1 83 33 view .LVU606
 1755 0124 4FEA630A 		asr	r10, r3, #1
 1756              	.LVL195:
  84:lvgl/src/draw/sw/lv_draw_sw_line.c ****         lv_area_t cir_area;
 1757              		.loc 1 84 9 is_stmt 1 view .LVU607
  84:lvgl/src/draw/sw/lv_draw_sw_line.c ****         lv_area_t cir_area;
 1758              		.loc 1 84 38 is_stmt 0 view .LVU608
 1759 0128 1FFA83F8 		uxth	r8, r3
  84:lvgl/src/draw/sw/lv_draw_sw_line.c ****         lv_area_t cir_area;
 1760              		.loc 1 84 47 view .LVU609
 1761 012c 88F00108 		eor	r8, r8, #1
 1762 0130 08F00108 		and	r8, r8, #1
 1763              	.LVL196:
  85:lvgl/src/draw/sw/lv_draw_sw_line.c **** 
 1764              		.loc 1 85 9 is_stmt 1 view .LVU610
  87:lvgl/src/draw/sw/lv_draw_sw_line.c ****             cir_area.x1 = point1->x - r;
 1765              		.loc 1 87 9 view .LVU611
  87:lvgl/src/draw/sw/lv_draw_sw_line.c ****             cir_area.x1 = point1->x - r;
 1766              		.loc 1 87 12 is_stmt 0 view .LVU612
 1767 0134 E37A     		ldrb	r3, [r4, #11]	@ zero_extendqisi2
  87:lvgl/src/draw/sw/lv_draw_sw_line.c ****             cir_area.x1 = point1->x - r;
 1768              		.loc 1 87 11 view .LVU613
 1769 0136 13F0040F 		tst	r3, #4
 1770 013a 22D1     		bne	.L96
 1771              	.L87:
  95:lvgl/src/draw/sw/lv_draw_sw_line.c ****             cir_area.x1 = point2->x - r;
 1772              		.loc 1 95 9 is_stmt 1 view .LVU614
  95:lvgl/src/draw/sw/lv_draw_sw_line.c ****             cir_area.x1 = point2->x - r;
 1773              		.loc 1 95 12 is_stmt 0 view .LVU615
 1774 013c E37A     		ldrb	r3, [r4, #11]	@ zero_extendqisi2
  95:lvgl/src/draw/sw/lv_draw_sw_line.c ****             cir_area.x1 = point2->x - r;
 1775              		.loc 1 95 11 view .LVU616
 1776 013e 13F0080F 		tst	r3, #8
 1777 0142 CAD0     		beq	.L86
  96:lvgl/src/draw/sw/lv_draw_sw_line.c ****             cir_area.y1 = point2->y - r;
 1778              		.loc 1 96 13 is_stmt 1 view .LVU617
  96:lvgl/src/draw/sw/lv_draw_sw_line.c ****             cir_area.y1 = point2->y - r;
 1779              		.loc 1 96 33 is_stmt 0 view .LVU618
 1780 0144 2B88     		ldrh	r3, [r5]
  96:lvgl/src/draw/sw/lv_draw_sw_line.c ****             cir_area.y1 = point2->y - r;
 1781              		.loc 1 96 37 view .LVU619
 1782 0146 1FFA8AFA 		uxth	r10, r10
  96:lvgl/src/draw/sw/lv_draw_sw_line.c ****             cir_area.y1 = point2->y - r;
 1783              		.loc 1 96 37 view .LVU620
 1784 014a A3EB0A02 		sub	r2, r3, r10
  96:lvgl/src/draw/sw/lv_draw_sw_line.c ****             cir_area.y1 = point2->y - r;
 1785              		.loc 1 96 25 view .LVU621
 1786 014e ADF80020 		strh	r2, [sp]	@ movhi
  97:lvgl/src/draw/sw/lv_draw_sw_line.c ****             cir_area.x2 = point2->x + r - r_corr;
ARM GAS  C:\Users\OSD\AppData\Local\Temp\ccgzvg7d.s 			page 47


 1787              		.loc 1 97 13 is_stmt 1 view .LVU622
  97:lvgl/src/draw/sw/lv_draw_sw_line.c ****             cir_area.x2 = point2->x + r - r_corr;
 1788              		.loc 1 97 33 is_stmt 0 view .LVU623
 1789 0152 6A88     		ldrh	r2, [r5, #2]
  97:lvgl/src/draw/sw/lv_draw_sw_line.c ****             cir_area.x2 = point2->x + r - r_corr;
 1790              		.loc 1 97 37 view .LVU624
 1791 0154 A2EB0A01 		sub	r1, r2, r10
  97:lvgl/src/draw/sw/lv_draw_sw_line.c ****             cir_area.x2 = point2->x + r - r_corr;
 1792              		.loc 1 97 25 view .LVU625
 1793 0158 ADF80210 		strh	r1, [sp, #2]	@ movhi
  98:lvgl/src/draw/sw/lv_draw_sw_line.c ****             cir_area.y2 = point2->y + r - r_corr ;
 1794              		.loc 1 98 13 is_stmt 1 view .LVU626
  98:lvgl/src/draw/sw/lv_draw_sw_line.c ****             cir_area.y2 = point2->y + r - r_corr ;
 1795              		.loc 1 98 37 is_stmt 0 view .LVU627
 1796 015c 5344     		add	r3, r3, r10
 1797 015e 9BB2     		uxth	r3, r3
  98:lvgl/src/draw/sw/lv_draw_sw_line.c ****             cir_area.y2 = point2->y + r - r_corr ;
 1798              		.loc 1 98 41 view .LVU628
 1799 0160 A3EB0803 		sub	r3, r3, r8
  98:lvgl/src/draw/sw/lv_draw_sw_line.c ****             cir_area.y2 = point2->y + r - r_corr ;
 1800              		.loc 1 98 25 view .LVU629
 1801 0164 ADF80430 		strh	r3, [sp, #4]	@ movhi
  99:lvgl/src/draw/sw/lv_draw_sw_line.c ****             lv_draw_rect(draw_ctx, &cir_dsc, &cir_area);
 1802              		.loc 1 99 13 is_stmt 1 view .LVU630
  99:lvgl/src/draw/sw/lv_draw_sw_line.c ****             lv_draw_rect(draw_ctx, &cir_dsc, &cir_area);
 1803              		.loc 1 99 37 is_stmt 0 view .LVU631
 1804 0168 9244     		add	r10, r10, r2
 1805              	.LVL197:
  99:lvgl/src/draw/sw/lv_draw_sw_line.c ****             lv_draw_rect(draw_ctx, &cir_dsc, &cir_area);
 1806              		.loc 1 99 37 view .LVU632
 1807 016a 1FFA8AFA 		uxth	r10, r10
  99:lvgl/src/draw/sw/lv_draw_sw_line.c ****             lv_draw_rect(draw_ctx, &cir_dsc, &cir_area);
 1808              		.loc 1 99 41 view .LVU633
 1809 016e AAEB0808 		sub	r8, r10, r8
 1810              	.LVL198:
  99:lvgl/src/draw/sw/lv_draw_sw_line.c ****             lv_draw_rect(draw_ctx, &cir_dsc, &cir_area);
 1811              		.loc 1 99 25 view .LVU634
 1812 0172 ADF80680 		strh	r8, [sp, #6]	@ movhi
 100:lvgl/src/draw/sw/lv_draw_sw_line.c ****         }
 1813              		.loc 1 100 13 is_stmt 1 view .LVU635
 1814 0176 6A46     		mov	r2, sp
 1815 0178 02A9     		add	r1, sp, #8
 1816 017a 3846     		mov	r0, r7
 1817 017c FFF7FEFF 		bl	lv_draw_rect
 1818              	.LVL199:
 1819 0180 ABE7     		b	.L86
 1820              	.LVL200:
 1821              	.L96:
  88:lvgl/src/draw/sw/lv_draw_sw_line.c ****             cir_area.y1 = point1->y - r;
 1822              		.loc 1 88 13 view .LVU636
  88:lvgl/src/draw/sw/lv_draw_sw_line.c ****             cir_area.y1 = point1->y - r;
 1823              		.loc 1 88 33 is_stmt 0 view .LVU637
 1824 0182 3288     		ldrh	r2, [r6]
  88:lvgl/src/draw/sw/lv_draw_sw_line.c ****             cir_area.y1 = point1->y - r;
 1825              		.loc 1 88 37 view .LVU638
 1826 0184 1FFA8AF3 		uxth	r3, r10
 1827 0188 D11A     		subs	r1, r2, r3
ARM GAS  C:\Users\OSD\AppData\Local\Temp\ccgzvg7d.s 			page 48


  88:lvgl/src/draw/sw/lv_draw_sw_line.c ****             cir_area.y1 = point1->y - r;
 1828              		.loc 1 88 25 view .LVU639
 1829 018a ADF80010 		strh	r1, [sp]	@ movhi
  89:lvgl/src/draw/sw/lv_draw_sw_line.c ****             cir_area.x2 = point1->x + r - r_corr;
 1830              		.loc 1 89 13 is_stmt 1 view .LVU640
  89:lvgl/src/draw/sw/lv_draw_sw_line.c ****             cir_area.x2 = point1->x + r - r_corr;
 1831              		.loc 1 89 33 is_stmt 0 view .LVU641
 1832 018e 7188     		ldrh	r1, [r6, #2]
  89:lvgl/src/draw/sw/lv_draw_sw_line.c ****             cir_area.x2 = point1->x + r - r_corr;
 1833              		.loc 1 89 37 view .LVU642
 1834 0190 C81A     		subs	r0, r1, r3
  89:lvgl/src/draw/sw/lv_draw_sw_line.c ****             cir_area.x2 = point1->x + r - r_corr;
 1835              		.loc 1 89 25 view .LVU643
 1836 0192 ADF80200 		strh	r0, [sp, #2]	@ movhi
  90:lvgl/src/draw/sw/lv_draw_sw_line.c ****             cir_area.y2 = point1->y + r - r_corr ;
 1837              		.loc 1 90 13 is_stmt 1 view .LVU644
  90:lvgl/src/draw/sw/lv_draw_sw_line.c ****             cir_area.y2 = point1->y + r - r_corr ;
 1838              		.loc 1 90 37 is_stmt 0 view .LVU645
 1839 0196 1A44     		add	r2, r2, r3
 1840 0198 92B2     		uxth	r2, r2
  90:lvgl/src/draw/sw/lv_draw_sw_line.c ****             cir_area.y2 = point1->y + r - r_corr ;
 1841              		.loc 1 90 41 view .LVU646
 1842 019a A2EB0802 		sub	r2, r2, r8
  90:lvgl/src/draw/sw/lv_draw_sw_line.c ****             cir_area.y2 = point1->y + r - r_corr ;
 1843              		.loc 1 90 25 view .LVU647
 1844 019e ADF80420 		strh	r2, [sp, #4]	@ movhi
  91:lvgl/src/draw/sw/lv_draw_sw_line.c ****             lv_draw_rect(draw_ctx, &cir_dsc, &cir_area);
 1845              		.loc 1 91 13 is_stmt 1 view .LVU648
  91:lvgl/src/draw/sw/lv_draw_sw_line.c ****             lv_draw_rect(draw_ctx, &cir_dsc, &cir_area);
 1846              		.loc 1 91 37 is_stmt 0 view .LVU649
 1847 01a2 0B44     		add	r3, r3, r1
 1848 01a4 9BB2     		uxth	r3, r3
  91:lvgl/src/draw/sw/lv_draw_sw_line.c ****             lv_draw_rect(draw_ctx, &cir_dsc, &cir_area);
 1849              		.loc 1 91 41 view .LVU650
 1850 01a6 A3EB0803 		sub	r3, r3, r8
  91:lvgl/src/draw/sw/lv_draw_sw_line.c ****             lv_draw_rect(draw_ctx, &cir_dsc, &cir_area);
 1851              		.loc 1 91 25 view .LVU651
 1852 01aa ADF80630 		strh	r3, [sp, #6]	@ movhi
  92:lvgl/src/draw/sw/lv_draw_sw_line.c ****         }
 1853              		.loc 1 92 13 is_stmt 1 view .LVU652
 1854 01ae 6A46     		mov	r2, sp
 1855 01b0 02A9     		add	r1, sp, #8
 1856 01b2 3846     		mov	r0, r7
 1857 01b4 FFF7FEFF 		bl	lv_draw_rect
 1858              	.LVL201:
 1859 01b8 C0E7     		b	.L87
 1860              	.LBE24:
 1861              		.cfi_endproc
 1862              	.LFE161:
 1864              		.section	.rodata.wcorr.0,"a"
 1865              		.align	2
 1866              		.set	.LANCHOR0,. + 0
 1869              	wcorr.0:
 1870 0000 80808081 		.ascii	"\200\200\200\201\201\202\202\203\204\205\206\207\211"
 1870      81828283 
 1870      84858687 
 1870      89
ARM GAS  C:\Users\OSD\AppData\Local\Temp\ccgzvg7d.s 			page 49


 1871 000d 8A8C8D8F 		.ascii	"\212\214\215\217\221\223\225\227\231\233\236\240\242"
 1871      91939597 
 1871      999B9EA0 
 1871      A2
 1872 001a A5A7AAAD 		.ascii	"\245\247\252\255\257\262\265"
 1872      AFB2B5
 1873              		.text
 1874              	.Letext0:
 1875              		.file 3 "c:\\tools\\gcc-arm-none-eabi\\arm-none-eabi\\include\\machine\\_default_types.h"
 1876              		.file 4 "c:\\tools\\gcc-arm-none-eabi\\arm-none-eabi\\include\\sys\\_stdint.h"
 1877              		.file 5 "lvgl/src/draw/sw/../../misc/lv_types.h"
 1878              		.file 6 "c:\\tools\\gcc-arm-none-eabi\\lib\\gcc\\arm-none-eabi\\10.3.1\\include\\stddef.h"
 1879              		.file 7 "lvgl/src/draw/sw/../../misc/lv_color.h"
 1880              		.file 8 "lvgl/src/draw/sw/../../misc/../font/lv_font.h"
 1881              		.file 9 "lvgl/src/draw/sw/../../misc/lv_txt.h"
 1882              		.file 10 "lvgl/src/draw/sw/../../misc/lv_bidi.h"
 1883              		.file 11 "lvgl/src/draw/sw/../../misc/lv_style.h"
 1884              		.file 12 "lvgl/src/draw/sw/../lv_draw_mask.h"
 1885              		.file 13 "lvgl/src/draw/sw/lv_draw_sw_blend.h"
 1886              		.file 14 "lvgl/src/draw/sw/../lv_img_buf.h"
 1887              		.file 15 "lvgl/src/draw/sw/../lv_draw_rect.h"
 1888              		.file 16 "lvgl/src/draw/sw/../lv_draw_label.h"
 1889              		.file 17 "lvgl/src/draw/sw/../lv_draw_img.h"
 1890              		.file 18 "lvgl/src/draw/sw/../lv_draw_line.h"
 1891              		.file 19 "lvgl/src/draw/sw/../lv_draw_arc.h"
 1892              		.file 20 "lvgl/src/draw/sw/../lv_draw_layer.h"
 1893              		.file 21 "lvgl/src/draw/sw/../lv_draw.h"
 1894              		.file 22 "lvgl/src/draw/sw/../../core/lv_refr.h"
 1895              		.file 23 "lvgl/src/draw/sw/../../hal/lv_hal_disp.h"
 1896              		.file 24 "lvgl/src/draw/sw/../../misc/lv_mem.h"
ARM GAS  C:\Users\OSD\AppData\Local\Temp\ccgzvg7d.s 			page 50

