ARM GAS  C:\Users\OSD\AppData\Local\Temp\cca5CFPq.s 			page 1


   1              		.cpu cortex-m7
   2              		.arch armv7e-m
   3              		.fpu fpv5-d16
   4              		.eabi_attribute 28, 1
   5              		.eabi_attribute 20, 1
   6              		.eabi_attribute 21, 1
   7              		.eabi_attribute 23, 3
   8              		.eabi_attribute 24, 1
   9              		.eabi_attribute 25, 1
  10              		.eabi_attribute 26, 1
  11              		.eabi_attribute 30, 1
  12              		.eabi_attribute 34, 1
  13              		.eabi_attribute 18, 4
  14              		.file	"lv_dropdown.c"
  15              		.text
  16              	.Ltext0:
  17              		.cfi_sections	.debug_frame
  18              		.section	.text.lv_dropdownlist_destructor,"ax",%progbits
  19              		.align	1
  20              		.syntax unified
  21              		.thumb
  22              		.thumb_func
  24              	lv_dropdownlist_destructor:
  25              	.LVL0:
  26              	.LFB194:
  27              		.file 1 "lvgl/src/widgets/lv_dropdown.c"
   1:lvgl/src/widgets/lv_dropdown.c **** /**
   2:lvgl/src/widgets/lv_dropdown.c ****  * @file lv_dropdown.c
   3:lvgl/src/widgets/lv_dropdown.c ****  *
   4:lvgl/src/widgets/lv_dropdown.c ****  */
   5:lvgl/src/widgets/lv_dropdown.c **** 
   6:lvgl/src/widgets/lv_dropdown.c **** /*********************
   7:lvgl/src/widgets/lv_dropdown.c ****  *      INCLUDES
   8:lvgl/src/widgets/lv_dropdown.c ****  *********************/
   9:lvgl/src/widgets/lv_dropdown.c **** #include "../core/lv_obj.h"
  10:lvgl/src/widgets/lv_dropdown.c **** #include "lv_dropdown.h"
  11:lvgl/src/widgets/lv_dropdown.c **** #if LV_USE_DROPDOWN != 0
  12:lvgl/src/widgets/lv_dropdown.c **** 
  13:lvgl/src/widgets/lv_dropdown.c **** #include "../misc/lv_assert.h"
  14:lvgl/src/widgets/lv_dropdown.c **** #include "../draw/lv_draw.h"
  15:lvgl/src/widgets/lv_dropdown.c **** #include "../core/lv_group.h"
  16:lvgl/src/widgets/lv_dropdown.c **** #include "../core/lv_indev.h"
  17:lvgl/src/widgets/lv_dropdown.c **** #include "../core/lv_disp.h"
  18:lvgl/src/widgets/lv_dropdown.c **** #include "../font/lv_symbol_def.h"
  19:lvgl/src/widgets/lv_dropdown.c **** #include "../misc/lv_anim.h"
  20:lvgl/src/widgets/lv_dropdown.c **** #include "../misc/lv_math.h"
  21:lvgl/src/widgets/lv_dropdown.c **** #include "../misc/lv_txt_ap.h"
  22:lvgl/src/widgets/lv_dropdown.c **** #include <string.h>
  23:lvgl/src/widgets/lv_dropdown.c **** 
  24:lvgl/src/widgets/lv_dropdown.c **** /*********************
  25:lvgl/src/widgets/lv_dropdown.c ****  *      DEFINES
  26:lvgl/src/widgets/lv_dropdown.c ****  *********************/
  27:lvgl/src/widgets/lv_dropdown.c **** #define MY_CLASS &lv_dropdown_class
  28:lvgl/src/widgets/lv_dropdown.c **** #define MY_CLASS_LIST &lv_dropdownlist_class
  29:lvgl/src/widgets/lv_dropdown.c **** 
  30:lvgl/src/widgets/lv_dropdown.c **** #define LV_DROPDOWN_PR_NONE 0xFFFF
  31:lvgl/src/widgets/lv_dropdown.c **** 
ARM GAS  C:\Users\OSD\AppData\Local\Temp\cca5CFPq.s 			page 2


  32:lvgl/src/widgets/lv_dropdown.c **** /**********************
  33:lvgl/src/widgets/lv_dropdown.c ****  *      TYPEDEFS
  34:lvgl/src/widgets/lv_dropdown.c ****  **********************/
  35:lvgl/src/widgets/lv_dropdown.c **** 
  36:lvgl/src/widgets/lv_dropdown.c **** /**********************
  37:lvgl/src/widgets/lv_dropdown.c ****  *  STATIC PROTOTYPES
  38:lvgl/src/widgets/lv_dropdown.c ****  **********************/
  39:lvgl/src/widgets/lv_dropdown.c **** static lv_obj_t * lv_dropdown_list_create(lv_obj_t * parent);
  40:lvgl/src/widgets/lv_dropdown.c **** static void lv_dropdown_constructor(const lv_obj_class_t * class_p, lv_obj_t * obj);
  41:lvgl/src/widgets/lv_dropdown.c **** static void lv_dropdown_destructor(const lv_obj_class_t * class_p, lv_obj_t * obj);
  42:lvgl/src/widgets/lv_dropdown.c **** static void lv_dropdown_event(const lv_obj_class_t * class_p, lv_event_t * e);
  43:lvgl/src/widgets/lv_dropdown.c **** static void draw_main(lv_event_t * e);
  44:lvgl/src/widgets/lv_dropdown.c **** 
  45:lvgl/src/widgets/lv_dropdown.c **** static void lv_dropdownlist_constructor(const lv_obj_class_t * class_p, lv_obj_t * obj);
  46:lvgl/src/widgets/lv_dropdown.c **** static void lv_dropdownlist_destructor(const lv_obj_class_t * class_p, lv_obj_t * list_obj);
  47:lvgl/src/widgets/lv_dropdown.c **** static void lv_dropdown_list_event(const lv_obj_class_t * class_p, lv_event_t * e);
  48:lvgl/src/widgets/lv_dropdown.c **** static void draw_list(lv_event_t * e);
  49:lvgl/src/widgets/lv_dropdown.c **** 
  50:lvgl/src/widgets/lv_dropdown.c **** static void draw_box(lv_obj_t * dropdown_obj, lv_draw_ctx_t * draw_ctx, uint16_t id, lv_state_t sta
  51:lvgl/src/widgets/lv_dropdown.c **** static void draw_box_label(lv_obj_t * dropdown_obj, lv_draw_ctx_t * draw_ctx, uint16_t id, lv_state
  52:lvgl/src/widgets/lv_dropdown.c **** static lv_res_t btn_release_handler(lv_obj_t * obj);
  53:lvgl/src/widgets/lv_dropdown.c **** static lv_res_t list_release_handler(lv_obj_t * list_obj);
  54:lvgl/src/widgets/lv_dropdown.c **** static void list_press_handler(lv_obj_t * page);
  55:lvgl/src/widgets/lv_dropdown.c **** static uint16_t get_id_on_point(lv_obj_t * dropdown_obj, lv_coord_t y);
  56:lvgl/src/widgets/lv_dropdown.c **** static void position_to_selected(lv_obj_t * obj);
  57:lvgl/src/widgets/lv_dropdown.c **** static lv_obj_t * get_label(const lv_obj_t * obj);
  58:lvgl/src/widgets/lv_dropdown.c **** 
  59:lvgl/src/widgets/lv_dropdown.c **** /**********************
  60:lvgl/src/widgets/lv_dropdown.c ****  *  STATIC VARIABLES
  61:lvgl/src/widgets/lv_dropdown.c ****  **********************/
  62:lvgl/src/widgets/lv_dropdown.c **** const lv_obj_class_t lv_dropdown_class = {
  63:lvgl/src/widgets/lv_dropdown.c ****     .constructor_cb = lv_dropdown_constructor,
  64:lvgl/src/widgets/lv_dropdown.c ****     .destructor_cb = lv_dropdown_destructor,
  65:lvgl/src/widgets/lv_dropdown.c ****     .event_cb = lv_dropdown_event,
  66:lvgl/src/widgets/lv_dropdown.c ****     .width_def = LV_DPI_DEF,
  67:lvgl/src/widgets/lv_dropdown.c ****     .height_def = LV_SIZE_CONTENT,
  68:lvgl/src/widgets/lv_dropdown.c ****     .instance_size = sizeof(lv_dropdown_t),
  69:lvgl/src/widgets/lv_dropdown.c ****     .editable = LV_OBJ_CLASS_EDITABLE_TRUE,
  70:lvgl/src/widgets/lv_dropdown.c ****     .group_def = LV_OBJ_CLASS_GROUP_DEF_TRUE,
  71:lvgl/src/widgets/lv_dropdown.c ****     .base_class = &lv_obj_class
  72:lvgl/src/widgets/lv_dropdown.c **** };
  73:lvgl/src/widgets/lv_dropdown.c **** 
  74:lvgl/src/widgets/lv_dropdown.c **** const lv_obj_class_t lv_dropdownlist_class = {
  75:lvgl/src/widgets/lv_dropdown.c ****     .constructor_cb = lv_dropdownlist_constructor,
  76:lvgl/src/widgets/lv_dropdown.c ****     .destructor_cb = lv_dropdownlist_destructor,
  77:lvgl/src/widgets/lv_dropdown.c ****     .event_cb = lv_dropdown_list_event,
  78:lvgl/src/widgets/lv_dropdown.c ****     .instance_size = sizeof(lv_dropdown_list_t),
  79:lvgl/src/widgets/lv_dropdown.c ****     .base_class = &lv_obj_class
  80:lvgl/src/widgets/lv_dropdown.c **** };
  81:lvgl/src/widgets/lv_dropdown.c **** 
  82:lvgl/src/widgets/lv_dropdown.c **** /**********************
  83:lvgl/src/widgets/lv_dropdown.c ****  *      MACROS
  84:lvgl/src/widgets/lv_dropdown.c ****  **********************/
  85:lvgl/src/widgets/lv_dropdown.c **** 
  86:lvgl/src/widgets/lv_dropdown.c **** /**********************
  87:lvgl/src/widgets/lv_dropdown.c ****  *   GLOBAL FUNCTIONS
  88:lvgl/src/widgets/lv_dropdown.c ****  **********************/
ARM GAS  C:\Users\OSD\AppData\Local\Temp\cca5CFPq.s 			page 3


  89:lvgl/src/widgets/lv_dropdown.c **** 
  90:lvgl/src/widgets/lv_dropdown.c **** lv_obj_t * lv_dropdown_create(lv_obj_t * parent)
  91:lvgl/src/widgets/lv_dropdown.c **** {
  92:lvgl/src/widgets/lv_dropdown.c ****     LV_LOG_INFO("begin");
  93:lvgl/src/widgets/lv_dropdown.c ****     lv_obj_t * obj = lv_obj_class_create_obj(&lv_dropdown_class, parent);
  94:lvgl/src/widgets/lv_dropdown.c ****     lv_obj_class_init_obj(obj);
  95:lvgl/src/widgets/lv_dropdown.c ****     return obj;
  96:lvgl/src/widgets/lv_dropdown.c **** }
  97:lvgl/src/widgets/lv_dropdown.c **** 
  98:lvgl/src/widgets/lv_dropdown.c **** /*=====================
  99:lvgl/src/widgets/lv_dropdown.c ****  * Setter functions
 100:lvgl/src/widgets/lv_dropdown.c ****  *====================*/
 101:lvgl/src/widgets/lv_dropdown.c **** 
 102:lvgl/src/widgets/lv_dropdown.c **** void lv_dropdown_set_text(lv_obj_t * obj, const char * txt)
 103:lvgl/src/widgets/lv_dropdown.c **** {
 104:lvgl/src/widgets/lv_dropdown.c ****     LV_ASSERT_OBJ(obj, MY_CLASS);
 105:lvgl/src/widgets/lv_dropdown.c ****     lv_dropdown_t * dropdown = (lv_dropdown_t *)obj;
 106:lvgl/src/widgets/lv_dropdown.c ****     if(dropdown->text == txt) return;
 107:lvgl/src/widgets/lv_dropdown.c **** 
 108:lvgl/src/widgets/lv_dropdown.c ****     dropdown->text = txt;
 109:lvgl/src/widgets/lv_dropdown.c **** 
 110:lvgl/src/widgets/lv_dropdown.c ****     lv_obj_invalidate(obj);
 111:lvgl/src/widgets/lv_dropdown.c **** }
 112:lvgl/src/widgets/lv_dropdown.c **** 
 113:lvgl/src/widgets/lv_dropdown.c **** void lv_dropdown_set_options(lv_obj_t * obj, const char * options)
 114:lvgl/src/widgets/lv_dropdown.c **** {
 115:lvgl/src/widgets/lv_dropdown.c ****     LV_ASSERT_OBJ(obj, MY_CLASS);
 116:lvgl/src/widgets/lv_dropdown.c ****     LV_ASSERT_NULL(options);
 117:lvgl/src/widgets/lv_dropdown.c **** 
 118:lvgl/src/widgets/lv_dropdown.c ****     lv_dropdown_t * dropdown = (lv_dropdown_t *)obj;
 119:lvgl/src/widgets/lv_dropdown.c **** 
 120:lvgl/src/widgets/lv_dropdown.c ****     /*Count the '\n'-s to determine the number of options*/
 121:lvgl/src/widgets/lv_dropdown.c ****     dropdown->option_cnt = 0;
 122:lvgl/src/widgets/lv_dropdown.c ****     uint32_t i;
 123:lvgl/src/widgets/lv_dropdown.c ****     for(i = 0; options[i] != '\0'; i++) {
 124:lvgl/src/widgets/lv_dropdown.c ****         if(options[i] == '\n') dropdown->option_cnt++;
 125:lvgl/src/widgets/lv_dropdown.c ****     }
 126:lvgl/src/widgets/lv_dropdown.c ****     dropdown->option_cnt++;   /*Last option has no `\n`*/
 127:lvgl/src/widgets/lv_dropdown.c ****     dropdown->sel_opt_id      = 0;
 128:lvgl/src/widgets/lv_dropdown.c ****     dropdown->sel_opt_id_orig = 0;
 129:lvgl/src/widgets/lv_dropdown.c **** 
 130:lvgl/src/widgets/lv_dropdown.c ****     /*Allocate space for the new text*/
 131:lvgl/src/widgets/lv_dropdown.c **** #if LV_USE_ARABIC_PERSIAN_CHARS == 0
 132:lvgl/src/widgets/lv_dropdown.c ****     size_t len = strlen(options) + 1;
 133:lvgl/src/widgets/lv_dropdown.c **** #else
 134:lvgl/src/widgets/lv_dropdown.c ****     size_t len = _lv_txt_ap_calc_bytes_cnt(options) + 1;
 135:lvgl/src/widgets/lv_dropdown.c **** #endif
 136:lvgl/src/widgets/lv_dropdown.c **** 
 137:lvgl/src/widgets/lv_dropdown.c ****     if(dropdown->options != NULL && dropdown->static_txt == 0) {
 138:lvgl/src/widgets/lv_dropdown.c ****         lv_mem_free(dropdown->options);
 139:lvgl/src/widgets/lv_dropdown.c ****         dropdown->options = NULL;
 140:lvgl/src/widgets/lv_dropdown.c ****     }
 141:lvgl/src/widgets/lv_dropdown.c **** 
 142:lvgl/src/widgets/lv_dropdown.c ****     dropdown->options = lv_mem_alloc(len);
 143:lvgl/src/widgets/lv_dropdown.c **** 
 144:lvgl/src/widgets/lv_dropdown.c ****     LV_ASSERT_MALLOC(dropdown->options);
 145:lvgl/src/widgets/lv_dropdown.c ****     if(dropdown->options == NULL) return;
ARM GAS  C:\Users\OSD\AppData\Local\Temp\cca5CFPq.s 			page 4


 146:lvgl/src/widgets/lv_dropdown.c **** 
 147:lvgl/src/widgets/lv_dropdown.c **** #if LV_USE_ARABIC_PERSIAN_CHARS == 0
 148:lvgl/src/widgets/lv_dropdown.c ****     strcpy(dropdown->options, options);
 149:lvgl/src/widgets/lv_dropdown.c **** #else
 150:lvgl/src/widgets/lv_dropdown.c ****     _lv_txt_ap_proc(options, dropdown->options);
 151:lvgl/src/widgets/lv_dropdown.c **** #endif
 152:lvgl/src/widgets/lv_dropdown.c **** 
 153:lvgl/src/widgets/lv_dropdown.c ****     /*Now the text is dynamically allocated*/
 154:lvgl/src/widgets/lv_dropdown.c ****     dropdown->static_txt = 0;
 155:lvgl/src/widgets/lv_dropdown.c **** 
 156:lvgl/src/widgets/lv_dropdown.c ****     lv_obj_invalidate(obj);
 157:lvgl/src/widgets/lv_dropdown.c ****     if(dropdown->list) lv_obj_invalidate(dropdown->list);
 158:lvgl/src/widgets/lv_dropdown.c **** }
 159:lvgl/src/widgets/lv_dropdown.c **** 
 160:lvgl/src/widgets/lv_dropdown.c **** void lv_dropdown_set_options_static(lv_obj_t * obj, const char * options)
 161:lvgl/src/widgets/lv_dropdown.c **** {
 162:lvgl/src/widgets/lv_dropdown.c ****     LV_ASSERT_OBJ(obj, MY_CLASS);
 163:lvgl/src/widgets/lv_dropdown.c ****     LV_ASSERT_NULL(options);
 164:lvgl/src/widgets/lv_dropdown.c **** 
 165:lvgl/src/widgets/lv_dropdown.c ****     lv_dropdown_t * dropdown = (lv_dropdown_t *)obj;
 166:lvgl/src/widgets/lv_dropdown.c **** 
 167:lvgl/src/widgets/lv_dropdown.c ****     /*Count the '\n'-s to determine the number of options*/
 168:lvgl/src/widgets/lv_dropdown.c ****     dropdown->option_cnt = 0;
 169:lvgl/src/widgets/lv_dropdown.c ****     uint32_t i;
 170:lvgl/src/widgets/lv_dropdown.c ****     for(i = 0; options[i] != '\0'; i++) {
 171:lvgl/src/widgets/lv_dropdown.c ****         if(options[i] == '\n') dropdown->option_cnt++;
 172:lvgl/src/widgets/lv_dropdown.c ****     }
 173:lvgl/src/widgets/lv_dropdown.c ****     dropdown->option_cnt++;   /*Last option has no `\n`*/
 174:lvgl/src/widgets/lv_dropdown.c ****     dropdown->sel_opt_id      = 0;
 175:lvgl/src/widgets/lv_dropdown.c ****     dropdown->sel_opt_id_orig = 0;
 176:lvgl/src/widgets/lv_dropdown.c **** 
 177:lvgl/src/widgets/lv_dropdown.c ****     if(dropdown->static_txt == 0 && dropdown->options != NULL) {
 178:lvgl/src/widgets/lv_dropdown.c ****         lv_mem_free(dropdown->options);
 179:lvgl/src/widgets/lv_dropdown.c ****         dropdown->options = NULL;
 180:lvgl/src/widgets/lv_dropdown.c ****     }
 181:lvgl/src/widgets/lv_dropdown.c **** 
 182:lvgl/src/widgets/lv_dropdown.c ****     dropdown->static_txt = 1;
 183:lvgl/src/widgets/lv_dropdown.c ****     dropdown->options = (char *)options;
 184:lvgl/src/widgets/lv_dropdown.c **** 
 185:lvgl/src/widgets/lv_dropdown.c ****     lv_obj_invalidate(obj);
 186:lvgl/src/widgets/lv_dropdown.c ****     if(dropdown->list) lv_obj_invalidate(dropdown->list);
 187:lvgl/src/widgets/lv_dropdown.c **** }
 188:lvgl/src/widgets/lv_dropdown.c **** 
 189:lvgl/src/widgets/lv_dropdown.c **** void lv_dropdown_add_option(lv_obj_t * obj, const char * option, uint32_t pos)
 190:lvgl/src/widgets/lv_dropdown.c **** {
 191:lvgl/src/widgets/lv_dropdown.c ****     LV_ASSERT_OBJ(obj, MY_CLASS);
 192:lvgl/src/widgets/lv_dropdown.c ****     LV_ASSERT_NULL(option);
 193:lvgl/src/widgets/lv_dropdown.c **** 
 194:lvgl/src/widgets/lv_dropdown.c ****     lv_dropdown_t * dropdown = (lv_dropdown_t *)obj;
 195:lvgl/src/widgets/lv_dropdown.c **** 
 196:lvgl/src/widgets/lv_dropdown.c ****     /*Convert static options to dynamic*/
 197:lvgl/src/widgets/lv_dropdown.c ****     if(dropdown->static_txt != 0) {
 198:lvgl/src/widgets/lv_dropdown.c ****         char * static_options = dropdown->options;
 199:lvgl/src/widgets/lv_dropdown.c ****         size_t len = strlen(static_options) + 1;
 200:lvgl/src/widgets/lv_dropdown.c **** 
 201:lvgl/src/widgets/lv_dropdown.c ****         dropdown->options = lv_mem_alloc(len);
 202:lvgl/src/widgets/lv_dropdown.c ****         LV_ASSERT_MALLOC(dropdown->options);
ARM GAS  C:\Users\OSD\AppData\Local\Temp\cca5CFPq.s 			page 5


 203:lvgl/src/widgets/lv_dropdown.c ****         if(dropdown->options == NULL) return;
 204:lvgl/src/widgets/lv_dropdown.c **** 
 205:lvgl/src/widgets/lv_dropdown.c ****         strcpy(dropdown->options, static_options);
 206:lvgl/src/widgets/lv_dropdown.c ****         dropdown->static_txt = 0;
 207:lvgl/src/widgets/lv_dropdown.c ****     }
 208:lvgl/src/widgets/lv_dropdown.c **** 
 209:lvgl/src/widgets/lv_dropdown.c ****     /*Allocate space for the new option*/
 210:lvgl/src/widgets/lv_dropdown.c ****     size_t old_len = (dropdown->options == NULL) ? 0 : strlen(dropdown->options);
 211:lvgl/src/widgets/lv_dropdown.c **** #if LV_USE_ARABIC_PERSIAN_CHARS == 0
 212:lvgl/src/widgets/lv_dropdown.c ****     size_t ins_len = strlen(option) + 1;
 213:lvgl/src/widgets/lv_dropdown.c **** #else
 214:lvgl/src/widgets/lv_dropdown.c ****     size_t ins_len = _lv_txt_ap_calc_bytes_cnt(option) + 1;
 215:lvgl/src/widgets/lv_dropdown.c **** #endif
 216:lvgl/src/widgets/lv_dropdown.c **** 
 217:lvgl/src/widgets/lv_dropdown.c ****     size_t new_len = ins_len + old_len + 2; /*+2 for terminating NULL and possible \n*/
 218:lvgl/src/widgets/lv_dropdown.c ****     dropdown->options        = lv_mem_realloc(dropdown->options, new_len + 1);
 219:lvgl/src/widgets/lv_dropdown.c ****     LV_ASSERT_MALLOC(dropdown->options);
 220:lvgl/src/widgets/lv_dropdown.c ****     if(dropdown->options == NULL) return;
 221:lvgl/src/widgets/lv_dropdown.c **** 
 222:lvgl/src/widgets/lv_dropdown.c ****     dropdown->options[old_len] = '\0';
 223:lvgl/src/widgets/lv_dropdown.c **** 
 224:lvgl/src/widgets/lv_dropdown.c ****     /*Find the insert character position*/
 225:lvgl/src/widgets/lv_dropdown.c ****     uint32_t insert_pos = old_len;
 226:lvgl/src/widgets/lv_dropdown.c ****     if(pos != LV_DROPDOWN_POS_LAST) {
 227:lvgl/src/widgets/lv_dropdown.c ****         uint32_t opcnt = 0;
 228:lvgl/src/widgets/lv_dropdown.c ****         for(insert_pos = 0; dropdown->options[insert_pos] != 0; insert_pos++) {
 229:lvgl/src/widgets/lv_dropdown.c ****             if(opcnt == pos)
 230:lvgl/src/widgets/lv_dropdown.c ****                 break;
 231:lvgl/src/widgets/lv_dropdown.c ****             if(dropdown->options[insert_pos] == '\n')
 232:lvgl/src/widgets/lv_dropdown.c ****                 opcnt++;
 233:lvgl/src/widgets/lv_dropdown.c ****         }
 234:lvgl/src/widgets/lv_dropdown.c ****     }
 235:lvgl/src/widgets/lv_dropdown.c **** 
 236:lvgl/src/widgets/lv_dropdown.c ****     /*Add delimiter to existing options*/
 237:lvgl/src/widgets/lv_dropdown.c ****     if((insert_pos > 0) && (pos >= dropdown->option_cnt))
 238:lvgl/src/widgets/lv_dropdown.c ****         _lv_txt_ins(dropdown->options, _lv_txt_encoded_get_char_id(dropdown->options, insert_pos++)
 239:lvgl/src/widgets/lv_dropdown.c **** 
 240:lvgl/src/widgets/lv_dropdown.c ****     /*Insert the new option, adding \n if necessary*/
 241:lvgl/src/widgets/lv_dropdown.c ****     char * ins_buf = lv_mem_buf_get(ins_len + 2); /*+ 2 for terminating NULL and possible \n*/
 242:lvgl/src/widgets/lv_dropdown.c ****     LV_ASSERT_MALLOC(ins_buf);
 243:lvgl/src/widgets/lv_dropdown.c ****     if(ins_buf == NULL) return;
 244:lvgl/src/widgets/lv_dropdown.c **** #if LV_USE_ARABIC_PERSIAN_CHARS == 0
 245:lvgl/src/widgets/lv_dropdown.c ****     strcpy(ins_buf, option);
 246:lvgl/src/widgets/lv_dropdown.c **** #else
 247:lvgl/src/widgets/lv_dropdown.c ****     _lv_txt_ap_proc(option, ins_buf);
 248:lvgl/src/widgets/lv_dropdown.c **** #endif
 249:lvgl/src/widgets/lv_dropdown.c ****     if(pos < dropdown->option_cnt) strcat(ins_buf, "\n");
 250:lvgl/src/widgets/lv_dropdown.c **** 
 251:lvgl/src/widgets/lv_dropdown.c ****     _lv_txt_ins(dropdown->options, _lv_txt_encoded_get_char_id(dropdown->options, insert_pos), ins_
 252:lvgl/src/widgets/lv_dropdown.c ****     lv_mem_buf_release(ins_buf);
 253:lvgl/src/widgets/lv_dropdown.c **** 
 254:lvgl/src/widgets/lv_dropdown.c ****     dropdown->option_cnt++;
 255:lvgl/src/widgets/lv_dropdown.c **** 
 256:lvgl/src/widgets/lv_dropdown.c ****     lv_obj_invalidate(obj);
 257:lvgl/src/widgets/lv_dropdown.c ****     if(dropdown->list) lv_obj_invalidate(dropdown->list);
 258:lvgl/src/widgets/lv_dropdown.c **** }
 259:lvgl/src/widgets/lv_dropdown.c **** 
ARM GAS  C:\Users\OSD\AppData\Local\Temp\cca5CFPq.s 			page 6


 260:lvgl/src/widgets/lv_dropdown.c **** void lv_dropdown_clear_options(lv_obj_t * obj)
 261:lvgl/src/widgets/lv_dropdown.c **** {
 262:lvgl/src/widgets/lv_dropdown.c ****     LV_ASSERT_OBJ(obj, MY_CLASS);
 263:lvgl/src/widgets/lv_dropdown.c ****     lv_dropdown_t * dropdown = (lv_dropdown_t *)obj;
 264:lvgl/src/widgets/lv_dropdown.c ****     if(dropdown->options == NULL) return;
 265:lvgl/src/widgets/lv_dropdown.c **** 
 266:lvgl/src/widgets/lv_dropdown.c ****     if(dropdown->static_txt == 0)
 267:lvgl/src/widgets/lv_dropdown.c ****         lv_mem_free(dropdown->options);
 268:lvgl/src/widgets/lv_dropdown.c **** 
 269:lvgl/src/widgets/lv_dropdown.c ****     dropdown->options = NULL;
 270:lvgl/src/widgets/lv_dropdown.c ****     dropdown->static_txt = 0;
 271:lvgl/src/widgets/lv_dropdown.c ****     dropdown->option_cnt = 0;
 272:lvgl/src/widgets/lv_dropdown.c **** 
 273:lvgl/src/widgets/lv_dropdown.c ****     lv_obj_invalidate(obj);
 274:lvgl/src/widgets/lv_dropdown.c ****     if(dropdown->list) lv_obj_invalidate(dropdown->list);
 275:lvgl/src/widgets/lv_dropdown.c **** }
 276:lvgl/src/widgets/lv_dropdown.c **** 
 277:lvgl/src/widgets/lv_dropdown.c **** void lv_dropdown_set_selected(lv_obj_t * obj, uint16_t sel_opt)
 278:lvgl/src/widgets/lv_dropdown.c **** {
 279:lvgl/src/widgets/lv_dropdown.c ****     LV_ASSERT_OBJ(obj, MY_CLASS);
 280:lvgl/src/widgets/lv_dropdown.c **** 
 281:lvgl/src/widgets/lv_dropdown.c ****     lv_dropdown_t * dropdown = (lv_dropdown_t *)obj;
 282:lvgl/src/widgets/lv_dropdown.c ****     if(dropdown->sel_opt_id == sel_opt) return;
 283:lvgl/src/widgets/lv_dropdown.c **** 
 284:lvgl/src/widgets/lv_dropdown.c ****     dropdown->sel_opt_id      = sel_opt < dropdown->option_cnt ? sel_opt : dropdown->option_cnt - 1
 285:lvgl/src/widgets/lv_dropdown.c ****     dropdown->sel_opt_id_orig = dropdown->sel_opt_id;
 286:lvgl/src/widgets/lv_dropdown.c **** 
 287:lvgl/src/widgets/lv_dropdown.c ****     if(dropdown->list) {
 288:lvgl/src/widgets/lv_dropdown.c ****         position_to_selected(obj);
 289:lvgl/src/widgets/lv_dropdown.c ****     }
 290:lvgl/src/widgets/lv_dropdown.c **** 
 291:lvgl/src/widgets/lv_dropdown.c ****     lv_obj_invalidate(obj);
 292:lvgl/src/widgets/lv_dropdown.c **** }
 293:lvgl/src/widgets/lv_dropdown.c **** 
 294:lvgl/src/widgets/lv_dropdown.c **** void lv_dropdown_set_dir(lv_obj_t * obj, lv_dir_t dir)
 295:lvgl/src/widgets/lv_dropdown.c **** {
 296:lvgl/src/widgets/lv_dropdown.c ****     LV_ASSERT_OBJ(obj, MY_CLASS);
 297:lvgl/src/widgets/lv_dropdown.c **** 
 298:lvgl/src/widgets/lv_dropdown.c ****     lv_dropdown_t * dropdown = (lv_dropdown_t *)obj;
 299:lvgl/src/widgets/lv_dropdown.c ****     if(dropdown->dir == dir) return;
 300:lvgl/src/widgets/lv_dropdown.c **** 
 301:lvgl/src/widgets/lv_dropdown.c ****     dropdown->dir = dir;
 302:lvgl/src/widgets/lv_dropdown.c **** 
 303:lvgl/src/widgets/lv_dropdown.c ****     lv_obj_invalidate(obj);
 304:lvgl/src/widgets/lv_dropdown.c **** }
 305:lvgl/src/widgets/lv_dropdown.c **** 
 306:lvgl/src/widgets/lv_dropdown.c **** void lv_dropdown_set_symbol(lv_obj_t * obj, const void * symbol)
 307:lvgl/src/widgets/lv_dropdown.c **** {
 308:lvgl/src/widgets/lv_dropdown.c ****     LV_ASSERT_OBJ(obj, MY_CLASS);
 309:lvgl/src/widgets/lv_dropdown.c **** 
 310:lvgl/src/widgets/lv_dropdown.c ****     lv_dropdown_t * dropdown = (lv_dropdown_t *)obj;
 311:lvgl/src/widgets/lv_dropdown.c ****     dropdown->symbol = symbol;
 312:lvgl/src/widgets/lv_dropdown.c ****     lv_obj_invalidate(obj);
 313:lvgl/src/widgets/lv_dropdown.c **** }
 314:lvgl/src/widgets/lv_dropdown.c **** 
 315:lvgl/src/widgets/lv_dropdown.c **** void lv_dropdown_set_selected_highlight(lv_obj_t * obj, bool en)
 316:lvgl/src/widgets/lv_dropdown.c **** {
ARM GAS  C:\Users\OSD\AppData\Local\Temp\cca5CFPq.s 			page 7


 317:lvgl/src/widgets/lv_dropdown.c ****     LV_ASSERT_OBJ(obj, MY_CLASS);
 318:lvgl/src/widgets/lv_dropdown.c **** 
 319:lvgl/src/widgets/lv_dropdown.c ****     lv_dropdown_t * dropdown = (lv_dropdown_t *)obj;
 320:lvgl/src/widgets/lv_dropdown.c ****     dropdown->selected_highlight = en;
 321:lvgl/src/widgets/lv_dropdown.c ****     if(dropdown->list) lv_obj_invalidate(dropdown->list);
 322:lvgl/src/widgets/lv_dropdown.c **** }
 323:lvgl/src/widgets/lv_dropdown.c **** 
 324:lvgl/src/widgets/lv_dropdown.c **** /*=====================
 325:lvgl/src/widgets/lv_dropdown.c ****  * Getter functions
 326:lvgl/src/widgets/lv_dropdown.c ****  *====================*/
 327:lvgl/src/widgets/lv_dropdown.c **** 
 328:lvgl/src/widgets/lv_dropdown.c **** lv_obj_t * lv_dropdown_get_list(lv_obj_t * obj)
 329:lvgl/src/widgets/lv_dropdown.c **** {
 330:lvgl/src/widgets/lv_dropdown.c ****     LV_ASSERT_OBJ(obj, MY_CLASS);
 331:lvgl/src/widgets/lv_dropdown.c ****     lv_dropdown_t * dropdown = (lv_dropdown_t *)obj;
 332:lvgl/src/widgets/lv_dropdown.c **** 
 333:lvgl/src/widgets/lv_dropdown.c ****     return dropdown->list;
 334:lvgl/src/widgets/lv_dropdown.c **** }
 335:lvgl/src/widgets/lv_dropdown.c **** 
 336:lvgl/src/widgets/lv_dropdown.c **** const char * lv_dropdown_get_text(lv_obj_t * obj)
 337:lvgl/src/widgets/lv_dropdown.c **** {
 338:lvgl/src/widgets/lv_dropdown.c ****     LV_ASSERT_OBJ(obj, MY_CLASS);
 339:lvgl/src/widgets/lv_dropdown.c ****     lv_dropdown_t * dropdown = (lv_dropdown_t *)obj;
 340:lvgl/src/widgets/lv_dropdown.c **** 
 341:lvgl/src/widgets/lv_dropdown.c ****     return dropdown->text;
 342:lvgl/src/widgets/lv_dropdown.c **** }
 343:lvgl/src/widgets/lv_dropdown.c **** 
 344:lvgl/src/widgets/lv_dropdown.c **** const char * lv_dropdown_get_options(const lv_obj_t * obj)
 345:lvgl/src/widgets/lv_dropdown.c **** {
 346:lvgl/src/widgets/lv_dropdown.c ****     LV_ASSERT_OBJ(obj, MY_CLASS);
 347:lvgl/src/widgets/lv_dropdown.c **** 
 348:lvgl/src/widgets/lv_dropdown.c ****     lv_dropdown_t * dropdown = (lv_dropdown_t *)obj;
 349:lvgl/src/widgets/lv_dropdown.c ****     return dropdown->options == NULL ? "" : dropdown->options;
 350:lvgl/src/widgets/lv_dropdown.c **** }
 351:lvgl/src/widgets/lv_dropdown.c **** 
 352:lvgl/src/widgets/lv_dropdown.c **** uint16_t lv_dropdown_get_selected(const lv_obj_t * obj)
 353:lvgl/src/widgets/lv_dropdown.c **** {
 354:lvgl/src/widgets/lv_dropdown.c ****     LV_ASSERT_OBJ(obj, MY_CLASS);
 355:lvgl/src/widgets/lv_dropdown.c **** 
 356:lvgl/src/widgets/lv_dropdown.c ****     lv_dropdown_t * dropdown = (lv_dropdown_t *)obj;
 357:lvgl/src/widgets/lv_dropdown.c **** 
 358:lvgl/src/widgets/lv_dropdown.c ****     return dropdown->sel_opt_id;
 359:lvgl/src/widgets/lv_dropdown.c **** }
 360:lvgl/src/widgets/lv_dropdown.c **** 
 361:lvgl/src/widgets/lv_dropdown.c **** uint16_t lv_dropdown_get_option_cnt(const lv_obj_t * obj)
 362:lvgl/src/widgets/lv_dropdown.c **** {
 363:lvgl/src/widgets/lv_dropdown.c ****     LV_ASSERT_OBJ(obj, MY_CLASS);
 364:lvgl/src/widgets/lv_dropdown.c **** 
 365:lvgl/src/widgets/lv_dropdown.c ****     lv_dropdown_t * dropdown = (lv_dropdown_t *)obj;
 366:lvgl/src/widgets/lv_dropdown.c **** 
 367:lvgl/src/widgets/lv_dropdown.c ****     return dropdown->option_cnt;
 368:lvgl/src/widgets/lv_dropdown.c **** }
 369:lvgl/src/widgets/lv_dropdown.c **** 
 370:lvgl/src/widgets/lv_dropdown.c **** void lv_dropdown_get_selected_str(const lv_obj_t * obj, char * buf, uint32_t buf_size)
 371:lvgl/src/widgets/lv_dropdown.c **** {
 372:lvgl/src/widgets/lv_dropdown.c ****     LV_ASSERT_OBJ(obj, MY_CLASS);
 373:lvgl/src/widgets/lv_dropdown.c **** 
ARM GAS  C:\Users\OSD\AppData\Local\Temp\cca5CFPq.s 			page 8


 374:lvgl/src/widgets/lv_dropdown.c ****     lv_dropdown_t * dropdown = (lv_dropdown_t *)obj;
 375:lvgl/src/widgets/lv_dropdown.c **** 
 376:lvgl/src/widgets/lv_dropdown.c ****     uint32_t i;
 377:lvgl/src/widgets/lv_dropdown.c ****     uint32_t line        = 0;
 378:lvgl/src/widgets/lv_dropdown.c ****     size_t txt_len;
 379:lvgl/src/widgets/lv_dropdown.c **** 
 380:lvgl/src/widgets/lv_dropdown.c ****     if(dropdown->options)  {
 381:lvgl/src/widgets/lv_dropdown.c ****         txt_len     = strlen(dropdown->options);
 382:lvgl/src/widgets/lv_dropdown.c ****     }
 383:lvgl/src/widgets/lv_dropdown.c ****     else {
 384:lvgl/src/widgets/lv_dropdown.c ****         buf[0] = '\0';
 385:lvgl/src/widgets/lv_dropdown.c ****         return;
 386:lvgl/src/widgets/lv_dropdown.c ****     }
 387:lvgl/src/widgets/lv_dropdown.c **** 
 388:lvgl/src/widgets/lv_dropdown.c ****     for(i = 0; i < txt_len && line != dropdown->sel_opt_id_orig; i++) {
 389:lvgl/src/widgets/lv_dropdown.c ****         if(dropdown->options[i] == '\n') line++;
 390:lvgl/src/widgets/lv_dropdown.c ****     }
 391:lvgl/src/widgets/lv_dropdown.c **** 
 392:lvgl/src/widgets/lv_dropdown.c ****     uint32_t c;
 393:lvgl/src/widgets/lv_dropdown.c ****     for(c = 0; i < txt_len && dropdown->options[i] != '\n'; c++, i++) {
 394:lvgl/src/widgets/lv_dropdown.c ****         if(buf_size && c >= buf_size - 1) {
 395:lvgl/src/widgets/lv_dropdown.c ****             LV_LOG_WARN("lv_dropdown_get_selected_str: the buffer was too small");
 396:lvgl/src/widgets/lv_dropdown.c ****             break;
 397:lvgl/src/widgets/lv_dropdown.c ****         }
 398:lvgl/src/widgets/lv_dropdown.c ****         buf[c] = dropdown->options[i];
 399:lvgl/src/widgets/lv_dropdown.c ****     }
 400:lvgl/src/widgets/lv_dropdown.c **** 
 401:lvgl/src/widgets/lv_dropdown.c ****     buf[c] = '\0';
 402:lvgl/src/widgets/lv_dropdown.c **** }
 403:lvgl/src/widgets/lv_dropdown.c **** 
 404:lvgl/src/widgets/lv_dropdown.c **** int32_t lv_dropdown_get_option_index(lv_obj_t * obj, const char * option)
 405:lvgl/src/widgets/lv_dropdown.c **** {
 406:lvgl/src/widgets/lv_dropdown.c ****     const char * opts = lv_dropdown_get_options(obj);
 407:lvgl/src/widgets/lv_dropdown.c ****     uint32_t char_i = 0;
 408:lvgl/src/widgets/lv_dropdown.c ****     uint32_t opt_i = 0;
 409:lvgl/src/widgets/lv_dropdown.c ****     uint32_t option_len = strlen(option);
 410:lvgl/src/widgets/lv_dropdown.c ****     const char * start = opts;
 411:lvgl/src/widgets/lv_dropdown.c **** 
 412:lvgl/src/widgets/lv_dropdown.c ****     while(start[char_i] != '\0') {
 413:lvgl/src/widgets/lv_dropdown.c ****         for(char_i = 0; (start[char_i] != '\n') && (start[char_i] != '\0'); char_i++);
 414:lvgl/src/widgets/lv_dropdown.c **** 
 415:lvgl/src/widgets/lv_dropdown.c ****         if(option_len == char_i && memcmp(start, option, LV_MIN(option_len, char_i)) == 0) {
 416:lvgl/src/widgets/lv_dropdown.c ****             return opt_i;
 417:lvgl/src/widgets/lv_dropdown.c ****         }
 418:lvgl/src/widgets/lv_dropdown.c **** 
 419:lvgl/src/widgets/lv_dropdown.c ****         start = &start[char_i];
 420:lvgl/src/widgets/lv_dropdown.c ****         if(start[0] == '\n') start++;
 421:lvgl/src/widgets/lv_dropdown.c ****         char_i = 0;
 422:lvgl/src/widgets/lv_dropdown.c ****         opt_i++;
 423:lvgl/src/widgets/lv_dropdown.c ****     }
 424:lvgl/src/widgets/lv_dropdown.c **** 
 425:lvgl/src/widgets/lv_dropdown.c ****     return -1;
 426:lvgl/src/widgets/lv_dropdown.c **** }
 427:lvgl/src/widgets/lv_dropdown.c **** 
 428:lvgl/src/widgets/lv_dropdown.c **** const char * lv_dropdown_get_symbol(lv_obj_t * obj)
 429:lvgl/src/widgets/lv_dropdown.c **** {
 430:lvgl/src/widgets/lv_dropdown.c ****     LV_ASSERT_OBJ(obj, MY_CLASS);
ARM GAS  C:\Users\OSD\AppData\Local\Temp\cca5CFPq.s 			page 9


 431:lvgl/src/widgets/lv_dropdown.c ****     lv_dropdown_t * dropdown = (lv_dropdown_t *)obj;
 432:lvgl/src/widgets/lv_dropdown.c ****     return dropdown->symbol;
 433:lvgl/src/widgets/lv_dropdown.c **** }
 434:lvgl/src/widgets/lv_dropdown.c **** 
 435:lvgl/src/widgets/lv_dropdown.c **** bool lv_dropdown_get_selected_highlight(lv_obj_t * obj)
 436:lvgl/src/widgets/lv_dropdown.c **** {
 437:lvgl/src/widgets/lv_dropdown.c ****     LV_ASSERT_OBJ(obj, MY_CLASS);
 438:lvgl/src/widgets/lv_dropdown.c ****     lv_dropdown_t * dropdown = (lv_dropdown_t *)obj;
 439:lvgl/src/widgets/lv_dropdown.c ****     return dropdown->selected_highlight;
 440:lvgl/src/widgets/lv_dropdown.c **** }
 441:lvgl/src/widgets/lv_dropdown.c **** 
 442:lvgl/src/widgets/lv_dropdown.c **** lv_dir_t lv_dropdown_get_dir(const lv_obj_t * obj)
 443:lvgl/src/widgets/lv_dropdown.c **** {
 444:lvgl/src/widgets/lv_dropdown.c ****     LV_ASSERT_OBJ(obj, MY_CLASS);
 445:lvgl/src/widgets/lv_dropdown.c ****     lv_dropdown_t * dropdown = (lv_dropdown_t *)obj;
 446:lvgl/src/widgets/lv_dropdown.c ****     return dropdown->dir;
 447:lvgl/src/widgets/lv_dropdown.c **** }
 448:lvgl/src/widgets/lv_dropdown.c **** 
 449:lvgl/src/widgets/lv_dropdown.c **** /*=====================
 450:lvgl/src/widgets/lv_dropdown.c ****  * Other functions
 451:lvgl/src/widgets/lv_dropdown.c ****  *====================*/
 452:lvgl/src/widgets/lv_dropdown.c **** 
 453:lvgl/src/widgets/lv_dropdown.c **** void lv_dropdown_open(lv_obj_t * dropdown_obj)
 454:lvgl/src/widgets/lv_dropdown.c **** {
 455:lvgl/src/widgets/lv_dropdown.c ****     LV_ASSERT_OBJ(dropdown_obj, MY_CLASS);
 456:lvgl/src/widgets/lv_dropdown.c **** 
 457:lvgl/src/widgets/lv_dropdown.c ****     lv_dropdown_t * dropdown = (lv_dropdown_t *)dropdown_obj;
 458:lvgl/src/widgets/lv_dropdown.c **** 
 459:lvgl/src/widgets/lv_dropdown.c ****     lv_obj_add_state(dropdown_obj, LV_STATE_CHECKED);
 460:lvgl/src/widgets/lv_dropdown.c ****     lv_obj_set_parent(dropdown->list, lv_obj_get_screen(dropdown_obj));
 461:lvgl/src/widgets/lv_dropdown.c ****     lv_obj_move_to_index(dropdown->list, -1);
 462:lvgl/src/widgets/lv_dropdown.c ****     lv_obj_clear_flag(dropdown->list, LV_OBJ_FLAG_HIDDEN);
 463:lvgl/src/widgets/lv_dropdown.c **** 
 464:lvgl/src/widgets/lv_dropdown.c ****     /*To allow styling the list*/
 465:lvgl/src/widgets/lv_dropdown.c ****     lv_event_send(dropdown_obj, LV_EVENT_READY, NULL);
 466:lvgl/src/widgets/lv_dropdown.c **** 
 467:lvgl/src/widgets/lv_dropdown.c ****     lv_obj_t * label = get_label(dropdown_obj);
 468:lvgl/src/widgets/lv_dropdown.c ****     lv_label_set_text_static(label, dropdown->options);
 469:lvgl/src/widgets/lv_dropdown.c ****     lv_obj_set_width(dropdown->list, LV_SIZE_CONTENT);
 470:lvgl/src/widgets/lv_dropdown.c **** 
 471:lvgl/src/widgets/lv_dropdown.c ****     lv_obj_update_layout(label);
 472:lvgl/src/widgets/lv_dropdown.c ****     /*Set smaller width to the width of the button*/
 473:lvgl/src/widgets/lv_dropdown.c ****     if(lv_obj_get_width(dropdown->list) <= lv_obj_get_width(dropdown_obj) &&
 474:lvgl/src/widgets/lv_dropdown.c ****        (dropdown->dir == LV_DIR_TOP || dropdown->dir == LV_DIR_BOTTOM)) {
 475:lvgl/src/widgets/lv_dropdown.c ****         lv_obj_set_width(dropdown->list, lv_obj_get_width(dropdown_obj));
 476:lvgl/src/widgets/lv_dropdown.c ****     }
 477:lvgl/src/widgets/lv_dropdown.c **** 
 478:lvgl/src/widgets/lv_dropdown.c ****     lv_coord_t label_h = lv_obj_get_height(label);
 479:lvgl/src/widgets/lv_dropdown.c ****     lv_coord_t border_width = lv_obj_get_style_border_width(dropdown->list, LV_PART_MAIN);
 480:lvgl/src/widgets/lv_dropdown.c ****     lv_coord_t top = lv_obj_get_style_pad_top(dropdown->list, LV_PART_MAIN) + border_width;
 481:lvgl/src/widgets/lv_dropdown.c ****     lv_coord_t bottom = lv_obj_get_style_pad_bottom(dropdown->list, LV_PART_MAIN) + border_width;
 482:lvgl/src/widgets/lv_dropdown.c **** 
 483:lvgl/src/widgets/lv_dropdown.c ****     lv_coord_t list_fit_h = label_h + top + bottom;
 484:lvgl/src/widgets/lv_dropdown.c ****     lv_coord_t list_h = list_fit_h;
 485:lvgl/src/widgets/lv_dropdown.c **** 
 486:lvgl/src/widgets/lv_dropdown.c ****     lv_dir_t dir = dropdown->dir;
 487:lvgl/src/widgets/lv_dropdown.c ****     /*No space on the bottom? See if top is better.*/
ARM GAS  C:\Users\OSD\AppData\Local\Temp\cca5CFPq.s 			page 10


 488:lvgl/src/widgets/lv_dropdown.c ****     if(dropdown->dir == LV_DIR_BOTTOM) {
 489:lvgl/src/widgets/lv_dropdown.c ****         if(dropdown_obj->coords.y2 + list_h > LV_VER_RES) {
 490:lvgl/src/widgets/lv_dropdown.c ****             if(dropdown_obj->coords.y1 > LV_VER_RES - dropdown_obj->coords.y2) {
 491:lvgl/src/widgets/lv_dropdown.c ****                 /*There is more space on the top, so make it drop up*/
 492:lvgl/src/widgets/lv_dropdown.c ****                 dir = LV_DIR_TOP;
 493:lvgl/src/widgets/lv_dropdown.c ****                 list_h = dropdown_obj->coords.y1 - 1;
 494:lvgl/src/widgets/lv_dropdown.c ****             }
 495:lvgl/src/widgets/lv_dropdown.c ****             else {
 496:lvgl/src/widgets/lv_dropdown.c ****                 list_h = LV_VER_RES - dropdown_obj->coords.y2 - 1 ;
 497:lvgl/src/widgets/lv_dropdown.c ****             }
 498:lvgl/src/widgets/lv_dropdown.c ****         }
 499:lvgl/src/widgets/lv_dropdown.c ****     }
 500:lvgl/src/widgets/lv_dropdown.c ****     /*No space on the top? See if bottom is better.*/
 501:lvgl/src/widgets/lv_dropdown.c ****     else if(dropdown->dir == LV_DIR_TOP) {
 502:lvgl/src/widgets/lv_dropdown.c ****         if(dropdown_obj->coords.y1 - list_h < 0) {
 503:lvgl/src/widgets/lv_dropdown.c ****             if(dropdown_obj->coords.y1 < LV_VER_RES - dropdown_obj->coords.y2) {
 504:lvgl/src/widgets/lv_dropdown.c ****                 /*There is more space on the top, so make it drop up*/
 505:lvgl/src/widgets/lv_dropdown.c ****                 dir = LV_DIR_BOTTOM;
 506:lvgl/src/widgets/lv_dropdown.c ****                 list_h = LV_VER_RES - dropdown_obj->coords.y2;
 507:lvgl/src/widgets/lv_dropdown.c ****             }
 508:lvgl/src/widgets/lv_dropdown.c ****             else {
 509:lvgl/src/widgets/lv_dropdown.c ****                 list_h = dropdown_obj->coords.y1;
 510:lvgl/src/widgets/lv_dropdown.c ****             }
 511:lvgl/src/widgets/lv_dropdown.c ****         }
 512:lvgl/src/widgets/lv_dropdown.c ****     }
 513:lvgl/src/widgets/lv_dropdown.c **** 
 514:lvgl/src/widgets/lv_dropdown.c ****     if(list_h > list_fit_h) list_h = list_fit_h;
 515:lvgl/src/widgets/lv_dropdown.c ****     lv_obj_set_height(dropdown->list, list_h);
 516:lvgl/src/widgets/lv_dropdown.c **** 
 517:lvgl/src/widgets/lv_dropdown.c ****     position_to_selected(dropdown_obj);
 518:lvgl/src/widgets/lv_dropdown.c **** 
 519:lvgl/src/widgets/lv_dropdown.c ****     if(dir == LV_DIR_BOTTOM)     lv_obj_align_to(dropdown->list, dropdown_obj, LV_ALIGN_OUT_BOTTOM_
 520:lvgl/src/widgets/lv_dropdown.c ****     else if(dir == LV_DIR_TOP)   lv_obj_align_to(dropdown->list, dropdown_obj, LV_ALIGN_OUT_TOP_LEF
 521:lvgl/src/widgets/lv_dropdown.c ****     else if(dir == LV_DIR_LEFT)  lv_obj_align_to(dropdown->list, dropdown_obj, LV_ALIGN_OUT_LEFT_TO
 522:lvgl/src/widgets/lv_dropdown.c ****     else if(dir == LV_DIR_RIGHT) lv_obj_align_to(dropdown->list, dropdown_obj, LV_ALIGN_OUT_RIGHT_T
 523:lvgl/src/widgets/lv_dropdown.c **** 
 524:lvgl/src/widgets/lv_dropdown.c ****     lv_obj_update_layout(dropdown->list);
 525:lvgl/src/widgets/lv_dropdown.c **** 
 526:lvgl/src/widgets/lv_dropdown.c ****     if(dropdown->dir == LV_DIR_LEFT || dropdown->dir == LV_DIR_RIGHT) {
 527:lvgl/src/widgets/lv_dropdown.c ****         lv_coord_t y1 = lv_obj_get_y(dropdown->list);
 528:lvgl/src/widgets/lv_dropdown.c ****         lv_coord_t y2 = lv_obj_get_y2(dropdown->list);
 529:lvgl/src/widgets/lv_dropdown.c ****         if(y2 >= LV_VER_RES) {
 530:lvgl/src/widgets/lv_dropdown.c ****             lv_obj_set_y(dropdown->list, y1 - (y2 - LV_VER_RES) - 1);
 531:lvgl/src/widgets/lv_dropdown.c ****         }
 532:lvgl/src/widgets/lv_dropdown.c ****     }
 533:lvgl/src/widgets/lv_dropdown.c **** 
 534:lvgl/src/widgets/lv_dropdown.c ****     lv_text_align_t align = lv_obj_calculate_style_text_align(label, LV_PART_MAIN, dropdown->option
 535:lvgl/src/widgets/lv_dropdown.c **** 
 536:lvgl/src/widgets/lv_dropdown.c ****     switch(align) {
 537:lvgl/src/widgets/lv_dropdown.c ****         default:
 538:lvgl/src/widgets/lv_dropdown.c ****         case LV_TEXT_ALIGN_LEFT:
 539:lvgl/src/widgets/lv_dropdown.c ****             lv_obj_align(label, LV_ALIGN_TOP_LEFT, 0, 0);
 540:lvgl/src/widgets/lv_dropdown.c ****             break;
 541:lvgl/src/widgets/lv_dropdown.c ****         case LV_TEXT_ALIGN_RIGHT:
 542:lvgl/src/widgets/lv_dropdown.c ****             lv_obj_align(label, LV_ALIGN_TOP_RIGHT, 0, 0);
 543:lvgl/src/widgets/lv_dropdown.c ****             break;
 544:lvgl/src/widgets/lv_dropdown.c ****         case LV_TEXT_ALIGN_CENTER:
ARM GAS  C:\Users\OSD\AppData\Local\Temp\cca5CFPq.s 			page 11


 545:lvgl/src/widgets/lv_dropdown.c ****             lv_obj_align(label, LV_ALIGN_TOP_MID, 0, 0);
 546:lvgl/src/widgets/lv_dropdown.c ****             break;
 547:lvgl/src/widgets/lv_dropdown.c **** 
 548:lvgl/src/widgets/lv_dropdown.c ****     }
 549:lvgl/src/widgets/lv_dropdown.c **** }
 550:lvgl/src/widgets/lv_dropdown.c **** 
 551:lvgl/src/widgets/lv_dropdown.c **** void lv_dropdown_close(lv_obj_t * obj)
 552:lvgl/src/widgets/lv_dropdown.c **** {
 553:lvgl/src/widgets/lv_dropdown.c ****     LV_ASSERT_OBJ(obj, MY_CLASS);
 554:lvgl/src/widgets/lv_dropdown.c **** 
 555:lvgl/src/widgets/lv_dropdown.c ****     lv_obj_clear_state(obj, LV_STATE_CHECKED);
 556:lvgl/src/widgets/lv_dropdown.c ****     lv_dropdown_t * dropdown = (lv_dropdown_t *)obj;
 557:lvgl/src/widgets/lv_dropdown.c **** 
 558:lvgl/src/widgets/lv_dropdown.c ****     dropdown->pr_opt_id = LV_DROPDOWN_PR_NONE;
 559:lvgl/src/widgets/lv_dropdown.c ****     lv_obj_add_flag(dropdown->list, LV_OBJ_FLAG_HIDDEN);
 560:lvgl/src/widgets/lv_dropdown.c **** 
 561:lvgl/src/widgets/lv_dropdown.c ****     lv_event_send(obj, LV_EVENT_CANCEL, NULL);
 562:lvgl/src/widgets/lv_dropdown.c **** }
 563:lvgl/src/widgets/lv_dropdown.c **** 
 564:lvgl/src/widgets/lv_dropdown.c **** bool lv_dropdown_is_open(lv_obj_t * obj)
 565:lvgl/src/widgets/lv_dropdown.c **** {
 566:lvgl/src/widgets/lv_dropdown.c ****     LV_ASSERT_OBJ(obj, MY_CLASS);
 567:lvgl/src/widgets/lv_dropdown.c ****     lv_dropdown_t * dropdown = (lv_dropdown_t *)obj;
 568:lvgl/src/widgets/lv_dropdown.c **** 
 569:lvgl/src/widgets/lv_dropdown.c ****     return lv_obj_has_flag(dropdown->list, LV_OBJ_FLAG_HIDDEN) ? false : true;
 570:lvgl/src/widgets/lv_dropdown.c **** }
 571:lvgl/src/widgets/lv_dropdown.c **** 
 572:lvgl/src/widgets/lv_dropdown.c **** /**********************
 573:lvgl/src/widgets/lv_dropdown.c ****  *   STATIC FUNCTIONS
 574:lvgl/src/widgets/lv_dropdown.c ****  **********************/
 575:lvgl/src/widgets/lv_dropdown.c **** 
 576:lvgl/src/widgets/lv_dropdown.c **** static lv_obj_t * lv_dropdown_list_create(lv_obj_t * parent)
 577:lvgl/src/widgets/lv_dropdown.c **** {
 578:lvgl/src/widgets/lv_dropdown.c ****     LV_LOG_INFO("begin");
 579:lvgl/src/widgets/lv_dropdown.c ****     lv_obj_t * obj = lv_obj_class_create_obj(&lv_dropdownlist_class, parent);
 580:lvgl/src/widgets/lv_dropdown.c ****     lv_obj_class_init_obj(obj);
 581:lvgl/src/widgets/lv_dropdown.c ****     return obj;
 582:lvgl/src/widgets/lv_dropdown.c **** }
 583:lvgl/src/widgets/lv_dropdown.c **** 
 584:lvgl/src/widgets/lv_dropdown.c **** static void lv_dropdown_constructor(const lv_obj_class_t * class_p, lv_obj_t * obj)
 585:lvgl/src/widgets/lv_dropdown.c **** {
 586:lvgl/src/widgets/lv_dropdown.c ****     LV_UNUSED(class_p);
 587:lvgl/src/widgets/lv_dropdown.c ****     LV_TRACE_OBJ_CREATE("begin");
 588:lvgl/src/widgets/lv_dropdown.c **** 
 589:lvgl/src/widgets/lv_dropdown.c ****     lv_dropdown_t * dropdown = (lv_dropdown_t *)obj;
 590:lvgl/src/widgets/lv_dropdown.c **** 
 591:lvgl/src/widgets/lv_dropdown.c ****     /*Initialize the allocated 'ext'*/
 592:lvgl/src/widgets/lv_dropdown.c ****     dropdown->list          = NULL;
 593:lvgl/src/widgets/lv_dropdown.c ****     dropdown->options     = NULL;
 594:lvgl/src/widgets/lv_dropdown.c ****     dropdown->symbol         = LV_SYMBOL_DOWN;
 595:lvgl/src/widgets/lv_dropdown.c ****     dropdown->text         = NULL;
 596:lvgl/src/widgets/lv_dropdown.c ****     dropdown->static_txt = 1;
 597:lvgl/src/widgets/lv_dropdown.c ****     dropdown->selected_highlight = 1;
 598:lvgl/src/widgets/lv_dropdown.c ****     dropdown->sel_opt_id      = 0;
 599:lvgl/src/widgets/lv_dropdown.c ****     dropdown->sel_opt_id_orig = 0;
 600:lvgl/src/widgets/lv_dropdown.c ****     dropdown->pr_opt_id = LV_DROPDOWN_PR_NONE;
 601:lvgl/src/widgets/lv_dropdown.c ****     dropdown->option_cnt      = 0;
ARM GAS  C:\Users\OSD\AppData\Local\Temp\cca5CFPq.s 			page 12


 602:lvgl/src/widgets/lv_dropdown.c ****     dropdown->dir = LV_DIR_BOTTOM;
 603:lvgl/src/widgets/lv_dropdown.c **** 
 604:lvgl/src/widgets/lv_dropdown.c ****     lv_obj_add_flag(obj, LV_OBJ_FLAG_SCROLL_ON_FOCUS);
 605:lvgl/src/widgets/lv_dropdown.c ****     lv_dropdown_set_options_static(obj, "Option 1\nOption 2\nOption 3");
 606:lvgl/src/widgets/lv_dropdown.c **** 
 607:lvgl/src/widgets/lv_dropdown.c ****     dropdown->list = lv_dropdown_list_create(lv_obj_get_screen(obj));
 608:lvgl/src/widgets/lv_dropdown.c ****     lv_dropdown_list_t * list = (lv_dropdown_list_t *)dropdown->list;
 609:lvgl/src/widgets/lv_dropdown.c ****     list->dropdown = obj;
 610:lvgl/src/widgets/lv_dropdown.c **** 
 611:lvgl/src/widgets/lv_dropdown.c ****     LV_TRACE_OBJ_CREATE("finished");
 612:lvgl/src/widgets/lv_dropdown.c **** }
 613:lvgl/src/widgets/lv_dropdown.c **** 
 614:lvgl/src/widgets/lv_dropdown.c **** static void lv_dropdown_destructor(const lv_obj_class_t * class_p, lv_obj_t * obj)
 615:lvgl/src/widgets/lv_dropdown.c **** {
 616:lvgl/src/widgets/lv_dropdown.c ****     LV_UNUSED(class_p);
 617:lvgl/src/widgets/lv_dropdown.c ****     lv_dropdown_t * dropdown = (lv_dropdown_t *)obj;
 618:lvgl/src/widgets/lv_dropdown.c **** 
 619:lvgl/src/widgets/lv_dropdown.c ****     if(dropdown->list) {
 620:lvgl/src/widgets/lv_dropdown.c ****         lv_obj_del(dropdown->list);
 621:lvgl/src/widgets/lv_dropdown.c ****         dropdown->list = NULL;
 622:lvgl/src/widgets/lv_dropdown.c ****     }
 623:lvgl/src/widgets/lv_dropdown.c **** 
 624:lvgl/src/widgets/lv_dropdown.c ****     if(!dropdown->static_txt) {
 625:lvgl/src/widgets/lv_dropdown.c ****         lv_mem_free(dropdown->options);
 626:lvgl/src/widgets/lv_dropdown.c ****         dropdown->options = NULL;
 627:lvgl/src/widgets/lv_dropdown.c ****     }
 628:lvgl/src/widgets/lv_dropdown.c **** }
 629:lvgl/src/widgets/lv_dropdown.c **** 
 630:lvgl/src/widgets/lv_dropdown.c **** static void lv_dropdownlist_constructor(const lv_obj_class_t * class_p, lv_obj_t * obj)
 631:lvgl/src/widgets/lv_dropdown.c **** {
 632:lvgl/src/widgets/lv_dropdown.c ****     LV_UNUSED(class_p);
 633:lvgl/src/widgets/lv_dropdown.c ****     LV_TRACE_OBJ_CREATE("begin");
 634:lvgl/src/widgets/lv_dropdown.c **** 
 635:lvgl/src/widgets/lv_dropdown.c ****     lv_obj_clear_flag(obj, LV_OBJ_FLAG_SCROLL_ON_FOCUS);
 636:lvgl/src/widgets/lv_dropdown.c ****     lv_obj_clear_flag(obj, LV_OBJ_FLAG_CLICK_FOCUSABLE);
 637:lvgl/src/widgets/lv_dropdown.c ****     lv_obj_add_flag(obj, LV_OBJ_FLAG_IGNORE_LAYOUT);
 638:lvgl/src/widgets/lv_dropdown.c ****     lv_obj_add_flag(obj, LV_OBJ_FLAG_HIDDEN);
 639:lvgl/src/widgets/lv_dropdown.c **** 
 640:lvgl/src/widgets/lv_dropdown.c ****     lv_label_create(obj);
 641:lvgl/src/widgets/lv_dropdown.c **** 
 642:lvgl/src/widgets/lv_dropdown.c ****     LV_TRACE_OBJ_CREATE("finished");
 643:lvgl/src/widgets/lv_dropdown.c **** }
 644:lvgl/src/widgets/lv_dropdown.c **** 
 645:lvgl/src/widgets/lv_dropdown.c **** static void lv_dropdownlist_destructor(const lv_obj_class_t * class_p, lv_obj_t * list_obj)
 646:lvgl/src/widgets/lv_dropdown.c **** {
  28              		.loc 1 646 1 view -0
  29              		.cfi_startproc
  30              		@ args = 0, pretend = 0, frame = 0
  31              		@ frame_needed = 0, uses_anonymous_args = 0
  32              		@ link register save eliminated.
 647:lvgl/src/widgets/lv_dropdown.c ****     LV_UNUSED(class_p);
  33              		.loc 1 647 5 view .LVU1
 648:lvgl/src/widgets/lv_dropdown.c ****     lv_dropdown_list_t * list = (lv_dropdown_list_t *)list_obj;
  34              		.loc 1 648 5 view .LVU2
 649:lvgl/src/widgets/lv_dropdown.c ****     lv_obj_t * dropdown_obj = list->dropdown;
  35              		.loc 1 649 5 view .LVU3
  36              		.loc 1 649 16 is_stmt 0 view .LVU4
ARM GAS  C:\Users\OSD\AppData\Local\Temp\cca5CFPq.s 			page 13


  37 0000 4B6A     		ldr	r3, [r1, #36]
  38              	.LVL1:
 650:lvgl/src/widgets/lv_dropdown.c ****     lv_dropdown_t * dropdown = (lv_dropdown_t *)dropdown_obj;
  39              		.loc 1 650 5 is_stmt 1 view .LVU5
 651:lvgl/src/widgets/lv_dropdown.c ****     dropdown->list = NULL;
  40              		.loc 1 651 5 view .LVU6
  41              		.loc 1 651 20 is_stmt 0 view .LVU7
  42 0002 0022     		movs	r2, #0
  43 0004 5A62     		str	r2, [r3, #36]
 652:lvgl/src/widgets/lv_dropdown.c **** }
  44              		.loc 1 652 1 view .LVU8
  45 0006 7047     		bx	lr
  46              		.cfi_endproc
  47              	.LFE194:
  49              		.section	.text.get_label,"ax",%progbits
  50              		.align	1
  51              		.syntax unified
  52              		.thumb
  53              		.thumb_func
  55              	get_label:
  56              	.LVL2:
  57              	.LFB206:
 653:lvgl/src/widgets/lv_dropdown.c **** 
 654:lvgl/src/widgets/lv_dropdown.c **** static void lv_dropdown_event(const lv_obj_class_t * class_p, lv_event_t * e)
 655:lvgl/src/widgets/lv_dropdown.c **** {
 656:lvgl/src/widgets/lv_dropdown.c ****     LV_UNUSED(class_p);
 657:lvgl/src/widgets/lv_dropdown.c **** 
 658:lvgl/src/widgets/lv_dropdown.c ****     lv_res_t res;
 659:lvgl/src/widgets/lv_dropdown.c **** 
 660:lvgl/src/widgets/lv_dropdown.c ****     /*Call the ancestor's event handler*/
 661:lvgl/src/widgets/lv_dropdown.c ****     res = lv_obj_event_base(MY_CLASS, e);
 662:lvgl/src/widgets/lv_dropdown.c ****     if(res != LV_RES_OK) return;
 663:lvgl/src/widgets/lv_dropdown.c **** 
 664:lvgl/src/widgets/lv_dropdown.c ****     lv_event_code_t code = lv_event_get_code(e);
 665:lvgl/src/widgets/lv_dropdown.c ****     lv_obj_t * obj = lv_event_get_target(e);
 666:lvgl/src/widgets/lv_dropdown.c ****     lv_dropdown_t * dropdown = (lv_dropdown_t *)obj;
 667:lvgl/src/widgets/lv_dropdown.c **** 
 668:lvgl/src/widgets/lv_dropdown.c ****     if(code == LV_EVENT_FOCUSED) {
 669:lvgl/src/widgets/lv_dropdown.c ****         lv_group_t * g             = lv_obj_get_group(obj);
 670:lvgl/src/widgets/lv_dropdown.c ****         bool editing               = lv_group_get_editing(g);
 671:lvgl/src/widgets/lv_dropdown.c ****         lv_indev_type_t indev_type = lv_indev_get_type(lv_indev_get_act());
 672:lvgl/src/widgets/lv_dropdown.c **** 
 673:lvgl/src/widgets/lv_dropdown.c ****         /*Encoders need special handling*/
 674:lvgl/src/widgets/lv_dropdown.c ****         if(indev_type == LV_INDEV_TYPE_ENCODER) {
 675:lvgl/src/widgets/lv_dropdown.c ****             /*Open the list if editing*/
 676:lvgl/src/widgets/lv_dropdown.c ****             if(editing) {
 677:lvgl/src/widgets/lv_dropdown.c ****                 lv_dropdown_open(obj);
 678:lvgl/src/widgets/lv_dropdown.c ****             }
 679:lvgl/src/widgets/lv_dropdown.c ****             /*Close the list if navigating*/
 680:lvgl/src/widgets/lv_dropdown.c ****             else {
 681:lvgl/src/widgets/lv_dropdown.c ****                 dropdown->sel_opt_id = dropdown->sel_opt_id_orig;
 682:lvgl/src/widgets/lv_dropdown.c ****                 lv_dropdown_close(obj);
 683:lvgl/src/widgets/lv_dropdown.c ****             }
 684:lvgl/src/widgets/lv_dropdown.c ****         }
 685:lvgl/src/widgets/lv_dropdown.c ****     }
 686:lvgl/src/widgets/lv_dropdown.c ****     else if(code == LV_EVENT_DEFOCUSED || code == LV_EVENT_LEAVE) {
 687:lvgl/src/widgets/lv_dropdown.c ****         lv_dropdown_close(obj);
ARM GAS  C:\Users\OSD\AppData\Local\Temp\cca5CFPq.s 			page 14


 688:lvgl/src/widgets/lv_dropdown.c ****     }
 689:lvgl/src/widgets/lv_dropdown.c ****     else if(code == LV_EVENT_RELEASED) {
 690:lvgl/src/widgets/lv_dropdown.c ****         res = btn_release_handler(obj);
 691:lvgl/src/widgets/lv_dropdown.c ****         if(res != LV_RES_OK) return;
 692:lvgl/src/widgets/lv_dropdown.c ****     }
 693:lvgl/src/widgets/lv_dropdown.c ****     else if(code == LV_EVENT_STYLE_CHANGED) {
 694:lvgl/src/widgets/lv_dropdown.c ****         lv_obj_refresh_self_size(obj);
 695:lvgl/src/widgets/lv_dropdown.c ****     }
 696:lvgl/src/widgets/lv_dropdown.c ****     else if(code == LV_EVENT_SIZE_CHANGED) {
 697:lvgl/src/widgets/lv_dropdown.c ****         lv_obj_refresh_self_size(obj);
 698:lvgl/src/widgets/lv_dropdown.c ****     }
 699:lvgl/src/widgets/lv_dropdown.c ****     else if(code == LV_EVENT_GET_SELF_SIZE) {
 700:lvgl/src/widgets/lv_dropdown.c ****         lv_point_t * p = lv_event_get_param(e);
 701:lvgl/src/widgets/lv_dropdown.c ****         const lv_font_t * font = lv_obj_get_style_text_font(obj, LV_PART_MAIN);
 702:lvgl/src/widgets/lv_dropdown.c ****         p->y = lv_font_get_line_height(font);
 703:lvgl/src/widgets/lv_dropdown.c ****     }
 704:lvgl/src/widgets/lv_dropdown.c ****     else if(code == LV_EVENT_KEY) {
 705:lvgl/src/widgets/lv_dropdown.c ****         char c = *((char *)lv_event_get_param(e));
 706:lvgl/src/widgets/lv_dropdown.c ****         if(c == LV_KEY_RIGHT || c == LV_KEY_DOWN) {
 707:lvgl/src/widgets/lv_dropdown.c ****             if(!lv_dropdown_is_open(obj)) {
 708:lvgl/src/widgets/lv_dropdown.c ****                 lv_dropdown_open(obj);
 709:lvgl/src/widgets/lv_dropdown.c ****             }
 710:lvgl/src/widgets/lv_dropdown.c ****             else if(dropdown->sel_opt_id + 1 < dropdown->option_cnt) {
 711:lvgl/src/widgets/lv_dropdown.c ****                 dropdown->sel_opt_id++;
 712:lvgl/src/widgets/lv_dropdown.c ****                 position_to_selected(obj);
 713:lvgl/src/widgets/lv_dropdown.c ****             }
 714:lvgl/src/widgets/lv_dropdown.c ****         }
 715:lvgl/src/widgets/lv_dropdown.c ****         else if(c == LV_KEY_LEFT || c == LV_KEY_UP) {
 716:lvgl/src/widgets/lv_dropdown.c **** 
 717:lvgl/src/widgets/lv_dropdown.c ****             if(!lv_dropdown_is_open(obj)) {
 718:lvgl/src/widgets/lv_dropdown.c ****                 lv_dropdown_open(obj);
 719:lvgl/src/widgets/lv_dropdown.c ****             }
 720:lvgl/src/widgets/lv_dropdown.c ****             else if(dropdown->sel_opt_id > 0) {
 721:lvgl/src/widgets/lv_dropdown.c ****                 dropdown->sel_opt_id--;
 722:lvgl/src/widgets/lv_dropdown.c ****                 position_to_selected(obj);
 723:lvgl/src/widgets/lv_dropdown.c ****             }
 724:lvgl/src/widgets/lv_dropdown.c ****         }
 725:lvgl/src/widgets/lv_dropdown.c ****         else if(c == LV_KEY_ESC) {
 726:lvgl/src/widgets/lv_dropdown.c ****             dropdown->sel_opt_id = dropdown->sel_opt_id_orig;
 727:lvgl/src/widgets/lv_dropdown.c ****             lv_dropdown_close(obj);
 728:lvgl/src/widgets/lv_dropdown.c ****         }
 729:lvgl/src/widgets/lv_dropdown.c ****         else if(c == LV_KEY_ENTER) {
 730:lvgl/src/widgets/lv_dropdown.c ****             /* Handle the ENTER key only if it was send by an other object.
 731:lvgl/src/widgets/lv_dropdown.c ****              * Do no process it if ENTER is sent by the dropdown because it's handled in LV_EVENT_R
 732:lvgl/src/widgets/lv_dropdown.c ****             lv_obj_t * indev_obj = lv_indev_get_obj_act();
 733:lvgl/src/widgets/lv_dropdown.c ****             if(indev_obj != obj) {
 734:lvgl/src/widgets/lv_dropdown.c ****                 res = btn_release_handler(obj);
 735:lvgl/src/widgets/lv_dropdown.c ****                 if(res != LV_RES_OK) return;
 736:lvgl/src/widgets/lv_dropdown.c ****             }
 737:lvgl/src/widgets/lv_dropdown.c ****         }
 738:lvgl/src/widgets/lv_dropdown.c ****     }
 739:lvgl/src/widgets/lv_dropdown.c ****     else if(code == LV_EVENT_DRAW_MAIN) {
 740:lvgl/src/widgets/lv_dropdown.c ****         draw_main(e);
 741:lvgl/src/widgets/lv_dropdown.c ****     }
 742:lvgl/src/widgets/lv_dropdown.c **** }
 743:lvgl/src/widgets/lv_dropdown.c **** 
 744:lvgl/src/widgets/lv_dropdown.c **** static void lv_dropdown_list_event(const lv_obj_class_t * class_p, lv_event_t * e)
ARM GAS  C:\Users\OSD\AppData\Local\Temp\cca5CFPq.s 			page 15


 745:lvgl/src/widgets/lv_dropdown.c **** {
 746:lvgl/src/widgets/lv_dropdown.c ****     LV_UNUSED(class_p);
 747:lvgl/src/widgets/lv_dropdown.c **** 
 748:lvgl/src/widgets/lv_dropdown.c ****     lv_res_t res;
 749:lvgl/src/widgets/lv_dropdown.c **** 
 750:lvgl/src/widgets/lv_dropdown.c ****     /*Call the ancestor's event handler*/
 751:lvgl/src/widgets/lv_dropdown.c ****     lv_event_code_t code = lv_event_get_code(e);
 752:lvgl/src/widgets/lv_dropdown.c ****     if(code != LV_EVENT_DRAW_POST) {
 753:lvgl/src/widgets/lv_dropdown.c ****         res = lv_obj_event_base(MY_CLASS_LIST, e);
 754:lvgl/src/widgets/lv_dropdown.c ****         if(res != LV_RES_OK) return;
 755:lvgl/src/widgets/lv_dropdown.c ****     }
 756:lvgl/src/widgets/lv_dropdown.c ****     lv_obj_t * list = lv_event_get_target(e);
 757:lvgl/src/widgets/lv_dropdown.c ****     lv_obj_t * dropdown_obj = ((lv_dropdown_list_t *)list)->dropdown;
 758:lvgl/src/widgets/lv_dropdown.c ****     lv_dropdown_t * dropdown = (lv_dropdown_t *)dropdown_obj;
 759:lvgl/src/widgets/lv_dropdown.c **** 
 760:lvgl/src/widgets/lv_dropdown.c ****     if(code == LV_EVENT_RELEASED) {
 761:lvgl/src/widgets/lv_dropdown.c ****         if(lv_indev_get_scroll_obj(lv_indev_get_act()) == NULL) {
 762:lvgl/src/widgets/lv_dropdown.c ****             list_release_handler(list);
 763:lvgl/src/widgets/lv_dropdown.c ****         }
 764:lvgl/src/widgets/lv_dropdown.c ****     }
 765:lvgl/src/widgets/lv_dropdown.c ****     else if(code == LV_EVENT_PRESSED) {
 766:lvgl/src/widgets/lv_dropdown.c ****         list_press_handler(list);
 767:lvgl/src/widgets/lv_dropdown.c ****     }
 768:lvgl/src/widgets/lv_dropdown.c ****     else if(code == LV_EVENT_SCROLL_BEGIN) {
 769:lvgl/src/widgets/lv_dropdown.c ****         dropdown->pr_opt_id = LV_DROPDOWN_PR_NONE;
 770:lvgl/src/widgets/lv_dropdown.c ****         lv_obj_invalidate(list);
 771:lvgl/src/widgets/lv_dropdown.c ****     }
 772:lvgl/src/widgets/lv_dropdown.c ****     else if(code == LV_EVENT_DRAW_POST) {
 773:lvgl/src/widgets/lv_dropdown.c ****         draw_list(e);
 774:lvgl/src/widgets/lv_dropdown.c ****         res = lv_obj_event_base(MY_CLASS_LIST, e);
 775:lvgl/src/widgets/lv_dropdown.c ****         if(res != LV_RES_OK) return;
 776:lvgl/src/widgets/lv_dropdown.c ****     }
 777:lvgl/src/widgets/lv_dropdown.c **** }
 778:lvgl/src/widgets/lv_dropdown.c **** 
 779:lvgl/src/widgets/lv_dropdown.c **** static void draw_main(lv_event_t * e)
 780:lvgl/src/widgets/lv_dropdown.c **** {
 781:lvgl/src/widgets/lv_dropdown.c ****     lv_obj_t * obj = lv_event_get_target(e);
 782:lvgl/src/widgets/lv_dropdown.c ****     lv_dropdown_t * dropdown = (lv_dropdown_t *)obj;
 783:lvgl/src/widgets/lv_dropdown.c ****     lv_draw_ctx_t * draw_ctx = lv_event_get_draw_ctx(e);
 784:lvgl/src/widgets/lv_dropdown.c **** 
 785:lvgl/src/widgets/lv_dropdown.c ****     lv_coord_t border_width = lv_obj_get_style_border_width(obj, LV_PART_MAIN);
 786:lvgl/src/widgets/lv_dropdown.c ****     lv_coord_t left = lv_obj_get_style_pad_left(obj, LV_PART_MAIN) + border_width;
 787:lvgl/src/widgets/lv_dropdown.c ****     lv_coord_t right = lv_obj_get_style_pad_right(obj, LV_PART_MAIN) + border_width;
 788:lvgl/src/widgets/lv_dropdown.c ****     lv_coord_t top = lv_obj_get_style_pad_top(obj, LV_PART_MAIN) + border_width;
 789:lvgl/src/widgets/lv_dropdown.c **** 
 790:lvgl/src/widgets/lv_dropdown.c ****     lv_draw_label_dsc_t symbol_dsc;
 791:lvgl/src/widgets/lv_dropdown.c ****     lv_draw_label_dsc_init(&symbol_dsc);
 792:lvgl/src/widgets/lv_dropdown.c ****     lv_obj_init_draw_label_dsc(obj, LV_PART_INDICATOR, &symbol_dsc);
 793:lvgl/src/widgets/lv_dropdown.c **** 
 794:lvgl/src/widgets/lv_dropdown.c ****     /*If no text specified use the selected option*/
 795:lvgl/src/widgets/lv_dropdown.c ****     const char * opt_txt;
 796:lvgl/src/widgets/lv_dropdown.c ****     if(dropdown->text) opt_txt = dropdown->text;
 797:lvgl/src/widgets/lv_dropdown.c ****     else {
 798:lvgl/src/widgets/lv_dropdown.c ****         char * buf = lv_mem_buf_get(128);
 799:lvgl/src/widgets/lv_dropdown.c ****         lv_dropdown_get_selected_str(obj, buf, 128);
 800:lvgl/src/widgets/lv_dropdown.c ****         opt_txt = buf;
 801:lvgl/src/widgets/lv_dropdown.c ****     }
ARM GAS  C:\Users\OSD\AppData\Local\Temp\cca5CFPq.s 			page 16


 802:lvgl/src/widgets/lv_dropdown.c **** 
 803:lvgl/src/widgets/lv_dropdown.c ****     bool symbol_to_left = false;
 804:lvgl/src/widgets/lv_dropdown.c ****     if(dropdown->dir == LV_DIR_LEFT) symbol_to_left = true;
 805:lvgl/src/widgets/lv_dropdown.c ****     if(lv_obj_get_style_base_dir(obj, LV_PART_MAIN) == LV_BASE_DIR_RTL) symbol_to_left = true;
 806:lvgl/src/widgets/lv_dropdown.c **** 
 807:lvgl/src/widgets/lv_dropdown.c ****     if(dropdown->symbol) {
 808:lvgl/src/widgets/lv_dropdown.c ****         lv_img_src_t symbol_type = lv_img_src_get_type(dropdown->symbol);
 809:lvgl/src/widgets/lv_dropdown.c ****         lv_coord_t symbol_w;
 810:lvgl/src/widgets/lv_dropdown.c ****         lv_coord_t symbol_h;
 811:lvgl/src/widgets/lv_dropdown.c ****         if(symbol_type == LV_IMG_SRC_SYMBOL) {
 812:lvgl/src/widgets/lv_dropdown.c ****             lv_point_t size;
 813:lvgl/src/widgets/lv_dropdown.c ****             lv_txt_get_size(&size, dropdown->symbol, symbol_dsc.font, symbol_dsc.letter_space, symb
 814:lvgl/src/widgets/lv_dropdown.c ****                             symbol_dsc.flag);
 815:lvgl/src/widgets/lv_dropdown.c ****             symbol_w = size.x;
 816:lvgl/src/widgets/lv_dropdown.c ****             symbol_h = size.y;
 817:lvgl/src/widgets/lv_dropdown.c ****         }
 818:lvgl/src/widgets/lv_dropdown.c ****         else {
 819:lvgl/src/widgets/lv_dropdown.c ****             lv_img_header_t header;
 820:lvgl/src/widgets/lv_dropdown.c ****             lv_res_t res = lv_img_decoder_get_info(dropdown->symbol, &header);
 821:lvgl/src/widgets/lv_dropdown.c ****             if(res == LV_RES_OK) {
 822:lvgl/src/widgets/lv_dropdown.c ****                 symbol_w = header.w;
 823:lvgl/src/widgets/lv_dropdown.c ****                 symbol_h = header.h;
 824:lvgl/src/widgets/lv_dropdown.c ****             }
 825:lvgl/src/widgets/lv_dropdown.c ****             else {
 826:lvgl/src/widgets/lv_dropdown.c ****                 symbol_w = -1;
 827:lvgl/src/widgets/lv_dropdown.c ****                 symbol_h = -1;
 828:lvgl/src/widgets/lv_dropdown.c ****             }
 829:lvgl/src/widgets/lv_dropdown.c ****         }
 830:lvgl/src/widgets/lv_dropdown.c **** 
 831:lvgl/src/widgets/lv_dropdown.c ****         lv_area_t symbol_area;
 832:lvgl/src/widgets/lv_dropdown.c ****         if(symbol_to_left) {
 833:lvgl/src/widgets/lv_dropdown.c ****             symbol_area.x1 = obj->coords.x1 + left;
 834:lvgl/src/widgets/lv_dropdown.c ****             symbol_area.x2 = symbol_area.x1 + symbol_w - 1;
 835:lvgl/src/widgets/lv_dropdown.c ****         }
 836:lvgl/src/widgets/lv_dropdown.c ****         else {
 837:lvgl/src/widgets/lv_dropdown.c ****             symbol_area.x1 = obj->coords.x2 - right - symbol_w;
 838:lvgl/src/widgets/lv_dropdown.c ****             symbol_area.x2 = symbol_area.x1 + symbol_w - 1;
 839:lvgl/src/widgets/lv_dropdown.c ****         }
 840:lvgl/src/widgets/lv_dropdown.c **** 
 841:lvgl/src/widgets/lv_dropdown.c ****         if(symbol_type == LV_IMG_SRC_SYMBOL) {
 842:lvgl/src/widgets/lv_dropdown.c ****             symbol_area.y1 = obj->coords.y1 + top;
 843:lvgl/src/widgets/lv_dropdown.c ****             symbol_area.y2 = symbol_area.y1 + symbol_h - 1;
 844:lvgl/src/widgets/lv_dropdown.c ****             lv_draw_label(draw_ctx, &symbol_dsc, &symbol_area, dropdown->symbol, NULL);
 845:lvgl/src/widgets/lv_dropdown.c ****         }
 846:lvgl/src/widgets/lv_dropdown.c ****         else {
 847:lvgl/src/widgets/lv_dropdown.c ****             symbol_area.y1 = obj->coords.y1 + (lv_obj_get_height(obj) - symbol_h) / 2;
 848:lvgl/src/widgets/lv_dropdown.c ****             symbol_area.y2 = symbol_area.y1 + symbol_h - 1;
 849:lvgl/src/widgets/lv_dropdown.c ****             lv_draw_img_dsc_t img_dsc;
 850:lvgl/src/widgets/lv_dropdown.c ****             lv_draw_img_dsc_init(&img_dsc);
 851:lvgl/src/widgets/lv_dropdown.c ****             lv_obj_init_draw_img_dsc(obj, LV_PART_INDICATOR, &img_dsc);
 852:lvgl/src/widgets/lv_dropdown.c ****             img_dsc.pivot.x = symbol_w / 2;
 853:lvgl/src/widgets/lv_dropdown.c ****             img_dsc.pivot.y = symbol_h / 2;
 854:lvgl/src/widgets/lv_dropdown.c ****             img_dsc.angle = lv_obj_get_style_transform_angle(obj, LV_PART_INDICATOR);
 855:lvgl/src/widgets/lv_dropdown.c ****             lv_draw_img(draw_ctx, &img_dsc, &symbol_area, dropdown->symbol);
 856:lvgl/src/widgets/lv_dropdown.c ****         }
 857:lvgl/src/widgets/lv_dropdown.c ****     }
 858:lvgl/src/widgets/lv_dropdown.c **** 
ARM GAS  C:\Users\OSD\AppData\Local\Temp\cca5CFPq.s 			page 17


 859:lvgl/src/widgets/lv_dropdown.c ****     lv_draw_label_dsc_t label_dsc;
 860:lvgl/src/widgets/lv_dropdown.c ****     lv_draw_label_dsc_init(&label_dsc);
 861:lvgl/src/widgets/lv_dropdown.c ****     lv_obj_init_draw_label_dsc(obj, LV_PART_MAIN, &label_dsc);
 862:lvgl/src/widgets/lv_dropdown.c **** 
 863:lvgl/src/widgets/lv_dropdown.c ****     lv_point_t size;
 864:lvgl/src/widgets/lv_dropdown.c ****     lv_txt_get_size(&size, opt_txt, label_dsc.font, label_dsc.letter_space, label_dsc.line_space, L
 865:lvgl/src/widgets/lv_dropdown.c ****                     label_dsc.flag);
 866:lvgl/src/widgets/lv_dropdown.c **** 
 867:lvgl/src/widgets/lv_dropdown.c ****     lv_area_t txt_area;
 868:lvgl/src/widgets/lv_dropdown.c ****     txt_area.y1 = obj->coords.y1 + top;
 869:lvgl/src/widgets/lv_dropdown.c ****     txt_area.y2 = txt_area.y1 + size.y;
 870:lvgl/src/widgets/lv_dropdown.c ****     /*Center align the text if no symbol*/
 871:lvgl/src/widgets/lv_dropdown.c ****     if(dropdown->symbol == NULL) {
 872:lvgl/src/widgets/lv_dropdown.c ****         txt_area.x1 = obj->coords.x1 + (lv_obj_get_width(obj) - size.x) / 2;
 873:lvgl/src/widgets/lv_dropdown.c ****         txt_area.x2 = txt_area.x1 + size.x;
 874:lvgl/src/widgets/lv_dropdown.c ****     }
 875:lvgl/src/widgets/lv_dropdown.c ****     else {
 876:lvgl/src/widgets/lv_dropdown.c ****         /*Text to the right*/
 877:lvgl/src/widgets/lv_dropdown.c ****         if(symbol_to_left) {
 878:lvgl/src/widgets/lv_dropdown.c ****             txt_area.x1 = obj->coords.x2 - right - size.x;
 879:lvgl/src/widgets/lv_dropdown.c ****             txt_area.x2 = txt_area.x1 + size.x;
 880:lvgl/src/widgets/lv_dropdown.c ****         }
 881:lvgl/src/widgets/lv_dropdown.c ****         else {
 882:lvgl/src/widgets/lv_dropdown.c ****             txt_area.x1 = obj->coords.x1 + left;
 883:lvgl/src/widgets/lv_dropdown.c ****             txt_area.x2 = txt_area.x1 + size.x;
 884:lvgl/src/widgets/lv_dropdown.c ****         }
 885:lvgl/src/widgets/lv_dropdown.c ****     }
 886:lvgl/src/widgets/lv_dropdown.c ****     lv_draw_label(draw_ctx, &label_dsc, &txt_area, opt_txt, NULL);
 887:lvgl/src/widgets/lv_dropdown.c **** 
 888:lvgl/src/widgets/lv_dropdown.c ****     if(dropdown->text == NULL) {
 889:lvgl/src/widgets/lv_dropdown.c ****         lv_mem_buf_release((char *)opt_txt);
 890:lvgl/src/widgets/lv_dropdown.c ****     }
 891:lvgl/src/widgets/lv_dropdown.c **** }
 892:lvgl/src/widgets/lv_dropdown.c **** 
 893:lvgl/src/widgets/lv_dropdown.c **** static void draw_list(lv_event_t * e)
 894:lvgl/src/widgets/lv_dropdown.c **** {
 895:lvgl/src/widgets/lv_dropdown.c ****     lv_obj_t * list_obj = lv_event_get_target(e);
 896:lvgl/src/widgets/lv_dropdown.c ****     lv_dropdown_list_t * list = (lv_dropdown_list_t *)list_obj;
 897:lvgl/src/widgets/lv_dropdown.c ****     lv_obj_t * dropdown_obj = list->dropdown;
 898:lvgl/src/widgets/lv_dropdown.c ****     lv_dropdown_t * dropdown = (lv_dropdown_t *)dropdown_obj;
 899:lvgl/src/widgets/lv_dropdown.c ****     lv_draw_ctx_t * draw_ctx = lv_event_get_draw_ctx(e);
 900:lvgl/src/widgets/lv_dropdown.c **** 
 901:lvgl/src/widgets/lv_dropdown.c ****     /* Clip area might be too large too to shadow but
 902:lvgl/src/widgets/lv_dropdown.c ****      * the selected option can be drawn on only the background*/
 903:lvgl/src/widgets/lv_dropdown.c ****     lv_area_t clip_area_core;
 904:lvgl/src/widgets/lv_dropdown.c ****     bool has_common;
 905:lvgl/src/widgets/lv_dropdown.c ****     has_common = _lv_area_intersect(&clip_area_core, draw_ctx->clip_area, &dropdown->list->coords);
 906:lvgl/src/widgets/lv_dropdown.c ****     if(has_common) {
 907:lvgl/src/widgets/lv_dropdown.c ****         const lv_area_t * clip_area_ori = draw_ctx->clip_area;
 908:lvgl/src/widgets/lv_dropdown.c ****         draw_ctx->clip_area = &clip_area_core;
 909:lvgl/src/widgets/lv_dropdown.c ****         if(dropdown->selected_highlight) {
 910:lvgl/src/widgets/lv_dropdown.c ****             if(dropdown->pr_opt_id == dropdown->sel_opt_id) {
 911:lvgl/src/widgets/lv_dropdown.c ****                 draw_box(dropdown_obj, draw_ctx, dropdown->pr_opt_id, LV_STATE_CHECKED | LV_STATE_P
 912:lvgl/src/widgets/lv_dropdown.c ****                 draw_box_label(dropdown_obj, draw_ctx, dropdown->pr_opt_id, LV_STATE_CHECKED | LV_S
 913:lvgl/src/widgets/lv_dropdown.c ****             }
 914:lvgl/src/widgets/lv_dropdown.c ****             else {
 915:lvgl/src/widgets/lv_dropdown.c ****                 draw_box(dropdown_obj, draw_ctx, dropdown->pr_opt_id, LV_STATE_PRESSED);
ARM GAS  C:\Users\OSD\AppData\Local\Temp\cca5CFPq.s 			page 18


 916:lvgl/src/widgets/lv_dropdown.c ****                 draw_box_label(dropdown_obj, draw_ctx, dropdown->pr_opt_id, LV_STATE_PRESSED);
 917:lvgl/src/widgets/lv_dropdown.c ****                 draw_box(dropdown_obj, draw_ctx, dropdown->sel_opt_id, LV_STATE_CHECKED);
 918:lvgl/src/widgets/lv_dropdown.c ****                 draw_box_label(dropdown_obj, draw_ctx, dropdown->sel_opt_id, LV_STATE_CHECKED);
 919:lvgl/src/widgets/lv_dropdown.c ****             }
 920:lvgl/src/widgets/lv_dropdown.c ****         }
 921:lvgl/src/widgets/lv_dropdown.c ****         else {
 922:lvgl/src/widgets/lv_dropdown.c ****             draw_box(dropdown_obj, draw_ctx, dropdown->pr_opt_id, LV_STATE_PRESSED);
 923:lvgl/src/widgets/lv_dropdown.c ****             draw_box_label(dropdown_obj, draw_ctx, dropdown->pr_opt_id, LV_STATE_PRESSED);
 924:lvgl/src/widgets/lv_dropdown.c ****         }
 925:lvgl/src/widgets/lv_dropdown.c ****         draw_ctx->clip_area = clip_area_ori;
 926:lvgl/src/widgets/lv_dropdown.c ****     }
 927:lvgl/src/widgets/lv_dropdown.c **** }
 928:lvgl/src/widgets/lv_dropdown.c **** 
 929:lvgl/src/widgets/lv_dropdown.c **** static void draw_box(lv_obj_t * dropdown_obj, lv_draw_ctx_t * draw_ctx, uint16_t id, lv_state_t sta
 930:lvgl/src/widgets/lv_dropdown.c **** {
 931:lvgl/src/widgets/lv_dropdown.c ****     if(id == LV_DROPDOWN_PR_NONE) return;
 932:lvgl/src/widgets/lv_dropdown.c **** 
 933:lvgl/src/widgets/lv_dropdown.c ****     lv_dropdown_t * dropdown = (lv_dropdown_t *)dropdown_obj;
 934:lvgl/src/widgets/lv_dropdown.c ****     lv_obj_t * list_obj = dropdown->list;
 935:lvgl/src/widgets/lv_dropdown.c ****     lv_state_t state_ori = list_obj->state;
 936:lvgl/src/widgets/lv_dropdown.c **** 
 937:lvgl/src/widgets/lv_dropdown.c ****     if(state != list_obj->state) {
 938:lvgl/src/widgets/lv_dropdown.c ****         list_obj->state = state;
 939:lvgl/src/widgets/lv_dropdown.c ****         list_obj->skip_trans = 1;
 940:lvgl/src/widgets/lv_dropdown.c ****     }
 941:lvgl/src/widgets/lv_dropdown.c **** 
 942:lvgl/src/widgets/lv_dropdown.c ****     /*Draw a rectangle under the selected item*/
 943:lvgl/src/widgets/lv_dropdown.c ****     const lv_font_t * font    = lv_obj_get_style_text_font(list_obj, LV_PART_SELECTED);
 944:lvgl/src/widgets/lv_dropdown.c ****     lv_coord_t line_space = lv_obj_get_style_text_line_space(list_obj,  LV_PART_SELECTED);
 945:lvgl/src/widgets/lv_dropdown.c ****     lv_coord_t font_h         = lv_font_get_line_height(font);
 946:lvgl/src/widgets/lv_dropdown.c **** 
 947:lvgl/src/widgets/lv_dropdown.c ****     /*Draw the selected*/
 948:lvgl/src/widgets/lv_dropdown.c ****     lv_obj_t * label = get_label(dropdown_obj);
 949:lvgl/src/widgets/lv_dropdown.c ****     lv_area_t rect_area;
 950:lvgl/src/widgets/lv_dropdown.c ****     rect_area.y1 = label->coords.y1;
 951:lvgl/src/widgets/lv_dropdown.c ****     rect_area.y1 += id * (font_h + line_space);
 952:lvgl/src/widgets/lv_dropdown.c ****     rect_area.y1 -= line_space / 2;
 953:lvgl/src/widgets/lv_dropdown.c **** 
 954:lvgl/src/widgets/lv_dropdown.c ****     rect_area.y2 = rect_area.y1 + font_h + line_space - 1;
 955:lvgl/src/widgets/lv_dropdown.c ****     rect_area.x1 = dropdown->list->coords.x1;
 956:lvgl/src/widgets/lv_dropdown.c ****     rect_area.x2 = dropdown->list->coords.x2;
 957:lvgl/src/widgets/lv_dropdown.c **** 
 958:lvgl/src/widgets/lv_dropdown.c ****     lv_draw_rect_dsc_t sel_rect;
 959:lvgl/src/widgets/lv_dropdown.c ****     lv_draw_rect_dsc_init(&sel_rect);
 960:lvgl/src/widgets/lv_dropdown.c ****     lv_obj_init_draw_rect_dsc(list_obj,  LV_PART_SELECTED, &sel_rect);
 961:lvgl/src/widgets/lv_dropdown.c ****     lv_draw_rect(draw_ctx, &sel_rect, &rect_area);
 962:lvgl/src/widgets/lv_dropdown.c **** 
 963:lvgl/src/widgets/lv_dropdown.c ****     list_obj->state = state_ori;
 964:lvgl/src/widgets/lv_dropdown.c ****     list_obj->skip_trans = 0;
 965:lvgl/src/widgets/lv_dropdown.c **** }
 966:lvgl/src/widgets/lv_dropdown.c **** 
 967:lvgl/src/widgets/lv_dropdown.c **** static void draw_box_label(lv_obj_t * dropdown_obj, lv_draw_ctx_t * draw_ctx, uint16_t id, lv_state
 968:lvgl/src/widgets/lv_dropdown.c **** {
 969:lvgl/src/widgets/lv_dropdown.c ****     if(id == LV_DROPDOWN_PR_NONE) return;
 970:lvgl/src/widgets/lv_dropdown.c **** 
 971:lvgl/src/widgets/lv_dropdown.c ****     lv_dropdown_t * dropdown = (lv_dropdown_t *)dropdown_obj;
 972:lvgl/src/widgets/lv_dropdown.c ****     lv_obj_t * list_obj = dropdown->list;
ARM GAS  C:\Users\OSD\AppData\Local\Temp\cca5CFPq.s 			page 19


 973:lvgl/src/widgets/lv_dropdown.c ****     lv_state_t state_orig = list_obj->state;
 974:lvgl/src/widgets/lv_dropdown.c **** 
 975:lvgl/src/widgets/lv_dropdown.c ****     if(state != list_obj->state) {
 976:lvgl/src/widgets/lv_dropdown.c ****         list_obj->state = state;
 977:lvgl/src/widgets/lv_dropdown.c ****         list_obj->skip_trans = 1;
 978:lvgl/src/widgets/lv_dropdown.c ****     }
 979:lvgl/src/widgets/lv_dropdown.c **** 
 980:lvgl/src/widgets/lv_dropdown.c ****     lv_draw_label_dsc_t label_dsc;
 981:lvgl/src/widgets/lv_dropdown.c ****     lv_draw_label_dsc_init(&label_dsc);
 982:lvgl/src/widgets/lv_dropdown.c ****     lv_obj_init_draw_label_dsc(list_obj, LV_PART_SELECTED, &label_dsc);
 983:lvgl/src/widgets/lv_dropdown.c **** 
 984:lvgl/src/widgets/lv_dropdown.c ****     label_dsc.line_space = lv_obj_get_style_text_line_space(list_obj,
 985:lvgl/src/widgets/lv_dropdown.c ****                                                             LV_PART_SELECTED);  /*Line space should
 986:lvgl/src/widgets/lv_dropdown.c **** 
 987:lvgl/src/widgets/lv_dropdown.c ****     lv_obj_t * label = get_label(dropdown_obj);
 988:lvgl/src/widgets/lv_dropdown.c ****     if(label == NULL) return;
 989:lvgl/src/widgets/lv_dropdown.c **** 
 990:lvgl/src/widgets/lv_dropdown.c ****     lv_coord_t font_h        = lv_font_get_line_height(label_dsc.font);
 991:lvgl/src/widgets/lv_dropdown.c **** 
 992:lvgl/src/widgets/lv_dropdown.c ****     lv_area_t area_sel;
 993:lvgl/src/widgets/lv_dropdown.c ****     area_sel.y1 = label->coords.y1;
 994:lvgl/src/widgets/lv_dropdown.c ****     area_sel.y1 += id * (font_h + label_dsc.line_space);
 995:lvgl/src/widgets/lv_dropdown.c ****     area_sel.y1 -= label_dsc.line_space / 2;
 996:lvgl/src/widgets/lv_dropdown.c **** 
 997:lvgl/src/widgets/lv_dropdown.c ****     area_sel.y2 = area_sel.y1 + font_h + label_dsc.line_space - 1;
 998:lvgl/src/widgets/lv_dropdown.c ****     area_sel.x1 = list_obj->coords.x1;
 999:lvgl/src/widgets/lv_dropdown.c ****     area_sel.x2 = list_obj->coords.x2;
1000:lvgl/src/widgets/lv_dropdown.c ****     lv_area_t mask_sel;
1001:lvgl/src/widgets/lv_dropdown.c ****     bool area_ok;
1002:lvgl/src/widgets/lv_dropdown.c ****     area_ok = _lv_area_intersect(&mask_sel, draw_ctx->clip_area, &area_sel);
1003:lvgl/src/widgets/lv_dropdown.c ****     if(area_ok) {
1004:lvgl/src/widgets/lv_dropdown.c ****         const lv_area_t * clip_area_ori = draw_ctx->clip_area;
1005:lvgl/src/widgets/lv_dropdown.c ****         draw_ctx->clip_area = &mask_sel;
1006:lvgl/src/widgets/lv_dropdown.c ****         lv_draw_label(draw_ctx, &label_dsc, &label->coords, lv_label_get_text(label), NULL);
1007:lvgl/src/widgets/lv_dropdown.c ****         draw_ctx->clip_area = clip_area_ori;
1008:lvgl/src/widgets/lv_dropdown.c ****     }
1009:lvgl/src/widgets/lv_dropdown.c ****     list_obj->state = state_orig;
1010:lvgl/src/widgets/lv_dropdown.c ****     list_obj->skip_trans = 0;
1011:lvgl/src/widgets/lv_dropdown.c **** }
1012:lvgl/src/widgets/lv_dropdown.c **** 
1013:lvgl/src/widgets/lv_dropdown.c **** static lv_res_t btn_release_handler(lv_obj_t * obj)
1014:lvgl/src/widgets/lv_dropdown.c **** {
1015:lvgl/src/widgets/lv_dropdown.c ****     lv_dropdown_t * dropdown = (lv_dropdown_t *)obj;
1016:lvgl/src/widgets/lv_dropdown.c ****     lv_indev_t * indev = lv_indev_get_act();
1017:lvgl/src/widgets/lv_dropdown.c ****     if(lv_indev_get_scroll_obj(indev) == NULL) {
1018:lvgl/src/widgets/lv_dropdown.c ****         if(lv_dropdown_is_open(obj)) {
1019:lvgl/src/widgets/lv_dropdown.c ****             lv_dropdown_close(obj);
1020:lvgl/src/widgets/lv_dropdown.c ****             if(dropdown->sel_opt_id_orig != dropdown->sel_opt_id) {
1021:lvgl/src/widgets/lv_dropdown.c ****                 dropdown->sel_opt_id_orig = dropdown->sel_opt_id;
1022:lvgl/src/widgets/lv_dropdown.c ****                 lv_res_t res;
1023:lvgl/src/widgets/lv_dropdown.c ****                 uint32_t id  = dropdown->sel_opt_id; /*Just to use uint32_t in event data*/
1024:lvgl/src/widgets/lv_dropdown.c ****                 res = lv_event_send(obj, LV_EVENT_VALUE_CHANGED, &id);
1025:lvgl/src/widgets/lv_dropdown.c ****                 if(res != LV_RES_OK) return res;
1026:lvgl/src/widgets/lv_dropdown.c ****                 lv_obj_invalidate(obj);
1027:lvgl/src/widgets/lv_dropdown.c ****             }
1028:lvgl/src/widgets/lv_dropdown.c ****             lv_indev_type_t indev_type = lv_indev_get_type(indev);
1029:lvgl/src/widgets/lv_dropdown.c ****             if(indev_type == LV_INDEV_TYPE_ENCODER) {
ARM GAS  C:\Users\OSD\AppData\Local\Temp\cca5CFPq.s 			page 20


1030:lvgl/src/widgets/lv_dropdown.c ****                 lv_group_set_editing(lv_obj_get_group(obj), false);
1031:lvgl/src/widgets/lv_dropdown.c ****             }
1032:lvgl/src/widgets/lv_dropdown.c ****         }
1033:lvgl/src/widgets/lv_dropdown.c ****         else {
1034:lvgl/src/widgets/lv_dropdown.c ****             lv_dropdown_open(obj);
1035:lvgl/src/widgets/lv_dropdown.c ****         }
1036:lvgl/src/widgets/lv_dropdown.c ****     }
1037:lvgl/src/widgets/lv_dropdown.c ****     else {
1038:lvgl/src/widgets/lv_dropdown.c ****         dropdown->sel_opt_id = dropdown->sel_opt_id_orig;
1039:lvgl/src/widgets/lv_dropdown.c ****         lv_obj_invalidate(obj);
1040:lvgl/src/widgets/lv_dropdown.c ****     }
1041:lvgl/src/widgets/lv_dropdown.c ****     return LV_RES_OK;
1042:lvgl/src/widgets/lv_dropdown.c **** }
1043:lvgl/src/widgets/lv_dropdown.c **** 
1044:lvgl/src/widgets/lv_dropdown.c **** /**
1045:lvgl/src/widgets/lv_dropdown.c ****  * Called when a drop down list is released to open it or set new option
1046:lvgl/src/widgets/lv_dropdown.c ****  * @param list pointer to the drop down list's list
1047:lvgl/src/widgets/lv_dropdown.c ****  * @return LV_RES_INV if the list is not being deleted in the user callback. Else LV_RES_OK
1048:lvgl/src/widgets/lv_dropdown.c ****  */
1049:lvgl/src/widgets/lv_dropdown.c **** static lv_res_t list_release_handler(lv_obj_t * list_obj)
1050:lvgl/src/widgets/lv_dropdown.c **** {
1051:lvgl/src/widgets/lv_dropdown.c ****     lv_dropdown_list_t * list = (lv_dropdown_list_t *) list_obj;
1052:lvgl/src/widgets/lv_dropdown.c ****     lv_obj_t * dropdown_obj = list->dropdown;
1053:lvgl/src/widgets/lv_dropdown.c ****     lv_dropdown_t * dropdown = (lv_dropdown_t *)dropdown_obj;
1054:lvgl/src/widgets/lv_dropdown.c **** 
1055:lvgl/src/widgets/lv_dropdown.c ****     lv_indev_t * indev = lv_indev_get_act();
1056:lvgl/src/widgets/lv_dropdown.c ****     /*Leave edit mode once a new item is selected*/
1057:lvgl/src/widgets/lv_dropdown.c ****     if(lv_indev_get_type(indev) == LV_INDEV_TYPE_ENCODER) {
1058:lvgl/src/widgets/lv_dropdown.c ****         dropdown->sel_opt_id_orig = dropdown->sel_opt_id;
1059:lvgl/src/widgets/lv_dropdown.c ****         lv_group_t * g      = lv_obj_get_group(dropdown_obj);
1060:lvgl/src/widgets/lv_dropdown.c ****         if(lv_group_get_editing(g)) {
1061:lvgl/src/widgets/lv_dropdown.c ****             lv_group_set_editing(g, false);
1062:lvgl/src/widgets/lv_dropdown.c ****         }
1063:lvgl/src/widgets/lv_dropdown.c ****     }
1064:lvgl/src/widgets/lv_dropdown.c **** 
1065:lvgl/src/widgets/lv_dropdown.c ****     /*Search the clicked option (For KEYPAD and ENCODER the new value should be already set)*/
1066:lvgl/src/widgets/lv_dropdown.c ****     if(lv_indev_get_type(indev) == LV_INDEV_TYPE_POINTER || lv_indev_get_type(indev) == LV_INDEV_TY
1067:lvgl/src/widgets/lv_dropdown.c ****         lv_point_t p;
1068:lvgl/src/widgets/lv_dropdown.c ****         lv_indev_get_point(indev, &p);
1069:lvgl/src/widgets/lv_dropdown.c ****         dropdown->sel_opt_id     = get_id_on_point(dropdown_obj, p.y);
1070:lvgl/src/widgets/lv_dropdown.c ****         dropdown->sel_opt_id_orig = dropdown->sel_opt_id;
1071:lvgl/src/widgets/lv_dropdown.c ****     }
1072:lvgl/src/widgets/lv_dropdown.c **** 
1073:lvgl/src/widgets/lv_dropdown.c ****     lv_dropdown_close(dropdown_obj);
1074:lvgl/src/widgets/lv_dropdown.c **** 
1075:lvgl/src/widgets/lv_dropdown.c ****     /*Invalidate to refresh the text*/
1076:lvgl/src/widgets/lv_dropdown.c ****     if(dropdown->text == NULL) lv_obj_invalidate(dropdown_obj);
1077:lvgl/src/widgets/lv_dropdown.c **** 
1078:lvgl/src/widgets/lv_dropdown.c ****     uint32_t id  = dropdown->sel_opt_id; /*Just to use uint32_t in event data*/
1079:lvgl/src/widgets/lv_dropdown.c ****     lv_res_t res = lv_event_send(dropdown_obj, LV_EVENT_VALUE_CHANGED, &id);
1080:lvgl/src/widgets/lv_dropdown.c ****     if(res != LV_RES_OK) return res;
1081:lvgl/src/widgets/lv_dropdown.c **** 
1082:lvgl/src/widgets/lv_dropdown.c ****     return LV_RES_OK;
1083:lvgl/src/widgets/lv_dropdown.c **** }
1084:lvgl/src/widgets/lv_dropdown.c **** 
1085:lvgl/src/widgets/lv_dropdown.c **** static void list_press_handler(lv_obj_t * list_obj)
1086:lvgl/src/widgets/lv_dropdown.c **** {
ARM GAS  C:\Users\OSD\AppData\Local\Temp\cca5CFPq.s 			page 21


1087:lvgl/src/widgets/lv_dropdown.c ****     lv_dropdown_list_t * list = (lv_dropdown_list_t *) list_obj;
1088:lvgl/src/widgets/lv_dropdown.c ****     lv_obj_t * dropdown_obj = list->dropdown;
1089:lvgl/src/widgets/lv_dropdown.c ****     lv_dropdown_t * dropdown = (lv_dropdown_t *)dropdown_obj;
1090:lvgl/src/widgets/lv_dropdown.c **** 
1091:lvgl/src/widgets/lv_dropdown.c ****     lv_indev_t * indev = lv_indev_get_act();
1092:lvgl/src/widgets/lv_dropdown.c ****     if(indev && (lv_indev_get_type(indev) == LV_INDEV_TYPE_POINTER || lv_indev_get_type(indev) == L
1093:lvgl/src/widgets/lv_dropdown.c ****         lv_point_t p;
1094:lvgl/src/widgets/lv_dropdown.c ****         lv_indev_get_point(indev, &p);
1095:lvgl/src/widgets/lv_dropdown.c ****         dropdown->pr_opt_id = get_id_on_point(dropdown_obj, p.y);
1096:lvgl/src/widgets/lv_dropdown.c ****         lv_obj_invalidate(list_obj);
1097:lvgl/src/widgets/lv_dropdown.c ****     }
1098:lvgl/src/widgets/lv_dropdown.c **** }
1099:lvgl/src/widgets/lv_dropdown.c **** 
1100:lvgl/src/widgets/lv_dropdown.c **** static uint16_t get_id_on_point(lv_obj_t * dropdown_obj, lv_coord_t y)
1101:lvgl/src/widgets/lv_dropdown.c **** {
1102:lvgl/src/widgets/lv_dropdown.c ****     lv_dropdown_t * dropdown = (lv_dropdown_t *)dropdown_obj;
1103:lvgl/src/widgets/lv_dropdown.c ****     lv_obj_t * label = get_label(dropdown_obj);
1104:lvgl/src/widgets/lv_dropdown.c ****     if(label == NULL) return 0;
1105:lvgl/src/widgets/lv_dropdown.c ****     y -= label->coords.y1;
1106:lvgl/src/widgets/lv_dropdown.c **** 
1107:lvgl/src/widgets/lv_dropdown.c ****     const lv_font_t * font         = lv_obj_get_style_text_font(label, LV_PART_MAIN);
1108:lvgl/src/widgets/lv_dropdown.c ****     lv_coord_t font_h              = lv_font_get_line_height(font);
1109:lvgl/src/widgets/lv_dropdown.c ****     lv_coord_t line_space = lv_obj_get_style_text_line_space(label, LV_PART_MAIN);
1110:lvgl/src/widgets/lv_dropdown.c **** 
1111:lvgl/src/widgets/lv_dropdown.c ****     y += line_space / 2;
1112:lvgl/src/widgets/lv_dropdown.c ****     lv_coord_t h = font_h + line_space;
1113:lvgl/src/widgets/lv_dropdown.c **** 
1114:lvgl/src/widgets/lv_dropdown.c ****     uint16_t opt = y / h;
1115:lvgl/src/widgets/lv_dropdown.c **** 
1116:lvgl/src/widgets/lv_dropdown.c ****     if(opt >= dropdown->option_cnt) opt = dropdown->option_cnt - 1;
1117:lvgl/src/widgets/lv_dropdown.c ****     return opt;
1118:lvgl/src/widgets/lv_dropdown.c **** }
1119:lvgl/src/widgets/lv_dropdown.c **** 
1120:lvgl/src/widgets/lv_dropdown.c **** /**
1121:lvgl/src/widgets/lv_dropdown.c ****  * Set the position of list when it is closed to show the selected item
1122:lvgl/src/widgets/lv_dropdown.c ****  * @param ddlist pointer to a drop down list
1123:lvgl/src/widgets/lv_dropdown.c ****  */
1124:lvgl/src/widgets/lv_dropdown.c **** static void position_to_selected(lv_obj_t * dropdown_obj)
1125:lvgl/src/widgets/lv_dropdown.c **** {
1126:lvgl/src/widgets/lv_dropdown.c ****     lv_dropdown_t * dropdown = (lv_dropdown_t *)dropdown_obj;
1127:lvgl/src/widgets/lv_dropdown.c **** 
1128:lvgl/src/widgets/lv_dropdown.c ****     lv_obj_t * label = get_label(dropdown_obj);
1129:lvgl/src/widgets/lv_dropdown.c ****     if(label == NULL) return;
1130:lvgl/src/widgets/lv_dropdown.c **** 
1131:lvgl/src/widgets/lv_dropdown.c ****     if(lv_obj_get_height(label) <= lv_obj_get_content_height(dropdown_obj)) return;
1132:lvgl/src/widgets/lv_dropdown.c **** 
1133:lvgl/src/widgets/lv_dropdown.c ****     const lv_font_t * font         = lv_obj_get_style_text_font(label, LV_PART_MAIN);
1134:lvgl/src/widgets/lv_dropdown.c ****     lv_coord_t font_h              = lv_font_get_line_height(font);
1135:lvgl/src/widgets/lv_dropdown.c ****     lv_coord_t line_space = lv_obj_get_style_text_line_space(label, LV_PART_MAIN);
1136:lvgl/src/widgets/lv_dropdown.c ****     lv_coord_t unit_h = font_h + line_space;
1137:lvgl/src/widgets/lv_dropdown.c ****     lv_coord_t line_y1 = dropdown->sel_opt_id * unit_h;
1138:lvgl/src/widgets/lv_dropdown.c **** 
1139:lvgl/src/widgets/lv_dropdown.c ****     /*Scroll to the selected option*/
1140:lvgl/src/widgets/lv_dropdown.c ****     lv_obj_scroll_to_y(dropdown->list, line_y1, LV_ANIM_OFF);
1141:lvgl/src/widgets/lv_dropdown.c ****     lv_obj_invalidate(dropdown->list);
1142:lvgl/src/widgets/lv_dropdown.c **** }
1143:lvgl/src/widgets/lv_dropdown.c **** 
ARM GAS  C:\Users\OSD\AppData\Local\Temp\cca5CFPq.s 			page 22


1144:lvgl/src/widgets/lv_dropdown.c **** static lv_obj_t * get_label(const lv_obj_t * obj)
1145:lvgl/src/widgets/lv_dropdown.c **** {
  58              		.loc 1 1145 1 is_stmt 1 view -0
  59              		.cfi_startproc
  60              		@ args = 0, pretend = 0, frame = 0
  61              		@ frame_needed = 0, uses_anonymous_args = 0
1146:lvgl/src/widgets/lv_dropdown.c ****     lv_dropdown_t * dropdown = (lv_dropdown_t *)obj;
  62              		.loc 1 1146 5 view .LVU10
1147:lvgl/src/widgets/lv_dropdown.c ****     if(dropdown->list == NULL) return NULL;
  63              		.loc 1 1147 5 view .LVU11
  64              		.loc 1 1147 16 is_stmt 0 view .LVU12
  65 0000 406A     		ldr	r0, [r0, #36]
  66              	.LVL3:
  67              		.loc 1 1147 7 view .LVU13
  68 0002 20B1     		cbz	r0, .L5
1145:lvgl/src/widgets/lv_dropdown.c ****     lv_dropdown_t * dropdown = (lv_dropdown_t *)obj;
  69              		.loc 1 1145 1 view .LVU14
  70 0004 08B5     		push	{r3, lr}
  71              		.cfi_def_cfa_offset 8
  72              		.cfi_offset 3, -8
  73              		.cfi_offset 14, -4
1148:lvgl/src/widgets/lv_dropdown.c **** 
1149:lvgl/src/widgets/lv_dropdown.c ****     return lv_obj_get_child(dropdown->list, 0);
  74              		.loc 1 1149 5 is_stmt 1 view .LVU15
  75              		.loc 1 1149 12 is_stmt 0 view .LVU16
  76 0006 0021     		movs	r1, #0
  77 0008 FFF7FEFF 		bl	lv_obj_get_child
  78              	.LVL4:
1150:lvgl/src/widgets/lv_dropdown.c **** }
  79              		.loc 1 1150 1 view .LVU17
  80 000c 08BD     		pop	{r3, pc}
  81              	.L5:
  82              		.cfi_def_cfa_offset 0
  83              		.cfi_restore 3
  84              		.cfi_restore 14
  85 000e 7047     		bx	lr
  86              		.cfi_endproc
  87              	.LFE206:
  89              		.section	.text.position_to_selected,"ax",%progbits
  90              		.align	1
  91              		.syntax unified
  92              		.thumb
  93              		.thumb_func
  95              	position_to_selected:
  96              	.LVL5:
  97              	.LFB205:
1125:lvgl/src/widgets/lv_dropdown.c ****     lv_dropdown_t * dropdown = (lv_dropdown_t *)dropdown_obj;
  98              		.loc 1 1125 1 is_stmt 1 view -0
  99              		.cfi_startproc
 100              		@ args = 0, pretend = 0, frame = 0
 101              		@ frame_needed = 0, uses_anonymous_args = 0
1125:lvgl/src/widgets/lv_dropdown.c ****     lv_dropdown_t * dropdown = (lv_dropdown_t *)dropdown_obj;
 102              		.loc 1 1125 1 is_stmt 0 view .LVU19
 103 0000 70B5     		push	{r4, r5, r6, lr}
 104              		.cfi_def_cfa_offset 16
 105              		.cfi_offset 4, -16
 106              		.cfi_offset 5, -12
ARM GAS  C:\Users\OSD\AppData\Local\Temp\cca5CFPq.s 			page 23


 107              		.cfi_offset 6, -8
 108              		.cfi_offset 14, -4
 109 0002 0446     		mov	r4, r0
1126:lvgl/src/widgets/lv_dropdown.c **** 
 110              		.loc 1 1126 5 is_stmt 1 view .LVU20
 111              	.LVL6:
1128:lvgl/src/widgets/lv_dropdown.c ****     if(label == NULL) return;
 112              		.loc 1 1128 5 view .LVU21
1128:lvgl/src/widgets/lv_dropdown.c ****     if(label == NULL) return;
 113              		.loc 1 1128 24 is_stmt 0 view .LVU22
 114 0004 FFF7FEFF 		bl	get_label
 115              	.LVL7:
1129:lvgl/src/widgets/lv_dropdown.c **** 
 116              		.loc 1 1129 5 is_stmt 1 view .LVU23
1129:lvgl/src/widgets/lv_dropdown.c **** 
 117              		.loc 1 1129 7 is_stmt 0 view .LVU24
 118 0008 40B1     		cbz	r0, .L8
 119 000a 0646     		mov	r6, r0
1131:lvgl/src/widgets/lv_dropdown.c **** 
 120              		.loc 1 1131 5 is_stmt 1 view .LVU25
1131:lvgl/src/widgets/lv_dropdown.c **** 
 121              		.loc 1 1131 8 is_stmt 0 view .LVU26
 122 000c FFF7FEFF 		bl	lv_obj_get_height
 123              	.LVL8:
1131:lvgl/src/widgets/lv_dropdown.c **** 
 124              		.loc 1 1131 8 view .LVU27
 125 0010 0546     		mov	r5, r0
1131:lvgl/src/widgets/lv_dropdown.c **** 
 126              		.loc 1 1131 36 view .LVU28
 127 0012 2046     		mov	r0, r4
 128 0014 FFF7FEFF 		bl	lv_obj_get_content_height
 129              	.LVL9:
1131:lvgl/src/widgets/lv_dropdown.c **** 
 130              		.loc 1 1131 7 view .LVU29
 131 0018 8542     		cmp	r5, r0
 132 001a 00DC     		bgt	.L11
 133              	.LVL10:
 134              	.L8:
1142:lvgl/src/widgets/lv_dropdown.c **** 
 135              		.loc 1 1142 1 view .LVU30
 136 001c 70BD     		pop	{r4, r5, r6, pc}
 137              	.LVL11:
 138              	.L11:
1133:lvgl/src/widgets/lv_dropdown.c ****     lv_coord_t font_h              = lv_font_get_line_height(font);
 139              		.loc 1 1133 5 is_stmt 1 view .LVU31
 140              	.LBB57:
 141              	.LBI57:
 142              		.file 2 "lvgl/src/widgets/../core/lv_obj_style_gen.h"
   1:lvgl/src/widgets/../core/lv_obj_style_gen.h **** static inline lv_coord_t lv_obj_get_style_width(const struct _lv_obj_t * obj, uint32_t part)
   2:lvgl/src/widgets/../core/lv_obj_style_gen.h **** {
   3:lvgl/src/widgets/../core/lv_obj_style_gen.h ****     lv_style_value_t v = lv_obj_get_style_prop(obj, part, LV_STYLE_WIDTH);
   4:lvgl/src/widgets/../core/lv_obj_style_gen.h ****     return (lv_coord_t)v.num;
   5:lvgl/src/widgets/../core/lv_obj_style_gen.h **** }
   6:lvgl/src/widgets/../core/lv_obj_style_gen.h **** 
   7:lvgl/src/widgets/../core/lv_obj_style_gen.h **** static inline lv_coord_t lv_obj_get_style_min_width(const struct _lv_obj_t * obj, uint32_t part)
   8:lvgl/src/widgets/../core/lv_obj_style_gen.h **** {
   9:lvgl/src/widgets/../core/lv_obj_style_gen.h ****     lv_style_value_t v = lv_obj_get_style_prop(obj, part, LV_STYLE_MIN_WIDTH);
ARM GAS  C:\Users\OSD\AppData\Local\Temp\cca5CFPq.s 			page 24


  10:lvgl/src/widgets/../core/lv_obj_style_gen.h ****     return (lv_coord_t)v.num;
  11:lvgl/src/widgets/../core/lv_obj_style_gen.h **** }
  12:lvgl/src/widgets/../core/lv_obj_style_gen.h **** 
  13:lvgl/src/widgets/../core/lv_obj_style_gen.h **** static inline lv_coord_t lv_obj_get_style_max_width(const struct _lv_obj_t * obj, uint32_t part)
  14:lvgl/src/widgets/../core/lv_obj_style_gen.h **** {
  15:lvgl/src/widgets/../core/lv_obj_style_gen.h ****     lv_style_value_t v = lv_obj_get_style_prop(obj, part, LV_STYLE_MAX_WIDTH);
  16:lvgl/src/widgets/../core/lv_obj_style_gen.h ****     return (lv_coord_t)v.num;
  17:lvgl/src/widgets/../core/lv_obj_style_gen.h **** }
  18:lvgl/src/widgets/../core/lv_obj_style_gen.h **** 
  19:lvgl/src/widgets/../core/lv_obj_style_gen.h **** static inline lv_coord_t lv_obj_get_style_height(const struct _lv_obj_t * obj, uint32_t part)
  20:lvgl/src/widgets/../core/lv_obj_style_gen.h **** {
  21:lvgl/src/widgets/../core/lv_obj_style_gen.h ****     lv_style_value_t v = lv_obj_get_style_prop(obj, part, LV_STYLE_HEIGHT);
  22:lvgl/src/widgets/../core/lv_obj_style_gen.h ****     return (lv_coord_t)v.num;
  23:lvgl/src/widgets/../core/lv_obj_style_gen.h **** }
  24:lvgl/src/widgets/../core/lv_obj_style_gen.h **** 
  25:lvgl/src/widgets/../core/lv_obj_style_gen.h **** static inline lv_coord_t lv_obj_get_style_min_height(const struct _lv_obj_t * obj, uint32_t part)
  26:lvgl/src/widgets/../core/lv_obj_style_gen.h **** {
  27:lvgl/src/widgets/../core/lv_obj_style_gen.h ****     lv_style_value_t v = lv_obj_get_style_prop(obj, part, LV_STYLE_MIN_HEIGHT);
  28:lvgl/src/widgets/../core/lv_obj_style_gen.h ****     return (lv_coord_t)v.num;
  29:lvgl/src/widgets/../core/lv_obj_style_gen.h **** }
  30:lvgl/src/widgets/../core/lv_obj_style_gen.h **** 
  31:lvgl/src/widgets/../core/lv_obj_style_gen.h **** static inline lv_coord_t lv_obj_get_style_max_height(const struct _lv_obj_t * obj, uint32_t part)
  32:lvgl/src/widgets/../core/lv_obj_style_gen.h **** {
  33:lvgl/src/widgets/../core/lv_obj_style_gen.h ****     lv_style_value_t v = lv_obj_get_style_prop(obj, part, LV_STYLE_MAX_HEIGHT);
  34:lvgl/src/widgets/../core/lv_obj_style_gen.h ****     return (lv_coord_t)v.num;
  35:lvgl/src/widgets/../core/lv_obj_style_gen.h **** }
  36:lvgl/src/widgets/../core/lv_obj_style_gen.h **** 
  37:lvgl/src/widgets/../core/lv_obj_style_gen.h **** static inline lv_coord_t lv_obj_get_style_x(const struct _lv_obj_t * obj, uint32_t part)
  38:lvgl/src/widgets/../core/lv_obj_style_gen.h **** {
  39:lvgl/src/widgets/../core/lv_obj_style_gen.h ****     lv_style_value_t v = lv_obj_get_style_prop(obj, part, LV_STYLE_X);
  40:lvgl/src/widgets/../core/lv_obj_style_gen.h ****     return (lv_coord_t)v.num;
  41:lvgl/src/widgets/../core/lv_obj_style_gen.h **** }
  42:lvgl/src/widgets/../core/lv_obj_style_gen.h **** 
  43:lvgl/src/widgets/../core/lv_obj_style_gen.h **** static inline lv_coord_t lv_obj_get_style_y(const struct _lv_obj_t * obj, uint32_t part)
  44:lvgl/src/widgets/../core/lv_obj_style_gen.h **** {
  45:lvgl/src/widgets/../core/lv_obj_style_gen.h ****     lv_style_value_t v = lv_obj_get_style_prop(obj, part, LV_STYLE_Y);
  46:lvgl/src/widgets/../core/lv_obj_style_gen.h ****     return (lv_coord_t)v.num;
  47:lvgl/src/widgets/../core/lv_obj_style_gen.h **** }
  48:lvgl/src/widgets/../core/lv_obj_style_gen.h **** 
  49:lvgl/src/widgets/../core/lv_obj_style_gen.h **** static inline lv_align_t lv_obj_get_style_align(const struct _lv_obj_t * obj, uint32_t part)
  50:lvgl/src/widgets/../core/lv_obj_style_gen.h **** {
  51:lvgl/src/widgets/../core/lv_obj_style_gen.h ****     lv_style_value_t v = lv_obj_get_style_prop(obj, part, LV_STYLE_ALIGN);
  52:lvgl/src/widgets/../core/lv_obj_style_gen.h ****     return (lv_align_t)v.num;
  53:lvgl/src/widgets/../core/lv_obj_style_gen.h **** }
  54:lvgl/src/widgets/../core/lv_obj_style_gen.h **** 
  55:lvgl/src/widgets/../core/lv_obj_style_gen.h **** static inline lv_coord_t lv_obj_get_style_transform_width(const struct _lv_obj_t * obj, uint32_t pa
  56:lvgl/src/widgets/../core/lv_obj_style_gen.h **** {
  57:lvgl/src/widgets/../core/lv_obj_style_gen.h ****     lv_style_value_t v = lv_obj_get_style_prop(obj, part, LV_STYLE_TRANSFORM_WIDTH);
  58:lvgl/src/widgets/../core/lv_obj_style_gen.h ****     return (lv_coord_t)v.num;
  59:lvgl/src/widgets/../core/lv_obj_style_gen.h **** }
  60:lvgl/src/widgets/../core/lv_obj_style_gen.h **** 
  61:lvgl/src/widgets/../core/lv_obj_style_gen.h **** static inline lv_coord_t lv_obj_get_style_transform_height(const struct _lv_obj_t * obj, uint32_t p
  62:lvgl/src/widgets/../core/lv_obj_style_gen.h **** {
  63:lvgl/src/widgets/../core/lv_obj_style_gen.h ****     lv_style_value_t v = lv_obj_get_style_prop(obj, part, LV_STYLE_TRANSFORM_HEIGHT);
  64:lvgl/src/widgets/../core/lv_obj_style_gen.h ****     return (lv_coord_t)v.num;
  65:lvgl/src/widgets/../core/lv_obj_style_gen.h **** }
  66:lvgl/src/widgets/../core/lv_obj_style_gen.h **** 
ARM GAS  C:\Users\OSD\AppData\Local\Temp\cca5CFPq.s 			page 25


  67:lvgl/src/widgets/../core/lv_obj_style_gen.h **** static inline lv_coord_t lv_obj_get_style_translate_x(const struct _lv_obj_t * obj, uint32_t part)
  68:lvgl/src/widgets/../core/lv_obj_style_gen.h **** {
  69:lvgl/src/widgets/../core/lv_obj_style_gen.h ****     lv_style_value_t v = lv_obj_get_style_prop(obj, part, LV_STYLE_TRANSLATE_X);
  70:lvgl/src/widgets/../core/lv_obj_style_gen.h ****     return (lv_coord_t)v.num;
  71:lvgl/src/widgets/../core/lv_obj_style_gen.h **** }
  72:lvgl/src/widgets/../core/lv_obj_style_gen.h **** 
  73:lvgl/src/widgets/../core/lv_obj_style_gen.h **** static inline lv_coord_t lv_obj_get_style_translate_y(const struct _lv_obj_t * obj, uint32_t part)
  74:lvgl/src/widgets/../core/lv_obj_style_gen.h **** {
  75:lvgl/src/widgets/../core/lv_obj_style_gen.h ****     lv_style_value_t v = lv_obj_get_style_prop(obj, part, LV_STYLE_TRANSLATE_Y);
  76:lvgl/src/widgets/../core/lv_obj_style_gen.h ****     return (lv_coord_t)v.num;
  77:lvgl/src/widgets/../core/lv_obj_style_gen.h **** }
  78:lvgl/src/widgets/../core/lv_obj_style_gen.h **** 
  79:lvgl/src/widgets/../core/lv_obj_style_gen.h **** static inline lv_coord_t lv_obj_get_style_transform_zoom(const struct _lv_obj_t * obj, uint32_t par
  80:lvgl/src/widgets/../core/lv_obj_style_gen.h **** {
  81:lvgl/src/widgets/../core/lv_obj_style_gen.h ****     lv_style_value_t v = lv_obj_get_style_prop(obj, part, LV_STYLE_TRANSFORM_ZOOM);
  82:lvgl/src/widgets/../core/lv_obj_style_gen.h ****     return (lv_coord_t)v.num;
  83:lvgl/src/widgets/../core/lv_obj_style_gen.h **** }
  84:lvgl/src/widgets/../core/lv_obj_style_gen.h **** 
  85:lvgl/src/widgets/../core/lv_obj_style_gen.h **** static inline lv_coord_t lv_obj_get_style_transform_angle(const struct _lv_obj_t * obj, uint32_t pa
  86:lvgl/src/widgets/../core/lv_obj_style_gen.h **** {
  87:lvgl/src/widgets/../core/lv_obj_style_gen.h ****     lv_style_value_t v = lv_obj_get_style_prop(obj, part, LV_STYLE_TRANSFORM_ANGLE);
  88:lvgl/src/widgets/../core/lv_obj_style_gen.h ****     return (lv_coord_t)v.num;
  89:lvgl/src/widgets/../core/lv_obj_style_gen.h **** }
  90:lvgl/src/widgets/../core/lv_obj_style_gen.h **** 
  91:lvgl/src/widgets/../core/lv_obj_style_gen.h **** static inline lv_coord_t lv_obj_get_style_transform_pivot_x(const struct _lv_obj_t * obj, uint32_t 
  92:lvgl/src/widgets/../core/lv_obj_style_gen.h **** {
  93:lvgl/src/widgets/../core/lv_obj_style_gen.h ****     lv_style_value_t v = lv_obj_get_style_prop(obj, part, LV_STYLE_TRANSFORM_PIVOT_X);
  94:lvgl/src/widgets/../core/lv_obj_style_gen.h ****     return (lv_coord_t)v.num;
  95:lvgl/src/widgets/../core/lv_obj_style_gen.h **** }
  96:lvgl/src/widgets/../core/lv_obj_style_gen.h **** 
  97:lvgl/src/widgets/../core/lv_obj_style_gen.h **** static inline lv_coord_t lv_obj_get_style_transform_pivot_y(const struct _lv_obj_t * obj, uint32_t 
  98:lvgl/src/widgets/../core/lv_obj_style_gen.h **** {
  99:lvgl/src/widgets/../core/lv_obj_style_gen.h ****     lv_style_value_t v = lv_obj_get_style_prop(obj, part, LV_STYLE_TRANSFORM_PIVOT_Y);
 100:lvgl/src/widgets/../core/lv_obj_style_gen.h ****     return (lv_coord_t)v.num;
 101:lvgl/src/widgets/../core/lv_obj_style_gen.h **** }
 102:lvgl/src/widgets/../core/lv_obj_style_gen.h **** 
 103:lvgl/src/widgets/../core/lv_obj_style_gen.h **** static inline lv_coord_t lv_obj_get_style_pad_top(const struct _lv_obj_t * obj, uint32_t part)
 104:lvgl/src/widgets/../core/lv_obj_style_gen.h **** {
 105:lvgl/src/widgets/../core/lv_obj_style_gen.h ****     lv_style_value_t v = lv_obj_get_style_prop(obj, part, LV_STYLE_PAD_TOP);
 106:lvgl/src/widgets/../core/lv_obj_style_gen.h ****     return (lv_coord_t)v.num;
 107:lvgl/src/widgets/../core/lv_obj_style_gen.h **** }
 108:lvgl/src/widgets/../core/lv_obj_style_gen.h **** 
 109:lvgl/src/widgets/../core/lv_obj_style_gen.h **** static inline lv_coord_t lv_obj_get_style_pad_bottom(const struct _lv_obj_t * obj, uint32_t part)
 110:lvgl/src/widgets/../core/lv_obj_style_gen.h **** {
 111:lvgl/src/widgets/../core/lv_obj_style_gen.h ****     lv_style_value_t v = lv_obj_get_style_prop(obj, part, LV_STYLE_PAD_BOTTOM);
 112:lvgl/src/widgets/../core/lv_obj_style_gen.h ****     return (lv_coord_t)v.num;
 113:lvgl/src/widgets/../core/lv_obj_style_gen.h **** }
 114:lvgl/src/widgets/../core/lv_obj_style_gen.h **** 
 115:lvgl/src/widgets/../core/lv_obj_style_gen.h **** static inline lv_coord_t lv_obj_get_style_pad_left(const struct _lv_obj_t * obj, uint32_t part)
 116:lvgl/src/widgets/../core/lv_obj_style_gen.h **** {
 117:lvgl/src/widgets/../core/lv_obj_style_gen.h ****     lv_style_value_t v = lv_obj_get_style_prop(obj, part, LV_STYLE_PAD_LEFT);
 118:lvgl/src/widgets/../core/lv_obj_style_gen.h ****     return (lv_coord_t)v.num;
 119:lvgl/src/widgets/../core/lv_obj_style_gen.h **** }
 120:lvgl/src/widgets/../core/lv_obj_style_gen.h **** 
 121:lvgl/src/widgets/../core/lv_obj_style_gen.h **** static inline lv_coord_t lv_obj_get_style_pad_right(const struct _lv_obj_t * obj, uint32_t part)
 122:lvgl/src/widgets/../core/lv_obj_style_gen.h **** {
 123:lvgl/src/widgets/../core/lv_obj_style_gen.h ****     lv_style_value_t v = lv_obj_get_style_prop(obj, part, LV_STYLE_PAD_RIGHT);
ARM GAS  C:\Users\OSD\AppData\Local\Temp\cca5CFPq.s 			page 26


 124:lvgl/src/widgets/../core/lv_obj_style_gen.h ****     return (lv_coord_t)v.num;
 125:lvgl/src/widgets/../core/lv_obj_style_gen.h **** }
 126:lvgl/src/widgets/../core/lv_obj_style_gen.h **** 
 127:lvgl/src/widgets/../core/lv_obj_style_gen.h **** static inline lv_coord_t lv_obj_get_style_pad_row(const struct _lv_obj_t * obj, uint32_t part)
 128:lvgl/src/widgets/../core/lv_obj_style_gen.h **** {
 129:lvgl/src/widgets/../core/lv_obj_style_gen.h ****     lv_style_value_t v = lv_obj_get_style_prop(obj, part, LV_STYLE_PAD_ROW);
 130:lvgl/src/widgets/../core/lv_obj_style_gen.h ****     return (lv_coord_t)v.num;
 131:lvgl/src/widgets/../core/lv_obj_style_gen.h **** }
 132:lvgl/src/widgets/../core/lv_obj_style_gen.h **** 
 133:lvgl/src/widgets/../core/lv_obj_style_gen.h **** static inline lv_coord_t lv_obj_get_style_pad_column(const struct _lv_obj_t * obj, uint32_t part)
 134:lvgl/src/widgets/../core/lv_obj_style_gen.h **** {
 135:lvgl/src/widgets/../core/lv_obj_style_gen.h ****     lv_style_value_t v = lv_obj_get_style_prop(obj, part, LV_STYLE_PAD_COLUMN);
 136:lvgl/src/widgets/../core/lv_obj_style_gen.h ****     return (lv_coord_t)v.num;
 137:lvgl/src/widgets/../core/lv_obj_style_gen.h **** }
 138:lvgl/src/widgets/../core/lv_obj_style_gen.h **** 
 139:lvgl/src/widgets/../core/lv_obj_style_gen.h **** static inline lv_color_t lv_obj_get_style_bg_color(const struct _lv_obj_t * obj, uint32_t part)
 140:lvgl/src/widgets/../core/lv_obj_style_gen.h **** {
 141:lvgl/src/widgets/../core/lv_obj_style_gen.h ****     lv_style_value_t v = lv_obj_get_style_prop(obj, part, LV_STYLE_BG_COLOR);
 142:lvgl/src/widgets/../core/lv_obj_style_gen.h ****     return v.color;
 143:lvgl/src/widgets/../core/lv_obj_style_gen.h **** }
 144:lvgl/src/widgets/../core/lv_obj_style_gen.h **** 
 145:lvgl/src/widgets/../core/lv_obj_style_gen.h **** static inline lv_color_t lv_obj_get_style_bg_color_filtered(const struct _lv_obj_t * obj, uint32_t 
 146:lvgl/src/widgets/../core/lv_obj_style_gen.h **** {
 147:lvgl/src/widgets/../core/lv_obj_style_gen.h ****     lv_style_value_t v = _lv_obj_style_apply_color_filter(obj, part, lv_obj_get_style_prop(obj, par
 148:lvgl/src/widgets/../core/lv_obj_style_gen.h ****     return v.color;
 149:lvgl/src/widgets/../core/lv_obj_style_gen.h **** }
 150:lvgl/src/widgets/../core/lv_obj_style_gen.h **** 
 151:lvgl/src/widgets/../core/lv_obj_style_gen.h **** static inline lv_opa_t lv_obj_get_style_bg_opa(const struct _lv_obj_t * obj, uint32_t part)
 152:lvgl/src/widgets/../core/lv_obj_style_gen.h **** {
 153:lvgl/src/widgets/../core/lv_obj_style_gen.h ****     lv_style_value_t v = lv_obj_get_style_prop(obj, part, LV_STYLE_BG_OPA);
 154:lvgl/src/widgets/../core/lv_obj_style_gen.h ****     return (lv_opa_t)v.num;
 155:lvgl/src/widgets/../core/lv_obj_style_gen.h **** }
 156:lvgl/src/widgets/../core/lv_obj_style_gen.h **** 
 157:lvgl/src/widgets/../core/lv_obj_style_gen.h **** static inline lv_color_t lv_obj_get_style_bg_grad_color(const struct _lv_obj_t * obj, uint32_t part
 158:lvgl/src/widgets/../core/lv_obj_style_gen.h **** {
 159:lvgl/src/widgets/../core/lv_obj_style_gen.h ****     lv_style_value_t v = lv_obj_get_style_prop(obj, part, LV_STYLE_BG_GRAD_COLOR);
 160:lvgl/src/widgets/../core/lv_obj_style_gen.h ****     return v.color;
 161:lvgl/src/widgets/../core/lv_obj_style_gen.h **** }
 162:lvgl/src/widgets/../core/lv_obj_style_gen.h **** 
 163:lvgl/src/widgets/../core/lv_obj_style_gen.h **** static inline lv_color_t lv_obj_get_style_bg_grad_color_filtered(const struct _lv_obj_t * obj, uint
 164:lvgl/src/widgets/../core/lv_obj_style_gen.h **** {
 165:lvgl/src/widgets/../core/lv_obj_style_gen.h ****     lv_style_value_t v = _lv_obj_style_apply_color_filter(obj, part, lv_obj_get_style_prop(obj, par
 166:lvgl/src/widgets/../core/lv_obj_style_gen.h ****     return v.color;
 167:lvgl/src/widgets/../core/lv_obj_style_gen.h **** }
 168:lvgl/src/widgets/../core/lv_obj_style_gen.h **** 
 169:lvgl/src/widgets/../core/lv_obj_style_gen.h **** static inline lv_grad_dir_t lv_obj_get_style_bg_grad_dir(const struct _lv_obj_t * obj, uint32_t par
 170:lvgl/src/widgets/../core/lv_obj_style_gen.h **** {
 171:lvgl/src/widgets/../core/lv_obj_style_gen.h ****     lv_style_value_t v = lv_obj_get_style_prop(obj, part, LV_STYLE_BG_GRAD_DIR);
 172:lvgl/src/widgets/../core/lv_obj_style_gen.h ****     return (lv_grad_dir_t)v.num;
 173:lvgl/src/widgets/../core/lv_obj_style_gen.h **** }
 174:lvgl/src/widgets/../core/lv_obj_style_gen.h **** 
 175:lvgl/src/widgets/../core/lv_obj_style_gen.h **** static inline lv_coord_t lv_obj_get_style_bg_main_stop(const struct _lv_obj_t * obj, uint32_t part)
 176:lvgl/src/widgets/../core/lv_obj_style_gen.h **** {
 177:lvgl/src/widgets/../core/lv_obj_style_gen.h ****     lv_style_value_t v = lv_obj_get_style_prop(obj, part, LV_STYLE_BG_MAIN_STOP);
 178:lvgl/src/widgets/../core/lv_obj_style_gen.h ****     return (lv_coord_t)v.num;
 179:lvgl/src/widgets/../core/lv_obj_style_gen.h **** }
 180:lvgl/src/widgets/../core/lv_obj_style_gen.h **** 
ARM GAS  C:\Users\OSD\AppData\Local\Temp\cca5CFPq.s 			page 27


 181:lvgl/src/widgets/../core/lv_obj_style_gen.h **** static inline lv_coord_t lv_obj_get_style_bg_grad_stop(const struct _lv_obj_t * obj, uint32_t part)
 182:lvgl/src/widgets/../core/lv_obj_style_gen.h **** {
 183:lvgl/src/widgets/../core/lv_obj_style_gen.h ****     lv_style_value_t v = lv_obj_get_style_prop(obj, part, LV_STYLE_BG_GRAD_STOP);
 184:lvgl/src/widgets/../core/lv_obj_style_gen.h ****     return (lv_coord_t)v.num;
 185:lvgl/src/widgets/../core/lv_obj_style_gen.h **** }
 186:lvgl/src/widgets/../core/lv_obj_style_gen.h **** 
 187:lvgl/src/widgets/../core/lv_obj_style_gen.h **** static inline const lv_grad_dsc_t * lv_obj_get_style_bg_grad(const struct _lv_obj_t * obj, uint32_t
 188:lvgl/src/widgets/../core/lv_obj_style_gen.h **** {
 189:lvgl/src/widgets/../core/lv_obj_style_gen.h ****     lv_style_value_t v = lv_obj_get_style_prop(obj, part, LV_STYLE_BG_GRAD);
 190:lvgl/src/widgets/../core/lv_obj_style_gen.h ****     return (const lv_grad_dsc_t *)v.ptr;
 191:lvgl/src/widgets/../core/lv_obj_style_gen.h **** }
 192:lvgl/src/widgets/../core/lv_obj_style_gen.h **** 
 193:lvgl/src/widgets/../core/lv_obj_style_gen.h **** static inline lv_dither_mode_t lv_obj_get_style_bg_dither_mode(const struct _lv_obj_t * obj, uint32
 194:lvgl/src/widgets/../core/lv_obj_style_gen.h **** {
 195:lvgl/src/widgets/../core/lv_obj_style_gen.h ****     lv_style_value_t v = lv_obj_get_style_prop(obj, part, LV_STYLE_BG_DITHER_MODE);
 196:lvgl/src/widgets/../core/lv_obj_style_gen.h ****     return (lv_dither_mode_t)v.num;
 197:lvgl/src/widgets/../core/lv_obj_style_gen.h **** }
 198:lvgl/src/widgets/../core/lv_obj_style_gen.h **** 
 199:lvgl/src/widgets/../core/lv_obj_style_gen.h **** static inline const void * lv_obj_get_style_bg_img_src(const struct _lv_obj_t * obj, uint32_t part)
 200:lvgl/src/widgets/../core/lv_obj_style_gen.h **** {
 201:lvgl/src/widgets/../core/lv_obj_style_gen.h ****     lv_style_value_t v = lv_obj_get_style_prop(obj, part, LV_STYLE_BG_IMG_SRC);
 202:lvgl/src/widgets/../core/lv_obj_style_gen.h ****     return (const void *)v.ptr;
 203:lvgl/src/widgets/../core/lv_obj_style_gen.h **** }
 204:lvgl/src/widgets/../core/lv_obj_style_gen.h **** 
 205:lvgl/src/widgets/../core/lv_obj_style_gen.h **** static inline lv_opa_t lv_obj_get_style_bg_img_opa(const struct _lv_obj_t * obj, uint32_t part)
 206:lvgl/src/widgets/../core/lv_obj_style_gen.h **** {
 207:lvgl/src/widgets/../core/lv_obj_style_gen.h ****     lv_style_value_t v = lv_obj_get_style_prop(obj, part, LV_STYLE_BG_IMG_OPA);
 208:lvgl/src/widgets/../core/lv_obj_style_gen.h ****     return (lv_opa_t)v.num;
 209:lvgl/src/widgets/../core/lv_obj_style_gen.h **** }
 210:lvgl/src/widgets/../core/lv_obj_style_gen.h **** 
 211:lvgl/src/widgets/../core/lv_obj_style_gen.h **** static inline lv_color_t lv_obj_get_style_bg_img_recolor(const struct _lv_obj_t * obj, uint32_t par
 212:lvgl/src/widgets/../core/lv_obj_style_gen.h **** {
 213:lvgl/src/widgets/../core/lv_obj_style_gen.h ****     lv_style_value_t v = lv_obj_get_style_prop(obj, part, LV_STYLE_BG_IMG_RECOLOR);
 214:lvgl/src/widgets/../core/lv_obj_style_gen.h ****     return v.color;
 215:lvgl/src/widgets/../core/lv_obj_style_gen.h **** }
 216:lvgl/src/widgets/../core/lv_obj_style_gen.h **** 
 217:lvgl/src/widgets/../core/lv_obj_style_gen.h **** static inline lv_color_t lv_obj_get_style_bg_img_recolor_filtered(const struct _lv_obj_t * obj, uin
 218:lvgl/src/widgets/../core/lv_obj_style_gen.h **** {
 219:lvgl/src/widgets/../core/lv_obj_style_gen.h ****     lv_style_value_t v = _lv_obj_style_apply_color_filter(obj, part, lv_obj_get_style_prop(obj, par
 220:lvgl/src/widgets/../core/lv_obj_style_gen.h ****     return v.color;
 221:lvgl/src/widgets/../core/lv_obj_style_gen.h **** }
 222:lvgl/src/widgets/../core/lv_obj_style_gen.h **** 
 223:lvgl/src/widgets/../core/lv_obj_style_gen.h **** static inline lv_opa_t lv_obj_get_style_bg_img_recolor_opa(const struct _lv_obj_t * obj, uint32_t p
 224:lvgl/src/widgets/../core/lv_obj_style_gen.h **** {
 225:lvgl/src/widgets/../core/lv_obj_style_gen.h ****     lv_style_value_t v = lv_obj_get_style_prop(obj, part, LV_STYLE_BG_IMG_RECOLOR_OPA);
 226:lvgl/src/widgets/../core/lv_obj_style_gen.h ****     return (lv_opa_t)v.num;
 227:lvgl/src/widgets/../core/lv_obj_style_gen.h **** }
 228:lvgl/src/widgets/../core/lv_obj_style_gen.h **** 
 229:lvgl/src/widgets/../core/lv_obj_style_gen.h **** static inline bool lv_obj_get_style_bg_img_tiled(const struct _lv_obj_t * obj, uint32_t part)
 230:lvgl/src/widgets/../core/lv_obj_style_gen.h **** {
 231:lvgl/src/widgets/../core/lv_obj_style_gen.h ****     lv_style_value_t v = lv_obj_get_style_prop(obj, part, LV_STYLE_BG_IMG_TILED);
 232:lvgl/src/widgets/../core/lv_obj_style_gen.h ****     return (bool)v.num;
 233:lvgl/src/widgets/../core/lv_obj_style_gen.h **** }
 234:lvgl/src/widgets/../core/lv_obj_style_gen.h **** 
 235:lvgl/src/widgets/../core/lv_obj_style_gen.h **** static inline lv_color_t lv_obj_get_style_border_color(const struct _lv_obj_t * obj, uint32_t part)
 236:lvgl/src/widgets/../core/lv_obj_style_gen.h **** {
 237:lvgl/src/widgets/../core/lv_obj_style_gen.h ****     lv_style_value_t v = lv_obj_get_style_prop(obj, part, LV_STYLE_BORDER_COLOR);
ARM GAS  C:\Users\OSD\AppData\Local\Temp\cca5CFPq.s 			page 28


 238:lvgl/src/widgets/../core/lv_obj_style_gen.h ****     return v.color;
 239:lvgl/src/widgets/../core/lv_obj_style_gen.h **** }
 240:lvgl/src/widgets/../core/lv_obj_style_gen.h **** 
 241:lvgl/src/widgets/../core/lv_obj_style_gen.h **** static inline lv_color_t lv_obj_get_style_border_color_filtered(const struct _lv_obj_t * obj, uint3
 242:lvgl/src/widgets/../core/lv_obj_style_gen.h **** {
 243:lvgl/src/widgets/../core/lv_obj_style_gen.h ****     lv_style_value_t v = _lv_obj_style_apply_color_filter(obj, part, lv_obj_get_style_prop(obj, par
 244:lvgl/src/widgets/../core/lv_obj_style_gen.h ****     return v.color;
 245:lvgl/src/widgets/../core/lv_obj_style_gen.h **** }
 246:lvgl/src/widgets/../core/lv_obj_style_gen.h **** 
 247:lvgl/src/widgets/../core/lv_obj_style_gen.h **** static inline lv_opa_t lv_obj_get_style_border_opa(const struct _lv_obj_t * obj, uint32_t part)
 248:lvgl/src/widgets/../core/lv_obj_style_gen.h **** {
 249:lvgl/src/widgets/../core/lv_obj_style_gen.h ****     lv_style_value_t v = lv_obj_get_style_prop(obj, part, LV_STYLE_BORDER_OPA);
 250:lvgl/src/widgets/../core/lv_obj_style_gen.h ****     return (lv_opa_t)v.num;
 251:lvgl/src/widgets/../core/lv_obj_style_gen.h **** }
 252:lvgl/src/widgets/../core/lv_obj_style_gen.h **** 
 253:lvgl/src/widgets/../core/lv_obj_style_gen.h **** static inline lv_coord_t lv_obj_get_style_border_width(const struct _lv_obj_t * obj, uint32_t part)
 254:lvgl/src/widgets/../core/lv_obj_style_gen.h **** {
 255:lvgl/src/widgets/../core/lv_obj_style_gen.h ****     lv_style_value_t v = lv_obj_get_style_prop(obj, part, LV_STYLE_BORDER_WIDTH);
 256:lvgl/src/widgets/../core/lv_obj_style_gen.h ****     return (lv_coord_t)v.num;
 257:lvgl/src/widgets/../core/lv_obj_style_gen.h **** }
 258:lvgl/src/widgets/../core/lv_obj_style_gen.h **** 
 259:lvgl/src/widgets/../core/lv_obj_style_gen.h **** static inline lv_border_side_t lv_obj_get_style_border_side(const struct _lv_obj_t * obj, uint32_t 
 260:lvgl/src/widgets/../core/lv_obj_style_gen.h **** {
 261:lvgl/src/widgets/../core/lv_obj_style_gen.h ****     lv_style_value_t v = lv_obj_get_style_prop(obj, part, LV_STYLE_BORDER_SIDE);
 262:lvgl/src/widgets/../core/lv_obj_style_gen.h ****     return (lv_border_side_t)v.num;
 263:lvgl/src/widgets/../core/lv_obj_style_gen.h **** }
 264:lvgl/src/widgets/../core/lv_obj_style_gen.h **** 
 265:lvgl/src/widgets/../core/lv_obj_style_gen.h **** static inline bool lv_obj_get_style_border_post(const struct _lv_obj_t * obj, uint32_t part)
 266:lvgl/src/widgets/../core/lv_obj_style_gen.h **** {
 267:lvgl/src/widgets/../core/lv_obj_style_gen.h ****     lv_style_value_t v = lv_obj_get_style_prop(obj, part, LV_STYLE_BORDER_POST);
 268:lvgl/src/widgets/../core/lv_obj_style_gen.h ****     return (bool)v.num;
 269:lvgl/src/widgets/../core/lv_obj_style_gen.h **** }
 270:lvgl/src/widgets/../core/lv_obj_style_gen.h **** 
 271:lvgl/src/widgets/../core/lv_obj_style_gen.h **** static inline lv_coord_t lv_obj_get_style_outline_width(const struct _lv_obj_t * obj, uint32_t part
 272:lvgl/src/widgets/../core/lv_obj_style_gen.h **** {
 273:lvgl/src/widgets/../core/lv_obj_style_gen.h ****     lv_style_value_t v = lv_obj_get_style_prop(obj, part, LV_STYLE_OUTLINE_WIDTH);
 274:lvgl/src/widgets/../core/lv_obj_style_gen.h ****     return (lv_coord_t)v.num;
 275:lvgl/src/widgets/../core/lv_obj_style_gen.h **** }
 276:lvgl/src/widgets/../core/lv_obj_style_gen.h **** 
 277:lvgl/src/widgets/../core/lv_obj_style_gen.h **** static inline lv_color_t lv_obj_get_style_outline_color(const struct _lv_obj_t * obj, uint32_t part
 278:lvgl/src/widgets/../core/lv_obj_style_gen.h **** {
 279:lvgl/src/widgets/../core/lv_obj_style_gen.h ****     lv_style_value_t v = lv_obj_get_style_prop(obj, part, LV_STYLE_OUTLINE_COLOR);
 280:lvgl/src/widgets/../core/lv_obj_style_gen.h ****     return v.color;
 281:lvgl/src/widgets/../core/lv_obj_style_gen.h **** }
 282:lvgl/src/widgets/../core/lv_obj_style_gen.h **** 
 283:lvgl/src/widgets/../core/lv_obj_style_gen.h **** static inline lv_color_t lv_obj_get_style_outline_color_filtered(const struct _lv_obj_t * obj, uint
 284:lvgl/src/widgets/../core/lv_obj_style_gen.h **** {
 285:lvgl/src/widgets/../core/lv_obj_style_gen.h ****     lv_style_value_t v = _lv_obj_style_apply_color_filter(obj, part, lv_obj_get_style_prop(obj, par
 286:lvgl/src/widgets/../core/lv_obj_style_gen.h ****     return v.color;
 287:lvgl/src/widgets/../core/lv_obj_style_gen.h **** }
 288:lvgl/src/widgets/../core/lv_obj_style_gen.h **** 
 289:lvgl/src/widgets/../core/lv_obj_style_gen.h **** static inline lv_opa_t lv_obj_get_style_outline_opa(const struct _lv_obj_t * obj, uint32_t part)
 290:lvgl/src/widgets/../core/lv_obj_style_gen.h **** {
 291:lvgl/src/widgets/../core/lv_obj_style_gen.h ****     lv_style_value_t v = lv_obj_get_style_prop(obj, part, LV_STYLE_OUTLINE_OPA);
 292:lvgl/src/widgets/../core/lv_obj_style_gen.h ****     return (lv_opa_t)v.num;
 293:lvgl/src/widgets/../core/lv_obj_style_gen.h **** }
 294:lvgl/src/widgets/../core/lv_obj_style_gen.h **** 
ARM GAS  C:\Users\OSD\AppData\Local\Temp\cca5CFPq.s 			page 29


 295:lvgl/src/widgets/../core/lv_obj_style_gen.h **** static inline lv_coord_t lv_obj_get_style_outline_pad(const struct _lv_obj_t * obj, uint32_t part)
 296:lvgl/src/widgets/../core/lv_obj_style_gen.h **** {
 297:lvgl/src/widgets/../core/lv_obj_style_gen.h ****     lv_style_value_t v = lv_obj_get_style_prop(obj, part, LV_STYLE_OUTLINE_PAD);
 298:lvgl/src/widgets/../core/lv_obj_style_gen.h ****     return (lv_coord_t)v.num;
 299:lvgl/src/widgets/../core/lv_obj_style_gen.h **** }
 300:lvgl/src/widgets/../core/lv_obj_style_gen.h **** 
 301:lvgl/src/widgets/../core/lv_obj_style_gen.h **** static inline lv_coord_t lv_obj_get_style_shadow_width(const struct _lv_obj_t * obj, uint32_t part)
 302:lvgl/src/widgets/../core/lv_obj_style_gen.h **** {
 303:lvgl/src/widgets/../core/lv_obj_style_gen.h ****     lv_style_value_t v = lv_obj_get_style_prop(obj, part, LV_STYLE_SHADOW_WIDTH);
 304:lvgl/src/widgets/../core/lv_obj_style_gen.h ****     return (lv_coord_t)v.num;
 305:lvgl/src/widgets/../core/lv_obj_style_gen.h **** }
 306:lvgl/src/widgets/../core/lv_obj_style_gen.h **** 
 307:lvgl/src/widgets/../core/lv_obj_style_gen.h **** static inline lv_coord_t lv_obj_get_style_shadow_ofs_x(const struct _lv_obj_t * obj, uint32_t part)
 308:lvgl/src/widgets/../core/lv_obj_style_gen.h **** {
 309:lvgl/src/widgets/../core/lv_obj_style_gen.h ****     lv_style_value_t v = lv_obj_get_style_prop(obj, part, LV_STYLE_SHADOW_OFS_X);
 310:lvgl/src/widgets/../core/lv_obj_style_gen.h ****     return (lv_coord_t)v.num;
 311:lvgl/src/widgets/../core/lv_obj_style_gen.h **** }
 312:lvgl/src/widgets/../core/lv_obj_style_gen.h **** 
 313:lvgl/src/widgets/../core/lv_obj_style_gen.h **** static inline lv_coord_t lv_obj_get_style_shadow_ofs_y(const struct _lv_obj_t * obj, uint32_t part)
 314:lvgl/src/widgets/../core/lv_obj_style_gen.h **** {
 315:lvgl/src/widgets/../core/lv_obj_style_gen.h ****     lv_style_value_t v = lv_obj_get_style_prop(obj, part, LV_STYLE_SHADOW_OFS_Y);
 316:lvgl/src/widgets/../core/lv_obj_style_gen.h ****     return (lv_coord_t)v.num;
 317:lvgl/src/widgets/../core/lv_obj_style_gen.h **** }
 318:lvgl/src/widgets/../core/lv_obj_style_gen.h **** 
 319:lvgl/src/widgets/../core/lv_obj_style_gen.h **** static inline lv_coord_t lv_obj_get_style_shadow_spread(const struct _lv_obj_t * obj, uint32_t part
 320:lvgl/src/widgets/../core/lv_obj_style_gen.h **** {
 321:lvgl/src/widgets/../core/lv_obj_style_gen.h ****     lv_style_value_t v = lv_obj_get_style_prop(obj, part, LV_STYLE_SHADOW_SPREAD);
 322:lvgl/src/widgets/../core/lv_obj_style_gen.h ****     return (lv_coord_t)v.num;
 323:lvgl/src/widgets/../core/lv_obj_style_gen.h **** }
 324:lvgl/src/widgets/../core/lv_obj_style_gen.h **** 
 325:lvgl/src/widgets/../core/lv_obj_style_gen.h **** static inline lv_color_t lv_obj_get_style_shadow_color(const struct _lv_obj_t * obj, uint32_t part)
 326:lvgl/src/widgets/../core/lv_obj_style_gen.h **** {
 327:lvgl/src/widgets/../core/lv_obj_style_gen.h ****     lv_style_value_t v = lv_obj_get_style_prop(obj, part, LV_STYLE_SHADOW_COLOR);
 328:lvgl/src/widgets/../core/lv_obj_style_gen.h ****     return v.color;
 329:lvgl/src/widgets/../core/lv_obj_style_gen.h **** }
 330:lvgl/src/widgets/../core/lv_obj_style_gen.h **** 
 331:lvgl/src/widgets/../core/lv_obj_style_gen.h **** static inline lv_color_t lv_obj_get_style_shadow_color_filtered(const struct _lv_obj_t * obj, uint3
 332:lvgl/src/widgets/../core/lv_obj_style_gen.h **** {
 333:lvgl/src/widgets/../core/lv_obj_style_gen.h ****     lv_style_value_t v = _lv_obj_style_apply_color_filter(obj, part, lv_obj_get_style_prop(obj, par
 334:lvgl/src/widgets/../core/lv_obj_style_gen.h ****     return v.color;
 335:lvgl/src/widgets/../core/lv_obj_style_gen.h **** }
 336:lvgl/src/widgets/../core/lv_obj_style_gen.h **** 
 337:lvgl/src/widgets/../core/lv_obj_style_gen.h **** static inline lv_opa_t lv_obj_get_style_shadow_opa(const struct _lv_obj_t * obj, uint32_t part)
 338:lvgl/src/widgets/../core/lv_obj_style_gen.h **** {
 339:lvgl/src/widgets/../core/lv_obj_style_gen.h ****     lv_style_value_t v = lv_obj_get_style_prop(obj, part, LV_STYLE_SHADOW_OPA);
 340:lvgl/src/widgets/../core/lv_obj_style_gen.h ****     return (lv_opa_t)v.num;
 341:lvgl/src/widgets/../core/lv_obj_style_gen.h **** }
 342:lvgl/src/widgets/../core/lv_obj_style_gen.h **** 
 343:lvgl/src/widgets/../core/lv_obj_style_gen.h **** static inline lv_opa_t lv_obj_get_style_img_opa(const struct _lv_obj_t * obj, uint32_t part)
 344:lvgl/src/widgets/../core/lv_obj_style_gen.h **** {
 345:lvgl/src/widgets/../core/lv_obj_style_gen.h ****     lv_style_value_t v = lv_obj_get_style_prop(obj, part, LV_STYLE_IMG_OPA);
 346:lvgl/src/widgets/../core/lv_obj_style_gen.h ****     return (lv_opa_t)v.num;
 347:lvgl/src/widgets/../core/lv_obj_style_gen.h **** }
 348:lvgl/src/widgets/../core/lv_obj_style_gen.h **** 
 349:lvgl/src/widgets/../core/lv_obj_style_gen.h **** static inline lv_color_t lv_obj_get_style_img_recolor(const struct _lv_obj_t * obj, uint32_t part)
 350:lvgl/src/widgets/../core/lv_obj_style_gen.h **** {
 351:lvgl/src/widgets/../core/lv_obj_style_gen.h ****     lv_style_value_t v = lv_obj_get_style_prop(obj, part, LV_STYLE_IMG_RECOLOR);
ARM GAS  C:\Users\OSD\AppData\Local\Temp\cca5CFPq.s 			page 30


 352:lvgl/src/widgets/../core/lv_obj_style_gen.h ****     return v.color;
 353:lvgl/src/widgets/../core/lv_obj_style_gen.h **** }
 354:lvgl/src/widgets/../core/lv_obj_style_gen.h **** 
 355:lvgl/src/widgets/../core/lv_obj_style_gen.h **** static inline lv_color_t lv_obj_get_style_img_recolor_filtered(const struct _lv_obj_t * obj, uint32
 356:lvgl/src/widgets/../core/lv_obj_style_gen.h **** {
 357:lvgl/src/widgets/../core/lv_obj_style_gen.h ****     lv_style_value_t v = _lv_obj_style_apply_color_filter(obj, part, lv_obj_get_style_prop(obj, par
 358:lvgl/src/widgets/../core/lv_obj_style_gen.h ****     return v.color;
 359:lvgl/src/widgets/../core/lv_obj_style_gen.h **** }
 360:lvgl/src/widgets/../core/lv_obj_style_gen.h **** 
 361:lvgl/src/widgets/../core/lv_obj_style_gen.h **** static inline lv_opa_t lv_obj_get_style_img_recolor_opa(const struct _lv_obj_t * obj, uint32_t part
 362:lvgl/src/widgets/../core/lv_obj_style_gen.h **** {
 363:lvgl/src/widgets/../core/lv_obj_style_gen.h ****     lv_style_value_t v = lv_obj_get_style_prop(obj, part, LV_STYLE_IMG_RECOLOR_OPA);
 364:lvgl/src/widgets/../core/lv_obj_style_gen.h ****     return (lv_opa_t)v.num;
 365:lvgl/src/widgets/../core/lv_obj_style_gen.h **** }
 366:lvgl/src/widgets/../core/lv_obj_style_gen.h **** 
 367:lvgl/src/widgets/../core/lv_obj_style_gen.h **** static inline lv_coord_t lv_obj_get_style_line_width(const struct _lv_obj_t * obj, uint32_t part)
 368:lvgl/src/widgets/../core/lv_obj_style_gen.h **** {
 369:lvgl/src/widgets/../core/lv_obj_style_gen.h ****     lv_style_value_t v = lv_obj_get_style_prop(obj, part, LV_STYLE_LINE_WIDTH);
 370:lvgl/src/widgets/../core/lv_obj_style_gen.h ****     return (lv_coord_t)v.num;
 371:lvgl/src/widgets/../core/lv_obj_style_gen.h **** }
 372:lvgl/src/widgets/../core/lv_obj_style_gen.h **** 
 373:lvgl/src/widgets/../core/lv_obj_style_gen.h **** static inline lv_coord_t lv_obj_get_style_line_dash_width(const struct _lv_obj_t * obj, uint32_t pa
 374:lvgl/src/widgets/../core/lv_obj_style_gen.h **** {
 375:lvgl/src/widgets/../core/lv_obj_style_gen.h ****     lv_style_value_t v = lv_obj_get_style_prop(obj, part, LV_STYLE_LINE_DASH_WIDTH);
 376:lvgl/src/widgets/../core/lv_obj_style_gen.h ****     return (lv_coord_t)v.num;
 377:lvgl/src/widgets/../core/lv_obj_style_gen.h **** }
 378:lvgl/src/widgets/../core/lv_obj_style_gen.h **** 
 379:lvgl/src/widgets/../core/lv_obj_style_gen.h **** static inline lv_coord_t lv_obj_get_style_line_dash_gap(const struct _lv_obj_t * obj, uint32_t part
 380:lvgl/src/widgets/../core/lv_obj_style_gen.h **** {
 381:lvgl/src/widgets/../core/lv_obj_style_gen.h ****     lv_style_value_t v = lv_obj_get_style_prop(obj, part, LV_STYLE_LINE_DASH_GAP);
 382:lvgl/src/widgets/../core/lv_obj_style_gen.h ****     return (lv_coord_t)v.num;
 383:lvgl/src/widgets/../core/lv_obj_style_gen.h **** }
 384:lvgl/src/widgets/../core/lv_obj_style_gen.h **** 
 385:lvgl/src/widgets/../core/lv_obj_style_gen.h **** static inline bool lv_obj_get_style_line_rounded(const struct _lv_obj_t * obj, uint32_t part)
 386:lvgl/src/widgets/../core/lv_obj_style_gen.h **** {
 387:lvgl/src/widgets/../core/lv_obj_style_gen.h ****     lv_style_value_t v = lv_obj_get_style_prop(obj, part, LV_STYLE_LINE_ROUNDED);
 388:lvgl/src/widgets/../core/lv_obj_style_gen.h ****     return (bool)v.num;
 389:lvgl/src/widgets/../core/lv_obj_style_gen.h **** }
 390:lvgl/src/widgets/../core/lv_obj_style_gen.h **** 
 391:lvgl/src/widgets/../core/lv_obj_style_gen.h **** static inline lv_color_t lv_obj_get_style_line_color(const struct _lv_obj_t * obj, uint32_t part)
 392:lvgl/src/widgets/../core/lv_obj_style_gen.h **** {
 393:lvgl/src/widgets/../core/lv_obj_style_gen.h ****     lv_style_value_t v = lv_obj_get_style_prop(obj, part, LV_STYLE_LINE_COLOR);
 394:lvgl/src/widgets/../core/lv_obj_style_gen.h ****     return v.color;
 395:lvgl/src/widgets/../core/lv_obj_style_gen.h **** }
 396:lvgl/src/widgets/../core/lv_obj_style_gen.h **** 
 397:lvgl/src/widgets/../core/lv_obj_style_gen.h **** static inline lv_color_t lv_obj_get_style_line_color_filtered(const struct _lv_obj_t * obj, uint32_
 398:lvgl/src/widgets/../core/lv_obj_style_gen.h **** {
 399:lvgl/src/widgets/../core/lv_obj_style_gen.h ****     lv_style_value_t v = _lv_obj_style_apply_color_filter(obj, part, lv_obj_get_style_prop(obj, par
 400:lvgl/src/widgets/../core/lv_obj_style_gen.h ****     return v.color;
 401:lvgl/src/widgets/../core/lv_obj_style_gen.h **** }
 402:lvgl/src/widgets/../core/lv_obj_style_gen.h **** 
 403:lvgl/src/widgets/../core/lv_obj_style_gen.h **** static inline lv_opa_t lv_obj_get_style_line_opa(const struct _lv_obj_t * obj, uint32_t part)
 404:lvgl/src/widgets/../core/lv_obj_style_gen.h **** {
 405:lvgl/src/widgets/../core/lv_obj_style_gen.h ****     lv_style_value_t v = lv_obj_get_style_prop(obj, part, LV_STYLE_LINE_OPA);
 406:lvgl/src/widgets/../core/lv_obj_style_gen.h ****     return (lv_opa_t)v.num;
 407:lvgl/src/widgets/../core/lv_obj_style_gen.h **** }
 408:lvgl/src/widgets/../core/lv_obj_style_gen.h **** 
ARM GAS  C:\Users\OSD\AppData\Local\Temp\cca5CFPq.s 			page 31


 409:lvgl/src/widgets/../core/lv_obj_style_gen.h **** static inline lv_coord_t lv_obj_get_style_arc_width(const struct _lv_obj_t * obj, uint32_t part)
 410:lvgl/src/widgets/../core/lv_obj_style_gen.h **** {
 411:lvgl/src/widgets/../core/lv_obj_style_gen.h ****     lv_style_value_t v = lv_obj_get_style_prop(obj, part, LV_STYLE_ARC_WIDTH);
 412:lvgl/src/widgets/../core/lv_obj_style_gen.h ****     return (lv_coord_t)v.num;
 413:lvgl/src/widgets/../core/lv_obj_style_gen.h **** }
 414:lvgl/src/widgets/../core/lv_obj_style_gen.h **** 
 415:lvgl/src/widgets/../core/lv_obj_style_gen.h **** static inline bool lv_obj_get_style_arc_rounded(const struct _lv_obj_t * obj, uint32_t part)
 416:lvgl/src/widgets/../core/lv_obj_style_gen.h **** {
 417:lvgl/src/widgets/../core/lv_obj_style_gen.h ****     lv_style_value_t v = lv_obj_get_style_prop(obj, part, LV_STYLE_ARC_ROUNDED);
 418:lvgl/src/widgets/../core/lv_obj_style_gen.h ****     return (bool)v.num;
 419:lvgl/src/widgets/../core/lv_obj_style_gen.h **** }
 420:lvgl/src/widgets/../core/lv_obj_style_gen.h **** 
 421:lvgl/src/widgets/../core/lv_obj_style_gen.h **** static inline lv_color_t lv_obj_get_style_arc_color(const struct _lv_obj_t * obj, uint32_t part)
 422:lvgl/src/widgets/../core/lv_obj_style_gen.h **** {
 423:lvgl/src/widgets/../core/lv_obj_style_gen.h ****     lv_style_value_t v = lv_obj_get_style_prop(obj, part, LV_STYLE_ARC_COLOR);
 424:lvgl/src/widgets/../core/lv_obj_style_gen.h ****     return v.color;
 425:lvgl/src/widgets/../core/lv_obj_style_gen.h **** }
 426:lvgl/src/widgets/../core/lv_obj_style_gen.h **** 
 427:lvgl/src/widgets/../core/lv_obj_style_gen.h **** static inline lv_color_t lv_obj_get_style_arc_color_filtered(const struct _lv_obj_t * obj, uint32_t
 428:lvgl/src/widgets/../core/lv_obj_style_gen.h **** {
 429:lvgl/src/widgets/../core/lv_obj_style_gen.h ****     lv_style_value_t v = _lv_obj_style_apply_color_filter(obj, part, lv_obj_get_style_prop(obj, par
 430:lvgl/src/widgets/../core/lv_obj_style_gen.h ****     return v.color;
 431:lvgl/src/widgets/../core/lv_obj_style_gen.h **** }
 432:lvgl/src/widgets/../core/lv_obj_style_gen.h **** 
 433:lvgl/src/widgets/../core/lv_obj_style_gen.h **** static inline lv_opa_t lv_obj_get_style_arc_opa(const struct _lv_obj_t * obj, uint32_t part)
 434:lvgl/src/widgets/../core/lv_obj_style_gen.h **** {
 435:lvgl/src/widgets/../core/lv_obj_style_gen.h ****     lv_style_value_t v = lv_obj_get_style_prop(obj, part, LV_STYLE_ARC_OPA);
 436:lvgl/src/widgets/../core/lv_obj_style_gen.h ****     return (lv_opa_t)v.num;
 437:lvgl/src/widgets/../core/lv_obj_style_gen.h **** }
 438:lvgl/src/widgets/../core/lv_obj_style_gen.h **** 
 439:lvgl/src/widgets/../core/lv_obj_style_gen.h **** static inline const void * lv_obj_get_style_arc_img_src(const struct _lv_obj_t * obj, uint32_t part
 440:lvgl/src/widgets/../core/lv_obj_style_gen.h **** {
 441:lvgl/src/widgets/../core/lv_obj_style_gen.h ****     lv_style_value_t v = lv_obj_get_style_prop(obj, part, LV_STYLE_ARC_IMG_SRC);
 442:lvgl/src/widgets/../core/lv_obj_style_gen.h ****     return (const void *)v.ptr;
 443:lvgl/src/widgets/../core/lv_obj_style_gen.h **** }
 444:lvgl/src/widgets/../core/lv_obj_style_gen.h **** 
 445:lvgl/src/widgets/../core/lv_obj_style_gen.h **** static inline lv_color_t lv_obj_get_style_text_color(const struct _lv_obj_t * obj, uint32_t part)
 446:lvgl/src/widgets/../core/lv_obj_style_gen.h **** {
 447:lvgl/src/widgets/../core/lv_obj_style_gen.h ****     lv_style_value_t v = lv_obj_get_style_prop(obj, part, LV_STYLE_TEXT_COLOR);
 448:lvgl/src/widgets/../core/lv_obj_style_gen.h ****     return v.color;
 449:lvgl/src/widgets/../core/lv_obj_style_gen.h **** }
 450:lvgl/src/widgets/../core/lv_obj_style_gen.h **** 
 451:lvgl/src/widgets/../core/lv_obj_style_gen.h **** static inline lv_color_t lv_obj_get_style_text_color_filtered(const struct _lv_obj_t * obj, uint32_
 452:lvgl/src/widgets/../core/lv_obj_style_gen.h **** {
 453:lvgl/src/widgets/../core/lv_obj_style_gen.h ****     lv_style_value_t v = _lv_obj_style_apply_color_filter(obj, part, lv_obj_get_style_prop(obj, par
 454:lvgl/src/widgets/../core/lv_obj_style_gen.h ****     return v.color;
 455:lvgl/src/widgets/../core/lv_obj_style_gen.h **** }
 456:lvgl/src/widgets/../core/lv_obj_style_gen.h **** 
 457:lvgl/src/widgets/../core/lv_obj_style_gen.h **** static inline lv_opa_t lv_obj_get_style_text_opa(const struct _lv_obj_t * obj, uint32_t part)
 458:lvgl/src/widgets/../core/lv_obj_style_gen.h **** {
 459:lvgl/src/widgets/../core/lv_obj_style_gen.h ****     lv_style_value_t v = lv_obj_get_style_prop(obj, part, LV_STYLE_TEXT_OPA);
 460:lvgl/src/widgets/../core/lv_obj_style_gen.h ****     return (lv_opa_t)v.num;
 461:lvgl/src/widgets/../core/lv_obj_style_gen.h **** }
 462:lvgl/src/widgets/../core/lv_obj_style_gen.h **** 
 463:lvgl/src/widgets/../core/lv_obj_style_gen.h **** static inline const lv_font_t * lv_obj_get_style_text_font(const struct _lv_obj_t * obj, uint32_t p
 143              		.loc 2 463 33 view .LVU32
 144              	.LBB58:
ARM GAS  C:\Users\OSD\AppData\Local\Temp\cca5CFPq.s 			page 32


 464:lvgl/src/widgets/../core/lv_obj_style_gen.h **** {
 465:lvgl/src/widgets/../core/lv_obj_style_gen.h ****     lv_style_value_t v = lv_obj_get_style_prop(obj, part, LV_STYLE_TEXT_FONT);
 145              		.loc 2 465 5 view .LVU33
 146              		.loc 2 465 26 is_stmt 0 view .LVU34
 147 001e 5722     		movs	r2, #87
 148 0020 0021     		movs	r1, #0
 149 0022 3046     		mov	r0, r6
 150 0024 FFF7FEFF 		bl	lv_obj_get_style_prop
 151              	.LVL12:
 466:lvgl/src/widgets/../core/lv_obj_style_gen.h ****     return (const lv_font_t *)v.ptr;
 152              		.loc 2 466 5 is_stmt 1 view .LVU35
 153              		.loc 2 466 5 is_stmt 0 view .LVU36
 154              	.LBE58:
 155              	.LBE57:
1134:lvgl/src/widgets/lv_dropdown.c ****     lv_coord_t line_space = lv_obj_get_style_text_line_space(label, LV_PART_MAIN);
 156              		.loc 1 1134 5 is_stmt 1 view .LVU37
 157              	.LBB59:
 158              	.LBI59:
 159              		.file 3 "d:\\kzc\\stm32\\h743ii_lcd\\lvgl\\src\\font\\lv_font.h"
   1:d:\kzc\stm32\h743ii_lcd\lvgl\src\font\lv_font.h **** /**
   2:d:\kzc\stm32\h743ii_lcd\lvgl\src\font\lv_font.h ****  * @file lv_font.h
   3:d:\kzc\stm32\h743ii_lcd\lvgl\src\font\lv_font.h ****  *
   4:d:\kzc\stm32\h743ii_lcd\lvgl\src\font\lv_font.h ****  */
   5:d:\kzc\stm32\h743ii_lcd\lvgl\src\font\lv_font.h **** 
   6:d:\kzc\stm32\h743ii_lcd\lvgl\src\font\lv_font.h **** #ifndef LV_FONT_H
   7:d:\kzc\stm32\h743ii_lcd\lvgl\src\font\lv_font.h **** #define LV_FONT_H
   8:d:\kzc\stm32\h743ii_lcd\lvgl\src\font\lv_font.h **** 
   9:d:\kzc\stm32\h743ii_lcd\lvgl\src\font\lv_font.h **** #ifdef __cplusplus
  10:d:\kzc\stm32\h743ii_lcd\lvgl\src\font\lv_font.h **** extern "C" {
  11:d:\kzc\stm32\h743ii_lcd\lvgl\src\font\lv_font.h **** #endif
  12:d:\kzc\stm32\h743ii_lcd\lvgl\src\font\lv_font.h **** 
  13:d:\kzc\stm32\h743ii_lcd\lvgl\src\font\lv_font.h **** /*********************
  14:d:\kzc\stm32\h743ii_lcd\lvgl\src\font\lv_font.h ****  *      INCLUDES
  15:d:\kzc\stm32\h743ii_lcd\lvgl\src\font\lv_font.h ****  *********************/
  16:d:\kzc\stm32\h743ii_lcd\lvgl\src\font\lv_font.h **** #include "../lv_conf_internal.h"
  17:d:\kzc\stm32\h743ii_lcd\lvgl\src\font\lv_font.h **** #include <stdint.h>
  18:d:\kzc\stm32\h743ii_lcd\lvgl\src\font\lv_font.h **** #include <stddef.h>
  19:d:\kzc\stm32\h743ii_lcd\lvgl\src\font\lv_font.h **** #include <stdbool.h>
  20:d:\kzc\stm32\h743ii_lcd\lvgl\src\font\lv_font.h **** 
  21:d:\kzc\stm32\h743ii_lcd\lvgl\src\font\lv_font.h **** #include "lv_symbol_def.h"
  22:d:\kzc\stm32\h743ii_lcd\lvgl\src\font\lv_font.h **** #include "../misc/lv_area.h"
  23:d:\kzc\stm32\h743ii_lcd\lvgl\src\font\lv_font.h **** 
  24:d:\kzc\stm32\h743ii_lcd\lvgl\src\font\lv_font.h **** /*********************
  25:d:\kzc\stm32\h743ii_lcd\lvgl\src\font\lv_font.h ****  *      DEFINES
  26:d:\kzc\stm32\h743ii_lcd\lvgl\src\font\lv_font.h ****  *********************/
  27:d:\kzc\stm32\h743ii_lcd\lvgl\src\font\lv_font.h **** 
  28:d:\kzc\stm32\h743ii_lcd\lvgl\src\font\lv_font.h **** /* imgfont identifier */
  29:d:\kzc\stm32\h743ii_lcd\lvgl\src\font\lv_font.h **** #define LV_IMGFONT_BPP 9
  30:d:\kzc\stm32\h743ii_lcd\lvgl\src\font\lv_font.h **** 
  31:d:\kzc\stm32\h743ii_lcd\lvgl\src\font\lv_font.h **** /**********************
  32:d:\kzc\stm32\h743ii_lcd\lvgl\src\font\lv_font.h ****  *      TYPEDEFS
  33:d:\kzc\stm32\h743ii_lcd\lvgl\src\font\lv_font.h ****  **********************/
  34:d:\kzc\stm32\h743ii_lcd\lvgl\src\font\lv_font.h **** 
  35:d:\kzc\stm32\h743ii_lcd\lvgl\src\font\lv_font.h **** /*------------------
  36:d:\kzc\stm32\h743ii_lcd\lvgl\src\font\lv_font.h ****  * General types
  37:d:\kzc\stm32\h743ii_lcd\lvgl\src\font\lv_font.h ****  *-----------------*/
  38:d:\kzc\stm32\h743ii_lcd\lvgl\src\font\lv_font.h **** 
ARM GAS  C:\Users\OSD\AppData\Local\Temp\cca5CFPq.s 			page 33


  39:d:\kzc\stm32\h743ii_lcd\lvgl\src\font\lv_font.h **** struct _lv_font_t;
  40:d:\kzc\stm32\h743ii_lcd\lvgl\src\font\lv_font.h **** /** Describes the properties of a glyph.*/
  41:d:\kzc\stm32\h743ii_lcd\lvgl\src\font\lv_font.h **** typedef struct {
  42:d:\kzc\stm32\h743ii_lcd\lvgl\src\font\lv_font.h ****     const struct _lv_font_t *
  43:d:\kzc\stm32\h743ii_lcd\lvgl\src\font\lv_font.h ****         resolved_font; /**< Pointer to a font where the glyph was actually found after handling fal
  44:d:\kzc\stm32\h743ii_lcd\lvgl\src\font\lv_font.h ****     uint16_t adv_w; /**< The glyph needs this space. Draw the next glyph after this width.*/
  45:d:\kzc\stm32\h743ii_lcd\lvgl\src\font\lv_font.h ****     uint16_t box_w; /**< Width of the glyph's bounding box*/
  46:d:\kzc\stm32\h743ii_lcd\lvgl\src\font\lv_font.h ****     uint16_t box_h; /**< Height of the glyph's bounding box*/
  47:d:\kzc\stm32\h743ii_lcd\lvgl\src\font\lv_font.h ****     int16_t ofs_x;  /**< x offset of the bounding box*/
  48:d:\kzc\stm32\h743ii_lcd\lvgl\src\font\lv_font.h ****     int16_t ofs_y;  /**< y offset of the bounding box*/
  49:d:\kzc\stm32\h743ii_lcd\lvgl\src\font\lv_font.h ****     uint8_t bpp: 4;  /**< Bit-per-pixel: 1, 2, 4, 8*/
  50:d:\kzc\stm32\h743ii_lcd\lvgl\src\font\lv_font.h ****     uint8_t is_placeholder: 1; /** Glyph is missing. But placeholder will still be displayed */
  51:d:\kzc\stm32\h743ii_lcd\lvgl\src\font\lv_font.h **** } lv_font_glyph_dsc_t;
  52:d:\kzc\stm32\h743ii_lcd\lvgl\src\font\lv_font.h **** 
  53:d:\kzc\stm32\h743ii_lcd\lvgl\src\font\lv_font.h **** /** The bitmaps might be upscaled by 3 to achieve subpixel rendering.*/
  54:d:\kzc\stm32\h743ii_lcd\lvgl\src\font\lv_font.h **** enum {
  55:d:\kzc\stm32\h743ii_lcd\lvgl\src\font\lv_font.h ****     LV_FONT_SUBPX_NONE,
  56:d:\kzc\stm32\h743ii_lcd\lvgl\src\font\lv_font.h ****     LV_FONT_SUBPX_HOR,
  57:d:\kzc\stm32\h743ii_lcd\lvgl\src\font\lv_font.h ****     LV_FONT_SUBPX_VER,
  58:d:\kzc\stm32\h743ii_lcd\lvgl\src\font\lv_font.h ****     LV_FONT_SUBPX_BOTH,
  59:d:\kzc\stm32\h743ii_lcd\lvgl\src\font\lv_font.h **** };
  60:d:\kzc\stm32\h743ii_lcd\lvgl\src\font\lv_font.h **** 
  61:d:\kzc\stm32\h743ii_lcd\lvgl\src\font\lv_font.h **** typedef uint8_t lv_font_subpx_t;
  62:d:\kzc\stm32\h743ii_lcd\lvgl\src\font\lv_font.h **** 
  63:d:\kzc\stm32\h743ii_lcd\lvgl\src\font\lv_font.h **** /** Describe the properties of a font*/
  64:d:\kzc\stm32\h743ii_lcd\lvgl\src\font\lv_font.h **** typedef struct _lv_font_t {
  65:d:\kzc\stm32\h743ii_lcd\lvgl\src\font\lv_font.h ****     /** Get a glyph's descriptor from a font*/
  66:d:\kzc\stm32\h743ii_lcd\lvgl\src\font\lv_font.h ****     bool (*get_glyph_dsc)(const struct _lv_font_t *, lv_font_glyph_dsc_t *, uint32_t letter, uint32
  67:d:\kzc\stm32\h743ii_lcd\lvgl\src\font\lv_font.h **** 
  68:d:\kzc\stm32\h743ii_lcd\lvgl\src\font\lv_font.h ****     /** Get a glyph's bitmap from a font*/
  69:d:\kzc\stm32\h743ii_lcd\lvgl\src\font\lv_font.h ****     const uint8_t * (*get_glyph_bitmap)(const struct _lv_font_t *, uint32_t);
  70:d:\kzc\stm32\h743ii_lcd\lvgl\src\font\lv_font.h **** 
  71:d:\kzc\stm32\h743ii_lcd\lvgl\src\font\lv_font.h ****     /*Pointer to the font in a font pack (must have the same line height)*/
  72:d:\kzc\stm32\h743ii_lcd\lvgl\src\font\lv_font.h ****     lv_coord_t line_height;         /**< The real line height where any text fits*/
  73:d:\kzc\stm32\h743ii_lcd\lvgl\src\font\lv_font.h ****     lv_coord_t base_line;           /**< Base line measured from the top of the line_height*/
  74:d:\kzc\stm32\h743ii_lcd\lvgl\src\font\lv_font.h ****     uint8_t subpx  : 2;             /**< An element of `lv_font_subpx_t`*/
  75:d:\kzc\stm32\h743ii_lcd\lvgl\src\font\lv_font.h **** 
  76:d:\kzc\stm32\h743ii_lcd\lvgl\src\font\lv_font.h ****     int8_t underline_position;      /**< Distance between the top of the underline and base line (<
  77:d:\kzc\stm32\h743ii_lcd\lvgl\src\font\lv_font.h ****     int8_t underline_thickness;     /**< Thickness of the underline*/
  78:d:\kzc\stm32\h743ii_lcd\lvgl\src\font\lv_font.h **** 
  79:d:\kzc\stm32\h743ii_lcd\lvgl\src\font\lv_font.h ****     const void * dsc;               /**< Store implementation specific or run_time data or caching 
  80:d:\kzc\stm32\h743ii_lcd\lvgl\src\font\lv_font.h ****     const struct _lv_font_t * fallback;   /**< Fallback font for missing glyph. Resolved recursivel
  81:d:\kzc\stm32\h743ii_lcd\lvgl\src\font\lv_font.h **** #if LV_USE_USER_DATA
  82:d:\kzc\stm32\h743ii_lcd\lvgl\src\font\lv_font.h ****     void * user_data;               /**< Custom user data for font.*/
  83:d:\kzc\stm32\h743ii_lcd\lvgl\src\font\lv_font.h **** #endif
  84:d:\kzc\stm32\h743ii_lcd\lvgl\src\font\lv_font.h **** } lv_font_t;
  85:d:\kzc\stm32\h743ii_lcd\lvgl\src\font\lv_font.h **** 
  86:d:\kzc\stm32\h743ii_lcd\lvgl\src\font\lv_font.h **** /**********************
  87:d:\kzc\stm32\h743ii_lcd\lvgl\src\font\lv_font.h ****  * GLOBAL PROTOTYPES
  88:d:\kzc\stm32\h743ii_lcd\lvgl\src\font\lv_font.h ****  **********************/
  89:d:\kzc\stm32\h743ii_lcd\lvgl\src\font\lv_font.h **** 
  90:d:\kzc\stm32\h743ii_lcd\lvgl\src\font\lv_font.h **** /**
  91:d:\kzc\stm32\h743ii_lcd\lvgl\src\font\lv_font.h ****  * Return with the bitmap of a font.
  92:d:\kzc\stm32\h743ii_lcd\lvgl\src\font\lv_font.h ****  * @param font_p pointer to a font
  93:d:\kzc\stm32\h743ii_lcd\lvgl\src\font\lv_font.h ****  * @param letter a UNICODE character code
  94:d:\kzc\stm32\h743ii_lcd\lvgl\src\font\lv_font.h ****  * @return pointer to the bitmap of the letter
  95:d:\kzc\stm32\h743ii_lcd\lvgl\src\font\lv_font.h ****  */
ARM GAS  C:\Users\OSD\AppData\Local\Temp\cca5CFPq.s 			page 34


  96:d:\kzc\stm32\h743ii_lcd\lvgl\src\font\lv_font.h **** const uint8_t * lv_font_get_glyph_bitmap(const lv_font_t * font_p, uint32_t letter);
  97:d:\kzc\stm32\h743ii_lcd\lvgl\src\font\lv_font.h **** 
  98:d:\kzc\stm32\h743ii_lcd\lvgl\src\font\lv_font.h **** /**
  99:d:\kzc\stm32\h743ii_lcd\lvgl\src\font\lv_font.h ****  * Get the descriptor of a glyph
 100:d:\kzc\stm32\h743ii_lcd\lvgl\src\font\lv_font.h ****  * @param font_p pointer to font
 101:d:\kzc\stm32\h743ii_lcd\lvgl\src\font\lv_font.h ****  * @param dsc_out store the result descriptor here
 102:d:\kzc\stm32\h743ii_lcd\lvgl\src\font\lv_font.h ****  * @param letter a UNICODE letter code
 103:d:\kzc\stm32\h743ii_lcd\lvgl\src\font\lv_font.h ****  * @param letter_next the next letter after `letter`. Used for kerning
 104:d:\kzc\stm32\h743ii_lcd\lvgl\src\font\lv_font.h ****  * @return true: descriptor is successfully loaded into `dsc_out`.
 105:d:\kzc\stm32\h743ii_lcd\lvgl\src\font\lv_font.h ****  *         false: the letter was not found, no data is loaded to `dsc_out`
 106:d:\kzc\stm32\h743ii_lcd\lvgl\src\font\lv_font.h ****  */
 107:d:\kzc\stm32\h743ii_lcd\lvgl\src\font\lv_font.h **** bool lv_font_get_glyph_dsc(const lv_font_t * font_p, lv_font_glyph_dsc_t * dsc_out, uint32_t letter
 108:d:\kzc\stm32\h743ii_lcd\lvgl\src\font\lv_font.h ****                            uint32_t letter_next);
 109:d:\kzc\stm32\h743ii_lcd\lvgl\src\font\lv_font.h **** 
 110:d:\kzc\stm32\h743ii_lcd\lvgl\src\font\lv_font.h **** /**
 111:d:\kzc\stm32\h743ii_lcd\lvgl\src\font\lv_font.h ****  * Get the width of a glyph with kerning
 112:d:\kzc\stm32\h743ii_lcd\lvgl\src\font\lv_font.h ****  * @param font pointer to a font
 113:d:\kzc\stm32\h743ii_lcd\lvgl\src\font\lv_font.h ****  * @param letter a UNICODE letter
 114:d:\kzc\stm32\h743ii_lcd\lvgl\src\font\lv_font.h ****  * @param letter_next the next letter after `letter`. Used for kerning
 115:d:\kzc\stm32\h743ii_lcd\lvgl\src\font\lv_font.h ****  * @return the width of the glyph
 116:d:\kzc\stm32\h743ii_lcd\lvgl\src\font\lv_font.h ****  */
 117:d:\kzc\stm32\h743ii_lcd\lvgl\src\font\lv_font.h **** uint16_t lv_font_get_glyph_width(const lv_font_t * font, uint32_t letter, uint32_t letter_next);
 118:d:\kzc\stm32\h743ii_lcd\lvgl\src\font\lv_font.h **** 
 119:d:\kzc\stm32\h743ii_lcd\lvgl\src\font\lv_font.h **** /**
 120:d:\kzc\stm32\h743ii_lcd\lvgl\src\font\lv_font.h ****  * Get the line height of a font. All characters fit into this height
 121:d:\kzc\stm32\h743ii_lcd\lvgl\src\font\lv_font.h ****  * @param font_p pointer to a font
 122:d:\kzc\stm32\h743ii_lcd\lvgl\src\font\lv_font.h ****  * @return the height of a font
 123:d:\kzc\stm32\h743ii_lcd\lvgl\src\font\lv_font.h ****  */
 124:d:\kzc\stm32\h743ii_lcd\lvgl\src\font\lv_font.h **** static inline lv_coord_t lv_font_get_line_height(const lv_font_t * font_p)
 160              		.loc 3 124 26 view .LVU38
 161              	.LBB60:
 125:d:\kzc\stm32\h743ii_lcd\lvgl\src\font\lv_font.h **** {
 126:d:\kzc\stm32\h743ii_lcd\lvgl\src\font\lv_font.h ****     return font_p->line_height;
 162              		.loc 3 126 5 view .LVU39
 163              		.loc 3 126 18 is_stmt 0 view .LVU40
 164 0028 B0F90850 		ldrsh	r5, [r0, #8]
 165              	.LVL13:
 166              		.loc 3 126 18 view .LVU41
 167              	.LBE60:
 168              	.LBE59:
1135:lvgl/src/widgets/lv_dropdown.c ****     lv_coord_t unit_h = font_h + line_space;
 169              		.loc 1 1135 5 is_stmt 1 view .LVU42
 170              	.LBB61:
 171              	.LBI61:
 467:lvgl/src/widgets/../core/lv_obj_style_gen.h **** }
 468:lvgl/src/widgets/../core/lv_obj_style_gen.h **** 
 469:lvgl/src/widgets/../core/lv_obj_style_gen.h **** static inline lv_coord_t lv_obj_get_style_text_letter_space(const struct _lv_obj_t * obj, uint32_t 
 470:lvgl/src/widgets/../core/lv_obj_style_gen.h **** {
 471:lvgl/src/widgets/../core/lv_obj_style_gen.h ****     lv_style_value_t v = lv_obj_get_style_prop(obj, part, LV_STYLE_TEXT_LETTER_SPACE);
 472:lvgl/src/widgets/../core/lv_obj_style_gen.h ****     return (lv_coord_t)v.num;
 473:lvgl/src/widgets/../core/lv_obj_style_gen.h **** }
 474:lvgl/src/widgets/../core/lv_obj_style_gen.h **** 
 475:lvgl/src/widgets/../core/lv_obj_style_gen.h **** static inline lv_coord_t lv_obj_get_style_text_line_space(const struct _lv_obj_t * obj, uint32_t pa
 172              		.loc 2 475 26 view .LVU43
 173              	.LBB62:
 476:lvgl/src/widgets/../core/lv_obj_style_gen.h **** {
 477:lvgl/src/widgets/../core/lv_obj_style_gen.h ****     lv_style_value_t v = lv_obj_get_style_prop(obj, part, LV_STYLE_TEXT_LINE_SPACE);
ARM GAS  C:\Users\OSD\AppData\Local\Temp\cca5CFPq.s 			page 35


 174              		.loc 2 477 5 view .LVU44
 175              		.loc 2 477 26 is_stmt 0 view .LVU45
 176 002c 5922     		movs	r2, #89
 177 002e 0021     		movs	r1, #0
 178 0030 3046     		mov	r0, r6
 179              	.LVL14:
 180              		.loc 2 477 26 view .LVU46
 181 0032 FFF7FEFF 		bl	lv_obj_get_style_prop
 182              	.LVL15:
 478:lvgl/src/widgets/../core/lv_obj_style_gen.h ****     return (lv_coord_t)v.num;
 183              		.loc 2 478 5 is_stmt 1 view .LVU47
 184              		.loc 2 478 5 is_stmt 0 view .LVU48
 185              	.LBE62:
 186              	.LBE61:
1136:lvgl/src/widgets/lv_dropdown.c ****     lv_coord_t line_y1 = dropdown->sel_opt_id * unit_h;
 187              		.loc 1 1136 5 is_stmt 1 view .LVU49
1136:lvgl/src/widgets/lv_dropdown.c ****     lv_coord_t line_y1 = dropdown->sel_opt_id * unit_h;
 188              		.loc 1 1136 32 is_stmt 0 view .LVU50
 189 0036 0544     		add	r5, r5, r0
 190              	.LVL16:
1137:lvgl/src/widgets/lv_dropdown.c **** 
 191              		.loc 1 1137 5 is_stmt 1 view .LVU51
1137:lvgl/src/widgets/lv_dropdown.c **** 
 192              		.loc 1 1137 34 is_stmt 0 view .LVU52
 193 0038 E18E     		ldrh	r1, [r4, #54]
1137:lvgl/src/widgets/lv_dropdown.c **** 
 194              		.loc 1 1137 16 view .LVU53
 195 003a 15FB01F1 		smulbb	r1, r5, r1
 196              	.LVL17:
1140:lvgl/src/widgets/lv_dropdown.c ****     lv_obj_invalidate(dropdown->list);
 197              		.loc 1 1140 5 is_stmt 1 view .LVU54
 198 003e 0022     		movs	r2, #0
 199 0040 09B2     		sxth	r1, r1
1140:lvgl/src/widgets/lv_dropdown.c ****     lv_obj_invalidate(dropdown->list);
 200              		.loc 1 1140 5 is_stmt 0 view .LVU55
 201 0042 606A     		ldr	r0, [r4, #36]
 202              	.LVL18:
1140:lvgl/src/widgets/lv_dropdown.c ****     lv_obj_invalidate(dropdown->list);
 203              		.loc 1 1140 5 view .LVU56
 204 0044 FFF7FEFF 		bl	lv_obj_scroll_to_y
 205              	.LVL19:
1141:lvgl/src/widgets/lv_dropdown.c **** }
 206              		.loc 1 1141 5 is_stmt 1 view .LVU57
 207 0048 606A     		ldr	r0, [r4, #36]
 208 004a FFF7FEFF 		bl	lv_obj_invalidate
 209              	.LVL20:
 210 004e E5E7     		b	.L8
 211              		.cfi_endproc
 212              	.LFE205:
 214              		.section	.text.get_id_on_point,"ax",%progbits
 215              		.align	1
 216              		.syntax unified
 217              		.thumb
 218              		.thumb_func
 220              	get_id_on_point:
 221              	.LVL21:
 222              	.LFB204:
ARM GAS  C:\Users\OSD\AppData\Local\Temp\cca5CFPq.s 			page 36


1101:lvgl/src/widgets/lv_dropdown.c ****     lv_dropdown_t * dropdown = (lv_dropdown_t *)dropdown_obj;
 223              		.loc 1 1101 1 view -0
 224              		.cfi_startproc
 225              		@ args = 0, pretend = 0, frame = 0
 226              		@ frame_needed = 0, uses_anonymous_args = 0
1101:lvgl/src/widgets/lv_dropdown.c ****     lv_dropdown_t * dropdown = (lv_dropdown_t *)dropdown_obj;
 227              		.loc 1 1101 1 is_stmt 0 view .LVU59
 228 0000 F8B5     		push	{r3, r4, r5, r6, r7, lr}
 229              		.cfi_def_cfa_offset 24
 230              		.cfi_offset 3, -24
 231              		.cfi_offset 4, -20
 232              		.cfi_offset 5, -16
 233              		.cfi_offset 6, -12
 234              		.cfi_offset 7, -8
 235              		.cfi_offset 14, -4
 236 0002 0546     		mov	r5, r0
 237 0004 0C46     		mov	r4, r1
1102:lvgl/src/widgets/lv_dropdown.c ****     lv_obj_t * label = get_label(dropdown_obj);
 238              		.loc 1 1102 5 is_stmt 1 view .LVU60
 239              	.LVL22:
1103:lvgl/src/widgets/lv_dropdown.c ****     if(label == NULL) return 0;
 240              		.loc 1 1103 5 view .LVU61
1103:lvgl/src/widgets/lv_dropdown.c ****     if(label == NULL) return 0;
 241              		.loc 1 1103 24 is_stmt 0 view .LVU62
 242 0006 FFF7FEFF 		bl	get_label
 243              	.LVL23:
1104:lvgl/src/widgets/lv_dropdown.c ****     y -= label->coords.y1;
 244              		.loc 1 1104 5 is_stmt 1 view .LVU63
1104:lvgl/src/widgets/lv_dropdown.c ****     y -= label->coords.y1;
 245              		.loc 1 1104 7 is_stmt 0 view .LVU64
 246 000a 08B3     		cbz	r0, .L15
 247 000c 0746     		mov	r7, r0
1105:lvgl/src/widgets/lv_dropdown.c **** 
 248              		.loc 1 1105 5 is_stmt 1 view .LVU65
1105:lvgl/src/widgets/lv_dropdown.c **** 
 249              		.loc 1 1105 23 is_stmt 0 view .LVU66
 250 000e C18A     		ldrh	r1, [r0, #22]
1105:lvgl/src/widgets/lv_dropdown.c **** 
 251              		.loc 1 1105 7 view .LVU67
 252 0010 641A     		subs	r4, r4, r1
 253 0012 A4B2     		uxth	r4, r4
 254              	.LVL24:
1107:lvgl/src/widgets/lv_dropdown.c ****     lv_coord_t font_h              = lv_font_get_line_height(font);
 255              		.loc 1 1107 5 is_stmt 1 view .LVU68
 256              	.LBB63:
 257              	.LBI63:
 463:lvgl/src/widgets/../core/lv_obj_style_gen.h **** {
 258              		.loc 2 463 33 view .LVU69
 259              	.LBB64:
 465:lvgl/src/widgets/../core/lv_obj_style_gen.h ****     return (const lv_font_t *)v.ptr;
 260              		.loc 2 465 5 view .LVU70
 465:lvgl/src/widgets/../core/lv_obj_style_gen.h ****     return (const lv_font_t *)v.ptr;
 261              		.loc 2 465 26 is_stmt 0 view .LVU71
 262 0014 5722     		movs	r2, #87
 263 0016 0021     		movs	r1, #0
 264 0018 FFF7FEFF 		bl	lv_obj_get_style_prop
 265              	.LVL25:
ARM GAS  C:\Users\OSD\AppData\Local\Temp\cca5CFPq.s 			page 37


 466:lvgl/src/widgets/../core/lv_obj_style_gen.h **** }
 266              		.loc 2 466 5 is_stmt 1 view .LVU72
 466:lvgl/src/widgets/../core/lv_obj_style_gen.h **** }
 267              		.loc 2 466 5 is_stmt 0 view .LVU73
 268              	.LBE64:
 269              	.LBE63:
1108:lvgl/src/widgets/lv_dropdown.c ****     lv_coord_t line_space = lv_obj_get_style_text_line_space(label, LV_PART_MAIN);
 270              		.loc 1 1108 5 is_stmt 1 view .LVU74
 271              	.LBB65:
 272              	.LBI65:
 124:d:\kzc\stm32\h743ii_lcd\lvgl\src\font\lv_font.h **** {
 273              		.loc 3 124 26 view .LVU75
 274              	.LBB66:
 275              		.loc 3 126 5 view .LVU76
 276              		.loc 3 126 18 is_stmt 0 view .LVU77
 277 001c B0F90860 		ldrsh	r6, [r0, #8]
 278              	.LVL26:
 279              		.loc 3 126 18 view .LVU78
 280              	.LBE66:
 281              	.LBE65:
1109:lvgl/src/widgets/lv_dropdown.c **** 
 282              		.loc 1 1109 5 is_stmt 1 view .LVU79
 283              	.LBB67:
 284              	.LBI67:
 475:lvgl/src/widgets/../core/lv_obj_style_gen.h **** {
 285              		.loc 2 475 26 view .LVU80
 286              	.LBB68:
 477:lvgl/src/widgets/../core/lv_obj_style_gen.h ****     return (lv_coord_t)v.num;
 287              		.loc 2 477 5 view .LVU81
 477:lvgl/src/widgets/../core/lv_obj_style_gen.h ****     return (lv_coord_t)v.num;
 288              		.loc 2 477 26 is_stmt 0 view .LVU82
 289 0020 5922     		movs	r2, #89
 290 0022 0021     		movs	r1, #0
 291 0024 3846     		mov	r0, r7
 292              	.LVL27:
 477:lvgl/src/widgets/../core/lv_obj_style_gen.h ****     return (lv_coord_t)v.num;
 293              		.loc 2 477 26 view .LVU83
 294 0026 FFF7FEFF 		bl	lv_obj_get_style_prop
 295              	.LVL28:
 296              		.loc 2 478 5 is_stmt 1 view .LVU84
 297              		.loc 2 478 12 is_stmt 0 view .LVU85
 298 002a 01B2     		sxth	r1, r0
 299              	.LVL29:
 300              		.loc 2 478 12 view .LVU86
 301              	.LBE68:
 302              	.LBE67:
1111:lvgl/src/widgets/lv_dropdown.c ****     lv_coord_t h = font_h + line_space;
 303              		.loc 1 1111 5 is_stmt 1 view .LVU87
1111:lvgl/src/widgets/lv_dropdown.c ****     lv_coord_t h = font_h + line_space;
 304              		.loc 1 1111 7 is_stmt 0 view .LVU88
 305 002c 0029     		cmp	r1, #0
 306 002e 0DDB     		blt	.L17
 307              	.L14:
 308 0030 04EB6104 		add	r4, r4, r1, asr #1
 309              	.LVL30:
1111:lvgl/src/widgets/lv_dropdown.c ****     lv_coord_t h = font_h + line_space;
 310              		.loc 1 1111 7 view .LVU89
ARM GAS  C:\Users\OSD\AppData\Local\Temp\cca5CFPq.s 			page 38


 311 0034 24B2     		sxth	r4, r4
 312              	.LVL31:
1112:lvgl/src/widgets/lv_dropdown.c **** 
 313              		.loc 1 1112 5 is_stmt 1 view .LVU90
1112:lvgl/src/widgets/lv_dropdown.c **** 
 314              		.loc 1 1112 27 is_stmt 0 view .LVU91
 315 0036 3044     		add	r0, r0, r6
1112:lvgl/src/widgets/lv_dropdown.c **** 
 316              		.loc 1 1112 16 view .LVU92
 317 0038 00B2     		sxth	r0, r0
 318              	.LVL32:
1114:lvgl/src/widgets/lv_dropdown.c **** 
 319              		.loc 1 1114 5 is_stmt 1 view .LVU93
1114:lvgl/src/widgets/lv_dropdown.c **** 
 320              		.loc 1 1114 22 is_stmt 0 view .LVU94
 321 003a 94FBF0F4 		sdiv	r4, r4, r0
 322              	.LVL33:
1114:lvgl/src/widgets/lv_dropdown.c **** 
 323              		.loc 1 1114 14 view .LVU95
 324 003e A0B2     		uxth	r0, r4
 325              	.LVL34:
1116:lvgl/src/widgets/lv_dropdown.c ****     return opt;
 326              		.loc 1 1116 5 is_stmt 1 view .LVU96
1116:lvgl/src/widgets/lv_dropdown.c ****     return opt;
 327              		.loc 1 1116 23 is_stmt 0 view .LVU97
 328 0040 AB8E     		ldrh	r3, [r5, #52]
1116:lvgl/src/widgets/lv_dropdown.c ****     return opt;
 329              		.loc 1 1116 7 view .LVU98
 330 0042 8342     		cmp	r3, r0
 331 0044 01D8     		bhi	.L13
1116:lvgl/src/widgets/lv_dropdown.c ****     return opt;
 332              		.loc 1 1116 37 is_stmt 1 discriminator 1 view .LVU99
1116:lvgl/src/widgets/lv_dropdown.c ****     return opt;
 333              		.loc 1 1116 41 is_stmt 0 discriminator 1 view .LVU100
 334 0046 581E     		subs	r0, r3, #1
 335              	.LVL35:
1116:lvgl/src/widgets/lv_dropdown.c ****     return opt;
 336              		.loc 1 1116 41 discriminator 1 view .LVU101
 337 0048 80B2     		uxth	r0, r0
 338              	.LVL36:
 339              	.L13:
1118:lvgl/src/widgets/lv_dropdown.c **** 
 340              		.loc 1 1118 1 view .LVU102
 341 004a F8BD     		pop	{r3, r4, r5, r6, r7, pc}
 342              	.LVL37:
 343              	.L17:
1111:lvgl/src/widgets/lv_dropdown.c ****     lv_coord_t h = font_h + line_space;
 344              		.loc 1 1111 7 view .LVU103
 345 004c 0131     		adds	r1, r1, #1
 346 004e EFE7     		b	.L14
 347              	.LVL38:
 348              	.L15:
1104:lvgl/src/widgets/lv_dropdown.c ****     y -= label->coords.y1;
 349              		.loc 1 1104 30 view .LVU104
 350 0050 0020     		movs	r0, #0
 351              	.LVL39:
1104:lvgl/src/widgets/lv_dropdown.c ****     y -= label->coords.y1;
ARM GAS  C:\Users\OSD\AppData\Local\Temp\cca5CFPq.s 			page 39


 352              		.loc 1 1104 30 view .LVU105
 353 0052 FAE7     		b	.L13
 354              		.cfi_endproc
 355              	.LFE204:
 357              		.section	.text.lv_dropdown_destructor,"ax",%progbits
 358              		.align	1
 359              		.syntax unified
 360              		.thumb
 361              		.thumb_func
 363              	lv_dropdown_destructor:
 364              	.LVL40:
 365              	.LFB192:
 615:lvgl/src/widgets/lv_dropdown.c ****     LV_UNUSED(class_p);
 366              		.loc 1 615 1 is_stmt 1 view -0
 367              		.cfi_startproc
 368              		@ args = 0, pretend = 0, frame = 0
 369              		@ frame_needed = 0, uses_anonymous_args = 0
 615:lvgl/src/widgets/lv_dropdown.c ****     LV_UNUSED(class_p);
 370              		.loc 1 615 1 is_stmt 0 view .LVU107
 371 0000 10B5     		push	{r4, lr}
 372              		.cfi_def_cfa_offset 8
 373              		.cfi_offset 4, -8
 374              		.cfi_offset 14, -4
 375 0002 0C46     		mov	r4, r1
 616:lvgl/src/widgets/lv_dropdown.c ****     lv_dropdown_t * dropdown = (lv_dropdown_t *)obj;
 376              		.loc 1 616 5 is_stmt 1 view .LVU108
 617:lvgl/src/widgets/lv_dropdown.c **** 
 377              		.loc 1 617 5 view .LVU109
 378              	.LVL41:
 619:lvgl/src/widgets/lv_dropdown.c ****         lv_obj_del(dropdown->list);
 379              		.loc 1 619 5 view .LVU110
 619:lvgl/src/widgets/lv_dropdown.c ****         lv_obj_del(dropdown->list);
 380              		.loc 1 619 16 is_stmt 0 view .LVU111
 381 0004 486A     		ldr	r0, [r1, #36]
 382              	.LVL42:
 619:lvgl/src/widgets/lv_dropdown.c ****         lv_obj_del(dropdown->list);
 383              		.loc 1 619 7 view .LVU112
 384 0006 18B1     		cbz	r0, .L19
 620:lvgl/src/widgets/lv_dropdown.c ****         dropdown->list = NULL;
 385              		.loc 1 620 9 is_stmt 1 view .LVU113
 386 0008 FFF7FEFF 		bl	lv_obj_del
 387              	.LVL43:
 621:lvgl/src/widgets/lv_dropdown.c ****     }
 388              		.loc 1 621 9 view .LVU114
 621:lvgl/src/widgets/lv_dropdown.c ****     }
 389              		.loc 1 621 24 is_stmt 0 view .LVU115
 390 000c 0023     		movs	r3, #0
 391 000e 6362     		str	r3, [r4, #36]
 392              	.L19:
 624:lvgl/src/widgets/lv_dropdown.c ****         lv_mem_free(dropdown->options);
 393              		.loc 1 624 5 is_stmt 1 view .LVU116
 624:lvgl/src/widgets/lv_dropdown.c ****         lv_mem_free(dropdown->options);
 394              		.loc 1 624 8 is_stmt 0 view .LVU117
 395 0010 94F83C30 		ldrb	r3, [r4, #60]	@ zero_extendqisi2
 624:lvgl/src/widgets/lv_dropdown.c ****         lv_mem_free(dropdown->options);
 396              		.loc 1 624 7 view .LVU118
 397 0014 13F0100F 		tst	r3, #16
ARM GAS  C:\Users\OSD\AppData\Local\Temp\cca5CFPq.s 			page 40


 398 0018 00D0     		beq	.L22
 399              	.L18:
 628:lvgl/src/widgets/lv_dropdown.c **** 
 400              		.loc 1 628 1 view .LVU119
 401 001a 10BD     		pop	{r4, pc}
 402              	.LVL44:
 403              	.L22:
 625:lvgl/src/widgets/lv_dropdown.c ****         dropdown->options = NULL;
 404              		.loc 1 625 9 is_stmt 1 view .LVU120
 405 001c 206B     		ldr	r0, [r4, #48]
 406 001e FFF7FEFF 		bl	lv_mem_free
 407              	.LVL45:
 626:lvgl/src/widgets/lv_dropdown.c ****     }
 408              		.loc 1 626 9 view .LVU121
 626:lvgl/src/widgets/lv_dropdown.c ****     }
 409              		.loc 1 626 27 is_stmt 0 view .LVU122
 410 0022 0023     		movs	r3, #0
 411 0024 2363     		str	r3, [r4, #48]
 628:lvgl/src/widgets/lv_dropdown.c **** 
 412              		.loc 1 628 1 view .LVU123
 413 0026 F8E7     		b	.L18
 414              		.cfi_endproc
 415              	.LFE192:
 417              		.section	.text.lv_dropdown_list_create,"ax",%progbits
 418              		.align	1
 419              		.syntax unified
 420              		.thumb
 421              		.thumb_func
 423              	lv_dropdown_list_create:
 424              	.LVL46:
 425              	.LFB190:
 577:lvgl/src/widgets/lv_dropdown.c ****     LV_LOG_INFO("begin");
 426              		.loc 1 577 1 is_stmt 1 view -0
 427              		.cfi_startproc
 428              		@ args = 0, pretend = 0, frame = 0
 429              		@ frame_needed = 0, uses_anonymous_args = 0
 577:lvgl/src/widgets/lv_dropdown.c ****     LV_LOG_INFO("begin");
 430              		.loc 1 577 1 is_stmt 0 view .LVU125
 431 0000 10B5     		push	{r4, lr}
 432              		.cfi_def_cfa_offset 8
 433              		.cfi_offset 4, -8
 434              		.cfi_offset 14, -4
 435 0002 0146     		mov	r1, r0
 578:lvgl/src/widgets/lv_dropdown.c ****     lv_obj_t * obj = lv_obj_class_create_obj(&lv_dropdownlist_class, parent);
 436              		.loc 1 578 5 is_stmt 1 view .LVU126
 578:lvgl/src/widgets/lv_dropdown.c ****     lv_obj_t * obj = lv_obj_class_create_obj(&lv_dropdownlist_class, parent);
 437              		.loc 1 578 5 view .LVU127
 578:lvgl/src/widgets/lv_dropdown.c ****     lv_obj_t * obj = lv_obj_class_create_obj(&lv_dropdownlist_class, parent);
 438              		.loc 1 578 5 view .LVU128
 579:lvgl/src/widgets/lv_dropdown.c ****     lv_obj_class_init_obj(obj);
 439              		.loc 1 579 5 view .LVU129
 579:lvgl/src/widgets/lv_dropdown.c ****     lv_obj_class_init_obj(obj);
 440              		.loc 1 579 22 is_stmt 0 view .LVU130
 441 0004 0348     		ldr	r0, .L25
 442              	.LVL47:
 579:lvgl/src/widgets/lv_dropdown.c ****     lv_obj_class_init_obj(obj);
 443              		.loc 1 579 22 view .LVU131
ARM GAS  C:\Users\OSD\AppData\Local\Temp\cca5CFPq.s 			page 41


 444 0006 FFF7FEFF 		bl	lv_obj_class_create_obj
 445              	.LVL48:
 579:lvgl/src/widgets/lv_dropdown.c ****     lv_obj_class_init_obj(obj);
 446              		.loc 1 579 22 view .LVU132
 447 000a 0446     		mov	r4, r0
 448              	.LVL49:
 580:lvgl/src/widgets/lv_dropdown.c ****     return obj;
 449              		.loc 1 580 5 is_stmt 1 view .LVU133
 450 000c FFF7FEFF 		bl	lv_obj_class_init_obj
 451              	.LVL50:
 581:lvgl/src/widgets/lv_dropdown.c **** }
 452              		.loc 1 581 5 view .LVU134
 582:lvgl/src/widgets/lv_dropdown.c **** 
 453              		.loc 1 582 1 is_stmt 0 view .LVU135
 454 0010 2046     		mov	r0, r4
 455 0012 10BD     		pop	{r4, pc}
 456              	.LVL51:
 457              	.L26:
 582:lvgl/src/widgets/lv_dropdown.c **** 
 458              		.loc 1 582 1 view .LVU136
 459              		.align	2
 460              	.L25:
 461 0014 00000000 		.word	.LANCHOR0
 462              		.cfi_endproc
 463              	.LFE190:
 465              		.section	.text.list_press_handler,"ax",%progbits
 466              		.align	1
 467              		.syntax unified
 468              		.thumb
 469              		.thumb_func
 471              	list_press_handler:
 472              	.LVL52:
 473              	.LFB203:
1086:lvgl/src/widgets/lv_dropdown.c ****     lv_dropdown_list_t * list = (lv_dropdown_list_t *) list_obj;
 474              		.loc 1 1086 1 is_stmt 1 view -0
 475              		.cfi_startproc
 476              		@ args = 0, pretend = 0, frame = 8
 477              		@ frame_needed = 0, uses_anonymous_args = 0
1086:lvgl/src/widgets/lv_dropdown.c ****     lv_dropdown_list_t * list = (lv_dropdown_list_t *) list_obj;
 478              		.loc 1 1086 1 is_stmt 0 view .LVU138
 479 0000 70B5     		push	{r4, r5, r6, lr}
 480              		.cfi_def_cfa_offset 16
 481              		.cfi_offset 4, -16
 482              		.cfi_offset 5, -12
 483              		.cfi_offset 6, -8
 484              		.cfi_offset 14, -4
 485 0002 82B0     		sub	sp, sp, #8
 486              		.cfi_def_cfa_offset 24
 487 0004 0446     		mov	r4, r0
1087:lvgl/src/widgets/lv_dropdown.c ****     lv_obj_t * dropdown_obj = list->dropdown;
 488              		.loc 1 1087 5 is_stmt 1 view .LVU139
 489              	.LVL53:
1088:lvgl/src/widgets/lv_dropdown.c ****     lv_dropdown_t * dropdown = (lv_dropdown_t *)dropdown_obj;
 490              		.loc 1 1088 5 view .LVU140
1088:lvgl/src/widgets/lv_dropdown.c ****     lv_dropdown_t * dropdown = (lv_dropdown_t *)dropdown_obj;
 491              		.loc 1 1088 16 is_stmt 0 view .LVU141
 492 0006 466A     		ldr	r6, [r0, #36]
ARM GAS  C:\Users\OSD\AppData\Local\Temp\cca5CFPq.s 			page 42


 493              	.LVL54:
1089:lvgl/src/widgets/lv_dropdown.c **** 
 494              		.loc 1 1089 5 is_stmt 1 view .LVU142
1091:lvgl/src/widgets/lv_dropdown.c ****     if(indev && (lv_indev_get_type(indev) == LV_INDEV_TYPE_POINTER || lv_indev_get_type(indev) == L
 495              		.loc 1 1091 5 view .LVU143
1091:lvgl/src/widgets/lv_dropdown.c ****     if(indev && (lv_indev_get_type(indev) == LV_INDEV_TYPE_POINTER || lv_indev_get_type(indev) == L
 496              		.loc 1 1091 26 is_stmt 0 view .LVU144
 497 0008 FFF7FEFF 		bl	lv_indev_get_act
 498              	.LVL55:
1092:lvgl/src/widgets/lv_dropdown.c ****         lv_point_t p;
 499              		.loc 1 1092 5 is_stmt 1 view .LVU145
1092:lvgl/src/widgets/lv_dropdown.c ****         lv_point_t p;
 500              		.loc 1 1092 7 is_stmt 0 view .LVU146
 501 000c B0B1     		cbz	r0, .L27
 502 000e 0546     		mov	r5, r0
1092:lvgl/src/widgets/lv_dropdown.c ****         lv_point_t p;
 503              		.loc 1 1092 18 discriminator 1 view .LVU147
 504 0010 FFF7FEFF 		bl	lv_indev_get_type
 505              	.LVL56:
1092:lvgl/src/widgets/lv_dropdown.c ****         lv_point_t p;
 506              		.loc 1 1092 14 discriminator 1 view .LVU148
 507 0014 0128     		cmp	r0, #1
 508 0016 04D0     		beq	.L29
1092:lvgl/src/widgets/lv_dropdown.c ****         lv_point_t p;
 509              		.loc 1 1092 71 discriminator 2 view .LVU149
 510 0018 2846     		mov	r0, r5
 511 001a FFF7FEFF 		bl	lv_indev_get_type
 512              	.LVL57:
1092:lvgl/src/widgets/lv_dropdown.c ****         lv_point_t p;
 513              		.loc 1 1092 68 discriminator 2 view .LVU150
 514 001e 0328     		cmp	r0, #3
 515 0020 0CD1     		bne	.L27
 516              	.L29:
 517              	.LBB69:
1093:lvgl/src/widgets/lv_dropdown.c ****         lv_indev_get_point(indev, &p);
 518              		.loc 1 1093 9 is_stmt 1 view .LVU151
1094:lvgl/src/widgets/lv_dropdown.c ****         dropdown->pr_opt_id = get_id_on_point(dropdown_obj, p.y);
 519              		.loc 1 1094 9 view .LVU152
 520 0022 01A9     		add	r1, sp, #4
 521 0024 2846     		mov	r0, r5
 522 0026 FFF7FEFF 		bl	lv_indev_get_point
 523              	.LVL58:
1095:lvgl/src/widgets/lv_dropdown.c ****         lv_obj_invalidate(list_obj);
 524              		.loc 1 1095 9 view .LVU153
1095:lvgl/src/widgets/lv_dropdown.c ****         lv_obj_invalidate(list_obj);
 525              		.loc 1 1095 31 is_stmt 0 view .LVU154
 526 002a BDF90610 		ldrsh	r1, [sp, #6]
 527 002e 3046     		mov	r0, r6
 528 0030 FFF7FEFF 		bl	get_id_on_point
 529              	.LVL59:
1095:lvgl/src/widgets/lv_dropdown.c ****         lv_obj_invalidate(list_obj);
 530              		.loc 1 1095 29 view .LVU155
 531 0034 7087     		strh	r0, [r6, #58]	@ movhi
1096:lvgl/src/widgets/lv_dropdown.c ****     }
 532              		.loc 1 1096 9 is_stmt 1 view .LVU156
 533 0036 2046     		mov	r0, r4
 534 0038 FFF7FEFF 		bl	lv_obj_invalidate
ARM GAS  C:\Users\OSD\AppData\Local\Temp\cca5CFPq.s 			page 43


 535              	.LVL60:
 536              	.L27:
1096:lvgl/src/widgets/lv_dropdown.c ****     }
 537              		.loc 1 1096 9 is_stmt 0 view .LVU157
 538              	.LBE69:
1098:lvgl/src/widgets/lv_dropdown.c **** 
 539              		.loc 1 1098 1 view .LVU158
 540 003c 02B0     		add	sp, sp, #8
 541              		.cfi_def_cfa_offset 16
 542              		@ sp needed
 543 003e 70BD     		pop	{r4, r5, r6, pc}
1098:lvgl/src/widgets/lv_dropdown.c **** 
 544              		.loc 1 1098 1 view .LVU159
 545              		.cfi_endproc
 546              	.LFE203:
 548              		.section	.text.draw_box,"ax",%progbits
 549              		.align	1
 550              		.syntax unified
 551              		.thumb
 552              		.thumb_func
 554              	draw_box:
 555              	.LVL61:
 556              	.LFB199:
 930:lvgl/src/widgets/lv_dropdown.c ****     if(id == LV_DROPDOWN_PR_NONE) return;
 557              		.loc 1 930 1 is_stmt 1 view -0
 558              		.cfi_startproc
 559              		@ args = 0, pretend = 0, frame = 88
 560              		@ frame_needed = 0, uses_anonymous_args = 0
 930:lvgl/src/widgets/lv_dropdown.c ****     if(id == LV_DROPDOWN_PR_NONE) return;
 561              		.loc 1 930 1 is_stmt 0 view .LVU161
 562 0000 2DE9F04F 		push	{r4, r5, r6, r7, r8, r9, r10, fp, lr}
 563              		.cfi_def_cfa_offset 36
 564              		.cfi_offset 4, -36
 565              		.cfi_offset 5, -32
 566              		.cfi_offset 6, -28
 567              		.cfi_offset 7, -24
 568              		.cfi_offset 8, -20
 569              		.cfi_offset 9, -16
 570              		.cfi_offset 10, -12
 571              		.cfi_offset 11, -8
 572              		.cfi_offset 14, -4
 573 0004 97B0     		sub	sp, sp, #92
 574              		.cfi_def_cfa_offset 128
 575 0006 9346     		mov	fp, r2
 931:lvgl/src/widgets/lv_dropdown.c **** 
 576              		.loc 1 931 5 is_stmt 1 view .LVU162
 931:lvgl/src/widgets/lv_dropdown.c **** 
 577              		.loc 1 931 7 is_stmt 0 view .LVU163
 578 0008 4FF6FF72 		movw	r2, #65535
 579              	.LVL62:
 931:lvgl/src/widgets/lv_dropdown.c **** 
 580              		.loc 1 931 7 view .LVU164
 581 000c 9345     		cmp	fp, r2
 582 000e 5AD0     		beq	.L31
 583 0010 0546     		mov	r5, r0
 584 0012 0E46     		mov	r6, r1
 933:lvgl/src/widgets/lv_dropdown.c ****     lv_obj_t * list_obj = dropdown->list;
ARM GAS  C:\Users\OSD\AppData\Local\Temp\cca5CFPq.s 			page 44


 585              		.loc 1 933 5 is_stmt 1 view .LVU165
 586              	.LVL63:
 934:lvgl/src/widgets/lv_dropdown.c ****     lv_state_t state_ori = list_obj->state;
 587              		.loc 1 934 5 view .LVU166
 934:lvgl/src/widgets/lv_dropdown.c ****     lv_state_t state_ori = list_obj->state;
 588              		.loc 1 934 16 is_stmt 0 view .LVU167
 589 0014 446A     		ldr	r4, [r0, #36]
 590              	.LVL64:
 935:lvgl/src/widgets/lv_dropdown.c **** 
 591              		.loc 1 935 5 is_stmt 1 view .LVU168
 935:lvgl/src/widgets/lv_dropdown.c **** 
 592              		.loc 1 935 16 is_stmt 0 view .LVU169
 593 0016 278C     		ldrh	r7, [r4, #32]
 594              	.LVL65:
 937:lvgl/src/widgets/lv_dropdown.c ****         list_obj->state = state;
 595              		.loc 1 937 5 is_stmt 1 view .LVU170
 937:lvgl/src/widgets/lv_dropdown.c ****         list_obj->state = state;
 596              		.loc 1 937 7 is_stmt 0 view .LVU171
 597 0018 9F42     		cmp	r7, r3
 598 001a 06D0     		beq	.L34
 938:lvgl/src/widgets/lv_dropdown.c ****         list_obj->skip_trans = 1;
 599              		.loc 1 938 9 is_stmt 1 view .LVU172
 938:lvgl/src/widgets/lv_dropdown.c ****         list_obj->skip_trans = 1;
 600              		.loc 1 938 25 is_stmt 0 view .LVU173
 601 001c 2384     		strh	r3, [r4, #32]	@ movhi
 939:lvgl/src/widgets/lv_dropdown.c ****     }
 602              		.loc 1 939 9 is_stmt 1 view .LVU174
 939:lvgl/src/widgets/lv_dropdown.c ****     }
 603              		.loc 1 939 30 is_stmt 0 view .LVU175
 604 001e 94F82230 		ldrb	r3, [r4, #34]	@ zero_extendqisi2
 605              	.LVL66:
 939:lvgl/src/widgets/lv_dropdown.c ****     }
 606              		.loc 1 939 30 view .LVU176
 607 0022 43F00803 		orr	r3, r3, #8
 608 0026 84F82230 		strb	r3, [r4, #34]
 609              	.LVL67:
 610              	.L34:
 943:lvgl/src/widgets/lv_dropdown.c ****     lv_coord_t line_space = lv_obj_get_style_text_line_space(list_obj,  LV_PART_SELECTED);
 611              		.loc 1 943 5 is_stmt 1 view .LVU177
 612              	.LBB70:
 613              	.LBI70:
 463:lvgl/src/widgets/../core/lv_obj_style_gen.h **** {
 614              		.loc 2 463 33 view .LVU178
 615              	.LBB71:
 465:lvgl/src/widgets/../core/lv_obj_style_gen.h ****     return (const lv_font_t *)v.ptr;
 616              		.loc 2 465 5 view .LVU179
 465:lvgl/src/widgets/../core/lv_obj_style_gen.h ****     return (const lv_font_t *)v.ptr;
 617              		.loc 2 465 26 is_stmt 0 view .LVU180
 618 002a 5722     		movs	r2, #87
 619 002c 4FF48021 		mov	r1, #262144
 620              	.LVL68:
 465:lvgl/src/widgets/../core/lv_obj_style_gen.h ****     return (const lv_font_t *)v.ptr;
 621              		.loc 2 465 26 view .LVU181
 622 0030 2046     		mov	r0, r4
 623              	.LVL69:
 465:lvgl/src/widgets/../core/lv_obj_style_gen.h ****     return (const lv_font_t *)v.ptr;
 624              		.loc 2 465 26 view .LVU182
ARM GAS  C:\Users\OSD\AppData\Local\Temp\cca5CFPq.s 			page 45


 625 0032 FFF7FEFF 		bl	lv_obj_get_style_prop
 626              	.LVL70:
 627 0036 8146     		mov	r9, r0
 628              	.LVL71:
 466:lvgl/src/widgets/../core/lv_obj_style_gen.h **** }
 629              		.loc 2 466 5 is_stmt 1 view .LVU183
 466:lvgl/src/widgets/../core/lv_obj_style_gen.h **** }
 630              		.loc 2 466 5 is_stmt 0 view .LVU184
 631              	.LBE71:
 632              	.LBE70:
 944:lvgl/src/widgets/lv_dropdown.c ****     lv_coord_t font_h         = lv_font_get_line_height(font);
 633              		.loc 1 944 5 is_stmt 1 view .LVU185
 634              	.LBB72:
 635              	.LBI72:
 475:lvgl/src/widgets/../core/lv_obj_style_gen.h **** {
 636              		.loc 2 475 26 view .LVU186
 637              	.LBB73:
 477:lvgl/src/widgets/../core/lv_obj_style_gen.h ****     return (lv_coord_t)v.num;
 638              		.loc 2 477 5 view .LVU187
 477:lvgl/src/widgets/../core/lv_obj_style_gen.h ****     return (lv_coord_t)v.num;
 639              		.loc 2 477 26 is_stmt 0 view .LVU188
 640 0038 5922     		movs	r2, #89
 641 003a 4FF48021 		mov	r1, #262144
 642 003e 2046     		mov	r0, r4
 643              	.LVL72:
 477:lvgl/src/widgets/../core/lv_obj_style_gen.h ****     return (lv_coord_t)v.num;
 644              		.loc 2 477 26 view .LVU189
 645 0040 FFF7FEFF 		bl	lv_obj_get_style_prop
 646              	.LVL73:
 647 0044 8046     		mov	r8, r0
 648              		.loc 2 478 5 is_stmt 1 view .LVU190
 649              		.loc 2 478 12 is_stmt 0 view .LVU191
 650 0046 0FFA80FA 		sxth	r10, r0
 651              	.LVL74:
 652              		.loc 2 478 12 view .LVU192
 653              	.LBE73:
 654              	.LBE72:
 945:lvgl/src/widgets/lv_dropdown.c **** 
 655              		.loc 1 945 5 is_stmt 1 view .LVU193
 656              	.LBB74:
 657              	.LBI74:
 124:d:\kzc\stm32\h743ii_lcd\lvgl\src\font\lv_font.h **** {
 658              		.loc 3 124 26 view .LVU194
 659              	.LBB75:
 660              		.loc 3 126 5 view .LVU195
 661              		.loc 3 126 18 is_stmt 0 view .LVU196
 662 004a B9F90890 		ldrsh	r9, [r9, #8]
 663              	.LVL75:
 664              		.loc 3 126 18 view .LVU197
 665              	.LBE75:
 666              	.LBE74:
 948:lvgl/src/widgets/lv_dropdown.c ****     lv_area_t rect_area;
 667              		.loc 1 948 5 is_stmt 1 view .LVU198
 948:lvgl/src/widgets/lv_dropdown.c ****     lv_area_t rect_area;
 668              		.loc 1 948 24 is_stmt 0 view .LVU199
 669 004e 2846     		mov	r0, r5
 670 0050 FFF7FEFF 		bl	get_label
ARM GAS  C:\Users\OSD\AppData\Local\Temp\cca5CFPq.s 			page 46


 671              	.LVL76:
 949:lvgl/src/widgets/lv_dropdown.c ****     rect_area.y1 = label->coords.y1;
 672              		.loc 1 949 5 is_stmt 1 view .LVU200
 950:lvgl/src/widgets/lv_dropdown.c ****     rect_area.y1 += id * (font_h + line_space);
 673              		.loc 1 950 5 view .LVU201
 950:lvgl/src/widgets/lv_dropdown.c ****     rect_area.y1 += id * (font_h + line_space);
 674              		.loc 1 950 33 is_stmt 0 view .LVU202
 675 0054 B0F91620 		ldrsh	r2, [r0, #22]
 950:lvgl/src/widgets/lv_dropdown.c ****     rect_area.y1 += id * (font_h + line_space);
 676              		.loc 1 950 18 view .LVU203
 677 0058 ADF85220 		strh	r2, [sp, #82]	@ movhi
 951:lvgl/src/widgets/lv_dropdown.c ****     rect_area.y1 -= line_space / 2;
 678              		.loc 1 951 5 is_stmt 1 view .LVU204
 951:lvgl/src/widgets/lv_dropdown.c ****     rect_area.y1 -= line_space / 2;
 679              		.loc 1 951 34 is_stmt 0 view .LVU205
 680 005c 09EB0A03 		add	r3, r9, r10
 951:lvgl/src/widgets/lv_dropdown.c ****     rect_area.y1 -= line_space / 2;
 681              		.loc 1 951 18 view .LVU206
 682 0060 13FB0B23 		smlabb	r3, r3, fp, r2
 683 0064 9BB2     		uxth	r3, r3
 684 0066 ADF85230 		strh	r3, [sp, #82]	@ movhi
 952:lvgl/src/widgets/lv_dropdown.c **** 
 685              		.loc 1 952 5 is_stmt 1 view .LVU207
 952:lvgl/src/widgets/lv_dropdown.c **** 
 686              		.loc 1 952 18 is_stmt 0 view .LVU208
 687 006a 5246     		mov	r2, r10
 688 006c BAF1000F 		cmp	r10, #0
 689 0070 2CDB     		blt	.L37
 690              	.L35:
 691 0072 A3EB6203 		sub	r3, r3, r2, asr #1
 692 0076 9BB2     		uxth	r3, r3
 693 0078 ADF85230 		strh	r3, [sp, #82]	@ movhi
 954:lvgl/src/widgets/lv_dropdown.c ****     rect_area.x1 = dropdown->list->coords.x1;
 694              		.loc 1 954 5 is_stmt 1 view .LVU209
 954:lvgl/src/widgets/lv_dropdown.c ****     rect_area.x1 = dropdown->list->coords.x1;
 695              		.loc 1 954 33 is_stmt 0 view .LVU210
 696 007c 4B44     		add	r3, r3, r9
 954:lvgl/src/widgets/lv_dropdown.c ****     rect_area.x1 = dropdown->list->coords.x1;
 697              		.loc 1 954 42 view .LVU211
 698 007e 18FA83F3 		uxtah	r3, r8, r3
 699 0082 9BB2     		uxth	r3, r3
 954:lvgl/src/widgets/lv_dropdown.c ****     rect_area.x1 = dropdown->list->coords.x1;
 700              		.loc 1 954 55 view .LVU212
 701 0084 013B     		subs	r3, r3, #1
 954:lvgl/src/widgets/lv_dropdown.c ****     rect_area.x1 = dropdown->list->coords.x1;
 702              		.loc 1 954 18 view .LVU213
 703 0086 ADF85630 		strh	r3, [sp, #86]	@ movhi
 955:lvgl/src/widgets/lv_dropdown.c ****     rect_area.x2 = dropdown->list->coords.x2;
 704              		.loc 1 955 5 is_stmt 1 view .LVU214
 955:lvgl/src/widgets/lv_dropdown.c ****     rect_area.x2 = dropdown->list->coords.x2;
 705              		.loc 1 955 28 is_stmt 0 view .LVU215
 706 008a 6B6A     		ldr	r3, [r5, #36]
 955:lvgl/src/widgets/lv_dropdown.c ****     rect_area.x2 = dropdown->list->coords.x2;
 707              		.loc 1 955 42 view .LVU216
 708 008c B3F91420 		ldrsh	r2, [r3, #20]
 955:lvgl/src/widgets/lv_dropdown.c ****     rect_area.x2 = dropdown->list->coords.x2;
 709              		.loc 1 955 18 view .LVU217
ARM GAS  C:\Users\OSD\AppData\Local\Temp\cca5CFPq.s 			page 47


 710 0090 ADF85020 		strh	r2, [sp, #80]	@ movhi
 956:lvgl/src/widgets/lv_dropdown.c **** 
 711              		.loc 1 956 5 is_stmt 1 view .LVU218
 956:lvgl/src/widgets/lv_dropdown.c **** 
 712              		.loc 1 956 42 is_stmt 0 view .LVU219
 713 0094 B3F91830 		ldrsh	r3, [r3, #24]
 956:lvgl/src/widgets/lv_dropdown.c **** 
 714              		.loc 1 956 18 view .LVU220
 715 0098 ADF85430 		strh	r3, [sp, #84]	@ movhi
 958:lvgl/src/widgets/lv_dropdown.c ****     lv_draw_rect_dsc_init(&sel_rect);
 716              		.loc 1 958 5 is_stmt 1 view .LVU221
 959:lvgl/src/widgets/lv_dropdown.c ****     lv_obj_init_draw_rect_dsc(list_obj,  LV_PART_SELECTED, &sel_rect);
 717              		.loc 1 959 5 view .LVU222
 718 009c 6846     		mov	r0, sp
 719              	.LVL77:
 959:lvgl/src/widgets/lv_dropdown.c ****     lv_obj_init_draw_rect_dsc(list_obj,  LV_PART_SELECTED, &sel_rect);
 720              		.loc 1 959 5 is_stmt 0 view .LVU223
 721 009e FFF7FEFF 		bl	lv_draw_rect_dsc_init
 722              	.LVL78:
 960:lvgl/src/widgets/lv_dropdown.c ****     lv_draw_rect(draw_ctx, &sel_rect, &rect_area);
 723              		.loc 1 960 5 is_stmt 1 view .LVU224
 724 00a2 6A46     		mov	r2, sp
 725 00a4 4FF48021 		mov	r1, #262144
 726 00a8 2046     		mov	r0, r4
 727 00aa FFF7FEFF 		bl	lv_obj_init_draw_rect_dsc
 728              	.LVL79:
 961:lvgl/src/widgets/lv_dropdown.c **** 
 729              		.loc 1 961 5 view .LVU225
 730 00ae 14AA     		add	r2, sp, #80
 731 00b0 6946     		mov	r1, sp
 732 00b2 3046     		mov	r0, r6
 733 00b4 FFF7FEFF 		bl	lv_draw_rect
 734              	.LVL80:
 963:lvgl/src/widgets/lv_dropdown.c ****     list_obj->skip_trans = 0;
 735              		.loc 1 963 5 view .LVU226
 963:lvgl/src/widgets/lv_dropdown.c ****     list_obj->skip_trans = 0;
 736              		.loc 1 963 21 is_stmt 0 view .LVU227
 737 00b8 2784     		strh	r7, [r4, #32]	@ movhi
 964:lvgl/src/widgets/lv_dropdown.c **** }
 738              		.loc 1 964 5 is_stmt 1 view .LVU228
 964:lvgl/src/widgets/lv_dropdown.c **** }
 739              		.loc 1 964 26 is_stmt 0 view .LVU229
 740 00ba 94F82230 		ldrb	r3, [r4, #34]	@ zero_extendqisi2
 741 00be 6FF3C303 		bfc	r3, #3, #1
 742 00c2 84F82230 		strb	r3, [r4, #34]
 743              	.LVL81:
 744              	.L31:
 965:lvgl/src/widgets/lv_dropdown.c **** 
 745              		.loc 1 965 1 view .LVU230
 746 00c6 17B0     		add	sp, sp, #92
 747              		.cfi_remember_state
 748              		.cfi_def_cfa_offset 36
 749              		@ sp needed
 750 00c8 BDE8F08F 		pop	{r4, r5, r6, r7, r8, r9, r10, fp, pc}
 751              	.LVL82:
 752              	.L37:
 753              		.cfi_restore_state
ARM GAS  C:\Users\OSD\AppData\Local\Temp\cca5CFPq.s 			page 48


 952:lvgl/src/widgets/lv_dropdown.c **** 
 754              		.loc 1 952 18 view .LVU231
 755 00cc 0AF10102 		add	r2, r10, #1
 756 00d0 CFE7     		b	.L35
 757              		.cfi_endproc
 758              	.LFE199:
 760              		.section	.text.draw_box_label,"ax",%progbits
 761              		.align	1
 762              		.syntax unified
 763              		.thumb
 764              		.thumb_func
 766              	draw_box_label:
 767              	.LVL83:
 768              	.LFB200:
 968:lvgl/src/widgets/lv_dropdown.c ****     if(id == LV_DROPDOWN_PR_NONE) return;
 769              		.loc 1 968 1 is_stmt 1 view -0
 770              		.cfi_startproc
 771              		@ args = 0, pretend = 0, frame = 56
 772              		@ frame_needed = 0, uses_anonymous_args = 0
 968:lvgl/src/widgets/lv_dropdown.c ****     if(id == LV_DROPDOWN_PR_NONE) return;
 773              		.loc 1 968 1 is_stmt 0 view .LVU233
 774 0000 2DE9F043 		push	{r4, r5, r6, r7, r8, r9, lr}
 775              		.cfi_def_cfa_offset 28
 776              		.cfi_offset 4, -28
 777              		.cfi_offset 5, -24
 778              		.cfi_offset 6, -20
 779              		.cfi_offset 7, -16
 780              		.cfi_offset 8, -12
 781              		.cfi_offset 9, -8
 782              		.cfi_offset 14, -4
 783 0004 91B0     		sub	sp, sp, #68
 784              		.cfi_def_cfa_offset 96
 785 0006 9046     		mov	r8, r2
 969:lvgl/src/widgets/lv_dropdown.c **** 
 786              		.loc 1 969 5 is_stmt 1 view .LVU234
 969:lvgl/src/widgets/lv_dropdown.c **** 
 787              		.loc 1 969 7 is_stmt 0 view .LVU235
 788 0008 4FF6FF72 		movw	r2, #65535
 789              	.LVL84:
 969:lvgl/src/widgets/lv_dropdown.c **** 
 790              		.loc 1 969 7 view .LVU236
 791 000c 9045     		cmp	r8, r2
 792 000e 57D0     		beq	.L38
 793 0010 0746     		mov	r7, r0
 794 0012 0D46     		mov	r5, r1
 971:lvgl/src/widgets/lv_dropdown.c ****     lv_obj_t * list_obj = dropdown->list;
 795              		.loc 1 971 5 is_stmt 1 view .LVU237
 796              	.LVL85:
 972:lvgl/src/widgets/lv_dropdown.c ****     lv_state_t state_orig = list_obj->state;
 797              		.loc 1 972 5 view .LVU238
 972:lvgl/src/widgets/lv_dropdown.c ****     lv_state_t state_orig = list_obj->state;
 798              		.loc 1 972 16 is_stmt 0 view .LVU239
 799 0014 446A     		ldr	r4, [r0, #36]
 800              	.LVL86:
 973:lvgl/src/widgets/lv_dropdown.c **** 
 801              		.loc 1 973 5 is_stmt 1 view .LVU240
 973:lvgl/src/widgets/lv_dropdown.c **** 
ARM GAS  C:\Users\OSD\AppData\Local\Temp\cca5CFPq.s 			page 49


 802              		.loc 1 973 16 is_stmt 0 view .LVU241
 803 0016 268C     		ldrh	r6, [r4, #32]
 804              	.LVL87:
 975:lvgl/src/widgets/lv_dropdown.c ****         list_obj->state = state;
 805              		.loc 1 975 5 is_stmt 1 view .LVU242
 975:lvgl/src/widgets/lv_dropdown.c ****         list_obj->state = state;
 806              		.loc 1 975 7 is_stmt 0 view .LVU243
 807 0018 9E42     		cmp	r6, r3
 808 001a 06D0     		beq	.L40
 976:lvgl/src/widgets/lv_dropdown.c ****         list_obj->skip_trans = 1;
 809              		.loc 1 976 9 is_stmt 1 view .LVU244
 976:lvgl/src/widgets/lv_dropdown.c ****         list_obj->skip_trans = 1;
 810              		.loc 1 976 25 is_stmt 0 view .LVU245
 811 001c 2384     		strh	r3, [r4, #32]	@ movhi
 977:lvgl/src/widgets/lv_dropdown.c ****     }
 812              		.loc 1 977 9 is_stmt 1 view .LVU246
 977:lvgl/src/widgets/lv_dropdown.c ****     }
 813              		.loc 1 977 30 is_stmt 0 view .LVU247
 814 001e 94F82230 		ldrb	r3, [r4, #34]	@ zero_extendqisi2
 815              	.LVL88:
 977:lvgl/src/widgets/lv_dropdown.c ****     }
 816              		.loc 1 977 30 view .LVU248
 817 0022 43F00803 		orr	r3, r3, #8
 818 0026 84F82230 		strb	r3, [r4, #34]
 819              	.LVL89:
 820              	.L40:
 980:lvgl/src/widgets/lv_dropdown.c ****     lv_draw_label_dsc_init(&label_dsc);
 821              		.loc 1 980 5 is_stmt 1 view .LVU249
 981:lvgl/src/widgets/lv_dropdown.c ****     lv_obj_init_draw_label_dsc(list_obj, LV_PART_SELECTED, &label_dsc);
 822              		.loc 1 981 5 view .LVU250
 823 002a 06A8     		add	r0, sp, #24
 824              	.LVL90:
 981:lvgl/src/widgets/lv_dropdown.c ****     lv_obj_init_draw_label_dsc(list_obj, LV_PART_SELECTED, &label_dsc);
 825              		.loc 1 981 5 is_stmt 0 view .LVU251
 826 002c FFF7FEFF 		bl	lv_draw_label_dsc_init
 827              	.LVL91:
 982:lvgl/src/widgets/lv_dropdown.c **** 
 828              		.loc 1 982 5 is_stmt 1 view .LVU252
 829 0030 06AA     		add	r2, sp, #24
 830 0032 4FF48021 		mov	r1, #262144
 831 0036 2046     		mov	r0, r4
 832 0038 FFF7FEFF 		bl	lv_obj_init_draw_label_dsc
 833              	.LVL92:
 984:lvgl/src/widgets/lv_dropdown.c ****                                                             LV_PART_SELECTED);  /*Line space should
 834              		.loc 1 984 5 view .LVU253
 835              	.LBB76:
 836              	.LBI76:
 475:lvgl/src/widgets/../core/lv_obj_style_gen.h **** {
 837              		.loc 2 475 26 view .LVU254
 838              	.LBB77:
 477:lvgl/src/widgets/../core/lv_obj_style_gen.h ****     return (lv_coord_t)v.num;
 839              		.loc 2 477 5 view .LVU255
 477:lvgl/src/widgets/../core/lv_obj_style_gen.h ****     return (lv_coord_t)v.num;
 840              		.loc 2 477 26 is_stmt 0 view .LVU256
 841 003c 5922     		movs	r2, #89
 842 003e 4FF48021 		mov	r1, #262144
 843 0042 2046     		mov	r0, r4
ARM GAS  C:\Users\OSD\AppData\Local\Temp\cca5CFPq.s 			page 50


 844 0044 FFF7FEFF 		bl	lv_obj_get_style_prop
 845              	.LVL93:
 846              		.loc 2 478 5 is_stmt 1 view .LVU257
 847              		.loc 2 478 5 is_stmt 0 view .LVU258
 848              	.LBE77:
 849              	.LBE76:
 984:lvgl/src/widgets/lv_dropdown.c ****                                                             LV_PART_SELECTED);  /*Line space should
 850              		.loc 1 984 26 view .LVU259
 851 0048 ADF83000 		strh	r0, [sp, #48]	@ movhi
 987:lvgl/src/widgets/lv_dropdown.c ****     if(label == NULL) return;
 852              		.loc 1 987 5 is_stmt 1 view .LVU260
 987:lvgl/src/widgets/lv_dropdown.c ****     if(label == NULL) return;
 853              		.loc 1 987 24 is_stmt 0 view .LVU261
 854 004c 3846     		mov	r0, r7
 855 004e FFF7FEFF 		bl	get_label
 856              	.LVL94:
 988:lvgl/src/widgets/lv_dropdown.c **** 
 857              		.loc 1 988 5 is_stmt 1 view .LVU262
 988:lvgl/src/widgets/lv_dropdown.c **** 
 858              		.loc 1 988 7 is_stmt 0 view .LVU263
 859 0052 0746     		mov	r7, r0
 860              	.LVL95:
 988:lvgl/src/widgets/lv_dropdown.c **** 
 861              		.loc 1 988 7 view .LVU264
 862 0054 A0B3     		cbz	r0, .L38
 990:lvgl/src/widgets/lv_dropdown.c **** 
 863              		.loc 1 990 5 is_stmt 1 view .LVU265
 990:lvgl/src/widgets/lv_dropdown.c **** 
 864              		.loc 1 990 32 is_stmt 0 view .LVU266
 865 0056 069B     		ldr	r3, [sp, #24]
 866              	.LVL96:
 867              	.LBB78:
 868              	.LBI78:
 124:d:\kzc\stm32\h743ii_lcd\lvgl\src\font\lv_font.h **** {
 869              		.loc 3 124 26 is_stmt 1 view .LVU267
 870              	.LBB79:
 871              		.loc 3 126 5 view .LVU268
 872              		.loc 3 126 18 is_stmt 0 view .LVU269
 873 0058 B3F908C0 		ldrsh	ip, [r3, #8]
 874              	.LVL97:
 875              		.loc 3 126 18 view .LVU270
 876              	.LBE79:
 877              	.LBE78:
 992:lvgl/src/widgets/lv_dropdown.c ****     area_sel.y1 = label->coords.y1;
 878              		.loc 1 992 5 is_stmt 1 view .LVU271
 993:lvgl/src/widgets/lv_dropdown.c ****     area_sel.y1 += id * (font_h + label_dsc.line_space);
 879              		.loc 1 993 5 view .LVU272
 993:lvgl/src/widgets/lv_dropdown.c ****     area_sel.y1 += id * (font_h + label_dsc.line_space);
 880              		.loc 1 993 32 is_stmt 0 view .LVU273
 881 005c B0F91630 		ldrsh	r3, [r0, #22]
 993:lvgl/src/widgets/lv_dropdown.c ****     area_sel.y1 += id * (font_h + label_dsc.line_space);
 882              		.loc 1 993 17 view .LVU274
 883 0060 ADF81230 		strh	r3, [sp, #18]	@ movhi
 994:lvgl/src/widgets/lv_dropdown.c ****     area_sel.y1 -= label_dsc.line_space / 2;
 884              		.loc 1 994 5 is_stmt 1 view .LVU275
 994:lvgl/src/widgets/lv_dropdown.c ****     area_sel.y1 -= label_dsc.line_space / 2;
 885              		.loc 1 994 44 is_stmt 0 view .LVU276
ARM GAS  C:\Users\OSD\AppData\Local\Temp\cca5CFPq.s 			page 51


 886 0064 BDF93000 		ldrsh	r0, [sp, #48]
 887              	.LVL98:
 994:lvgl/src/widgets/lv_dropdown.c ****     area_sel.y1 -= label_dsc.line_space / 2;
 888              		.loc 1 994 33 view .LVU277
 889 0068 0CEB0001 		add	r1, ip, r0
 994:lvgl/src/widgets/lv_dropdown.c ****     area_sel.y1 -= label_dsc.line_space / 2;
 890              		.loc 1 994 17 view .LVU278
 891 006c 11FB0832 		smlabb	r2, r1, r8, r3
 892 0070 93B2     		uxth	r3, r2
 893 0072 ADF81230 		strh	r3, [sp, #18]	@ movhi
 995:lvgl/src/widgets/lv_dropdown.c **** 
 894              		.loc 1 995 5 is_stmt 1 view .LVU279
 995:lvgl/src/widgets/lv_dropdown.c **** 
 895              		.loc 1 995 17 is_stmt 0 view .LVU280
 896 0076 0246     		mov	r2, r0
 897 0078 0028     		cmp	r0, #0
 898 007a 24DB     		blt	.L45
 899              	.L41:
 900 007c A3EB6203 		sub	r3, r3, r2, asr #1
 901 0080 9BB2     		uxth	r3, r3
 902 0082 ADF81230 		strh	r3, [sp, #18]	@ movhi
 997:lvgl/src/widgets/lv_dropdown.c ****     area_sel.x1 = list_obj->coords.x1;
 903              		.loc 1 997 5 is_stmt 1 view .LVU281
 997:lvgl/src/widgets/lv_dropdown.c ****     area_sel.x1 = list_obj->coords.x1;
 904              		.loc 1 997 31 is_stmt 0 view .LVU282
 905 0086 6344     		add	r3, r3, ip
 997:lvgl/src/widgets/lv_dropdown.c ****     area_sel.x1 = list_obj->coords.x1;
 906              		.loc 1 997 51 view .LVU283
 907 0088 80B2     		uxth	r0, r0
 997:lvgl/src/widgets/lv_dropdown.c ****     area_sel.x1 = list_obj->coords.x1;
 908              		.loc 1 997 40 view .LVU284
 909 008a 10FA83F3 		uxtah	r3, r0, r3
 910 008e 9BB2     		uxth	r3, r3
 997:lvgl/src/widgets/lv_dropdown.c ****     area_sel.x1 = list_obj->coords.x1;
 911              		.loc 1 997 63 view .LVU285
 912 0090 013B     		subs	r3, r3, #1
 997:lvgl/src/widgets/lv_dropdown.c ****     area_sel.x1 = list_obj->coords.x1;
 913              		.loc 1 997 17 view .LVU286
 914 0092 ADF81630 		strh	r3, [sp, #22]	@ movhi
 998:lvgl/src/widgets/lv_dropdown.c ****     area_sel.x2 = list_obj->coords.x2;
 915              		.loc 1 998 5 is_stmt 1 view .LVU287
 998:lvgl/src/widgets/lv_dropdown.c ****     area_sel.x2 = list_obj->coords.x2;
 916              		.loc 1 998 35 is_stmt 0 view .LVU288
 917 0096 B4F91430 		ldrsh	r3, [r4, #20]
 998:lvgl/src/widgets/lv_dropdown.c ****     area_sel.x2 = list_obj->coords.x2;
 918              		.loc 1 998 17 view .LVU289
 919 009a ADF81030 		strh	r3, [sp, #16]	@ movhi
 999:lvgl/src/widgets/lv_dropdown.c ****     lv_area_t mask_sel;
 920              		.loc 1 999 5 is_stmt 1 view .LVU290
 999:lvgl/src/widgets/lv_dropdown.c ****     lv_area_t mask_sel;
 921              		.loc 1 999 35 is_stmt 0 view .LVU291
 922 009e B4F91830 		ldrsh	r3, [r4, #24]
 999:lvgl/src/widgets/lv_dropdown.c ****     lv_area_t mask_sel;
 923              		.loc 1 999 17 view .LVU292
 924 00a2 ADF81430 		strh	r3, [sp, #20]	@ movhi
1000:lvgl/src/widgets/lv_dropdown.c ****     bool area_ok;
 925              		.loc 1 1000 5 is_stmt 1 view .LVU293
ARM GAS  C:\Users\OSD\AppData\Local\Temp\cca5CFPq.s 			page 52


1001:lvgl/src/widgets/lv_dropdown.c ****     area_ok = _lv_area_intersect(&mask_sel, draw_ctx->clip_area, &area_sel);
 926              		.loc 1 1001 5 view .LVU294
1002:lvgl/src/widgets/lv_dropdown.c ****     if(area_ok) {
 927              		.loc 1 1002 5 view .LVU295
1002:lvgl/src/widgets/lv_dropdown.c ****     if(area_ok) {
 928              		.loc 1 1002 15 is_stmt 0 view .LVU296
 929 00a6 04AA     		add	r2, sp, #16
 930 00a8 A968     		ldr	r1, [r5, #8]
 931 00aa 02A8     		add	r0, sp, #8
 932 00ac FFF7FEFF 		bl	_lv_area_intersect
 933              	.LVL99:
1003:lvgl/src/widgets/lv_dropdown.c ****         const lv_area_t * clip_area_ori = draw_ctx->clip_area;
 934              		.loc 1 1003 5 is_stmt 1 view .LVU297
1003:lvgl/src/widgets/lv_dropdown.c ****         const lv_area_t * clip_area_ori = draw_ctx->clip_area;
 935              		.loc 1 1003 7 is_stmt 0 view .LVU298
 936 00b0 58B9     		cbnz	r0, .L46
 937              	.LVL100:
 938              	.L42:
1009:lvgl/src/widgets/lv_dropdown.c ****     list_obj->skip_trans = 0;
 939              		.loc 1 1009 5 is_stmt 1 view .LVU299
1009:lvgl/src/widgets/lv_dropdown.c ****     list_obj->skip_trans = 0;
 940              		.loc 1 1009 21 is_stmt 0 view .LVU300
 941 00b2 2684     		strh	r6, [r4, #32]	@ movhi
1010:lvgl/src/widgets/lv_dropdown.c **** }
 942              		.loc 1 1010 5 is_stmt 1 view .LVU301
1010:lvgl/src/widgets/lv_dropdown.c **** }
 943              		.loc 1 1010 26 is_stmt 0 view .LVU302
 944 00b4 94F82230 		ldrb	r3, [r4, #34]	@ zero_extendqisi2
 945 00b8 6FF3C303 		bfc	r3, #3, #1
 946 00bc 84F82230 		strb	r3, [r4, #34]
 947              	.LVL101:
 948              	.L38:
1011:lvgl/src/widgets/lv_dropdown.c **** 
 949              		.loc 1 1011 1 view .LVU303
 950 00c0 11B0     		add	sp, sp, #68
 951              		.cfi_remember_state
 952              		.cfi_def_cfa_offset 28
 953              		@ sp needed
 954 00c2 BDE8F083 		pop	{r4, r5, r6, r7, r8, r9, pc}
 955              	.LVL102:
 956              	.L45:
 957              		.cfi_restore_state
 995:lvgl/src/widgets/lv_dropdown.c **** 
 958              		.loc 1 995 17 view .LVU304
 959 00c6 421C     		adds	r2, r0, #1
 960 00c8 D8E7     		b	.L41
 961              	.LVL103:
 962              	.L46:
 963              	.LBB80:
1004:lvgl/src/widgets/lv_dropdown.c ****         draw_ctx->clip_area = &mask_sel;
 964              		.loc 1 1004 9 is_stmt 1 view .LVU305
1004:lvgl/src/widgets/lv_dropdown.c ****         draw_ctx->clip_area = &mask_sel;
 965              		.loc 1 1004 27 is_stmt 0 view .LVU306
 966 00ca D5F80880 		ldr	r8, [r5, #8]
 967              	.LVL104:
1005:lvgl/src/widgets/lv_dropdown.c ****         lv_draw_label(draw_ctx, &label_dsc, &label->coords, lv_label_get_text(label), NULL);
 968              		.loc 1 1005 9 is_stmt 1 view .LVU307
ARM GAS  C:\Users\OSD\AppData\Local\Temp\cca5CFPq.s 			page 53


1005:lvgl/src/widgets/lv_dropdown.c ****         lv_draw_label(draw_ctx, &label_dsc, &label->coords, lv_label_get_text(label), NULL);
 969              		.loc 1 1005 29 is_stmt 0 view .LVU308
 970 00ce 02AB     		add	r3, sp, #8
 971 00d0 AB60     		str	r3, [r5, #8]
1006:lvgl/src/widgets/lv_dropdown.c ****         draw_ctx->clip_area = clip_area_ori;
 972              		.loc 1 1006 9 is_stmt 1 view .LVU309
1006:lvgl/src/widgets/lv_dropdown.c ****         draw_ctx->clip_area = clip_area_ori;
 973              		.loc 1 1006 45 is_stmt 0 view .LVU310
 974 00d2 07F11409 		add	r9, r7, #20
1006:lvgl/src/widgets/lv_dropdown.c ****         draw_ctx->clip_area = clip_area_ori;
 975              		.loc 1 1006 61 view .LVU311
 976 00d6 3846     		mov	r0, r7
 977              	.LVL105:
1006:lvgl/src/widgets/lv_dropdown.c ****         draw_ctx->clip_area = clip_area_ori;
 978              		.loc 1 1006 61 view .LVU312
 979 00d8 FFF7FEFF 		bl	lv_label_get_text
 980              	.LVL106:
 981 00dc 0346     		mov	r3, r0
1006:lvgl/src/widgets/lv_dropdown.c ****         draw_ctx->clip_area = clip_area_ori;
 982              		.loc 1 1006 9 view .LVU313
 983 00de 0022     		movs	r2, #0
 984 00e0 0092     		str	r2, [sp]
 985 00e2 4A46     		mov	r2, r9
 986 00e4 06A9     		add	r1, sp, #24
 987 00e6 2846     		mov	r0, r5
 988 00e8 FFF7FEFF 		bl	lv_draw_label
 989              	.LVL107:
1007:lvgl/src/widgets/lv_dropdown.c ****     }
 990              		.loc 1 1007 9 is_stmt 1 view .LVU314
1007:lvgl/src/widgets/lv_dropdown.c ****     }
 991              		.loc 1 1007 29 is_stmt 0 view .LVU315
 992 00ec C5F80880 		str	r8, [r5, #8]
 993 00f0 DFE7     		b	.L42
 994              	.LBE80:
 995              		.cfi_endproc
 996              	.LFE200:
 998              		.section	.text.draw_list,"ax",%progbits
 999              		.align	1
 1000              		.syntax unified
 1001              		.thumb
 1002              		.thumb_func
 1004              	draw_list:
 1005              	.LVL108:
 1006              	.LFB198:
 894:lvgl/src/widgets/lv_dropdown.c ****     lv_obj_t * list_obj = lv_event_get_target(e);
 1007              		.loc 1 894 1 is_stmt 1 view -0
 1008              		.cfi_startproc
 1009              		@ args = 0, pretend = 0, frame = 8
 1010              		@ frame_needed = 0, uses_anonymous_args = 0
 894:lvgl/src/widgets/lv_dropdown.c ****     lv_obj_t * list_obj = lv_event_get_target(e);
 1011              		.loc 1 894 1 is_stmt 0 view .LVU317
 1012 0000 70B5     		push	{r4, r5, r6, lr}
 1013              		.cfi_def_cfa_offset 16
 1014              		.cfi_offset 4, -16
 1015              		.cfi_offset 5, -12
 1016              		.cfi_offset 6, -8
 1017              		.cfi_offset 14, -4
ARM GAS  C:\Users\OSD\AppData\Local\Temp\cca5CFPq.s 			page 54


 1018 0002 82B0     		sub	sp, sp, #8
 1019              		.cfi_def_cfa_offset 24
 1020 0004 0446     		mov	r4, r0
 895:lvgl/src/widgets/lv_dropdown.c ****     lv_dropdown_list_t * list = (lv_dropdown_list_t *)list_obj;
 1021              		.loc 1 895 5 is_stmt 1 view .LVU318
 895:lvgl/src/widgets/lv_dropdown.c ****     lv_dropdown_list_t * list = (lv_dropdown_list_t *)list_obj;
 1022              		.loc 1 895 27 is_stmt 0 view .LVU319
 1023 0006 FFF7FEFF 		bl	lv_event_get_target
 1024              	.LVL109:
 896:lvgl/src/widgets/lv_dropdown.c ****     lv_obj_t * dropdown_obj = list->dropdown;
 1025              		.loc 1 896 5 is_stmt 1 view .LVU320
 897:lvgl/src/widgets/lv_dropdown.c ****     lv_dropdown_t * dropdown = (lv_dropdown_t *)dropdown_obj;
 1026              		.loc 1 897 5 view .LVU321
 897:lvgl/src/widgets/lv_dropdown.c ****     lv_dropdown_t * dropdown = (lv_dropdown_t *)dropdown_obj;
 1027              		.loc 1 897 16 is_stmt 0 view .LVU322
 1028 000a 456A     		ldr	r5, [r0, #36]
 1029              	.LVL110:
 898:lvgl/src/widgets/lv_dropdown.c ****     lv_draw_ctx_t * draw_ctx = lv_event_get_draw_ctx(e);
 1030              		.loc 1 898 5 is_stmt 1 view .LVU323
 899:lvgl/src/widgets/lv_dropdown.c **** 
 1031              		.loc 1 899 5 view .LVU324
 899:lvgl/src/widgets/lv_dropdown.c **** 
 1032              		.loc 1 899 32 is_stmt 0 view .LVU325
 1033 000c 2046     		mov	r0, r4
 1034              	.LVL111:
 899:lvgl/src/widgets/lv_dropdown.c **** 
 1035              		.loc 1 899 32 view .LVU326
 1036 000e FFF7FEFF 		bl	lv_event_get_draw_ctx
 1037              	.LVL112:
 1038 0012 0446     		mov	r4, r0
 1039              	.LVL113:
 903:lvgl/src/widgets/lv_dropdown.c ****     bool has_common;
 1040              		.loc 1 903 5 is_stmt 1 view .LVU327
 904:lvgl/src/widgets/lv_dropdown.c ****     has_common = _lv_area_intersect(&clip_area_core, draw_ctx->clip_area, &dropdown->list->coords);
 1041              		.loc 1 904 5 view .LVU328
 905:lvgl/src/widgets/lv_dropdown.c ****     if(has_common) {
 1042              		.loc 1 905 5 view .LVU329
 905:lvgl/src/widgets/lv_dropdown.c ****     if(has_common) {
 1043              		.loc 1 905 84 is_stmt 0 view .LVU330
 1044 0014 6A6A     		ldr	r2, [r5, #36]
 905:lvgl/src/widgets/lv_dropdown.c ****     if(has_common) {
 1045              		.loc 1 905 18 view .LVU331
 1046 0016 1432     		adds	r2, r2, #20
 1047 0018 8168     		ldr	r1, [r0, #8]
 1048 001a 6846     		mov	r0, sp
 1049              	.LVL114:
 905:lvgl/src/widgets/lv_dropdown.c ****     if(has_common) {
 1050              		.loc 1 905 18 view .LVU332
 1051 001c FFF7FEFF 		bl	_lv_area_intersect
 1052              	.LVL115:
 906:lvgl/src/widgets/lv_dropdown.c ****         const lv_area_t * clip_area_ori = draw_ctx->clip_area;
 1053              		.loc 1 906 5 is_stmt 1 view .LVU333
 906:lvgl/src/widgets/lv_dropdown.c ****         const lv_area_t * clip_area_ori = draw_ctx->clip_area;
 1054              		.loc 1 906 7 is_stmt 0 view .LVU334
 1055 0020 18B3     		cbz	r0, .L47
 1056              	.LBB81:
 907:lvgl/src/widgets/lv_dropdown.c ****         draw_ctx->clip_area = &clip_area_core;
ARM GAS  C:\Users\OSD\AppData\Local\Temp\cca5CFPq.s 			page 55


 1057              		.loc 1 907 9 is_stmt 1 view .LVU335
 907:lvgl/src/widgets/lv_dropdown.c ****         draw_ctx->clip_area = &clip_area_core;
 1058              		.loc 1 907 27 is_stmt 0 view .LVU336
 1059 0022 A668     		ldr	r6, [r4, #8]
 1060              	.LVL116:
 908:lvgl/src/widgets/lv_dropdown.c ****         if(dropdown->selected_highlight) {
 1061              		.loc 1 908 9 is_stmt 1 view .LVU337
 908:lvgl/src/widgets/lv_dropdown.c ****         if(dropdown->selected_highlight) {
 1062              		.loc 1 908 29 is_stmt 0 view .LVU338
 1063 0024 C4F808D0 		str	sp, [r4, #8]
 909:lvgl/src/widgets/lv_dropdown.c ****             if(dropdown->pr_opt_id == dropdown->sel_opt_id) {
 1064              		.loc 1 909 9 is_stmt 1 view .LVU339
 909:lvgl/src/widgets/lv_dropdown.c ****             if(dropdown->pr_opt_id == dropdown->sel_opt_id) {
 1065              		.loc 1 909 12 is_stmt 0 view .LVU340
 1066 0028 95F83C30 		ldrb	r3, [r5, #60]	@ zero_extendqisi2
 909:lvgl/src/widgets/lv_dropdown.c ****             if(dropdown->pr_opt_id == dropdown->sel_opt_id) {
 1067              		.loc 1 909 11 view .LVU341
 1068 002c 13F0200F 		tst	r3, #32
 1069 0030 29D0     		beq	.L49
 910:lvgl/src/widgets/lv_dropdown.c ****                 draw_box(dropdown_obj, draw_ctx, dropdown->pr_opt_id, LV_STATE_CHECKED | LV_STATE_P
 1070              		.loc 1 910 13 is_stmt 1 view .LVU342
 910:lvgl/src/widgets/lv_dropdown.c ****                 draw_box(dropdown_obj, draw_ctx, dropdown->pr_opt_id, LV_STATE_CHECKED | LV_STATE_P
 1071              		.loc 1 910 24 is_stmt 0 view .LVU343
 1072 0032 6A8F     		ldrh	r2, [r5, #58]
 910:lvgl/src/widgets/lv_dropdown.c ****                 draw_box(dropdown_obj, draw_ctx, dropdown->pr_opt_id, LV_STATE_CHECKED | LV_STATE_P
 1073              		.loc 1 910 47 view .LVU344
 1074 0034 EB8E     		ldrh	r3, [r5, #54]
 910:lvgl/src/widgets/lv_dropdown.c ****                 draw_box(dropdown_obj, draw_ctx, dropdown->pr_opt_id, LV_STATE_CHECKED | LV_STATE_P
 1075              		.loc 1 910 15 view .LVU345
 1076 0036 9A42     		cmp	r2, r3
 1077 0038 19D0     		beq	.L53
 915:lvgl/src/widgets/lv_dropdown.c ****                 draw_box_label(dropdown_obj, draw_ctx, dropdown->pr_opt_id, LV_STATE_PRESSED);
 1078              		.loc 1 915 17 is_stmt 1 view .LVU346
 1079 003a 2023     		movs	r3, #32
 1080 003c 2146     		mov	r1, r4
 1081 003e 2846     		mov	r0, r5
 1082              	.LVL117:
 915:lvgl/src/widgets/lv_dropdown.c ****                 draw_box_label(dropdown_obj, draw_ctx, dropdown->pr_opt_id, LV_STATE_PRESSED);
 1083              		.loc 1 915 17 is_stmt 0 view .LVU347
 1084 0040 FFF7FEFF 		bl	draw_box
 1085              	.LVL118:
 916:lvgl/src/widgets/lv_dropdown.c ****                 draw_box(dropdown_obj, draw_ctx, dropdown->sel_opt_id, LV_STATE_CHECKED);
 1086              		.loc 1 916 17 is_stmt 1 view .LVU348
 1087 0044 2023     		movs	r3, #32
 1088 0046 6A8F     		ldrh	r2, [r5, #58]
 1089 0048 2146     		mov	r1, r4
 1090 004a 2846     		mov	r0, r5
 1091 004c FFF7FEFF 		bl	draw_box_label
 1092              	.LVL119:
 917:lvgl/src/widgets/lv_dropdown.c ****                 draw_box_label(dropdown_obj, draw_ctx, dropdown->sel_opt_id, LV_STATE_CHECKED);
 1093              		.loc 1 917 17 view .LVU349
 1094 0050 0123     		movs	r3, #1
 1095 0052 EA8E     		ldrh	r2, [r5, #54]
 1096 0054 2146     		mov	r1, r4
 1097 0056 2846     		mov	r0, r5
 1098 0058 FFF7FEFF 		bl	draw_box
 1099              	.LVL120:
ARM GAS  C:\Users\OSD\AppData\Local\Temp\cca5CFPq.s 			page 56


 918:lvgl/src/widgets/lv_dropdown.c ****             }
 1100              		.loc 1 918 17 view .LVU350
 1101 005c 0123     		movs	r3, #1
 1102 005e EA8E     		ldrh	r2, [r5, #54]
 1103 0060 2146     		mov	r1, r4
 1104 0062 2846     		mov	r0, r5
 1105 0064 FFF7FEFF 		bl	draw_box_label
 1106              	.LVL121:
 1107              	.L51:
 925:lvgl/src/widgets/lv_dropdown.c ****     }
 1108              		.loc 1 925 9 view .LVU351
 925:lvgl/src/widgets/lv_dropdown.c ****     }
 1109              		.loc 1 925 29 is_stmt 0 view .LVU352
 1110 0068 A660     		str	r6, [r4, #8]
 1111              	.LVL122:
 1112              	.L47:
 925:lvgl/src/widgets/lv_dropdown.c ****     }
 1113              		.loc 1 925 29 view .LVU353
 1114              	.LBE81:
 927:lvgl/src/widgets/lv_dropdown.c **** 
 1115              		.loc 1 927 1 view .LVU354
 1116 006a 02B0     		add	sp, sp, #8
 1117              		.cfi_remember_state
 1118              		.cfi_def_cfa_offset 16
 1119              		@ sp needed
 1120 006c 70BD     		pop	{r4, r5, r6, pc}
 1121              	.LVL123:
 1122              	.L53:
 1123              		.cfi_restore_state
 1124              	.LBB82:
 911:lvgl/src/widgets/lv_dropdown.c ****                 draw_box_label(dropdown_obj, draw_ctx, dropdown->pr_opt_id, LV_STATE_CHECKED | LV_S
 1125              		.loc 1 911 17 is_stmt 1 view .LVU355
 1126 006e 2123     		movs	r3, #33
 1127 0070 2146     		mov	r1, r4
 1128 0072 2846     		mov	r0, r5
 1129              	.LVL124:
 911:lvgl/src/widgets/lv_dropdown.c ****                 draw_box_label(dropdown_obj, draw_ctx, dropdown->pr_opt_id, LV_STATE_CHECKED | LV_S
 1130              		.loc 1 911 17 is_stmt 0 view .LVU356
 1131 0074 FFF7FEFF 		bl	draw_box
 1132              	.LVL125:
 912:lvgl/src/widgets/lv_dropdown.c ****             }
 1133              		.loc 1 912 17 is_stmt 1 view .LVU357
 1134 0078 2123     		movs	r3, #33
 1135 007a 6A8F     		ldrh	r2, [r5, #58]
 1136 007c 2146     		mov	r1, r4
 1137 007e 2846     		mov	r0, r5
 1138 0080 FFF7FEFF 		bl	draw_box_label
 1139              	.LVL126:
 1140 0084 F0E7     		b	.L51
 1141              	.LVL127:
 1142              	.L49:
 922:lvgl/src/widgets/lv_dropdown.c ****             draw_box_label(dropdown_obj, draw_ctx, dropdown->pr_opt_id, LV_STATE_PRESSED);
 1143              		.loc 1 922 13 view .LVU358
 1144 0086 2023     		movs	r3, #32
 1145 0088 6A8F     		ldrh	r2, [r5, #58]
 1146 008a 2146     		mov	r1, r4
 1147 008c 2846     		mov	r0, r5
ARM GAS  C:\Users\OSD\AppData\Local\Temp\cca5CFPq.s 			page 57


 1148              	.LVL128:
 922:lvgl/src/widgets/lv_dropdown.c ****             draw_box_label(dropdown_obj, draw_ctx, dropdown->pr_opt_id, LV_STATE_PRESSED);
 1149              		.loc 1 922 13 is_stmt 0 view .LVU359
 1150 008e FFF7FEFF 		bl	draw_box
 1151              	.LVL129:
 923:lvgl/src/widgets/lv_dropdown.c ****         }
 1152              		.loc 1 923 13 is_stmt 1 view .LVU360
 1153 0092 2023     		movs	r3, #32
 1154 0094 6A8F     		ldrh	r2, [r5, #58]
 1155 0096 2146     		mov	r1, r4
 1156 0098 2846     		mov	r0, r5
 1157 009a FFF7FEFF 		bl	draw_box_label
 1158              	.LVL130:
 1159 009e E3E7     		b	.L51
 1160              	.LBE82:
 1161              		.cfi_endproc
 1162              	.LFE198:
 1164              		.section	.text.lv_dropdownlist_constructor,"ax",%progbits
 1165              		.align	1
 1166              		.syntax unified
 1167              		.thumb
 1168              		.thumb_func
 1170              	lv_dropdownlist_constructor:
 1171              	.LVL131:
 1172              	.LFB193:
 631:lvgl/src/widgets/lv_dropdown.c ****     LV_UNUSED(class_p);
 1173              		.loc 1 631 1 view -0
 1174              		.cfi_startproc
 1175              		@ args = 0, pretend = 0, frame = 0
 1176              		@ frame_needed = 0, uses_anonymous_args = 0
 631:lvgl/src/widgets/lv_dropdown.c ****     LV_UNUSED(class_p);
 1177              		.loc 1 631 1 is_stmt 0 view .LVU362
 1178 0000 10B5     		push	{r4, lr}
 1179              		.cfi_def_cfa_offset 8
 1180              		.cfi_offset 4, -8
 1181              		.cfi_offset 14, -4
 1182 0002 0C46     		mov	r4, r1
 632:lvgl/src/widgets/lv_dropdown.c ****     LV_TRACE_OBJ_CREATE("begin");
 1183              		.loc 1 632 5 is_stmt 1 view .LVU363
 633:lvgl/src/widgets/lv_dropdown.c **** 
 1184              		.loc 1 633 33 view .LVU364
 635:lvgl/src/widgets/lv_dropdown.c ****     lv_obj_clear_flag(obj, LV_OBJ_FLAG_CLICK_FOCUSABLE);
 1185              		.loc 1 635 5 view .LVU365
 1186 0004 4FF48061 		mov	r1, #1024
 1187              	.LVL132:
 635:lvgl/src/widgets/lv_dropdown.c ****     lv_obj_clear_flag(obj, LV_OBJ_FLAG_CLICK_FOCUSABLE);
 1188              		.loc 1 635 5 is_stmt 0 view .LVU366
 1189 0008 2046     		mov	r0, r4
 1190              	.LVL133:
 635:lvgl/src/widgets/lv_dropdown.c ****     lv_obj_clear_flag(obj, LV_OBJ_FLAG_CLICK_FOCUSABLE);
 1191              		.loc 1 635 5 view .LVU367
 1192 000a FFF7FEFF 		bl	lv_obj_clear_flag
 1193              	.LVL134:
 636:lvgl/src/widgets/lv_dropdown.c ****     lv_obj_add_flag(obj, LV_OBJ_FLAG_IGNORE_LAYOUT);
 1194              		.loc 1 636 5 is_stmt 1 view .LVU368
 1195 000e 0421     		movs	r1, #4
 1196 0010 2046     		mov	r0, r4
ARM GAS  C:\Users\OSD\AppData\Local\Temp\cca5CFPq.s 			page 58


 1197 0012 FFF7FEFF 		bl	lv_obj_clear_flag
 1198              	.LVL135:
 637:lvgl/src/widgets/lv_dropdown.c ****     lv_obj_add_flag(obj, LV_OBJ_FLAG_HIDDEN);
 1199              		.loc 1 637 5 view .LVU369
 1200 0016 4FF40031 		mov	r1, #131072
 1201 001a 2046     		mov	r0, r4
 1202 001c FFF7FEFF 		bl	lv_obj_add_flag
 1203              	.LVL136:
 638:lvgl/src/widgets/lv_dropdown.c **** 
 1204              		.loc 1 638 5 view .LVU370
 1205 0020 0121     		movs	r1, #1
 1206 0022 2046     		mov	r0, r4
 1207 0024 FFF7FEFF 		bl	lv_obj_add_flag
 1208              	.LVL137:
 640:lvgl/src/widgets/lv_dropdown.c **** 
 1209              		.loc 1 640 5 view .LVU371
 1210 0028 2046     		mov	r0, r4
 1211 002a FFF7FEFF 		bl	lv_label_create
 1212              	.LVL138:
 642:lvgl/src/widgets/lv_dropdown.c **** }
 1213              		.loc 1 642 36 view .LVU372
 643:lvgl/src/widgets/lv_dropdown.c **** 
 1214              		.loc 1 643 1 is_stmt 0 view .LVU373
 1215 002e 10BD     		pop	{r4, pc}
 643:lvgl/src/widgets/lv_dropdown.c **** 
 1216              		.loc 1 643 1 view .LVU374
 1217              		.cfi_endproc
 1218              	.LFE193:
 1220              		.section	.text.lv_dropdown_create,"ax",%progbits
 1221              		.align	1
 1222              		.global	lv_dropdown_create
 1223              		.syntax unified
 1224              		.thumb
 1225              		.thumb_func
 1227              	lv_dropdown_create:
 1228              	.LVL139:
 1229              	.LFB167:
  91:lvgl/src/widgets/lv_dropdown.c ****     LV_LOG_INFO("begin");
 1230              		.loc 1 91 1 is_stmt 1 view -0
 1231              		.cfi_startproc
 1232              		@ args = 0, pretend = 0, frame = 0
 1233              		@ frame_needed = 0, uses_anonymous_args = 0
  91:lvgl/src/widgets/lv_dropdown.c ****     LV_LOG_INFO("begin");
 1234              		.loc 1 91 1 is_stmt 0 view .LVU376
 1235 0000 10B5     		push	{r4, lr}
 1236              		.cfi_def_cfa_offset 8
 1237              		.cfi_offset 4, -8
 1238              		.cfi_offset 14, -4
 1239 0002 0146     		mov	r1, r0
  92:lvgl/src/widgets/lv_dropdown.c ****     lv_obj_t * obj = lv_obj_class_create_obj(&lv_dropdown_class, parent);
 1240              		.loc 1 92 5 is_stmt 1 view .LVU377
  92:lvgl/src/widgets/lv_dropdown.c ****     lv_obj_t * obj = lv_obj_class_create_obj(&lv_dropdown_class, parent);
 1241              		.loc 1 92 5 view .LVU378
  92:lvgl/src/widgets/lv_dropdown.c ****     lv_obj_t * obj = lv_obj_class_create_obj(&lv_dropdown_class, parent);
 1242              		.loc 1 92 5 view .LVU379
  93:lvgl/src/widgets/lv_dropdown.c ****     lv_obj_class_init_obj(obj);
 1243              		.loc 1 93 5 view .LVU380
ARM GAS  C:\Users\OSD\AppData\Local\Temp\cca5CFPq.s 			page 59


  93:lvgl/src/widgets/lv_dropdown.c ****     lv_obj_class_init_obj(obj);
 1244              		.loc 1 93 22 is_stmt 0 view .LVU381
 1245 0004 0348     		ldr	r0, .L58
 1246              	.LVL140:
  93:lvgl/src/widgets/lv_dropdown.c ****     lv_obj_class_init_obj(obj);
 1247              		.loc 1 93 22 view .LVU382
 1248 0006 FFF7FEFF 		bl	lv_obj_class_create_obj
 1249              	.LVL141:
  93:lvgl/src/widgets/lv_dropdown.c ****     lv_obj_class_init_obj(obj);
 1250              		.loc 1 93 22 view .LVU383
 1251 000a 0446     		mov	r4, r0
 1252              	.LVL142:
  94:lvgl/src/widgets/lv_dropdown.c ****     return obj;
 1253              		.loc 1 94 5 is_stmt 1 view .LVU384
 1254 000c FFF7FEFF 		bl	lv_obj_class_init_obj
 1255              	.LVL143:
  95:lvgl/src/widgets/lv_dropdown.c **** }
 1256              		.loc 1 95 5 view .LVU385
  96:lvgl/src/widgets/lv_dropdown.c **** 
 1257              		.loc 1 96 1 is_stmt 0 view .LVU386
 1258 0010 2046     		mov	r0, r4
 1259 0012 10BD     		pop	{r4, pc}
 1260              	.LVL144:
 1261              	.L59:
  96:lvgl/src/widgets/lv_dropdown.c **** 
 1262              		.loc 1 96 1 view .LVU387
 1263              		.align	2
 1264              	.L58:
 1265 0014 00000000 		.word	.LANCHOR1
 1266              		.cfi_endproc
 1267              	.LFE167:
 1269              		.section	.text.lv_dropdown_set_text,"ax",%progbits
 1270              		.align	1
 1271              		.global	lv_dropdown_set_text
 1272              		.syntax unified
 1273              		.thumb
 1274              		.thumb_func
 1276              	lv_dropdown_set_text:
 1277              	.LVL145:
 1278              	.LFB168:
 103:lvgl/src/widgets/lv_dropdown.c ****     LV_ASSERT_OBJ(obj, MY_CLASS);
 1279              		.loc 1 103 1 is_stmt 1 view -0
 1280              		.cfi_startproc
 1281              		@ args = 0, pretend = 0, frame = 0
 1282              		@ frame_needed = 0, uses_anonymous_args = 0
 103:lvgl/src/widgets/lv_dropdown.c ****     LV_ASSERT_OBJ(obj, MY_CLASS);
 1283              		.loc 1 103 1 is_stmt 0 view .LVU389
 1284 0000 08B5     		push	{r3, lr}
 1285              		.cfi_def_cfa_offset 8
 1286              		.cfi_offset 3, -8
 1287              		.cfi_offset 14, -4
 104:lvgl/src/widgets/lv_dropdown.c ****     lv_dropdown_t * dropdown = (lv_dropdown_t *)obj;
 1288              		.loc 1 104 5 is_stmt 1 view .LVU390
 104:lvgl/src/widgets/lv_dropdown.c ****     lv_dropdown_t * dropdown = (lv_dropdown_t *)obj;
 1289              		.loc 1 104 5 view .LVU391
 104:lvgl/src/widgets/lv_dropdown.c ****     lv_dropdown_t * dropdown = (lv_dropdown_t *)obj;
 1290              		.loc 1 104 5 view .LVU392
ARM GAS  C:\Users\OSD\AppData\Local\Temp\cca5CFPq.s 			page 60


 105:lvgl/src/widgets/lv_dropdown.c ****     if(dropdown->text == txt) return;
 1291              		.loc 1 105 5 view .LVU393
 1292              	.LVL146:
 106:lvgl/src/widgets/lv_dropdown.c **** 
 1293              		.loc 1 106 5 view .LVU394
 106:lvgl/src/widgets/lv_dropdown.c **** 
 1294              		.loc 1 106 16 is_stmt 0 view .LVU395
 1295 0002 836A     		ldr	r3, [r0, #40]
 106:lvgl/src/widgets/lv_dropdown.c **** 
 1296              		.loc 1 106 7 view .LVU396
 1297 0004 8B42     		cmp	r3, r1
 1298 0006 02D0     		beq	.L60
 108:lvgl/src/widgets/lv_dropdown.c **** 
 1299              		.loc 1 108 5 is_stmt 1 view .LVU397
 108:lvgl/src/widgets/lv_dropdown.c **** 
 1300              		.loc 1 108 20 is_stmt 0 view .LVU398
 1301 0008 8162     		str	r1, [r0, #40]
 110:lvgl/src/widgets/lv_dropdown.c **** }
 1302              		.loc 1 110 5 is_stmt 1 view .LVU399
 1303 000a FFF7FEFF 		bl	lv_obj_invalidate
 1304              	.LVL147:
 1305              	.L60:
 111:lvgl/src/widgets/lv_dropdown.c **** 
 1306              		.loc 1 111 1 is_stmt 0 view .LVU400
 1307 000e 08BD     		pop	{r3, pc}
 1308              		.cfi_endproc
 1309              	.LFE168:
 1311              		.section	.text.lv_dropdown_set_options,"ax",%progbits
 1312              		.align	1
 1313              		.global	lv_dropdown_set_options
 1314              		.syntax unified
 1315              		.thumb
 1316              		.thumb_func
 1318              	lv_dropdown_set_options:
 1319              	.LVL148:
 1320              	.LFB169:
 114:lvgl/src/widgets/lv_dropdown.c ****     LV_ASSERT_OBJ(obj, MY_CLASS);
 1321              		.loc 1 114 1 is_stmt 1 view -0
 1322              		.cfi_startproc
 1323              		@ args = 0, pretend = 0, frame = 0
 1324              		@ frame_needed = 0, uses_anonymous_args = 0
 115:lvgl/src/widgets/lv_dropdown.c ****     LV_ASSERT_NULL(options);
 1325              		.loc 1 115 5 view .LVU402
 115:lvgl/src/widgets/lv_dropdown.c ****     LV_ASSERT_NULL(options);
 1326              		.loc 1 115 5 view .LVU403
 115:lvgl/src/widgets/lv_dropdown.c ****     LV_ASSERT_NULL(options);
 1327              		.loc 1 115 5 view .LVU404
 116:lvgl/src/widgets/lv_dropdown.c **** 
 1328              		.loc 1 116 5 view .LVU405
 116:lvgl/src/widgets/lv_dropdown.c **** 
 1329              		.loc 1 116 5 view .LVU406
 1330 0000 29B1     		cbz	r1, .L65
 114:lvgl/src/widgets/lv_dropdown.c ****     LV_ASSERT_OBJ(obj, MY_CLASS);
 1331              		.loc 1 114 1 is_stmt 0 discriminator 2 view .LVU407
 1332 0002 70B5     		push	{r4, r5, r6, lr}
 1333              		.cfi_def_cfa_offset 16
 1334              		.cfi_offset 4, -16
ARM GAS  C:\Users\OSD\AppData\Local\Temp\cca5CFPq.s 			page 61


 1335              		.cfi_offset 5, -12
 1336              		.cfi_offset 6, -8
 1337              		.cfi_offset 14, -4
 1338 0004 0446     		mov	r4, r0
 1339 0006 0D46     		mov	r5, r1
 116:lvgl/src/widgets/lv_dropdown.c **** 
 1340              		.loc 1 116 5 is_stmt 1 discriminator 2 view .LVU408
 116:lvgl/src/widgets/lv_dropdown.c **** 
 1341              		.loc 1 116 28 discriminator 2 view .LVU409
 118:lvgl/src/widgets/lv_dropdown.c **** 
 1342              		.loc 1 118 5 discriminator 2 view .LVU410
 1343              	.LVL149:
 121:lvgl/src/widgets/lv_dropdown.c ****     uint32_t i;
 1344              		.loc 1 121 5 discriminator 2 view .LVU411
 121:lvgl/src/widgets/lv_dropdown.c ****     uint32_t i;
 1345              		.loc 1 121 26 is_stmt 0 discriminator 2 view .LVU412
 1346 0008 0023     		movs	r3, #0
 1347 000a 8386     		strh	r3, [r0, #52]	@ movhi
 122:lvgl/src/widgets/lv_dropdown.c ****     for(i = 0; options[i] != '\0'; i++) {
 1348              		.loc 1 122 5 is_stmt 1 discriminator 2 view .LVU413
 123:lvgl/src/widgets/lv_dropdown.c ****         if(options[i] == '\n') dropdown->option_cnt++;
 1349              		.loc 1 123 5 discriminator 2 view .LVU414
 1350              	.LVL150:
 123:lvgl/src/widgets/lv_dropdown.c ****         if(options[i] == '\n') dropdown->option_cnt++;
 1351              		.loc 1 123 5 is_stmt 0 discriminator 2 view .LVU415
 1352 000c 01E0     		b	.L66
 1353              	.LVL151:
 1354              	.L65:
 1355              		.cfi_def_cfa_offset 0
 1356              		.cfi_restore 4
 1357              		.cfi_restore 5
 1358              		.cfi_restore 6
 1359              		.cfi_restore 14
 116:lvgl/src/widgets/lv_dropdown.c **** 
 1360              		.loc 1 116 5 is_stmt 1 discriminator 1 view .LVU416
 116:lvgl/src/widgets/lv_dropdown.c **** 
 1361              		.loc 1 116 5 discriminator 1 view .LVU417
 116:lvgl/src/widgets/lv_dropdown.c **** 
 1362              		.loc 1 116 5 discriminator 1 view .LVU418
 116:lvgl/src/widgets/lv_dropdown.c **** 
 1363              		.loc 1 116 5 discriminator 1 view .LVU419
 116:lvgl/src/widgets/lv_dropdown.c **** 
 1364              		.loc 1 116 5 discriminator 1 view .LVU420
 116:lvgl/src/widgets/lv_dropdown.c **** 
 1365              		.loc 1 116 5 discriminator 1 view .LVU421
 1366 000e FEE7     		b	.L65
 1367              	.LVL152:
 1368              	.L67:
 1369              		.cfi_def_cfa_offset 16
 1370              		.cfi_offset 4, -16
 1371              		.cfi_offset 5, -12
 1372              		.cfi_offset 6, -8
 1373              		.cfi_offset 14, -4
 123:lvgl/src/widgets/lv_dropdown.c ****         if(options[i] == '\n') dropdown->option_cnt++;
 1374              		.loc 1 123 36 discriminator 2 view .LVU422
 123:lvgl/src/widgets/lv_dropdown.c ****         if(options[i] == '\n') dropdown->option_cnt++;
 1375              		.loc 1 123 37 is_stmt 0 discriminator 2 view .LVU423
ARM GAS  C:\Users\OSD\AppData\Local\Temp\cca5CFPq.s 			page 62


 1376 0010 0133     		adds	r3, r3, #1
 1377              	.LVL153:
 1378              	.L66:
 123:lvgl/src/widgets/lv_dropdown.c ****         if(options[i] == '\n') dropdown->option_cnt++;
 1379              		.loc 1 123 16 is_stmt 1 discriminator 1 view .LVU424
 123:lvgl/src/widgets/lv_dropdown.c ****         if(options[i] == '\n') dropdown->option_cnt++;
 1380              		.loc 1 123 23 is_stmt 0 discriminator 1 view .LVU425
 1381 0012 EA5C     		ldrb	r2, [r5, r3]	@ zero_extendqisi2
 123:lvgl/src/widgets/lv_dropdown.c ****         if(options[i] == '\n') dropdown->option_cnt++;
 1382              		.loc 1 123 5 discriminator 1 view .LVU426
 1383 0014 2AB1     		cbz	r2, .L75
 124:lvgl/src/widgets/lv_dropdown.c ****     }
 1384              		.loc 1 124 9 is_stmt 1 view .LVU427
 124:lvgl/src/widgets/lv_dropdown.c ****     }
 1385              		.loc 1 124 11 is_stmt 0 view .LVU428
 1386 0016 0A2A     		cmp	r2, #10
 1387 0018 FAD1     		bne	.L67
 124:lvgl/src/widgets/lv_dropdown.c ****     }
 1388              		.loc 1 124 32 is_stmt 1 discriminator 1 view .LVU429
 124:lvgl/src/widgets/lv_dropdown.c ****     }
 1389              		.loc 1 124 40 is_stmt 0 discriminator 1 view .LVU430
 1390 001a A28E     		ldrh	r2, [r4, #52]
 124:lvgl/src/widgets/lv_dropdown.c ****     }
 1391              		.loc 1 124 52 discriminator 1 view .LVU431
 1392 001c 0132     		adds	r2, r2, #1
 1393 001e A286     		strh	r2, [r4, #52]	@ movhi
 1394 0020 F6E7     		b	.L67
 1395              	.L75:
 126:lvgl/src/widgets/lv_dropdown.c ****     dropdown->sel_opt_id      = 0;
 1396              		.loc 1 126 5 is_stmt 1 view .LVU432
 126:lvgl/src/widgets/lv_dropdown.c ****     dropdown->sel_opt_id      = 0;
 1397              		.loc 1 126 13 is_stmt 0 view .LVU433
 1398 0022 A38E     		ldrh	r3, [r4, #52]
 1399              	.LVL154:
 126:lvgl/src/widgets/lv_dropdown.c ****     dropdown->sel_opt_id      = 0;
 1400              		.loc 1 126 25 view .LVU434
 1401 0024 0133     		adds	r3, r3, #1
 1402 0026 A386     		strh	r3, [r4, #52]	@ movhi
 127:lvgl/src/widgets/lv_dropdown.c ****     dropdown->sel_opt_id_orig = 0;
 1403              		.loc 1 127 5 is_stmt 1 view .LVU435
 127:lvgl/src/widgets/lv_dropdown.c ****     dropdown->sel_opt_id_orig = 0;
 1404              		.loc 1 127 31 is_stmt 0 view .LVU436
 1405 0028 0023     		movs	r3, #0
 1406 002a E386     		strh	r3, [r4, #54]	@ movhi
 128:lvgl/src/widgets/lv_dropdown.c **** 
 1407              		.loc 1 128 5 is_stmt 1 view .LVU437
 128:lvgl/src/widgets/lv_dropdown.c **** 
 1408              		.loc 1 128 31 is_stmt 0 view .LVU438
 1409 002c 2387     		strh	r3, [r4, #56]	@ movhi
 132:lvgl/src/widgets/lv_dropdown.c **** #else
 1410              		.loc 1 132 5 is_stmt 1 view .LVU439
 132:lvgl/src/widgets/lv_dropdown.c **** #else
 1411              		.loc 1 132 18 is_stmt 0 view .LVU440
 1412 002e 2846     		mov	r0, r5
 1413              	.LVL155:
 132:lvgl/src/widgets/lv_dropdown.c **** #else
 1414              		.loc 1 132 18 view .LVU441
ARM GAS  C:\Users\OSD\AppData\Local\Temp\cca5CFPq.s 			page 63


 1415 0030 FFF7FEFF 		bl	strlen
 1416              	.LVL156:
 132:lvgl/src/widgets/lv_dropdown.c **** #else
 1417              		.loc 1 132 12 view .LVU442
 1418 0034 461C     		adds	r6, r0, #1
 1419              	.LVL157:
 137:lvgl/src/widgets/lv_dropdown.c ****         lv_mem_free(dropdown->options);
 1420              		.loc 1 137 5 is_stmt 1 view .LVU443
 137:lvgl/src/widgets/lv_dropdown.c ****         lv_mem_free(dropdown->options);
 1421              		.loc 1 137 16 is_stmt 0 view .LVU444
 1422 0036 206B     		ldr	r0, [r4, #48]
 137:lvgl/src/widgets/lv_dropdown.c ****         lv_mem_free(dropdown->options);
 1423              		.loc 1 137 7 view .LVU445
 1424 0038 20B1     		cbz	r0, .L69
 137:lvgl/src/widgets/lv_dropdown.c ****         lv_mem_free(dropdown->options);
 1425              		.loc 1 137 58 discriminator 1 view .LVU446
 1426 003a 94F83C30 		ldrb	r3, [r4, #60]	@ zero_extendqisi2
 137:lvgl/src/widgets/lv_dropdown.c ****         lv_mem_free(dropdown->options);
 1427              		.loc 1 137 34 discriminator 1 view .LVU447
 1428 003e 13F0100F 		tst	r3, #16
 1429 0042 15D0     		beq	.L76
 1430              	.L69:
 142:lvgl/src/widgets/lv_dropdown.c **** 
 1431              		.loc 1 142 5 is_stmt 1 view .LVU448
 142:lvgl/src/widgets/lv_dropdown.c **** 
 1432              		.loc 1 142 25 is_stmt 0 view .LVU449
 1433 0044 3046     		mov	r0, r6
 1434 0046 FFF7FEFF 		bl	lv_mem_alloc
 1435              	.LVL158:
 142:lvgl/src/widgets/lv_dropdown.c **** 
 1436              		.loc 1 142 23 view .LVU450
 1437 004a 2063     		str	r0, [r4, #48]
 144:lvgl/src/widgets/lv_dropdown.c ****     if(dropdown->options == NULL) return;
 1438              		.loc 1 144 5 is_stmt 1 view .LVU451
 144:lvgl/src/widgets/lv_dropdown.c ****     if(dropdown->options == NULL) return;
 1439              		.loc 1 144 5 view .LVU452
 1440 004c A8B1     		cbz	r0, .L71
 144:lvgl/src/widgets/lv_dropdown.c ****     if(dropdown->options == NULL) return;
 1441              		.loc 1 144 5 view .LVU453
 144:lvgl/src/widgets/lv_dropdown.c ****     if(dropdown->options == NULL) return;
 1442              		.loc 1 144 40 view .LVU454
 145:lvgl/src/widgets/lv_dropdown.c **** 
 1443              		.loc 1 145 5 view .LVU455
 148:lvgl/src/widgets/lv_dropdown.c **** #else
 1444              		.loc 1 148 5 view .LVU456
 1445 004e 2946     		mov	r1, r5
 1446 0050 FFF7FEFF 		bl	strcpy
 1447              	.LVL159:
 154:lvgl/src/widgets/lv_dropdown.c **** 
 1448              		.loc 1 154 5 view .LVU457
 154:lvgl/src/widgets/lv_dropdown.c **** 
 1449              		.loc 1 154 26 is_stmt 0 view .LVU458
 1450 0054 94F83C30 		ldrb	r3, [r4, #60]	@ zero_extendqisi2
 1451 0058 6FF30413 		bfc	r3, #4, #1
 1452 005c 84F83C30 		strb	r3, [r4, #60]
 156:lvgl/src/widgets/lv_dropdown.c ****     if(dropdown->list) lv_obj_invalidate(dropdown->list);
 1453              		.loc 1 156 5 is_stmt 1 view .LVU459
ARM GAS  C:\Users\OSD\AppData\Local\Temp\cca5CFPq.s 			page 64


 1454 0060 2046     		mov	r0, r4
 1455 0062 FFF7FEFF 		bl	lv_obj_invalidate
 1456              	.LVL160:
 157:lvgl/src/widgets/lv_dropdown.c **** }
 1457              		.loc 1 157 5 view .LVU460
 157:lvgl/src/widgets/lv_dropdown.c **** }
 1458              		.loc 1 157 16 is_stmt 0 view .LVU461
 1459 0066 606A     		ldr	r0, [r4, #36]
 157:lvgl/src/widgets/lv_dropdown.c **** }
 1460              		.loc 1 157 7 view .LVU462
 1461 0068 08B1     		cbz	r0, .L63
 157:lvgl/src/widgets/lv_dropdown.c **** }
 1462              		.loc 1 157 24 is_stmt 1 discriminator 1 view .LVU463
 1463 006a FFF7FEFF 		bl	lv_obj_invalidate
 1464              	.LVL161:
 1465              	.L63:
 158:lvgl/src/widgets/lv_dropdown.c **** 
 1466              		.loc 1 158 1 is_stmt 0 view .LVU464
 1467 006e 70BD     		pop	{r4, r5, r6, pc}
 1468              	.LVL162:
 1469              	.L76:
 138:lvgl/src/widgets/lv_dropdown.c ****         dropdown->options = NULL;
 1470              		.loc 1 138 9 is_stmt 1 view .LVU465
 1471 0070 FFF7FEFF 		bl	lv_mem_free
 1472              	.LVL163:
 139:lvgl/src/widgets/lv_dropdown.c ****     }
 1473              		.loc 1 139 9 view .LVU466
 139:lvgl/src/widgets/lv_dropdown.c ****     }
 1474              		.loc 1 139 27 is_stmt 0 view .LVU467
 1475 0074 0023     		movs	r3, #0
 1476 0076 2363     		str	r3, [r4, #48]
 1477 0078 E4E7     		b	.L69
 1478              	.L71:
 144:lvgl/src/widgets/lv_dropdown.c ****     if(dropdown->options == NULL) return;
 1479              		.loc 1 144 5 is_stmt 1 discriminator 2 view .LVU468
 144:lvgl/src/widgets/lv_dropdown.c ****     if(dropdown->options == NULL) return;
 1480              		.loc 1 144 5 discriminator 2 view .LVU469
 144:lvgl/src/widgets/lv_dropdown.c ****     if(dropdown->options == NULL) return;
 1481              		.loc 1 144 5 discriminator 2 view .LVU470
 144:lvgl/src/widgets/lv_dropdown.c ****     if(dropdown->options == NULL) return;
 1482              		.loc 1 144 5 discriminator 2 view .LVU471
 144:lvgl/src/widgets/lv_dropdown.c ****     if(dropdown->options == NULL) return;
 1483              		.loc 1 144 5 discriminator 2 view .LVU472
 144:lvgl/src/widgets/lv_dropdown.c ****     if(dropdown->options == NULL) return;
 1484              		.loc 1 144 5 discriminator 2 view .LVU473
 1485 007a FEE7     		b	.L71
 1486              		.cfi_endproc
 1487              	.LFE169:
 1489              		.section	.text.lv_dropdown_set_options_static,"ax",%progbits
 1490              		.align	1
 1491              		.global	lv_dropdown_set_options_static
 1492              		.syntax unified
 1493              		.thumb
 1494              		.thumb_func
 1496              	lv_dropdown_set_options_static:
 1497              	.LVL164:
 1498              	.LFB170:
ARM GAS  C:\Users\OSD\AppData\Local\Temp\cca5CFPq.s 			page 65


 161:lvgl/src/widgets/lv_dropdown.c ****     LV_ASSERT_OBJ(obj, MY_CLASS);
 1499              		.loc 1 161 1 view -0
 1500              		.cfi_startproc
 1501              		@ args = 0, pretend = 0, frame = 0
 1502              		@ frame_needed = 0, uses_anonymous_args = 0
 162:lvgl/src/widgets/lv_dropdown.c ****     LV_ASSERT_NULL(options);
 1503              		.loc 1 162 5 view .LVU475
 162:lvgl/src/widgets/lv_dropdown.c ****     LV_ASSERT_NULL(options);
 1504              		.loc 1 162 5 view .LVU476
 162:lvgl/src/widgets/lv_dropdown.c ****     LV_ASSERT_NULL(options);
 1505              		.loc 1 162 5 view .LVU477
 163:lvgl/src/widgets/lv_dropdown.c **** 
 1506              		.loc 1 163 5 view .LVU478
 163:lvgl/src/widgets/lv_dropdown.c **** 
 1507              		.loc 1 163 5 view .LVU479
 1508 0000 29B1     		cbz	r1, .L79
 161:lvgl/src/widgets/lv_dropdown.c ****     LV_ASSERT_OBJ(obj, MY_CLASS);
 1509              		.loc 1 161 1 is_stmt 0 discriminator 2 view .LVU480
 1510 0002 38B5     		push	{r3, r4, r5, lr}
 1511              		.cfi_def_cfa_offset 16
 1512              		.cfi_offset 3, -16
 1513              		.cfi_offset 4, -12
 1514              		.cfi_offset 5, -8
 1515              		.cfi_offset 14, -4
 1516 0004 0446     		mov	r4, r0
 1517 0006 0D46     		mov	r5, r1
 163:lvgl/src/widgets/lv_dropdown.c **** 
 1518              		.loc 1 163 5 is_stmt 1 discriminator 2 view .LVU481
 163:lvgl/src/widgets/lv_dropdown.c **** 
 1519              		.loc 1 163 28 discriminator 2 view .LVU482
 165:lvgl/src/widgets/lv_dropdown.c **** 
 1520              		.loc 1 165 5 discriminator 2 view .LVU483
 1521              	.LVL165:
 168:lvgl/src/widgets/lv_dropdown.c ****     uint32_t i;
 1522              		.loc 1 168 5 discriminator 2 view .LVU484
 168:lvgl/src/widgets/lv_dropdown.c ****     uint32_t i;
 1523              		.loc 1 168 26 is_stmt 0 discriminator 2 view .LVU485
 1524 0008 0023     		movs	r3, #0
 1525 000a 8386     		strh	r3, [r0, #52]	@ movhi
 169:lvgl/src/widgets/lv_dropdown.c ****     for(i = 0; options[i] != '\0'; i++) {
 1526              		.loc 1 169 5 is_stmt 1 discriminator 2 view .LVU486
 170:lvgl/src/widgets/lv_dropdown.c ****         if(options[i] == '\n') dropdown->option_cnt++;
 1527              		.loc 1 170 5 discriminator 2 view .LVU487
 1528              	.LVL166:
 170:lvgl/src/widgets/lv_dropdown.c ****         if(options[i] == '\n') dropdown->option_cnt++;
 1529              		.loc 1 170 5 is_stmt 0 discriminator 2 view .LVU488
 1530 000c 01E0     		b	.L80
 1531              	.LVL167:
 1532              	.L79:
 1533              		.cfi_def_cfa_offset 0
 1534              		.cfi_restore 3
 1535              		.cfi_restore 4
 1536              		.cfi_restore 5
 1537              		.cfi_restore 14
 163:lvgl/src/widgets/lv_dropdown.c **** 
 1538              		.loc 1 163 5 is_stmt 1 discriminator 1 view .LVU489
 163:lvgl/src/widgets/lv_dropdown.c **** 
ARM GAS  C:\Users\OSD\AppData\Local\Temp\cca5CFPq.s 			page 66


 1539              		.loc 1 163 5 discriminator 1 view .LVU490
 163:lvgl/src/widgets/lv_dropdown.c **** 
 1540              		.loc 1 163 5 discriminator 1 view .LVU491
 163:lvgl/src/widgets/lv_dropdown.c **** 
 1541              		.loc 1 163 5 discriminator 1 view .LVU492
 163:lvgl/src/widgets/lv_dropdown.c **** 
 1542              		.loc 1 163 5 discriminator 1 view .LVU493
 163:lvgl/src/widgets/lv_dropdown.c **** 
 1543              		.loc 1 163 5 discriminator 1 view .LVU494
 1544 000e FEE7     		b	.L79
 1545              	.LVL168:
 1546              	.L81:
 1547              		.cfi_def_cfa_offset 16
 1548              		.cfi_offset 3, -16
 1549              		.cfi_offset 4, -12
 1550              		.cfi_offset 5, -8
 1551              		.cfi_offset 14, -4
 170:lvgl/src/widgets/lv_dropdown.c ****         if(options[i] == '\n') dropdown->option_cnt++;
 1552              		.loc 1 170 36 discriminator 2 view .LVU495
 170:lvgl/src/widgets/lv_dropdown.c ****         if(options[i] == '\n') dropdown->option_cnt++;
 1553              		.loc 1 170 37 is_stmt 0 discriminator 2 view .LVU496
 1554 0010 0133     		adds	r3, r3, #1
 1555              	.LVL169:
 1556              	.L80:
 170:lvgl/src/widgets/lv_dropdown.c ****         if(options[i] == '\n') dropdown->option_cnt++;
 1557              		.loc 1 170 16 is_stmt 1 discriminator 1 view .LVU497
 170:lvgl/src/widgets/lv_dropdown.c ****         if(options[i] == '\n') dropdown->option_cnt++;
 1558              		.loc 1 170 23 is_stmt 0 discriminator 1 view .LVU498
 1559 0012 EA5C     		ldrb	r2, [r5, r3]	@ zero_extendqisi2
 170:lvgl/src/widgets/lv_dropdown.c ****         if(options[i] == '\n') dropdown->option_cnt++;
 1560              		.loc 1 170 5 discriminator 1 view .LVU499
 1561 0014 2AB1     		cbz	r2, .L87
 171:lvgl/src/widgets/lv_dropdown.c ****     }
 1562              		.loc 1 171 9 is_stmt 1 view .LVU500
 171:lvgl/src/widgets/lv_dropdown.c ****     }
 1563              		.loc 1 171 11 is_stmt 0 view .LVU501
 1564 0016 0A2A     		cmp	r2, #10
 1565 0018 FAD1     		bne	.L81
 171:lvgl/src/widgets/lv_dropdown.c ****     }
 1566              		.loc 1 171 32 is_stmt 1 discriminator 1 view .LVU502
 171:lvgl/src/widgets/lv_dropdown.c ****     }
 1567              		.loc 1 171 40 is_stmt 0 discriminator 1 view .LVU503
 1568 001a A28E     		ldrh	r2, [r4, #52]
 171:lvgl/src/widgets/lv_dropdown.c ****     }
 1569              		.loc 1 171 52 discriminator 1 view .LVU504
 1570 001c 0132     		adds	r2, r2, #1
 1571 001e A286     		strh	r2, [r4, #52]	@ movhi
 1572 0020 F6E7     		b	.L81
 1573              	.L87:
 173:lvgl/src/widgets/lv_dropdown.c ****     dropdown->sel_opt_id      = 0;
 1574              		.loc 1 173 5 is_stmt 1 view .LVU505
 173:lvgl/src/widgets/lv_dropdown.c ****     dropdown->sel_opt_id      = 0;
 1575              		.loc 1 173 13 is_stmt 0 view .LVU506
 1576 0022 A38E     		ldrh	r3, [r4, #52]
 1577              	.LVL170:
 173:lvgl/src/widgets/lv_dropdown.c ****     dropdown->sel_opt_id      = 0;
 1578              		.loc 1 173 25 view .LVU507
ARM GAS  C:\Users\OSD\AppData\Local\Temp\cca5CFPq.s 			page 67


 1579 0024 0133     		adds	r3, r3, #1
 1580 0026 A386     		strh	r3, [r4, #52]	@ movhi
 174:lvgl/src/widgets/lv_dropdown.c ****     dropdown->sel_opt_id_orig = 0;
 1581              		.loc 1 174 5 is_stmt 1 view .LVU508
 174:lvgl/src/widgets/lv_dropdown.c ****     dropdown->sel_opt_id_orig = 0;
 1582              		.loc 1 174 31 is_stmt 0 view .LVU509
 1583 0028 0023     		movs	r3, #0
 1584 002a E386     		strh	r3, [r4, #54]	@ movhi
 175:lvgl/src/widgets/lv_dropdown.c **** 
 1585              		.loc 1 175 5 is_stmt 1 view .LVU510
 175:lvgl/src/widgets/lv_dropdown.c **** 
 1586              		.loc 1 175 31 is_stmt 0 view .LVU511
 1587 002c 2387     		strh	r3, [r4, #56]	@ movhi
 177:lvgl/src/widgets/lv_dropdown.c ****         lv_mem_free(dropdown->options);
 1588              		.loc 1 177 5 is_stmt 1 view .LVU512
 177:lvgl/src/widgets/lv_dropdown.c ****         lv_mem_free(dropdown->options);
 1589              		.loc 1 177 29 is_stmt 0 view .LVU513
 1590 002e 94F83C30 		ldrb	r3, [r4, #60]	@ zero_extendqisi2
 177:lvgl/src/widgets/lv_dropdown.c ****         lv_mem_free(dropdown->options);
 1591              		.loc 1 177 7 view .LVU514
 1592 0032 13F0100F 		tst	r3, #16
 1593 0036 05D1     		bne	.L83
 177:lvgl/src/widgets/lv_dropdown.c ****         lv_mem_free(dropdown->options);
 1594              		.loc 1 177 45 discriminator 1 view .LVU515
 1595 0038 206B     		ldr	r0, [r4, #48]
 1596              	.LVL171:
 177:lvgl/src/widgets/lv_dropdown.c ****         lv_mem_free(dropdown->options);
 1597              		.loc 1 177 34 discriminator 1 view .LVU516
 1598 003a 18B1     		cbz	r0, .L83
 178:lvgl/src/widgets/lv_dropdown.c ****         dropdown->options = NULL;
 1599              		.loc 1 178 9 is_stmt 1 view .LVU517
 1600 003c FFF7FEFF 		bl	lv_mem_free
 1601              	.LVL172:
 179:lvgl/src/widgets/lv_dropdown.c ****     }
 1602              		.loc 1 179 9 view .LVU518
 179:lvgl/src/widgets/lv_dropdown.c ****     }
 1603              		.loc 1 179 27 is_stmt 0 view .LVU519
 1604 0040 0023     		movs	r3, #0
 1605 0042 2363     		str	r3, [r4, #48]
 1606              	.L83:
 182:lvgl/src/widgets/lv_dropdown.c ****     dropdown->options = (char *)options;
 1607              		.loc 1 182 5 is_stmt 1 view .LVU520
 182:lvgl/src/widgets/lv_dropdown.c ****     dropdown->options = (char *)options;
 1608              		.loc 1 182 26 is_stmt 0 view .LVU521
 1609 0044 94F83C30 		ldrb	r3, [r4, #60]	@ zero_extendqisi2
 1610 0048 43F01003 		orr	r3, r3, #16
 1611 004c 84F83C30 		strb	r3, [r4, #60]
 183:lvgl/src/widgets/lv_dropdown.c **** 
 1612              		.loc 1 183 5 is_stmt 1 view .LVU522
 183:lvgl/src/widgets/lv_dropdown.c **** 
 1613              		.loc 1 183 23 is_stmt 0 view .LVU523
 1614 0050 2563     		str	r5, [r4, #48]
 185:lvgl/src/widgets/lv_dropdown.c ****     if(dropdown->list) lv_obj_invalidate(dropdown->list);
 1615              		.loc 1 185 5 is_stmt 1 view .LVU524
 1616 0052 2046     		mov	r0, r4
 1617 0054 FFF7FEFF 		bl	lv_obj_invalidate
 1618              	.LVL173:
ARM GAS  C:\Users\OSD\AppData\Local\Temp\cca5CFPq.s 			page 68


 186:lvgl/src/widgets/lv_dropdown.c **** }
 1619              		.loc 1 186 5 view .LVU525
 186:lvgl/src/widgets/lv_dropdown.c **** }
 1620              		.loc 1 186 16 is_stmt 0 view .LVU526
 1621 0058 606A     		ldr	r0, [r4, #36]
 186:lvgl/src/widgets/lv_dropdown.c **** }
 1622              		.loc 1 186 7 view .LVU527
 1623 005a 08B1     		cbz	r0, .L77
 186:lvgl/src/widgets/lv_dropdown.c **** }
 1624              		.loc 1 186 24 is_stmt 1 discriminator 1 view .LVU528
 1625 005c FFF7FEFF 		bl	lv_obj_invalidate
 1626              	.LVL174:
 1627              	.L77:
 187:lvgl/src/widgets/lv_dropdown.c **** 
 1628              		.loc 1 187 1 is_stmt 0 view .LVU529
 1629 0060 38BD     		pop	{r3, r4, r5, pc}
 187:lvgl/src/widgets/lv_dropdown.c **** 
 1630              		.loc 1 187 1 view .LVU530
 1631              		.cfi_endproc
 1632              	.LFE170:
 1634              		.section	.rodata.lv_dropdown_constructor.str1.4,"aMS",%progbits,1
 1635              		.align	2
 1636              	.LC0:
 1637 0000 EF81B800 		.ascii	"\357\201\270\000"
 1638              		.align	2
 1639              	.LC1:
 1640 0004 4F707469 		.ascii	"Option 1\012Option 2\012Option 3\000"
 1640      6F6E2031 
 1640      0A4F7074 
 1640      696F6E20 
 1640      320A4F70 
 1641              		.section	.text.lv_dropdown_constructor,"ax",%progbits
 1642              		.align	1
 1643              		.syntax unified
 1644              		.thumb
 1645              		.thumb_func
 1647              	lv_dropdown_constructor:
 1648              	.LVL175:
 1649              	.LFB191:
 585:lvgl/src/widgets/lv_dropdown.c ****     LV_UNUSED(class_p);
 1650              		.loc 1 585 1 is_stmt 1 view -0
 1651              		.cfi_startproc
 1652              		@ args = 0, pretend = 0, frame = 0
 1653              		@ frame_needed = 0, uses_anonymous_args = 0
 585:lvgl/src/widgets/lv_dropdown.c ****     LV_UNUSED(class_p);
 1654              		.loc 1 585 1 is_stmt 0 view .LVU532
 1655 0000 10B5     		push	{r4, lr}
 1656              		.cfi_def_cfa_offset 8
 1657              		.cfi_offset 4, -8
 1658              		.cfi_offset 14, -4
 1659 0002 0C46     		mov	r4, r1
 586:lvgl/src/widgets/lv_dropdown.c ****     LV_TRACE_OBJ_CREATE("begin");
 1660              		.loc 1 586 5 is_stmt 1 view .LVU533
 587:lvgl/src/widgets/lv_dropdown.c **** 
 1661              		.loc 1 587 33 view .LVU534
 589:lvgl/src/widgets/lv_dropdown.c **** 
 1662              		.loc 1 589 5 view .LVU535
ARM GAS  C:\Users\OSD\AppData\Local\Temp\cca5CFPq.s 			page 69


 1663              	.LVL176:
 592:lvgl/src/widgets/lv_dropdown.c ****     dropdown->options     = NULL;
 1664              		.loc 1 592 5 view .LVU536
 592:lvgl/src/widgets/lv_dropdown.c ****     dropdown->options     = NULL;
 1665              		.loc 1 592 29 is_stmt 0 view .LVU537
 1666 0004 0023     		movs	r3, #0
 1667 0006 4B62     		str	r3, [r1, #36]
 593:lvgl/src/widgets/lv_dropdown.c ****     dropdown->symbol         = LV_SYMBOL_DOWN;
 1668              		.loc 1 593 5 is_stmt 1 view .LVU538
 593:lvgl/src/widgets/lv_dropdown.c ****     dropdown->symbol         = LV_SYMBOL_DOWN;
 1669              		.loc 1 593 27 is_stmt 0 view .LVU539
 1670 0008 0B63     		str	r3, [r1, #48]
 594:lvgl/src/widgets/lv_dropdown.c ****     dropdown->text         = NULL;
 1671              		.loc 1 594 5 is_stmt 1 view .LVU540
 594:lvgl/src/widgets/lv_dropdown.c ****     dropdown->text         = NULL;
 1672              		.loc 1 594 30 is_stmt 0 view .LVU541
 1673 000a 164A     		ldr	r2, .L90
 1674 000c CA62     		str	r2, [r1, #44]
 595:lvgl/src/widgets/lv_dropdown.c ****     dropdown->static_txt = 1;
 1675              		.loc 1 595 5 is_stmt 1 view .LVU542
 595:lvgl/src/widgets/lv_dropdown.c ****     dropdown->static_txt = 1;
 1676              		.loc 1 595 28 is_stmt 0 view .LVU543
 1677 000e 8B62     		str	r3, [r1, #40]
 596:lvgl/src/widgets/lv_dropdown.c ****     dropdown->selected_highlight = 1;
 1678              		.loc 1 596 5 is_stmt 1 view .LVU544
 596:lvgl/src/widgets/lv_dropdown.c ****     dropdown->selected_highlight = 1;
 1679              		.loc 1 596 26 is_stmt 0 view .LVU545
 1680 0010 91F83C20 		ldrb	r2, [r1, #60]	@ zero_extendqisi2
 1681 0014 42F01002 		orr	r2, r2, #16
 1682 0018 81F83C20 		strb	r2, [r1, #60]
 597:lvgl/src/widgets/lv_dropdown.c ****     dropdown->sel_opt_id      = 0;
 1683              		.loc 1 597 5 is_stmt 1 view .LVU546
 597:lvgl/src/widgets/lv_dropdown.c ****     dropdown->sel_opt_id      = 0;
 1684              		.loc 1 597 34 is_stmt 0 view .LVU547
 1685 001c D2B2     		uxtb	r2, r2
 1686 001e 42F02002 		orr	r2, r2, #32
 1687 0022 81F83C20 		strb	r2, [r1, #60]
 598:lvgl/src/widgets/lv_dropdown.c ****     dropdown->sel_opt_id_orig = 0;
 1688              		.loc 1 598 5 is_stmt 1 view .LVU548
 598:lvgl/src/widgets/lv_dropdown.c ****     dropdown->sel_opt_id_orig = 0;
 1689              		.loc 1 598 31 is_stmt 0 view .LVU549
 1690 0026 CB86     		strh	r3, [r1, #54]	@ movhi
 599:lvgl/src/widgets/lv_dropdown.c ****     dropdown->pr_opt_id = LV_DROPDOWN_PR_NONE;
 1691              		.loc 1 599 5 is_stmt 1 view .LVU550
 599:lvgl/src/widgets/lv_dropdown.c ****     dropdown->pr_opt_id = LV_DROPDOWN_PR_NONE;
 1692              		.loc 1 599 31 is_stmt 0 view .LVU551
 1693 0028 0B87     		strh	r3, [r1, #56]	@ movhi
 600:lvgl/src/widgets/lv_dropdown.c ****     dropdown->option_cnt      = 0;
 1694              		.loc 1 600 5 is_stmt 1 view .LVU552
 600:lvgl/src/widgets/lv_dropdown.c ****     dropdown->option_cnt      = 0;
 1695              		.loc 1 600 25 is_stmt 0 view .LVU553
 1696 002a 4FF6FF72 		movw	r2, #65535
 1697 002e 4A87     		strh	r2, [r1, #58]	@ movhi
 601:lvgl/src/widgets/lv_dropdown.c ****     dropdown->dir = LV_DIR_BOTTOM;
 1698              		.loc 1 601 5 is_stmt 1 view .LVU554
 601:lvgl/src/widgets/lv_dropdown.c ****     dropdown->dir = LV_DIR_BOTTOM;
 1699              		.loc 1 601 31 is_stmt 0 view .LVU555
ARM GAS  C:\Users\OSD\AppData\Local\Temp\cca5CFPq.s 			page 70


 1700 0030 8B86     		strh	r3, [r1, #52]	@ movhi
 602:lvgl/src/widgets/lv_dropdown.c **** 
 1701              		.loc 1 602 5 is_stmt 1 view .LVU556
 602:lvgl/src/widgets/lv_dropdown.c **** 
 1702              		.loc 1 602 19 is_stmt 0 view .LVU557
 1703 0032 91F83C30 		ldrb	r3, [r1, #60]	@ zero_extendqisi2
 1704 0036 0822     		movs	r2, #8
 1705 0038 62F30303 		bfi	r3, r2, #0, #4
 1706 003c 81F83C30 		strb	r3, [r1, #60]
 604:lvgl/src/widgets/lv_dropdown.c ****     lv_dropdown_set_options_static(obj, "Option 1\nOption 2\nOption 3");
