ARM GAS  C:\Users\OSD\AppData\Local\Temp\ccdpxIfP.s 			page 1


   1              		.cpu cortex-m7
   2              		.arch armv7e-m
   3              		.fpu fpv5-d16
   4              		.eabi_attribute 28, 1
   5              		.eabi_attribute 20, 1
   6              		.eabi_attribute 21, 1
   7              		.eabi_attribute 23, 3
   8              		.eabi_attribute 24, 1
   9              		.eabi_attribute 25, 1
  10              		.eabi_attribute 26, 1
  11              		.eabi_attribute 30, 1
  12              		.eabi_attribute 34, 1
  13              		.eabi_attribute 18, 4
  14              		.file	"lv_demo_widgets.c"
  15              		.section	.rodata.str1.4,"aMS",%progbits,1
  16              		.align	2
  17              	.LC0:
  18 0000 4900     		.ascii	"I\000"
  19 0002 0000     		.align	2
  20              	.LC1:
  21 0004 494900   		.ascii	"II\000"
  22 0007 00       		.align	2
  23              	.LC2:
  24 0008 49494900 		.ascii	"III\000"
  25              		.align	2
  26              	.LC3:
  27 000c 495600   		.ascii	"IV\000"
  28 000f 00       		.align	2
  29              	.LC4:
  30 0010 5600     		.ascii	"V\000"
  31 0012 0000     		.align	2
  32              	.LC5:
  33 0014 564900   		.ascii	"VI\000"
  34 0017 00       		.align	2
  35              	.LC6:
  36 0018 56494900 		.ascii	"VII\000"
  37              		.align	2
  38              	.LC7:
  39 001c 56494949 		.ascii	"VIII\000"
  39      00
  40 0021 000000   		.align	2
  41              	.LC8:
  42 0024 495800   		.ascii	"IX\000"
  43 0027 00       		.align	2
  44              	.LC9:
  45 0028 5800     		.ascii	"X\000"
  46 002a 0000     		.align	2
  47              	.LC10:
  48 002c 584900   		.ascii	"XI\000"
  49 002f 00       		.align	2
  50              	.LC11:
  51 0030 58494900 		.ascii	"XII\000"
  52              		.align	2
  53              	.LC13:
  54 0034 4A616E00 		.ascii	"Jan\000"
  55              		.align	2
  56              	.LC14:
ARM GAS  C:\Users\OSD\AppData\Local\Temp\ccdpxIfP.s 			page 2


  57 0038 46656272 		.ascii	"Febr\000"
  57      00
  58 003d 000000   		.align	2
  59              	.LC15:
  60 0040 4D617263 		.ascii	"March\000"
  60      6800
  61 0046 0000     		.align	2
  62              	.LC16:
  63 0048 41707200 		.ascii	"Apr\000"
  64              		.align	2
  65              	.LC17:
  66 004c 4D617900 		.ascii	"May\000"
  67              		.align	2
  68              	.LC18:
  69 0050 4A756E00 		.ascii	"Jun\000"
  70              		.align	2
  71              	.LC19:
  72 0054 4A756C79 		.ascii	"July\000"
  72      00
  73 0059 000000   		.align	2
  74              	.LC20:
  75 005c 41756700 		.ascii	"Aug\000"
  76              		.align	2
  77              	.LC21:
  78 0060 53657074 		.ascii	"Sept\000"
  78      00
  79 0065 000000   		.align	2
  80              	.LC22:
  81 0068 4F637400 		.ascii	"Oct\000"
  82              		.align	2
  83              	.LC23:
  84 006c 4E6F7600 		.ascii	"Nov\000"
  85              		.align	2
  86              	.LC24:
  87 0070 44656300 		.ascii	"Dec\000"
  88              		.text
  89              	.Ltext0:
  90              		.cfi_sections	.debug_frame
  91              		.section	.rodata.profile_create.str1.4,"aMS",%progbits,1
  92              		.align	2
  93              	.LC27:
  94 0000 456C656E 		.ascii	"Elena Smith\000"
  94      6120536D 
  94      69746800 
  95              		.align	2
  96              	.LC28:
  97 000c 54686973 		.ascii	"This is a short description of me. Take a look at m"
  97      20697320 
  97      61207368 
  97      6F727420 
  97      64657363 
  98 003f 79207072 		.ascii	"y profile!\000"
  98      6F66696C 
  98      652100
  99 004a 0000     		.align	2
 100              	.LC29:
 101 004c EF83A000 		.ascii	"\357\203\240\000"
ARM GAS  C:\Users\OSD\AppData\Local\Temp\ccdpxIfP.s 			page 3


 102              		.align	2
 103              	.LC30:
 104 0050 656C656E 		.ascii	"elena@smith.com\000"
 104      6140736D 
 104      6974682E 
 104      636F6D00 
 105              		.align	2
 106              	.LC31:
 107 0060 EF829500 		.ascii	"\357\202\225\000"
 108              		.align	2
 109              	.LC32:
 110 0064 2B373920 		.ascii	"+79 246 123 4567\000"
 110      32343620 
 110      31323320 
 110      34353637 
 110      00
 111 0075 000000   		.align	2
 112              	.LC33:
 113 0078 4C6F6720 		.ascii	"Log out\000"
 113      6F757400 
 114              		.align	2
 115              	.LC34:
 116 0080 496E7669 		.ascii	"Invite\000"
 116      746500
 117 0087 00       		.align	2
 118              	.LC35:
 119 0088 596F7572 		.ascii	"Your profile\000"
 119      2070726F 
 119      66696C65 
 119      00
 120 0095 000000   		.align	2
 121              	.LC36:
 122 0098 55736572 		.ascii	"User name\000"
 122      206E616D 
 122      6500
 123 00a2 0000     		.align	2
 124              	.LC37:
 125 00a4 596F7572 		.ascii	"Your name\000"
 125      206E616D 
 125      6500
 126 00ae 0000     		.align	2
 127              	.LC38:
 128 00b0 50617373 		.ascii	"Password\000"
 128      776F7264 
 128      00
 129 00b9 000000   		.align	2
 130              	.LC39:
 131 00bc 4D696E2E 		.ascii	"Min. 8 chars.\000"
 131      20382063 
 131      68617273 
 131      2E00
 132 00ca 0000     		.align	2
 133              	.LC40:
 134 00cc 47656E64 		.ascii	"Gender\000"
 134      657200
 135 00d3 00       		.align	2
 136              	.LC41:
ARM GAS  C:\Users\OSD\AppData\Local\Temp\ccdpxIfP.s 			page 4


 137 00d4 4D616C65 		.ascii	"Male\012Female\012Other\000"
 137      0A46656D 
 137      616C650A 
 137      4F746865 
 137      7200
 138 00e6 0000     		.align	2
 139              	.LC42:
 140 00e8 42697274 		.ascii	"Birthday\000"
 140      68646179 
 140      00
 141 00f1 000000   		.align	2
 142              	.LC43:
 143 00f4 596F7572 		.ascii	"Your skills\000"
 143      20736B69 
 143      6C6C7300 
 144              		.align	2
 145              	.LC44:
 146 0100 45787065 		.ascii	"Experience\000"
 146      7269656E 
 146      636500
 147 010b 00       		.align	2
 148              	.LC45:
 149 010c 5465616D 		.ascii	"Team player\000"
 149      20706C61 
 149      79657200 
 150              		.align	2
 151              	.LC46:
 152 0118 48617264 		.ascii	"Hard-working\000"
 152      2D776F72 
 152      6B696E67 
 152      00
 153              		.section	.text.profile_create,"ax",%progbits
 154              		.align	1
 155              		.syntax unified
 156              		.thumb
 157              		.thumb_func
 159              	profile_create:
 160              	.LVL0:
 161              	.LFB206:
 162              		.file 1 "lvgl/demos/widgets/lv_demo_widgets.c"
   1:lvgl/demos/widgets/lv_demo_widgets.c **** /**
   2:lvgl/demos/widgets/lv_demo_widgets.c ****  * @file lv_demo_widgets.c
   3:lvgl/demos/widgets/lv_demo_widgets.c ****  *
   4:lvgl/demos/widgets/lv_demo_widgets.c ****  */
   5:lvgl/demos/widgets/lv_demo_widgets.c **** 
   6:lvgl/demos/widgets/lv_demo_widgets.c **** /*********************
   7:lvgl/demos/widgets/lv_demo_widgets.c ****  *      INCLUDES
   8:lvgl/demos/widgets/lv_demo_widgets.c ****  *********************/
   9:lvgl/demos/widgets/lv_demo_widgets.c **** #include "lv_demo_widgets.h"
  10:lvgl/demos/widgets/lv_demo_widgets.c **** 
  11:lvgl/demos/widgets/lv_demo_widgets.c **** #if LV_USE_DEMO_WIDGETS
  12:lvgl/demos/widgets/lv_demo_widgets.c **** 
  13:lvgl/demos/widgets/lv_demo_widgets.c **** #if LV_MEM_CUSTOM == 0 && LV_MEM_SIZE < (38ul * 1024ul)
  14:lvgl/demos/widgets/lv_demo_widgets.c ****     #error Insufficient memory for lv_demo_widgets. Please set LV_MEM_SIZE to at least 38KB (38ul *
  15:lvgl/demos/widgets/lv_demo_widgets.c **** #endif
  16:lvgl/demos/widgets/lv_demo_widgets.c **** 
  17:lvgl/demos/widgets/lv_demo_widgets.c **** /*********************
ARM GAS  C:\Users\OSD\AppData\Local\Temp\ccdpxIfP.s 			page 5


  18:lvgl/demos/widgets/lv_demo_widgets.c ****  *      DEFINES
  19:lvgl/demos/widgets/lv_demo_widgets.c ****  *********************/
  20:lvgl/demos/widgets/lv_demo_widgets.c **** 
  21:lvgl/demos/widgets/lv_demo_widgets.c **** /**********************
  22:lvgl/demos/widgets/lv_demo_widgets.c ****  *      TYPEDEFS
  23:lvgl/demos/widgets/lv_demo_widgets.c ****  **********************/
  24:lvgl/demos/widgets/lv_demo_widgets.c **** typedef enum {
  25:lvgl/demos/widgets/lv_demo_widgets.c ****     DISP_SMALL,
  26:lvgl/demos/widgets/lv_demo_widgets.c ****     DISP_MEDIUM,
  27:lvgl/demos/widgets/lv_demo_widgets.c ****     DISP_LARGE,
  28:lvgl/demos/widgets/lv_demo_widgets.c **** } disp_size_t;
  29:lvgl/demos/widgets/lv_demo_widgets.c **** 
  30:lvgl/demos/widgets/lv_demo_widgets.c **** /**********************
  31:lvgl/demos/widgets/lv_demo_widgets.c ****  *  STATIC PROTOTYPES
  32:lvgl/demos/widgets/lv_demo_widgets.c ****  **********************/
  33:lvgl/demos/widgets/lv_demo_widgets.c **** static void profile_create(lv_obj_t * parent);
  34:lvgl/demos/widgets/lv_demo_widgets.c **** static void analytics_create(lv_obj_t * parent);
  35:lvgl/demos/widgets/lv_demo_widgets.c **** static void shop_create(lv_obj_t * parent);
  36:lvgl/demos/widgets/lv_demo_widgets.c **** static void color_changer_create(lv_obj_t * parent);
  37:lvgl/demos/widgets/lv_demo_widgets.c **** 
  38:lvgl/demos/widgets/lv_demo_widgets.c **** static lv_obj_t * create_meter_box(lv_obj_t * parent, const char * title, const char * text1, const
  39:lvgl/demos/widgets/lv_demo_widgets.c ****                                    const char * text3);
  40:lvgl/demos/widgets/lv_demo_widgets.c **** static lv_obj_t * create_shop_item(lv_obj_t * parent, const void * img_src, const char * name, cons
  41:lvgl/demos/widgets/lv_demo_widgets.c ****                                    const char * price);
  42:lvgl/demos/widgets/lv_demo_widgets.c **** 
  43:lvgl/demos/widgets/lv_demo_widgets.c **** static void color_changer_event_cb(lv_event_t * e);
  44:lvgl/demos/widgets/lv_demo_widgets.c **** static void color_event_cb(lv_event_t * e);
  45:lvgl/demos/widgets/lv_demo_widgets.c **** static void ta_event_cb(lv_event_t * e);
  46:lvgl/demos/widgets/lv_demo_widgets.c **** static void birthday_event_cb(lv_event_t * e);
  47:lvgl/demos/widgets/lv_demo_widgets.c **** static void calendar_event_cb(lv_event_t * e);
  48:lvgl/demos/widgets/lv_demo_widgets.c **** static void slider_event_cb(lv_event_t * e);
  49:lvgl/demos/widgets/lv_demo_widgets.c **** static void chart_event_cb(lv_event_t * e);
  50:lvgl/demos/widgets/lv_demo_widgets.c **** static void shop_chart_event_cb(lv_event_t * e);
  51:lvgl/demos/widgets/lv_demo_widgets.c **** static void meter1_indic1_anim_cb(void * var, int32_t v);
  52:lvgl/demos/widgets/lv_demo_widgets.c **** static void meter1_indic2_anim_cb(void * var, int32_t v);
  53:lvgl/demos/widgets/lv_demo_widgets.c **** static void meter1_indic3_anim_cb(void * var, int32_t v);
  54:lvgl/demos/widgets/lv_demo_widgets.c **** static void meter2_timer_cb(lv_timer_t * timer);
  55:lvgl/demos/widgets/lv_demo_widgets.c **** static void meter3_anim_cb(void * var, int32_t v);
  56:lvgl/demos/widgets/lv_demo_widgets.c **** 
  57:lvgl/demos/widgets/lv_demo_widgets.c **** /**********************
  58:lvgl/demos/widgets/lv_demo_widgets.c ****  *  STATIC VARIABLES
  59:lvgl/demos/widgets/lv_demo_widgets.c ****  **********************/
  60:lvgl/demos/widgets/lv_demo_widgets.c **** static disp_size_t disp_size;
  61:lvgl/demos/widgets/lv_demo_widgets.c **** 
  62:lvgl/demos/widgets/lv_demo_widgets.c **** static lv_obj_t * tv;
  63:lvgl/demos/widgets/lv_demo_widgets.c **** static lv_obj_t * calendar;
  64:lvgl/demos/widgets/lv_demo_widgets.c **** static lv_style_t style_text_muted;
  65:lvgl/demos/widgets/lv_demo_widgets.c **** static lv_style_t style_title;
  66:lvgl/demos/widgets/lv_demo_widgets.c **** static lv_style_t style_icon;
  67:lvgl/demos/widgets/lv_demo_widgets.c **** static lv_style_t style_bullet;
  68:lvgl/demos/widgets/lv_demo_widgets.c **** 
  69:lvgl/demos/widgets/lv_demo_widgets.c **** static lv_obj_t * meter1;
  70:lvgl/demos/widgets/lv_demo_widgets.c **** static lv_obj_t * meter2;
  71:lvgl/demos/widgets/lv_demo_widgets.c **** static lv_obj_t * meter3;
  72:lvgl/demos/widgets/lv_demo_widgets.c **** 
  73:lvgl/demos/widgets/lv_demo_widgets.c **** static lv_obj_t * chart1;
  74:lvgl/demos/widgets/lv_demo_widgets.c **** static lv_obj_t * chart2;
ARM GAS  C:\Users\OSD\AppData\Local\Temp\ccdpxIfP.s 			page 6


  75:lvgl/demos/widgets/lv_demo_widgets.c **** static lv_obj_t * chart3;
  76:lvgl/demos/widgets/lv_demo_widgets.c **** 
  77:lvgl/demos/widgets/lv_demo_widgets.c **** static lv_chart_series_t * ser1;
  78:lvgl/demos/widgets/lv_demo_widgets.c **** static lv_chart_series_t * ser2;
  79:lvgl/demos/widgets/lv_demo_widgets.c **** static lv_chart_series_t * ser3;
  80:lvgl/demos/widgets/lv_demo_widgets.c **** static lv_chart_series_t * ser4;
  81:lvgl/demos/widgets/lv_demo_widgets.c **** 
  82:lvgl/demos/widgets/lv_demo_widgets.c **** static const lv_font_t * font_large;
  83:lvgl/demos/widgets/lv_demo_widgets.c **** static const lv_font_t * font_normal;
  84:lvgl/demos/widgets/lv_demo_widgets.c **** 
  85:lvgl/demos/widgets/lv_demo_widgets.c **** static uint32_t session_desktop = 1000;
  86:lvgl/demos/widgets/lv_demo_widgets.c **** static uint32_t session_tablet = 1000;
  87:lvgl/demos/widgets/lv_demo_widgets.c **** static uint32_t session_mobile = 1000;
  88:lvgl/demos/widgets/lv_demo_widgets.c **** 
  89:lvgl/demos/widgets/lv_demo_widgets.c **** static lv_timer_t * meter2_timer;
  90:lvgl/demos/widgets/lv_demo_widgets.c **** 
  91:lvgl/demos/widgets/lv_demo_widgets.c **** /**********************
  92:lvgl/demos/widgets/lv_demo_widgets.c ****  *      MACROS
  93:lvgl/demos/widgets/lv_demo_widgets.c ****  **********************/
  94:lvgl/demos/widgets/lv_demo_widgets.c **** 
  95:lvgl/demos/widgets/lv_demo_widgets.c **** /**********************
  96:lvgl/demos/widgets/lv_demo_widgets.c ****  *   GLOBAL FUNCTIONS
  97:lvgl/demos/widgets/lv_demo_widgets.c ****  **********************/
  98:lvgl/demos/widgets/lv_demo_widgets.c **** 
  99:lvgl/demos/widgets/lv_demo_widgets.c **** void lv_demo_widgets(void)
 100:lvgl/demos/widgets/lv_demo_widgets.c **** {
 101:lvgl/demos/widgets/lv_demo_widgets.c ****     if(LV_HOR_RES <= 320) disp_size = DISP_SMALL;
 102:lvgl/demos/widgets/lv_demo_widgets.c ****     else if(LV_HOR_RES < 720) disp_size = DISP_MEDIUM;
 103:lvgl/demos/widgets/lv_demo_widgets.c ****     else disp_size = DISP_LARGE;
 104:lvgl/demos/widgets/lv_demo_widgets.c **** 
 105:lvgl/demos/widgets/lv_demo_widgets.c ****     font_large = LV_FONT_DEFAULT;
 106:lvgl/demos/widgets/lv_demo_widgets.c ****     font_normal = LV_FONT_DEFAULT;
 107:lvgl/demos/widgets/lv_demo_widgets.c **** 
 108:lvgl/demos/widgets/lv_demo_widgets.c ****     lv_coord_t tab_h;
 109:lvgl/demos/widgets/lv_demo_widgets.c ****     if(disp_size == DISP_LARGE) {
 110:lvgl/demos/widgets/lv_demo_widgets.c ****         tab_h = 70;
 111:lvgl/demos/widgets/lv_demo_widgets.c **** #if LV_FONT_MONTSERRAT_24
 112:lvgl/demos/widgets/lv_demo_widgets.c ****         font_large     = &lv_font_montserrat_24;
 113:lvgl/demos/widgets/lv_demo_widgets.c **** #else
 114:lvgl/demos/widgets/lv_demo_widgets.c ****         LV_LOG_WARN("LV_FONT_MONTSERRAT_24 is not enabled for the widgets demo. Using LV_FONT_DEFAU
 115:lvgl/demos/widgets/lv_demo_widgets.c **** #endif
 116:lvgl/demos/widgets/lv_demo_widgets.c **** #if LV_FONT_MONTSERRAT_16
 117:lvgl/demos/widgets/lv_demo_widgets.c ****         font_normal    = &lv_font_montserrat_16;
 118:lvgl/demos/widgets/lv_demo_widgets.c **** #else
 119:lvgl/demos/widgets/lv_demo_widgets.c ****         LV_LOG_WARN("LV_FONT_MONTSERRAT_16 is not enabled for the widgets demo. Using LV_FONT_DEFAU
 120:lvgl/demos/widgets/lv_demo_widgets.c **** #endif
 121:lvgl/demos/widgets/lv_demo_widgets.c ****     }
 122:lvgl/demos/widgets/lv_demo_widgets.c ****     else if(disp_size == DISP_MEDIUM) {
 123:lvgl/demos/widgets/lv_demo_widgets.c ****         tab_h = 45;
 124:lvgl/demos/widgets/lv_demo_widgets.c **** #if LV_FONT_MONTSERRAT_20
 125:lvgl/demos/widgets/lv_demo_widgets.c ****         font_large     = &lv_font_montserrat_20;
 126:lvgl/demos/widgets/lv_demo_widgets.c **** #else
 127:lvgl/demos/widgets/lv_demo_widgets.c ****         LV_LOG_WARN("LV_FONT_MONTSERRAT_20 is not enabled for the widgets demo. Using LV_FONT_DEFAU
 128:lvgl/demos/widgets/lv_demo_widgets.c **** #endif
 129:lvgl/demos/widgets/lv_demo_widgets.c **** #if LV_FONT_MONTSERRAT_14
 130:lvgl/demos/widgets/lv_demo_widgets.c ****         font_normal    = &lv_font_montserrat_14;
 131:lvgl/demos/widgets/lv_demo_widgets.c **** #else
ARM GAS  C:\Users\OSD\AppData\Local\Temp\ccdpxIfP.s 			page 7


 132:lvgl/demos/widgets/lv_demo_widgets.c ****         LV_LOG_WARN("LV_FONT_MONTSERRAT_14 is not enabled for the widgets demo. Using LV_FONT_DEFAU
 133:lvgl/demos/widgets/lv_demo_widgets.c **** #endif
 134:lvgl/demos/widgets/lv_demo_widgets.c ****     }
 135:lvgl/demos/widgets/lv_demo_widgets.c ****     else {   /* disp_size == DISP_SMALL */
 136:lvgl/demos/widgets/lv_demo_widgets.c ****         tab_h = 45;
 137:lvgl/demos/widgets/lv_demo_widgets.c **** #if LV_FONT_MONTSERRAT_18
 138:lvgl/demos/widgets/lv_demo_widgets.c ****         font_large     = &lv_font_montserrat_18;
 139:lvgl/demos/widgets/lv_demo_widgets.c **** #else
 140:lvgl/demos/widgets/lv_demo_widgets.c ****         LV_LOG_WARN("LV_FONT_MONTSERRAT_18 is not enabled for the widgets demo. Using LV_FONT_DEFAU
 141:lvgl/demos/widgets/lv_demo_widgets.c **** #endif
 142:lvgl/demos/widgets/lv_demo_widgets.c **** #if LV_FONT_MONTSERRAT_12
 143:lvgl/demos/widgets/lv_demo_widgets.c ****         font_normal    = &lv_font_montserrat_12;
 144:lvgl/demos/widgets/lv_demo_widgets.c **** #else
 145:lvgl/demos/widgets/lv_demo_widgets.c ****         LV_LOG_WARN("LV_FONT_MONTSERRAT_12 is not enabled for the widgets demo. Using LV_FONT_DEFAU
 146:lvgl/demos/widgets/lv_demo_widgets.c **** #endif
 147:lvgl/demos/widgets/lv_demo_widgets.c ****     }
 148:lvgl/demos/widgets/lv_demo_widgets.c **** 
 149:lvgl/demos/widgets/lv_demo_widgets.c **** #if LV_USE_THEME_DEFAULT
 150:lvgl/demos/widgets/lv_demo_widgets.c ****     lv_theme_default_init(NULL, lv_palette_main(LV_PALETTE_BLUE), lv_palette_main(LV_PALETTE_RED), 
 151:lvgl/demos/widgets/lv_demo_widgets.c ****                           font_normal);
 152:lvgl/demos/widgets/lv_demo_widgets.c **** #endif
 153:lvgl/demos/widgets/lv_demo_widgets.c **** 
 154:lvgl/demos/widgets/lv_demo_widgets.c ****     lv_style_init(&style_text_muted);
 155:lvgl/demos/widgets/lv_demo_widgets.c ****     lv_style_set_text_opa(&style_text_muted, LV_OPA_50);
 156:lvgl/demos/widgets/lv_demo_widgets.c **** 
 157:lvgl/demos/widgets/lv_demo_widgets.c ****     lv_style_init(&style_title);
 158:lvgl/demos/widgets/lv_demo_widgets.c ****     lv_style_set_text_font(&style_title, font_large);
 159:lvgl/demos/widgets/lv_demo_widgets.c **** 
 160:lvgl/demos/widgets/lv_demo_widgets.c ****     lv_style_init(&style_icon);
 161:lvgl/demos/widgets/lv_demo_widgets.c ****     lv_style_set_text_color(&style_icon, lv_theme_get_color_primary(NULL));
 162:lvgl/demos/widgets/lv_demo_widgets.c ****     lv_style_set_text_font(&style_icon, font_large);
 163:lvgl/demos/widgets/lv_demo_widgets.c **** 
 164:lvgl/demos/widgets/lv_demo_widgets.c ****     lv_style_init(&style_bullet);
 165:lvgl/demos/widgets/lv_demo_widgets.c ****     lv_style_set_border_width(&style_bullet, 0);
 166:lvgl/demos/widgets/lv_demo_widgets.c ****     lv_style_set_radius(&style_bullet, LV_RADIUS_CIRCLE);
 167:lvgl/demos/widgets/lv_demo_widgets.c **** 
 168:lvgl/demos/widgets/lv_demo_widgets.c ****     tv = lv_tabview_create(lv_scr_act(), LV_DIR_TOP, tab_h);
 169:lvgl/demos/widgets/lv_demo_widgets.c **** 
 170:lvgl/demos/widgets/lv_demo_widgets.c ****     lv_obj_set_style_text_font(lv_scr_act(), font_normal, 0);
 171:lvgl/demos/widgets/lv_demo_widgets.c **** 
 172:lvgl/demos/widgets/lv_demo_widgets.c ****     if(disp_size == DISP_LARGE) {
 173:lvgl/demos/widgets/lv_demo_widgets.c ****         lv_obj_t * tab_btns = lv_tabview_get_tab_btns(tv);
 174:lvgl/demos/widgets/lv_demo_widgets.c ****         lv_obj_set_style_pad_left(tab_btns, LV_HOR_RES / 2, 0);
 175:lvgl/demos/widgets/lv_demo_widgets.c ****         lv_obj_t * logo = lv_img_create(tab_btns);
 176:lvgl/demos/widgets/lv_demo_widgets.c ****         LV_IMG_DECLARE(img_lvgl_logo);
 177:lvgl/demos/widgets/lv_demo_widgets.c ****         lv_img_set_src(logo, &img_lvgl_logo);
 178:lvgl/demos/widgets/lv_demo_widgets.c ****         lv_obj_align(logo, LV_ALIGN_LEFT_MID, -LV_HOR_RES / 2 + 25, 0);
 179:lvgl/demos/widgets/lv_demo_widgets.c **** 
 180:lvgl/demos/widgets/lv_demo_widgets.c ****         lv_obj_t * label = lv_label_create(tab_btns);
 181:lvgl/demos/widgets/lv_demo_widgets.c ****         lv_obj_add_style(label, &style_title, 0);
 182:lvgl/demos/widgets/lv_demo_widgets.c ****         lv_label_set_text(label, "LVGL v8");
 183:lvgl/demos/widgets/lv_demo_widgets.c ****         lv_obj_align_to(label, logo, LV_ALIGN_OUT_RIGHT_TOP, 10, 0);
 184:lvgl/demos/widgets/lv_demo_widgets.c **** 
 185:lvgl/demos/widgets/lv_demo_widgets.c ****         label = lv_label_create(tab_btns);
 186:lvgl/demos/widgets/lv_demo_widgets.c ****         lv_label_set_text(label, "Widgets demo");
 187:lvgl/demos/widgets/lv_demo_widgets.c ****         lv_obj_add_style(label, &style_text_muted, 0);
 188:lvgl/demos/widgets/lv_demo_widgets.c ****         lv_obj_align_to(label, logo, LV_ALIGN_OUT_RIGHT_BOTTOM, 10, 0);
ARM GAS  C:\Users\OSD\AppData\Local\Temp\ccdpxIfP.s 			page 8


 189:lvgl/demos/widgets/lv_demo_widgets.c ****     }
 190:lvgl/demos/widgets/lv_demo_widgets.c **** 
 191:lvgl/demos/widgets/lv_demo_widgets.c ****     lv_obj_t * t1 = lv_tabview_add_tab(tv, "Profile");
 192:lvgl/demos/widgets/lv_demo_widgets.c ****     lv_obj_t * t2 = lv_tabview_add_tab(tv, "Analytics");
 193:lvgl/demos/widgets/lv_demo_widgets.c ****     lv_obj_t * t3 = lv_tabview_add_tab(tv, "Shop");
 194:lvgl/demos/widgets/lv_demo_widgets.c ****     profile_create(t1);
 195:lvgl/demos/widgets/lv_demo_widgets.c ****     analytics_create(t2);
 196:lvgl/demos/widgets/lv_demo_widgets.c ****     shop_create(t3);
 197:lvgl/demos/widgets/lv_demo_widgets.c **** 
 198:lvgl/demos/widgets/lv_demo_widgets.c ****     color_changer_create(tv);
 199:lvgl/demos/widgets/lv_demo_widgets.c **** }
 200:lvgl/demos/widgets/lv_demo_widgets.c **** 
 201:lvgl/demos/widgets/lv_demo_widgets.c **** void lv_demo_widgets_close(void)
 202:lvgl/demos/widgets/lv_demo_widgets.c **** {
 203:lvgl/demos/widgets/lv_demo_widgets.c ****     /*Delete all animation*/
 204:lvgl/demos/widgets/lv_demo_widgets.c ****     lv_anim_del(NULL, NULL);
 205:lvgl/demos/widgets/lv_demo_widgets.c **** 
 206:lvgl/demos/widgets/lv_demo_widgets.c ****     lv_timer_del(meter2_timer);
 207:lvgl/demos/widgets/lv_demo_widgets.c ****     meter2_timer = NULL;
 208:lvgl/demos/widgets/lv_demo_widgets.c **** 
 209:lvgl/demos/widgets/lv_demo_widgets.c ****     lv_obj_clean(lv_scr_act());
 210:lvgl/demos/widgets/lv_demo_widgets.c **** 
 211:lvgl/demos/widgets/lv_demo_widgets.c ****     lv_style_reset(&style_text_muted);
 212:lvgl/demos/widgets/lv_demo_widgets.c ****     lv_style_reset(&style_title);
 213:lvgl/demos/widgets/lv_demo_widgets.c ****     lv_style_reset(&style_icon);
 214:lvgl/demos/widgets/lv_demo_widgets.c ****     lv_style_reset(&style_bullet);
 215:lvgl/demos/widgets/lv_demo_widgets.c **** }
 216:lvgl/demos/widgets/lv_demo_widgets.c **** 
 217:lvgl/demos/widgets/lv_demo_widgets.c **** /**********************
 218:lvgl/demos/widgets/lv_demo_widgets.c ****  *   STATIC FUNCTIONS
 219:lvgl/demos/widgets/lv_demo_widgets.c ****  **********************/
 220:lvgl/demos/widgets/lv_demo_widgets.c **** 
 221:lvgl/demos/widgets/lv_demo_widgets.c **** static void profile_create(lv_obj_t * parent)
 222:lvgl/demos/widgets/lv_demo_widgets.c **** {
 163              		.loc 1 222 1 view -0
 164              		.cfi_startproc
 165              		@ args = 0, pretend = 0, frame = 96
 166              		@ frame_needed = 0, uses_anonymous_args = 0
 167              		.loc 1 222 1 is_stmt 0 view .LVU1
 168 0000 2DE9F04F 		push	{r4, r5, r6, r7, r8, r9, r10, fp, lr}
 169              		.cfi_def_cfa_offset 36
 170              		.cfi_offset 4, -36
 171              		.cfi_offset 5, -32
 172              		.cfi_offset 6, -28
 173              		.cfi_offset 7, -24
 174              		.cfi_offset 8, -20
 175              		.cfi_offset 9, -16
 176              		.cfi_offset 10, -12
 177              		.cfi_offset 11, -8
 178              		.cfi_offset 14, -4
 179 0004 9DB0     		sub	sp, sp, #116
 180              		.cfi_def_cfa_offset 152
 181 0006 0646     		mov	r6, r0
 223:lvgl/demos/widgets/lv_demo_widgets.c ****     lv_obj_t * panel1 = lv_obj_create(parent);
 182              		.loc 1 223 5 is_stmt 1 view .LVU2
 183              		.loc 1 223 25 is_stmt 0 view .LVU3
 184 0008 FFF7FEFF 		bl	lv_obj_create
ARM GAS  C:\Users\OSD\AppData\Local\Temp\ccdpxIfP.s 			page 9


 185              	.LVL1:
 186              		.loc 1 223 25 view .LVU4
 187 000c 8046     		mov	r8, r0
 188              	.LVL2:
 224:lvgl/demos/widgets/lv_demo_widgets.c ****     lv_obj_set_height(panel1, LV_SIZE_CONTENT);
 189              		.loc 1 224 5 is_stmt 1 view .LVU5
 190 000e 42F2D171 		movw	r1, #10193
 191 0012 FFF7FEFF 		bl	lv_obj_set_height
 192              	.LVL3:
 225:lvgl/demos/widgets/lv_demo_widgets.c **** 
 226:lvgl/demos/widgets/lv_demo_widgets.c ****     LV_IMG_DECLARE(img_demo_widgets_avatar);
 193              		.loc 1 226 5 view .LVU6
 194              		.loc 1 226 44 view .LVU7
 227:lvgl/demos/widgets/lv_demo_widgets.c ****     lv_obj_t * avatar = lv_img_create(panel1);
 195              		.loc 1 227 5 view .LVU8
 196              		.loc 1 227 25 is_stmt 0 view .LVU9
 197 0016 4046     		mov	r0, r8
 198 0018 FFF7FEFF 		bl	lv_img_create
 199              	.LVL4:
 200 001c 0A90     		str	r0, [sp, #40]
 201              	.LVL5:
 228:lvgl/demos/widgets/lv_demo_widgets.c ****     lv_img_set_src(avatar, &img_demo_widgets_avatar);
 202              		.loc 1 228 5 is_stmt 1 view .LVU10
 203 001e B549     		ldr	r1, .L9
 204 0020 FFF7FEFF 		bl	lv_img_set_src
 205              	.LVL6:
 229:lvgl/demos/widgets/lv_demo_widgets.c **** 
 230:lvgl/demos/widgets/lv_demo_widgets.c ****     lv_obj_t * name = lv_label_create(panel1);
 206              		.loc 1 230 5 view .LVU11
 207              		.loc 1 230 23 is_stmt 0 view .LVU12
 208 0024 4046     		mov	r0, r8
 209 0026 FFF7FEFF 		bl	lv_label_create
 210              	.LVL7:
 211 002a 0446     		mov	r4, r0
 212 002c 0B90     		str	r0, [sp, #44]
 213              	.LVL8:
 231:lvgl/demos/widgets/lv_demo_widgets.c ****     lv_label_set_text(name, "Elena Smith");
 214              		.loc 1 231 5 is_stmt 1 view .LVU13
 215 002e B249     		ldr	r1, .L9+4
 216 0030 FFF7FEFF 		bl	lv_label_set_text
 217              	.LVL9:
 232:lvgl/demos/widgets/lv_demo_widgets.c ****     lv_obj_add_style(name, &style_title, 0);
 218              		.loc 1 232 5 view .LVU14
 219 0034 DFF824A3 		ldr	r10, .L9+104
 220 0038 0022     		movs	r2, #0
 221 003a 5146     		mov	r1, r10
 222 003c 2046     		mov	r0, r4
 223 003e FFF7FEFF 		bl	lv_obj_add_style
 224              	.LVL10:
 233:lvgl/demos/widgets/lv_demo_widgets.c **** 
 234:lvgl/demos/widgets/lv_demo_widgets.c ****     lv_obj_t * dsc = lv_label_create(panel1);
 225              		.loc 1 234 5 view .LVU15
 226              		.loc 1 234 22 is_stmt 0 view .LVU16
 227 0042 4046     		mov	r0, r8
 228 0044 FFF7FEFF 		bl	lv_label_create
 229              	.LVL11:
 230 0048 8146     		mov	r9, r0
ARM GAS  C:\Users\OSD\AppData\Local\Temp\ccdpxIfP.s 			page 10


 231              	.LVL12:
 235:lvgl/demos/widgets/lv_demo_widgets.c ****     lv_obj_add_style(dsc, &style_text_muted, 0);
 232              		.loc 1 235 5 is_stmt 1 view .LVU17
 233 004a AC4C     		ldr	r4, .L9+8
 234              	.LVL13:
 235              		.loc 1 235 5 is_stmt 0 view .LVU18
 236 004c 0022     		movs	r2, #0
 237 004e 2146     		mov	r1, r4
 238 0050 FFF7FEFF 		bl	lv_obj_add_style
 239              	.LVL14:
 236:lvgl/demos/widgets/lv_demo_widgets.c ****     lv_label_set_text(dsc, "This is a short description of me. Take a look at my profile!");
 240              		.loc 1 236 5 is_stmt 1 view .LVU19
 241 0054 AA49     		ldr	r1, .L9+12
 242 0056 4846     		mov	r0, r9
 243 0058 FFF7FEFF 		bl	lv_label_set_text
 244              	.LVL15:
 237:lvgl/demos/widgets/lv_demo_widgets.c ****     lv_label_set_long_mode(dsc, LV_LABEL_LONG_WRAP);
 245              		.loc 1 237 5 view .LVU20
 246 005c 0021     		movs	r1, #0
 247 005e 4846     		mov	r0, r9
 248 0060 FFF7FEFF 		bl	lv_label_set_long_mode
 249              	.LVL16:
 238:lvgl/demos/widgets/lv_demo_widgets.c **** 
 239:lvgl/demos/widgets/lv_demo_widgets.c ****     lv_obj_t * email_icn = lv_label_create(panel1);
 250              		.loc 1 239 5 view .LVU21
 251              		.loc 1 239 28 is_stmt 0 view .LVU22
 252 0064 4046     		mov	r0, r8
 253 0066 FFF7FEFF 		bl	lv_label_create
 254              	.LVL17:
 255 006a 0746     		mov	r7, r0
 256 006c 0C90     		str	r0, [sp, #48]
 257              	.LVL18:
 240:lvgl/demos/widgets/lv_demo_widgets.c ****     lv_obj_add_style(email_icn, &style_icon, 0);
 258              		.loc 1 240 5 is_stmt 1 view .LVU23
 259 006e A54D     		ldr	r5, .L9+16
 260 0070 0022     		movs	r2, #0
 261 0072 2946     		mov	r1, r5
 262 0074 FFF7FEFF 		bl	lv_obj_add_style
 263              	.LVL19:
 241:lvgl/demos/widgets/lv_demo_widgets.c ****     lv_label_set_text(email_icn, LV_SYMBOL_ENVELOPE);
 264              		.loc 1 241 5 view .LVU24
 265 0078 A349     		ldr	r1, .L9+20
 266 007a 3846     		mov	r0, r7
 267 007c FFF7FEFF 		bl	lv_label_set_text
 268              	.LVL20:
 242:lvgl/demos/widgets/lv_demo_widgets.c **** 
 243:lvgl/demos/widgets/lv_demo_widgets.c ****     lv_obj_t * email_label = lv_label_create(panel1);
 269              		.loc 1 243 5 view .LVU25
 270              		.loc 1 243 30 is_stmt 0 view .LVU26
 271 0080 4046     		mov	r0, r8
 272 0082 FFF7FEFF 		bl	lv_label_create
 273              	.LVL21:
 274 0086 0D90     		str	r0, [sp, #52]
 275              	.LVL22:
 244:lvgl/demos/widgets/lv_demo_widgets.c ****     lv_label_set_text(email_label, "elena@smith.com");
 276              		.loc 1 244 5 is_stmt 1 view .LVU27
 277 0088 A049     		ldr	r1, .L9+24
ARM GAS  C:\Users\OSD\AppData\Local\Temp\ccdpxIfP.s 			page 11


 278 008a FFF7FEFF 		bl	lv_label_set_text
 279              	.LVL23:
 245:lvgl/demos/widgets/lv_demo_widgets.c **** 
 246:lvgl/demos/widgets/lv_demo_widgets.c ****     lv_obj_t * call_icn = lv_label_create(panel1);
 280              		.loc 1 246 5 view .LVU28
 281              		.loc 1 246 27 is_stmt 0 view .LVU29
 282 008e 4046     		mov	r0, r8
 283 0090 FFF7FEFF 		bl	lv_label_create
 284              	.LVL24:
 285 0094 0746     		mov	r7, r0
 286              	.LVL25:
 287              		.loc 1 246 27 view .LVU30
 288 0096 0E90     		str	r0, [sp, #56]
 289              	.LVL26:
 247:lvgl/demos/widgets/lv_demo_widgets.c ****     lv_obj_add_style(call_icn, &style_icon, 0);
 290              		.loc 1 247 5 is_stmt 1 view .LVU31
 291 0098 0022     		movs	r2, #0
 292 009a 2946     		mov	r1, r5
 293 009c FFF7FEFF 		bl	lv_obj_add_style
 294              	.LVL27:
 248:lvgl/demos/widgets/lv_demo_widgets.c ****     lv_label_set_text(call_icn, LV_SYMBOL_CALL);
 295              		.loc 1 248 5 view .LVU32
 296 00a0 9B49     		ldr	r1, .L9+28
 297 00a2 3846     		mov	r0, r7
 298 00a4 FFF7FEFF 		bl	lv_label_set_text
 299              	.LVL28:
 249:lvgl/demos/widgets/lv_demo_widgets.c **** 
 250:lvgl/demos/widgets/lv_demo_widgets.c ****     lv_obj_t * call_label = lv_label_create(panel1);
 300              		.loc 1 250 5 view .LVU33
 301              		.loc 1 250 29 is_stmt 0 view .LVU34
 302 00a8 4046     		mov	r0, r8
 303 00aa FFF7FEFF 		bl	lv_label_create
 304              	.LVL29:
 305 00ae 0F90     		str	r0, [sp, #60]
 306              	.LVL30:
 251:lvgl/demos/widgets/lv_demo_widgets.c ****     lv_label_set_text(call_label, "+79 246 123 4567");
 307              		.loc 1 251 5 is_stmt 1 view .LVU35
 308 00b0 9849     		ldr	r1, .L9+32
 309 00b2 FFF7FEFF 		bl	lv_label_set_text
 310              	.LVL31:
 252:lvgl/demos/widgets/lv_demo_widgets.c **** 
 253:lvgl/demos/widgets/lv_demo_widgets.c ****     lv_obj_t * log_out_btn = lv_btn_create(panel1);
 311              		.loc 1 253 5 view .LVU36
 312              		.loc 1 253 30 is_stmt 0 view .LVU37
 313 00b6 4046     		mov	r0, r8
 314 00b8 FFF7FEFF 		bl	lv_btn_create
 315              	.LVL32:
 316 00bc 0546     		mov	r5, r0
 317 00be 0890     		str	r0, [sp, #32]
 318              	.LVL33:
 254:lvgl/demos/widgets/lv_demo_widgets.c ****     lv_obj_set_height(log_out_btn, LV_SIZE_CONTENT);
 319              		.loc 1 254 5 is_stmt 1 view .LVU38
 320 00c0 42F2D171 		movw	r1, #10193
 321 00c4 FFF7FEFF 		bl	lv_obj_set_height
 322              	.LVL34:
 255:lvgl/demos/widgets/lv_demo_widgets.c **** 
 256:lvgl/demos/widgets/lv_demo_widgets.c ****     lv_obj_t * label = lv_label_create(log_out_btn);
ARM GAS  C:\Users\OSD\AppData\Local\Temp\ccdpxIfP.s 			page 12


 323              		.loc 1 256 5 view .LVU39
 324              		.loc 1 256 24 is_stmt 0 view .LVU40
 325 00c8 2846     		mov	r0, r5
 326 00ca FFF7FEFF 		bl	lv_label_create
 327              	.LVL35:
 328 00ce 0546     		mov	r5, r0
 329              	.LVL36:
 257:lvgl/demos/widgets/lv_demo_widgets.c ****     lv_label_set_text(label, "Log out");
 330              		.loc 1 257 5 is_stmt 1 view .LVU41
 331 00d0 9149     		ldr	r1, .L9+36
 332 00d2 FFF7FEFF 		bl	lv_label_set_text
 333              	.LVL37:
 258:lvgl/demos/widgets/lv_demo_widgets.c ****     lv_obj_center(label);
 334              		.loc 1 258 5 view .LVU42
 335              	.LBB174:
 336              	.LBI174:
 337              		.file 2 "d:\\kzc\\stm32\\h743ii_lcd\\lvgl\\src\\core\\lv_obj_pos.h"
   1:d:\kzc\stm32\h743ii_lcd\lvgl\src\core\lv_obj_pos.h **** /**
   2:d:\kzc\stm32\h743ii_lcd\lvgl\src\core\lv_obj_pos.h ****  * @file lv_obj_pos.h
   3:d:\kzc\stm32\h743ii_lcd\lvgl\src\core\lv_obj_pos.h ****  *
   4:d:\kzc\stm32\h743ii_lcd\lvgl\src\core\lv_obj_pos.h ****  */
   5:d:\kzc\stm32\h743ii_lcd\lvgl\src\core\lv_obj_pos.h **** 
   6:d:\kzc\stm32\h743ii_lcd\lvgl\src\core\lv_obj_pos.h **** #ifndef LV_OBJ_POS_H
   7:d:\kzc\stm32\h743ii_lcd\lvgl\src\core\lv_obj_pos.h **** #define LV_OBJ_POS_H
   8:d:\kzc\stm32\h743ii_lcd\lvgl\src\core\lv_obj_pos.h **** 
   9:d:\kzc\stm32\h743ii_lcd\lvgl\src\core\lv_obj_pos.h **** #ifdef __cplusplus
  10:d:\kzc\stm32\h743ii_lcd\lvgl\src\core\lv_obj_pos.h **** extern "C" {
  11:d:\kzc\stm32\h743ii_lcd\lvgl\src\core\lv_obj_pos.h **** #endif
  12:d:\kzc\stm32\h743ii_lcd\lvgl\src\core\lv_obj_pos.h **** 
  13:d:\kzc\stm32\h743ii_lcd\lvgl\src\core\lv_obj_pos.h **** /*********************
  14:d:\kzc\stm32\h743ii_lcd\lvgl\src\core\lv_obj_pos.h ****  *      INCLUDES
  15:d:\kzc\stm32\h743ii_lcd\lvgl\src\core\lv_obj_pos.h ****  *********************/
  16:d:\kzc\stm32\h743ii_lcd\lvgl\src\core\lv_obj_pos.h **** #include "../misc/lv_area.h"
  17:d:\kzc\stm32\h743ii_lcd\lvgl\src\core\lv_obj_pos.h **** 
  18:d:\kzc\stm32\h743ii_lcd\lvgl\src\core\lv_obj_pos.h **** /*********************
  19:d:\kzc\stm32\h743ii_lcd\lvgl\src\core\lv_obj_pos.h ****  *      DEFINES
  20:d:\kzc\stm32\h743ii_lcd\lvgl\src\core\lv_obj_pos.h ****  *********************/
  21:d:\kzc\stm32\h743ii_lcd\lvgl\src\core\lv_obj_pos.h **** 
  22:d:\kzc\stm32\h743ii_lcd\lvgl\src\core\lv_obj_pos.h **** /**********************
  23:d:\kzc\stm32\h743ii_lcd\lvgl\src\core\lv_obj_pos.h ****  *      TYPEDEFS
  24:d:\kzc\stm32\h743ii_lcd\lvgl\src\core\lv_obj_pos.h ****  **********************/
  25:d:\kzc\stm32\h743ii_lcd\lvgl\src\core\lv_obj_pos.h **** struct _lv_obj_t;
  26:d:\kzc\stm32\h743ii_lcd\lvgl\src\core\lv_obj_pos.h **** 
  27:d:\kzc\stm32\h743ii_lcd\lvgl\src\core\lv_obj_pos.h **** typedef void (*lv_layout_update_cb_t)(struct _lv_obj_t *, void * user_data);
  28:d:\kzc\stm32\h743ii_lcd\lvgl\src\core\lv_obj_pos.h **** typedef struct {
  29:d:\kzc\stm32\h743ii_lcd\lvgl\src\core\lv_obj_pos.h ****     lv_layout_update_cb_t cb;
  30:d:\kzc\stm32\h743ii_lcd\lvgl\src\core\lv_obj_pos.h ****     void * user_data;
  31:d:\kzc\stm32\h743ii_lcd\lvgl\src\core\lv_obj_pos.h **** } lv_layout_dsc_t;
  32:d:\kzc\stm32\h743ii_lcd\lvgl\src\core\lv_obj_pos.h **** 
  33:d:\kzc\stm32\h743ii_lcd\lvgl\src\core\lv_obj_pos.h **** /**********************
  34:d:\kzc\stm32\h743ii_lcd\lvgl\src\core\lv_obj_pos.h ****  * GLOBAL PROTOTYPES
  35:d:\kzc\stm32\h743ii_lcd\lvgl\src\core\lv_obj_pos.h ****  **********************/
  36:d:\kzc\stm32\h743ii_lcd\lvgl\src\core\lv_obj_pos.h **** 
  37:d:\kzc\stm32\h743ii_lcd\lvgl\src\core\lv_obj_pos.h **** /**
  38:d:\kzc\stm32\h743ii_lcd\lvgl\src\core\lv_obj_pos.h ****  * Set the position of an object relative to the set alignment.
  39:d:\kzc\stm32\h743ii_lcd\lvgl\src\core\lv_obj_pos.h ****  * @param obj       pointer to an object
  40:d:\kzc\stm32\h743ii_lcd\lvgl\src\core\lv_obj_pos.h ****  * @param x         new x coordinate
ARM GAS  C:\Users\OSD\AppData\Local\Temp\ccdpxIfP.s 			page 13


  41:d:\kzc\stm32\h743ii_lcd\lvgl\src\core\lv_obj_pos.h ****  * @param y         new y coordinate
  42:d:\kzc\stm32\h743ii_lcd\lvgl\src\core\lv_obj_pos.h ****  * @note            With default alignment it's the distance from the top left corner
  43:d:\kzc\stm32\h743ii_lcd\lvgl\src\core\lv_obj_pos.h ****  * @note            E.g. LV_ALIGN_CENTER alignment it's the offset from the center of the parent
  44:d:\kzc\stm32\h743ii_lcd\lvgl\src\core\lv_obj_pos.h ****  * @note            The position is interpreted on the content area of the parent
  45:d:\kzc\stm32\h743ii_lcd\lvgl\src\core\lv_obj_pos.h ****  * @note            The values can be set in pixel or in percentage of parent size with `lv_pct(v)`
  46:d:\kzc\stm32\h743ii_lcd\lvgl\src\core\lv_obj_pos.h ****  */
  47:d:\kzc\stm32\h743ii_lcd\lvgl\src\core\lv_obj_pos.h **** void lv_obj_set_pos(struct _lv_obj_t * obj, lv_coord_t x, lv_coord_t y);
  48:d:\kzc\stm32\h743ii_lcd\lvgl\src\core\lv_obj_pos.h **** 
  49:d:\kzc\stm32\h743ii_lcd\lvgl\src\core\lv_obj_pos.h **** /**
  50:d:\kzc\stm32\h743ii_lcd\lvgl\src\core\lv_obj_pos.h ****  * Set the x coordinate of an object
  51:d:\kzc\stm32\h743ii_lcd\lvgl\src\core\lv_obj_pos.h ****  * @param obj       pointer to an object
  52:d:\kzc\stm32\h743ii_lcd\lvgl\src\core\lv_obj_pos.h ****  * @param x         new x coordinate
  53:d:\kzc\stm32\h743ii_lcd\lvgl\src\core\lv_obj_pos.h ****  * @note            With default alignment it's the distance from the top left corner
  54:d:\kzc\stm32\h743ii_lcd\lvgl\src\core\lv_obj_pos.h ****  * @note            E.g. LV_ALIGN_CENTER alignment it's the offset from the center of the parent
  55:d:\kzc\stm32\h743ii_lcd\lvgl\src\core\lv_obj_pos.h ****  * @note            The position is interpreted on the content area of the parent
  56:d:\kzc\stm32\h743ii_lcd\lvgl\src\core\lv_obj_pos.h ****  * @note            The values can be set in pixel or in percentage of parent size with `lv_pct(v)`
  57:d:\kzc\stm32\h743ii_lcd\lvgl\src\core\lv_obj_pos.h ****  */
  58:d:\kzc\stm32\h743ii_lcd\lvgl\src\core\lv_obj_pos.h **** void lv_obj_set_x(struct _lv_obj_t * obj, lv_coord_t x);
  59:d:\kzc\stm32\h743ii_lcd\lvgl\src\core\lv_obj_pos.h **** 
  60:d:\kzc\stm32\h743ii_lcd\lvgl\src\core\lv_obj_pos.h **** /**
  61:d:\kzc\stm32\h743ii_lcd\lvgl\src\core\lv_obj_pos.h ****  * Set the y coordinate of an object
  62:d:\kzc\stm32\h743ii_lcd\lvgl\src\core\lv_obj_pos.h ****  * @param obj       pointer to an object
  63:d:\kzc\stm32\h743ii_lcd\lvgl\src\core\lv_obj_pos.h ****  * @param y         new y coordinate
  64:d:\kzc\stm32\h743ii_lcd\lvgl\src\core\lv_obj_pos.h ****  * @note            With default alignment it's the distance from the top left corner
  65:d:\kzc\stm32\h743ii_lcd\lvgl\src\core\lv_obj_pos.h ****  * @note            E.g. LV_ALIGN_CENTER alignment it's the offset from the center of the parent
  66:d:\kzc\stm32\h743ii_lcd\lvgl\src\core\lv_obj_pos.h ****  * @note            The position is interpreted on the content area of the parent
  67:d:\kzc\stm32\h743ii_lcd\lvgl\src\core\lv_obj_pos.h ****  * @note            The values can be set in pixel or in percentage of parent size with `lv_pct(v)`
  68:d:\kzc\stm32\h743ii_lcd\lvgl\src\core\lv_obj_pos.h ****  */
  69:d:\kzc\stm32\h743ii_lcd\lvgl\src\core\lv_obj_pos.h **** void lv_obj_set_y(struct _lv_obj_t * obj, lv_coord_t y);
  70:d:\kzc\stm32\h743ii_lcd\lvgl\src\core\lv_obj_pos.h **** 
  71:d:\kzc\stm32\h743ii_lcd\lvgl\src\core\lv_obj_pos.h **** /**
  72:d:\kzc\stm32\h743ii_lcd\lvgl\src\core\lv_obj_pos.h ****  * Set the size of an object.
  73:d:\kzc\stm32\h743ii_lcd\lvgl\src\core\lv_obj_pos.h ****  * @param obj       pointer to an object
  74:d:\kzc\stm32\h743ii_lcd\lvgl\src\core\lv_obj_pos.h ****  * @param w         the new width
  75:d:\kzc\stm32\h743ii_lcd\lvgl\src\core\lv_obj_pos.h ****  * @param h         the new height
  76:d:\kzc\stm32\h743ii_lcd\lvgl\src\core\lv_obj_pos.h ****  * @note            possible values are:
  77:d:\kzc\stm32\h743ii_lcd\lvgl\src\core\lv_obj_pos.h ****  *                  pixel               simple set the size accordingly
  78:d:\kzc\stm32\h743ii_lcd\lvgl\src\core\lv_obj_pos.h ****  *                  LV_SIZE_CONTENT     set the size to involve all children in the given direction
  79:d:\kzc\stm32\h743ii_lcd\lvgl\src\core\lv_obj_pos.h ****  *                  LV_SIZE_PCT(x)     to set size in percentage of the parent's content area size 
  80:d:\kzc\stm32\h743ii_lcd\lvgl\src\core\lv_obj_pos.h ****  *                                      x should be in [0..1000]% range
  81:d:\kzc\stm32\h743ii_lcd\lvgl\src\core\lv_obj_pos.h ****  */
  82:d:\kzc\stm32\h743ii_lcd\lvgl\src\core\lv_obj_pos.h **** void lv_obj_set_size(struct _lv_obj_t * obj, lv_coord_t w, lv_coord_t h);
  83:d:\kzc\stm32\h743ii_lcd\lvgl\src\core\lv_obj_pos.h **** 
  84:d:\kzc\stm32\h743ii_lcd\lvgl\src\core\lv_obj_pos.h **** /**
  85:d:\kzc\stm32\h743ii_lcd\lvgl\src\core\lv_obj_pos.h ****  * Recalculate the size of the object
  86:d:\kzc\stm32\h743ii_lcd\lvgl\src\core\lv_obj_pos.h ****  * @param obj       pointer to an object
  87:d:\kzc\stm32\h743ii_lcd\lvgl\src\core\lv_obj_pos.h ****  * @return          true: the size has been changed
  88:d:\kzc\stm32\h743ii_lcd\lvgl\src\core\lv_obj_pos.h ****  */
  89:d:\kzc\stm32\h743ii_lcd\lvgl\src\core\lv_obj_pos.h **** bool lv_obj_refr_size(struct _lv_obj_t * obj);
  90:d:\kzc\stm32\h743ii_lcd\lvgl\src\core\lv_obj_pos.h **** 
  91:d:\kzc\stm32\h743ii_lcd\lvgl\src\core\lv_obj_pos.h **** /**
  92:d:\kzc\stm32\h743ii_lcd\lvgl\src\core\lv_obj_pos.h ****  * Set the width of an object
  93:d:\kzc\stm32\h743ii_lcd\lvgl\src\core\lv_obj_pos.h ****  * @param obj       pointer to an object
  94:d:\kzc\stm32\h743ii_lcd\lvgl\src\core\lv_obj_pos.h ****  * @param w         the new width
  95:d:\kzc\stm32\h743ii_lcd\lvgl\src\core\lv_obj_pos.h ****  * @note            possible values are:
  96:d:\kzc\stm32\h743ii_lcd\lvgl\src\core\lv_obj_pos.h ****  *                  pixel               simple set the size accordingly
  97:d:\kzc\stm32\h743ii_lcd\lvgl\src\core\lv_obj_pos.h ****  *                  LV_SIZE_CONTENT     set the size to involve all children in the given direction
ARM GAS  C:\Users\OSD\AppData\Local\Temp\ccdpxIfP.s 			page 14


  98:d:\kzc\stm32\h743ii_lcd\lvgl\src\core\lv_obj_pos.h ****  *                  lv_pct(x)           to set size in percentage of the parent's content area size
  99:d:\kzc\stm32\h743ii_lcd\lvgl\src\core\lv_obj_pos.h ****  *                                      x should be in [0..1000]% range
 100:d:\kzc\stm32\h743ii_lcd\lvgl\src\core\lv_obj_pos.h ****  */
 101:d:\kzc\stm32\h743ii_lcd\lvgl\src\core\lv_obj_pos.h **** void lv_obj_set_width(struct _lv_obj_t * obj, lv_coord_t w);
 102:d:\kzc\stm32\h743ii_lcd\lvgl\src\core\lv_obj_pos.h **** 
 103:d:\kzc\stm32\h743ii_lcd\lvgl\src\core\lv_obj_pos.h **** /**
 104:d:\kzc\stm32\h743ii_lcd\lvgl\src\core\lv_obj_pos.h ****  * Set the height of an object
 105:d:\kzc\stm32\h743ii_lcd\lvgl\src\core\lv_obj_pos.h ****  * @param obj       pointer to an object
 106:d:\kzc\stm32\h743ii_lcd\lvgl\src\core\lv_obj_pos.h ****  * @param h         the new height
 107:d:\kzc\stm32\h743ii_lcd\lvgl\src\core\lv_obj_pos.h ****  * @note            possible values are:
 108:d:\kzc\stm32\h743ii_lcd\lvgl\src\core\lv_obj_pos.h ****  *                  pixel               simple set the size accordingly
 109:d:\kzc\stm32\h743ii_lcd\lvgl\src\core\lv_obj_pos.h ****  *                  LV_SIZE_CONTENT     set the size to involve all children in the given direction
 110:d:\kzc\stm32\h743ii_lcd\lvgl\src\core\lv_obj_pos.h ****  *                  lv_pct(x)           to set size in percentage of the parent's content area size
 111:d:\kzc\stm32\h743ii_lcd\lvgl\src\core\lv_obj_pos.h ****  *                                      x should be in [0..1000]% range
 112:d:\kzc\stm32\h743ii_lcd\lvgl\src\core\lv_obj_pos.h ****  */
 113:d:\kzc\stm32\h743ii_lcd\lvgl\src\core\lv_obj_pos.h **** void lv_obj_set_height(struct _lv_obj_t * obj, lv_coord_t h);
 114:d:\kzc\stm32\h743ii_lcd\lvgl\src\core\lv_obj_pos.h **** 
 115:d:\kzc\stm32\h743ii_lcd\lvgl\src\core\lv_obj_pos.h **** /**
 116:d:\kzc\stm32\h743ii_lcd\lvgl\src\core\lv_obj_pos.h ****  * Set the width reduced by the left and right padding and the border width.
 117:d:\kzc\stm32\h743ii_lcd\lvgl\src\core\lv_obj_pos.h ****  * @param obj       pointer to an object
 118:d:\kzc\stm32\h743ii_lcd\lvgl\src\core\lv_obj_pos.h ****  * @param w         the width without paddings in pixels
 119:d:\kzc\stm32\h743ii_lcd\lvgl\src\core\lv_obj_pos.h ****  */
 120:d:\kzc\stm32\h743ii_lcd\lvgl\src\core\lv_obj_pos.h **** void lv_obj_set_content_width(struct _lv_obj_t * obj, lv_coord_t w);
 121:d:\kzc\stm32\h743ii_lcd\lvgl\src\core\lv_obj_pos.h **** 
 122:d:\kzc\stm32\h743ii_lcd\lvgl\src\core\lv_obj_pos.h **** /**
 123:d:\kzc\stm32\h743ii_lcd\lvgl\src\core\lv_obj_pos.h ****  * Set the height reduced by the top and bottom padding and the border width.
 124:d:\kzc\stm32\h743ii_lcd\lvgl\src\core\lv_obj_pos.h ****  * @param obj       pointer to an object
 125:d:\kzc\stm32\h743ii_lcd\lvgl\src\core\lv_obj_pos.h ****  * @param h         the height without paddings in pixels
 126:d:\kzc\stm32\h743ii_lcd\lvgl\src\core\lv_obj_pos.h ****  */
 127:d:\kzc\stm32\h743ii_lcd\lvgl\src\core\lv_obj_pos.h **** void lv_obj_set_content_height(struct _lv_obj_t * obj, lv_coord_t h);
 128:d:\kzc\stm32\h743ii_lcd\lvgl\src\core\lv_obj_pos.h **** 
 129:d:\kzc\stm32\h743ii_lcd\lvgl\src\core\lv_obj_pos.h **** /**
 130:d:\kzc\stm32\h743ii_lcd\lvgl\src\core\lv_obj_pos.h ****  * Set a layout for an object
 131:d:\kzc\stm32\h743ii_lcd\lvgl\src\core\lv_obj_pos.h ****  * @param obj       pointer to an object
 132:d:\kzc\stm32\h743ii_lcd\lvgl\src\core\lv_obj_pos.h ****  * @param layout    pointer to a layout descriptor to set
 133:d:\kzc\stm32\h743ii_lcd\lvgl\src\core\lv_obj_pos.h ****  */
 134:d:\kzc\stm32\h743ii_lcd\lvgl\src\core\lv_obj_pos.h **** void lv_obj_set_layout(struct _lv_obj_t * obj, uint32_t layout);
 135:d:\kzc\stm32\h743ii_lcd\lvgl\src\core\lv_obj_pos.h **** 
 136:d:\kzc\stm32\h743ii_lcd\lvgl\src\core\lv_obj_pos.h **** /**
 137:d:\kzc\stm32\h743ii_lcd\lvgl\src\core\lv_obj_pos.h ****  * Test whether the and object is positioned by a layout or not
 138:d:\kzc\stm32\h743ii_lcd\lvgl\src\core\lv_obj_pos.h ****  * @param obj       pointer to an object to test
 139:d:\kzc\stm32\h743ii_lcd\lvgl\src\core\lv_obj_pos.h ****  * @return true:    positioned by a layout; false: not positioned by a layout
 140:d:\kzc\stm32\h743ii_lcd\lvgl\src\core\lv_obj_pos.h ****  */
 141:d:\kzc\stm32\h743ii_lcd\lvgl\src\core\lv_obj_pos.h **** bool lv_obj_is_layout_positioned(const struct _lv_obj_t * obj);
 142:d:\kzc\stm32\h743ii_lcd\lvgl\src\core\lv_obj_pos.h **** 
 143:d:\kzc\stm32\h743ii_lcd\lvgl\src\core\lv_obj_pos.h **** /**
 144:d:\kzc\stm32\h743ii_lcd\lvgl\src\core\lv_obj_pos.h ****  * Mark the object for layout update.
 145:d:\kzc\stm32\h743ii_lcd\lvgl\src\core\lv_obj_pos.h ****  * @param obj      pointer to an object whose children needs to be updated
 146:d:\kzc\stm32\h743ii_lcd\lvgl\src\core\lv_obj_pos.h ****  */
 147:d:\kzc\stm32\h743ii_lcd\lvgl\src\core\lv_obj_pos.h **** void lv_obj_mark_layout_as_dirty(struct _lv_obj_t * obj);
 148:d:\kzc\stm32\h743ii_lcd\lvgl\src\core\lv_obj_pos.h **** 
 149:d:\kzc\stm32\h743ii_lcd\lvgl\src\core\lv_obj_pos.h **** /**
 150:d:\kzc\stm32\h743ii_lcd\lvgl\src\core\lv_obj_pos.h ****  * Update the layout of an object.
 151:d:\kzc\stm32\h743ii_lcd\lvgl\src\core\lv_obj_pos.h ****  * @param obj      pointer to an object whose children needs to be updated
 152:d:\kzc\stm32\h743ii_lcd\lvgl\src\core\lv_obj_pos.h ****  */
 153:d:\kzc\stm32\h743ii_lcd\lvgl\src\core\lv_obj_pos.h **** void lv_obj_update_layout(const struct _lv_obj_t * obj);
 154:d:\kzc\stm32\h743ii_lcd\lvgl\src\core\lv_obj_pos.h **** 
ARM GAS  C:\Users\OSD\AppData\Local\Temp\ccdpxIfP.s 			page 15


 155:d:\kzc\stm32\h743ii_lcd\lvgl\src\core\lv_obj_pos.h **** /**
 156:d:\kzc\stm32\h743ii_lcd\lvgl\src\core\lv_obj_pos.h ****  * Register a new layout
 157:d:\kzc\stm32\h743ii_lcd\lvgl\src\core\lv_obj_pos.h ****  * @param cb        the layout update callback
 158:d:\kzc\stm32\h743ii_lcd\lvgl\src\core\lv_obj_pos.h ****  * @param user_data custom data that will be passed to `cb`
 159:d:\kzc\stm32\h743ii_lcd\lvgl\src\core\lv_obj_pos.h ****  * @return          the ID of the new layout
 160:d:\kzc\stm32\h743ii_lcd\lvgl\src\core\lv_obj_pos.h ****  */
 161:d:\kzc\stm32\h743ii_lcd\lvgl\src\core\lv_obj_pos.h **** uint32_t lv_layout_register(lv_layout_update_cb_t cb, void * user_data);
 162:d:\kzc\stm32\h743ii_lcd\lvgl\src\core\lv_obj_pos.h **** 
 163:d:\kzc\stm32\h743ii_lcd\lvgl\src\core\lv_obj_pos.h **** /**
 164:d:\kzc\stm32\h743ii_lcd\lvgl\src\core\lv_obj_pos.h ****  * Change the alignment of an object.
 165:d:\kzc\stm32\h743ii_lcd\lvgl\src\core\lv_obj_pos.h ****  * @param obj       pointer to an object to align
 166:d:\kzc\stm32\h743ii_lcd\lvgl\src\core\lv_obj_pos.h ****  * @param align     type of alignment (see 'lv_align_t' enum) `LV_ALIGN_OUT_...` can't be used.
 167:d:\kzc\stm32\h743ii_lcd\lvgl\src\core\lv_obj_pos.h ****  */
 168:d:\kzc\stm32\h743ii_lcd\lvgl\src\core\lv_obj_pos.h **** void lv_obj_set_align(struct _lv_obj_t * obj, lv_align_t align);
 169:d:\kzc\stm32\h743ii_lcd\lvgl\src\core\lv_obj_pos.h **** 
 170:d:\kzc\stm32\h743ii_lcd\lvgl\src\core\lv_obj_pos.h **** /**
 171:d:\kzc\stm32\h743ii_lcd\lvgl\src\core\lv_obj_pos.h ****  * Change the alignment of an object and set new coordinates.
 172:d:\kzc\stm32\h743ii_lcd\lvgl\src\core\lv_obj_pos.h ****  * Equivalent to:
 173:d:\kzc\stm32\h743ii_lcd\lvgl\src\core\lv_obj_pos.h ****  * lv_obj_set_align(obj, align);
 174:d:\kzc\stm32\h743ii_lcd\lvgl\src\core\lv_obj_pos.h ****  * lv_obj_set_pos(obj, x_ofs, y_ofs);
 175:d:\kzc\stm32\h743ii_lcd\lvgl\src\core\lv_obj_pos.h ****  * @param obj       pointer to an object to align
 176:d:\kzc\stm32\h743ii_lcd\lvgl\src\core\lv_obj_pos.h ****  * @param align     type of alignment (see 'lv_align_t' enum) `LV_ALIGN_OUT_...` can't be used.
 177:d:\kzc\stm32\h743ii_lcd\lvgl\src\core\lv_obj_pos.h ****  * @param x_ofs     x coordinate offset after alignment
 178:d:\kzc\stm32\h743ii_lcd\lvgl\src\core\lv_obj_pos.h ****  * @param y_ofs     y coordinate offset after alignment
 179:d:\kzc\stm32\h743ii_lcd\lvgl\src\core\lv_obj_pos.h ****  */
 180:d:\kzc\stm32\h743ii_lcd\lvgl\src\core\lv_obj_pos.h **** void lv_obj_align(struct _lv_obj_t * obj, lv_align_t align, lv_coord_t x_ofs, lv_coord_t y_ofs);
 181:d:\kzc\stm32\h743ii_lcd\lvgl\src\core\lv_obj_pos.h **** 
 182:d:\kzc\stm32\h743ii_lcd\lvgl\src\core\lv_obj_pos.h **** /**
 183:d:\kzc\stm32\h743ii_lcd\lvgl\src\core\lv_obj_pos.h ****  * Align an object to an other object.
 184:d:\kzc\stm32\h743ii_lcd\lvgl\src\core\lv_obj_pos.h ****  * @param obj       pointer to an object to align
 185:d:\kzc\stm32\h743ii_lcd\lvgl\src\core\lv_obj_pos.h ****  * @param base      pointer to an other object (if NULL `obj`s parent is used). 'obj' will be align
 186:d:\kzc\stm32\h743ii_lcd\lvgl\src\core\lv_obj_pos.h ****  * @param align     type of alignment (see 'lv_align_t' enum)
 187:d:\kzc\stm32\h743ii_lcd\lvgl\src\core\lv_obj_pos.h ****  * @param x_ofs     x coordinate offset after alignment
 188:d:\kzc\stm32\h743ii_lcd\lvgl\src\core\lv_obj_pos.h ****  * @param y_ofs     y coordinate offset after alignment
 189:d:\kzc\stm32\h743ii_lcd\lvgl\src\core\lv_obj_pos.h ****  * @note            if the position or size of `base` changes `obj` needs to be aligned manually ag
 190:d:\kzc\stm32\h743ii_lcd\lvgl\src\core\lv_obj_pos.h ****  */
 191:d:\kzc\stm32\h743ii_lcd\lvgl\src\core\lv_obj_pos.h **** void lv_obj_align_to(struct _lv_obj_t * obj, const struct _lv_obj_t * base, lv_align_t align, lv_co
 192:d:\kzc\stm32\h743ii_lcd\lvgl\src\core\lv_obj_pos.h ****                      lv_coord_t y_ofs);
 193:d:\kzc\stm32\h743ii_lcd\lvgl\src\core\lv_obj_pos.h **** 
 194:d:\kzc\stm32\h743ii_lcd\lvgl\src\core\lv_obj_pos.h **** /**
 195:d:\kzc\stm32\h743ii_lcd\lvgl\src\core\lv_obj_pos.h ****  * Align an object to the center on its parent.
 196:d:\kzc\stm32\h743ii_lcd\lvgl\src\core\lv_obj_pos.h ****  * @param obj       pointer to an object to align
 197:d:\kzc\stm32\h743ii_lcd\lvgl\src\core\lv_obj_pos.h ****  * @note            if the parent size changes `obj` needs to be aligned manually again
 198:d:\kzc\stm32\h743ii_lcd\lvgl\src\core\lv_obj_pos.h ****  */
 199:d:\kzc\stm32\h743ii_lcd\lvgl\src\core\lv_obj_pos.h **** static inline void lv_obj_center(struct _lv_obj_t * obj)
 338              		.loc 2 199 20 view .LVU43
 339              	.LBB175:
 200:d:\kzc\stm32\h743ii_lcd\lvgl\src\core\lv_obj_pos.h **** {
 201:d:\kzc\stm32\h743ii_lcd\lvgl\src\core\lv_obj_pos.h ****     lv_obj_align(obj, LV_ALIGN_CENTER, 0, 0);
 340              		.loc 2 201 5 view .LVU44
 341 00d6 0023     		movs	r3, #0
 342 00d8 1A46     		mov	r2, r3
 343 00da 0921     		movs	r1, #9
 344 00dc 2846     		mov	r0, r5
 345 00de FFF7FEFF 		bl	lv_obj_align
 346              	.LVL38:
 347              		.loc 2 201 5 is_stmt 0 view .LVU45
ARM GAS  C:\Users\OSD\AppData\Local\Temp\ccdpxIfP.s 			page 16


 348              	.LBE175:
 349              	.LBE174:
 259:lvgl/demos/widgets/lv_demo_widgets.c **** 
 260:lvgl/demos/widgets/lv_demo_widgets.c ****     lv_obj_t * invite_btn = lv_btn_create(panel1);
 350              		.loc 1 260 5 is_stmt 1 view .LVU46
 351              		.loc 1 260 29 is_stmt 0 view .LVU47
 352 00e2 4046     		mov	r0, r8
 353 00e4 FFF7FEFF 		bl	lv_btn_create
 354              	.LVL39:
 355 00e8 0546     		mov	r5, r0
 356              	.LVL40:
 357              		.loc 1 260 29 view .LVU48
 358 00ea 0990     		str	r0, [sp, #36]
 359              	.LVL41:
 261:lvgl/demos/widgets/lv_demo_widgets.c ****     lv_obj_add_state(invite_btn, LV_STATE_DISABLED);
 360              		.loc 1 261 5 is_stmt 1 view .LVU49
 361 00ec 8021     		movs	r1, #128
 362 00ee FFF7FEFF 		bl	lv_obj_add_state
 363              	.LVL42:
 262:lvgl/demos/widgets/lv_demo_widgets.c ****     lv_obj_set_height(invite_btn, LV_SIZE_CONTENT);
 364              		.loc 1 262 5 view .LVU50
 365 00f2 42F2D171 		movw	r1, #10193
 366 00f6 2846     		mov	r0, r5
 367 00f8 FFF7FEFF 		bl	lv_obj_set_height
 368              	.LVL43:
 263:lvgl/demos/widgets/lv_demo_widgets.c **** 
 264:lvgl/demos/widgets/lv_demo_widgets.c ****     label = lv_label_create(invite_btn);
 369              		.loc 1 264 5 view .LVU51
 370              		.loc 1 264 13 is_stmt 0 view .LVU52
 371 00fc 2846     		mov	r0, r5
 372 00fe FFF7FEFF 		bl	lv_label_create
 373              	.LVL44:
 374 0102 0546     		mov	r5, r0
 375              	.LVL45:
 265:lvgl/demos/widgets/lv_demo_widgets.c ****     lv_label_set_text(label, "Invite");
 376              		.loc 1 265 5 is_stmt 1 view .LVU53
 377 0104 8549     		ldr	r1, .L9+40
 378 0106 FFF7FEFF 		bl	lv_label_set_text
 379              	.LVL46:
 266:lvgl/demos/widgets/lv_demo_widgets.c ****     lv_obj_center(label);
 380              		.loc 1 266 5 view .LVU54
 381              	.LBB176:
 382              	.LBI176:
 199:d:\kzc\stm32\h743ii_lcd\lvgl\src\core\lv_obj_pos.h **** {
 383              		.loc 2 199 20 view .LVU55
 384              	.LBB177:
 385              		.loc 2 201 5 view .LVU56
 386 010a 0023     		movs	r3, #0
 387 010c 1A46     		mov	r2, r3
 388 010e 0921     		movs	r1, #9
 389 0110 2846     		mov	r0, r5
 390 0112 FFF7FEFF 		bl	lv_obj_align
 391              	.LVL47:
 392              		.loc 2 201 5 is_stmt 0 view .LVU57
 393              	.LBE177:
 394              	.LBE176:
 267:lvgl/demos/widgets/lv_demo_widgets.c **** 
ARM GAS  C:\Users\OSD\AppData\Local\Temp\ccdpxIfP.s 			page 17


 268:lvgl/demos/widgets/lv_demo_widgets.c ****     /*Create a keyboard*/
 269:lvgl/demos/widgets/lv_demo_widgets.c ****     lv_obj_t * kb = lv_keyboard_create(lv_scr_act());
 395              		.loc 1 269 5 is_stmt 1 view .LVU58
 396              	.LBB178:
 397              	.LBI178:
 398              		.file 3 "lvgl/demos/widgets/../../src/core/lv_disp.h"
   1:lvgl/demos/widgets/../../src/core/lv_disp.h **** /**
   2:lvgl/demos/widgets/../../src/core/lv_disp.h ****  * @file lv_disp.h
   3:lvgl/demos/widgets/../../src/core/lv_disp.h ****  *
   4:lvgl/demos/widgets/../../src/core/lv_disp.h ****  */
   5:lvgl/demos/widgets/../../src/core/lv_disp.h **** 
   6:lvgl/demos/widgets/../../src/core/lv_disp.h **** #ifndef LV_DISP_H
   7:lvgl/demos/widgets/../../src/core/lv_disp.h **** #define LV_DISP_H
   8:lvgl/demos/widgets/../../src/core/lv_disp.h **** 
   9:lvgl/demos/widgets/../../src/core/lv_disp.h **** #ifdef __cplusplus
  10:lvgl/demos/widgets/../../src/core/lv_disp.h **** extern "C" {
  11:lvgl/demos/widgets/../../src/core/lv_disp.h **** #endif
  12:lvgl/demos/widgets/../../src/core/lv_disp.h **** 
  13:lvgl/demos/widgets/../../src/core/lv_disp.h **** /*********************
  14:lvgl/demos/widgets/../../src/core/lv_disp.h ****  *      INCLUDES
  15:lvgl/demos/widgets/../../src/core/lv_disp.h ****  *********************/
  16:lvgl/demos/widgets/../../src/core/lv_disp.h **** #include "../hal/lv_hal.h"
  17:lvgl/demos/widgets/../../src/core/lv_disp.h **** #include "lv_obj.h"
  18:lvgl/demos/widgets/../../src/core/lv_disp.h **** #include "lv_theme.h"
  19:lvgl/demos/widgets/../../src/core/lv_disp.h **** 
  20:lvgl/demos/widgets/../../src/core/lv_disp.h **** /*********************
  21:lvgl/demos/widgets/../../src/core/lv_disp.h ****  *      DEFINES
  22:lvgl/demos/widgets/../../src/core/lv_disp.h ****  *********************/
  23:lvgl/demos/widgets/../../src/core/lv_disp.h **** 
  24:lvgl/demos/widgets/../../src/core/lv_disp.h **** /**********************
  25:lvgl/demos/widgets/../../src/core/lv_disp.h ****  *      TYPEDEFS
  26:lvgl/demos/widgets/../../src/core/lv_disp.h ****  **********************/
  27:lvgl/demos/widgets/../../src/core/lv_disp.h **** 
  28:lvgl/demos/widgets/../../src/core/lv_disp.h **** typedef enum {
  29:lvgl/demos/widgets/../../src/core/lv_disp.h ****     LV_SCR_LOAD_ANIM_NONE,
  30:lvgl/demos/widgets/../../src/core/lv_disp.h ****     LV_SCR_LOAD_ANIM_OVER_LEFT,
  31:lvgl/demos/widgets/../../src/core/lv_disp.h ****     LV_SCR_LOAD_ANIM_OVER_RIGHT,
  32:lvgl/demos/widgets/../../src/core/lv_disp.h ****     LV_SCR_LOAD_ANIM_OVER_TOP,
  33:lvgl/demos/widgets/../../src/core/lv_disp.h ****     LV_SCR_LOAD_ANIM_OVER_BOTTOM,
  34:lvgl/demos/widgets/../../src/core/lv_disp.h ****     LV_SCR_LOAD_ANIM_MOVE_LEFT,
  35:lvgl/demos/widgets/../../src/core/lv_disp.h ****     LV_SCR_LOAD_ANIM_MOVE_RIGHT,
  36:lvgl/demos/widgets/../../src/core/lv_disp.h ****     LV_SCR_LOAD_ANIM_MOVE_TOP,
  37:lvgl/demos/widgets/../../src/core/lv_disp.h ****     LV_SCR_LOAD_ANIM_MOVE_BOTTOM,
  38:lvgl/demos/widgets/../../src/core/lv_disp.h ****     LV_SCR_LOAD_ANIM_FADE_IN,
  39:lvgl/demos/widgets/../../src/core/lv_disp.h ****     LV_SCR_LOAD_ANIM_FADE_ON = LV_SCR_LOAD_ANIM_FADE_IN, /*For backward compatibility*/
  40:lvgl/demos/widgets/../../src/core/lv_disp.h ****     LV_SCR_LOAD_ANIM_FADE_OUT,
  41:lvgl/demos/widgets/../../src/core/lv_disp.h ****     LV_SCR_LOAD_ANIM_OUT_LEFT,
  42:lvgl/demos/widgets/../../src/core/lv_disp.h ****     LV_SCR_LOAD_ANIM_OUT_RIGHT,
  43:lvgl/demos/widgets/../../src/core/lv_disp.h ****     LV_SCR_LOAD_ANIM_OUT_TOP,
  44:lvgl/demos/widgets/../../src/core/lv_disp.h ****     LV_SCR_LOAD_ANIM_OUT_BOTTOM,
  45:lvgl/demos/widgets/../../src/core/lv_disp.h **** } lv_scr_load_anim_t;
  46:lvgl/demos/widgets/../../src/core/lv_disp.h **** 
  47:lvgl/demos/widgets/../../src/core/lv_disp.h **** /**********************
  48:lvgl/demos/widgets/../../src/core/lv_disp.h ****  * GLOBAL PROTOTYPES
  49:lvgl/demos/widgets/../../src/core/lv_disp.h ****  **********************/
  50:lvgl/demos/widgets/../../src/core/lv_disp.h **** 
  51:lvgl/demos/widgets/../../src/core/lv_disp.h **** /**
ARM GAS  C:\Users\OSD\AppData\Local\Temp\ccdpxIfP.s 			page 18


  52:lvgl/demos/widgets/../../src/core/lv_disp.h ****  * Return with a pointer to the active screen
  53:lvgl/demos/widgets/../../src/core/lv_disp.h ****  * @param disp pointer to display which active screen should be get. (NULL to use the default
  54:lvgl/demos/widgets/../../src/core/lv_disp.h ****  * screen)
  55:lvgl/demos/widgets/../../src/core/lv_disp.h ****  * @return pointer to the active screen object (loaded by 'lv_scr_load()')
  56:lvgl/demos/widgets/../../src/core/lv_disp.h ****  */
  57:lvgl/demos/widgets/../../src/core/lv_disp.h **** lv_obj_t * lv_disp_get_scr_act(lv_disp_t * disp);
  58:lvgl/demos/widgets/../../src/core/lv_disp.h **** 
  59:lvgl/demos/widgets/../../src/core/lv_disp.h **** /**
  60:lvgl/demos/widgets/../../src/core/lv_disp.h ****  * Return with a pointer to the previous screen. Only used during screen transitions.
  61:lvgl/demos/widgets/../../src/core/lv_disp.h ****  * @param disp pointer to display which previous screen should be get. (NULL to use the default
  62:lvgl/demos/widgets/../../src/core/lv_disp.h ****  * screen)
  63:lvgl/demos/widgets/../../src/core/lv_disp.h ****  * @return pointer to the previous screen object or NULL if not used now
  64:lvgl/demos/widgets/../../src/core/lv_disp.h ****  */
  65:lvgl/demos/widgets/../../src/core/lv_disp.h **** lv_obj_t * lv_disp_get_scr_prev(lv_disp_t * disp);
  66:lvgl/demos/widgets/../../src/core/lv_disp.h **** 
  67:lvgl/demos/widgets/../../src/core/lv_disp.h **** /**
  68:lvgl/demos/widgets/../../src/core/lv_disp.h ****  * Make a screen active
  69:lvgl/demos/widgets/../../src/core/lv_disp.h ****  * @param scr pointer to a screen
  70:lvgl/demos/widgets/../../src/core/lv_disp.h ****  */
  71:lvgl/demos/widgets/../../src/core/lv_disp.h **** void lv_disp_load_scr(lv_obj_t * scr);
  72:lvgl/demos/widgets/../../src/core/lv_disp.h **** 
  73:lvgl/demos/widgets/../../src/core/lv_disp.h **** /**
  74:lvgl/demos/widgets/../../src/core/lv_disp.h ****  * Return with the top layer. (Same on every screen and it is above the normal screen layer)
  75:lvgl/demos/widgets/../../src/core/lv_disp.h ****  * @param disp pointer to display which top layer should be get. (NULL to use the default screen)
  76:lvgl/demos/widgets/../../src/core/lv_disp.h ****  * @return pointer to the top layer object (transparent screen sized lv_obj)
  77:lvgl/demos/widgets/../../src/core/lv_disp.h ****  */
  78:lvgl/demos/widgets/../../src/core/lv_disp.h **** lv_obj_t * lv_disp_get_layer_top(lv_disp_t * disp);
  79:lvgl/demos/widgets/../../src/core/lv_disp.h **** 
  80:lvgl/demos/widgets/../../src/core/lv_disp.h **** /**
  81:lvgl/demos/widgets/../../src/core/lv_disp.h ****  * Return with the sys. layer. (Same on every screen and it is above the normal screen and the top
  82:lvgl/demos/widgets/../../src/core/lv_disp.h ****  * layer)
  83:lvgl/demos/widgets/../../src/core/lv_disp.h ****  * @param disp pointer to display which sys. layer should be retrieved. (NULL to use the default sc
  84:lvgl/demos/widgets/../../src/core/lv_disp.h ****  * @return pointer to the sys layer object (transparent screen sized lv_obj)
  85:lvgl/demos/widgets/../../src/core/lv_disp.h ****  */
  86:lvgl/demos/widgets/../../src/core/lv_disp.h **** lv_obj_t * lv_disp_get_layer_sys(lv_disp_t * disp);
  87:lvgl/demos/widgets/../../src/core/lv_disp.h **** 
  88:lvgl/demos/widgets/../../src/core/lv_disp.h **** /**
  89:lvgl/demos/widgets/../../src/core/lv_disp.h ****  * Set the theme of a display
  90:lvgl/demos/widgets/../../src/core/lv_disp.h ****  * @param disp pointer to a display
  91:lvgl/demos/widgets/../../src/core/lv_disp.h ****  */
  92:lvgl/demos/widgets/../../src/core/lv_disp.h **** void lv_disp_set_theme(lv_disp_t * disp, lv_theme_t * th);
  93:lvgl/demos/widgets/../../src/core/lv_disp.h **** 
  94:lvgl/demos/widgets/../../src/core/lv_disp.h **** /**
  95:lvgl/demos/widgets/../../src/core/lv_disp.h ****  * Get the theme of a display
  96:lvgl/demos/widgets/../../src/core/lv_disp.h ****  * @param disp pointer to a display
  97:lvgl/demos/widgets/../../src/core/lv_disp.h ****  * @return the display's theme (can be NULL)
  98:lvgl/demos/widgets/../../src/core/lv_disp.h ****  */
  99:lvgl/demos/widgets/../../src/core/lv_disp.h **** lv_theme_t * lv_disp_get_theme(lv_disp_t * disp);
 100:lvgl/demos/widgets/../../src/core/lv_disp.h **** 
 101:lvgl/demos/widgets/../../src/core/lv_disp.h **** /**
 102:lvgl/demos/widgets/../../src/core/lv_disp.h ****  * Set the background color of a display
 103:lvgl/demos/widgets/../../src/core/lv_disp.h ****  * @param disp pointer to a display
 104:lvgl/demos/widgets/../../src/core/lv_disp.h ****  * @param color color of the background
 105:lvgl/demos/widgets/../../src/core/lv_disp.h ****  */
 106:lvgl/demos/widgets/../../src/core/lv_disp.h **** void lv_disp_set_bg_color(lv_disp_t * disp, lv_color_t color);
 107:lvgl/demos/widgets/../../src/core/lv_disp.h **** 
 108:lvgl/demos/widgets/../../src/core/lv_disp.h **** /**
ARM GAS  C:\Users\OSD\AppData\Local\Temp\ccdpxIfP.s 			page 19


 109:lvgl/demos/widgets/../../src/core/lv_disp.h ****  * Set the background image of a display
 110:lvgl/demos/widgets/../../src/core/lv_disp.h ****  * @param disp pointer to a display
 111:lvgl/demos/widgets/../../src/core/lv_disp.h ****  * @param img_src path to file or pointer to an `lv_img_dsc_t` variable
 112:lvgl/demos/widgets/../../src/core/lv_disp.h ****  */
 113:lvgl/demos/widgets/../../src/core/lv_disp.h **** void lv_disp_set_bg_image(lv_disp_t * disp, const void  * img_src);
 114:lvgl/demos/widgets/../../src/core/lv_disp.h **** 
 115:lvgl/demos/widgets/../../src/core/lv_disp.h **** /**
 116:lvgl/demos/widgets/../../src/core/lv_disp.h ****  * Set opacity of the background
 117:lvgl/demos/widgets/../../src/core/lv_disp.h ****  * @param disp pointer to a display
 118:lvgl/demos/widgets/../../src/core/lv_disp.h ****  * @param opa opacity (0..255)
 119:lvgl/demos/widgets/../../src/core/lv_disp.h ****  */
 120:lvgl/demos/widgets/../../src/core/lv_disp.h **** void lv_disp_set_bg_opa(lv_disp_t * disp, lv_opa_t opa);
 121:lvgl/demos/widgets/../../src/core/lv_disp.h **** 
 122:lvgl/demos/widgets/../../src/core/lv_disp.h **** /**
 123:lvgl/demos/widgets/../../src/core/lv_disp.h ****  * Switch screen with animation
 124:lvgl/demos/widgets/../../src/core/lv_disp.h ****  * @param scr pointer to the new screen to load
 125:lvgl/demos/widgets/../../src/core/lv_disp.h ****  * @param anim_type type of the animation from `lv_scr_load_anim_t`, e.g. `LV_SCR_LOAD_ANIM_MOVE_LE
 126:lvgl/demos/widgets/../../src/core/lv_disp.h ****  * @param time time of the animation
 127:lvgl/demos/widgets/../../src/core/lv_disp.h ****  * @param delay delay before the transition
 128:lvgl/demos/widgets/../../src/core/lv_disp.h ****  * @param auto_del true: automatically delete the old screen
 129:lvgl/demos/widgets/../../src/core/lv_disp.h ****  */
 130:lvgl/demos/widgets/../../src/core/lv_disp.h **** void lv_scr_load_anim(lv_obj_t * scr, lv_scr_load_anim_t anim_type, uint32_t time, uint32_t delay, 
 131:lvgl/demos/widgets/../../src/core/lv_disp.h **** 
 132:lvgl/demos/widgets/../../src/core/lv_disp.h **** /**
 133:lvgl/demos/widgets/../../src/core/lv_disp.h ****  * Get elapsed time since last user activity on a display (e.g. click)
 134:lvgl/demos/widgets/../../src/core/lv_disp.h ****  * @param disp pointer to a display (NULL to get the overall smallest inactivity)
 135:lvgl/demos/widgets/../../src/core/lv_disp.h ****  * @return elapsed ticks (milliseconds) since the last activity
 136:lvgl/demos/widgets/../../src/core/lv_disp.h ****  */
 137:lvgl/demos/widgets/../../src/core/lv_disp.h **** uint32_t lv_disp_get_inactive_time(const lv_disp_t * disp);
 138:lvgl/demos/widgets/../../src/core/lv_disp.h **** 
 139:lvgl/demos/widgets/../../src/core/lv_disp.h **** /**
 140:lvgl/demos/widgets/../../src/core/lv_disp.h ****  * Manually trigger an activity on a display
 141:lvgl/demos/widgets/../../src/core/lv_disp.h ****  * @param disp pointer to a display (NULL to use the default display)
 142:lvgl/demos/widgets/../../src/core/lv_disp.h ****  */
 143:lvgl/demos/widgets/../../src/core/lv_disp.h **** void lv_disp_trig_activity(lv_disp_t * disp);
 144:lvgl/demos/widgets/../../src/core/lv_disp.h **** 
 145:lvgl/demos/widgets/../../src/core/lv_disp.h **** /**
 146:lvgl/demos/widgets/../../src/core/lv_disp.h ****  * Clean any CPU cache that is related to the display.
 147:lvgl/demos/widgets/../../src/core/lv_disp.h ****  * @param disp pointer to a display (NULL to use the default display)
 148:lvgl/demos/widgets/../../src/core/lv_disp.h ****  */
 149:lvgl/demos/widgets/../../src/core/lv_disp.h **** void lv_disp_clean_dcache(lv_disp_t * disp);
 150:lvgl/demos/widgets/../../src/core/lv_disp.h **** 
 151:lvgl/demos/widgets/../../src/core/lv_disp.h **** /**
 152:lvgl/demos/widgets/../../src/core/lv_disp.h ****  * Temporarily enable and disable the invalidation of the display.
 153:lvgl/demos/widgets/../../src/core/lv_disp.h ****  * @param disp pointer to a display (NULL to use the default display)
 154:lvgl/demos/widgets/../../src/core/lv_disp.h ****  * @param en true: enable invalidation; false: invalidation
 155:lvgl/demos/widgets/../../src/core/lv_disp.h ****  */
 156:lvgl/demos/widgets/../../src/core/lv_disp.h **** void lv_disp_enable_invalidation(lv_disp_t * disp, bool en);
 157:lvgl/demos/widgets/../../src/core/lv_disp.h **** 
 158:lvgl/demos/widgets/../../src/core/lv_disp.h **** /**
 159:lvgl/demos/widgets/../../src/core/lv_disp.h ****  * Get display invalidation is enabled.
 160:lvgl/demos/widgets/../../src/core/lv_disp.h ****  * @param disp pointer to a display (NULL to use the default display)
 161:lvgl/demos/widgets/../../src/core/lv_disp.h ****  * @return return true if invalidation is enabled
 162:lvgl/demos/widgets/../../src/core/lv_disp.h ****  */
 163:lvgl/demos/widgets/../../src/core/lv_disp.h **** bool lv_disp_is_invalidation_enabled(lv_disp_t * disp);
 164:lvgl/demos/widgets/../../src/core/lv_disp.h **** 
 165:lvgl/demos/widgets/../../src/core/lv_disp.h **** /**
ARM GAS  C:\Users\OSD\AppData\Local\Temp\ccdpxIfP.s 			page 20


 166:lvgl/demos/widgets/../../src/core/lv_disp.h ****  * Get a pointer to the screen refresher timer to
 167:lvgl/demos/widgets/../../src/core/lv_disp.h ****  * modify its parameters with `lv_timer_...` functions.
 168:lvgl/demos/widgets/../../src/core/lv_disp.h ****  * @param disp pointer to a display
 169:lvgl/demos/widgets/../../src/core/lv_disp.h ****  * @return pointer to the display refresher timer. (NULL on error)
 170:lvgl/demos/widgets/../../src/core/lv_disp.h ****  */
 171:lvgl/demos/widgets/../../src/core/lv_disp.h **** lv_timer_t * _lv_disp_get_refr_timer(lv_disp_t * disp);
 172:lvgl/demos/widgets/../../src/core/lv_disp.h **** 
 173:lvgl/demos/widgets/../../src/core/lv_disp.h **** /*------------------------------------------------
 174:lvgl/demos/widgets/../../src/core/lv_disp.h ****  * To improve backward compatibility
 175:lvgl/demos/widgets/../../src/core/lv_disp.h ****  * Recommended only if you have one display
 176:lvgl/demos/widgets/../../src/core/lv_disp.h ****  *------------------------------------------------*/
 177:lvgl/demos/widgets/../../src/core/lv_disp.h **** 
 178:lvgl/demos/widgets/../../src/core/lv_disp.h **** /**
 179:lvgl/demos/widgets/../../src/core/lv_disp.h ****  * Get the active screen of the default display
 180:lvgl/demos/widgets/../../src/core/lv_disp.h ****  * @return pointer to the active screen
 181:lvgl/demos/widgets/../../src/core/lv_disp.h ****  */
 182:lvgl/demos/widgets/../../src/core/lv_disp.h **** static inline lv_obj_t * lv_scr_act(void)
 399              		.loc 3 182 26 view .LVU59
 400              	.LBB179:
 183:lvgl/demos/widgets/../../src/core/lv_disp.h **** {
 184:lvgl/demos/widgets/../../src/core/lv_disp.h ****     return lv_disp_get_scr_act(lv_disp_get_default());
 401              		.loc 3 184 5 view .LVU60
 402              		.loc 3 184 12 is_stmt 0 view .LVU61
 403 0116 FFF7FEFF 		bl	lv_disp_get_default
 404              	.LVL48:
 405 011a FFF7FEFF 		bl	lv_disp_get_scr_act
 406              	.LVL49:
 407              	.LBE179:
 408              	.LBE178:
 409              		.loc 1 269 21 view .LVU62
 410 011e FFF7FEFF 		bl	lv_keyboard_create
 411              	.LVL50:
 412 0122 0746     		mov	r7, r0
 413              	.LVL51:
 270:lvgl/demos/widgets/lv_demo_widgets.c ****     lv_obj_add_flag(kb, LV_OBJ_FLAG_HIDDEN);
 414              		.loc 1 270 5 is_stmt 1 view .LVU63
 415 0124 0121     		movs	r1, #1
 416 0126 FFF7FEFF 		bl	lv_obj_add_flag
 417              	.LVL52:
 271:lvgl/demos/widgets/lv_demo_widgets.c **** 
 272:lvgl/demos/widgets/lv_demo_widgets.c ****     /*Create the second panel*/
 273:lvgl/demos/widgets/lv_demo_widgets.c ****     lv_obj_t * panel2 = lv_obj_create(parent);
 418              		.loc 1 273 5 view .LVU64
 419              		.loc 1 273 25 is_stmt 0 view .LVU65
 420 012a 3046     		mov	r0, r6
 421 012c FFF7FEFF 		bl	lv_obj_create
 422              	.LVL53:
 423 0130 0546     		mov	r5, r0
 424              	.LVL54:
 274:lvgl/demos/widgets/lv_demo_widgets.c ****     lv_obj_set_height(panel2, LV_SIZE_CONTENT);
 425              		.loc 1 274 5 is_stmt 1 view .LVU66
 426 0132 42F2D171 		movw	r1, #10193
 427 0136 FFF7FEFF 		bl	lv_obj_set_height
 428              	.LVL55:
 275:lvgl/demos/widgets/lv_demo_widgets.c **** 
 276:lvgl/demos/widgets/lv_demo_widgets.c ****     lv_obj_t * panel2_title = lv_label_create(panel2);
 429              		.loc 1 276 5 view .LVU67
ARM GAS  C:\Users\OSD\AppData\Local\Temp\ccdpxIfP.s 			page 21


 430              		.loc 1 276 31 is_stmt 0 view .LVU68
 431 013a 2846     		mov	r0, r5
 432 013c FFF7FEFF 		bl	lv_label_create
 433              	.LVL56:
 434 0140 8346     		mov	fp, r0
 435 0142 1090     		str	r0, [sp, #64]
 436              	.LVL57:
 277:lvgl/demos/widgets/lv_demo_widgets.c ****     lv_label_set_text(panel2_title, "Your profile");
 437              		.loc 1 277 5 is_stmt 1 view .LVU69
 438 0144 7649     		ldr	r1, .L9+44
 439 0146 FFF7FEFF 		bl	lv_label_set_text
 440              	.LVL58:
 278:lvgl/demos/widgets/lv_demo_widgets.c ****     lv_obj_add_style(panel2_title, &style_title, 0);
 441              		.loc 1 278 5 view .LVU70
 442 014a 0022     		movs	r2, #0
 443 014c 5146     		mov	r1, r10
 444 014e 5846     		mov	r0, fp
 445 0150 FFF7FEFF 		bl	lv_obj_add_style
 446              	.LVL59:
 279:lvgl/demos/widgets/lv_demo_widgets.c **** 
 280:lvgl/demos/widgets/lv_demo_widgets.c ****     lv_obj_t * user_name_label = lv_label_create(panel2);
 447              		.loc 1 280 5 view .LVU71
 448              		.loc 1 280 34 is_stmt 0 view .LVU72
 449 0154 2846     		mov	r0, r5
 450 0156 FFF7FEFF 		bl	lv_label_create
 451              	.LVL60:
 452 015a 8346     		mov	fp, r0
 453              	.LVL61:
 454              		.loc 1 280 34 view .LVU73
 455 015c 1190     		str	r0, [sp, #68]
 456              	.LVL62:
 281:lvgl/demos/widgets/lv_demo_widgets.c ****     lv_label_set_text(user_name_label, "User name");
 457              		.loc 1 281 5 is_stmt 1 view .LVU74
 458 015e 7149     		ldr	r1, .L9+48
 459 0160 FFF7FEFF 		bl	lv_label_set_text
 460              	.LVL63:
 282:lvgl/demos/widgets/lv_demo_widgets.c ****     lv_obj_add_style(user_name_label, &style_text_muted, 0);
 461              		.loc 1 282 5 view .LVU75
 462 0164 0022     		movs	r2, #0
 463 0166 2146     		mov	r1, r4
 464 0168 5846     		mov	r0, fp
 465 016a FFF7FEFF 		bl	lv_obj_add_style
 466              	.LVL64:
 283:lvgl/demos/widgets/lv_demo_widgets.c **** 
 284:lvgl/demos/widgets/lv_demo_widgets.c ****     lv_obj_t * user_name = lv_textarea_create(panel2);
 467              		.loc 1 284 5 view .LVU76
 468              		.loc 1 284 28 is_stmt 0 view .LVU77
 469 016e 2846     		mov	r0, r5
 470 0170 FFF7FEFF 		bl	lv_textarea_create
 471              	.LVL65:
 472 0174 8346     		mov	fp, r0
 473              	.LVL66:
 285:lvgl/demos/widgets/lv_demo_widgets.c ****     lv_textarea_set_one_line(user_name, true);
 474              		.loc 1 285 5 is_stmt 1 view .LVU78
 475 0176 0121     		movs	r1, #1
 476 0178 FFF7FEFF 		bl	lv_textarea_set_one_line
 477              	.LVL67:
ARM GAS  C:\Users\OSD\AppData\Local\Temp\ccdpxIfP.s 			page 22


 286:lvgl/demos/widgets/lv_demo_widgets.c ****     lv_textarea_set_placeholder_text(user_name, "Your name");
 478              		.loc 1 286 5 view .LVU79
 479 017c 6A49     		ldr	r1, .L9+52
 480 017e CDF818B0 		str	fp, [sp, #24]
 481 0182 5846     		mov	r0, fp
 482 0184 FFF7FEFF 		bl	lv_textarea_set_placeholder_text
 483              	.LVL68:
 287:lvgl/demos/widgets/lv_demo_widgets.c ****     lv_obj_add_event_cb(user_name, ta_event_cb, LV_EVENT_ALL, kb);
 484              		.loc 1 287 5 view .LVU80
 485 0188 DFF8D4B1 		ldr	fp, .L9+108
 486              	.LVL69:
 487              		.loc 1 287 5 is_stmt 0 view .LVU81
 488 018c 3B46     		mov	r3, r7
 489 018e 0022     		movs	r2, #0
 490 0190 5946     		mov	r1, fp
 491 0192 0698     		ldr	r0, [sp, #24]
 492 0194 FFF7FEFF 		bl	lv_obj_add_event_cb
 493              	.LVL70:
 288:lvgl/demos/widgets/lv_demo_widgets.c **** 
 289:lvgl/demos/widgets/lv_demo_widgets.c ****     lv_obj_t * password_label = lv_label_create(panel2);
 494              		.loc 1 289 5 is_stmt 1 view .LVU82
 495              		.loc 1 289 33 is_stmt 0 view .LVU83
 496 0198 2846     		mov	r0, r5
 497 019a FFF7FEFF 		bl	lv_label_create
 498              	.LVL71:
 499 019e 0790     		str	r0, [sp, #28]
 500              	.LVL72:
 290:lvgl/demos/widgets/lv_demo_widgets.c ****     lv_label_set_text(password_label, "Password");
 501              		.loc 1 290 5 is_stmt 1 view .LVU84
 502 01a0 6249     		ldr	r1, .L9+56
 503 01a2 FFF7FEFF 		bl	lv_label_set_text
 504              	.LVL73:
 291:lvgl/demos/widgets/lv_demo_widgets.c ****     lv_obj_add_style(password_label, &style_text_muted, 0);
 505              		.loc 1 291 5 view .LVU85
 506 01a6 0022     		movs	r2, #0
 507 01a8 2146     		mov	r1, r4
 508 01aa 0798     		ldr	r0, [sp, #28]
 509 01ac FFF7FEFF 		bl	lv_obj_add_style
 510              	.LVL74:
 292:lvgl/demos/widgets/lv_demo_widgets.c **** 
 293:lvgl/demos/widgets/lv_demo_widgets.c ****     lv_obj_t * password = lv_textarea_create(panel2);
 511              		.loc 1 293 5 view .LVU86
 512              		.loc 1 293 27 is_stmt 0 view .LVU87
 513 01b0 2846     		mov	r0, r5
 514 01b2 FFF7FEFF 		bl	lv_textarea_create
 515              	.LVL75:
 516 01b6 0590     		str	r0, [sp, #20]
 517              	.LVL76:
 294:lvgl/demos/widgets/lv_demo_widgets.c ****     lv_textarea_set_one_line(password, true);
 518              		.loc 1 294 5 is_stmt 1 view .LVU88
 519 01b8 0121     		movs	r1, #1
 520 01ba FFF7FEFF 		bl	lv_textarea_set_one_line
 521              	.LVL77:
 295:lvgl/demos/widgets/lv_demo_widgets.c ****     lv_textarea_set_password_mode(password, true);
 522              		.loc 1 295 5 view .LVU89
 523 01be 0121     		movs	r1, #1
 524 01c0 0598     		ldr	r0, [sp, #20]
ARM GAS  C:\Users\OSD\AppData\Local\Temp\ccdpxIfP.s 			page 23


 525 01c2 FFF7FEFF 		bl	lv_textarea_set_password_mode
 526              	.LVL78:
 296:lvgl/demos/widgets/lv_demo_widgets.c ****     lv_textarea_set_placeholder_text(password, "Min. 8 chars.");
 527              		.loc 1 296 5 view .LVU90
 528 01c6 5A49     		ldr	r1, .L9+60
 529 01c8 0598     		ldr	r0, [sp, #20]
 530 01ca FFF7FEFF 		bl	lv_textarea_set_placeholder_text
 531              	.LVL79:
 297:lvgl/demos/widgets/lv_demo_widgets.c ****     lv_obj_add_event_cb(password, ta_event_cb, LV_EVENT_ALL, kb);
 532              		.loc 1 297 5 view .LVU91
 533 01ce 3B46     		mov	r3, r7
 534 01d0 0022     		movs	r2, #0
 535 01d2 5946     		mov	r1, fp
 536 01d4 0598     		ldr	r0, [sp, #20]
 537 01d6 FFF7FEFF 		bl	lv_obj_add_event_cb
 538              	.LVL80:
 298:lvgl/demos/widgets/lv_demo_widgets.c **** 
 299:lvgl/demos/widgets/lv_demo_widgets.c ****     lv_obj_t * gender_label = lv_label_create(panel2);
 539              		.loc 1 299 5 view .LVU92
 540              		.loc 1 299 31 is_stmt 0 view .LVU93
 541 01da 2846     		mov	r0, r5
 542 01dc FFF7FEFF 		bl	lv_label_create
 543              	.LVL81:
 544 01e0 0746     		mov	r7, r0
 545              	.LVL82:
 546              		.loc 1 299 31 view .LVU94
 547 01e2 1290     		str	r0, [sp, #72]
 548              	.LVL83:
 300:lvgl/demos/widgets/lv_demo_widgets.c ****     lv_label_set_text(gender_label, "Gender");
 549              		.loc 1 300 5 is_stmt 1 view .LVU95
 550 01e4 5349     		ldr	r1, .L9+64
 551 01e6 FFF7FEFF 		bl	lv_label_set_text
 552              	.LVL84:
 301:lvgl/demos/widgets/lv_demo_widgets.c ****     lv_obj_add_style(gender_label, &style_text_muted, 0);
 553              		.loc 1 301 5 view .LVU96
 554 01ea 0022     		movs	r2, #0
 555 01ec 2146     		mov	r1, r4
 556 01ee 3846     		mov	r0, r7
 557 01f0 FFF7FEFF 		bl	lv_obj_add_style
 558              	.LVL85:
 302:lvgl/demos/widgets/lv_demo_widgets.c **** 
 303:lvgl/demos/widgets/lv_demo_widgets.c ****     lv_obj_t * gender = lv_dropdown_create(panel2);
 559              		.loc 1 303 5 view .LVU97
 560              		.loc 1 303 25 is_stmt 0 view .LVU98
 561 01f4 2846     		mov	r0, r5
 562 01f6 FFF7FEFF 		bl	lv_dropdown_create
 563              	.LVL86:
 564 01fa 1390     		str	r0, [sp, #76]
 565              	.LVL87:
 304:lvgl/demos/widgets/lv_demo_widgets.c ****     lv_dropdown_set_options_static(gender, "Male\nFemale\nOther");
 566              		.loc 1 304 5 is_stmt 1 view .LVU99
 567 01fc 4E49     		ldr	r1, .L9+68
 568 01fe FFF7FEFF 		bl	lv_dropdown_set_options_static
 569              	.LVL88:
 305:lvgl/demos/widgets/lv_demo_widgets.c **** 
 306:lvgl/demos/widgets/lv_demo_widgets.c ****     lv_obj_t * birthday_label = lv_label_create(panel2);
 570              		.loc 1 306 5 view .LVU100
ARM GAS  C:\Users\OSD\AppData\Local\Temp\ccdpxIfP.s 			page 24


 571              		.loc 1 306 33 is_stmt 0 view .LVU101
 572 0202 2846     		mov	r0, r5
 573 0204 FFF7FEFF 		bl	lv_label_create
 574              	.LVL89:
 575 0208 0746     		mov	r7, r0
 576              	.LVL90:
 577              		.loc 1 306 33 view .LVU102
 578 020a 1490     		str	r0, [sp, #80]
 579              	.LVL91:
 307:lvgl/demos/widgets/lv_demo_widgets.c ****     lv_label_set_text(birthday_label, "Birthday");
 580              		.loc 1 307 5 is_stmt 1 view .LVU103
 581 020c 4B49     		ldr	r1, .L9+72
 582 020e FFF7FEFF 		bl	lv_label_set_text
 583              	.LVL92:
 308:lvgl/demos/widgets/lv_demo_widgets.c ****     lv_obj_add_style(birthday_label, &style_text_muted, 0);
 584              		.loc 1 308 5 view .LVU104
 585 0212 0022     		movs	r2, #0
 586 0214 2146     		mov	r1, r4
 587 0216 3846     		mov	r0, r7
 588 0218 FFF7FEFF 		bl	lv_obj_add_style
 589              	.LVL93:
 309:lvgl/demos/widgets/lv_demo_widgets.c **** 
 310:lvgl/demos/widgets/lv_demo_widgets.c ****     lv_obj_t * birthdate = lv_textarea_create(panel2);
 590              		.loc 1 310 5 view .LVU105
 591              		.loc 1 310 28 is_stmt 0 view .LVU106
 592 021c 2846     		mov	r0, r5
 593 021e FFF7FEFF 		bl	lv_textarea_create
 594              	.LVL94:
 595 0222 0746     		mov	r7, r0
 596              	.LVL95:
 597              		.loc 1 310 28 view .LVU107
 598 0224 1590     		str	r0, [sp, #84]
 599              	.LVL96:
 311:lvgl/demos/widgets/lv_demo_widgets.c ****     lv_textarea_set_one_line(birthdate, true);
 600              		.loc 1 311 5 is_stmt 1 view .LVU108
 601 0226 0121     		movs	r1, #1
 602 0228 FFF7FEFF 		bl	lv_textarea_set_one_line
 603              	.LVL97:
 312:lvgl/demos/widgets/lv_demo_widgets.c ****     lv_obj_add_event_cb(birthdate, birthday_event_cb, LV_EVENT_ALL, NULL);
 604              		.loc 1 312 5 view .LVU109
 605 022c 0023     		movs	r3, #0
 606 022e 1A46     		mov	r2, r3
 607 0230 4349     		ldr	r1, .L9+76
 608 0232 3846     		mov	r0, r7
 609 0234 FFF7FEFF 		bl	lv_obj_add_event_cb
 610              	.LVL98:
 313:lvgl/demos/widgets/lv_demo_widgets.c **** 
 314:lvgl/demos/widgets/lv_demo_widgets.c ****     /*Create the third panel*/
 315:lvgl/demos/widgets/lv_demo_widgets.c ****     lv_obj_t * panel3 = lv_obj_create(parent);
 611              		.loc 1 315 5 view .LVU110
 612              		.loc 1 315 25 is_stmt 0 view .LVU111
 613 0238 3046     		mov	r0, r6
 614 023a FFF7FEFF 		bl	lv_obj_create
 615              	.LVL99:
 616 023e 0746     		mov	r7, r0
 617              	.LVL100:
 316:lvgl/demos/widgets/lv_demo_widgets.c ****     lv_obj_t * panel3_title = lv_label_create(panel3);
ARM GAS  C:\Users\OSD\AppData\Local\Temp\ccdpxIfP.s 			page 25


 618              		.loc 1 316 5 is_stmt 1 view .LVU112
 619              		.loc 1 316 31 is_stmt 0 view .LVU113
 620 0240 FFF7FEFF 		bl	lv_label_create
 621              	.LVL101:
 622              		.loc 1 316 31 view .LVU114
 623 0244 8346     		mov	fp, r0
 624 0246 1690     		str	r0, [sp, #88]
 625              	.LVL102:
 317:lvgl/demos/widgets/lv_demo_widgets.c ****     lv_label_set_text(panel3_title, "Your skills");
 626              		.loc 1 317 5 is_stmt 1 view .LVU115
 627 0248 3E49     		ldr	r1, .L9+80
 628 024a FFF7FEFF 		bl	lv_label_set_text
 629              	.LVL103:
 318:lvgl/demos/widgets/lv_demo_widgets.c ****     lv_obj_add_style(panel3_title, &style_title, 0);
 630              		.loc 1 318 5 view .LVU116
 631 024e 0022     		movs	r2, #0
 632 0250 5146     		mov	r1, r10
 633 0252 5846     		mov	r0, fp
 634 0254 FFF7FEFF 		bl	lv_obj_add_style
 635              	.LVL104:
 319:lvgl/demos/widgets/lv_demo_widgets.c **** 
 320:lvgl/demos/widgets/lv_demo_widgets.c ****     lv_obj_t * experience_label = lv_label_create(panel3);
 636              		.loc 1 320 5 view .LVU117
 637              		.loc 1 320 35 is_stmt 0 view .LVU118
 638 0258 3846     		mov	r0, r7
 639 025a FFF7FEFF 		bl	lv_label_create
 640              	.LVL105:
 641 025e 8246     		mov	r10, r0
 642 0260 1790     		str	r0, [sp, #92]
 643              	.LVL106:
 321:lvgl/demos/widgets/lv_demo_widgets.c ****     lv_label_set_text(experience_label, "Experience");
 644              		.loc 1 321 5 is_stmt 1 view .LVU119
 645 0262 3949     		ldr	r1, .L9+84
 646 0264 FFF7FEFF 		bl	lv_label_set_text
 647              	.LVL107:
 322:lvgl/demos/widgets/lv_demo_widgets.c ****     lv_obj_add_style(experience_label, &style_text_muted, 0);
 648              		.loc 1 322 5 view .LVU120
 649 0268 0022     		movs	r2, #0
 650 026a 2146     		mov	r1, r4
 651 026c 5046     		mov	r0, r10
 652 026e FFF7FEFF 		bl	lv_obj_add_style
 653              	.LVL108:
 323:lvgl/demos/widgets/lv_demo_widgets.c **** 
 324:lvgl/demos/widgets/lv_demo_widgets.c ****     lv_obj_t * slider1 = lv_slider_create(panel3);
 654              		.loc 1 324 5 view .LVU121
 655              		.loc 1 324 26 is_stmt 0 view .LVU122
 656 0272 3846     		mov	r0, r7
 657 0274 FFF7FEFF 		bl	lv_slider_create
 658              	.LVL109:
 659 0278 8346     		mov	fp, r0
 660              	.LVL110:
 325:lvgl/demos/widgets/lv_demo_widgets.c ****     lv_obj_set_width(slider1, LV_PCT(95));
 661              		.loc 1 325 5 is_stmt 1 view .LVU123
 662 027a 42F25F01 		movw	r1, #8287
 663 027e FFF7FEFF 		bl	lv_obj_set_width
 664              	.LVL111:
 326:lvgl/demos/widgets/lv_demo_widgets.c ****     lv_obj_add_event_cb(slider1, slider_event_cb, LV_EVENT_ALL, NULL);
ARM GAS  C:\Users\OSD\AppData\Local\Temp\ccdpxIfP.s 			page 26


 665              		.loc 1 326 5 view .LVU124
 666 0282 0023     		movs	r3, #0
 667 0284 1A46     		mov	r2, r3
 668 0286 3149     		ldr	r1, .L9+88
 669 0288 5846     		mov	r0, fp
 670 028a FFF7FEFF 		bl	lv_obj_add_event_cb
 671              	.LVL112:
 327:lvgl/demos/widgets/lv_demo_widgets.c ****     lv_obj_refresh_ext_draw_size(slider1);
 672              		.loc 1 327 5 view .LVU125
 673 028e 5846     		mov	r0, fp
 674 0290 FFF7FEFF 		bl	lv_obj_refresh_ext_draw_size
 675              	.LVL113:
 328:lvgl/demos/widgets/lv_demo_widgets.c **** 
 329:lvgl/demos/widgets/lv_demo_widgets.c ****     lv_obj_t * team_player_label = lv_label_create(panel3);
 676              		.loc 1 329 5 view .LVU126
 677              		.loc 1 329 36 is_stmt 0 view .LVU127
 678 0294 3846     		mov	r0, r7
 679 0296 FFF7FEFF 		bl	lv_label_create
 680              	.LVL114:
 681 029a 8246     		mov	r10, r0
 682              	.LVL115:
 683              		.loc 1 329 36 view .LVU128
 684 029c 1890     		str	r0, [sp, #96]
 685              	.LVL116:
 330:lvgl/demos/widgets/lv_demo_widgets.c ****     lv_label_set_text(team_player_label, "Team player");
 686              		.loc 1 330 5 is_stmt 1 view .LVU129
 687 029e 2C49     		ldr	r1, .L9+92
 688 02a0 FFF7FEFF 		bl	lv_label_set_text
 689              	.LVL117:
 331:lvgl/demos/widgets/lv_demo_widgets.c ****     lv_obj_add_style(team_player_label, &style_text_muted, 0);
 690              		.loc 1 331 5 view .LVU130
 691 02a4 0022     		movs	r2, #0
 692 02a6 2146     		mov	r1, r4
 693 02a8 5046     		mov	r0, r10
 694 02aa FFF7FEFF 		bl	lv_obj_add_style
 695              	.LVL118:
 332:lvgl/demos/widgets/lv_demo_widgets.c **** 
 333:lvgl/demos/widgets/lv_demo_widgets.c ****     lv_obj_t * sw1 = lv_switch_create(panel3);
 696              		.loc 1 333 5 view .LVU131
 697              		.loc 1 333 22 is_stmt 0 view .LVU132
 698 02ae 3846     		mov	r0, r7
 699 02b0 FFF7FEFF 		bl	lv_switch_create
 700              	.LVL119:
 701 02b4 1990     		str	r0, [sp, #100]
 702              	.LVL120:
 334:lvgl/demos/widgets/lv_demo_widgets.c **** 
 335:lvgl/demos/widgets/lv_demo_widgets.c ****     lv_obj_t * hard_working_label = lv_label_create(panel3);
 703              		.loc 1 335 5 is_stmt 1 view .LVU133
 704              		.loc 1 335 37 is_stmt 0 view .LVU134
 705 02b6 3846     		mov	r0, r7
 706              	.LVL121:
 707              		.loc 1 335 37 view .LVU135
 708 02b8 FFF7FEFF 		bl	lv_label_create
 709              	.LVL122:
 710 02bc 8246     		mov	r10, r0
 711              	.LVL123:
 712              		.loc 1 335 37 view .LVU136
ARM GAS  C:\Users\OSD\AppData\Local\Temp\ccdpxIfP.s 			page 27


 713 02be 1A90     		str	r0, [sp, #104]
 714              	.LVL124:
 336:lvgl/demos/widgets/lv_demo_widgets.c ****     lv_label_set_text(hard_working_label, "Hard-working");
 715              		.loc 1 336 5 is_stmt 1 view .LVU137
 716 02c0 2449     		ldr	r1, .L9+96
 717 02c2 FFF7FEFF 		bl	lv_label_set_text
 718              	.LVL125:
 337:lvgl/demos/widgets/lv_demo_widgets.c ****     lv_obj_add_style(hard_working_label, &style_text_muted, 0);
 719              		.loc 1 337 5 view .LVU138
 720 02c6 0022     		movs	r2, #0
 721 02c8 2146     		mov	r1, r4
 722 02ca 5046     		mov	r0, r10
 723 02cc FFF7FEFF 		bl	lv_obj_add_style
 724              	.LVL126:
 338:lvgl/demos/widgets/lv_demo_widgets.c **** 
 339:lvgl/demos/widgets/lv_demo_widgets.c ****     lv_obj_t * sw2 = lv_switch_create(panel3);
 725              		.loc 1 339 5 view .LVU139
 726              		.loc 1 339 22 is_stmt 0 view .LVU140
 727 02d0 3846     		mov	r0, r7
 728 02d2 FFF7FEFF 		bl	lv_switch_create
 729              	.LVL127:
 730 02d6 1B90     		str	r0, [sp, #108]
 731              	.LVL128:
 340:lvgl/demos/widgets/lv_demo_widgets.c **** 
 341:lvgl/demos/widgets/lv_demo_widgets.c ****     if(disp_size == DISP_LARGE) {
 732              		.loc 1 341 5 is_stmt 1 view .LVU141
 733              		.loc 1 341 18 is_stmt 0 view .LVU142
 734 02d8 1F4B     		ldr	r3, .L9+100
 735 02da 1B78     		ldrb	r3, [r3]	@ zero_extendqisi2
 736              		.loc 1 341 7 view .LVU143
 737 02dc 022B     		cmp	r3, #2
 738 02de 41D0     		beq	.L6
 342:lvgl/demos/widgets/lv_demo_widgets.c ****         static lv_coord_t grid_main_col_dsc[] = {LV_GRID_FR(1), LV_GRID_FR(1), LV_GRID_TEMPLATE_LAS
 343:lvgl/demos/widgets/lv_demo_widgets.c ****         static lv_coord_t grid_main_row_dsc[] = {LV_GRID_CONTENT, LV_GRID_CONTENT, LV_GRID_TEMPLATE
 344:lvgl/demos/widgets/lv_demo_widgets.c **** 
 345:lvgl/demos/widgets/lv_demo_widgets.c ****         /*Create the top panel*/
 346:lvgl/demos/widgets/lv_demo_widgets.c ****         static lv_coord_t grid_1_col_dsc[] = {LV_GRID_CONTENT, 5, LV_GRID_CONTENT, LV_GRID_FR(2), L
 347:lvgl/demos/widgets/lv_demo_widgets.c ****         static lv_coord_t grid_1_row_dsc[] = {LV_GRID_CONTENT, LV_GRID_CONTENT, 10, LV_GRID_CONTENT
 348:lvgl/demos/widgets/lv_demo_widgets.c **** 
 349:lvgl/demos/widgets/lv_demo_widgets.c ****         static lv_coord_t grid_2_col_dsc[] = {LV_GRID_FR(1), LV_GRID_FR(1), LV_GRID_TEMPLATE_LAST};
 350:lvgl/demos/widgets/lv_demo_widgets.c ****         static lv_coord_t grid_2_row_dsc[] = {
 351:lvgl/demos/widgets/lv_demo_widgets.c ****             LV_GRID_CONTENT,  /*Title*/
 352:lvgl/demos/widgets/lv_demo_widgets.c ****             5,                /*Separator*/
 353:lvgl/demos/widgets/lv_demo_widgets.c ****             LV_GRID_CONTENT,  /*Box title*/
 354:lvgl/demos/widgets/lv_demo_widgets.c ****             30,               /*Boxes*/
 355:lvgl/demos/widgets/lv_demo_widgets.c ****             5,                /*Separator*/
 356:lvgl/demos/widgets/lv_demo_widgets.c ****             LV_GRID_CONTENT,  /*Box title*/
 357:lvgl/demos/widgets/lv_demo_widgets.c ****             30,               /*Boxes*/
 358:lvgl/demos/widgets/lv_demo_widgets.c ****             LV_GRID_TEMPLATE_LAST
 359:lvgl/demos/widgets/lv_demo_widgets.c ****         };
 360:lvgl/demos/widgets/lv_demo_widgets.c **** 
 361:lvgl/demos/widgets/lv_demo_widgets.c ****         lv_obj_set_grid_dsc_array(parent, grid_main_col_dsc, grid_main_row_dsc);
 362:lvgl/demos/widgets/lv_demo_widgets.c **** 
 363:lvgl/demos/widgets/lv_demo_widgets.c ****         lv_obj_set_grid_cell(panel1, LV_GRID_ALIGN_STRETCH, 0, 2, LV_GRID_ALIGN_CENTER, 0, 1);
 364:lvgl/demos/widgets/lv_demo_widgets.c **** 
 365:lvgl/demos/widgets/lv_demo_widgets.c ****         lv_obj_set_grid_dsc_array(panel1, grid_1_col_dsc, grid_1_row_dsc);
 366:lvgl/demos/widgets/lv_demo_widgets.c ****         lv_obj_set_grid_cell(avatar, LV_GRID_ALIGN_CENTER, 0, 1, LV_GRID_ALIGN_CENTER, 0, 5);
ARM GAS  C:\Users\OSD\AppData\Local\Temp\ccdpxIfP.s 			page 28


 367:lvgl/demos/widgets/lv_demo_widgets.c ****         lv_obj_set_grid_cell(name, LV_GRID_ALIGN_START, 2, 2, LV_GRID_ALIGN_CENTER, 0, 1);
 368:lvgl/demos/widgets/lv_demo_widgets.c ****         lv_obj_set_grid_cell(dsc, LV_GRID_ALIGN_STRETCH, 2, 4, LV_GRID_ALIGN_START, 1, 1);
 369:lvgl/demos/widgets/lv_demo_widgets.c ****         lv_obj_set_grid_cell(email_icn, LV_GRID_ALIGN_CENTER, 2, 1, LV_GRID_ALIGN_CENTER, 3, 1);
 370:lvgl/demos/widgets/lv_demo_widgets.c ****         lv_obj_set_grid_cell(email_label, LV_GRID_ALIGN_START, 3, 1, LV_GRID_ALIGN_CENTER, 3, 1);
 371:lvgl/demos/widgets/lv_demo_widgets.c ****         lv_obj_set_grid_cell(call_icn, LV_GRID_ALIGN_CENTER, 2, 1, LV_GRID_ALIGN_CENTER, 4, 1);
 372:lvgl/demos/widgets/lv_demo_widgets.c ****         lv_obj_set_grid_cell(call_label, LV_GRID_ALIGN_START, 3, 1, LV_GRID_ALIGN_CENTER, 4, 1);
 373:lvgl/demos/widgets/lv_demo_widgets.c ****         lv_obj_set_grid_cell(log_out_btn, LV_GRID_ALIGN_STRETCH, 4, 1, LV_GRID_ALIGN_CENTER, 3, 2);
 374:lvgl/demos/widgets/lv_demo_widgets.c ****         lv_obj_set_grid_cell(invite_btn, LV_GRID_ALIGN_STRETCH, 5, 1, LV_GRID_ALIGN_CENTER, 3, 2);
 375:lvgl/demos/widgets/lv_demo_widgets.c **** 
 376:lvgl/demos/widgets/lv_demo_widgets.c ****         lv_obj_set_grid_cell(panel2, LV_GRID_ALIGN_STRETCH, 0, 1, LV_GRID_ALIGN_START, 1, 1);
 377:lvgl/demos/widgets/lv_demo_widgets.c ****         lv_obj_set_grid_dsc_array(panel2, grid_2_col_dsc, grid_2_row_dsc);
 378:lvgl/demos/widgets/lv_demo_widgets.c ****         lv_obj_set_grid_cell(panel2_title, LV_GRID_ALIGN_START, 0, 2, LV_GRID_ALIGN_CENTER, 0, 1);
 379:lvgl/demos/widgets/lv_demo_widgets.c ****         lv_obj_set_grid_cell(user_name, LV_GRID_ALIGN_STRETCH, 0, 1, LV_GRID_ALIGN_CENTER, 3, 1);
 380:lvgl/demos/widgets/lv_demo_widgets.c ****         lv_obj_set_grid_cell(user_name_label, LV_GRID_ALIGN_START, 0, 1, LV_GRID_ALIGN_START, 2, 1)
 381:lvgl/demos/widgets/lv_demo_widgets.c ****         lv_obj_set_grid_cell(password, LV_GRID_ALIGN_STRETCH, 1, 1, LV_GRID_ALIGN_CENTER, 3, 1);
 382:lvgl/demos/widgets/lv_demo_widgets.c ****         lv_obj_set_grid_cell(password_label, LV_GRID_ALIGN_START, 1, 1, LV_GRID_ALIGN_START, 2, 1);
 383:lvgl/demos/widgets/lv_demo_widgets.c ****         lv_obj_set_grid_cell(birthdate, LV_GRID_ALIGN_STRETCH, 1, 1, LV_GRID_ALIGN_CENTER, 6, 1);
 384:lvgl/demos/widgets/lv_demo_widgets.c ****         lv_obj_set_grid_cell(birthday_label, LV_GRID_ALIGN_START, 1, 1, LV_GRID_ALIGN_START, 5, 1);
 385:lvgl/demos/widgets/lv_demo_widgets.c ****         lv_obj_set_grid_cell(gender, LV_GRID_ALIGN_STRETCH, 0, 1, LV_GRID_ALIGN_CENTER, 6, 1);
 386:lvgl/demos/widgets/lv_demo_widgets.c ****         lv_obj_set_grid_cell(gender_label, LV_GRID_ALIGN_START, 0, 1, LV_GRID_ALIGN_START, 5, 1);
 387:lvgl/demos/widgets/lv_demo_widgets.c **** 
 388:lvgl/demos/widgets/lv_demo_widgets.c ****         lv_obj_set_grid_cell(panel3, LV_GRID_ALIGN_STRETCH, 1, 1, LV_GRID_ALIGN_STRETCH, 1, 1);
 389:lvgl/demos/widgets/lv_demo_widgets.c ****         lv_obj_set_grid_dsc_array(panel3, grid_2_col_dsc, grid_2_row_dsc);
 390:lvgl/demos/widgets/lv_demo_widgets.c ****         lv_obj_set_grid_cell(panel3_title, LV_GRID_ALIGN_START, 0, 2, LV_GRID_ALIGN_CENTER, 0, 1);
 391:lvgl/demos/widgets/lv_demo_widgets.c ****         lv_obj_set_grid_cell(slider1, LV_GRID_ALIGN_CENTER, 0, 2, LV_GRID_ALIGN_CENTER, 3, 1);
 392:lvgl/demos/widgets/lv_demo_widgets.c ****         lv_obj_set_grid_cell(experience_label, LV_GRID_ALIGN_START, 0, 1, LV_GRID_ALIGN_START, 2, 1
 393:lvgl/demos/widgets/lv_demo_widgets.c ****         lv_obj_set_grid_cell(sw2, LV_GRID_ALIGN_START, 1, 1, LV_GRID_ALIGN_CENTER, 6, 1);
 394:lvgl/demos/widgets/lv_demo_widgets.c ****         lv_obj_set_grid_cell(hard_working_label, LV_GRID_ALIGN_START, 0, 1, LV_GRID_ALIGN_START, 5,
 395:lvgl/demos/widgets/lv_demo_widgets.c ****         lv_obj_set_grid_cell(sw1, LV_GRID_ALIGN_START, 0, 1, LV_GRID_ALIGN_CENTER, 6, 1);
 396:lvgl/demos/widgets/lv_demo_widgets.c ****         lv_obj_set_grid_cell(team_player_label, LV_GRID_ALIGN_START, 1, 1, LV_GRID_ALIGN_START, 5, 
 397:lvgl/demos/widgets/lv_demo_widgets.c ****     }
 398:lvgl/demos/widgets/lv_demo_widgets.c ****     else if(disp_size == DISP_MEDIUM) {
 739              		.loc 1 398 10 is_stmt 1 view .LVU144
 740              		.loc 1 398 12 is_stmt 0 view .LVU145
 741 02e0 012B     		cmp	r3, #1
 742 02e2 00F07981 		beq	.L7
 399:lvgl/demos/widgets/lv_demo_widgets.c ****         static lv_coord_t grid_main_col_dsc[] = {LV_GRID_FR(1), LV_GRID_FR(1), LV_GRID_TEMPLATE_LAS
 400:lvgl/demos/widgets/lv_demo_widgets.c ****         static lv_coord_t grid_main_row_dsc[] = {LV_GRID_CONTENT, LV_GRID_CONTENT, LV_GRID_TEMPLATE
 401:lvgl/demos/widgets/lv_demo_widgets.c **** 
 402:lvgl/demos/widgets/lv_demo_widgets.c ****         /*Create the top panel*/
 403:lvgl/demos/widgets/lv_demo_widgets.c ****         static lv_coord_t grid_1_col_dsc[] = {LV_GRID_CONTENT, 1, LV_GRID_CONTENT, LV_GRID_FR(1), L
 404:lvgl/demos/widgets/lv_demo_widgets.c ****         static lv_coord_t grid_1_row_dsc[] = {
 405:lvgl/demos/widgets/lv_demo_widgets.c ****             LV_GRID_CONTENT, /*Name*/
 406:lvgl/demos/widgets/lv_demo_widgets.c ****             LV_GRID_CONTENT, /*Description*/
 407:lvgl/demos/widgets/lv_demo_widgets.c ****             LV_GRID_CONTENT, /*Email*/
 408:lvgl/demos/widgets/lv_demo_widgets.c ****             -20,
 409:lvgl/demos/widgets/lv_demo_widgets.c ****             LV_GRID_CONTENT, /*Phone*/
 410:lvgl/demos/widgets/lv_demo_widgets.c ****             LV_GRID_CONTENT, /*Buttons*/
 411:lvgl/demos/widgets/lv_demo_widgets.c ****             LV_GRID_TEMPLATE_LAST
 412:lvgl/demos/widgets/lv_demo_widgets.c ****         };
 413:lvgl/demos/widgets/lv_demo_widgets.c **** 
 414:lvgl/demos/widgets/lv_demo_widgets.c ****         static lv_coord_t grid_2_col_dsc[] = {LV_GRID_FR(1), LV_GRID_FR(1), LV_GRID_TEMPLATE_LAST};
 415:lvgl/demos/widgets/lv_demo_widgets.c ****         static lv_coord_t grid_2_row_dsc[] = {
 416:lvgl/demos/widgets/lv_demo_widgets.c ****             LV_GRID_CONTENT,  /*Title*/
 417:lvgl/demos/widgets/lv_demo_widgets.c ****             5,                /*Separator*/
 418:lvgl/demos/widgets/lv_demo_widgets.c ****             LV_GRID_CONTENT,  /*Box title*/
 419:lvgl/demos/widgets/lv_demo_widgets.c ****             40,               /*Box*/
ARM GAS  C:\Users\OSD\AppData\Local\Temp\ccdpxIfP.s 			page 29


 420:lvgl/demos/widgets/lv_demo_widgets.c ****             LV_GRID_CONTENT,  /*Box title*/
 421:lvgl/demos/widgets/lv_demo_widgets.c ****             40,               /*Box*/
 422:lvgl/demos/widgets/lv_demo_widgets.c ****             LV_GRID_CONTENT,  /*Box title*/
 423:lvgl/demos/widgets/lv_demo_widgets.c ****             40,               /*Box*/
 424:lvgl/demos/widgets/lv_demo_widgets.c ****             LV_GRID_CONTENT,  /*Box title*/
 425:lvgl/demos/widgets/lv_demo_widgets.c ****             40,               /*Box*/
 426:lvgl/demos/widgets/lv_demo_widgets.c ****             LV_GRID_TEMPLATE_LAST
 427:lvgl/demos/widgets/lv_demo_widgets.c ****         };
 428:lvgl/demos/widgets/lv_demo_widgets.c **** 
 429:lvgl/demos/widgets/lv_demo_widgets.c ****         lv_obj_set_grid_dsc_array(parent, grid_main_col_dsc, grid_main_row_dsc);
 430:lvgl/demos/widgets/lv_demo_widgets.c ****         lv_obj_set_grid_cell(panel1, LV_GRID_ALIGN_STRETCH, 0, 2, LV_GRID_ALIGN_CENTER, 0, 1);
 431:lvgl/demos/widgets/lv_demo_widgets.c **** 
 432:lvgl/demos/widgets/lv_demo_widgets.c ****         lv_obj_set_width(log_out_btn, 120);
 433:lvgl/demos/widgets/lv_demo_widgets.c ****         lv_obj_set_width(invite_btn, 120);
 434:lvgl/demos/widgets/lv_demo_widgets.c **** 
 435:lvgl/demos/widgets/lv_demo_widgets.c ****         lv_obj_set_grid_dsc_array(panel1, grid_1_col_dsc, grid_1_row_dsc);
 436:lvgl/demos/widgets/lv_demo_widgets.c ****         lv_obj_set_grid_cell(avatar, LV_GRID_ALIGN_CENTER, 0, 1, LV_GRID_ALIGN_START, 0, 4);
 437:lvgl/demos/widgets/lv_demo_widgets.c ****         lv_obj_set_grid_cell(name, LV_GRID_ALIGN_START, 2, 2, LV_GRID_ALIGN_CENTER, 0, 1);
 438:lvgl/demos/widgets/lv_demo_widgets.c ****         lv_obj_set_grid_cell(dsc, LV_GRID_ALIGN_STRETCH, 2, 2, LV_GRID_ALIGN_START, 1, 1);
 439:lvgl/demos/widgets/lv_demo_widgets.c ****         lv_obj_set_grid_cell(email_label, LV_GRID_ALIGN_START, 3, 1, LV_GRID_ALIGN_CENTER, 2, 1);
 440:lvgl/demos/widgets/lv_demo_widgets.c ****         lv_obj_set_grid_cell(email_icn, LV_GRID_ALIGN_CENTER, 2, 1, LV_GRID_ALIGN_CENTER, 2, 1);
 441:lvgl/demos/widgets/lv_demo_widgets.c ****         lv_obj_set_grid_cell(call_icn, LV_GRID_ALIGN_CENTER, 2, 1, LV_GRID_ALIGN_CENTER, 4, 1);
 442:lvgl/demos/widgets/lv_demo_widgets.c ****         lv_obj_set_grid_cell(call_label, LV_GRID_ALIGN_START, 3, 1, LV_GRID_ALIGN_CENTER, 4, 1);
 443:lvgl/demos/widgets/lv_demo_widgets.c ****         lv_obj_set_grid_cell(log_out_btn, LV_GRID_ALIGN_START, 1, 1, LV_GRID_ALIGN_CENTER, 5, 1);
 444:lvgl/demos/widgets/lv_demo_widgets.c ****         lv_obj_set_grid_cell(invite_btn, LV_GRID_ALIGN_END, 3, 1, LV_GRID_ALIGN_CENTER, 5, 1);
 445:lvgl/demos/widgets/lv_demo_widgets.c **** 
 446:lvgl/demos/widgets/lv_demo_widgets.c ****         lv_obj_set_grid_cell(panel2, LV_GRID_ALIGN_STRETCH, 0, 1, LV_GRID_ALIGN_START, 1, 1);
 447:lvgl/demos/widgets/lv_demo_widgets.c ****         lv_obj_set_grid_dsc_array(panel2, grid_2_col_dsc, grid_2_row_dsc);
 448:lvgl/demos/widgets/lv_demo_widgets.c ****         lv_obj_set_grid_cell(panel2_title, LV_GRID_ALIGN_START, 0, 2, LV_GRID_ALIGN_CENTER, 0, 1);
 449:lvgl/demos/widgets/lv_demo_widgets.c ****         lv_obj_set_grid_cell(user_name_label, LV_GRID_ALIGN_START, 0, 2, LV_GRID_ALIGN_START, 2, 1)
 450:lvgl/demos/widgets/lv_demo_widgets.c ****         lv_obj_set_grid_cell(user_name, LV_GRID_ALIGN_STRETCH, 0, 2, LV_GRID_ALIGN_START, 3, 1);
 451:lvgl/demos/widgets/lv_demo_widgets.c ****         lv_obj_set_grid_cell(password_label, LV_GRID_ALIGN_START, 0, 2, LV_GRID_ALIGN_START, 4, 1);
 452:lvgl/demos/widgets/lv_demo_widgets.c ****         lv_obj_set_grid_cell(password, LV_GRID_ALIGN_STRETCH, 0, 2, LV_GRID_ALIGN_START, 5, 1);
 453:lvgl/demos/widgets/lv_demo_widgets.c ****         lv_obj_set_grid_cell(birthday_label, LV_GRID_ALIGN_START, 0, 2, LV_GRID_ALIGN_START, 6, 1);
 454:lvgl/demos/widgets/lv_demo_widgets.c ****         lv_obj_set_grid_cell(birthdate, LV_GRID_ALIGN_STRETCH, 0, 2, LV_GRID_ALIGN_START, 7, 1);
 455:lvgl/demos/widgets/lv_demo_widgets.c ****         lv_obj_set_grid_cell(gender_label, LV_GRID_ALIGN_START, 0, 2, LV_GRID_ALIGN_START, 8, 1);
 456:lvgl/demos/widgets/lv_demo_widgets.c ****         lv_obj_set_grid_cell(gender, LV_GRID_ALIGN_STRETCH, 0, 2, LV_GRID_ALIGN_START, 9, 1);
 457:lvgl/demos/widgets/lv_demo_widgets.c **** 
 458:lvgl/demos/widgets/lv_demo_widgets.c ****         lv_obj_set_grid_cell(panel3, LV_GRID_ALIGN_STRETCH, 1, 1, LV_GRID_ALIGN_STRETCH, 1, 1);
 459:lvgl/demos/widgets/lv_demo_widgets.c ****         lv_obj_set_grid_dsc_array(panel3, grid_2_col_dsc, grid_2_row_dsc);
 460:lvgl/demos/widgets/lv_demo_widgets.c ****         lv_obj_set_grid_cell(panel3_title, LV_GRID_ALIGN_START, 0, 2, LV_GRID_ALIGN_CENTER, 0, 1);
 461:lvgl/demos/widgets/lv_demo_widgets.c ****         lv_obj_set_grid_cell(slider1, LV_GRID_ALIGN_CENTER, 0, 2, LV_GRID_ALIGN_CENTER, 3, 1);
 462:lvgl/demos/widgets/lv_demo_widgets.c ****         lv_obj_set_grid_cell(experience_label, LV_GRID_ALIGN_START, 0, 1, LV_GRID_ALIGN_START, 2, 1
 463:lvgl/demos/widgets/lv_demo_widgets.c ****         lv_obj_set_grid_cell(hard_working_label, LV_GRID_ALIGN_START, 0, 1, LV_GRID_ALIGN_START, 4,
 464:lvgl/demos/widgets/lv_demo_widgets.c ****         lv_obj_set_grid_cell(sw2, LV_GRID_ALIGN_START, 0, 1, LV_GRID_ALIGN_START, 5, 1);
 465:lvgl/demos/widgets/lv_demo_widgets.c ****         lv_obj_set_grid_cell(team_player_label, LV_GRID_ALIGN_START, 0, 1, LV_GRID_ALIGN_START, 6, 
 466:lvgl/demos/widgets/lv_demo_widgets.c ****         lv_obj_set_grid_cell(sw1, LV_GRID_ALIGN_START, 0, 1, LV_GRID_ALIGN_START, 7, 1);
 467:lvgl/demos/widgets/lv_demo_widgets.c ****     }
 468:lvgl/demos/widgets/lv_demo_widgets.c ****     else if(disp_size == DISP_SMALL) {
 743              		.loc 1 468 10 is_stmt 1 view .LVU146
 744              		.loc 1 468 12 is_stmt 0 view .LVU147
 745 02e6 002B     		cmp	r3, #0
 746 02e8 00F0B882 		beq	.L8
 747              	.LVL129:
 748              	.L1:
 469:lvgl/demos/widgets/lv_demo_widgets.c ****         static lv_coord_t grid_main_col_dsc[] = {LV_GRID_FR(1), LV_GRID_TEMPLATE_LAST};
 470:lvgl/demos/widgets/lv_demo_widgets.c ****         static lv_coord_t grid_main_row_dsc[] = {LV_GRID_CONTENT, LV_GRID_CONTENT, LV_GRID_CONTENT,
ARM GAS  C:\Users\OSD\AppData\Local\Temp\ccdpxIfP.s 			page 30


 471:lvgl/demos/widgets/lv_demo_widgets.c ****         lv_obj_set_grid_dsc_array(parent, grid_main_col_dsc, grid_main_row_dsc);
 472:lvgl/demos/widgets/lv_demo_widgets.c **** 
 473:lvgl/demos/widgets/lv_demo_widgets.c ****         /*Create the top panel*/
 474:lvgl/demos/widgets/lv_demo_widgets.c ****         static lv_coord_t grid_1_col_dsc[] = {LV_GRID_CONTENT, LV_GRID_FR(1), LV_GRID_TEMPLATE_LAST
 475:lvgl/demos/widgets/lv_demo_widgets.c ****         static lv_coord_t grid_1_row_dsc[] = {LV_GRID_CONTENT, /*Avatar*/
 476:lvgl/demos/widgets/lv_demo_widgets.c ****                                               LV_GRID_CONTENT, /*Name*/
 477:lvgl/demos/widgets/lv_demo_widgets.c ****                                               LV_GRID_CONTENT, /*Description*/
 478:lvgl/demos/widgets/lv_demo_widgets.c ****                                               LV_GRID_CONTENT, /*Email*/
 479:lvgl/demos/widgets/lv_demo_widgets.c ****                                               LV_GRID_CONTENT, /*Phone number*/
 480:lvgl/demos/widgets/lv_demo_widgets.c ****                                               LV_GRID_CONTENT, /*Button1*/
 481:lvgl/demos/widgets/lv_demo_widgets.c ****                                               LV_GRID_CONTENT, /*Button2*/
 482:lvgl/demos/widgets/lv_demo_widgets.c ****                                               LV_GRID_TEMPLATE_LAST
 483:lvgl/demos/widgets/lv_demo_widgets.c ****                                              };
 484:lvgl/demos/widgets/lv_demo_widgets.c **** 
 485:lvgl/demos/widgets/lv_demo_widgets.c ****         lv_obj_set_grid_dsc_array(panel1, grid_1_col_dsc, grid_1_row_dsc);
 486:lvgl/demos/widgets/lv_demo_widgets.c **** 
 487:lvgl/demos/widgets/lv_demo_widgets.c ****         static lv_coord_t grid_2_col_dsc[] = {LV_GRID_FR(1), LV_GRID_FR(1), LV_GRID_TEMPLATE_LAST};
 488:lvgl/demos/widgets/lv_demo_widgets.c ****         static lv_coord_t grid_2_row_dsc[] = {
 489:lvgl/demos/widgets/lv_demo_widgets.c ****             LV_GRID_CONTENT,  /*Title*/
 490:lvgl/demos/widgets/lv_demo_widgets.c ****             5,                /*Separator*/
 491:lvgl/demos/widgets/lv_demo_widgets.c ****             LV_GRID_CONTENT,  /*Box title*/
 492:lvgl/demos/widgets/lv_demo_widgets.c ****             40,               /*Box*/
 493:lvgl/demos/widgets/lv_demo_widgets.c ****             LV_GRID_CONTENT,  /*Box title*/
 494:lvgl/demos/widgets/lv_demo_widgets.c ****             40,               /*Box*/
 495:lvgl/demos/widgets/lv_demo_widgets.c ****             LV_GRID_CONTENT,  /*Box title*/
 496:lvgl/demos/widgets/lv_demo_widgets.c ****             40,               /*Box*/
 497:lvgl/demos/widgets/lv_demo_widgets.c ****             LV_GRID_CONTENT,  /*Box title*/
 498:lvgl/demos/widgets/lv_demo_widgets.c ****             40, LV_GRID_TEMPLATE_LAST               /*Box*/
 499:lvgl/demos/widgets/lv_demo_widgets.c ****         };
 500:lvgl/demos/widgets/lv_demo_widgets.c **** 
 501:lvgl/demos/widgets/lv_demo_widgets.c ****         lv_obj_set_grid_dsc_array(panel2, grid_2_col_dsc, grid_2_row_dsc);
 502:lvgl/demos/widgets/lv_demo_widgets.c ****         lv_obj_set_grid_dsc_array(panel3, grid_2_col_dsc, grid_2_row_dsc);
 503:lvgl/demos/widgets/lv_demo_widgets.c **** 
 504:lvgl/demos/widgets/lv_demo_widgets.c ****         lv_obj_set_grid_cell(panel1, LV_GRID_ALIGN_STRETCH, 0, 1, LV_GRID_ALIGN_CENTER, 0, 1);
 505:lvgl/demos/widgets/lv_demo_widgets.c **** 
 506:lvgl/demos/widgets/lv_demo_widgets.c ****         lv_obj_set_style_text_align(dsc, LV_TEXT_ALIGN_CENTER, 0);
 507:lvgl/demos/widgets/lv_demo_widgets.c **** 
 508:lvgl/demos/widgets/lv_demo_widgets.c ****         lv_obj_set_grid_cell(avatar, LV_GRID_ALIGN_CENTER, 0, 2, LV_GRID_ALIGN_CENTER, 0, 1);
 509:lvgl/demos/widgets/lv_demo_widgets.c ****         lv_obj_set_grid_cell(name, LV_GRID_ALIGN_CENTER, 0, 2, LV_GRID_ALIGN_CENTER, 1, 1);
 510:lvgl/demos/widgets/lv_demo_widgets.c ****         lv_obj_set_grid_cell(dsc, LV_GRID_ALIGN_STRETCH, 0, 2, LV_GRID_ALIGN_START, 2, 1);
 511:lvgl/demos/widgets/lv_demo_widgets.c ****         lv_obj_set_grid_cell(email_icn, LV_GRID_ALIGN_CENTER, 0, 1, LV_GRID_ALIGN_CENTER, 3, 1);
 512:lvgl/demos/widgets/lv_demo_widgets.c ****         lv_obj_set_grid_cell(email_label, LV_GRID_ALIGN_START, 1, 1, LV_GRID_ALIGN_CENTER, 3, 1);
 513:lvgl/demos/widgets/lv_demo_widgets.c ****         lv_obj_set_grid_cell(call_icn, LV_GRID_ALIGN_CENTER, 0, 1, LV_GRID_ALIGN_CENTER, 4, 1);
 514:lvgl/demos/widgets/lv_demo_widgets.c ****         lv_obj_set_grid_cell(call_label, LV_GRID_ALIGN_START, 1, 1, LV_GRID_ALIGN_CENTER, 4, 1);
 515:lvgl/demos/widgets/lv_demo_widgets.c ****         lv_obj_set_grid_cell(log_out_btn, LV_GRID_ALIGN_STRETCH, 0, 2, LV_GRID_ALIGN_CENTER, 5, 1);
 516:lvgl/demos/widgets/lv_demo_widgets.c ****         lv_obj_set_grid_cell(invite_btn, LV_GRID_ALIGN_STRETCH, 0, 2, LV_GRID_ALIGN_CENTER, 6, 1);
 517:lvgl/demos/widgets/lv_demo_widgets.c **** 
 518:lvgl/demos/widgets/lv_demo_widgets.c ****         lv_obj_set_grid_cell(panel2, LV_GRID_ALIGN_STRETCH, 0, 1, LV_GRID_ALIGN_START, 1, 1);
 519:lvgl/demos/widgets/lv_demo_widgets.c ****         lv_obj_set_grid_cell(panel2_title, LV_GRID_ALIGN_START, 0, 2, LV_GRID_ALIGN_CENTER, 0, 1);
 520:lvgl/demos/widgets/lv_demo_widgets.c ****         lv_obj_set_grid_cell(user_name_label, LV_GRID_ALIGN_START, 0, 2, LV_GRID_ALIGN_START, 2, 1)
 521:lvgl/demos/widgets/lv_demo_widgets.c ****         lv_obj_set_grid_cell(user_name, LV_GRID_ALIGN_STRETCH, 0, 2, LV_GRID_ALIGN_START, 3, 1);
 522:lvgl/demos/widgets/lv_demo_widgets.c ****         lv_obj_set_grid_cell(password_label, LV_GRID_ALIGN_START, 0, 2, LV_GRID_ALIGN_START, 4, 1);
 523:lvgl/demos/widgets/lv_demo_widgets.c ****         lv_obj_set_grid_cell(password, LV_GRID_ALIGN_STRETCH, 0, 2, LV_GRID_ALIGN_START, 5, 1);
 524:lvgl/demos/widgets/lv_demo_widgets.c ****         lv_obj_set_grid_cell(birthday_label, LV_GRID_ALIGN_START, 0, 2, LV_GRID_ALIGN_START, 6, 1);
 525:lvgl/demos/widgets/lv_demo_widgets.c ****         lv_obj_set_grid_cell(birthdate, LV_GRID_ALIGN_STRETCH, 0, 2, LV_GRID_ALIGN_START, 7, 1);
 526:lvgl/demos/widgets/lv_demo_widgets.c ****         lv_obj_set_grid_cell(gender_label, LV_GRID_ALIGN_START, 0, 2, LV_GRID_ALIGN_START, 8, 1);
 527:lvgl/demos/widgets/lv_demo_widgets.c ****         lv_obj_set_grid_cell(gender, LV_GRID_ALIGN_STRETCH, 0, 2, LV_GRID_ALIGN_START, 9, 1);
ARM GAS  C:\Users\OSD\AppData\Local\Temp\ccdpxIfP.s 			page 31


 528:lvgl/demos/widgets/lv_demo_widgets.c **** 
 529:lvgl/demos/widgets/lv_demo_widgets.c ****         lv_obj_set_height(panel3, LV_SIZE_CONTENT);
 530:lvgl/demos/widgets/lv_demo_widgets.c ****         lv_obj_set_grid_cell(panel3, LV_GRID_ALIGN_STRETCH, 0, 1, LV_GRID_ALIGN_START, 2, 1);
 531:lvgl/demos/widgets/lv_demo_widgets.c ****         lv_obj_set_grid_cell(panel3_title, LV_GRID_ALIGN_START, 0, 2, LV_GRID_ALIGN_CENTER, 0, 1);
 532:lvgl/demos/widgets/lv_demo_widgets.c ****         lv_obj_set_grid_cell(experience_label, LV_GRID_ALIGN_START, 0, 1, LV_GRID_ALIGN_START, 2, 1
 533:lvgl/demos/widgets/lv_demo_widgets.c ****         lv_obj_set_grid_cell(slider1, LV_GRID_ALIGN_CENTER, 0, 2, LV_GRID_ALIGN_CENTER, 3, 1);
 534:lvgl/demos/widgets/lv_demo_widgets.c ****         lv_obj_set_grid_cell(hard_working_label, LV_GRID_ALIGN_START, 0, 1, LV_GRID_ALIGN_START, 4,
 535:lvgl/demos/widgets/lv_demo_widgets.c ****         lv_obj_set_grid_cell(sw1, LV_GRID_ALIGN_START, 0, 1, LV_GRID_ALIGN_START, 5, 1);
 536:lvgl/demos/widgets/lv_demo_widgets.c ****         lv_obj_set_grid_cell(team_player_label, LV_GRID_ALIGN_START, 1, 1, LV_GRID_ALIGN_START, 4, 
 537:lvgl/demos/widgets/lv_demo_widgets.c ****         lv_obj_set_grid_cell(sw2, LV_GRID_ALIGN_START, 1, 1, LV_GRID_ALIGN_START, 5, 1);
 538:lvgl/demos/widgets/lv_demo_widgets.c ****     }
 539:lvgl/demos/widgets/lv_demo_widgets.c **** }
 749              		.loc 1 539 1 view .LVU148
 750 02ec 1DB0     		add	sp, sp, #116
 751              		.cfi_remember_state
 752              		.cfi_def_cfa_offset 36
 753              		@ sp needed
 754 02ee BDE8F08F 		pop	{r4, r5, r6, r7, r8, r9, r10, fp, pc}
 755              	.LVL130:
 756              	.L10:
 757              		.loc 1 539 1 view .LVU149
 758 02f2 00BF     		.align	2
 759              	.L9:
 760 02f4 00000000 		.word	img_demo_widgets_avatar
 761 02f8 00000000 		.word	.LC27
 762 02fc 00000000 		.word	.LANCHOR1
 763 0300 0C000000 		.word	.LC28
 764 0304 00000000 		.word	.LANCHOR2
 765 0308 4C000000 		.word	.LC29
 766 030c 50000000 		.word	.LC30
 767 0310 60000000 		.word	.LC31
 768 0314 64000000 		.word	.LC32
 769 0318 78000000 		.word	.LC33
 770 031c 80000000 		.word	.LC34
 771 0320 88000000 		.word	.LC35
 772 0324 98000000 		.word	.LC36
 773 0328 A4000000 		.word	.LC37
 774 032c B0000000 		.word	.LC38
 775 0330 BC000000 		.word	.LC39
 776 0334 CC000000 		.word	.LC40
 777 0338 D4000000 		.word	.LC41
 778 033c E8000000 		.word	.LC42
 779 0340 00000000 		.word	birthday_event_cb
 780 0344 F4000000 		.word	.LC43
 781 0348 00010000 		.word	.LC44
 782 034c 00000000 		.word	slider_event_cb
 783 0350 0C010000 		.word	.LC45
 784 0354 18010000 		.word	.LC46
 785 0358 00000000 		.word	.LANCHOR3
 786 035c 00000000 		.word	.LANCHOR0
 787 0360 00000000 		.word	ta_event_cb
 788              	.LVL131:
 789              	.L6:
 790              		.cfi_restore_state
 791              	.LBB180:
 342:lvgl/demos/widgets/lv_demo_widgets.c ****         static lv_coord_t grid_main_row_dsc[] = {LV_GRID_CONTENT, LV_GRID_CONTENT, LV_GRID_TEMPLATE
 792              		.loc 1 342 9 is_stmt 1 view .LVU150
ARM GAS  C:\Users\OSD\AppData\Local\Temp\ccdpxIfP.s 			page 32


 343:lvgl/demos/widgets/lv_demo_widgets.c **** 
 793              		.loc 1 343 9 view .LVU151
 346:lvgl/demos/widgets/lv_demo_widgets.c ****         static lv_coord_t grid_1_row_dsc[] = {LV_GRID_CONTENT, LV_GRID_CONTENT, 10, LV_GRID_CONTENT
 794              		.loc 1 346 9 view .LVU152
 347:lvgl/demos/widgets/lv_demo_widgets.c **** 
 795              		.loc 1 347 9 view .LVU153
 349:lvgl/demos/widgets/lv_demo_widgets.c ****         static lv_coord_t grid_2_row_dsc[] = {
 796              		.loc 1 349 9 view .LVU154
 350:lvgl/demos/widgets/lv_demo_widgets.c ****             LV_GRID_CONTENT,  /*Title*/
 797              		.loc 1 350 9 view .LVU155
 361:lvgl/demos/widgets/lv_demo_widgets.c **** 
 798              		.loc 1 361 9 view .LVU156
 799 0364 964A     		ldr	r2, .L11
 800 0366 9749     		ldr	r1, .L11+4
 801 0368 3046     		mov	r0, r6
 802              	.LVL132:
 361:lvgl/demos/widgets/lv_demo_widgets.c **** 
 803              		.loc 1 361 9 is_stmt 0 view .LVU157
 804 036a FFF7FEFF 		bl	lv_obj_set_grid_dsc_array
 805              	.LVL133:
 363:lvgl/demos/widgets/lv_demo_widgets.c **** 
 806              		.loc 1 363 9 is_stmt 1 view .LVU158
 807 036e 0124     		movs	r4, #1
 808 0370 0294     		str	r4, [sp, #8]
 809 0372 0026     		movs	r6, #0
 810              	.LVL134:
 363:lvgl/demos/widgets/lv_demo_widgets.c **** 
 811              		.loc 1 363 9 is_stmt 0 view .LVU159
 812 0374 0196     		str	r6, [sp, #4]
 813 0376 0094     		str	r4, [sp]
 814 0378 0223     		movs	r3, #2
 815 037a 3246     		mov	r2, r6
 816 037c 0321     		movs	r1, #3
 817 037e 4046     		mov	r0, r8
 818 0380 FFF7FEFF 		bl	lv_obj_set_grid_cell
 819              	.LVL135:
 365:lvgl/demos/widgets/lv_demo_widgets.c ****         lv_obj_set_grid_cell(avatar, LV_GRID_ALIGN_CENTER, 0, 1, LV_GRID_ALIGN_CENTER, 0, 5);
 820              		.loc 1 365 9 is_stmt 1 view .LVU160
 821 0384 904A     		ldr	r2, .L11+8
 822 0386 9149     		ldr	r1, .L11+12
 823 0388 4046     		mov	r0, r8
 824 038a FFF7FEFF 		bl	lv_obj_set_grid_dsc_array
 825              	.LVL136:
 366:lvgl/demos/widgets/lv_demo_widgets.c ****         lv_obj_set_grid_cell(name, LV_GRID_ALIGN_START, 2, 2, LV_GRID_ALIGN_CENTER, 0, 1);
 826              		.loc 1 366 9 view .LVU161
 827 038e 4FF0050A 		mov	r10, #5
 828              	.LVL137:
 366:lvgl/demos/widgets/lv_demo_widgets.c ****         lv_obj_set_grid_cell(name, LV_GRID_ALIGN_START, 2, 2, LV_GRID_ALIGN_CENTER, 0, 1);
 829              		.loc 1 366 9 is_stmt 0 view .LVU162
 830 0392 CDF808A0 		str	r10, [sp, #8]
 831 0396 0196     		str	r6, [sp, #4]
 832 0398 0094     		str	r4, [sp]
 833 039a 2346     		mov	r3, r4
 834 039c 3246     		mov	r2, r6
 835 039e 2146     		mov	r1, r4
 836 03a0 0A98     		ldr	r0, [sp, #40]
 837 03a2 FFF7FEFF 		bl	lv_obj_set_grid_cell
ARM GAS  C:\Users\OSD\AppData\Local\Temp\ccdpxIfP.s 			page 33


 838              	.LVL138:
 367:lvgl/demos/widgets/lv_demo_widgets.c ****         lv_obj_set_grid_cell(dsc, LV_GRID_ALIGN_STRETCH, 2, 4, LV_GRID_ALIGN_START, 1, 1);
 839              		.loc 1 367 9 is_stmt 1 view .LVU163
 840 03a6 0294     		str	r4, [sp, #8]
 841 03a8 0196     		str	r6, [sp, #4]
 842 03aa 0094     		str	r4, [sp]
 843 03ac 0223     		movs	r3, #2
 844 03ae 1A46     		mov	r2, r3
 845 03b0 3146     		mov	r1, r6
 846 03b2 0B98     		ldr	r0, [sp, #44]
 847 03b4 FFF7FEFF 		bl	lv_obj_set_grid_cell
 848              	.LVL139:
 368:lvgl/demos/widgets/lv_demo_widgets.c ****         lv_obj_set_grid_cell(email_icn, LV_GRID_ALIGN_CENTER, 2, 1, LV_GRID_ALIGN_CENTER, 3, 1);
 849              		.loc 1 368 9 view .LVU164
 850 03b8 0294     		str	r4, [sp, #8]
 851 03ba 0194     		str	r4, [sp, #4]
 852 03bc 0096     		str	r6, [sp]
 853 03be 0423     		movs	r3, #4
 854 03c0 0222     		movs	r2, #2
 855 03c2 0321     		movs	r1, #3
 856 03c4 4846     		mov	r0, r9
 857 03c6 FFF7FEFF 		bl	lv_obj_set_grid_cell
 858              	.LVL140:
 369:lvgl/demos/widgets/lv_demo_widgets.c ****         lv_obj_set_grid_cell(email_label, LV_GRID_ALIGN_START, 3, 1, LV_GRID_ALIGN_CENTER, 3, 1);
 859              		.loc 1 369 9 view .LVU165
 860 03ca 0294     		str	r4, [sp, #8]
 861 03cc 4FF00308 		mov	r8, #3
 862              	.LVL141:
 369:lvgl/demos/widgets/lv_demo_widgets.c ****         lv_obj_set_grid_cell(email_label, LV_GRID_ALIGN_START, 3, 1, LV_GRID_ALIGN_CENTER, 3, 1);
 863              		.loc 1 369 9 is_stmt 0 view .LVU166
 864 03d0 CDF80480 		str	r8, [sp, #4]
 865 03d4 0094     		str	r4, [sp]
 866 03d6 2346     		mov	r3, r4
 867 03d8 0222     		movs	r2, #2
 868 03da 2146     		mov	r1, r4
 869 03dc 0C98     		ldr	r0, [sp, #48]
 870 03de FFF7FEFF 		bl	lv_obj_set_grid_cell
 871              	.LVL142:
 370:lvgl/demos/widgets/lv_demo_widgets.c ****         lv_obj_set_grid_cell(call_icn, LV_GRID_ALIGN_CENTER, 2, 1, LV_GRID_ALIGN_CENTER, 4, 1);
 872              		.loc 1 370 9 is_stmt 1 view .LVU167
 873 03e2 0294     		str	r4, [sp, #8]
 874 03e4 CDF80480 		str	r8, [sp, #4]
 875 03e8 0094     		str	r4, [sp]
 876 03ea 2346     		mov	r3, r4
 877 03ec 4246     		mov	r2, r8
 878 03ee 3146     		mov	r1, r6
 879 03f0 0D98     		ldr	r0, [sp, #52]
 880 03f2 FFF7FEFF 		bl	lv_obj_set_grid_cell
 881              	.LVL143:
 371:lvgl/demos/widgets/lv_demo_widgets.c ****         lv_obj_set_grid_cell(call_label, LV_GRID_ALIGN_START, 3, 1, LV_GRID_ALIGN_CENTER, 4, 1);
 882              		.loc 1 371 9 view .LVU168
 883 03f6 0294     		str	r4, [sp, #8]
 884 03f8 0423     		movs	r3, #4
 885 03fa 0193     		str	r3, [sp, #4]
 886 03fc 0094     		str	r4, [sp]
 887 03fe 2346     		mov	r3, r4
 888 0400 0222     		movs	r2, #2
ARM GAS  C:\Users\OSD\AppData\Local\Temp\ccdpxIfP.s 			page 34


 889 0402 2146     		mov	r1, r4
 890 0404 0E98     		ldr	r0, [sp, #56]
 891 0406 FFF7FEFF 		bl	lv_obj_set_grid_cell
 892              	.LVL144:
 372:lvgl/demos/widgets/lv_demo_widgets.c ****         lv_obj_set_grid_cell(log_out_btn, LV_GRID_ALIGN_STRETCH, 4, 1, LV_GRID_ALIGN_CENTER, 3, 2);
 893              		.loc 1 372 9 view .LVU169
 894 040a 0294     		str	r4, [sp, #8]
 895 040c 0423     		movs	r3, #4
 896 040e 0193     		str	r3, [sp, #4]
 897 0410 0094     		str	r4, [sp]
 898 0412 2346     		mov	r3, r4
 899 0414 4246     		mov	r2, r8
 900 0416 3146     		mov	r1, r6
 901 0418 0F98     		ldr	r0, [sp, #60]
 902 041a FFF7FEFF 		bl	lv_obj_set_grid_cell
 903              	.LVL145:
 373:lvgl/demos/widgets/lv_demo_widgets.c ****         lv_obj_set_grid_cell(invite_btn, LV_GRID_ALIGN_STRETCH, 5, 1, LV_GRID_ALIGN_CENTER, 3, 2);
 904              		.loc 1 373 9 view .LVU170
 905 041e 4FF00209 		mov	r9, #2
 906              	.LVL146:
 373:lvgl/demos/widgets/lv_demo_widgets.c ****         lv_obj_set_grid_cell(invite_btn, LV_GRID_ALIGN_STRETCH, 5, 1, LV_GRID_ALIGN_CENTER, 3, 2);
 907              		.loc 1 373 9 is_stmt 0 view .LVU171
 908 0422 CDF80890 		str	r9, [sp, #8]
 909 0426 CDF80480 		str	r8, [sp, #4]
 910 042a 0094     		str	r4, [sp]
 911 042c 2346     		mov	r3, r4
 912 042e 0422     		movs	r2, #4
 913 0430 4146     		mov	r1, r8
 914 0432 0898     		ldr	r0, [sp, #32]
 915 0434 FFF7FEFF 		bl	lv_obj_set_grid_cell
 916              	.LVL147:
 374:lvgl/demos/widgets/lv_demo_widgets.c **** 
 917              		.loc 1 374 9 is_stmt 1 view .LVU172
 918 0438 CDF80890 		str	r9, [sp, #8]
 919 043c CDF80480 		str	r8, [sp, #4]
 920 0440 0094     		str	r4, [sp]
 921 0442 2346     		mov	r3, r4
 922 0444 5246     		mov	r2, r10
 923 0446 4146     		mov	r1, r8
 924 0448 0998     		ldr	r0, [sp, #36]
 925 044a FFF7FEFF 		bl	lv_obj_set_grid_cell
 926              	.LVL148:
 376:lvgl/demos/widgets/lv_demo_widgets.c ****         lv_obj_set_grid_dsc_array(panel2, grid_2_col_dsc, grid_2_row_dsc);
 927              		.loc 1 376 9 view .LVU173
 928 044e 0294     		str	r4, [sp, #8]
 929 0450 0194     		str	r4, [sp, #4]
 930 0452 0096     		str	r6, [sp]
 931 0454 2346     		mov	r3, r4
 932 0456 3246     		mov	r2, r6
 933 0458 4146     		mov	r1, r8
 934 045a 2846     		mov	r0, r5
 935 045c FFF7FEFF 		bl	lv_obj_set_grid_cell
 936              	.LVL149:
 377:lvgl/demos/widgets/lv_demo_widgets.c ****         lv_obj_set_grid_cell(panel2_title, LV_GRID_ALIGN_START, 0, 2, LV_GRID_ALIGN_CENTER, 0, 1);
 937              		.loc 1 377 9 view .LVU174
 938 0460 5B4A     		ldr	r2, .L11+16
 939 0462 5C49     		ldr	r1, .L11+20
ARM GAS  C:\Users\OSD\AppData\Local\Temp\ccdpxIfP.s 			page 35


 940 0464 2846     		mov	r0, r5
 941 0466 FFF7FEFF 		bl	lv_obj_set_grid_dsc_array
 942              	.LVL150:
 378:lvgl/demos/widgets/lv_demo_widgets.c ****         lv_obj_set_grid_cell(user_name, LV_GRID_ALIGN_STRETCH, 0, 1, LV_GRID_ALIGN_CENTER, 3, 1);
 943              		.loc 1 378 9 view .LVU175
 944 046a 0294     		str	r4, [sp, #8]
 945 046c 0196     		str	r6, [sp, #4]
 946 046e 0094     		str	r4, [sp]
 947 0470 4B46     		mov	r3, r9
 948 0472 3246     		mov	r2, r6
 949 0474 3146     		mov	r1, r6
 950 0476 1098     		ldr	r0, [sp, #64]
 951 0478 FFF7FEFF 		bl	lv_obj_set_grid_cell
 952              	.LVL151:
 379:lvgl/demos/widgets/lv_demo_widgets.c ****         lv_obj_set_grid_cell(user_name_label, LV_GRID_ALIGN_START, 0, 1, LV_GRID_ALIGN_START, 2, 1)
 953              		.loc 1 379 9 view .LVU176
 954 047c 0294     		str	r4, [sp, #8]
 955 047e CDF80480 		str	r8, [sp, #4]
 956 0482 0094     		str	r4, [sp]
 957 0484 2346     		mov	r3, r4
 958 0486 3246     		mov	r2, r6
 959 0488 4146     		mov	r1, r8
 960 048a 0698     		ldr	r0, [sp, #24]
 961 048c FFF7FEFF 		bl	lv_obj_set_grid_cell
 962              	.LVL152:
 380:lvgl/demos/widgets/lv_demo_widgets.c ****         lv_obj_set_grid_cell(password, LV_GRID_ALIGN_STRETCH, 1, 1, LV_GRID_ALIGN_CENTER, 3, 1);
 963              		.loc 1 380 9 view .LVU177
 964 0490 0294     		str	r4, [sp, #8]
 965 0492 CDF80490 		str	r9, [sp, #4]
 966 0496 0096     		str	r6, [sp]
 967 0498 2346     		mov	r3, r4
 968 049a 3246     		mov	r2, r6
 969 049c 3146     		mov	r1, r6
 970 049e 1198     		ldr	r0, [sp, #68]
 971 04a0 FFF7FEFF 		bl	lv_obj_set_grid_cell
 972              	.LVL153:
 381:lvgl/demos/widgets/lv_demo_widgets.c ****         lv_obj_set_grid_cell(password_label, LV_GRID_ALIGN_START, 1, 1, LV_GRID_ALIGN_START, 2, 1);
 973              		.loc 1 381 9 view .LVU178
 974 04a4 0294     		str	r4, [sp, #8]
 975 04a6 CDF80480 		str	r8, [sp, #4]
 976 04aa 0094     		str	r4, [sp]
 977 04ac 2346     		mov	r3, r4
 978 04ae 2246     		mov	r2, r4
 979 04b0 4146     		mov	r1, r8
 980 04b2 0598     		ldr	r0, [sp, #20]
 981 04b4 FFF7FEFF 		bl	lv_obj_set_grid_cell
 982              	.LVL154:
 382:lvgl/demos/widgets/lv_demo_widgets.c ****         lv_obj_set_grid_cell(birthdate, LV_GRID_ALIGN_STRETCH, 1, 1, LV_GRID_ALIGN_CENTER, 6, 1);
 983              		.loc 1 382 9 view .LVU179
 984 04b8 0294     		str	r4, [sp, #8]
 985 04ba CDF80490 		str	r9, [sp, #4]
 986 04be 0096     		str	r6, [sp]
 987 04c0 2346     		mov	r3, r4
 988 04c2 2246     		mov	r2, r4
 989 04c4 3146     		mov	r1, r6
 990 04c6 0798     		ldr	r0, [sp, #28]
 991 04c8 FFF7FEFF 		bl	lv_obj_set_grid_cell
ARM GAS  C:\Users\OSD\AppData\Local\Temp\ccdpxIfP.s 			page 36


 992              	.LVL155:
 383:lvgl/demos/widgets/lv_demo_widgets.c ****         lv_obj_set_grid_cell(birthday_label, LV_GRID_ALIGN_START, 1, 1, LV_GRID_ALIGN_START, 5, 1);
 993              		.loc 1 383 9 view .LVU180
 994 04cc 0294     		str	r4, [sp, #8]
 995 04ce 0625     		movs	r5, #6
 996              	.LVL156:
 383:lvgl/demos/widgets/lv_demo_widgets.c ****         lv_obj_set_grid_cell(birthday_label, LV_GRID_ALIGN_START, 1, 1, LV_GRID_ALIGN_START, 5, 1);
 997              		.loc 1 383 9 is_stmt 0 view .LVU181
 998 04d0 0195     		str	r5, [sp, #4]
 999 04d2 0094     		str	r4, [sp]
 1000 04d4 2346     		mov	r3, r4
 1001 04d6 2246     		mov	r2, r4
 1002 04d8 4146     		mov	r1, r8
 1003 04da 1598     		ldr	r0, [sp, #84]
 1004 04dc FFF7FEFF 		bl	lv_obj_set_grid_cell
 1005              	.LVL157:
 384:lvgl/demos/widgets/lv_demo_widgets.c ****         lv_obj_set_grid_cell(gender, LV_GRID_ALIGN_STRETCH, 0, 1, LV_GRID_ALIGN_CENTER, 6, 1);
 1006              		.loc 1 384 9 is_stmt 1 view .LVU182
 1007 04e0 0294     		str	r4, [sp, #8]
 1008 04e2 CDF804A0 		str	r10, [sp, #4]
 1009 04e6 0096     		str	r6, [sp]
 1010 04e8 2346     		mov	r3, r4
 1011 04ea 2246     		mov	r2, r4
 1012 04ec 3146     		mov	r1, r6
 1013 04ee 1498     		ldr	r0, [sp, #80]
 1014 04f0 FFF7FEFF 		bl	lv_obj_set_grid_cell
 1015              	.LVL158:
 385:lvgl/demos/widgets/lv_demo_widgets.c ****         lv_obj_set_grid_cell(gender_label, LV_GRID_ALIGN_START, 0, 1, LV_GRID_ALIGN_START, 5, 1);
 1016              		.loc 1 385 9 view .LVU183
 1017 04f4 0294     		str	r4, [sp, #8]
 1018 04f6 0195     		str	r5, [sp, #4]
 1019 04f8 0094     		str	r4, [sp]
 1020 04fa 2346     		mov	r3, r4
 1021 04fc 3246     		mov	r2, r6
 1022 04fe 4146     		mov	r1, r8
 1023 0500 1398     		ldr	r0, [sp, #76]
 1024 0502 FFF7FEFF 		bl	lv_obj_set_grid_cell
 1025              	.LVL159:
 386:lvgl/demos/widgets/lv_demo_widgets.c **** 
 1026              		.loc 1 386 9 view .LVU184
 1027 0506 0294     		str	r4, [sp, #8]
 1028 0508 CDF804A0 		str	r10, [sp, #4]
 1029 050c 0096     		str	r6, [sp]
 1030 050e 2346     		mov	r3, r4
 1031 0510 3246     		mov	r2, r6
 1032 0512 3146     		mov	r1, r6
 1033 0514 1298     		ldr	r0, [sp, #72]
 1034 0516 FFF7FEFF 		bl	lv_obj_set_grid_cell
 1035              	.LVL160:
 388:lvgl/demos/widgets/lv_demo_widgets.c ****         lv_obj_set_grid_dsc_array(panel3, grid_2_col_dsc, grid_2_row_dsc);
 1036              		.loc 1 388 9 view .LVU185
 1037 051a 0294     		str	r4, [sp, #8]
 1038 051c 0194     		str	r4, [sp, #4]
 1039 051e CDF80080 		str	r8, [sp]
 1040 0522 2346     		mov	r3, r4
 1041 0524 2246     		mov	r2, r4
 1042 0526 4146     		mov	r1, r8
ARM GAS  C:\Users\OSD\AppData\Local\Temp\ccdpxIfP.s 			page 37


 1043 0528 3846     		mov	r0, r7
 1044 052a FFF7FEFF 		bl	lv_obj_set_grid_cell
 1045              	.LVL161:
 389:lvgl/demos/widgets/lv_demo_widgets.c ****         lv_obj_set_grid_cell(panel3_title, LV_GRID_ALIGN_START, 0, 2, LV_GRID_ALIGN_CENTER, 0, 1);
 1046              		.loc 1 389 9 view .LVU186
 1047 052e 284A     		ldr	r2, .L11+16
 1048 0530 2849     		ldr	r1, .L11+20
 1049 0532 3846     		mov	r0, r7
 1050 0534 FFF7FEFF 		bl	lv_obj_set_grid_dsc_array
 1051              	.LVL162:
 390:lvgl/demos/widgets/lv_demo_widgets.c ****         lv_obj_set_grid_cell(slider1, LV_GRID_ALIGN_CENTER, 0, 2, LV_GRID_ALIGN_CENTER, 3, 1);
 1052              		.loc 1 390 9 view .LVU187
 1053 0538 0294     		str	r4, [sp, #8]
 1054 053a 0196     		str	r6, [sp, #4]
 1055 053c 0094     		str	r4, [sp]
 1056 053e 4B46     		mov	r3, r9
 1057 0540 3246     		mov	r2, r6
 1058 0542 3146     		mov	r1, r6
 1059 0544 1698     		ldr	r0, [sp, #88]
 1060 0546 FFF7FEFF 		bl	lv_obj_set_grid_cell
 1061              	.LVL163:
 391:lvgl/demos/widgets/lv_demo_widgets.c ****         lv_obj_set_grid_cell(experience_label, LV_GRID_ALIGN_START, 0, 1, LV_GRID_ALIGN_START, 2, 1
 1062              		.loc 1 391 9 view .LVU188
 1063 054a 0294     		str	r4, [sp, #8]
 1064 054c CDF80480 		str	r8, [sp, #4]
 1065 0550 0094     		str	r4, [sp]
 1066 0552 4B46     		mov	r3, r9
 1067 0554 3246     		mov	r2, r6
 1068 0556 2146     		mov	r1, r4
 1069 0558 5846     		mov	r0, fp
 1070 055a FFF7FEFF 		bl	lv_obj_set_grid_cell
 1071              	.LVL164:
 392:lvgl/demos/widgets/lv_demo_widgets.c ****         lv_obj_set_grid_cell(sw2, LV_GRID_ALIGN_START, 1, 1, LV_GRID_ALIGN_CENTER, 6, 1);
 1072              		.loc 1 392 9 view .LVU189
 1073 055e 0294     		str	r4, [sp, #8]
 1074 0560 CDF80490 		str	r9, [sp, #4]
 1075 0564 0096     		str	r6, [sp]
 1076 0566 2346     		mov	r3, r4
 1077 0568 3246     		mov	r2, r6
 1078 056a 3146     		mov	r1, r6
 1079 056c 1798     		ldr	r0, [sp, #92]
 1080 056e FFF7FEFF 		bl	lv_obj_set_grid_cell
 1081              	.LVL165:
 393:lvgl/demos/widgets/lv_demo_widgets.c ****         lv_obj_set_grid_cell(hard_working_label, LV_GRID_ALIGN_START, 0, 1, LV_GRID_ALIGN_START, 5,
 1082              		.loc 1 393 9 view .LVU190
 1083 0572 0294     		str	r4, [sp, #8]
 1084 0574 0195     		str	r5, [sp, #4]
 1085 0576 0094     		str	r4, [sp]
 1086 0578 2346     		mov	r3, r4
 1087 057a 2246     		mov	r2, r4
 1088 057c 3146     		mov	r1, r6
 1089 057e 1B98     		ldr	r0, [sp, #108]
 1090 0580 FFF7FEFF 		bl	lv_obj_set_grid_cell
 1091              	.LVL166:
 394:lvgl/demos/widgets/lv_demo_widgets.c ****         lv_obj_set_grid_cell(sw1, LV_GRID_ALIGN_START, 0, 1, LV_GRID_ALIGN_CENTER, 6, 1);
 1092              		.loc 1 394 9 view .LVU191
 1093 0584 0294     		str	r4, [sp, #8]
ARM GAS  C:\Users\OSD\AppData\Local\Temp\ccdpxIfP.s 			page 38


 1094 0586 CDF804A0 		str	r10, [sp, #4]
 1095 058a 0096     		str	r6, [sp]
 1096 058c 2346     		mov	r3, r4
 1097 058e 3246     		mov	r2, r6
 1098 0590 3146     		mov	r1, r6
 1099 0592 1A98     		ldr	r0, [sp, #104]
 1100 0594 FFF7FEFF 		bl	lv_obj_set_grid_cell
 1101              	.LVL167:
 395:lvgl/demos/widgets/lv_demo_widgets.c ****         lv_obj_set_grid_cell(team_player_label, LV_GRID_ALIGN_START, 1, 1, LV_GRID_ALIGN_START, 5, 
 1102              		.loc 1 395 9 view .LVU192
 1103 0598 0294     		str	r4, [sp, #8]
 1104 059a 0195     		str	r5, [sp, #4]
 1105 059c 0094     		str	r4, [sp]
 1106 059e 2346     		mov	r3, r4
 1107 05a0 3246     		mov	r2, r6
 1108 05a2 3146     		mov	r1, r6
 1109 05a4 1998     		ldr	r0, [sp, #100]
 1110 05a6 FFF7FEFF 		bl	lv_obj_set_grid_cell
 1111              	.LVL168:
 396:lvgl/demos/widgets/lv_demo_widgets.c ****     }
 1112              		.loc 1 396 9 view .LVU193
 1113 05aa 0294     		str	r4, [sp, #8]
 1114 05ac CDF804A0 		str	r10, [sp, #4]
 1115 05b0 0096     		str	r6, [sp]
 1116 05b2 2346     		mov	r3, r4
 1117 05b4 2246     		mov	r2, r4
 1118 05b6 3146     		mov	r1, r6
 1119 05b8 1898     		ldr	r0, [sp, #96]
 1120 05ba FFF7FEFF 		bl	lv_obj_set_grid_cell
 1121              	.LVL169:
 1122              	.LBE180:
 1123 05be 95E6     		b	.L1
 1124              	.L12:
 1125              		.align	2
 1126              	.L11:
 1127 05c0 00000000 		.word	.LANCHOR4
 1128 05c4 00000000 		.word	.LANCHOR5
 1129 05c8 00000000 		.word	.LANCHOR6
 1130 05cc 00000000 		.word	.LANCHOR7
 1131 05d0 00000000 		.word	.LANCHOR8
 1132 05d4 00000000 		.word	.LANCHOR9
 1133              	.LVL170:
 1134              	.L7:
 1135              	.LBB181:
 399:lvgl/demos/widgets/lv_demo_widgets.c ****         static lv_coord_t grid_main_row_dsc[] = {LV_GRID_CONTENT, LV_GRID_CONTENT, LV_GRID_TEMPLATE
 1136              		.loc 1 399 9 view .LVU194
 400:lvgl/demos/widgets/lv_demo_widgets.c **** 
 1137              		.loc 1 400 9 view .LVU195
 403:lvgl/demos/widgets/lv_demo_widgets.c ****         static lv_coord_t grid_1_row_dsc[] = {
 1138              		.loc 1 403 9 view .LVU196
 404:lvgl/demos/widgets/lv_demo_widgets.c ****             LV_GRID_CONTENT, /*Name*/
 1139              		.loc 1 404 9 view .LVU197
 414:lvgl/demos/widgets/lv_demo_widgets.c ****         static lv_coord_t grid_2_row_dsc[] = {
 1140              		.loc 1 414 9 view .LVU198
 415:lvgl/demos/widgets/lv_demo_widgets.c ****             LV_GRID_CONTENT,  /*Title*/
 1141              		.loc 1 415 9 view .LVU199
 429:lvgl/demos/widgets/lv_demo_widgets.c ****         lv_obj_set_grid_cell(panel1, LV_GRID_ALIGN_STRETCH, 0, 2, LV_GRID_ALIGN_CENTER, 0, 1);
ARM GAS  C:\Users\OSD\AppData\Local\Temp\ccdpxIfP.s 			page 39


 1142              		.loc 1 429 9 view .LVU200
 1143 05d8 9A4A     		ldr	r2, .L13
 1144 05da 9B49     		ldr	r1, .L13+4
 1145 05dc 3046     		mov	r0, r6
 1146              	.LVL171:
 429:lvgl/demos/widgets/lv_demo_widgets.c ****         lv_obj_set_grid_cell(panel1, LV_GRID_ALIGN_STRETCH, 0, 2, LV_GRID_ALIGN_CENTER, 0, 1);
 1147              		.loc 1 429 9 is_stmt 0 view .LVU201
 1148 05de FFF7FEFF 		bl	lv_obj_set_grid_dsc_array
 1149              	.LVL172:
 430:lvgl/demos/widgets/lv_demo_widgets.c **** 
 1150              		.loc 1 430 9 is_stmt 1 view .LVU202
 1151 05e2 0124     		movs	r4, #1
 1152 05e4 0294     		str	r4, [sp, #8]
 1153 05e6 0026     		movs	r6, #0
 1154              	.LVL173:
 430:lvgl/demos/widgets/lv_demo_widgets.c **** 
 1155              		.loc 1 430 9 is_stmt 0 view .LVU203
 1156 05e8 0196     		str	r6, [sp, #4]
 1157 05ea 0094     		str	r4, [sp]
 1158 05ec 0223     		movs	r3, #2
 1159 05ee 3246     		mov	r2, r6
 1160 05f0 0321     		movs	r1, #3
 1161 05f2 4046     		mov	r0, r8
 1162 05f4 FFF7FEFF 		bl	lv_obj_set_grid_cell
 1163              	.LVL174:
 432:lvgl/demos/widgets/lv_demo_widgets.c ****         lv_obj_set_width(invite_btn, 120);
 1164              		.loc 1 432 9 is_stmt 1 view .LVU204
 1165 05f8 7821     		movs	r1, #120
 1166 05fa 0898     		ldr	r0, [sp, #32]
 1167 05fc FFF7FEFF 		bl	lv_obj_set_width
 1168              	.LVL175:
 433:lvgl/demos/widgets/lv_demo_widgets.c **** 
 1169              		.loc 1 433 9 view .LVU205
 1170 0600 7821     		movs	r1, #120
 1171 0602 0998     		ldr	r0, [sp, #36]
 1172 0604 FFF7FEFF 		bl	lv_obj_set_width
 1173              	.LVL176:
 435:lvgl/demos/widgets/lv_demo_widgets.c ****         lv_obj_set_grid_cell(avatar, LV_GRID_ALIGN_CENTER, 0, 1, LV_GRID_ALIGN_START, 0, 4);
 1174              		.loc 1 435 9 view .LVU206
 1175 0608 904A     		ldr	r2, .L13+8
 1176 060a 9149     		ldr	r1, .L13+12
 1177 060c 4046     		mov	r0, r8
 1178 060e FFF7FEFF 		bl	lv_obj_set_grid_dsc_array
 1179              	.LVL177:
 436:lvgl/demos/widgets/lv_demo_widgets.c ****         lv_obj_set_grid_cell(name, LV_GRID_ALIGN_START, 2, 2, LV_GRID_ALIGN_CENTER, 0, 1);
 1180              		.loc 1 436 9 view .LVU207
 1181 0612 4FF0040A 		mov	r10, #4
 1182              	.LVL178:
 436:lvgl/demos/widgets/lv_demo_widgets.c ****         lv_obj_set_grid_cell(name, LV_GRID_ALIGN_START, 2, 2, LV_GRID_ALIGN_CENTER, 0, 1);
 1183              		.loc 1 436 9 is_stmt 0 view .LVU208
 1184 0616 CDF808A0 		str	r10, [sp, #8]
 1185 061a 0196     		str	r6, [sp, #4]
 1186 061c 0096     		str	r6, [sp]
 1187 061e 2346     		mov	r3, r4
 1188 0620 3246     		mov	r2, r6
 1189 0622 2146     		mov	r1, r4
 1190 0624 0A98     		ldr	r0, [sp, #40]
ARM GAS  C:\Users\OSD\AppData\Local\Temp\ccdpxIfP.s 			page 40


 1191 0626 FFF7FEFF 		bl	lv_obj_set_grid_cell
 1192              	.LVL179:
 437:lvgl/demos/widgets/lv_demo_widgets.c ****         lv_obj_set_grid_cell(dsc, LV_GRID_ALIGN_STRETCH, 2, 2, LV_GRID_ALIGN_START, 1, 1);
 1193              		.loc 1 437 9 is_stmt 1 view .LVU209
 1194 062a 0294     		str	r4, [sp, #8]
 1195 062c 0196     		str	r6, [sp, #4]
 1196 062e 0094     		str	r4, [sp]
 1197 0630 0223     		movs	r3, #2
 1198 0632 1A46     		mov	r2, r3
 1199 0634 3146     		mov	r1, r6
 1200 0636 0B98     		ldr	r0, [sp, #44]
 1201 0638 FFF7FEFF 		bl	lv_obj_set_grid_cell
 1202              	.LVL180:
 438:lvgl/demos/widgets/lv_demo_widgets.c ****         lv_obj_set_grid_cell(email_label, LV_GRID_ALIGN_START, 3, 1, LV_GRID_ALIGN_CENTER, 2, 1);
 1203              		.loc 1 438 9 view .LVU210
 1204 063c 0294     		str	r4, [sp, #8]
 1205 063e 0194     		str	r4, [sp, #4]
 1206 0640 0096     		str	r6, [sp]
 1207 0642 0223     		movs	r3, #2
 1208 0644 1A46     		mov	r2, r3
 1209 0646 0321     		movs	r1, #3
 1210 0648 4846     		mov	r0, r9
 1211 064a FFF7FEFF 		bl	lv_obj_set_grid_cell
 1212              	.LVL181:
 439:lvgl/demos/widgets/lv_demo_widgets.c ****         lv_obj_set_grid_cell(email_icn, LV_GRID_ALIGN_CENTER, 2, 1, LV_GRID_ALIGN_CENTER, 2, 1);
 1213              		.loc 1 439 9 view .LVU211
 1214 064e 0294     		str	r4, [sp, #8]
 1215 0650 4FF00208 		mov	r8, #2
 1216              	.LVL182:
 439:lvgl/demos/widgets/lv_demo_widgets.c ****         lv_obj_set_grid_cell(email_icn, LV_GRID_ALIGN_CENTER, 2, 1, LV_GRID_ALIGN_CENTER, 2, 1);
 1217              		.loc 1 439 9 is_stmt 0 view .LVU212
 1218 0654 CDF80480 		str	r8, [sp, #4]
 1219 0658 0094     		str	r4, [sp]
 1220 065a 2346     		mov	r3, r4
 1221 065c 0322     		movs	r2, #3
 1222 065e 3146     		mov	r1, r6
 1223 0660 0D98     		ldr	r0, [sp, #52]
 1224 0662 FFF7FEFF 		bl	lv_obj_set_grid_cell
 1225              	.LVL183:
 440:lvgl/demos/widgets/lv_demo_widgets.c ****         lv_obj_set_grid_cell(call_icn, LV_GRID_ALIGN_CENTER, 2, 1, LV_GRID_ALIGN_CENTER, 4, 1);
 1226              		.loc 1 440 9 is_stmt 1 view .LVU213
 1227 0666 0294     		str	r4, [sp, #8]
 1228 0668 CDF80480 		str	r8, [sp, #4]
 1229 066c 0094     		str	r4, [sp]
 1230 066e 2346     		mov	r3, r4
 1231 0670 4246     		mov	r2, r8
 1232 0672 2146     		mov	r1, r4
 1233 0674 0C98     		ldr	r0, [sp, #48]
 1234 0676 FFF7FEFF 		bl	lv_obj_set_grid_cell
 1235              	.LVL184:
 441:lvgl/demos/widgets/lv_demo_widgets.c ****         lv_obj_set_grid_cell(call_label, LV_GRID_ALIGN_START, 3, 1, LV_GRID_ALIGN_CENTER, 4, 1);
 1236              		.loc 1 441 9 view .LVU214
 1237 067a 0294     		str	r4, [sp, #8]
 1238 067c CDF804A0 		str	r10, [sp, #4]
 1239 0680 0094     		str	r4, [sp]
 1240 0682 2346     		mov	r3, r4
 1241 0684 4246     		mov	r2, r8
ARM GAS  C:\Users\OSD\AppData\Local\Temp\ccdpxIfP.s 			page 41


 1242 0686 2146     		mov	r1, r4
 1243 0688 0E98     		ldr	r0, [sp, #56]
 1244 068a FFF7FEFF 		bl	lv_obj_set_grid_cell
 1245              	.LVL185:
 442:lvgl/demos/widgets/lv_demo_widgets.c ****         lv_obj_set_grid_cell(log_out_btn, LV_GRID_ALIGN_START, 1, 1, LV_GRID_ALIGN_CENTER, 5, 1);
 1246              		.loc 1 442 9 view .LVU215
 1247 068e 0294     		str	r4, [sp, #8]
 1248 0690 CDF804A0 		str	r10, [sp, #4]
 1249 0694 0094     		str	r4, [sp]
 1250 0696 2346     		mov	r3, r4
 1251 0698 0322     		movs	r2, #3
 1252 069a 3146     		mov	r1, r6
 1253 069c 0F98     		ldr	r0, [sp, #60]
 1254 069e FFF7FEFF 		bl	lv_obj_set_grid_cell
 1255              	.LVL186:
 443:lvgl/demos/widgets/lv_demo_widgets.c ****         lv_obj_set_grid_cell(invite_btn, LV_GRID_ALIGN_END, 3, 1, LV_GRID_ALIGN_CENTER, 5, 1);
 1256              		.loc 1 443 9 view .LVU216
 1257 06a2 0294     		str	r4, [sp, #8]
 1258 06a4 4FF00509 		mov	r9, #5
 1259              	.LVL187:
 443:lvgl/demos/widgets/lv_demo_widgets.c ****         lv_obj_set_grid_cell(invite_btn, LV_GRID_ALIGN_END, 3, 1, LV_GRID_ALIGN_CENTER, 5, 1);
 1260              		.loc 1 443 9 is_stmt 0 view .LVU217
 1261 06a8 CDF80490 		str	r9, [sp, #4]
 1262 06ac 0094     		str	r4, [sp]
 1263 06ae 2346     		mov	r3, r4
 1264 06b0 2246     		mov	r2, r4
 1265 06b2 3146     		mov	r1, r6
 1266 06b4 0898     		ldr	r0, [sp, #32]
 1267 06b6 FFF7FEFF 		bl	lv_obj_set_grid_cell
 1268              	.LVL188:
 444:lvgl/demos/widgets/lv_demo_widgets.c **** 
 1269              		.loc 1 444 9 is_stmt 1 view .LVU218
 1270 06ba 0294     		str	r4, [sp, #8]
 1271 06bc CDF80490 		str	r9, [sp, #4]
 1272 06c0 0094     		str	r4, [sp]
 1273 06c2 2346     		mov	r3, r4
 1274 06c4 0322     		movs	r2, #3
 1275 06c6 4146     		mov	r1, r8
 1276 06c8 0998     		ldr	r0, [sp, #36]
 1277 06ca FFF7FEFF 		bl	lv_obj_set_grid_cell
 1278              	.LVL189:
 446:lvgl/demos/widgets/lv_demo_widgets.c ****         lv_obj_set_grid_dsc_array(panel2, grid_2_col_dsc, grid_2_row_dsc);
 1279              		.loc 1 446 9 view .LVU219
 1280 06ce 0294     		str	r4, [sp, #8]
 1281 06d0 0194     		str	r4, [sp, #4]
 1282 06d2 0096     		str	r6, [sp]
 1283 06d4 2346     		mov	r3, r4
 1284 06d6 3246     		mov	r2, r6
 1285 06d8 0321     		movs	r1, #3
 1286 06da 2846     		mov	r0, r5
 1287 06dc FFF7FEFF 		bl	lv_obj_set_grid_cell
 1288              	.LVL190:
 447:lvgl/demos/widgets/lv_demo_widgets.c ****         lv_obj_set_grid_cell(panel2_title, LV_GRID_ALIGN_START, 0, 2, LV_GRID_ALIGN_CENTER, 0, 1);
 1289              		.loc 1 447 9 view .LVU220
 1290 06e0 5C4A     		ldr	r2, .L13+16
 1291 06e2 5D49     		ldr	r1, .L13+20
 1292 06e4 2846     		mov	r0, r5
ARM GAS  C:\Users\OSD\AppData\Local\Temp\ccdpxIfP.s 			page 42


 1293 06e6 FFF7FEFF 		bl	lv_obj_set_grid_dsc_array
 1294              	.LVL191:
 448:lvgl/demos/widgets/lv_demo_widgets.c ****         lv_obj_set_grid_cell(user_name_label, LV_GRID_ALIGN_START, 0, 2, LV_GRID_ALIGN_START, 2, 1)
 1295              		.loc 1 448 9 view .LVU221
 1296 06ea 0294     		str	r4, [sp, #8]
 1297 06ec 0196     		str	r6, [sp, #4]
 1298 06ee 0094     		str	r4, [sp]
 1299 06f0 4346     		mov	r3, r8
 1300 06f2 3246     		mov	r2, r6
 1301 06f4 3146     		mov	r1, r6
 1302 06f6 1098     		ldr	r0, [sp, #64]
 1303 06f8 FFF7FEFF 		bl	lv_obj_set_grid_cell
 1304              	.LVL192:
 449:lvgl/demos/widgets/lv_demo_widgets.c ****         lv_obj_set_grid_cell(user_name, LV_GRID_ALIGN_STRETCH, 0, 2, LV_GRID_ALIGN_START, 3, 1);
 1305              		.loc 1 449 9 view .LVU222
 1306 06fc 0294     		str	r4, [sp, #8]
 1307 06fe CDF80480 		str	r8, [sp, #4]
 1308 0702 0096     		str	r6, [sp]
 1309 0704 4346     		mov	r3, r8
 1310 0706 3246     		mov	r2, r6
 1311 0708 3146     		mov	r1, r6
 1312 070a 1198     		ldr	r0, [sp, #68]
 1313 070c FFF7FEFF 		bl	lv_obj_set_grid_cell
 1314              	.LVL193:
 450:lvgl/demos/widgets/lv_demo_widgets.c ****         lv_obj_set_grid_cell(password_label, LV_GRID_ALIGN_START, 0, 2, LV_GRID_ALIGN_START, 4, 1);
 1315              		.loc 1 450 9 view .LVU223
 1316 0710 0294     		str	r4, [sp, #8]
 1317 0712 0325     		movs	r5, #3
 1318              	.LVL194:
 450:lvgl/demos/widgets/lv_demo_widgets.c ****         lv_obj_set_grid_cell(password_label, LV_GRID_ALIGN_START, 0, 2, LV_GRID_ALIGN_START, 4, 1);
 1319              		.loc 1 450 9 is_stmt 0 view .LVU224
 1320 0714 0195     		str	r5, [sp, #4]
 1321 0716 0096     		str	r6, [sp]
 1322 0718 4346     		mov	r3, r8
 1323 071a 3246     		mov	r2, r6
 1324 071c 2946     		mov	r1, r5
 1325 071e 0698     		ldr	r0, [sp, #24]
 1326 0720 FFF7FEFF 		bl	lv_obj_set_grid_cell
 1327              	.LVL195:
 451:lvgl/demos/widgets/lv_demo_widgets.c ****         lv_obj_set_grid_cell(password, LV_GRID_ALIGN_STRETCH, 0, 2, LV_GRID_ALIGN_START, 5, 1);
 1328              		.loc 1 451 9 is_stmt 1 view .LVU225
 1329 0724 0294     		str	r4, [sp, #8]
 1330 0726 CDF804A0 		str	r10, [sp, #4]
 1331 072a 0096     		str	r6, [sp]
 1332 072c 4346     		mov	r3, r8
 1333 072e 3246     		mov	r2, r6
 1334 0730 3146     		mov	r1, r6
 1335 0732 0798     		ldr	r0, [sp, #28]
 1336 0734 FFF7FEFF 		bl	lv_obj_set_grid_cell
 1337              	.LVL196:
 452:lvgl/demos/widgets/lv_demo_widgets.c ****         lv_obj_set_grid_cell(birthday_label, LV_GRID_ALIGN_START, 0, 2, LV_GRID_ALIGN_START, 6, 1);
 1338              		.loc 1 452 9 view .LVU226
 1339 0738 0294     		str	r4, [sp, #8]
 1340 073a CDF80490 		str	r9, [sp, #4]
 1341 073e 0096     		str	r6, [sp]
 1342 0740 4346     		mov	r3, r8
 1343 0742 3246     		mov	r2, r6
ARM GAS  C:\Users\OSD\AppData\Local\Temp\ccdpxIfP.s 			page 43


 1344 0744 2946     		mov	r1, r5
 1345 0746 0598     		ldr	r0, [sp, #20]
 1346 0748 FFF7FEFF 		bl	lv_obj_set_grid_cell
 1347              	.LVL197:
 453:lvgl/demos/widgets/lv_demo_widgets.c ****         lv_obj_set_grid_cell(birthdate, LV_GRID_ALIGN_STRETCH, 0, 2, LV_GRID_ALIGN_START, 7, 1);
 1348              		.loc 1 453 9 view .LVU227
 1349 074c 0294     		str	r4, [sp, #8]
 1350 074e 0623     		movs	r3, #6
 1351 0750 0193     		str	r3, [sp, #4]
 1352 0752 0096     		str	r6, [sp]
 1353 0754 4346     		mov	r3, r8
 1354 0756 3246     		mov	r2, r6
 1355 0758 3146     		mov	r1, r6
 1356 075a 1498     		ldr	r0, [sp, #80]
 1357 075c FFF7FEFF 		bl	lv_obj_set_grid_cell
 1358              	.LVL198:
 454:lvgl/demos/widgets/lv_demo_widgets.c ****         lv_obj_set_grid_cell(gender_label, LV_GRID_ALIGN_START, 0, 2, LV_GRID_ALIGN_START, 8, 1);
 1359              		.loc 1 454 9 view .LVU228
 1360 0760 0294     		str	r4, [sp, #8]
 1361 0762 0723     		movs	r3, #7
 1362 0764 0193     		str	r3, [sp, #4]
 1363 0766 0096     		str	r6, [sp]
 1364 0768 4346     		mov	r3, r8
 1365 076a 3246     		mov	r2, r6
 1366 076c 2946     		mov	r1, r5
 1367 076e 1598     		ldr	r0, [sp, #84]
 1368 0770 FFF7FEFF 		bl	lv_obj_set_grid_cell
 1369              	.LVL199:
 455:lvgl/demos/widgets/lv_demo_widgets.c ****         lv_obj_set_grid_cell(gender, LV_GRID_ALIGN_STRETCH, 0, 2, LV_GRID_ALIGN_START, 9, 1);
 1370              		.loc 1 455 9 view .LVU229
 1371 0774 0294     		str	r4, [sp, #8]
 1372 0776 0823     		movs	r3, #8
 1373 0778 0193     		str	r3, [sp, #4]
 1374 077a 0096     		str	r6, [sp]
 1375 077c 4346     		mov	r3, r8
 1376 077e 3246     		mov	r2, r6
 1377 0780 3146     		mov	r1, r6
 1378 0782 1298     		ldr	r0, [sp, #72]
 1379 0784 FFF7FEFF 		bl	lv_obj_set_grid_cell
 1380              	.LVL200:
 456:lvgl/demos/widgets/lv_demo_widgets.c **** 
 1381              		.loc 1 456 9 view .LVU230
 1382 0788 0294     		str	r4, [sp, #8]
 1383 078a 0923     		movs	r3, #9
 1384 078c 0193     		str	r3, [sp, #4]
 1385 078e 0096     		str	r6, [sp]
 1386 0790 4346     		mov	r3, r8
 1387 0792 3246     		mov	r2, r6
 1388 0794 2946     		mov	r1, r5
 1389 0796 1398     		ldr	r0, [sp, #76]
 1390 0798 FFF7FEFF 		bl	lv_obj_set_grid_cell
 1391              	.LVL201:
 458:lvgl/demos/widgets/lv_demo_widgets.c ****         lv_obj_set_grid_dsc_array(panel3, grid_2_col_dsc, grid_2_row_dsc);
 1392              		.loc 1 458 9 view .LVU231
 1393 079c 0294     		str	r4, [sp, #8]
 1394 079e 0194     		str	r4, [sp, #4]
 1395 07a0 0095     		str	r5, [sp]
ARM GAS  C:\Users\OSD\AppData\Local\Temp\ccdpxIfP.s 			page 44


 1396 07a2 2346     		mov	r3, r4
 1397 07a4 2246     		mov	r2, r4
 1398 07a6 2946     		mov	r1, r5
 1399 07a8 3846     		mov	r0, r7
 1400 07aa FFF7FEFF 		bl	lv_obj_set_grid_cell
 1401              	.LVL202:
 459:lvgl/demos/widgets/lv_demo_widgets.c ****         lv_obj_set_grid_cell(panel3_title, LV_GRID_ALIGN_START, 0, 2, LV_GRID_ALIGN_CENTER, 0, 1);
 1402              		.loc 1 459 9 view .LVU232
 1403 07ae 294A     		ldr	r2, .L13+16
 1404 07b0 2949     		ldr	r1, .L13+20
 1405 07b2 3846     		mov	r0, r7
 1406 07b4 FFF7FEFF 		bl	lv_obj_set_grid_dsc_array
 1407              	.LVL203:
 460:lvgl/demos/widgets/lv_demo_widgets.c ****         lv_obj_set_grid_cell(slider1, LV_GRID_ALIGN_CENTER, 0, 2, LV_GRID_ALIGN_CENTER, 3, 1);
 1408              		.loc 1 460 9 view .LVU233
 1409 07b8 0294     		str	r4, [sp, #8]
 1410 07ba 0196     		str	r6, [sp, #4]
 1411 07bc 0094     		str	r4, [sp]
 1412 07be 4346     		mov	r3, r8
 1413 07c0 3246     		mov	r2, r6
 1414 07c2 3146     		mov	r1, r6
 1415 07c4 1698     		ldr	r0, [sp, #88]
 1416 07c6 FFF7FEFF 		bl	lv_obj_set_grid_cell
 1417              	.LVL204:
 461:lvgl/demos/widgets/lv_demo_widgets.c ****         lv_obj_set_grid_cell(experience_label, LV_GRID_ALIGN_START, 0, 1, LV_GRID_ALIGN_START, 2, 1
 1418              		.loc 1 461 9 view .LVU234
 1419 07ca 0294     		str	r4, [sp, #8]
 1420 07cc 0195     		str	r5, [sp, #4]
 1421 07ce 0094     		str	r4, [sp]
 1422 07d0 4346     		mov	r3, r8
 1423 07d2 3246     		mov	r2, r6
 1424 07d4 2146     		mov	r1, r4
 1425 07d6 5846     		mov	r0, fp
 1426 07d8 FFF7FEFF 		bl	lv_obj_set_grid_cell
 1427              	.LVL205:
 462:lvgl/demos/widgets/lv_demo_widgets.c ****         lv_obj_set_grid_cell(hard_working_label, LV_GRID_ALIGN_START, 0, 1, LV_GRID_ALIGN_START, 4,
 1428              		.loc 1 462 9 view .LVU235
 1429 07dc 0294     		str	r4, [sp, #8]
 1430 07de CDF80480 		str	r8, [sp, #4]
 1431 07e2 0096     		str	r6, [sp]
 1432 07e4 2346     		mov	r3, r4
 1433 07e6 3246     		mov	r2, r6
 1434 07e8 3146     		mov	r1, r6
 1435 07ea 1798     		ldr	r0, [sp, #92]
 1436 07ec FFF7FEFF 		bl	lv_obj_set_grid_cell
 1437              	.LVL206:
 463:lvgl/demos/widgets/lv_demo_widgets.c ****         lv_obj_set_grid_cell(sw2, LV_GRID_ALIGN_START, 0, 1, LV_GRID_ALIGN_START, 5, 1);
 1438              		.loc 1 463 9 view .LVU236
 1439 07f0 0294     		str	r4, [sp, #8]
 1440 07f2 CDF804A0 		str	r10, [sp, #4]
 1441 07f6 0096     		str	r6, [sp]
 1442 07f8 2346     		mov	r3, r4
 1443 07fa 3246     		mov	r2, r6
 1444 07fc 3146     		mov	r1, r6
 1445 07fe 1A98     		ldr	r0, [sp, #104]
 1446 0800 FFF7FEFF 		bl	lv_obj_set_grid_cell
 1447              	.LVL207:
ARM GAS  C:\Users\OSD\AppData\Local\Temp\ccdpxIfP.s 			page 45


 464:lvgl/demos/widgets/lv_demo_widgets.c ****         lv_obj_set_grid_cell(team_player_label, LV_GRID_ALIGN_START, 0, 1, LV_GRID_ALIGN_START, 6, 
 1448              		.loc 1 464 9 view .LVU237
 1449 0804 0294     		str	r4, [sp, #8]
 1450 0806 CDF80490 		str	r9, [sp, #4]
 1451 080a 0096     		str	r6, [sp]
 1452 080c 2346     		mov	r3, r4
 1453 080e 3246     		mov	r2, r6
 1454 0810 3146     		mov	r1, r6
 1455 0812 1B98     		ldr	r0, [sp, #108]
 1456 0814 FFF7FEFF 		bl	lv_obj_set_grid_cell
 1457              	.LVL208:
 465:lvgl/demos/widgets/lv_demo_widgets.c ****         lv_obj_set_grid_cell(sw1, LV_GRID_ALIGN_START, 0, 1, LV_GRID_ALIGN_START, 7, 1);
 1458              		.loc 1 465 9 view .LVU238
 1459 0818 0294     		str	r4, [sp, #8]
 1460 081a 0623     		movs	r3, #6
 1461 081c 0193     		str	r3, [sp, #4]
 1462 081e 0096     		str	r6, [sp]
 1463 0820 2346     		mov	r3, r4
 1464 0822 3246     		mov	r2, r6
 1465 0824 3146     		mov	r1, r6
 1466 0826 1898     		ldr	r0, [sp, #96]
 1467 0828 FFF7FEFF 		bl	lv_obj_set_grid_cell
 1468              	.LVL209:
 466:lvgl/demos/widgets/lv_demo_widgets.c ****     }
 1469              		.loc 1 466 9 view .LVU239
 1470 082c 0294     		str	r4, [sp, #8]
 1471 082e 0723     		movs	r3, #7
 1472 0830 0193     		str	r3, [sp, #4]
 1473 0832 0096     		str	r6, [sp]
 1474 0834 2346     		mov	r3, r4
 1475 0836 3246     		mov	r2, r6
 1476 0838 3146     		mov	r1, r6
 1477 083a 1998     		ldr	r0, [sp, #100]
 1478 083c FFF7FEFF 		bl	lv_obj_set_grid_cell
 1479              	.LVL210:
 1480              	.LBE181:
 1481 0840 54E5     		b	.L1
 1482              	.L14:
 1483 0842 00BF     		.align	2
 1484              	.L13:
 1485 0844 00000000 		.word	.LANCHOR10
 1486 0848 00000000 		.word	.LANCHOR11
 1487 084c 00000000 		.word	.LANCHOR12
 1488 0850 00000000 		.word	.LANCHOR13
 1489 0854 00000000 		.word	.LANCHOR14
 1490 0858 00000000 		.word	.LANCHOR15
 1491              	.LVL211:
 1492              	.L8:
 1493              	.LBB182:
 469:lvgl/demos/widgets/lv_demo_widgets.c ****         static lv_coord_t grid_main_row_dsc[] = {LV_GRID_CONTENT, LV_GRID_CONTENT, LV_GRID_CONTENT,
 1494              		.loc 1 469 9 view .LVU240
 470:lvgl/demos/widgets/lv_demo_widgets.c ****         lv_obj_set_grid_dsc_array(parent, grid_main_col_dsc, grid_main_row_dsc);
 1495              		.loc 1 470 9 view .LVU241
 471:lvgl/demos/widgets/lv_demo_widgets.c **** 
 1496              		.loc 1 471 9 view .LVU242
 1497 085c 9D4A     		ldr	r2, .L15
 1498 085e 9E49     		ldr	r1, .L15+4
ARM GAS  C:\Users\OSD\AppData\Local\Temp\ccdpxIfP.s 			page 46


 1499 0860 3046     		mov	r0, r6
 1500              	.LVL212:
 471:lvgl/demos/widgets/lv_demo_widgets.c **** 
 1501              		.loc 1 471 9 is_stmt 0 view .LVU243
 1502 0862 FFF7FEFF 		bl	lv_obj_set_grid_dsc_array
 1503              	.LVL213:
 474:lvgl/demos/widgets/lv_demo_widgets.c ****         static lv_coord_t grid_1_row_dsc[] = {LV_GRID_CONTENT, /*Avatar*/
 1504              		.loc 1 474 9 is_stmt 1 view .LVU244
 475:lvgl/demos/widgets/lv_demo_widgets.c ****                                               LV_GRID_CONTENT, /*Name*/
 1505              		.loc 1 475 9 view .LVU245
 485:lvgl/demos/widgets/lv_demo_widgets.c **** 
 1506              		.loc 1 485 9 view .LVU246
 1507 0866 9D4A     		ldr	r2, .L15+8
 1508 0868 9D49     		ldr	r1, .L15+12
 1509 086a 4046     		mov	r0, r8
 1510 086c FFF7FEFF 		bl	lv_obj_set_grid_dsc_array
 1511              	.LVL214:
 487:lvgl/demos/widgets/lv_demo_widgets.c ****         static lv_coord_t grid_2_row_dsc[] = {
 1512              		.loc 1 487 9 view .LVU247
 488:lvgl/demos/widgets/lv_demo_widgets.c ****             LV_GRID_CONTENT,  /*Title*/
 1513              		.loc 1 488 9 view .LVU248
 501:lvgl/demos/widgets/lv_demo_widgets.c ****         lv_obj_set_grid_dsc_array(panel3, grid_2_col_dsc, grid_2_row_dsc);
 1514              		.loc 1 501 9 view .LVU249
 1515 0870 9C4E     		ldr	r6, .L15+16
 1516              	.LVL215:
 501:lvgl/demos/widgets/lv_demo_widgets.c ****         lv_obj_set_grid_dsc_array(panel3, grid_2_col_dsc, grid_2_row_dsc);
 1517              		.loc 1 501 9 is_stmt 0 view .LVU250
 1518 0872 9D4C     		ldr	r4, .L15+20
 1519 0874 3246     		mov	r2, r6
 1520 0876 2146     		mov	r1, r4
 1521 0878 2846     		mov	r0, r5
 1522 087a FFF7FEFF 		bl	lv_obj_set_grid_dsc_array
 1523              	.LVL216:
 502:lvgl/demos/widgets/lv_demo_widgets.c **** 
 1524              		.loc 1 502 9 is_stmt 1 view .LVU251
 1525 087e 3246     		mov	r2, r6
 1526 0880 2146     		mov	r1, r4
 1527 0882 3846     		mov	r0, r7
 1528 0884 FFF7FEFF 		bl	lv_obj_set_grid_dsc_array
 1529              	.LVL217:
 504:lvgl/demos/widgets/lv_demo_widgets.c **** 
 1530              		.loc 1 504 9 view .LVU252
 1531 0888 0124     		movs	r4, #1
 1532 088a 0294     		str	r4, [sp, #8]
 1533 088c 0026     		movs	r6, #0
 1534 088e 0196     		str	r6, [sp, #4]
 1535 0890 0094     		str	r4, [sp]
 1536 0892 2346     		mov	r3, r4
 1537 0894 3246     		mov	r2, r6
 1538 0896 0321     		movs	r1, #3
 1539 0898 4046     		mov	r0, r8
 1540 089a FFF7FEFF 		bl	lv_obj_set_grid_cell
 1541              	.LVL218:
 506:lvgl/demos/widgets/lv_demo_widgets.c **** 
 1542              		.loc 1 506 9 view .LVU253
 1543 089e 3246     		mov	r2, r6
 1544 08a0 0221     		movs	r1, #2
ARM GAS  C:\Users\OSD\AppData\Local\Temp\ccdpxIfP.s 			page 47


 1545 08a2 4846     		mov	r0, r9
 1546 08a4 FFF7FEFF 		bl	lv_obj_set_style_text_align
 1547              	.LVL219:
 508:lvgl/demos/widgets/lv_demo_widgets.c ****         lv_obj_set_grid_cell(name, LV_GRID_ALIGN_CENTER, 0, 2, LV_GRID_ALIGN_CENTER, 1, 1);
 1548              		.loc 1 508 9 view .LVU254
 1549 08a8 0294     		str	r4, [sp, #8]
 1550 08aa 0196     		str	r6, [sp, #4]
 1551 08ac 0094     		str	r4, [sp]
 1552 08ae 0223     		movs	r3, #2
 1553 08b0 3246     		mov	r2, r6
 1554 08b2 2146     		mov	r1, r4
 1555 08b4 0A98     		ldr	r0, [sp, #40]
 1556 08b6 FFF7FEFF 		bl	lv_obj_set_grid_cell
 1557              	.LVL220:
 509:lvgl/demos/widgets/lv_demo_widgets.c ****         lv_obj_set_grid_cell(dsc, LV_GRID_ALIGN_STRETCH, 0, 2, LV_GRID_ALIGN_START, 2, 1);
 1558              		.loc 1 509 9 view .LVU255
 1559 08ba 0294     		str	r4, [sp, #8]
 1560 08bc 0194     		str	r4, [sp, #4]
 1561 08be 0094     		str	r4, [sp]
 1562 08c0 0223     		movs	r3, #2
 1563 08c2 3246     		mov	r2, r6
 1564 08c4 2146     		mov	r1, r4
 1565 08c6 0B98     		ldr	r0, [sp, #44]
 1566 08c8 FFF7FEFF 		bl	lv_obj_set_grid_cell
 1567              	.LVL221:
 510:lvgl/demos/widgets/lv_demo_widgets.c ****         lv_obj_set_grid_cell(email_icn, LV_GRID_ALIGN_CENTER, 0, 1, LV_GRID_ALIGN_CENTER, 3, 1);
 1568              		.loc 1 510 9 view .LVU256
 1569 08cc 0294     		str	r4, [sp, #8]
 1570 08ce 4FF00208 		mov	r8, #2
 1571              	.LVL222:
 510:lvgl/demos/widgets/lv_demo_widgets.c ****         lv_obj_set_grid_cell(email_icn, LV_GRID_ALIGN_CENTER, 0, 1, LV_GRID_ALIGN_CENTER, 3, 1);
 1572              		.loc 1 510 9 is_stmt 0 view .LVU257
 1573 08d2 CDF80480 		str	r8, [sp, #4]
 1574 08d6 0096     		str	r6, [sp]
 1575 08d8 4346     		mov	r3, r8
 1576 08da 3246     		mov	r2, r6
 1577 08dc 0321     		movs	r1, #3
 1578 08de 4846     		mov	r0, r9
 1579 08e0 FFF7FEFF 		bl	lv_obj_set_grid_cell
 1580              	.LVL223:
 511:lvgl/demos/widgets/lv_demo_widgets.c ****         lv_obj_set_grid_cell(email_label, LV_GRID_ALIGN_START, 1, 1, LV_GRID_ALIGN_CENTER, 3, 1);
 1581              		.loc 1 511 9 is_stmt 1 view .LVU258
 1582 08e4 0294     		str	r4, [sp, #8]
 1583 08e6 4FF00309 		mov	r9, #3
 1584              	.LVL224:
 511:lvgl/demos/widgets/lv_demo_widgets.c ****         lv_obj_set_grid_cell(email_label, LV_GRID_ALIGN_START, 1, 1, LV_GRID_ALIGN_CENTER, 3, 1);
 1585              		.loc 1 511 9 is_stmt 0 view .LVU259
 1586 08ea CDF80490 		str	r9, [sp, #4]
 1587 08ee 0094     		str	r4, [sp]
 1588 08f0 2346     		mov	r3, r4
 1589 08f2 3246     		mov	r2, r6
 1590 08f4 2146     		mov	r1, r4
 1591 08f6 0C98     		ldr	r0, [sp, #48]
 1592 08f8 FFF7FEFF 		bl	lv_obj_set_grid_cell
 1593              	.LVL225:
 512:lvgl/demos/widgets/lv_demo_widgets.c ****         lv_obj_set_grid_cell(call_icn, LV_GRID_ALIGN_CENTER, 0, 1, LV_GRID_ALIGN_CENTER, 4, 1);
 1594              		.loc 1 512 9 is_stmt 1 view .LVU260
ARM GAS  C:\Users\OSD\AppData\Local\Temp\ccdpxIfP.s 			page 48


 1595 08fc 0294     		str	r4, [sp, #8]
 1596 08fe CDF80490 		str	r9, [sp, #4]
 1597 0902 0094     		str	r4, [sp]
 1598 0904 2346     		mov	r3, r4
 1599 0906 2246     		mov	r2, r4
 1600 0908 3146     		mov	r1, r6
 1601 090a 0D98     		ldr	r0, [sp, #52]
 1602 090c FFF7FEFF 		bl	lv_obj_set_grid_cell
 1603              	.LVL226:
 513:lvgl/demos/widgets/lv_demo_widgets.c ****         lv_obj_set_grid_cell(call_label, LV_GRID_ALIGN_START, 1, 1, LV_GRID_ALIGN_CENTER, 4, 1);
 1604              		.loc 1 513 9 view .LVU261
 1605 0910 0294     		str	r4, [sp, #8]
 1606 0912 4FF0040A 		mov	r10, #4
 1607              	.LVL227:
 513:lvgl/demos/widgets/lv_demo_widgets.c ****         lv_obj_set_grid_cell(call_label, LV_GRID_ALIGN_START, 1, 1, LV_GRID_ALIGN_CENTER, 4, 1);
 1608              		.loc 1 513 9 is_stmt 0 view .LVU262
 1609 0916 CDF804A0 		str	r10, [sp, #4]
 1610 091a 0094     		str	r4, [sp]
 1611 091c 2346     		mov	r3, r4
 1612 091e 3246     		mov	r2, r6
 1613 0920 2146     		mov	r1, r4
 1614 0922 0E98     		ldr	r0, [sp, #56]
 1615 0924 FFF7FEFF 		bl	lv_obj_set_grid_cell
 1616              	.LVL228:
 514:lvgl/demos/widgets/lv_demo_widgets.c ****         lv_obj_set_grid_cell(log_out_btn, LV_GRID_ALIGN_STRETCH, 0, 2, LV_GRID_ALIGN_CENTER, 5, 1);
 1617              		.loc 1 514 9 is_stmt 1 view .LVU263
 1618 0928 0294     		str	r4, [sp, #8]
 1619 092a CDF804A0 		str	r10, [sp, #4]
 1620 092e 0094     		str	r4, [sp]
 1621 0930 2346     		mov	r3, r4
 1622 0932 2246     		mov	r2, r4
 1623 0934 3146     		mov	r1, r6
 1624 0936 0F98     		ldr	r0, [sp, #60]
 1625 0938 FFF7FEFF 		bl	lv_obj_set_grid_cell
 1626              	.LVL229:
 515:lvgl/demos/widgets/lv_demo_widgets.c ****         lv_obj_set_grid_cell(invite_btn, LV_GRID_ALIGN_STRETCH, 0, 2, LV_GRID_ALIGN_CENTER, 6, 1);
 1627              		.loc 1 515 9 view .LVU264
 1628 093c 0294     		str	r4, [sp, #8]
 1629 093e 0523     		movs	r3, #5
 1630 0940 0193     		str	r3, [sp, #4]
 1631 0942 0094     		str	r4, [sp]
 1632 0944 4346     		mov	r3, r8
 1633 0946 3246     		mov	r2, r6
 1634 0948 4946     		mov	r1, r9
 1635 094a 0898     		ldr	r0, [sp, #32]
 1636 094c FFF7FEFF 		bl	lv_obj_set_grid_cell
 1637              	.LVL230:
 516:lvgl/demos/widgets/lv_demo_widgets.c **** 
 1638              		.loc 1 516 9 view .LVU265
 1639 0950 0294     		str	r4, [sp, #8]
 1640 0952 0623     		movs	r3, #6
 1641 0954 0193     		str	r3, [sp, #4]
 1642 0956 0094     		str	r4, [sp]
 1643 0958 4346     		mov	r3, r8
 1644 095a 3246     		mov	r2, r6
 1645 095c 4946     		mov	r1, r9
 1646 095e 0998     		ldr	r0, [sp, #36]
ARM GAS  C:\Users\OSD\AppData\Local\Temp\ccdpxIfP.s 			page 49


 1647 0960 FFF7FEFF 		bl	lv_obj_set_grid_cell
 1648              	.LVL231:
 518:lvgl/demos/widgets/lv_demo_widgets.c ****         lv_obj_set_grid_cell(panel2_title, LV_GRID_ALIGN_START, 0, 2, LV_GRID_ALIGN_CENTER, 0, 1);
 1649              		.loc 1 518 9 view .LVU266
 1650 0964 0294     		str	r4, [sp, #8]
 1651 0966 0194     		str	r4, [sp, #4]
 1652 0968 0096     		str	r6, [sp]
 1653 096a 2346     		mov	r3, r4
 1654 096c 3246     		mov	r2, r6
 1655 096e 4946     		mov	r1, r9
 1656 0970 2846     		mov	r0, r5
 1657 0972 FFF7FEFF 		bl	lv_obj_set_grid_cell
 1658              	.LVL232:
 519:lvgl/demos/widgets/lv_demo_widgets.c ****         lv_obj_set_grid_cell(user_name_label, LV_GRID_ALIGN_START, 0, 2, LV_GRID_ALIGN_START, 2, 1)
 1659              		.loc 1 519 9 view .LVU267
 1660 0976 0294     		str	r4, [sp, #8]
 1661 0978 0196     		str	r6, [sp, #4]
 1662 097a 0094     		str	r4, [sp]
 1663 097c 4346     		mov	r3, r8
 1664 097e 3246     		mov	r2, r6
 1665 0980 3146     		mov	r1, r6
 1666 0982 1098     		ldr	r0, [sp, #64]
 1667 0984 FFF7FEFF 		bl	lv_obj_set_grid_cell
 1668              	.LVL233:
 520:lvgl/demos/widgets/lv_demo_widgets.c ****         lv_obj_set_grid_cell(user_name, LV_GRID_ALIGN_STRETCH, 0, 2, LV_GRID_ALIGN_START, 3, 1);
 1669              		.loc 1 520 9 view .LVU268
 1670 0988 0294     		str	r4, [sp, #8]
 1671 098a CDF80480 		str	r8, [sp, #4]
 1672 098e 0096     		str	r6, [sp]
 1673 0990 4346     		mov	r3, r8
 1674 0992 3246     		mov	r2, r6
 1675 0994 3146     		mov	r1, r6
 1676 0996 1198     		ldr	r0, [sp, #68]
 1677 0998 FFF7FEFF 		bl	lv_obj_set_grid_cell
 1678              	.LVL234:
 521:lvgl/demos/widgets/lv_demo_widgets.c ****         lv_obj_set_grid_cell(password_label, LV_GRID_ALIGN_START, 0, 2, LV_GRID_ALIGN_START, 4, 1);
 1679              		.loc 1 521 9 view .LVU269
 1680 099c 0294     		str	r4, [sp, #8]
 1681 099e CDF80490 		str	r9, [sp, #4]
 1682 09a2 0096     		str	r6, [sp]
 1683 09a4 4346     		mov	r3, r8
 1684 09a6 3246     		mov	r2, r6
 1685 09a8 4946     		mov	r1, r9
 1686 09aa 0698     		ldr	r0, [sp, #24]
 1687 09ac FFF7FEFF 		bl	lv_obj_set_grid_cell
 1688              	.LVL235:
 522:lvgl/demos/widgets/lv_demo_widgets.c ****         lv_obj_set_grid_cell(password, LV_GRID_ALIGN_STRETCH, 0, 2, LV_GRID_ALIGN_START, 5, 1);
 1689              		.loc 1 522 9 view .LVU270
 1690 09b0 0294     		str	r4, [sp, #8]
 1691 09b2 CDF804A0 		str	r10, [sp, #4]
 1692 09b6 0096     		str	r6, [sp]
 1693 09b8 4346     		mov	r3, r8
 1694 09ba 3246     		mov	r2, r6
 1695 09bc 3146     		mov	r1, r6
 1696 09be 0798     		ldr	r0, [sp, #28]
 1697 09c0 FFF7FEFF 		bl	lv_obj_set_grid_cell
 1698              	.LVL236:
ARM GAS  C:\Users\OSD\AppData\Local\Temp\ccdpxIfP.s 			page 50


 523:lvgl/demos/widgets/lv_demo_widgets.c ****         lv_obj_set_grid_cell(birthday_label, LV_GRID_ALIGN_START, 0, 2, LV_GRID_ALIGN_START, 6, 1);
 1699              		.loc 1 523 9 view .LVU271
 1700 09c4 0294     		str	r4, [sp, #8]
 1701 09c6 0523     		movs	r3, #5
 1702 09c8 0193     		str	r3, [sp, #4]
 1703 09ca 0096     		str	r6, [sp]
 1704 09cc 4346     		mov	r3, r8
 1705 09ce 3246     		mov	r2, r6
 1706 09d0 4946     		mov	r1, r9
 1707 09d2 0598     		ldr	r0, [sp, #20]
 1708 09d4 FFF7FEFF 		bl	lv_obj_set_grid_cell
 1709              	.LVL237:
 524:lvgl/demos/widgets/lv_demo_widgets.c ****         lv_obj_set_grid_cell(birthdate, LV_GRID_ALIGN_STRETCH, 0, 2, LV_GRID_ALIGN_START, 7, 1);
 1710              		.loc 1 524 9 view .LVU272
 1711 09d8 0294     		str	r4, [sp, #8]
 1712 09da 0623     		movs	r3, #6
 1713 09dc 0193     		str	r3, [sp, #4]
 1714 09de 0096     		str	r6, [sp]
 1715 09e0 4346     		mov	r3, r8
 1716 09e2 3246     		mov	r2, r6
 1717 09e4 3146     		mov	r1, r6
 1718 09e6 1498     		ldr	r0, [sp, #80]
 1719 09e8 FFF7FEFF 		bl	lv_obj_set_grid_cell
 1720              	.LVL238:
 525:lvgl/demos/widgets/lv_demo_widgets.c ****         lv_obj_set_grid_cell(gender_label, LV_GRID_ALIGN_START, 0, 2, LV_GRID_ALIGN_START, 8, 1);
 1721              		.loc 1 525 9 view .LVU273
 1722 09ec 0294     		str	r4, [sp, #8]
 1723 09ee 0723     		movs	r3, #7
 1724 09f0 0193     		str	r3, [sp, #4]
 1725 09f2 0096     		str	r6, [sp]
 1726 09f4 4346     		mov	r3, r8
 1727 09f6 3246     		mov	r2, r6
 1728 09f8 4946     		mov	r1, r9
 1729 09fa 1598     		ldr	r0, [sp, #84]
 1730 09fc FFF7FEFF 		bl	lv_obj_set_grid_cell
 1731              	.LVL239:
 526:lvgl/demos/widgets/lv_demo_widgets.c ****         lv_obj_set_grid_cell(gender, LV_GRID_ALIGN_STRETCH, 0, 2, LV_GRID_ALIGN_START, 9, 1);
 1732              		.loc 1 526 9 view .LVU274
 1733 0a00 0294     		str	r4, [sp, #8]
 1734 0a02 0823     		movs	r3, #8
 1735 0a04 0193     		str	r3, [sp, #4]
 1736 0a06 0096     		str	r6, [sp]
 1737 0a08 4346     		mov	r3, r8
 1738 0a0a 3246     		mov	r2, r6
 1739 0a0c 3146     		mov	r1, r6
 1740 0a0e 1298     		ldr	r0, [sp, #72]
 1741 0a10 FFF7FEFF 		bl	lv_obj_set_grid_cell
 1742              	.LVL240:
 527:lvgl/demos/widgets/lv_demo_widgets.c **** 
 1743              		.loc 1 527 9 view .LVU275
 1744 0a14 0294     		str	r4, [sp, #8]
 1745 0a16 0923     		movs	r3, #9
 1746 0a18 0193     		str	r3, [sp, #4]
 1747 0a1a 0096     		str	r6, [sp]
 1748 0a1c 4346     		mov	r3, r8
 1749 0a1e 3246     		mov	r2, r6
 1750 0a20 4946     		mov	r1, r9
ARM GAS  C:\Users\OSD\AppData\Local\Temp\ccdpxIfP.s 			page 51


 1751 0a22 1398     		ldr	r0, [sp, #76]
 1752 0a24 FFF7FEFF 		bl	lv_obj_set_grid_cell
 1753              	.LVL241:
 529:lvgl/demos/widgets/lv_demo_widgets.c ****         lv_obj_set_grid_cell(panel3, LV_GRID_ALIGN_STRETCH, 0, 1, LV_GRID_ALIGN_START, 2, 1);
 1754              		.loc 1 529 9 view .LVU276
 1755 0a28 42F2D171 		movw	r1, #10193
 1756 0a2c 3846     		mov	r0, r7
 1757 0a2e FFF7FEFF 		bl	lv_obj_set_height
 1758              	.LVL242:
 530:lvgl/demos/widgets/lv_demo_widgets.c ****         lv_obj_set_grid_cell(panel3_title, LV_GRID_ALIGN_START, 0, 2, LV_GRID_ALIGN_CENTER, 0, 1);
 1759              		.loc 1 530 9 view .LVU277
 1760 0a32 0294     		str	r4, [sp, #8]
 1761 0a34 CDF80480 		str	r8, [sp, #4]
 1762 0a38 0096     		str	r6, [sp]
 1763 0a3a 2346     		mov	r3, r4
 1764 0a3c 3246     		mov	r2, r6
 1765 0a3e 4946     		mov	r1, r9
 1766 0a40 3846     		mov	r0, r7
 1767 0a42 FFF7FEFF 		bl	lv_obj_set_grid_cell
 1768              	.LVL243:
 531:lvgl/demos/widgets/lv_demo_widgets.c ****         lv_obj_set_grid_cell(experience_label, LV_GRID_ALIGN_START, 0, 1, LV_GRID_ALIGN_START, 2, 1
 1769              		.loc 1 531 9 view .LVU278
 1770 0a46 0294     		str	r4, [sp, #8]
 1771 0a48 0196     		str	r6, [sp, #4]
 1772 0a4a 0094     		str	r4, [sp]
 1773 0a4c 4346     		mov	r3, r8
 1774 0a4e 3246     		mov	r2, r6
 1775 0a50 3146     		mov	r1, r6
 1776 0a52 1698     		ldr	r0, [sp, #88]
 1777 0a54 FFF7FEFF 		bl	lv_obj_set_grid_cell
 1778              	.LVL244:
 532:lvgl/demos/widgets/lv_demo_widgets.c ****         lv_obj_set_grid_cell(slider1, LV_GRID_ALIGN_CENTER, 0, 2, LV_GRID_ALIGN_CENTER, 3, 1);
 1779              		.loc 1 532 9 view .LVU279
 1780 0a58 0294     		str	r4, [sp, #8]
 1781 0a5a CDF80480 		str	r8, [sp, #4]
 1782 0a5e 0096     		str	r6, [sp]
 1783 0a60 2346     		mov	r3, r4
 1784 0a62 3246     		mov	r2, r6
 1785 0a64 3146     		mov	r1, r6
 1786 0a66 1798     		ldr	r0, [sp, #92]
 1787 0a68 FFF7FEFF 		bl	lv_obj_set_grid_cell
 1788              	.LVL245:
 533:lvgl/demos/widgets/lv_demo_widgets.c ****         lv_obj_set_grid_cell(hard_working_label, LV_GRID_ALIGN_START, 0, 1, LV_GRID_ALIGN_START, 4,
 1789              		.loc 1 533 9 view .LVU280
 1790 0a6c 0294     		str	r4, [sp, #8]
 1791 0a6e CDF80490 		str	r9, [sp, #4]
 1792 0a72 0094     		str	r4, [sp]
 1793 0a74 4346     		mov	r3, r8
 1794 0a76 3246     		mov	r2, r6
 1795 0a78 2146     		mov	r1, r4
 1796 0a7a 5846     		mov	r0, fp
 1797 0a7c FFF7FEFF 		bl	lv_obj_set_grid_cell
 1798              	.LVL246:
 534:lvgl/demos/widgets/lv_demo_widgets.c ****         lv_obj_set_grid_cell(sw1, LV_GRID_ALIGN_START, 0, 1, LV_GRID_ALIGN_START, 5, 1);
 1799              		.loc 1 534 9 view .LVU281
 1800 0a80 0294     		str	r4, [sp, #8]
 1801 0a82 CDF804A0 		str	r10, [sp, #4]
ARM GAS  C:\Users\OSD\AppData\Local\Temp\ccdpxIfP.s 			page 52


 1802 0a86 0096     		str	r6, [sp]
 1803 0a88 2346     		mov	r3, r4
 1804 0a8a 3246     		mov	r2, r6
 1805 0a8c 3146     		mov	r1, r6
 1806 0a8e 1A98     		ldr	r0, [sp, #104]
 1807 0a90 FFF7FEFF 		bl	lv_obj_set_grid_cell
 1808              	.LVL247:
 535:lvgl/demos/widgets/lv_demo_widgets.c ****         lv_obj_set_grid_cell(team_player_label, LV_GRID_ALIGN_START, 1, 1, LV_GRID_ALIGN_START, 4, 
 1809              		.loc 1 535 9 view .LVU282
 1810 0a94 0294     		str	r4, [sp, #8]
 1811 0a96 0523     		movs	r3, #5
 1812 0a98 0193     		str	r3, [sp, #4]
 1813 0a9a 0096     		str	r6, [sp]
 1814 0a9c 2346     		mov	r3, r4
 1815 0a9e 3246     		mov	r2, r6
 1816 0aa0 3146     		mov	r1, r6
 1817 0aa2 1998     		ldr	r0, [sp, #100]
 1818 0aa4 FFF7FEFF 		bl	lv_obj_set_grid_cell
 1819              	.LVL248:
 536:lvgl/demos/widgets/lv_demo_widgets.c ****         lv_obj_set_grid_cell(sw2, LV_GRID_ALIGN_START, 1, 1, LV_GRID_ALIGN_START, 5, 1);
 1820              		.loc 1 536 9 view .LVU283
 1821 0aa8 0294     		str	r4, [sp, #8]
 1822 0aaa CDF804A0 		str	r10, [sp, #4]
 1823 0aae 0096     		str	r6, [sp]
 1824 0ab0 2346     		mov	r3, r4
 1825 0ab2 2246     		mov	r2, r4
 1826 0ab4 3146     		mov	r1, r6
 1827 0ab6 1898     		ldr	r0, [sp, #96]
 1828 0ab8 FFF7FEFF 		bl	lv_obj_set_grid_cell
 1829              	.LVL249:
 537:lvgl/demos/widgets/lv_demo_widgets.c ****     }
 1830              		.loc 1 537 9 view .LVU284
 1831 0abc 0294     		str	r4, [sp, #8]
 1832 0abe 0523     		movs	r3, #5
 1833 0ac0 0193     		str	r3, [sp, #4]
 1834 0ac2 0096     		str	r6, [sp]
 1835 0ac4 2346     		mov	r3, r4
 1836 0ac6 2246     		mov	r2, r4
 1837 0ac8 3146     		mov	r1, r6
 1838 0aca 1B98     		ldr	r0, [sp, #108]
 1839 0acc FFF7FEFF 		bl	lv_obj_set_grid_cell
 1840              	.LVL250:
 1841              	.LBE182:
 1842              		.loc 1 539 1 is_stmt 0 view .LVU285
 1843 0ad0 0CE4     		b	.L1
 1844              	.L16:
 1845 0ad2 00BF     		.align	2
 1846              	.L15:
 1847 0ad4 00000000 		.word	.LANCHOR16
 1848 0ad8 00000000 		.word	.LANCHOR17
 1849 0adc 00000000 		.word	.LANCHOR18
 1850 0ae0 00000000 		.word	.LANCHOR19
 1851 0ae4 00000000 		.word	.LANCHOR20
 1852 0ae8 00000000 		.word	.LANCHOR21
 1853              		.cfi_endproc
 1854              	.LFE206:
 1856              		.section	.rodata.shop_chart_event_cb.str1.4,"aMS",%progbits,1
ARM GAS  C:\Users\OSD\AppData\Local\Temp\ccdpxIfP.s 			page 53


 1857              		.align	2
 1858              	.LC48:
 1859 0000 257300   		.ascii	"%s\000"
 1860              		.section	.text.shop_chart_event_cb,"ax",%progbits
 1861              		.align	1
 1862              		.syntax unified
 1863              		.thumb
 1864              		.thumb_func
 1866              	shop_chart_event_cb:
 1867              	.LVL251:
 1868              	.LFB220:
 540:lvgl/demos/widgets/lv_demo_widgets.c **** 
 541:lvgl/demos/widgets/lv_demo_widgets.c **** static void analytics_create(lv_obj_t * parent)
 542:lvgl/demos/widgets/lv_demo_widgets.c **** {
 543:lvgl/demos/widgets/lv_demo_widgets.c ****     lv_obj_set_flex_flow(parent, LV_FLEX_FLOW_ROW_WRAP);
 544:lvgl/demos/widgets/lv_demo_widgets.c **** 
 545:lvgl/demos/widgets/lv_demo_widgets.c ****     static lv_coord_t grid_chart_row_dsc[] = {LV_GRID_CONTENT, LV_GRID_FR(1), 10, LV_GRID_TEMPLATE_
 546:lvgl/demos/widgets/lv_demo_widgets.c ****     static lv_coord_t grid_chart_col_dsc[] = {20, LV_GRID_FR(1), LV_GRID_TEMPLATE_LAST};
 547:lvgl/demos/widgets/lv_demo_widgets.c **** 
 548:lvgl/demos/widgets/lv_demo_widgets.c ****     lv_obj_t * chart1_cont = lv_obj_create(parent);
 549:lvgl/demos/widgets/lv_demo_widgets.c ****     lv_obj_set_flex_grow(chart1_cont, 1);
 550:lvgl/demos/widgets/lv_demo_widgets.c ****     lv_obj_set_grid_dsc_array(chart1_cont, grid_chart_col_dsc, grid_chart_row_dsc);
 551:lvgl/demos/widgets/lv_demo_widgets.c **** 
 552:lvgl/demos/widgets/lv_demo_widgets.c ****     lv_obj_set_height(chart1_cont, LV_PCT(100));
 553:lvgl/demos/widgets/lv_demo_widgets.c ****     lv_obj_set_style_max_height(chart1_cont, 300, 0);
 554:lvgl/demos/widgets/lv_demo_widgets.c **** 
 555:lvgl/demos/widgets/lv_demo_widgets.c ****     lv_obj_t * title = lv_label_create(chart1_cont);
 556:lvgl/demos/widgets/lv_demo_widgets.c ****     lv_label_set_text(title, "Unique visitors");
 557:lvgl/demos/widgets/lv_demo_widgets.c ****     lv_obj_add_style(title, &style_title, 0);
 558:lvgl/demos/widgets/lv_demo_widgets.c ****     lv_obj_set_grid_cell(title, LV_GRID_ALIGN_START, 0, 2, LV_GRID_ALIGN_START, 0, 1);
 559:lvgl/demos/widgets/lv_demo_widgets.c **** 
 560:lvgl/demos/widgets/lv_demo_widgets.c ****     chart1 = lv_chart_create(chart1_cont);
 561:lvgl/demos/widgets/lv_demo_widgets.c ****     lv_group_add_obj(lv_group_get_default(), chart1);
 562:lvgl/demos/widgets/lv_demo_widgets.c ****     lv_obj_add_flag(chart1, LV_OBJ_FLAG_SCROLL_ON_FOCUS);
 563:lvgl/demos/widgets/lv_demo_widgets.c ****     lv_obj_set_grid_cell(chart1, LV_GRID_ALIGN_STRETCH, 1, 1, LV_GRID_ALIGN_STRETCH, 1, 1);
 564:lvgl/demos/widgets/lv_demo_widgets.c ****     lv_chart_set_axis_tick(chart1, LV_CHART_AXIS_PRIMARY_Y, 0, 0, 5, 1, true, 80);
 565:lvgl/demos/widgets/lv_demo_widgets.c ****     lv_chart_set_axis_tick(chart1, LV_CHART_AXIS_PRIMARY_X, 0, 0, 12, 1, true, 50);
 566:lvgl/demos/widgets/lv_demo_widgets.c ****     lv_chart_set_div_line_count(chart1, 0, 12);
 567:lvgl/demos/widgets/lv_demo_widgets.c ****     lv_chart_set_point_count(chart1, 12);
 568:lvgl/demos/widgets/lv_demo_widgets.c ****     lv_obj_add_event_cb(chart1, chart_event_cb, LV_EVENT_ALL, NULL);
 569:lvgl/demos/widgets/lv_demo_widgets.c ****     if(disp_size == DISP_SMALL) lv_chart_set_zoom_x(chart1, 256 * 3);
 570:lvgl/demos/widgets/lv_demo_widgets.c ****     else if(disp_size == DISP_MEDIUM) lv_chart_set_zoom_x(chart1, 256 * 2);
 571:lvgl/demos/widgets/lv_demo_widgets.c **** 
 572:lvgl/demos/widgets/lv_demo_widgets.c ****     lv_obj_set_style_border_side(chart1, LV_BORDER_SIDE_LEFT | LV_BORDER_SIDE_BOTTOM, 0);
 573:lvgl/demos/widgets/lv_demo_widgets.c ****     lv_obj_set_style_radius(chart1, 0, 0);
 574:lvgl/demos/widgets/lv_demo_widgets.c **** 
 575:lvgl/demos/widgets/lv_demo_widgets.c ****     ser1 = lv_chart_add_series(chart1, lv_theme_get_color_primary(chart1), LV_CHART_AXIS_PRIMARY_Y)
 576:lvgl/demos/widgets/lv_demo_widgets.c ****     lv_chart_set_next_value(chart1, ser1, lv_rand(10, 80));
 577:lvgl/demos/widgets/lv_demo_widgets.c ****     lv_chart_set_next_value(chart1, ser1, lv_rand(10, 80));
 578:lvgl/demos/widgets/lv_demo_widgets.c ****     lv_chart_set_next_value(chart1, ser1, lv_rand(10, 80));
 579:lvgl/demos/widgets/lv_demo_widgets.c ****     lv_chart_set_next_value(chart1, ser1, lv_rand(10, 80));
 580:lvgl/demos/widgets/lv_demo_widgets.c ****     lv_chart_set_next_value(chart1, ser1, lv_rand(10, 80));
 581:lvgl/demos/widgets/lv_demo_widgets.c ****     lv_chart_set_next_value(chart1, ser1, lv_rand(10, 80));
 582:lvgl/demos/widgets/lv_demo_widgets.c ****     lv_chart_set_next_value(chart1, ser1, lv_rand(10, 80));
 583:lvgl/demos/widgets/lv_demo_widgets.c ****     lv_chart_set_next_value(chart1, ser1, lv_rand(10, 80));
 584:lvgl/demos/widgets/lv_demo_widgets.c ****     lv_chart_set_next_value(chart1, ser1, lv_rand(10, 80));
 585:lvgl/demos/widgets/lv_demo_widgets.c ****     lv_chart_set_next_value(chart1, ser1, lv_rand(10, 80));
ARM GAS  C:\Users\OSD\AppData\Local\Temp\ccdpxIfP.s 			page 54


 586:lvgl/demos/widgets/lv_demo_widgets.c ****     lv_chart_set_next_value(chart1, ser1, lv_rand(10, 80));
 587:lvgl/demos/widgets/lv_demo_widgets.c ****     lv_chart_set_next_value(chart1, ser1, lv_rand(10, 80));
 588:lvgl/demos/widgets/lv_demo_widgets.c ****     lv_chart_set_next_value(chart1, ser1, lv_rand(10, 80));
 589:lvgl/demos/widgets/lv_demo_widgets.c **** 
 590:lvgl/demos/widgets/lv_demo_widgets.c ****     lv_obj_t * chart2_cont = lv_obj_create(parent);
 591:lvgl/demos/widgets/lv_demo_widgets.c ****     lv_obj_add_flag(chart2_cont, LV_OBJ_FLAG_FLEX_IN_NEW_TRACK);
 592:lvgl/demos/widgets/lv_demo_widgets.c ****     lv_obj_set_flex_grow(chart2_cont, 1);
 593:lvgl/demos/widgets/lv_demo_widgets.c **** 
 594:lvgl/demos/widgets/lv_demo_widgets.c ****     lv_obj_set_height(chart2_cont, LV_PCT(100));
 595:lvgl/demos/widgets/lv_demo_widgets.c ****     lv_obj_set_style_max_height(chart2_cont, 300, 0);
 596:lvgl/demos/widgets/lv_demo_widgets.c **** 
 597:lvgl/demos/widgets/lv_demo_widgets.c ****     lv_obj_set_grid_dsc_array(chart2_cont, grid_chart_col_dsc, grid_chart_row_dsc);
 598:lvgl/demos/widgets/lv_demo_widgets.c **** 
 599:lvgl/demos/widgets/lv_demo_widgets.c ****     title = lv_label_create(chart2_cont);
 600:lvgl/demos/widgets/lv_demo_widgets.c ****     lv_label_set_text(title, "Monthly revenue");
 601:lvgl/demos/widgets/lv_demo_widgets.c ****     lv_obj_add_style(title, &style_title, 0);
 602:lvgl/demos/widgets/lv_demo_widgets.c ****     lv_obj_set_grid_cell(title, LV_GRID_ALIGN_START, 0, 2, LV_GRID_ALIGN_START, 0, 1);
 603:lvgl/demos/widgets/lv_demo_widgets.c **** 
 604:lvgl/demos/widgets/lv_demo_widgets.c ****     chart2 = lv_chart_create(chart2_cont);
 605:lvgl/demos/widgets/lv_demo_widgets.c ****     lv_group_add_obj(lv_group_get_default(), chart2);
 606:lvgl/demos/widgets/lv_demo_widgets.c ****     lv_obj_add_flag(chart2, LV_OBJ_FLAG_SCROLL_ON_FOCUS);
 607:lvgl/demos/widgets/lv_demo_widgets.c **** 
 608:lvgl/demos/widgets/lv_demo_widgets.c ****     lv_obj_set_grid_cell(chart2, LV_GRID_ALIGN_STRETCH, 1, 1, LV_GRID_ALIGN_STRETCH, 1, 1);
 609:lvgl/demos/widgets/lv_demo_widgets.c ****     lv_chart_set_axis_tick(chart2, LV_CHART_AXIS_PRIMARY_Y, 0, 0, 5, 1, true, 80);
 610:lvgl/demos/widgets/lv_demo_widgets.c ****     lv_chart_set_axis_tick(chart2, LV_CHART_AXIS_PRIMARY_X, 0, 0, 12, 1, true, 50);
 611:lvgl/demos/widgets/lv_demo_widgets.c ****     lv_obj_set_size(chart2, LV_PCT(100), LV_PCT(100));
 612:lvgl/demos/widgets/lv_demo_widgets.c ****     lv_chart_set_type(chart2, LV_CHART_TYPE_BAR);
 613:lvgl/demos/widgets/lv_demo_widgets.c ****     lv_chart_set_div_line_count(chart2, 6, 0);
 614:lvgl/demos/widgets/lv_demo_widgets.c ****     lv_chart_set_point_count(chart2, 12);
 615:lvgl/demos/widgets/lv_demo_widgets.c ****     lv_obj_add_event_cb(chart2, chart_event_cb, LV_EVENT_ALL, NULL);
 616:lvgl/demos/widgets/lv_demo_widgets.c ****     lv_chart_set_zoom_x(chart2, 256 * 2);
 617:lvgl/demos/widgets/lv_demo_widgets.c ****     lv_obj_set_style_border_side(chart2, LV_BORDER_SIDE_LEFT | LV_BORDER_SIDE_BOTTOM, 0);
 618:lvgl/demos/widgets/lv_demo_widgets.c ****     lv_obj_set_style_radius(chart2, 0, 0);
 619:lvgl/demos/widgets/lv_demo_widgets.c **** 
 620:lvgl/demos/widgets/lv_demo_widgets.c ****     if(disp_size == DISP_SMALL) {
 621:lvgl/demos/widgets/lv_demo_widgets.c ****         lv_obj_set_style_pad_gap(chart2, 0, LV_PART_ITEMS);
 622:lvgl/demos/widgets/lv_demo_widgets.c ****         lv_obj_set_style_pad_gap(chart2, 2, LV_PART_MAIN);
 623:lvgl/demos/widgets/lv_demo_widgets.c ****     }
 624:lvgl/demos/widgets/lv_demo_widgets.c ****     else if(disp_size == DISP_LARGE) {
 625:lvgl/demos/widgets/lv_demo_widgets.c ****         lv_obj_set_style_pad_gap(chart2, 16, 0);
 626:lvgl/demos/widgets/lv_demo_widgets.c ****     }
 627:lvgl/demos/widgets/lv_demo_widgets.c **** 
 628:lvgl/demos/widgets/lv_demo_widgets.c ****     ser2 = lv_chart_add_series(chart2, lv_palette_lighten(LV_PALETTE_GREY, 1), LV_CHART_AXIS_PRIMAR
 629:lvgl/demos/widgets/lv_demo_widgets.c ****     lv_chart_set_next_value(chart2, ser2, lv_rand(10, 80));
 630:lvgl/demos/widgets/lv_demo_widgets.c ****     lv_chart_set_next_value(chart2, ser2, lv_rand(10, 80));
 631:lvgl/demos/widgets/lv_demo_widgets.c ****     lv_chart_set_next_value(chart2, ser2, lv_rand(10, 80));
 632:lvgl/demos/widgets/lv_demo_widgets.c ****     lv_chart_set_next_value(chart2, ser2, lv_rand(10, 80));
 633:lvgl/demos/widgets/lv_demo_widgets.c ****     lv_chart_set_next_value(chart2, ser2, lv_rand(10, 80));
 634:lvgl/demos/widgets/lv_demo_widgets.c ****     lv_chart_set_next_value(chart2, ser2, lv_rand(10, 80));
 635:lvgl/demos/widgets/lv_demo_widgets.c ****     lv_chart_set_next_value(chart2, ser2, lv_rand(10, 80));
 636:lvgl/demos/widgets/lv_demo_widgets.c ****     lv_chart_set_next_value(chart2, ser2, lv_rand(10, 80));
 637:lvgl/demos/widgets/lv_demo_widgets.c ****     lv_chart_set_next_value(chart2, ser2, lv_rand(10, 80));
 638:lvgl/demos/widgets/lv_demo_widgets.c ****     lv_chart_set_next_value(chart2, ser2, lv_rand(10, 80));
 639:lvgl/demos/widgets/lv_demo_widgets.c ****     lv_chart_set_next_value(chart2, ser2, lv_rand(10, 80));
 640:lvgl/demos/widgets/lv_demo_widgets.c ****     lv_chart_set_next_value(chart2, ser2, lv_rand(10, 80));
 641:lvgl/demos/widgets/lv_demo_widgets.c ****     lv_chart_set_next_value(chart2, ser2, lv_rand(10, 80));
 642:lvgl/demos/widgets/lv_demo_widgets.c **** 
ARM GAS  C:\Users\OSD\AppData\Local\Temp\ccdpxIfP.s 			page 55


 643:lvgl/demos/widgets/lv_demo_widgets.c ****     ser3 = lv_chart_add_series(chart2, lv_theme_get_color_primary(chart1), LV_CHART_AXIS_PRIMARY_Y)
 644:lvgl/demos/widgets/lv_demo_widgets.c ****     lv_chart_set_next_value(chart2, ser3, lv_rand(10, 80));
 645:lvgl/demos/widgets/lv_demo_widgets.c ****     lv_chart_set_next_value(chart2, ser3, lv_rand(10, 80));
 646:lvgl/demos/widgets/lv_demo_widgets.c ****     lv_chart_set_next_value(chart2, ser3, lv_rand(10, 80));
 647:lvgl/demos/widgets/lv_demo_widgets.c ****     lv_chart_set_next_value(chart2, ser3, lv_rand(10, 80));
 648:lvgl/demos/widgets/lv_demo_widgets.c ****     lv_chart_set_next_value(chart2, ser3, lv_rand(10, 80));
 649:lvgl/demos/widgets/lv_demo_widgets.c ****     lv_chart_set_next_value(chart2, ser3, lv_rand(10, 80));
 650:lvgl/demos/widgets/lv_demo_widgets.c ****     lv_chart_set_next_value(chart2, ser3, lv_rand(10, 80));
 651:lvgl/demos/widgets/lv_demo_widgets.c ****     lv_chart_set_next_value(chart2, ser3, lv_rand(10, 80));
 652:lvgl/demos/widgets/lv_demo_widgets.c ****     lv_chart_set_next_value(chart2, ser3, lv_rand(10, 80));
 653:lvgl/demos/widgets/lv_demo_widgets.c ****     lv_chart_set_next_value(chart2, ser3, lv_rand(10, 80));
 654:lvgl/demos/widgets/lv_demo_widgets.c ****     lv_chart_set_next_value(chart2, ser3, lv_rand(10, 80));
 655:lvgl/demos/widgets/lv_demo_widgets.c ****     lv_chart_set_next_value(chart2, ser3, lv_rand(10, 80));
 656:lvgl/demos/widgets/lv_demo_widgets.c ****     lv_chart_set_next_value(chart2, ser3, lv_rand(10, 80));
 657:lvgl/demos/widgets/lv_demo_widgets.c **** 
 658:lvgl/demos/widgets/lv_demo_widgets.c ****     lv_meter_scale_t * scale;
 659:lvgl/demos/widgets/lv_demo_widgets.c ****     lv_meter_indicator_t * indic;
 660:lvgl/demos/widgets/lv_demo_widgets.c ****     meter1 = create_meter_box(parent, "Monthly Target", "Revenue: 63%", "Sales: 44%", "Costs: 58%")
 661:lvgl/demos/widgets/lv_demo_widgets.c ****     lv_obj_add_flag(lv_obj_get_parent(meter1), LV_OBJ_FLAG_FLEX_IN_NEW_TRACK);
 662:lvgl/demos/widgets/lv_demo_widgets.c ****     scale = lv_meter_add_scale(meter1);
 663:lvgl/demos/widgets/lv_demo_widgets.c ****     lv_meter_set_scale_range(meter1, scale, 0, 100, 270, 90);
 664:lvgl/demos/widgets/lv_demo_widgets.c ****     lv_meter_set_scale_ticks(meter1, scale, 0, 0, 0, lv_color_black());
 665:lvgl/demos/widgets/lv_demo_widgets.c **** 
 666:lvgl/demos/widgets/lv_demo_widgets.c ****     lv_anim_t a;
 667:lvgl/demos/widgets/lv_demo_widgets.c ****     lv_anim_init(&a);
 668:lvgl/demos/widgets/lv_demo_widgets.c ****     lv_anim_set_values(&a, 20, 100);
 669:lvgl/demos/widgets/lv_demo_widgets.c ****     lv_anim_set_repeat_count(&a, LV_ANIM_REPEAT_INFINITE);
 670:lvgl/demos/widgets/lv_demo_widgets.c **** 
 671:lvgl/demos/widgets/lv_demo_widgets.c ****     indic = lv_meter_add_arc(meter1, scale, 15, lv_palette_main(LV_PALETTE_BLUE), 0);
 672:lvgl/demos/widgets/lv_demo_widgets.c ****     lv_anim_set_exec_cb(&a, meter1_indic1_anim_cb);
 673:lvgl/demos/widgets/lv_demo_widgets.c ****     lv_anim_set_var(&a, indic);
 674:lvgl/demos/widgets/lv_demo_widgets.c ****     lv_anim_set_time(&a, 4100);
 675:lvgl/demos/widgets/lv_demo_widgets.c ****     lv_anim_set_playback_time(&a, 2700);
 676:lvgl/demos/widgets/lv_demo_widgets.c ****     lv_anim_start(&a);
 677:lvgl/demos/widgets/lv_demo_widgets.c **** 
 678:lvgl/demos/widgets/lv_demo_widgets.c ****     indic = lv_meter_add_arc(meter1, scale, 15, lv_palette_main(LV_PALETTE_RED), -20);
 679:lvgl/demos/widgets/lv_demo_widgets.c ****     lv_anim_set_exec_cb(&a, meter1_indic2_anim_cb);
 680:lvgl/demos/widgets/lv_demo_widgets.c ****     lv_anim_set_var(&a, indic);
 681:lvgl/demos/widgets/lv_demo_widgets.c ****     lv_anim_set_time(&a, 2600);
 682:lvgl/demos/widgets/lv_demo_widgets.c ****     lv_anim_set_playback_time(&a, 3200);
 683:lvgl/demos/widgets/lv_demo_widgets.c ****     a.user_data = indic;
 684:lvgl/demos/widgets/lv_demo_widgets.c ****     lv_anim_start(&a);
 685:lvgl/demos/widgets/lv_demo_widgets.c **** 
 686:lvgl/demos/widgets/lv_demo_widgets.c ****     indic = lv_meter_add_arc(meter1, scale, 15, lv_palette_main(LV_PALETTE_GREEN), -40);
 687:lvgl/demos/widgets/lv_demo_widgets.c ****     lv_anim_set_exec_cb(&a, meter1_indic3_anim_cb);
 688:lvgl/demos/widgets/lv_demo_widgets.c ****     lv_anim_set_var(&a, indic);
 689:lvgl/demos/widgets/lv_demo_widgets.c ****     lv_anim_set_time(&a, 2800);
 690:lvgl/demos/widgets/lv_demo_widgets.c ****     lv_anim_set_playback_time(&a, 1800);
 691:lvgl/demos/widgets/lv_demo_widgets.c ****     lv_anim_start(&a);
 692:lvgl/demos/widgets/lv_demo_widgets.c **** 
 693:lvgl/demos/widgets/lv_demo_widgets.c ****     meter2 = create_meter_box(parent, "Sessions", "Desktop: ", "Tablet: ", "Mobile: ");
 694:lvgl/demos/widgets/lv_demo_widgets.c ****     if(disp_size < DISP_LARGE) lv_obj_add_flag(lv_obj_get_parent(meter2), LV_OBJ_FLAG_FLEX_IN_NEW_T
 695:lvgl/demos/widgets/lv_demo_widgets.c ****     scale = lv_meter_add_scale(meter2);
 696:lvgl/demos/widgets/lv_demo_widgets.c ****     lv_meter_set_scale_range(meter2, scale, 0, 100, 360, 90);
 697:lvgl/demos/widgets/lv_demo_widgets.c ****     lv_meter_set_scale_ticks(meter2, scale, 0, 0, 0, lv_color_black());
 698:lvgl/demos/widgets/lv_demo_widgets.c **** 
 699:lvgl/demos/widgets/lv_demo_widgets.c ****     static lv_meter_indicator_t * meter2_indic[3];
ARM GAS  C:\Users\OSD\AppData\Local\Temp\ccdpxIfP.s 			page 56


 700:lvgl/demos/widgets/lv_demo_widgets.c ****     meter2_indic[0] = lv_meter_add_arc(meter2, scale, 20, lv_palette_main(LV_PALETTE_RED), -10);
 701:lvgl/demos/widgets/lv_demo_widgets.c ****     lv_meter_set_indicator_start_value(meter2, meter2_indic[0], 0);
 702:lvgl/demos/widgets/lv_demo_widgets.c ****     lv_meter_set_indicator_end_value(meter2, meter2_indic[0], 39);
 703:lvgl/demos/widgets/lv_demo_widgets.c **** 
 704:lvgl/demos/widgets/lv_demo_widgets.c ****     meter2_indic[1] = lv_meter_add_arc(meter2, scale, 30, lv_palette_main(LV_PALETTE_BLUE), 0);
 705:lvgl/demos/widgets/lv_demo_widgets.c ****     lv_meter_set_indicator_start_value(meter2, meter2_indic[1], 40);
 706:lvgl/demos/widgets/lv_demo_widgets.c ****     lv_meter_set_indicator_end_value(meter2, meter2_indic[1], 69);
 707:lvgl/demos/widgets/lv_demo_widgets.c **** 
 708:lvgl/demos/widgets/lv_demo_widgets.c ****     meter2_indic[2] = lv_meter_add_arc(meter2, scale, 10, lv_palette_main(LV_PALETTE_GREEN), -20);
 709:lvgl/demos/widgets/lv_demo_widgets.c ****     lv_meter_set_indicator_start_value(meter2, meter2_indic[2], 70);
 710:lvgl/demos/widgets/lv_demo_widgets.c ****     lv_meter_set_indicator_end_value(meter2, meter2_indic[2], 99);
 711:lvgl/demos/widgets/lv_demo_widgets.c **** 
 712:lvgl/demos/widgets/lv_demo_widgets.c ****     meter2_timer = lv_timer_create(meter2_timer_cb, 100, meter2_indic);
 713:lvgl/demos/widgets/lv_demo_widgets.c **** 
 714:lvgl/demos/widgets/lv_demo_widgets.c ****     meter3 = create_meter_box(parent, "Network Speed", "Low speed", "Normal Speed", "High Speed");
 715:lvgl/demos/widgets/lv_demo_widgets.c ****     if(disp_size < DISP_LARGE) lv_obj_add_flag(lv_obj_get_parent(meter3), LV_OBJ_FLAG_FLEX_IN_NEW_T
 716:lvgl/demos/widgets/lv_demo_widgets.c **** 
 717:lvgl/demos/widgets/lv_demo_widgets.c ****     /*Add a special circle to the needle's pivot*/
 718:lvgl/demos/widgets/lv_demo_widgets.c ****     lv_obj_set_style_pad_hor(meter3, 10, 0);
 719:lvgl/demos/widgets/lv_demo_widgets.c ****     lv_obj_set_style_size(meter3, 10, LV_PART_INDICATOR);
 720:lvgl/demos/widgets/lv_demo_widgets.c ****     lv_obj_set_style_radius(meter3, LV_RADIUS_CIRCLE, LV_PART_INDICATOR);
 721:lvgl/demos/widgets/lv_demo_widgets.c ****     lv_obj_set_style_bg_opa(meter3, LV_OPA_COVER, LV_PART_INDICATOR);
 722:lvgl/demos/widgets/lv_demo_widgets.c ****     lv_obj_set_style_bg_color(meter3, lv_palette_darken(LV_PALETTE_GREY, 4), LV_PART_INDICATOR);
 723:lvgl/demos/widgets/lv_demo_widgets.c ****     lv_obj_set_style_outline_color(meter3, lv_color_white(), LV_PART_INDICATOR);
 724:lvgl/demos/widgets/lv_demo_widgets.c ****     lv_obj_set_style_outline_width(meter3, 3, LV_PART_INDICATOR);
 725:lvgl/demos/widgets/lv_demo_widgets.c ****     lv_obj_set_style_text_color(meter3, lv_palette_darken(LV_PALETTE_GREY, 1), LV_PART_TICKS);
 726:lvgl/demos/widgets/lv_demo_widgets.c **** 
 727:lvgl/demos/widgets/lv_demo_widgets.c ****     scale = lv_meter_add_scale(meter3);
 728:lvgl/demos/widgets/lv_demo_widgets.c ****     lv_meter_set_scale_range(meter3, scale, 10, 60, 220, 360 - 220);
 729:lvgl/demos/widgets/lv_demo_widgets.c ****     lv_meter_set_scale_ticks(meter3, scale, 21, 3, 17, lv_color_white());
 730:lvgl/demos/widgets/lv_demo_widgets.c ****     lv_meter_set_scale_major_ticks(meter3, scale, 4, 4, 22, lv_color_white(), 15);
 731:lvgl/demos/widgets/lv_demo_widgets.c **** 
 732:lvgl/demos/widgets/lv_demo_widgets.c ****     indic = lv_meter_add_arc(meter3, scale, 10, lv_palette_main(LV_PALETTE_RED), 0);
 733:lvgl/demos/widgets/lv_demo_widgets.c ****     lv_meter_set_indicator_start_value(meter3, indic, 0);
 734:lvgl/demos/widgets/lv_demo_widgets.c ****     lv_meter_set_indicator_end_value(meter3, indic, 20);
 735:lvgl/demos/widgets/lv_demo_widgets.c **** 
 736:lvgl/demos/widgets/lv_demo_widgets.c ****     indic = lv_meter_add_scale_lines(meter3, scale, lv_palette_darken(LV_PALETTE_RED, 3), lv_palett
 737:lvgl/demos/widgets/lv_demo_widgets.c ****                                                                                                    
 738:lvgl/demos/widgets/lv_demo_widgets.c ****     lv_meter_set_indicator_start_value(meter3, indic, 0);
 739:lvgl/demos/widgets/lv_demo_widgets.c ****     lv_meter_set_indicator_end_value(meter3, indic, 20);
 740:lvgl/demos/widgets/lv_demo_widgets.c **** 
 741:lvgl/demos/widgets/lv_demo_widgets.c ****     indic = lv_meter_add_arc(meter3, scale, 12, lv_palette_main(LV_PALETTE_BLUE), 0);
 742:lvgl/demos/widgets/lv_demo_widgets.c ****     lv_meter_set_indicator_start_value(meter3, indic, 20);
 743:lvgl/demos/widgets/lv_demo_widgets.c ****     lv_meter_set_indicator_end_value(meter3, indic, 40);
 744:lvgl/demos/widgets/lv_demo_widgets.c **** 
 745:lvgl/demos/widgets/lv_demo_widgets.c ****     indic = lv_meter_add_scale_lines(meter3, scale, lv_palette_darken(LV_PALETTE_BLUE, 3),
 746:lvgl/demos/widgets/lv_demo_widgets.c ****                                      lv_palette_darken(LV_PALETTE_BLUE, 3), true, 0);
 747:lvgl/demos/widgets/lv_demo_widgets.c ****     lv_meter_set_indicator_start_value(meter3, indic, 20);
 748:lvgl/demos/widgets/lv_demo_widgets.c ****     lv_meter_set_indicator_end_value(meter3, indic, 40);
 749:lvgl/demos/widgets/lv_demo_widgets.c **** 
 750:lvgl/demos/widgets/lv_demo_widgets.c ****     indic = lv_meter_add_arc(meter3, scale, 10, lv_palette_main(LV_PALETTE_GREEN), 0);
 751:lvgl/demos/widgets/lv_demo_widgets.c ****     lv_meter_set_indicator_start_value(meter3, indic, 40);
 752:lvgl/demos/widgets/lv_demo_widgets.c ****     lv_meter_set_indicator_end_value(meter3, indic, 60);
 753:lvgl/demos/widgets/lv_demo_widgets.c **** 
 754:lvgl/demos/widgets/lv_demo_widgets.c ****     indic = lv_meter_add_scale_lines(meter3, scale, lv_palette_darken(LV_PALETTE_GREEN, 3),
 755:lvgl/demos/widgets/lv_demo_widgets.c ****                                      lv_palette_darken(LV_PALETTE_GREEN, 3), true, 0);
 756:lvgl/demos/widgets/lv_demo_widgets.c ****     lv_meter_set_indicator_start_value(meter3, indic, 40);
ARM GAS  C:\Users\OSD\AppData\Local\Temp\ccdpxIfP.s 			page 57


 757:lvgl/demos/widgets/lv_demo_widgets.c ****     lv_meter_set_indicator_end_value(meter3, indic, 60);
 758:lvgl/demos/widgets/lv_demo_widgets.c **** 
 759:lvgl/demos/widgets/lv_demo_widgets.c ****     indic = lv_meter_add_needle_line(meter3, scale, 4, lv_palette_darken(LV_PALETTE_GREY, 4), -25);
 760:lvgl/demos/widgets/lv_demo_widgets.c **** 
 761:lvgl/demos/widgets/lv_demo_widgets.c ****     lv_obj_t * mbps_label = lv_label_create(meter3);
 762:lvgl/demos/widgets/lv_demo_widgets.c ****     lv_label_set_text(mbps_label, "-");
 763:lvgl/demos/widgets/lv_demo_widgets.c ****     lv_obj_add_style(mbps_label, &style_title, 0);
 764:lvgl/demos/widgets/lv_demo_widgets.c **** 
 765:lvgl/demos/widgets/lv_demo_widgets.c ****     lv_obj_t * mbps_unit_label = lv_label_create(meter3);
 766:lvgl/demos/widgets/lv_demo_widgets.c ****     lv_label_set_text(mbps_unit_label, "Mbps");
 767:lvgl/demos/widgets/lv_demo_widgets.c **** 
 768:lvgl/demos/widgets/lv_demo_widgets.c ****     lv_anim_init(&a);
 769:lvgl/demos/widgets/lv_demo_widgets.c ****     lv_anim_set_values(&a, 10, 60);
 770:lvgl/demos/widgets/lv_demo_widgets.c ****     lv_anim_set_repeat_count(&a, LV_ANIM_REPEAT_INFINITE);
 771:lvgl/demos/widgets/lv_demo_widgets.c ****     lv_anim_set_exec_cb(&a, meter3_anim_cb);
 772:lvgl/demos/widgets/lv_demo_widgets.c ****     lv_anim_set_var(&a, indic);
 773:lvgl/demos/widgets/lv_demo_widgets.c ****     lv_anim_set_time(&a, 4100);
 774:lvgl/demos/widgets/lv_demo_widgets.c ****     lv_anim_set_playback_time(&a, 800);
 775:lvgl/demos/widgets/lv_demo_widgets.c ****     lv_anim_start(&a);
 776:lvgl/demos/widgets/lv_demo_widgets.c **** 
 777:lvgl/demos/widgets/lv_demo_widgets.c ****     lv_obj_update_layout(parent);
 778:lvgl/demos/widgets/lv_demo_widgets.c ****     if(disp_size == DISP_MEDIUM) {
 779:lvgl/demos/widgets/lv_demo_widgets.c ****         lv_obj_set_size(meter1, 200, 200);
 780:lvgl/demos/widgets/lv_demo_widgets.c ****         lv_obj_set_size(meter2, 200, 200);
 781:lvgl/demos/widgets/lv_demo_widgets.c ****         lv_obj_set_size(meter3, 200, 200);
 782:lvgl/demos/widgets/lv_demo_widgets.c ****     }
 783:lvgl/demos/widgets/lv_demo_widgets.c ****     else {
 784:lvgl/demos/widgets/lv_demo_widgets.c ****         lv_coord_t meter_w = lv_obj_get_width(meter1);
 785:lvgl/demos/widgets/lv_demo_widgets.c ****         lv_obj_set_height(meter1, meter_w);
 786:lvgl/demos/widgets/lv_demo_widgets.c ****         lv_obj_set_height(meter2, meter_w);
 787:lvgl/demos/widgets/lv_demo_widgets.c ****         lv_obj_set_height(meter3, meter_w);
 788:lvgl/demos/widgets/lv_demo_widgets.c ****     }
 789:lvgl/demos/widgets/lv_demo_widgets.c **** 
 790:lvgl/demos/widgets/lv_demo_widgets.c ****     lv_obj_align(mbps_label, LV_ALIGN_TOP_MID, 10, lv_pct(55));
 791:lvgl/demos/widgets/lv_demo_widgets.c ****     lv_obj_align_to(mbps_unit_label, mbps_label, LV_ALIGN_OUT_RIGHT_BOTTOM, 10, 0);
 792:lvgl/demos/widgets/lv_demo_widgets.c **** }
 793:lvgl/demos/widgets/lv_demo_widgets.c **** 
 794:lvgl/demos/widgets/lv_demo_widgets.c **** void shop_create(lv_obj_t * parent)
 795:lvgl/demos/widgets/lv_demo_widgets.c **** {
 796:lvgl/demos/widgets/lv_demo_widgets.c ****     lv_obj_set_flex_flow(parent, LV_FLEX_FLOW_ROW_WRAP);
 797:lvgl/demos/widgets/lv_demo_widgets.c **** 
 798:lvgl/demos/widgets/lv_demo_widgets.c ****     lv_obj_t * panel1 = lv_obj_create(parent);
 799:lvgl/demos/widgets/lv_demo_widgets.c ****     lv_obj_set_size(panel1, lv_pct(100), LV_SIZE_CONTENT);
 800:lvgl/demos/widgets/lv_demo_widgets.c ****     lv_obj_set_style_pad_bottom(panel1, 30, 0);
 801:lvgl/demos/widgets/lv_demo_widgets.c **** 
 802:lvgl/demos/widgets/lv_demo_widgets.c ****     lv_obj_t * title = lv_label_create(panel1);
 803:lvgl/demos/widgets/lv_demo_widgets.c ****     lv_label_set_text(title, "Monthly Summary");
 804:lvgl/demos/widgets/lv_demo_widgets.c ****     lv_obj_add_style(title, &style_title, 0);
 805:lvgl/demos/widgets/lv_demo_widgets.c **** 
 806:lvgl/demos/widgets/lv_demo_widgets.c ****     lv_obj_t * date = lv_label_create(panel1);
 807:lvgl/demos/widgets/lv_demo_widgets.c ****     lv_label_set_text(date, "8-15 July, 2021");
 808:lvgl/demos/widgets/lv_demo_widgets.c ****     lv_obj_add_style(date, &style_text_muted, 0);
 809:lvgl/demos/widgets/lv_demo_widgets.c **** 
 810:lvgl/demos/widgets/lv_demo_widgets.c ****     lv_obj_t * amount = lv_label_create(panel1);
 811:lvgl/demos/widgets/lv_demo_widgets.c ****     lv_label_set_text(amount, "$27,123.25");
 812:lvgl/demos/widgets/lv_demo_widgets.c ****     lv_obj_add_style(amount, &style_title, 0);
 813:lvgl/demos/widgets/lv_demo_widgets.c **** 
ARM GAS  C:\Users\OSD\AppData\Local\Temp\ccdpxIfP.s 			page 58


 814:lvgl/demos/widgets/lv_demo_widgets.c ****     lv_obj_t * hint = lv_label_create(panel1);
 815:lvgl/demos/widgets/lv_demo_widgets.c ****     lv_label_set_text(hint, LV_SYMBOL_UP" 17% growth this week");
 816:lvgl/demos/widgets/lv_demo_widgets.c ****     lv_obj_set_style_text_color(hint, lv_palette_main(LV_PALETTE_GREEN), 0);
 817:lvgl/demos/widgets/lv_demo_widgets.c **** 
 818:lvgl/demos/widgets/lv_demo_widgets.c ****     chart3 = lv_chart_create(panel1);
 819:lvgl/demos/widgets/lv_demo_widgets.c ****     lv_chart_set_axis_tick(chart3, LV_CHART_AXIS_PRIMARY_Y, 0, 0, 6, 1, true, 80);
 820:lvgl/demos/widgets/lv_demo_widgets.c ****     lv_chart_set_axis_tick(chart3, LV_CHART_AXIS_PRIMARY_X, 0, 0, 7, 1, true, 50);
 821:lvgl/demos/widgets/lv_demo_widgets.c ****     lv_chart_set_type(chart3, LV_CHART_TYPE_BAR);
 822:lvgl/demos/widgets/lv_demo_widgets.c ****     lv_chart_set_div_line_count(chart3, 6, 0);
 823:lvgl/demos/widgets/lv_demo_widgets.c ****     lv_chart_set_point_count(chart3, 7);
 824:lvgl/demos/widgets/lv_demo_widgets.c ****     lv_obj_add_event_cb(chart3, shop_chart_event_cb, LV_EVENT_ALL, NULL);
 825:lvgl/demos/widgets/lv_demo_widgets.c **** 
 826:lvgl/demos/widgets/lv_demo_widgets.c ****     ser4 = lv_chart_add_series(chart3, lv_theme_get_color_primary(chart3), LV_CHART_AXIS_PRIMARY_Y)
 827:lvgl/demos/widgets/lv_demo_widgets.c ****     lv_chart_set_next_value(chart3, ser4, lv_rand(60, 90));
 828:lvgl/demos/widgets/lv_demo_widgets.c ****     lv_chart_set_next_value(chart3, ser4, lv_rand(60, 90));
 829:lvgl/demos/widgets/lv_demo_widgets.c ****     lv_chart_set_next_value(chart3, ser4, lv_rand(60, 90));
 830:lvgl/demos/widgets/lv_demo_widgets.c ****     lv_chart_set_next_value(chart3, ser4, lv_rand(60, 90));
 831:lvgl/demos/widgets/lv_demo_widgets.c ****     lv_chart_set_next_value(chart3, ser4, lv_rand(60, 90));
 832:lvgl/demos/widgets/lv_demo_widgets.c ****     lv_chart_set_next_value(chart3, ser4, lv_rand(60, 90));
 833:lvgl/demos/widgets/lv_demo_widgets.c ****     lv_chart_set_next_value(chart3, ser4, lv_rand(60, 90));
 834:lvgl/demos/widgets/lv_demo_widgets.c ****     lv_chart_set_next_value(chart3, ser4, lv_rand(60, 90));
 835:lvgl/demos/widgets/lv_demo_widgets.c ****     lv_chart_set_next_value(chart3, ser4, lv_rand(60, 90));
 836:lvgl/demos/widgets/lv_demo_widgets.c ****     lv_chart_set_next_value(chart3, ser4, lv_rand(60, 90));
 837:lvgl/demos/widgets/lv_demo_widgets.c ****     lv_chart_set_next_value(chart3, ser4, lv_rand(60, 90));
 838:lvgl/demos/widgets/lv_demo_widgets.c ****     lv_chart_set_next_value(chart3, ser4, lv_rand(60, 90));
 839:lvgl/demos/widgets/lv_demo_widgets.c **** 
 840:lvgl/demos/widgets/lv_demo_widgets.c ****     if(disp_size == DISP_LARGE) {
 841:lvgl/demos/widgets/lv_demo_widgets.c ****         static lv_coord_t grid1_col_dsc[] = {LV_GRID_FR(1), LV_GRID_FR(1), LV_GRID_TEMPLATE_LAST};
 842:lvgl/demos/widgets/lv_demo_widgets.c ****         static lv_coord_t grid1_row_dsc[] = {
 843:lvgl/demos/widgets/lv_demo_widgets.c ****             LV_GRID_CONTENT,  /*Title*/
 844:lvgl/demos/widgets/lv_demo_widgets.c ****             LV_GRID_CONTENT,  /*Sub title*/
 845:lvgl/demos/widgets/lv_demo_widgets.c ****             20,               /*Spacer*/
 846:lvgl/demos/widgets/lv_demo_widgets.c ****             LV_GRID_CONTENT,  /*Amount*/
 847:lvgl/demos/widgets/lv_demo_widgets.c ****             LV_GRID_CONTENT,  /*Hint*/
 848:lvgl/demos/widgets/lv_demo_widgets.c ****             LV_GRID_TEMPLATE_LAST
 849:lvgl/demos/widgets/lv_demo_widgets.c ****         };
 850:lvgl/demos/widgets/lv_demo_widgets.c **** 
 851:lvgl/demos/widgets/lv_demo_widgets.c ****         lv_obj_set_size(chart3, lv_pct(100), lv_pct(100));
 852:lvgl/demos/widgets/lv_demo_widgets.c ****         lv_obj_set_style_pad_column(chart3, LV_DPX(30), 0);
 853:lvgl/demos/widgets/lv_demo_widgets.c **** 
 854:lvgl/demos/widgets/lv_demo_widgets.c ****         lv_obj_set_grid_dsc_array(panel1, grid1_col_dsc, grid1_row_dsc);
 855:lvgl/demos/widgets/lv_demo_widgets.c ****         lv_obj_set_grid_cell(title, LV_GRID_ALIGN_START, 0, 1, LV_GRID_ALIGN_START, 0, 1);
 856:lvgl/demos/widgets/lv_demo_widgets.c ****         lv_obj_set_grid_cell(date, LV_GRID_ALIGN_START, 0, 1, LV_GRID_ALIGN_START, 1, 1);
 857:lvgl/demos/widgets/lv_demo_widgets.c ****         lv_obj_set_grid_cell(amount, LV_GRID_ALIGN_START, 0, 1, LV_GRID_ALIGN_START, 3, 1);
 858:lvgl/demos/widgets/lv_demo_widgets.c ****         lv_obj_set_grid_cell(hint, LV_GRID_ALIGN_START, 0, 1, LV_GRID_ALIGN_START, 4, 1);
 859:lvgl/demos/widgets/lv_demo_widgets.c ****         lv_obj_set_grid_cell(chart3, LV_GRID_ALIGN_STRETCH, 1, 1, LV_GRID_ALIGN_STRETCH, 0, 5);
 860:lvgl/demos/widgets/lv_demo_widgets.c ****     }
 861:lvgl/demos/widgets/lv_demo_widgets.c ****     else if(disp_size == DISP_MEDIUM) {
 862:lvgl/demos/widgets/lv_demo_widgets.c ****         static lv_coord_t grid1_col_dsc[] = {LV_GRID_FR(1), LV_GRID_FR(1), LV_GRID_TEMPLATE_LAST};
 863:lvgl/demos/widgets/lv_demo_widgets.c ****         static lv_coord_t grid1_row_dsc[] = {
 864:lvgl/demos/widgets/lv_demo_widgets.c ****             LV_GRID_CONTENT,  /*Title + Date*/
 865:lvgl/demos/widgets/lv_demo_widgets.c ****             LV_GRID_CONTENT,  /*Amount + Hint*/
 866:lvgl/demos/widgets/lv_demo_widgets.c ****             200,              /*Chart*/
 867:lvgl/demos/widgets/lv_demo_widgets.c ****             LV_GRID_TEMPLATE_LAST
 868:lvgl/demos/widgets/lv_demo_widgets.c ****         };
 869:lvgl/demos/widgets/lv_demo_widgets.c **** 
 870:lvgl/demos/widgets/lv_demo_widgets.c ****         lv_obj_update_layout(panel1);
ARM GAS  C:\Users\OSD\AppData\Local\Temp\ccdpxIfP.s 			page 59


 871:lvgl/demos/widgets/lv_demo_widgets.c ****         lv_obj_set_width(chart3, lv_obj_get_content_width(panel1) - 20);
 872:lvgl/demos/widgets/lv_demo_widgets.c ****         lv_obj_set_style_pad_column(chart3, LV_DPX(30), 0);
 873:lvgl/demos/widgets/lv_demo_widgets.c **** 
 874:lvgl/demos/widgets/lv_demo_widgets.c ****         lv_obj_set_grid_dsc_array(panel1, grid1_col_dsc, grid1_row_dsc);
 875:lvgl/demos/widgets/lv_demo_widgets.c ****         lv_obj_set_grid_cell(title, LV_GRID_ALIGN_START, 0, 1, LV_GRID_ALIGN_CENTER, 0, 1);
 876:lvgl/demos/widgets/lv_demo_widgets.c ****         lv_obj_set_grid_cell(date, LV_GRID_ALIGN_START, 1, 1, LV_GRID_ALIGN_CENTER, 0, 1);
 877:lvgl/demos/widgets/lv_demo_widgets.c ****         lv_obj_set_grid_cell(amount, LV_GRID_ALIGN_START, 0, 1, LV_GRID_ALIGN_CENTER, 1, 1);
 878:lvgl/demos/widgets/lv_demo_widgets.c ****         lv_obj_set_grid_cell(hint, LV_GRID_ALIGN_START, 1, 1, LV_GRID_ALIGN_CENTER, 1, 1);
 879:lvgl/demos/widgets/lv_demo_widgets.c ****         lv_obj_set_grid_cell(chart3, LV_GRID_ALIGN_END, 0, 2, LV_GRID_ALIGN_STRETCH, 2, 1);
 880:lvgl/demos/widgets/lv_demo_widgets.c ****     }
 881:lvgl/demos/widgets/lv_demo_widgets.c ****     else if(disp_size == DISP_SMALL) {
 882:lvgl/demos/widgets/lv_demo_widgets.c ****         static lv_coord_t grid1_col_dsc[] = {LV_GRID_FR(1), LV_GRID_TEMPLATE_LAST};
 883:lvgl/demos/widgets/lv_demo_widgets.c ****         static lv_coord_t grid1_row_dsc[] = {
 884:lvgl/demos/widgets/lv_demo_widgets.c ****             LV_GRID_CONTENT,  /*Title*/
 885:lvgl/demos/widgets/lv_demo_widgets.c ****             LV_GRID_CONTENT,  /*Date*/
 886:lvgl/demos/widgets/lv_demo_widgets.c ****             LV_GRID_CONTENT,  /*Amount*/
 887:lvgl/demos/widgets/lv_demo_widgets.c ****             LV_GRID_CONTENT,  /*Hint*/
 888:lvgl/demos/widgets/lv_demo_widgets.c ****             LV_GRID_CONTENT,  /*Chart*/
 889:lvgl/demos/widgets/lv_demo_widgets.c ****             LV_GRID_TEMPLATE_LAST
 890:lvgl/demos/widgets/lv_demo_widgets.c ****         };
 891:lvgl/demos/widgets/lv_demo_widgets.c **** 
 892:lvgl/demos/widgets/lv_demo_widgets.c ****         lv_obj_set_width(chart3, LV_PCT(95));
 893:lvgl/demos/widgets/lv_demo_widgets.c ****         lv_obj_set_height(chart3, LV_VER_RES - 70);
 894:lvgl/demos/widgets/lv_demo_widgets.c ****         lv_obj_set_style_max_height(chart3, 300, 0);
 895:lvgl/demos/widgets/lv_demo_widgets.c ****         lv_chart_set_zoom_x(chart3, 512);
 896:lvgl/demos/widgets/lv_demo_widgets.c **** 
 897:lvgl/demos/widgets/lv_demo_widgets.c ****         lv_obj_set_grid_dsc_array(panel1, grid1_col_dsc, grid1_row_dsc);
 898:lvgl/demos/widgets/lv_demo_widgets.c ****         lv_obj_set_grid_cell(title, LV_GRID_ALIGN_START, 0, 1, LV_GRID_ALIGN_START, 0, 1);
 899:lvgl/demos/widgets/lv_demo_widgets.c ****         lv_obj_set_grid_cell(date, LV_GRID_ALIGN_START, 0, 1, LV_GRID_ALIGN_START, 1, 1);
 900:lvgl/demos/widgets/lv_demo_widgets.c ****         lv_obj_set_grid_cell(amount, LV_GRID_ALIGN_START, 0, 1, LV_GRID_ALIGN_START, 2, 1);
 901:lvgl/demos/widgets/lv_demo_widgets.c ****         lv_obj_set_grid_cell(hint, LV_GRID_ALIGN_START, 0, 1, LV_GRID_ALIGN_START, 3, 1);
 902:lvgl/demos/widgets/lv_demo_widgets.c ****         lv_obj_set_grid_cell(chart3, LV_GRID_ALIGN_END, 0, 1, LV_GRID_ALIGN_START, 4, 1);
 903:lvgl/demos/widgets/lv_demo_widgets.c ****     }
 904:lvgl/demos/widgets/lv_demo_widgets.c **** 
 905:lvgl/demos/widgets/lv_demo_widgets.c ****     lv_obj_t * list = lv_obj_create(parent);
 906:lvgl/demos/widgets/lv_demo_widgets.c ****     if(disp_size == DISP_SMALL) {
 907:lvgl/demos/widgets/lv_demo_widgets.c ****         lv_obj_add_flag(list, LV_OBJ_FLAG_FLEX_IN_NEW_TRACK);
 908:lvgl/demos/widgets/lv_demo_widgets.c ****         lv_obj_set_height(list, LV_PCT(100));
 909:lvgl/demos/widgets/lv_demo_widgets.c ****     }
 910:lvgl/demos/widgets/lv_demo_widgets.c ****     else {
 911:lvgl/demos/widgets/lv_demo_widgets.c ****         lv_obj_set_height(list, LV_PCT(100));
 912:lvgl/demos/widgets/lv_demo_widgets.c ****         lv_obj_set_style_max_height(list, 300, 0);
 913:lvgl/demos/widgets/lv_demo_widgets.c ****     }
 914:lvgl/demos/widgets/lv_demo_widgets.c **** 
 915:lvgl/demos/widgets/lv_demo_widgets.c ****     lv_obj_set_flex_flow(list, LV_FLEX_FLOW_COLUMN);
 916:lvgl/demos/widgets/lv_demo_widgets.c ****     lv_obj_set_flex_grow(list, 1);
 917:lvgl/demos/widgets/lv_demo_widgets.c ****     lv_obj_add_flag(list, LV_OBJ_FLAG_FLEX_IN_NEW_TRACK);
 918:lvgl/demos/widgets/lv_demo_widgets.c **** 
 919:lvgl/demos/widgets/lv_demo_widgets.c ****     title = lv_label_create(list);
 920:lvgl/demos/widgets/lv_demo_widgets.c ****     lv_label_set_text(title, "Top products");
 921:lvgl/demos/widgets/lv_demo_widgets.c ****     lv_obj_add_style(title, &style_title, 0);
 922:lvgl/demos/widgets/lv_demo_widgets.c **** 
 923:lvgl/demos/widgets/lv_demo_widgets.c ****     LV_IMG_DECLARE(img_clothes);
 924:lvgl/demos/widgets/lv_demo_widgets.c ****     create_shop_item(list, &img_clothes, "Blue jeans", "Clothes", "$722");
 925:lvgl/demos/widgets/lv_demo_widgets.c ****     create_shop_item(list, &img_clothes, "Blue jeans", "Clothes", "$411");
 926:lvgl/demos/widgets/lv_demo_widgets.c ****     create_shop_item(list, &img_clothes, "Blue jeans", "Clothes", "$917");
 927:lvgl/demos/widgets/lv_demo_widgets.c ****     create_shop_item(list, &img_clothes, "Blue jeans", "Clothes", "$64");
ARM GAS  C:\Users\OSD\AppData\Local\Temp\ccdpxIfP.s 			page 60


 928:lvgl/demos/widgets/lv_demo_widgets.c ****     create_shop_item(list, &img_clothes, "Blue jeans", "Clothes", "$805");
 929:lvgl/demos/widgets/lv_demo_widgets.c **** 
 930:lvgl/demos/widgets/lv_demo_widgets.c ****     lv_obj_t * notifications = lv_obj_create(parent);
 931:lvgl/demos/widgets/lv_demo_widgets.c ****     if(disp_size == DISP_SMALL) {
 932:lvgl/demos/widgets/lv_demo_widgets.c ****         lv_obj_add_flag(notifications, LV_OBJ_FLAG_FLEX_IN_NEW_TRACK);
 933:lvgl/demos/widgets/lv_demo_widgets.c ****         lv_obj_set_height(notifications, LV_PCT(100));
 934:lvgl/demos/widgets/lv_demo_widgets.c ****     }
 935:lvgl/demos/widgets/lv_demo_widgets.c ****     else  {
 936:lvgl/demos/widgets/lv_demo_widgets.c ****         lv_obj_set_height(notifications, LV_PCT(100));
 937:lvgl/demos/widgets/lv_demo_widgets.c ****         lv_obj_set_style_max_height(notifications, 300, 0);
 938:lvgl/demos/widgets/lv_demo_widgets.c ****     }
 939:lvgl/demos/widgets/lv_demo_widgets.c **** 
 940:lvgl/demos/widgets/lv_demo_widgets.c ****     lv_obj_set_flex_flow(notifications, LV_FLEX_FLOW_COLUMN);
 941:lvgl/demos/widgets/lv_demo_widgets.c ****     lv_obj_set_flex_grow(notifications, 1);
 942:lvgl/demos/widgets/lv_demo_widgets.c **** 
 943:lvgl/demos/widgets/lv_demo_widgets.c ****     title = lv_label_create(notifications);
 944:lvgl/demos/widgets/lv_demo_widgets.c ****     lv_label_set_text(title, "Notification");
 945:lvgl/demos/widgets/lv_demo_widgets.c ****     lv_obj_add_style(title, &style_title, 0);
 946:lvgl/demos/widgets/lv_demo_widgets.c **** 
 947:lvgl/demos/widgets/lv_demo_widgets.c ****     lv_obj_t * cb;
 948:lvgl/demos/widgets/lv_demo_widgets.c ****     cb = lv_checkbox_create(notifications);
 949:lvgl/demos/widgets/lv_demo_widgets.c ****     lv_checkbox_set_text(cb, "Item purchased");
 950:lvgl/demos/widgets/lv_demo_widgets.c **** 
 951:lvgl/demos/widgets/lv_demo_widgets.c ****     cb = lv_checkbox_create(notifications);
 952:lvgl/demos/widgets/lv_demo_widgets.c ****     lv_checkbox_set_text(cb, "New connection");
 953:lvgl/demos/widgets/lv_demo_widgets.c **** 
 954:lvgl/demos/widgets/lv_demo_widgets.c ****     cb = lv_checkbox_create(notifications);
 955:lvgl/demos/widgets/lv_demo_widgets.c ****     lv_checkbox_set_text(cb, "New subscriber");
 956:lvgl/demos/widgets/lv_demo_widgets.c ****     lv_obj_add_state(cb, LV_STATE_CHECKED);
 957:lvgl/demos/widgets/lv_demo_widgets.c **** 
 958:lvgl/demos/widgets/lv_demo_widgets.c ****     cb = lv_checkbox_create(notifications);
 959:lvgl/demos/widgets/lv_demo_widgets.c ****     lv_checkbox_set_text(cb, "New message");
 960:lvgl/demos/widgets/lv_demo_widgets.c ****     lv_obj_add_state(cb, LV_STATE_DISABLED);
 961:lvgl/demos/widgets/lv_demo_widgets.c **** 
 962:lvgl/demos/widgets/lv_demo_widgets.c ****     cb = lv_checkbox_create(notifications);
 963:lvgl/demos/widgets/lv_demo_widgets.c ****     lv_checkbox_set_text(cb, "Milestone reached");
 964:lvgl/demos/widgets/lv_demo_widgets.c ****     lv_obj_add_state(cb, LV_STATE_CHECKED | LV_STATE_DISABLED);
 965:lvgl/demos/widgets/lv_demo_widgets.c **** 
 966:lvgl/demos/widgets/lv_demo_widgets.c ****     cb = lv_checkbox_create(notifications);
 967:lvgl/demos/widgets/lv_demo_widgets.c ****     lv_checkbox_set_text(cb, "Out of stock");
 968:lvgl/demos/widgets/lv_demo_widgets.c **** 
 969:lvgl/demos/widgets/lv_demo_widgets.c **** }
 970:lvgl/demos/widgets/lv_demo_widgets.c **** 
 971:lvgl/demos/widgets/lv_demo_widgets.c **** static void color_changer_create(lv_obj_t * parent)
 972:lvgl/demos/widgets/lv_demo_widgets.c **** {
 973:lvgl/demos/widgets/lv_demo_widgets.c ****     static lv_palette_t palette[] = {
 974:lvgl/demos/widgets/lv_demo_widgets.c ****         LV_PALETTE_BLUE, LV_PALETTE_GREEN, LV_PALETTE_BLUE_GREY,  LV_PALETTE_ORANGE,
 975:lvgl/demos/widgets/lv_demo_widgets.c ****         LV_PALETTE_RED, LV_PALETTE_PURPLE, LV_PALETTE_TEAL, _LV_PALETTE_LAST
 976:lvgl/demos/widgets/lv_demo_widgets.c ****     };
 977:lvgl/demos/widgets/lv_demo_widgets.c **** 
 978:lvgl/demos/widgets/lv_demo_widgets.c ****     lv_obj_t * color_cont = lv_obj_create(parent);
 979:lvgl/demos/widgets/lv_demo_widgets.c ****     lv_obj_remove_style_all(color_cont);
 980:lvgl/demos/widgets/lv_demo_widgets.c ****     lv_obj_set_flex_flow(color_cont, LV_FLEX_FLOW_ROW);
 981:lvgl/demos/widgets/lv_demo_widgets.c ****     lv_obj_set_flex_align(color_cont, LV_FLEX_ALIGN_SPACE_EVENLY, LV_FLEX_ALIGN_CENTER, LV_FLEX_ALI
 982:lvgl/demos/widgets/lv_demo_widgets.c ****     lv_obj_add_flag(color_cont, LV_OBJ_FLAG_FLOATING);
 983:lvgl/demos/widgets/lv_demo_widgets.c **** 
 984:lvgl/demos/widgets/lv_demo_widgets.c ****     lv_obj_set_style_bg_color(color_cont, lv_color_white(), 0);
ARM GAS  C:\Users\OSD\AppData\Local\Temp\ccdpxIfP.s 			page 61


 985:lvgl/demos/widgets/lv_demo_widgets.c ****     lv_obj_set_style_pad_right(color_cont, disp_size == DISP_SMALL ? LV_DPX(47) : LV_DPX(55), 0);
 986:lvgl/demos/widgets/lv_demo_widgets.c ****     lv_obj_set_style_bg_opa(color_cont, LV_OPA_COVER, 0);
 987:lvgl/demos/widgets/lv_demo_widgets.c ****     lv_obj_set_style_radius(color_cont, LV_RADIUS_CIRCLE, 0);
 988:lvgl/demos/widgets/lv_demo_widgets.c **** 
 989:lvgl/demos/widgets/lv_demo_widgets.c ****     if(disp_size == DISP_SMALL) lv_obj_set_size(color_cont, LV_DPX(52), LV_DPX(52));
 990:lvgl/demos/widgets/lv_demo_widgets.c ****     else lv_obj_set_size(color_cont, LV_DPX(60), LV_DPX(60));
 991:lvgl/demos/widgets/lv_demo_widgets.c **** 
 992:lvgl/demos/widgets/lv_demo_widgets.c ****     lv_obj_align(color_cont, LV_ALIGN_BOTTOM_RIGHT, - LV_DPX(10),  - LV_DPX(10));
 993:lvgl/demos/widgets/lv_demo_widgets.c **** 
 994:lvgl/demos/widgets/lv_demo_widgets.c ****     uint32_t i;
 995:lvgl/demos/widgets/lv_demo_widgets.c ****     for(i = 0; palette[i] != _LV_PALETTE_LAST; i++) {
 996:lvgl/demos/widgets/lv_demo_widgets.c ****         lv_obj_t * c = lv_btn_create(color_cont);
 997:lvgl/demos/widgets/lv_demo_widgets.c ****         lv_obj_set_style_bg_color(c, lv_palette_main(palette[i]), 0);
 998:lvgl/demos/widgets/lv_demo_widgets.c ****         lv_obj_set_style_radius(c, LV_RADIUS_CIRCLE, 0);
 999:lvgl/demos/widgets/lv_demo_widgets.c ****         lv_obj_set_style_opa(c, LV_OPA_TRANSP, 0);
1000:lvgl/demos/widgets/lv_demo_widgets.c ****         lv_obj_set_size(c, 20, 20);
1001:lvgl/demos/widgets/lv_demo_widgets.c ****         lv_obj_add_event_cb(c, color_event_cb, LV_EVENT_ALL, &palette[i]);
1002:lvgl/demos/widgets/lv_demo_widgets.c ****         lv_obj_clear_flag(c, LV_OBJ_FLAG_SCROLL_ON_FOCUS);
1003:lvgl/demos/widgets/lv_demo_widgets.c ****     }
1004:lvgl/demos/widgets/lv_demo_widgets.c **** 
1005:lvgl/demos/widgets/lv_demo_widgets.c ****     lv_obj_t * btn = lv_btn_create(parent);
1006:lvgl/demos/widgets/lv_demo_widgets.c ****     lv_obj_add_flag(btn, LV_OBJ_FLAG_FLOATING | LV_OBJ_FLAG_CLICKABLE);
1007:lvgl/demos/widgets/lv_demo_widgets.c ****     lv_obj_set_style_bg_color(btn, lv_color_white(), LV_STATE_CHECKED);
1008:lvgl/demos/widgets/lv_demo_widgets.c ****     lv_obj_set_style_pad_all(btn, 10, 0);
1009:lvgl/demos/widgets/lv_demo_widgets.c ****     lv_obj_set_style_radius(btn, LV_RADIUS_CIRCLE, 0);
1010:lvgl/demos/widgets/lv_demo_widgets.c ****     lv_obj_add_event_cb(btn, color_changer_event_cb, LV_EVENT_ALL, color_cont);
1011:lvgl/demos/widgets/lv_demo_widgets.c ****     lv_obj_set_style_shadow_width(btn, 0, 0);
1012:lvgl/demos/widgets/lv_demo_widgets.c ****     lv_obj_set_style_bg_img_src(btn, LV_SYMBOL_TINT, 0);
1013:lvgl/demos/widgets/lv_demo_widgets.c **** 
1014:lvgl/demos/widgets/lv_demo_widgets.c ****     if(disp_size == DISP_SMALL) {
1015:lvgl/demos/widgets/lv_demo_widgets.c ****         lv_obj_set_size(btn, LV_DPX(42), LV_DPX(42));
1016:lvgl/demos/widgets/lv_demo_widgets.c ****         lv_obj_align(btn, LV_ALIGN_BOTTOM_RIGHT, -LV_DPX(15), -LV_DPX(15));
1017:lvgl/demos/widgets/lv_demo_widgets.c ****     }
1018:lvgl/demos/widgets/lv_demo_widgets.c ****     else {
1019:lvgl/demos/widgets/lv_demo_widgets.c ****         lv_obj_set_size(btn, LV_DPX(50), LV_DPX(50));
1020:lvgl/demos/widgets/lv_demo_widgets.c ****         lv_obj_align(btn, LV_ALIGN_BOTTOM_RIGHT, -LV_DPX(15), -LV_DPX(15));
1021:lvgl/demos/widgets/lv_demo_widgets.c ****     }
1022:lvgl/demos/widgets/lv_demo_widgets.c **** }
1023:lvgl/demos/widgets/lv_demo_widgets.c **** 
1024:lvgl/demos/widgets/lv_demo_widgets.c **** static void color_changer_anim_cb(void * var, int32_t v)
1025:lvgl/demos/widgets/lv_demo_widgets.c **** {
1026:lvgl/demos/widgets/lv_demo_widgets.c ****     lv_obj_t * obj = var;
1027:lvgl/demos/widgets/lv_demo_widgets.c ****     lv_coord_t max_w = lv_obj_get_width(lv_obj_get_parent(obj)) - LV_DPX(20);
1028:lvgl/demos/widgets/lv_demo_widgets.c ****     lv_coord_t w;
1029:lvgl/demos/widgets/lv_demo_widgets.c **** 
1030:lvgl/demos/widgets/lv_demo_widgets.c ****     if(disp_size == DISP_SMALL) {
1031:lvgl/demos/widgets/lv_demo_widgets.c ****         w = lv_map(v, 0, 256, LV_DPX(52), max_w);
1032:lvgl/demos/widgets/lv_demo_widgets.c ****         lv_obj_set_width(obj, w);
1033:lvgl/demos/widgets/lv_demo_widgets.c ****         lv_obj_align(obj, LV_ALIGN_BOTTOM_RIGHT, - LV_DPX(10),  - LV_DPX(10));
1034:lvgl/demos/widgets/lv_demo_widgets.c ****     }
1035:lvgl/demos/widgets/lv_demo_widgets.c ****     else {
1036:lvgl/demos/widgets/lv_demo_widgets.c ****         w = lv_map(v, 0, 256, LV_DPX(60), max_w);
1037:lvgl/demos/widgets/lv_demo_widgets.c ****         lv_obj_set_width(obj, w);
1038:lvgl/demos/widgets/lv_demo_widgets.c ****         lv_obj_align(obj, LV_ALIGN_BOTTOM_RIGHT, - LV_DPX(10),  - LV_DPX(10));
1039:lvgl/demos/widgets/lv_demo_widgets.c ****     }
1040:lvgl/demos/widgets/lv_demo_widgets.c **** 
1041:lvgl/demos/widgets/lv_demo_widgets.c ****     if(v > LV_OPA_COVER) v = LV_OPA_COVER;
ARM GAS  C:\Users\OSD\AppData\Local\Temp\ccdpxIfP.s 			page 62


1042:lvgl/demos/widgets/lv_demo_widgets.c **** 
1043:lvgl/demos/widgets/lv_demo_widgets.c ****     uint32_t i;
1044:lvgl/demos/widgets/lv_demo_widgets.c ****     for(i = 0; i < lv_obj_get_child_cnt(obj); i++) {
1045:lvgl/demos/widgets/lv_demo_widgets.c ****         lv_obj_set_style_opa(lv_obj_get_child(obj, i), v, 0);
1046:lvgl/demos/widgets/lv_demo_widgets.c ****     }
1047:lvgl/demos/widgets/lv_demo_widgets.c **** 
1048:lvgl/demos/widgets/lv_demo_widgets.c **** }
1049:lvgl/demos/widgets/lv_demo_widgets.c **** 
1050:lvgl/demos/widgets/lv_demo_widgets.c **** static void color_changer_event_cb(lv_event_t * e)
1051:lvgl/demos/widgets/lv_demo_widgets.c **** {
1052:lvgl/demos/widgets/lv_demo_widgets.c ****     if(lv_event_get_code(e) == LV_EVENT_CLICKED) {
1053:lvgl/demos/widgets/lv_demo_widgets.c ****         lv_obj_t * color_cont = lv_event_get_user_data(e);
1054:lvgl/demos/widgets/lv_demo_widgets.c ****         if(lv_obj_get_width(color_cont) < LV_HOR_RES / 2) {
1055:lvgl/demos/widgets/lv_demo_widgets.c ****             lv_anim_t a;
1056:lvgl/demos/widgets/lv_demo_widgets.c ****             lv_anim_init(&a);
1057:lvgl/demos/widgets/lv_demo_widgets.c ****             lv_anim_set_var(&a, color_cont);
1058:lvgl/demos/widgets/lv_demo_widgets.c ****             lv_anim_set_exec_cb(&a, color_changer_anim_cb);
1059:lvgl/demos/widgets/lv_demo_widgets.c ****             lv_anim_set_values(&a, 0, 256);
1060:lvgl/demos/widgets/lv_demo_widgets.c ****             lv_anim_set_time(&a, 200);
1061:lvgl/demos/widgets/lv_demo_widgets.c ****             lv_anim_start(&a);
1062:lvgl/demos/widgets/lv_demo_widgets.c ****         }
1063:lvgl/demos/widgets/lv_demo_widgets.c ****         else {
1064:lvgl/demos/widgets/lv_demo_widgets.c ****             lv_anim_t a;
1065:lvgl/demos/widgets/lv_demo_widgets.c ****             lv_anim_init(&a);
1066:lvgl/demos/widgets/lv_demo_widgets.c ****             lv_anim_set_var(&a, color_cont);
1067:lvgl/demos/widgets/lv_demo_widgets.c ****             lv_anim_set_exec_cb(&a, color_changer_anim_cb);
1068:lvgl/demos/widgets/lv_demo_widgets.c ****             lv_anim_set_values(&a, 256, 0);
1069:lvgl/demos/widgets/lv_demo_widgets.c ****             lv_anim_set_time(&a, 200);
1070:lvgl/demos/widgets/lv_demo_widgets.c ****             lv_anim_start(&a);
1071:lvgl/demos/widgets/lv_demo_widgets.c ****         }
1072:lvgl/demos/widgets/lv_demo_widgets.c ****     }
1073:lvgl/demos/widgets/lv_demo_widgets.c **** }
1074:lvgl/demos/widgets/lv_demo_widgets.c **** static void color_event_cb(lv_event_t * e)
1075:lvgl/demos/widgets/lv_demo_widgets.c **** {
1076:lvgl/demos/widgets/lv_demo_widgets.c ****     lv_event_code_t code = lv_event_get_code(e);
1077:lvgl/demos/widgets/lv_demo_widgets.c ****     lv_obj_t * obj = lv_event_get_target(e);
1078:lvgl/demos/widgets/lv_demo_widgets.c **** 
1079:lvgl/demos/widgets/lv_demo_widgets.c ****     if(code == LV_EVENT_FOCUSED) {
1080:lvgl/demos/widgets/lv_demo_widgets.c ****         lv_obj_t * color_cont = lv_obj_get_parent(obj);
1081:lvgl/demos/widgets/lv_demo_widgets.c ****         if(lv_obj_get_width(color_cont) < LV_HOR_RES / 2) {
1082:lvgl/demos/widgets/lv_demo_widgets.c ****             lv_anim_t a;
1083:lvgl/demos/widgets/lv_demo_widgets.c ****             lv_anim_init(&a);
1084:lvgl/demos/widgets/lv_demo_widgets.c ****             lv_anim_set_var(&a, color_cont);
1085:lvgl/demos/widgets/lv_demo_widgets.c ****             lv_anim_set_exec_cb(&a, color_changer_anim_cb);
1086:lvgl/demos/widgets/lv_demo_widgets.c ****             lv_anim_set_values(&a, 0, 256);
1087:lvgl/demos/widgets/lv_demo_widgets.c ****             lv_anim_set_time(&a, 200);
1088:lvgl/demos/widgets/lv_demo_widgets.c ****             lv_anim_start(&a);
1089:lvgl/demos/widgets/lv_demo_widgets.c ****         }
1090:lvgl/demos/widgets/lv_demo_widgets.c ****     }
1091:lvgl/demos/widgets/lv_demo_widgets.c ****     else if(code == LV_EVENT_CLICKED) {
1092:lvgl/demos/widgets/lv_demo_widgets.c ****         lv_palette_t * palette_primary = lv_event_get_user_data(e);
1093:lvgl/demos/widgets/lv_demo_widgets.c ****         lv_palette_t palette_secondary = (*palette_primary) + 3; /*Use another palette as secondary
1094:lvgl/demos/widgets/lv_demo_widgets.c ****         if(palette_secondary >= _LV_PALETTE_LAST) palette_secondary = 0;
1095:lvgl/demos/widgets/lv_demo_widgets.c **** #if LV_USE_THEME_DEFAULT
1096:lvgl/demos/widgets/lv_demo_widgets.c ****         lv_theme_default_init(NULL, lv_palette_main(*palette_primary), lv_palette_main(palette_seco
1097:lvgl/demos/widgets/lv_demo_widgets.c ****                               LV_THEME_DEFAULT_DARK, font_normal);
1098:lvgl/demos/widgets/lv_demo_widgets.c **** #endif
ARM GAS  C:\Users\OSD\AppData\Local\Temp\ccdpxIfP.s 			page 63


1099:lvgl/demos/widgets/lv_demo_widgets.c ****         lv_color_t color = lv_palette_main(*palette_primary);
1100:lvgl/demos/widgets/lv_demo_widgets.c ****         lv_style_set_text_color(&style_icon, color);
1101:lvgl/demos/widgets/lv_demo_widgets.c ****         lv_chart_set_series_color(chart1, ser1, color);
1102:lvgl/demos/widgets/lv_demo_widgets.c ****         lv_chart_set_series_color(chart2, ser3, color);
1103:lvgl/demos/widgets/lv_demo_widgets.c ****     }
1104:lvgl/demos/widgets/lv_demo_widgets.c **** }
1105:lvgl/demos/widgets/lv_demo_widgets.c **** 
1106:lvgl/demos/widgets/lv_demo_widgets.c **** static lv_obj_t * create_meter_box(lv_obj_t * parent, const char * title, const char * text1, const
1107:lvgl/demos/widgets/lv_demo_widgets.c ****                                    const char * text3)
1108:lvgl/demos/widgets/lv_demo_widgets.c **** {
1109:lvgl/demos/widgets/lv_demo_widgets.c ****     lv_obj_t * cont = lv_obj_create(parent);
1110:lvgl/demos/widgets/lv_demo_widgets.c ****     lv_obj_set_height(cont, LV_SIZE_CONTENT);
1111:lvgl/demos/widgets/lv_demo_widgets.c ****     lv_obj_set_flex_grow(cont, 1);
1112:lvgl/demos/widgets/lv_demo_widgets.c **** 
1113:lvgl/demos/widgets/lv_demo_widgets.c ****     lv_obj_t * title_label = lv_label_create(cont);
1114:lvgl/demos/widgets/lv_demo_widgets.c ****     lv_label_set_text(title_label, title);
1115:lvgl/demos/widgets/lv_demo_widgets.c ****     lv_obj_add_style(title_label, &style_title, 0);
1116:lvgl/demos/widgets/lv_demo_widgets.c **** 
1117:lvgl/demos/widgets/lv_demo_widgets.c ****     lv_obj_t * meter = lv_meter_create(cont);
1118:lvgl/demos/widgets/lv_demo_widgets.c ****     lv_obj_remove_style(meter, NULL, LV_PART_MAIN);
1119:lvgl/demos/widgets/lv_demo_widgets.c ****     lv_obj_remove_style(meter, NULL, LV_PART_INDICATOR);
1120:lvgl/demos/widgets/lv_demo_widgets.c ****     lv_obj_set_width(meter, LV_PCT(100));
1121:lvgl/demos/widgets/lv_demo_widgets.c **** 
1122:lvgl/demos/widgets/lv_demo_widgets.c ****     lv_obj_t * bullet1 = lv_obj_create(cont);
1123:lvgl/demos/widgets/lv_demo_widgets.c ****     lv_obj_set_size(bullet1, 13, 13);
1124:lvgl/demos/widgets/lv_demo_widgets.c ****     lv_obj_remove_style(bullet1, NULL, LV_PART_SCROLLBAR);
1125:lvgl/demos/widgets/lv_demo_widgets.c ****     lv_obj_add_style(bullet1, &style_bullet, 0);
1126:lvgl/demos/widgets/lv_demo_widgets.c ****     lv_obj_set_style_bg_color(bullet1, lv_palette_main(LV_PALETTE_RED), 0);
1127:lvgl/demos/widgets/lv_demo_widgets.c ****     lv_obj_t * label1 = lv_label_create(cont);
1128:lvgl/demos/widgets/lv_demo_widgets.c ****     lv_label_set_text(label1, text1);
1129:lvgl/demos/widgets/lv_demo_widgets.c **** 
1130:lvgl/demos/widgets/lv_demo_widgets.c ****     lv_obj_t * bullet2 = lv_obj_create(cont);
1131:lvgl/demos/widgets/lv_demo_widgets.c ****     lv_obj_set_size(bullet2, 13, 13);
1132:lvgl/demos/widgets/lv_demo_widgets.c ****     lv_obj_remove_style(bullet2, NULL, LV_PART_SCROLLBAR);
1133:lvgl/demos/widgets/lv_demo_widgets.c ****     lv_obj_add_style(bullet2, &style_bullet, 0);
1134:lvgl/demos/widgets/lv_demo_widgets.c ****     lv_obj_set_style_bg_color(bullet2, lv_palette_main(LV_PALETTE_BLUE), 0);
1135:lvgl/demos/widgets/lv_demo_widgets.c ****     lv_obj_t * label2 = lv_label_create(cont);
1136:lvgl/demos/widgets/lv_demo_widgets.c ****     lv_label_set_text(label2, text2);
1137:lvgl/demos/widgets/lv_demo_widgets.c **** 
1138:lvgl/demos/widgets/lv_demo_widgets.c ****     lv_obj_t * bullet3 = lv_obj_create(cont);
1139:lvgl/demos/widgets/lv_demo_widgets.c ****     lv_obj_set_size(bullet3, 13, 13);
1140:lvgl/demos/widgets/lv_demo_widgets.c ****     lv_obj_remove_style(bullet3,  NULL, LV_PART_SCROLLBAR);
1141:lvgl/demos/widgets/lv_demo_widgets.c ****     lv_obj_add_style(bullet3, &style_bullet, 0);
1142:lvgl/demos/widgets/lv_demo_widgets.c ****     lv_obj_set_style_bg_color(bullet3, lv_palette_main(LV_PALETTE_GREEN), 0);
1143:lvgl/demos/widgets/lv_demo_widgets.c ****     lv_obj_t * label3 = lv_label_create(cont);
1144:lvgl/demos/widgets/lv_demo_widgets.c ****     lv_label_set_text(label3, text3);
1145:lvgl/demos/widgets/lv_demo_widgets.c **** 
1146:lvgl/demos/widgets/lv_demo_widgets.c ****     if(disp_size == DISP_MEDIUM) {
1147:lvgl/demos/widgets/lv_demo_widgets.c ****         static lv_coord_t grid_col_dsc[] = {LV_GRID_CONTENT, LV_GRID_FR(1), LV_GRID_CONTENT, LV_GRI
1148:lvgl/demos/widgets/lv_demo_widgets.c ****         static lv_coord_t grid_row_dsc[] = {LV_GRID_CONTENT, LV_GRID_FR(1), LV_GRID_CONTENT, LV_GRI
1149:lvgl/demos/widgets/lv_demo_widgets.c **** 
1150:lvgl/demos/widgets/lv_demo_widgets.c ****         lv_obj_set_grid_dsc_array(cont, grid_col_dsc, grid_row_dsc);
1151:lvgl/demos/widgets/lv_demo_widgets.c ****         lv_obj_set_grid_cell(title_label, LV_GRID_ALIGN_START, 0, 4, LV_GRID_ALIGN_START, 0, 1);
1152:lvgl/demos/widgets/lv_demo_widgets.c ****         lv_obj_set_grid_cell(meter, LV_GRID_ALIGN_START, 0, 1, LV_GRID_ALIGN_START, 1, 3);
1153:lvgl/demos/widgets/lv_demo_widgets.c ****         lv_obj_set_grid_cell(bullet1, LV_GRID_ALIGN_START, 2, 1, LV_GRID_ALIGN_CENTER, 2, 1);
1154:lvgl/demos/widgets/lv_demo_widgets.c ****         lv_obj_set_grid_cell(bullet2, LV_GRID_ALIGN_START, 2, 1, LV_GRID_ALIGN_CENTER, 3, 1);
1155:lvgl/demos/widgets/lv_demo_widgets.c ****         lv_obj_set_grid_cell(bullet3, LV_GRID_ALIGN_START, 2, 1, LV_GRID_ALIGN_CENTER, 4, 1);
ARM GAS  C:\Users\OSD\AppData\Local\Temp\ccdpxIfP.s 			page 64


1156:lvgl/demos/widgets/lv_demo_widgets.c ****         lv_obj_set_grid_cell(label1, LV_GRID_ALIGN_STRETCH, 3, 1, LV_GRID_ALIGN_CENTER, 2, 1);
1157:lvgl/demos/widgets/lv_demo_widgets.c ****         lv_obj_set_grid_cell(label2, LV_GRID_ALIGN_STRETCH, 3, 1, LV_GRID_ALIGN_CENTER, 3, 1);
1158:lvgl/demos/widgets/lv_demo_widgets.c ****         lv_obj_set_grid_cell(label3, LV_GRID_ALIGN_STRETCH, 3, 1, LV_GRID_ALIGN_CENTER, 4, 1);
1159:lvgl/demos/widgets/lv_demo_widgets.c ****     }
1160:lvgl/demos/widgets/lv_demo_widgets.c ****     else {
1161:lvgl/demos/widgets/lv_demo_widgets.c ****         static lv_coord_t grid_col_dsc[] = {LV_GRID_CONTENT, LV_GRID_FR(1), LV_GRID_TEMPLATE_LAST};
1162:lvgl/demos/widgets/lv_demo_widgets.c ****         static lv_coord_t grid_row_dsc[] = {LV_GRID_CONTENT, LV_GRID_CONTENT, LV_GRID_CONTENT, LV_G
1163:lvgl/demos/widgets/lv_demo_widgets.c ****         lv_obj_set_grid_dsc_array(cont, grid_col_dsc, grid_row_dsc);
1164:lvgl/demos/widgets/lv_demo_widgets.c ****         lv_obj_set_grid_cell(title_label, LV_GRID_ALIGN_START, 0, 2, LV_GRID_ALIGN_START, 0, 1);
1165:lvgl/demos/widgets/lv_demo_widgets.c ****         lv_obj_set_grid_cell(meter, LV_GRID_ALIGN_START, 0, 2, LV_GRID_ALIGN_START, 1, 1);
1166:lvgl/demos/widgets/lv_demo_widgets.c ****         lv_obj_set_grid_cell(bullet1, LV_GRID_ALIGN_START, 0, 1, LV_GRID_ALIGN_START, 2, 1);
1167:lvgl/demos/widgets/lv_demo_widgets.c ****         lv_obj_set_grid_cell(bullet2, LV_GRID_ALIGN_START, 0, 1, LV_GRID_ALIGN_START, 3, 1);
1168:lvgl/demos/widgets/lv_demo_widgets.c ****         lv_obj_set_grid_cell(bullet3, LV_GRID_ALIGN_START, 0, 1, LV_GRID_ALIGN_START, 4, 1);
1169:lvgl/demos/widgets/lv_demo_widgets.c ****         lv_obj_set_grid_cell(label1, LV_GRID_ALIGN_STRETCH, 1, 1, LV_GRID_ALIGN_START, 2, 1);
1170:lvgl/demos/widgets/lv_demo_widgets.c ****         lv_obj_set_grid_cell(label2, LV_GRID_ALIGN_STRETCH, 1, 1, LV_GRID_ALIGN_START, 3, 1);
1171:lvgl/demos/widgets/lv_demo_widgets.c ****         lv_obj_set_grid_cell(label3, LV_GRID_ALIGN_STRETCH, 1, 1, LV_GRID_ALIGN_START, 4, 1);
1172:lvgl/demos/widgets/lv_demo_widgets.c ****     }
1173:lvgl/demos/widgets/lv_demo_widgets.c **** 
1174:lvgl/demos/widgets/lv_demo_widgets.c ****     return meter;
1175:lvgl/demos/widgets/lv_demo_widgets.c **** 
1176:lvgl/demos/widgets/lv_demo_widgets.c **** }
1177:lvgl/demos/widgets/lv_demo_widgets.c **** 
1178:lvgl/demos/widgets/lv_demo_widgets.c **** static lv_obj_t * create_shop_item(lv_obj_t * parent, const void * img_src, const char * name, cons
1179:lvgl/demos/widgets/lv_demo_widgets.c ****                                    const char * price)
1180:lvgl/demos/widgets/lv_demo_widgets.c **** {
1181:lvgl/demos/widgets/lv_demo_widgets.c ****     static lv_coord_t grid_col_dsc[] = {LV_GRID_CONTENT, 5, LV_GRID_FR(1), LV_GRID_FR(1), LV_GRID_T
1182:lvgl/demos/widgets/lv_demo_widgets.c ****     static lv_coord_t grid_row_dsc[] = {LV_GRID_FR(1), LV_GRID_FR(1), LV_GRID_TEMPLATE_LAST};
1183:lvgl/demos/widgets/lv_demo_widgets.c **** 
1184:lvgl/demos/widgets/lv_demo_widgets.c ****     lv_obj_t * cont = lv_obj_create(parent);
1185:lvgl/demos/widgets/lv_demo_widgets.c ****     lv_obj_remove_style_all(cont);
1186:lvgl/demos/widgets/lv_demo_widgets.c ****     lv_obj_set_size(cont, LV_PCT(100), LV_SIZE_CONTENT);
1187:lvgl/demos/widgets/lv_demo_widgets.c ****     lv_obj_set_grid_dsc_array(cont, grid_col_dsc, grid_row_dsc);
1188:lvgl/demos/widgets/lv_demo_widgets.c **** 
1189:lvgl/demos/widgets/lv_demo_widgets.c ****     lv_obj_t * img = lv_img_create(cont);
1190:lvgl/demos/widgets/lv_demo_widgets.c ****     lv_img_set_src(img, img_src);
1191:lvgl/demos/widgets/lv_demo_widgets.c ****     lv_obj_set_grid_cell(img, LV_GRID_ALIGN_START, 0, 1, LV_GRID_ALIGN_START, 0, 2);
1192:lvgl/demos/widgets/lv_demo_widgets.c **** 
1193:lvgl/demos/widgets/lv_demo_widgets.c ****     lv_obj_t * label;
1194:lvgl/demos/widgets/lv_demo_widgets.c ****     label = lv_label_create(cont);
1195:lvgl/demos/widgets/lv_demo_widgets.c ****     lv_label_set_text(label, name);
1196:lvgl/demos/widgets/lv_demo_widgets.c ****     lv_obj_set_grid_cell(label, LV_GRID_ALIGN_START, 2, 1, LV_GRID_ALIGN_END, 0, 1);
1197:lvgl/demos/widgets/lv_demo_widgets.c **** 
1198:lvgl/demos/widgets/lv_demo_widgets.c ****     label = lv_label_create(cont);
1199:lvgl/demos/widgets/lv_demo_widgets.c ****     lv_label_set_text(label, category);
1200:lvgl/demos/widgets/lv_demo_widgets.c ****     lv_obj_add_style(label, &style_text_muted, 0);
1201:lvgl/demos/widgets/lv_demo_widgets.c ****     lv_obj_set_grid_cell(label, LV_GRID_ALIGN_START, 2, 1, LV_GRID_ALIGN_START, 1, 1);
1202:lvgl/demos/widgets/lv_demo_widgets.c **** 
1203:lvgl/demos/widgets/lv_demo_widgets.c ****     label = lv_label_create(cont);
1204:lvgl/demos/widgets/lv_demo_widgets.c ****     lv_label_set_text(label, price);
1205:lvgl/demos/widgets/lv_demo_widgets.c ****     lv_obj_set_grid_cell(label, LV_GRID_ALIGN_END, 3, 1, LV_GRID_ALIGN_END, 0, 1);
1206:lvgl/demos/widgets/lv_demo_widgets.c **** 
1207:lvgl/demos/widgets/lv_demo_widgets.c ****     return cont;
1208:lvgl/demos/widgets/lv_demo_widgets.c **** }
1209:lvgl/demos/widgets/lv_demo_widgets.c **** 
1210:lvgl/demos/widgets/lv_demo_widgets.c **** static void ta_event_cb(lv_event_t * e)
1211:lvgl/demos/widgets/lv_demo_widgets.c **** {
1212:lvgl/demos/widgets/lv_demo_widgets.c ****     lv_event_code_t code = lv_event_get_code(e);
ARM GAS  C:\Users\OSD\AppData\Local\Temp\ccdpxIfP.s 			page 65


1213:lvgl/demos/widgets/lv_demo_widgets.c ****     lv_obj_t * ta = lv_event_get_target(e);
1214:lvgl/demos/widgets/lv_demo_widgets.c ****     lv_obj_t * kb = lv_event_get_user_data(e);
1215:lvgl/demos/widgets/lv_demo_widgets.c ****     if(code == LV_EVENT_FOCUSED) {
1216:lvgl/demos/widgets/lv_demo_widgets.c ****         if(lv_indev_get_type(lv_indev_get_act()) != LV_INDEV_TYPE_KEYPAD) {
1217:lvgl/demos/widgets/lv_demo_widgets.c ****             lv_keyboard_set_textarea(kb, ta);
1218:lvgl/demos/widgets/lv_demo_widgets.c ****             lv_obj_set_style_max_height(kb, LV_HOR_RES * 2 / 3, 0);
1219:lvgl/demos/widgets/lv_demo_widgets.c ****             lv_obj_update_layout(tv);   /*Be sure the sizes are recalculated*/
1220:lvgl/demos/widgets/lv_demo_widgets.c ****             lv_obj_set_height(tv, LV_VER_RES - lv_obj_get_height(kb));
1221:lvgl/demos/widgets/lv_demo_widgets.c ****             lv_obj_clear_flag(kb, LV_OBJ_FLAG_HIDDEN);
1222:lvgl/demos/widgets/lv_demo_widgets.c ****             lv_obj_scroll_to_view_recursive(ta, LV_ANIM_OFF);
1223:lvgl/demos/widgets/lv_demo_widgets.c ****         }
1224:lvgl/demos/widgets/lv_demo_widgets.c ****     }
1225:lvgl/demos/widgets/lv_demo_widgets.c ****     else if(code == LV_EVENT_DEFOCUSED) {
1226:lvgl/demos/widgets/lv_demo_widgets.c ****         lv_keyboard_set_textarea(kb, NULL);
1227:lvgl/demos/widgets/lv_demo_widgets.c ****         lv_obj_set_height(tv, LV_VER_RES);
1228:lvgl/demos/widgets/lv_demo_widgets.c ****         lv_obj_add_flag(kb, LV_OBJ_FLAG_HIDDEN);
1229:lvgl/demos/widgets/lv_demo_widgets.c ****         lv_indev_reset(NULL, ta);
1230:lvgl/demos/widgets/lv_demo_widgets.c **** 
1231:lvgl/demos/widgets/lv_demo_widgets.c ****     }
1232:lvgl/demos/widgets/lv_demo_widgets.c ****     else if(code == LV_EVENT_READY || code == LV_EVENT_CANCEL) {
1233:lvgl/demos/widgets/lv_demo_widgets.c ****         lv_obj_set_height(tv, LV_VER_RES);
1234:lvgl/demos/widgets/lv_demo_widgets.c ****         lv_obj_add_flag(kb, LV_OBJ_FLAG_HIDDEN);
1235:lvgl/demos/widgets/lv_demo_widgets.c ****         lv_obj_clear_state(ta, LV_STATE_FOCUSED);
1236:lvgl/demos/widgets/lv_demo_widgets.c ****         lv_indev_reset(NULL, ta);   /*To forget the last clicked object to make it focusable again*
1237:lvgl/demos/widgets/lv_demo_widgets.c ****     }
1238:lvgl/demos/widgets/lv_demo_widgets.c **** }
1239:lvgl/demos/widgets/lv_demo_widgets.c **** 
1240:lvgl/demos/widgets/lv_demo_widgets.c **** static void birthday_event_cb(lv_event_t * e)
1241:lvgl/demos/widgets/lv_demo_widgets.c **** {
1242:lvgl/demos/widgets/lv_demo_widgets.c ****     lv_event_code_t code = lv_event_get_code(e);
1243:lvgl/demos/widgets/lv_demo_widgets.c ****     lv_obj_t * ta = lv_event_get_target(e);
1244:lvgl/demos/widgets/lv_demo_widgets.c **** 
1245:lvgl/demos/widgets/lv_demo_widgets.c ****     if(code == LV_EVENT_FOCUSED) {
1246:lvgl/demos/widgets/lv_demo_widgets.c ****         if(lv_indev_get_type(lv_indev_get_act()) == LV_INDEV_TYPE_POINTER) {
1247:lvgl/demos/widgets/lv_demo_widgets.c ****             if(calendar == NULL) {
1248:lvgl/demos/widgets/lv_demo_widgets.c ****                 lv_obj_add_flag(lv_layer_top(), LV_OBJ_FLAG_CLICKABLE);
1249:lvgl/demos/widgets/lv_demo_widgets.c ****                 calendar = lv_calendar_create(lv_layer_top());
1250:lvgl/demos/widgets/lv_demo_widgets.c ****                 lv_obj_set_style_bg_opa(lv_layer_top(), LV_OPA_50, 0);
1251:lvgl/demos/widgets/lv_demo_widgets.c ****                 lv_obj_set_style_bg_color(lv_layer_top(), lv_palette_main(LV_PALETTE_GREY), 0);
1252:lvgl/demos/widgets/lv_demo_widgets.c ****                 if(disp_size == DISP_SMALL) lv_obj_set_size(calendar, 180, 200);
1253:lvgl/demos/widgets/lv_demo_widgets.c ****                 else if(disp_size == DISP_MEDIUM) lv_obj_set_size(calendar, 200, 220);
1254:lvgl/demos/widgets/lv_demo_widgets.c ****                 else  lv_obj_set_size(calendar, 300, 330);
1255:lvgl/demos/widgets/lv_demo_widgets.c ****                 lv_calendar_set_showed_date(calendar, 1990, 01);
1256:lvgl/demos/widgets/lv_demo_widgets.c ****                 lv_obj_align(calendar, LV_ALIGN_CENTER, 0, 30);
1257:lvgl/demos/widgets/lv_demo_widgets.c ****                 lv_obj_add_event_cb(calendar, calendar_event_cb, LV_EVENT_ALL, ta);
1258:lvgl/demos/widgets/lv_demo_widgets.c **** 
1259:lvgl/demos/widgets/lv_demo_widgets.c ****                 lv_calendar_header_dropdown_create(calendar);
1260:lvgl/demos/widgets/lv_demo_widgets.c ****             }
1261:lvgl/demos/widgets/lv_demo_widgets.c ****         }
1262:lvgl/demos/widgets/lv_demo_widgets.c ****     }
1263:lvgl/demos/widgets/lv_demo_widgets.c **** }
1264:lvgl/demos/widgets/lv_demo_widgets.c **** 
1265:lvgl/demos/widgets/lv_demo_widgets.c **** static void calendar_event_cb(lv_event_t * e)
1266:lvgl/demos/widgets/lv_demo_widgets.c **** {
1267:lvgl/demos/widgets/lv_demo_widgets.c ****     lv_event_code_t code = lv_event_get_code(e);
1268:lvgl/demos/widgets/lv_demo_widgets.c ****     lv_obj_t * ta = lv_event_get_user_data(e);
1269:lvgl/demos/widgets/lv_demo_widgets.c ****     lv_obj_t * obj = lv_event_get_current_target(e);
ARM GAS  C:\Users\OSD\AppData\Local\Temp\ccdpxIfP.s 			page 66


1270:lvgl/demos/widgets/lv_demo_widgets.c ****     if(code == LV_EVENT_VALUE_CHANGED) {
1271:lvgl/demos/widgets/lv_demo_widgets.c ****         lv_calendar_date_t d;
1272:lvgl/demos/widgets/lv_demo_widgets.c ****         lv_calendar_get_pressed_date(obj, &d);
1273:lvgl/demos/widgets/lv_demo_widgets.c ****         char buf[32];
1274:lvgl/demos/widgets/lv_demo_widgets.c ****         lv_snprintf(buf, sizeof(buf), "%02d.%02d.%d", d.day, d.month, d.year);
1275:lvgl/demos/widgets/lv_demo_widgets.c ****         lv_textarea_set_text(ta, buf);
1276:lvgl/demos/widgets/lv_demo_widgets.c **** 
1277:lvgl/demos/widgets/lv_demo_widgets.c ****         lv_obj_del(calendar);
1278:lvgl/demos/widgets/lv_demo_widgets.c ****         calendar = NULL;
1279:lvgl/demos/widgets/lv_demo_widgets.c ****         lv_obj_clear_flag(lv_layer_top(), LV_OBJ_FLAG_CLICKABLE);
1280:lvgl/demos/widgets/lv_demo_widgets.c ****         lv_obj_set_style_bg_opa(lv_layer_top(), LV_OPA_TRANSP, 0);
1281:lvgl/demos/widgets/lv_demo_widgets.c ****     }
1282:lvgl/demos/widgets/lv_demo_widgets.c **** }
1283:lvgl/demos/widgets/lv_demo_widgets.c **** 
1284:lvgl/demos/widgets/lv_demo_widgets.c **** static void slider_event_cb(lv_event_t * e)
1285:lvgl/demos/widgets/lv_demo_widgets.c **** {
1286:lvgl/demos/widgets/lv_demo_widgets.c ****     lv_event_code_t code = lv_event_get_code(e);
1287:lvgl/demos/widgets/lv_demo_widgets.c ****     lv_obj_t * obj = lv_event_get_target(e);
1288:lvgl/demos/widgets/lv_demo_widgets.c **** 
1289:lvgl/demos/widgets/lv_demo_widgets.c ****     if(code == LV_EVENT_REFR_EXT_DRAW_SIZE) {
1290:lvgl/demos/widgets/lv_demo_widgets.c ****         lv_coord_t * s = lv_event_get_param(e);
1291:lvgl/demos/widgets/lv_demo_widgets.c ****         *s = LV_MAX(*s, 60);
1292:lvgl/demos/widgets/lv_demo_widgets.c ****     }
1293:lvgl/demos/widgets/lv_demo_widgets.c ****     else if(code == LV_EVENT_DRAW_PART_END) {
1294:lvgl/demos/widgets/lv_demo_widgets.c ****         lv_obj_draw_part_dsc_t * dsc = lv_event_get_param(e);
1295:lvgl/demos/widgets/lv_demo_widgets.c ****         if(dsc->part == LV_PART_KNOB && lv_obj_has_state(obj, LV_STATE_PRESSED)) {
1296:lvgl/demos/widgets/lv_demo_widgets.c ****             char buf[8];
1297:lvgl/demos/widgets/lv_demo_widgets.c ****             lv_snprintf(buf, sizeof(buf), "%"LV_PRId32, lv_slider_get_value(obj));
1298:lvgl/demos/widgets/lv_demo_widgets.c **** 
1299:lvgl/demos/widgets/lv_demo_widgets.c ****             lv_point_t text_size;
1300:lvgl/demos/widgets/lv_demo_widgets.c ****             lv_txt_get_size(&text_size, buf, font_normal, 0, 0, LV_COORD_MAX, LV_TEXT_FLAG_NONE);
1301:lvgl/demos/widgets/lv_demo_widgets.c **** 
1302:lvgl/demos/widgets/lv_demo_widgets.c ****             lv_area_t txt_area;
1303:lvgl/demos/widgets/lv_demo_widgets.c ****             txt_area.x1 = dsc->draw_area->x1 + lv_area_get_width(dsc->draw_area) / 2 - text_size.x 
1304:lvgl/demos/widgets/lv_demo_widgets.c ****             txt_area.x2 = txt_area.x1 + text_size.x;
1305:lvgl/demos/widgets/lv_demo_widgets.c ****             txt_area.y2 = dsc->draw_area->y1 - 10;
1306:lvgl/demos/widgets/lv_demo_widgets.c ****             txt_area.y1 = txt_area.y2 - text_size.y;
1307:lvgl/demos/widgets/lv_demo_widgets.c **** 
1308:lvgl/demos/widgets/lv_demo_widgets.c ****             lv_area_t bg_area;
1309:lvgl/demos/widgets/lv_demo_widgets.c ****             bg_area.x1 = txt_area.x1 - LV_DPX(8);
1310:lvgl/demos/widgets/lv_demo_widgets.c ****             bg_area.x2 = txt_area.x2 + LV_DPX(8);
1311:lvgl/demos/widgets/lv_demo_widgets.c ****             bg_area.y1 = txt_area.y1 - LV_DPX(8);
1312:lvgl/demos/widgets/lv_demo_widgets.c ****             bg_area.y2 = txt_area.y2 + LV_DPX(8);
1313:lvgl/demos/widgets/lv_demo_widgets.c **** 
1314:lvgl/demos/widgets/lv_demo_widgets.c ****             lv_draw_rect_dsc_t rect_dsc;
1315:lvgl/demos/widgets/lv_demo_widgets.c ****             lv_draw_rect_dsc_init(&rect_dsc);
1316:lvgl/demos/widgets/lv_demo_widgets.c ****             rect_dsc.bg_color = lv_palette_darken(LV_PALETTE_GREY, 3);
1317:lvgl/demos/widgets/lv_demo_widgets.c ****             rect_dsc.radius = LV_DPX(5);
1318:lvgl/demos/widgets/lv_demo_widgets.c ****             lv_draw_rect(dsc->draw_ctx, &rect_dsc, &bg_area);
1319:lvgl/demos/widgets/lv_demo_widgets.c **** 
1320:lvgl/demos/widgets/lv_demo_widgets.c ****             lv_draw_label_dsc_t label_dsc;
1321:lvgl/demos/widgets/lv_demo_widgets.c ****             lv_draw_label_dsc_init(&label_dsc);
1322:lvgl/demos/widgets/lv_demo_widgets.c ****             label_dsc.color = lv_color_white();
1323:lvgl/demos/widgets/lv_demo_widgets.c ****             label_dsc.font = font_normal;
1324:lvgl/demos/widgets/lv_demo_widgets.c ****             lv_draw_label(dsc->draw_ctx, &label_dsc, &txt_area, buf, NULL);
1325:lvgl/demos/widgets/lv_demo_widgets.c ****         }
1326:lvgl/demos/widgets/lv_demo_widgets.c ****     }
ARM GAS  C:\Users\OSD\AppData\Local\Temp\ccdpxIfP.s 			page 67


1327:lvgl/demos/widgets/lv_demo_widgets.c **** }
1328:lvgl/demos/widgets/lv_demo_widgets.c **** 
1329:lvgl/demos/widgets/lv_demo_widgets.c **** static void chart_event_cb(lv_event_t * e)
1330:lvgl/demos/widgets/lv_demo_widgets.c **** {
1331:lvgl/demos/widgets/lv_demo_widgets.c ****     lv_event_code_t code = lv_event_get_code(e);
1332:lvgl/demos/widgets/lv_demo_widgets.c ****     lv_obj_t * obj = lv_event_get_target(e);
1333:lvgl/demos/widgets/lv_demo_widgets.c **** 
1334:lvgl/demos/widgets/lv_demo_widgets.c ****     if(code == LV_EVENT_PRESSED || code == LV_EVENT_RELEASED) {
1335:lvgl/demos/widgets/lv_demo_widgets.c ****         lv_obj_invalidate(obj); /*To make the value boxes visible*/
1336:lvgl/demos/widgets/lv_demo_widgets.c ****     }
1337:lvgl/demos/widgets/lv_demo_widgets.c ****     else if(code == LV_EVENT_DRAW_PART_BEGIN) {
1338:lvgl/demos/widgets/lv_demo_widgets.c ****         lv_obj_draw_part_dsc_t * dsc = lv_event_get_param(e);
1339:lvgl/demos/widgets/lv_demo_widgets.c ****         /*Set the markers' text*/
1340:lvgl/demos/widgets/lv_demo_widgets.c ****         if(dsc->part == LV_PART_TICKS && dsc->id == LV_CHART_AXIS_PRIMARY_X) {
1341:lvgl/demos/widgets/lv_demo_widgets.c ****             if(lv_chart_get_type(obj) == LV_CHART_TYPE_BAR) {
1342:lvgl/demos/widgets/lv_demo_widgets.c ****                 const char * month[] = {"I", "II", "III", "IV", "V", "VI", "VII", "VIII", "IX", "X"
