ARM GAS  C:\Users\OSD\AppData\Local\Temp\ccMhRpSZ.s 			page 1


   1              		.cpu cortex-m7
   2              		.arch armv7e-m
   3              		.fpu fpv5-d16
   4              		.eabi_attribute 28, 1
   5              		.eabi_attribute 20, 1
   6              		.eabi_attribute 21, 1
   7              		.eabi_attribute 23, 3
   8              		.eabi_attribute 24, 1
   9              		.eabi_attribute 25, 1
  10              		.eabi_attribute 26, 1
  11              		.eabi_attribute 30, 1
  12              		.eabi_attribute 34, 1
  13              		.eabi_attribute 18, 4
  14              		.file	"lv_demo_music_main.c"
  15              		.text
  16              	.Ltext0:
  17              		.cfi_sections	.debug_frame
  18              		.section	.text._img_set_zoom_anim_cb,"ax",%progbits
  19              		.align	1
  20              		.syntax unified
  21              		.thumb
  22              		.thumb_func
  24              	_img_set_zoom_anim_cb:
  25              	.LVL0:
  26              	.LFB204:
  27              		.file 1 "lvgl/demos/music/lv_demo_music_main.c"
   1:lvgl/demos/music/lv_demo_music_main.c **** /**
   2:lvgl/demos/music/lv_demo_music_main.c ****  * @file lv_demo_music_main.c
   3:lvgl/demos/music/lv_demo_music_main.c ****  *
   4:lvgl/demos/music/lv_demo_music_main.c ****  */
   5:lvgl/demos/music/lv_demo_music_main.c **** 
   6:lvgl/demos/music/lv_demo_music_main.c **** /*********************
   7:lvgl/demos/music/lv_demo_music_main.c ****  *      INCLUDES
   8:lvgl/demos/music/lv_demo_music_main.c ****  *********************/
   9:lvgl/demos/music/lv_demo_music_main.c **** #include "lv_demo_music_main.h"
  10:lvgl/demos/music/lv_demo_music_main.c **** #if LV_USE_DEMO_MUSIC
  11:lvgl/demos/music/lv_demo_music_main.c **** 
  12:lvgl/demos/music/lv_demo_music_main.c **** #include "lv_demo_music_list.h"
  13:lvgl/demos/music/lv_demo_music_main.c **** #include "assets/spectrum_1.h"
  14:lvgl/demos/music/lv_demo_music_main.c **** #include "assets/spectrum_2.h"
  15:lvgl/demos/music/lv_demo_music_main.c **** #include "assets/spectrum_3.h"
  16:lvgl/demos/music/lv_demo_music_main.c **** 
  17:lvgl/demos/music/lv_demo_music_main.c **** /*********************
  18:lvgl/demos/music/lv_demo_music_main.c ****  *      DEFINES
  19:lvgl/demos/music/lv_demo_music_main.c ****  *********************/
  20:lvgl/demos/music/lv_demo_music_main.c **** #define ACTIVE_TRACK_CNT    3
  21:lvgl/demos/music/lv_demo_music_main.c **** #define INTRO_TIME          2000
  22:lvgl/demos/music/lv_demo_music_main.c **** #define BAR_COLOR1          lv_color_hex(0xe9dbfc)
  23:lvgl/demos/music/lv_demo_music_main.c **** #define BAR_COLOR2          lv_color_hex(0x6f8af6)
  24:lvgl/demos/music/lv_demo_music_main.c **** #define BAR_COLOR3          lv_color_hex(0xffffff)
  25:lvgl/demos/music/lv_demo_music_main.c **** #if LV_DEMO_MUSIC_LARGE
  26:lvgl/demos/music/lv_demo_music_main.c ****     #define BAR_COLOR1_STOP     160
  27:lvgl/demos/music/lv_demo_music_main.c ****     #define BAR_COLOR2_STOP     200
  28:lvgl/demos/music/lv_demo_music_main.c **** #else
  29:lvgl/demos/music/lv_demo_music_main.c ****     #define BAR_COLOR1_STOP     80
  30:lvgl/demos/music/lv_demo_music_main.c ****     #define BAR_COLOR2_STOP     100
  31:lvgl/demos/music/lv_demo_music_main.c **** #endif
ARM GAS  C:\Users\OSD\AppData\Local\Temp\ccMhRpSZ.s 			page 2


  32:lvgl/demos/music/lv_demo_music_main.c **** #define BAR_COLOR3_STOP     (2 * LV_HOR_RES / 3)
  33:lvgl/demos/music/lv_demo_music_main.c **** #define BAR_CNT             20
  34:lvgl/demos/music/lv_demo_music_main.c **** #define DEG_STEP            (180/BAR_CNT)
  35:lvgl/demos/music/lv_demo_music_main.c **** #define BAND_CNT            4
  36:lvgl/demos/music/lv_demo_music_main.c **** #define BAR_PER_BAND_CNT    (BAR_CNT / BAND_CNT)
  37:lvgl/demos/music/lv_demo_music_main.c **** 
  38:lvgl/demos/music/lv_demo_music_main.c **** /**********************
  39:lvgl/demos/music/lv_demo_music_main.c ****  *      TYPEDEFS
  40:lvgl/demos/music/lv_demo_music_main.c ****  **********************/
  41:lvgl/demos/music/lv_demo_music_main.c **** 
  42:lvgl/demos/music/lv_demo_music_main.c **** /**********************
  43:lvgl/demos/music/lv_demo_music_main.c ****  *  STATIC PROTOTYPES
  44:lvgl/demos/music/lv_demo_music_main.c ****  **********************/
  45:lvgl/demos/music/lv_demo_music_main.c **** static lv_obj_t * create_cont(lv_obj_t * parent);
  46:lvgl/demos/music/lv_demo_music_main.c **** static void create_wave_images(lv_obj_t * parent);
  47:lvgl/demos/music/lv_demo_music_main.c **** static lv_obj_t * create_title_box(lv_obj_t * parent);
  48:lvgl/demos/music/lv_demo_music_main.c **** static lv_obj_t * create_icon_box(lv_obj_t * parent);
  49:lvgl/demos/music/lv_demo_music_main.c **** static lv_obj_t * create_spectrum_obj(lv_obj_t * parent);
  50:lvgl/demos/music/lv_demo_music_main.c **** static lv_obj_t * create_ctrl_box(lv_obj_t * parent);
  51:lvgl/demos/music/lv_demo_music_main.c **** static lv_obj_t * create_handle(lv_obj_t * parent);
  52:lvgl/demos/music/lv_demo_music_main.c **** 
  53:lvgl/demos/music/lv_demo_music_main.c **** static void spectrum_anim_cb(void * a, int32_t v);
  54:lvgl/demos/music/lv_demo_music_main.c **** static void start_anim_cb(void * a, int32_t v);
  55:lvgl/demos/music/lv_demo_music_main.c **** static void spectrum_draw_event_cb(lv_event_t * e);
  56:lvgl/demos/music/lv_demo_music_main.c **** static lv_obj_t * album_img_create(lv_obj_t * parent);
  57:lvgl/demos/music/lv_demo_music_main.c **** static void album_gesture_event_cb(lv_event_t * e);
  58:lvgl/demos/music/lv_demo_music_main.c **** static void play_event_click_cb(lv_event_t * e);
  59:lvgl/demos/music/lv_demo_music_main.c **** static void prev_click_event_cb(lv_event_t * e);
  60:lvgl/demos/music/lv_demo_music_main.c **** static void next_click_event_cb(lv_event_t * e);
  61:lvgl/demos/music/lv_demo_music_main.c **** static void timer_cb(lv_timer_t * t);
  62:lvgl/demos/music/lv_demo_music_main.c **** static void track_load(uint32_t id);
  63:lvgl/demos/music/lv_demo_music_main.c **** static void stop_start_anim_timer_cb(lv_timer_t * t);
  64:lvgl/demos/music/lv_demo_music_main.c **** static void spectrum_end_cb(lv_anim_t * a);
  65:lvgl/demos/music/lv_demo_music_main.c **** static void album_fade_anim_cb(void * var, int32_t v);
  66:lvgl/demos/music/lv_demo_music_main.c **** static int32_t get_cos(int32_t deg, int32_t a);
  67:lvgl/demos/music/lv_demo_music_main.c **** static int32_t get_sin(int32_t deg, int32_t a);
  68:lvgl/demos/music/lv_demo_music_main.c **** 
  69:lvgl/demos/music/lv_demo_music_main.c **** /**********************
  70:lvgl/demos/music/lv_demo_music_main.c ****  *  STATIC VARIABLES
  71:lvgl/demos/music/lv_demo_music_main.c ****  **********************/
  72:lvgl/demos/music/lv_demo_music_main.c **** static lv_obj_t * main_cont;
  73:lvgl/demos/music/lv_demo_music_main.c **** static lv_obj_t * spectrum_obj;
  74:lvgl/demos/music/lv_demo_music_main.c **** static lv_obj_t * title_label;
  75:lvgl/demos/music/lv_demo_music_main.c **** static lv_obj_t * artist_label;
  76:lvgl/demos/music/lv_demo_music_main.c **** static lv_obj_t * genre_label;
  77:lvgl/demos/music/lv_demo_music_main.c **** static lv_obj_t * time_obj;
  78:lvgl/demos/music/lv_demo_music_main.c **** static lv_obj_t * album_img_obj;
  79:lvgl/demos/music/lv_demo_music_main.c **** static lv_obj_t * slider_obj;
  80:lvgl/demos/music/lv_demo_music_main.c **** static uint32_t spectrum_i = 0;
  81:lvgl/demos/music/lv_demo_music_main.c **** static uint32_t spectrum_i_pause = 0;
  82:lvgl/demos/music/lv_demo_music_main.c **** static uint32_t bar_ofs = 0;
  83:lvgl/demos/music/lv_demo_music_main.c **** static uint32_t spectrum_lane_ofs_start = 0;
  84:lvgl/demos/music/lv_demo_music_main.c **** static uint32_t bar_rot = 0;
  85:lvgl/demos/music/lv_demo_music_main.c **** static uint32_t time_act;
  86:lvgl/demos/music/lv_demo_music_main.c **** static lv_timer_t  * sec_counter_timer;
  87:lvgl/demos/music/lv_demo_music_main.c **** static lv_timer_t * stop_start_anim_timer;
  88:lvgl/demos/music/lv_demo_music_main.c **** static const lv_font_t * font_small;
ARM GAS  C:\Users\OSD\AppData\Local\Temp\ccMhRpSZ.s 			page 3


  89:lvgl/demos/music/lv_demo_music_main.c **** static const lv_font_t * font_large;
  90:lvgl/demos/music/lv_demo_music_main.c **** static uint32_t track_id;
  91:lvgl/demos/music/lv_demo_music_main.c **** static bool playing;
  92:lvgl/demos/music/lv_demo_music_main.c **** static bool start_anim;
  93:lvgl/demos/music/lv_demo_music_main.c **** static lv_coord_t start_anim_values[40];
  94:lvgl/demos/music/lv_demo_music_main.c **** static lv_obj_t * play_obj;
  95:lvgl/demos/music/lv_demo_music_main.c **** static const uint16_t (* spectrum)[4];
  96:lvgl/demos/music/lv_demo_music_main.c **** static uint32_t spectrum_len;
  97:lvgl/demos/music/lv_demo_music_main.c **** static const uint16_t rnd_array[30] = {994, 285, 553, 11, 792, 707, 966, 641, 852, 827, 44, 352, 14
  98:lvgl/demos/music/lv_demo_music_main.c **** 
  99:lvgl/demos/music/lv_demo_music_main.c **** /**********************
 100:lvgl/demos/music/lv_demo_music_main.c ****  *      MACROS
 101:lvgl/demos/music/lv_demo_music_main.c ****  **********************/
 102:lvgl/demos/music/lv_demo_music_main.c **** 
 103:lvgl/demos/music/lv_demo_music_main.c **** /**********************
 104:lvgl/demos/music/lv_demo_music_main.c ****  *   GLOBAL FUNCTIONS
 105:lvgl/demos/music/lv_demo_music_main.c ****  **********************/
 106:lvgl/demos/music/lv_demo_music_main.c **** 
 107:lvgl/demos/music/lv_demo_music_main.c **** /*
 108:lvgl/demos/music/lv_demo_music_main.c ****  * Callback adapter function to convert parameter types to avoid compile-time
 109:lvgl/demos/music/lv_demo_music_main.c ****  * warning.
 110:lvgl/demos/music/lv_demo_music_main.c ****  */
 111:lvgl/demos/music/lv_demo_music_main.c **** static void _img_set_zoom_anim_cb(void * obj, int32_t zoom)
 112:lvgl/demos/music/lv_demo_music_main.c **** {
  28              		.loc 1 112 1 view -0
  29              		.cfi_startproc
  30              		@ args = 0, pretend = 0, frame = 0
  31              		@ frame_needed = 0, uses_anonymous_args = 0
  32              		.loc 1 112 1 is_stmt 0 view .LVU1
  33 0000 08B5     		push	{r3, lr}
  34              		.cfi_def_cfa_offset 8
  35              		.cfi_offset 3, -8
  36              		.cfi_offset 14, -4
 113:lvgl/demos/music/lv_demo_music_main.c ****     lv_img_set_zoom((lv_obj_t *)obj, (uint16_t)zoom);
  37              		.loc 1 113 5 is_stmt 1 view .LVU2
  38 0002 89B2     		uxth	r1, r1
  39              	.LVL1:
  40              		.loc 1 113 5 is_stmt 0 view .LVU3
  41 0004 FFF7FEFF 		bl	lv_img_set_zoom
  42              	.LVL2:
 114:lvgl/demos/music/lv_demo_music_main.c **** }
  43              		.loc 1 114 1 view .LVU4
  44 0008 08BD     		pop	{r3, pc}
  45              		.cfi_endproc
  46              	.LFE204:
  48              		.section	.text.start_anim_cb,"ax",%progbits
  49              		.align	1
  50              		.syntax unified
  51              		.thumb
  52              		.thumb_func
  54              	start_anim_cb:
  55              	.LVL3:
  56              	.LFB224:
 115:lvgl/demos/music/lv_demo_music_main.c **** 
 116:lvgl/demos/music/lv_demo_music_main.c **** /*
 117:lvgl/demos/music/lv_demo_music_main.c ****  * Callback adapter function to convert parameter types to avoid compile-time
 118:lvgl/demos/music/lv_demo_music_main.c ****  * warning.
ARM GAS  C:\Users\OSD\AppData\Local\Temp\ccMhRpSZ.s 			page 4


 119:lvgl/demos/music/lv_demo_music_main.c ****  */
 120:lvgl/demos/music/lv_demo_music_main.c **** static void _obj_set_x_anim_cb(void * obj, int32_t x)
 121:lvgl/demos/music/lv_demo_music_main.c **** {
 122:lvgl/demos/music/lv_demo_music_main.c ****     lv_obj_set_x((lv_obj_t *)obj, (lv_coord_t)x);
 123:lvgl/demos/music/lv_demo_music_main.c **** }
 124:lvgl/demos/music/lv_demo_music_main.c **** 
 125:lvgl/demos/music/lv_demo_music_main.c **** lv_obj_t * _lv_demo_music_main_create(lv_obj_t * parent)
 126:lvgl/demos/music/lv_demo_music_main.c **** {
 127:lvgl/demos/music/lv_demo_music_main.c **** #if LV_DEMO_MUSIC_LARGE
 128:lvgl/demos/music/lv_demo_music_main.c ****     font_small = &lv_font_montserrat_22;
 129:lvgl/demos/music/lv_demo_music_main.c ****     font_large = &lv_font_montserrat_32;
 130:lvgl/demos/music/lv_demo_music_main.c **** #else
 131:lvgl/demos/music/lv_demo_music_main.c ****     font_small = &lv_font_montserrat_12;
 132:lvgl/demos/music/lv_demo_music_main.c ****     font_large = &lv_font_montserrat_16;
 133:lvgl/demos/music/lv_demo_music_main.c **** #endif
 134:lvgl/demos/music/lv_demo_music_main.c **** 
 135:lvgl/demos/music/lv_demo_music_main.c ****     /*Create the content of the music player*/
 136:lvgl/demos/music/lv_demo_music_main.c ****     lv_obj_t * cont = create_cont(parent);
 137:lvgl/demos/music/lv_demo_music_main.c ****     create_wave_images(cont);
 138:lvgl/demos/music/lv_demo_music_main.c ****     lv_obj_t * title_box = create_title_box(cont);
 139:lvgl/demos/music/lv_demo_music_main.c ****     lv_obj_t * icon_box = create_icon_box(cont);
 140:lvgl/demos/music/lv_demo_music_main.c ****     lv_obj_t * ctrl_box = create_ctrl_box(cont);
 141:lvgl/demos/music/lv_demo_music_main.c ****     spectrum_obj = create_spectrum_obj(cont);
 142:lvgl/demos/music/lv_demo_music_main.c ****     lv_obj_t * handle_box = create_handle(cont);
 143:lvgl/demos/music/lv_demo_music_main.c **** 
 144:lvgl/demos/music/lv_demo_music_main.c **** #if LV_DEMO_MUSIC_ROUND
 145:lvgl/demos/music/lv_demo_music_main.c ****     lv_obj_set_style_pad_hor(cont, LV_HOR_RES / 6, 0);
 146:lvgl/demos/music/lv_demo_music_main.c **** #endif
 147:lvgl/demos/music/lv_demo_music_main.c **** 
 148:lvgl/demos/music/lv_demo_music_main.c ****     /*Arrange the content into a grid*/
 149:lvgl/demos/music/lv_demo_music_main.c **** #if LV_DEMO_MUSIC_SQUARE || LV_DEMO_MUSIC_ROUND
 150:lvgl/demos/music/lv_demo_music_main.c ****     static const lv_coord_t grid_cols[] = {LV_GRID_FR(1), LV_GRID_TEMPLATE_LAST};
 151:lvgl/demos/music/lv_demo_music_main.c ****     static lv_coord_t grid_rows[] = {LV_DEMO_MUSIC_HANDLE_SIZE,     /*Spacing*/
 152:lvgl/demos/music/lv_demo_music_main.c ****                                      0,   /*Spectrum obj, set later*/
 153:lvgl/demos/music/lv_demo_music_main.c ****                                      LV_GRID_CONTENT, /*Title box*/
 154:lvgl/demos/music/lv_demo_music_main.c ****                                      LV_GRID_FR(3),   /*Spacer*/
 155:lvgl/demos/music/lv_demo_music_main.c ****                                      LV_GRID_CONTENT, /*Icon box*/
 156:lvgl/demos/music/lv_demo_music_main.c ****                                      LV_GRID_FR(3),   /*Spacer*/
 157:lvgl/demos/music/lv_demo_music_main.c ****                                      LV_GRID_CONTENT, /*Control box*/
 158:lvgl/demos/music/lv_demo_music_main.c ****                                      LV_GRID_FR(3),   /*Spacer*/
 159:lvgl/demos/music/lv_demo_music_main.c ****                                      LV_GRID_CONTENT, /*Handle box*/
 160:lvgl/demos/music/lv_demo_music_main.c ****                                      LV_DEMO_MUSIC_HANDLE_SIZE,     /*Spacing*/
 161:lvgl/demos/music/lv_demo_music_main.c ****                                      LV_GRID_TEMPLATE_LAST
 162:lvgl/demos/music/lv_demo_music_main.c ****                                     };
 163:lvgl/demos/music/lv_demo_music_main.c **** 
 164:lvgl/demos/music/lv_demo_music_main.c ****     grid_rows[1] = LV_VER_RES;
 165:lvgl/demos/music/lv_demo_music_main.c **** 
 166:lvgl/demos/music/lv_demo_music_main.c ****     lv_obj_set_grid_dsc_array(cont, grid_cols, grid_rows);
 167:lvgl/demos/music/lv_demo_music_main.c ****     lv_obj_set_style_grid_row_align(cont, LV_GRID_ALIGN_SPACE_BETWEEN, 0);
 168:lvgl/demos/music/lv_demo_music_main.c ****     lv_obj_set_grid_cell(spectrum_obj, LV_GRID_ALIGN_STRETCH, 0, 1, LV_GRID_ALIGN_CENTER, 1, 1);
 169:lvgl/demos/music/lv_demo_music_main.c ****     lv_obj_set_grid_cell(title_box, LV_GRID_ALIGN_STRETCH, 0, 1, LV_ALIGN_CENTER, 2, 1);
 170:lvgl/demos/music/lv_demo_music_main.c ****     lv_obj_set_grid_cell(icon_box, LV_GRID_ALIGN_STRETCH, 0, 1, LV_ALIGN_CENTER, 4, 1);
 171:lvgl/demos/music/lv_demo_music_main.c ****     lv_obj_set_grid_cell(ctrl_box, LV_GRID_ALIGN_STRETCH, 0, 1, LV_ALIGN_CENTER, 6, 1);
 172:lvgl/demos/music/lv_demo_music_main.c ****     lv_obj_set_grid_cell(handle_box, LV_GRID_ALIGN_STRETCH, 0, 1, LV_ALIGN_CENTER, 8, 1);
 173:lvgl/demos/music/lv_demo_music_main.c **** #elif LV_DEMO_MUSIC_LANDSCAPE == 0
 174:lvgl/demos/music/lv_demo_music_main.c ****     static const lv_coord_t grid_cols[] = {LV_GRID_FR(1), LV_GRID_TEMPLATE_LAST};
 175:lvgl/demos/music/lv_demo_music_main.c ****     static const lv_coord_t grid_rows[] = {LV_DEMO_MUSIC_HANDLE_SIZE,     /*Spacing*/
ARM GAS  C:\Users\OSD\AppData\Local\Temp\ccMhRpSZ.s 			page 5


 176:lvgl/demos/music/lv_demo_music_main.c ****                                            LV_GRID_FR(1),   /*Spacer*/
 177:lvgl/demos/music/lv_demo_music_main.c ****                                            LV_GRID_CONTENT, /*Title box*/
 178:lvgl/demos/music/lv_demo_music_main.c ****                                            LV_GRID_FR(3),   /*Spacer*/
 179:lvgl/demos/music/lv_demo_music_main.c ****                                            LV_GRID_CONTENT, /*Icon box*/
 180:lvgl/demos/music/lv_demo_music_main.c ****                                            LV_GRID_FR(3),   /*Spacer*/
 181:lvgl/demos/music/lv_demo_music_main.c **** # if LV_DEMO_MUSIC_LARGE == 0
 182:lvgl/demos/music/lv_demo_music_main.c ****                                            250,    /*Spectrum obj*/
 183:lvgl/demos/music/lv_demo_music_main.c **** # else
 184:lvgl/demos/music/lv_demo_music_main.c ****                                            480,   /*Spectrum obj*/
 185:lvgl/demos/music/lv_demo_music_main.c **** # endif
 186:lvgl/demos/music/lv_demo_music_main.c ****                                            LV_GRID_FR(3),   /*Spacer*/
 187:lvgl/demos/music/lv_demo_music_main.c ****                                            LV_GRID_CONTENT, /*Control box*/
 188:lvgl/demos/music/lv_demo_music_main.c ****                                            LV_GRID_FR(3),   /*Spacer*/
 189:lvgl/demos/music/lv_demo_music_main.c ****                                            LV_GRID_CONTENT, /*Handle box*/
 190:lvgl/demos/music/lv_demo_music_main.c ****                                            LV_GRID_FR(1),   /*Spacer*/
 191:lvgl/demos/music/lv_demo_music_main.c ****                                            LV_DEMO_MUSIC_HANDLE_SIZE,     /*Spacing*/
 192:lvgl/demos/music/lv_demo_music_main.c ****                                            LV_GRID_TEMPLATE_LAST
 193:lvgl/demos/music/lv_demo_music_main.c ****                                           };
 194:lvgl/demos/music/lv_demo_music_main.c **** 
 195:lvgl/demos/music/lv_demo_music_main.c ****     lv_obj_set_grid_dsc_array(cont, grid_cols, grid_rows);
 196:lvgl/demos/music/lv_demo_music_main.c ****     lv_obj_set_style_grid_row_align(cont, LV_GRID_ALIGN_SPACE_BETWEEN, 0);
 197:lvgl/demos/music/lv_demo_music_main.c ****     lv_obj_set_grid_cell(title_box, LV_GRID_ALIGN_STRETCH, 0, 1, LV_GRID_ALIGN_CENTER, 2, 1);
 198:lvgl/demos/music/lv_demo_music_main.c ****     lv_obj_set_grid_cell(icon_box, LV_GRID_ALIGN_STRETCH, 0, 1, LV_GRID_ALIGN_CENTER, 4, 1);
 199:lvgl/demos/music/lv_demo_music_main.c ****     lv_obj_set_grid_cell(spectrum_obj, LV_GRID_ALIGN_STRETCH, 0, 1, LV_GRID_ALIGN_CENTER, 6, 1);
 200:lvgl/demos/music/lv_demo_music_main.c ****     lv_obj_set_grid_cell(ctrl_box, LV_GRID_ALIGN_STRETCH, 0, 1, LV_GRID_ALIGN_CENTER, 8, 1);
 201:lvgl/demos/music/lv_demo_music_main.c ****     lv_obj_set_grid_cell(handle_box, LV_GRID_ALIGN_STRETCH, 0, 1, LV_GRID_ALIGN_CENTER, 10, 1);
 202:lvgl/demos/music/lv_demo_music_main.c **** #else
 203:lvgl/demos/music/lv_demo_music_main.c ****     /*Arrange the content into a grid*/
 204:lvgl/demos/music/lv_demo_music_main.c ****     static const lv_coord_t grid_cols[] = {LV_GRID_FR(1), LV_GRID_FR(1), LV_GRID_TEMPLATE_LAST};
 205:lvgl/demos/music/lv_demo_music_main.c ****     static const lv_coord_t grid_rows[] = {LV_DEMO_MUSIC_HANDLE_SIZE,     /*Spacing*/
 206:lvgl/demos/music/lv_demo_music_main.c ****                                            LV_GRID_FR(1),   /*Spacer*/
 207:lvgl/demos/music/lv_demo_music_main.c ****                                            LV_GRID_CONTENT, /*Title box*/
 208:lvgl/demos/music/lv_demo_music_main.c ****                                            LV_GRID_FR(1),   /*Spacer*/
 209:lvgl/demos/music/lv_demo_music_main.c ****                                            LV_GRID_CONTENT, /*Icon box*/
 210:lvgl/demos/music/lv_demo_music_main.c ****                                            LV_GRID_FR(3),   /*Spacer*/
 211:lvgl/demos/music/lv_demo_music_main.c ****                                            LV_GRID_CONTENT, /*Control box*/
 212:lvgl/demos/music/lv_demo_music_main.c ****                                            LV_GRID_FR(1),   /*Spacer*/
 213:lvgl/demos/music/lv_demo_music_main.c ****                                            LV_GRID_CONTENT, /*Handle box*/
 214:lvgl/demos/music/lv_demo_music_main.c ****                                            LV_GRID_FR(1),   /*Spacer*/
 215:lvgl/demos/music/lv_demo_music_main.c ****                                            LV_DEMO_MUSIC_HANDLE_SIZE,     /*Spacing*/
 216:lvgl/demos/music/lv_demo_music_main.c ****                                            LV_GRID_TEMPLATE_LAST
 217:lvgl/demos/music/lv_demo_music_main.c ****                                           };
 218:lvgl/demos/music/lv_demo_music_main.c **** 
 219:lvgl/demos/music/lv_demo_music_main.c ****     lv_obj_set_grid_dsc_array(cont, grid_cols, grid_rows);
 220:lvgl/demos/music/lv_demo_music_main.c ****     lv_obj_set_style_grid_row_align(cont, LV_GRID_ALIGN_SPACE_BETWEEN, 0);
 221:lvgl/demos/music/lv_demo_music_main.c ****     lv_obj_set_grid_cell(title_box, LV_GRID_ALIGN_STRETCH, 0, 1, LV_GRID_ALIGN_CENTER, 2, 1);
 222:lvgl/demos/music/lv_demo_music_main.c ****     lv_obj_set_grid_cell(icon_box, LV_GRID_ALIGN_STRETCH, 0, 1, LV_GRID_ALIGN_CENTER, 4, 1);
 223:lvgl/demos/music/lv_demo_music_main.c ****     lv_obj_set_grid_cell(ctrl_box, LV_GRID_ALIGN_STRETCH, 0, 1, LV_GRID_ALIGN_CENTER, 6, 1);
 224:lvgl/demos/music/lv_demo_music_main.c ****     lv_obj_set_grid_cell(handle_box, LV_GRID_ALIGN_STRETCH, 0, 2, LV_GRID_ALIGN_CENTER, 8, 1);
 225:lvgl/demos/music/lv_demo_music_main.c ****     lv_obj_set_grid_cell(spectrum_obj, LV_GRID_ALIGN_STRETCH, 1, 1, LV_GRID_ALIGN_CENTER, 1, 9);
 226:lvgl/demos/music/lv_demo_music_main.c **** #endif
 227:lvgl/demos/music/lv_demo_music_main.c **** 
 228:lvgl/demos/music/lv_demo_music_main.c ****     sec_counter_timer = lv_timer_create(timer_cb, 1000, NULL);
 229:lvgl/demos/music/lv_demo_music_main.c ****     lv_timer_pause(sec_counter_timer);
 230:lvgl/demos/music/lv_demo_music_main.c **** 
 231:lvgl/demos/music/lv_demo_music_main.c ****     /*Animate in the content after the intro time*/
 232:lvgl/demos/music/lv_demo_music_main.c ****     lv_anim_t a;
ARM GAS  C:\Users\OSD\AppData\Local\Temp\ccMhRpSZ.s 			page 6


 233:lvgl/demos/music/lv_demo_music_main.c **** 
 234:lvgl/demos/music/lv_demo_music_main.c ****     start_anim = true;
 235:lvgl/demos/music/lv_demo_music_main.c **** 
 236:lvgl/demos/music/lv_demo_music_main.c ****     stop_start_anim_timer = lv_timer_create(stop_start_anim_timer_cb, INTRO_TIME + 6000, NULL);
 237:lvgl/demos/music/lv_demo_music_main.c ****     lv_timer_set_repeat_count(stop_start_anim_timer, 1);
 238:lvgl/demos/music/lv_demo_music_main.c **** 
 239:lvgl/demos/music/lv_demo_music_main.c ****     lv_anim_init(&a);
 240:lvgl/demos/music/lv_demo_music_main.c ****     lv_anim_set_path_cb(&a, lv_anim_path_bounce);
 241:lvgl/demos/music/lv_demo_music_main.c **** 
 242:lvgl/demos/music/lv_demo_music_main.c ****     uint32_t i;
 243:lvgl/demos/music/lv_demo_music_main.c ****     lv_anim_set_exec_cb(&a, start_anim_cb);
 244:lvgl/demos/music/lv_demo_music_main.c ****     for(i = 0; i < BAR_CNT; i++) {
 245:lvgl/demos/music/lv_demo_music_main.c ****         lv_anim_set_values(&a, LV_HOR_RES, 5);
 246:lvgl/demos/music/lv_demo_music_main.c ****         lv_anim_set_delay(&a, INTRO_TIME - 200 + rnd_array[i] % 200);
 247:lvgl/demos/music/lv_demo_music_main.c ****         lv_anim_set_time(&a, 2500 + rnd_array[i] % 500);
 248:lvgl/demos/music/lv_demo_music_main.c ****         lv_anim_set_var(&a, &start_anim_values[i]);
 249:lvgl/demos/music/lv_demo_music_main.c ****         lv_anim_start(&a);
 250:lvgl/demos/music/lv_demo_music_main.c ****     }
 251:lvgl/demos/music/lv_demo_music_main.c **** 
 252:lvgl/demos/music/lv_demo_music_main.c ****     lv_obj_fade_in(title_box, 1000, INTRO_TIME + 1000);
 253:lvgl/demos/music/lv_demo_music_main.c ****     lv_obj_fade_in(icon_box, 1000, INTRO_TIME + 1000);
 254:lvgl/demos/music/lv_demo_music_main.c ****     lv_obj_fade_in(ctrl_box, 1000, INTRO_TIME + 1000);
 255:lvgl/demos/music/lv_demo_music_main.c ****     lv_obj_fade_in(handle_box, 1000, INTRO_TIME + 1000);
 256:lvgl/demos/music/lv_demo_music_main.c ****     lv_obj_fade_in(album_img_obj, 800, INTRO_TIME + 1000);
 257:lvgl/demos/music/lv_demo_music_main.c ****     lv_obj_fade_in(spectrum_obj, 0, INTRO_TIME);
 258:lvgl/demos/music/lv_demo_music_main.c **** 
 259:lvgl/demos/music/lv_demo_music_main.c ****     lv_anim_set_path_cb(&a, lv_anim_path_ease_out);
 260:lvgl/demos/music/lv_demo_music_main.c ****     lv_anim_set_var(&a, album_img_obj);
 261:lvgl/demos/music/lv_demo_music_main.c ****     lv_anim_set_time(&a, 1000);
 262:lvgl/demos/music/lv_demo_music_main.c ****     lv_anim_set_delay(&a, INTRO_TIME + 1000);
 263:lvgl/demos/music/lv_demo_music_main.c ****     lv_anim_set_values(&a, 1, LV_IMG_ZOOM_NONE);
 264:lvgl/demos/music/lv_demo_music_main.c ****     lv_anim_set_exec_cb(&a, _img_set_zoom_anim_cb);
 265:lvgl/demos/music/lv_demo_music_main.c ****     lv_anim_set_ready_cb(&a, NULL);
 266:lvgl/demos/music/lv_demo_music_main.c ****     lv_anim_start(&a);
 267:lvgl/demos/music/lv_demo_music_main.c **** 
 268:lvgl/demos/music/lv_demo_music_main.c ****     /* Create an intro from a logo + label */
 269:lvgl/demos/music/lv_demo_music_main.c ****     LV_IMG_DECLARE(img_lv_demo_music_logo);
 270:lvgl/demos/music/lv_demo_music_main.c ****     lv_obj_t * logo = lv_img_create(lv_scr_act());
 271:lvgl/demos/music/lv_demo_music_main.c ****     lv_img_set_src(logo, &img_lv_demo_music_logo);
 272:lvgl/demos/music/lv_demo_music_main.c ****     lv_obj_move_foreground(logo);
 273:lvgl/demos/music/lv_demo_music_main.c **** 
 274:lvgl/demos/music/lv_demo_music_main.c ****     lv_obj_t * title = lv_label_create(lv_scr_act());
 275:lvgl/demos/music/lv_demo_music_main.c ****     lv_label_set_text(title, "LVGL Demo\nMusic player");
 276:lvgl/demos/music/lv_demo_music_main.c ****     lv_obj_set_style_text_align(title, LV_TEXT_ALIGN_CENTER, 0);
 277:lvgl/demos/music/lv_demo_music_main.c ****     lv_obj_set_style_text_font(title, font_large, 0);
 278:lvgl/demos/music/lv_demo_music_main.c ****     lv_obj_set_style_text_line_space(title, 8, 0);
 279:lvgl/demos/music/lv_demo_music_main.c ****     lv_obj_fade_out(title, 500, INTRO_TIME);
 280:lvgl/demos/music/lv_demo_music_main.c ****     lv_obj_align_to(logo, spectrum_obj, LV_ALIGN_CENTER, 0, 0);
 281:lvgl/demos/music/lv_demo_music_main.c ****     lv_obj_align_to(title, logo, LV_ALIGN_OUT_LEFT_MID, -20, 0);
 282:lvgl/demos/music/lv_demo_music_main.c **** 
 283:lvgl/demos/music/lv_demo_music_main.c ****     lv_anim_set_path_cb(&a, lv_anim_path_ease_in);
 284:lvgl/demos/music/lv_demo_music_main.c ****     lv_anim_set_var(&a, logo);
 285:lvgl/demos/music/lv_demo_music_main.c ****     lv_anim_set_time(&a, 400);
 286:lvgl/demos/music/lv_demo_music_main.c ****     lv_anim_set_delay(&a, INTRO_TIME + 800);
 287:lvgl/demos/music/lv_demo_music_main.c ****     lv_anim_set_values(&a, LV_IMG_ZOOM_NONE, 10);
 288:lvgl/demos/music/lv_demo_music_main.c ****     lv_anim_set_ready_cb(&a, lv_obj_del_anim_ready_cb);
 289:lvgl/demos/music/lv_demo_music_main.c ****     lv_anim_start(&a);
ARM GAS  C:\Users\OSD\AppData\Local\Temp\ccMhRpSZ.s 			page 7


 290:lvgl/demos/music/lv_demo_music_main.c **** 
 291:lvgl/demos/music/lv_demo_music_main.c ****     lv_obj_update_layout(main_cont);
 292:lvgl/demos/music/lv_demo_music_main.c **** 
 293:lvgl/demos/music/lv_demo_music_main.c ****     return main_cont;
 294:lvgl/demos/music/lv_demo_music_main.c **** }
 295:lvgl/demos/music/lv_demo_music_main.c **** 
 296:lvgl/demos/music/lv_demo_music_main.c **** void _lv_demo_music_main_close(void)
 297:lvgl/demos/music/lv_demo_music_main.c **** {
 298:lvgl/demos/music/lv_demo_music_main.c ****     if(stop_start_anim_timer) lv_timer_del(stop_start_anim_timer);
 299:lvgl/demos/music/lv_demo_music_main.c ****     lv_timer_del(sec_counter_timer);
 300:lvgl/demos/music/lv_demo_music_main.c **** }
 301:lvgl/demos/music/lv_demo_music_main.c **** 
 302:lvgl/demos/music/lv_demo_music_main.c **** void _lv_demo_music_album_next(bool next)
 303:lvgl/demos/music/lv_demo_music_main.c **** {
 304:lvgl/demos/music/lv_demo_music_main.c ****     uint32_t id = track_id;
 305:lvgl/demos/music/lv_demo_music_main.c ****     if(next) {
 306:lvgl/demos/music/lv_demo_music_main.c ****         id++;
 307:lvgl/demos/music/lv_demo_music_main.c ****         if(id >= ACTIVE_TRACK_CNT) id = 0;
 308:lvgl/demos/music/lv_demo_music_main.c ****     }
 309:lvgl/demos/music/lv_demo_music_main.c ****     else {
 310:lvgl/demos/music/lv_demo_music_main.c ****         if(id == 0) {
 311:lvgl/demos/music/lv_demo_music_main.c ****             id = ACTIVE_TRACK_CNT - 1;
 312:lvgl/demos/music/lv_demo_music_main.c ****         }
 313:lvgl/demos/music/lv_demo_music_main.c ****         else {
 314:lvgl/demos/music/lv_demo_music_main.c ****             id--;
 315:lvgl/demos/music/lv_demo_music_main.c ****         }
 316:lvgl/demos/music/lv_demo_music_main.c ****     }
 317:lvgl/demos/music/lv_demo_music_main.c **** 
 318:lvgl/demos/music/lv_demo_music_main.c ****     if(playing) {
 319:lvgl/demos/music/lv_demo_music_main.c ****         _lv_demo_music_play(id);
 320:lvgl/demos/music/lv_demo_music_main.c ****     }
 321:lvgl/demos/music/lv_demo_music_main.c ****     else {
 322:lvgl/demos/music/lv_demo_music_main.c ****         track_load(id);
 323:lvgl/demos/music/lv_demo_music_main.c ****     }
 324:lvgl/demos/music/lv_demo_music_main.c **** }
 325:lvgl/demos/music/lv_demo_music_main.c **** 
 326:lvgl/demos/music/lv_demo_music_main.c **** void _lv_demo_music_play(uint32_t id)
 327:lvgl/demos/music/lv_demo_music_main.c **** {
 328:lvgl/demos/music/lv_demo_music_main.c ****     track_load(id);
 329:lvgl/demos/music/lv_demo_music_main.c **** 
 330:lvgl/demos/music/lv_demo_music_main.c ****     _lv_demo_music_resume();
 331:lvgl/demos/music/lv_demo_music_main.c **** }
 332:lvgl/demos/music/lv_demo_music_main.c **** 
 333:lvgl/demos/music/lv_demo_music_main.c **** void _lv_demo_music_resume(void)
 334:lvgl/demos/music/lv_demo_music_main.c **** {
 335:lvgl/demos/music/lv_demo_music_main.c ****     playing = true;
 336:lvgl/demos/music/lv_demo_music_main.c ****     spectrum_i = spectrum_i_pause;
 337:lvgl/demos/music/lv_demo_music_main.c ****     lv_anim_t a;
 338:lvgl/demos/music/lv_demo_music_main.c ****     lv_anim_init(&a);
 339:lvgl/demos/music/lv_demo_music_main.c ****     lv_anim_set_values(&a, spectrum_i, spectrum_len - 1);
 340:lvgl/demos/music/lv_demo_music_main.c ****     lv_anim_set_exec_cb(&a, spectrum_anim_cb);
 341:lvgl/demos/music/lv_demo_music_main.c ****     lv_anim_set_var(&a, spectrum_obj);
 342:lvgl/demos/music/lv_demo_music_main.c ****     lv_anim_set_time(&a, ((spectrum_len - spectrum_i) * 1000) / 30);
 343:lvgl/demos/music/lv_demo_music_main.c ****     lv_anim_set_playback_time(&a, 0);
 344:lvgl/demos/music/lv_demo_music_main.c ****     lv_anim_set_ready_cb(&a, spectrum_end_cb);
 345:lvgl/demos/music/lv_demo_music_main.c ****     lv_anim_start(&a);
 346:lvgl/demos/music/lv_demo_music_main.c **** 
ARM GAS  C:\Users\OSD\AppData\Local\Temp\ccMhRpSZ.s 			page 8


 347:lvgl/demos/music/lv_demo_music_main.c ****     lv_timer_resume(sec_counter_timer);
 348:lvgl/demos/music/lv_demo_music_main.c ****     lv_slider_set_range(slider_obj, 0, _lv_demo_music_get_track_length(track_id));
 349:lvgl/demos/music/lv_demo_music_main.c **** 
 350:lvgl/demos/music/lv_demo_music_main.c ****     lv_obj_add_state(play_obj, LV_STATE_CHECKED);
 351:lvgl/demos/music/lv_demo_music_main.c **** 
 352:lvgl/demos/music/lv_demo_music_main.c **** }
 353:lvgl/demos/music/lv_demo_music_main.c **** 
 354:lvgl/demos/music/lv_demo_music_main.c **** void _lv_demo_music_pause(void)
 355:lvgl/demos/music/lv_demo_music_main.c **** {
 356:lvgl/demos/music/lv_demo_music_main.c ****     playing = false;
 357:lvgl/demos/music/lv_demo_music_main.c ****     spectrum_i_pause = spectrum_i;
 358:lvgl/demos/music/lv_demo_music_main.c ****     spectrum_i = 0;
 359:lvgl/demos/music/lv_demo_music_main.c ****     lv_anim_del(spectrum_obj, spectrum_anim_cb);
 360:lvgl/demos/music/lv_demo_music_main.c ****     lv_obj_invalidate(spectrum_obj);
 361:lvgl/demos/music/lv_demo_music_main.c ****     lv_img_set_zoom(album_img_obj, LV_IMG_ZOOM_NONE);
 362:lvgl/demos/music/lv_demo_music_main.c ****     lv_timer_pause(sec_counter_timer);
 363:lvgl/demos/music/lv_demo_music_main.c ****     lv_obj_clear_state(play_obj, LV_STATE_CHECKED);
 364:lvgl/demos/music/lv_demo_music_main.c **** }
 365:lvgl/demos/music/lv_demo_music_main.c **** 
 366:lvgl/demos/music/lv_demo_music_main.c **** /**********************
 367:lvgl/demos/music/lv_demo_music_main.c ****  *   STATIC FUNCTIONS
 368:lvgl/demos/music/lv_demo_music_main.c ****  **********************/
 369:lvgl/demos/music/lv_demo_music_main.c **** 
 370:lvgl/demos/music/lv_demo_music_main.c **** static lv_obj_t * create_cont(lv_obj_t * parent)
 371:lvgl/demos/music/lv_demo_music_main.c **** {
 372:lvgl/demos/music/lv_demo_music_main.c ****     /*A transparent container in which the player section will be scrolled*/
 373:lvgl/demos/music/lv_demo_music_main.c ****     main_cont = lv_obj_create(parent);
 374:lvgl/demos/music/lv_demo_music_main.c ****     lv_obj_clear_flag(main_cont, LV_OBJ_FLAG_CLICKABLE);
 375:lvgl/demos/music/lv_demo_music_main.c ****     lv_obj_clear_flag(main_cont, LV_OBJ_FLAG_SCROLL_ELASTIC);
 376:lvgl/demos/music/lv_demo_music_main.c ****     lv_obj_remove_style_all(main_cont);                            /*Make it transparent*/
 377:lvgl/demos/music/lv_demo_music_main.c ****     lv_obj_set_size(main_cont, lv_pct(100), lv_pct(100));
 378:lvgl/demos/music/lv_demo_music_main.c ****     lv_obj_set_scroll_snap_y(main_cont, LV_SCROLL_SNAP_CENTER);    /*Snap the children to the cente
 379:lvgl/demos/music/lv_demo_music_main.c **** 
 380:lvgl/demos/music/lv_demo_music_main.c ****     /*Create a container for the player*/
 381:lvgl/demos/music/lv_demo_music_main.c ****     lv_obj_t * player = lv_obj_create(main_cont);
 382:lvgl/demos/music/lv_demo_music_main.c ****     lv_obj_set_y(player, - LV_DEMO_MUSIC_HANDLE_SIZE);
 383:lvgl/demos/music/lv_demo_music_main.c **** #if LV_DEMO_MUSIC_SQUARE || LV_DEMO_MUSIC_ROUND
 384:lvgl/demos/music/lv_demo_music_main.c ****     lv_obj_set_size(player, LV_HOR_RES, 2 * LV_VER_RES + LV_DEMO_MUSIC_HANDLE_SIZE * 2);
 385:lvgl/demos/music/lv_demo_music_main.c **** #else
 386:lvgl/demos/music/lv_demo_music_main.c ****     lv_obj_set_size(player, LV_HOR_RES, LV_VER_RES + LV_DEMO_MUSIC_HANDLE_SIZE * 2);
 387:lvgl/demos/music/lv_demo_music_main.c **** #endif
 388:lvgl/demos/music/lv_demo_music_main.c ****     lv_obj_clear_flag(player, LV_OBJ_FLAG_SNAPABLE);
 389:lvgl/demos/music/lv_demo_music_main.c **** 
 390:lvgl/demos/music/lv_demo_music_main.c ****     lv_obj_set_style_bg_color(player, lv_color_hex(0xffffff), 0);
 391:lvgl/demos/music/lv_demo_music_main.c ****     lv_obj_set_style_border_width(player, 0, 0);
 392:lvgl/demos/music/lv_demo_music_main.c ****     lv_obj_set_style_pad_all(player, 0, 0);
 393:lvgl/demos/music/lv_demo_music_main.c ****     lv_obj_set_scroll_dir(player, LV_DIR_VER);
 394:lvgl/demos/music/lv_demo_music_main.c **** 
 395:lvgl/demos/music/lv_demo_music_main.c ****     /* Transparent placeholders below the player container
 396:lvgl/demos/music/lv_demo_music_main.c ****      * It is used only to snap it to center.*/
 397:lvgl/demos/music/lv_demo_music_main.c ****     lv_obj_t * placeholder1 = lv_obj_create(main_cont);
 398:lvgl/demos/music/lv_demo_music_main.c ****     lv_obj_remove_style_all(placeholder1);
 399:lvgl/demos/music/lv_demo_music_main.c ****     lv_obj_clear_flag(placeholder1, LV_OBJ_FLAG_CLICKABLE);
 400:lvgl/demos/music/lv_demo_music_main.c ****     //    lv_obj_set_style_bg_color(placeholder1, lv_color_hex(0xff0000), 0);
 401:lvgl/demos/music/lv_demo_music_main.c ****     //    lv_obj_set_style_bg_opa(placeholder1, LV_OPA_50, 0);
 402:lvgl/demos/music/lv_demo_music_main.c **** 
 403:lvgl/demos/music/lv_demo_music_main.c ****     lv_obj_t * placeholder2 = lv_obj_create(main_cont);
ARM GAS  C:\Users\OSD\AppData\Local\Temp\ccMhRpSZ.s 			page 9


 404:lvgl/demos/music/lv_demo_music_main.c ****     lv_obj_remove_style_all(placeholder2);
 405:lvgl/demos/music/lv_demo_music_main.c ****     lv_obj_clear_flag(placeholder2, LV_OBJ_FLAG_CLICKABLE);
 406:lvgl/demos/music/lv_demo_music_main.c ****     //    lv_obj_set_style_bg_color(placeholder2, lv_color_hex(0x00ff00), 0);
 407:lvgl/demos/music/lv_demo_music_main.c ****     //    lv_obj_set_style_bg_opa(placeholder2, LV_OPA_50, 0);
 408:lvgl/demos/music/lv_demo_music_main.c **** 
 409:lvgl/demos/music/lv_demo_music_main.c **** #if LV_DEMO_MUSIC_SQUARE || LV_DEMO_MUSIC_ROUND
 410:lvgl/demos/music/lv_demo_music_main.c ****     lv_obj_t * placeholder3 = lv_obj_create(main_cont);
 411:lvgl/demos/music/lv_demo_music_main.c ****     lv_obj_remove_style_all(placeholder3);
 412:lvgl/demos/music/lv_demo_music_main.c ****     lv_obj_clear_flag(placeholder3, LV_OBJ_FLAG_CLICKABLE);
 413:lvgl/demos/music/lv_demo_music_main.c ****     //    lv_obj_set_style_bg_color(placeholder3, lv_color_hex(0x0000ff), 0);
 414:lvgl/demos/music/lv_demo_music_main.c ****     //    lv_obj_set_style_bg_opa(placeholder3, LV_OPA_20, 0);
 415:lvgl/demos/music/lv_demo_music_main.c **** 
 416:lvgl/demos/music/lv_demo_music_main.c ****     lv_obj_set_size(placeholder1, lv_pct(100), LV_VER_RES);
 417:lvgl/demos/music/lv_demo_music_main.c ****     lv_obj_set_y(placeholder1, 0);
 418:lvgl/demos/music/lv_demo_music_main.c **** 
 419:lvgl/demos/music/lv_demo_music_main.c ****     lv_obj_set_size(placeholder2, lv_pct(100), LV_VER_RES);
 420:lvgl/demos/music/lv_demo_music_main.c ****     lv_obj_set_y(placeholder2, LV_VER_RES);
 421:lvgl/demos/music/lv_demo_music_main.c **** 
 422:lvgl/demos/music/lv_demo_music_main.c ****     lv_obj_set_size(placeholder3, lv_pct(100),  LV_VER_RES - 2 * LV_DEMO_MUSIC_HANDLE_SIZE);
 423:lvgl/demos/music/lv_demo_music_main.c ****     lv_obj_set_y(placeholder3, 2 * LV_VER_RES + LV_DEMO_MUSIC_HANDLE_SIZE);
 424:lvgl/demos/music/lv_demo_music_main.c **** #else
 425:lvgl/demos/music/lv_demo_music_main.c ****     lv_obj_set_size(placeholder1, lv_pct(100), LV_VER_RES);
 426:lvgl/demos/music/lv_demo_music_main.c ****     lv_obj_set_y(placeholder1, 0);
 427:lvgl/demos/music/lv_demo_music_main.c **** 
 428:lvgl/demos/music/lv_demo_music_main.c ****     lv_obj_set_size(placeholder2, lv_pct(100),  LV_VER_RES - 2 * LV_DEMO_MUSIC_HANDLE_SIZE);
 429:lvgl/demos/music/lv_demo_music_main.c ****     lv_obj_set_y(placeholder2, LV_VER_RES + LV_DEMO_MUSIC_HANDLE_SIZE);
 430:lvgl/demos/music/lv_demo_music_main.c **** #endif
 431:lvgl/demos/music/lv_demo_music_main.c **** 
 432:lvgl/demos/music/lv_demo_music_main.c ****     lv_obj_update_layout(main_cont);
 433:lvgl/demos/music/lv_demo_music_main.c **** 
 434:lvgl/demos/music/lv_demo_music_main.c ****     return player;
 435:lvgl/demos/music/lv_demo_music_main.c **** }
 436:lvgl/demos/music/lv_demo_music_main.c **** 
 437:lvgl/demos/music/lv_demo_music_main.c **** static void create_wave_images(lv_obj_t * parent)
 438:lvgl/demos/music/lv_demo_music_main.c **** {
 439:lvgl/demos/music/lv_demo_music_main.c ****     LV_IMG_DECLARE(img_lv_demo_music_wave_top);
 440:lvgl/demos/music/lv_demo_music_main.c ****     LV_IMG_DECLARE(img_lv_demo_music_wave_bottom);
 441:lvgl/demos/music/lv_demo_music_main.c ****     lv_obj_t * wave_top = lv_img_create(parent);
 442:lvgl/demos/music/lv_demo_music_main.c ****     lv_img_set_src(wave_top, &img_lv_demo_music_wave_top);
 443:lvgl/demos/music/lv_demo_music_main.c ****     lv_obj_set_width(wave_top, LV_HOR_RES);
 444:lvgl/demos/music/lv_demo_music_main.c ****     lv_obj_align(wave_top, LV_ALIGN_TOP_MID, 0, 0);
 445:lvgl/demos/music/lv_demo_music_main.c ****     lv_obj_add_flag(wave_top, LV_OBJ_FLAG_IGNORE_LAYOUT);
 446:lvgl/demos/music/lv_demo_music_main.c **** 
 447:lvgl/demos/music/lv_demo_music_main.c ****     lv_obj_t * wave_bottom = lv_img_create(parent);
 448:lvgl/demos/music/lv_demo_music_main.c ****     lv_img_set_src(wave_bottom, &img_lv_demo_music_wave_bottom);
 449:lvgl/demos/music/lv_demo_music_main.c ****     lv_obj_set_width(wave_bottom, LV_HOR_RES);
 450:lvgl/demos/music/lv_demo_music_main.c ****     lv_obj_align(wave_bottom, LV_ALIGN_BOTTOM_MID, 0, 0);
 451:lvgl/demos/music/lv_demo_music_main.c ****     lv_obj_add_flag(wave_bottom, LV_OBJ_FLAG_IGNORE_LAYOUT);
 452:lvgl/demos/music/lv_demo_music_main.c **** 
 453:lvgl/demos/music/lv_demo_music_main.c ****     LV_IMG_DECLARE(img_lv_demo_music_corner_left);
 454:lvgl/demos/music/lv_demo_music_main.c ****     LV_IMG_DECLARE(img_lv_demo_music_corner_right);
 455:lvgl/demos/music/lv_demo_music_main.c ****     lv_obj_t * wave_corner = lv_img_create(parent);
 456:lvgl/demos/music/lv_demo_music_main.c ****     lv_img_set_src(wave_corner, &img_lv_demo_music_corner_left);
 457:lvgl/demos/music/lv_demo_music_main.c **** #if LV_DEMO_MUSIC_ROUND == 0
 458:lvgl/demos/music/lv_demo_music_main.c ****     lv_obj_align(wave_corner, LV_ALIGN_BOTTOM_LEFT, 0, 0);
 459:lvgl/demos/music/lv_demo_music_main.c **** #else
 460:lvgl/demos/music/lv_demo_music_main.c ****     lv_obj_align(wave_corner, LV_ALIGN_BOTTOM_LEFT, -LV_HOR_RES / 6, 0);
ARM GAS  C:\Users\OSD\AppData\Local\Temp\ccMhRpSZ.s 			page 10


 461:lvgl/demos/music/lv_demo_music_main.c **** #endif
 462:lvgl/demos/music/lv_demo_music_main.c ****     lv_obj_add_flag(wave_corner, LV_OBJ_FLAG_IGNORE_LAYOUT);
 463:lvgl/demos/music/lv_demo_music_main.c **** 
 464:lvgl/demos/music/lv_demo_music_main.c ****     wave_corner = lv_img_create(parent);
 465:lvgl/demos/music/lv_demo_music_main.c ****     lv_img_set_src(wave_corner, &img_lv_demo_music_corner_right);
 466:lvgl/demos/music/lv_demo_music_main.c **** #if LV_DEMO_MUSIC_ROUND == 0
 467:lvgl/demos/music/lv_demo_music_main.c ****     lv_obj_align(wave_corner, LV_ALIGN_BOTTOM_RIGHT, 0, 0);
 468:lvgl/demos/music/lv_demo_music_main.c **** #else
 469:lvgl/demos/music/lv_demo_music_main.c ****     lv_obj_align(wave_corner, LV_ALIGN_BOTTOM_RIGHT, LV_HOR_RES / 6, 0);
 470:lvgl/demos/music/lv_demo_music_main.c **** #endif
 471:lvgl/demos/music/lv_demo_music_main.c ****     lv_obj_add_flag(wave_corner, LV_OBJ_FLAG_IGNORE_LAYOUT);
 472:lvgl/demos/music/lv_demo_music_main.c **** }
 473:lvgl/demos/music/lv_demo_music_main.c **** 
 474:lvgl/demos/music/lv_demo_music_main.c **** static lv_obj_t * create_title_box(lv_obj_t * parent)
 475:lvgl/demos/music/lv_demo_music_main.c **** {
 476:lvgl/demos/music/lv_demo_music_main.c **** 
 477:lvgl/demos/music/lv_demo_music_main.c ****     /*Create the titles*/
 478:lvgl/demos/music/lv_demo_music_main.c ****     lv_obj_t * cont = lv_obj_create(parent);
 479:lvgl/demos/music/lv_demo_music_main.c ****     lv_obj_remove_style_all(cont);
 480:lvgl/demos/music/lv_demo_music_main.c ****     lv_obj_set_height(cont, LV_SIZE_CONTENT);
 481:lvgl/demos/music/lv_demo_music_main.c ****     lv_obj_set_flex_flow(cont, LV_FLEX_FLOW_COLUMN);
 482:lvgl/demos/music/lv_demo_music_main.c ****     lv_obj_set_flex_align(cont, LV_FLEX_ALIGN_START, LV_FLEX_ALIGN_CENTER, LV_FLEX_ALIGN_CENTER);
 483:lvgl/demos/music/lv_demo_music_main.c **** 
 484:lvgl/demos/music/lv_demo_music_main.c ****     title_label = lv_label_create(cont);
 485:lvgl/demos/music/lv_demo_music_main.c ****     lv_obj_set_style_text_font(title_label, font_large, 0);
 486:lvgl/demos/music/lv_demo_music_main.c ****     lv_obj_set_style_text_color(title_label, lv_color_hex(0x504d6d), 0);
 487:lvgl/demos/music/lv_demo_music_main.c ****     lv_label_set_text(title_label, _lv_demo_music_get_title(track_id));
 488:lvgl/demos/music/lv_demo_music_main.c ****     lv_obj_set_height(title_label, lv_font_get_line_height(font_large) * 3 / 2);
 489:lvgl/demos/music/lv_demo_music_main.c **** 
 490:lvgl/demos/music/lv_demo_music_main.c ****     artist_label = lv_label_create(cont);
 491:lvgl/demos/music/lv_demo_music_main.c ****     lv_obj_set_style_text_font(artist_label, font_small, 0);
 492:lvgl/demos/music/lv_demo_music_main.c ****     lv_obj_set_style_text_color(artist_label, lv_color_hex(0x504d6d), 0);
 493:lvgl/demos/music/lv_demo_music_main.c ****     lv_label_set_text(artist_label, _lv_demo_music_get_artist(track_id));
 494:lvgl/demos/music/lv_demo_music_main.c **** 
 495:lvgl/demos/music/lv_demo_music_main.c ****     genre_label = lv_label_create(cont);
 496:lvgl/demos/music/lv_demo_music_main.c ****     lv_obj_set_style_text_font(genre_label, font_small, 0);
 497:lvgl/demos/music/lv_demo_music_main.c ****     lv_obj_set_style_text_color(genre_label, lv_color_hex(0x8a86b8), 0);
 498:lvgl/demos/music/lv_demo_music_main.c ****     lv_label_set_text(genre_label, _lv_demo_music_get_genre(track_id));
 499:lvgl/demos/music/lv_demo_music_main.c **** 
 500:lvgl/demos/music/lv_demo_music_main.c ****     return cont;
 501:lvgl/demos/music/lv_demo_music_main.c **** }
 502:lvgl/demos/music/lv_demo_music_main.c **** 
 503:lvgl/demos/music/lv_demo_music_main.c **** static lv_obj_t * create_icon_box(lv_obj_t * parent)
 504:lvgl/demos/music/lv_demo_music_main.c **** {
 505:lvgl/demos/music/lv_demo_music_main.c **** 
 506:lvgl/demos/music/lv_demo_music_main.c ****     lv_obj_t * cont = lv_obj_create(parent);
 507:lvgl/demos/music/lv_demo_music_main.c ****     lv_obj_remove_style_all(cont);
 508:lvgl/demos/music/lv_demo_music_main.c ****     lv_obj_set_height(cont, LV_SIZE_CONTENT);
 509:lvgl/demos/music/lv_demo_music_main.c ****     lv_obj_set_flex_flow(cont, LV_FLEX_FLOW_ROW);
 510:lvgl/demos/music/lv_demo_music_main.c ****     lv_obj_set_flex_align(cont, LV_FLEX_ALIGN_SPACE_EVENLY, LV_FLEX_ALIGN_CENTER, LV_FLEX_ALIGN_CEN
 511:lvgl/demos/music/lv_demo_music_main.c **** 
 512:lvgl/demos/music/lv_demo_music_main.c ****     lv_obj_t * icon;
 513:lvgl/demos/music/lv_demo_music_main.c ****     LV_IMG_DECLARE(img_lv_demo_music_icon_1);
 514:lvgl/demos/music/lv_demo_music_main.c ****     LV_IMG_DECLARE(img_lv_demo_music_icon_2);
 515:lvgl/demos/music/lv_demo_music_main.c ****     LV_IMG_DECLARE(img_lv_demo_music_icon_3);
 516:lvgl/demos/music/lv_demo_music_main.c ****     LV_IMG_DECLARE(img_lv_demo_music_icon_4);
 517:lvgl/demos/music/lv_demo_music_main.c ****     icon = lv_img_create(cont);
ARM GAS  C:\Users\OSD\AppData\Local\Temp\ccMhRpSZ.s 			page 11


 518:lvgl/demos/music/lv_demo_music_main.c ****     lv_img_set_src(icon, &img_lv_demo_music_icon_1);
 519:lvgl/demos/music/lv_demo_music_main.c ****     icon = lv_img_create(cont);
 520:lvgl/demos/music/lv_demo_music_main.c ****     lv_img_set_src(icon, &img_lv_demo_music_icon_2);
 521:lvgl/demos/music/lv_demo_music_main.c ****     icon = lv_img_create(cont);
 522:lvgl/demos/music/lv_demo_music_main.c ****     lv_img_set_src(icon, &img_lv_demo_music_icon_3);
 523:lvgl/demos/music/lv_demo_music_main.c ****     icon = lv_img_create(cont);
 524:lvgl/demos/music/lv_demo_music_main.c ****     lv_img_set_src(icon, &img_lv_demo_music_icon_4);
 525:lvgl/demos/music/lv_demo_music_main.c **** 
 526:lvgl/demos/music/lv_demo_music_main.c ****     return cont;
 527:lvgl/demos/music/lv_demo_music_main.c **** }
 528:lvgl/demos/music/lv_demo_music_main.c **** 
 529:lvgl/demos/music/lv_demo_music_main.c **** static lv_obj_t * create_spectrum_obj(lv_obj_t * parent)
 530:lvgl/demos/music/lv_demo_music_main.c **** {
 531:lvgl/demos/music/lv_demo_music_main.c ****     /*Create the spectrum visualizer*/
 532:lvgl/demos/music/lv_demo_music_main.c ****     lv_obj_t * obj = lv_obj_create(parent);
 533:lvgl/demos/music/lv_demo_music_main.c ****     lv_obj_remove_style_all(obj);
 534:lvgl/demos/music/lv_demo_music_main.c **** #if LV_DEMO_MUSIC_LARGE
 535:lvgl/demos/music/lv_demo_music_main.c ****     lv_obj_set_height(obj, 500);
 536:lvgl/demos/music/lv_demo_music_main.c **** #else
 537:lvgl/demos/music/lv_demo_music_main.c ****     lv_obj_set_height(obj, 250);
 538:lvgl/demos/music/lv_demo_music_main.c **** #endif
 539:lvgl/demos/music/lv_demo_music_main.c ****     lv_obj_clear_flag(obj, LV_OBJ_FLAG_CLICKABLE | LV_OBJ_FLAG_SCROLLABLE);
 540:lvgl/demos/music/lv_demo_music_main.c ****     lv_obj_add_event_cb(obj, spectrum_draw_event_cb, LV_EVENT_ALL, NULL);
 541:lvgl/demos/music/lv_demo_music_main.c ****     lv_obj_refresh_ext_draw_size(obj);
 542:lvgl/demos/music/lv_demo_music_main.c ****     album_img_obj = album_img_create(obj);
 543:lvgl/demos/music/lv_demo_music_main.c ****     return obj;
 544:lvgl/demos/music/lv_demo_music_main.c **** }
 545:lvgl/demos/music/lv_demo_music_main.c **** 
 546:lvgl/demos/music/lv_demo_music_main.c **** static lv_obj_t * create_ctrl_box(lv_obj_t * parent)
 547:lvgl/demos/music/lv_demo_music_main.c **** {
 548:lvgl/demos/music/lv_demo_music_main.c ****     /*Create the control box*/
 549:lvgl/demos/music/lv_demo_music_main.c ****     lv_obj_t * cont = lv_obj_create(parent);
 550:lvgl/demos/music/lv_demo_music_main.c ****     lv_obj_remove_style_all(cont);
 551:lvgl/demos/music/lv_demo_music_main.c ****     lv_obj_set_height(cont, LV_SIZE_CONTENT);
 552:lvgl/demos/music/lv_demo_music_main.c **** #if LV_DEMO_MUSIC_LARGE
 553:lvgl/demos/music/lv_demo_music_main.c ****     lv_obj_set_style_pad_bottom(cont, 17, 0);
 554:lvgl/demos/music/lv_demo_music_main.c **** #else
 555:lvgl/demos/music/lv_demo_music_main.c ****     lv_obj_set_style_pad_bottom(cont, 8, 0);
 556:lvgl/demos/music/lv_demo_music_main.c **** #endif
 557:lvgl/demos/music/lv_demo_music_main.c ****     static const lv_coord_t grid_col[] = {LV_GRID_FR(2), LV_GRID_FR(3), LV_GRID_FR(5), LV_GRID_FR(5
 558:lvgl/demos/music/lv_demo_music_main.c ****     static const lv_coord_t grid_row[] = {LV_GRID_CONTENT, LV_GRID_CONTENT, LV_GRID_TEMPLATE_LAST};
 559:lvgl/demos/music/lv_demo_music_main.c ****     lv_obj_set_grid_dsc_array(cont, grid_col, grid_row);
 560:lvgl/demos/music/lv_demo_music_main.c **** 
 561:lvgl/demos/music/lv_demo_music_main.c ****     LV_IMG_DECLARE(img_lv_demo_music_btn_loop);
 562:lvgl/demos/music/lv_demo_music_main.c ****     LV_IMG_DECLARE(img_lv_demo_music_btn_rnd);
 563:lvgl/demos/music/lv_demo_music_main.c ****     LV_IMG_DECLARE(img_lv_demo_music_btn_next);
 564:lvgl/demos/music/lv_demo_music_main.c ****     LV_IMG_DECLARE(img_lv_demo_music_btn_prev);
 565:lvgl/demos/music/lv_demo_music_main.c ****     LV_IMG_DECLARE(img_lv_demo_music_btn_play);
 566:lvgl/demos/music/lv_demo_music_main.c ****     LV_IMG_DECLARE(img_lv_demo_music_btn_pause);
 567:lvgl/demos/music/lv_demo_music_main.c **** 
 568:lvgl/demos/music/lv_demo_music_main.c ****     lv_obj_t * icon;
 569:lvgl/demos/music/lv_demo_music_main.c ****     icon = lv_img_create(cont);
 570:lvgl/demos/music/lv_demo_music_main.c ****     lv_img_set_src(icon, &img_lv_demo_music_btn_rnd);
 571:lvgl/demos/music/lv_demo_music_main.c ****     lv_obj_set_grid_cell(icon, LV_GRID_ALIGN_START, 1, 1, LV_GRID_ALIGN_CENTER, 0, 1);
 572:lvgl/demos/music/lv_demo_music_main.c **** 
 573:lvgl/demos/music/lv_demo_music_main.c ****     icon = lv_img_create(cont);
 574:lvgl/demos/music/lv_demo_music_main.c ****     lv_img_set_src(icon, &img_lv_demo_music_btn_loop);
ARM GAS  C:\Users\OSD\AppData\Local\Temp\ccMhRpSZ.s 			page 12


 575:lvgl/demos/music/lv_demo_music_main.c ****     lv_obj_set_grid_cell(icon, LV_GRID_ALIGN_END, 5, 1, LV_GRID_ALIGN_CENTER, 0, 1);
 576:lvgl/demos/music/lv_demo_music_main.c **** 
 577:lvgl/demos/music/lv_demo_music_main.c ****     icon = lv_img_create(cont);
 578:lvgl/demos/music/lv_demo_music_main.c ****     lv_img_set_src(icon, &img_lv_demo_music_btn_prev);
 579:lvgl/demos/music/lv_demo_music_main.c ****     lv_obj_set_grid_cell(icon, LV_GRID_ALIGN_CENTER, 2, 1, LV_GRID_ALIGN_CENTER, 0, 1);
 580:lvgl/demos/music/lv_demo_music_main.c ****     lv_obj_add_event_cb(icon, prev_click_event_cb, LV_EVENT_CLICKED, NULL);
 581:lvgl/demos/music/lv_demo_music_main.c **** 
 582:lvgl/demos/music/lv_demo_music_main.c ****     play_obj = lv_imgbtn_create(cont);
 583:lvgl/demos/music/lv_demo_music_main.c ****     lv_imgbtn_set_src(play_obj, LV_IMGBTN_STATE_RELEASED, NULL, &img_lv_demo_music_btn_play, NULL);
 584:lvgl/demos/music/lv_demo_music_main.c ****     lv_imgbtn_set_src(play_obj, LV_IMGBTN_STATE_CHECKED_RELEASED, NULL, &img_lv_demo_music_btn_paus
 585:lvgl/demos/music/lv_demo_music_main.c ****     lv_obj_add_flag(play_obj, LV_OBJ_FLAG_CHECKABLE);
 586:lvgl/demos/music/lv_demo_music_main.c ****     lv_obj_set_grid_cell(play_obj, LV_GRID_ALIGN_CENTER, 3, 1, LV_GRID_ALIGN_CENTER, 0, 1);
 587:lvgl/demos/music/lv_demo_music_main.c **** 
 588:lvgl/demos/music/lv_demo_music_main.c ****     lv_obj_add_event_cb(play_obj, play_event_click_cb, LV_EVENT_CLICKED, NULL);
 589:lvgl/demos/music/lv_demo_music_main.c ****     lv_obj_add_flag(play_obj, LV_OBJ_FLAG_CLICKABLE);
 590:lvgl/demos/music/lv_demo_music_main.c ****     lv_obj_set_width(play_obj, img_lv_demo_music_btn_play.header.w);
 591:lvgl/demos/music/lv_demo_music_main.c **** 
 592:lvgl/demos/music/lv_demo_music_main.c ****     icon = lv_img_create(cont);
 593:lvgl/demos/music/lv_demo_music_main.c ****     lv_img_set_src(icon, &img_lv_demo_music_btn_next);
 594:lvgl/demos/music/lv_demo_music_main.c ****     lv_obj_set_grid_cell(icon, LV_GRID_ALIGN_CENTER, 4, 1, LV_GRID_ALIGN_CENTER, 0, 1);
 595:lvgl/demos/music/lv_demo_music_main.c ****     lv_obj_add_event_cb(icon, next_click_event_cb, LV_EVENT_CLICKED, NULL);
 596:lvgl/demos/music/lv_demo_music_main.c ****     lv_obj_add_flag(icon, LV_OBJ_FLAG_CLICKABLE);
 597:lvgl/demos/music/lv_demo_music_main.c **** 
 598:lvgl/demos/music/lv_demo_music_main.c ****     LV_IMG_DECLARE(img_lv_demo_music_slider_knob);
 599:lvgl/demos/music/lv_demo_music_main.c ****     slider_obj = lv_slider_create(cont);
 600:lvgl/demos/music/lv_demo_music_main.c ****     lv_obj_set_style_anim_time(slider_obj, 100, 0);
 601:lvgl/demos/music/lv_demo_music_main.c ****     lv_obj_add_flag(slider_obj, LV_OBJ_FLAG_CLICKABLE); /*No input from the slider*/
 602:lvgl/demos/music/lv_demo_music_main.c **** 
 603:lvgl/demos/music/lv_demo_music_main.c **** #if LV_DEMO_MUSIC_LARGE == 0
 604:lvgl/demos/music/lv_demo_music_main.c ****     lv_obj_set_height(slider_obj, 3);
 605:lvgl/demos/music/lv_demo_music_main.c **** #else
 606:lvgl/demos/music/lv_demo_music_main.c ****     lv_obj_set_height(slider_obj, 6);
 607:lvgl/demos/music/lv_demo_music_main.c **** #endif
 608:lvgl/demos/music/lv_demo_music_main.c ****     lv_obj_set_grid_cell(slider_obj, LV_GRID_ALIGN_STRETCH, 1, 4, LV_GRID_ALIGN_CENTER, 1, 1);
 609:lvgl/demos/music/lv_demo_music_main.c **** 
 610:lvgl/demos/music/lv_demo_music_main.c ****     lv_obj_set_style_bg_img_src(slider_obj, &img_lv_demo_music_slider_knob, LV_PART_KNOB);
 611:lvgl/demos/music/lv_demo_music_main.c ****     lv_obj_set_style_bg_opa(slider_obj, LV_OPA_TRANSP, LV_PART_KNOB);
 612:lvgl/demos/music/lv_demo_music_main.c ****     lv_obj_set_style_pad_all(slider_obj, 20, LV_PART_KNOB);
 613:lvgl/demos/music/lv_demo_music_main.c ****     lv_obj_set_style_bg_grad_dir(slider_obj, LV_GRAD_DIR_HOR, LV_PART_INDICATOR);
 614:lvgl/demos/music/lv_demo_music_main.c ****     lv_obj_set_style_bg_color(slider_obj, lv_color_hex(0x569af8), LV_PART_INDICATOR);
 615:lvgl/demos/music/lv_demo_music_main.c ****     lv_obj_set_style_bg_grad_color(slider_obj, lv_color_hex(0xa666f1), LV_PART_INDICATOR);
 616:lvgl/demos/music/lv_demo_music_main.c ****     lv_obj_set_style_outline_width(slider_obj, 0, 0);
 617:lvgl/demos/music/lv_demo_music_main.c **** 
 618:lvgl/demos/music/lv_demo_music_main.c ****     time_obj = lv_label_create(cont);
 619:lvgl/demos/music/lv_demo_music_main.c ****     lv_obj_set_style_text_font(time_obj, font_small, 0);
 620:lvgl/demos/music/lv_demo_music_main.c ****     lv_obj_set_style_text_color(time_obj, lv_color_hex(0x8a86b8), 0);
 621:lvgl/demos/music/lv_demo_music_main.c ****     lv_label_set_text(time_obj, "0:00");
 622:lvgl/demos/music/lv_demo_music_main.c ****     lv_obj_set_grid_cell(time_obj, LV_GRID_ALIGN_END, 5, 1, LV_GRID_ALIGN_CENTER, 1, 1);
 623:lvgl/demos/music/lv_demo_music_main.c **** 
 624:lvgl/demos/music/lv_demo_music_main.c ****     return cont;
 625:lvgl/demos/music/lv_demo_music_main.c **** }
 626:lvgl/demos/music/lv_demo_music_main.c **** 
 627:lvgl/demos/music/lv_demo_music_main.c **** static lv_obj_t * create_handle(lv_obj_t * parent)
 628:lvgl/demos/music/lv_demo_music_main.c **** {
 629:lvgl/demos/music/lv_demo_music_main.c ****     lv_obj_t * cont = lv_obj_create(parent);
 630:lvgl/demos/music/lv_demo_music_main.c ****     lv_obj_remove_style_all(cont);
 631:lvgl/demos/music/lv_demo_music_main.c **** 
ARM GAS  C:\Users\OSD\AppData\Local\Temp\ccMhRpSZ.s 			page 13


 632:lvgl/demos/music/lv_demo_music_main.c ****     lv_obj_set_size(cont, lv_pct(100), LV_SIZE_CONTENT);
 633:lvgl/demos/music/lv_demo_music_main.c ****     lv_obj_set_flex_flow(cont, LV_FLEX_FLOW_COLUMN);
 634:lvgl/demos/music/lv_demo_music_main.c ****     lv_obj_set_flex_align(cont, LV_FLEX_ALIGN_CENTER, LV_FLEX_ALIGN_CENTER, LV_FLEX_ALIGN_CENTER);
 635:lvgl/demos/music/lv_demo_music_main.c ****     lv_obj_set_style_pad_row(cont, 8, 0);
 636:lvgl/demos/music/lv_demo_music_main.c **** 
 637:lvgl/demos/music/lv_demo_music_main.c ****     /*A handle to scroll to the track list*/
 638:lvgl/demos/music/lv_demo_music_main.c ****     lv_obj_t * handle_label = lv_label_create(cont);
 639:lvgl/demos/music/lv_demo_music_main.c ****     lv_label_set_text(handle_label, "ALL TRACKS");
 640:lvgl/demos/music/lv_demo_music_main.c ****     lv_obj_set_style_text_font(handle_label, font_small, 0);
 641:lvgl/demos/music/lv_demo_music_main.c ****     lv_obj_set_style_text_color(handle_label, lv_color_hex(0x8a86b8), 0);
 642:lvgl/demos/music/lv_demo_music_main.c **** 
 643:lvgl/demos/music/lv_demo_music_main.c ****     lv_obj_t * handle_rect = lv_obj_create(cont);
 644:lvgl/demos/music/lv_demo_music_main.c **** #if LV_DEMO_MUSIC_LARGE
 645:lvgl/demos/music/lv_demo_music_main.c ****     lv_obj_set_size(handle_rect, 40, 3);
 646:lvgl/demos/music/lv_demo_music_main.c **** #else
 647:lvgl/demos/music/lv_demo_music_main.c ****     lv_obj_set_size(handle_rect, 20, 2);
 648:lvgl/demos/music/lv_demo_music_main.c **** #endif
 649:lvgl/demos/music/lv_demo_music_main.c **** 
 650:lvgl/demos/music/lv_demo_music_main.c ****     lv_obj_set_style_bg_color(handle_rect, lv_color_hex(0x8a86b8), 0);
 651:lvgl/demos/music/lv_demo_music_main.c ****     lv_obj_set_style_border_width(handle_rect, 0, 0);
 652:lvgl/demos/music/lv_demo_music_main.c **** 
 653:lvgl/demos/music/lv_demo_music_main.c ****     return cont;
 654:lvgl/demos/music/lv_demo_music_main.c **** }
 655:lvgl/demos/music/lv_demo_music_main.c **** 
 656:lvgl/demos/music/lv_demo_music_main.c **** static void track_load(uint32_t id)
 657:lvgl/demos/music/lv_demo_music_main.c **** {
 658:lvgl/demos/music/lv_demo_music_main.c ****     spectrum_i = 0;
 659:lvgl/demos/music/lv_demo_music_main.c ****     time_act = 0;
 660:lvgl/demos/music/lv_demo_music_main.c ****     spectrum_i_pause = 0;
 661:lvgl/demos/music/lv_demo_music_main.c ****     lv_slider_set_value(slider_obj, 0, LV_ANIM_OFF);
 662:lvgl/demos/music/lv_demo_music_main.c ****     lv_label_set_text(time_obj, "0:00");
 663:lvgl/demos/music/lv_demo_music_main.c **** 
 664:lvgl/demos/music/lv_demo_music_main.c ****     if(id == track_id) return;
 665:lvgl/demos/music/lv_demo_music_main.c ****     bool next = false;
 666:lvgl/demos/music/lv_demo_music_main.c ****     if((track_id + 1) % ACTIVE_TRACK_CNT == id) next = true;
 667:lvgl/demos/music/lv_demo_music_main.c **** 
 668:lvgl/demos/music/lv_demo_music_main.c ****     _lv_demo_music_list_btn_check(track_id, false);
 669:lvgl/demos/music/lv_demo_music_main.c **** 
 670:lvgl/demos/music/lv_demo_music_main.c ****     track_id = id;
 671:lvgl/demos/music/lv_demo_music_main.c **** 
 672:lvgl/demos/music/lv_demo_music_main.c ****     _lv_demo_music_list_btn_check(id, true);
 673:lvgl/demos/music/lv_demo_music_main.c **** 
 674:lvgl/demos/music/lv_demo_music_main.c ****     lv_label_set_text(title_label, _lv_demo_music_get_title(track_id));
 675:lvgl/demos/music/lv_demo_music_main.c ****     lv_label_set_text(artist_label, _lv_demo_music_get_artist(track_id));
 676:lvgl/demos/music/lv_demo_music_main.c ****     lv_label_set_text(genre_label, _lv_demo_music_get_genre(track_id));
 677:lvgl/demos/music/lv_demo_music_main.c **** 
 678:lvgl/demos/music/lv_demo_music_main.c ****     lv_anim_t a;
 679:lvgl/demos/music/lv_demo_music_main.c ****     lv_anim_init(&a);
 680:lvgl/demos/music/lv_demo_music_main.c ****     lv_anim_set_var(&a, album_img_obj);
 681:lvgl/demos/music/lv_demo_music_main.c ****     lv_anim_set_values(&a, lv_obj_get_style_img_opa(album_img_obj, 0), LV_OPA_TRANSP);
 682:lvgl/demos/music/lv_demo_music_main.c ****     lv_anim_set_exec_cb(&a, album_fade_anim_cb);
 683:lvgl/demos/music/lv_demo_music_main.c ****     lv_anim_set_time(&a, 500);
 684:lvgl/demos/music/lv_demo_music_main.c ****     lv_anim_start(&a);
 685:lvgl/demos/music/lv_demo_music_main.c **** 
 686:lvgl/demos/music/lv_demo_music_main.c ****     lv_anim_init(&a);
 687:lvgl/demos/music/lv_demo_music_main.c ****     lv_anim_set_var(&a, album_img_obj);
 688:lvgl/demos/music/lv_demo_music_main.c ****     lv_anim_set_time(&a, 500);
ARM GAS  C:\Users\OSD\AppData\Local\Temp\ccMhRpSZ.s 			page 14


 689:lvgl/demos/music/lv_demo_music_main.c ****     lv_anim_set_path_cb(&a, lv_anim_path_ease_out);
 690:lvgl/demos/music/lv_demo_music_main.c **** #if LV_DEMO_MUSIC_LANDSCAPE
 691:lvgl/demos/music/lv_demo_music_main.c ****     if(next) {
 692:lvgl/demos/music/lv_demo_music_main.c ****         lv_anim_set_values(&a, 0, - LV_HOR_RES / 7);
 693:lvgl/demos/music/lv_demo_music_main.c ****     }
 694:lvgl/demos/music/lv_demo_music_main.c ****     else {
 695:lvgl/demos/music/lv_demo_music_main.c ****         lv_anim_set_values(&a, 0, LV_HOR_RES / 7);
 696:lvgl/demos/music/lv_demo_music_main.c ****     }
 697:lvgl/demos/music/lv_demo_music_main.c **** #else
 698:lvgl/demos/music/lv_demo_music_main.c ****     if(next) {
 699:lvgl/demos/music/lv_demo_music_main.c ****         lv_anim_set_values(&a, 0, - LV_HOR_RES / 2);
 700:lvgl/demos/music/lv_demo_music_main.c ****     }
 701:lvgl/demos/music/lv_demo_music_main.c ****     else {
 702:lvgl/demos/music/lv_demo_music_main.c ****         lv_anim_set_values(&a, 0, LV_HOR_RES / 2);
 703:lvgl/demos/music/lv_demo_music_main.c ****     }
 704:lvgl/demos/music/lv_demo_music_main.c **** #endif
 705:lvgl/demos/music/lv_demo_music_main.c ****     lv_anim_set_exec_cb(&a, _obj_set_x_anim_cb);
 706:lvgl/demos/music/lv_demo_music_main.c ****     lv_anim_set_ready_cb(&a, lv_obj_del_anim_ready_cb);
 707:lvgl/demos/music/lv_demo_music_main.c ****     lv_anim_start(&a);
 708:lvgl/demos/music/lv_demo_music_main.c **** 
 709:lvgl/demos/music/lv_demo_music_main.c ****     lv_anim_set_path_cb(&a, lv_anim_path_linear);
 710:lvgl/demos/music/lv_demo_music_main.c ****     lv_anim_set_var(&a, album_img_obj);
 711:lvgl/demos/music/lv_demo_music_main.c ****     lv_anim_set_time(&a, 500);
 712:lvgl/demos/music/lv_demo_music_main.c ****     lv_anim_set_values(&a, LV_IMG_ZOOM_NONE, LV_IMG_ZOOM_NONE / 2);
 713:lvgl/demos/music/lv_demo_music_main.c ****     lv_anim_set_exec_cb(&a, _img_set_zoom_anim_cb);
 714:lvgl/demos/music/lv_demo_music_main.c ****     lv_anim_set_ready_cb(&a, NULL);
 715:lvgl/demos/music/lv_demo_music_main.c ****     lv_anim_start(&a);
 716:lvgl/demos/music/lv_demo_music_main.c **** 
 717:lvgl/demos/music/lv_demo_music_main.c ****     album_img_obj = album_img_create(spectrum_obj);
 718:lvgl/demos/music/lv_demo_music_main.c **** 
 719:lvgl/demos/music/lv_demo_music_main.c ****     lv_anim_set_path_cb(&a, lv_anim_path_overshoot);
 720:lvgl/demos/music/lv_demo_music_main.c ****     lv_anim_set_var(&a, album_img_obj);
 721:lvgl/demos/music/lv_demo_music_main.c ****     lv_anim_set_time(&a, 500);
 722:lvgl/demos/music/lv_demo_music_main.c ****     lv_anim_set_delay(&a, 100);
 723:lvgl/demos/music/lv_demo_music_main.c ****     lv_anim_set_values(&a, LV_IMG_ZOOM_NONE / 4, LV_IMG_ZOOM_NONE);
 724:lvgl/demos/music/lv_demo_music_main.c ****     lv_anim_set_exec_cb(&a, _img_set_zoom_anim_cb);
 725:lvgl/demos/music/lv_demo_music_main.c ****     lv_anim_set_ready_cb(&a, NULL);
 726:lvgl/demos/music/lv_demo_music_main.c ****     lv_anim_start(&a);
 727:lvgl/demos/music/lv_demo_music_main.c **** 
 728:lvgl/demos/music/lv_demo_music_main.c ****     lv_anim_init(&a);
 729:lvgl/demos/music/lv_demo_music_main.c ****     lv_anim_set_var(&a, album_img_obj);
 730:lvgl/demos/music/lv_demo_music_main.c ****     lv_anim_set_values(&a, 0, LV_OPA_COVER);
 731:lvgl/demos/music/lv_demo_music_main.c ****     lv_anim_set_exec_cb(&a, album_fade_anim_cb);
 732:lvgl/demos/music/lv_demo_music_main.c ****     lv_anim_set_time(&a, 500);
 733:lvgl/demos/music/lv_demo_music_main.c ****     lv_anim_set_delay(&a, 100);
 734:lvgl/demos/music/lv_demo_music_main.c ****     lv_anim_start(&a);
 735:lvgl/demos/music/lv_demo_music_main.c **** }
 736:lvgl/demos/music/lv_demo_music_main.c **** 
 737:lvgl/demos/music/lv_demo_music_main.c **** int32_t get_cos(int32_t deg, int32_t a)
 738:lvgl/demos/music/lv_demo_music_main.c **** {
 739:lvgl/demos/music/lv_demo_music_main.c ****     int32_t r = (lv_trigo_cos(deg) * a);
 740:lvgl/demos/music/lv_demo_music_main.c **** 
 741:lvgl/demos/music/lv_demo_music_main.c ****     r += LV_TRIGO_SIN_MAX / 2;
 742:lvgl/demos/music/lv_demo_music_main.c ****     return r >> LV_TRIGO_SHIFT;
 743:lvgl/demos/music/lv_demo_music_main.c **** }
 744:lvgl/demos/music/lv_demo_music_main.c **** 
 745:lvgl/demos/music/lv_demo_music_main.c **** int32_t get_sin(int32_t deg, int32_t a)
ARM GAS  C:\Users\OSD\AppData\Local\Temp\ccMhRpSZ.s 			page 15


 746:lvgl/demos/music/lv_demo_music_main.c **** {
 747:lvgl/demos/music/lv_demo_music_main.c ****     int32_t r = lv_trigo_sin(deg) * a;
 748:lvgl/demos/music/lv_demo_music_main.c **** 
 749:lvgl/demos/music/lv_demo_music_main.c ****     r += LV_TRIGO_SIN_MAX / 2;
 750:lvgl/demos/music/lv_demo_music_main.c ****     return r >> LV_TRIGO_SHIFT;
 751:lvgl/demos/music/lv_demo_music_main.c **** 
 752:lvgl/demos/music/lv_demo_music_main.c **** }
 753:lvgl/demos/music/lv_demo_music_main.c **** 
 754:lvgl/demos/music/lv_demo_music_main.c **** static void spectrum_draw_event_cb(lv_event_t * e)
 755:lvgl/demos/music/lv_demo_music_main.c **** {
 756:lvgl/demos/music/lv_demo_music_main.c ****     lv_event_code_t code = lv_event_get_code(e);
 757:lvgl/demos/music/lv_demo_music_main.c **** 
 758:lvgl/demos/music/lv_demo_music_main.c ****     if(code == LV_EVENT_REFR_EXT_DRAW_SIZE) {
 759:lvgl/demos/music/lv_demo_music_main.c **** #if LV_DEMO_MUSIC_LANDSCAPE
 760:lvgl/demos/music/lv_demo_music_main.c ****         lv_event_set_ext_draw_size(e, LV_HOR_RES);
 761:lvgl/demos/music/lv_demo_music_main.c **** #else
 762:lvgl/demos/music/lv_demo_music_main.c ****         lv_event_set_ext_draw_size(e, LV_VER_RES);
 763:lvgl/demos/music/lv_demo_music_main.c **** #endif
 764:lvgl/demos/music/lv_demo_music_main.c ****     }
 765:lvgl/demos/music/lv_demo_music_main.c ****     else if(code == LV_EVENT_COVER_CHECK) {
 766:lvgl/demos/music/lv_demo_music_main.c ****         lv_event_set_cover_res(e, LV_COVER_RES_NOT_COVER);
 767:lvgl/demos/music/lv_demo_music_main.c ****     }
 768:lvgl/demos/music/lv_demo_music_main.c ****     else if(code == LV_EVENT_DRAW_POST) {
 769:lvgl/demos/music/lv_demo_music_main.c ****         lv_obj_t * obj = lv_event_get_target(e);
 770:lvgl/demos/music/lv_demo_music_main.c ****         lv_draw_ctx_t * draw_ctx = lv_event_get_draw_ctx(e);
 771:lvgl/demos/music/lv_demo_music_main.c **** 
 772:lvgl/demos/music/lv_demo_music_main.c ****         lv_opa_t opa = lv_obj_get_style_opa_recursive(obj, LV_PART_MAIN);
 773:lvgl/demos/music/lv_demo_music_main.c ****         if(opa < LV_OPA_MIN) return;
 774:lvgl/demos/music/lv_demo_music_main.c **** 
 775:lvgl/demos/music/lv_demo_music_main.c ****         lv_point_t poly[4];
 776:lvgl/demos/music/lv_demo_music_main.c ****         lv_point_t center;
 777:lvgl/demos/music/lv_demo_music_main.c ****         center.x = obj->coords.x1 + lv_obj_get_width(obj) / 2;
 778:lvgl/demos/music/lv_demo_music_main.c ****         center.y = obj->coords.y1 + lv_obj_get_height(obj) / 2;
 779:lvgl/demos/music/lv_demo_music_main.c **** 
 780:lvgl/demos/music/lv_demo_music_main.c ****         lv_draw_rect_dsc_t draw_dsc;
 781:lvgl/demos/music/lv_demo_music_main.c ****         lv_draw_rect_dsc_init(&draw_dsc);
 782:lvgl/demos/music/lv_demo_music_main.c ****         draw_dsc.bg_opa = LV_OPA_COVER;
 783:lvgl/demos/music/lv_demo_music_main.c **** 
 784:lvgl/demos/music/lv_demo_music_main.c ****         uint16_t r[64];
 785:lvgl/demos/music/lv_demo_music_main.c ****         uint32_t i;
 786:lvgl/demos/music/lv_demo_music_main.c **** 
 787:lvgl/demos/music/lv_demo_music_main.c ****         lv_coord_t min_a = 5;
 788:lvgl/demos/music/lv_demo_music_main.c **** #if LV_DEMO_MUSIC_LARGE == 0
 789:lvgl/demos/music/lv_demo_music_main.c ****         lv_coord_t r_in = 77;
 790:lvgl/demos/music/lv_demo_music_main.c **** #else
 791:lvgl/demos/music/lv_demo_music_main.c ****         lv_coord_t r_in = 160;
 792:lvgl/demos/music/lv_demo_music_main.c **** #endif
 793:lvgl/demos/music/lv_demo_music_main.c ****         r_in = (r_in * lv_img_get_zoom(album_img_obj)) >> 8;
 794:lvgl/demos/music/lv_demo_music_main.c ****         for(i = 0; i < BAR_CNT; i++) r[i] = r_in + min_a;
 795:lvgl/demos/music/lv_demo_music_main.c **** 
 796:lvgl/demos/music/lv_demo_music_main.c ****         uint32_t s;
 797:lvgl/demos/music/lv_demo_music_main.c ****         for(s = 0; s < 4; s++) {
 798:lvgl/demos/music/lv_demo_music_main.c ****             uint32_t f;
 799:lvgl/demos/music/lv_demo_music_main.c ****             uint32_t band_w = 0;    /*Real number of bars in this band.*/
 800:lvgl/demos/music/lv_demo_music_main.c ****             switch(s) {
 801:lvgl/demos/music/lv_demo_music_main.c ****                 case 0:
 802:lvgl/demos/music/lv_demo_music_main.c ****                     band_w = 20;
ARM GAS  C:\Users\OSD\AppData\Local\Temp\ccMhRpSZ.s 			page 16


 803:lvgl/demos/music/lv_demo_music_main.c ****                     break;
 804:lvgl/demos/music/lv_demo_music_main.c ****                 case 1:
 805:lvgl/demos/music/lv_demo_music_main.c ****                     band_w = 8;
 806:lvgl/demos/music/lv_demo_music_main.c ****                     break;
 807:lvgl/demos/music/lv_demo_music_main.c ****                 case 2:
 808:lvgl/demos/music/lv_demo_music_main.c ****                     band_w = 4;
 809:lvgl/demos/music/lv_demo_music_main.c ****                     break;
 810:lvgl/demos/music/lv_demo_music_main.c ****                 case 3:
 811:lvgl/demos/music/lv_demo_music_main.c ****                     band_w = 2;
 812:lvgl/demos/music/lv_demo_music_main.c ****                     break;
 813:lvgl/demos/music/lv_demo_music_main.c ****             }
 814:lvgl/demos/music/lv_demo_music_main.c **** 
 815:lvgl/demos/music/lv_demo_music_main.c ****             /* Add "side bars" with cosine characteristic.*/
 816:lvgl/demos/music/lv_demo_music_main.c ****             for(f = 0; f < band_w; f++) {
 817:lvgl/demos/music/lv_demo_music_main.c ****                 uint32_t ampl_main = spectrum[spectrum_i][s];
 818:lvgl/demos/music/lv_demo_music_main.c ****                 int32_t ampl_mod = get_cos(f * 360 / band_w + 180, 180) + 180;
 819:lvgl/demos/music/lv_demo_music_main.c ****                 int32_t t = BAR_PER_BAND_CNT * s - band_w / 2 + f;
 820:lvgl/demos/music/lv_demo_music_main.c ****                 if(t < 0) t = BAR_CNT + t;
 821:lvgl/demos/music/lv_demo_music_main.c ****                 if(t >= BAR_CNT) t = t - BAR_CNT;
 822:lvgl/demos/music/lv_demo_music_main.c ****                 r[t] += (ampl_main * ampl_mod) >> 9;
 823:lvgl/demos/music/lv_demo_music_main.c ****             }
 824:lvgl/demos/music/lv_demo_music_main.c ****         }
 825:lvgl/demos/music/lv_demo_music_main.c **** 
 826:lvgl/demos/music/lv_demo_music_main.c ****         uint32_t amax = 20;
 827:lvgl/demos/music/lv_demo_music_main.c ****         int32_t animv = spectrum_i - spectrum_lane_ofs_start;
 828:lvgl/demos/music/lv_demo_music_main.c ****         if(animv > amax) animv = amax;
 829:lvgl/demos/music/lv_demo_music_main.c ****         for(i = 0; i < BAR_CNT; i++) {
 830:lvgl/demos/music/lv_demo_music_main.c ****             uint32_t deg_space = 1;
 831:lvgl/demos/music/lv_demo_music_main.c ****             uint32_t deg = i * DEG_STEP + 90;
 832:lvgl/demos/music/lv_demo_music_main.c ****             uint32_t j = (i + bar_rot + rnd_array[bar_ofs % 10]) % BAR_CNT;
 833:lvgl/demos/music/lv_demo_music_main.c ****             uint32_t k = (i + bar_rot + rnd_array[(bar_ofs + 1) % 10]) % BAR_CNT;
 834:lvgl/demos/music/lv_demo_music_main.c **** 
 835:lvgl/demos/music/lv_demo_music_main.c ****             uint32_t v = (r[k] * animv + r[j] * (amax - animv)) / amax;
 836:lvgl/demos/music/lv_demo_music_main.c ****             if(start_anim) {
 837:lvgl/demos/music/lv_demo_music_main.c ****                 v = r_in + start_anim_values[i];
 838:lvgl/demos/music/lv_demo_music_main.c ****                 deg_space = v >> 7;
 839:lvgl/demos/music/lv_demo_music_main.c ****                 if(deg_space < 1) deg_space = 1;
 840:lvgl/demos/music/lv_demo_music_main.c ****             }
 841:lvgl/demos/music/lv_demo_music_main.c **** 
 842:lvgl/demos/music/lv_demo_music_main.c ****             if(v < BAR_COLOR1_STOP) draw_dsc.bg_color = BAR_COLOR1;
 843:lvgl/demos/music/lv_demo_music_main.c ****             else if(v > BAR_COLOR3_STOP) draw_dsc.bg_color = BAR_COLOR3;
 844:lvgl/demos/music/lv_demo_music_main.c ****             else if(v > BAR_COLOR2_STOP) draw_dsc.bg_color = lv_color_mix(BAR_COLOR3, BAR_COLOR2,
 845:lvgl/demos/music/lv_demo_music_main.c ****                                                                               ((v - BAR_COLOR2_STOP
 846:lvgl/demos/music/lv_demo_music_main.c ****             else draw_dsc.bg_color = lv_color_mix(BAR_COLOR2, BAR_COLOR1,
 847:lvgl/demos/music/lv_demo_music_main.c ****                                                       ((v - BAR_COLOR1_STOP) * 255) / (BAR_COLOR2_S
 848:lvgl/demos/music/lv_demo_music_main.c **** 
 849:lvgl/demos/music/lv_demo_music_main.c ****             uint32_t di = deg + deg_space;
 850:lvgl/demos/music/lv_demo_music_main.c **** 
 851:lvgl/demos/music/lv_demo_music_main.c ****             int32_t x1_out = get_cos(di, v);
 852:lvgl/demos/music/lv_demo_music_main.c ****             poly[0].x = center.x + x1_out;
 853:lvgl/demos/music/lv_demo_music_main.c ****             poly[0].y = center.y + get_sin(di, v);
 854:lvgl/demos/music/lv_demo_music_main.c **** 
 855:lvgl/demos/music/lv_demo_music_main.c ****             int32_t x1_in = get_cos(di, r_in);
 856:lvgl/demos/music/lv_demo_music_main.c ****             poly[1].x = center.x + x1_in;
 857:lvgl/demos/music/lv_demo_music_main.c ****             poly[1].y = center.y + get_sin(di, r_in);
 858:lvgl/demos/music/lv_demo_music_main.c ****             di += DEG_STEP - deg_space * 2;
 859:lvgl/demos/music/lv_demo_music_main.c **** 
ARM GAS  C:\Users\OSD\AppData\Local\Temp\ccMhRpSZ.s 			page 17


 860:lvgl/demos/music/lv_demo_music_main.c ****             int32_t x2_in = get_cos(di, r_in);
 861:lvgl/demos/music/lv_demo_music_main.c ****             poly[2].x = center.x + x2_in;
 862:lvgl/demos/music/lv_demo_music_main.c ****             poly[2].y = center.y + get_sin(di, r_in);
 863:lvgl/demos/music/lv_demo_music_main.c **** 
 864:lvgl/demos/music/lv_demo_music_main.c ****             int32_t x2_out = get_cos(di, v);
 865:lvgl/demos/music/lv_demo_music_main.c ****             poly[3].x = center.x + x2_out;
 866:lvgl/demos/music/lv_demo_music_main.c ****             poly[3].y = center.y + get_sin(di, v);
 867:lvgl/demos/music/lv_demo_music_main.c **** 
 868:lvgl/demos/music/lv_demo_music_main.c ****             lv_draw_polygon(draw_ctx, &draw_dsc, poly, 4);
 869:lvgl/demos/music/lv_demo_music_main.c **** 
 870:lvgl/demos/music/lv_demo_music_main.c ****             poly[0].x = center.x - x1_out;
 871:lvgl/demos/music/lv_demo_music_main.c ****             poly[1].x = center.x - x1_in;
 872:lvgl/demos/music/lv_demo_music_main.c ****             poly[2].x = center.x - x2_in;
 873:lvgl/demos/music/lv_demo_music_main.c ****             poly[3].x = center.x - x2_out;
 874:lvgl/demos/music/lv_demo_music_main.c ****             lv_draw_polygon(draw_ctx, &draw_dsc, poly, 4);
 875:lvgl/demos/music/lv_demo_music_main.c ****         }
 876:lvgl/demos/music/lv_demo_music_main.c ****     }
 877:lvgl/demos/music/lv_demo_music_main.c **** }
 878:lvgl/demos/music/lv_demo_music_main.c **** 
 879:lvgl/demos/music/lv_demo_music_main.c **** static void spectrum_anim_cb(void * a, int32_t v)
 880:lvgl/demos/music/lv_demo_music_main.c **** {
 881:lvgl/demos/music/lv_demo_music_main.c ****     lv_obj_t * obj = a;
 882:lvgl/demos/music/lv_demo_music_main.c ****     if(start_anim) {
 883:lvgl/demos/music/lv_demo_music_main.c ****         lv_obj_invalidate(obj);
 884:lvgl/demos/music/lv_demo_music_main.c ****         return;
 885:lvgl/demos/music/lv_demo_music_main.c ****     }
 886:lvgl/demos/music/lv_demo_music_main.c **** 
 887:lvgl/demos/music/lv_demo_music_main.c ****     spectrum_i = v;
 888:lvgl/demos/music/lv_demo_music_main.c ****     lv_obj_invalidate(obj);
 889:lvgl/demos/music/lv_demo_music_main.c **** 
 890:lvgl/demos/music/lv_demo_music_main.c ****     static uint32_t bass_cnt = 0;
 891:lvgl/demos/music/lv_demo_music_main.c ****     static int32_t last_bass = -1000;
 892:lvgl/demos/music/lv_demo_music_main.c ****     static int32_t dir = 1;
 893:lvgl/demos/music/lv_demo_music_main.c ****     if(spectrum[spectrum_i][0] > 12) {
 894:lvgl/demos/music/lv_demo_music_main.c ****         if(spectrum_i - last_bass > 5) {
 895:lvgl/demos/music/lv_demo_music_main.c ****             bass_cnt++;
 896:lvgl/demos/music/lv_demo_music_main.c ****             last_bass = spectrum_i;
 897:lvgl/demos/music/lv_demo_music_main.c ****             if(bass_cnt >= 2) {
 898:lvgl/demos/music/lv_demo_music_main.c ****                 bass_cnt = 0;
 899:lvgl/demos/music/lv_demo_music_main.c ****                 spectrum_lane_ofs_start = spectrum_i;
 900:lvgl/demos/music/lv_demo_music_main.c ****                 bar_ofs++;
 901:lvgl/demos/music/lv_demo_music_main.c ****             }
 902:lvgl/demos/music/lv_demo_music_main.c ****         }
 903:lvgl/demos/music/lv_demo_music_main.c ****     }
 904:lvgl/demos/music/lv_demo_music_main.c ****     if(spectrum[spectrum_i][0] < 4) bar_rot += dir;
 905:lvgl/demos/music/lv_demo_music_main.c **** 
 906:lvgl/demos/music/lv_demo_music_main.c ****     lv_img_set_zoom(album_img_obj, LV_IMG_ZOOM_NONE + spectrum[spectrum_i][0]);
 907:lvgl/demos/music/lv_demo_music_main.c **** }
 908:lvgl/demos/music/lv_demo_music_main.c **** 
 909:lvgl/demos/music/lv_demo_music_main.c **** static void start_anim_cb(void * a, int32_t v)
 910:lvgl/demos/music/lv_demo_music_main.c **** {
  57              		.loc 1 910 1 is_stmt 1 view -0
  58              		.cfi_startproc
  59              		@ args = 0, pretend = 0, frame = 0
  60              		@ frame_needed = 0, uses_anonymous_args = 0
  61              		.loc 1 910 1 is_stmt 0 view .LVU6
  62 0000 08B5     		push	{r3, lr}
ARM GAS  C:\Users\OSD\AppData\Local\Temp\ccMhRpSZ.s 			page 18


  63              		.cfi_def_cfa_offset 8
  64              		.cfi_offset 3, -8
  65              		.cfi_offset 14, -4
 911:lvgl/demos/music/lv_demo_music_main.c ****     lv_coord_t * av = a;
  66              		.loc 1 911 5 is_stmt 1 view .LVU7
  67              	.LVL4:
 912:lvgl/demos/music/lv_demo_music_main.c ****     *av = v;
  68              		.loc 1 912 5 view .LVU8
  69              		.loc 1 912 9 is_stmt 0 view .LVU9
  70 0002 0180     		strh	r1, [r0]	@ movhi
 913:lvgl/demos/music/lv_demo_music_main.c ****     lv_obj_invalidate(spectrum_obj);
  71              		.loc 1 913 5 is_stmt 1 view .LVU10
  72 0004 024B     		ldr	r3, .L5
  73 0006 1868     		ldr	r0, [r3]
  74              	.LVL5:
  75              		.loc 1 913 5 is_stmt 0 view .LVU11
  76 0008 FFF7FEFF 		bl	lv_obj_invalidate
  77              	.LVL6:
 914:lvgl/demos/music/lv_demo_music_main.c **** }
  78              		.loc 1 914 1 view .LVU12
  79 000c 08BD     		pop	{r3, pc}
  80              	.L6:
  81 000e 00BF     		.align	2
  82              	.L5:
  83 0010 00000000 		.word	.LANCHOR0
  84              		.cfi_endproc
  85              	.LFE224:
  87              		.section	.text.spectrum_anim_cb,"ax",%progbits
  88              		.align	1
  89              		.syntax unified
  90              		.thumb
  91              		.thumb_func
  93              	spectrum_anim_cb:
  94              	.LVL7:
  95              	.LFB223:
 880:lvgl/demos/music/lv_demo_music_main.c ****     lv_obj_t * obj = a;
  96              		.loc 1 880 1 is_stmt 1 view -0
  97              		.cfi_startproc
  98              		@ args = 0, pretend = 0, frame = 0
  99              		@ frame_needed = 0, uses_anonymous_args = 0
 880:lvgl/demos/music/lv_demo_music_main.c ****     lv_obj_t * obj = a;
 100              		.loc 1 880 1 is_stmt 0 view .LVU14
 101 0000 10B5     		push	{r4, lr}
 102              		.cfi_def_cfa_offset 8
 103              		.cfi_offset 4, -8
 104              		.cfi_offset 14, -4
 881:lvgl/demos/music/lv_demo_music_main.c ****     if(start_anim) {
 105              		.loc 1 881 5 is_stmt 1 view .LVU15
 106              	.LVL8:
 882:lvgl/demos/music/lv_demo_music_main.c ****         lv_obj_invalidate(obj);
 107              		.loc 1 882 5 view .LVU16
 882:lvgl/demos/music/lv_demo_music_main.c ****         lv_obj_invalidate(obj);
 108              		.loc 1 882 8 is_stmt 0 view .LVU17
 109 0002 1B4B     		ldr	r3, .L14
 110 0004 1B78     		ldrb	r3, [r3]	@ zero_extendqisi2
 882:lvgl/demos/music/lv_demo_music_main.c ****         lv_obj_invalidate(obj);
 111              		.loc 1 882 7 view .LVU18
ARM GAS  C:\Users\OSD\AppData\Local\Temp\ccMhRpSZ.s 			page 19


 112 0006 002B     		cmp	r3, #0
 113 0008 2ED1     		bne	.L13
 887:lvgl/demos/music/lv_demo_music_main.c ****     lv_obj_invalidate(obj);
 114              		.loc 1 887 5 is_stmt 1 view .LVU19
 887:lvgl/demos/music/lv_demo_music_main.c ****     lv_obj_invalidate(obj);
 115              		.loc 1 887 16 is_stmt 0 view .LVU20
 116 000a 1A4C     		ldr	r4, .L14+4
 117 000c 2160     		str	r1, [r4]
 888:lvgl/demos/music/lv_demo_music_main.c **** 
 118              		.loc 1 888 5 is_stmt 1 view .LVU21
 119 000e FFF7FEFF 		bl	lv_obj_invalidate
 120              	.LVL9:
 890:lvgl/demos/music/lv_demo_music_main.c ****     static int32_t last_bass = -1000;
 121              		.loc 1 890 5 view .LVU22
 891:lvgl/demos/music/lv_demo_music_main.c ****     static int32_t dir = 1;
 122              		.loc 1 891 5 view .LVU23
 892:lvgl/demos/music/lv_demo_music_main.c ****     if(spectrum[spectrum_i][0] > 12) {
 123              		.loc 1 892 5 view .LVU24
 893:lvgl/demos/music/lv_demo_music_main.c ****         if(spectrum_i - last_bass > 5) {
 124              		.loc 1 893 5 view .LVU25
 893:lvgl/demos/music/lv_demo_music_main.c ****         if(spectrum_i - last_bass > 5) {
 125              		.loc 1 893 16 is_stmt 0 view .LVU26
 126 0012 2368     		ldr	r3, [r4]
 127 0014 184A     		ldr	r2, .L14+8
 128 0016 1268     		ldr	r2, [r2]
 893:lvgl/demos/music/lv_demo_music_main.c ****         if(spectrum_i - last_bass > 5) {
 129              		.loc 1 893 28 view .LVU27
 130 0018 32F83310 		ldrh	r1, [r2, r3, lsl #3]
 893:lvgl/demos/music/lv_demo_music_main.c ****         if(spectrum_i - last_bass > 5) {
 131              		.loc 1 893 7 view .LVU28
 132 001c 0C29     		cmp	r1, #12
 133 001e 15D9     		bls	.L10
 894:lvgl/demos/music/lv_demo_music_main.c ****             bass_cnt++;
 134              		.loc 1 894 9 is_stmt 1 view .LVU29
 894:lvgl/demos/music/lv_demo_music_main.c ****             bass_cnt++;
 135              		.loc 1 894 23 is_stmt 0 view .LVU30
 136 0020 164A     		ldr	r2, .L14+12
 137 0022 1268     		ldr	r2, [r2]
 138 0024 9A1A     		subs	r2, r3, r2
 894:lvgl/demos/music/lv_demo_music_main.c ****             bass_cnt++;
 139              		.loc 1 894 11 view .LVU31
 140 0026 052A     		cmp	r2, #5
 141 0028 10D9     		bls	.L10
 895:lvgl/demos/music/lv_demo_music_main.c ****             last_bass = spectrum_i;
 142              		.loc 1 895 13 is_stmt 1 view .LVU32
 895:lvgl/demos/music/lv_demo_music_main.c ****             last_bass = spectrum_i;
 143              		.loc 1 895 21 is_stmt 0 view .LVU33
 144 002a 1548     		ldr	r0, .L14+16
 145 002c 0268     		ldr	r2, [r0]
 146 002e 0132     		adds	r2, r2, #1
 147 0030 0260     		str	r2, [r0]
 896:lvgl/demos/music/lv_demo_music_main.c ****             if(bass_cnt >= 2) {
 148              		.loc 1 896 13 is_stmt 1 view .LVU34
 896:lvgl/demos/music/lv_demo_music_main.c ****             if(bass_cnt >= 2) {
 149              		.loc 1 896 23 is_stmt 0 view .LVU35
 150 0032 1248     		ldr	r0, .L14+12
 151 0034 0360     		str	r3, [r0]
ARM GAS  C:\Users\OSD\AppData\Local\Temp\ccMhRpSZ.s 			page 20


 897:lvgl/demos/music/lv_demo_music_main.c ****                 bass_cnt = 0;
 152              		.loc 1 897 13 is_stmt 1 view .LVU36
 897:lvgl/demos/music/lv_demo_music_main.c ****                 bass_cnt = 0;
 153              		.loc 1 897 15 is_stmt 0 view .LVU37
 154 0036 012A     		cmp	r2, #1
 155 0038 08D9     		bls	.L10
 898:lvgl/demos/music/lv_demo_music_main.c ****                 spectrum_lane_ofs_start = spectrum_i;
 156              		.loc 1 898 17 is_stmt 1 view .LVU38
 898:lvgl/demos/music/lv_demo_music_main.c ****                 spectrum_lane_ofs_start = spectrum_i;
 157              		.loc 1 898 26 is_stmt 0 view .LVU39
 158 003a 114A     		ldr	r2, .L14+16
 159 003c 0020     		movs	r0, #0
 160 003e 1060     		str	r0, [r2]
 899:lvgl/demos/music/lv_demo_music_main.c ****                 bar_ofs++;
 161              		.loc 1 899 17 is_stmt 1 view .LVU40
 899:lvgl/demos/music/lv_demo_music_main.c ****                 bar_ofs++;
 162              		.loc 1 899 41 is_stmt 0 view .LVU41
 163 0040 104A     		ldr	r2, .L14+20
 164 0042 1360     		str	r3, [r2]
 900:lvgl/demos/music/lv_demo_music_main.c ****             }
 165              		.loc 1 900 17 is_stmt 1 view .LVU42
 900:lvgl/demos/music/lv_demo_music_main.c ****             }
 166              		.loc 1 900 24 is_stmt 0 view .LVU43
 167 0044 104A     		ldr	r2, .L14+24
 168 0046 1368     		ldr	r3, [r2]
 169 0048 0133     		adds	r3, r3, #1
 170 004a 1360     		str	r3, [r2]
 171              	.L10:
 904:lvgl/demos/music/lv_demo_music_main.c **** 
 172              		.loc 1 904 5 is_stmt 1 view .LVU44
 904:lvgl/demos/music/lv_demo_music_main.c **** 
 173              		.loc 1 904 7 is_stmt 0 view .LVU45
 174 004c 0329     		cmp	r1, #3
 175 004e 03D8     		bhi	.L11
 904:lvgl/demos/music/lv_demo_music_main.c **** 
 176              		.loc 1 904 37 is_stmt 1 discriminator 1 view .LVU46
 904:lvgl/demos/music/lv_demo_music_main.c **** 
 177              		.loc 1 904 45 is_stmt 0 discriminator 1 view .LVU47
 178 0050 0E4A     		ldr	r2, .L14+28
 179 0052 1368     		ldr	r3, [r2]
 180 0054 0133     		adds	r3, r3, #1
 181 0056 1360     		str	r3, [r2]
 182              	.L11:
 906:lvgl/demos/music/lv_demo_music_main.c **** }
 183              		.loc 1 906 5 is_stmt 1 view .LVU48
 184 0058 01F58071 		add	r1, r1, #256
 185 005c 89B2     		uxth	r1, r1
 186 005e 0C4B     		ldr	r3, .L14+32
 187 0060 1868     		ldr	r0, [r3]
 188 0062 FFF7FEFF 		bl	lv_img_set_zoom
 189              	.LVL10:
 190              	.L7:
 907:lvgl/demos/music/lv_demo_music_main.c **** 
 191              		.loc 1 907 1 is_stmt 0 view .LVU49
 192 0066 10BD     		pop	{r4, pc}
 193              	.LVL11:
 194              	.L13:
ARM GAS  C:\Users\OSD\AppData\Local\Temp\ccMhRpSZ.s 			page 21


 883:lvgl/demos/music/lv_demo_music_main.c ****         return;
 195              		.loc 1 883 9 is_stmt 1 view .LVU50
 196 0068 FFF7FEFF 		bl	lv_obj_invalidate
 197              	.LVL12:
 884:lvgl/demos/music/lv_demo_music_main.c ****     }
 198              		.loc 1 884 9 view .LVU51
 199 006c FBE7     		b	.L7
 200              	.L15:
 201 006e 00BF     		.align	2
 202              	.L14:
 203 0070 00000000 		.word	.LANCHOR1
 204 0074 00000000 		.word	.LANCHOR2
 205 0078 00000000 		.word	.LANCHOR3
 206 007c 00000000 		.word	.LANCHOR4
 207 0080 00000000 		.word	.LANCHOR5
 208 0084 00000000 		.word	.LANCHOR6
 209 0088 00000000 		.word	.LANCHOR7
 210 008c 00000000 		.word	.LANCHOR8
 211 0090 00000000 		.word	.LANCHOR9
 212              		.cfi_endproc
 213              	.LFE223:
 215              		.section	.text.stop_start_anim_timer_cb,"ax",%progbits
 216              		.align	1
 217              		.syntax unified
 218              		.thumb
 219              		.thumb_func
 221              	stop_start_anim_timer_cb:
 222              	.LVL13:
 223              	.LFB232:
 915:lvgl/demos/music/lv_demo_music_main.c **** 
 916:lvgl/demos/music/lv_demo_music_main.c **** static lv_obj_t * album_img_create(lv_obj_t * parent)
 917:lvgl/demos/music/lv_demo_music_main.c **** {
 918:lvgl/demos/music/lv_demo_music_main.c ****     LV_IMG_DECLARE(img_lv_demo_music_cover_1);
 919:lvgl/demos/music/lv_demo_music_main.c ****     LV_IMG_DECLARE(img_lv_demo_music_cover_2);
 920:lvgl/demos/music/lv_demo_music_main.c ****     LV_IMG_DECLARE(img_lv_demo_music_cover_3);
 921:lvgl/demos/music/lv_demo_music_main.c **** 
 922:lvgl/demos/music/lv_demo_music_main.c ****     lv_obj_t * img;
 923:lvgl/demos/music/lv_demo_music_main.c ****     img = lv_img_create(parent);
 924:lvgl/demos/music/lv_demo_music_main.c **** 
 925:lvgl/demos/music/lv_demo_music_main.c ****     switch(track_id) {
 926:lvgl/demos/music/lv_demo_music_main.c ****         case 2:
 927:lvgl/demos/music/lv_demo_music_main.c ****             lv_img_set_src(img, &img_lv_demo_music_cover_3);
 928:lvgl/demos/music/lv_demo_music_main.c ****             spectrum = spectrum_3;
 929:lvgl/demos/music/lv_demo_music_main.c ****             spectrum_len = sizeof(spectrum_3) / sizeof(spectrum_3[0]);
 930:lvgl/demos/music/lv_demo_music_main.c ****             break;
 931:lvgl/demos/music/lv_demo_music_main.c ****         case 1:
 932:lvgl/demos/music/lv_demo_music_main.c ****             lv_img_set_src(img, &img_lv_demo_music_cover_2);
 933:lvgl/demos/music/lv_demo_music_main.c ****             spectrum = spectrum_2;
 934:lvgl/demos/music/lv_demo_music_main.c ****             spectrum_len = sizeof(spectrum_2) / sizeof(spectrum_2[0]);
 935:lvgl/demos/music/lv_demo_music_main.c ****             break;
 936:lvgl/demos/music/lv_demo_music_main.c ****         case 0:
 937:lvgl/demos/music/lv_demo_music_main.c ****             lv_img_set_src(img, &img_lv_demo_music_cover_1);
 938:lvgl/demos/music/lv_demo_music_main.c ****             spectrum = spectrum_1;
 939:lvgl/demos/music/lv_demo_music_main.c ****             spectrum_len = sizeof(spectrum_1) / sizeof(spectrum_1[0]);
 940:lvgl/demos/music/lv_demo_music_main.c ****             break;
 941:lvgl/demos/music/lv_demo_music_main.c ****     }
 942:lvgl/demos/music/lv_demo_music_main.c ****     lv_img_set_antialias(img, false);
ARM GAS  C:\Users\OSD\AppData\Local\Temp\ccMhRpSZ.s 			page 22


 943:lvgl/demos/music/lv_demo_music_main.c ****     lv_obj_align(img, LV_ALIGN_CENTER, 0, 0);
 944:lvgl/demos/music/lv_demo_music_main.c ****     lv_obj_add_event_cb(img, album_gesture_event_cb, LV_EVENT_GESTURE, NULL);
 945:lvgl/demos/music/lv_demo_music_main.c ****     lv_obj_clear_flag(img, LV_OBJ_FLAG_GESTURE_BUBBLE);
 946:lvgl/demos/music/lv_demo_music_main.c ****     lv_obj_add_flag(img, LV_OBJ_FLAG_CLICKABLE);
 947:lvgl/demos/music/lv_demo_music_main.c **** 
 948:lvgl/demos/music/lv_demo_music_main.c ****     return img;
 949:lvgl/demos/music/lv_demo_music_main.c **** 
 950:lvgl/demos/music/lv_demo_music_main.c **** }
 951:lvgl/demos/music/lv_demo_music_main.c **** 
 952:lvgl/demos/music/lv_demo_music_main.c **** static void album_gesture_event_cb(lv_event_t * e)
 953:lvgl/demos/music/lv_demo_music_main.c **** {
 954:lvgl/demos/music/lv_demo_music_main.c ****     lv_dir_t dir = lv_indev_get_gesture_dir(lv_indev_get_act());
 955:lvgl/demos/music/lv_demo_music_main.c ****     if(dir == LV_DIR_LEFT) _lv_demo_music_album_next(true);
 956:lvgl/demos/music/lv_demo_music_main.c ****     if(dir == LV_DIR_RIGHT) _lv_demo_music_album_next(false);
 957:lvgl/demos/music/lv_demo_music_main.c **** }
 958:lvgl/demos/music/lv_demo_music_main.c **** 
 959:lvgl/demos/music/lv_demo_music_main.c **** static void play_event_click_cb(lv_event_t * e)
 960:lvgl/demos/music/lv_demo_music_main.c **** {
 961:lvgl/demos/music/lv_demo_music_main.c ****     lv_obj_t * obj = lv_event_get_target(e);
 962:lvgl/demos/music/lv_demo_music_main.c ****     if(lv_obj_has_state(obj, LV_STATE_CHECKED)) {
 963:lvgl/demos/music/lv_demo_music_main.c ****         _lv_demo_music_resume();
 964:lvgl/demos/music/lv_demo_music_main.c ****     }
 965:lvgl/demos/music/lv_demo_music_main.c ****     else {
 966:lvgl/demos/music/lv_demo_music_main.c ****         _lv_demo_music_pause();
 967:lvgl/demos/music/lv_demo_music_main.c ****     }
 968:lvgl/demos/music/lv_demo_music_main.c **** }
 969:lvgl/demos/music/lv_demo_music_main.c **** 
 970:lvgl/demos/music/lv_demo_music_main.c **** static void prev_click_event_cb(lv_event_t * e)
 971:lvgl/demos/music/lv_demo_music_main.c **** {
 972:lvgl/demos/music/lv_demo_music_main.c ****     LV_UNUSED(e);
 973:lvgl/demos/music/lv_demo_music_main.c ****     _lv_demo_music_album_next(false);
 974:lvgl/demos/music/lv_demo_music_main.c **** }
 975:lvgl/demos/music/lv_demo_music_main.c **** 
 976:lvgl/demos/music/lv_demo_music_main.c **** static void next_click_event_cb(lv_event_t * e)
 977:lvgl/demos/music/lv_demo_music_main.c **** {
 978:lvgl/demos/music/lv_demo_music_main.c ****     lv_event_code_t code = lv_event_get_code(e);
 979:lvgl/demos/music/lv_demo_music_main.c ****     if(code == LV_EVENT_CLICKED) {
 980:lvgl/demos/music/lv_demo_music_main.c ****         _lv_demo_music_album_next(true);
 981:lvgl/demos/music/lv_demo_music_main.c ****     }
 982:lvgl/demos/music/lv_demo_music_main.c **** }
 983:lvgl/demos/music/lv_demo_music_main.c **** 
 984:lvgl/demos/music/lv_demo_music_main.c **** static void timer_cb(lv_timer_t * t)
 985:lvgl/demos/music/lv_demo_music_main.c **** {
 986:lvgl/demos/music/lv_demo_music_main.c ****     LV_UNUSED(t);
 987:lvgl/demos/music/lv_demo_music_main.c ****     time_act++;
 988:lvgl/demos/music/lv_demo_music_main.c ****     lv_label_set_text_fmt(time_obj, "%"LV_PRIu32":%02"LV_PRIu32, time_act / 60, time_act % 60);
 989:lvgl/demos/music/lv_demo_music_main.c ****     lv_slider_set_value(slider_obj, time_act, LV_ANIM_ON);
 990:lvgl/demos/music/lv_demo_music_main.c **** }
 991:lvgl/demos/music/lv_demo_music_main.c **** 
 992:lvgl/demos/music/lv_demo_music_main.c **** static void spectrum_end_cb(lv_anim_t * a)
 993:lvgl/demos/music/lv_demo_music_main.c **** {
 994:lvgl/demos/music/lv_demo_music_main.c ****     LV_UNUSED(a);
 995:lvgl/demos/music/lv_demo_music_main.c ****     _lv_demo_music_album_next(true);
 996:lvgl/demos/music/lv_demo_music_main.c **** }
 997:lvgl/demos/music/lv_demo_music_main.c **** 
 998:lvgl/demos/music/lv_demo_music_main.c **** static void stop_start_anim_timer_cb(lv_timer_t * t)
 999:lvgl/demos/music/lv_demo_music_main.c **** {
ARM GAS  C:\Users\OSD\AppData\Local\Temp\ccMhRpSZ.s 			page 23


 224              		.loc 1 999 1 view -0
 225              		.cfi_startproc
 226              		@ args = 0, pretend = 0, frame = 0
 227              		@ frame_needed = 0, uses_anonymous_args = 0
 228              		.loc 1 999 1 is_stmt 0 view .LVU53
 229 0000 08B5     		push	{r3, lr}
 230              		.cfi_def_cfa_offset 8
 231              		.cfi_offset 3, -8
 232              		.cfi_offset 14, -4
1000:lvgl/demos/music/lv_demo_music_main.c ****     LV_UNUSED(t);
 233              		.loc 1 1000 5 is_stmt 1 view .LVU54
1001:lvgl/demos/music/lv_demo_music_main.c ****     start_anim = false;
 234              		.loc 1 1001 5 view .LVU55
 235              		.loc 1 1001 16 is_stmt 0 view .LVU56
 236 0002 0023     		movs	r3, #0
 237 0004 044A     		ldr	r2, .L18
 238 0006 1370     		strb	r3, [r2]
1002:lvgl/demos/music/lv_demo_music_main.c ****     stop_start_anim_timer = NULL;
 239              		.loc 1 1002 5 is_stmt 1 view .LVU57
 240              		.loc 1 1002 27 is_stmt 0 view .LVU58
 241 0008 044A     		ldr	r2, .L18+4
 242 000a 1360     		str	r3, [r2]
1003:lvgl/demos/music/lv_demo_music_main.c ****     lv_obj_refresh_ext_draw_size(spectrum_obj);
 243              		.loc 1 1003 5 is_stmt 1 view .LVU59
 244 000c 044B     		ldr	r3, .L18+8
 245 000e 1868     		ldr	r0, [r3]
 246              	.LVL14:
 247              		.loc 1 1003 5 is_stmt 0 view .LVU60
 248 0010 FFF7FEFF 		bl	lv_obj_refresh_ext_draw_size
 249              	.LVL15:
1004:lvgl/demos/music/lv_demo_music_main.c **** }
 250              		.loc 1 1004 1 view .LVU61
 251 0014 08BD     		pop	{r3, pc}
 252              	.L19:
 253 0016 00BF     		.align	2
 254              	.L18:
 255 0018 00000000 		.word	.LANCHOR1
 256 001c 00000000 		.word	.LANCHOR10
 257 0020 00000000 		.word	.LANCHOR0
 258              		.cfi_endproc
 259              	.LFE232:
 261              		.section	.rodata.timer_cb.str1.4,"aMS",%progbits,1
 262              		.align	2
 263              	.LC0:
 264 0000 256C753A 		.ascii	"%lu:%02lu\000"
 264      2530326C 
 264      7500
 265              		.section	.text.timer_cb,"ax",%progbits
 266              		.align	1
 267              		.syntax unified
 268              		.thumb
 269              		.thumb_func
 271              	timer_cb:
 272              	.LVL16:
 273              	.LFB230:
 985:lvgl/demos/music/lv_demo_music_main.c ****     LV_UNUSED(t);
 274              		.loc 1 985 1 is_stmt 1 view -0
ARM GAS  C:\Users\OSD\AppData\Local\Temp\ccMhRpSZ.s 			page 24


 275              		.cfi_startproc
 276              		@ args = 0, pretend = 0, frame = 0
 277              		@ frame_needed = 0, uses_anonymous_args = 0
 985:lvgl/demos/music/lv_demo_music_main.c ****     LV_UNUSED(t);
 278              		.loc 1 985 1 is_stmt 0 view .LVU63
 279 0000 10B5     		push	{r4, lr}
 280              		.cfi_def_cfa_offset 8
 281              		.cfi_offset 4, -8
 282              		.cfi_offset 14, -4
 986:lvgl/demos/music/lv_demo_music_main.c ****     time_act++;
 283              		.loc 1 986 5 is_stmt 1 view .LVU64
 987:lvgl/demos/music/lv_demo_music_main.c ****     lv_label_set_text_fmt(time_obj, "%"LV_PRIu32":%02"LV_PRIu32, time_act / 60, time_act % 60);
 284              		.loc 1 987 5 view .LVU65
 987:lvgl/demos/music/lv_demo_music_main.c ****     lv_label_set_text_fmt(time_obj, "%"LV_PRIu32":%02"LV_PRIu32, time_act / 60, time_act % 60);
 285              		.loc 1 987 13 is_stmt 0 view .LVU66
 286 0002 0C4C     		ldr	r4, .L22
 287 0004 2368     		ldr	r3, [r4]
 288 0006 0133     		adds	r3, r3, #1
 289 0008 2360     		str	r3, [r4]
 988:lvgl/demos/music/lv_demo_music_main.c ****     lv_slider_set_value(slider_obj, time_act, LV_ANIM_ON);
 290              		.loc 1 988 5 is_stmt 1 view .LVU67
 291 000a 0B4A     		ldr	r2, .L22+4
 292 000c A2FB0312 		umull	r1, r2, r2, r3
 293 0010 5209     		lsrs	r2, r2, #5
 294 0012 C2EB0210 		rsb	r0, r2, r2, lsl #4
 295              	.LVL17:
 988:lvgl/demos/music/lv_demo_music_main.c ****     lv_slider_set_value(slider_obj, time_act, LV_ANIM_ON);
 296              		.loc 1 988 5 is_stmt 0 view .LVU68
 297 0016 8100     		lsls	r1, r0, #2
 298 0018 5B1A     		subs	r3, r3, r1
 299 001a 0849     		ldr	r1, .L22+8
 300 001c 0848     		ldr	r0, .L22+12
 301 001e 0068     		ldr	r0, [r0]
 302 0020 FFF7FEFF 		bl	lv_label_set_text_fmt
 303              	.LVL18:
 989:lvgl/demos/music/lv_demo_music_main.c **** }
 304              		.loc 1 989 5 is_stmt 1 view .LVU69
 305              	.LBB182:
 306              	.LBI182:
 307              		.file 2 "lvgl/demos/music/../../src/widgets/lv_slider.h"
   1:lvgl/demos/music/../../src/widgets/lv_slider.h **** /**
   2:lvgl/demos/music/../../src/widgets/lv_slider.h ****  * @file lv_slider.h
   3:lvgl/demos/music/../../src/widgets/lv_slider.h ****  *
   4:lvgl/demos/music/../../src/widgets/lv_slider.h ****  */
   5:lvgl/demos/music/../../src/widgets/lv_slider.h **** 
   6:lvgl/demos/music/../../src/widgets/lv_slider.h **** #ifndef LV_SLIDER_H
   7:lvgl/demos/music/../../src/widgets/lv_slider.h **** #define LV_SLIDER_H
   8:lvgl/demos/music/../../src/widgets/lv_slider.h **** 
   9:lvgl/demos/music/../../src/widgets/lv_slider.h **** #ifdef __cplusplus
  10:lvgl/demos/music/../../src/widgets/lv_slider.h **** extern "C" {
  11:lvgl/demos/music/../../src/widgets/lv_slider.h **** #endif
  12:lvgl/demos/music/../../src/widgets/lv_slider.h **** 
  13:lvgl/demos/music/../../src/widgets/lv_slider.h **** /*********************
  14:lvgl/demos/music/../../src/widgets/lv_slider.h ****  *      INCLUDES
  15:lvgl/demos/music/../../src/widgets/lv_slider.h ****  *********************/
  16:lvgl/demos/music/../../src/widgets/lv_slider.h **** #include "../lv_conf_internal.h"
  17:lvgl/demos/music/../../src/widgets/lv_slider.h **** 
ARM GAS  C:\Users\OSD\AppData\Local\Temp\ccMhRpSZ.s 			page 25


  18:lvgl/demos/music/../../src/widgets/lv_slider.h **** #if LV_USE_SLIDER != 0
  19:lvgl/demos/music/../../src/widgets/lv_slider.h **** 
  20:lvgl/demos/music/../../src/widgets/lv_slider.h **** /*Testing of dependencies*/
  21:lvgl/demos/music/../../src/widgets/lv_slider.h **** #if LV_USE_BAR == 0
  22:lvgl/demos/music/../../src/widgets/lv_slider.h **** #error "lv_slider: lv_bar is required. Enable it in lv_conf.h (LV_USE_BAR 1)"
  23:lvgl/demos/music/../../src/widgets/lv_slider.h **** #endif
  24:lvgl/demos/music/../../src/widgets/lv_slider.h **** 
  25:lvgl/demos/music/../../src/widgets/lv_slider.h **** #include "../core/lv_obj.h"
  26:lvgl/demos/music/../../src/widgets/lv_slider.h **** #include "lv_bar.h"
  27:lvgl/demos/music/../../src/widgets/lv_slider.h **** 
  28:lvgl/demos/music/../../src/widgets/lv_slider.h **** /*********************
  29:lvgl/demos/music/../../src/widgets/lv_slider.h ****  *      DEFINES
  30:lvgl/demos/music/../../src/widgets/lv_slider.h ****  *********************/
  31:lvgl/demos/music/../../src/widgets/lv_slider.h **** 
  32:lvgl/demos/music/../../src/widgets/lv_slider.h **** /**********************
  33:lvgl/demos/music/../../src/widgets/lv_slider.h ****  *      TYPEDEFS
  34:lvgl/demos/music/../../src/widgets/lv_slider.h ****  **********************/
  35:lvgl/demos/music/../../src/widgets/lv_slider.h **** 
  36:lvgl/demos/music/../../src/widgets/lv_slider.h **** enum {
  37:lvgl/demos/music/../../src/widgets/lv_slider.h ****     LV_SLIDER_MODE_NORMAL = LV_BAR_MODE_NORMAL,
  38:lvgl/demos/music/../../src/widgets/lv_slider.h ****     LV_SLIDER_MODE_SYMMETRICAL = LV_BAR_MODE_SYMMETRICAL,
  39:lvgl/demos/music/../../src/widgets/lv_slider.h ****     LV_SLIDER_MODE_RANGE = LV_BAR_MODE_RANGE
  40:lvgl/demos/music/../../src/widgets/lv_slider.h **** };
  41:lvgl/demos/music/../../src/widgets/lv_slider.h **** typedef uint8_t lv_slider_mode_t;
  42:lvgl/demos/music/../../src/widgets/lv_slider.h **** 
  43:lvgl/demos/music/../../src/widgets/lv_slider.h **** typedef struct {
  44:lvgl/demos/music/../../src/widgets/lv_slider.h ****     lv_bar_t bar;       /*Add the ancestor's type first*/
  45:lvgl/demos/music/../../src/widgets/lv_slider.h ****     lv_area_t left_knob_area;
  46:lvgl/demos/music/../../src/widgets/lv_slider.h ****     lv_area_t right_knob_area;
  47:lvgl/demos/music/../../src/widgets/lv_slider.h ****     int32_t * value_to_set; /*Which bar value to set*/
  48:lvgl/demos/music/../../src/widgets/lv_slider.h ****     uint8_t dragging : 1;       /*1: the slider is being dragged*/
  49:lvgl/demos/music/../../src/widgets/lv_slider.h ****     uint8_t left_knob_focus : 1; /*1: with encoder now the right knob can be adjusted*/
  50:lvgl/demos/music/../../src/widgets/lv_slider.h **** } lv_slider_t;
  51:lvgl/demos/music/../../src/widgets/lv_slider.h **** 
  52:lvgl/demos/music/../../src/widgets/lv_slider.h **** extern const lv_obj_class_t lv_slider_class;
  53:lvgl/demos/music/../../src/widgets/lv_slider.h **** 
  54:lvgl/demos/music/../../src/widgets/lv_slider.h **** /**
  55:lvgl/demos/music/../../src/widgets/lv_slider.h ****  * `type` field in `lv_obj_draw_part_dsc_t` if `class_p = lv_slider_class`
  56:lvgl/demos/music/../../src/widgets/lv_slider.h ****  * Used in `LV_EVENT_DRAW_PART_BEGIN` and `LV_EVENT_DRAW_PART_END`
  57:lvgl/demos/music/../../src/widgets/lv_slider.h ****  */
  58:lvgl/demos/music/../../src/widgets/lv_slider.h **** typedef enum {
  59:lvgl/demos/music/../../src/widgets/lv_slider.h ****     LV_SLIDER_DRAW_PART_KNOB,           /**< The main (right) knob's rectangle*/
  60:lvgl/demos/music/../../src/widgets/lv_slider.h ****     LV_SLIDER_DRAW_PART_KNOB_LEFT,      /**< The left knob's rectangle*/
  61:lvgl/demos/music/../../src/widgets/lv_slider.h **** } lv_slider_draw_part_type_t;
  62:lvgl/demos/music/../../src/widgets/lv_slider.h **** 
  63:lvgl/demos/music/../../src/widgets/lv_slider.h **** /**********************
  64:lvgl/demos/music/../../src/widgets/lv_slider.h ****  * GLOBAL PROTOTYPES
  65:lvgl/demos/music/../../src/widgets/lv_slider.h ****  **********************/
  66:lvgl/demos/music/../../src/widgets/lv_slider.h **** 
  67:lvgl/demos/music/../../src/widgets/lv_slider.h **** /**
  68:lvgl/demos/music/../../src/widgets/lv_slider.h ****  * Create a slider object
  69:lvgl/demos/music/../../src/widgets/lv_slider.h ****  * @param parent    pointer to an object, it will be the parent of the new slider.
  70:lvgl/demos/music/../../src/widgets/lv_slider.h ****  * @return          pointer to the created slider
  71:lvgl/demos/music/../../src/widgets/lv_slider.h ****  */
  72:lvgl/demos/music/../../src/widgets/lv_slider.h **** lv_obj_t * lv_slider_create(lv_obj_t * parent);
  73:lvgl/demos/music/../../src/widgets/lv_slider.h **** 
  74:lvgl/demos/music/../../src/widgets/lv_slider.h **** /*=====================
ARM GAS  C:\Users\OSD\AppData\Local\Temp\ccMhRpSZ.s 			page 26


  75:lvgl/demos/music/../../src/widgets/lv_slider.h ****  * Setter functions
  76:lvgl/demos/music/../../src/widgets/lv_slider.h ****  *====================*/
  77:lvgl/demos/music/../../src/widgets/lv_slider.h **** 
  78:lvgl/demos/music/../../src/widgets/lv_slider.h **** /**
  79:lvgl/demos/music/../../src/widgets/lv_slider.h ****  * Set a new value on the slider
  80:lvgl/demos/music/../../src/widgets/lv_slider.h ****  * @param obj       pointer to a slider object
  81:lvgl/demos/music/../../src/widgets/lv_slider.h ****  * @param value     the new value
  82:lvgl/demos/music/../../src/widgets/lv_slider.h ****  * @param anim      LV_ANIM_ON: set the value with an animation; LV_ANIM_OFF: change the value imme
  83:lvgl/demos/music/../../src/widgets/lv_slider.h ****  */
  84:lvgl/demos/music/../../src/widgets/lv_slider.h **** static inline void lv_slider_set_value(lv_obj_t * obj, int32_t value, lv_anim_enable_t anim)
 308              		.loc 2 84 20 view .LVU70
 309              	.LBB183:
  85:lvgl/demos/music/../../src/widgets/lv_slider.h **** {
  86:lvgl/demos/music/../../src/widgets/lv_slider.h ****     lv_bar_set_value(obj, value, anim);
 310              		.loc 2 86 5 view .LVU71
 311 0024 0122     		movs	r2, #1
 312 0026 2168     		ldr	r1, [r4]
 313 0028 064B     		ldr	r3, .L22+16
 314 002a 1868     		ldr	r0, [r3]
 315 002c FFF7FEFF 		bl	lv_bar_set_value
 316              	.LVL19:
 317              		.loc 2 86 5 is_stmt 0 view .LVU72
 318              	.LBE183:
 319              	.LBE182:
 990:lvgl/demos/music/lv_demo_music_main.c **** 
 320              		.loc 1 990 1 view .LVU73
 321 0030 10BD     		pop	{r4, pc}
 322              	.L23:
 323 0032 00BF     		.align	2
 324              	.L22:
 325 0034 00000000 		.word	.LANCHOR11
 326 0038 89888888 		.word	-2004318071
 327 003c 00000000 		.word	.LC0
 328 0040 00000000 		.word	.LANCHOR12
 329 0044 00000000 		.word	.LANCHOR13
 330              		.cfi_endproc
 331              	.LFE230:
 333              		.section	.text.create_wave_images,"ax",%progbits
 334              		.align	1
 335              		.syntax unified
 336              		.thumb
 337              		.thumb_func
 339              	create_wave_images:
 340              	.LVL20:
 341              	.LFB213:
 438:lvgl/demos/music/lv_demo_music_main.c ****     LV_IMG_DECLARE(img_lv_demo_music_wave_top);
 342              		.loc 1 438 1 is_stmt 1 view -0
 343              		.cfi_startproc
 344              		@ args = 0, pretend = 0, frame = 0
 345              		@ frame_needed = 0, uses_anonymous_args = 0
 438:lvgl/demos/music/lv_demo_music_main.c ****     LV_IMG_DECLARE(img_lv_demo_music_wave_top);
 346              		.loc 1 438 1 is_stmt 0 view .LVU75
 347 0000 38B5     		push	{r3, r4, r5, lr}
 348              		.cfi_def_cfa_offset 16
 349              		.cfi_offset 3, -16
 350              		.cfi_offset 4, -12
 351              		.cfi_offset 5, -8
ARM GAS  C:\Users\OSD\AppData\Local\Temp\ccMhRpSZ.s 			page 27


 352              		.cfi_offset 14, -4
 353 0002 0446     		mov	r4, r0
 439:lvgl/demos/music/lv_demo_music_main.c ****     LV_IMG_DECLARE(img_lv_demo_music_wave_bottom);
 354              		.loc 1 439 5 is_stmt 1 view .LVU76
 439:lvgl/demos/music/lv_demo_music_main.c ****     LV_IMG_DECLARE(img_lv_demo_music_wave_bottom);
 355              		.loc 1 439 47 view .LVU77
 440:lvgl/demos/music/lv_demo_music_main.c ****     lv_obj_t * wave_top = lv_img_create(parent);
 356              		.loc 1 440 5 view .LVU78
 440:lvgl/demos/music/lv_demo_music_main.c ****     lv_obj_t * wave_top = lv_img_create(parent);
 357              		.loc 1 440 50 view .LVU79
 441:lvgl/demos/music/lv_demo_music_main.c ****     lv_img_set_src(wave_top, &img_lv_demo_music_wave_top);
 358              		.loc 1 441 5 view .LVU80
 441:lvgl/demos/music/lv_demo_music_main.c ****     lv_img_set_src(wave_top, &img_lv_demo_music_wave_top);
 359              		.loc 1 441 27 is_stmt 0 view .LVU81
 360 0004 FFF7FEFF 		bl	lv_img_create
 361              	.LVL21:
 441:lvgl/demos/music/lv_demo_music_main.c ****     lv_img_set_src(wave_top, &img_lv_demo_music_wave_top);
 362              		.loc 1 441 27 view .LVU82
 363 0008 0546     		mov	r5, r0
 364              	.LVL22:
 442:lvgl/demos/music/lv_demo_music_main.c ****     lv_obj_set_width(wave_top, LV_HOR_RES);
 365              		.loc 1 442 5 is_stmt 1 view .LVU83
 366 000a 2A49     		ldr	r1, .L26
 367 000c FFF7FEFF 		bl	lv_img_set_src
 368              	.LVL23:
 443:lvgl/demos/music/lv_demo_music_main.c ****     lv_obj_align(wave_top, LV_ALIGN_TOP_MID, 0, 0);
 369              		.loc 1 443 5 view .LVU84
 370 0010 FFF7FEFF 		bl	lv_disp_get_default
 371              	.LVL24:
 372 0014 FFF7FEFF 		bl	lv_disp_get_hor_res
 373              	.LVL25:
 374 0018 0146     		mov	r1, r0
 375 001a 2846     		mov	r0, r5
 376 001c FFF7FEFF 		bl	lv_obj_set_width
 377              	.LVL26:
 444:lvgl/demos/music/lv_demo_music_main.c ****     lv_obj_add_flag(wave_top, LV_OBJ_FLAG_IGNORE_LAYOUT);
 378              		.loc 1 444 5 view .LVU85
 379 0020 0023     		movs	r3, #0
 380 0022 1A46     		mov	r2, r3
 381 0024 0221     		movs	r1, #2
 382 0026 2846     		mov	r0, r5
 383 0028 FFF7FEFF 		bl	lv_obj_align
 384              	.LVL27:
 445:lvgl/demos/music/lv_demo_music_main.c **** 
 385              		.loc 1 445 5 view .LVU86
 386 002c 4FF40031 		mov	r1, #131072
 387 0030 2846     		mov	r0, r5
 388 0032 FFF7FEFF 		bl	lv_obj_add_flag
 389              	.LVL28:
 447:lvgl/demos/music/lv_demo_music_main.c ****     lv_img_set_src(wave_bottom, &img_lv_demo_music_wave_bottom);
 390              		.loc 1 447 5 view .LVU87
 447:lvgl/demos/music/lv_demo_music_main.c ****     lv_img_set_src(wave_bottom, &img_lv_demo_music_wave_bottom);
 391              		.loc 1 447 30 is_stmt 0 view .LVU88
 392 0036 2046     		mov	r0, r4
 393 0038 FFF7FEFF 		bl	lv_img_create
 394              	.LVL29:
 395 003c 0546     		mov	r5, r0
ARM GAS  C:\Users\OSD\AppData\Local\Temp\ccMhRpSZ.s 			page 28


 396              	.LVL30:
 448:lvgl/demos/music/lv_demo_music_main.c ****     lv_obj_set_width(wave_bottom, LV_HOR_RES);
 397              		.loc 1 448 5 is_stmt 1 view .LVU89
 398 003e 1E49     		ldr	r1, .L26+4
 399 0040 FFF7FEFF 		bl	lv_img_set_src
 400              	.LVL31:
 449:lvgl/demos/music/lv_demo_music_main.c ****     lv_obj_align(wave_bottom, LV_ALIGN_BOTTOM_MID, 0, 0);
 401              		.loc 1 449 5 view .LVU90
 402 0044 FFF7FEFF 		bl	lv_disp_get_default
 403              	.LVL32:
 404 0048 FFF7FEFF 		bl	lv_disp_get_hor_res
 405              	.LVL33:
 406 004c 0146     		mov	r1, r0
 407 004e 2846     		mov	r0, r5
 408 0050 FFF7FEFF 		bl	lv_obj_set_width
 409              	.LVL34:
 450:lvgl/demos/music/lv_demo_music_main.c ****     lv_obj_add_flag(wave_bottom, LV_OBJ_FLAG_IGNORE_LAYOUT);
 410              		.loc 1 450 5 view .LVU91
 411 0054 0023     		movs	r3, #0
 412 0056 1A46     		mov	r2, r3
 413 0058 0521     		movs	r1, #5
 414 005a 2846     		mov	r0, r5
 415 005c FFF7FEFF 		bl	lv_obj_align
 416              	.LVL35:
 451:lvgl/demos/music/lv_demo_music_main.c **** 
 417              		.loc 1 451 5 view .LVU92
 418 0060 4FF40031 		mov	r1, #131072
 419 0064 2846     		mov	r0, r5
 420 0066 FFF7FEFF 		bl	lv_obj_add_flag
 421              	.LVL36:
 453:lvgl/demos/music/lv_demo_music_main.c ****     LV_IMG_DECLARE(img_lv_demo_music_corner_right);
 422              		.loc 1 453 5 view .LVU93
 453:lvgl/demos/music/lv_demo_music_main.c ****     LV_IMG_DECLARE(img_lv_demo_music_corner_right);
 423              		.loc 1 453 50 view .LVU94
 454:lvgl/demos/music/lv_demo_music_main.c ****     lv_obj_t * wave_corner = lv_img_create(parent);
 424              		.loc 1 454 5 view .LVU95
 454:lvgl/demos/music/lv_demo_music_main.c ****     lv_obj_t * wave_corner = lv_img_create(parent);
 425              		.loc 1 454 51 view .LVU96
 455:lvgl/demos/music/lv_demo_music_main.c ****     lv_img_set_src(wave_corner, &img_lv_demo_music_corner_left);
 426              		.loc 1 455 5 view .LVU97
 455:lvgl/demos/music/lv_demo_music_main.c ****     lv_img_set_src(wave_corner, &img_lv_demo_music_corner_left);
 427              		.loc 1 455 30 is_stmt 0 view .LVU98
 428 006a 2046     		mov	r0, r4
 429 006c FFF7FEFF 		bl	lv_img_create
 430              	.LVL37:
 431 0070 0546     		mov	r5, r0
 432              	.LVL38:
 456:lvgl/demos/music/lv_demo_music_main.c **** #if LV_DEMO_MUSIC_ROUND == 0
 433              		.loc 1 456 5 is_stmt 1 view .LVU99
 434 0072 1249     		ldr	r1, .L26+8
 435 0074 FFF7FEFF 		bl	lv_img_set_src
 436              	.LVL39:
 458:lvgl/demos/music/lv_demo_music_main.c **** #else
 437              		.loc 1 458 5 view .LVU100
 438 0078 0023     		movs	r3, #0
 439 007a 1A46     		mov	r2, r3
 440 007c 0421     		movs	r1, #4
ARM GAS  C:\Users\OSD\AppData\Local\Temp\ccMhRpSZ.s 			page 29


 441 007e 2846     		mov	r0, r5
 442 0080 FFF7FEFF 		bl	lv_obj_align
 443              	.LVL40:
 462:lvgl/demos/music/lv_demo_music_main.c **** 
 444              		.loc 1 462 5 view .LVU101
 445 0084 4FF40031 		mov	r1, #131072
 446 0088 2846     		mov	r0, r5
 447 008a FFF7FEFF 		bl	lv_obj_add_flag
 448              	.LVL41:
 464:lvgl/demos/music/lv_demo_music_main.c ****     lv_img_set_src(wave_corner, &img_lv_demo_music_corner_right);
 449              		.loc 1 464 5 view .LVU102
 464:lvgl/demos/music/lv_demo_music_main.c ****     lv_img_set_src(wave_corner, &img_lv_demo_music_corner_right);
 450              		.loc 1 464 19 is_stmt 0 view .LVU103
 451 008e 2046     		mov	r0, r4
 452 0090 FFF7FEFF 		bl	lv_img_create
 453              	.LVL42:
 454 0094 0446     		mov	r4, r0
 455              	.LVL43:
 465:lvgl/demos/music/lv_demo_music_main.c **** #if LV_DEMO_MUSIC_ROUND == 0
 456              		.loc 1 465 5 is_stmt 1 view .LVU104
 457 0096 0A49     		ldr	r1, .L26+12
 458 0098 FFF7FEFF 		bl	lv_img_set_src
 459              	.LVL44:
 467:lvgl/demos/music/lv_demo_music_main.c **** #else
 460              		.loc 1 467 5 view .LVU105
 461 009c 0023     		movs	r3, #0
 462 009e 1A46     		mov	r2, r3
 463 00a0 0621     		movs	r1, #6
 464 00a2 2046     		mov	r0, r4
 465 00a4 FFF7FEFF 		bl	lv_obj_align
 466              	.LVL45:
 471:lvgl/demos/music/lv_demo_music_main.c **** }
 467              		.loc 1 471 5 view .LVU106
 468 00a8 4FF40031 		mov	r1, #131072
 469 00ac 2046     		mov	r0, r4
 470 00ae FFF7FEFF 		bl	lv_obj_add_flag
 471              	.LVL46:
 472:lvgl/demos/music/lv_demo_music_main.c **** 
 472              		.loc 1 472 1 is_stmt 0 view .LVU107
 473 00b2 38BD     		pop	{r3, r4, r5, pc}
 474              	.LVL47:
 475              	.L27:
 472:lvgl/demos/music/lv_demo_music_main.c **** 
 476              		.loc 1 472 1 view .LVU108
 477              		.align	2
 478              	.L26:
 479 00b4 00000000 		.word	img_lv_demo_music_wave_top
 480 00b8 00000000 		.word	img_lv_demo_music_wave_bottom
 481 00bc 00000000 		.word	img_lv_demo_music_corner_left
 482 00c0 00000000 		.word	img_lv_demo_music_corner_right
 483              		.cfi_endproc
 484              	.LFE213:
 486              		.section	.text.create_icon_box,"ax",%progbits
 487              		.align	1
 488              		.syntax unified
 489              		.thumb
 490              		.thumb_func
ARM GAS  C:\Users\OSD\AppData\Local\Temp\ccMhRpSZ.s 			page 30


 492              	create_icon_box:
 493              	.LVL48:
 494              	.LFB215:
 504:lvgl/demos/music/lv_demo_music_main.c **** 
 495              		.loc 1 504 1 is_stmt 1 view -0
 496              		.cfi_startproc
 497              		@ args = 0, pretend = 0, frame = 0
 498              		@ frame_needed = 0, uses_anonymous_args = 0
 504:lvgl/demos/music/lv_demo_music_main.c **** 
 499              		.loc 1 504 1 is_stmt 0 view .LVU110
 500 0000 10B5     		push	{r4, lr}
 501              		.cfi_def_cfa_offset 8
 502              		.cfi_offset 4, -8
 503              		.cfi_offset 14, -4
 506:lvgl/demos/music/lv_demo_music_main.c ****     lv_obj_remove_style_all(cont);
 504              		.loc 1 506 5 is_stmt 1 view .LVU111
 506:lvgl/demos/music/lv_demo_music_main.c ****     lv_obj_remove_style_all(cont);
 505              		.loc 1 506 23 is_stmt 0 view .LVU112
 506 0002 FFF7FEFF 		bl	lv_obj_create
 507              	.LVL49:
 506:lvgl/demos/music/lv_demo_music_main.c ****     lv_obj_remove_style_all(cont);
 508              		.loc 1 506 23 view .LVU113
 509 0006 0446     		mov	r4, r0
 510              	.LVL50:
 507:lvgl/demos/music/lv_demo_music_main.c ****     lv_obj_set_height(cont, LV_SIZE_CONTENT);
 511              		.loc 1 507 5 is_stmt 1 view .LVU114
 512              	.LBB184:
 513              	.LBI184:
 514              		.file 3 "lvgl/demos/music/../../src/core/lv_obj_style.h"
   1:lvgl/demos/music/../../src/core/lv_obj_style.h **** /**
   2:lvgl/demos/music/../../src/core/lv_obj_style.h ****  * @file lv_obj_style.h
   3:lvgl/demos/music/../../src/core/lv_obj_style.h ****  *
   4:lvgl/demos/music/../../src/core/lv_obj_style.h ****  */
   5:lvgl/demos/music/../../src/core/lv_obj_style.h **** 
   6:lvgl/demos/music/../../src/core/lv_obj_style.h **** #ifndef LV_OBJ_STYLE_H
   7:lvgl/demos/music/../../src/core/lv_obj_style.h **** #define LV_OBJ_STYLE_H
   8:lvgl/demos/music/../../src/core/lv_obj_style.h **** 
   9:lvgl/demos/music/../../src/core/lv_obj_style.h **** #ifdef __cplusplus
  10:lvgl/demos/music/../../src/core/lv_obj_style.h **** extern "C" {
  11:lvgl/demos/music/../../src/core/lv_obj_style.h **** #endif
  12:lvgl/demos/music/../../src/core/lv_obj_style.h **** 
  13:lvgl/demos/music/../../src/core/lv_obj_style.h **** /*********************
  14:lvgl/demos/music/../../src/core/lv_obj_style.h ****  *      INCLUDES
  15:lvgl/demos/music/../../src/core/lv_obj_style.h ****  *********************/
  16:lvgl/demos/music/../../src/core/lv_obj_style.h **** #include <stdint.h>
  17:lvgl/demos/music/../../src/core/lv_obj_style.h **** #include <stdbool.h>
  18:lvgl/demos/music/../../src/core/lv_obj_style.h **** #include "../misc/lv_bidi.h"
  19:lvgl/demos/music/../../src/core/lv_obj_style.h **** 
  20:lvgl/demos/music/../../src/core/lv_obj_style.h **** /*********************
  21:lvgl/demos/music/../../src/core/lv_obj_style.h ****  *      DEFINES
  22:lvgl/demos/music/../../src/core/lv_obj_style.h ****  *********************/
  23:lvgl/demos/music/../../src/core/lv_obj_style.h **** 
  24:lvgl/demos/music/../../src/core/lv_obj_style.h **** /**********************
  25:lvgl/demos/music/../../src/core/lv_obj_style.h ****  *      TYPEDEFS
  26:lvgl/demos/music/../../src/core/lv_obj_style.h ****  **********************/
  27:lvgl/demos/music/../../src/core/lv_obj_style.h **** /*Can't include lv_obj.h because it includes this header file*/
  28:lvgl/demos/music/../../src/core/lv_obj_style.h **** struct _lv_obj_t;
ARM GAS  C:\Users\OSD\AppData\Local\Temp\ccMhRpSZ.s 			page 31


  29:lvgl/demos/music/../../src/core/lv_obj_style.h **** 
  30:lvgl/demos/music/../../src/core/lv_obj_style.h **** typedef enum {
  31:lvgl/demos/music/../../src/core/lv_obj_style.h ****     _LV_STYLE_STATE_CMP_SAME,           /*The style properties in the 2 states are identical*/
  32:lvgl/demos/music/../../src/core/lv_obj_style.h ****     _LV_STYLE_STATE_CMP_DIFF_REDRAW,    /*The differences can be shown with a simple redraw*/
  33:lvgl/demos/music/../../src/core/lv_obj_style.h ****     _LV_STYLE_STATE_CMP_DIFF_DRAW_PAD,  /*The differences can be shown with a simple redraw*/
  34:lvgl/demos/music/../../src/core/lv_obj_style.h ****     _LV_STYLE_STATE_CMP_DIFF_LAYOUT,    /*The differences can be shown with a simple redraw*/
  35:lvgl/demos/music/../../src/core/lv_obj_style.h **** } _lv_style_state_cmp_t;
  36:lvgl/demos/music/../../src/core/lv_obj_style.h **** 
  37:lvgl/demos/music/../../src/core/lv_obj_style.h **** typedef uint32_t lv_style_selector_t;
  38:lvgl/demos/music/../../src/core/lv_obj_style.h **** 
  39:lvgl/demos/music/../../src/core/lv_obj_style.h **** typedef struct {
  40:lvgl/demos/music/../../src/core/lv_obj_style.h ****     lv_style_t * style;
  41:lvgl/demos/music/../../src/core/lv_obj_style.h ****     uint32_t selector : 24;
  42:lvgl/demos/music/../../src/core/lv_obj_style.h ****     uint32_t is_local : 1;
  43:lvgl/demos/music/../../src/core/lv_obj_style.h ****     uint32_t is_trans : 1;
  44:lvgl/demos/music/../../src/core/lv_obj_style.h **** } _lv_obj_style_t;
  45:lvgl/demos/music/../../src/core/lv_obj_style.h **** 
  46:lvgl/demos/music/../../src/core/lv_obj_style.h **** typedef struct {
  47:lvgl/demos/music/../../src/core/lv_obj_style.h ****     uint16_t time;
  48:lvgl/demos/music/../../src/core/lv_obj_style.h ****     uint16_t delay;
  49:lvgl/demos/music/../../src/core/lv_obj_style.h ****     lv_style_selector_t selector;
  50:lvgl/demos/music/../../src/core/lv_obj_style.h ****     lv_style_prop_t prop;
  51:lvgl/demos/music/../../src/core/lv_obj_style.h ****     lv_anim_path_cb_t path_cb;
  52:lvgl/demos/music/../../src/core/lv_obj_style.h **** #if LV_USE_USER_DATA
  53:lvgl/demos/music/../../src/core/lv_obj_style.h ****     void * user_data;
  54:lvgl/demos/music/../../src/core/lv_obj_style.h **** #endif
  55:lvgl/demos/music/../../src/core/lv_obj_style.h **** } _lv_obj_style_transition_dsc_t;
  56:lvgl/demos/music/../../src/core/lv_obj_style.h **** 
  57:lvgl/demos/music/../../src/core/lv_obj_style.h **** /**********************
  58:lvgl/demos/music/../../src/core/lv_obj_style.h ****  * GLOBAL PROTOTYPES
  59:lvgl/demos/music/../../src/core/lv_obj_style.h ****  **********************/
  60:lvgl/demos/music/../../src/core/lv_obj_style.h **** 
  61:lvgl/demos/music/../../src/core/lv_obj_style.h **** /**
  62:lvgl/demos/music/../../src/core/lv_obj_style.h ****  * Initialize the object related style manager module.
  63:lvgl/demos/music/../../src/core/lv_obj_style.h ****  * Called by LVGL in `lv_init()`
  64:lvgl/demos/music/../../src/core/lv_obj_style.h ****  */
  65:lvgl/demos/music/../../src/core/lv_obj_style.h **** void _lv_obj_style_init(void);
  66:lvgl/demos/music/../../src/core/lv_obj_style.h **** 
  67:lvgl/demos/music/../../src/core/lv_obj_style.h **** /**
  68:lvgl/demos/music/../../src/core/lv_obj_style.h ****  * Add a style to an object.
  69:lvgl/demos/music/../../src/core/lv_obj_style.h ****  * @param obj       pointer to an object
  70:lvgl/demos/music/../../src/core/lv_obj_style.h ****  * @param style     pointer to a style to add
  71:lvgl/demos/music/../../src/core/lv_obj_style.h ****  * @param selector  OR-ed value of parts and state to which the style should be added
  72:lvgl/demos/music/../../src/core/lv_obj_style.h ****  * @example         lv_obj_add_style(btn, &style_btn, 0); //Default button style
  73:lvgl/demos/music/../../src/core/lv_obj_style.h ****  * @example         lv_obj_add_style(btn, &btn_red, LV_STATE_PRESSED); //Overwrite only some colors
  74:lvgl/demos/music/../../src/core/lv_obj_style.h ****  */
  75:lvgl/demos/music/../../src/core/lv_obj_style.h **** void lv_obj_add_style(struct _lv_obj_t * obj, lv_style_t * style, lv_style_selector_t selector);
  76:lvgl/demos/music/../../src/core/lv_obj_style.h **** 
  77:lvgl/demos/music/../../src/core/lv_obj_style.h **** /**
  78:lvgl/demos/music/../../src/core/lv_obj_style.h ****  * Add a style to an object.
  79:lvgl/demos/music/../../src/core/lv_obj_style.h ****  * @param obj       pointer to an object
  80:lvgl/demos/music/../../src/core/lv_obj_style.h ****  * @param style     pointer to a style to remove. Can be NULL to check only the selector
  81:lvgl/demos/music/../../src/core/lv_obj_style.h ****  * @param selector  OR-ed values of states and a part to remove only styles with matching selectors
  82:lvgl/demos/music/../../src/core/lv_obj_style.h ****  * @example lv_obj_remove_style(obj, &style, LV_PART_ANY | LV_STATE_ANY); //Remove a specific style
  83:lvgl/demos/music/../../src/core/lv_obj_style.h ****  * @example lv_obj_remove_style(obj, NULL, LV_PART_MAIN | LV_STATE_ANY); //Remove all styles from t
  84:lvgl/demos/music/../../src/core/lv_obj_style.h ****  * @example lv_obj_remove_style(obj, NULL, LV_PART_ANY | LV_STATE_ANY); //Remove all styles
  85:lvgl/demos/music/../../src/core/lv_obj_style.h ****  */
ARM GAS  C:\Users\OSD\AppData\Local\Temp\ccMhRpSZ.s 			page 32


  86:lvgl/demos/music/../../src/core/lv_obj_style.h **** void lv_obj_remove_style(struct _lv_obj_t * obj, lv_style_t * style, lv_style_selector_t selector);
  87:lvgl/demos/music/../../src/core/lv_obj_style.h **** 
  88:lvgl/demos/music/../../src/core/lv_obj_style.h **** /**
  89:lvgl/demos/music/../../src/core/lv_obj_style.h ****  * Remove all styles from an object
  90:lvgl/demos/music/../../src/core/lv_obj_style.h ****  * @param obj       pointer to an object
  91:lvgl/demos/music/../../src/core/lv_obj_style.h ****  */
  92:lvgl/demos/music/../../src/core/lv_obj_style.h **** static inline void lv_obj_remove_style_all(struct _lv_obj_t * obj)
 515              		.loc 3 92 20 view .LVU115
 516              	.LBB185:
  93:lvgl/demos/music/../../src/core/lv_obj_style.h **** {
  94:lvgl/demos/music/../../src/core/lv_obj_style.h ****     lv_obj_remove_style(obj, NULL, (lv_style_selector_t)LV_PART_ANY | (lv_style_selector_t)LV_STATE
 517              		.loc 3 94 5 view .LVU116
 518 0008 164A     		ldr	r2, .L30
 519 000a 0021     		movs	r1, #0
 520 000c FFF7FEFF 		bl	lv_obj_remove_style
 521              	.LVL51:
 522              		.loc 3 94 5 is_stmt 0 view .LVU117
 523              	.LBE185:
 524              	.LBE184:
 508:lvgl/demos/music/lv_demo_music_main.c ****     lv_obj_set_flex_flow(cont, LV_FLEX_FLOW_ROW);
 525              		.loc 1 508 5 is_stmt 1 view .LVU118
 526 0010 42F2D171 		movw	r1, #10193
 527 0014 2046     		mov	r0, r4
 528 0016 FFF7FEFF 		bl	lv_obj_set_height
 529              	.LVL52:
 509:lvgl/demos/music/lv_demo_music_main.c ****     lv_obj_set_flex_align(cont, LV_FLEX_ALIGN_SPACE_EVENLY, LV_FLEX_ALIGN_CENTER, LV_FLEX_ALIGN_CEN
 530              		.loc 1 509 5 view .LVU119
 531 001a 0021     		movs	r1, #0
 532 001c 2046     		mov	r0, r4
 533 001e FFF7FEFF 		bl	lv_obj_set_flex_flow
 534              	.LVL53:
 510:lvgl/demos/music/lv_demo_music_main.c **** 
 535              		.loc 1 510 5 view .LVU120
 536 0022 0223     		movs	r3, #2
 537 0024 1A46     		mov	r2, r3
 538 0026 0321     		movs	r1, #3
 539 0028 2046     		mov	r0, r4
 540 002a FFF7FEFF 		bl	lv_obj_set_flex_align
 541              	.LVL54:
 512:lvgl/demos/music/lv_demo_music_main.c ****     LV_IMG_DECLARE(img_lv_demo_music_icon_1);
 542              		.loc 1 512 5 view .LVU121
 513:lvgl/demos/music/lv_demo_music_main.c ****     LV_IMG_DECLARE(img_lv_demo_music_icon_2);
 543              		.loc 1 513 5 view .LVU122
 513:lvgl/demos/music/lv_demo_music_main.c ****     LV_IMG_DECLARE(img_lv_demo_music_icon_2);
 544              		.loc 1 513 45 view .LVU123
 514:lvgl/demos/music/lv_demo_music_main.c ****     LV_IMG_DECLARE(img_lv_demo_music_icon_3);
 545              		.loc 1 514 5 view .LVU124
 514:lvgl/demos/music/lv_demo_music_main.c ****     LV_IMG_DECLARE(img_lv_demo_music_icon_3);
 546              		.loc 1 514 45 view .LVU125
 515:lvgl/demos/music/lv_demo_music_main.c ****     LV_IMG_DECLARE(img_lv_demo_music_icon_4);
 547              		.loc 1 515 5 view .LVU126
 515:lvgl/demos/music/lv_demo_music_main.c ****     LV_IMG_DECLARE(img_lv_demo_music_icon_4);
 548              		.loc 1 515 45 view .LVU127
 516:lvgl/demos/music/lv_demo_music_main.c ****     icon = lv_img_create(cont);
 549              		.loc 1 516 5 view .LVU128
 516:lvgl/demos/music/lv_demo_music_main.c ****     icon = lv_img_create(cont);
 550              		.loc 1 516 45 view .LVU129
ARM GAS  C:\Users\OSD\AppData\Local\Temp\ccMhRpSZ.s 			page 33


 517:lvgl/demos/music/lv_demo_music_main.c ****     lv_img_set_src(icon, &img_lv_demo_music_icon_1);
 551              		.loc 1 517 5 view .LVU130
 517:lvgl/demos/music/lv_demo_music_main.c ****     lv_img_set_src(icon, &img_lv_demo_music_icon_1);
 552              		.loc 1 517 12 is_stmt 0 view .LVU131
 553 002e 2046     		mov	r0, r4
 554 0030 FFF7FEFF 		bl	lv_img_create
 555              	.LVL55:
 518:lvgl/demos/music/lv_demo_music_main.c ****     icon = lv_img_create(cont);
 556              		.loc 1 518 5 is_stmt 1 view .LVU132
 557 0034 0C49     		ldr	r1, .L30+4
 558 0036 FFF7FEFF 		bl	lv_img_set_src
 559              	.LVL56:
 519:lvgl/demos/music/lv_demo_music_main.c ****     lv_img_set_src(icon, &img_lv_demo_music_icon_2);
 560              		.loc 1 519 5 view .LVU133
 519:lvgl/demos/music/lv_demo_music_main.c ****     lv_img_set_src(icon, &img_lv_demo_music_icon_2);
 561              		.loc 1 519 12 is_stmt 0 view .LVU134
 562 003a 2046     		mov	r0, r4
 563 003c FFF7FEFF 		bl	lv_img_create
 564              	.LVL57:
 520:lvgl/demos/music/lv_demo_music_main.c ****     icon = lv_img_create(cont);
 565              		.loc 1 520 5 is_stmt 1 view .LVU135
 566 0040 0A49     		ldr	r1, .L30+8
 567 0042 FFF7FEFF 		bl	lv_img_set_src
 568              	.LVL58:
 521:lvgl/demos/music/lv_demo_music_main.c ****     lv_img_set_src(icon, &img_lv_demo_music_icon_3);
 569              		.loc 1 521 5 view .LVU136
 521:lvgl/demos/music/lv_demo_music_main.c ****     lv_img_set_src(icon, &img_lv_demo_music_icon_3);
 570              		.loc 1 521 12 is_stmt 0 view .LVU137
 571 0046 2046     		mov	r0, r4
 572 0048 FFF7FEFF 		bl	lv_img_create
 573              	.LVL59:
 522:lvgl/demos/music/lv_demo_music_main.c ****     icon = lv_img_create(cont);
 574              		.loc 1 522 5 is_stmt 1 view .LVU138
 575 004c 0849     		ldr	r1, .L30+12
 576 004e FFF7FEFF 		bl	lv_img_set_src
 577              	.LVL60:
 523:lvgl/demos/music/lv_demo_music_main.c ****     lv_img_set_src(icon, &img_lv_demo_music_icon_4);
 578              		.loc 1 523 5 view .LVU139
 523:lvgl/demos/music/lv_demo_music_main.c ****     lv_img_set_src(icon, &img_lv_demo_music_icon_4);
 579              		.loc 1 523 12 is_stmt 0 view .LVU140
 580 0052 2046     		mov	r0, r4
 581 0054 FFF7FEFF 		bl	lv_img_create
 582              	.LVL61:
 524:lvgl/demos/music/lv_demo_music_main.c **** 
 583              		.loc 1 524 5 is_stmt 1 view .LVU141
 584 0058 0649     		ldr	r1, .L30+16
 585 005a FFF7FEFF 		bl	lv_img_set_src
 586              	.LVL62:
 526:lvgl/demos/music/lv_demo_music_main.c **** }
 587              		.loc 1 526 5 view .LVU142
 527:lvgl/demos/music/lv_demo_music_main.c **** 
 588              		.loc 1 527 1 is_stmt 0 view .LVU143
 589 005e 2046     		mov	r0, r4
 590 0060 10BD     		pop	{r4, pc}
 591              	.LVL63:
 592              	.L31:
 527:lvgl/demos/music/lv_demo_music_main.c **** 
ARM GAS  C:\Users\OSD\AppData\Local\Temp\ccMhRpSZ.s 			page 34


 593              		.loc 1 527 1 view .LVU144
 594 0062 00BF     		.align	2
 595              	.L30:
 596 0064 FFFF0F00 		.word	1048575
 597 0068 00000000 		.word	img_lv_demo_music_icon_1
 598 006c 00000000 		.word	img_lv_demo_music_icon_2
 599 0070 00000000 		.word	img_lv_demo_music_icon_3
 600 0074 00000000 		.word	img_lv_demo_music_icon_4
 601              		.cfi_endproc
 602              	.LFE215:
 604              		.section	.text.create_title_box,"ax",%progbits
 605              		.align	1
 606              		.syntax unified
 607              		.thumb
 608              		.thumb_func
 610              	create_title_box:
 611              	.LVL64:
 612              	.LFB214:
 475:lvgl/demos/music/lv_demo_music_main.c **** 
 613              		.loc 1 475 1 is_stmt 1 view -0
 614              		.cfi_startproc
 615              		@ args = 0, pretend = 0, frame = 0
 616              		@ frame_needed = 0, uses_anonymous_args = 0
 475:lvgl/demos/music/lv_demo_music_main.c **** 
 617              		.loc 1 475 1 is_stmt 0 view .LVU146
 618 0000 F8B5     		push	{r3, r4, r5, r6, r7, lr}
 619              		.cfi_def_cfa_offset 24
 620              		.cfi_offset 3, -24
 621              		.cfi_offset 4, -20
 622              		.cfi_offset 5, -16
 623              		.cfi_offset 6, -12
 624              		.cfi_offset 7, -8
 625              		.cfi_offset 14, -4
 478:lvgl/demos/music/lv_demo_music_main.c ****     lv_obj_remove_style_all(cont);
 626              		.loc 1 478 5 is_stmt 1 view .LVU147
 478:lvgl/demos/music/lv_demo_music_main.c ****     lv_obj_remove_style_all(cont);
 627              		.loc 1 478 23 is_stmt 0 view .LVU148
 628 0002 FFF7FEFF 		bl	lv_obj_create
 629              	.LVL65:
 478:lvgl/demos/music/lv_demo_music_main.c ****     lv_obj_remove_style_all(cont);
 630              		.loc 1 478 23 view .LVU149
 631 0006 0446     		mov	r4, r0
 632              	.LVL66:
 479:lvgl/demos/music/lv_demo_music_main.c ****     lv_obj_set_height(cont, LV_SIZE_CONTENT);
 633              		.loc 1 479 5 is_stmt 1 view .LVU150
 634              	.LBB186:
 635              	.LBI186:
  92:lvgl/demos/music/../../src/core/lv_obj_style.h **** {
 636              		.loc 3 92 20 view .LVU151
 637              	.LBB187:
 638              		.loc 3 94 5 view .LVU152
 639 0008 354A     		ldr	r2, .L36
 640 000a 0021     		movs	r1, #0
 641 000c FFF7FEFF 		bl	lv_obj_remove_style
 642              	.LVL67:
 643              		.loc 3 94 5 is_stmt 0 view .LVU153
 644              	.LBE187:
ARM GAS  C:\Users\OSD\AppData\Local\Temp\ccMhRpSZ.s 			page 35


 645              	.LBE186:
 480:lvgl/demos/music/lv_demo_music_main.c ****     lv_obj_set_flex_flow(cont, LV_FLEX_FLOW_COLUMN);
 646              		.loc 1 480 5 is_stmt 1 view .LVU154
 647 0010 42F2D171 		movw	r1, #10193
 648 0014 2046     		mov	r0, r4
 649 0016 FFF7FEFF 		bl	lv_obj_set_height
 650              	.LVL68:
 481:lvgl/demos/music/lv_demo_music_main.c ****     lv_obj_set_flex_align(cont, LV_FLEX_ALIGN_START, LV_FLEX_ALIGN_CENTER, LV_FLEX_ALIGN_CENTER);
 651              		.loc 1 481 5 view .LVU155
 652 001a 0121     		movs	r1, #1
 653 001c 2046     		mov	r0, r4
 654 001e FFF7FEFF 		bl	lv_obj_set_flex_flow
 655              	.LVL69:
 482:lvgl/demos/music/lv_demo_music_main.c **** 
 656              		.loc 1 482 5 view .LVU156
 657 0022 0223     		movs	r3, #2
 658 0024 1A46     		mov	r2, r3
 659 0026 0021     		movs	r1, #0
 660 0028 2046     		mov	r0, r4
 661 002a FFF7FEFF 		bl	lv_obj_set_flex_align
 662              	.LVL70:
 484:lvgl/demos/music/lv_demo_music_main.c ****     lv_obj_set_style_text_font(title_label, font_large, 0);
 663              		.loc 1 484 5 view .LVU157
 484:lvgl/demos/music/lv_demo_music_main.c ****     lv_obj_set_style_text_font(title_label, font_large, 0);
 664              		.loc 1 484 19 is_stmt 0 view .LVU158
 665 002e 2046     		mov	r0, r4
 666 0030 FFF7FEFF 		bl	lv_label_create
 667              	.LVL71:
 484:lvgl/demos/music/lv_demo_music_main.c ****     lv_obj_set_style_text_font(title_label, font_large, 0);
 668              		.loc 1 484 17 view .LVU159
 669 0034 2B4D     		ldr	r5, .L36+4
 670 0036 2860     		str	r0, [r5]
 485:lvgl/demos/music/lv_demo_music_main.c ****     lv_obj_set_style_text_color(title_label, lv_color_hex(0x504d6d), 0);
 671              		.loc 1 485 5 is_stmt 1 view .LVU160
 672 0038 2B4E     		ldr	r6, .L36+8
 673 003a 0022     		movs	r2, #0
 674 003c 3168     		ldr	r1, [r6]
 675 003e FFF7FEFF 		bl	lv_obj_set_style_text_font
 676              	.LVL72:
 486:lvgl/demos/music/lv_demo_music_main.c ****     lv_label_set_text(title_label, _lv_demo_music_get_title(track_id));
 677              		.loc 1 486 5 view .LVU161
 678              	.LBB188:
 679              	.LBI188:
 680              		.file 4 "d:\\kzc\\stm32\\h743ii_lcd\\lvgl\\src\\misc\\lv_color.h"
   1:d:\kzc\stm32\h743ii_lcd\lvgl\src\misc\lv_color.h **** /**
   2:d:\kzc\stm32\h743ii_lcd\lvgl\src\misc\lv_color.h ****  * @file lv_color.h
   3:d:\kzc\stm32\h743ii_lcd\lvgl\src\misc\lv_color.h ****  *
   4:d:\kzc\stm32\h743ii_lcd\lvgl\src\misc\lv_color.h ****  */
   5:d:\kzc\stm32\h743ii_lcd\lvgl\src\misc\lv_color.h **** 
   6:d:\kzc\stm32\h743ii_lcd\lvgl\src\misc\lv_color.h **** #ifndef LV_COLOR_H
   7:d:\kzc\stm32\h743ii_lcd\lvgl\src\misc\lv_color.h **** #define LV_COLOR_H
   8:d:\kzc\stm32\h743ii_lcd\lvgl\src\misc\lv_color.h **** 
   9:d:\kzc\stm32\h743ii_lcd\lvgl\src\misc\lv_color.h **** #ifdef __cplusplus
  10:d:\kzc\stm32\h743ii_lcd\lvgl\src\misc\lv_color.h **** extern "C" {
  11:d:\kzc\stm32\h743ii_lcd\lvgl\src\misc\lv_color.h **** #endif
  12:d:\kzc\stm32\h743ii_lcd\lvgl\src\misc\lv_color.h **** 
  13:d:\kzc\stm32\h743ii_lcd\lvgl\src\misc\lv_color.h **** /*********************
ARM GAS  C:\Users\OSD\AppData\Local\Temp\ccMhRpSZ.s 			page 36


  14:d:\kzc\stm32\h743ii_lcd\lvgl\src\misc\lv_color.h ****  *      INCLUDES
  15:d:\kzc\stm32\h743ii_lcd\lvgl\src\misc\lv_color.h ****  *********************/
  16:d:\kzc\stm32\h743ii_lcd\lvgl\src\misc\lv_color.h **** #include "../lv_conf_internal.h"
  17:d:\kzc\stm32\h743ii_lcd\lvgl\src\misc\lv_color.h **** #include "lv_assert.h"
  18:d:\kzc\stm32\h743ii_lcd\lvgl\src\misc\lv_color.h **** #include "lv_math.h"
  19:d:\kzc\stm32\h743ii_lcd\lvgl\src\misc\lv_color.h **** #include "lv_types.h"
  20:d:\kzc\stm32\h743ii_lcd\lvgl\src\misc\lv_color.h **** 
  21:d:\kzc\stm32\h743ii_lcd\lvgl\src\misc\lv_color.h **** /*Error checking*/
  22:d:\kzc\stm32\h743ii_lcd\lvgl\src\misc\lv_color.h **** #if LV_COLOR_DEPTH == 24
  23:d:\kzc\stm32\h743ii_lcd\lvgl\src\misc\lv_color.h **** #error "LV_COLOR_DEPTH 24 is deprecated. Use LV_COLOR_DEPTH 32 instead (lv_conf.h)"
  24:d:\kzc\stm32\h743ii_lcd\lvgl\src\misc\lv_color.h **** #endif
  25:d:\kzc\stm32\h743ii_lcd\lvgl\src\misc\lv_color.h **** 
  26:d:\kzc\stm32\h743ii_lcd\lvgl\src\misc\lv_color.h **** #if LV_COLOR_DEPTH != 16 && LV_COLOR_16_SWAP != 0
  27:d:\kzc\stm32\h743ii_lcd\lvgl\src\misc\lv_color.h **** #error "LV_COLOR_16_SWAP requires LV_COLOR_DEPTH == 16. Set it in lv_conf.h"
  28:d:\kzc\stm32\h743ii_lcd\lvgl\src\misc\lv_color.h **** #endif
  29:d:\kzc\stm32\h743ii_lcd\lvgl\src\misc\lv_color.h **** 
  30:d:\kzc\stm32\h743ii_lcd\lvgl\src\misc\lv_color.h **** #include <stdint.h>
  31:d:\kzc\stm32\h743ii_lcd\lvgl\src\misc\lv_color.h **** 
  32:d:\kzc\stm32\h743ii_lcd\lvgl\src\misc\lv_color.h **** /*********************
  33:d:\kzc\stm32\h743ii_lcd\lvgl\src\misc\lv_color.h ****  *      DEFINES
  34:d:\kzc\stm32\h743ii_lcd\lvgl\src\misc\lv_color.h ****  *********************/
  35:d:\kzc\stm32\h743ii_lcd\lvgl\src\misc\lv_color.h **** LV_EXPORT_CONST_INT(LV_COLOR_DEPTH);
  36:d:\kzc\stm32\h743ii_lcd\lvgl\src\misc\lv_color.h **** LV_EXPORT_CONST_INT(LV_COLOR_16_SWAP);
  37:d:\kzc\stm32\h743ii_lcd\lvgl\src\misc\lv_color.h **** 
  38:d:\kzc\stm32\h743ii_lcd\lvgl\src\misc\lv_color.h **** /**
  39:d:\kzc\stm32\h743ii_lcd\lvgl\src\misc\lv_color.h ****  * Opacity percentages.
  40:d:\kzc\stm32\h743ii_lcd\lvgl\src\misc\lv_color.h ****  */
  41:d:\kzc\stm32\h743ii_lcd\lvgl\src\misc\lv_color.h **** enum {
  42:d:\kzc\stm32\h743ii_lcd\lvgl\src\misc\lv_color.h ****     LV_OPA_TRANSP = 0,
  43:d:\kzc\stm32\h743ii_lcd\lvgl\src\misc\lv_color.h ****     LV_OPA_0      = 0,
  44:d:\kzc\stm32\h743ii_lcd\lvgl\src\misc\lv_color.h ****     LV_OPA_10     = 25,
  45:d:\kzc\stm32\h743ii_lcd\lvgl\src\misc\lv_color.h ****     LV_OPA_20     = 51,
  46:d:\kzc\stm32\h743ii_lcd\lvgl\src\misc\lv_color.h ****     LV_OPA_30     = 76,
  47:d:\kzc\stm32\h743ii_lcd\lvgl\src\misc\lv_color.h ****     LV_OPA_40     = 102,
  48:d:\kzc\stm32\h743ii_lcd\lvgl\src\misc\lv_color.h ****     LV_OPA_50     = 127,
  49:d:\kzc\stm32\h743ii_lcd\lvgl\src\misc\lv_color.h ****     LV_OPA_60     = 153,
  50:d:\kzc\stm32\h743ii_lcd\lvgl\src\misc\lv_color.h ****     LV_OPA_70     = 178,
  51:d:\kzc\stm32\h743ii_lcd\lvgl\src\misc\lv_color.h ****     LV_OPA_80     = 204,
  52:d:\kzc\stm32\h743ii_lcd\lvgl\src\misc\lv_color.h ****     LV_OPA_90     = 229,
  53:d:\kzc\stm32\h743ii_lcd\lvgl\src\misc\lv_color.h ****     LV_OPA_100    = 255,
  54:d:\kzc\stm32\h743ii_lcd\lvgl\src\misc\lv_color.h ****     LV_OPA_COVER  = 255,
  55:d:\kzc\stm32\h743ii_lcd\lvgl\src\misc\lv_color.h **** };
  56:d:\kzc\stm32\h743ii_lcd\lvgl\src\misc\lv_color.h **** 
  57:d:\kzc\stm32\h743ii_lcd\lvgl\src\misc\lv_color.h **** #define LV_OPA_MIN 2    /*Opacities below this will be transparent*/
  58:d:\kzc\stm32\h743ii_lcd\lvgl\src\misc\lv_color.h **** #define LV_OPA_MAX 253  /*Opacities above this will fully cover*/
  59:d:\kzc\stm32\h743ii_lcd\lvgl\src\misc\lv_color.h **** 
  60:d:\kzc\stm32\h743ii_lcd\lvgl\src\misc\lv_color.h **** #if LV_COLOR_DEPTH == 1
  61:d:\kzc\stm32\h743ii_lcd\lvgl\src\misc\lv_color.h **** #define LV_COLOR_SIZE 8
  62:d:\kzc\stm32\h743ii_lcd\lvgl\src\misc\lv_color.h **** #elif LV_COLOR_DEPTH == 8
  63:d:\kzc\stm32\h743ii_lcd\lvgl\src\misc\lv_color.h **** #define LV_COLOR_SIZE 8
  64:d:\kzc\stm32\h743ii_lcd\lvgl\src\misc\lv_color.h **** #elif LV_COLOR_DEPTH == 16
  65:d:\kzc\stm32\h743ii_lcd\lvgl\src\misc\lv_color.h **** #define LV_COLOR_SIZE 16
  66:d:\kzc\stm32\h743ii_lcd\lvgl\src\misc\lv_color.h **** #elif LV_COLOR_DEPTH == 32
  67:d:\kzc\stm32\h743ii_lcd\lvgl\src\misc\lv_color.h **** #define LV_COLOR_SIZE 32
  68:d:\kzc\stm32\h743ii_lcd\lvgl\src\misc\lv_color.h **** #else
  69:d:\kzc\stm32\h743ii_lcd\lvgl\src\misc\lv_color.h **** #error "Invalid LV_COLOR_DEPTH in lv_conf.h! Set it to 1, 8, 16 or 32!"
  70:d:\kzc\stm32\h743ii_lcd\lvgl\src\misc\lv_color.h **** #endif
ARM GAS  C:\Users\OSD\AppData\Local\Temp\ccMhRpSZ.s 			page 37


  71:d:\kzc\stm32\h743ii_lcd\lvgl\src\misc\lv_color.h **** 
  72:d:\kzc\stm32\h743ii_lcd\lvgl\src\misc\lv_color.h **** #if defined(__cplusplus) && !defined(_LV_COLOR_HAS_MODERN_CPP)
  73:d:\kzc\stm32\h743ii_lcd\lvgl\src\misc\lv_color.h **** /**
  74:d:\kzc\stm32\h743ii_lcd\lvgl\src\misc\lv_color.h **** * MSVC compiler's definition of the __cplusplus indicating 199711L regardless to C++ standard versi
  75:d:\kzc\stm32\h743ii_lcd\lvgl\src\misc\lv_color.h **** * see https://devblogs.microsoft.com/cppblog/msvc-now-correctly-reports-cplusplus
  76:d:\kzc\stm32\h743ii_lcd\lvgl\src\misc\lv_color.h **** * so we use _MSC_VER macro instead of __cplusplus
  77:d:\kzc\stm32\h743ii_lcd\lvgl\src\misc\lv_color.h **** */
  78:d:\kzc\stm32\h743ii_lcd\lvgl\src\misc\lv_color.h **** #ifdef _MSC_VER
  79:d:\kzc\stm32\h743ii_lcd\lvgl\src\misc\lv_color.h **** #if _MSC_VER >= 1900 /*Visual Studio 2015*/
  80:d:\kzc\stm32\h743ii_lcd\lvgl\src\misc\lv_color.h **** #define _LV_COLOR_HAS_MODERN_CPP 1
  81:d:\kzc\stm32\h743ii_lcd\lvgl\src\misc\lv_color.h **** #endif
  82:d:\kzc\stm32\h743ii_lcd\lvgl\src\misc\lv_color.h **** #else
  83:d:\kzc\stm32\h743ii_lcd\lvgl\src\misc\lv_color.h **** #if __cplusplus >= 201103L
  84:d:\kzc\stm32\h743ii_lcd\lvgl\src\misc\lv_color.h **** #define _LV_COLOR_HAS_MODERN_CPP 1
  85:d:\kzc\stm32\h743ii_lcd\lvgl\src\misc\lv_color.h **** #endif
  86:d:\kzc\stm32\h743ii_lcd\lvgl\src\misc\lv_color.h **** #endif
  87:d:\kzc\stm32\h743ii_lcd\lvgl\src\misc\lv_color.h **** #endif /*__cplusplus*/
  88:d:\kzc\stm32\h743ii_lcd\lvgl\src\misc\lv_color.h **** 
  89:d:\kzc\stm32\h743ii_lcd\lvgl\src\misc\lv_color.h **** #ifndef _LV_COLOR_HAS_MODERN_CPP
  90:d:\kzc\stm32\h743ii_lcd\lvgl\src\misc\lv_color.h **** #define _LV_COLOR_HAS_MODERN_CPP 0
  91:d:\kzc\stm32\h743ii_lcd\lvgl\src\misc\lv_color.h **** #endif
  92:d:\kzc\stm32\h743ii_lcd\lvgl\src\misc\lv_color.h **** 
  93:d:\kzc\stm32\h743ii_lcd\lvgl\src\misc\lv_color.h **** #if _LV_COLOR_HAS_MODERN_CPP
  94:d:\kzc\stm32\h743ii_lcd\lvgl\src\misc\lv_color.h **** /*Fix msvc compiler error C4576 inside C++ code*/
  95:d:\kzc\stm32\h743ii_lcd\lvgl\src\misc\lv_color.h **** #define _LV_COLOR_MAKE_TYPE_HELPER lv_color_t
  96:d:\kzc\stm32\h743ii_lcd\lvgl\src\misc\lv_color.h **** #else
  97:d:\kzc\stm32\h743ii_lcd\lvgl\src\misc\lv_color.h **** #define _LV_COLOR_MAKE_TYPE_HELPER (lv_color_t)
  98:d:\kzc\stm32\h743ii_lcd\lvgl\src\misc\lv_color.h **** #endif
  99:d:\kzc\stm32\h743ii_lcd\lvgl\src\misc\lv_color.h **** 
 100:d:\kzc\stm32\h743ii_lcd\lvgl\src\misc\lv_color.h **** /*---------------------------------------
 101:d:\kzc\stm32\h743ii_lcd\lvgl\src\misc\lv_color.h ****  * Macros for all existing color depths
 102:d:\kzc\stm32\h743ii_lcd\lvgl\src\misc\lv_color.h ****  * to set/get values of the color channels
 103:d:\kzc\stm32\h743ii_lcd\lvgl\src\misc\lv_color.h ****  *------------------------------------------*/
 104:d:\kzc\stm32\h743ii_lcd\lvgl\src\misc\lv_color.h **** # define LV_COLOR_SET_R1(c, v) (c).ch.red = (uint8_t)((v) & 0x1)
 105:d:\kzc\stm32\h743ii_lcd\lvgl\src\misc\lv_color.h **** # define LV_COLOR_SET_G1(c, v) (c).ch.green = (uint8_t)((v) & 0x1)
 106:d:\kzc\stm32\h743ii_lcd\lvgl\src\misc\lv_color.h **** # define LV_COLOR_SET_B1(c, v) (c).ch.blue = (uint8_t)((v) & 0x1)
 107:d:\kzc\stm32\h743ii_lcd\lvgl\src\misc\lv_color.h **** # define LV_COLOR_SET_A1(c, v) do {} while(0)
 108:d:\kzc\stm32\h743ii_lcd\lvgl\src\misc\lv_color.h **** 
 109:d:\kzc\stm32\h743ii_lcd\lvgl\src\misc\lv_color.h **** # define LV_COLOR_GET_R1(c) (c).ch.red
 110:d:\kzc\stm32\h743ii_lcd\lvgl\src\misc\lv_color.h **** # define LV_COLOR_GET_G1(c) (c).ch.green
 111:d:\kzc\stm32\h743ii_lcd\lvgl\src\misc\lv_color.h **** # define LV_COLOR_GET_B1(c) (c).ch.blue
 112:d:\kzc\stm32\h743ii_lcd\lvgl\src\misc\lv_color.h **** # define LV_COLOR_GET_A1(c) 0xFF
 113:d:\kzc\stm32\h743ii_lcd\lvgl\src\misc\lv_color.h **** 
 114:d:\kzc\stm32\h743ii_lcd\lvgl\src\misc\lv_color.h **** # define _LV_COLOR_ZERO_INITIALIZER1 {0x00}
 115:d:\kzc\stm32\h743ii_lcd\lvgl\src\misc\lv_color.h **** # define LV_COLOR_MAKE1(r8, g8, b8)  {(uint8_t)((b8 >> 7) | (g8 >> 7) | (r8 >> 7))}
 116:d:\kzc\stm32\h743ii_lcd\lvgl\src\misc\lv_color.h **** 
 117:d:\kzc\stm32\h743ii_lcd\lvgl\src\misc\lv_color.h **** # define LV_COLOR_SET_R8(c, v) (c).ch.red = (uint8_t)((v) & 0x7U)
 118:d:\kzc\stm32\h743ii_lcd\lvgl\src\misc\lv_color.h **** # define LV_COLOR_SET_G8(c, v) (c).ch.green = (uint8_t)((v) & 0x7U)
 119:d:\kzc\stm32\h743ii_lcd\lvgl\src\misc\lv_color.h **** # define LV_COLOR_SET_B8(c, v) (c).ch.blue = (uint8_t)((v) & 0x3U)
 120:d:\kzc\stm32\h743ii_lcd\lvgl\src\misc\lv_color.h **** # define LV_COLOR_SET_A8(c, v) do {} while(0)
 121:d:\kzc\stm32\h743ii_lcd\lvgl\src\misc\lv_color.h **** 
 122:d:\kzc\stm32\h743ii_lcd\lvgl\src\misc\lv_color.h **** # define LV_COLOR_GET_R8(c) (c).ch.red
 123:d:\kzc\stm32\h743ii_lcd\lvgl\src\misc\lv_color.h **** # define LV_COLOR_GET_G8(c) (c).ch.green
 124:d:\kzc\stm32\h743ii_lcd\lvgl\src\misc\lv_color.h **** # define LV_COLOR_GET_B8(c) (c).ch.blue
 125:d:\kzc\stm32\h743ii_lcd\lvgl\src\misc\lv_color.h **** # define LV_COLOR_GET_A8(c) 0xFF
 126:d:\kzc\stm32\h743ii_lcd\lvgl\src\misc\lv_color.h **** 
 127:d:\kzc\stm32\h743ii_lcd\lvgl\src\misc\lv_color.h **** # define _LV_COLOR_ZERO_INITIALIZER8 {{0x00, 0x00, 0x00}}
ARM GAS  C:\Users\OSD\AppData\Local\Temp\ccMhRpSZ.s 			page 38


 128:d:\kzc\stm32\h743ii_lcd\lvgl\src\misc\lv_color.h **** # define LV_COLOR_MAKE8(r8, g8, b8) {{(uint8_t)((b8 >> 6) & 0x3U), (uint8_t)((g8 >> 5) & 0x7U), (ui
 129:d:\kzc\stm32\h743ii_lcd\lvgl\src\misc\lv_color.h **** 
 130:d:\kzc\stm32\h743ii_lcd\lvgl\src\misc\lv_color.h **** # define LV_COLOR_SET_R16(c, v) (c).ch.red = (uint8_t)((v) & 0x1FU)
 131:d:\kzc\stm32\h743ii_lcd\lvgl\src\misc\lv_color.h **** #if LV_COLOR_16_SWAP == 0
 132:d:\kzc\stm32\h743ii_lcd\lvgl\src\misc\lv_color.h **** # define LV_COLOR_SET_G16(c, v) (c).ch.green = (uint8_t)((v) & 0x3FU)
 133:d:\kzc\stm32\h743ii_lcd\lvgl\src\misc\lv_color.h **** #else
 134:d:\kzc\stm32\h743ii_lcd\lvgl\src\misc\lv_color.h **** # define LV_COLOR_SET_G16(c, v) {(c).ch.green_h = (uint8_t)(((v) >> 3) & 0x7); (c).ch.green_l = (ui
 135:d:\kzc\stm32\h743ii_lcd\lvgl\src\misc\lv_color.h **** #endif
 136:d:\kzc\stm32\h743ii_lcd\lvgl\src\misc\lv_color.h **** # define LV_COLOR_SET_B16(c, v) (c).ch.blue = (uint8_t)((v) & 0x1FU)
 137:d:\kzc\stm32\h743ii_lcd\lvgl\src\misc\lv_color.h **** # define LV_COLOR_SET_A16(c, v) do {} while(0)
 138:d:\kzc\stm32\h743ii_lcd\lvgl\src\misc\lv_color.h **** 
 139:d:\kzc\stm32\h743ii_lcd\lvgl\src\misc\lv_color.h **** # define LV_COLOR_GET_R16(c) (c).ch.red
 140:d:\kzc\stm32\h743ii_lcd\lvgl\src\misc\lv_color.h **** #if LV_COLOR_16_SWAP == 0
 141:d:\kzc\stm32\h743ii_lcd\lvgl\src\misc\lv_color.h **** # define LV_COLOR_GET_G16(c) (c).ch.green
 142:d:\kzc\stm32\h743ii_lcd\lvgl\src\misc\lv_color.h **** #else
 143:d:\kzc\stm32\h743ii_lcd\lvgl\src\misc\lv_color.h **** # define LV_COLOR_GET_G16(c) (((c).ch.green_h << 3) + (c).ch.green_l)
 144:d:\kzc\stm32\h743ii_lcd\lvgl\src\misc\lv_color.h **** #endif
 145:d:\kzc\stm32\h743ii_lcd\lvgl\src\misc\lv_color.h **** # define LV_COLOR_GET_B16(c) (c).ch.blue
 146:d:\kzc\stm32\h743ii_lcd\lvgl\src\misc\lv_color.h **** # define LV_COLOR_GET_A16(c) 0xFF
 147:d:\kzc\stm32\h743ii_lcd\lvgl\src\misc\lv_color.h **** 
 148:d:\kzc\stm32\h743ii_lcd\lvgl\src\misc\lv_color.h **** #if LV_COLOR_16_SWAP == 0
 149:d:\kzc\stm32\h743ii_lcd\lvgl\src\misc\lv_color.h **** # define _LV_COLOR_ZERO_INITIALIZER16  {{0x00, 0x00, 0x00}}
 150:d:\kzc\stm32\h743ii_lcd\lvgl\src\misc\lv_color.h **** # define LV_COLOR_MAKE16(r8, g8, b8) {{(uint8_t)((b8 >> 3) & 0x1FU), (uint8_t)((g8 >> 2) & 0x3FU), 
 151:d:\kzc\stm32\h743ii_lcd\lvgl\src\misc\lv_color.h **** #else
 152:d:\kzc\stm32\h743ii_lcd\lvgl\src\misc\lv_color.h **** # define _LV_COLOR_ZERO_INITIALIZER16 {{0x00, 0x00, 0x00, 0x00}}
 153:d:\kzc\stm32\h743ii_lcd\lvgl\src\misc\lv_color.h **** # define LV_COLOR_MAKE16(r8, g8, b8) {{(uint8_t)((g8 >> 5) & 0x7U), (uint8_t)((r8 >> 3) & 0x1FU), (
 154:d:\kzc\stm32\h743ii_lcd\lvgl\src\misc\lv_color.h **** #endif
 155:d:\kzc\stm32\h743ii_lcd\lvgl\src\misc\lv_color.h **** 
 156:d:\kzc\stm32\h743ii_lcd\lvgl\src\misc\lv_color.h **** # define LV_COLOR_SET_R32(c, v) (c).ch.red = (uint8_t)((v) & 0xFF)
 157:d:\kzc\stm32\h743ii_lcd\lvgl\src\misc\lv_color.h **** # define LV_COLOR_SET_G32(c, v) (c).ch.green = (uint8_t)((v) & 0xFF)
 158:d:\kzc\stm32\h743ii_lcd\lvgl\src\misc\lv_color.h **** # define LV_COLOR_SET_B32(c, v) (c).ch.blue = (uint8_t)((v) & 0xFF)
 159:d:\kzc\stm32\h743ii_lcd\lvgl\src\misc\lv_color.h **** # define LV_COLOR_SET_A32(c, v) (c).ch.alpha = (uint8_t)((v) & 0xFF)
 160:d:\kzc\stm32\h743ii_lcd\lvgl\src\misc\lv_color.h **** 
 161:d:\kzc\stm32\h743ii_lcd\lvgl\src\misc\lv_color.h **** # define LV_COLOR_GET_R32(c) (c).ch.red
 162:d:\kzc\stm32\h743ii_lcd\lvgl\src\misc\lv_color.h **** # define LV_COLOR_GET_G32(c) (c).ch.green
 163:d:\kzc\stm32\h743ii_lcd\lvgl\src\misc\lv_color.h **** # define LV_COLOR_GET_B32(c) (c).ch.blue
 164:d:\kzc\stm32\h743ii_lcd\lvgl\src\misc\lv_color.h **** # define LV_COLOR_GET_A32(c) (c).ch.alpha
 165:d:\kzc\stm32\h743ii_lcd\lvgl\src\misc\lv_color.h **** 
 166:d:\kzc\stm32\h743ii_lcd\lvgl\src\misc\lv_color.h **** # define _LV_COLOR_ZERO_INITIALIZER32  {{0x00, 0x00, 0x00, 0x00}}
 167:d:\kzc\stm32\h743ii_lcd\lvgl\src\misc\lv_color.h **** # define LV_COLOR_MAKE32(r8, g8, b8) {{b8, g8, r8, 0xff}} /*Fix 0xff alpha*/
 168:d:\kzc\stm32\h743ii_lcd\lvgl\src\misc\lv_color.h **** 
 169:d:\kzc\stm32\h743ii_lcd\lvgl\src\misc\lv_color.h **** /*---------------------------------------
 170:d:\kzc\stm32\h743ii_lcd\lvgl\src\misc\lv_color.h ****  * Macros for the current color depth
 171:d:\kzc\stm32\h743ii_lcd\lvgl\src\misc\lv_color.h ****  * to set/get values of the color channels
 172:d:\kzc\stm32\h743ii_lcd\lvgl\src\misc\lv_color.h ****  *------------------------------------------*/
 173:d:\kzc\stm32\h743ii_lcd\lvgl\src\misc\lv_color.h **** #define LV_COLOR_SET_R(c, v) LV_CONCAT(LV_COLOR_SET_R, LV_COLOR_DEPTH)(c, v)
 174:d:\kzc\stm32\h743ii_lcd\lvgl\src\misc\lv_color.h **** #define LV_COLOR_SET_G(c, v) LV_CONCAT(LV_COLOR_SET_G, LV_COLOR_DEPTH)(c, v)
 175:d:\kzc\stm32\h743ii_lcd\lvgl\src\misc\lv_color.h **** #define LV_COLOR_SET_B(c, v) LV_CONCAT(LV_COLOR_SET_B, LV_COLOR_DEPTH)(c, v)
 176:d:\kzc\stm32\h743ii_lcd\lvgl\src\misc\lv_color.h **** #define LV_COLOR_SET_A(c, v) LV_CONCAT(LV_COLOR_SET_A, LV_COLOR_DEPTH)(c, v)
 177:d:\kzc\stm32\h743ii_lcd\lvgl\src\misc\lv_color.h **** 
 178:d:\kzc\stm32\h743ii_lcd\lvgl\src\misc\lv_color.h **** #define LV_COLOR_GET_R(c) LV_CONCAT(LV_COLOR_GET_R, LV_COLOR_DEPTH)(c)
 179:d:\kzc\stm32\h743ii_lcd\lvgl\src\misc\lv_color.h **** #define LV_COLOR_GET_G(c) LV_CONCAT(LV_COLOR_GET_G, LV_COLOR_DEPTH)(c)
 180:d:\kzc\stm32\h743ii_lcd\lvgl\src\misc\lv_color.h **** #define LV_COLOR_GET_B(c) LV_CONCAT(LV_COLOR_GET_B, LV_COLOR_DEPTH)(c)
 181:d:\kzc\stm32\h743ii_lcd\lvgl\src\misc\lv_color.h **** #define LV_COLOR_GET_A(c) LV_CONCAT(LV_COLOR_GET_A, LV_COLOR_DEPTH)(c)
 182:d:\kzc\stm32\h743ii_lcd\lvgl\src\misc\lv_color.h **** 
 183:d:\kzc\stm32\h743ii_lcd\lvgl\src\misc\lv_color.h **** #define _LV_COLOR_ZERO_INITIALIZER LV_CONCAT(_LV_COLOR_ZERO_INITIALIZER, LV_COLOR_DEPTH)
 184:d:\kzc\stm32\h743ii_lcd\lvgl\src\misc\lv_color.h **** #define LV_COLOR_MAKE(r8, g8, b8) LV_CONCAT(LV_COLOR_MAKE, LV_COLOR_DEPTH)(r8, g8, b8)
ARM GAS  C:\Users\OSD\AppData\Local\Temp\ccMhRpSZ.s 			page 39


 185:d:\kzc\stm32\h743ii_lcd\lvgl\src\misc\lv_color.h **** 
 186:d:\kzc\stm32\h743ii_lcd\lvgl\src\misc\lv_color.h **** /**********************
 187:d:\kzc\stm32\h743ii_lcd\lvgl\src\misc\lv_color.h ****  *      TYPEDEFS
 188:d:\kzc\stm32\h743ii_lcd\lvgl\src\misc\lv_color.h ****  **********************/
 189:d:\kzc\stm32\h743ii_lcd\lvgl\src\misc\lv_color.h **** 
 190:d:\kzc\stm32\h743ii_lcd\lvgl\src\misc\lv_color.h **** typedef union {
 191:d:\kzc\stm32\h743ii_lcd\lvgl\src\misc\lv_color.h ****     uint8_t full; /*must be declared first to set all bits of byte via initializer list*/
 192:d:\kzc\stm32\h743ii_lcd\lvgl\src\misc\lv_color.h ****     union {
 193:d:\kzc\stm32\h743ii_lcd\lvgl\src\misc\lv_color.h ****         uint8_t blue : 1;
 194:d:\kzc\stm32\h743ii_lcd\lvgl\src\misc\lv_color.h ****         uint8_t green : 1;
 195:d:\kzc\stm32\h743ii_lcd\lvgl\src\misc\lv_color.h ****         uint8_t red : 1;
 196:d:\kzc\stm32\h743ii_lcd\lvgl\src\misc\lv_color.h ****     } ch;
 197:d:\kzc\stm32\h743ii_lcd\lvgl\src\misc\lv_color.h **** } lv_color1_t;
 198:d:\kzc\stm32\h743ii_lcd\lvgl\src\misc\lv_color.h **** 
 199:d:\kzc\stm32\h743ii_lcd\lvgl\src\misc\lv_color.h **** typedef union {
 200:d:\kzc\stm32\h743ii_lcd\lvgl\src\misc\lv_color.h ****     struct {
 201:d:\kzc\stm32\h743ii_lcd\lvgl\src\misc\lv_color.h ****         uint8_t blue : 2;
 202:d:\kzc\stm32\h743ii_lcd\lvgl\src\misc\lv_color.h ****         uint8_t green : 3;
 203:d:\kzc\stm32\h743ii_lcd\lvgl\src\misc\lv_color.h ****         uint8_t red : 3;
 204:d:\kzc\stm32\h743ii_lcd\lvgl\src\misc\lv_color.h ****     } ch;
 205:d:\kzc\stm32\h743ii_lcd\lvgl\src\misc\lv_color.h ****     uint8_t full;
 206:d:\kzc\stm32\h743ii_lcd\lvgl\src\misc\lv_color.h **** } lv_color8_t;
 207:d:\kzc\stm32\h743ii_lcd\lvgl\src\misc\lv_color.h **** 
 208:d:\kzc\stm32\h743ii_lcd\lvgl\src\misc\lv_color.h **** typedef union {
 209:d:\kzc\stm32\h743ii_lcd\lvgl\src\misc\lv_color.h ****     struct {
 210:d:\kzc\stm32\h743ii_lcd\lvgl\src\misc\lv_color.h **** #if LV_COLOR_16_SWAP == 0
 211:d:\kzc\stm32\h743ii_lcd\lvgl\src\misc\lv_color.h ****         uint16_t blue : 5;
 212:d:\kzc\stm32\h743ii_lcd\lvgl\src\misc\lv_color.h ****         uint16_t green : 6;
 213:d:\kzc\stm32\h743ii_lcd\lvgl\src\misc\lv_color.h ****         uint16_t red : 5;
 214:d:\kzc\stm32\h743ii_lcd\lvgl\src\misc\lv_color.h **** #else
 215:d:\kzc\stm32\h743ii_lcd\lvgl\src\misc\lv_color.h ****         uint16_t green_h : 3;
 216:d:\kzc\stm32\h743ii_lcd\lvgl\src\misc\lv_color.h ****         uint16_t red : 5;
 217:d:\kzc\stm32\h743ii_lcd\lvgl\src\misc\lv_color.h ****         uint16_t blue : 5;
 218:d:\kzc\stm32\h743ii_lcd\lvgl\src\misc\lv_color.h ****         uint16_t green_l : 3;
 219:d:\kzc\stm32\h743ii_lcd\lvgl\src\misc\lv_color.h **** #endif
 220:d:\kzc\stm32\h743ii_lcd\lvgl\src\misc\lv_color.h ****     } ch;
 221:d:\kzc\stm32\h743ii_lcd\lvgl\src\misc\lv_color.h ****     uint16_t full;
 222:d:\kzc\stm32\h743ii_lcd\lvgl\src\misc\lv_color.h **** } lv_color16_t;
 223:d:\kzc\stm32\h743ii_lcd\lvgl\src\misc\lv_color.h **** 
 224:d:\kzc\stm32\h743ii_lcd\lvgl\src\misc\lv_color.h **** typedef union {
 225:d:\kzc\stm32\h743ii_lcd\lvgl\src\misc\lv_color.h ****     struct {
 226:d:\kzc\stm32\h743ii_lcd\lvgl\src\misc\lv_color.h ****         uint8_t blue;
 227:d:\kzc\stm32\h743ii_lcd\lvgl\src\misc\lv_color.h ****         uint8_t green;
 228:d:\kzc\stm32\h743ii_lcd\lvgl\src\misc\lv_color.h ****         uint8_t red;
 229:d:\kzc\stm32\h743ii_lcd\lvgl\src\misc\lv_color.h ****         uint8_t alpha;
 230:d:\kzc\stm32\h743ii_lcd\lvgl\src\misc\lv_color.h ****     } ch;
 231:d:\kzc\stm32\h743ii_lcd\lvgl\src\misc\lv_color.h ****     uint32_t full;
 232:d:\kzc\stm32\h743ii_lcd\lvgl\src\misc\lv_color.h **** } lv_color32_t;
 233:d:\kzc\stm32\h743ii_lcd\lvgl\src\misc\lv_color.h **** 
 234:d:\kzc\stm32\h743ii_lcd\lvgl\src\misc\lv_color.h **** typedef LV_CONCAT3(uint, LV_COLOR_SIZE, _t) lv_color_int_t;
 235:d:\kzc\stm32\h743ii_lcd\lvgl\src\misc\lv_color.h **** typedef LV_CONCAT3(lv_color, LV_COLOR_DEPTH, _t) lv_color_t;
 236:d:\kzc\stm32\h743ii_lcd\lvgl\src\misc\lv_color.h **** 
 237:d:\kzc\stm32\h743ii_lcd\lvgl\src\misc\lv_color.h **** typedef struct {
 238:d:\kzc\stm32\h743ii_lcd\lvgl\src\misc\lv_color.h ****     uint16_t h;
 239:d:\kzc\stm32\h743ii_lcd\lvgl\src\misc\lv_color.h ****     uint8_t s;
 240:d:\kzc\stm32\h743ii_lcd\lvgl\src\misc\lv_color.h ****     uint8_t v;
 241:d:\kzc\stm32\h743ii_lcd\lvgl\src\misc\lv_color.h **** } lv_color_hsv_t;
ARM GAS  C:\Users\OSD\AppData\Local\Temp\ccMhRpSZ.s 			page 40


 242:d:\kzc\stm32\h743ii_lcd\lvgl\src\misc\lv_color.h **** 
 243:d:\kzc\stm32\h743ii_lcd\lvgl\src\misc\lv_color.h **** //! @cond Doxygen_Suppress
 244:d:\kzc\stm32\h743ii_lcd\lvgl\src\misc\lv_color.h **** /*No idea where the guard is required but else throws warnings in the docs*/
 245:d:\kzc\stm32\h743ii_lcd\lvgl\src\misc\lv_color.h **** typedef uint8_t lv_opa_t;
 246:d:\kzc\stm32\h743ii_lcd\lvgl\src\misc\lv_color.h **** //! @endcond
 247:d:\kzc\stm32\h743ii_lcd\lvgl\src\misc\lv_color.h **** 
 248:d:\kzc\stm32\h743ii_lcd\lvgl\src\misc\lv_color.h **** struct _lv_color_filter_dsc_t;
 249:d:\kzc\stm32\h743ii_lcd\lvgl\src\misc\lv_color.h **** 
 250:d:\kzc\stm32\h743ii_lcd\lvgl\src\misc\lv_color.h **** typedef lv_color_t (*lv_color_filter_cb_t)(const struct _lv_color_filter_dsc_t *, lv_color_t, lv_op
 251:d:\kzc\stm32\h743ii_lcd\lvgl\src\misc\lv_color.h **** 
 252:d:\kzc\stm32\h743ii_lcd\lvgl\src\misc\lv_color.h **** typedef struct _lv_color_filter_dsc_t {
 253:d:\kzc\stm32\h743ii_lcd\lvgl\src\misc\lv_color.h ****     lv_color_filter_cb_t filter_cb;
 254:d:\kzc\stm32\h743ii_lcd\lvgl\src\misc\lv_color.h ****     void * user_data;
 255:d:\kzc\stm32\h743ii_lcd\lvgl\src\misc\lv_color.h **** } lv_color_filter_dsc_t;
 256:d:\kzc\stm32\h743ii_lcd\lvgl\src\misc\lv_color.h **** 
 257:d:\kzc\stm32\h743ii_lcd\lvgl\src\misc\lv_color.h **** typedef enum {
 258:d:\kzc\stm32\h743ii_lcd\lvgl\src\misc\lv_color.h ****     LV_PALETTE_RED,
 259:d:\kzc\stm32\h743ii_lcd\lvgl\src\misc\lv_color.h ****     LV_PALETTE_PINK,
 260:d:\kzc\stm32\h743ii_lcd\lvgl\src\misc\lv_color.h ****     LV_PALETTE_PURPLE,
 261:d:\kzc\stm32\h743ii_lcd\lvgl\src\misc\lv_color.h ****     LV_PALETTE_DEEP_PURPLE,
 262:d:\kzc\stm32\h743ii_lcd\lvgl\src\misc\lv_color.h ****     LV_PALETTE_INDIGO,
 263:d:\kzc\stm32\h743ii_lcd\lvgl\src\misc\lv_color.h ****     LV_PALETTE_BLUE,
 264:d:\kzc\stm32\h743ii_lcd\lvgl\src\misc\lv_color.h ****     LV_PALETTE_LIGHT_BLUE,
 265:d:\kzc\stm32\h743ii_lcd\lvgl\src\misc\lv_color.h ****     LV_PALETTE_CYAN,
 266:d:\kzc\stm32\h743ii_lcd\lvgl\src\misc\lv_color.h ****     LV_PALETTE_TEAL,
 267:d:\kzc\stm32\h743ii_lcd\lvgl\src\misc\lv_color.h ****     LV_PALETTE_GREEN,
 268:d:\kzc\stm32\h743ii_lcd\lvgl\src\misc\lv_color.h ****     LV_PALETTE_LIGHT_GREEN,
 269:d:\kzc\stm32\h743ii_lcd\lvgl\src\misc\lv_color.h ****     LV_PALETTE_LIME,
 270:d:\kzc\stm32\h743ii_lcd\lvgl\src\misc\lv_color.h ****     LV_PALETTE_YELLOW,
 271:d:\kzc\stm32\h743ii_lcd\lvgl\src\misc\lv_color.h ****     LV_PALETTE_AMBER,
 272:d:\kzc\stm32\h743ii_lcd\lvgl\src\misc\lv_color.h ****     LV_PALETTE_ORANGE,
 273:d:\kzc\stm32\h743ii_lcd\lvgl\src\misc\lv_color.h ****     LV_PALETTE_DEEP_ORANGE,
 274:d:\kzc\stm32\h743ii_lcd\lvgl\src\misc\lv_color.h ****     LV_PALETTE_BROWN,
 275:d:\kzc\stm32\h743ii_lcd\lvgl\src\misc\lv_color.h ****     LV_PALETTE_BLUE_GREY,
 276:d:\kzc\stm32\h743ii_lcd\lvgl\src\misc\lv_color.h ****     LV_PALETTE_GREY,
 277:d:\kzc\stm32\h743ii_lcd\lvgl\src\misc\lv_color.h ****     _LV_PALETTE_LAST,
 278:d:\kzc\stm32\h743ii_lcd\lvgl\src\misc\lv_color.h ****     LV_PALETTE_NONE = 0xff,
 279:d:\kzc\stm32\h743ii_lcd\lvgl\src\misc\lv_color.h **** } lv_palette_t;
 280:d:\kzc\stm32\h743ii_lcd\lvgl\src\misc\lv_color.h **** 
 281:d:\kzc\stm32\h743ii_lcd\lvgl\src\misc\lv_color.h **** /**********************
 282:d:\kzc\stm32\h743ii_lcd\lvgl\src\misc\lv_color.h ****  * GLOBAL PROTOTYPES
 283:d:\kzc\stm32\h743ii_lcd\lvgl\src\misc\lv_color.h ****  **********************/
 284:d:\kzc\stm32\h743ii_lcd\lvgl\src\misc\lv_color.h **** 
 285:d:\kzc\stm32\h743ii_lcd\lvgl\src\misc\lv_color.h **** /*In color conversations:
 286:d:\kzc\stm32\h743ii_lcd\lvgl\src\misc\lv_color.h ****  * - When converting to bigger color type the LSB weight of 1 LSB is calculated
 287:d:\kzc\stm32\h743ii_lcd\lvgl\src\misc\lv_color.h ****  *   E.g. 16 bit Red has 5 bits
 288:d:\kzc\stm32\h743ii_lcd\lvgl\src\misc\lv_color.h ****  *         8 bit Red has 3 bits
 289:d:\kzc\stm32\h743ii_lcd\lvgl\src\misc\lv_color.h ****  *        ----------------------
 290:d:\kzc\stm32\h743ii_lcd\lvgl\src\misc\lv_color.h ****  *        8 bit red LSB = (2^5 - 1) / (2^3 - 1) = 31 / 7 = 4
 291:d:\kzc\stm32\h743ii_lcd\lvgl\src\misc\lv_color.h ****  *
 292:d:\kzc\stm32\h743ii_lcd\lvgl\src\misc\lv_color.h ****  * - When calculating to smaller color type simply shift out the LSBs
 293:d:\kzc\stm32\h743ii_lcd\lvgl\src\misc\lv_color.h ****  *   E.g.  8 bit Red has 3 bits
 294:d:\kzc\stm32\h743ii_lcd\lvgl\src\misc\lv_color.h ****  *        16 bit Red has 5 bits
 295:d:\kzc\stm32\h743ii_lcd\lvgl\src\misc\lv_color.h ****  *        ----------------------
 296:d:\kzc\stm32\h743ii_lcd\lvgl\src\misc\lv_color.h ****  *         Shift right with 5 - 3 = 2
 297:d:\kzc\stm32\h743ii_lcd\lvgl\src\misc\lv_color.h ****  */
 298:d:\kzc\stm32\h743ii_lcd\lvgl\src\misc\lv_color.h **** static inline uint8_t lv_color_to1(lv_color_t color)
ARM GAS  C:\Users\OSD\AppData\Local\Temp\ccMhRpSZ.s 			page 41


 299:d:\kzc\stm32\h743ii_lcd\lvgl\src\misc\lv_color.h **** {
 300:d:\kzc\stm32\h743ii_lcd\lvgl\src\misc\lv_color.h **** #if LV_COLOR_DEPTH == 1
 301:d:\kzc\stm32\h743ii_lcd\lvgl\src\misc\lv_color.h ****     return color.full;
 302:d:\kzc\stm32\h743ii_lcd\lvgl\src\misc\lv_color.h **** #elif LV_COLOR_DEPTH == 8
 303:d:\kzc\stm32\h743ii_lcd\lvgl\src\misc\lv_color.h ****     if((LV_COLOR_GET_R(color) & 0x4) || (LV_COLOR_GET_G(color) & 0x4) || (LV_COLOR_GET_B(color) & 0
 304:d:\kzc\stm32\h743ii_lcd\lvgl\src\misc\lv_color.h ****         return 1;
 305:d:\kzc\stm32\h743ii_lcd\lvgl\src\misc\lv_color.h ****     }
 306:d:\kzc\stm32\h743ii_lcd\lvgl\src\misc\lv_color.h ****     else {
 307:d:\kzc\stm32\h743ii_lcd\lvgl\src\misc\lv_color.h ****         return 0;
 308:d:\kzc\stm32\h743ii_lcd\lvgl\src\misc\lv_color.h ****     }
 309:d:\kzc\stm32\h743ii_lcd\lvgl\src\misc\lv_color.h **** #elif LV_COLOR_DEPTH == 16
 310:d:\kzc\stm32\h743ii_lcd\lvgl\src\misc\lv_color.h ****     if((LV_COLOR_GET_R(color) & 0x10) || (LV_COLOR_GET_G(color) & 0x20) || (LV_COLOR_GET_B(color) &
 311:d:\kzc\stm32\h743ii_lcd\lvgl\src\misc\lv_color.h ****         return 1;
 312:d:\kzc\stm32\h743ii_lcd\lvgl\src\misc\lv_color.h ****     }
 313:d:\kzc\stm32\h743ii_lcd\lvgl\src\misc\lv_color.h ****     else {
 314:d:\kzc\stm32\h743ii_lcd\lvgl\src\misc\lv_color.h ****         return 0;
 315:d:\kzc\stm32\h743ii_lcd\lvgl\src\misc\lv_color.h ****     }
 316:d:\kzc\stm32\h743ii_lcd\lvgl\src\misc\lv_color.h **** #elif LV_COLOR_DEPTH == 32
 317:d:\kzc\stm32\h743ii_lcd\lvgl\src\misc\lv_color.h ****     if((LV_COLOR_GET_R(color) & 0x80) || (LV_COLOR_GET_G(color) & 0x80) || (LV_COLOR_GET_B(color) &
 318:d:\kzc\stm32\h743ii_lcd\lvgl\src\misc\lv_color.h ****         return 1;
 319:d:\kzc\stm32\h743ii_lcd\lvgl\src\misc\lv_color.h ****     }
 320:d:\kzc\stm32\h743ii_lcd\lvgl\src\misc\lv_color.h ****     else {
 321:d:\kzc\stm32\h743ii_lcd\lvgl\src\misc\lv_color.h ****         return 0;
 322:d:\kzc\stm32\h743ii_lcd\lvgl\src\misc\lv_color.h ****     }
 323:d:\kzc\stm32\h743ii_lcd\lvgl\src\misc\lv_color.h **** #endif
 324:d:\kzc\stm32\h743ii_lcd\lvgl\src\misc\lv_color.h **** }
 325:d:\kzc\stm32\h743ii_lcd\lvgl\src\misc\lv_color.h **** 
 326:d:\kzc\stm32\h743ii_lcd\lvgl\src\misc\lv_color.h **** static inline uint8_t lv_color_to8(lv_color_t color)
 327:d:\kzc\stm32\h743ii_lcd\lvgl\src\misc\lv_color.h **** {
 328:d:\kzc\stm32\h743ii_lcd\lvgl\src\misc\lv_color.h **** #if LV_COLOR_DEPTH == 1
 329:d:\kzc\stm32\h743ii_lcd\lvgl\src\misc\lv_color.h ****     if(color.full == 0)
 330:d:\kzc\stm32\h743ii_lcd\lvgl\src\misc\lv_color.h ****         return 0;
 331:d:\kzc\stm32\h743ii_lcd\lvgl\src\misc\lv_color.h ****     else
 332:d:\kzc\stm32\h743ii_lcd\lvgl\src\misc\lv_color.h ****         return 0xFF;
 333:d:\kzc\stm32\h743ii_lcd\lvgl\src\misc\lv_color.h **** #elif LV_COLOR_DEPTH == 8
 334:d:\kzc\stm32\h743ii_lcd\lvgl\src\misc\lv_color.h ****     return color.full;
 335:d:\kzc\stm32\h743ii_lcd\lvgl\src\misc\lv_color.h **** #elif LV_COLOR_DEPTH == 16
 336:d:\kzc\stm32\h743ii_lcd\lvgl\src\misc\lv_color.h ****     lv_color8_t ret;
 337:d:\kzc\stm32\h743ii_lcd\lvgl\src\misc\lv_color.h ****     LV_COLOR_SET_R8(ret, LV_COLOR_GET_R(color) >> 2); /*5 - 3  = 2*/
 338:d:\kzc\stm32\h743ii_lcd\lvgl\src\misc\lv_color.h ****     LV_COLOR_SET_G8(ret, LV_COLOR_GET_G(color) >> 3); /*6 - 3  = 3*/
 339:d:\kzc\stm32\h743ii_lcd\lvgl\src\misc\lv_color.h ****     LV_COLOR_SET_B8(ret, LV_COLOR_GET_B(color) >> 3); /*5 - 2  = 3*/
 340:d:\kzc\stm32\h743ii_lcd\lvgl\src\misc\lv_color.h ****     return ret.full;
 341:d:\kzc\stm32\h743ii_lcd\lvgl\src\misc\lv_color.h **** #elif LV_COLOR_DEPTH == 32
 342:d:\kzc\stm32\h743ii_lcd\lvgl\src\misc\lv_color.h ****     lv_color8_t ret;
 343:d:\kzc\stm32\h743ii_lcd\lvgl\src\misc\lv_color.h ****     LV_COLOR_SET_R8(ret, LV_COLOR_GET_R(color) >> 5); /*8 - 3  = 5*/
 344:d:\kzc\stm32\h743ii_lcd\lvgl\src\misc\lv_color.h ****     LV_COLOR_SET_G8(ret, LV_COLOR_GET_G(color) >> 5); /*8 - 3  = 5*/
 345:d:\kzc\stm32\h743ii_lcd\lvgl\src\misc\lv_color.h ****     LV_COLOR_SET_B8(ret, LV_COLOR_GET_B(color) >> 6); /*8 - 2  = 6*/
 346:d:\kzc\stm32\h743ii_lcd\lvgl\src\misc\lv_color.h ****     return ret.full;
 347:d:\kzc\stm32\h743ii_lcd\lvgl\src\misc\lv_color.h **** #endif
 348:d:\kzc\stm32\h743ii_lcd\lvgl\src\misc\lv_color.h **** }
 349:d:\kzc\stm32\h743ii_lcd\lvgl\src\misc\lv_color.h **** 
 350:d:\kzc\stm32\h743ii_lcd\lvgl\src\misc\lv_color.h **** static inline uint16_t lv_color_to16(lv_color_t color)
 351:d:\kzc\stm32\h743ii_lcd\lvgl\src\misc\lv_color.h **** {
 352:d:\kzc\stm32\h743ii_lcd\lvgl\src\misc\lv_color.h **** #if LV_COLOR_DEPTH == 1
 353:d:\kzc\stm32\h743ii_lcd\lvgl\src\misc\lv_color.h ****     if(color.full == 0)
 354:d:\kzc\stm32\h743ii_lcd\lvgl\src\misc\lv_color.h ****         return 0;
 355:d:\kzc\stm32\h743ii_lcd\lvgl\src\misc\lv_color.h ****     else
ARM GAS  C:\Users\OSD\AppData\Local\Temp\ccMhRpSZ.s 			page 42


 356:d:\kzc\stm32\h743ii_lcd\lvgl\src\misc\lv_color.h ****         return 0xFFFF;
 357:d:\kzc\stm32\h743ii_lcd\lvgl\src\misc\lv_color.h **** #elif LV_COLOR_DEPTH == 8
 358:d:\kzc\stm32\h743ii_lcd\lvgl\src\misc\lv_color.h ****     lv_color16_t ret;
 359:d:\kzc\stm32\h743ii_lcd\lvgl\src\misc\lv_color.h ****     LV_COLOR_SET_R16(ret, LV_COLOR_GET_R(color) * 4);  /*(2^5 - 1)/(2^3 - 1) = 31/7 = 4*/
 360:d:\kzc\stm32\h743ii_lcd\lvgl\src\misc\lv_color.h ****     LV_COLOR_SET_G16(ret, LV_COLOR_GET_G(color) * 9);  /*(2^6 - 1)/(2^3 - 1) = 63/7 = 9*/
 361:d:\kzc\stm32\h743ii_lcd\lvgl\src\misc\lv_color.h ****     LV_COLOR_SET_B16(ret, LV_COLOR_GET_B(color) * 10); /*(2^5 - 1)/(2^2 - 1) = 31/3 = 10*/
 362:d:\kzc\stm32\h743ii_lcd\lvgl\src\misc\lv_color.h ****     return ret.full;
 363:d:\kzc\stm32\h743ii_lcd\lvgl\src\misc\lv_color.h **** #elif LV_COLOR_DEPTH == 16
 364:d:\kzc\stm32\h743ii_lcd\lvgl\src\misc\lv_color.h ****     return color.full;
 365:d:\kzc\stm32\h743ii_lcd\lvgl\src\misc\lv_color.h **** #elif LV_COLOR_DEPTH == 32
 366:d:\kzc\stm32\h743ii_lcd\lvgl\src\misc\lv_color.h ****     lv_color16_t ret;
 367:d:\kzc\stm32\h743ii_lcd\lvgl\src\misc\lv_color.h ****     LV_COLOR_SET_R16(ret, LV_COLOR_GET_R(color) >> 3); /*8 - 5  = 3*/
 368:d:\kzc\stm32\h743ii_lcd\lvgl\src\misc\lv_color.h ****     LV_COLOR_SET_G16(ret, LV_COLOR_GET_G(color) >> 2); /*8 - 6  = 2*/
 369:d:\kzc\stm32\h743ii_lcd\lvgl\src\misc\lv_color.h ****     LV_COLOR_SET_B16(ret, LV_COLOR_GET_B(color) >> 3); /*8 - 5  = 3*/
 370:d:\kzc\stm32\h743ii_lcd\lvgl\src\misc\lv_color.h ****     return ret.full;
 371:d:\kzc\stm32\h743ii_lcd\lvgl\src\misc\lv_color.h **** #endif
 372:d:\kzc\stm32\h743ii_lcd\lvgl\src\misc\lv_color.h **** }
 373:d:\kzc\stm32\h743ii_lcd\lvgl\src\misc\lv_color.h **** 
 374:d:\kzc\stm32\h743ii_lcd\lvgl\src\misc\lv_color.h **** static inline uint32_t lv_color_to32(lv_color_t color)
 375:d:\kzc\stm32\h743ii_lcd\lvgl\src\misc\lv_color.h **** {
 376:d:\kzc\stm32\h743ii_lcd\lvgl\src\misc\lv_color.h **** #if LV_COLOR_DEPTH == 1
 377:d:\kzc\stm32\h743ii_lcd\lvgl\src\misc\lv_color.h ****     if(color.full == 0)
 378:d:\kzc\stm32\h743ii_lcd\lvgl\src\misc\lv_color.h ****         return 0xFF000000;
 379:d:\kzc\stm32\h743ii_lcd\lvgl\src\misc\lv_color.h ****     else
 380:d:\kzc\stm32\h743ii_lcd\lvgl\src\misc\lv_color.h ****         return 0xFFFFFFFF;
 381:d:\kzc\stm32\h743ii_lcd\lvgl\src\misc\lv_color.h **** #elif LV_COLOR_DEPTH == 8
 382:d:\kzc\stm32\h743ii_lcd\lvgl\src\misc\lv_color.h ****     lv_color32_t ret;
 383:d:\kzc\stm32\h743ii_lcd\lvgl\src\misc\lv_color.h ****     LV_COLOR_SET_R32(ret, LV_COLOR_GET_R(color) * 36); /*(2^8 - 1)/(2^3 - 1) = 255/7 = 36*/
 384:d:\kzc\stm32\h743ii_lcd\lvgl\src\misc\lv_color.h ****     LV_COLOR_SET_G32(ret, LV_COLOR_GET_G(color) * 36); /*(2^8 - 1)/(2^3 - 1) = 255/7 = 36*/
 385:d:\kzc\stm32\h743ii_lcd\lvgl\src\misc\lv_color.h ****     LV_COLOR_SET_B32(ret, LV_COLOR_GET_B(color) * 85); /*(2^8 - 1)/(2^2 - 1) = 255/3 = 85*/
 386:d:\kzc\stm32\h743ii_lcd\lvgl\src\misc\lv_color.h ****     LV_COLOR_SET_A32(ret, 0xFF);
 387:d:\kzc\stm32\h743ii_lcd\lvgl\src\misc\lv_color.h ****     return ret.full;
 388:d:\kzc\stm32\h743ii_lcd\lvgl\src\misc\lv_color.h **** #elif LV_COLOR_DEPTH == 16
 389:d:\kzc\stm32\h743ii_lcd\lvgl\src\misc\lv_color.h ****     /**
 390:d:\kzc\stm32\h743ii_lcd\lvgl\src\misc\lv_color.h ****      * The floating point math for conversion is:
 391:d:\kzc\stm32\h743ii_lcd\lvgl\src\misc\lv_color.h ****      *  valueto = valuefrom * ( (2^bitsto - 1) / (float)(2^bitsfrom - 1) )
 392:d:\kzc\stm32\h743ii_lcd\lvgl\src\misc\lv_color.h ****      * The faster integer math for conversion is:
 393:d:\kzc\stm32\h743ii_lcd\lvgl\src\misc\lv_color.h ****      *  valueto = ( valuefrom * multiplier + adder ) >> divisor
 394:d:\kzc\stm32\h743ii_lcd\lvgl\src\misc\lv_color.h ****      *   multiplier = FLOOR( ( (2^bitsto - 1) << divisor ) / (float)(2^bitsfrom - 1) )
 395:d:\kzc\stm32\h743ii_lcd\lvgl\src\misc\lv_color.h ****      *
 396:d:\kzc\stm32\h743ii_lcd\lvgl\src\misc\lv_color.h ****      * Find the first divisor where ( adder >> divisor ) <= 0
 397:d:\kzc\stm32\h743ii_lcd\lvgl\src\misc\lv_color.h ****      *
 398:d:\kzc\stm32\h743ii_lcd\lvgl\src\misc\lv_color.h ****      * 5-bit to 8-bit: ( 31 * multiplier + adder ) >> divisor = 255
 399:d:\kzc\stm32\h743ii_lcd\lvgl\src\misc\lv_color.h ****      * divisor  multiplier  adder  min (0)  max (31)
 400:d:\kzc\stm32\h743ii_lcd\lvgl\src\misc\lv_color.h ****      *       0           8      7        7       255
 401:d:\kzc\stm32\h743ii_lcd\lvgl\src\misc\lv_color.h ****      *       1          16     14        7       255
 402:d:\kzc\stm32\h743ii_lcd\lvgl\src\misc\lv_color.h ****      *       2          32     28        7       255
 403:d:\kzc\stm32\h743ii_lcd\lvgl\src\misc\lv_color.h ****      *       3          65     25        3       255
 404:d:\kzc\stm32\h743ii_lcd\lvgl\src\misc\lv_color.h ****      *       4         131     19        1       255
 405:d:\kzc\stm32\h743ii_lcd\lvgl\src\misc\lv_color.h ****      *       5         263      7        0       255
 406:d:\kzc\stm32\h743ii_lcd\lvgl\src\misc\lv_color.h ****      *
 407:d:\kzc\stm32\h743ii_lcd\lvgl\src\misc\lv_color.h ****      * 6-bit to 8-bit: 255 = ( 63 * multiplier + adder ) >> divisor
 408:d:\kzc\stm32\h743ii_lcd\lvgl\src\misc\lv_color.h ****      * divisor  multiplier  adder  min (0)  max (63)
 409:d:\kzc\stm32\h743ii_lcd\lvgl\src\misc\lv_color.h ****      *       0           4      3        3       255
 410:d:\kzc\stm32\h743ii_lcd\lvgl\src\misc\lv_color.h ****      *       1           8      6        3       255
 411:d:\kzc\stm32\h743ii_lcd\lvgl\src\misc\lv_color.h ****      *       2          16     12        3       255
 412:d:\kzc\stm32\h743ii_lcd\lvgl\src\misc\lv_color.h ****      *       3          32     24        3       255
ARM GAS  C:\Users\OSD\AppData\Local\Temp\ccMhRpSZ.s 			page 43


 413:d:\kzc\stm32\h743ii_lcd\lvgl\src\misc\lv_color.h ****      *       4          64     48        3       255
 414:d:\kzc\stm32\h743ii_lcd\lvgl\src\misc\lv_color.h ****      *       5         129     33        1       255
 415:d:\kzc\stm32\h743ii_lcd\lvgl\src\misc\lv_color.h ****      *       6         259      3        0       255
 416:d:\kzc\stm32\h743ii_lcd\lvgl\src\misc\lv_color.h ****      */
 417:d:\kzc\stm32\h743ii_lcd\lvgl\src\misc\lv_color.h **** 
 418:d:\kzc\stm32\h743ii_lcd\lvgl\src\misc\lv_color.h ****     lv_color32_t ret;
 419:d:\kzc\stm32\h743ii_lcd\lvgl\src\misc\lv_color.h ****     LV_COLOR_SET_R32(ret, (LV_COLOR_GET_R(color) * 263 + 7) >> 5);
 420:d:\kzc\stm32\h743ii_lcd\lvgl\src\misc\lv_color.h ****     LV_COLOR_SET_G32(ret, (LV_COLOR_GET_G(color) * 259 + 3) >> 6);
 421:d:\kzc\stm32\h743ii_lcd\lvgl\src\misc\lv_color.h ****     LV_COLOR_SET_B32(ret, (LV_COLOR_GET_B(color) * 263 + 7) >> 5);
 422:d:\kzc\stm32\h743ii_lcd\lvgl\src\misc\lv_color.h ****     LV_COLOR_SET_A32(ret, 0xFF);
 423:d:\kzc\stm32\h743ii_lcd\lvgl\src\misc\lv_color.h ****     return ret.full;
 424:d:\kzc\stm32\h743ii_lcd\lvgl\src\misc\lv_color.h **** #elif LV_COLOR_DEPTH == 32
 425:d:\kzc\stm32\h743ii_lcd\lvgl\src\misc\lv_color.h ****     return color.full;
 426:d:\kzc\stm32\h743ii_lcd\lvgl\src\misc\lv_color.h **** #endif
 427:d:\kzc\stm32\h743ii_lcd\lvgl\src\misc\lv_color.h **** }
 428:d:\kzc\stm32\h743ii_lcd\lvgl\src\misc\lv_color.h **** 
 429:d:\kzc\stm32\h743ii_lcd\lvgl\src\misc\lv_color.h **** //! @cond Doxygen_Suppress
 430:d:\kzc\stm32\h743ii_lcd\lvgl\src\misc\lv_color.h **** 
 431:d:\kzc\stm32\h743ii_lcd\lvgl\src\misc\lv_color.h **** /**
 432:d:\kzc\stm32\h743ii_lcd\lvgl\src\misc\lv_color.h ****  * Mix two colors with a given ratio.
 433:d:\kzc\stm32\h743ii_lcd\lvgl\src\misc\lv_color.h ****  * @param c1 the first color to mix (usually the foreground)
 434:d:\kzc\stm32\h743ii_lcd\lvgl\src\misc\lv_color.h ****  * @param c2 the second color to mix (usually the background)
 435:d:\kzc\stm32\h743ii_lcd\lvgl\src\misc\lv_color.h ****  * @param mix The ratio of the colors. 0: full `c2`, 255: full `c1`, 127: half `c1` and half`c2`
 436:d:\kzc\stm32\h743ii_lcd\lvgl\src\misc\lv_color.h ****  * @return the mixed color
 437:d:\kzc\stm32\h743ii_lcd\lvgl\src\misc\lv_color.h ****  */
 438:d:\kzc\stm32\h743ii_lcd\lvgl\src\misc\lv_color.h **** static inline lv_color_t LV_ATTRIBUTE_FAST_MEM lv_color_mix(lv_color_t c1, lv_color_t c2, uint8_t m
 439:d:\kzc\stm32\h743ii_lcd\lvgl\src\misc\lv_color.h **** {
 440:d:\kzc\stm32\h743ii_lcd\lvgl\src\misc\lv_color.h ****     lv_color_t ret;
 441:d:\kzc\stm32\h743ii_lcd\lvgl\src\misc\lv_color.h **** 
 442:d:\kzc\stm32\h743ii_lcd\lvgl\src\misc\lv_color.h **** #if LV_COLOR_DEPTH == 16 && LV_COLOR_MIX_ROUND_OFS == 0
 443:d:\kzc\stm32\h743ii_lcd\lvgl\src\misc\lv_color.h **** #if LV_COLOR_16_SWAP == 1
 444:d:\kzc\stm32\h743ii_lcd\lvgl\src\misc\lv_color.h ****     c1.full = c1.full << 8 | c1.full >> 8;
 445:d:\kzc\stm32\h743ii_lcd\lvgl\src\misc\lv_color.h ****     c2.full = c2.full << 8 | c2.full >> 8;
 446:d:\kzc\stm32\h743ii_lcd\lvgl\src\misc\lv_color.h **** #endif
 447:d:\kzc\stm32\h743ii_lcd\lvgl\src\misc\lv_color.h ****     /*Source: https://stackoverflow.com/a/50012418/1999969*/
 448:d:\kzc\stm32\h743ii_lcd\lvgl\src\misc\lv_color.h ****     mix = (uint32_t)((uint32_t)mix + 4) >> 3;
 449:d:\kzc\stm32\h743ii_lcd\lvgl\src\misc\lv_color.h ****     uint32_t bg = (uint32_t)((uint32_t)c2.full | ((uint32_t)c2.full << 16)) &
 450:d:\kzc\stm32\h743ii_lcd\lvgl\src\misc\lv_color.h ****                   0x7E0F81F; /*0b00000111111000001111100000011111*/
 451:d:\kzc\stm32\h743ii_lcd\lvgl\src\misc\lv_color.h ****     uint32_t fg = (uint32_t)((uint32_t)c1.full | ((uint32_t)c1.full << 16)) & 0x7E0F81F;
 452:d:\kzc\stm32\h743ii_lcd\lvgl\src\misc\lv_color.h ****     uint32_t result = ((((fg - bg) * mix) >> 5) + bg) & 0x7E0F81F;
 453:d:\kzc\stm32\h743ii_lcd\lvgl\src\misc\lv_color.h ****     ret.full = (uint16_t)((result >> 16) | result);
 454:d:\kzc\stm32\h743ii_lcd\lvgl\src\misc\lv_color.h **** #if LV_COLOR_16_SWAP == 1
 455:d:\kzc\stm32\h743ii_lcd\lvgl\src\misc\lv_color.h ****     ret.full = ret.full << 8 | ret.full >> 8;
 456:d:\kzc\stm32\h743ii_lcd\lvgl\src\misc\lv_color.h **** #endif
 457:d:\kzc\stm32\h743ii_lcd\lvgl\src\misc\lv_color.h **** #elif LV_COLOR_DEPTH != 1
 458:d:\kzc\stm32\h743ii_lcd\lvgl\src\misc\lv_color.h ****     /*LV_COLOR_DEPTH == 8, 16 or 32*/
 459:d:\kzc\stm32\h743ii_lcd\lvgl\src\misc\lv_color.h ****     LV_COLOR_SET_R(ret, LV_UDIV255((uint16_t)LV_COLOR_GET_R(c1) * mix + LV_COLOR_GET_R(c2) *
 460:d:\kzc\stm32\h743ii_lcd\lvgl\src\misc\lv_color.h ****                                    (255 - mix) + LV_COLOR_MIX_ROUND_OFS));
 461:d:\kzc\stm32\h743ii_lcd\lvgl\src\misc\lv_color.h ****     LV_COLOR_SET_G(ret, LV_UDIV255((uint16_t)LV_COLOR_GET_G(c1) * mix + LV_COLOR_GET_G(c2) *
 462:d:\kzc\stm32\h743ii_lcd\lvgl\src\misc\lv_color.h ****                                    (255 - mix) + LV_COLOR_MIX_ROUND_OFS));
 463:d:\kzc\stm32\h743ii_lcd\lvgl\src\misc\lv_color.h ****     LV_COLOR_SET_B(ret, LV_UDIV255((uint16_t)LV_COLOR_GET_B(c1) * mix + LV_COLOR_GET_B(c2) *
 464:d:\kzc\stm32\h743ii_lcd\lvgl\src\misc\lv_color.h ****                                    (255 - mix) + LV_COLOR_MIX_ROUND_OFS));
 465:d:\kzc\stm32\h743ii_lcd\lvgl\src\misc\lv_color.h ****     LV_COLOR_SET_A(ret, 0xFF);
 466:d:\kzc\stm32\h743ii_lcd\lvgl\src\misc\lv_color.h **** #else
 467:d:\kzc\stm32\h743ii_lcd\lvgl\src\misc\lv_color.h ****     /*LV_COLOR_DEPTH == 1*/
 468:d:\kzc\stm32\h743ii_lcd\lvgl\src\misc\lv_color.h ****     ret.full = mix > LV_OPA_50 ? c1.full : c2.full;
 469:d:\kzc\stm32\h743ii_lcd\lvgl\src\misc\lv_color.h **** #endif
ARM GAS  C:\Users\OSD\AppData\Local\Temp\ccMhRpSZ.s 			page 44


 470:d:\kzc\stm32\h743ii_lcd\lvgl\src\misc\lv_color.h **** 
 471:d:\kzc\stm32\h743ii_lcd\lvgl\src\misc\lv_color.h ****     return ret;
 472:d:\kzc\stm32\h743ii_lcd\lvgl\src\misc\lv_color.h **** }
 473:d:\kzc\stm32\h743ii_lcd\lvgl\src\misc\lv_color.h **** 
 474:d:\kzc\stm32\h743ii_lcd\lvgl\src\misc\lv_color.h **** static inline void LV_ATTRIBUTE_FAST_MEM lv_color_premult(lv_color_t c, uint8_t mix, uint16_t * out
 475:d:\kzc\stm32\h743ii_lcd\lvgl\src\misc\lv_color.h **** {
 476:d:\kzc\stm32\h743ii_lcd\lvgl\src\misc\lv_color.h **** #if LV_COLOR_DEPTH != 1
 477:d:\kzc\stm32\h743ii_lcd\lvgl\src\misc\lv_color.h ****     out[0] = (uint16_t)LV_COLOR_GET_R(c) * mix;
 478:d:\kzc\stm32\h743ii_lcd\lvgl\src\misc\lv_color.h ****     out[1] = (uint16_t)LV_COLOR_GET_G(c) * mix;
 479:d:\kzc\stm32\h743ii_lcd\lvgl\src\misc\lv_color.h ****     out[2] = (uint16_t)LV_COLOR_GET_B(c) * mix;
 480:d:\kzc\stm32\h743ii_lcd\lvgl\src\misc\lv_color.h **** #else
 481:d:\kzc\stm32\h743ii_lcd\lvgl\src\misc\lv_color.h ****     (void) mix;
 482:d:\kzc\stm32\h743ii_lcd\lvgl\src\misc\lv_color.h ****     /*Pre-multiplication can't be used with 1 bpp*/
 483:d:\kzc\stm32\h743ii_lcd\lvgl\src\misc\lv_color.h ****     out[0] = LV_COLOR_GET_R(c);
 484:d:\kzc\stm32\h743ii_lcd\lvgl\src\misc\lv_color.h ****     out[1] = LV_COLOR_GET_G(c);
 485:d:\kzc\stm32\h743ii_lcd\lvgl\src\misc\lv_color.h ****     out[2] = LV_COLOR_GET_B(c);
 486:d:\kzc\stm32\h743ii_lcd\lvgl\src\misc\lv_color.h **** #endif
 487:d:\kzc\stm32\h743ii_lcd\lvgl\src\misc\lv_color.h **** 
 488:d:\kzc\stm32\h743ii_lcd\lvgl\src\misc\lv_color.h **** }
 489:d:\kzc\stm32\h743ii_lcd\lvgl\src\misc\lv_color.h **** 
 490:d:\kzc\stm32\h743ii_lcd\lvgl\src\misc\lv_color.h **** /**
 491:d:\kzc\stm32\h743ii_lcd\lvgl\src\misc\lv_color.h ****  * Mix two colors with a given ratio. It runs faster then `lv_color_mix` but requires some pre comp
 492:d:\kzc\stm32\h743ii_lcd\lvgl\src\misc\lv_color.h ****  * @param premult_c1 The first color. Should be preprocessed with `lv_color_premult(c1)`
 493:d:\kzc\stm32\h743ii_lcd\lvgl\src\misc\lv_color.h ****  * @param c2 The second color. As it is no pre computation required on it
 494:d:\kzc\stm32\h743ii_lcd\lvgl\src\misc\lv_color.h ****  * @param mix The ratio of the colors. 0: full `c1`, 255: full `c2`, 127: half `c1` and half `c2`.
 495:d:\kzc\stm32\h743ii_lcd\lvgl\src\misc\lv_color.h ****  *            Should be modified like mix = `255 - mix`
 496:d:\kzc\stm32\h743ii_lcd\lvgl\src\misc\lv_color.h ****  * @return the mixed color
 497:d:\kzc\stm32\h743ii_lcd\lvgl\src\misc\lv_color.h ****  * @note 255 won't give clearly `c1`.
 498:d:\kzc\stm32\h743ii_lcd\lvgl\src\misc\lv_color.h ****  */
 499:d:\kzc\stm32\h743ii_lcd\lvgl\src\misc\lv_color.h **** static inline lv_color_t LV_ATTRIBUTE_FAST_MEM lv_color_mix_premult(uint16_t * premult_c1, lv_color
 500:d:\kzc\stm32\h743ii_lcd\lvgl\src\misc\lv_color.h **** {
 501:d:\kzc\stm32\h743ii_lcd\lvgl\src\misc\lv_color.h ****     lv_color_t ret;
 502:d:\kzc\stm32\h743ii_lcd\lvgl\src\misc\lv_color.h **** #if LV_COLOR_DEPTH != 1
 503:d:\kzc\stm32\h743ii_lcd\lvgl\src\misc\lv_color.h ****     /*LV_COLOR_DEPTH == 8 or 32*/
 504:d:\kzc\stm32\h743ii_lcd\lvgl\src\misc\lv_color.h ****     LV_COLOR_SET_R(ret, LV_UDIV255(premult_c1[0] + LV_COLOR_GET_R(c2) * mix + LV_COLOR_MIX_ROUND_OF
 505:d:\kzc\stm32\h743ii_lcd\lvgl\src\misc\lv_color.h ****     LV_COLOR_SET_G(ret, LV_UDIV255(premult_c1[1] + LV_COLOR_GET_G(c2) * mix + LV_COLOR_MIX_ROUND_OF
 506:d:\kzc\stm32\h743ii_lcd\lvgl\src\misc\lv_color.h ****     LV_COLOR_SET_B(ret, LV_UDIV255(premult_c1[2] + LV_COLOR_GET_B(c2) * mix + LV_COLOR_MIX_ROUND_OF
 507:d:\kzc\stm32\h743ii_lcd\lvgl\src\misc\lv_color.h ****     LV_COLOR_SET_A(ret, 0xFF);
 508:d:\kzc\stm32\h743ii_lcd\lvgl\src\misc\lv_color.h **** #else
 509:d:\kzc\stm32\h743ii_lcd\lvgl\src\misc\lv_color.h ****     /*LV_COLOR_DEPTH == 1*/
 510:d:\kzc\stm32\h743ii_lcd\lvgl\src\misc\lv_color.h ****     /*Restore color1*/
 511:d:\kzc\stm32\h743ii_lcd\lvgl\src\misc\lv_color.h ****     lv_color_t c1;
 512:d:\kzc\stm32\h743ii_lcd\lvgl\src\misc\lv_color.h ****     LV_COLOR_SET_R(c1, premult_c1[0]);
 513:d:\kzc\stm32\h743ii_lcd\lvgl\src\misc\lv_color.h ****     LV_COLOR_SET_G(c1, premult_c1[1]);
 514:d:\kzc\stm32\h743ii_lcd\lvgl\src\misc\lv_color.h ****     LV_COLOR_SET_B(c1, premult_c1[2]);
 515:d:\kzc\stm32\h743ii_lcd\lvgl\src\misc\lv_color.h ****     ret.full = mix > LV_OPA_50 ? c2.full : c1.full;
 516:d:\kzc\stm32\h743ii_lcd\lvgl\src\misc\lv_color.h **** #endif
 517:d:\kzc\stm32\h743ii_lcd\lvgl\src\misc\lv_color.h **** 
 518:d:\kzc\stm32\h743ii_lcd\lvgl\src\misc\lv_color.h ****     return ret;
 519:d:\kzc\stm32\h743ii_lcd\lvgl\src\misc\lv_color.h **** }
 520:d:\kzc\stm32\h743ii_lcd\lvgl\src\misc\lv_color.h **** 
 521:d:\kzc\stm32\h743ii_lcd\lvgl\src\misc\lv_color.h **** /**
 522:d:\kzc\stm32\h743ii_lcd\lvgl\src\misc\lv_color.h ****  * Mix two colors. Both color can have alpha value.
 523:d:\kzc\stm32\h743ii_lcd\lvgl\src\misc\lv_color.h ****  * @param bg_color background color
 524:d:\kzc\stm32\h743ii_lcd\lvgl\src\misc\lv_color.h ****  * @param bg_opa alpha of the background color
 525:d:\kzc\stm32\h743ii_lcd\lvgl\src\misc\lv_color.h ****  * @param fg_color foreground color
 526:d:\kzc\stm32\h743ii_lcd\lvgl\src\misc\lv_color.h ****  * @param fg_opa alpha of the foreground color
ARM GAS  C:\Users\OSD\AppData\Local\Temp\ccMhRpSZ.s 			page 45


 527:d:\kzc\stm32\h743ii_lcd\lvgl\src\misc\lv_color.h ****  * @param res_color the result color
 528:d:\kzc\stm32\h743ii_lcd\lvgl\src\misc\lv_color.h ****  * @param res_opa the result opacity
 529:d:\kzc\stm32\h743ii_lcd\lvgl\src\misc\lv_color.h ****  */
 530:d:\kzc\stm32\h743ii_lcd\lvgl\src\misc\lv_color.h **** static inline void LV_ATTRIBUTE_FAST_MEM lv_color_mix_with_alpha(lv_color_t bg_color, lv_opa_t bg_o
 531:d:\kzc\stm32\h743ii_lcd\lvgl\src\misc\lv_color.h ****                                                                  lv_color_t fg_color, lv_opa_t fg_o
 532:d:\kzc\stm32\h743ii_lcd\lvgl\src\misc\lv_color.h ****                                                                  lv_color_t * res_color, lv_opa_t *
 533:d:\kzc\stm32\h743ii_lcd\lvgl\src\misc\lv_color.h **** {
 534:d:\kzc\stm32\h743ii_lcd\lvgl\src\misc\lv_color.h ****     /*Pick the foreground if it's fully opaque or the Background is fully transparent*/
 535:d:\kzc\stm32\h743ii_lcd\lvgl\src\misc\lv_color.h ****     if(fg_opa >= LV_OPA_MAX || bg_opa <= LV_OPA_MIN) {
 536:d:\kzc\stm32\h743ii_lcd\lvgl\src\misc\lv_color.h ****         res_color->full = fg_color.full;
 537:d:\kzc\stm32\h743ii_lcd\lvgl\src\misc\lv_color.h ****         *res_opa = fg_opa;
 538:d:\kzc\stm32\h743ii_lcd\lvgl\src\misc\lv_color.h ****     }
 539:d:\kzc\stm32\h743ii_lcd\lvgl\src\misc\lv_color.h ****     /*Transparent foreground: use the Background*/
 540:d:\kzc\stm32\h743ii_lcd\lvgl\src\misc\lv_color.h ****     else if(fg_opa <= LV_OPA_MIN) {
 541:d:\kzc\stm32\h743ii_lcd\lvgl\src\misc\lv_color.h ****         res_color->full = bg_color.full;
 542:d:\kzc\stm32\h743ii_lcd\lvgl\src\misc\lv_color.h ****         *res_opa = bg_opa;
 543:d:\kzc\stm32\h743ii_lcd\lvgl\src\misc\lv_color.h ****     }
 544:d:\kzc\stm32\h743ii_lcd\lvgl\src\misc\lv_color.h ****     /*Opaque background: use simple mix*/
 545:d:\kzc\stm32\h743ii_lcd\lvgl\src\misc\lv_color.h ****     else if(bg_opa >= LV_OPA_MAX) {
 546:d:\kzc\stm32\h743ii_lcd\lvgl\src\misc\lv_color.h ****         *res_color = lv_color_mix(fg_color, bg_color, fg_opa);
 547:d:\kzc\stm32\h743ii_lcd\lvgl\src\misc\lv_color.h ****         *res_opa = LV_OPA_COVER;
 548:d:\kzc\stm32\h743ii_lcd\lvgl\src\misc\lv_color.h ****     }
 549:d:\kzc\stm32\h743ii_lcd\lvgl\src\misc\lv_color.h ****     /*Both colors have alpha. Expensive calculation need to be applied*/
 550:d:\kzc\stm32\h743ii_lcd\lvgl\src\misc\lv_color.h ****     else {
 551:d:\kzc\stm32\h743ii_lcd\lvgl\src\misc\lv_color.h ****         /*Save the parameters and the result. If they will be asked again don't compute again*/
 552:d:\kzc\stm32\h743ii_lcd\lvgl\src\misc\lv_color.h ****         static lv_opa_t fg_opa_save     = 0;
 553:d:\kzc\stm32\h743ii_lcd\lvgl\src\misc\lv_color.h ****         static lv_opa_t bg_opa_save     = 0;
 554:d:\kzc\stm32\h743ii_lcd\lvgl\src\misc\lv_color.h ****         static lv_color_t fg_color_save = _LV_COLOR_ZERO_INITIALIZER;
 555:d:\kzc\stm32\h743ii_lcd\lvgl\src\misc\lv_color.h ****         static lv_color_t bg_color_save = _LV_COLOR_ZERO_INITIALIZER;
 556:d:\kzc\stm32\h743ii_lcd\lvgl\src\misc\lv_color.h ****         static lv_color_t res_color_saved = _LV_COLOR_ZERO_INITIALIZER;
 557:d:\kzc\stm32\h743ii_lcd\lvgl\src\misc\lv_color.h ****         static lv_opa_t res_opa_saved = 0;
 558:d:\kzc\stm32\h743ii_lcd\lvgl\src\misc\lv_color.h **** 
 559:d:\kzc\stm32\h743ii_lcd\lvgl\src\misc\lv_color.h ****         if(fg_opa != fg_opa_save || bg_opa != bg_opa_save || fg_color.full != fg_color_save.full ||
 560:d:\kzc\stm32\h743ii_lcd\lvgl\src\misc\lv_color.h ****            bg_color.full != bg_color_save.full) {
 561:d:\kzc\stm32\h743ii_lcd\lvgl\src\misc\lv_color.h ****             fg_opa_save        = fg_opa;
 562:d:\kzc\stm32\h743ii_lcd\lvgl\src\misc\lv_color.h ****             bg_opa_save        = bg_opa;
 563:d:\kzc\stm32\h743ii_lcd\lvgl\src\misc\lv_color.h ****             fg_color_save.full = fg_color.full;
 564:d:\kzc\stm32\h743ii_lcd\lvgl\src\misc\lv_color.h ****             bg_color_save.full = bg_color.full;
 565:d:\kzc\stm32\h743ii_lcd\lvgl\src\misc\lv_color.h ****             /*Info:
 566:d:\kzc\stm32\h743ii_lcd\lvgl\src\misc\lv_color.h ****              * https://en.wikipedia.org/wiki/Alpha_compositing#Analytical_derivation_of_the_over_op
 567:d:\kzc\stm32\h743ii_lcd\lvgl\src\misc\lv_color.h ****             res_opa_saved = 255 - ((uint16_t)((uint16_t)(255 - fg_opa) * (255 - bg_opa)) >> 8);
 568:d:\kzc\stm32\h743ii_lcd\lvgl\src\misc\lv_color.h ****             LV_ASSERT(res_opa_saved != 0);
 569:d:\kzc\stm32\h743ii_lcd\lvgl\src\misc\lv_color.h ****             lv_opa_t ratio = (uint16_t)((uint16_t)fg_opa * 255) / res_opa_saved;
 570:d:\kzc\stm32\h743ii_lcd\lvgl\src\misc\lv_color.h ****             res_color_saved = lv_color_mix(fg_color, bg_color, ratio);
 571:d:\kzc\stm32\h743ii_lcd\lvgl\src\misc\lv_color.h **** 
 572:d:\kzc\stm32\h743ii_lcd\lvgl\src\misc\lv_color.h ****         }
 573:d:\kzc\stm32\h743ii_lcd\lvgl\src\misc\lv_color.h **** 
 574:d:\kzc\stm32\h743ii_lcd\lvgl\src\misc\lv_color.h ****         res_color->full = res_color_saved.full;
 575:d:\kzc\stm32\h743ii_lcd\lvgl\src\misc\lv_color.h ****         *res_opa = res_opa_saved;
 576:d:\kzc\stm32\h743ii_lcd\lvgl\src\misc\lv_color.h ****     }
 577:d:\kzc\stm32\h743ii_lcd\lvgl\src\misc\lv_color.h **** }
 578:d:\kzc\stm32\h743ii_lcd\lvgl\src\misc\lv_color.h **** 
 579:d:\kzc\stm32\h743ii_lcd\lvgl\src\misc\lv_color.h **** //! @endcond
 580:d:\kzc\stm32\h743ii_lcd\lvgl\src\misc\lv_color.h **** 
 581:d:\kzc\stm32\h743ii_lcd\lvgl\src\misc\lv_color.h **** /**
 582:d:\kzc\stm32\h743ii_lcd\lvgl\src\misc\lv_color.h ****  * Get the brightness of a color
 583:d:\kzc\stm32\h743ii_lcd\lvgl\src\misc\lv_color.h ****  * @param color a color
ARM GAS  C:\Users\OSD\AppData\Local\Temp\ccMhRpSZ.s 			page 46


 584:d:\kzc\stm32\h743ii_lcd\lvgl\src\misc\lv_color.h ****  * @return the brightness [0..255]
 585:d:\kzc\stm32\h743ii_lcd\lvgl\src\misc\lv_color.h ****  */
 586:d:\kzc\stm32\h743ii_lcd\lvgl\src\misc\lv_color.h **** static inline uint8_t lv_color_brightness(lv_color_t color)
 587:d:\kzc\stm32\h743ii_lcd\lvgl\src\misc\lv_color.h **** {
 588:d:\kzc\stm32\h743ii_lcd\lvgl\src\misc\lv_color.h ****     lv_color32_t c32;
 589:d:\kzc\stm32\h743ii_lcd\lvgl\src\misc\lv_color.h ****     c32.full        = lv_color_to32(color);
 590:d:\kzc\stm32\h743ii_lcd\lvgl\src\misc\lv_color.h ****     uint16_t bright = (uint16_t)(3u * LV_COLOR_GET_R32(c32) + LV_COLOR_GET_B32(c32) + 4u * LV_COLOR
 591:d:\kzc\stm32\h743ii_lcd\lvgl\src\misc\lv_color.h ****     return (uint8_t)(bright >> 3);
 592:d:\kzc\stm32\h743ii_lcd\lvgl\src\misc\lv_color.h **** }
 593:d:\kzc\stm32\h743ii_lcd\lvgl\src\misc\lv_color.h **** 
 594:d:\kzc\stm32\h743ii_lcd\lvgl\src\misc\lv_color.h **** static inline lv_color_t lv_color_make(uint8_t r, uint8_t g, uint8_t b)
 595:d:\kzc\stm32\h743ii_lcd\lvgl\src\misc\lv_color.h **** {
 596:d:\kzc\stm32\h743ii_lcd\lvgl\src\misc\lv_color.h ****     return _LV_COLOR_MAKE_TYPE_HELPER LV_COLOR_MAKE(r, g, b);
 597:d:\kzc\stm32\h743ii_lcd\lvgl\src\misc\lv_color.h **** }
 598:d:\kzc\stm32\h743ii_lcd\lvgl\src\misc\lv_color.h **** 
 599:d:\kzc\stm32\h743ii_lcd\lvgl\src\misc\lv_color.h **** static inline lv_color_t lv_color_hex(uint32_t c)
 681              		.loc 4 599 26 view .LVU162
 682              	.LBB189:
 600:d:\kzc\stm32\h743ii_lcd\lvgl\src\misc\lv_color.h **** {
 601:d:\kzc\stm32\h743ii_lcd\lvgl\src\misc\lv_color.h **** #if LV_COLOR_DEPTH == 16
 602:d:\kzc\stm32\h743ii_lcd\lvgl\src\misc\lv_color.h ****     lv_color_t r;
 603:d:\kzc\stm32\h743ii_lcd\lvgl\src\misc\lv_color.h **** #if LV_COLOR_16_SWAP == 0
 604:d:\kzc\stm32\h743ii_lcd\lvgl\src\misc\lv_color.h ****     /* Convert a 4 bytes per pixel in format ARGB32 to R5G6B5 format
 605:d:\kzc\stm32\h743ii_lcd\lvgl\src\misc\lv_color.h ****         naive way (by calling lv_color_make with components):
 606:d:\kzc\stm32\h743ii_lcd\lvgl\src\misc\lv_color.h ****                     r = ((c & 0xFF0000) >> 19)
 607:d:\kzc\stm32\h743ii_lcd\lvgl\src\misc\lv_color.h ****                     g = ((c & 0xFF00) >> 10)
 608:d:\kzc\stm32\h743ii_lcd\lvgl\src\misc\lv_color.h ****                     b = ((c & 0xFF) >> 3)
 609:d:\kzc\stm32\h743ii_lcd\lvgl\src\misc\lv_color.h ****                     rgb565 = (r << 11) | (g << 5) | b
 610:d:\kzc\stm32\h743ii_lcd\lvgl\src\misc\lv_color.h ****         That's 3 mask, 5 bitshift and 2 or operations
 611:d:\kzc\stm32\h743ii_lcd\lvgl\src\misc\lv_color.h **** 
 612:d:\kzc\stm32\h743ii_lcd\lvgl\src\misc\lv_color.h ****         A bit better:
 613:d:\kzc\stm32\h743ii_lcd\lvgl\src\misc\lv_color.h ****                     r = ((c & 0xF80000) >> 8)
 614:d:\kzc\stm32\h743ii_lcd\lvgl\src\misc\lv_color.h ****                     g = ((c & 0xFC00) >> 5)
 615:d:\kzc\stm32\h743ii_lcd\lvgl\src\misc\lv_color.h ****                     b = ((c & 0xFF) >> 3)
 616:d:\kzc\stm32\h743ii_lcd\lvgl\src\misc\lv_color.h ****                     rgb565 = r | g | b
 617:d:\kzc\stm32\h743ii_lcd\lvgl\src\misc\lv_color.h ****         That's 3 mask, 3 bitshifts and 2 or operations */
 618:d:\kzc\stm32\h743ii_lcd\lvgl\src\misc\lv_color.h ****     r.full = (uint16_t)(((c & 0xF80000) >> 8) | ((c & 0xFC00) >> 5) | ((c & 0xFF) >> 3));
 619:d:\kzc\stm32\h743ii_lcd\lvgl\src\misc\lv_color.h **** #else
 620:d:\kzc\stm32\h743ii_lcd\lvgl\src\misc\lv_color.h ****     /* We want: rrrr rrrr GGGg gggg bbbb bbbb => gggb bbbb rrrr rGGG */
 621:d:\kzc\stm32\h743ii_lcd\lvgl\src\misc\lv_color.h ****     r.full = (uint16_t)(((c & 0xF80000) >> 16) | ((c & 0xFC00) >> 13) | ((c & 0x1C00) << 3) | ((c &
 622:d:\kzc\stm32\h743ii_lcd\lvgl\src\misc\lv_color.h **** #endif
 623:d:\kzc\stm32\h743ii_lcd\lvgl\src\misc\lv_color.h ****     return r;
 624:d:\kzc\stm32\h743ii_lcd\lvgl\src\misc\lv_color.h **** #elif LV_COLOR_DEPTH == 32
 625:d:\kzc\stm32\h743ii_lcd\lvgl\src\misc\lv_color.h ****     lv_color_t r;
 683              		.loc 4 625 5 view .LVU163
 626:d:\kzc\stm32\h743ii_lcd\lvgl\src\misc\lv_color.h ****     r.full = c | 0xFF000000;
 684              		.loc 4 626 5 view .LVU164
 627:d:\kzc\stm32\h743ii_lcd\lvgl\src\misc\lv_color.h ****     return r;
 685              		.loc 4 627 5 view .LVU165
 686              		.loc 4 627 5 is_stmt 0 view .LVU166
 687              	.LBE189:
 688              	.LBE188:
 486:lvgl/demos/music/lv_demo_music_main.c ****     lv_label_set_text(title_label, _lv_demo_music_get_title(track_id));
 689              		.loc 1 486 5 view .LVU167
 690 0042 0022     		movs	r2, #0
 691 0044 2949     		ldr	r1, .L36+12
 692 0046 2868     		ldr	r0, [r5]
ARM GAS  C:\Users\OSD\AppData\Local\Temp\ccMhRpSZ.s 			page 47


 693 0048 FFF7FEFF 		bl	lv_obj_set_style_text_color
 694              	.LVL73:
 487:lvgl/demos/music/lv_demo_music_main.c ****     lv_obj_set_height(title_label, lv_font_get_line_height(font_large) * 3 / 2);
 695              		.loc 1 487 5 is_stmt 1 view .LVU168
 696 004c 2D68     		ldr	r5, [r5]
 697 004e 284B     		ldr	r3, .L36+16
 698 0050 1868     		ldr	r0, [r3]
 699 0052 FFF7FEFF 		bl	_lv_demo_music_get_title
 700              	.LVL74:
 701 0056 0146     		mov	r1, r0
 702 0058 2846     		mov	r0, r5
 703 005a FFF7FEFF 		bl	lv_label_set_text
 704              	.LVL75:
 488:lvgl/demos/music/lv_demo_music_main.c **** 
 705              		.loc 1 488 5 view .LVU169
 488:lvgl/demos/music/lv_demo_music_main.c **** 
 706              		.loc 1 488 36 is_stmt 0 view .LVU170
 707 005e 3368     		ldr	r3, [r6]
 708              	.LVL76:
 709              	.LBB190:
 710              	.LBI190:
 711              		.file 5 "d:\\kzc\\stm32\\h743ii_lcd\\lvgl\\src\\font\\lv_font.h"
   1:d:\kzc\stm32\h743ii_lcd\lvgl\src\font\lv_font.h **** /**
   2:d:\kzc\stm32\h743ii_lcd\lvgl\src\font\lv_font.h ****  * @file lv_font.h
   3:d:\kzc\stm32\h743ii_lcd\lvgl\src\font\lv_font.h ****  *
   4:d:\kzc\stm32\h743ii_lcd\lvgl\src\font\lv_font.h ****  */
   5:d:\kzc\stm32\h743ii_lcd\lvgl\src\font\lv_font.h **** 
   6:d:\kzc\stm32\h743ii_lcd\lvgl\src\font\lv_font.h **** #ifndef LV_FONT_H
   7:d:\kzc\stm32\h743ii_lcd\lvgl\src\font\lv_font.h **** #define LV_FONT_H
   8:d:\kzc\stm32\h743ii_lcd\lvgl\src\font\lv_font.h **** 
   9:d:\kzc\stm32\h743ii_lcd\lvgl\src\font\lv_font.h **** #ifdef __cplusplus
  10:d:\kzc\stm32\h743ii_lcd\lvgl\src\font\lv_font.h **** extern "C" {
  11:d:\kzc\stm32\h743ii_lcd\lvgl\src\font\lv_font.h **** #endif
  12:d:\kzc\stm32\h743ii_lcd\lvgl\src\font\lv_font.h **** 
  13:d:\kzc\stm32\h743ii_lcd\lvgl\src\font\lv_font.h **** /*********************
  14:d:\kzc\stm32\h743ii_lcd\lvgl\src\font\lv_font.h ****  *      INCLUDES
  15:d:\kzc\stm32\h743ii_lcd\lvgl\src\font\lv_font.h ****  *********************/
  16:d:\kzc\stm32\h743ii_lcd\lvgl\src\font\lv_font.h **** #include "../lv_conf_internal.h"
  17:d:\kzc\stm32\h743ii_lcd\lvgl\src\font\lv_font.h **** #include <stdint.h>
  18:d:\kzc\stm32\h743ii_lcd\lvgl\src\font\lv_font.h **** #include <stddef.h>
  19:d:\kzc\stm32\h743ii_lcd\lvgl\src\font\lv_font.h **** #include <stdbool.h>
  20:d:\kzc\stm32\h743ii_lcd\lvgl\src\font\lv_font.h **** 
  21:d:\kzc\stm32\h743ii_lcd\lvgl\src\font\lv_font.h **** #include "lv_symbol_def.h"
  22:d:\kzc\stm32\h743ii_lcd\lvgl\src\font\lv_font.h **** #include "../misc/lv_area.h"
  23:d:\kzc\stm32\h743ii_lcd\lvgl\src\font\lv_font.h **** 
  24:d:\kzc\stm32\h743ii_lcd\lvgl\src\font\lv_font.h **** /*********************
  25:d:\kzc\stm32\h743ii_lcd\lvgl\src\font\lv_font.h ****  *      DEFINES
  26:d:\kzc\stm32\h743ii_lcd\lvgl\src\font\lv_font.h ****  *********************/
  27:d:\kzc\stm32\h743ii_lcd\lvgl\src\font\lv_font.h **** 
  28:d:\kzc\stm32\h743ii_lcd\lvgl\src\font\lv_font.h **** /* imgfont identifier */
  29:d:\kzc\stm32\h743ii_lcd\lvgl\src\font\lv_font.h **** #define LV_IMGFONT_BPP 9
  30:d:\kzc\stm32\h743ii_lcd\lvgl\src\font\lv_font.h **** 
  31:d:\kzc\stm32\h743ii_lcd\lvgl\src\font\lv_font.h **** /**********************
  32:d:\kzc\stm32\h743ii_lcd\lvgl\src\font\lv_font.h ****  *      TYPEDEFS
  33:d:\kzc\stm32\h743ii_lcd\lvgl\src\font\lv_font.h ****  **********************/
  34:d:\kzc\stm32\h743ii_lcd\lvgl\src\font\lv_font.h **** 
  35:d:\kzc\stm32\h743ii_lcd\lvgl\src\font\lv_font.h **** /*------------------
ARM GAS  C:\Users\OSD\AppData\Local\Temp\ccMhRpSZ.s 			page 48


  36:d:\kzc\stm32\h743ii_lcd\lvgl\src\font\lv_font.h ****  * General types
  37:d:\kzc\stm32\h743ii_lcd\lvgl\src\font\lv_font.h ****  *-----------------*/
  38:d:\kzc\stm32\h743ii_lcd\lvgl\src\font\lv_font.h **** 
  39:d:\kzc\stm32\h743ii_lcd\lvgl\src\font\lv_font.h **** struct _lv_font_t;
  40:d:\kzc\stm32\h743ii_lcd\lvgl\src\font\lv_font.h **** /** Describes the properties of a glyph.*/
  41:d:\kzc\stm32\h743ii_lcd\lvgl\src\font\lv_font.h **** typedef struct {
  42:d:\kzc\stm32\h743ii_lcd\lvgl\src\font\lv_font.h ****     const struct _lv_font_t *
  43:d:\kzc\stm32\h743ii_lcd\lvgl\src\font\lv_font.h ****         resolved_font; /**< Pointer to a font where the glyph was actually found after handling fal
  44:d:\kzc\stm32\h743ii_lcd\lvgl\src\font\lv_font.h ****     uint16_t adv_w; /**< The glyph needs this space. Draw the next glyph after this width.*/
  45:d:\kzc\stm32\h743ii_lcd\lvgl\src\font\lv_font.h ****     uint16_t box_w; /**< Width of the glyph's bounding box*/
  46:d:\kzc\stm32\h743ii_lcd\lvgl\src\font\lv_font.h ****     uint16_t box_h; /**< Height of the glyph's bounding box*/
  47:d:\kzc\stm32\h743ii_lcd\lvgl\src\font\lv_font.h ****     int16_t ofs_x;  /**< x offset of the bounding box*/
  48:d:\kzc\stm32\h743ii_lcd\lvgl\src\font\lv_font.h ****     int16_t ofs_y;  /**< y offset of the bounding box*/
  49:d:\kzc\stm32\h743ii_lcd\lvgl\src\font\lv_font.h ****     uint8_t bpp: 4;  /**< Bit-per-pixel: 1, 2, 4, 8*/
  50:d:\kzc\stm32\h743ii_lcd\lvgl\src\font\lv_font.h ****     uint8_t is_placeholder: 1; /** Glyph is missing. But placeholder will still be displayed */
  51:d:\kzc\stm32\h743ii_lcd\lvgl\src\font\lv_font.h **** } lv_font_glyph_dsc_t;
  52:d:\kzc\stm32\h743ii_lcd\lvgl\src\font\lv_font.h **** 
  53:d:\kzc\stm32\h743ii_lcd\lvgl\src\font\lv_font.h **** /** The bitmaps might be upscaled by 3 to achieve subpixel rendering.*/
  54:d:\kzc\stm32\h743ii_lcd\lvgl\src\font\lv_font.h **** enum {
  55:d:\kzc\stm32\h743ii_lcd\lvgl\src\font\lv_font.h ****     LV_FONT_SUBPX_NONE,
  56:d:\kzc\stm32\h743ii_lcd\lvgl\src\font\lv_font.h ****     LV_FONT_SUBPX_HOR,
  57:d:\kzc\stm32\h743ii_lcd\lvgl\src\font\lv_font.h ****     LV_FONT_SUBPX_VER,
  58:d:\kzc\stm32\h743ii_lcd\lvgl\src\font\lv_font.h ****     LV_FONT_SUBPX_BOTH,
  59:d:\kzc\stm32\h743ii_lcd\lvgl\src\font\lv_font.h **** };
  60:d:\kzc\stm32\h743ii_lcd\lvgl\src\font\lv_font.h **** 
  61:d:\kzc\stm32\h743ii_lcd\lvgl\src\font\lv_font.h **** typedef uint8_t lv_font_subpx_t;
  62:d:\kzc\stm32\h743ii_lcd\lvgl\src\font\lv_font.h **** 
  63:d:\kzc\stm32\h743ii_lcd\lvgl\src\font\lv_font.h **** /** Describe the properties of a font*/
  64:d:\kzc\stm32\h743ii_lcd\lvgl\src\font\lv_font.h **** typedef struct _lv_font_t {
  65:d:\kzc\stm32\h743ii_lcd\lvgl\src\font\lv_font.h ****     /** Get a glyph's descriptor from a font*/
  66:d:\kzc\stm32\h743ii_lcd\lvgl\src\font\lv_font.h ****     bool (*get_glyph_dsc)(const struct _lv_font_t *, lv_font_glyph_dsc_t *, uint32_t letter, uint32
  67:d:\kzc\stm32\h743ii_lcd\lvgl\src\font\lv_font.h **** 
  68:d:\kzc\stm32\h743ii_lcd\lvgl\src\font\lv_font.h ****     /** Get a glyph's bitmap from a font*/
  69:d:\kzc\stm32\h743ii_lcd\lvgl\src\font\lv_font.h ****     const uint8_t * (*get_glyph_bitmap)(const struct _lv_font_t *, uint32_t);
  70:d:\kzc\stm32\h743ii_lcd\lvgl\src\font\lv_font.h **** 
  71:d:\kzc\stm32\h743ii_lcd\lvgl\src\font\lv_font.h ****     /*Pointer to the font in a font pack (must have the same line height)*/
  72:d:\kzc\stm32\h743ii_lcd\lvgl\src\font\lv_font.h ****     lv_coord_t line_height;         /**< The real line height where any text fits*/
  73:d:\kzc\stm32\h743ii_lcd\lvgl\src\font\lv_font.h ****     lv_coord_t base_line;           /**< Base line measured from the top of the line_height*/
  74:d:\kzc\stm32\h743ii_lcd\lvgl\src\font\lv_font.h ****     uint8_t subpx  : 2;             /**< An element of `lv_font_subpx_t`*/
  75:d:\kzc\stm32\h743ii_lcd\lvgl\src\font\lv_font.h **** 
  76:d:\kzc\stm32\h743ii_lcd\lvgl\src\font\lv_font.h ****     int8_t underline_position;      /**< Distance between the top of the underline and base line (<
  77:d:\kzc\stm32\h743ii_lcd\lvgl\src\font\lv_font.h ****     int8_t underline_thickness;     /**< Thickness of the underline*/
  78:d:\kzc\stm32\h743ii_lcd\lvgl\src\font\lv_font.h **** 
  79:d:\kzc\stm32\h743ii_lcd\lvgl\src\font\lv_font.h ****     const void * dsc;               /**< Store implementation specific or run_time data or caching 
  80:d:\kzc\stm32\h743ii_lcd\lvgl\src\font\lv_font.h ****     const struct _lv_font_t * fallback;   /**< Fallback font for missing glyph. Resolved recursivel
  81:d:\kzc\stm32\h743ii_lcd\lvgl\src\font\lv_font.h **** #if LV_USE_USER_DATA
  82:d:\kzc\stm32\h743ii_lcd\lvgl\src\font\lv_font.h ****     void * user_data;               /**< Custom user data for font.*/
  83:d:\kzc\stm32\h743ii_lcd\lvgl\src\font\lv_font.h **** #endif
  84:d:\kzc\stm32\h743ii_lcd\lvgl\src\font\lv_font.h **** } lv_font_t;
  85:d:\kzc\stm32\h743ii_lcd\lvgl\src\font\lv_font.h **** 
  86:d:\kzc\stm32\h743ii_lcd\lvgl\src\font\lv_font.h **** /**********************
  87:d:\kzc\stm32\h743ii_lcd\lvgl\src\font\lv_font.h ****  * GLOBAL PROTOTYPES
  88:d:\kzc\stm32\h743ii_lcd\lvgl\src\font\lv_font.h ****  **********************/
  89:d:\kzc\stm32\h743ii_lcd\lvgl\src\font\lv_font.h **** 
  90:d:\kzc\stm32\h743ii_lcd\lvgl\src\font\lv_font.h **** /**
  91:d:\kzc\stm32\h743ii_lcd\lvgl\src\font\lv_font.h ****  * Return with the bitmap of a font.
  92:d:\kzc\stm32\h743ii_lcd\lvgl\src\font\lv_font.h ****  * @param font_p pointer to a font
ARM GAS  C:\Users\OSD\AppData\Local\Temp\ccMhRpSZ.s 			page 49


  93:d:\kzc\stm32\h743ii_lcd\lvgl\src\font\lv_font.h ****  * @param letter a UNICODE character code
  94:d:\kzc\stm32\h743ii_lcd\lvgl\src\font\lv_font.h ****  * @return pointer to the bitmap of the letter
  95:d:\kzc\stm32\h743ii_lcd\lvgl\src\font\lv_font.h ****  */
  96:d:\kzc\stm32\h743ii_lcd\lvgl\src\font\lv_font.h **** const uint8_t * lv_font_get_glyph_bitmap(const lv_font_t * font_p, uint32_t letter);
  97:d:\kzc\stm32\h743ii_lcd\lvgl\src\font\lv_font.h **** 
  98:d:\kzc\stm32\h743ii_lcd\lvgl\src\font\lv_font.h **** /**
  99:d:\kzc\stm32\h743ii_lcd\lvgl\src\font\lv_font.h ****  * Get the descriptor of a glyph
 100:d:\kzc\stm32\h743ii_lcd\lvgl\src\font\lv_font.h ****  * @param font_p pointer to font
 101:d:\kzc\stm32\h743ii_lcd\lvgl\src\font\lv_font.h ****  * @param dsc_out store the result descriptor here
 102:d:\kzc\stm32\h743ii_lcd\lvgl\src\font\lv_font.h ****  * @param letter a UNICODE letter code
 103:d:\kzc\stm32\h743ii_lcd\lvgl\src\font\lv_font.h ****  * @param letter_next the next letter after `letter`. Used for kerning
 104:d:\kzc\stm32\h743ii_lcd\lvgl\src\font\lv_font.h ****  * @return true: descriptor is successfully loaded into `dsc_out`.
 105:d:\kzc\stm32\h743ii_lcd\lvgl\src\font\lv_font.h ****  *         false: the letter was not found, no data is loaded to `dsc_out`
 106:d:\kzc\stm32\h743ii_lcd\lvgl\src\font\lv_font.h ****  */
 107:d:\kzc\stm32\h743ii_lcd\lvgl\src\font\lv_font.h **** bool lv_font_get_glyph_dsc(const lv_font_t * font_p, lv_font_glyph_dsc_t * dsc_out, uint32_t letter
 108:d:\kzc\stm32\h743ii_lcd\lvgl\src\font\lv_font.h ****                            uint32_t letter_next);
 109:d:\kzc\stm32\h743ii_lcd\lvgl\src\font\lv_font.h **** 
 110:d:\kzc\stm32\h743ii_lcd\lvgl\src\font\lv_font.h **** /**
 111:d:\kzc\stm32\h743ii_lcd\lvgl\src\font\lv_font.h ****  * Get the width of a glyph with kerning
 112:d:\kzc\stm32\h743ii_lcd\lvgl\src\font\lv_font.h ****  * @param font pointer to a font
 113:d:\kzc\stm32\h743ii_lcd\lvgl\src\font\lv_font.h ****  * @param letter a UNICODE letter
 114:d:\kzc\stm32\h743ii_lcd\lvgl\src\font\lv_font.h ****  * @param letter_next the next letter after `letter`. Used for kerning
 115:d:\kzc\stm32\h743ii_lcd\lvgl\src\font\lv_font.h ****  * @return the width of the glyph
 116:d:\kzc\stm32\h743ii_lcd\lvgl\src\font\lv_font.h ****  */
 117:d:\kzc\stm32\h743ii_lcd\lvgl\src\font\lv_font.h **** uint16_t lv_font_get_glyph_width(const lv_font_t * font, uint32_t letter, uint32_t letter_next);
 118:d:\kzc\stm32\h743ii_lcd\lvgl\src\font\lv_font.h **** 
 119:d:\kzc\stm32\h743ii_lcd\lvgl\src\font\lv_font.h **** /**
 120:d:\kzc\stm32\h743ii_lcd\lvgl\src\font\lv_font.h ****  * Get the line height of a font. All characters fit into this height
 121:d:\kzc\stm32\h743ii_lcd\lvgl\src\font\lv_font.h ****  * @param font_p pointer to a font
 122:d:\kzc\stm32\h743ii_lcd\lvgl\src\font\lv_font.h ****  * @return the height of a font
 123:d:\kzc\stm32\h743ii_lcd\lvgl\src\font\lv_font.h ****  */
 124:d:\kzc\stm32\h743ii_lcd\lvgl\src\font\lv_font.h **** static inline lv_coord_t lv_font_get_line_height(const lv_font_t * font_p)
 712              		.loc 5 124 26 is_stmt 1 view .LVU171
 713              	.LBB191:
 125:d:\kzc\stm32\h743ii_lcd\lvgl\src\font\lv_font.h **** {
 126:d:\kzc\stm32\h743ii_lcd\lvgl\src\font\lv_font.h ****     return font_p->line_height;
 714              		.loc 5 126 5 view .LVU172
 715              		.loc 5 126 18 is_stmt 0 view .LVU173
 716 0060 B3F90830 		ldrsh	r3, [r3, #8]
 717              	.LVL77:
 718              		.loc 5 126 18 view .LVU174
 719              	.LBE191:
 720              	.LBE190:
 488:lvgl/demos/music/lv_demo_music_main.c **** 
 721              		.loc 1 488 72 view .LVU175
 722 0064 03EB4303 		add	r3, r3, r3, lsl #1
 488:lvgl/demos/music/lv_demo_music_main.c **** 
 723              		.loc 1 488 76 view .LVU176
 724 0068 1946     		mov	r1, r3
 725 006a 002B     		cmp	r3, #0
 726 006c 35DB     		blt	.L35
 727              	.L33:
 488:lvgl/demos/music/lv_demo_music_main.c **** 
 728              		.loc 1 488 5 view .LVU177
 729 006e 41F34F01 		sbfx	r1, r1, #1, #16
 730 0072 1C4B     		ldr	r3, .L36+4
 731 0074 1868     		ldr	r0, [r3]
ARM GAS  C:\Users\OSD\AppData\Local\Temp\ccMhRpSZ.s 			page 50


 732 0076 FFF7FEFF 		bl	lv_obj_set_height
 733              	.LVL78:
 490:lvgl/demos/music/lv_demo_music_main.c ****     lv_obj_set_style_text_font(artist_label, font_small, 0);
 734              		.loc 1 490 5 is_stmt 1 view .LVU178
 490:lvgl/demos/music/lv_demo_music_main.c ****     lv_obj_set_style_text_font(artist_label, font_small, 0);
 735              		.loc 1 490 20 is_stmt 0 view .LVU179
 736 007a 2046     		mov	r0, r4
 737 007c FFF7FEFF 		bl	lv_label_create
 738              	.LVL79:
 490:lvgl/demos/music/lv_demo_music_main.c ****     lv_obj_set_style_text_font(artist_label, font_small, 0);
 739              		.loc 1 490 18 view .LVU180
 740 0080 1C4D     		ldr	r5, .L36+20
 741 0082 2860     		str	r0, [r5]
 491:lvgl/demos/music/lv_demo_music_main.c ****     lv_obj_set_style_text_color(artist_label, lv_color_hex(0x504d6d), 0);
 742              		.loc 1 491 5 is_stmt 1 view .LVU181
 743 0084 1C4F     		ldr	r7, .L36+24
 744 0086 0022     		movs	r2, #0
 745 0088 3968     		ldr	r1, [r7]
 746 008a FFF7FEFF 		bl	lv_obj_set_style_text_font
 747              	.LVL80:
 492:lvgl/demos/music/lv_demo_music_main.c ****     lv_label_set_text(artist_label, _lv_demo_music_get_artist(track_id));
 748              		.loc 1 492 5 view .LVU182
 749              	.LBB192:
 750              	.LBI192:
 599:d:\kzc\stm32\h743ii_lcd\lvgl\src\misc\lv_color.h **** {
 751              		.loc 4 599 26 view .LVU183
 752              	.LBB193:
 625:d:\kzc\stm32\h743ii_lcd\lvgl\src\misc\lv_color.h ****     r.full = c | 0xFF000000;
 753              		.loc 4 625 5 view .LVU184
 626:d:\kzc\stm32\h743ii_lcd\lvgl\src\misc\lv_color.h ****     return r;
 754              		.loc 4 626 5 view .LVU185
 755              		.loc 4 627 5 view .LVU186
 756              		.loc 4 627 5 is_stmt 0 view .LVU187
 757              	.LBE193:
 758              	.LBE192:
 492:lvgl/demos/music/lv_demo_music_main.c ****     lv_label_set_text(artist_label, _lv_demo_music_get_artist(track_id));
 759              		.loc 1 492 5 view .LVU188
 760 008e 0022     		movs	r2, #0
 761 0090 1649     		ldr	r1, .L36+12
 762 0092 2868     		ldr	r0, [r5]
 763 0094 FFF7FEFF 		bl	lv_obj_set_style_text_color
 764              	.LVL81:
 493:lvgl/demos/music/lv_demo_music_main.c **** 
 765              		.loc 1 493 5 is_stmt 1 view .LVU189
 766 0098 2D68     		ldr	r5, [r5]
 767 009a 154E     		ldr	r6, .L36+16
 768 009c 3068     		ldr	r0, [r6]
 769 009e FFF7FEFF 		bl	_lv_demo_music_get_artist
 770              	.LVL82:
 771 00a2 0146     		mov	r1, r0
 772 00a4 2846     		mov	r0, r5
 773 00a6 FFF7FEFF 		bl	lv_label_set_text
 774              	.LVL83:
 495:lvgl/demos/music/lv_demo_music_main.c ****     lv_obj_set_style_text_font(genre_label, font_small, 0);
 775              		.loc 1 495 5 view .LVU190
 495:lvgl/demos/music/lv_demo_music_main.c ****     lv_obj_set_style_text_font(genre_label, font_small, 0);
 776              		.loc 1 495 19 is_stmt 0 view .LVU191
ARM GAS  C:\Users\OSD\AppData\Local\Temp\ccMhRpSZ.s 			page 51


 777 00aa 2046     		mov	r0, r4
 778 00ac FFF7FEFF 		bl	lv_label_create
 779              	.LVL84:
 495:lvgl/demos/music/lv_demo_music_main.c ****     lv_obj_set_style_text_font(genre_label, font_small, 0);
 780              		.loc 1 495 17 view .LVU192
 781 00b0 124D     		ldr	r5, .L36+28
 782 00b2 2860     		str	r0, [r5]
 496:lvgl/demos/music/lv_demo_music_main.c ****     lv_obj_set_style_text_color(genre_label, lv_color_hex(0x8a86b8), 0);
 783              		.loc 1 496 5 is_stmt 1 view .LVU193
 784 00b4 0022     		movs	r2, #0
 785 00b6 3968     		ldr	r1, [r7]
 786 00b8 FFF7FEFF 		bl	lv_obj_set_style_text_font
 787              	.LVL85:
 497:lvgl/demos/music/lv_demo_music_main.c ****     lv_label_set_text(genre_label, _lv_demo_music_get_genre(track_id));
 788              		.loc 1 497 5 view .LVU194
 789              	.LBB194:
 790              	.LBI194:
 599:d:\kzc\stm32\h743ii_lcd\lvgl\src\misc\lv_color.h **** {
 791              		.loc 4 599 26 view .LVU195
 792              	.LBB195:
 625:d:\kzc\stm32\h743ii_lcd\lvgl\src\misc\lv_color.h ****     r.full = c | 0xFF000000;
 793              		.loc 4 625 5 view .LVU196
 626:d:\kzc\stm32\h743ii_lcd\lvgl\src\misc\lv_color.h ****     return r;
 794              		.loc 4 626 5 view .LVU197
 795              		.loc 4 627 5 view .LVU198
 796              		.loc 4 627 5 is_stmt 0 view .LVU199
 797              	.LBE195:
 798              	.LBE194:
 497:lvgl/demos/music/lv_demo_music_main.c ****     lv_label_set_text(genre_label, _lv_demo_music_get_genre(track_id));
 799              		.loc 1 497 5 view .LVU200
 800 00bc 0022     		movs	r2, #0
 801 00be 1049     		ldr	r1, .L36+32
 802 00c0 2868     		ldr	r0, [r5]
 803 00c2 FFF7FEFF 		bl	lv_obj_set_style_text_color
 804              	.LVL86:
 498:lvgl/demos/music/lv_demo_music_main.c **** 
 805              		.loc 1 498 5 is_stmt 1 view .LVU201
 806 00c6 2D68     		ldr	r5, [r5]
 807 00c8 3068     		ldr	r0, [r6]
 808 00ca FFF7FEFF 		bl	_lv_demo_music_get_genre
 809              	.LVL87:
 810 00ce 0146     		mov	r1, r0
 811 00d0 2846     		mov	r0, r5
 812 00d2 FFF7FEFF 		bl	lv_label_set_text
 813              	.LVL88:
 500:lvgl/demos/music/lv_demo_music_main.c **** }
 814              		.loc 1 500 5 view .LVU202
 501:lvgl/demos/music/lv_demo_music_main.c **** 
 815              		.loc 1 501 1 is_stmt 0 view .LVU203
 816 00d6 2046     		mov	r0, r4
 817 00d8 F8BD     		pop	{r3, r4, r5, r6, r7, pc}
 818              	.LVL89:
 819              	.L35:
 488:lvgl/demos/music/lv_demo_music_main.c **** 
 820              		.loc 1 488 76 view .LVU204
 821 00da 591C     		adds	r1, r3, #1
 822 00dc C7E7     		b	.L33
ARM GAS  C:\Users\OSD\AppData\Local\Temp\ccMhRpSZ.s 			page 52


 823              	.L37:
 824 00de 00BF     		.align	2
 825              	.L36:
 826 00e0 FFFF0F00 		.word	1048575
 827 00e4 00000000 		.word	.LANCHOR14
 828 00e8 00000000 		.word	.LANCHOR15
 829 00ec 6D4D50FF 		.word	-11514515
 830 00f0 00000000 		.word	.LANCHOR16
 831 00f4 00000000 		.word	.LANCHOR17
 832 00f8 00000000 		.word	.LANCHOR18
 833 00fc 00000000 		.word	.LANCHOR19
 834 0100 B8868AFF 		.word	-7698760
 835              		.cfi_endproc
 836              	.LFE214:
 838              		.section	.rodata.create_ctrl_box.str1.4,"aMS",%progbits,1
 839              		.align	2
 840              	.LC1:
 841 0000 303A3030 		.ascii	"0:00\000"
 841      00
 842              		.section	.text.create_ctrl_box,"ax",%progbits
 843              		.align	1
 844              		.syntax unified
 845              		.thumb
 846              		.thumb_func
 848              	create_ctrl_box:
 849              	.LVL90:
 850              	.LFB217:
 547:lvgl/demos/music/lv_demo_music_main.c ****     /*Create the control box*/
 851              		.loc 1 547 1 is_stmt 1 view -0
 852              		.cfi_startproc
 853              		@ args = 0, pretend = 0, frame = 0
 854              		@ frame_needed = 0, uses_anonymous_args = 0
 547:lvgl/demos/music/lv_demo_music_main.c ****     /*Create the control box*/
 855              		.loc 1 547 1 is_stmt 0 view .LVU206
 856 0000 2DE9F041 		push	{r4, r5, r6, r7, r8, lr}
 857              		.cfi_def_cfa_offset 24
 858              		.cfi_offset 4, -24
 859              		.cfi_offset 5, -20
 860              		.cfi_offset 6, -16
 861              		.cfi_offset 7, -12
 862              		.cfi_offset 8, -8
 863              		.cfi_offset 14, -4
 864 0004 84B0     		sub	sp, sp, #16
 865              		.cfi_def_cfa_offset 40
 549:lvgl/demos/music/lv_demo_music_main.c ****     lv_obj_remove_style_all(cont);
 866              		.loc 1 549 5 is_stmt 1 view .LVU207
 549:lvgl/demos/music/lv_demo_music_main.c ****     lv_obj_remove_style_all(cont);
 867              		.loc 1 549 23 is_stmt 0 view .LVU208
 868 0006 FFF7FEFF 		bl	lv_obj_create
 869              	.LVL91:
 549:lvgl/demos/music/lv_demo_music_main.c ****     lv_obj_remove_style_all(cont);
 870              		.loc 1 549 23 view .LVU209
 871 000a 0646     		mov	r6, r0
 872              	.LVL92:
 550:lvgl/demos/music/lv_demo_music_main.c ****     lv_obj_set_height(cont, LV_SIZE_CONTENT);
 873              		.loc 1 550 5 is_stmt 1 view .LVU210
 874              	.LBB206:
ARM GAS  C:\Users\OSD\AppData\Local\Temp\ccMhRpSZ.s 			page 53


 875              	.LBI206:
  92:lvgl/demos/music/../../src/core/lv_obj_style.h **** {
 876              		.loc 3 92 20 view .LVU211
 877              	.LBB207:
 878              		.loc 3 94 5 view .LVU212
 879 000c 864A     		ldr	r2, .L40
 880 000e 0021     		movs	r1, #0
 881 0010 FFF7FEFF 		bl	lv_obj_remove_style
 882              	.LVL93:
 883              		.loc 3 94 5 is_stmt 0 view .LVU213
 884              	.LBE207:
 885              	.LBE206:
 551:lvgl/demos/music/lv_demo_music_main.c **** #if LV_DEMO_MUSIC_LARGE
 886              		.loc 1 551 5 is_stmt 1 view .LVU214
 887 0014 42F2D171 		movw	r1, #10193
 888 0018 3046     		mov	r0, r6
 889 001a FFF7FEFF 		bl	lv_obj_set_height
 890              	.LVL94:
 555:lvgl/demos/music/lv_demo_music_main.c **** #endif
 891              		.loc 1 555 5 view .LVU215
 892 001e 0022     		movs	r2, #0
 893 0020 0821     		movs	r1, #8
 894 0022 3046     		mov	r0, r6
 895 0024 FFF7FEFF 		bl	lv_obj_set_style_pad_bottom
 896              	.LVL95:
 557:lvgl/demos/music/lv_demo_music_main.c ****     static const lv_coord_t grid_row[] = {LV_GRID_CONTENT, LV_GRID_CONTENT, LV_GRID_TEMPLATE_LAST};
 897              		.loc 1 557 5 view .LVU216
 558:lvgl/demos/music/lv_demo_music_main.c ****     lv_obj_set_grid_dsc_array(cont, grid_col, grid_row);
 898              		.loc 1 558 5 view .LVU217
 559:lvgl/demos/music/lv_demo_music_main.c **** 
 899              		.loc 1 559 5 view .LVU218
 900 0028 804A     		ldr	r2, .L40+4
 901 002a 8149     		ldr	r1, .L40+8
 902 002c 3046     		mov	r0, r6
 903 002e FFF7FEFF 		bl	lv_obj_set_grid_dsc_array
 904              	.LVL96:
 561:lvgl/demos/music/lv_demo_music_main.c ****     LV_IMG_DECLARE(img_lv_demo_music_btn_rnd);
 905              		.loc 1 561 5 view .LVU219
 561:lvgl/demos/music/lv_demo_music_main.c ****     LV_IMG_DECLARE(img_lv_demo_music_btn_rnd);
 906              		.loc 1 561 47 view .LVU220
 562:lvgl/demos/music/lv_demo_music_main.c ****     LV_IMG_DECLARE(img_lv_demo_music_btn_next);
 907              		.loc 1 562 5 view .LVU221
 562:lvgl/demos/music/lv_demo_music_main.c ****     LV_IMG_DECLARE(img_lv_demo_music_btn_next);
 908              		.loc 1 562 46 view .LVU222
 563:lvgl/demos/music/lv_demo_music_main.c ****     LV_IMG_DECLARE(img_lv_demo_music_btn_prev);
 909              		.loc 1 563 5 view .LVU223
 563:lvgl/demos/music/lv_demo_music_main.c ****     LV_IMG_DECLARE(img_lv_demo_music_btn_prev);
 910              		.loc 1 563 47 view .LVU224
 564:lvgl/demos/music/lv_demo_music_main.c ****     LV_IMG_DECLARE(img_lv_demo_music_btn_play);
 911              		.loc 1 564 5 view .LVU225
 564:lvgl/demos/music/lv_demo_music_main.c ****     LV_IMG_DECLARE(img_lv_demo_music_btn_play);
 912              		.loc 1 564 47 view .LVU226
 565:lvgl/demos/music/lv_demo_music_main.c ****     LV_IMG_DECLARE(img_lv_demo_music_btn_pause);
 913              		.loc 1 565 5 view .LVU227
 565:lvgl/demos/music/lv_demo_music_main.c ****     LV_IMG_DECLARE(img_lv_demo_music_btn_pause);
 914              		.loc 1 565 47 view .LVU228
 566:lvgl/demos/music/lv_demo_music_main.c **** 
ARM GAS  C:\Users\OSD\AppData\Local\Temp\ccMhRpSZ.s 			page 54


 915              		.loc 1 566 5 view .LVU229
 566:lvgl/demos/music/lv_demo_music_main.c **** 
 916              		.loc 1 566 48 view .LVU230
 568:lvgl/demos/music/lv_demo_music_main.c ****     icon = lv_img_create(cont);
 917              		.loc 1 568 5 view .LVU231
 569:lvgl/demos/music/lv_demo_music_main.c ****     lv_img_set_src(icon, &img_lv_demo_music_btn_rnd);
 918              		.loc 1 569 5 view .LVU232
 569:lvgl/demos/music/lv_demo_music_main.c ****     lv_img_set_src(icon, &img_lv_demo_music_btn_rnd);
 919              		.loc 1 569 12 is_stmt 0 view .LVU233
 920 0032 3046     		mov	r0, r6
 921 0034 FFF7FEFF 		bl	lv_img_create
 922              	.LVL97:
 923 0038 0746     		mov	r7, r0
 924              	.LVL98:
 570:lvgl/demos/music/lv_demo_music_main.c ****     lv_obj_set_grid_cell(icon, LV_GRID_ALIGN_START, 1, 1, LV_GRID_ALIGN_CENTER, 0, 1);
 925              		.loc 1 570 5 is_stmt 1 view .LVU234
 926 003a 7E49     		ldr	r1, .L40+12
 927 003c FFF7FEFF 		bl	lv_img_set_src
 928              	.LVL99:
 571:lvgl/demos/music/lv_demo_music_main.c **** 
 929              		.loc 1 571 5 view .LVU235
 930 0040 0124     		movs	r4, #1
 931 0042 0294     		str	r4, [sp, #8]
 932 0044 0025     		movs	r5, #0
 933 0046 0195     		str	r5, [sp, #4]
 934 0048 0094     		str	r4, [sp]
 935 004a 2346     		mov	r3, r4
 936 004c 2246     		mov	r2, r4
 937 004e 2946     		mov	r1, r5
 938 0050 3846     		mov	r0, r7
 939 0052 FFF7FEFF 		bl	lv_obj_set_grid_cell
 940              	.LVL100:
 573:lvgl/demos/music/lv_demo_music_main.c ****     lv_img_set_src(icon, &img_lv_demo_music_btn_loop);
 941              		.loc 1 573 5 view .LVU236
 573:lvgl/demos/music/lv_demo_music_main.c ****     lv_img_set_src(icon, &img_lv_demo_music_btn_loop);
 942              		.loc 1 573 12 is_stmt 0 view .LVU237
 943 0056 3046     		mov	r0, r6
 944 0058 FFF7FEFF 		bl	lv_img_create
 945              	.LVL101:
 946 005c 0746     		mov	r7, r0
 947              	.LVL102:
 574:lvgl/demos/music/lv_demo_music_main.c ****     lv_obj_set_grid_cell(icon, LV_GRID_ALIGN_END, 5, 1, LV_GRID_ALIGN_CENTER, 0, 1);
 948              		.loc 1 574 5 is_stmt 1 view .LVU238
 949 005e 7649     		ldr	r1, .L40+16
 950 0060 FFF7FEFF 		bl	lv_img_set_src
 951              	.LVL103:
 575:lvgl/demos/music/lv_demo_music_main.c **** 
 952              		.loc 1 575 5 view .LVU239
 953 0064 0294     		str	r4, [sp, #8]
 954 0066 0195     		str	r5, [sp, #4]
 955 0068 0094     		str	r4, [sp]
 956 006a 2346     		mov	r3, r4
 957 006c 0522     		movs	r2, #5
 958 006e 0221     		movs	r1, #2
 959 0070 3846     		mov	r0, r7
 960 0072 FFF7FEFF 		bl	lv_obj_set_grid_cell
 961              	.LVL104:
ARM GAS  C:\Users\OSD\AppData\Local\Temp\ccMhRpSZ.s 			page 55


 577:lvgl/demos/music/lv_demo_music_main.c ****     lv_img_set_src(icon, &img_lv_demo_music_btn_prev);
 962              		.loc 1 577 5 view .LVU240
 577:lvgl/demos/music/lv_demo_music_main.c ****     lv_img_set_src(icon, &img_lv_demo_music_btn_prev);
 963              		.loc 1 577 12 is_stmt 0 view .LVU241
 964 0076 3046     		mov	r0, r6
 965 0078 FFF7FEFF 		bl	lv_img_create
 966              	.LVL105:
 967 007c 0746     		mov	r7, r0
 968              	.LVL106:
 578:lvgl/demos/music/lv_demo_music_main.c ****     lv_obj_set_grid_cell(icon, LV_GRID_ALIGN_CENTER, 2, 1, LV_GRID_ALIGN_CENTER, 0, 1);
 969              		.loc 1 578 5 is_stmt 1 view .LVU242
 970 007e 6F49     		ldr	r1, .L40+20
 971 0080 FFF7FEFF 		bl	lv_img_set_src
 972              	.LVL107:
 579:lvgl/demos/music/lv_demo_music_main.c ****     lv_obj_add_event_cb(icon, prev_click_event_cb, LV_EVENT_CLICKED, NULL);
 973              		.loc 1 579 5 view .LVU243
 974 0084 0294     		str	r4, [sp, #8]
 975 0086 0195     		str	r5, [sp, #4]
 976 0088 0094     		str	r4, [sp]
 977 008a 2346     		mov	r3, r4
 978 008c 0222     		movs	r2, #2
 979 008e 2146     		mov	r1, r4
 980 0090 3846     		mov	r0, r7
 981 0092 FFF7FEFF 		bl	lv_obj_set_grid_cell
 982              	.LVL108:
 580:lvgl/demos/music/lv_demo_music_main.c **** 
 983              		.loc 1 580 5 view .LVU244
 984 0096 2B46     		mov	r3, r5
 985 0098 0722     		movs	r2, #7
 986 009a 6949     		ldr	r1, .L40+24
 987 009c 3846     		mov	r0, r7
 988 009e FFF7FEFF 		bl	lv_obj_add_event_cb
 989              	.LVL109:
 582:lvgl/demos/music/lv_demo_music_main.c ****     lv_imgbtn_set_src(play_obj, LV_IMGBTN_STATE_RELEASED, NULL, &img_lv_demo_music_btn_play, NULL);
 990              		.loc 1 582 5 view .LVU245
 582:lvgl/demos/music/lv_demo_music_main.c ****     lv_imgbtn_set_src(play_obj, LV_IMGBTN_STATE_RELEASED, NULL, &img_lv_demo_music_btn_play, NULL);
 991              		.loc 1 582 16 is_stmt 0 view .LVU246
 992 00a2 3046     		mov	r0, r6
 993 00a4 FFF7FEFF 		bl	lv_imgbtn_create
 994              	.LVL110:
 582:lvgl/demos/music/lv_demo_music_main.c ****     lv_imgbtn_set_src(play_obj, LV_IMGBTN_STATE_RELEASED, NULL, &img_lv_demo_music_btn_play, NULL);
 995              		.loc 1 582 14 view .LVU247
 996 00a8 664F     		ldr	r7, .L40+28
 997              	.LVL111:
 582:lvgl/demos/music/lv_demo_music_main.c ****     lv_imgbtn_set_src(play_obj, LV_IMGBTN_STATE_RELEASED, NULL, &img_lv_demo_music_btn_play, NULL);
 998              		.loc 1 582 14 view .LVU248
 999 00aa 3860     		str	r0, [r7]
 583:lvgl/demos/music/lv_demo_music_main.c ****     lv_imgbtn_set_src(play_obj, LV_IMGBTN_STATE_CHECKED_RELEASED, NULL, &img_lv_demo_music_btn_paus
 1000              		.loc 1 583 5 is_stmt 1 view .LVU249
 1001 00ac DFF8C881 		ldr	r8, .L40+80
 1002 00b0 0095     		str	r5, [sp]
 1003 00b2 4346     		mov	r3, r8
 1004 00b4 2A46     		mov	r2, r5
 1005 00b6 2946     		mov	r1, r5
 1006 00b8 FFF7FEFF 		bl	lv_imgbtn_set_src
 1007              	.LVL112:
 584:lvgl/demos/music/lv_demo_music_main.c ****     lv_obj_add_flag(play_obj, LV_OBJ_FLAG_CHECKABLE);
ARM GAS  C:\Users\OSD\AppData\Local\Temp\ccMhRpSZ.s 			page 56


 1008              		.loc 1 584 5 view .LVU250
 1009 00bc 0095     		str	r5, [sp]
 1010 00be 624B     		ldr	r3, .L40+32
 1011 00c0 2A46     		mov	r2, r5
 1012 00c2 0321     		movs	r1, #3
 1013 00c4 3868     		ldr	r0, [r7]
 1014 00c6 FFF7FEFF 		bl	lv_imgbtn_set_src
 1015              	.LVL113:
 585:lvgl/demos/music/lv_demo_music_main.c ****     lv_obj_set_grid_cell(play_obj, LV_GRID_ALIGN_CENTER, 3, 1, LV_GRID_ALIGN_CENTER, 0, 1);
 1016              		.loc 1 585 5 view .LVU251
 1017 00ca 0821     		movs	r1, #8
 1018 00cc 3868     		ldr	r0, [r7]
 1019 00ce FFF7FEFF 		bl	lv_obj_add_flag
 1020              	.LVL114:
 586:lvgl/demos/music/lv_demo_music_main.c **** 
 1021              		.loc 1 586 5 view .LVU252
 1022 00d2 0294     		str	r4, [sp, #8]
 1023 00d4 0195     		str	r5, [sp, #4]
 1024 00d6 0094     		str	r4, [sp]
 1025 00d8 2346     		mov	r3, r4
 1026 00da 0322     		movs	r2, #3
 1027 00dc 2146     		mov	r1, r4
 1028 00de 3868     		ldr	r0, [r7]
 1029 00e0 FFF7FEFF 		bl	lv_obj_set_grid_cell
 1030              	.LVL115:
 588:lvgl/demos/music/lv_demo_music_main.c ****     lv_obj_add_flag(play_obj, LV_OBJ_FLAG_CLICKABLE);
 1031              		.loc 1 588 5 view .LVU253
 1032 00e4 2B46     		mov	r3, r5
 1033 00e6 0722     		movs	r2, #7
 1034 00e8 5849     		ldr	r1, .L40+36
 1035 00ea 3868     		ldr	r0, [r7]
 1036 00ec FFF7FEFF 		bl	lv_obj_add_event_cb
 1037              	.LVL116:
 589:lvgl/demos/music/lv_demo_music_main.c ****     lv_obj_set_width(play_obj, img_lv_demo_music_btn_play.header.w);
 1038              		.loc 1 589 5 view .LVU254
 1039 00f0 0221     		movs	r1, #2
 1040 00f2 3868     		ldr	r0, [r7]
 1041 00f4 FFF7FEFF 		bl	lv_obj_add_flag
 1042              	.LVL117:
 590:lvgl/demos/music/lv_demo_music_main.c **** 
 1043              		.loc 1 590 5 view .LVU255
 590:lvgl/demos/music/lv_demo_music_main.c **** 
 1044              		.loc 1 590 65 is_stmt 0 view .LVU256
 1045 00f8 D8F80010 		ldr	r1, [r8]
 590:lvgl/demos/music/lv_demo_music_main.c **** 
 1046              		.loc 1 590 5 view .LVU257
 1047 00fc C1F38A21 		ubfx	r1, r1, #10, #11
 1048 0100 3868     		ldr	r0, [r7]
 1049 0102 FFF7FEFF 		bl	lv_obj_set_width
 1050              	.LVL118:
 592:lvgl/demos/music/lv_demo_music_main.c ****     lv_img_set_src(icon, &img_lv_demo_music_btn_next);
 1051              		.loc 1 592 5 is_stmt 1 view .LVU258
 592:lvgl/demos/music/lv_demo_music_main.c ****     lv_img_set_src(icon, &img_lv_demo_music_btn_next);
 1052              		.loc 1 592 12 is_stmt 0 view .LVU259
 1053 0106 3046     		mov	r0, r6
 1054 0108 FFF7FEFF 		bl	lv_img_create
 1055              	.LVL119:
ARM GAS  C:\Users\OSD\AppData\Local\Temp\ccMhRpSZ.s 			page 57


 1056 010c 0746     		mov	r7, r0
 1057              	.LVL120:
 593:lvgl/demos/music/lv_demo_music_main.c ****     lv_obj_set_grid_cell(icon, LV_GRID_ALIGN_CENTER, 4, 1, LV_GRID_ALIGN_CENTER, 0, 1);
 1058              		.loc 1 593 5 is_stmt 1 view .LVU260
 1059 010e 5049     		ldr	r1, .L40+40
 1060 0110 FFF7FEFF 		bl	lv_img_set_src
 1061              	.LVL121:
 594:lvgl/demos/music/lv_demo_music_main.c ****     lv_obj_add_event_cb(icon, next_click_event_cb, LV_EVENT_CLICKED, NULL);
 1062              		.loc 1 594 5 view .LVU261
 1063 0114 0294     		str	r4, [sp, #8]
 1064 0116 0195     		str	r5, [sp, #4]
 1065 0118 0094     		str	r4, [sp]
 1066 011a 2346     		mov	r3, r4
 1067 011c 0422     		movs	r2, #4
 1068 011e 2146     		mov	r1, r4
 1069 0120 3846     		mov	r0, r7
 1070 0122 FFF7FEFF 		bl	lv_obj_set_grid_cell
 1071              	.LVL122:
 595:lvgl/demos/music/lv_demo_music_main.c ****     lv_obj_add_flag(icon, LV_OBJ_FLAG_CLICKABLE);
 1072              		.loc 1 595 5 view .LVU262
 1073 0126 2B46     		mov	r3, r5
 1074 0128 0722     		movs	r2, #7
 1075 012a 4A49     		ldr	r1, .L40+44
 1076 012c 3846     		mov	r0, r7
 1077 012e FFF7FEFF 		bl	lv_obj_add_event_cb
 1078              	.LVL123:
 596:lvgl/demos/music/lv_demo_music_main.c **** 
 1079              		.loc 1 596 5 view .LVU263
 1080 0132 0221     		movs	r1, #2
 1081 0134 3846     		mov	r0, r7
 1082 0136 FFF7FEFF 		bl	lv_obj_add_flag
 1083              	.LVL124:
 598:lvgl/demos/music/lv_demo_music_main.c ****     slider_obj = lv_slider_create(cont);
 1084              		.loc 1 598 5 view .LVU264
 598:lvgl/demos/music/lv_demo_music_main.c ****     slider_obj = lv_slider_create(cont);
 1085              		.loc 1 598 50 view .LVU265
 599:lvgl/demos/music/lv_demo_music_main.c ****     lv_obj_set_style_anim_time(slider_obj, 100, 0);
 1086              		.loc 1 599 5 view .LVU266
 599:lvgl/demos/music/lv_demo_music_main.c ****     lv_obj_set_style_anim_time(slider_obj, 100, 0);
 1087              		.loc 1 599 18 is_stmt 0 view .LVU267
 1088 013a 3046     		mov	r0, r6
 1089 013c FFF7FEFF 		bl	lv_slider_create
 1090              	.LVL125:
 599:lvgl/demos/music/lv_demo_music_main.c ****     lv_obj_set_style_anim_time(slider_obj, 100, 0);
 1091              		.loc 1 599 16 view .LVU268
 1092 0140 454F     		ldr	r7, .L40+48
 1093              	.LVL126:
 599:lvgl/demos/music/lv_demo_music_main.c ****     lv_obj_set_style_anim_time(slider_obj, 100, 0);
 1094              		.loc 1 599 16 view .LVU269
 1095 0142 3860     		str	r0, [r7]
 600:lvgl/demos/music/lv_demo_music_main.c ****     lv_obj_add_flag(slider_obj, LV_OBJ_FLAG_CLICKABLE); /*No input from the slider*/
 1096              		.loc 1 600 5 is_stmt 1 view .LVU270
 1097 0144 2A46     		mov	r2, r5
 1098 0146 6421     		movs	r1, #100
 1099 0148 FFF7FEFF 		bl	lv_obj_set_style_anim_time
 1100              	.LVL127:
 601:lvgl/demos/music/lv_demo_music_main.c **** 
ARM GAS  C:\Users\OSD\AppData\Local\Temp\ccMhRpSZ.s 			page 58


 1101              		.loc 1 601 5 view .LVU271
 1102 014c 0221     		movs	r1, #2
 1103 014e 3868     		ldr	r0, [r7]
 1104 0150 FFF7FEFF 		bl	lv_obj_add_flag
 1105              	.LVL128:
 604:lvgl/demos/music/lv_demo_music_main.c **** #else
 1106              		.loc 1 604 5 view .LVU272
 1107 0154 0321     		movs	r1, #3
 1108 0156 3868     		ldr	r0, [r7]
 1109 0158 FFF7FEFF 		bl	lv_obj_set_height
 1110              	.LVL129:
 608:lvgl/demos/music/lv_demo_music_main.c **** 
 1111              		.loc 1 608 5 view .LVU273
 1112 015c 0294     		str	r4, [sp, #8]
 1113 015e 0194     		str	r4, [sp, #4]
 1114 0160 0094     		str	r4, [sp]
 1115 0162 0423     		movs	r3, #4
 1116 0164 2246     		mov	r2, r4
 1117 0166 0321     		movs	r1, #3
 1118 0168 3868     		ldr	r0, [r7]
 1119 016a FFF7FEFF 		bl	lv_obj_set_grid_cell
 1120              	.LVL130:
 610:lvgl/demos/music/lv_demo_music_main.c ****     lv_obj_set_style_bg_opa(slider_obj, LV_OPA_TRANSP, LV_PART_KNOB);
 1121              		.loc 1 610 5 view .LVU274
 1122 016e 4FF44032 		mov	r2, #196608
 1123 0172 3A49     		ldr	r1, .L40+52
 1124 0174 3868     		ldr	r0, [r7]
 1125 0176 FFF7FEFF 		bl	lv_obj_set_style_bg_img_src
 1126              	.LVL131:
 611:lvgl/demos/music/lv_demo_music_main.c ****     lv_obj_set_style_pad_all(slider_obj, 20, LV_PART_KNOB);
 1127              		.loc 1 611 5 view .LVU275
 1128 017a 4FF44032 		mov	r2, #196608
 1129 017e 2946     		mov	r1, r5
 1130 0180 3868     		ldr	r0, [r7]
 1131 0182 FFF7FEFF 		bl	lv_obj_set_style_bg_opa
 1132              	.LVL132:
 612:lvgl/demos/music/lv_demo_music_main.c ****     lv_obj_set_style_bg_grad_dir(slider_obj, LV_GRAD_DIR_HOR, LV_PART_INDICATOR);
 1133              		.loc 1 612 5 view .LVU276
 1134 0186 D7F80080 		ldr	r8, [r7]
 1135              	.LVL133:
 1136              	.LBB208:
 1137              	.LBI208:
  95:lvgl/demos/music/../../src/core/lv_obj_style.h **** }
  96:lvgl/demos/music/../../src/core/lv_obj_style.h **** 
  97:lvgl/demos/music/../../src/core/lv_obj_style.h **** /**
  98:lvgl/demos/music/../../src/core/lv_obj_style.h ****  * Notify all object if a style is modified
  99:lvgl/demos/music/../../src/core/lv_obj_style.h ****  * @param style     pointer to a style. Only the objects with this style will be notified
 100:lvgl/demos/music/../../src/core/lv_obj_style.h ****  *                  (NULL to notify all objects)
 101:lvgl/demos/music/../../src/core/lv_obj_style.h ****  */
 102:lvgl/demos/music/../../src/core/lv_obj_style.h **** void lv_obj_report_style_change(lv_style_t * style);
 103:lvgl/demos/music/../../src/core/lv_obj_style.h **** 
 104:lvgl/demos/music/../../src/core/lv_obj_style.h **** /**
 105:lvgl/demos/music/../../src/core/lv_obj_style.h ****  * Notify an object and its children about its style is modified.
 106:lvgl/demos/music/../../src/core/lv_obj_style.h ****  * @param obj       pointer to an object
 107:lvgl/demos/music/../../src/core/lv_obj_style.h ****  * @param part      the part whose style was changed. E.g. `LV_PART_ANY`, `LV_PART_MAIN`
 108:lvgl/demos/music/../../src/core/lv_obj_style.h ****  * @param prop      `LV_STYLE_PROP_ANY` or an `LV_STYLE_...` property.
 109:lvgl/demos/music/../../src/core/lv_obj_style.h ****  *                  It is used to optimize what needs to be refreshed.
ARM GAS  C:\Users\OSD\AppData\Local\Temp\ccMhRpSZ.s 			page 59


 110:lvgl/demos/music/../../src/core/lv_obj_style.h ****  *                  `LV_STYLE_PROP_INV` to perform only a style cache update
 111:lvgl/demos/music/../../src/core/lv_obj_style.h ****  */
 112:lvgl/demos/music/../../src/core/lv_obj_style.h **** void lv_obj_refresh_style(struct _lv_obj_t * obj, lv_part_t part, lv_style_prop_t prop);
 113:lvgl/demos/music/../../src/core/lv_obj_style.h **** 
 114:lvgl/demos/music/../../src/core/lv_obj_style.h **** /**
 115:lvgl/demos/music/../../src/core/lv_obj_style.h ****  * Enable or disable automatic style refreshing when a new style is added/removed to/from an object
 116:lvgl/demos/music/../../src/core/lv_obj_style.h ****  * or any other style change happens.
 117:lvgl/demos/music/../../src/core/lv_obj_style.h ****  * @param en        true: enable refreshing; false: disable refreshing
 118:lvgl/demos/music/../../src/core/lv_obj_style.h ****  */
 119:lvgl/demos/music/../../src/core/lv_obj_style.h **** void lv_obj_enable_style_refresh(bool en);
 120:lvgl/demos/music/../../src/core/lv_obj_style.h **** 
 121:lvgl/demos/music/../../src/core/lv_obj_style.h **** /**
 122:lvgl/demos/music/../../src/core/lv_obj_style.h ****  * Get the value of a style property. The current state of the object will be considered.
 123:lvgl/demos/music/../../src/core/lv_obj_style.h ****  * Inherited properties will be inherited.
 124:lvgl/demos/music/../../src/core/lv_obj_style.h ****  * If a property is not set a default value will be returned.
 125:lvgl/demos/music/../../src/core/lv_obj_style.h ****  * @param obj       pointer to an object
 126:lvgl/demos/music/../../src/core/lv_obj_style.h ****  * @param part      a part from which the property should be get
 127:lvgl/demos/music/../../src/core/lv_obj_style.h ****  * @param prop      the property to get
 128:lvgl/demos/music/../../src/core/lv_obj_style.h ****  * @return          the value of the property.
 129:lvgl/demos/music/../../src/core/lv_obj_style.h ****  *                  Should be read from the correct field of the `lv_style_value_t` according to th
 130:lvgl/demos/music/../../src/core/lv_obj_style.h ****  */
 131:lvgl/demos/music/../../src/core/lv_obj_style.h **** lv_style_value_t lv_obj_get_style_prop(const struct _lv_obj_t * obj, lv_part_t part, lv_style_prop_
 132:lvgl/demos/music/../../src/core/lv_obj_style.h **** 
 133:lvgl/demos/music/../../src/core/lv_obj_style.h **** /**
 134:lvgl/demos/music/../../src/core/lv_obj_style.h ****  * Set local style property on an object's part and state.
 135:lvgl/demos/music/../../src/core/lv_obj_style.h ****  * @param obj       pointer to an object
 136:lvgl/demos/music/../../src/core/lv_obj_style.h ****  * @param prop      the property
 137:lvgl/demos/music/../../src/core/lv_obj_style.h ****  * @param value     value of the property. The correct element should be set according to the type 
 138:lvgl/demos/music/../../src/core/lv_obj_style.h ****  * @param selector  OR-ed value of parts and state for which the style should be set
 139:lvgl/demos/music/../../src/core/lv_obj_style.h ****  */
 140:lvgl/demos/music/../../src/core/lv_obj_style.h **** void lv_obj_set_local_style_prop(struct _lv_obj_t * obj, lv_style_prop_t prop, lv_style_value_t val
 141:lvgl/demos/music/../../src/core/lv_obj_style.h ****                                  lv_style_selector_t selector);
 142:lvgl/demos/music/../../src/core/lv_obj_style.h **** 
 143:lvgl/demos/music/../../src/core/lv_obj_style.h **** void lv_obj_set_local_style_prop_meta(struct _lv_obj_t * obj, lv_style_prop_t prop, uint16_t meta,
 144:lvgl/demos/music/../../src/core/lv_obj_style.h ****                                       lv_style_selector_t selector);
 145:lvgl/demos/music/../../src/core/lv_obj_style.h **** 
 146:lvgl/demos/music/../../src/core/lv_obj_style.h **** lv_style_res_t lv_obj_get_local_style_prop(struct _lv_obj_t * obj, lv_style_prop_t prop, lv_style_v
 147:lvgl/demos/music/../../src/core/lv_obj_style.h ****                                            lv_style_selector_t selector);
 148:lvgl/demos/music/../../src/core/lv_obj_style.h **** 
 149:lvgl/demos/music/../../src/core/lv_obj_style.h **** /**
 150:lvgl/demos/music/../../src/core/lv_obj_style.h ****  * Remove a local style property from a part of an object with a given state.
 151:lvgl/demos/music/../../src/core/lv_obj_style.h ****  * @param obj       pointer to an object
 152:lvgl/demos/music/../../src/core/lv_obj_style.h ****  * @param prop      a style property to remove.
 153:lvgl/demos/music/../../src/core/lv_obj_style.h ****  * @param selector  OR-ed value of parts and state for which the style should be removed
 154:lvgl/demos/music/../../src/core/lv_obj_style.h ****  * @return true     the property was found and removed; false: the property was not found
 155:lvgl/demos/music/../../src/core/lv_obj_style.h ****  */
 156:lvgl/demos/music/../../src/core/lv_obj_style.h **** bool lv_obj_remove_local_style_prop(struct _lv_obj_t * obj, lv_style_prop_t prop, lv_style_selector
 157:lvgl/demos/music/../../src/core/lv_obj_style.h **** 
 158:lvgl/demos/music/../../src/core/lv_obj_style.h **** /**
 159:lvgl/demos/music/../../src/core/lv_obj_style.h ****  * Used internally for color filtering
 160:lvgl/demos/music/../../src/core/lv_obj_style.h ****  */
 161:lvgl/demos/music/../../src/core/lv_obj_style.h **** lv_style_value_t _lv_obj_style_apply_color_filter(const struct _lv_obj_t * obj, uint32_t part, lv_s
 162:lvgl/demos/music/../../src/core/lv_obj_style.h **** 
 163:lvgl/demos/music/../../src/core/lv_obj_style.h **** /**
 164:lvgl/demos/music/../../src/core/lv_obj_style.h ****  * Used internally to create a style transition
 165:lvgl/demos/music/../../src/core/lv_obj_style.h ****  * @param obj
 166:lvgl/demos/music/../../src/core/lv_obj_style.h ****  * @param part
ARM GAS  C:\Users\OSD\AppData\Local\Temp\ccMhRpSZ.s 			page 60


 167:lvgl/demos/music/../../src/core/lv_obj_style.h ****  * @param prev_state
 168:lvgl/demos/music/../../src/core/lv_obj_style.h ****  * @param new_state
 169:lvgl/demos/music/../../src/core/lv_obj_style.h ****  * @param tr
 170:lvgl/demos/music/../../src/core/lv_obj_style.h ****  */
 171:lvgl/demos/music/../../src/core/lv_obj_style.h **** void _lv_obj_style_create_transition(struct _lv_obj_t * obj, lv_part_t part, lv_state_t prev_state,
 172:lvgl/demos/music/../../src/core/lv_obj_style.h ****                                      lv_state_t new_state, const _lv_obj_style_transition_dsc_t * t
 173:lvgl/demos/music/../../src/core/lv_obj_style.h **** 
 174:lvgl/demos/music/../../src/core/lv_obj_style.h **** /**
 175:lvgl/demos/music/../../src/core/lv_obj_style.h ****  * Used internally to compare the appearance of an object in 2 states
 176:lvgl/demos/music/../../src/core/lv_obj_style.h ****  * @param obj
 177:lvgl/demos/music/../../src/core/lv_obj_style.h ****  * @param state1
 178:lvgl/demos/music/../../src/core/lv_obj_style.h ****  * @param state2
 179:lvgl/demos/music/../../src/core/lv_obj_style.h ****  * @return
 180:lvgl/demos/music/../../src/core/lv_obj_style.h ****  */
 181:lvgl/demos/music/../../src/core/lv_obj_style.h **** _lv_style_state_cmp_t _lv_obj_style_state_compare(struct _lv_obj_t * obj, lv_state_t state1, lv_sta
 182:lvgl/demos/music/../../src/core/lv_obj_style.h **** 
 183:lvgl/demos/music/../../src/core/lv_obj_style.h **** /**
 184:lvgl/demos/music/../../src/core/lv_obj_style.h ****  * Fade in an an object and all its children.
 185:lvgl/demos/music/../../src/core/lv_obj_style.h ****  * @param obj       the object to fade in
 186:lvgl/demos/music/../../src/core/lv_obj_style.h ****  * @param time      time of fade
 187:lvgl/demos/music/../../src/core/lv_obj_style.h ****  * @param delay     delay to start the animation
 188:lvgl/demos/music/../../src/core/lv_obj_style.h ****  */
 189:lvgl/demos/music/../../src/core/lv_obj_style.h **** void lv_obj_fade_in(struct _lv_obj_t * obj, uint32_t time, uint32_t delay);
 190:lvgl/demos/music/../../src/core/lv_obj_style.h **** 
 191:lvgl/demos/music/../../src/core/lv_obj_style.h **** /**
 192:lvgl/demos/music/../../src/core/lv_obj_style.h ****  * Fade out an an object and all its children.
 193:lvgl/demos/music/../../src/core/lv_obj_style.h ****  * @param obj       the object to fade out
 194:lvgl/demos/music/../../src/core/lv_obj_style.h ****  * @param time      time of fade
 195:lvgl/demos/music/../../src/core/lv_obj_style.h ****  * @param delay     delay to start the animation
 196:lvgl/demos/music/../../src/core/lv_obj_style.h ****  */
 197:lvgl/demos/music/../../src/core/lv_obj_style.h **** void lv_obj_fade_out(struct _lv_obj_t * obj, uint32_t time, uint32_t delay);
 198:lvgl/demos/music/../../src/core/lv_obj_style.h **** 
 199:lvgl/demos/music/../../src/core/lv_obj_style.h **** lv_state_t lv_obj_style_get_selector_state(lv_style_selector_t selector);
 200:lvgl/demos/music/../../src/core/lv_obj_style.h **** 
 201:lvgl/demos/music/../../src/core/lv_obj_style.h **** lv_part_t lv_obj_style_get_selector_part(lv_style_selector_t selector);
 202:lvgl/demos/music/../../src/core/lv_obj_style.h **** 
 203:lvgl/demos/music/../../src/core/lv_obj_style.h **** #include "lv_obj_style_gen.h"
 204:lvgl/demos/music/../../src/core/lv_obj_style.h **** 
 205:lvgl/demos/music/../../src/core/lv_obj_style.h **** static inline void lv_obj_set_style_pad_all(struct _lv_obj_t * obj, lv_coord_t value, lv_style_sele
 1138              		.loc 3 205 20 view .LVU277
 1139              	.LBB209:
 206:lvgl/demos/music/../../src/core/lv_obj_style.h **** {
 207:lvgl/demos/music/../../src/core/lv_obj_style.h ****     lv_obj_set_style_pad_left(obj, value, selector);
 1140              		.loc 3 207 5 view .LVU278
 1141 018a 4FF44032 		mov	r2, #196608
 1142 018e 1421     		movs	r1, #20
 1143 0190 4046     		mov	r0, r8
 1144 0192 FFF7FEFF 		bl	lv_obj_set_style_pad_left
 1145              	.LVL134:
 208:lvgl/demos/music/../../src/core/lv_obj_style.h ****     lv_obj_set_style_pad_right(obj, value, selector);
 1146              		.loc 3 208 5 view .LVU279
 1147 0196 4FF44032 		mov	r2, #196608
 1148 019a 1421     		movs	r1, #20
 1149 019c 4046     		mov	r0, r8
 1150 019e FFF7FEFF 		bl	lv_obj_set_style_pad_right
 1151              	.LVL135:
 209:lvgl/demos/music/../../src/core/lv_obj_style.h ****     lv_obj_set_style_pad_top(obj, value, selector);
ARM GAS  C:\Users\OSD\AppData\Local\Temp\ccMhRpSZ.s 			page 61


 1152              		.loc 3 209 5 view .LVU280
 1153 01a2 4FF44032 		mov	r2, #196608
 1154 01a6 1421     		movs	r1, #20
 1155 01a8 4046     		mov	r0, r8
 1156 01aa FFF7FEFF 		bl	lv_obj_set_style_pad_top
 1157              	.LVL136:
 210:lvgl/demos/music/../../src/core/lv_obj_style.h ****     lv_obj_set_style_pad_bottom(obj, value, selector);
 1158              		.loc 3 210 5 view .LVU281
 1159 01ae 4FF44032 		mov	r2, #196608
 1160 01b2 1421     		movs	r1, #20
 1161 01b4 4046     		mov	r0, r8
 1162 01b6 FFF7FEFF 		bl	lv_obj_set_style_pad_bottom
 1163              	.LVL137:
 1164              		.loc 3 210 5 is_stmt 0 view .LVU282
 1165              	.LBE209:
 1166              	.LBE208:
 613:lvgl/demos/music/lv_demo_music_main.c ****     lv_obj_set_style_bg_color(slider_obj, lv_color_hex(0x569af8), LV_PART_INDICATOR);
 1167              		.loc 1 613 5 is_stmt 1 view .LVU283
 1168 01ba 4FF40032 		mov	r2, #131072
 1169 01be 0221     		movs	r1, #2
 1170 01c0 3868     		ldr	r0, [r7]
 1171 01c2 FFF7FEFF 		bl	lv_obj_set_style_bg_grad_dir
 1172              	.LVL138:
 614:lvgl/demos/music/lv_demo_music_main.c ****     lv_obj_set_style_bg_grad_color(slider_obj, lv_color_hex(0xa666f1), LV_PART_INDICATOR);
 1173              		.loc 1 614 5 view .LVU284
 1174              	.LBB210:
 1175              	.LBI210:
