ARM GAS  C:\Users\OSD\AppData\Local\Temp\ccEXN6Ob.s 			page 1


   1              		.cpu cortex-m7
   2              		.arch armv7e-m
   3              		.fpu fpv5-d16
   4              		.eabi_attribute 28, 1
   5              		.eabi_attribute 20, 1
   6              		.eabi_attribute 21, 1
   7              		.eabi_attribute 23, 3
   8              		.eabi_attribute 24, 1
   9              		.eabi_attribute 25, 1
  10              		.eabi_attribute 26, 1
  11              		.eabi_attribute 30, 1
  12              		.eabi_attribute 34, 1
  13              		.eabi_attribute 18, 4
  14              		.file	"lv_example_anim_2.c"
  15              		.text
  16              	.Ltext0:
  17              		.cfi_sections	.debug_frame
  18              		.section	.text.anim_x_cb,"ax",%progbits
  19              		.align	1
  20              		.syntax unified
  21              		.thumb
  22              		.thumb_func
  24              	anim_x_cb:
  25              	.LVL0:
  26              	.LFB204:
  27              		.file 1 "lvgl/examples/anim/lv_example_anim_2.c"
   1:lvgl/examples/anim/lv_example_anim_2.c **** #include "../lv_examples.h"
   2:lvgl/examples/anim/lv_example_anim_2.c **** #if LV_BUILD_EXAMPLES && LV_USE_SWITCH
   3:lvgl/examples/anim/lv_example_anim_2.c **** 
   4:lvgl/examples/anim/lv_example_anim_2.c **** static void anim_x_cb(void * var, int32_t v)
   5:lvgl/examples/anim/lv_example_anim_2.c **** {
  28              		.loc 1 5 1 view -0
  29              		.cfi_startproc
  30              		@ args = 0, pretend = 0, frame = 0
  31              		@ frame_needed = 0, uses_anonymous_args = 0
  32              		.loc 1 5 1 is_stmt 0 view .LVU1
  33 0000 08B5     		push	{r3, lr}
  34              		.cfi_def_cfa_offset 8
  35              		.cfi_offset 3, -8
  36              		.cfi_offset 14, -4
   6:lvgl/examples/anim/lv_example_anim_2.c ****     lv_obj_set_x(var, v);
  37              		.loc 1 6 5 is_stmt 1 view .LVU2
  38 0002 09B2     		sxth	r1, r1
  39              	.LVL1:
  40              		.loc 1 6 5 is_stmt 0 view .LVU3
  41 0004 FFF7FEFF 		bl	lv_obj_set_x
  42              	.LVL2:
   7:lvgl/examples/anim/lv_example_anim_2.c **** }
  43              		.loc 1 7 1 view .LVU4
  44 0008 08BD     		pop	{r3, pc}
  45              		.cfi_endproc
  46              	.LFE204:
  48              		.section	.text.anim_size_cb,"ax",%progbits
  49              		.align	1
  50              		.syntax unified
  51              		.thumb
  52              		.thumb_func
ARM GAS  C:\Users\OSD\AppData\Local\Temp\ccEXN6Ob.s 			page 2


  54              	anim_size_cb:
  55              	.LVL3:
  56              	.LFB205:
   8:lvgl/examples/anim/lv_example_anim_2.c **** 
   9:lvgl/examples/anim/lv_example_anim_2.c **** static void anim_size_cb(void * var, int32_t v)
  10:lvgl/examples/anim/lv_example_anim_2.c **** {
  57              		.loc 1 10 1 is_stmt 1 view -0
  58              		.cfi_startproc
  59              		@ args = 0, pretend = 0, frame = 0
  60              		@ frame_needed = 0, uses_anonymous_args = 0
  61              		.loc 1 10 1 is_stmt 0 view .LVU6
  62 0000 08B5     		push	{r3, lr}
  63              		.cfi_def_cfa_offset 8
  64              		.cfi_offset 3, -8
  65              		.cfi_offset 14, -4
  11:lvgl/examples/anim/lv_example_anim_2.c ****     lv_obj_set_size(var, v, v);
  66              		.loc 1 11 5 is_stmt 1 view .LVU7
  67 0002 09B2     		sxth	r1, r1
  68              	.LVL4:
  69              		.loc 1 11 5 is_stmt 0 view .LVU8
  70 0004 0A46     		mov	r2, r1
  71 0006 FFF7FEFF 		bl	lv_obj_set_size
  72              	.LVL5:
  12:lvgl/examples/anim/lv_example_anim_2.c **** }
  73              		.loc 1 12 1 view .LVU9
  74 000a 08BD     		pop	{r3, pc}
  75              		.cfi_endproc
  76              	.LFE205:
  78              		.section	.text.lv_example_anim_2,"ax",%progbits
  79              		.align	1
  80              		.global	lv_example_anim_2
  81              		.syntax unified
  82              		.thumb
  83              		.thumb_func
  85              	lv_example_anim_2:
  86              	.LFB206:
  13:lvgl/examples/anim/lv_example_anim_2.c **** 
  14:lvgl/examples/anim/lv_example_anim_2.c **** /**
  15:lvgl/examples/anim/lv_example_anim_2.c ****  * Create a playback animation
  16:lvgl/examples/anim/lv_example_anim_2.c ****  */
  17:lvgl/examples/anim/lv_example_anim_2.c **** void lv_example_anim_2(void)
  18:lvgl/examples/anim/lv_example_anim_2.c **** {
  87              		.loc 1 18 1 is_stmt 1 view -0
  88              		.cfi_startproc
  89              		@ args = 0, pretend = 0, frame = 72
  90              		@ frame_needed = 0, uses_anonymous_args = 0
  91 0000 10B5     		push	{r4, lr}
  92              		.cfi_def_cfa_offset 8
  93              		.cfi_offset 4, -8
  94              		.cfi_offset 14, -4
  95 0002 92B0     		sub	sp, sp, #72
  96              		.cfi_def_cfa_offset 80
  19:lvgl/examples/anim/lv_example_anim_2.c **** 
  20:lvgl/examples/anim/lv_example_anim_2.c ****     lv_obj_t * obj = lv_obj_create(lv_scr_act());
  97              		.loc 1 20 5 view .LVU11
  98              	.LBB48:
  99              	.LBI48:
ARM GAS  C:\Users\OSD\AppData\Local\Temp\ccEXN6Ob.s 			page 3


 100              		.file 2 "lvgl/examples/anim/../../src/core/lv_disp.h"
   1:lvgl/examples/anim/../../src/core/lv_disp.h **** /**
   2:lvgl/examples/anim/../../src/core/lv_disp.h ****  * @file lv_disp.h
   3:lvgl/examples/anim/../../src/core/lv_disp.h ****  *
   4:lvgl/examples/anim/../../src/core/lv_disp.h ****  */
   5:lvgl/examples/anim/../../src/core/lv_disp.h **** 
   6:lvgl/examples/anim/../../src/core/lv_disp.h **** #ifndef LV_DISP_H
   7:lvgl/examples/anim/../../src/core/lv_disp.h **** #define LV_DISP_H
   8:lvgl/examples/anim/../../src/core/lv_disp.h **** 
   9:lvgl/examples/anim/../../src/core/lv_disp.h **** #ifdef __cplusplus
  10:lvgl/examples/anim/../../src/core/lv_disp.h **** extern "C" {
  11:lvgl/examples/anim/../../src/core/lv_disp.h **** #endif
  12:lvgl/examples/anim/../../src/core/lv_disp.h **** 
  13:lvgl/examples/anim/../../src/core/lv_disp.h **** /*********************
  14:lvgl/examples/anim/../../src/core/lv_disp.h ****  *      INCLUDES
  15:lvgl/examples/anim/../../src/core/lv_disp.h ****  *********************/
  16:lvgl/examples/anim/../../src/core/lv_disp.h **** #include "../hal/lv_hal.h"
  17:lvgl/examples/anim/../../src/core/lv_disp.h **** #include "lv_obj.h"
  18:lvgl/examples/anim/../../src/core/lv_disp.h **** #include "lv_theme.h"
  19:lvgl/examples/anim/../../src/core/lv_disp.h **** 
  20:lvgl/examples/anim/../../src/core/lv_disp.h **** /*********************
  21:lvgl/examples/anim/../../src/core/lv_disp.h ****  *      DEFINES
  22:lvgl/examples/anim/../../src/core/lv_disp.h ****  *********************/
  23:lvgl/examples/anim/../../src/core/lv_disp.h **** 
  24:lvgl/examples/anim/../../src/core/lv_disp.h **** /**********************
  25:lvgl/examples/anim/../../src/core/lv_disp.h ****  *      TYPEDEFS
  26:lvgl/examples/anim/../../src/core/lv_disp.h ****  **********************/
  27:lvgl/examples/anim/../../src/core/lv_disp.h **** 
  28:lvgl/examples/anim/../../src/core/lv_disp.h **** typedef enum {
  29:lvgl/examples/anim/../../src/core/lv_disp.h ****     LV_SCR_LOAD_ANIM_NONE,
  30:lvgl/examples/anim/../../src/core/lv_disp.h ****     LV_SCR_LOAD_ANIM_OVER_LEFT,
  31:lvgl/examples/anim/../../src/core/lv_disp.h ****     LV_SCR_LOAD_ANIM_OVER_RIGHT,
  32:lvgl/examples/anim/../../src/core/lv_disp.h ****     LV_SCR_LOAD_ANIM_OVER_TOP,
  33:lvgl/examples/anim/../../src/core/lv_disp.h ****     LV_SCR_LOAD_ANIM_OVER_BOTTOM,
  34:lvgl/examples/anim/../../src/core/lv_disp.h ****     LV_SCR_LOAD_ANIM_MOVE_LEFT,
  35:lvgl/examples/anim/../../src/core/lv_disp.h ****     LV_SCR_LOAD_ANIM_MOVE_RIGHT,
  36:lvgl/examples/anim/../../src/core/lv_disp.h ****     LV_SCR_LOAD_ANIM_MOVE_TOP,
  37:lvgl/examples/anim/../../src/core/lv_disp.h ****     LV_SCR_LOAD_ANIM_MOVE_BOTTOM,
  38:lvgl/examples/anim/../../src/core/lv_disp.h ****     LV_SCR_LOAD_ANIM_FADE_IN,
  39:lvgl/examples/anim/../../src/core/lv_disp.h ****     LV_SCR_LOAD_ANIM_FADE_ON = LV_SCR_LOAD_ANIM_FADE_IN, /*For backward compatibility*/
  40:lvgl/examples/anim/../../src/core/lv_disp.h ****     LV_SCR_LOAD_ANIM_FADE_OUT,
  41:lvgl/examples/anim/../../src/core/lv_disp.h ****     LV_SCR_LOAD_ANIM_OUT_LEFT,
  42:lvgl/examples/anim/../../src/core/lv_disp.h ****     LV_SCR_LOAD_ANIM_OUT_RIGHT,
  43:lvgl/examples/anim/../../src/core/lv_disp.h ****     LV_SCR_LOAD_ANIM_OUT_TOP,
  44:lvgl/examples/anim/../../src/core/lv_disp.h ****     LV_SCR_LOAD_ANIM_OUT_BOTTOM,
  45:lvgl/examples/anim/../../src/core/lv_disp.h **** } lv_scr_load_anim_t;
  46:lvgl/examples/anim/../../src/core/lv_disp.h **** 
  47:lvgl/examples/anim/../../src/core/lv_disp.h **** /**********************
  48:lvgl/examples/anim/../../src/core/lv_disp.h ****  * GLOBAL PROTOTYPES
  49:lvgl/examples/anim/../../src/core/lv_disp.h ****  **********************/
  50:lvgl/examples/anim/../../src/core/lv_disp.h **** 
  51:lvgl/examples/anim/../../src/core/lv_disp.h **** /**
  52:lvgl/examples/anim/../../src/core/lv_disp.h ****  * Return with a pointer to the active screen
  53:lvgl/examples/anim/../../src/core/lv_disp.h ****  * @param disp pointer to display which active screen should be get. (NULL to use the default
  54:lvgl/examples/anim/../../src/core/lv_disp.h ****  * screen)
  55:lvgl/examples/anim/../../src/core/lv_disp.h ****  * @return pointer to the active screen object (loaded by 'lv_scr_load()')
  56:lvgl/examples/anim/../../src/core/lv_disp.h ****  */
ARM GAS  C:\Users\OSD\AppData\Local\Temp\ccEXN6Ob.s 			page 4


  57:lvgl/examples/anim/../../src/core/lv_disp.h **** lv_obj_t * lv_disp_get_scr_act(lv_disp_t * disp);
  58:lvgl/examples/anim/../../src/core/lv_disp.h **** 
  59:lvgl/examples/anim/../../src/core/lv_disp.h **** /**
  60:lvgl/examples/anim/../../src/core/lv_disp.h ****  * Return with a pointer to the previous screen. Only used during screen transitions.
  61:lvgl/examples/anim/../../src/core/lv_disp.h ****  * @param disp pointer to display which previous screen should be get. (NULL to use the default
  62:lvgl/examples/anim/../../src/core/lv_disp.h ****  * screen)
  63:lvgl/examples/anim/../../src/core/lv_disp.h ****  * @return pointer to the previous screen object or NULL if not used now
  64:lvgl/examples/anim/../../src/core/lv_disp.h ****  */
  65:lvgl/examples/anim/../../src/core/lv_disp.h **** lv_obj_t * lv_disp_get_scr_prev(lv_disp_t * disp);
  66:lvgl/examples/anim/../../src/core/lv_disp.h **** 
  67:lvgl/examples/anim/../../src/core/lv_disp.h **** /**
  68:lvgl/examples/anim/../../src/core/lv_disp.h ****  * Make a screen active
  69:lvgl/examples/anim/../../src/core/lv_disp.h ****  * @param scr pointer to a screen
  70:lvgl/examples/anim/../../src/core/lv_disp.h ****  */
  71:lvgl/examples/anim/../../src/core/lv_disp.h **** void lv_disp_load_scr(lv_obj_t * scr);
  72:lvgl/examples/anim/../../src/core/lv_disp.h **** 
  73:lvgl/examples/anim/../../src/core/lv_disp.h **** /**
  74:lvgl/examples/anim/../../src/core/lv_disp.h ****  * Return with the top layer. (Same on every screen and it is above the normal screen layer)
  75:lvgl/examples/anim/../../src/core/lv_disp.h ****  * @param disp pointer to display which top layer should be get. (NULL to use the default screen)
  76:lvgl/examples/anim/../../src/core/lv_disp.h ****  * @return pointer to the top layer object (transparent screen sized lv_obj)
  77:lvgl/examples/anim/../../src/core/lv_disp.h ****  */
  78:lvgl/examples/anim/../../src/core/lv_disp.h **** lv_obj_t * lv_disp_get_layer_top(lv_disp_t * disp);
  79:lvgl/examples/anim/../../src/core/lv_disp.h **** 
  80:lvgl/examples/anim/../../src/core/lv_disp.h **** /**
  81:lvgl/examples/anim/../../src/core/lv_disp.h ****  * Return with the sys. layer. (Same on every screen and it is above the normal screen and the top
  82:lvgl/examples/anim/../../src/core/lv_disp.h ****  * layer)
  83:lvgl/examples/anim/../../src/core/lv_disp.h ****  * @param disp pointer to display which sys. layer should be retrieved. (NULL to use the default sc
  84:lvgl/examples/anim/../../src/core/lv_disp.h ****  * @return pointer to the sys layer object (transparent screen sized lv_obj)
  85:lvgl/examples/anim/../../src/core/lv_disp.h ****  */
  86:lvgl/examples/anim/../../src/core/lv_disp.h **** lv_obj_t * lv_disp_get_layer_sys(lv_disp_t * disp);
  87:lvgl/examples/anim/../../src/core/lv_disp.h **** 
  88:lvgl/examples/anim/../../src/core/lv_disp.h **** /**
  89:lvgl/examples/anim/../../src/core/lv_disp.h ****  * Set the theme of a display
  90:lvgl/examples/anim/../../src/core/lv_disp.h ****  * @param disp pointer to a display
  91:lvgl/examples/anim/../../src/core/lv_disp.h ****  */
  92:lvgl/examples/anim/../../src/core/lv_disp.h **** void lv_disp_set_theme(lv_disp_t * disp, lv_theme_t * th);
  93:lvgl/examples/anim/../../src/core/lv_disp.h **** 
  94:lvgl/examples/anim/../../src/core/lv_disp.h **** /**
  95:lvgl/examples/anim/../../src/core/lv_disp.h ****  * Get the theme of a display
  96:lvgl/examples/anim/../../src/core/lv_disp.h ****  * @param disp pointer to a display
  97:lvgl/examples/anim/../../src/core/lv_disp.h ****  * @return the display's theme (can be NULL)
  98:lvgl/examples/anim/../../src/core/lv_disp.h ****  */
  99:lvgl/examples/anim/../../src/core/lv_disp.h **** lv_theme_t * lv_disp_get_theme(lv_disp_t * disp);
 100:lvgl/examples/anim/../../src/core/lv_disp.h **** 
 101:lvgl/examples/anim/../../src/core/lv_disp.h **** /**
 102:lvgl/examples/anim/../../src/core/lv_disp.h ****  * Set the background color of a display
 103:lvgl/examples/anim/../../src/core/lv_disp.h ****  * @param disp pointer to a display
 104:lvgl/examples/anim/../../src/core/lv_disp.h ****  * @param color color of the background
 105:lvgl/examples/anim/../../src/core/lv_disp.h ****  */
 106:lvgl/examples/anim/../../src/core/lv_disp.h **** void lv_disp_set_bg_color(lv_disp_t * disp, lv_color_t color);
 107:lvgl/examples/anim/../../src/core/lv_disp.h **** 
 108:lvgl/examples/anim/../../src/core/lv_disp.h **** /**
 109:lvgl/examples/anim/../../src/core/lv_disp.h ****  * Set the background image of a display
 110:lvgl/examples/anim/../../src/core/lv_disp.h ****  * @param disp pointer to a display
 111:lvgl/examples/anim/../../src/core/lv_disp.h ****  * @param img_src path to file or pointer to an `lv_img_dsc_t` variable
 112:lvgl/examples/anim/../../src/core/lv_disp.h ****  */
 113:lvgl/examples/anim/../../src/core/lv_disp.h **** void lv_disp_set_bg_image(lv_disp_t * disp, const void  * img_src);
ARM GAS  C:\Users\OSD\AppData\Local\Temp\ccEXN6Ob.s 			page 5


 114:lvgl/examples/anim/../../src/core/lv_disp.h **** 
 115:lvgl/examples/anim/../../src/core/lv_disp.h **** /**
 116:lvgl/examples/anim/../../src/core/lv_disp.h ****  * Set opacity of the background
 117:lvgl/examples/anim/../../src/core/lv_disp.h ****  * @param disp pointer to a display
 118:lvgl/examples/anim/../../src/core/lv_disp.h ****  * @param opa opacity (0..255)
 119:lvgl/examples/anim/../../src/core/lv_disp.h ****  */
 120:lvgl/examples/anim/../../src/core/lv_disp.h **** void lv_disp_set_bg_opa(lv_disp_t * disp, lv_opa_t opa);
 121:lvgl/examples/anim/../../src/core/lv_disp.h **** 
 122:lvgl/examples/anim/../../src/core/lv_disp.h **** /**
 123:lvgl/examples/anim/../../src/core/lv_disp.h ****  * Switch screen with animation
 124:lvgl/examples/anim/../../src/core/lv_disp.h ****  * @param scr pointer to the new screen to load
 125:lvgl/examples/anim/../../src/core/lv_disp.h ****  * @param anim_type type of the animation from `lv_scr_load_anim_t`, e.g. `LV_SCR_LOAD_ANIM_MOVE_LE
 126:lvgl/examples/anim/../../src/core/lv_disp.h ****  * @param time time of the animation
 127:lvgl/examples/anim/../../src/core/lv_disp.h ****  * @param delay delay before the transition
 128:lvgl/examples/anim/../../src/core/lv_disp.h ****  * @param auto_del true: automatically delete the old screen
 129:lvgl/examples/anim/../../src/core/lv_disp.h ****  */
 130:lvgl/examples/anim/../../src/core/lv_disp.h **** void lv_scr_load_anim(lv_obj_t * scr, lv_scr_load_anim_t anim_type, uint32_t time, uint32_t delay, 
 131:lvgl/examples/anim/../../src/core/lv_disp.h **** 
 132:lvgl/examples/anim/../../src/core/lv_disp.h **** /**
 133:lvgl/examples/anim/../../src/core/lv_disp.h ****  * Get elapsed time since last user activity on a display (e.g. click)
 134:lvgl/examples/anim/../../src/core/lv_disp.h ****  * @param disp pointer to a display (NULL to get the overall smallest inactivity)
 135:lvgl/examples/anim/../../src/core/lv_disp.h ****  * @return elapsed ticks (milliseconds) since the last activity
 136:lvgl/examples/anim/../../src/core/lv_disp.h ****  */
 137:lvgl/examples/anim/../../src/core/lv_disp.h **** uint32_t lv_disp_get_inactive_time(const lv_disp_t * disp);
 138:lvgl/examples/anim/../../src/core/lv_disp.h **** 
 139:lvgl/examples/anim/../../src/core/lv_disp.h **** /**
 140:lvgl/examples/anim/../../src/core/lv_disp.h ****  * Manually trigger an activity on a display
 141:lvgl/examples/anim/../../src/core/lv_disp.h ****  * @param disp pointer to a display (NULL to use the default display)
 142:lvgl/examples/anim/../../src/core/lv_disp.h ****  */
 143:lvgl/examples/anim/../../src/core/lv_disp.h **** void lv_disp_trig_activity(lv_disp_t * disp);
 144:lvgl/examples/anim/../../src/core/lv_disp.h **** 
 145:lvgl/examples/anim/../../src/core/lv_disp.h **** /**
 146:lvgl/examples/anim/../../src/core/lv_disp.h ****  * Clean any CPU cache that is related to the display.
 147:lvgl/examples/anim/../../src/core/lv_disp.h ****  * @param disp pointer to a display (NULL to use the default display)
 148:lvgl/examples/anim/../../src/core/lv_disp.h ****  */
 149:lvgl/examples/anim/../../src/core/lv_disp.h **** void lv_disp_clean_dcache(lv_disp_t * disp);
 150:lvgl/examples/anim/../../src/core/lv_disp.h **** 
 151:lvgl/examples/anim/../../src/core/lv_disp.h **** /**
 152:lvgl/examples/anim/../../src/core/lv_disp.h ****  * Temporarily enable and disable the invalidation of the display.
 153:lvgl/examples/anim/../../src/core/lv_disp.h ****  * @param disp pointer to a display (NULL to use the default display)
 154:lvgl/examples/anim/../../src/core/lv_disp.h ****  * @param en true: enable invalidation; false: invalidation
 155:lvgl/examples/anim/../../src/core/lv_disp.h ****  */
 156:lvgl/examples/anim/../../src/core/lv_disp.h **** void lv_disp_enable_invalidation(lv_disp_t * disp, bool en);
 157:lvgl/examples/anim/../../src/core/lv_disp.h **** 
 158:lvgl/examples/anim/../../src/core/lv_disp.h **** /**
 159:lvgl/examples/anim/../../src/core/lv_disp.h ****  * Get display invalidation is enabled.
 160:lvgl/examples/anim/../../src/core/lv_disp.h ****  * @param disp pointer to a display (NULL to use the default display)
 161:lvgl/examples/anim/../../src/core/lv_disp.h ****  * @return return true if invalidation is enabled
 162:lvgl/examples/anim/../../src/core/lv_disp.h ****  */
 163:lvgl/examples/anim/../../src/core/lv_disp.h **** bool lv_disp_is_invalidation_enabled(lv_disp_t * disp);
 164:lvgl/examples/anim/../../src/core/lv_disp.h **** 
 165:lvgl/examples/anim/../../src/core/lv_disp.h **** /**
 166:lvgl/examples/anim/../../src/core/lv_disp.h ****  * Get a pointer to the screen refresher timer to
 167:lvgl/examples/anim/../../src/core/lv_disp.h ****  * modify its parameters with `lv_timer_...` functions.
 168:lvgl/examples/anim/../../src/core/lv_disp.h ****  * @param disp pointer to a display
 169:lvgl/examples/anim/../../src/core/lv_disp.h ****  * @return pointer to the display refresher timer. (NULL on error)
 170:lvgl/examples/anim/../../src/core/lv_disp.h ****  */
ARM GAS  C:\Users\OSD\AppData\Local\Temp\ccEXN6Ob.s 			page 6


 171:lvgl/examples/anim/../../src/core/lv_disp.h **** lv_timer_t * _lv_disp_get_refr_timer(lv_disp_t * disp);
 172:lvgl/examples/anim/../../src/core/lv_disp.h **** 
 173:lvgl/examples/anim/../../src/core/lv_disp.h **** /*------------------------------------------------
 174:lvgl/examples/anim/../../src/core/lv_disp.h ****  * To improve backward compatibility
 175:lvgl/examples/anim/../../src/core/lv_disp.h ****  * Recommended only if you have one display
 176:lvgl/examples/anim/../../src/core/lv_disp.h ****  *------------------------------------------------*/
 177:lvgl/examples/anim/../../src/core/lv_disp.h **** 
 178:lvgl/examples/anim/../../src/core/lv_disp.h **** /**
 179:lvgl/examples/anim/../../src/core/lv_disp.h ****  * Get the active screen of the default display
 180:lvgl/examples/anim/../../src/core/lv_disp.h ****  * @return pointer to the active screen
 181:lvgl/examples/anim/../../src/core/lv_disp.h ****  */
 182:lvgl/examples/anim/../../src/core/lv_disp.h **** static inline lv_obj_t * lv_scr_act(void)
 101              		.loc 2 182 26 view .LVU12
 102              	.LBB49:
 183:lvgl/examples/anim/../../src/core/lv_disp.h **** {
 184:lvgl/examples/anim/../../src/core/lv_disp.h ****     return lv_disp_get_scr_act(lv_disp_get_default());
 103              		.loc 2 184 5 view .LVU13
 104              		.loc 2 184 12 is_stmt 0 view .LVU14
 105 0004 FFF7FEFF 		bl	lv_disp_get_default
 106              	.LVL6:
 107 0008 FFF7FEFF 		bl	lv_disp_get_scr_act
 108              	.LVL7:
 109              	.LBE49:
 110              	.LBE48:
 111              		.loc 1 20 22 view .LVU15
 112 000c FFF7FEFF 		bl	lv_obj_create
 113              	.LVL8:
 114 0010 0446     		mov	r4, r0
 115              	.LVL9:
  21:lvgl/examples/anim/lv_example_anim_2.c ****     lv_obj_set_style_bg_color(obj, lv_palette_main(LV_PALETTE_RED), 0);
 116              		.loc 1 21 5 is_stmt 1 view .LVU16
 117 0012 0020     		movs	r0, #0
 118              	.LVL10:
 119              		.loc 1 21 5 is_stmt 0 view .LVU17
 120 0014 FFF7FEFF 		bl	lv_palette_main
 121              	.LVL11:
 122 0018 0146     		mov	r1, r0
 123 001a 0022     		movs	r2, #0
 124 001c 2046     		mov	r0, r4
 125 001e FFF7FEFF 		bl	lv_obj_set_style_bg_color
 126              	.LVL12:
  22:lvgl/examples/anim/lv_example_anim_2.c ****     lv_obj_set_style_radius(obj, LV_RADIUS_CIRCLE, 0);
 127              		.loc 1 22 5 is_stmt 1 view .LVU18
 128 0022 0022     		movs	r2, #0
 129 0024 47F6FF71 		movw	r1, #32767
 130 0028 2046     		mov	r0, r4
 131 002a FFF7FEFF 		bl	lv_obj_set_style_radius
 132              	.LVL13:
  23:lvgl/examples/anim/lv_example_anim_2.c **** 
  24:lvgl/examples/anim/lv_example_anim_2.c ****     lv_obj_align(obj, LV_ALIGN_LEFT_MID, 10, 0);
 133              		.loc 1 24 5 view .LVU19
 134 002e 0023     		movs	r3, #0
 135 0030 0A22     		movs	r2, #10
 136 0032 0721     		movs	r1, #7
 137 0034 2046     		mov	r0, r4
 138 0036 FFF7FEFF 		bl	lv_obj_align
 139              	.LVL14:
ARM GAS  C:\Users\OSD\AppData\Local\Temp\ccEXN6Ob.s 			page 7


  25:lvgl/examples/anim/lv_example_anim_2.c **** 
  26:lvgl/examples/anim/lv_example_anim_2.c ****     lv_anim_t a;
 140              		.loc 1 26 5 view .LVU20
  27:lvgl/examples/anim/lv_example_anim_2.c ****     lv_anim_init(&a);
 141              		.loc 1 27 5 view .LVU21
 142 003a 01A8     		add	r0, sp, #4
 143 003c FFF7FEFF 		bl	lv_anim_init
 144              	.LVL15:
  28:lvgl/examples/anim/lv_example_anim_2.c ****     lv_anim_set_var(&a, obj);
 145              		.loc 1 28 5 view .LVU22
 146              	.LBB50:
 147              	.LBI50:
 148              		.file 3 "lvgl/examples/anim/../../src/misc/lv_anim.h"
   1:lvgl/examples/anim/../../src/misc/lv_anim.h **** /**
   2:lvgl/examples/anim/../../src/misc/lv_anim.h ****  * @file lv_anim.h
   3:lvgl/examples/anim/../../src/misc/lv_anim.h ****  *
   4:lvgl/examples/anim/../../src/misc/lv_anim.h ****  */
   5:lvgl/examples/anim/../../src/misc/lv_anim.h **** 
   6:lvgl/examples/anim/../../src/misc/lv_anim.h **** #ifndef LV_ANIM_H
   7:lvgl/examples/anim/../../src/misc/lv_anim.h **** #define LV_ANIM_H
   8:lvgl/examples/anim/../../src/misc/lv_anim.h **** 
   9:lvgl/examples/anim/../../src/misc/lv_anim.h **** #ifdef __cplusplus
  10:lvgl/examples/anim/../../src/misc/lv_anim.h **** extern "C" {
  11:lvgl/examples/anim/../../src/misc/lv_anim.h **** #endif
  12:lvgl/examples/anim/../../src/misc/lv_anim.h **** 
  13:lvgl/examples/anim/../../src/misc/lv_anim.h **** /*********************
  14:lvgl/examples/anim/../../src/misc/lv_anim.h ****  *      INCLUDES
  15:lvgl/examples/anim/../../src/misc/lv_anim.h ****  *********************/
  16:lvgl/examples/anim/../../src/misc/lv_anim.h **** #include "../lv_conf_internal.h"
  17:lvgl/examples/anim/../../src/misc/lv_anim.h **** 
  18:lvgl/examples/anim/../../src/misc/lv_anim.h **** #include <stdint.h>
  19:lvgl/examples/anim/../../src/misc/lv_anim.h **** #include <stdbool.h>
  20:lvgl/examples/anim/../../src/misc/lv_anim.h **** #include <stddef.h>
  21:lvgl/examples/anim/../../src/misc/lv_anim.h **** 
  22:lvgl/examples/anim/../../src/misc/lv_anim.h **** /*********************
  23:lvgl/examples/anim/../../src/misc/lv_anim.h ****  *      DEFINES
  24:lvgl/examples/anim/../../src/misc/lv_anim.h ****  *********************/
  25:lvgl/examples/anim/../../src/misc/lv_anim.h **** 
  26:lvgl/examples/anim/../../src/misc/lv_anim.h **** #define LV_ANIM_REPEAT_INFINITE      0xFFFF
  27:lvgl/examples/anim/../../src/misc/lv_anim.h **** #define LV_ANIM_PLAYTIME_INFINITE    0xFFFFFFFF
  28:lvgl/examples/anim/../../src/misc/lv_anim.h **** 
  29:lvgl/examples/anim/../../src/misc/lv_anim.h **** LV_EXPORT_CONST_INT(LV_ANIM_REPEAT_INFINITE);
  30:lvgl/examples/anim/../../src/misc/lv_anim.h **** LV_EXPORT_CONST_INT(LV_ANIM_PLAYTIME_INFINITE);
  31:lvgl/examples/anim/../../src/misc/lv_anim.h **** 
  32:lvgl/examples/anim/../../src/misc/lv_anim.h **** /**********************
  33:lvgl/examples/anim/../../src/misc/lv_anim.h ****  *      TYPEDEFS
  34:lvgl/examples/anim/../../src/misc/lv_anim.h ****  **********************/
  35:lvgl/examples/anim/../../src/misc/lv_anim.h **** 
  36:lvgl/examples/anim/../../src/misc/lv_anim.h **** /** Can be used to indicate if animations are enabled or disabled in a case*/
  37:lvgl/examples/anim/../../src/misc/lv_anim.h **** typedef enum {
  38:lvgl/examples/anim/../../src/misc/lv_anim.h ****     LV_ANIM_OFF,
  39:lvgl/examples/anim/../../src/misc/lv_anim.h ****     LV_ANIM_ON,
  40:lvgl/examples/anim/../../src/misc/lv_anim.h **** } lv_anim_enable_t;
  41:lvgl/examples/anim/../../src/misc/lv_anim.h **** 
  42:lvgl/examples/anim/../../src/misc/lv_anim.h **** struct _lv_anim_t;
  43:lvgl/examples/anim/../../src/misc/lv_anim.h **** struct _lv_timer_t;
  44:lvgl/examples/anim/../../src/misc/lv_anim.h **** 
ARM GAS  C:\Users\OSD\AppData\Local\Temp\ccEXN6Ob.s 			page 8


  45:lvgl/examples/anim/../../src/misc/lv_anim.h **** /** Get the current value during an animation*/
  46:lvgl/examples/anim/../../src/misc/lv_anim.h **** typedef int32_t (*lv_anim_path_cb_t)(const struct _lv_anim_t *);
  47:lvgl/examples/anim/../../src/misc/lv_anim.h **** 
  48:lvgl/examples/anim/../../src/misc/lv_anim.h **** /** Generic prototype of "animator" functions.
  49:lvgl/examples/anim/../../src/misc/lv_anim.h ****  * First parameter is the variable to animate.
  50:lvgl/examples/anim/../../src/misc/lv_anim.h ****  * Second parameter is the value to set.
  51:lvgl/examples/anim/../../src/misc/lv_anim.h ****  * Compatible with `lv_xxx_set_yyy(obj, value)` functions
  52:lvgl/examples/anim/../../src/misc/lv_anim.h ****  * The `x` in `_xcb_t` means it's not a fully generic prototype because
  53:lvgl/examples/anim/../../src/misc/lv_anim.h ****  * it doesn't receive `lv_anim_t *` as its first argument*/
  54:lvgl/examples/anim/../../src/misc/lv_anim.h **** typedef void (*lv_anim_exec_xcb_t)(void *, int32_t);
  55:lvgl/examples/anim/../../src/misc/lv_anim.h **** 
  56:lvgl/examples/anim/../../src/misc/lv_anim.h **** /** Same as `lv_anim_exec_xcb_t` but receives `lv_anim_t *` as the first parameter.
  57:lvgl/examples/anim/../../src/misc/lv_anim.h ****  * It's more consistent but less convenient. Might be used by binding generator functions.*/
  58:lvgl/examples/anim/../../src/misc/lv_anim.h **** typedef void (*lv_anim_custom_exec_cb_t)(struct _lv_anim_t *, int32_t);
  59:lvgl/examples/anim/../../src/misc/lv_anim.h **** 
  60:lvgl/examples/anim/../../src/misc/lv_anim.h **** /** Callback to call when the animation is ready*/
  61:lvgl/examples/anim/../../src/misc/lv_anim.h **** typedef void (*lv_anim_ready_cb_t)(struct _lv_anim_t *);
  62:lvgl/examples/anim/../../src/misc/lv_anim.h **** 
  63:lvgl/examples/anim/../../src/misc/lv_anim.h **** /** Callback to call when the animation really stars (considering `delay`)*/
  64:lvgl/examples/anim/../../src/misc/lv_anim.h **** typedef void (*lv_anim_start_cb_t)(struct _lv_anim_t *);
  65:lvgl/examples/anim/../../src/misc/lv_anim.h **** 
  66:lvgl/examples/anim/../../src/misc/lv_anim.h **** /** Callback used when the animation values are relative to get the current value*/
  67:lvgl/examples/anim/../../src/misc/lv_anim.h **** typedef int32_t (*lv_anim_get_value_cb_t)(struct _lv_anim_t *);
  68:lvgl/examples/anim/../../src/misc/lv_anim.h **** 
  69:lvgl/examples/anim/../../src/misc/lv_anim.h **** /** Callback used when the animation is deleted*/
  70:lvgl/examples/anim/../../src/misc/lv_anim.h **** typedef void (*lv_anim_deleted_cb_t)(struct _lv_anim_t *);
  71:lvgl/examples/anim/../../src/misc/lv_anim.h **** 
  72:lvgl/examples/anim/../../src/misc/lv_anim.h **** /** Describes an animation*/
  73:lvgl/examples/anim/../../src/misc/lv_anim.h **** typedef struct _lv_anim_t {
  74:lvgl/examples/anim/../../src/misc/lv_anim.h ****     void * var;                          /**<Variable to animate*/
  75:lvgl/examples/anim/../../src/misc/lv_anim.h ****     lv_anim_exec_xcb_t exec_cb;          /**< Function to execute to animate*/
  76:lvgl/examples/anim/../../src/misc/lv_anim.h ****     lv_anim_start_cb_t start_cb;         /**< Call it when the animation is starts (considering `de
  77:lvgl/examples/anim/../../src/misc/lv_anim.h ****     lv_anim_ready_cb_t ready_cb;         /**< Call it when the animation is ready*/
  78:lvgl/examples/anim/../../src/misc/lv_anim.h ****     lv_anim_deleted_cb_t deleted_cb;     /**< Call it when the animation is deleted*/
  79:lvgl/examples/anim/../../src/misc/lv_anim.h ****     lv_anim_get_value_cb_t get_value_cb; /**< Get the current value in relative mode*/
  80:lvgl/examples/anim/../../src/misc/lv_anim.h **** #if LV_USE_USER_DATA
  81:lvgl/examples/anim/../../src/misc/lv_anim.h ****     void * user_data; /**< Custom user data*/
  82:lvgl/examples/anim/../../src/misc/lv_anim.h **** #endif
  83:lvgl/examples/anim/../../src/misc/lv_anim.h ****     lv_anim_path_cb_t path_cb;         /**< Describe the path (curve) of animations*/
  84:lvgl/examples/anim/../../src/misc/lv_anim.h ****     int32_t start_value;               /**< Start value*/
  85:lvgl/examples/anim/../../src/misc/lv_anim.h ****     int32_t current_value;             /**< Current value*/
  86:lvgl/examples/anim/../../src/misc/lv_anim.h ****     int32_t end_value;                 /**< End value*/
  87:lvgl/examples/anim/../../src/misc/lv_anim.h ****     int32_t time;                /**< Animation time in ms*/
  88:lvgl/examples/anim/../../src/misc/lv_anim.h ****     int32_t act_time;            /**< Current time in animation. Set to negative to make delay.*/
  89:lvgl/examples/anim/../../src/misc/lv_anim.h ****     uint32_t playback_delay;     /**< Wait before play back*/
  90:lvgl/examples/anim/../../src/misc/lv_anim.h ****     uint32_t playback_time;      /**< Duration of playback animation*/
  91:lvgl/examples/anim/../../src/misc/lv_anim.h ****     uint32_t repeat_delay;       /**< Wait before repeat*/
  92:lvgl/examples/anim/../../src/misc/lv_anim.h ****     uint16_t repeat_cnt;         /**< Repeat count for the animation*/
  93:lvgl/examples/anim/../../src/misc/lv_anim.h ****     uint8_t early_apply  : 1;    /**< 1: Apply start value immediately even is there is `delay`*/
  94:lvgl/examples/anim/../../src/misc/lv_anim.h **** 
  95:lvgl/examples/anim/../../src/misc/lv_anim.h ****     /*Animation system use these - user shouldn't set*/
  96:lvgl/examples/anim/../../src/misc/lv_anim.h ****     uint8_t playback_now : 1; /**< Play back is in progress*/
  97:lvgl/examples/anim/../../src/misc/lv_anim.h ****     uint8_t run_round : 1;    /**< Indicates the animation has run in this round*/
  98:lvgl/examples/anim/../../src/misc/lv_anim.h ****     uint8_t start_cb_called : 1;    /**< Indicates that the `start_cb` was already called*/
  99:lvgl/examples/anim/../../src/misc/lv_anim.h **** } lv_anim_t;
 100:lvgl/examples/anim/../../src/misc/lv_anim.h **** 
 101:lvgl/examples/anim/../../src/misc/lv_anim.h **** /**********************
ARM GAS  C:\Users\OSD\AppData\Local\Temp\ccEXN6Ob.s 			page 9


 102:lvgl/examples/anim/../../src/misc/lv_anim.h ****  * GLOBAL PROTOTYPES
 103:lvgl/examples/anim/../../src/misc/lv_anim.h ****  **********************/
 104:lvgl/examples/anim/../../src/misc/lv_anim.h **** 
 105:lvgl/examples/anim/../../src/misc/lv_anim.h **** /**
 106:lvgl/examples/anim/../../src/misc/lv_anim.h ****  * Init. the animation module
 107:lvgl/examples/anim/../../src/misc/lv_anim.h ****  */
 108:lvgl/examples/anim/../../src/misc/lv_anim.h **** void _lv_anim_core_init(void);
 109:lvgl/examples/anim/../../src/misc/lv_anim.h **** 
 110:lvgl/examples/anim/../../src/misc/lv_anim.h **** /**
 111:lvgl/examples/anim/../../src/misc/lv_anim.h ****  * Initialize an animation variable.
 112:lvgl/examples/anim/../../src/misc/lv_anim.h ****  * E.g.:
 113:lvgl/examples/anim/../../src/misc/lv_anim.h ****  * lv_anim_t a;
 114:lvgl/examples/anim/../../src/misc/lv_anim.h ****  * lv_anim_init(&a);
 115:lvgl/examples/anim/../../src/misc/lv_anim.h ****  * lv_anim_set_...(&a);
 116:lvgl/examples/anim/../../src/misc/lv_anim.h ****  * lv_anim_start(&a);
 117:lvgl/examples/anim/../../src/misc/lv_anim.h ****  * @param a     pointer to an `lv_anim_t` variable to initialize
 118:lvgl/examples/anim/../../src/misc/lv_anim.h ****  */
 119:lvgl/examples/anim/../../src/misc/lv_anim.h **** void lv_anim_init(lv_anim_t * a);
 120:lvgl/examples/anim/../../src/misc/lv_anim.h **** 
 121:lvgl/examples/anim/../../src/misc/lv_anim.h **** /**
 122:lvgl/examples/anim/../../src/misc/lv_anim.h ****  * Set a variable to animate
 123:lvgl/examples/anim/../../src/misc/lv_anim.h ****  * @param a     pointer to an initialized `lv_anim_t` variable
 124:lvgl/examples/anim/../../src/misc/lv_anim.h ****  * @param var   pointer to a variable to animate
 125:lvgl/examples/anim/../../src/misc/lv_anim.h ****  */
 126:lvgl/examples/anim/../../src/misc/lv_anim.h **** static inline void lv_anim_set_var(lv_anim_t * a, void * var)
 149              		.loc 3 126 20 view .LVU23
 150              	.LBB51:
 127:lvgl/examples/anim/../../src/misc/lv_anim.h **** {
 128:lvgl/examples/anim/../../src/misc/lv_anim.h ****     a->var = var;
 151              		.loc 3 128 5 view .LVU24
 152              		.loc 3 128 12 is_stmt 0 view .LVU25
 153 0040 0194     		str	r4, [sp, #4]
 154              	.LVL16:
 155              		.loc 3 128 12 view .LVU26
 156              	.LBE51:
 157              	.LBE50:
  29:lvgl/examples/anim/lv_example_anim_2.c ****     lv_anim_set_values(&a, 10, 50);
 158              		.loc 1 29 5 is_stmt 1 view .LVU27
 159              	.LBB52:
 160              	.LBI52:
 129:lvgl/examples/anim/../../src/misc/lv_anim.h **** }
 130:lvgl/examples/anim/../../src/misc/lv_anim.h **** 
 131:lvgl/examples/anim/../../src/misc/lv_anim.h **** /**
 132:lvgl/examples/anim/../../src/misc/lv_anim.h ****  * Set a function to animate `var`
 133:lvgl/examples/anim/../../src/misc/lv_anim.h ****  * @param a         pointer to an initialized `lv_anim_t` variable
 134:lvgl/examples/anim/../../src/misc/lv_anim.h ****  * @param exec_cb   a function to execute during animation
 135:lvgl/examples/anim/../../src/misc/lv_anim.h ****  *                  LVGL's built-in functions can be used.
 136:lvgl/examples/anim/../../src/misc/lv_anim.h ****  *                  E.g. lv_obj_set_x
 137:lvgl/examples/anim/../../src/misc/lv_anim.h ****  */
 138:lvgl/examples/anim/../../src/misc/lv_anim.h **** static inline void lv_anim_set_exec_cb(lv_anim_t * a, lv_anim_exec_xcb_t exec_cb)
 139:lvgl/examples/anim/../../src/misc/lv_anim.h **** {
 140:lvgl/examples/anim/../../src/misc/lv_anim.h ****     a->exec_cb = exec_cb;
 141:lvgl/examples/anim/../../src/misc/lv_anim.h **** }
 142:lvgl/examples/anim/../../src/misc/lv_anim.h **** 
 143:lvgl/examples/anim/../../src/misc/lv_anim.h **** /**
 144:lvgl/examples/anim/../../src/misc/lv_anim.h ****  * Set the duration of an animation
 145:lvgl/examples/anim/../../src/misc/lv_anim.h ****  * @param a         pointer to an initialized `lv_anim_t` variable
ARM GAS  C:\Users\OSD\AppData\Local\Temp\ccEXN6Ob.s 			page 10


 146:lvgl/examples/anim/../../src/misc/lv_anim.h ****  * @param duration  duration of the animation in milliseconds
 147:lvgl/examples/anim/../../src/misc/lv_anim.h ****  */
 148:lvgl/examples/anim/../../src/misc/lv_anim.h **** static inline void lv_anim_set_time(lv_anim_t * a, uint32_t duration)
 149:lvgl/examples/anim/../../src/misc/lv_anim.h **** {
 150:lvgl/examples/anim/../../src/misc/lv_anim.h ****     a->time = duration;
 151:lvgl/examples/anim/../../src/misc/lv_anim.h **** }
 152:lvgl/examples/anim/../../src/misc/lv_anim.h **** 
 153:lvgl/examples/anim/../../src/misc/lv_anim.h **** /**
 154:lvgl/examples/anim/../../src/misc/lv_anim.h ****  * Set a delay before starting the animation
 155:lvgl/examples/anim/../../src/misc/lv_anim.h ****  * @param a         pointer to an initialized `lv_anim_t` variable
 156:lvgl/examples/anim/../../src/misc/lv_anim.h ****  * @param delay     delay before the animation in milliseconds
 157:lvgl/examples/anim/../../src/misc/lv_anim.h ****  */
 158:lvgl/examples/anim/../../src/misc/lv_anim.h **** static inline void lv_anim_set_delay(lv_anim_t * a, uint32_t delay)
 159:lvgl/examples/anim/../../src/misc/lv_anim.h **** {
 160:lvgl/examples/anim/../../src/misc/lv_anim.h ****     a->act_time = -(int32_t)(delay);
 161:lvgl/examples/anim/../../src/misc/lv_anim.h **** }
 162:lvgl/examples/anim/../../src/misc/lv_anim.h **** 
 163:lvgl/examples/anim/../../src/misc/lv_anim.h **** /**
 164:lvgl/examples/anim/../../src/misc/lv_anim.h ****  * Set the start and end values of an animation
 165:lvgl/examples/anim/../../src/misc/lv_anim.h ****  * @param a         pointer to an initialized `lv_anim_t` variable
 166:lvgl/examples/anim/../../src/misc/lv_anim.h ****  * @param start     the start value
 167:lvgl/examples/anim/../../src/misc/lv_anim.h ****  * @param end       the end value
 168:lvgl/examples/anim/../../src/misc/lv_anim.h ****  */
 169:lvgl/examples/anim/../../src/misc/lv_anim.h **** static inline void lv_anim_set_values(lv_anim_t * a, int32_t start, int32_t end)
 161              		.loc 3 169 20 view .LVU28
 162              	.LBB53:
 170:lvgl/examples/anim/../../src/misc/lv_anim.h **** {
 171:lvgl/examples/anim/../../src/misc/lv_anim.h ****     a->start_value = start;
 163              		.loc 3 171 5 view .LVU29
 164              		.loc 3 171 20 is_stmt 0 view .LVU30
 165 0042 0A24     		movs	r4, #10
 166              	.LVL17:
 167              		.loc 3 171 20 view .LVU31
 168 0044 0994     		str	r4, [sp, #36]
 172:lvgl/examples/anim/../../src/misc/lv_anim.h ****     a->current_value = start;
 169              		.loc 3 172 5 is_stmt 1 view .LVU32
 170              		.loc 3 172 22 is_stmt 0 view .LVU33
 171 0046 0A94     		str	r4, [sp, #40]
 173:lvgl/examples/anim/../../src/misc/lv_anim.h ****     a->end_value = end;
 172              		.loc 3 173 5 is_stmt 1 view .LVU34
 173              		.loc 3 173 18 is_stmt 0 view .LVU35
 174 0048 3223     		movs	r3, #50
 175 004a 0B93     		str	r3, [sp, #44]
 176              	.LVL18:
 177              		.loc 3 173 18 view .LVU36
 178              	.LBE53:
 179              	.LBE52:
  30:lvgl/examples/anim/lv_example_anim_2.c ****     lv_anim_set_time(&a, 1000);
 180              		.loc 1 30 5 is_stmt 1 view .LVU37
 181              	.LBB54:
 182              	.LBI54:
 148:lvgl/examples/anim/../../src/misc/lv_anim.h **** {
 183              		.loc 3 148 20 view .LVU38
 184              	.LBB55:
 150:lvgl/examples/anim/../../src/misc/lv_anim.h **** }
 185              		.loc 3 150 5 view .LVU39
 150:lvgl/examples/anim/../../src/misc/lv_anim.h **** }
ARM GAS  C:\Users\OSD\AppData\Local\Temp\ccEXN6Ob.s 			page 11


 186              		.loc 3 150 13 is_stmt 0 view .LVU40
 187 004c 4FF47A73 		mov	r3, #1000
 188 0050 0C93     		str	r3, [sp, #48]
 189              	.LVL19:
 150:lvgl/examples/anim/../../src/misc/lv_anim.h **** }
 190              		.loc 3 150 13 view .LVU41
 191              	.LBE55:
 192              	.LBE54:
  31:lvgl/examples/anim/lv_example_anim_2.c ****     lv_anim_set_playback_delay(&a, 100);
 193              		.loc 1 31 5 is_stmt 1 view .LVU42
 194              	.LBB56:
 195              	.LBI56:
 174:lvgl/examples/anim/../../src/misc/lv_anim.h **** }
 175:lvgl/examples/anim/../../src/misc/lv_anim.h **** 
 176:lvgl/examples/anim/../../src/misc/lv_anim.h **** /**
 177:lvgl/examples/anim/../../src/misc/lv_anim.h ****  * Similar to `lv_anim_set_exec_cb` but `lv_anim_custom_exec_cb_t` receives
 178:lvgl/examples/anim/../../src/misc/lv_anim.h ****  * `lv_anim_t * ` as its first parameter instead of `void *`.
 179:lvgl/examples/anim/../../src/misc/lv_anim.h ****  * This function might be used when LVGL is bound to other languages because
 180:lvgl/examples/anim/../../src/misc/lv_anim.h ****  * it's more consistent to have `lv_anim_t *` as first parameter.
 181:lvgl/examples/anim/../../src/misc/lv_anim.h ****  * The variable to animate can be stored in the animation's `user_data`
 182:lvgl/examples/anim/../../src/misc/lv_anim.h ****  * @param a         pointer to an initialized `lv_anim_t` variable
 183:lvgl/examples/anim/../../src/misc/lv_anim.h ****  * @param exec_cb   a function to execute.
 184:lvgl/examples/anim/../../src/misc/lv_anim.h ****  */
 185:lvgl/examples/anim/../../src/misc/lv_anim.h **** static inline void lv_anim_set_custom_exec_cb(lv_anim_t * a, lv_anim_custom_exec_cb_t exec_cb)
 186:lvgl/examples/anim/../../src/misc/lv_anim.h **** {
 187:lvgl/examples/anim/../../src/misc/lv_anim.h ****     a->var     = a;
 188:lvgl/examples/anim/../../src/misc/lv_anim.h ****     a->exec_cb = (lv_anim_exec_xcb_t)exec_cb;
 189:lvgl/examples/anim/../../src/misc/lv_anim.h **** }
 190:lvgl/examples/anim/../../src/misc/lv_anim.h **** 
 191:lvgl/examples/anim/../../src/misc/lv_anim.h **** /**
 192:lvgl/examples/anim/../../src/misc/lv_anim.h ****  * Set the path (curve) of the animation.
 193:lvgl/examples/anim/../../src/misc/lv_anim.h ****  * @param a         pointer to an initialized `lv_anim_t` variable
 194:lvgl/examples/anim/../../src/misc/lv_anim.h ****  * @param path_cb a function to set the current value of the animation.
 195:lvgl/examples/anim/../../src/misc/lv_anim.h ****  */
 196:lvgl/examples/anim/../../src/misc/lv_anim.h **** static inline void lv_anim_set_path_cb(lv_anim_t * a, lv_anim_path_cb_t path_cb)
 197:lvgl/examples/anim/../../src/misc/lv_anim.h **** {
 198:lvgl/examples/anim/../../src/misc/lv_anim.h ****     a->path_cb = path_cb;
 199:lvgl/examples/anim/../../src/misc/lv_anim.h **** }
 200:lvgl/examples/anim/../../src/misc/lv_anim.h **** 
 201:lvgl/examples/anim/../../src/misc/lv_anim.h **** /**
 202:lvgl/examples/anim/../../src/misc/lv_anim.h ****  * Set a function call when the animation really starts (considering `delay`)
 203:lvgl/examples/anim/../../src/misc/lv_anim.h ****  * @param a         pointer to an initialized `lv_anim_t` variable
 204:lvgl/examples/anim/../../src/misc/lv_anim.h ****  * @param start_cb  a function call when the animation starts
 205:lvgl/examples/anim/../../src/misc/lv_anim.h ****  */
 206:lvgl/examples/anim/../../src/misc/lv_anim.h **** static inline void lv_anim_set_start_cb(lv_anim_t * a, lv_anim_start_cb_t start_cb)
 207:lvgl/examples/anim/../../src/misc/lv_anim.h **** {
 208:lvgl/examples/anim/../../src/misc/lv_anim.h ****     a->start_cb = start_cb;
 209:lvgl/examples/anim/../../src/misc/lv_anim.h **** }
 210:lvgl/examples/anim/../../src/misc/lv_anim.h **** 
 211:lvgl/examples/anim/../../src/misc/lv_anim.h **** /**
 212:lvgl/examples/anim/../../src/misc/lv_anim.h ****  * Set a function to use the current value of the variable and make start and end value
 213:lvgl/examples/anim/../../src/misc/lv_anim.h ****  * relative to the returned current value.
 214:lvgl/examples/anim/../../src/misc/lv_anim.h ****  * @param a             pointer to an initialized `lv_anim_t` variable
 215:lvgl/examples/anim/../../src/misc/lv_anim.h ****  * @param get_value_cb  a function call when the animation starts
 216:lvgl/examples/anim/../../src/misc/lv_anim.h ****  */
 217:lvgl/examples/anim/../../src/misc/lv_anim.h **** static inline void lv_anim_set_get_value_cb(lv_anim_t * a, lv_anim_get_value_cb_t get_value_cb)
 218:lvgl/examples/anim/../../src/misc/lv_anim.h **** {
ARM GAS  C:\Users\OSD\AppData\Local\Temp\ccEXN6Ob.s 			page 12


 219:lvgl/examples/anim/../../src/misc/lv_anim.h ****     a->get_value_cb = get_value_cb;
 220:lvgl/examples/anim/../../src/misc/lv_anim.h **** }
 221:lvgl/examples/anim/../../src/misc/lv_anim.h **** 
 222:lvgl/examples/anim/../../src/misc/lv_anim.h **** /**
 223:lvgl/examples/anim/../../src/misc/lv_anim.h ****  * Set a function call when the animation is ready
 224:lvgl/examples/anim/../../src/misc/lv_anim.h ****  * @param a         pointer to an initialized `lv_anim_t` variable
 225:lvgl/examples/anim/../../src/misc/lv_anim.h ****  * @param ready_cb  a function call when the animation is ready
 226:lvgl/examples/anim/../../src/misc/lv_anim.h ****  */
 227:lvgl/examples/anim/../../src/misc/lv_anim.h **** static inline void lv_anim_set_ready_cb(lv_anim_t * a, lv_anim_ready_cb_t ready_cb)
 228:lvgl/examples/anim/../../src/misc/lv_anim.h **** {
 229:lvgl/examples/anim/../../src/misc/lv_anim.h ****     a->ready_cb = ready_cb;
 230:lvgl/examples/anim/../../src/misc/lv_anim.h **** }
 231:lvgl/examples/anim/../../src/misc/lv_anim.h **** 
 232:lvgl/examples/anim/../../src/misc/lv_anim.h **** /**
 233:lvgl/examples/anim/../../src/misc/lv_anim.h ****  * Set a function call when the animation is deleted.
 234:lvgl/examples/anim/../../src/misc/lv_anim.h ****  * @param a         pointer to an initialized `lv_anim_t` variable
 235:lvgl/examples/anim/../../src/misc/lv_anim.h ****  * @param deleted_cb  a function call when the animation is deleted
 236:lvgl/examples/anim/../../src/misc/lv_anim.h ****  */
 237:lvgl/examples/anim/../../src/misc/lv_anim.h **** static inline void lv_anim_set_deleted_cb(lv_anim_t * a, lv_anim_deleted_cb_t deleted_cb)
 238:lvgl/examples/anim/../../src/misc/lv_anim.h **** {
 239:lvgl/examples/anim/../../src/misc/lv_anim.h ****     a->deleted_cb = deleted_cb;
 240:lvgl/examples/anim/../../src/misc/lv_anim.h **** }
 241:lvgl/examples/anim/../../src/misc/lv_anim.h **** 
 242:lvgl/examples/anim/../../src/misc/lv_anim.h **** /**
 243:lvgl/examples/anim/../../src/misc/lv_anim.h ****  * Make the animation to play back to when the forward direction is ready
 244:lvgl/examples/anim/../../src/misc/lv_anim.h ****  * @param a         pointer to an initialized `lv_anim_t` variable
 245:lvgl/examples/anim/../../src/misc/lv_anim.h ****  * @param time      the duration of the playback animation in milliseconds. 0: disable playback
 246:lvgl/examples/anim/../../src/misc/lv_anim.h ****  */
 247:lvgl/examples/anim/../../src/misc/lv_anim.h **** static inline void lv_anim_set_playback_time(lv_anim_t * a, uint32_t time)
 248:lvgl/examples/anim/../../src/misc/lv_anim.h **** {
 249:lvgl/examples/anim/../../src/misc/lv_anim.h ****     a->playback_time = time;
 250:lvgl/examples/anim/../../src/misc/lv_anim.h **** }
 251:lvgl/examples/anim/../../src/misc/lv_anim.h **** 
 252:lvgl/examples/anim/../../src/misc/lv_anim.h **** /**
 253:lvgl/examples/anim/../../src/misc/lv_anim.h ****  * Make the animation to play back to when the forward direction is ready
 254:lvgl/examples/anim/../../src/misc/lv_anim.h ****  * @param a         pointer to an initialized `lv_anim_t` variable
 255:lvgl/examples/anim/../../src/misc/lv_anim.h ****  * @param delay     delay in milliseconds before starting the playback animation.
 256:lvgl/examples/anim/../../src/misc/lv_anim.h ****  */
 257:lvgl/examples/anim/../../src/misc/lv_anim.h **** static inline void lv_anim_set_playback_delay(lv_anim_t * a, uint32_t delay)
 196              		.loc 3 257 20 view .LVU43
 197              	.LBB57:
 258:lvgl/examples/anim/../../src/misc/lv_anim.h **** {
 259:lvgl/examples/anim/../../src/misc/lv_anim.h ****     a->playback_delay = delay;
 198              		.loc 3 259 5 view .LVU44
 199              		.loc 3 259 23 is_stmt 0 view .LVU45
 200 0052 6423     		movs	r3, #100
 201 0054 0E93     		str	r3, [sp, #56]
 202              	.LVL20:
 203              		.loc 3 259 23 view .LVU46
 204              	.LBE57:
 205              	.LBE56:
  32:lvgl/examples/anim/lv_example_anim_2.c ****     lv_anim_set_playback_time(&a, 300);
 206              		.loc 1 32 5 is_stmt 1 view .LVU47
 207              	.LBB58:
 208              	.LBI58:
 247:lvgl/examples/anim/../../src/misc/lv_anim.h **** {
 209              		.loc 3 247 20 view .LVU48
ARM GAS  C:\Users\OSD\AppData\Local\Temp\ccEXN6Ob.s 			page 13


 210              	.LBB59:
 249:lvgl/examples/anim/../../src/misc/lv_anim.h **** }
 211              		.loc 3 249 5 view .LVU49
 249:lvgl/examples/anim/../../src/misc/lv_anim.h **** }
 212              		.loc 3 249 22 is_stmt 0 view .LVU50
 213 0056 4FF49673 		mov	r3, #300
 214 005a 0F93     		str	r3, [sp, #60]
 215              	.LVL21:
 249:lvgl/examples/anim/../../src/misc/lv_anim.h **** }
 216              		.loc 3 249 22 view .LVU51
 217              	.LBE59:
 218              	.LBE58:
  33:lvgl/examples/anim/lv_example_anim_2.c ****     lv_anim_set_repeat_delay(&a, 500);
 219              		.loc 1 33 5 is_stmt 1 view .LVU52
 220              	.LBB60:
 221              	.LBI60:
 260:lvgl/examples/anim/../../src/misc/lv_anim.h **** }
 261:lvgl/examples/anim/../../src/misc/lv_anim.h **** 
 262:lvgl/examples/anim/../../src/misc/lv_anim.h **** /**
 263:lvgl/examples/anim/../../src/misc/lv_anim.h ****  * Make the animation repeat itself.
 264:lvgl/examples/anim/../../src/misc/lv_anim.h ****  * @param a         pointer to an initialized `lv_anim_t` variable
 265:lvgl/examples/anim/../../src/misc/lv_anim.h ****  * @param cnt       repeat count or `LV_ANIM_REPEAT_INFINITE` for infinite repetition. 0: to disabl
 266:lvgl/examples/anim/../../src/misc/lv_anim.h ****  */
 267:lvgl/examples/anim/../../src/misc/lv_anim.h **** static inline void lv_anim_set_repeat_count(lv_anim_t * a, uint16_t cnt)
 268:lvgl/examples/anim/../../src/misc/lv_anim.h **** {
 269:lvgl/examples/anim/../../src/misc/lv_anim.h ****     a->repeat_cnt = cnt;
 270:lvgl/examples/anim/../../src/misc/lv_anim.h **** }
 271:lvgl/examples/anim/../../src/misc/lv_anim.h **** 
 272:lvgl/examples/anim/../../src/misc/lv_anim.h **** /**
 273:lvgl/examples/anim/../../src/misc/lv_anim.h ****  * Set a delay before repeating the animation.
 274:lvgl/examples/anim/../../src/misc/lv_anim.h ****  * @param a         pointer to an initialized `lv_anim_t` variable
 275:lvgl/examples/anim/../../src/misc/lv_anim.h ****  * @param delay     delay in milliseconds before repeating the animation.
 276:lvgl/examples/anim/../../src/misc/lv_anim.h ****  */
 277:lvgl/examples/anim/../../src/misc/lv_anim.h **** static inline void lv_anim_set_repeat_delay(lv_anim_t * a, uint32_t delay)
 222              		.loc 3 277 20 view .LVU53
 223              	.LBB61:
 278:lvgl/examples/anim/../../src/misc/lv_anim.h **** {
 279:lvgl/examples/anim/../../src/misc/lv_anim.h ****     a->repeat_delay = delay;
 224              		.loc 3 279 5 view .LVU54
 225              		.loc 3 279 21 is_stmt 0 view .LVU55
 226 005c 4FF4FA73 		mov	r3, #500
 227 0060 1093     		str	r3, [sp, #64]
 228              	.LVL22:
 229              		.loc 3 279 21 view .LVU56
 230              	.LBE61:
 231              	.LBE60:
  34:lvgl/examples/anim/lv_example_anim_2.c ****     lv_anim_set_repeat_count(&a, LV_ANIM_REPEAT_INFINITE);
 232              		.loc 1 34 5 is_stmt 1 view .LVU57
 233              	.LBB62:
 234              	.LBI62:
 267:lvgl/examples/anim/../../src/misc/lv_anim.h **** {
 235              		.loc 3 267 20 view .LVU58
 236              	.LBB63:
 269:lvgl/examples/anim/../../src/misc/lv_anim.h **** }
 237              		.loc 3 269 5 view .LVU59
 269:lvgl/examples/anim/../../src/misc/lv_anim.h **** }
 238              		.loc 3 269 19 is_stmt 0 view .LVU60
ARM GAS  C:\Users\OSD\AppData\Local\Temp\ccEXN6Ob.s 			page 14


 239 0062 4FF6FF73 		movw	r3, #65535
 240 0066 ADF84430 		strh	r3, [sp, #68]	@ movhi
 241              	.LVL23:
 269:lvgl/examples/anim/../../src/misc/lv_anim.h **** }
 242              		.loc 3 269 19 view .LVU61
 243              	.LBE63:
 244              	.LBE62:
  35:lvgl/examples/anim/lv_example_anim_2.c ****     lv_anim_set_path_cb(&a, lv_anim_path_ease_in_out);
 245              		.loc 1 35 5 is_stmt 1 view .LVU62
 246              	.LBB64:
 247              	.LBI64:
 196:lvgl/examples/anim/../../src/misc/lv_anim.h **** {
 248              		.loc 3 196 20 view .LVU63
 249              	.LBB65:
 198:lvgl/examples/anim/../../src/misc/lv_anim.h **** }
 250              		.loc 3 198 5 view .LVU64
 198:lvgl/examples/anim/../../src/misc/lv_anim.h **** }
 251              		.loc 3 198 16 is_stmt 0 view .LVU65
 252 006a 094B     		ldr	r3, .L7
 253 006c 0893     		str	r3, [sp, #32]
 254              	.LVL24:
 198:lvgl/examples/anim/../../src/misc/lv_anim.h **** }
 255              		.loc 3 198 16 view .LVU66
 256              	.LBE65:
 257              	.LBE64:
  36:lvgl/examples/anim/lv_example_anim_2.c **** 
  37:lvgl/examples/anim/lv_example_anim_2.c ****     lv_anim_set_exec_cb(&a, anim_size_cb);
 258              		.loc 1 37 5 is_stmt 1 view .LVU67
 259              	.LBB66:
 260              	.LBI66:
 138:lvgl/examples/anim/../../src/misc/lv_anim.h **** {
 261              		.loc 3 138 20 view .LVU68
 262              	.LBB67:
 140:lvgl/examples/anim/../../src/misc/lv_anim.h **** }
 263              		.loc 3 140 5 view .LVU69
 140:lvgl/examples/anim/../../src/misc/lv_anim.h **** }
 264              		.loc 3 140 16 is_stmt 0 view .LVU70
 265 006e 094B     		ldr	r3, .L7+4
 266 0070 0293     		str	r3, [sp, #8]
 267              	.LVL25:
 140:lvgl/examples/anim/../../src/misc/lv_anim.h **** }
 268              		.loc 3 140 16 view .LVU71
 269              	.LBE67:
 270              	.LBE66:
  38:lvgl/examples/anim/lv_example_anim_2.c ****     lv_anim_start(&a);
 271              		.loc 1 38 5 is_stmt 1 view .LVU72
 272 0072 01A8     		add	r0, sp, #4
 273              	.LVL26:
 274              		.loc 1 38 5 is_stmt 0 view .LVU73
 275 0074 FFF7FEFF 		bl	lv_anim_start
 276              	.LVL27:
  39:lvgl/examples/anim/lv_example_anim_2.c ****     lv_anim_set_exec_cb(&a, anim_x_cb);
 277              		.loc 1 39 5 is_stmt 1 view .LVU74
 278              	.LBB68:
 279              	.LBI68:
 138:lvgl/examples/anim/../../src/misc/lv_anim.h **** {
 280              		.loc 3 138 20 view .LVU75
ARM GAS  C:\Users\OSD\AppData\Local\Temp\ccEXN6Ob.s 			page 15


 281              	.LBB69:
 140:lvgl/examples/anim/../../src/misc/lv_anim.h **** }
 282              		.loc 3 140 5 view .LVU76
 140:lvgl/examples/anim/../../src/misc/lv_anim.h **** }
 283              		.loc 3 140 16 is_stmt 0 view .LVU77
 284 0078 074B     		ldr	r3, .L7+8
 285 007a 0293     		str	r3, [sp, #8]
 286              	.LVL28:
 140:lvgl/examples/anim/../../src/misc/lv_anim.h **** }
 287              		.loc 3 140 16 view .LVU78
 288              	.LBE69:
 289              	.LBE68:
  40:lvgl/examples/anim/lv_example_anim_2.c ****     lv_anim_set_values(&a, 10, 240);
 290              		.loc 1 40 5 is_stmt 1 view .LVU79
 291              	.LBB70:
 292              	.LBI70:
 169:lvgl/examples/anim/../../src/misc/lv_anim.h **** {
 293              		.loc 3 169 20 view .LVU80
 294              	.LBB71:
 171:lvgl/examples/anim/../../src/misc/lv_anim.h ****     a->current_value = start;
 295              		.loc 3 171 5 view .LVU81
 171:lvgl/examples/anim/../../src/misc/lv_anim.h ****     a->current_value = start;
 296              		.loc 3 171 20 is_stmt 0 view .LVU82
 297 007c 0994     		str	r4, [sp, #36]
 172:lvgl/examples/anim/../../src/misc/lv_anim.h ****     a->end_value = end;
 298              		.loc 3 172 5 is_stmt 1 view .LVU83
 172:lvgl/examples/anim/../../src/misc/lv_anim.h ****     a->end_value = end;
 299              		.loc 3 172 22 is_stmt 0 view .LVU84
 300 007e 0A94     		str	r4, [sp, #40]
 173:lvgl/examples/anim/../../src/misc/lv_anim.h **** }
 301              		.loc 3 173 5 is_stmt 1 view .LVU85
 173:lvgl/examples/anim/../../src/misc/lv_anim.h **** }
 302              		.loc 3 173 18 is_stmt 0 view .LVU86
 303 0080 F023     		movs	r3, #240
 304 0082 0B93     		str	r3, [sp, #44]
 305              	.LVL29:
 173:lvgl/examples/anim/../../src/misc/lv_anim.h **** }
 306              		.loc 3 173 18 view .LVU87
 307              	.LBE71:
 308              	.LBE70:
  41:lvgl/examples/anim/lv_example_anim_2.c ****     lv_anim_start(&a);
 309              		.loc 1 41 5 is_stmt 1 view .LVU88
 310 0084 01A8     		add	r0, sp, #4
 311 0086 FFF7FEFF 		bl	lv_anim_start
 312              	.LVL30:
  42:lvgl/examples/anim/lv_example_anim_2.c **** }
 313              		.loc 1 42 1 is_stmt 0 view .LVU89
 314 008a 12B0     		add	sp, sp, #72
 315              		.cfi_def_cfa_offset 8
 316              		@ sp needed
 317 008c 10BD     		pop	{r4, pc}
 318              	.L8:
 319 008e 00BF     		.align	2
 320              	.L7:
 321 0090 00000000 		.word	lv_anim_path_ease_in_out
 322 0094 00000000 		.word	anim_size_cb
 323 0098 00000000 		.word	anim_x_cb
ARM GAS  C:\Users\OSD\AppData\Local\Temp\ccEXN6Ob.s 			page 16


 324              		.cfi_endproc
 325              	.LFE206:
 327              		.text
 328              	.Letext0:
 329              		.file 4 "c:\\tools\\gcc-arm-none-eabi\\arm-none-eabi\\include\\machine\\_default_types.h"
 330              		.file 5 "c:\\tools\\gcc-arm-none-eabi\\arm-none-eabi\\include\\sys\\_stdint.h"
 331              		.file 6 "d:\\kzc\\stm32\\h743ii_lcd\\lvgl\\src\\misc\\lv_area.h"
 332              		.file 7 "d:\\kzc\\stm32\\h743ii_lcd\\lvgl\\src\\misc\\lv_color.h"
 333              		.file 8 "d:\\kzc\\stm32\\h743ii_lcd\\lvgl\\src\\misc\\lv_style.h"
 334              		.file 9 "lvgl/examples/anim/../../src/core/lv_obj.h"
 335              		.file 10 "d:\\kzc\\stm32\\h743ii_lcd\\lvgl\\src\\misc\\lv_ll.h"
 336              		.file 11 "lvgl/examples/anim/../../src/core/lv_group.h"
 337              		.file 12 "lvgl/examples/anim/../../src/core/lv_obj_scroll.h"
 338              		.file 13 "lvgl/examples/anim/../../src/core/lv_obj_style.h"
 339              		.file 14 "lvgl/examples/anim/../../src/core/lv_obj_class.h"
 340              		.file 15 "lvgl/examples/anim/../../src/core/lv_event.h"
 341              		.file 16 "lvgl/examples/anim/../../src/hal/lv_hal_disp.h"
 342              		.file 17 "lvgl/examples/anim/../../src/core/lv_obj_style_gen.h"
 343              		.file 18 "d:\\kzc\\stm32\\h743ii_lcd\\lvgl\\src\\core\\lv_obj_pos.h"
ARM GAS  C:\Users\OSD\AppData\Local\Temp\ccEXN6Ob.s 			page 17

