ARM GAS  C:\Users\OSD\AppData\Local\Temp\ccm9JWcC.s 			page 1


   1              		.cpu cortex-m7
   2              		.arch armv7e-m
   3              		.fpu fpv5-d16
   4              		.eabi_attribute 28, 1
   5              		.eabi_attribute 20, 1
   6              		.eabi_attribute 21, 1
   7              		.eabi_attribute 23, 3
   8              		.eabi_attribute 24, 1
   9              		.eabi_attribute 25, 1
  10              		.eabi_attribute 26, 1
  11              		.eabi_attribute 30, 1
  12              		.eabi_attribute 34, 1
  13              		.eabi_attribute 18, 4
  14              		.file	"lv_example_dropdown_2.c"
  15              		.text
  16              	.Ltext0:
  17              		.cfi_sections	.debug_frame
  18              		.section	.rodata.lv_example_dropdown_2.str1.4,"aMS",%progbits,1
  19              		.align	2
  20              	.LC0:
  21 0000 4170706C 		.ascii	"Apple\012Banana\012Orange\012Melon\000"
  21      650A4261 
  21      6E616E61 
  21      0A4F7261 
  21      6E67650A 
  22 001a 0000     		.align	2
  23              	.LC1:
  24 001c EF81B700 		.ascii	"\357\201\267\000"
  25              		.align	2
  26              	.LC2:
  27 0020 EF819400 		.ascii	"\357\201\224\000"
  28              		.align	2
  29              	.LC3:
  30 0024 EF819300 		.ascii	"\357\201\223\000"
  31              		.section	.text.lv_example_dropdown_2,"ax",%progbits
  32              		.align	1
  33              		.global	lv_example_dropdown_2
  34              		.syntax unified
  35              		.thumb
  36              		.thumb_func
  38              	lv_example_dropdown_2:
  39              	.LFB204:
  40              		.file 1 "lvgl/examples/widgets/dropdown/lv_example_dropdown_2.c"
   1:lvgl/examples/widgets/dropdown/lv_example_dropdown_2.c **** #include "../../lv_examples.h"
   2:lvgl/examples/widgets/dropdown/lv_example_dropdown_2.c **** #if LV_USE_DROPDOWN && LV_BUILD_EXAMPLES
   3:lvgl/examples/widgets/dropdown/lv_example_dropdown_2.c **** 
   4:lvgl/examples/widgets/dropdown/lv_example_dropdown_2.c **** /**
   5:lvgl/examples/widgets/dropdown/lv_example_dropdown_2.c ****  * Create a drop down, up, left and right menus
   6:lvgl/examples/widgets/dropdown/lv_example_dropdown_2.c ****  */
   7:lvgl/examples/widgets/dropdown/lv_example_dropdown_2.c **** void lv_example_dropdown_2(void)
   8:lvgl/examples/widgets/dropdown/lv_example_dropdown_2.c **** {
  41              		.loc 1 8 1 view -0
  42              		.cfi_startproc
  43              		@ args = 0, pretend = 0, frame = 0
  44              		@ frame_needed = 0, uses_anonymous_args = 0
  45 0000 38B5     		push	{r3, r4, r5, lr}
  46              		.cfi_def_cfa_offset 16
ARM GAS  C:\Users\OSD\AppData\Local\Temp\ccm9JWcC.s 			page 2


  47              		.cfi_offset 3, -16
  48              		.cfi_offset 4, -12
  49              		.cfi_offset 5, -8
  50              		.cfi_offset 14, -4
   9:lvgl/examples/widgets/dropdown/lv_example_dropdown_2.c ****     static const char * opts = "Apple\n"
  51              		.loc 1 9 5 view .LVU1
  10:lvgl/examples/widgets/dropdown/lv_example_dropdown_2.c ****                                "Banana\n"
  11:lvgl/examples/widgets/dropdown/lv_example_dropdown_2.c ****                                "Orange\n"
  12:lvgl/examples/widgets/dropdown/lv_example_dropdown_2.c ****                                "Melon";
  13:lvgl/examples/widgets/dropdown/lv_example_dropdown_2.c **** 
  14:lvgl/examples/widgets/dropdown/lv_example_dropdown_2.c ****     lv_obj_t * dd;
  52              		.loc 1 14 5 view .LVU2
  15:lvgl/examples/widgets/dropdown/lv_example_dropdown_2.c ****     dd = lv_dropdown_create(lv_scr_act());
  53              		.loc 1 15 5 view .LVU3
  54              	.LBB10:
  55              	.LBI10:
  56              		.file 2 "d:\\kzc\\stm32\\h743ii_lcd\\lvgl\\src/core/lv_disp.h"
   1:d:\kzc\stm32\h743ii_lcd\lvgl\src/core\lv_disp.h **** /**
   2:d:\kzc\stm32\h743ii_lcd\lvgl\src/core\lv_disp.h ****  * @file lv_disp.h
   3:d:\kzc\stm32\h743ii_lcd\lvgl\src/core\lv_disp.h ****  *
   4:d:\kzc\stm32\h743ii_lcd\lvgl\src/core\lv_disp.h ****  */
   5:d:\kzc\stm32\h743ii_lcd\lvgl\src/core\lv_disp.h **** 
   6:d:\kzc\stm32\h743ii_lcd\lvgl\src/core\lv_disp.h **** #ifndef LV_DISP_H
   7:d:\kzc\stm32\h743ii_lcd\lvgl\src/core\lv_disp.h **** #define LV_DISP_H
   8:d:\kzc\stm32\h743ii_lcd\lvgl\src/core\lv_disp.h **** 
   9:d:\kzc\stm32\h743ii_lcd\lvgl\src/core\lv_disp.h **** #ifdef __cplusplus
  10:d:\kzc\stm32\h743ii_lcd\lvgl\src/core\lv_disp.h **** extern "C" {
  11:d:\kzc\stm32\h743ii_lcd\lvgl\src/core\lv_disp.h **** #endif
  12:d:\kzc\stm32\h743ii_lcd\lvgl\src/core\lv_disp.h **** 
  13:d:\kzc\stm32\h743ii_lcd\lvgl\src/core\lv_disp.h **** /*********************
  14:d:\kzc\stm32\h743ii_lcd\lvgl\src/core\lv_disp.h ****  *      INCLUDES
  15:d:\kzc\stm32\h743ii_lcd\lvgl\src/core\lv_disp.h ****  *********************/
  16:d:\kzc\stm32\h743ii_lcd\lvgl\src/core\lv_disp.h **** #include "../hal/lv_hal.h"
  17:d:\kzc\stm32\h743ii_lcd\lvgl\src/core\lv_disp.h **** #include "lv_obj.h"
  18:d:\kzc\stm32\h743ii_lcd\lvgl\src/core\lv_disp.h **** #include "lv_theme.h"
  19:d:\kzc\stm32\h743ii_lcd\lvgl\src/core\lv_disp.h **** 
  20:d:\kzc\stm32\h743ii_lcd\lvgl\src/core\lv_disp.h **** /*********************
  21:d:\kzc\stm32\h743ii_lcd\lvgl\src/core\lv_disp.h ****  *      DEFINES
  22:d:\kzc\stm32\h743ii_lcd\lvgl\src/core\lv_disp.h ****  *********************/
  23:d:\kzc\stm32\h743ii_lcd\lvgl\src/core\lv_disp.h **** 
  24:d:\kzc\stm32\h743ii_lcd\lvgl\src/core\lv_disp.h **** /**********************
  25:d:\kzc\stm32\h743ii_lcd\lvgl\src/core\lv_disp.h ****  *      TYPEDEFS
  26:d:\kzc\stm32\h743ii_lcd\lvgl\src/core\lv_disp.h ****  **********************/
  27:d:\kzc\stm32\h743ii_lcd\lvgl\src/core\lv_disp.h **** 
  28:d:\kzc\stm32\h743ii_lcd\lvgl\src/core\lv_disp.h **** typedef enum {
  29:d:\kzc\stm32\h743ii_lcd\lvgl\src/core\lv_disp.h ****     LV_SCR_LOAD_ANIM_NONE,
  30:d:\kzc\stm32\h743ii_lcd\lvgl\src/core\lv_disp.h ****     LV_SCR_LOAD_ANIM_OVER_LEFT,
  31:d:\kzc\stm32\h743ii_lcd\lvgl\src/core\lv_disp.h ****     LV_SCR_LOAD_ANIM_OVER_RIGHT,
  32:d:\kzc\stm32\h743ii_lcd\lvgl\src/core\lv_disp.h ****     LV_SCR_LOAD_ANIM_OVER_TOP,
  33:d:\kzc\stm32\h743ii_lcd\lvgl\src/core\lv_disp.h ****     LV_SCR_LOAD_ANIM_OVER_BOTTOM,
  34:d:\kzc\stm32\h743ii_lcd\lvgl\src/core\lv_disp.h ****     LV_SCR_LOAD_ANIM_MOVE_LEFT,
  35:d:\kzc\stm32\h743ii_lcd\lvgl\src/core\lv_disp.h ****     LV_SCR_LOAD_ANIM_MOVE_RIGHT,
  36:d:\kzc\stm32\h743ii_lcd\lvgl\src/core\lv_disp.h ****     LV_SCR_LOAD_ANIM_MOVE_TOP,
  37:d:\kzc\stm32\h743ii_lcd\lvgl\src/core\lv_disp.h ****     LV_SCR_LOAD_ANIM_MOVE_BOTTOM,
  38:d:\kzc\stm32\h743ii_lcd\lvgl\src/core\lv_disp.h ****     LV_SCR_LOAD_ANIM_FADE_IN,
  39:d:\kzc\stm32\h743ii_lcd\lvgl\src/core\lv_disp.h ****     LV_SCR_LOAD_ANIM_FADE_ON = LV_SCR_LOAD_ANIM_FADE_IN, /*For backward compatibility*/
  40:d:\kzc\stm32\h743ii_lcd\lvgl\src/core\lv_disp.h ****     LV_SCR_LOAD_ANIM_FADE_OUT,
ARM GAS  C:\Users\OSD\AppData\Local\Temp\ccm9JWcC.s 			page 3


  41:d:\kzc\stm32\h743ii_lcd\lvgl\src/core\lv_disp.h ****     LV_SCR_LOAD_ANIM_OUT_LEFT,
  42:d:\kzc\stm32\h743ii_lcd\lvgl\src/core\lv_disp.h ****     LV_SCR_LOAD_ANIM_OUT_RIGHT,
  43:d:\kzc\stm32\h743ii_lcd\lvgl\src/core\lv_disp.h ****     LV_SCR_LOAD_ANIM_OUT_TOP,
  44:d:\kzc\stm32\h743ii_lcd\lvgl\src/core\lv_disp.h ****     LV_SCR_LOAD_ANIM_OUT_BOTTOM,
  45:d:\kzc\stm32\h743ii_lcd\lvgl\src/core\lv_disp.h **** } lv_scr_load_anim_t;
  46:d:\kzc\stm32\h743ii_lcd\lvgl\src/core\lv_disp.h **** 
  47:d:\kzc\stm32\h743ii_lcd\lvgl\src/core\lv_disp.h **** /**********************
  48:d:\kzc\stm32\h743ii_lcd\lvgl\src/core\lv_disp.h ****  * GLOBAL PROTOTYPES
  49:d:\kzc\stm32\h743ii_lcd\lvgl\src/core\lv_disp.h ****  **********************/
  50:d:\kzc\stm32\h743ii_lcd\lvgl\src/core\lv_disp.h **** 
  51:d:\kzc\stm32\h743ii_lcd\lvgl\src/core\lv_disp.h **** /**
  52:d:\kzc\stm32\h743ii_lcd\lvgl\src/core\lv_disp.h ****  * Return with a pointer to the active screen
  53:d:\kzc\stm32\h743ii_lcd\lvgl\src/core\lv_disp.h ****  * @param disp pointer to display which active screen should be get. (NULL to use the default
  54:d:\kzc\stm32\h743ii_lcd\lvgl\src/core\lv_disp.h ****  * screen)
  55:d:\kzc\stm32\h743ii_lcd\lvgl\src/core\lv_disp.h ****  * @return pointer to the active screen object (loaded by 'lv_scr_load()')
  56:d:\kzc\stm32\h743ii_lcd\lvgl\src/core\lv_disp.h ****  */
  57:d:\kzc\stm32\h743ii_lcd\lvgl\src/core\lv_disp.h **** lv_obj_t * lv_disp_get_scr_act(lv_disp_t * disp);
  58:d:\kzc\stm32\h743ii_lcd\lvgl\src/core\lv_disp.h **** 
  59:d:\kzc\stm32\h743ii_lcd\lvgl\src/core\lv_disp.h **** /**
  60:d:\kzc\stm32\h743ii_lcd\lvgl\src/core\lv_disp.h ****  * Return with a pointer to the previous screen. Only used during screen transitions.
  61:d:\kzc\stm32\h743ii_lcd\lvgl\src/core\lv_disp.h ****  * @param disp pointer to display which previous screen should be get. (NULL to use the default
  62:d:\kzc\stm32\h743ii_lcd\lvgl\src/core\lv_disp.h ****  * screen)
  63:d:\kzc\stm32\h743ii_lcd\lvgl\src/core\lv_disp.h ****  * @return pointer to the previous screen object or NULL if not used now
  64:d:\kzc\stm32\h743ii_lcd\lvgl\src/core\lv_disp.h ****  */
  65:d:\kzc\stm32\h743ii_lcd\lvgl\src/core\lv_disp.h **** lv_obj_t * lv_disp_get_scr_prev(lv_disp_t * disp);
  66:d:\kzc\stm32\h743ii_lcd\lvgl\src/core\lv_disp.h **** 
  67:d:\kzc\stm32\h743ii_lcd\lvgl\src/core\lv_disp.h **** /**
  68:d:\kzc\stm32\h743ii_lcd\lvgl\src/core\lv_disp.h ****  * Make a screen active
  69:d:\kzc\stm32\h743ii_lcd\lvgl\src/core\lv_disp.h ****  * @param scr pointer to a screen
  70:d:\kzc\stm32\h743ii_lcd\lvgl\src/core\lv_disp.h ****  */
  71:d:\kzc\stm32\h743ii_lcd\lvgl\src/core\lv_disp.h **** void lv_disp_load_scr(lv_obj_t * scr);
  72:d:\kzc\stm32\h743ii_lcd\lvgl\src/core\lv_disp.h **** 
  73:d:\kzc\stm32\h743ii_lcd\lvgl\src/core\lv_disp.h **** /**
  74:d:\kzc\stm32\h743ii_lcd\lvgl\src/core\lv_disp.h ****  * Return with the top layer. (Same on every screen and it is above the normal screen layer)
  75:d:\kzc\stm32\h743ii_lcd\lvgl\src/core\lv_disp.h ****  * @param disp pointer to display which top layer should be get. (NULL to use the default screen)
  76:d:\kzc\stm32\h743ii_lcd\lvgl\src/core\lv_disp.h ****  * @return pointer to the top layer object (transparent screen sized lv_obj)
  77:d:\kzc\stm32\h743ii_lcd\lvgl\src/core\lv_disp.h ****  */
  78:d:\kzc\stm32\h743ii_lcd\lvgl\src/core\lv_disp.h **** lv_obj_t * lv_disp_get_layer_top(lv_disp_t * disp);
  79:d:\kzc\stm32\h743ii_lcd\lvgl\src/core\lv_disp.h **** 
  80:d:\kzc\stm32\h743ii_lcd\lvgl\src/core\lv_disp.h **** /**
  81:d:\kzc\stm32\h743ii_lcd\lvgl\src/core\lv_disp.h ****  * Return with the sys. layer. (Same on every screen and it is above the normal screen and the top
  82:d:\kzc\stm32\h743ii_lcd\lvgl\src/core\lv_disp.h ****  * layer)
  83:d:\kzc\stm32\h743ii_lcd\lvgl\src/core\lv_disp.h ****  * @param disp pointer to display which sys. layer should be retrieved. (NULL to use the default sc
  84:d:\kzc\stm32\h743ii_lcd\lvgl\src/core\lv_disp.h ****  * @return pointer to the sys layer object (transparent screen sized lv_obj)
  85:d:\kzc\stm32\h743ii_lcd\lvgl\src/core\lv_disp.h ****  */
  86:d:\kzc\stm32\h743ii_lcd\lvgl\src/core\lv_disp.h **** lv_obj_t * lv_disp_get_layer_sys(lv_disp_t * disp);
  87:d:\kzc\stm32\h743ii_lcd\lvgl\src/core\lv_disp.h **** 
  88:d:\kzc\stm32\h743ii_lcd\lvgl\src/core\lv_disp.h **** /**
  89:d:\kzc\stm32\h743ii_lcd\lvgl\src/core\lv_disp.h ****  * Set the theme of a display
  90:d:\kzc\stm32\h743ii_lcd\lvgl\src/core\lv_disp.h ****  * @param disp pointer to a display
  91:d:\kzc\stm32\h743ii_lcd\lvgl\src/core\lv_disp.h ****  */
  92:d:\kzc\stm32\h743ii_lcd\lvgl\src/core\lv_disp.h **** void lv_disp_set_theme(lv_disp_t * disp, lv_theme_t * th);
  93:d:\kzc\stm32\h743ii_lcd\lvgl\src/core\lv_disp.h **** 
  94:d:\kzc\stm32\h743ii_lcd\lvgl\src/core\lv_disp.h **** /**
  95:d:\kzc\stm32\h743ii_lcd\lvgl\src/core\lv_disp.h ****  * Get the theme of a display
  96:d:\kzc\stm32\h743ii_lcd\lvgl\src/core\lv_disp.h ****  * @param disp pointer to a display
  97:d:\kzc\stm32\h743ii_lcd\lvgl\src/core\lv_disp.h ****  * @return the display's theme (can be NULL)
ARM GAS  C:\Users\OSD\AppData\Local\Temp\ccm9JWcC.s 			page 4


  98:d:\kzc\stm32\h743ii_lcd\lvgl\src/core\lv_disp.h ****  */
  99:d:\kzc\stm32\h743ii_lcd\lvgl\src/core\lv_disp.h **** lv_theme_t * lv_disp_get_theme(lv_disp_t * disp);
 100:d:\kzc\stm32\h743ii_lcd\lvgl\src/core\lv_disp.h **** 
 101:d:\kzc\stm32\h743ii_lcd\lvgl\src/core\lv_disp.h **** /**
 102:d:\kzc\stm32\h743ii_lcd\lvgl\src/core\lv_disp.h ****  * Set the background color of a display
 103:d:\kzc\stm32\h743ii_lcd\lvgl\src/core\lv_disp.h ****  * @param disp pointer to a display
 104:d:\kzc\stm32\h743ii_lcd\lvgl\src/core\lv_disp.h ****  * @param color color of the background
 105:d:\kzc\stm32\h743ii_lcd\lvgl\src/core\lv_disp.h ****  */
 106:d:\kzc\stm32\h743ii_lcd\lvgl\src/core\lv_disp.h **** void lv_disp_set_bg_color(lv_disp_t * disp, lv_color_t color);
 107:d:\kzc\stm32\h743ii_lcd\lvgl\src/core\lv_disp.h **** 
 108:d:\kzc\stm32\h743ii_lcd\lvgl\src/core\lv_disp.h **** /**
 109:d:\kzc\stm32\h743ii_lcd\lvgl\src/core\lv_disp.h ****  * Set the background image of a display
 110:d:\kzc\stm32\h743ii_lcd\lvgl\src/core\lv_disp.h ****  * @param disp pointer to a display
 111:d:\kzc\stm32\h743ii_lcd\lvgl\src/core\lv_disp.h ****  * @param img_src path to file or pointer to an `lv_img_dsc_t` variable
 112:d:\kzc\stm32\h743ii_lcd\lvgl\src/core\lv_disp.h ****  */
 113:d:\kzc\stm32\h743ii_lcd\lvgl\src/core\lv_disp.h **** void lv_disp_set_bg_image(lv_disp_t * disp, const void  * img_src);
 114:d:\kzc\stm32\h743ii_lcd\lvgl\src/core\lv_disp.h **** 
 115:d:\kzc\stm32\h743ii_lcd\lvgl\src/core\lv_disp.h **** /**
 116:d:\kzc\stm32\h743ii_lcd\lvgl\src/core\lv_disp.h ****  * Set opacity of the background
 117:d:\kzc\stm32\h743ii_lcd\lvgl\src/core\lv_disp.h ****  * @param disp pointer to a display
 118:d:\kzc\stm32\h743ii_lcd\lvgl\src/core\lv_disp.h ****  * @param opa opacity (0..255)
 119:d:\kzc\stm32\h743ii_lcd\lvgl\src/core\lv_disp.h ****  */
 120:d:\kzc\stm32\h743ii_lcd\lvgl\src/core\lv_disp.h **** void lv_disp_set_bg_opa(lv_disp_t * disp, lv_opa_t opa);
 121:d:\kzc\stm32\h743ii_lcd\lvgl\src/core\lv_disp.h **** 
 122:d:\kzc\stm32\h743ii_lcd\lvgl\src/core\lv_disp.h **** /**
 123:d:\kzc\stm32\h743ii_lcd\lvgl\src/core\lv_disp.h ****  * Switch screen with animation
 124:d:\kzc\stm32\h743ii_lcd\lvgl\src/core\lv_disp.h ****  * @param scr pointer to the new screen to load
 125:d:\kzc\stm32\h743ii_lcd\lvgl\src/core\lv_disp.h ****  * @param anim_type type of the animation from `lv_scr_load_anim_t`, e.g. `LV_SCR_LOAD_ANIM_MOVE_LE
 126:d:\kzc\stm32\h743ii_lcd\lvgl\src/core\lv_disp.h ****  * @param time time of the animation
 127:d:\kzc\stm32\h743ii_lcd\lvgl\src/core\lv_disp.h ****  * @param delay delay before the transition
 128:d:\kzc\stm32\h743ii_lcd\lvgl\src/core\lv_disp.h ****  * @param auto_del true: automatically delete the old screen
 129:d:\kzc\stm32\h743ii_lcd\lvgl\src/core\lv_disp.h ****  */
 130:d:\kzc\stm32\h743ii_lcd\lvgl\src/core\lv_disp.h **** void lv_scr_load_anim(lv_obj_t * scr, lv_scr_load_anim_t anim_type, uint32_t time, uint32_t delay, 
 131:d:\kzc\stm32\h743ii_lcd\lvgl\src/core\lv_disp.h **** 
 132:d:\kzc\stm32\h743ii_lcd\lvgl\src/core\lv_disp.h **** /**
 133:d:\kzc\stm32\h743ii_lcd\lvgl\src/core\lv_disp.h ****  * Get elapsed time since last user activity on a display (e.g. click)
 134:d:\kzc\stm32\h743ii_lcd\lvgl\src/core\lv_disp.h ****  * @param disp pointer to a display (NULL to get the overall smallest inactivity)
 135:d:\kzc\stm32\h743ii_lcd\lvgl\src/core\lv_disp.h ****  * @return elapsed ticks (milliseconds) since the last activity
 136:d:\kzc\stm32\h743ii_lcd\lvgl\src/core\lv_disp.h ****  */
 137:d:\kzc\stm32\h743ii_lcd\lvgl\src/core\lv_disp.h **** uint32_t lv_disp_get_inactive_time(const lv_disp_t * disp);
 138:d:\kzc\stm32\h743ii_lcd\lvgl\src/core\lv_disp.h **** 
 139:d:\kzc\stm32\h743ii_lcd\lvgl\src/core\lv_disp.h **** /**
 140:d:\kzc\stm32\h743ii_lcd\lvgl\src/core\lv_disp.h ****  * Manually trigger an activity on a display
 141:d:\kzc\stm32\h743ii_lcd\lvgl\src/core\lv_disp.h ****  * @param disp pointer to a display (NULL to use the default display)
 142:d:\kzc\stm32\h743ii_lcd\lvgl\src/core\lv_disp.h ****  */
 143:d:\kzc\stm32\h743ii_lcd\lvgl\src/core\lv_disp.h **** void lv_disp_trig_activity(lv_disp_t * disp);
 144:d:\kzc\stm32\h743ii_lcd\lvgl\src/core\lv_disp.h **** 
 145:d:\kzc\stm32\h743ii_lcd\lvgl\src/core\lv_disp.h **** /**
 146:d:\kzc\stm32\h743ii_lcd\lvgl\src/core\lv_disp.h ****  * Clean any CPU cache that is related to the display.
 147:d:\kzc\stm32\h743ii_lcd\lvgl\src/core\lv_disp.h ****  * @param disp pointer to a display (NULL to use the default display)
 148:d:\kzc\stm32\h743ii_lcd\lvgl\src/core\lv_disp.h ****  */
 149:d:\kzc\stm32\h743ii_lcd\lvgl\src/core\lv_disp.h **** void lv_disp_clean_dcache(lv_disp_t * disp);
 150:d:\kzc\stm32\h743ii_lcd\lvgl\src/core\lv_disp.h **** 
 151:d:\kzc\stm32\h743ii_lcd\lvgl\src/core\lv_disp.h **** /**
 152:d:\kzc\stm32\h743ii_lcd\lvgl\src/core\lv_disp.h ****  * Temporarily enable and disable the invalidation of the display.
 153:d:\kzc\stm32\h743ii_lcd\lvgl\src/core\lv_disp.h ****  * @param disp pointer to a display (NULL to use the default display)
 154:d:\kzc\stm32\h743ii_lcd\lvgl\src/core\lv_disp.h ****  * @param en true: enable invalidation; false: invalidation
ARM GAS  C:\Users\OSD\AppData\Local\Temp\ccm9JWcC.s 			page 5


 155:d:\kzc\stm32\h743ii_lcd\lvgl\src/core\lv_disp.h ****  */
 156:d:\kzc\stm32\h743ii_lcd\lvgl\src/core\lv_disp.h **** void lv_disp_enable_invalidation(lv_disp_t * disp, bool en);
 157:d:\kzc\stm32\h743ii_lcd\lvgl\src/core\lv_disp.h **** 
 158:d:\kzc\stm32\h743ii_lcd\lvgl\src/core\lv_disp.h **** /**
 159:d:\kzc\stm32\h743ii_lcd\lvgl\src/core\lv_disp.h ****  * Get display invalidation is enabled.
 160:d:\kzc\stm32\h743ii_lcd\lvgl\src/core\lv_disp.h ****  * @param disp pointer to a display (NULL to use the default display)
 161:d:\kzc\stm32\h743ii_lcd\lvgl\src/core\lv_disp.h ****  * @return return true if invalidation is enabled
 162:d:\kzc\stm32\h743ii_lcd\lvgl\src/core\lv_disp.h ****  */
 163:d:\kzc\stm32\h743ii_lcd\lvgl\src/core\lv_disp.h **** bool lv_disp_is_invalidation_enabled(lv_disp_t * disp);
 164:d:\kzc\stm32\h743ii_lcd\lvgl\src/core\lv_disp.h **** 
 165:d:\kzc\stm32\h743ii_lcd\lvgl\src/core\lv_disp.h **** /**
 166:d:\kzc\stm32\h743ii_lcd\lvgl\src/core\lv_disp.h ****  * Get a pointer to the screen refresher timer to
 167:d:\kzc\stm32\h743ii_lcd\lvgl\src/core\lv_disp.h ****  * modify its parameters with `lv_timer_...` functions.
 168:d:\kzc\stm32\h743ii_lcd\lvgl\src/core\lv_disp.h ****  * @param disp pointer to a display
 169:d:\kzc\stm32\h743ii_lcd\lvgl\src/core\lv_disp.h ****  * @return pointer to the display refresher timer. (NULL on error)
 170:d:\kzc\stm32\h743ii_lcd\lvgl\src/core\lv_disp.h ****  */
 171:d:\kzc\stm32\h743ii_lcd\lvgl\src/core\lv_disp.h **** lv_timer_t * _lv_disp_get_refr_timer(lv_disp_t * disp);
 172:d:\kzc\stm32\h743ii_lcd\lvgl\src/core\lv_disp.h **** 
 173:d:\kzc\stm32\h743ii_lcd\lvgl\src/core\lv_disp.h **** /*------------------------------------------------
 174:d:\kzc\stm32\h743ii_lcd\lvgl\src/core\lv_disp.h ****  * To improve backward compatibility
 175:d:\kzc\stm32\h743ii_lcd\lvgl\src/core\lv_disp.h ****  * Recommended only if you have one display
 176:d:\kzc\stm32\h743ii_lcd\lvgl\src/core\lv_disp.h ****  *------------------------------------------------*/
 177:d:\kzc\stm32\h743ii_lcd\lvgl\src/core\lv_disp.h **** 
 178:d:\kzc\stm32\h743ii_lcd\lvgl\src/core\lv_disp.h **** /**
 179:d:\kzc\stm32\h743ii_lcd\lvgl\src/core\lv_disp.h ****  * Get the active screen of the default display
 180:d:\kzc\stm32\h743ii_lcd\lvgl\src/core\lv_disp.h ****  * @return pointer to the active screen
 181:d:\kzc\stm32\h743ii_lcd\lvgl\src/core\lv_disp.h ****  */
 182:d:\kzc\stm32\h743ii_lcd\lvgl\src/core\lv_disp.h **** static inline lv_obj_t * lv_scr_act(void)
  57              		.loc 2 182 26 view .LVU4
  58              	.LBB11:
 183:d:\kzc\stm32\h743ii_lcd\lvgl\src/core\lv_disp.h **** {
 184:d:\kzc\stm32\h743ii_lcd\lvgl\src/core\lv_disp.h ****     return lv_disp_get_scr_act(lv_disp_get_default());
  59              		.loc 2 184 5 view .LVU5
  60              		.loc 2 184 12 is_stmt 0 view .LVU6
  61 0002 FFF7FEFF 		bl	lv_disp_get_default
  62              	.LVL0:
  63 0006 FFF7FEFF 		bl	lv_disp_get_scr_act
  64              	.LVL1:
  65              	.LBE11:
  66              	.LBE10:
  67              		.loc 1 15 10 view .LVU7
  68 000a FFF7FEFF 		bl	lv_dropdown_create
  69              	.LVL2:
  70 000e 0446     		mov	r4, r0
  71              	.LVL3:
  16:lvgl/examples/widgets/dropdown/lv_example_dropdown_2.c ****     lv_dropdown_set_options_static(dd, opts);
  72              		.loc 1 16 5 is_stmt 1 view .LVU8
  73 0010 2A4D     		ldr	r5, .L3
  74 0012 2946     		mov	r1, r5
  75 0014 FFF7FEFF 		bl	lv_dropdown_set_options_static
  76              	.LVL4:
  17:lvgl/examples/widgets/dropdown/lv_example_dropdown_2.c ****     lv_obj_align(dd, LV_ALIGN_TOP_MID, 0, 10);
  77              		.loc 1 17 5 view .LVU9
  78 0018 0A23     		movs	r3, #10
  79 001a 0022     		movs	r2, #0
  80 001c 0221     		movs	r1, #2
  81 001e 2046     		mov	r0, r4
ARM GAS  C:\Users\OSD\AppData\Local\Temp\ccm9JWcC.s 			page 6


  82 0020 FFF7FEFF 		bl	lv_obj_align
  83              	.LVL5:
  18:lvgl/examples/widgets/dropdown/lv_example_dropdown_2.c **** 
  19:lvgl/examples/widgets/dropdown/lv_example_dropdown_2.c ****     dd = lv_dropdown_create(lv_scr_act());
  84              		.loc 1 19 5 view .LVU10
  85              	.LBB12:
  86              	.LBI12:
 182:d:\kzc\stm32\h743ii_lcd\lvgl\src/core\lv_disp.h **** {
  87              		.loc 2 182 26 view .LVU11
  88              	.LBB13:
  89              		.loc 2 184 5 view .LVU12
  90              		.loc 2 184 12 is_stmt 0 view .LVU13
  91 0024 FFF7FEFF 		bl	lv_disp_get_default
  92              	.LVL6:
  93 0028 FFF7FEFF 		bl	lv_disp_get_scr_act
  94              	.LVL7:
  95              	.LBE13:
  96              	.LBE12:
  97              		.loc 1 19 10 view .LVU14
  98 002c FFF7FEFF 		bl	lv_dropdown_create
  99              	.LVL8:
 100 0030 0446     		mov	r4, r0
 101              	.LVL9:
  20:lvgl/examples/widgets/dropdown/lv_example_dropdown_2.c ****     lv_dropdown_set_options_static(dd, opts);
 102              		.loc 1 20 5 is_stmt 1 view .LVU15
 103 0032 2946     		mov	r1, r5
 104 0034 FFF7FEFF 		bl	lv_dropdown_set_options_static
 105              	.LVL10:
  21:lvgl/examples/widgets/dropdown/lv_example_dropdown_2.c ****     lv_dropdown_set_dir(dd, LV_DIR_BOTTOM);
 106              		.loc 1 21 5 view .LVU16
 107 0038 0821     		movs	r1, #8
 108 003a 2046     		mov	r0, r4
 109 003c FFF7FEFF 		bl	lv_dropdown_set_dir
 110              	.LVL11:
  22:lvgl/examples/widgets/dropdown/lv_example_dropdown_2.c ****     lv_dropdown_set_symbol(dd, LV_SYMBOL_UP);
 111              		.loc 1 22 5 view .LVU17
 112 0040 1F49     		ldr	r1, .L3+4
 113 0042 2046     		mov	r0, r4
 114 0044 FFF7FEFF 		bl	lv_dropdown_set_symbol
 115              	.LVL12:
  23:lvgl/examples/widgets/dropdown/lv_example_dropdown_2.c ****     lv_obj_align(dd, LV_ALIGN_BOTTOM_MID, 0, -10);
 116              		.loc 1 23 5 view .LVU18
 117 0048 6FF00903 		mvn	r3, #9
 118 004c 0022     		movs	r2, #0
 119 004e 0521     		movs	r1, #5
 120 0050 2046     		mov	r0, r4
 121 0052 FFF7FEFF 		bl	lv_obj_align
 122              	.LVL13:
  24:lvgl/examples/widgets/dropdown/lv_example_dropdown_2.c **** 
  25:lvgl/examples/widgets/dropdown/lv_example_dropdown_2.c ****     dd = lv_dropdown_create(lv_scr_act());
 123              		.loc 1 25 5 view .LVU19
 124              	.LBB14:
 125              	.LBI14:
 182:d:\kzc\stm32\h743ii_lcd\lvgl\src/core\lv_disp.h **** {
 126              		.loc 2 182 26 view .LVU20
 127              	.LBB15:
 128              		.loc 2 184 5 view .LVU21
ARM GAS  C:\Users\OSD\AppData\Local\Temp\ccm9JWcC.s 			page 7


 129              		.loc 2 184 12 is_stmt 0 view .LVU22
 130 0056 FFF7FEFF 		bl	lv_disp_get_default
 131              	.LVL14:
 132 005a FFF7FEFF 		bl	lv_disp_get_scr_act
 133              	.LVL15:
 134              	.LBE15:
 135              	.LBE14:
 136              		.loc 1 25 10 view .LVU23
 137 005e FFF7FEFF 		bl	lv_dropdown_create
 138              	.LVL16:
 139 0062 0446     		mov	r4, r0
 140              	.LVL17:
  26:lvgl/examples/widgets/dropdown/lv_example_dropdown_2.c ****     lv_dropdown_set_options_static(dd, opts);
 141              		.loc 1 26 5 is_stmt 1 view .LVU24
 142 0064 2946     		mov	r1, r5
 143 0066 FFF7FEFF 		bl	lv_dropdown_set_options_static
 144              	.LVL18:
  27:lvgl/examples/widgets/dropdown/lv_example_dropdown_2.c ****     lv_dropdown_set_dir(dd, LV_DIR_RIGHT);
 145              		.loc 1 27 5 view .LVU25
 146 006a 0221     		movs	r1, #2
 147 006c 2046     		mov	r0, r4
 148 006e FFF7FEFF 		bl	lv_dropdown_set_dir
 149              	.LVL19:
  28:lvgl/examples/widgets/dropdown/lv_example_dropdown_2.c ****     lv_dropdown_set_symbol(dd, LV_SYMBOL_RIGHT);
 150              		.loc 1 28 5 view .LVU26
 151 0072 1449     		ldr	r1, .L3+8
 152 0074 2046     		mov	r0, r4
 153 0076 FFF7FEFF 		bl	lv_dropdown_set_symbol
 154              	.LVL20:
  29:lvgl/examples/widgets/dropdown/lv_example_dropdown_2.c ****     lv_obj_align(dd, LV_ALIGN_LEFT_MID, 10, 0);
 155              		.loc 1 29 5 view .LVU27
 156 007a 0023     		movs	r3, #0
 157 007c 0A22     		movs	r2, #10
 158 007e 0721     		movs	r1, #7
 159 0080 2046     		mov	r0, r4
 160 0082 FFF7FEFF 		bl	lv_obj_align
 161              	.LVL21:
  30:lvgl/examples/widgets/dropdown/lv_example_dropdown_2.c **** 
  31:lvgl/examples/widgets/dropdown/lv_example_dropdown_2.c ****     dd = lv_dropdown_create(lv_scr_act());
 162              		.loc 1 31 5 view .LVU28
 163              	.LBB16:
 164              	.LBI16:
 182:d:\kzc\stm32\h743ii_lcd\lvgl\src/core\lv_disp.h **** {
 165              		.loc 2 182 26 view .LVU29
 166              	.LBB17:
 167              		.loc 2 184 5 view .LVU30
 168              		.loc 2 184 12 is_stmt 0 view .LVU31
 169 0086 FFF7FEFF 		bl	lv_disp_get_default
 170              	.LVL22:
 171 008a FFF7FEFF 		bl	lv_disp_get_scr_act
 172              	.LVL23:
 173              	.LBE17:
 174              	.LBE16:
 175              		.loc 1 31 10 view .LVU32
 176 008e FFF7FEFF 		bl	lv_dropdown_create
 177              	.LVL24:
 178 0092 0446     		mov	r4, r0
ARM GAS  C:\Users\OSD\AppData\Local\Temp\ccm9JWcC.s 			page 8


 179              	.LVL25:
  32:lvgl/examples/widgets/dropdown/lv_example_dropdown_2.c ****     lv_dropdown_set_options_static(dd, opts);
 180              		.loc 1 32 5 is_stmt 1 view .LVU33
 181 0094 2946     		mov	r1, r5
 182 0096 FFF7FEFF 		bl	lv_dropdown_set_options_static
 183              	.LVL26:
  33:lvgl/examples/widgets/dropdown/lv_example_dropdown_2.c ****     lv_dropdown_set_dir(dd, LV_DIR_LEFT);
 184              		.loc 1 33 5 view .LVU34
 185 009a 0121     		movs	r1, #1
 186 009c 2046     		mov	r0, r4
 187 009e FFF7FEFF 		bl	lv_dropdown_set_dir
 188              	.LVL27:
  34:lvgl/examples/widgets/dropdown/lv_example_dropdown_2.c ****     lv_dropdown_set_symbol(dd, LV_SYMBOL_LEFT);
 189              		.loc 1 34 5 view .LVU35
 190 00a2 0949     		ldr	r1, .L3+12
 191 00a4 2046     		mov	r0, r4
 192 00a6 FFF7FEFF 		bl	lv_dropdown_set_symbol
 193              	.LVL28:
  35:lvgl/examples/widgets/dropdown/lv_example_dropdown_2.c ****     lv_obj_align(dd, LV_ALIGN_RIGHT_MID, -10, 0);
 194              		.loc 1 35 5 view .LVU36
 195 00aa 0023     		movs	r3, #0
 196 00ac 6FF00902 		mvn	r2, #9
 197 00b0 0821     		movs	r1, #8
 198 00b2 2046     		mov	r0, r4
 199 00b4 FFF7FEFF 		bl	lv_obj_align
 200              	.LVL29:
  36:lvgl/examples/widgets/dropdown/lv_example_dropdown_2.c **** }
 201              		.loc 1 36 1 is_stmt 0 view .LVU37
 202 00b8 38BD     		pop	{r3, r4, r5, pc}
 203              	.LVL30:
 204              	.L4:
 205              		.loc 1 36 1 view .LVU38
 206 00ba 00BF     		.align	2
 207              	.L3:
 208 00bc 00000000 		.word	.LC0
 209 00c0 1C000000 		.word	.LC1
 210 00c4 20000000 		.word	.LC2
 211 00c8 24000000 		.word	.LC3
 212              		.cfi_endproc
 213              	.LFE204:
 215              		.text
 216              	.Letext0:
 217              		.file 3 "c:\\tools\\gcc-arm-none-eabi\\arm-none-eabi\\include\\machine\\_default_types.h"
 218              		.file 4 "c:\\tools\\gcc-arm-none-eabi\\arm-none-eabi\\include\\sys\\_stdint.h"
 219              		.file 5 "d:\\kzc\\stm32\\h743ii_lcd\\lvgl\\src\\misc\\lv_area.h"
 220              		.file 6 "d:\\kzc\\stm32\\h743ii_lcd\\lvgl\\src\\misc\\lv_color.h"
 221              		.file 7 "d:\\kzc\\stm32\\h743ii_lcd\\lvgl\\src\\misc\\lv_style.h"
 222              		.file 8 "d:\\kzc\\stm32\\h743ii_lcd\\lvgl\\src/core/lv_obj.h"
 223              		.file 9 "d:\\kzc\\stm32\\h743ii_lcd\\lvgl\\src\\misc\\lv_ll.h"
 224              		.file 10 "d:\\kzc\\stm32\\h743ii_lcd\\lvgl\\src/core/lv_group.h"
 225              		.file 11 "d:\\kzc\\stm32\\h743ii_lcd\\lvgl\\src/core/lv_obj_scroll.h"
 226              		.file 12 "d:\\kzc\\stm32\\h743ii_lcd\\lvgl\\src/core/lv_obj_style.h"
 227              		.file 13 "d:\\kzc\\stm32\\h743ii_lcd\\lvgl\\src/core/lv_obj_class.h"
 228              		.file 14 "d:\\kzc\\stm32\\h743ii_lcd\\lvgl\\src/core/lv_event.h"
 229              		.file 15 "d:\\kzc\\stm32\\h743ii_lcd\\lvgl\\src/hal/lv_hal_disp.h"
 230              		.file 16 "d:\\kzc\\stm32\\h743ii_lcd\\lvgl\\src/widgets/lv_dropdown.h"
 231              		.file 17 "d:\\kzc\\stm32\\h743ii_lcd\\lvgl\\src\\core\\lv_obj_pos.h"
ARM GAS  C:\Users\OSD\AppData\Local\Temp\ccm9JWcC.s 			page 9


ARM GAS  C:\Users\OSD\AppData\Local\Temp\ccm9JWcC.s 			page 10

