ARM GAS  C:\Users\OSD\AppData\Local\Temp\ccR2olW5.s 			page 1


   1              		.cpu cortex-m7
   2              		.arch armv7e-m
   3              		.fpu fpv5-d16
   4              		.eabi_attribute 28, 1
   5              		.eabi_attribute 20, 1
   6              		.eabi_attribute 21, 1
   7              		.eabi_attribute 23, 3
   8              		.eabi_attribute 24, 1
   9              		.eabi_attribute 25, 1
  10              		.eabi_attribute 26, 1
  11              		.eabi_attribute 30, 1
  12              		.eabi_attribute 34, 1
  13              		.eabi_attribute 18, 4
  14              		.file	"lv_example_chart_3.c"
  15              		.section	.rodata.str1.4,"aMS",%progbits,1
  16              		.align	2
  17              	.LC0:
  18 0000 4A616E00 		.ascii	"Jan\000"
  19              		.align	2
  20              	.LC1:
  21 0004 46656272 		.ascii	"Febr\000"
  21      00
  22 0009 000000   		.align	2
  23              	.LC2:
  24 000c 4D617263 		.ascii	"March\000"
  24      6800
  25 0012 0000     		.align	2
  26              	.LC3:
  27 0014 41707200 		.ascii	"Apr\000"
  28              		.align	2
  29              	.LC4:
  30 0018 4D617900 		.ascii	"May\000"
  31              		.align	2
  32              	.LC5:
  33 001c 4A756E00 		.ascii	"Jun\000"
  34              		.align	2
  35              	.LC6:
  36 0020 4A756C79 		.ascii	"July\000"
  36      00
  37 0025 000000   		.align	2
  38              	.LC7:
  39 0028 41756700 		.ascii	"Aug\000"
  40              		.align	2
  41              	.LC8:
  42 002c 53657074 		.ascii	"Sept\000"
  42      00
  43 0031 000000   		.align	2
  44              	.LC9:
  45 0034 4F637400 		.ascii	"Oct\000"
  46              		.align	2
  47              	.LC10:
  48 0038 4E6F7600 		.ascii	"Nov\000"
  49              		.align	2
  50              	.LC11:
  51 003c 44656300 		.ascii	"Dec\000"
  52              		.text
  53              	.Ltext0:
ARM GAS  C:\Users\OSD\AppData\Local\Temp\ccR2olW5.s 			page 2


  54              		.cfi_sections	.debug_frame
  55              		.section	.rodata.draw_event_cb.str1.4,"aMS",%progbits,1
  56              		.align	2
  57              	.LC14:
  58 0000 257300   		.ascii	"%s\000"
  59              		.section	.text.draw_event_cb,"ax",%progbits
  60              		.align	1
  61              		.syntax unified
  62              		.thumb
  63              		.thumb_func
  65              	draw_event_cb:
  66              	.LVL0:
  67              	.LFB204:
  68              		.file 1 "lvgl/examples/widgets/chart/lv_example_chart_3.c"
   1:lvgl/examples/widgets/chart/lv_example_chart_3.c **** #include "../../lv_examples.h"
   2:lvgl/examples/widgets/chart/lv_example_chart_3.c **** #if LV_USE_CHART && LV_BUILD_EXAMPLES
   3:lvgl/examples/widgets/chart/lv_example_chart_3.c **** 
   4:lvgl/examples/widgets/chart/lv_example_chart_3.c **** static void draw_event_cb(lv_event_t * e)
   5:lvgl/examples/widgets/chart/lv_example_chart_3.c **** {
  69              		.loc 1 5 1 view -0
  70              		.cfi_startproc
  71              		@ args = 0, pretend = 0, frame = 48
  72              		@ frame_needed = 0, uses_anonymous_args = 0
  73              		.loc 1 5 1 is_stmt 0 view .LVU1
  74 0000 70B5     		push	{r4, r5, r6, lr}
  75              		.cfi_def_cfa_offset 16
  76              		.cfi_offset 4, -16
  77              		.cfi_offset 5, -12
  78              		.cfi_offset 6, -8
  79              		.cfi_offset 14, -4
  80 0002 8CB0     		sub	sp, sp, #48
  81              		.cfi_def_cfa_offset 64
   6:lvgl/examples/widgets/chart/lv_example_chart_3.c ****     lv_obj_draw_part_dsc_t * dsc = lv_event_get_draw_part_dsc(e);
  82              		.loc 1 6 5 is_stmt 1 view .LVU2
  83              		.loc 1 6 36 is_stmt 0 view .LVU3
  84 0004 FFF7FEFF 		bl	lv_event_get_draw_part_dsc
  85              	.LVL1:
  86              		.loc 1 6 36 view .LVU4
  87 0008 0446     		mov	r4, r0
  88              	.LVL2:
   7:lvgl/examples/widgets/chart/lv_example_chart_3.c ****     if(!lv_obj_draw_part_check_type(dsc, &lv_chart_class, LV_CHART_DRAW_PART_TICK_LABEL)) return;
  89              		.loc 1 7 5 is_stmt 1 view .LVU5
  90              		.loc 1 7 9 is_stmt 0 view .LVU6
  91 000a 0622     		movs	r2, #6
  92 000c 1149     		ldr	r1, .L5
  93 000e FFF7FEFF 		bl	lv_obj_draw_part_check_type
  94              	.LVL3:
  95              		.loc 1 7 7 view .LVU7
  96 0012 10B1     		cbz	r0, .L1
   8:lvgl/examples/widgets/chart/lv_example_chart_3.c **** 
   9:lvgl/examples/widgets/chart/lv_example_chart_3.c ****     if(dsc->id == LV_CHART_AXIS_PRIMARY_X && dsc->text) {
  97              		.loc 1 9 5 is_stmt 1 view .LVU8
  98              		.loc 1 9 11 is_stmt 0 view .LVU9
  99 0014 A36B     		ldr	r3, [r4, #56]
 100              		.loc 1 9 7 view .LVU10
 101 0016 022B     		cmp	r3, #2
 102 0018 01D0     		beq	.L4
ARM GAS  C:\Users\OSD\AppData\Local\Temp\ccR2olW5.s 			page 3


 103              	.L1:
  10:lvgl/examples/widgets/chart/lv_example_chart_3.c ****         const char * month[] = {"Jan", "Febr", "March", "Apr", "May", "Jun", "July", "Aug", "Sept",
  11:lvgl/examples/widgets/chart/lv_example_chart_3.c ****         lv_snprintf(dsc->text, dsc->text_length, "%s", month[dsc->value]);
  12:lvgl/examples/widgets/chart/lv_example_chart_3.c ****     }
  13:lvgl/examples/widgets/chart/lv_example_chart_3.c **** }
 104              		.loc 1 13 1 view .LVU11
 105 001a 0CB0     		add	sp, sp, #48
 106              		.cfi_remember_state
 107              		.cfi_def_cfa_offset 16
 108              		@ sp needed
 109 001c 70BD     		pop	{r4, r5, r6, pc}
 110              	.LVL4:
 111              	.L4:
 112              		.cfi_restore_state
   9:lvgl/examples/widgets/chart/lv_example_chart_3.c ****         const char * month[] = {"Jan", "Febr", "March", "Apr", "May", "Jun", "July", "Aug", "Sept",
 113              		.loc 1 9 49 discriminator 1 view .LVU12
 114 001e E66A     		ldr	r6, [r4, #44]
   9:lvgl/examples/widgets/chart/lv_example_chart_3.c ****         const char * month[] = {"Jan", "Febr", "March", "Apr", "May", "Jun", "July", "Aug", "Sept",
 115              		.loc 1 9 43 discriminator 1 view .LVU13
 116 0020 002E     		cmp	r6, #0
 117 0022 FAD0     		beq	.L1
 118              	.LBB4:
  10:lvgl/examples/widgets/chart/lv_example_chart_3.c ****         const char * month[] = {"Jan", "Febr", "March", "Apr", "May", "Jun", "July", "Aug", "Sept",
 119              		.loc 1 10 9 is_stmt 1 view .LVU14
  10:lvgl/examples/widgets/chart/lv_example_chart_3.c ****         const char * month[] = {"Jan", "Febr", "March", "Apr", "May", "Jun", "July", "Aug", "Sept",
 120              		.loc 1 10 22 is_stmt 0 view .LVU15
 121 0024 EC46     		mov	ip, sp
 122 0026 0C4D     		ldr	r5, .L5+4
 123 0028 0FCD     		ldmia	r5!, {r0, r1, r2, r3}
 124 002a ACE80F00 		stmia	ip!, {r0, r1, r2, r3}
 125 002e 0FCD     		ldmia	r5!, {r0, r1, r2, r3}
 126 0030 ACE80F00 		stmia	ip!, {r0, r1, r2, r3}
 127 0034 95E80F00 		ldm	r5, {r0, r1, r2, r3}
 128 0038 8CE80F00 		stm	ip, {r0, r1, r2, r3}
  11:lvgl/examples/widgets/chart/lv_example_chart_3.c ****     }
 129              		.loc 1 11 9 is_stmt 1 view .LVU16
  11:lvgl/examples/widgets/chart/lv_example_chart_3.c ****     }
 130              		.loc 1 11 65 is_stmt 0 view .LVU17
 131 003c 236C     		ldr	r3, [r4, #64]
  11:lvgl/examples/widgets/chart/lv_example_chart_3.c ****     }
 132              		.loc 1 11 9 view .LVU18
 133 003e 0CAA     		add	r2, sp, #48
 134 0040 02EB8303 		add	r3, r2, r3, lsl #2
 135 0044 53F8303C 		ldr	r3, [r3, #-48]
 136 0048 044A     		ldr	r2, .L5+8
 137 004a 216B     		ldr	r1, [r4, #48]
 138 004c 3046     		mov	r0, r6
 139 004e FFF7FEFF 		bl	lv_snprintf
 140              	.LVL5:
 141 0052 E2E7     		b	.L1
 142              	.L6:
 143              		.align	2
 144              	.L5:
 145 0054 00000000 		.word	lv_chart_class
 146 0058 00000000 		.word	.LANCHOR0
 147 005c 00000000 		.word	.LC14
 148              	.LBE4:
ARM GAS  C:\Users\OSD\AppData\Local\Temp\ccR2olW5.s 			page 4


 149              		.cfi_endproc
 150              	.LFE204:
 152              		.section	.text.lv_example_chart_3,"ax",%progbits
 153              		.align	1
 154              		.global	lv_example_chart_3
 155              		.syntax unified
 156              		.thumb
 157              		.thumb_func
 159              	lv_example_chart_3:
 160              	.LFB205:
  14:lvgl/examples/widgets/chart/lv_example_chart_3.c **** 
  15:lvgl/examples/widgets/chart/lv_example_chart_3.c **** /**
  16:lvgl/examples/widgets/chart/lv_example_chart_3.c ****  * Add ticks and labels to the axis and demonstrate scrolling
  17:lvgl/examples/widgets/chart/lv_example_chart_3.c ****  */
  18:lvgl/examples/widgets/chart/lv_example_chart_3.c **** void lv_example_chart_3(void)
  19:lvgl/examples/widgets/chart/lv_example_chart_3.c **** {
 161              		.loc 1 19 1 is_stmt 1 view -0
 162              		.cfi_startproc
 163              		@ args = 0, pretend = 0, frame = 0
 164              		@ frame_needed = 0, uses_anonymous_args = 0
 165 0000 2DE9F041 		push	{r4, r5, r6, r7, r8, lr}
 166              		.cfi_def_cfa_offset 24
 167              		.cfi_offset 4, -24
 168              		.cfi_offset 5, -20
 169              		.cfi_offset 6, -16
 170              		.cfi_offset 7, -12
 171              		.cfi_offset 8, -8
 172              		.cfi_offset 14, -4
 173 0004 84B0     		sub	sp, sp, #16
 174              		.cfi_def_cfa_offset 40
  20:lvgl/examples/widgets/chart/lv_example_chart_3.c ****     /*Create a chart*/
  21:lvgl/examples/widgets/chart/lv_example_chart_3.c ****     lv_obj_t * chart;
 175              		.loc 1 21 5 view .LVU20
  22:lvgl/examples/widgets/chart/lv_example_chart_3.c ****     chart = lv_chart_create(lv_scr_act());
 176              		.loc 1 22 5 view .LVU21
 177              	.LBB9:
 178              	.LBI9:
 179              		.file 2 "d:\\kzc\\stm32\\h743ii_lcd\\lvgl\\src/core/lv_disp.h"
   1:d:\kzc\stm32\h743ii_lcd\lvgl\src/core\lv_disp.h **** /**
   2:d:\kzc\stm32\h743ii_lcd\lvgl\src/core\lv_disp.h ****  * @file lv_disp.h
   3:d:\kzc\stm32\h743ii_lcd\lvgl\src/core\lv_disp.h ****  *
   4:d:\kzc\stm32\h743ii_lcd\lvgl\src/core\lv_disp.h ****  */
   5:d:\kzc\stm32\h743ii_lcd\lvgl\src/core\lv_disp.h **** 
   6:d:\kzc\stm32\h743ii_lcd\lvgl\src/core\lv_disp.h **** #ifndef LV_DISP_H
   7:d:\kzc\stm32\h743ii_lcd\lvgl\src/core\lv_disp.h **** #define LV_DISP_H
   8:d:\kzc\stm32\h743ii_lcd\lvgl\src/core\lv_disp.h **** 
   9:d:\kzc\stm32\h743ii_lcd\lvgl\src/core\lv_disp.h **** #ifdef __cplusplus
  10:d:\kzc\stm32\h743ii_lcd\lvgl\src/core\lv_disp.h **** extern "C" {
  11:d:\kzc\stm32\h743ii_lcd\lvgl\src/core\lv_disp.h **** #endif
  12:d:\kzc\stm32\h743ii_lcd\lvgl\src/core\lv_disp.h **** 
  13:d:\kzc\stm32\h743ii_lcd\lvgl\src/core\lv_disp.h **** /*********************
  14:d:\kzc\stm32\h743ii_lcd\lvgl\src/core\lv_disp.h ****  *      INCLUDES
  15:d:\kzc\stm32\h743ii_lcd\lvgl\src/core\lv_disp.h ****  *********************/
  16:d:\kzc\stm32\h743ii_lcd\lvgl\src/core\lv_disp.h **** #include "../hal/lv_hal.h"
  17:d:\kzc\stm32\h743ii_lcd\lvgl\src/core\lv_disp.h **** #include "lv_obj.h"
  18:d:\kzc\stm32\h743ii_lcd\lvgl\src/core\lv_disp.h **** #include "lv_theme.h"
  19:d:\kzc\stm32\h743ii_lcd\lvgl\src/core\lv_disp.h **** 
ARM GAS  C:\Users\OSD\AppData\Local\Temp\ccR2olW5.s 			page 5


  20:d:\kzc\stm32\h743ii_lcd\lvgl\src/core\lv_disp.h **** /*********************
  21:d:\kzc\stm32\h743ii_lcd\lvgl\src/core\lv_disp.h ****  *      DEFINES
  22:d:\kzc\stm32\h743ii_lcd\lvgl\src/core\lv_disp.h ****  *********************/
  23:d:\kzc\stm32\h743ii_lcd\lvgl\src/core\lv_disp.h **** 
  24:d:\kzc\stm32\h743ii_lcd\lvgl\src/core\lv_disp.h **** /**********************
  25:d:\kzc\stm32\h743ii_lcd\lvgl\src/core\lv_disp.h ****  *      TYPEDEFS
  26:d:\kzc\stm32\h743ii_lcd\lvgl\src/core\lv_disp.h ****  **********************/
  27:d:\kzc\stm32\h743ii_lcd\lvgl\src/core\lv_disp.h **** 
  28:d:\kzc\stm32\h743ii_lcd\lvgl\src/core\lv_disp.h **** typedef enum {
  29:d:\kzc\stm32\h743ii_lcd\lvgl\src/core\lv_disp.h ****     LV_SCR_LOAD_ANIM_NONE,
  30:d:\kzc\stm32\h743ii_lcd\lvgl\src/core\lv_disp.h ****     LV_SCR_LOAD_ANIM_OVER_LEFT,
  31:d:\kzc\stm32\h743ii_lcd\lvgl\src/core\lv_disp.h ****     LV_SCR_LOAD_ANIM_OVER_RIGHT,
  32:d:\kzc\stm32\h743ii_lcd\lvgl\src/core\lv_disp.h ****     LV_SCR_LOAD_ANIM_OVER_TOP,
  33:d:\kzc\stm32\h743ii_lcd\lvgl\src/core\lv_disp.h ****     LV_SCR_LOAD_ANIM_OVER_BOTTOM,
  34:d:\kzc\stm32\h743ii_lcd\lvgl\src/core\lv_disp.h ****     LV_SCR_LOAD_ANIM_MOVE_LEFT,
  35:d:\kzc\stm32\h743ii_lcd\lvgl\src/core\lv_disp.h ****     LV_SCR_LOAD_ANIM_MOVE_RIGHT,
  36:d:\kzc\stm32\h743ii_lcd\lvgl\src/core\lv_disp.h ****     LV_SCR_LOAD_ANIM_MOVE_TOP,
  37:d:\kzc\stm32\h743ii_lcd\lvgl\src/core\lv_disp.h ****     LV_SCR_LOAD_ANIM_MOVE_BOTTOM,
  38:d:\kzc\stm32\h743ii_lcd\lvgl\src/core\lv_disp.h ****     LV_SCR_LOAD_ANIM_FADE_IN,
  39:d:\kzc\stm32\h743ii_lcd\lvgl\src/core\lv_disp.h ****     LV_SCR_LOAD_ANIM_FADE_ON = LV_SCR_LOAD_ANIM_FADE_IN, /*For backward compatibility*/
  40:d:\kzc\stm32\h743ii_lcd\lvgl\src/core\lv_disp.h ****     LV_SCR_LOAD_ANIM_FADE_OUT,
  41:d:\kzc\stm32\h743ii_lcd\lvgl\src/core\lv_disp.h ****     LV_SCR_LOAD_ANIM_OUT_LEFT,
  42:d:\kzc\stm32\h743ii_lcd\lvgl\src/core\lv_disp.h ****     LV_SCR_LOAD_ANIM_OUT_RIGHT,
  43:d:\kzc\stm32\h743ii_lcd\lvgl\src/core\lv_disp.h ****     LV_SCR_LOAD_ANIM_OUT_TOP,
  44:d:\kzc\stm32\h743ii_lcd\lvgl\src/core\lv_disp.h ****     LV_SCR_LOAD_ANIM_OUT_BOTTOM,
  45:d:\kzc\stm32\h743ii_lcd\lvgl\src/core\lv_disp.h **** } lv_scr_load_anim_t;
  46:d:\kzc\stm32\h743ii_lcd\lvgl\src/core\lv_disp.h **** 
  47:d:\kzc\stm32\h743ii_lcd\lvgl\src/core\lv_disp.h **** /**********************
  48:d:\kzc\stm32\h743ii_lcd\lvgl\src/core\lv_disp.h ****  * GLOBAL PROTOTYPES
  49:d:\kzc\stm32\h743ii_lcd\lvgl\src/core\lv_disp.h ****  **********************/
  50:d:\kzc\stm32\h743ii_lcd\lvgl\src/core\lv_disp.h **** 
  51:d:\kzc\stm32\h743ii_lcd\lvgl\src/core\lv_disp.h **** /**
  52:d:\kzc\stm32\h743ii_lcd\lvgl\src/core\lv_disp.h ****  * Return with a pointer to the active screen
  53:d:\kzc\stm32\h743ii_lcd\lvgl\src/core\lv_disp.h ****  * @param disp pointer to display which active screen should be get. (NULL to use the default
  54:d:\kzc\stm32\h743ii_lcd\lvgl\src/core\lv_disp.h ****  * screen)
  55:d:\kzc\stm32\h743ii_lcd\lvgl\src/core\lv_disp.h ****  * @return pointer to the active screen object (loaded by 'lv_scr_load()')
  56:d:\kzc\stm32\h743ii_lcd\lvgl\src/core\lv_disp.h ****  */
  57:d:\kzc\stm32\h743ii_lcd\lvgl\src/core\lv_disp.h **** lv_obj_t * lv_disp_get_scr_act(lv_disp_t * disp);
  58:d:\kzc\stm32\h743ii_lcd\lvgl\src/core\lv_disp.h **** 
  59:d:\kzc\stm32\h743ii_lcd\lvgl\src/core\lv_disp.h **** /**
  60:d:\kzc\stm32\h743ii_lcd\lvgl\src/core\lv_disp.h ****  * Return with a pointer to the previous screen. Only used during screen transitions.
  61:d:\kzc\stm32\h743ii_lcd\lvgl\src/core\lv_disp.h ****  * @param disp pointer to display which previous screen should be get. (NULL to use the default
  62:d:\kzc\stm32\h743ii_lcd\lvgl\src/core\lv_disp.h ****  * screen)
  63:d:\kzc\stm32\h743ii_lcd\lvgl\src/core\lv_disp.h ****  * @return pointer to the previous screen object or NULL if not used now
  64:d:\kzc\stm32\h743ii_lcd\lvgl\src/core\lv_disp.h ****  */
  65:d:\kzc\stm32\h743ii_lcd\lvgl\src/core\lv_disp.h **** lv_obj_t * lv_disp_get_scr_prev(lv_disp_t * disp);
  66:d:\kzc\stm32\h743ii_lcd\lvgl\src/core\lv_disp.h **** 
  67:d:\kzc\stm32\h743ii_lcd\lvgl\src/core\lv_disp.h **** /**
  68:d:\kzc\stm32\h743ii_lcd\lvgl\src/core\lv_disp.h ****  * Make a screen active
  69:d:\kzc\stm32\h743ii_lcd\lvgl\src/core\lv_disp.h ****  * @param scr pointer to a screen
  70:d:\kzc\stm32\h743ii_lcd\lvgl\src/core\lv_disp.h ****  */
  71:d:\kzc\stm32\h743ii_lcd\lvgl\src/core\lv_disp.h **** void lv_disp_load_scr(lv_obj_t * scr);
  72:d:\kzc\stm32\h743ii_lcd\lvgl\src/core\lv_disp.h **** 
  73:d:\kzc\stm32\h743ii_lcd\lvgl\src/core\lv_disp.h **** /**
  74:d:\kzc\stm32\h743ii_lcd\lvgl\src/core\lv_disp.h ****  * Return with the top layer. (Same on every screen and it is above the normal screen layer)
  75:d:\kzc\stm32\h743ii_lcd\lvgl\src/core\lv_disp.h ****  * @param disp pointer to display which top layer should be get. (NULL to use the default screen)
  76:d:\kzc\stm32\h743ii_lcd\lvgl\src/core\lv_disp.h ****  * @return pointer to the top layer object (transparent screen sized lv_obj)
ARM GAS  C:\Users\OSD\AppData\Local\Temp\ccR2olW5.s 			page 6


  77:d:\kzc\stm32\h743ii_lcd\lvgl\src/core\lv_disp.h ****  */
  78:d:\kzc\stm32\h743ii_lcd\lvgl\src/core\lv_disp.h **** lv_obj_t * lv_disp_get_layer_top(lv_disp_t * disp);
  79:d:\kzc\stm32\h743ii_lcd\lvgl\src/core\lv_disp.h **** 
  80:d:\kzc\stm32\h743ii_lcd\lvgl\src/core\lv_disp.h **** /**
  81:d:\kzc\stm32\h743ii_lcd\lvgl\src/core\lv_disp.h ****  * Return with the sys. layer. (Same on every screen and it is above the normal screen and the top
  82:d:\kzc\stm32\h743ii_lcd\lvgl\src/core\lv_disp.h ****  * layer)
  83:d:\kzc\stm32\h743ii_lcd\lvgl\src/core\lv_disp.h ****  * @param disp pointer to display which sys. layer should be retrieved. (NULL to use the default sc
  84:d:\kzc\stm32\h743ii_lcd\lvgl\src/core\lv_disp.h ****  * @return pointer to the sys layer object (transparent screen sized lv_obj)
  85:d:\kzc\stm32\h743ii_lcd\lvgl\src/core\lv_disp.h ****  */
  86:d:\kzc\stm32\h743ii_lcd\lvgl\src/core\lv_disp.h **** lv_obj_t * lv_disp_get_layer_sys(lv_disp_t * disp);
  87:d:\kzc\stm32\h743ii_lcd\lvgl\src/core\lv_disp.h **** 
  88:d:\kzc\stm32\h743ii_lcd\lvgl\src/core\lv_disp.h **** /**
  89:d:\kzc\stm32\h743ii_lcd\lvgl\src/core\lv_disp.h ****  * Set the theme of a display
  90:d:\kzc\stm32\h743ii_lcd\lvgl\src/core\lv_disp.h ****  * @param disp pointer to a display
  91:d:\kzc\stm32\h743ii_lcd\lvgl\src/core\lv_disp.h ****  */
  92:d:\kzc\stm32\h743ii_lcd\lvgl\src/core\lv_disp.h **** void lv_disp_set_theme(lv_disp_t * disp, lv_theme_t * th);
  93:d:\kzc\stm32\h743ii_lcd\lvgl\src/core\lv_disp.h **** 
  94:d:\kzc\stm32\h743ii_lcd\lvgl\src/core\lv_disp.h **** /**
  95:d:\kzc\stm32\h743ii_lcd\lvgl\src/core\lv_disp.h ****  * Get the theme of a display
  96:d:\kzc\stm32\h743ii_lcd\lvgl\src/core\lv_disp.h ****  * @param disp pointer to a display
  97:d:\kzc\stm32\h743ii_lcd\lvgl\src/core\lv_disp.h ****  * @return the display's theme (can be NULL)
  98:d:\kzc\stm32\h743ii_lcd\lvgl\src/core\lv_disp.h ****  */
  99:d:\kzc\stm32\h743ii_lcd\lvgl\src/core\lv_disp.h **** lv_theme_t * lv_disp_get_theme(lv_disp_t * disp);
 100:d:\kzc\stm32\h743ii_lcd\lvgl\src/core\lv_disp.h **** 
 101:d:\kzc\stm32\h743ii_lcd\lvgl\src/core\lv_disp.h **** /**
 102:d:\kzc\stm32\h743ii_lcd\lvgl\src/core\lv_disp.h ****  * Set the background color of a display
 103:d:\kzc\stm32\h743ii_lcd\lvgl\src/core\lv_disp.h ****  * @param disp pointer to a display
 104:d:\kzc\stm32\h743ii_lcd\lvgl\src/core\lv_disp.h ****  * @param color color of the background
 105:d:\kzc\stm32\h743ii_lcd\lvgl\src/core\lv_disp.h ****  */
 106:d:\kzc\stm32\h743ii_lcd\lvgl\src/core\lv_disp.h **** void lv_disp_set_bg_color(lv_disp_t * disp, lv_color_t color);
 107:d:\kzc\stm32\h743ii_lcd\lvgl\src/core\lv_disp.h **** 
 108:d:\kzc\stm32\h743ii_lcd\lvgl\src/core\lv_disp.h **** /**
 109:d:\kzc\stm32\h743ii_lcd\lvgl\src/core\lv_disp.h ****  * Set the background image of a display
 110:d:\kzc\stm32\h743ii_lcd\lvgl\src/core\lv_disp.h ****  * @param disp pointer to a display
 111:d:\kzc\stm32\h743ii_lcd\lvgl\src/core\lv_disp.h ****  * @param img_src path to file or pointer to an `lv_img_dsc_t` variable
 112:d:\kzc\stm32\h743ii_lcd\lvgl\src/core\lv_disp.h ****  */
 113:d:\kzc\stm32\h743ii_lcd\lvgl\src/core\lv_disp.h **** void lv_disp_set_bg_image(lv_disp_t * disp, const void  * img_src);
 114:d:\kzc\stm32\h743ii_lcd\lvgl\src/core\lv_disp.h **** 
 115:d:\kzc\stm32\h743ii_lcd\lvgl\src/core\lv_disp.h **** /**
 116:d:\kzc\stm32\h743ii_lcd\lvgl\src/core\lv_disp.h ****  * Set opacity of the background
 117:d:\kzc\stm32\h743ii_lcd\lvgl\src/core\lv_disp.h ****  * @param disp pointer to a display
 118:d:\kzc\stm32\h743ii_lcd\lvgl\src/core\lv_disp.h ****  * @param opa opacity (0..255)
 119:d:\kzc\stm32\h743ii_lcd\lvgl\src/core\lv_disp.h ****  */
 120:d:\kzc\stm32\h743ii_lcd\lvgl\src/core\lv_disp.h **** void lv_disp_set_bg_opa(lv_disp_t * disp, lv_opa_t opa);
 121:d:\kzc\stm32\h743ii_lcd\lvgl\src/core\lv_disp.h **** 
 122:d:\kzc\stm32\h743ii_lcd\lvgl\src/core\lv_disp.h **** /**
 123:d:\kzc\stm32\h743ii_lcd\lvgl\src/core\lv_disp.h ****  * Switch screen with animation
 124:d:\kzc\stm32\h743ii_lcd\lvgl\src/core\lv_disp.h ****  * @param scr pointer to the new screen to load
 125:d:\kzc\stm32\h743ii_lcd\lvgl\src/core\lv_disp.h ****  * @param anim_type type of the animation from `lv_scr_load_anim_t`, e.g. `LV_SCR_LOAD_ANIM_MOVE_LE
 126:d:\kzc\stm32\h743ii_lcd\lvgl\src/core\lv_disp.h ****  * @param time time of the animation
 127:d:\kzc\stm32\h743ii_lcd\lvgl\src/core\lv_disp.h ****  * @param delay delay before the transition
 128:d:\kzc\stm32\h743ii_lcd\lvgl\src/core\lv_disp.h ****  * @param auto_del true: automatically delete the old screen
 129:d:\kzc\stm32\h743ii_lcd\lvgl\src/core\lv_disp.h ****  */
 130:d:\kzc\stm32\h743ii_lcd\lvgl\src/core\lv_disp.h **** void lv_scr_load_anim(lv_obj_t * scr, lv_scr_load_anim_t anim_type, uint32_t time, uint32_t delay, 
 131:d:\kzc\stm32\h743ii_lcd\lvgl\src/core\lv_disp.h **** 
 132:d:\kzc\stm32\h743ii_lcd\lvgl\src/core\lv_disp.h **** /**
 133:d:\kzc\stm32\h743ii_lcd\lvgl\src/core\lv_disp.h ****  * Get elapsed time since last user activity on a display (e.g. click)
ARM GAS  C:\Users\OSD\AppData\Local\Temp\ccR2olW5.s 			page 7


 134:d:\kzc\stm32\h743ii_lcd\lvgl\src/core\lv_disp.h ****  * @param disp pointer to a display (NULL to get the overall smallest inactivity)
 135:d:\kzc\stm32\h743ii_lcd\lvgl\src/core\lv_disp.h ****  * @return elapsed ticks (milliseconds) since the last activity
 136:d:\kzc\stm32\h743ii_lcd\lvgl\src/core\lv_disp.h ****  */
 137:d:\kzc\stm32\h743ii_lcd\lvgl\src/core\lv_disp.h **** uint32_t lv_disp_get_inactive_time(const lv_disp_t * disp);
 138:d:\kzc\stm32\h743ii_lcd\lvgl\src/core\lv_disp.h **** 
 139:d:\kzc\stm32\h743ii_lcd\lvgl\src/core\lv_disp.h **** /**
 140:d:\kzc\stm32\h743ii_lcd\lvgl\src/core\lv_disp.h ****  * Manually trigger an activity on a display
 141:d:\kzc\stm32\h743ii_lcd\lvgl\src/core\lv_disp.h ****  * @param disp pointer to a display (NULL to use the default display)
 142:d:\kzc\stm32\h743ii_lcd\lvgl\src/core\lv_disp.h ****  */
 143:d:\kzc\stm32\h743ii_lcd\lvgl\src/core\lv_disp.h **** void lv_disp_trig_activity(lv_disp_t * disp);
 144:d:\kzc\stm32\h743ii_lcd\lvgl\src/core\lv_disp.h **** 
 145:d:\kzc\stm32\h743ii_lcd\lvgl\src/core\lv_disp.h **** /**
 146:d:\kzc\stm32\h743ii_lcd\lvgl\src/core\lv_disp.h ****  * Clean any CPU cache that is related to the display.
 147:d:\kzc\stm32\h743ii_lcd\lvgl\src/core\lv_disp.h ****  * @param disp pointer to a display (NULL to use the default display)
 148:d:\kzc\stm32\h743ii_lcd\lvgl\src/core\lv_disp.h ****  */
 149:d:\kzc\stm32\h743ii_lcd\lvgl\src/core\lv_disp.h **** void lv_disp_clean_dcache(lv_disp_t * disp);
 150:d:\kzc\stm32\h743ii_lcd\lvgl\src/core\lv_disp.h **** 
 151:d:\kzc\stm32\h743ii_lcd\lvgl\src/core\lv_disp.h **** /**
 152:d:\kzc\stm32\h743ii_lcd\lvgl\src/core\lv_disp.h ****  * Temporarily enable and disable the invalidation of the display.
 153:d:\kzc\stm32\h743ii_lcd\lvgl\src/core\lv_disp.h ****  * @param disp pointer to a display (NULL to use the default display)
 154:d:\kzc\stm32\h743ii_lcd\lvgl\src/core\lv_disp.h ****  * @param en true: enable invalidation; false: invalidation
 155:d:\kzc\stm32\h743ii_lcd\lvgl\src/core\lv_disp.h ****  */
 156:d:\kzc\stm32\h743ii_lcd\lvgl\src/core\lv_disp.h **** void lv_disp_enable_invalidation(lv_disp_t * disp, bool en);
 157:d:\kzc\stm32\h743ii_lcd\lvgl\src/core\lv_disp.h **** 
 158:d:\kzc\stm32\h743ii_lcd\lvgl\src/core\lv_disp.h **** /**
 159:d:\kzc\stm32\h743ii_lcd\lvgl\src/core\lv_disp.h ****  * Get display invalidation is enabled.
 160:d:\kzc\stm32\h743ii_lcd\lvgl\src/core\lv_disp.h ****  * @param disp pointer to a display (NULL to use the default display)
 161:d:\kzc\stm32\h743ii_lcd\lvgl\src/core\lv_disp.h ****  * @return return true if invalidation is enabled
 162:d:\kzc\stm32\h743ii_lcd\lvgl\src/core\lv_disp.h ****  */
 163:d:\kzc\stm32\h743ii_lcd\lvgl\src/core\lv_disp.h **** bool lv_disp_is_invalidation_enabled(lv_disp_t * disp);
 164:d:\kzc\stm32\h743ii_lcd\lvgl\src/core\lv_disp.h **** 
 165:d:\kzc\stm32\h743ii_lcd\lvgl\src/core\lv_disp.h **** /**
 166:d:\kzc\stm32\h743ii_lcd\lvgl\src/core\lv_disp.h ****  * Get a pointer to the screen refresher timer to
 167:d:\kzc\stm32\h743ii_lcd\lvgl\src/core\lv_disp.h ****  * modify its parameters with `lv_timer_...` functions.
 168:d:\kzc\stm32\h743ii_lcd\lvgl\src/core\lv_disp.h ****  * @param disp pointer to a display
 169:d:\kzc\stm32\h743ii_lcd\lvgl\src/core\lv_disp.h ****  * @return pointer to the display refresher timer. (NULL on error)
 170:d:\kzc\stm32\h743ii_lcd\lvgl\src/core\lv_disp.h ****  */
 171:d:\kzc\stm32\h743ii_lcd\lvgl\src/core\lv_disp.h **** lv_timer_t * _lv_disp_get_refr_timer(lv_disp_t * disp);
 172:d:\kzc\stm32\h743ii_lcd\lvgl\src/core\lv_disp.h **** 
 173:d:\kzc\stm32\h743ii_lcd\lvgl\src/core\lv_disp.h **** /*------------------------------------------------
 174:d:\kzc\stm32\h743ii_lcd\lvgl\src/core\lv_disp.h ****  * To improve backward compatibility
 175:d:\kzc\stm32\h743ii_lcd\lvgl\src/core\lv_disp.h ****  * Recommended only if you have one display
 176:d:\kzc\stm32\h743ii_lcd\lvgl\src/core\lv_disp.h ****  *------------------------------------------------*/
 177:d:\kzc\stm32\h743ii_lcd\lvgl\src/core\lv_disp.h **** 
 178:d:\kzc\stm32\h743ii_lcd\lvgl\src/core\lv_disp.h **** /**
 179:d:\kzc\stm32\h743ii_lcd\lvgl\src/core\lv_disp.h ****  * Get the active screen of the default display
 180:d:\kzc\stm32\h743ii_lcd\lvgl\src/core\lv_disp.h ****  * @return pointer to the active screen
 181:d:\kzc\stm32\h743ii_lcd\lvgl\src/core\lv_disp.h ****  */
 182:d:\kzc\stm32\h743ii_lcd\lvgl\src/core\lv_disp.h **** static inline lv_obj_t * lv_scr_act(void)
 180              		.loc 2 182 26 view .LVU22
 181              	.LBB10:
 183:d:\kzc\stm32\h743ii_lcd\lvgl\src/core\lv_disp.h **** {
 184:d:\kzc\stm32\h743ii_lcd\lvgl\src/core\lv_disp.h ****     return lv_disp_get_scr_act(lv_disp_get_default());
 182              		.loc 2 184 5 view .LVU23
 183              		.loc 2 184 12 is_stmt 0 view .LVU24
 184 0006 FFF7FEFF 		bl	lv_disp_get_default
 185              	.LVL6:
ARM GAS  C:\Users\OSD\AppData\Local\Temp\ccR2olW5.s 			page 8


 186 000a FFF7FEFF 		bl	lv_disp_get_scr_act
 187              	.LVL7:
 188              	.LBE10:
 189              	.LBE9:
 190              		.loc 1 22 13 view .LVU25
 191 000e FFF7FEFF 		bl	lv_chart_create
 192              	.LVL8:
 193 0012 0446     		mov	r4, r0
 194              	.LVL9:
  23:lvgl/examples/widgets/chart/lv_example_chart_3.c ****     lv_obj_set_size(chart, 200, 150);
 195              		.loc 1 23 5 is_stmt 1 view .LVU26
 196 0014 9622     		movs	r2, #150
 197 0016 C821     		movs	r1, #200
 198 0018 FFF7FEFF 		bl	lv_obj_set_size
 199              	.LVL10:
  24:lvgl/examples/widgets/chart/lv_example_chart_3.c ****     lv_obj_center(chart);
 200              		.loc 1 24 5 view .LVU27
 201              	.LBB11:
 202              	.LBI11:
 203              		.file 3 "d:\\kzc\\stm32\\h743ii_lcd\\lvgl\\src\\core\\lv_obj_pos.h"
   1:d:\kzc\stm32\h743ii_lcd\lvgl\src/core\lv_obj_pos.h **** /**
   2:d:\kzc\stm32\h743ii_lcd\lvgl\src/core\lv_obj_pos.h ****  * @file lv_obj_pos.h
   3:d:\kzc\stm32\h743ii_lcd\lvgl\src/core\lv_obj_pos.h ****  *
   4:d:\kzc\stm32\h743ii_lcd\lvgl\src/core\lv_obj_pos.h ****  */
   5:d:\kzc\stm32\h743ii_lcd\lvgl\src/core\lv_obj_pos.h **** 
   6:d:\kzc\stm32\h743ii_lcd\lvgl\src/core\lv_obj_pos.h **** #ifndef LV_OBJ_POS_H
   7:d:\kzc\stm32\h743ii_lcd\lvgl\src/core\lv_obj_pos.h **** #define LV_OBJ_POS_H
   8:d:\kzc\stm32\h743ii_lcd\lvgl\src/core\lv_obj_pos.h **** 
   9:d:\kzc\stm32\h743ii_lcd\lvgl\src/core\lv_obj_pos.h **** #ifdef __cplusplus
  10:d:\kzc\stm32\h743ii_lcd\lvgl\src/core\lv_obj_pos.h **** extern "C" {
  11:d:\kzc\stm32\h743ii_lcd\lvgl\src/core\lv_obj_pos.h **** #endif
  12:d:\kzc\stm32\h743ii_lcd\lvgl\src/core\lv_obj_pos.h **** 
  13:d:\kzc\stm32\h743ii_lcd\lvgl\src/core\lv_obj_pos.h **** /*********************
  14:d:\kzc\stm32\h743ii_lcd\lvgl\src/core\lv_obj_pos.h ****  *      INCLUDES
  15:d:\kzc\stm32\h743ii_lcd\lvgl\src/core\lv_obj_pos.h ****  *********************/
  16:d:\kzc\stm32\h743ii_lcd\lvgl\src/core\lv_obj_pos.h **** #include "../misc/lv_area.h"
  17:d:\kzc\stm32\h743ii_lcd\lvgl\src/core\lv_obj_pos.h **** 
  18:d:\kzc\stm32\h743ii_lcd\lvgl\src/core\lv_obj_pos.h **** /*********************
  19:d:\kzc\stm32\h743ii_lcd\lvgl\src/core\lv_obj_pos.h ****  *      DEFINES
  20:d:\kzc\stm32\h743ii_lcd\lvgl\src/core\lv_obj_pos.h ****  *********************/
  21:d:\kzc\stm32\h743ii_lcd\lvgl\src/core\lv_obj_pos.h **** 
  22:d:\kzc\stm32\h743ii_lcd\lvgl\src/core\lv_obj_pos.h **** /**********************
  23:d:\kzc\stm32\h743ii_lcd\lvgl\src/core\lv_obj_pos.h ****  *      TYPEDEFS
  24:d:\kzc\stm32\h743ii_lcd\lvgl\src/core\lv_obj_pos.h ****  **********************/
  25:d:\kzc\stm32\h743ii_lcd\lvgl\src/core\lv_obj_pos.h **** struct _lv_obj_t;
  26:d:\kzc\stm32\h743ii_lcd\lvgl\src/core\lv_obj_pos.h **** 
  27:d:\kzc\stm32\h743ii_lcd\lvgl\src/core\lv_obj_pos.h **** typedef void (*lv_layout_update_cb_t)(struct _lv_obj_t *, void * user_data);
  28:d:\kzc\stm32\h743ii_lcd\lvgl\src/core\lv_obj_pos.h **** typedef struct {
  29:d:\kzc\stm32\h743ii_lcd\lvgl\src/core\lv_obj_pos.h ****     lv_layout_update_cb_t cb;
  30:d:\kzc\stm32\h743ii_lcd\lvgl\src/core\lv_obj_pos.h ****     void * user_data;
  31:d:\kzc\stm32\h743ii_lcd\lvgl\src/core\lv_obj_pos.h **** } lv_layout_dsc_t;
  32:d:\kzc\stm32\h743ii_lcd\lvgl\src/core\lv_obj_pos.h **** 
  33:d:\kzc\stm32\h743ii_lcd\lvgl\src/core\lv_obj_pos.h **** /**********************
  34:d:\kzc\stm32\h743ii_lcd\lvgl\src/core\lv_obj_pos.h ****  * GLOBAL PROTOTYPES
  35:d:\kzc\stm32\h743ii_lcd\lvgl\src/core\lv_obj_pos.h ****  **********************/
  36:d:\kzc\stm32\h743ii_lcd\lvgl\src/core\lv_obj_pos.h **** 
  37:d:\kzc\stm32\h743ii_lcd\lvgl\src/core\lv_obj_pos.h **** /**
ARM GAS  C:\Users\OSD\AppData\Local\Temp\ccR2olW5.s 			page 9


  38:d:\kzc\stm32\h743ii_lcd\lvgl\src/core\lv_obj_pos.h ****  * Set the position of an object relative to the set alignment.
  39:d:\kzc\stm32\h743ii_lcd\lvgl\src/core\lv_obj_pos.h ****  * @param obj       pointer to an object
  40:d:\kzc\stm32\h743ii_lcd\lvgl\src/core\lv_obj_pos.h ****  * @param x         new x coordinate
  41:d:\kzc\stm32\h743ii_lcd\lvgl\src/core\lv_obj_pos.h ****  * @param y         new y coordinate
  42:d:\kzc\stm32\h743ii_lcd\lvgl\src/core\lv_obj_pos.h ****  * @note            With default alignment it's the distance from the top left corner
  43:d:\kzc\stm32\h743ii_lcd\lvgl\src/core\lv_obj_pos.h ****  * @note            E.g. LV_ALIGN_CENTER alignment it's the offset from the center of the parent
  44:d:\kzc\stm32\h743ii_lcd\lvgl\src/core\lv_obj_pos.h ****  * @note            The position is interpreted on the content area of the parent
  45:d:\kzc\stm32\h743ii_lcd\lvgl\src/core\lv_obj_pos.h ****  * @note            The values can be set in pixel or in percentage of parent size with `lv_pct(v)`
  46:d:\kzc\stm32\h743ii_lcd\lvgl\src/core\lv_obj_pos.h ****  */
  47:d:\kzc\stm32\h743ii_lcd\lvgl\src/core\lv_obj_pos.h **** void lv_obj_set_pos(struct _lv_obj_t * obj, lv_coord_t x, lv_coord_t y);
  48:d:\kzc\stm32\h743ii_lcd\lvgl\src/core\lv_obj_pos.h **** 
  49:d:\kzc\stm32\h743ii_lcd\lvgl\src/core\lv_obj_pos.h **** /**
  50:d:\kzc\stm32\h743ii_lcd\lvgl\src/core\lv_obj_pos.h ****  * Set the x coordinate of an object
  51:d:\kzc\stm32\h743ii_lcd\lvgl\src/core\lv_obj_pos.h ****  * @param obj       pointer to an object
  52:d:\kzc\stm32\h743ii_lcd\lvgl\src/core\lv_obj_pos.h ****  * @param x         new x coordinate
  53:d:\kzc\stm32\h743ii_lcd\lvgl\src/core\lv_obj_pos.h ****  * @note            With default alignment it's the distance from the top left corner
  54:d:\kzc\stm32\h743ii_lcd\lvgl\src/core\lv_obj_pos.h ****  * @note            E.g. LV_ALIGN_CENTER alignment it's the offset from the center of the parent
  55:d:\kzc\stm32\h743ii_lcd\lvgl\src/core\lv_obj_pos.h ****  * @note            The position is interpreted on the content area of the parent
  56:d:\kzc\stm32\h743ii_lcd\lvgl\src/core\lv_obj_pos.h ****  * @note            The values can be set in pixel or in percentage of parent size with `lv_pct(v)`
  57:d:\kzc\stm32\h743ii_lcd\lvgl\src/core\lv_obj_pos.h ****  */
  58:d:\kzc\stm32\h743ii_lcd\lvgl\src/core\lv_obj_pos.h **** void lv_obj_set_x(struct _lv_obj_t * obj, lv_coord_t x);
  59:d:\kzc\stm32\h743ii_lcd\lvgl\src/core\lv_obj_pos.h **** 
  60:d:\kzc\stm32\h743ii_lcd\lvgl\src/core\lv_obj_pos.h **** /**
  61:d:\kzc\stm32\h743ii_lcd\lvgl\src/core\lv_obj_pos.h ****  * Set the y coordinate of an object
  62:d:\kzc\stm32\h743ii_lcd\lvgl\src/core\lv_obj_pos.h ****  * @param obj       pointer to an object
  63:d:\kzc\stm32\h743ii_lcd\lvgl\src/core\lv_obj_pos.h ****  * @param y         new y coordinate
  64:d:\kzc\stm32\h743ii_lcd\lvgl\src/core\lv_obj_pos.h ****  * @note            With default alignment it's the distance from the top left corner
  65:d:\kzc\stm32\h743ii_lcd\lvgl\src/core\lv_obj_pos.h ****  * @note            E.g. LV_ALIGN_CENTER alignment it's the offset from the center of the parent
  66:d:\kzc\stm32\h743ii_lcd\lvgl\src/core\lv_obj_pos.h ****  * @note            The position is interpreted on the content area of the parent
  67:d:\kzc\stm32\h743ii_lcd\lvgl\src/core\lv_obj_pos.h ****  * @note            The values can be set in pixel or in percentage of parent size with `lv_pct(v)`
  68:d:\kzc\stm32\h743ii_lcd\lvgl\src/core\lv_obj_pos.h ****  */
  69:d:\kzc\stm32\h743ii_lcd\lvgl\src/core\lv_obj_pos.h **** void lv_obj_set_y(struct _lv_obj_t * obj, lv_coord_t y);
  70:d:\kzc\stm32\h743ii_lcd\lvgl\src/core\lv_obj_pos.h **** 
  71:d:\kzc\stm32\h743ii_lcd\lvgl\src/core\lv_obj_pos.h **** /**
  72:d:\kzc\stm32\h743ii_lcd\lvgl\src/core\lv_obj_pos.h ****  * Set the size of an object.
  73:d:\kzc\stm32\h743ii_lcd\lvgl\src/core\lv_obj_pos.h ****  * @param obj       pointer to an object
  74:d:\kzc\stm32\h743ii_lcd\lvgl\src/core\lv_obj_pos.h ****  * @param w         the new width
  75:d:\kzc\stm32\h743ii_lcd\lvgl\src/core\lv_obj_pos.h ****  * @param h         the new height
  76:d:\kzc\stm32\h743ii_lcd\lvgl\src/core\lv_obj_pos.h ****  * @note            possible values are:
  77:d:\kzc\stm32\h743ii_lcd\lvgl\src/core\lv_obj_pos.h ****  *                  pixel               simple set the size accordingly
  78:d:\kzc\stm32\h743ii_lcd\lvgl\src/core\lv_obj_pos.h ****  *                  LV_SIZE_CONTENT     set the size to involve all children in the given direction
  79:d:\kzc\stm32\h743ii_lcd\lvgl\src/core\lv_obj_pos.h ****  *                  LV_SIZE_PCT(x)     to set size in percentage of the parent's content area size 
  80:d:\kzc\stm32\h743ii_lcd\lvgl\src/core\lv_obj_pos.h ****  *                                      x should be in [0..1000]% range
  81:d:\kzc\stm32\h743ii_lcd\lvgl\src/core\lv_obj_pos.h ****  */
  82:d:\kzc\stm32\h743ii_lcd\lvgl\src/core\lv_obj_pos.h **** void lv_obj_set_size(struct _lv_obj_t * obj, lv_coord_t w, lv_coord_t h);
  83:d:\kzc\stm32\h743ii_lcd\lvgl\src/core\lv_obj_pos.h **** 
  84:d:\kzc\stm32\h743ii_lcd\lvgl\src/core\lv_obj_pos.h **** /**
  85:d:\kzc\stm32\h743ii_lcd\lvgl\src/core\lv_obj_pos.h ****  * Recalculate the size of the object
  86:d:\kzc\stm32\h743ii_lcd\lvgl\src/core\lv_obj_pos.h ****  * @param obj       pointer to an object
  87:d:\kzc\stm32\h743ii_lcd\lvgl\src/core\lv_obj_pos.h ****  * @return          true: the size has been changed
  88:d:\kzc\stm32\h743ii_lcd\lvgl\src/core\lv_obj_pos.h ****  */
  89:d:\kzc\stm32\h743ii_lcd\lvgl\src/core\lv_obj_pos.h **** bool lv_obj_refr_size(struct _lv_obj_t * obj);
  90:d:\kzc\stm32\h743ii_lcd\lvgl\src/core\lv_obj_pos.h **** 
  91:d:\kzc\stm32\h743ii_lcd\lvgl\src/core\lv_obj_pos.h **** /**
  92:d:\kzc\stm32\h743ii_lcd\lvgl\src/core\lv_obj_pos.h ****  * Set the width of an object
  93:d:\kzc\stm32\h743ii_lcd\lvgl\src/core\lv_obj_pos.h ****  * @param obj       pointer to an object
  94:d:\kzc\stm32\h743ii_lcd\lvgl\src/core\lv_obj_pos.h ****  * @param w         the new width
ARM GAS  C:\Users\OSD\AppData\Local\Temp\ccR2olW5.s 			page 10


  95:d:\kzc\stm32\h743ii_lcd\lvgl\src/core\lv_obj_pos.h ****  * @note            possible values are:
  96:d:\kzc\stm32\h743ii_lcd\lvgl\src/core\lv_obj_pos.h ****  *                  pixel               simple set the size accordingly
  97:d:\kzc\stm32\h743ii_lcd\lvgl\src/core\lv_obj_pos.h ****  *                  LV_SIZE_CONTENT     set the size to involve all children in the given direction
  98:d:\kzc\stm32\h743ii_lcd\lvgl\src/core\lv_obj_pos.h ****  *                  lv_pct(x)           to set size in percentage of the parent's content area size
  99:d:\kzc\stm32\h743ii_lcd\lvgl\src/core\lv_obj_pos.h ****  *                                      x should be in [0..1000]% range
 100:d:\kzc\stm32\h743ii_lcd\lvgl\src/core\lv_obj_pos.h ****  */
 101:d:\kzc\stm32\h743ii_lcd\lvgl\src/core\lv_obj_pos.h **** void lv_obj_set_width(struct _lv_obj_t * obj, lv_coord_t w);
 102:d:\kzc\stm32\h743ii_lcd\lvgl\src/core\lv_obj_pos.h **** 
 103:d:\kzc\stm32\h743ii_lcd\lvgl\src/core\lv_obj_pos.h **** /**
 104:d:\kzc\stm32\h743ii_lcd\lvgl\src/core\lv_obj_pos.h ****  * Set the height of an object
 105:d:\kzc\stm32\h743ii_lcd\lvgl\src/core\lv_obj_pos.h ****  * @param obj       pointer to an object
 106:d:\kzc\stm32\h743ii_lcd\lvgl\src/core\lv_obj_pos.h ****  * @param h         the new height
 107:d:\kzc\stm32\h743ii_lcd\lvgl\src/core\lv_obj_pos.h ****  * @note            possible values are:
 108:d:\kzc\stm32\h743ii_lcd\lvgl\src/core\lv_obj_pos.h ****  *                  pixel               simple set the size accordingly
 109:d:\kzc\stm32\h743ii_lcd\lvgl\src/core\lv_obj_pos.h ****  *                  LV_SIZE_CONTENT     set the size to involve all children in the given direction
 110:d:\kzc\stm32\h743ii_lcd\lvgl\src/core\lv_obj_pos.h ****  *                  lv_pct(x)           to set size in percentage of the parent's content area size
 111:d:\kzc\stm32\h743ii_lcd\lvgl\src/core\lv_obj_pos.h ****  *                                      x should be in [0..1000]% range
 112:d:\kzc\stm32\h743ii_lcd\lvgl\src/core\lv_obj_pos.h ****  */
 113:d:\kzc\stm32\h743ii_lcd\lvgl\src/core\lv_obj_pos.h **** void lv_obj_set_height(struct _lv_obj_t * obj, lv_coord_t h);
 114:d:\kzc\stm32\h743ii_lcd\lvgl\src/core\lv_obj_pos.h **** 
 115:d:\kzc\stm32\h743ii_lcd\lvgl\src/core\lv_obj_pos.h **** /**
 116:d:\kzc\stm32\h743ii_lcd\lvgl\src/core\lv_obj_pos.h ****  * Set the width reduced by the left and right padding and the border width.
 117:d:\kzc\stm32\h743ii_lcd\lvgl\src/core\lv_obj_pos.h ****  * @param obj       pointer to an object
 118:d:\kzc\stm32\h743ii_lcd\lvgl\src/core\lv_obj_pos.h ****  * @param w         the width without paddings in pixels
 119:d:\kzc\stm32\h743ii_lcd\lvgl\src/core\lv_obj_pos.h ****  */
 120:d:\kzc\stm32\h743ii_lcd\lvgl\src/core\lv_obj_pos.h **** void lv_obj_set_content_width(struct _lv_obj_t * obj, lv_coord_t w);
 121:d:\kzc\stm32\h743ii_lcd\lvgl\src/core\lv_obj_pos.h **** 
 122:d:\kzc\stm32\h743ii_lcd\lvgl\src/core\lv_obj_pos.h **** /**
 123:d:\kzc\stm32\h743ii_lcd\lvgl\src/core\lv_obj_pos.h ****  * Set the height reduced by the top and bottom padding and the border width.
 124:d:\kzc\stm32\h743ii_lcd\lvgl\src/core\lv_obj_pos.h ****  * @param obj       pointer to an object
 125:d:\kzc\stm32\h743ii_lcd\lvgl\src/core\lv_obj_pos.h ****  * @param h         the height without paddings in pixels
 126:d:\kzc\stm32\h743ii_lcd\lvgl\src/core\lv_obj_pos.h ****  */
 127:d:\kzc\stm32\h743ii_lcd\lvgl\src/core\lv_obj_pos.h **** void lv_obj_set_content_height(struct _lv_obj_t * obj, lv_coord_t h);
 128:d:\kzc\stm32\h743ii_lcd\lvgl\src/core\lv_obj_pos.h **** 
 129:d:\kzc\stm32\h743ii_lcd\lvgl\src/core\lv_obj_pos.h **** /**
 130:d:\kzc\stm32\h743ii_lcd\lvgl\src/core\lv_obj_pos.h ****  * Set a layout for an object
 131:d:\kzc\stm32\h743ii_lcd\lvgl\src/core\lv_obj_pos.h ****  * @param obj       pointer to an object
 132:d:\kzc\stm32\h743ii_lcd\lvgl\src/core\lv_obj_pos.h ****  * @param layout    pointer to a layout descriptor to set
 133:d:\kzc\stm32\h743ii_lcd\lvgl\src/core\lv_obj_pos.h ****  */
 134:d:\kzc\stm32\h743ii_lcd\lvgl\src/core\lv_obj_pos.h **** void lv_obj_set_layout(struct _lv_obj_t * obj, uint32_t layout);
 135:d:\kzc\stm32\h743ii_lcd\lvgl\src/core\lv_obj_pos.h **** 
 136:d:\kzc\stm32\h743ii_lcd\lvgl\src/core\lv_obj_pos.h **** /**
 137:d:\kzc\stm32\h743ii_lcd\lvgl\src/core\lv_obj_pos.h ****  * Test whether the and object is positioned by a layout or not
 138:d:\kzc\stm32\h743ii_lcd\lvgl\src/core\lv_obj_pos.h ****  * @param obj       pointer to an object to test
 139:d:\kzc\stm32\h743ii_lcd\lvgl\src/core\lv_obj_pos.h ****  * @return true:    positioned by a layout; false: not positioned by a layout
 140:d:\kzc\stm32\h743ii_lcd\lvgl\src/core\lv_obj_pos.h ****  */
 141:d:\kzc\stm32\h743ii_lcd\lvgl\src/core\lv_obj_pos.h **** bool lv_obj_is_layout_positioned(const struct _lv_obj_t * obj);
 142:d:\kzc\stm32\h743ii_lcd\lvgl\src/core\lv_obj_pos.h **** 
 143:d:\kzc\stm32\h743ii_lcd\lvgl\src/core\lv_obj_pos.h **** /**
 144:d:\kzc\stm32\h743ii_lcd\lvgl\src/core\lv_obj_pos.h ****  * Mark the object for layout update.
 145:d:\kzc\stm32\h743ii_lcd\lvgl\src/core\lv_obj_pos.h ****  * @param obj      pointer to an object whose children needs to be updated
 146:d:\kzc\stm32\h743ii_lcd\lvgl\src/core\lv_obj_pos.h ****  */
 147:d:\kzc\stm32\h743ii_lcd\lvgl\src/core\lv_obj_pos.h **** void lv_obj_mark_layout_as_dirty(struct _lv_obj_t * obj);
 148:d:\kzc\stm32\h743ii_lcd\lvgl\src/core\lv_obj_pos.h **** 
 149:d:\kzc\stm32\h743ii_lcd\lvgl\src/core\lv_obj_pos.h **** /**
 150:d:\kzc\stm32\h743ii_lcd\lvgl\src/core\lv_obj_pos.h ****  * Update the layout of an object.
 151:d:\kzc\stm32\h743ii_lcd\lvgl\src/core\lv_obj_pos.h ****  * @param obj      pointer to an object whose children needs to be updated
ARM GAS  C:\Users\OSD\AppData\Local\Temp\ccR2olW5.s 			page 11


 152:d:\kzc\stm32\h743ii_lcd\lvgl\src/core\lv_obj_pos.h ****  */
 153:d:\kzc\stm32\h743ii_lcd\lvgl\src/core\lv_obj_pos.h **** void lv_obj_update_layout(const struct _lv_obj_t * obj);
 154:d:\kzc\stm32\h743ii_lcd\lvgl\src/core\lv_obj_pos.h **** 
 155:d:\kzc\stm32\h743ii_lcd\lvgl\src/core\lv_obj_pos.h **** /**
 156:d:\kzc\stm32\h743ii_lcd\lvgl\src/core\lv_obj_pos.h ****  * Register a new layout
 157:d:\kzc\stm32\h743ii_lcd\lvgl\src/core\lv_obj_pos.h ****  * @param cb        the layout update callback
 158:d:\kzc\stm32\h743ii_lcd\lvgl\src/core\lv_obj_pos.h ****  * @param user_data custom data that will be passed to `cb`
 159:d:\kzc\stm32\h743ii_lcd\lvgl\src/core\lv_obj_pos.h ****  * @return          the ID of the new layout
 160:d:\kzc\stm32\h743ii_lcd\lvgl\src/core\lv_obj_pos.h ****  */
 161:d:\kzc\stm32\h743ii_lcd\lvgl\src/core\lv_obj_pos.h **** uint32_t lv_layout_register(lv_layout_update_cb_t cb, void * user_data);
 162:d:\kzc\stm32\h743ii_lcd\lvgl\src/core\lv_obj_pos.h **** 
 163:d:\kzc\stm32\h743ii_lcd\lvgl\src/core\lv_obj_pos.h **** /**
 164:d:\kzc\stm32\h743ii_lcd\lvgl\src/core\lv_obj_pos.h ****  * Change the alignment of an object.
 165:d:\kzc\stm32\h743ii_lcd\lvgl\src/core\lv_obj_pos.h ****  * @param obj       pointer to an object to align
 166:d:\kzc\stm32\h743ii_lcd\lvgl\src/core\lv_obj_pos.h ****  * @param align     type of alignment (see 'lv_align_t' enum) `LV_ALIGN_OUT_...` can't be used.
 167:d:\kzc\stm32\h743ii_lcd\lvgl\src/core\lv_obj_pos.h ****  */
 168:d:\kzc\stm32\h743ii_lcd\lvgl\src/core\lv_obj_pos.h **** void lv_obj_set_align(struct _lv_obj_t * obj, lv_align_t align);
 169:d:\kzc\stm32\h743ii_lcd\lvgl\src/core\lv_obj_pos.h **** 
 170:d:\kzc\stm32\h743ii_lcd\lvgl\src/core\lv_obj_pos.h **** /**
 171:d:\kzc\stm32\h743ii_lcd\lvgl\src/core\lv_obj_pos.h ****  * Change the alignment of an object and set new coordinates.
 172:d:\kzc\stm32\h743ii_lcd\lvgl\src/core\lv_obj_pos.h ****  * Equivalent to:
 173:d:\kzc\stm32\h743ii_lcd\lvgl\src/core\lv_obj_pos.h ****  * lv_obj_set_align(obj, align);
 174:d:\kzc\stm32\h743ii_lcd\lvgl\src/core\lv_obj_pos.h ****  * lv_obj_set_pos(obj, x_ofs, y_ofs);
 175:d:\kzc\stm32\h743ii_lcd\lvgl\src/core\lv_obj_pos.h ****  * @param obj       pointer to an object to align
 176:d:\kzc\stm32\h743ii_lcd\lvgl\src/core\lv_obj_pos.h ****  * @param align     type of alignment (see 'lv_align_t' enum) `LV_ALIGN_OUT_...` can't be used.
 177:d:\kzc\stm32\h743ii_lcd\lvgl\src/core\lv_obj_pos.h ****  * @param x_ofs     x coordinate offset after alignment
 178:d:\kzc\stm32\h743ii_lcd\lvgl\src/core\lv_obj_pos.h ****  * @param y_ofs     y coordinate offset after alignment
 179:d:\kzc\stm32\h743ii_lcd\lvgl\src/core\lv_obj_pos.h ****  */
 180:d:\kzc\stm32\h743ii_lcd\lvgl\src/core\lv_obj_pos.h **** void lv_obj_align(struct _lv_obj_t * obj, lv_align_t align, lv_coord_t x_ofs, lv_coord_t y_ofs);
 181:d:\kzc\stm32\h743ii_lcd\lvgl\src/core\lv_obj_pos.h **** 
 182:d:\kzc\stm32\h743ii_lcd\lvgl\src/core\lv_obj_pos.h **** /**
 183:d:\kzc\stm32\h743ii_lcd\lvgl\src/core\lv_obj_pos.h ****  * Align an object to an other object.
 184:d:\kzc\stm32\h743ii_lcd\lvgl\src/core\lv_obj_pos.h ****  * @param obj       pointer to an object to align
 185:d:\kzc\stm32\h743ii_lcd\lvgl\src/core\lv_obj_pos.h ****  * @param base      pointer to an other object (if NULL `obj`s parent is used). 'obj' will be align
 186:d:\kzc\stm32\h743ii_lcd\lvgl\src/core\lv_obj_pos.h ****  * @param align     type of alignment (see 'lv_align_t' enum)
 187:d:\kzc\stm32\h743ii_lcd\lvgl\src/core\lv_obj_pos.h ****  * @param x_ofs     x coordinate offset after alignment
 188:d:\kzc\stm32\h743ii_lcd\lvgl\src/core\lv_obj_pos.h ****  * @param y_ofs     y coordinate offset after alignment
 189:d:\kzc\stm32\h743ii_lcd\lvgl\src/core\lv_obj_pos.h ****  * @note            if the position or size of `base` changes `obj` needs to be aligned manually ag
 190:d:\kzc\stm32\h743ii_lcd\lvgl\src/core\lv_obj_pos.h ****  */
 191:d:\kzc\stm32\h743ii_lcd\lvgl\src/core\lv_obj_pos.h **** void lv_obj_align_to(struct _lv_obj_t * obj, const struct _lv_obj_t * base, lv_align_t align, lv_co
 192:d:\kzc\stm32\h743ii_lcd\lvgl\src/core\lv_obj_pos.h ****                      lv_coord_t y_ofs);
 193:d:\kzc\stm32\h743ii_lcd\lvgl\src/core\lv_obj_pos.h **** 
 194:d:\kzc\stm32\h743ii_lcd\lvgl\src/core\lv_obj_pos.h **** /**
 195:d:\kzc\stm32\h743ii_lcd\lvgl\src/core\lv_obj_pos.h ****  * Align an object to the center on its parent.
 196:d:\kzc\stm32\h743ii_lcd\lvgl\src/core\lv_obj_pos.h ****  * @param obj       pointer to an object to align
 197:d:\kzc\stm32\h743ii_lcd\lvgl\src/core\lv_obj_pos.h ****  * @note            if the parent size changes `obj` needs to be aligned manually again
 198:d:\kzc\stm32\h743ii_lcd\lvgl\src/core\lv_obj_pos.h ****  */
 199:d:\kzc\stm32\h743ii_lcd\lvgl\src/core\lv_obj_pos.h **** static inline void lv_obj_center(struct _lv_obj_t * obj)
 204              		.loc 3 199 20 view .LVU28
 205              	.LBB12:
 200:d:\kzc\stm32\h743ii_lcd\lvgl\src/core\lv_obj_pos.h **** {
 201:d:\kzc\stm32\h743ii_lcd\lvgl\src/core\lv_obj_pos.h ****     lv_obj_align(obj, LV_ALIGN_CENTER, 0, 0);
 206              		.loc 3 201 5 view .LVU29
 207 001c 0023     		movs	r3, #0
 208 001e 1A46     		mov	r2, r3
 209 0020 0921     		movs	r1, #9
 210 0022 2046     		mov	r0, r4
ARM GAS  C:\Users\OSD\AppData\Local\Temp\ccR2olW5.s 			page 12


 211 0024 FFF7FEFF 		bl	lv_obj_align
 212              	.LVL11:
 213              		.loc 3 201 5 is_stmt 0 view .LVU30
 214              	.LBE12:
 215              	.LBE11:
  25:lvgl/examples/widgets/chart/lv_example_chart_3.c ****     lv_chart_set_type(chart, LV_CHART_TYPE_BAR);
 216              		.loc 1 25 5 is_stmt 1 view .LVU31
 217 0028 0221     		movs	r1, #2
 218 002a 2046     		mov	r0, r4
 219 002c FFF7FEFF 		bl	lv_chart_set_type
 220              	.LVL12:
  26:lvgl/examples/widgets/chart/lv_example_chart_3.c ****     lv_chart_set_range(chart, LV_CHART_AXIS_PRIMARY_Y, 0, 100);
 221              		.loc 1 26 5 view .LVU32
 222 0030 6423     		movs	r3, #100
 223 0032 0022     		movs	r2, #0
 224 0034 1146     		mov	r1, r2
 225 0036 2046     		mov	r0, r4
 226 0038 FFF7FEFF 		bl	lv_chart_set_range
 227              	.LVL13:
  27:lvgl/examples/widgets/chart/lv_example_chart_3.c ****     lv_chart_set_range(chart, LV_CHART_AXIS_SECONDARY_Y, 0, 400);
 228              		.loc 1 27 5 view .LVU33
 229 003c 4FF4C873 		mov	r3, #400
 230 0040 0022     		movs	r2, #0
 231 0042 0121     		movs	r1, #1
 232 0044 2046     		mov	r0, r4
 233 0046 FFF7FEFF 		bl	lv_chart_set_range
 234              	.LVL14:
  28:lvgl/examples/widgets/chart/lv_example_chart_3.c ****     lv_chart_set_point_count(chart, 12);
 235              		.loc 1 28 5 view .LVU34
 236 004a 0C21     		movs	r1, #12
 237 004c 2046     		mov	r0, r4
 238 004e FFF7FEFF 		bl	lv_chart_set_point_count
 239              	.LVL15:
  29:lvgl/examples/widgets/chart/lv_example_chart_3.c ****     lv_obj_add_event_cb(chart, draw_event_cb, LV_EVENT_DRAW_PART_BEGIN, NULL);
 240              		.loc 1 29 5 view .LVU35
 241 0052 0023     		movs	r3, #0
 242 0054 1A22     		movs	r2, #26
 243 0056 5149     		ldr	r1, .L9
 244 0058 2046     		mov	r0, r4
 245 005a FFF7FEFF 		bl	lv_obj_add_event_cb
 246              	.LVL16:
  30:lvgl/examples/widgets/chart/lv_example_chart_3.c **** 
  31:lvgl/examples/widgets/chart/lv_example_chart_3.c ****     /*Add ticks and label to every axis*/
  32:lvgl/examples/widgets/chart/lv_example_chart_3.c ****     lv_chart_set_axis_tick(chart, LV_CHART_AXIS_PRIMARY_X, 10, 5, 12, 3, true, 40);
 247              		.loc 1 32 5 view .LVU36
 248 005e 2823     		movs	r3, #40
 249 0060 0393     		str	r3, [sp, #12]
 250 0062 0126     		movs	r6, #1
 251 0064 0296     		str	r6, [sp, #8]
 252 0066 0325     		movs	r5, #3
 253 0068 0195     		str	r5, [sp, #4]
 254 006a 0C23     		movs	r3, #12
 255 006c 0093     		str	r3, [sp]
 256 006e 0523     		movs	r3, #5
 257 0070 0A22     		movs	r2, #10
 258 0072 0221     		movs	r1, #2
 259 0074 2046     		mov	r0, r4
ARM GAS  C:\Users\OSD\AppData\Local\Temp\ccR2olW5.s 			page 13


 260 0076 FFF7FEFF 		bl	lv_chart_set_axis_tick
 261              	.LVL17:
  33:lvgl/examples/widgets/chart/lv_example_chart_3.c ****     lv_chart_set_axis_tick(chart, LV_CHART_AXIS_PRIMARY_Y, 10, 5, 6, 2, true, 50);
 262              		.loc 1 33 5 view .LVU37
 263 007a 4FF03208 		mov	r8, #50
 264 007e CDF80C80 		str	r8, [sp, #12]
 265 0082 0296     		str	r6, [sp, #8]
 266 0084 0227     		movs	r7, #2
 267 0086 0197     		str	r7, [sp, #4]
 268 0088 0623     		movs	r3, #6
 269 008a 0093     		str	r3, [sp]
 270 008c 0523     		movs	r3, #5
 271 008e 0A22     		movs	r2, #10
 272 0090 0021     		movs	r1, #0
 273 0092 2046     		mov	r0, r4
 274 0094 FFF7FEFF 		bl	lv_chart_set_axis_tick
 275              	.LVL18:
  34:lvgl/examples/widgets/chart/lv_example_chart_3.c ****     lv_chart_set_axis_tick(chart, LV_CHART_AXIS_SECONDARY_Y, 10, 5, 3, 4, true, 50);
 276              		.loc 1 34 5 view .LVU38
 277 0098 CDF80C80 		str	r8, [sp, #12]
 278 009c 0296     		str	r6, [sp, #8]
 279 009e 0423     		movs	r3, #4
 280 00a0 0193     		str	r3, [sp, #4]
 281 00a2 0095     		str	r5, [sp]
 282 00a4 0523     		movs	r3, #5
 283 00a6 0A22     		movs	r2, #10
 284 00a8 3146     		mov	r1, r6
 285 00aa 2046     		mov	r0, r4
 286 00ac FFF7FEFF 		bl	lv_chart_set_axis_tick
 287              	.LVL19:
  35:lvgl/examples/widgets/chart/lv_example_chart_3.c **** 
  36:lvgl/examples/widgets/chart/lv_example_chart_3.c ****     /*Zoom in a little in X*/
  37:lvgl/examples/widgets/chart/lv_example_chart_3.c ****     lv_chart_set_zoom_x(chart, 800);
 288              		.loc 1 37 5 view .LVU39
 289 00b0 4FF44871 		mov	r1, #800
 290 00b4 2046     		mov	r0, r4
 291 00b6 FFF7FEFF 		bl	lv_chart_set_zoom_x
 292              	.LVL20:
  38:lvgl/examples/widgets/chart/lv_example_chart_3.c **** 
  39:lvgl/examples/widgets/chart/lv_example_chart_3.c ****     /*Add two data series*/
  40:lvgl/examples/widgets/chart/lv_example_chart_3.c ****     lv_chart_series_t * ser1 = lv_chart_add_series(chart, lv_palette_lighten(LV_PALETTE_GREEN, 2), 
 293              		.loc 1 40 5 view .LVU40
 294              		.loc 1 40 32 is_stmt 0 view .LVU41
 295 00ba 3946     		mov	r1, r7
 296 00bc 0920     		movs	r0, #9
 297 00be FFF7FEFF 		bl	lv_palette_lighten
 298              	.LVL21:
 299 00c2 0146     		mov	r1, r0
 300 00c4 0022     		movs	r2, #0
 301 00c6 2046     		mov	r0, r4
 302 00c8 FFF7FEFF 		bl	lv_chart_add_series
 303              	.LVL22:
 304 00cc 0546     		mov	r5, r0
 305              	.LVL23:
  41:lvgl/examples/widgets/chart/lv_example_chart_3.c ****     lv_chart_series_t * ser2 = lv_chart_add_series(chart, lv_palette_darken(LV_PALETTE_GREEN, 2),
 306              		.loc 1 41 5 is_stmt 1 view .LVU42
 307              		.loc 1 41 32 is_stmt 0 view .LVU43
ARM GAS  C:\Users\OSD\AppData\Local\Temp\ccR2olW5.s 			page 14


 308 00ce 3946     		mov	r1, r7
 309 00d0 0920     		movs	r0, #9
 310              	.LVL24:
 311              		.loc 1 41 32 view .LVU44
 312 00d2 FFF7FEFF 		bl	lv_palette_darken
 313              	.LVL25:
 314 00d6 0146     		mov	r1, r0
 315 00d8 3246     		mov	r2, r6
 316 00da 2046     		mov	r0, r4
 317 00dc FFF7FEFF 		bl	lv_chart_add_series
 318              	.LVL26:
 319 00e0 0646     		mov	r6, r0
 320              	.LVL27:
  42:lvgl/examples/widgets/chart/lv_example_chart_3.c ****                                                    LV_CHART_AXIS_SECONDARY_Y);
  43:lvgl/examples/widgets/chart/lv_example_chart_3.c **** 
  44:lvgl/examples/widgets/chart/lv_example_chart_3.c ****     /*Set the next points on 'ser1'*/
  45:lvgl/examples/widgets/chart/lv_example_chart_3.c ****     lv_chart_set_next_value(chart, ser1, 31);
 321              		.loc 1 45 5 is_stmt 1 view .LVU45
 322 00e2 1F22     		movs	r2, #31
 323 00e4 2946     		mov	r1, r5
 324 00e6 2046     		mov	r0, r4
 325              	.LVL28:
 326              		.loc 1 45 5 is_stmt 0 view .LVU46
 327 00e8 FFF7FEFF 		bl	lv_chart_set_next_value
 328              	.LVL29:
  46:lvgl/examples/widgets/chart/lv_example_chart_3.c ****     lv_chart_set_next_value(chart, ser1, 66);
 329              		.loc 1 46 5 is_stmt 1 view .LVU47
 330 00ec 4222     		movs	r2, #66
 331 00ee 2946     		mov	r1, r5
 332 00f0 2046     		mov	r0, r4
 333 00f2 FFF7FEFF 		bl	lv_chart_set_next_value
 334              	.LVL30:
  47:lvgl/examples/widgets/chart/lv_example_chart_3.c ****     lv_chart_set_next_value(chart, ser1, 10);
 335              		.loc 1 47 5 view .LVU48
 336 00f6 0A22     		movs	r2, #10
 337 00f8 2946     		mov	r1, r5
 338 00fa 2046     		mov	r0, r4
 339 00fc FFF7FEFF 		bl	lv_chart_set_next_value
 340              	.LVL31:
  48:lvgl/examples/widgets/chart/lv_example_chart_3.c ****     lv_chart_set_next_value(chart, ser1, 89);
 341              		.loc 1 48 5 view .LVU49
 342 0100 5922     		movs	r2, #89
 343 0102 2946     		mov	r1, r5
 344 0104 2046     		mov	r0, r4
 345 0106 FFF7FEFF 		bl	lv_chart_set_next_value
 346              	.LVL32:
  49:lvgl/examples/widgets/chart/lv_example_chart_3.c ****     lv_chart_set_next_value(chart, ser1, 63);
 347              		.loc 1 49 5 view .LVU50
 348 010a 3F22     		movs	r2, #63
 349 010c 2946     		mov	r1, r5
 350 010e 2046     		mov	r0, r4
 351 0110 FFF7FEFF 		bl	lv_chart_set_next_value
 352              	.LVL33:
  50:lvgl/examples/widgets/chart/lv_example_chart_3.c ****     lv_chart_set_next_value(chart, ser1, 56);
 353              		.loc 1 50 5 view .LVU51
 354 0114 3822     		movs	r2, #56
 355 0116 2946     		mov	r1, r5
ARM GAS  C:\Users\OSD\AppData\Local\Temp\ccR2olW5.s 			page 15


 356 0118 2046     		mov	r0, r4
 357 011a FFF7FEFF 		bl	lv_chart_set_next_value
 358              	.LVL34:
  51:lvgl/examples/widgets/chart/lv_example_chart_3.c ****     lv_chart_set_next_value(chart, ser1, 32);
 359              		.loc 1 51 5 view .LVU52
 360 011e 2022     		movs	r2, #32
 361 0120 2946     		mov	r1, r5
 362 0122 2046     		mov	r0, r4
 363 0124 FFF7FEFF 		bl	lv_chart_set_next_value
 364              	.LVL35:
  52:lvgl/examples/widgets/chart/lv_example_chart_3.c ****     lv_chart_set_next_value(chart, ser1, 35);
 365              		.loc 1 52 5 view .LVU53
 366 0128 2322     		movs	r2, #35
 367 012a 2946     		mov	r1, r5
 368 012c 2046     		mov	r0, r4
 369 012e FFF7FEFF 		bl	lv_chart_set_next_value
 370              	.LVL36:
  53:lvgl/examples/widgets/chart/lv_example_chart_3.c ****     lv_chart_set_next_value(chart, ser1, 57);
 371              		.loc 1 53 5 view .LVU54
 372 0132 3922     		movs	r2, #57
 373 0134 2946     		mov	r1, r5
 374 0136 2046     		mov	r0, r4
 375 0138 FFF7FEFF 		bl	lv_chart_set_next_value
 376              	.LVL37:
  54:lvgl/examples/widgets/chart/lv_example_chart_3.c ****     lv_chart_set_next_value(chart, ser1, 85);
 377              		.loc 1 54 5 view .LVU55
 378 013c 5522     		movs	r2, #85
 379 013e 2946     		mov	r1, r5
 380 0140 2046     		mov	r0, r4
 381 0142 FFF7FEFF 		bl	lv_chart_set_next_value
 382              	.LVL38:
  55:lvgl/examples/widgets/chart/lv_example_chart_3.c ****     lv_chart_set_next_value(chart, ser1, 22);
 383              		.loc 1 55 5 view .LVU56
 384 0146 1622     		movs	r2, #22
 385 0148 2946     		mov	r1, r5
 386 014a 2046     		mov	r0, r4
 387 014c FFF7FEFF 		bl	lv_chart_set_next_value
 388              	.LVL39:
  56:lvgl/examples/widgets/chart/lv_example_chart_3.c ****     lv_chart_set_next_value(chart, ser1, 58);
 389              		.loc 1 56 5 view .LVU57
 390 0150 3A22     		movs	r2, #58
 391 0152 2946     		mov	r1, r5
 392 0154 2046     		mov	r0, r4
 393 0156 FFF7FEFF 		bl	lv_chart_set_next_value
 394              	.LVL40:
  57:lvgl/examples/widgets/chart/lv_example_chart_3.c **** 
  58:lvgl/examples/widgets/chart/lv_example_chart_3.c ****     lv_coord_t * ser2_array = lv_chart_get_y_array(chart, ser2);
 395              		.loc 1 58 5 view .LVU58
 396              		.loc 1 58 31 is_stmt 0 view .LVU59
 397 015a 3146     		mov	r1, r6
 398 015c 2046     		mov	r0, r4
 399 015e FFF7FEFF 		bl	lv_chart_get_y_array
 400              	.LVL41:
  59:lvgl/examples/widgets/chart/lv_example_chart_3.c ****     /*Directly set points on 'ser2'*/
  60:lvgl/examples/widgets/chart/lv_example_chart_3.c ****     ser2_array[0] = 92;
 401              		.loc 1 60 5 is_stmt 1 view .LVU60
 402              		.loc 1 60 19 is_stmt 0 view .LVU61
ARM GAS  C:\Users\OSD\AppData\Local\Temp\ccR2olW5.s 			page 16


 403 0162 5C23     		movs	r3, #92
 404 0164 0380     		strh	r3, [r0]	@ movhi
  61:lvgl/examples/widgets/chart/lv_example_chart_3.c ****     ser2_array[1] = 71;
 405              		.loc 1 61 5 is_stmt 1 view .LVU62
 406              		.loc 1 61 19 is_stmt 0 view .LVU63
 407 0166 4723     		movs	r3, #71
 408 0168 4380     		strh	r3, [r0, #2]	@ movhi
  62:lvgl/examples/widgets/chart/lv_example_chart_3.c ****     ser2_array[2] = 61;
 409              		.loc 1 62 5 is_stmt 1 view .LVU64
 410              		.loc 1 62 19 is_stmt 0 view .LVU65
 411 016a 3D23     		movs	r3, #61
 412 016c 8380     		strh	r3, [r0, #4]	@ movhi
  63:lvgl/examples/widgets/chart/lv_example_chart_3.c ****     ser2_array[3] = 15;
 413              		.loc 1 63 5 is_stmt 1 view .LVU66
 414              		.loc 1 63 19 is_stmt 0 view .LVU67
 415 016e 0F23     		movs	r3, #15
 416 0170 C380     		strh	r3, [r0, #6]	@ movhi
  64:lvgl/examples/widgets/chart/lv_example_chart_3.c ****     ser2_array[4] = 21;
 417              		.loc 1 64 5 is_stmt 1 view .LVU68
 418              		.loc 1 64 19 is_stmt 0 view .LVU69
 419 0172 1523     		movs	r3, #21
 420 0174 0381     		strh	r3, [r0, #8]	@ movhi
  65:lvgl/examples/widgets/chart/lv_example_chart_3.c ****     ser2_array[5] = 35;
 421              		.loc 1 65 5 is_stmt 1 view .LVU70
 422              		.loc 1 65 19 is_stmt 0 view .LVU71
 423 0176 2323     		movs	r3, #35
 424 0178 4381     		strh	r3, [r0, #10]	@ movhi
  66:lvgl/examples/widgets/chart/lv_example_chart_3.c ****     ser2_array[6] = 35;
 425              		.loc 1 66 5 is_stmt 1 view .LVU72
 426              		.loc 1 66 19 is_stmt 0 view .LVU73
 427 017a 8381     		strh	r3, [r0, #12]	@ movhi
  67:lvgl/examples/widgets/chart/lv_example_chart_3.c ****     ser2_array[7] = 58;
 428              		.loc 1 67 5 is_stmt 1 view .LVU74
 429              		.loc 1 67 19 is_stmt 0 view .LVU75
 430 017c 3A23     		movs	r3, #58
 431 017e C381     		strh	r3, [r0, #14]	@ movhi
  68:lvgl/examples/widgets/chart/lv_example_chart_3.c ****     ser2_array[8] = 31;
 432              		.loc 1 68 5 is_stmt 1 view .LVU76
 433              		.loc 1 68 19 is_stmt 0 view .LVU77
 434 0180 1F23     		movs	r3, #31
 435 0182 0382     		strh	r3, [r0, #16]	@ movhi
  69:lvgl/examples/widgets/chart/lv_example_chart_3.c ****     ser2_array[9] = 53;
 436              		.loc 1 69 5 is_stmt 1 view .LVU78
 437              		.loc 1 69 19 is_stmt 0 view .LVU79
 438 0184 3523     		movs	r3, #53
 439 0186 4382     		strh	r3, [r0, #18]	@ movhi
  70:lvgl/examples/widgets/chart/lv_example_chart_3.c ****     ser2_array[10] = 33;
 440              		.loc 1 70 5 is_stmt 1 view .LVU80
 441              		.loc 1 70 20 is_stmt 0 view .LVU81
 442 0188 2123     		movs	r3, #33
 443 018a 8382     		strh	r3, [r0, #20]	@ movhi
  71:lvgl/examples/widgets/chart/lv_example_chart_3.c ****     ser2_array[11] = 73;
 444              		.loc 1 71 5 is_stmt 1 view .LVU82
 445              		.loc 1 71 20 is_stmt 0 view .LVU83
 446 018c 4923     		movs	r3, #73
 447 018e C382     		strh	r3, [r0, #22]	@ movhi
  72:lvgl/examples/widgets/chart/lv_example_chart_3.c **** 
ARM GAS  C:\Users\OSD\AppData\Local\Temp\ccR2olW5.s 			page 17


  73:lvgl/examples/widgets/chart/lv_example_chart_3.c ****     lv_chart_refresh(chart); /*Required after direct set*/
 448              		.loc 1 73 5 is_stmt 1 view .LVU84
 449 0190 2046     		mov	r0, r4
 450              	.LVL42:
 451              		.loc 1 73 5 is_stmt 0 view .LVU85
 452 0192 FFF7FEFF 		bl	lv_chart_refresh
 453              	.LVL43:
  74:lvgl/examples/widgets/chart/lv_example_chart_3.c **** }
 454              		.loc 1 74 1 view .LVU86
 455 0196 04B0     		add	sp, sp, #16
 456              		.cfi_def_cfa_offset 24
 457              		@ sp needed
 458 0198 BDE8F081 		pop	{r4, r5, r6, r7, r8, pc}
 459              	.LVL44:
 460              	.L10:
 461              		.loc 1 74 1 view .LVU87
 462              		.align	2
 463              	.L9:
 464 019c 00000000 		.word	draw_event_cb
 465              		.cfi_endproc
 466              	.LFE205:
 468              		.section	.rodata
 469              		.align	2
 470              		.set	.LANCHOR0,. + 0
 471              	.LC13:
 472 0000 00000000 		.word	.LC0
 473 0004 04000000 		.word	.LC1
 474 0008 0C000000 		.word	.LC2
 475 000c 14000000 		.word	.LC3
 476 0010 18000000 		.word	.LC4
 477 0014 1C000000 		.word	.LC5
 478 0018 20000000 		.word	.LC6
 479 001c 28000000 		.word	.LC7
 480 0020 2C000000 		.word	.LC8
 481 0024 34000000 		.word	.LC9
 482 0028 38000000 		.word	.LC10
 483 002c 3C000000 		.word	.LC11
 484              		.text
 485              	.Letext0:
 486              		.file 4 "c:\\tools\\gcc-arm-none-eabi\\arm-none-eabi\\include\\machine\\_default_types.h"
 487              		.file 5 "c:\\tools\\gcc-arm-none-eabi\\arm-none-eabi\\include\\sys\\_stdint.h"
 488              		.file 6 "d:\\kzc\\stm32\\h743ii_lcd\\lvgl\\src/misc/lv_types.h"
 489              		.file 7 "c:\\tools\\gcc-arm-none-eabi\\lib\\gcc\\arm-none-eabi\\10.3.1\\include\\stddef.h"
 490              		.file 8 "d:\\kzc\\stm32\\h743ii_lcd\\lvgl\\src\\misc\\lv_area.h"
 491              		.file 9 "d:\\kzc\\stm32\\h743ii_lcd\\lvgl\\src\\font\\lv_font.h"
 492              		.file 10 "d:\\kzc\\stm32\\h743ii_lcd\\lvgl\\src\\misc\\lv_color.h"
 493              		.file 11 "d:\\kzc\\stm32\\h743ii_lcd\\lvgl\\src\\misc\\lv_txt.h"
 494              		.file 12 "d:\\kzc\\stm32\\h743ii_lcd\\lvgl\\src\\misc\\lv_bidi.h"
 495              		.file 13 "d:\\kzc\\stm32\\h743ii_lcd\\lvgl\\src\\misc\\lv_style.h"
 496              		.file 14 "d:\\kzc\\stm32\\h743ii_lcd\\lvgl\\src\\draw\\lv_img_buf.h"
 497              		.file 15 "d:\\kzc\\stm32\\h743ii_lcd\\lvgl\\src/core/lv_obj.h"
 498              		.file 16 "d:\\kzc\\stm32\\h743ii_lcd\\lvgl\\src\\draw\\lv_draw_rect.h"
 499              		.file 17 "d:\\kzc\\stm32\\h743ii_lcd\\lvgl\\src\\draw\\lv_draw_label.h"
 500              		.file 18 "d:\\kzc\\stm32\\h743ii_lcd\\lvgl\\src\\draw\\lv_draw_img.h"
 501              		.file 19 "d:\\kzc\\stm32\\h743ii_lcd\\lvgl\\src\\draw\\lv_draw_line.h"
 502              		.file 20 "d:\\kzc\\stm32\\h743ii_lcd\\lvgl\\src\\draw\\lv_draw_arc.h"
 503              		.file 21 "d:\\kzc\\stm32\\h743ii_lcd\\lvgl\\src\\draw\\lv_draw_layer.h"
ARM GAS  C:\Users\OSD\AppData\Local\Temp\ccR2olW5.s 			page 18


 504              		.file 22 "d:\\kzc\\stm32\\h743ii_lcd\\lvgl\\src\\draw\\lv_draw.h"
 505              		.file 23 "d:\\kzc\\stm32\\h743ii_lcd\\lvgl\\src\\misc\\lv_ll.h"
 506              		.file 24 "d:\\kzc\\stm32\\h743ii_lcd\\lvgl\\src/core/lv_group.h"
 507              		.file 25 "d:\\kzc\\stm32\\h743ii_lcd\\lvgl\\src/core/lv_obj_scroll.h"
 508              		.file 26 "d:\\kzc\\stm32\\h743ii_lcd\\lvgl\\src/core/lv_obj_style.h"
 509              		.file 27 "d:\\kzc\\stm32\\h743ii_lcd\\lvgl\\src/core/lv_obj_draw.h"
 510              		.file 28 "d:\\kzc\\stm32\\h743ii_lcd\\lvgl\\src/core/lv_obj_class.h"
 511              		.file 29 "d:\\kzc\\stm32\\h743ii_lcd\\lvgl\\src/core/lv_event.h"
 512              		.file 30 "d:\\kzc\\stm32\\h743ii_lcd\\lvgl\\src/extra/widgets/chart/lv_chart.h"
 513              		.file 31 "d:\\kzc\\stm32\\h743ii_lcd\\lvgl\\src/hal/lv_hal_disp.h"
 514              		.file 32 "d:\\kzc\\stm32\\h743ii_lcd\\lvgl\\src/misc/lv_printf.h"
ARM GAS  C:\Users\OSD\AppData\Local\Temp\ccR2olW5.s 			page 19

