ARM GAS  C:\Users\OSD\AppData\Local\Temp\cc7MtQgB.s 			page 1


   1              		.cpu cortex-m7
   2              		.arch armv7e-m
   3              		.fpu fpv5-d16
   4              		.eabi_attribute 28, 1
   5              		.eabi_attribute 20, 1
   6              		.eabi_attribute 21, 1
   7              		.eabi_attribute 23, 3
   8              		.eabi_attribute 24, 1
   9              		.eabi_attribute 25, 1
  10              		.eabi_attribute 26, 1
  11              		.eabi_attribute 30, 1
  12              		.eabi_attribute 34, 1
  13              		.eabi_attribute 18, 4
  14              		.file	"lv_example_anim_timeline_1.c"
  15              		.text
  16              	.Ltext0:
  17              		.cfi_sections	.debug_frame
  18              		.section	.text.anim_timeline_create,"ax",%progbits
  19              		.align	1
  20              		.syntax unified
  21              		.thumb
  22              		.thumb_func
  24              	anim_timeline_create:
  25              	.LFB206:
  26              		.file 1 "lvgl/examples/anim/lv_example_anim_timeline_1.c"
   1:lvgl/examples/anim/lv_example_anim_timeline_1.c **** #include "../lv_examples.h"
   2:lvgl/examples/anim/lv_example_anim_timeline_1.c **** #if LV_USE_FLEX && LV_BUILD_EXAMPLES
   3:lvgl/examples/anim/lv_example_anim_timeline_1.c **** 
   4:lvgl/examples/anim/lv_example_anim_timeline_1.c **** static lv_anim_timeline_t * anim_timeline = NULL;
   5:lvgl/examples/anim/lv_example_anim_timeline_1.c **** 
   6:lvgl/examples/anim/lv_example_anim_timeline_1.c **** static lv_obj_t * obj1 = NULL;
   7:lvgl/examples/anim/lv_example_anim_timeline_1.c **** static lv_obj_t * obj2 = NULL;
   8:lvgl/examples/anim/lv_example_anim_timeline_1.c **** static lv_obj_t * obj3 = NULL;
   9:lvgl/examples/anim/lv_example_anim_timeline_1.c **** 
  10:lvgl/examples/anim/lv_example_anim_timeline_1.c **** static const lv_coord_t obj_width = 90;
  11:lvgl/examples/anim/lv_example_anim_timeline_1.c **** static const lv_coord_t obj_height = 70;
  12:lvgl/examples/anim/lv_example_anim_timeline_1.c **** 
  13:lvgl/examples/anim/lv_example_anim_timeline_1.c **** static void set_width(void * var, int32_t v)
  14:lvgl/examples/anim/lv_example_anim_timeline_1.c **** {
  15:lvgl/examples/anim/lv_example_anim_timeline_1.c ****     lv_obj_set_width((lv_obj_t *)var, v);
  16:lvgl/examples/anim/lv_example_anim_timeline_1.c **** }
  17:lvgl/examples/anim/lv_example_anim_timeline_1.c **** 
  18:lvgl/examples/anim/lv_example_anim_timeline_1.c **** static void set_height(void * var, int32_t v)
  19:lvgl/examples/anim/lv_example_anim_timeline_1.c **** {
  20:lvgl/examples/anim/lv_example_anim_timeline_1.c ****     lv_obj_set_height((lv_obj_t *)var, v);
  21:lvgl/examples/anim/lv_example_anim_timeline_1.c **** }
  22:lvgl/examples/anim/lv_example_anim_timeline_1.c **** 
  23:lvgl/examples/anim/lv_example_anim_timeline_1.c **** static void anim_timeline_create(void)
  24:lvgl/examples/anim/lv_example_anim_timeline_1.c **** {
  27              		.loc 1 24 1 view -0
  28              		.cfi_startproc
  29              		@ args = 0, pretend = 0, frame = 408
  30              		@ frame_needed = 0, uses_anonymous_args = 0
  31 0000 2DE9F04F 		push	{r4, r5, r6, r7, r8, r9, r10, fp, lr}
  32              		.cfi_def_cfa_offset 36
  33              		.cfi_offset 4, -36
  34              		.cfi_offset 5, -32
ARM GAS  C:\Users\OSD\AppData\Local\Temp\cc7MtQgB.s 			page 2


  35              		.cfi_offset 6, -28
  36              		.cfi_offset 7, -24
  37              		.cfi_offset 8, -20
  38              		.cfi_offset 9, -16
  39              		.cfi_offset 10, -12
  40              		.cfi_offset 11, -8
  41              		.cfi_offset 14, -4
  42 0004 E7B0     		sub	sp, sp, #412
  43              		.cfi_def_cfa_offset 448
  25:lvgl/examples/anim/lv_example_anim_timeline_1.c ****     /* obj1 */
  26:lvgl/examples/anim/lv_example_anim_timeline_1.c ****     lv_anim_t a1;
  44              		.loc 1 26 5 view .LVU1
  27:lvgl/examples/anim/lv_example_anim_timeline_1.c ****     lv_anim_init(&a1);
  45              		.loc 1 27 5 view .LVU2
  46 0006 55A8     		add	r0, sp, #340
  47 0008 FFF7FEFF 		bl	lv_anim_init
  48              	.LVL0:
  28:lvgl/examples/anim/lv_example_anim_timeline_1.c ****     lv_anim_set_var(&a1, obj1);
  49              		.loc 1 28 5 view .LVU3
  50 000c 544E     		ldr	r6, .L3
  51 000e 3368     		ldr	r3, [r6]
  52              	.LVL1:
  53              	.LBB84:
  54              	.LBI84:
  55              		.file 2 "lvgl/examples/anim/../../src/misc/lv_anim.h"
   1:lvgl/examples/anim/../../src/misc/lv_anim.h **** /**
   2:lvgl/examples/anim/../../src/misc/lv_anim.h ****  * @file lv_anim.h
   3:lvgl/examples/anim/../../src/misc/lv_anim.h ****  *
   4:lvgl/examples/anim/../../src/misc/lv_anim.h ****  */
   5:lvgl/examples/anim/../../src/misc/lv_anim.h **** 
   6:lvgl/examples/anim/../../src/misc/lv_anim.h **** #ifndef LV_ANIM_H
   7:lvgl/examples/anim/../../src/misc/lv_anim.h **** #define LV_ANIM_H
   8:lvgl/examples/anim/../../src/misc/lv_anim.h **** 
   9:lvgl/examples/anim/../../src/misc/lv_anim.h **** #ifdef __cplusplus
  10:lvgl/examples/anim/../../src/misc/lv_anim.h **** extern "C" {
  11:lvgl/examples/anim/../../src/misc/lv_anim.h **** #endif
  12:lvgl/examples/anim/../../src/misc/lv_anim.h **** 
  13:lvgl/examples/anim/../../src/misc/lv_anim.h **** /*********************
  14:lvgl/examples/anim/../../src/misc/lv_anim.h ****  *      INCLUDES
  15:lvgl/examples/anim/../../src/misc/lv_anim.h ****  *********************/
  16:lvgl/examples/anim/../../src/misc/lv_anim.h **** #include "../lv_conf_internal.h"
  17:lvgl/examples/anim/../../src/misc/lv_anim.h **** 
  18:lvgl/examples/anim/../../src/misc/lv_anim.h **** #include <stdint.h>
  19:lvgl/examples/anim/../../src/misc/lv_anim.h **** #include <stdbool.h>
  20:lvgl/examples/anim/../../src/misc/lv_anim.h **** #include <stddef.h>
  21:lvgl/examples/anim/../../src/misc/lv_anim.h **** 
  22:lvgl/examples/anim/../../src/misc/lv_anim.h **** /*********************
  23:lvgl/examples/anim/../../src/misc/lv_anim.h ****  *      DEFINES
  24:lvgl/examples/anim/../../src/misc/lv_anim.h ****  *********************/
  25:lvgl/examples/anim/../../src/misc/lv_anim.h **** 
  26:lvgl/examples/anim/../../src/misc/lv_anim.h **** #define LV_ANIM_REPEAT_INFINITE      0xFFFF
  27:lvgl/examples/anim/../../src/misc/lv_anim.h **** #define LV_ANIM_PLAYTIME_INFINITE    0xFFFFFFFF
  28:lvgl/examples/anim/../../src/misc/lv_anim.h **** 
  29:lvgl/examples/anim/../../src/misc/lv_anim.h **** LV_EXPORT_CONST_INT(LV_ANIM_REPEAT_INFINITE);
  30:lvgl/examples/anim/../../src/misc/lv_anim.h **** LV_EXPORT_CONST_INT(LV_ANIM_PLAYTIME_INFINITE);
  31:lvgl/examples/anim/../../src/misc/lv_anim.h **** 
  32:lvgl/examples/anim/../../src/misc/lv_anim.h **** /**********************
ARM GAS  C:\Users\OSD\AppData\Local\Temp\cc7MtQgB.s 			page 3


  33:lvgl/examples/anim/../../src/misc/lv_anim.h ****  *      TYPEDEFS
  34:lvgl/examples/anim/../../src/misc/lv_anim.h ****  **********************/
  35:lvgl/examples/anim/../../src/misc/lv_anim.h **** 
  36:lvgl/examples/anim/../../src/misc/lv_anim.h **** /** Can be used to indicate if animations are enabled or disabled in a case*/
  37:lvgl/examples/anim/../../src/misc/lv_anim.h **** typedef enum {
  38:lvgl/examples/anim/../../src/misc/lv_anim.h ****     LV_ANIM_OFF,
  39:lvgl/examples/anim/../../src/misc/lv_anim.h ****     LV_ANIM_ON,
  40:lvgl/examples/anim/../../src/misc/lv_anim.h **** } lv_anim_enable_t;
  41:lvgl/examples/anim/../../src/misc/lv_anim.h **** 
  42:lvgl/examples/anim/../../src/misc/lv_anim.h **** struct _lv_anim_t;
  43:lvgl/examples/anim/../../src/misc/lv_anim.h **** struct _lv_timer_t;
  44:lvgl/examples/anim/../../src/misc/lv_anim.h **** 
  45:lvgl/examples/anim/../../src/misc/lv_anim.h **** /** Get the current value during an animation*/
  46:lvgl/examples/anim/../../src/misc/lv_anim.h **** typedef int32_t (*lv_anim_path_cb_t)(const struct _lv_anim_t *);
  47:lvgl/examples/anim/../../src/misc/lv_anim.h **** 
  48:lvgl/examples/anim/../../src/misc/lv_anim.h **** /** Generic prototype of "animator" functions.
  49:lvgl/examples/anim/../../src/misc/lv_anim.h ****  * First parameter is the variable to animate.
  50:lvgl/examples/anim/../../src/misc/lv_anim.h ****  * Second parameter is the value to set.
  51:lvgl/examples/anim/../../src/misc/lv_anim.h ****  * Compatible with `lv_xxx_set_yyy(obj, value)` functions
  52:lvgl/examples/anim/../../src/misc/lv_anim.h ****  * The `x` in `_xcb_t` means it's not a fully generic prototype because
  53:lvgl/examples/anim/../../src/misc/lv_anim.h ****  * it doesn't receive `lv_anim_t *` as its first argument*/
  54:lvgl/examples/anim/../../src/misc/lv_anim.h **** typedef void (*lv_anim_exec_xcb_t)(void *, int32_t);
  55:lvgl/examples/anim/../../src/misc/lv_anim.h **** 
  56:lvgl/examples/anim/../../src/misc/lv_anim.h **** /** Same as `lv_anim_exec_xcb_t` but receives `lv_anim_t *` as the first parameter.
  57:lvgl/examples/anim/../../src/misc/lv_anim.h ****  * It's more consistent but less convenient. Might be used by binding generator functions.*/
  58:lvgl/examples/anim/../../src/misc/lv_anim.h **** typedef void (*lv_anim_custom_exec_cb_t)(struct _lv_anim_t *, int32_t);
  59:lvgl/examples/anim/../../src/misc/lv_anim.h **** 
  60:lvgl/examples/anim/../../src/misc/lv_anim.h **** /** Callback to call when the animation is ready*/
  61:lvgl/examples/anim/../../src/misc/lv_anim.h **** typedef void (*lv_anim_ready_cb_t)(struct _lv_anim_t *);
  62:lvgl/examples/anim/../../src/misc/lv_anim.h **** 
  63:lvgl/examples/anim/../../src/misc/lv_anim.h **** /** Callback to call when the animation really stars (considering `delay`)*/
  64:lvgl/examples/anim/../../src/misc/lv_anim.h **** typedef void (*lv_anim_start_cb_t)(struct _lv_anim_t *);
  65:lvgl/examples/anim/../../src/misc/lv_anim.h **** 
  66:lvgl/examples/anim/../../src/misc/lv_anim.h **** /** Callback used when the animation values are relative to get the current value*/
  67:lvgl/examples/anim/../../src/misc/lv_anim.h **** typedef int32_t (*lv_anim_get_value_cb_t)(struct _lv_anim_t *);
  68:lvgl/examples/anim/../../src/misc/lv_anim.h **** 
  69:lvgl/examples/anim/../../src/misc/lv_anim.h **** /** Callback used when the animation is deleted*/
  70:lvgl/examples/anim/../../src/misc/lv_anim.h **** typedef void (*lv_anim_deleted_cb_t)(struct _lv_anim_t *);
  71:lvgl/examples/anim/../../src/misc/lv_anim.h **** 
  72:lvgl/examples/anim/../../src/misc/lv_anim.h **** /** Describes an animation*/
  73:lvgl/examples/anim/../../src/misc/lv_anim.h **** typedef struct _lv_anim_t {
  74:lvgl/examples/anim/../../src/misc/lv_anim.h ****     void * var;                          /**<Variable to animate*/
  75:lvgl/examples/anim/../../src/misc/lv_anim.h ****     lv_anim_exec_xcb_t exec_cb;          /**< Function to execute to animate*/
  76:lvgl/examples/anim/../../src/misc/lv_anim.h ****     lv_anim_start_cb_t start_cb;         /**< Call it when the animation is starts (considering `de
  77:lvgl/examples/anim/../../src/misc/lv_anim.h ****     lv_anim_ready_cb_t ready_cb;         /**< Call it when the animation is ready*/
  78:lvgl/examples/anim/../../src/misc/lv_anim.h ****     lv_anim_deleted_cb_t deleted_cb;     /**< Call it when the animation is deleted*/
  79:lvgl/examples/anim/../../src/misc/lv_anim.h ****     lv_anim_get_value_cb_t get_value_cb; /**< Get the current value in relative mode*/
  80:lvgl/examples/anim/../../src/misc/lv_anim.h **** #if LV_USE_USER_DATA
  81:lvgl/examples/anim/../../src/misc/lv_anim.h ****     void * user_data; /**< Custom user data*/
  82:lvgl/examples/anim/../../src/misc/lv_anim.h **** #endif
  83:lvgl/examples/anim/../../src/misc/lv_anim.h ****     lv_anim_path_cb_t path_cb;         /**< Describe the path (curve) of animations*/
  84:lvgl/examples/anim/../../src/misc/lv_anim.h ****     int32_t start_value;               /**< Start value*/
  85:lvgl/examples/anim/../../src/misc/lv_anim.h ****     int32_t current_value;             /**< Current value*/
  86:lvgl/examples/anim/../../src/misc/lv_anim.h ****     int32_t end_value;                 /**< End value*/
  87:lvgl/examples/anim/../../src/misc/lv_anim.h ****     int32_t time;                /**< Animation time in ms*/
  88:lvgl/examples/anim/../../src/misc/lv_anim.h ****     int32_t act_time;            /**< Current time in animation. Set to negative to make delay.*/
  89:lvgl/examples/anim/../../src/misc/lv_anim.h ****     uint32_t playback_delay;     /**< Wait before play back*/
ARM GAS  C:\Users\OSD\AppData\Local\Temp\cc7MtQgB.s 			page 4


  90:lvgl/examples/anim/../../src/misc/lv_anim.h ****     uint32_t playback_time;      /**< Duration of playback animation*/
  91:lvgl/examples/anim/../../src/misc/lv_anim.h ****     uint32_t repeat_delay;       /**< Wait before repeat*/
  92:lvgl/examples/anim/../../src/misc/lv_anim.h ****     uint16_t repeat_cnt;         /**< Repeat count for the animation*/
  93:lvgl/examples/anim/../../src/misc/lv_anim.h ****     uint8_t early_apply  : 1;    /**< 1: Apply start value immediately even is there is `delay`*/
  94:lvgl/examples/anim/../../src/misc/lv_anim.h **** 
  95:lvgl/examples/anim/../../src/misc/lv_anim.h ****     /*Animation system use these - user shouldn't set*/
  96:lvgl/examples/anim/../../src/misc/lv_anim.h ****     uint8_t playback_now : 1; /**< Play back is in progress*/
  97:lvgl/examples/anim/../../src/misc/lv_anim.h ****     uint8_t run_round : 1;    /**< Indicates the animation has run in this round*/
  98:lvgl/examples/anim/../../src/misc/lv_anim.h ****     uint8_t start_cb_called : 1;    /**< Indicates that the `start_cb` was already called*/
  99:lvgl/examples/anim/../../src/misc/lv_anim.h **** } lv_anim_t;
 100:lvgl/examples/anim/../../src/misc/lv_anim.h **** 
 101:lvgl/examples/anim/../../src/misc/lv_anim.h **** /**********************
 102:lvgl/examples/anim/../../src/misc/lv_anim.h ****  * GLOBAL PROTOTYPES
 103:lvgl/examples/anim/../../src/misc/lv_anim.h ****  **********************/
 104:lvgl/examples/anim/../../src/misc/lv_anim.h **** 
 105:lvgl/examples/anim/../../src/misc/lv_anim.h **** /**
 106:lvgl/examples/anim/../../src/misc/lv_anim.h ****  * Init. the animation module
 107:lvgl/examples/anim/../../src/misc/lv_anim.h ****  */
 108:lvgl/examples/anim/../../src/misc/lv_anim.h **** void _lv_anim_core_init(void);
 109:lvgl/examples/anim/../../src/misc/lv_anim.h **** 
 110:lvgl/examples/anim/../../src/misc/lv_anim.h **** /**
 111:lvgl/examples/anim/../../src/misc/lv_anim.h ****  * Initialize an animation variable.
 112:lvgl/examples/anim/../../src/misc/lv_anim.h ****  * E.g.:
 113:lvgl/examples/anim/../../src/misc/lv_anim.h ****  * lv_anim_t a;
 114:lvgl/examples/anim/../../src/misc/lv_anim.h ****  * lv_anim_init(&a);
 115:lvgl/examples/anim/../../src/misc/lv_anim.h ****  * lv_anim_set_...(&a);
 116:lvgl/examples/anim/../../src/misc/lv_anim.h ****  * lv_anim_start(&a);
 117:lvgl/examples/anim/../../src/misc/lv_anim.h ****  * @param a     pointer to an `lv_anim_t` variable to initialize
 118:lvgl/examples/anim/../../src/misc/lv_anim.h ****  */
 119:lvgl/examples/anim/../../src/misc/lv_anim.h **** void lv_anim_init(lv_anim_t * a);
 120:lvgl/examples/anim/../../src/misc/lv_anim.h **** 
 121:lvgl/examples/anim/../../src/misc/lv_anim.h **** /**
 122:lvgl/examples/anim/../../src/misc/lv_anim.h ****  * Set a variable to animate
 123:lvgl/examples/anim/../../src/misc/lv_anim.h ****  * @param a     pointer to an initialized `lv_anim_t` variable
 124:lvgl/examples/anim/../../src/misc/lv_anim.h ****  * @param var   pointer to a variable to animate
 125:lvgl/examples/anim/../../src/misc/lv_anim.h ****  */
 126:lvgl/examples/anim/../../src/misc/lv_anim.h **** static inline void lv_anim_set_var(lv_anim_t * a, void * var)
  56              		.loc 2 126 20 view .LVU4
  57              	.LBB85:
 127:lvgl/examples/anim/../../src/misc/lv_anim.h **** {
 128:lvgl/examples/anim/../../src/misc/lv_anim.h ****     a->var = var;
  58              		.loc 2 128 5 view .LVU5
  59              		.loc 2 128 12 is_stmt 0 view .LVU6
  60 0010 5593     		str	r3, [sp, #340]
  61              	.LVL2:
  62              		.loc 2 128 12 view .LVU7
  63              	.LBE85:
  64              	.LBE84:
  29:lvgl/examples/anim/lv_example_anim_timeline_1.c ****     lv_anim_set_values(&a1, 0, obj_width);
  65              		.loc 1 29 5 is_stmt 1 view .LVU8
  66              	.LBB86:
  67              	.LBI86:
 129:lvgl/examples/anim/../../src/misc/lv_anim.h **** }
 130:lvgl/examples/anim/../../src/misc/lv_anim.h **** 
 131:lvgl/examples/anim/../../src/misc/lv_anim.h **** /**
 132:lvgl/examples/anim/../../src/misc/lv_anim.h ****  * Set a function to animate `var`
 133:lvgl/examples/anim/../../src/misc/lv_anim.h ****  * @param a         pointer to an initialized `lv_anim_t` variable
ARM GAS  C:\Users\OSD\AppData\Local\Temp\cc7MtQgB.s 			page 5


 134:lvgl/examples/anim/../../src/misc/lv_anim.h ****  * @param exec_cb   a function to execute during animation
 135:lvgl/examples/anim/../../src/misc/lv_anim.h ****  *                  LVGL's built-in functions can be used.
 136:lvgl/examples/anim/../../src/misc/lv_anim.h ****  *                  E.g. lv_obj_set_x
 137:lvgl/examples/anim/../../src/misc/lv_anim.h ****  */
 138:lvgl/examples/anim/../../src/misc/lv_anim.h **** static inline void lv_anim_set_exec_cb(lv_anim_t * a, lv_anim_exec_xcb_t exec_cb)
 139:lvgl/examples/anim/../../src/misc/lv_anim.h **** {
 140:lvgl/examples/anim/../../src/misc/lv_anim.h ****     a->exec_cb = exec_cb;
 141:lvgl/examples/anim/../../src/misc/lv_anim.h **** }
 142:lvgl/examples/anim/../../src/misc/lv_anim.h **** 
 143:lvgl/examples/anim/../../src/misc/lv_anim.h **** /**
 144:lvgl/examples/anim/../../src/misc/lv_anim.h ****  * Set the duration of an animation
 145:lvgl/examples/anim/../../src/misc/lv_anim.h ****  * @param a         pointer to an initialized `lv_anim_t` variable
 146:lvgl/examples/anim/../../src/misc/lv_anim.h ****  * @param duration  duration of the animation in milliseconds
 147:lvgl/examples/anim/../../src/misc/lv_anim.h ****  */
 148:lvgl/examples/anim/../../src/misc/lv_anim.h **** static inline void lv_anim_set_time(lv_anim_t * a, uint32_t duration)
 149:lvgl/examples/anim/../../src/misc/lv_anim.h **** {
 150:lvgl/examples/anim/../../src/misc/lv_anim.h ****     a->time = duration;
 151:lvgl/examples/anim/../../src/misc/lv_anim.h **** }
 152:lvgl/examples/anim/../../src/misc/lv_anim.h **** 
 153:lvgl/examples/anim/../../src/misc/lv_anim.h **** /**
 154:lvgl/examples/anim/../../src/misc/lv_anim.h ****  * Set a delay before starting the animation
 155:lvgl/examples/anim/../../src/misc/lv_anim.h ****  * @param a         pointer to an initialized `lv_anim_t` variable
 156:lvgl/examples/anim/../../src/misc/lv_anim.h ****  * @param delay     delay before the animation in milliseconds
 157:lvgl/examples/anim/../../src/misc/lv_anim.h ****  */
 158:lvgl/examples/anim/../../src/misc/lv_anim.h **** static inline void lv_anim_set_delay(lv_anim_t * a, uint32_t delay)
 159:lvgl/examples/anim/../../src/misc/lv_anim.h **** {
 160:lvgl/examples/anim/../../src/misc/lv_anim.h ****     a->act_time = -(int32_t)(delay);
 161:lvgl/examples/anim/../../src/misc/lv_anim.h **** }
 162:lvgl/examples/anim/../../src/misc/lv_anim.h **** 
 163:lvgl/examples/anim/../../src/misc/lv_anim.h **** /**
 164:lvgl/examples/anim/../../src/misc/lv_anim.h ****  * Set the start and end values of an animation
 165:lvgl/examples/anim/../../src/misc/lv_anim.h ****  * @param a         pointer to an initialized `lv_anim_t` variable
 166:lvgl/examples/anim/../../src/misc/lv_anim.h ****  * @param start     the start value
 167:lvgl/examples/anim/../../src/misc/lv_anim.h ****  * @param end       the end value
 168:lvgl/examples/anim/../../src/misc/lv_anim.h ****  */
 169:lvgl/examples/anim/../../src/misc/lv_anim.h **** static inline void lv_anim_set_values(lv_anim_t * a, int32_t start, int32_t end)
  68              		.loc 2 169 20 view .LVU9
  69              	.LBB87:
 170:lvgl/examples/anim/../../src/misc/lv_anim.h **** {
 171:lvgl/examples/anim/../../src/misc/lv_anim.h ****     a->start_value = start;
  70              		.loc 2 171 5 view .LVU10
  71              		.loc 2 171 20 is_stmt 0 view .LVU11
  72 0012 0024     		movs	r4, #0
  73 0014 5D94     		str	r4, [sp, #372]
 172:lvgl/examples/anim/../../src/misc/lv_anim.h ****     a->current_value = start;
  74              		.loc 2 172 5 is_stmt 1 view .LVU12
  75              		.loc 2 172 22 is_stmt 0 view .LVU13
  76 0016 5E94     		str	r4, [sp, #376]
 173:lvgl/examples/anim/../../src/misc/lv_anim.h ****     a->end_value = end;
  77              		.loc 2 173 5 is_stmt 1 view .LVU14
  78              		.loc 2 173 18 is_stmt 0 view .LVU15
  79 0018 4FF05A0A 		mov	r10, #90
  80 001c CDF87CA1 		str	r10, [sp, #380]
  81              	.LVL3:
  82              		.loc 2 173 18 view .LVU16
  83              	.LBE87:
  84              	.LBE86:
ARM GAS  C:\Users\OSD\AppData\Local\Temp\cc7MtQgB.s 			page 6


  30:lvgl/examples/anim/lv_example_anim_timeline_1.c ****     lv_anim_set_early_apply(&a1, false);
  85              		.loc 1 30 5 is_stmt 1 view .LVU17
  86              	.LBB88:
  87              	.LBI88:
 174:lvgl/examples/anim/../../src/misc/lv_anim.h **** }
 175:lvgl/examples/anim/../../src/misc/lv_anim.h **** 
 176:lvgl/examples/anim/../../src/misc/lv_anim.h **** /**
 177:lvgl/examples/anim/../../src/misc/lv_anim.h ****  * Similar to `lv_anim_set_exec_cb` but `lv_anim_custom_exec_cb_t` receives
 178:lvgl/examples/anim/../../src/misc/lv_anim.h ****  * `lv_anim_t * ` as its first parameter instead of `void *`.
 179:lvgl/examples/anim/../../src/misc/lv_anim.h ****  * This function might be used when LVGL is bound to other languages because
 180:lvgl/examples/anim/../../src/misc/lv_anim.h ****  * it's more consistent to have `lv_anim_t *` as first parameter.
 181:lvgl/examples/anim/../../src/misc/lv_anim.h ****  * The variable to animate can be stored in the animation's `user_data`
 182:lvgl/examples/anim/../../src/misc/lv_anim.h ****  * @param a         pointer to an initialized `lv_anim_t` variable
 183:lvgl/examples/anim/../../src/misc/lv_anim.h ****  * @param exec_cb   a function to execute.
 184:lvgl/examples/anim/../../src/misc/lv_anim.h ****  */
 185:lvgl/examples/anim/../../src/misc/lv_anim.h **** static inline void lv_anim_set_custom_exec_cb(lv_anim_t * a, lv_anim_custom_exec_cb_t exec_cb)
 186:lvgl/examples/anim/../../src/misc/lv_anim.h **** {
 187:lvgl/examples/anim/../../src/misc/lv_anim.h ****     a->var     = a;
 188:lvgl/examples/anim/../../src/misc/lv_anim.h ****     a->exec_cb = (lv_anim_exec_xcb_t)exec_cb;
 189:lvgl/examples/anim/../../src/misc/lv_anim.h **** }
 190:lvgl/examples/anim/../../src/misc/lv_anim.h **** 
 191:lvgl/examples/anim/../../src/misc/lv_anim.h **** /**
 192:lvgl/examples/anim/../../src/misc/lv_anim.h ****  * Set the path (curve) of the animation.
 193:lvgl/examples/anim/../../src/misc/lv_anim.h ****  * @param a         pointer to an initialized `lv_anim_t` variable
 194:lvgl/examples/anim/../../src/misc/lv_anim.h ****  * @param path_cb a function to set the current value of the animation.
 195:lvgl/examples/anim/../../src/misc/lv_anim.h ****  */
 196:lvgl/examples/anim/../../src/misc/lv_anim.h **** static inline void lv_anim_set_path_cb(lv_anim_t * a, lv_anim_path_cb_t path_cb)
 197:lvgl/examples/anim/../../src/misc/lv_anim.h **** {
 198:lvgl/examples/anim/../../src/misc/lv_anim.h ****     a->path_cb = path_cb;
 199:lvgl/examples/anim/../../src/misc/lv_anim.h **** }
 200:lvgl/examples/anim/../../src/misc/lv_anim.h **** 
 201:lvgl/examples/anim/../../src/misc/lv_anim.h **** /**
 202:lvgl/examples/anim/../../src/misc/lv_anim.h ****  * Set a function call when the animation really starts (considering `delay`)
 203:lvgl/examples/anim/../../src/misc/lv_anim.h ****  * @param a         pointer to an initialized `lv_anim_t` variable
 204:lvgl/examples/anim/../../src/misc/lv_anim.h ****  * @param start_cb  a function call when the animation starts
 205:lvgl/examples/anim/../../src/misc/lv_anim.h ****  */
 206:lvgl/examples/anim/../../src/misc/lv_anim.h **** static inline void lv_anim_set_start_cb(lv_anim_t * a, lv_anim_start_cb_t start_cb)
 207:lvgl/examples/anim/../../src/misc/lv_anim.h **** {
 208:lvgl/examples/anim/../../src/misc/lv_anim.h ****     a->start_cb = start_cb;
 209:lvgl/examples/anim/../../src/misc/lv_anim.h **** }
 210:lvgl/examples/anim/../../src/misc/lv_anim.h **** 
 211:lvgl/examples/anim/../../src/misc/lv_anim.h **** /**
 212:lvgl/examples/anim/../../src/misc/lv_anim.h ****  * Set a function to use the current value of the variable and make start and end value
 213:lvgl/examples/anim/../../src/misc/lv_anim.h ****  * relative to the returned current value.
 214:lvgl/examples/anim/../../src/misc/lv_anim.h ****  * @param a             pointer to an initialized `lv_anim_t` variable
 215:lvgl/examples/anim/../../src/misc/lv_anim.h ****  * @param get_value_cb  a function call when the animation starts
 216:lvgl/examples/anim/../../src/misc/lv_anim.h ****  */
 217:lvgl/examples/anim/../../src/misc/lv_anim.h **** static inline void lv_anim_set_get_value_cb(lv_anim_t * a, lv_anim_get_value_cb_t get_value_cb)
 218:lvgl/examples/anim/../../src/misc/lv_anim.h **** {
 219:lvgl/examples/anim/../../src/misc/lv_anim.h ****     a->get_value_cb = get_value_cb;
 220:lvgl/examples/anim/../../src/misc/lv_anim.h **** }
 221:lvgl/examples/anim/../../src/misc/lv_anim.h **** 
 222:lvgl/examples/anim/../../src/misc/lv_anim.h **** /**
 223:lvgl/examples/anim/../../src/misc/lv_anim.h ****  * Set a function call when the animation is ready
 224:lvgl/examples/anim/../../src/misc/lv_anim.h ****  * @param a         pointer to an initialized `lv_anim_t` variable
 225:lvgl/examples/anim/../../src/misc/lv_anim.h ****  * @param ready_cb  a function call when the animation is ready
 226:lvgl/examples/anim/../../src/misc/lv_anim.h ****  */
ARM GAS  C:\Users\OSD\AppData\Local\Temp\cc7MtQgB.s 			page 7


 227:lvgl/examples/anim/../../src/misc/lv_anim.h **** static inline void lv_anim_set_ready_cb(lv_anim_t * a, lv_anim_ready_cb_t ready_cb)
 228:lvgl/examples/anim/../../src/misc/lv_anim.h **** {
 229:lvgl/examples/anim/../../src/misc/lv_anim.h ****     a->ready_cb = ready_cb;
 230:lvgl/examples/anim/../../src/misc/lv_anim.h **** }
 231:lvgl/examples/anim/../../src/misc/lv_anim.h **** 
 232:lvgl/examples/anim/../../src/misc/lv_anim.h **** /**
 233:lvgl/examples/anim/../../src/misc/lv_anim.h ****  * Set a function call when the animation is deleted.
 234:lvgl/examples/anim/../../src/misc/lv_anim.h ****  * @param a         pointer to an initialized `lv_anim_t` variable
 235:lvgl/examples/anim/../../src/misc/lv_anim.h ****  * @param deleted_cb  a function call when the animation is deleted
 236:lvgl/examples/anim/../../src/misc/lv_anim.h ****  */
 237:lvgl/examples/anim/../../src/misc/lv_anim.h **** static inline void lv_anim_set_deleted_cb(lv_anim_t * a, lv_anim_deleted_cb_t deleted_cb)
 238:lvgl/examples/anim/../../src/misc/lv_anim.h **** {
 239:lvgl/examples/anim/../../src/misc/lv_anim.h ****     a->deleted_cb = deleted_cb;
 240:lvgl/examples/anim/../../src/misc/lv_anim.h **** }
 241:lvgl/examples/anim/../../src/misc/lv_anim.h **** 
 242:lvgl/examples/anim/../../src/misc/lv_anim.h **** /**
 243:lvgl/examples/anim/../../src/misc/lv_anim.h ****  * Make the animation to play back to when the forward direction is ready
 244:lvgl/examples/anim/../../src/misc/lv_anim.h ****  * @param a         pointer to an initialized `lv_anim_t` variable
 245:lvgl/examples/anim/../../src/misc/lv_anim.h ****  * @param time      the duration of the playback animation in milliseconds. 0: disable playback
 246:lvgl/examples/anim/../../src/misc/lv_anim.h ****  */
 247:lvgl/examples/anim/../../src/misc/lv_anim.h **** static inline void lv_anim_set_playback_time(lv_anim_t * a, uint32_t time)
 248:lvgl/examples/anim/../../src/misc/lv_anim.h **** {
 249:lvgl/examples/anim/../../src/misc/lv_anim.h ****     a->playback_time = time;
 250:lvgl/examples/anim/../../src/misc/lv_anim.h **** }
 251:lvgl/examples/anim/../../src/misc/lv_anim.h **** 
 252:lvgl/examples/anim/../../src/misc/lv_anim.h **** /**
 253:lvgl/examples/anim/../../src/misc/lv_anim.h ****  * Make the animation to play back to when the forward direction is ready
 254:lvgl/examples/anim/../../src/misc/lv_anim.h ****  * @param a         pointer to an initialized `lv_anim_t` variable
 255:lvgl/examples/anim/../../src/misc/lv_anim.h ****  * @param delay     delay in milliseconds before starting the playback animation.
 256:lvgl/examples/anim/../../src/misc/lv_anim.h ****  */
 257:lvgl/examples/anim/../../src/misc/lv_anim.h **** static inline void lv_anim_set_playback_delay(lv_anim_t * a, uint32_t delay)
 258:lvgl/examples/anim/../../src/misc/lv_anim.h **** {
 259:lvgl/examples/anim/../../src/misc/lv_anim.h ****     a->playback_delay = delay;
 260:lvgl/examples/anim/../../src/misc/lv_anim.h **** }
 261:lvgl/examples/anim/../../src/misc/lv_anim.h **** 
 262:lvgl/examples/anim/../../src/misc/lv_anim.h **** /**
 263:lvgl/examples/anim/../../src/misc/lv_anim.h ****  * Make the animation repeat itself.
 264:lvgl/examples/anim/../../src/misc/lv_anim.h ****  * @param a         pointer to an initialized `lv_anim_t` variable
 265:lvgl/examples/anim/../../src/misc/lv_anim.h ****  * @param cnt       repeat count or `LV_ANIM_REPEAT_INFINITE` for infinite repetition. 0: to disabl
 266:lvgl/examples/anim/../../src/misc/lv_anim.h ****  */
 267:lvgl/examples/anim/../../src/misc/lv_anim.h **** static inline void lv_anim_set_repeat_count(lv_anim_t * a, uint16_t cnt)
 268:lvgl/examples/anim/../../src/misc/lv_anim.h **** {
 269:lvgl/examples/anim/../../src/misc/lv_anim.h ****     a->repeat_cnt = cnt;
 270:lvgl/examples/anim/../../src/misc/lv_anim.h **** }
 271:lvgl/examples/anim/../../src/misc/lv_anim.h **** 
 272:lvgl/examples/anim/../../src/misc/lv_anim.h **** /**
 273:lvgl/examples/anim/../../src/misc/lv_anim.h ****  * Set a delay before repeating the animation.
 274:lvgl/examples/anim/../../src/misc/lv_anim.h ****  * @param a         pointer to an initialized `lv_anim_t` variable
 275:lvgl/examples/anim/../../src/misc/lv_anim.h ****  * @param delay     delay in milliseconds before repeating the animation.
 276:lvgl/examples/anim/../../src/misc/lv_anim.h ****  */
 277:lvgl/examples/anim/../../src/misc/lv_anim.h **** static inline void lv_anim_set_repeat_delay(lv_anim_t * a, uint32_t delay)
 278:lvgl/examples/anim/../../src/misc/lv_anim.h **** {
 279:lvgl/examples/anim/../../src/misc/lv_anim.h ****     a->repeat_delay = delay;
 280:lvgl/examples/anim/../../src/misc/lv_anim.h **** }
 281:lvgl/examples/anim/../../src/misc/lv_anim.h **** 
 282:lvgl/examples/anim/../../src/misc/lv_anim.h **** /**
 283:lvgl/examples/anim/../../src/misc/lv_anim.h ****  * Set a whether the animation's should be applied immediately or only when the delay expired.
ARM GAS  C:\Users\OSD\AppData\Local\Temp\cc7MtQgB.s 			page 8


 284:lvgl/examples/anim/../../src/misc/lv_anim.h ****  * @param a         pointer to an initialized `lv_anim_t` variable
 285:lvgl/examples/anim/../../src/misc/lv_anim.h ****  * @param en        true: apply the start value immediately in `lv_anim_start`;
 286:lvgl/examples/anim/../../src/misc/lv_anim.h ****  *                  false: apply the start value only when `delay` ms is elapsed and the animations
 287:lvgl/examples/anim/../../src/misc/lv_anim.h ****  */
 288:lvgl/examples/anim/../../src/misc/lv_anim.h **** static inline void lv_anim_set_early_apply(lv_anim_t * a, bool en)
  88              		.loc 2 288 20 view .LVU18
  89              	.LBB89:
 289:lvgl/examples/anim/../../src/misc/lv_anim.h **** {
 290:lvgl/examples/anim/../../src/misc/lv_anim.h ****     a->early_apply = en;
  90              		.loc 2 290 5 view .LVU19
  91              		.loc 2 290 20 is_stmt 0 view .LVU20
  92 0020 9DF89631 		ldrb	r3, [sp, #406]	@ zero_extendqisi2
  93 0024 64F30003 		bfi	r3, r4, #0, #1
  94 0028 8DF89631 		strb	r3, [sp, #406]
  95              	.LVL4:
  96              		.loc 2 290 20 view .LVU21
  97              	.LBE89:
  98              	.LBE88:
  31:lvgl/examples/anim/lv_example_anim_timeline_1.c ****     lv_anim_set_exec_cb(&a1, (lv_anim_exec_xcb_t)set_width);
  99              		.loc 1 31 5 is_stmt 1 view .LVU22
 100              	.LBB90:
 101              	.LBI90:
 138:lvgl/examples/anim/../../src/misc/lv_anim.h **** {
 102              		.loc 2 138 20 view .LVU23
 103              	.LBB91:
 140:lvgl/examples/anim/../../src/misc/lv_anim.h **** }
 104              		.loc 2 140 5 view .LVU24
 140:lvgl/examples/anim/../../src/misc/lv_anim.h **** }
 105              		.loc 2 140 16 is_stmt 0 view .LVU25
 106 002c DFF84091 		ldr	r9, .L3+16
 107 0030 CDF85891 		str	r9, [sp, #344]
 108              	.LVL5:
 140:lvgl/examples/anim/../../src/misc/lv_anim.h **** }
 109              		.loc 2 140 16 view .LVU26
 110              	.LBE91:
 111              	.LBE90:
  32:lvgl/examples/anim/lv_example_anim_timeline_1.c ****     lv_anim_set_path_cb(&a1, lv_anim_path_overshoot);
 112              		.loc 1 32 5 is_stmt 1 view .LVU27
 113              	.LBB92:
 114              	.LBI92:
 196:lvgl/examples/anim/../../src/misc/lv_anim.h **** {
 115              		.loc 2 196 20 view .LVU28
 116              	.LBB93:
 198:lvgl/examples/anim/../../src/misc/lv_anim.h **** }
 117              		.loc 2 198 5 view .LVU29
 198:lvgl/examples/anim/../../src/misc/lv_anim.h **** }
 118              		.loc 2 198 16 is_stmt 0 view .LVU30
 119 0034 DFF83C81 		ldr	r8, .L3+20
 120 0038 CDF87081 		str	r8, [sp, #368]
 121              	.LVL6:
 198:lvgl/examples/anim/../../src/misc/lv_anim.h **** }
 122              		.loc 2 198 16 view .LVU31
 123              	.LBE93:
 124              	.LBE92:
  33:lvgl/examples/anim/lv_example_anim_timeline_1.c ****     lv_anim_set_time(&a1, 300);
 125              		.loc 1 33 5 is_stmt 1 view .LVU32
 126              	.LBB94:
ARM GAS  C:\Users\OSD\AppData\Local\Temp\cc7MtQgB.s 			page 9


 127              	.LBI94:
 148:lvgl/examples/anim/../../src/misc/lv_anim.h **** {
 128              		.loc 2 148 20 view .LVU33
 129              	.LBB95:
 150:lvgl/examples/anim/../../src/misc/lv_anim.h **** }
 130              		.loc 2 150 5 view .LVU34
 150:lvgl/examples/anim/../../src/misc/lv_anim.h **** }
 131              		.loc 2 150 13 is_stmt 0 view .LVU35
 132 003c 4FF49675 		mov	r5, #300
 133 0040 6095     		str	r5, [sp, #384]
 134              	.LVL7:
 150:lvgl/examples/anim/../../src/misc/lv_anim.h **** }
 135              		.loc 2 150 13 view .LVU36
 136              	.LBE95:
 137              	.LBE94:
  34:lvgl/examples/anim/lv_example_anim_timeline_1.c **** 
  35:lvgl/examples/anim/lv_example_anim_timeline_1.c ****     lv_anim_t a2;
 138              		.loc 1 35 5 is_stmt 1 view .LVU37
  36:lvgl/examples/anim/lv_example_anim_timeline_1.c ****     lv_anim_init(&a2);
 139              		.loc 1 36 5 view .LVU38
 140 0042 44A8     		add	r0, sp, #272
 141 0044 FFF7FEFF 		bl	lv_anim_init
 142              	.LVL8:
  37:lvgl/examples/anim/lv_example_anim_timeline_1.c ****     lv_anim_set_var(&a2, obj1);
 143              		.loc 1 37 5 view .LVU39
 144 0048 3368     		ldr	r3, [r6]
 145              	.LVL9:
 146              	.LBB96:
 147              	.LBI96:
 126:lvgl/examples/anim/../../src/misc/lv_anim.h **** {
 148              		.loc 2 126 20 view .LVU40
 149              	.LBB97:
 128:lvgl/examples/anim/../../src/misc/lv_anim.h **** }
 150              		.loc 2 128 5 view .LVU41
 128:lvgl/examples/anim/../../src/misc/lv_anim.h **** }
 151              		.loc 2 128 12 is_stmt 0 view .LVU42
 152 004a 4493     		str	r3, [sp, #272]
 153              	.LVL10:
 128:lvgl/examples/anim/../../src/misc/lv_anim.h **** }
 154              		.loc 2 128 12 view .LVU43
 155              	.LBE97:
 156              	.LBE96:
  38:lvgl/examples/anim/lv_example_anim_timeline_1.c ****     lv_anim_set_values(&a2, 0, obj_height);
 157              		.loc 1 38 5 is_stmt 1 view .LVU44
 158              	.LBB98:
 159              	.LBI98:
 169:lvgl/examples/anim/../../src/misc/lv_anim.h **** {
 160              		.loc 2 169 20 view .LVU45
 161              	.LBB99:
 171:lvgl/examples/anim/../../src/misc/lv_anim.h ****     a->current_value = start;
 162              		.loc 2 171 5 view .LVU46
 171:lvgl/examples/anim/../../src/misc/lv_anim.h ****     a->current_value = start;
 163              		.loc 2 171 20 is_stmt 0 view .LVU47
 164 004c 4C94     		str	r4, [sp, #304]
 172:lvgl/examples/anim/../../src/misc/lv_anim.h ****     a->end_value = end;
 165              		.loc 2 172 5 is_stmt 1 view .LVU48
 172:lvgl/examples/anim/../../src/misc/lv_anim.h ****     a->end_value = end;
ARM GAS  C:\Users\OSD\AppData\Local\Temp\cc7MtQgB.s 			page 10


 166              		.loc 2 172 22 is_stmt 0 view .LVU49
 167 004e 4D94     		str	r4, [sp, #308]
 173:lvgl/examples/anim/../../src/misc/lv_anim.h **** }
 168              		.loc 2 173 5 is_stmt 1 view .LVU50
 173:lvgl/examples/anim/../../src/misc/lv_anim.h **** }
 169              		.loc 2 173 18 is_stmt 0 view .LVU51
 170 0050 4627     		movs	r7, #70
 171 0052 4E97     		str	r7, [sp, #312]
 172              	.LVL11:
 173:lvgl/examples/anim/../../src/misc/lv_anim.h **** }
 173              		.loc 2 173 18 view .LVU52
 174              	.LBE99:
 175              	.LBE98:
  39:lvgl/examples/anim/lv_example_anim_timeline_1.c ****     lv_anim_set_early_apply(&a2, false);
 176              		.loc 1 39 5 is_stmt 1 view .LVU53
 177              	.LBB100:
 178              	.LBI100:
 288:lvgl/examples/anim/../../src/misc/lv_anim.h **** {
 179              		.loc 2 288 20 view .LVU54
 180              	.LBB101:
 181              		.loc 2 290 5 view .LVU55
 182              		.loc 2 290 20 is_stmt 0 view .LVU56
 183 0054 9DF85231 		ldrb	r3, [sp, #338]	@ zero_extendqisi2
 184 0058 64F30003 		bfi	r3, r4, #0, #1
 185 005c 8DF85231 		strb	r3, [sp, #338]
 186              	.LVL12:
 187              		.loc 2 290 20 view .LVU57
 188              	.LBE101:
 189              	.LBE100:
  40:lvgl/examples/anim/lv_example_anim_timeline_1.c ****     lv_anim_set_exec_cb(&a2, (lv_anim_exec_xcb_t)set_height);
 190              		.loc 1 40 5 is_stmt 1 view .LVU58
 191              	.LBB102:
 192              	.LBI102:
 138:lvgl/examples/anim/../../src/misc/lv_anim.h **** {
 193              		.loc 2 138 20 view .LVU59
 194              	.LBB103:
 140:lvgl/examples/anim/../../src/misc/lv_anim.h **** }
 195              		.loc 2 140 5 view .LVU60
 140:lvgl/examples/anim/../../src/misc/lv_anim.h **** }
 196              		.loc 2 140 16 is_stmt 0 view .LVU61
 197 0060 404E     		ldr	r6, .L3+4
 198 0062 4596     		str	r6, [sp, #276]
 199              	.LVL13:
 140:lvgl/examples/anim/../../src/misc/lv_anim.h **** }
 200              		.loc 2 140 16 view .LVU62
 201              	.LBE103:
 202              	.LBE102:
  41:lvgl/examples/anim/lv_example_anim_timeline_1.c ****     lv_anim_set_path_cb(&a2, lv_anim_path_ease_out);
 203              		.loc 1 41 5 is_stmt 1 view .LVU63
 204              	.LBB104:
 205              	.LBI104:
 196:lvgl/examples/anim/../../src/misc/lv_anim.h **** {
 206              		.loc 2 196 20 view .LVU64
 207              	.LBB105:
 198:lvgl/examples/anim/../../src/misc/lv_anim.h **** }
 208              		.loc 2 198 5 view .LVU65
 198:lvgl/examples/anim/../../src/misc/lv_anim.h **** }
ARM GAS  C:\Users\OSD\AppData\Local\Temp\cc7MtQgB.s 			page 11


 209              		.loc 2 198 16 is_stmt 0 view .LVU66
 210 0064 404B     		ldr	r3, .L3+8
 211 0066 4B93     		str	r3, [sp, #300]
 212              	.LVL14:
 198:lvgl/examples/anim/../../src/misc/lv_anim.h **** }
 213              		.loc 2 198 16 view .LVU67
 214              	.LBE105:
 215              	.LBE104:
  42:lvgl/examples/anim/lv_example_anim_timeline_1.c ****     lv_anim_set_time(&a2, 300);
 216              		.loc 1 42 5 is_stmt 1 view .LVU68
 217              	.LBB106:
 218              	.LBI106:
 148:lvgl/examples/anim/../../src/misc/lv_anim.h **** {
 219              		.loc 2 148 20 view .LVU69
 220              	.LBB107:
 150:lvgl/examples/anim/../../src/misc/lv_anim.h **** }
 221              		.loc 2 150 5 view .LVU70
 150:lvgl/examples/anim/../../src/misc/lv_anim.h **** }
 222              		.loc 2 150 13 is_stmt 0 view .LVU71
 223 0068 4F95     		str	r5, [sp, #316]
 224              	.LVL15:
 150:lvgl/examples/anim/../../src/misc/lv_anim.h **** }
 225              		.loc 2 150 13 view .LVU72
 226              	.LBE107:
 227              	.LBE106:
  43:lvgl/examples/anim/lv_example_anim_timeline_1.c **** 
  44:lvgl/examples/anim/lv_example_anim_timeline_1.c ****     /* obj2 */
  45:lvgl/examples/anim/lv_example_anim_timeline_1.c ****     lv_anim_t a3;
 228              		.loc 1 45 5 is_stmt 1 view .LVU73
  46:lvgl/examples/anim/lv_example_anim_timeline_1.c ****     lv_anim_init(&a3);
 229              		.loc 1 46 5 view .LVU74
 230 006a 33A8     		add	r0, sp, #204
 231 006c FFF7FEFF 		bl	lv_anim_init
 232              	.LVL16:
  47:lvgl/examples/anim/lv_example_anim_timeline_1.c ****     lv_anim_set_var(&a3, obj2);
 233              		.loc 1 47 5 view .LVU75
 234 0070 DFF804B1 		ldr	fp, .L3+24
 235 0074 DBF80030 		ldr	r3, [fp]
 236              	.LVL17:
 237              	.LBB108:
 238              	.LBI108:
 126:lvgl/examples/anim/../../src/misc/lv_anim.h **** {
 239              		.loc 2 126 20 view .LVU76
 240              	.LBB109:
 128:lvgl/examples/anim/../../src/misc/lv_anim.h **** }
 241              		.loc 2 128 5 view .LVU77
 128:lvgl/examples/anim/../../src/misc/lv_anim.h **** }
 242              		.loc 2 128 12 is_stmt 0 view .LVU78
 243 0078 3393     		str	r3, [sp, #204]
 244              	.LVL18:
 128:lvgl/examples/anim/../../src/misc/lv_anim.h **** }
 245              		.loc 2 128 12 view .LVU79
 246              	.LBE109:
 247              	.LBE108:
  48:lvgl/examples/anim/lv_example_anim_timeline_1.c ****     lv_anim_set_values(&a3, 0, obj_width);
 248              		.loc 1 48 5 is_stmt 1 view .LVU80
 249              	.LBB110:
ARM GAS  C:\Users\OSD\AppData\Local\Temp\cc7MtQgB.s 			page 12


 250              	.LBI110:
 169:lvgl/examples/anim/../../src/misc/lv_anim.h **** {
 251              		.loc 2 169 20 view .LVU81
 252              	.LBB111:
 171:lvgl/examples/anim/../../src/misc/lv_anim.h ****     a->current_value = start;
 253              		.loc 2 171 5 view .LVU82
 171:lvgl/examples/anim/../../src/misc/lv_anim.h ****     a->current_value = start;
 254              		.loc 2 171 20 is_stmt 0 view .LVU83
 255 007a 3B94     		str	r4, [sp, #236]
 172:lvgl/examples/anim/../../src/misc/lv_anim.h ****     a->end_value = end;
 256              		.loc 2 172 5 is_stmt 1 view .LVU84
 172:lvgl/examples/anim/../../src/misc/lv_anim.h ****     a->end_value = end;
 257              		.loc 2 172 22 is_stmt 0 view .LVU85
 258 007c 3C94     		str	r4, [sp, #240]
 173:lvgl/examples/anim/../../src/misc/lv_anim.h **** }
 259              		.loc 2 173 5 is_stmt 1 view .LVU86
 173:lvgl/examples/anim/../../src/misc/lv_anim.h **** }
 260              		.loc 2 173 18 is_stmt 0 view .LVU87
 261 007e CDF8F4A0 		str	r10, [sp, #244]
 262              	.LVL19:
 173:lvgl/examples/anim/../../src/misc/lv_anim.h **** }
 263              		.loc 2 173 18 view .LVU88
 264              	.LBE111:
 265              	.LBE110:
  49:lvgl/examples/anim/lv_example_anim_timeline_1.c ****     lv_anim_set_early_apply(&a3, false);
 266              		.loc 1 49 5 is_stmt 1 view .LVU89
 267              	.LBB112:
 268              	.LBI112:
 288:lvgl/examples/anim/../../src/misc/lv_anim.h **** {
 269              		.loc 2 288 20 view .LVU90
 270              	.LBB113:
 271              		.loc 2 290 5 view .LVU91
 272              		.loc 2 290 20 is_stmt 0 view .LVU92
 273 0082 9DF80E31 		ldrb	r3, [sp, #270]	@ zero_extendqisi2
 274 0086 64F30003 		bfi	r3, r4, #0, #1
 275 008a 8DF80E31 		strb	r3, [sp, #270]
 276              	.LVL20:
 277              		.loc 2 290 20 view .LVU93
 278              	.LBE113:
 279              	.LBE112:
  50:lvgl/examples/anim/lv_example_anim_timeline_1.c ****     lv_anim_set_exec_cb(&a3, (lv_anim_exec_xcb_t)set_width);
 280              		.loc 1 50 5 is_stmt 1 view .LVU94
 281              	.LBB114:
 282              	.LBI114:
 138:lvgl/examples/anim/../../src/misc/lv_anim.h **** {
 283              		.loc 2 138 20 view .LVU95
 284              	.LBB115:
 140:lvgl/examples/anim/../../src/misc/lv_anim.h **** }
 285              		.loc 2 140 5 view .LVU96
 140:lvgl/examples/anim/../../src/misc/lv_anim.h **** }
 286              		.loc 2 140 16 is_stmt 0 view .LVU97
 287 008e CDF8D090 		str	r9, [sp, #208]
 288              	.LVL21:
 140:lvgl/examples/anim/../../src/misc/lv_anim.h **** }
 289              		.loc 2 140 16 view .LVU98
 290              	.LBE115:
 291              	.LBE114:
ARM GAS  C:\Users\OSD\AppData\Local\Temp\cc7MtQgB.s 			page 13


  51:lvgl/examples/anim/lv_example_anim_timeline_1.c ****     lv_anim_set_path_cb(&a3, lv_anim_path_overshoot);
 292              		.loc 1 51 5 is_stmt 1 view .LVU99
 293              	.LBB116:
 294              	.LBI116:
 196:lvgl/examples/anim/../../src/misc/lv_anim.h **** {
 295              		.loc 2 196 20 view .LVU100
 296              	.LBB117:
 198:lvgl/examples/anim/../../src/misc/lv_anim.h **** }
 297              		.loc 2 198 5 view .LVU101
 198:lvgl/examples/anim/../../src/misc/lv_anim.h **** }
 298              		.loc 2 198 16 is_stmt 0 view .LVU102
 299 0092 CDF8E880 		str	r8, [sp, #232]
 300              	.LVL22:
 198:lvgl/examples/anim/../../src/misc/lv_anim.h **** }
 301              		.loc 2 198 16 view .LVU103
 302              	.LBE117:
 303              	.LBE116:
  52:lvgl/examples/anim/lv_example_anim_timeline_1.c ****     lv_anim_set_time(&a3, 300);
 304              		.loc 1 52 5 is_stmt 1 view .LVU104
 305              	.LBB118:
 306              	.LBI118:
 148:lvgl/examples/anim/../../src/misc/lv_anim.h **** {
 307              		.loc 2 148 20 view .LVU105
 308              	.LBB119:
 150:lvgl/examples/anim/../../src/misc/lv_anim.h **** }
 309              		.loc 2 150 5 view .LVU106
 150:lvgl/examples/anim/../../src/misc/lv_anim.h **** }
 310              		.loc 2 150 13 is_stmt 0 view .LVU107
 311 0096 3E95     		str	r5, [sp, #248]
 312              	.LVL23:
 150:lvgl/examples/anim/../../src/misc/lv_anim.h **** }
 313              		.loc 2 150 13 view .LVU108
 314              	.LBE119:
 315              	.LBE118:
  53:lvgl/examples/anim/lv_example_anim_timeline_1.c **** 
  54:lvgl/examples/anim/lv_example_anim_timeline_1.c ****     lv_anim_t a4;
 316              		.loc 1 54 5 is_stmt 1 view .LVU109
  55:lvgl/examples/anim/lv_example_anim_timeline_1.c ****     lv_anim_init(&a4);
 317              		.loc 1 55 5 view .LVU110
 318 0098 22A8     		add	r0, sp, #136
 319 009a FFF7FEFF 		bl	lv_anim_init
 320              	.LVL24:
  56:lvgl/examples/anim/lv_example_anim_timeline_1.c ****     lv_anim_set_var(&a4, obj2);
 321              		.loc 1 56 5 view .LVU111
 322 009e DBF80030 		ldr	r3, [fp]
 323              	.LVL25:
 324              	.LBB120:
 325              	.LBI120:
 126:lvgl/examples/anim/../../src/misc/lv_anim.h **** {
 326              		.loc 2 126 20 view .LVU112
 327              	.LBB121:
 128:lvgl/examples/anim/../../src/misc/lv_anim.h **** }
 328              		.loc 2 128 5 view .LVU113
 128:lvgl/examples/anim/../../src/misc/lv_anim.h **** }
 329              		.loc 2 128 12 is_stmt 0 view .LVU114
 330 00a2 2293     		str	r3, [sp, #136]
 331              	.LVL26:
ARM GAS  C:\Users\OSD\AppData\Local\Temp\cc7MtQgB.s 			page 14


 128:lvgl/examples/anim/../../src/misc/lv_anim.h **** }
 332              		.loc 2 128 12 view .LVU115
 333              	.LBE121:
 334              	.LBE120:
  57:lvgl/examples/anim/lv_example_anim_timeline_1.c ****     lv_anim_set_values(&a4, 0, obj_height);
 335              		.loc 1 57 5 is_stmt 1 view .LVU116
 336              	.LBB122:
 337              	.LBI122:
 169:lvgl/examples/anim/../../src/misc/lv_anim.h **** {
 338              		.loc 2 169 20 view .LVU117
 339              	.LBB123:
 171:lvgl/examples/anim/../../src/misc/lv_anim.h ****     a->current_value = start;
 340              		.loc 2 171 5 view .LVU118
 171:lvgl/examples/anim/../../src/misc/lv_anim.h ****     a->current_value = start;
 341              		.loc 2 171 20 is_stmt 0 view .LVU119
 342 00a4 2A94     		str	r4, [sp, #168]
 172:lvgl/examples/anim/../../src/misc/lv_anim.h ****     a->end_value = end;
 343              		.loc 2 172 5 is_stmt 1 view .LVU120
 172:lvgl/examples/anim/../../src/misc/lv_anim.h ****     a->end_value = end;
 344              		.loc 2 172 22 is_stmt 0 view .LVU121
 345 00a6 2B94     		str	r4, [sp, #172]
 173:lvgl/examples/anim/../../src/misc/lv_anim.h **** }
 346              		.loc 2 173 5 is_stmt 1 view .LVU122
 173:lvgl/examples/anim/../../src/misc/lv_anim.h **** }
 347              		.loc 2 173 18 is_stmt 0 view .LVU123
 348 00a8 2C97     		str	r7, [sp, #176]
 349              	.LVL27:
 173:lvgl/examples/anim/../../src/misc/lv_anim.h **** }
 350              		.loc 2 173 18 view .LVU124
 351              	.LBE123:
 352              	.LBE122:
  58:lvgl/examples/anim/lv_example_anim_timeline_1.c ****     lv_anim_set_early_apply(&a4, false);
 353              		.loc 1 58 5 is_stmt 1 view .LVU125
 354              	.LBB124:
 355              	.LBI124:
 288:lvgl/examples/anim/../../src/misc/lv_anim.h **** {
 356              		.loc 2 288 20 view .LVU126
 357              	.LBB125:
 358              		.loc 2 290 5 view .LVU127
 359              		.loc 2 290 20 is_stmt 0 view .LVU128
 360 00aa 9DF8CA30 		ldrb	r3, [sp, #202]	@ zero_extendqisi2
 361 00ae 64F30003 		bfi	r3, r4, #0, #1
 362 00b2 8DF8CA30 		strb	r3, [sp, #202]
 363              	.LVL28:
 364              		.loc 2 290 20 view .LVU129
 365              	.LBE125:
 366              	.LBE124:
  59:lvgl/examples/anim/lv_example_anim_timeline_1.c ****     lv_anim_set_exec_cb(&a4, (lv_anim_exec_xcb_t)set_height);
 367              		.loc 1 59 5 is_stmt 1 view .LVU130
 368              	.LBB126:
 369              	.LBI126:
 138:lvgl/examples/anim/../../src/misc/lv_anim.h **** {
 370              		.loc 2 138 20 view .LVU131
 371              	.LBB127:
 140:lvgl/examples/anim/../../src/misc/lv_anim.h **** }
 372              		.loc 2 140 5 view .LVU132
 140:lvgl/examples/anim/../../src/misc/lv_anim.h **** }
ARM GAS  C:\Users\OSD\AppData\Local\Temp\cc7MtQgB.s 			page 15


 373              		.loc 2 140 16 is_stmt 0 view .LVU133
 374 00b6 2396     		str	r6, [sp, #140]
 375              	.LVL29:
 140:lvgl/examples/anim/../../src/misc/lv_anim.h **** }
 376              		.loc 2 140 16 view .LVU134
 377              	.LBE127:
 378              	.LBE126:
  60:lvgl/examples/anim/lv_example_anim_timeline_1.c ****     lv_anim_set_path_cb(&a4, lv_anim_path_ease_out);
 379              		.loc 1 60 5 is_stmt 1 view .LVU135
 380              	.LBB128:
 381              	.LBI128:
 196:lvgl/examples/anim/../../src/misc/lv_anim.h **** {
 382              		.loc 2 196 20 view .LVU136
 383              	.LBB129:
 198:lvgl/examples/anim/../../src/misc/lv_anim.h **** }
 384              		.loc 2 198 5 view .LVU137
 198:lvgl/examples/anim/../../src/misc/lv_anim.h **** }
 385              		.loc 2 198 16 is_stmt 0 view .LVU138
 386 00b8 2B4B     		ldr	r3, .L3+8
 387 00ba 2993     		str	r3, [sp, #164]
 388              	.LVL30:
 198:lvgl/examples/anim/../../src/misc/lv_anim.h **** }
 389              		.loc 2 198 16 view .LVU139
 390              	.LBE129:
 391              	.LBE128:
  61:lvgl/examples/anim/lv_example_anim_timeline_1.c ****     lv_anim_set_time(&a4, 300);
 392              		.loc 1 61 5 is_stmt 1 view .LVU140
 393              	.LBB130:
 394              	.LBI130:
 148:lvgl/examples/anim/../../src/misc/lv_anim.h **** {
 395              		.loc 2 148 20 view .LVU141
 396              	.LBB131:
 150:lvgl/examples/anim/../../src/misc/lv_anim.h **** }
 397              		.loc 2 150 5 view .LVU142
 150:lvgl/examples/anim/../../src/misc/lv_anim.h **** }
 398              		.loc 2 150 13 is_stmt 0 view .LVU143
 399 00bc 2D95     		str	r5, [sp, #180]
 400              	.LVL31:
 150:lvgl/examples/anim/../../src/misc/lv_anim.h **** }
 401              		.loc 2 150 13 view .LVU144
 402              	.LBE131:
 403              	.LBE130:
  62:lvgl/examples/anim/lv_example_anim_timeline_1.c **** 
  63:lvgl/examples/anim/lv_example_anim_timeline_1.c ****     /* obj3 */
  64:lvgl/examples/anim/lv_example_anim_timeline_1.c ****     lv_anim_t a5;
 404              		.loc 1 64 5 is_stmt 1 view .LVU145
  65:lvgl/examples/anim/lv_example_anim_timeline_1.c ****     lv_anim_init(&a5);
 405              		.loc 1 65 5 view .LVU146
 406 00be 11A8     		add	r0, sp, #68
 407 00c0 FFF7FEFF 		bl	lv_anim_init
 408              	.LVL32:
  66:lvgl/examples/anim/lv_example_anim_timeline_1.c ****     lv_anim_set_var(&a5, obj3);
 409              		.loc 1 66 5 view .LVU147
 410 00c4 DFF8B4B0 		ldr	fp, .L3+28
 411 00c8 DBF80030 		ldr	r3, [fp]
 412              	.LVL33:
 413              	.LBB132:
ARM GAS  C:\Users\OSD\AppData\Local\Temp\cc7MtQgB.s 			page 16


 414              	.LBI132:
 126:lvgl/examples/anim/../../src/misc/lv_anim.h **** {
 415              		.loc 2 126 20 view .LVU148
 416              	.LBB133:
 128:lvgl/examples/anim/../../src/misc/lv_anim.h **** }
 417              		.loc 2 128 5 view .LVU149
 128:lvgl/examples/anim/../../src/misc/lv_anim.h **** }
 418              		.loc 2 128 12 is_stmt 0 view .LVU150
 419 00cc 1193     		str	r3, [sp, #68]
 420              	.LVL34:
 128:lvgl/examples/anim/../../src/misc/lv_anim.h **** }
 421              		.loc 2 128 12 view .LVU151
 422              	.LBE133:
 423              	.LBE132:
  67:lvgl/examples/anim/lv_example_anim_timeline_1.c ****     lv_anim_set_values(&a5, 0, obj_width);
 424              		.loc 1 67 5 is_stmt 1 view .LVU152
 425              	.LBB134:
 426              	.LBI134:
 169:lvgl/examples/anim/../../src/misc/lv_anim.h **** {
 427              		.loc 2 169 20 view .LVU153
 428              	.LBB135:
 171:lvgl/examples/anim/../../src/misc/lv_anim.h ****     a->current_value = start;
 429              		.loc 2 171 5 view .LVU154
 171:lvgl/examples/anim/../../src/misc/lv_anim.h ****     a->current_value = start;
 430              		.loc 2 171 20 is_stmt 0 view .LVU155
 431 00ce 1994     		str	r4, [sp, #100]
 172:lvgl/examples/anim/../../src/misc/lv_anim.h ****     a->end_value = end;
 432              		.loc 2 172 5 is_stmt 1 view .LVU156
 172:lvgl/examples/anim/../../src/misc/lv_anim.h ****     a->end_value = end;
 433              		.loc 2 172 22 is_stmt 0 view .LVU157
 434 00d0 1A94     		str	r4, [sp, #104]
 173:lvgl/examples/anim/../../src/misc/lv_anim.h **** }
 435              		.loc 2 173 5 is_stmt 1 view .LVU158
 173:lvgl/examples/anim/../../src/misc/lv_anim.h **** }
 436              		.loc 2 173 18 is_stmt 0 view .LVU159
 437 00d2 CDF86CA0 		str	r10, [sp, #108]
 438              	.LVL35:
 173:lvgl/examples/anim/../../src/misc/lv_anim.h **** }
 439              		.loc 2 173 18 view .LVU160
 440              	.LBE135:
 441              	.LBE134:
  68:lvgl/examples/anim/lv_example_anim_timeline_1.c ****     lv_anim_set_early_apply(&a5, false);
 442              		.loc 1 68 5 is_stmt 1 view .LVU161
 443              	.LBB136:
 444              	.LBI136:
 288:lvgl/examples/anim/../../src/misc/lv_anim.h **** {
 445              		.loc 2 288 20 view .LVU162
 446              	.LBB137:
 447              		.loc 2 290 5 view .LVU163
 448              		.loc 2 290 20 is_stmt 0 view .LVU164
 449 00d6 9DF88630 		ldrb	r3, [sp, #134]	@ zero_extendqisi2
 450 00da 64F30003 		bfi	r3, r4, #0, #1
 451 00de 8DF88630 		strb	r3, [sp, #134]
 452              	.LVL36:
 453              		.loc 2 290 20 view .LVU165
 454              	.LBE137:
 455              	.LBE136:
ARM GAS  C:\Users\OSD\AppData\Local\Temp\cc7MtQgB.s 			page 17


  69:lvgl/examples/anim/lv_example_anim_timeline_1.c ****     lv_anim_set_exec_cb(&a5, (lv_anim_exec_xcb_t)set_width);
 456              		.loc 1 69 5 is_stmt 1 view .LVU166
 457              	.LBB138:
 458              	.LBI138:
 138:lvgl/examples/anim/../../src/misc/lv_anim.h **** {
 459              		.loc 2 138 20 view .LVU167
 460              	.LBB139:
 140:lvgl/examples/anim/../../src/misc/lv_anim.h **** }
 461              		.loc 2 140 5 view .LVU168
 140:lvgl/examples/anim/../../src/misc/lv_anim.h **** }
 462              		.loc 2 140 16 is_stmt 0 view .LVU169
 463 00e2 CDF84890 		str	r9, [sp, #72]
 464              	.LVL37:
 140:lvgl/examples/anim/../../src/misc/lv_anim.h **** }
 465              		.loc 2 140 16 view .LVU170
 466              	.LBE139:
 467              	.LBE138:
  70:lvgl/examples/anim/lv_example_anim_timeline_1.c ****     lv_anim_set_path_cb(&a5, lv_anim_path_overshoot);
 468              		.loc 1 70 5 is_stmt 1 view .LVU171
 469              	.LBB140:
 470              	.LBI140:
 196:lvgl/examples/anim/../../src/misc/lv_anim.h **** {
 471              		.loc 2 196 20 view .LVU172
 472              	.LBB141:
 198:lvgl/examples/anim/../../src/misc/lv_anim.h **** }
 473              		.loc 2 198 5 view .LVU173
 198:lvgl/examples/anim/../../src/misc/lv_anim.h **** }
 474              		.loc 2 198 16 is_stmt 0 view .LVU174
 475 00e6 CDF86080 		str	r8, [sp, #96]
 476              	.LVL38:
 198:lvgl/examples/anim/../../src/misc/lv_anim.h **** }
 477              		.loc 2 198 16 view .LVU175
 478              	.LBE141:
 479              	.LBE140:
  71:lvgl/examples/anim/lv_example_anim_timeline_1.c ****     lv_anim_set_time(&a5, 300);
 480              		.loc 1 71 5 is_stmt 1 view .LVU176
 481              	.LBB142:
 482              	.LBI142:
 148:lvgl/examples/anim/../../src/misc/lv_anim.h **** {
 483              		.loc 2 148 20 view .LVU177
 484              	.LBB143:
 150:lvgl/examples/anim/../../src/misc/lv_anim.h **** }
 485              		.loc 2 150 5 view .LVU178
 150:lvgl/examples/anim/../../src/misc/lv_anim.h **** }
 486              		.loc 2 150 13 is_stmt 0 view .LVU179
 487 00ea 1C95     		str	r5, [sp, #112]
 488              	.LVL39:
 150:lvgl/examples/anim/../../src/misc/lv_anim.h **** }
 489              		.loc 2 150 13 view .LVU180
 490              	.LBE143:
 491              	.LBE142:
  72:lvgl/examples/anim/lv_example_anim_timeline_1.c **** 
  73:lvgl/examples/anim/lv_example_anim_timeline_1.c ****     lv_anim_t a6;
 492              		.loc 1 73 5 is_stmt 1 view .LVU181
  74:lvgl/examples/anim/lv_example_anim_timeline_1.c ****     lv_anim_init(&a6);
 493              		.loc 1 74 5 view .LVU182
 494 00ec 6846     		mov	r0, sp
ARM GAS  C:\Users\OSD\AppData\Local\Temp\cc7MtQgB.s 			page 18


 495 00ee FFF7FEFF 		bl	lv_anim_init
 496              	.LVL40:
  75:lvgl/examples/anim/lv_example_anim_timeline_1.c ****     lv_anim_set_var(&a6, obj3);
 497              		.loc 1 75 5 view .LVU183
 498 00f2 DBF80030 		ldr	r3, [fp]
 499              	.LVL41:
 500              	.LBB144:
 501              	.LBI144:
 126:lvgl/examples/anim/../../src/misc/lv_anim.h **** {
 502              		.loc 2 126 20 view .LVU184
 503              	.LBB145:
 128:lvgl/examples/anim/../../src/misc/lv_anim.h **** }
 504              		.loc 2 128 5 view .LVU185
 128:lvgl/examples/anim/../../src/misc/lv_anim.h **** }
 505              		.loc 2 128 12 is_stmt 0 view .LVU186
 506 00f6 0093     		str	r3, [sp]
 507              	.LVL42:
 128:lvgl/examples/anim/../../src/misc/lv_anim.h **** }
 508              		.loc 2 128 12 view .LVU187
 509              	.LBE145:
 510              	.LBE144:
  76:lvgl/examples/anim/lv_example_anim_timeline_1.c ****     lv_anim_set_values(&a6, 0, obj_height);
 511              		.loc 1 76 5 is_stmt 1 view .LVU188
 512              	.LBB146:
 513              	.LBI146:
 169:lvgl/examples/anim/../../src/misc/lv_anim.h **** {
 514              		.loc 2 169 20 view .LVU189
 515              	.LBB147:
 171:lvgl/examples/anim/../../src/misc/lv_anim.h ****     a->current_value = start;
 516              		.loc 2 171 5 view .LVU190
 171:lvgl/examples/anim/../../src/misc/lv_anim.h ****     a->current_value = start;
 517              		.loc 2 171 20 is_stmt 0 view .LVU191
 518 00f8 0894     		str	r4, [sp, #32]
 172:lvgl/examples/anim/../../src/misc/lv_anim.h ****     a->end_value = end;
 519              		.loc 2 172 5 is_stmt 1 view .LVU192
 172:lvgl/examples/anim/../../src/misc/lv_anim.h ****     a->end_value = end;
 520              		.loc 2 172 22 is_stmt 0 view .LVU193
 521 00fa 0994     		str	r4, [sp, #36]
 173:lvgl/examples/anim/../../src/misc/lv_anim.h **** }
 522              		.loc 2 173 5 is_stmt 1 view .LVU194
 173:lvgl/examples/anim/../../src/misc/lv_anim.h **** }
 523              		.loc 2 173 18 is_stmt 0 view .LVU195
 524 00fc 0A97     		str	r7, [sp, #40]
 525              	.LVL43:
 173:lvgl/examples/anim/../../src/misc/lv_anim.h **** }
 526              		.loc 2 173 18 view .LVU196
 527              	.LBE147:
 528              	.LBE146:
  77:lvgl/examples/anim/lv_example_anim_timeline_1.c ****     lv_anim_set_early_apply(&a6, false);
 529              		.loc 1 77 5 is_stmt 1 view .LVU197
 530              	.LBB148:
 531              	.LBI148:
 288:lvgl/examples/anim/../../src/misc/lv_anim.h **** {
 532              		.loc 2 288 20 view .LVU198
 533              	.LBB149:
 534              		.loc 2 290 5 view .LVU199
 535              		.loc 2 290 20 is_stmt 0 view .LVU200
ARM GAS  C:\Users\OSD\AppData\Local\Temp\cc7MtQgB.s 			page 19


 536 00fe 9DF84230 		ldrb	r3, [sp, #66]	@ zero_extendqisi2
 537 0102 64F30003 		bfi	r3, r4, #0, #1
 538 0106 8DF84230 		strb	r3, [sp, #66]
 539              	.LVL44:
 540              		.loc 2 290 20 view .LVU201
 541              	.LBE149:
 542              	.LBE148:
  78:lvgl/examples/anim/lv_example_anim_timeline_1.c ****     lv_anim_set_exec_cb(&a6, (lv_anim_exec_xcb_t)set_height);
 543              		.loc 1 78 5 is_stmt 1 view .LVU202
 544              	.LBB150:
 545              	.LBI150:
 138:lvgl/examples/anim/../../src/misc/lv_anim.h **** {
 546              		.loc 2 138 20 view .LVU203
 547              	.LBB151:
 140:lvgl/examples/anim/../../src/misc/lv_anim.h **** }
 548              		.loc 2 140 5 view .LVU204
 140:lvgl/examples/anim/../../src/misc/lv_anim.h **** }
 549              		.loc 2 140 16 is_stmt 0 view .LVU205
 550 010a 0196     		str	r6, [sp, #4]
 551              	.LVL45:
 140:lvgl/examples/anim/../../src/misc/lv_anim.h **** }
 552              		.loc 2 140 16 view .LVU206
 553              	.LBE151:
 554              	.LBE150:
  79:lvgl/examples/anim/lv_example_anim_timeline_1.c ****     lv_anim_set_path_cb(&a6, lv_anim_path_ease_out);
 555              		.loc 1 79 5 is_stmt 1 view .LVU207
 556              	.LBB152:
 557              	.LBI152:
 196:lvgl/examples/anim/../../src/misc/lv_anim.h **** {
 558              		.loc 2 196 20 view .LVU208
 559              	.LBB153:
 198:lvgl/examples/anim/../../src/misc/lv_anim.h **** }
 560              		.loc 2 198 5 view .LVU209
 198:lvgl/examples/anim/../../src/misc/lv_anim.h **** }
 561              		.loc 2 198 16 is_stmt 0 view .LVU210
 562 010c 164B     		ldr	r3, .L3+8
 563 010e 0793     		str	r3, [sp, #28]
 564              	.LVL46:
 198:lvgl/examples/anim/../../src/misc/lv_anim.h **** }
 565              		.loc 2 198 16 view .LVU211
 566              	.LBE153:
 567              	.LBE152:
  80:lvgl/examples/anim/lv_example_anim_timeline_1.c ****     lv_anim_set_time(&a6, 300);
 568              		.loc 1 80 5 is_stmt 1 view .LVU212
 569              	.LBB154:
 570              	.LBI154:
 148:lvgl/examples/anim/../../src/misc/lv_anim.h **** {
 571              		.loc 2 148 20 view .LVU213
 572              	.LBB155:
 150:lvgl/examples/anim/../../src/misc/lv_anim.h **** }
 573              		.loc 2 150 5 view .LVU214
 150:lvgl/examples/anim/../../src/misc/lv_anim.h **** }
 574              		.loc 2 150 13 is_stmt 0 view .LVU215
 575 0110 0B95     		str	r5, [sp, #44]
 576              	.LVL47:
 150:lvgl/examples/anim/../../src/misc/lv_anim.h **** }
 577              		.loc 2 150 13 view .LVU216
ARM GAS  C:\Users\OSD\AppData\Local\Temp\cc7MtQgB.s 			page 20


 578              	.LBE155:
 579              	.LBE154:
  81:lvgl/examples/anim/lv_example_anim_timeline_1.c **** 
  82:lvgl/examples/anim/lv_example_anim_timeline_1.c ****     /* Create anim timeline */
  83:lvgl/examples/anim/lv_example_anim_timeline_1.c ****     anim_timeline = lv_anim_timeline_create();
 580              		.loc 1 83 5 is_stmt 1 view .LVU217
 581              		.loc 1 83 21 is_stmt 0 view .LVU218
 582 0112 FFF7FEFF 		bl	lv_anim_timeline_create
 583              	.LVL48:
 584              		.loc 1 83 19 view .LVU219
 585 0116 154D     		ldr	r5, .L3+12
 586 0118 2860     		str	r0, [r5]
  84:lvgl/examples/anim/lv_example_anim_timeline_1.c ****     lv_anim_timeline_add(anim_timeline, 0, &a1);
 587              		.loc 1 84 5 is_stmt 1 view .LVU220
 588 011a 55AA     		add	r2, sp, #340
 589 011c 2146     		mov	r1, r4
 590 011e FFF7FEFF 		bl	lv_anim_timeline_add
 591              	.LVL49:
  85:lvgl/examples/anim/lv_example_anim_timeline_1.c ****     lv_anim_timeline_add(anim_timeline, 0, &a2);
 592              		.loc 1 85 5 view .LVU221
 593 0122 44AA     		add	r2, sp, #272
 594 0124 2146     		mov	r1, r4
 595 0126 2868     		ldr	r0, [r5]
 596 0128 FFF7FEFF 		bl	lv_anim_timeline_add
 597              	.LVL50:
  86:lvgl/examples/anim/lv_example_anim_timeline_1.c ****     lv_anim_timeline_add(anim_timeline, 200, &a3);
 598              		.loc 1 86 5 view .LVU222
 599 012c 33AA     		add	r2, sp, #204
 600 012e C821     		movs	r1, #200
 601 0130 2868     		ldr	r0, [r5]
 602 0132 FFF7FEFF 		bl	lv_anim_timeline_add
 603              	.LVL51:
  87:lvgl/examples/anim/lv_example_anim_timeline_1.c ****     lv_anim_timeline_add(anim_timeline, 200, &a4);
 604              		.loc 1 87 5 view .LVU223
 605 0136 22AA     		add	r2, sp, #136
 606 0138 C821     		movs	r1, #200
 607 013a 2868     		ldr	r0, [r5]
 608 013c FFF7FEFF 		bl	lv_anim_timeline_add
 609              	.LVL52:
  88:lvgl/examples/anim/lv_example_anim_timeline_1.c ****     lv_anim_timeline_add(anim_timeline, 400, &a5);
 610              		.loc 1 88 5 view .LVU224
 611 0140 11AA     		add	r2, sp, #68
 612 0142 4FF4C871 		mov	r1, #400
 613 0146 2868     		ldr	r0, [r5]
 614 0148 FFF7FEFF 		bl	lv_anim_timeline_add
 615              	.LVL53:
  89:lvgl/examples/anim/lv_example_anim_timeline_1.c ****     lv_anim_timeline_add(anim_timeline, 400, &a6);
 616              		.loc 1 89 5 view .LVU225
 617 014c 6A46     		mov	r2, sp
 618 014e 4FF4C871 		mov	r1, #400
 619 0152 2868     		ldr	r0, [r5]
 620 0154 FFF7FEFF 		bl	lv_anim_timeline_add
 621              	.LVL54:
  90:lvgl/examples/anim/lv_example_anim_timeline_1.c **** }
 622              		.loc 1 90 1 is_stmt 0 view .LVU226
 623 0158 67B0     		add	sp, sp, #412
 624              		.cfi_def_cfa_offset 36
ARM GAS  C:\Users\OSD\AppData\Local\Temp\cc7MtQgB.s 			page 21


 625              		@ sp needed
 626 015a BDE8F08F 		pop	{r4, r5, r6, r7, r8, r9, r10, fp, pc}
 627              	.L4:
 628 015e 00BF     		.align	2
 629              	.L3:
 630 0160 00000000 		.word	.LANCHOR0
 631 0164 00000000 		.word	set_height
 632 0168 00000000 		.word	lv_anim_path_ease_out
 633 016c 00000000 		.word	.LANCHOR3
 634 0170 00000000 		.word	set_width
 635 0174 00000000 		.word	lv_anim_path_overshoot
 636 0178 00000000 		.word	.LANCHOR1
 637 017c 00000000 		.word	.LANCHOR2
 638              		.cfi_endproc
 639              	.LFE206:
 641              		.section	.text.set_height,"ax",%progbits
 642              		.align	1
 643              		.syntax unified
 644              		.thumb
 645              		.thumb_func
 647              	set_height:
 648              	.LVL55:
 649              	.LFB205:
  19:lvgl/examples/anim/lv_example_anim_timeline_1.c ****     lv_obj_set_height((lv_obj_t *)var, v);
 650              		.loc 1 19 1 is_stmt 1 view -0
 651              		.cfi_startproc
 652              		@ args = 0, pretend = 0, frame = 0
 653              		@ frame_needed = 0, uses_anonymous_args = 0
  19:lvgl/examples/anim/lv_example_anim_timeline_1.c ****     lv_obj_set_height((lv_obj_t *)var, v);
 654              		.loc 1 19 1 is_stmt 0 view .LVU228
 655 0000 08B5     		push	{r3, lr}
 656              		.cfi_def_cfa_offset 8
 657              		.cfi_offset 3, -8
 658              		.cfi_offset 14, -4
  20:lvgl/examples/anim/lv_example_anim_timeline_1.c **** }
 659              		.loc 1 20 5 is_stmt 1 view .LVU229
 660 0002 09B2     		sxth	r1, r1
 661              	.LVL56:
  20:lvgl/examples/anim/lv_example_anim_timeline_1.c **** }
 662              		.loc 1 20 5 is_stmt 0 view .LVU230
 663 0004 FFF7FEFF 		bl	lv_obj_set_height
 664              	.LVL57:
  21:lvgl/examples/anim/lv_example_anim_timeline_1.c **** 
 665              		.loc 1 21 1 view .LVU231
 666 0008 08BD     		pop	{r3, pc}
 667              		.cfi_endproc
 668              	.LFE205:
 670              		.section	.text.set_width,"ax",%progbits
 671              		.align	1
 672              		.syntax unified
 673              		.thumb
 674              		.thumb_func
 676              	set_width:
 677              	.LVL58:
 678              	.LFB204:
  14:lvgl/examples/anim/lv_example_anim_timeline_1.c ****     lv_obj_set_width((lv_obj_t *)var, v);
 679              		.loc 1 14 1 is_stmt 1 view -0
ARM GAS  C:\Users\OSD\AppData\Local\Temp\cc7MtQgB.s 			page 22


 680              		.cfi_startproc
 681              		@ args = 0, pretend = 0, frame = 0
 682              		@ frame_needed = 0, uses_anonymous_args = 0
  14:lvgl/examples/anim/lv_example_anim_timeline_1.c ****     lv_obj_set_width((lv_obj_t *)var, v);
 683              		.loc 1 14 1 is_stmt 0 view .LVU233
 684 0000 08B5     		push	{r3, lr}
 685              		.cfi_def_cfa_offset 8
 686              		.cfi_offset 3, -8
 687              		.cfi_offset 14, -4
  15:lvgl/examples/anim/lv_example_anim_timeline_1.c **** }
 688              		.loc 1 15 5 is_stmt 1 view .LVU234
 689 0002 09B2     		sxth	r1, r1
 690              	.LVL59:
  15:lvgl/examples/anim/lv_example_anim_timeline_1.c **** }
 691              		.loc 1 15 5 is_stmt 0 view .LVU235
 692 0004 FFF7FEFF 		bl	lv_obj_set_width
 693              	.LVL60:
  16:lvgl/examples/anim/lv_example_anim_timeline_1.c **** 
 694              		.loc 1 16 1 view .LVU236
 695 0008 08BD     		pop	{r3, pc}
 696              		.cfi_endproc
 697              	.LFE204:
 699              		.section	.text.slider_prg_event_handler,"ax",%progbits
 700              		.align	1
 701              		.syntax unified
 702              		.thumb
 703              		.thumb_func
 705              	slider_prg_event_handler:
 706              	.LVL61:
 707              	.LFB210:
  91:lvgl/examples/anim/lv_example_anim_timeline_1.c **** 
  92:lvgl/examples/anim/lv_example_anim_timeline_1.c **** static void btn_start_event_handler(lv_event_t * e)
  93:lvgl/examples/anim/lv_example_anim_timeline_1.c **** {
  94:lvgl/examples/anim/lv_example_anim_timeline_1.c ****     lv_obj_t * btn = lv_event_get_target(e);
  95:lvgl/examples/anim/lv_example_anim_timeline_1.c **** 
  96:lvgl/examples/anim/lv_example_anim_timeline_1.c ****     if(!anim_timeline) {
  97:lvgl/examples/anim/lv_example_anim_timeline_1.c ****         anim_timeline_create();
  98:lvgl/examples/anim/lv_example_anim_timeline_1.c ****     }
  99:lvgl/examples/anim/lv_example_anim_timeline_1.c **** 
 100:lvgl/examples/anim/lv_example_anim_timeline_1.c ****     bool reverse = lv_obj_has_state(btn, LV_STATE_CHECKED);
 101:lvgl/examples/anim/lv_example_anim_timeline_1.c ****     lv_anim_timeline_set_reverse(anim_timeline, reverse);
 102:lvgl/examples/anim/lv_example_anim_timeline_1.c ****     lv_anim_timeline_start(anim_timeline);
 103:lvgl/examples/anim/lv_example_anim_timeline_1.c **** }
 104:lvgl/examples/anim/lv_example_anim_timeline_1.c **** 
 105:lvgl/examples/anim/lv_example_anim_timeline_1.c **** static void btn_del_event_handler(lv_event_t * e)
 106:lvgl/examples/anim/lv_example_anim_timeline_1.c **** {
 107:lvgl/examples/anim/lv_example_anim_timeline_1.c ****     LV_UNUSED(e);
 108:lvgl/examples/anim/lv_example_anim_timeline_1.c ****     if(anim_timeline) {
 109:lvgl/examples/anim/lv_example_anim_timeline_1.c ****         lv_anim_timeline_del(anim_timeline);
 110:lvgl/examples/anim/lv_example_anim_timeline_1.c ****         anim_timeline = NULL;
 111:lvgl/examples/anim/lv_example_anim_timeline_1.c ****     }
 112:lvgl/examples/anim/lv_example_anim_timeline_1.c **** }
 113:lvgl/examples/anim/lv_example_anim_timeline_1.c **** 
 114:lvgl/examples/anim/lv_example_anim_timeline_1.c **** static void btn_stop_event_handler(lv_event_t * e)
 115:lvgl/examples/anim/lv_example_anim_timeline_1.c **** {
 116:lvgl/examples/anim/lv_example_anim_timeline_1.c ****     LV_UNUSED(e);
 117:lvgl/examples/anim/lv_example_anim_timeline_1.c ****     if(anim_timeline) {
ARM GAS  C:\Users\OSD\AppData\Local\Temp\cc7MtQgB.s 			page 23


 118:lvgl/examples/anim/lv_example_anim_timeline_1.c ****         lv_anim_timeline_stop(anim_timeline);
 119:lvgl/examples/anim/lv_example_anim_timeline_1.c ****     }
 120:lvgl/examples/anim/lv_example_anim_timeline_1.c **** }
 121:lvgl/examples/anim/lv_example_anim_timeline_1.c **** 
 122:lvgl/examples/anim/lv_example_anim_timeline_1.c **** static void slider_prg_event_handler(lv_event_t * e)
 123:lvgl/examples/anim/lv_example_anim_timeline_1.c **** {
 708              		.loc 1 123 1 is_stmt 1 view -0
 709              		.cfi_startproc
 710              		@ args = 0, pretend = 0, frame = 0
 711              		@ frame_needed = 0, uses_anonymous_args = 0
 712              		.loc 1 123 1 is_stmt 0 view .LVU238
 713 0000 10B5     		push	{r4, lr}
 714              		.cfi_def_cfa_offset 8
 715              		.cfi_offset 4, -8
 716              		.cfi_offset 14, -4
 124:lvgl/examples/anim/lv_example_anim_timeline_1.c ****     lv_obj_t * slider = lv_event_get_target(e);
 717              		.loc 1 124 5 is_stmt 1 view .LVU239
 718              		.loc 1 124 25 is_stmt 0 view .LVU240
 719 0002 FFF7FEFF 		bl	lv_event_get_target
 720              	.LVL62:
 721              		.loc 1 124 25 view .LVU241
 722 0006 0446     		mov	r4, r0
 723              	.LVL63:
 125:lvgl/examples/anim/lv_example_anim_timeline_1.c **** 
 126:lvgl/examples/anim/lv_example_anim_timeline_1.c ****     if(!anim_timeline) {
 724              		.loc 1 126 5 is_stmt 1 view .LVU242
 725              		.loc 1 126 8 is_stmt 0 view .LVU243
 726 0008 074B     		ldr	r3, .L13
 727 000a 1B68     		ldr	r3, [r3]
 728              		.loc 1 126 7 view .LVU244
 729 000c 43B1     		cbz	r3, .L12
 730              	.LVL64:
 731              	.L10:
 127:lvgl/examples/anim/lv_example_anim_timeline_1.c ****         anim_timeline_create();
 128:lvgl/examples/anim/lv_example_anim_timeline_1.c ****     }
 129:lvgl/examples/anim/lv_example_anim_timeline_1.c **** 
 130:lvgl/examples/anim/lv_example_anim_timeline_1.c ****     int32_t progress = lv_slider_get_value(slider);
 732              		.loc 1 130 5 is_stmt 1 view .LVU245
 733              	.LBB156:
 734              	.LBI156:
 735              		.file 3 "lvgl/examples/anim/../../src/widgets/lv_slider.h"
   1:lvgl/examples/anim/../../src/widgets/lv_slider.h **** /**
   2:lvgl/examples/anim/../../src/widgets/lv_slider.h ****  * @file lv_slider.h
   3:lvgl/examples/anim/../../src/widgets/lv_slider.h ****  *
   4:lvgl/examples/anim/../../src/widgets/lv_slider.h ****  */
   5:lvgl/examples/anim/../../src/widgets/lv_slider.h **** 
   6:lvgl/examples/anim/../../src/widgets/lv_slider.h **** #ifndef LV_SLIDER_H
   7:lvgl/examples/anim/../../src/widgets/lv_slider.h **** #define LV_SLIDER_H
   8:lvgl/examples/anim/../../src/widgets/lv_slider.h **** 
   9:lvgl/examples/anim/../../src/widgets/lv_slider.h **** #ifdef __cplusplus
  10:lvgl/examples/anim/../../src/widgets/lv_slider.h **** extern "C" {
  11:lvgl/examples/anim/../../src/widgets/lv_slider.h **** #endif
  12:lvgl/examples/anim/../../src/widgets/lv_slider.h **** 
  13:lvgl/examples/anim/../../src/widgets/lv_slider.h **** /*********************
  14:lvgl/examples/anim/../../src/widgets/lv_slider.h ****  *      INCLUDES
  15:lvgl/examples/anim/../../src/widgets/lv_slider.h ****  *********************/
  16:lvgl/examples/anim/../../src/widgets/lv_slider.h **** #include "../lv_conf_internal.h"
ARM GAS  C:\Users\OSD\AppData\Local\Temp\cc7MtQgB.s 			page 24


  17:lvgl/examples/anim/../../src/widgets/lv_slider.h **** 
  18:lvgl/examples/anim/../../src/widgets/lv_slider.h **** #if LV_USE_SLIDER != 0
  19:lvgl/examples/anim/../../src/widgets/lv_slider.h **** 
  20:lvgl/examples/anim/../../src/widgets/lv_slider.h **** /*Testing of dependencies*/
  21:lvgl/examples/anim/../../src/widgets/lv_slider.h **** #if LV_USE_BAR == 0
  22:lvgl/examples/anim/../../src/widgets/lv_slider.h **** #error "lv_slider: lv_bar is required. Enable it in lv_conf.h (LV_USE_BAR 1)"
  23:lvgl/examples/anim/../../src/widgets/lv_slider.h **** #endif
  24:lvgl/examples/anim/../../src/widgets/lv_slider.h **** 
  25:lvgl/examples/anim/../../src/widgets/lv_slider.h **** #include "../core/lv_obj.h"
  26:lvgl/examples/anim/../../src/widgets/lv_slider.h **** #include "lv_bar.h"
  27:lvgl/examples/anim/../../src/widgets/lv_slider.h **** 
  28:lvgl/examples/anim/../../src/widgets/lv_slider.h **** /*********************
  29:lvgl/examples/anim/../../src/widgets/lv_slider.h ****  *      DEFINES
  30:lvgl/examples/anim/../../src/widgets/lv_slider.h ****  *********************/
  31:lvgl/examples/anim/../../src/widgets/lv_slider.h **** 
  32:lvgl/examples/anim/../../src/widgets/lv_slider.h **** /**********************
  33:lvgl/examples/anim/../../src/widgets/lv_slider.h ****  *      TYPEDEFS
  34:lvgl/examples/anim/../../src/widgets/lv_slider.h ****  **********************/
  35:lvgl/examples/anim/../../src/widgets/lv_slider.h **** 
  36:lvgl/examples/anim/../../src/widgets/lv_slider.h **** enum {
  37:lvgl/examples/anim/../../src/widgets/lv_slider.h ****     LV_SLIDER_MODE_NORMAL = LV_BAR_MODE_NORMAL,
  38:lvgl/examples/anim/../../src/widgets/lv_slider.h ****     LV_SLIDER_MODE_SYMMETRICAL = LV_BAR_MODE_SYMMETRICAL,
  39:lvgl/examples/anim/../../src/widgets/lv_slider.h ****     LV_SLIDER_MODE_RANGE = LV_BAR_MODE_RANGE
  40:lvgl/examples/anim/../../src/widgets/lv_slider.h **** };
  41:lvgl/examples/anim/../../src/widgets/lv_slider.h **** typedef uint8_t lv_slider_mode_t;
  42:lvgl/examples/anim/../../src/widgets/lv_slider.h **** 
  43:lvgl/examples/anim/../../src/widgets/lv_slider.h **** typedef struct {
  44:lvgl/examples/anim/../../src/widgets/lv_slider.h ****     lv_bar_t bar;       /*Add the ancestor's type first*/
  45:lvgl/examples/anim/../../src/widgets/lv_slider.h ****     lv_area_t left_knob_area;
  46:lvgl/examples/anim/../../src/widgets/lv_slider.h ****     lv_area_t right_knob_area;
  47:lvgl/examples/anim/../../src/widgets/lv_slider.h ****     int32_t * value_to_set; /*Which bar value to set*/
  48:lvgl/examples/anim/../../src/widgets/lv_slider.h ****     uint8_t dragging : 1;       /*1: the slider is being dragged*/
  49:lvgl/examples/anim/../../src/widgets/lv_slider.h ****     uint8_t left_knob_focus : 1; /*1: with encoder now the right knob can be adjusted*/
  50:lvgl/examples/anim/../../src/widgets/lv_slider.h **** } lv_slider_t;
  51:lvgl/examples/anim/../../src/widgets/lv_slider.h **** 
  52:lvgl/examples/anim/../../src/widgets/lv_slider.h **** extern const lv_obj_class_t lv_slider_class;
  53:lvgl/examples/anim/../../src/widgets/lv_slider.h **** 
  54:lvgl/examples/anim/../../src/widgets/lv_slider.h **** /**
  55:lvgl/examples/anim/../../src/widgets/lv_slider.h ****  * `type` field in `lv_obj_draw_part_dsc_t` if `class_p = lv_slider_class`
  56:lvgl/examples/anim/../../src/widgets/lv_slider.h ****  * Used in `LV_EVENT_DRAW_PART_BEGIN` and `LV_EVENT_DRAW_PART_END`
  57:lvgl/examples/anim/../../src/widgets/lv_slider.h ****  */
  58:lvgl/examples/anim/../../src/widgets/lv_slider.h **** typedef enum {
  59:lvgl/examples/anim/../../src/widgets/lv_slider.h ****     LV_SLIDER_DRAW_PART_KNOB,           /**< The main (right) knob's rectangle*/
  60:lvgl/examples/anim/../../src/widgets/lv_slider.h ****     LV_SLIDER_DRAW_PART_KNOB_LEFT,      /**< The left knob's rectangle*/
  61:lvgl/examples/anim/../../src/widgets/lv_slider.h **** } lv_slider_draw_part_type_t;
  62:lvgl/examples/anim/../../src/widgets/lv_slider.h **** 
  63:lvgl/examples/anim/../../src/widgets/lv_slider.h **** /**********************
  64:lvgl/examples/anim/../../src/widgets/lv_slider.h ****  * GLOBAL PROTOTYPES
  65:lvgl/examples/anim/../../src/widgets/lv_slider.h ****  **********************/
  66:lvgl/examples/anim/../../src/widgets/lv_slider.h **** 
  67:lvgl/examples/anim/../../src/widgets/lv_slider.h **** /**
  68:lvgl/examples/anim/../../src/widgets/lv_slider.h ****  * Create a slider object
  69:lvgl/examples/anim/../../src/widgets/lv_slider.h ****  * @param parent    pointer to an object, it will be the parent of the new slider.
  70:lvgl/examples/anim/../../src/widgets/lv_slider.h ****  * @return          pointer to the created slider
  71:lvgl/examples/anim/../../src/widgets/lv_slider.h ****  */
  72:lvgl/examples/anim/../../src/widgets/lv_slider.h **** lv_obj_t * lv_slider_create(lv_obj_t * parent);
  73:lvgl/examples/anim/../../src/widgets/lv_slider.h **** 
ARM GAS  C:\Users\OSD\AppData\Local\Temp\cc7MtQgB.s 			page 25


  74:lvgl/examples/anim/../../src/widgets/lv_slider.h **** /*=====================
  75:lvgl/examples/anim/../../src/widgets/lv_slider.h ****  * Setter functions
  76:lvgl/examples/anim/../../src/widgets/lv_slider.h ****  *====================*/
  77:lvgl/examples/anim/../../src/widgets/lv_slider.h **** 
  78:lvgl/examples/anim/../../src/widgets/lv_slider.h **** /**
  79:lvgl/examples/anim/../../src/widgets/lv_slider.h ****  * Set a new value on the slider
  80:lvgl/examples/anim/../../src/widgets/lv_slider.h ****  * @param obj       pointer to a slider object
  81:lvgl/examples/anim/../../src/widgets/lv_slider.h ****  * @param value     the new value
  82:lvgl/examples/anim/../../src/widgets/lv_slider.h ****  * @param anim      LV_ANIM_ON: set the value with an animation; LV_ANIM_OFF: change the value imme
  83:lvgl/examples/anim/../../src/widgets/lv_slider.h ****  */
  84:lvgl/examples/anim/../../src/widgets/lv_slider.h **** static inline void lv_slider_set_value(lv_obj_t * obj, int32_t value, lv_anim_enable_t anim)
  85:lvgl/examples/anim/../../src/widgets/lv_slider.h **** {
  86:lvgl/examples/anim/../../src/widgets/lv_slider.h ****     lv_bar_set_value(obj, value, anim);
  87:lvgl/examples/anim/../../src/widgets/lv_slider.h **** }
  88:lvgl/examples/anim/../../src/widgets/lv_slider.h **** 
  89:lvgl/examples/anim/../../src/widgets/lv_slider.h **** /**
  90:lvgl/examples/anim/../../src/widgets/lv_slider.h ****  * Set a new value for the left knob of a slider
  91:lvgl/examples/anim/../../src/widgets/lv_slider.h ****  * @param obj       pointer to a slider object
  92:lvgl/examples/anim/../../src/widgets/lv_slider.h ****  * @param value     new value
  93:lvgl/examples/anim/../../src/widgets/lv_slider.h ****  * @param anim      LV_ANIM_ON: set the value with an animation; LV_ANIM_OFF: change the value imme
  94:lvgl/examples/anim/../../src/widgets/lv_slider.h ****  */
  95:lvgl/examples/anim/../../src/widgets/lv_slider.h **** static inline void lv_slider_set_left_value(lv_obj_t * obj, int32_t value, lv_anim_enable_t anim)
  96:lvgl/examples/anim/../../src/widgets/lv_slider.h **** {
  97:lvgl/examples/anim/../../src/widgets/lv_slider.h ****     lv_bar_set_start_value(obj, value, anim);
  98:lvgl/examples/anim/../../src/widgets/lv_slider.h **** }
  99:lvgl/examples/anim/../../src/widgets/lv_slider.h **** 
 100:lvgl/examples/anim/../../src/widgets/lv_slider.h **** /**
 101:lvgl/examples/anim/../../src/widgets/lv_slider.h ****  * Set minimum and the maximum values of a bar
 102:lvgl/examples/anim/../../src/widgets/lv_slider.h ****  * @param obj       pointer to the slider object
 103:lvgl/examples/anim/../../src/widgets/lv_slider.h ****  * @param min       minimum value
 104:lvgl/examples/anim/../../src/widgets/lv_slider.h ****  * @param max       maximum value
 105:lvgl/examples/anim/../../src/widgets/lv_slider.h ****  */
 106:lvgl/examples/anim/../../src/widgets/lv_slider.h **** static inline void lv_slider_set_range(lv_obj_t * obj, int32_t min, int32_t max)
 107:lvgl/examples/anim/../../src/widgets/lv_slider.h **** {
 108:lvgl/examples/anim/../../src/widgets/lv_slider.h ****     lv_bar_set_range(obj, min, max);
 109:lvgl/examples/anim/../../src/widgets/lv_slider.h **** }
 110:lvgl/examples/anim/../../src/widgets/lv_slider.h **** 
 111:lvgl/examples/anim/../../src/widgets/lv_slider.h **** /**
 112:lvgl/examples/anim/../../src/widgets/lv_slider.h ****  * Set the mode of slider.
 113:lvgl/examples/anim/../../src/widgets/lv_slider.h ****  * @param obj       pointer to a slider object
 114:lvgl/examples/anim/../../src/widgets/lv_slider.h ****  * @param mode      the mode of the slider. See ::lv_slider_mode_t
 115:lvgl/examples/anim/../../src/widgets/lv_slider.h ****  */
 116:lvgl/examples/anim/../../src/widgets/lv_slider.h **** static inline void lv_slider_set_mode(lv_obj_t * obj, lv_slider_mode_t mode)
 117:lvgl/examples/anim/../../src/widgets/lv_slider.h **** {
 118:lvgl/examples/anim/../../src/widgets/lv_slider.h ****     lv_bar_set_mode(obj, (lv_bar_mode_t)mode);
 119:lvgl/examples/anim/../../src/widgets/lv_slider.h **** }
 120:lvgl/examples/anim/../../src/widgets/lv_slider.h **** 
 121:lvgl/examples/anim/../../src/widgets/lv_slider.h **** /*=====================
 122:lvgl/examples/anim/../../src/widgets/lv_slider.h ****  * Getter functions
 123:lvgl/examples/anim/../../src/widgets/lv_slider.h ****  *====================*/
 124:lvgl/examples/anim/../../src/widgets/lv_slider.h **** 
 125:lvgl/examples/anim/../../src/widgets/lv_slider.h **** /**
 126:lvgl/examples/anim/../../src/widgets/lv_slider.h ****  * Get the value of the main knob of a slider
 127:lvgl/examples/anim/../../src/widgets/lv_slider.h ****  * @param obj       pointer to a slider object
 128:lvgl/examples/anim/../../src/widgets/lv_slider.h ****  * @return          the value of the main knob of the slider
 129:lvgl/examples/anim/../../src/widgets/lv_slider.h ****  */
 130:lvgl/examples/anim/../../src/widgets/lv_slider.h **** static inline int32_t lv_slider_get_value(const lv_obj_t * obj)
ARM GAS  C:\Users\OSD\AppData\Local\Temp\cc7MtQgB.s 			page 26


 736              		.loc 3 130 23 view .LVU246
 737              	.LBB157:
 131:lvgl/examples/anim/../../src/widgets/lv_slider.h **** {
 132:lvgl/examples/anim/../../src/widgets/lv_slider.h ****     return lv_bar_get_value(obj);
 738              		.loc 3 132 5 view .LVU247
 739              		.loc 3 132 12 is_stmt 0 view .LVU248
 740 000e 2046     		mov	r0, r4
 741 0010 FFF7FEFF 		bl	lv_bar_get_value
 742              	.LVL65:
 743              		.loc 3 132 12 view .LVU249
 744              	.LBE157:
 745              	.LBE156:
 131:lvgl/examples/anim/lv_example_anim_timeline_1.c ****     lv_anim_timeline_set_progress(anim_timeline, progress);
 746              		.loc 1 131 5 is_stmt 1 view .LVU250
 747 0014 81B2     		uxth	r1, r0
 748 0016 044B     		ldr	r3, .L13
 749 0018 1868     		ldr	r0, [r3]
 750              	.LVL66:
 751              		.loc 1 131 5 is_stmt 0 view .LVU251
 752 001a FFF7FEFF 		bl	lv_anim_timeline_set_progress
 753              	.LVL67:
 132:lvgl/examples/anim/lv_example_anim_timeline_1.c **** }
 754              		.loc 1 132 1 view .LVU252
 755 001e 10BD     		pop	{r4, pc}
 756              	.LVL68:
 757              	.L12:
 127:lvgl/examples/anim/lv_example_anim_timeline_1.c ****     }
 758              		.loc 1 127 9 is_stmt 1 view .LVU253
 759 0020 FFF7FEFF 		bl	anim_timeline_create
 760              	.LVL69:
 127:lvgl/examples/anim/lv_example_anim_timeline_1.c ****     }
 761              		.loc 1 127 9 is_stmt 0 view .LVU254
 762 0024 F3E7     		b	.L10
 763              	.L14:
 764 0026 00BF     		.align	2
 765              	.L13:
 766 0028 00000000 		.word	.LANCHOR3
 767              		.cfi_endproc
 768              	.LFE210:
 770              		.section	.text.btn_stop_event_handler,"ax",%progbits
 771              		.align	1
 772              		.syntax unified
 773              		.thumb
 774              		.thumb_func
 776              	btn_stop_event_handler:
 777              	.LVL70:
 778              	.LFB209:
 115:lvgl/examples/anim/lv_example_anim_timeline_1.c ****     LV_UNUSED(e);
 779              		.loc 1 115 1 is_stmt 1 view -0
 780              		.cfi_startproc
 781              		@ args = 0, pretend = 0, frame = 0
 782              		@ frame_needed = 0, uses_anonymous_args = 0
 115:lvgl/examples/anim/lv_example_anim_timeline_1.c ****     LV_UNUSED(e);
 783              		.loc 1 115 1 is_stmt 0 view .LVU256
 784 0000 08B5     		push	{r3, lr}
 785              		.cfi_def_cfa_offset 8
 786              		.cfi_offset 3, -8
ARM GAS  C:\Users\OSD\AppData\Local\Temp\cc7MtQgB.s 			page 27


 787              		.cfi_offset 14, -4
 116:lvgl/examples/anim/lv_example_anim_timeline_1.c ****     if(anim_timeline) {
 788              		.loc 1 116 5 is_stmt 1 view .LVU257
 117:lvgl/examples/anim/lv_example_anim_timeline_1.c ****         lv_anim_timeline_stop(anim_timeline);
 789              		.loc 1 117 5 view .LVU258
 117:lvgl/examples/anim/lv_example_anim_timeline_1.c ****         lv_anim_timeline_stop(anim_timeline);
 790              		.loc 1 117 8 is_stmt 0 view .LVU259
 791 0002 034B     		ldr	r3, .L18
 792 0004 1868     		ldr	r0, [r3]
 793              	.LVL71:
 117:lvgl/examples/anim/lv_example_anim_timeline_1.c ****         lv_anim_timeline_stop(anim_timeline);
 794              		.loc 1 117 7 view .LVU260
 795 0006 08B1     		cbz	r0, .L15
 118:lvgl/examples/anim/lv_example_anim_timeline_1.c ****     }
 796              		.loc 1 118 9 is_stmt 1 view .LVU261
 797 0008 FFF7FEFF 		bl	lv_anim_timeline_stop
 798              	.LVL72:
 799              	.L15:
 120:lvgl/examples/anim/lv_example_anim_timeline_1.c **** 
 800              		.loc 1 120 1 is_stmt 0 view .LVU262
 801 000c 08BD     		pop	{r3, pc}
 802              	.L19:
 803 000e 00BF     		.align	2
 804              	.L18:
 805 0010 00000000 		.word	.LANCHOR3
 806              		.cfi_endproc
 807              	.LFE209:
 809              		.section	.text.btn_del_event_handler,"ax",%progbits
 810              		.align	1
 811              		.syntax unified
 812              		.thumb
 813              		.thumb_func
 815              	btn_del_event_handler:
 816              	.LVL73:
 817              	.LFB208:
 106:lvgl/examples/anim/lv_example_anim_timeline_1.c ****     LV_UNUSED(e);
 818              		.loc 1 106 1 is_stmt 1 view -0
 819              		.cfi_startproc
 820              		@ args = 0, pretend = 0, frame = 0
 821              		@ frame_needed = 0, uses_anonymous_args = 0
 106:lvgl/examples/anim/lv_example_anim_timeline_1.c ****     LV_UNUSED(e);
 822              		.loc 1 106 1 is_stmt 0 view .LVU264
 823 0000 08B5     		push	{r3, lr}
 824              		.cfi_def_cfa_offset 8
 825              		.cfi_offset 3, -8
 826              		.cfi_offset 14, -4
 107:lvgl/examples/anim/lv_example_anim_timeline_1.c ****     if(anim_timeline) {
 827              		.loc 1 107 5 is_stmt 1 view .LVU265
 108:lvgl/examples/anim/lv_example_anim_timeline_1.c ****         lv_anim_timeline_del(anim_timeline);
 828              		.loc 1 108 5 view .LVU266
 108:lvgl/examples/anim/lv_example_anim_timeline_1.c ****         lv_anim_timeline_del(anim_timeline);
 829              		.loc 1 108 8 is_stmt 0 view .LVU267
 830 0002 044B     		ldr	r3, .L23
 831 0004 1868     		ldr	r0, [r3]
 832              	.LVL74:
 108:lvgl/examples/anim/lv_example_anim_timeline_1.c ****         lv_anim_timeline_del(anim_timeline);
 833              		.loc 1 108 7 view .LVU268
ARM GAS  C:\Users\OSD\AppData\Local\Temp\cc7MtQgB.s 			page 28


 834 0006 20B1     		cbz	r0, .L20
 109:lvgl/examples/anim/lv_example_anim_timeline_1.c ****         anim_timeline = NULL;
 835              		.loc 1 109 9 is_stmt 1 view .LVU269
 836 0008 FFF7FEFF 		bl	lv_anim_timeline_del
 837              	.LVL75:
 110:lvgl/examples/anim/lv_example_anim_timeline_1.c ****     }
 838              		.loc 1 110 9 view .LVU270
 110:lvgl/examples/anim/lv_example_anim_timeline_1.c ****     }
 839              		.loc 1 110 23 is_stmt 0 view .LVU271
 840 000c 014B     		ldr	r3, .L23
 841 000e 0022     		movs	r2, #0
 842 0010 1A60     		str	r2, [r3]
 843              	.L20:
 112:lvgl/examples/anim/lv_example_anim_timeline_1.c **** 
 844              		.loc 1 112 1 view .LVU272
 845 0012 08BD     		pop	{r3, pc}
 846              	.L24:
 847              		.align	2
 848              	.L23:
 849 0014 00000000 		.word	.LANCHOR3
 850              		.cfi_endproc
 851              	.LFE208:
 853              		.section	.text.btn_start_event_handler,"ax",%progbits
 854              		.align	1
 855              		.syntax unified
 856              		.thumb
 857              		.thumb_func
 859              	btn_start_event_handler:
 860              	.LVL76:
 861              	.LFB207:
  93:lvgl/examples/anim/lv_example_anim_timeline_1.c ****     lv_obj_t * btn = lv_event_get_target(e);
 862              		.loc 1 93 1 is_stmt 1 view -0
 863              		.cfi_startproc
 864              		@ args = 0, pretend = 0, frame = 0
 865              		@ frame_needed = 0, uses_anonymous_args = 0
  93:lvgl/examples/anim/lv_example_anim_timeline_1.c ****     lv_obj_t * btn = lv_event_get_target(e);
 866              		.loc 1 93 1 is_stmt 0 view .LVU274
 867 0000 10B5     		push	{r4, lr}
 868              		.cfi_def_cfa_offset 8
 869              		.cfi_offset 4, -8
 870              		.cfi_offset 14, -4
  94:lvgl/examples/anim/lv_example_anim_timeline_1.c **** 
 871              		.loc 1 94 5 is_stmt 1 view .LVU275
  94:lvgl/examples/anim/lv_example_anim_timeline_1.c **** 
 872              		.loc 1 94 22 is_stmt 0 view .LVU276
 873 0002 FFF7FEFF 		bl	lv_event_get_target
 874              	.LVL77:
  94:lvgl/examples/anim/lv_example_anim_timeline_1.c **** 
 875              		.loc 1 94 22 view .LVU277
 876 0006 0446     		mov	r4, r0
 877              	.LVL78:
  96:lvgl/examples/anim/lv_example_anim_timeline_1.c ****         anim_timeline_create();
 878              		.loc 1 96 5 is_stmt 1 view .LVU278
  96:lvgl/examples/anim/lv_example_anim_timeline_1.c ****         anim_timeline_create();
 879              		.loc 1 96 8 is_stmt 0 view .LVU279
 880 0008 094B     		ldr	r3, .L29
 881 000a 1B68     		ldr	r3, [r3]
ARM GAS  C:\Users\OSD\AppData\Local\Temp\cc7MtQgB.s 			page 29


  96:lvgl/examples/anim/lv_example_anim_timeline_1.c ****         anim_timeline_create();
 882              		.loc 1 96 7 view .LVU280
 883 000c 63B1     		cbz	r3, .L28
 884              	.LVL79:
 885              	.L26:
 100:lvgl/examples/anim/lv_example_anim_timeline_1.c ****     lv_anim_timeline_set_reverse(anim_timeline, reverse);
 886              		.loc 1 100 5 is_stmt 1 view .LVU281
 100:lvgl/examples/anim/lv_example_anim_timeline_1.c ****     lv_anim_timeline_set_reverse(anim_timeline, reverse);
 887              		.loc 1 100 20 is_stmt 0 view .LVU282
 888 000e 0121     		movs	r1, #1
 889 0010 2046     		mov	r0, r4
 890 0012 FFF7FEFF 		bl	lv_obj_has_state
 891              	.LVL80:
 892 0016 0146     		mov	r1, r0
 893              	.LVL81:
 101:lvgl/examples/anim/lv_example_anim_timeline_1.c ****     lv_anim_timeline_start(anim_timeline);
 894              		.loc 1 101 5 is_stmt 1 view .LVU283
 895 0018 054C     		ldr	r4, .L29
 896              	.LVL82:
 101:lvgl/examples/anim/lv_example_anim_timeline_1.c ****     lv_anim_timeline_start(anim_timeline);
 897              		.loc 1 101 5 is_stmt 0 view .LVU284
 898 001a 2068     		ldr	r0, [r4]
 899 001c FFF7FEFF 		bl	lv_anim_timeline_set_reverse
 900              	.LVL83:
 102:lvgl/examples/anim/lv_example_anim_timeline_1.c **** }
 901              		.loc 1 102 5 is_stmt 1 view .LVU285
 902 0020 2068     		ldr	r0, [r4]
 903 0022 FFF7FEFF 		bl	lv_anim_timeline_start
 904              	.LVL84:
 103:lvgl/examples/anim/lv_example_anim_timeline_1.c **** 
 905              		.loc 1 103 1 is_stmt 0 view .LVU286
 906 0026 10BD     		pop	{r4, pc}
 907              	.LVL85:
 908              	.L28:
  97:lvgl/examples/anim/lv_example_anim_timeline_1.c ****     }
 909              		.loc 1 97 9 is_stmt 1 view .LVU287
 910 0028 FFF7FEFF 		bl	anim_timeline_create
 911              	.LVL86:
  97:lvgl/examples/anim/lv_example_anim_timeline_1.c ****     }
 912              		.loc 1 97 9 is_stmt 0 view .LVU288
 913 002c EFE7     		b	.L26
 914              	.L30:
 915 002e 00BF     		.align	2
 916              	.L29:
 917 0030 00000000 		.word	.LANCHOR3
 918              		.cfi_endproc
 919              	.LFE207:
 921              		.section	.rodata.lv_example_anim_timeline_1.str1.4,"aMS",%progbits,1
 922              		.align	2
 923              	.LC0:
 924 0000 53746172 		.ascii	"Start\000"
 924      7400
 925 0006 0000     		.align	2
 926              	.LC1:
 927 0008 44656C65 		.ascii	"Delete\000"
 927      746500
 928 000f 00       		.align	2
ARM GAS  C:\Users\OSD\AppData\Local\Temp\cc7MtQgB.s 			page 30


 929              	.LC2:
 930 0010 53746F70 		.ascii	"Stop\000"
 930      00
 931              		.section	.text.lv_example_anim_timeline_1,"ax",%progbits
 932              		.align	1
 933              		.global	lv_example_anim_timeline_1
 934              		.syntax unified
 935              		.thumb
 936              		.thumb_func
 938              	lv_example_anim_timeline_1:
 939              	.LFB211:
 133:lvgl/examples/anim/lv_example_anim_timeline_1.c **** 
 134:lvgl/examples/anim/lv_example_anim_timeline_1.c **** /**
 135:lvgl/examples/anim/lv_example_anim_timeline_1.c ****  * Create an animation timeline
 136:lvgl/examples/anim/lv_example_anim_timeline_1.c ****  */
 137:lvgl/examples/anim/lv_example_anim_timeline_1.c **** void lv_example_anim_timeline_1(void)
 138:lvgl/examples/anim/lv_example_anim_timeline_1.c **** {
 940              		.loc 1 138 1 is_stmt 1 view -0
 941              		.cfi_startproc
 942              		@ args = 0, pretend = 0, frame = 0
 943              		@ frame_needed = 0, uses_anonymous_args = 0
 944 0000 38B5     		push	{r3, r4, r5, lr}
 945              		.cfi_def_cfa_offset 16
 946              		.cfi_offset 3, -16
 947              		.cfi_offset 4, -12
 948              		.cfi_offset 5, -8
 949              		.cfi_offset 14, -4
 139:lvgl/examples/anim/lv_example_anim_timeline_1.c ****     lv_obj_t * par = lv_scr_act();
 950              		.loc 1 139 5 view .LVU290
 951              	.LBB168:
 952              	.LBI168:
 953              		.file 4 "lvgl/examples/anim/../../src/core/lv_disp.h"
   1:lvgl/examples/anim/../../src/core/lv_disp.h **** /**
   2:lvgl/examples/anim/../../src/core/lv_disp.h ****  * @file lv_disp.h
   3:lvgl/examples/anim/../../src/core/lv_disp.h ****  *
   4:lvgl/examples/anim/../../src/core/lv_disp.h ****  */
   5:lvgl/examples/anim/../../src/core/lv_disp.h **** 
   6:lvgl/examples/anim/../../src/core/lv_disp.h **** #ifndef LV_DISP_H
   7:lvgl/examples/anim/../../src/core/lv_disp.h **** #define LV_DISP_H
   8:lvgl/examples/anim/../../src/core/lv_disp.h **** 
   9:lvgl/examples/anim/../../src/core/lv_disp.h **** #ifdef __cplusplus
  10:lvgl/examples/anim/../../src/core/lv_disp.h **** extern "C" {
  11:lvgl/examples/anim/../../src/core/lv_disp.h **** #endif
  12:lvgl/examples/anim/../../src/core/lv_disp.h **** 
  13:lvgl/examples/anim/../../src/core/lv_disp.h **** /*********************
  14:lvgl/examples/anim/../../src/core/lv_disp.h ****  *      INCLUDES
  15:lvgl/examples/anim/../../src/core/lv_disp.h ****  *********************/
  16:lvgl/examples/anim/../../src/core/lv_disp.h **** #include "../hal/lv_hal.h"
  17:lvgl/examples/anim/../../src/core/lv_disp.h **** #include "lv_obj.h"
  18:lvgl/examples/anim/../../src/core/lv_disp.h **** #include "lv_theme.h"
  19:lvgl/examples/anim/../../src/core/lv_disp.h **** 
  20:lvgl/examples/anim/../../src/core/lv_disp.h **** /*********************
  21:lvgl/examples/anim/../../src/core/lv_disp.h ****  *      DEFINES
  22:lvgl/examples/anim/../../src/core/lv_disp.h ****  *********************/
  23:lvgl/examples/anim/../../src/core/lv_disp.h **** 
  24:lvgl/examples/anim/../../src/core/lv_disp.h **** /**********************
  25:lvgl/examples/anim/../../src/core/lv_disp.h ****  *      TYPEDEFS
ARM GAS  C:\Users\OSD\AppData\Local\Temp\cc7MtQgB.s 			page 31


  26:lvgl/examples/anim/../../src/core/lv_disp.h ****  **********************/
  27:lvgl/examples/anim/../../src/core/lv_disp.h **** 
  28:lvgl/examples/anim/../../src/core/lv_disp.h **** typedef enum {
  29:lvgl/examples/anim/../../src/core/lv_disp.h ****     LV_SCR_LOAD_ANIM_NONE,
  30:lvgl/examples/anim/../../src/core/lv_disp.h ****     LV_SCR_LOAD_ANIM_OVER_LEFT,
  31:lvgl/examples/anim/../../src/core/lv_disp.h ****     LV_SCR_LOAD_ANIM_OVER_RIGHT,
  32:lvgl/examples/anim/../../src/core/lv_disp.h ****     LV_SCR_LOAD_ANIM_OVER_TOP,
  33:lvgl/examples/anim/../../src/core/lv_disp.h ****     LV_SCR_LOAD_ANIM_OVER_BOTTOM,
  34:lvgl/examples/anim/../../src/core/lv_disp.h ****     LV_SCR_LOAD_ANIM_MOVE_LEFT,
  35:lvgl/examples/anim/../../src/core/lv_disp.h ****     LV_SCR_LOAD_ANIM_MOVE_RIGHT,
  36:lvgl/examples/anim/../../src/core/lv_disp.h ****     LV_SCR_LOAD_ANIM_MOVE_TOP,
  37:lvgl/examples/anim/../../src/core/lv_disp.h ****     LV_SCR_LOAD_ANIM_MOVE_BOTTOM,
  38:lvgl/examples/anim/../../src/core/lv_disp.h ****     LV_SCR_LOAD_ANIM_FADE_IN,
  39:lvgl/examples/anim/../../src/core/lv_disp.h ****     LV_SCR_LOAD_ANIM_FADE_ON = LV_SCR_LOAD_ANIM_FADE_IN, /*For backward compatibility*/
  40:lvgl/examples/anim/../../src/core/lv_disp.h ****     LV_SCR_LOAD_ANIM_FADE_OUT,
  41:lvgl/examples/anim/../../src/core/lv_disp.h ****     LV_SCR_LOAD_ANIM_OUT_LEFT,
  42:lvgl/examples/anim/../../src/core/lv_disp.h ****     LV_SCR_LOAD_ANIM_OUT_RIGHT,
  43:lvgl/examples/anim/../../src/core/lv_disp.h ****     LV_SCR_LOAD_ANIM_OUT_TOP,
  44:lvgl/examples/anim/../../src/core/lv_disp.h ****     LV_SCR_LOAD_ANIM_OUT_BOTTOM,
  45:lvgl/examples/anim/../../src/core/lv_disp.h **** } lv_scr_load_anim_t;
  46:lvgl/examples/anim/../../src/core/lv_disp.h **** 
  47:lvgl/examples/anim/../../src/core/lv_disp.h **** /**********************
  48:lvgl/examples/anim/../../src/core/lv_disp.h ****  * GLOBAL PROTOTYPES
  49:lvgl/examples/anim/../../src/core/lv_disp.h ****  **********************/
  50:lvgl/examples/anim/../../src/core/lv_disp.h **** 
  51:lvgl/examples/anim/../../src/core/lv_disp.h **** /**
  52:lvgl/examples/anim/../../src/core/lv_disp.h ****  * Return with a pointer to the active screen
  53:lvgl/examples/anim/../../src/core/lv_disp.h ****  * @param disp pointer to display which active screen should be get. (NULL to use the default
  54:lvgl/examples/anim/../../src/core/lv_disp.h ****  * screen)
  55:lvgl/examples/anim/../../src/core/lv_disp.h ****  * @return pointer to the active screen object (loaded by 'lv_scr_load()')
  56:lvgl/examples/anim/../../src/core/lv_disp.h ****  */
  57:lvgl/examples/anim/../../src/core/lv_disp.h **** lv_obj_t * lv_disp_get_scr_act(lv_disp_t * disp);
  58:lvgl/examples/anim/../../src/core/lv_disp.h **** 
  59:lvgl/examples/anim/../../src/core/lv_disp.h **** /**
  60:lvgl/examples/anim/../../src/core/lv_disp.h ****  * Return with a pointer to the previous screen. Only used during screen transitions.
  61:lvgl/examples/anim/../../src/core/lv_disp.h ****  * @param disp pointer to display which previous screen should be get. (NULL to use the default
  62:lvgl/examples/anim/../../src/core/lv_disp.h ****  * screen)
  63:lvgl/examples/anim/../../src/core/lv_disp.h ****  * @return pointer to the previous screen object or NULL if not used now
  64:lvgl/examples/anim/../../src/core/lv_disp.h ****  */
  65:lvgl/examples/anim/../../src/core/lv_disp.h **** lv_obj_t * lv_disp_get_scr_prev(lv_disp_t * disp);
  66:lvgl/examples/anim/../../src/core/lv_disp.h **** 
  67:lvgl/examples/anim/../../src/core/lv_disp.h **** /**
  68:lvgl/examples/anim/../../src/core/lv_disp.h ****  * Make a screen active
  69:lvgl/examples/anim/../../src/core/lv_disp.h ****  * @param scr pointer to a screen
  70:lvgl/examples/anim/../../src/core/lv_disp.h ****  */
  71:lvgl/examples/anim/../../src/core/lv_disp.h **** void lv_disp_load_scr(lv_obj_t * scr);
  72:lvgl/examples/anim/../../src/core/lv_disp.h **** 
  73:lvgl/examples/anim/../../src/core/lv_disp.h **** /**
  74:lvgl/examples/anim/../../src/core/lv_disp.h ****  * Return with the top layer. (Same on every screen and it is above the normal screen layer)
  75:lvgl/examples/anim/../../src/core/lv_disp.h ****  * @param disp pointer to display which top layer should be get. (NULL to use the default screen)
  76:lvgl/examples/anim/../../src/core/lv_disp.h ****  * @return pointer to the top layer object (transparent screen sized lv_obj)
  77:lvgl/examples/anim/../../src/core/lv_disp.h ****  */
  78:lvgl/examples/anim/../../src/core/lv_disp.h **** lv_obj_t * lv_disp_get_layer_top(lv_disp_t * disp);
  79:lvgl/examples/anim/../../src/core/lv_disp.h **** 
  80:lvgl/examples/anim/../../src/core/lv_disp.h **** /**
  81:lvgl/examples/anim/../../src/core/lv_disp.h ****  * Return with the sys. layer. (Same on every screen and it is above the normal screen and the top
  82:lvgl/examples/anim/../../src/core/lv_disp.h ****  * layer)
ARM GAS  C:\Users\OSD\AppData\Local\Temp\cc7MtQgB.s 			page 32


  83:lvgl/examples/anim/../../src/core/lv_disp.h ****  * @param disp pointer to display which sys. layer should be retrieved. (NULL to use the default sc
  84:lvgl/examples/anim/../../src/core/lv_disp.h ****  * @return pointer to the sys layer object (transparent screen sized lv_obj)
  85:lvgl/examples/anim/../../src/core/lv_disp.h ****  */
  86:lvgl/examples/anim/../../src/core/lv_disp.h **** lv_obj_t * lv_disp_get_layer_sys(lv_disp_t * disp);
  87:lvgl/examples/anim/../../src/core/lv_disp.h **** 
  88:lvgl/examples/anim/../../src/core/lv_disp.h **** /**
  89:lvgl/examples/anim/../../src/core/lv_disp.h ****  * Set the theme of a display
  90:lvgl/examples/anim/../../src/core/lv_disp.h ****  * @param disp pointer to a display
  91:lvgl/examples/anim/../../src/core/lv_disp.h ****  */
  92:lvgl/examples/anim/../../src/core/lv_disp.h **** void lv_disp_set_theme(lv_disp_t * disp, lv_theme_t * th);
  93:lvgl/examples/anim/../../src/core/lv_disp.h **** 
  94:lvgl/examples/anim/../../src/core/lv_disp.h **** /**
  95:lvgl/examples/anim/../../src/core/lv_disp.h ****  * Get the theme of a display
  96:lvgl/examples/anim/../../src/core/lv_disp.h ****  * @param disp pointer to a display
  97:lvgl/examples/anim/../../src/core/lv_disp.h ****  * @return the display's theme (can be NULL)
  98:lvgl/examples/anim/../../src/core/lv_disp.h ****  */
  99:lvgl/examples/anim/../../src/core/lv_disp.h **** lv_theme_t * lv_disp_get_theme(lv_disp_t * disp);
 100:lvgl/examples/anim/../../src/core/lv_disp.h **** 
 101:lvgl/examples/anim/../../src/core/lv_disp.h **** /**
 102:lvgl/examples/anim/../../src/core/lv_disp.h ****  * Set the background color of a display
 103:lvgl/examples/anim/../../src/core/lv_disp.h ****  * @param disp pointer to a display
 104:lvgl/examples/anim/../../src/core/lv_disp.h ****  * @param color color of the background
 105:lvgl/examples/anim/../../src/core/lv_disp.h ****  */
 106:lvgl/examples/anim/../../src/core/lv_disp.h **** void lv_disp_set_bg_color(lv_disp_t * disp, lv_color_t color);
 107:lvgl/examples/anim/../../src/core/lv_disp.h **** 
 108:lvgl/examples/anim/../../src/core/lv_disp.h **** /**
 109:lvgl/examples/anim/../../src/core/lv_disp.h ****  * Set the background image of a display
 110:lvgl/examples/anim/../../src/core/lv_disp.h ****  * @param disp pointer to a display
 111:lvgl/examples/anim/../../src/core/lv_disp.h ****  * @param img_src path to file or pointer to an `lv_img_dsc_t` variable
 112:lvgl/examples/anim/../../src/core/lv_disp.h ****  */
 113:lvgl/examples/anim/../../src/core/lv_disp.h **** void lv_disp_set_bg_image(lv_disp_t * disp, const void  * img_src);
 114:lvgl/examples/anim/../../src/core/lv_disp.h **** 
 115:lvgl/examples/anim/../../src/core/lv_disp.h **** /**
 116:lvgl/examples/anim/../../src/core/lv_disp.h ****  * Set opacity of the background
 117:lvgl/examples/anim/../../src/core/lv_disp.h ****  * @param disp pointer to a display
 118:lvgl/examples/anim/../../src/core/lv_disp.h ****  * @param opa opacity (0..255)
 119:lvgl/examples/anim/../../src/core/lv_disp.h ****  */
 120:lvgl/examples/anim/../../src/core/lv_disp.h **** void lv_disp_set_bg_opa(lv_disp_t * disp, lv_opa_t opa);
 121:lvgl/examples/anim/../../src/core/lv_disp.h **** 
 122:lvgl/examples/anim/../../src/core/lv_disp.h **** /**
 123:lvgl/examples/anim/../../src/core/lv_disp.h ****  * Switch screen with animation
 124:lvgl/examples/anim/../../src/core/lv_disp.h ****  * @param scr pointer to the new screen to load
 125:lvgl/examples/anim/../../src/core/lv_disp.h ****  * @param anim_type type of the animation from `lv_scr_load_anim_t`, e.g. `LV_SCR_LOAD_ANIM_MOVE_LE
 126:lvgl/examples/anim/../../src/core/lv_disp.h ****  * @param time time of the animation
 127:lvgl/examples/anim/../../src/core/lv_disp.h ****  * @param delay delay before the transition
 128:lvgl/examples/anim/../../src/core/lv_disp.h ****  * @param auto_del true: automatically delete the old screen
 129:lvgl/examples/anim/../../src/core/lv_disp.h ****  */
 130:lvgl/examples/anim/../../src/core/lv_disp.h **** void lv_scr_load_anim(lv_obj_t * scr, lv_scr_load_anim_t anim_type, uint32_t time, uint32_t delay, 
 131:lvgl/examples/anim/../../src/core/lv_disp.h **** 
 132:lvgl/examples/anim/../../src/core/lv_disp.h **** /**
 133:lvgl/examples/anim/../../src/core/lv_disp.h ****  * Get elapsed time since last user activity on a display (e.g. click)
 134:lvgl/examples/anim/../../src/core/lv_disp.h ****  * @param disp pointer to a display (NULL to get the overall smallest inactivity)
 135:lvgl/examples/anim/../../src/core/lv_disp.h ****  * @return elapsed ticks (milliseconds) since the last activity
 136:lvgl/examples/anim/../../src/core/lv_disp.h ****  */
 137:lvgl/examples/anim/../../src/core/lv_disp.h **** uint32_t lv_disp_get_inactive_time(const lv_disp_t * disp);
 138:lvgl/examples/anim/../../src/core/lv_disp.h **** 
 139:lvgl/examples/anim/../../src/core/lv_disp.h **** /**
ARM GAS  C:\Users\OSD\AppData\Local\Temp\cc7MtQgB.s 			page 33


 140:lvgl/examples/anim/../../src/core/lv_disp.h ****  * Manually trigger an activity on a display
 141:lvgl/examples/anim/../../src/core/lv_disp.h ****  * @param disp pointer to a display (NULL to use the default display)
 142:lvgl/examples/anim/../../src/core/lv_disp.h ****  */
 143:lvgl/examples/anim/../../src/core/lv_disp.h **** void lv_disp_trig_activity(lv_disp_t * disp);
 144:lvgl/examples/anim/../../src/core/lv_disp.h **** 
 145:lvgl/examples/anim/../../src/core/lv_disp.h **** /**
 146:lvgl/examples/anim/../../src/core/lv_disp.h ****  * Clean any CPU cache that is related to the display.
 147:lvgl/examples/anim/../../src/core/lv_disp.h ****  * @param disp pointer to a display (NULL to use the default display)
 148:lvgl/examples/anim/../../src/core/lv_disp.h ****  */
 149:lvgl/examples/anim/../../src/core/lv_disp.h **** void lv_disp_clean_dcache(lv_disp_t * disp);
 150:lvgl/examples/anim/../../src/core/lv_disp.h **** 
 151:lvgl/examples/anim/../../src/core/lv_disp.h **** /**
 152:lvgl/examples/anim/../../src/core/lv_disp.h ****  * Temporarily enable and disable the invalidation of the display.
 153:lvgl/examples/anim/../../src/core/lv_disp.h ****  * @param disp pointer to a display (NULL to use the default display)
 154:lvgl/examples/anim/../../src/core/lv_disp.h ****  * @param en true: enable invalidation; false: invalidation
 155:lvgl/examples/anim/../../src/core/lv_disp.h ****  */
 156:lvgl/examples/anim/../../src/core/lv_disp.h **** void lv_disp_enable_invalidation(lv_disp_t * disp, bool en);
 157:lvgl/examples/anim/../../src/core/lv_disp.h **** 
 158:lvgl/examples/anim/../../src/core/lv_disp.h **** /**
 159:lvgl/examples/anim/../../src/core/lv_disp.h ****  * Get display invalidation is enabled.
 160:lvgl/examples/anim/../../src/core/lv_disp.h ****  * @param disp pointer to a display (NULL to use the default display)
 161:lvgl/examples/anim/../../src/core/lv_disp.h ****  * @return return true if invalidation is enabled
 162:lvgl/examples/anim/../../src/core/lv_disp.h ****  */
 163:lvgl/examples/anim/../../src/core/lv_disp.h **** bool lv_disp_is_invalidation_enabled(lv_disp_t * disp);
 164:lvgl/examples/anim/../../src/core/lv_disp.h **** 
 165:lvgl/examples/anim/../../src/core/lv_disp.h **** /**
 166:lvgl/examples/anim/../../src/core/lv_disp.h ****  * Get a pointer to the screen refresher timer to
 167:lvgl/examples/anim/../../src/core/lv_disp.h ****  * modify its parameters with `lv_timer_...` functions.
 168:lvgl/examples/anim/../../src/core/lv_disp.h ****  * @param disp pointer to a display
 169:lvgl/examples/anim/../../src/core/lv_disp.h ****  * @return pointer to the display refresher timer. (NULL on error)
 170:lvgl/examples/anim/../../src/core/lv_disp.h ****  */
 171:lvgl/examples/anim/../../src/core/lv_disp.h **** lv_timer_t * _lv_disp_get_refr_timer(lv_disp_t * disp);
 172:lvgl/examples/anim/../../src/core/lv_disp.h **** 
 173:lvgl/examples/anim/../../src/core/lv_disp.h **** /*------------------------------------------------
 174:lvgl/examples/anim/../../src/core/lv_disp.h ****  * To improve backward compatibility
 175:lvgl/examples/anim/../../src/core/lv_disp.h ****  * Recommended only if you have one display
 176:lvgl/examples/anim/../../src/core/lv_disp.h ****  *------------------------------------------------*/
 177:lvgl/examples/anim/../../src/core/lv_disp.h **** 
 178:lvgl/examples/anim/../../src/core/lv_disp.h **** /**
 179:lvgl/examples/anim/../../src/core/lv_disp.h ****  * Get the active screen of the default display
 180:lvgl/examples/anim/../../src/core/lv_disp.h ****  * @return pointer to the active screen
 181:lvgl/examples/anim/../../src/core/lv_disp.h ****  */
 182:lvgl/examples/anim/../../src/core/lv_disp.h **** static inline lv_obj_t * lv_scr_act(void)
 954              		.loc 4 182 26 view .LVU291
 955              	.LBB169:
 183:lvgl/examples/anim/../../src/core/lv_disp.h **** {
 184:lvgl/examples/anim/../../src/core/lv_disp.h ****     return lv_disp_get_scr_act(lv_disp_get_default());
 956              		.loc 4 184 5 view .LVU292
 957              		.loc 4 184 12 is_stmt 0 view .LVU293
 958 0002 FFF7FEFF 		bl	lv_disp_get_default
 959              	.LVL87:
 960 0006 FFF7FEFF 		bl	lv_disp_get_scr_act
 961              	.LVL88:
 962 000a 0446     		mov	r4, r0
 963              	.LVL89:
 964              		.loc 4 184 12 view .LVU294
 965              	.LBE169:
ARM GAS  C:\Users\OSD\AppData\Local\Temp\cc7MtQgB.s 			page 34


 966              	.LBE168:
 140:lvgl/examples/anim/lv_example_anim_timeline_1.c ****     lv_obj_set_flex_flow(par, LV_FLEX_FLOW_ROW);
 967              		.loc 1 140 5 is_stmt 1 view .LVU295
 968 000c 0021     		movs	r1, #0
 969 000e FFF7FEFF 		bl	lv_obj_set_flex_flow
 970              	.LVL90:
 141:lvgl/examples/anim/lv_example_anim_timeline_1.c ****     lv_obj_set_flex_align(par, LV_FLEX_ALIGN_SPACE_AROUND, LV_FLEX_ALIGN_CENTER, LV_FLEX_ALIGN_CENT
 971              		.loc 1 141 5 view .LVU296
 972 0012 0223     		movs	r3, #2
 973 0014 1A46     		mov	r2, r3
 974 0016 0421     		movs	r1, #4
 975 0018 2046     		mov	r0, r4
 976 001a FFF7FEFF 		bl	lv_obj_set_flex_align
 977              	.LVL91:
 142:lvgl/examples/anim/lv_example_anim_timeline_1.c **** 
 143:lvgl/examples/anim/lv_example_anim_timeline_1.c ****     /* create btn_start */
 144:lvgl/examples/anim/lv_example_anim_timeline_1.c ****     lv_obj_t * btn_start = lv_btn_create(par);
 978              		.loc 1 144 5 view .LVU297
 979              		.loc 1 144 28 is_stmt 0 view .LVU298
 980 001e 2046     		mov	r0, r4
 981 0020 FFF7FEFF 		bl	lv_btn_create
 982              	.LVL92:
 983 0024 0546     		mov	r5, r0
 984              	.LVL93:
 145:lvgl/examples/anim/lv_example_anim_timeline_1.c ****     lv_obj_add_event_cb(btn_start, btn_start_event_handler, LV_EVENT_VALUE_CHANGED, NULL);
 985              		.loc 1 145 5 is_stmt 1 view .LVU299
 986 0026 0023     		movs	r3, #0
 987 0028 1C22     		movs	r2, #28
 988 002a 4C49     		ldr	r1, .L33
 989 002c FFF7FEFF 		bl	lv_obj_add_event_cb
 990              	.LVL94:
 146:lvgl/examples/anim/lv_example_anim_timeline_1.c ****     lv_obj_add_flag(btn_start, LV_OBJ_FLAG_IGNORE_LAYOUT);
 991              		.loc 1 146 5 view .LVU300
 992 0030 4FF40031 		mov	r1, #131072
 993 0034 2846     		mov	r0, r5
 994 0036 FFF7FEFF 		bl	lv_obj_add_flag
 995              	.LVL95:
 147:lvgl/examples/anim/lv_example_anim_timeline_1.c ****     lv_obj_add_flag(btn_start, LV_OBJ_FLAG_CHECKABLE);
 996              		.loc 1 147 5 view .LVU301
 997 003a 0821     		movs	r1, #8
 998 003c 2846     		mov	r0, r5
 999 003e FFF7FEFF 		bl	lv_obj_add_flag
 1000              	.LVL96:
 148:lvgl/examples/anim/lv_example_anim_timeline_1.c ****     lv_obj_align(btn_start, LV_ALIGN_TOP_MID, -100, 20);
 1001              		.loc 1 148 5 view .LVU302
 1002 0042 1423     		movs	r3, #20
 1003 0044 6FF06302 		mvn	r2, #99
 1004 0048 0221     		movs	r1, #2
 1005 004a 2846     		mov	r0, r5
 1006 004c FFF7FEFF 		bl	lv_obj_align
 1007              	.LVL97:
 149:lvgl/examples/anim/lv_example_anim_timeline_1.c **** 
 150:lvgl/examples/anim/lv_example_anim_timeline_1.c ****     lv_obj_t * label_start = lv_label_create(btn_start);
 1008              		.loc 1 150 5 view .LVU303
 1009              		.loc 1 150 30 is_stmt 0 view .LVU304
 1010 0050 2846     		mov	r0, r5
 1011 0052 FFF7FEFF 		bl	lv_label_create
ARM GAS  C:\Users\OSD\AppData\Local\Temp\cc7MtQgB.s 			page 35


 1012              	.LVL98:
 1013 0056 0546     		mov	r5, r0
 1014              	.LVL99:
 151:lvgl/examples/anim/lv_example_anim_timeline_1.c ****     lv_label_set_text(label_start, "Start");
 1015              		.loc 1 151 5 is_stmt 1 view .LVU305
 1016 0058 4149     		ldr	r1, .L33+4
 1017 005a FFF7FEFF 		bl	lv_label_set_text
 1018              	.LVL100:
 152:lvgl/examples/anim/lv_example_anim_timeline_1.c ****     lv_obj_center(label_start);
 1019              		.loc 1 152 5 view .LVU306
 1020              	.LBB170:
 1021              	.LBI170:
 1022              		.file 5 "d:\\kzc\\stm32\\h743ii_lcd\\lvgl\\src\\core\\lv_obj_pos.h"
   1:d:\kzc\stm32\h743ii_lcd\lvgl\src\core\lv_obj_pos.h **** /**
   2:d:\kzc\stm32\h743ii_lcd\lvgl\src\core\lv_obj_pos.h ****  * @file lv_obj_pos.h
   3:d:\kzc\stm32\h743ii_lcd\lvgl\src\core\lv_obj_pos.h ****  *
   4:d:\kzc\stm32\h743ii_lcd\lvgl\src\core\lv_obj_pos.h ****  */
   5:d:\kzc\stm32\h743ii_lcd\lvgl\src\core\lv_obj_pos.h **** 
   6:d:\kzc\stm32\h743ii_lcd\lvgl\src\core\lv_obj_pos.h **** #ifndef LV_OBJ_POS_H
   7:d:\kzc\stm32\h743ii_lcd\lvgl\src\core\lv_obj_pos.h **** #define LV_OBJ_POS_H
   8:d:\kzc\stm32\h743ii_lcd\lvgl\src\core\lv_obj_pos.h **** 
   9:d:\kzc\stm32\h743ii_lcd\lvgl\src\core\lv_obj_pos.h **** #ifdef __cplusplus
  10:d:\kzc\stm32\h743ii_lcd\lvgl\src\core\lv_obj_pos.h **** extern "C" {
  11:d:\kzc\stm32\h743ii_lcd\lvgl\src\core\lv_obj_pos.h **** #endif
  12:d:\kzc\stm32\h743ii_lcd\lvgl\src\core\lv_obj_pos.h **** 
  13:d:\kzc\stm32\h743ii_lcd\lvgl\src\core\lv_obj_pos.h **** /*********************
  14:d:\kzc\stm32\h743ii_lcd\lvgl\src\core\lv_obj_pos.h ****  *      INCLUDES
  15:d:\kzc\stm32\h743ii_lcd\lvgl\src\core\lv_obj_pos.h ****  *********************/
  16:d:\kzc\stm32\h743ii_lcd\lvgl\src\core\lv_obj_pos.h **** #include "../misc/lv_area.h"
  17:d:\kzc\stm32\h743ii_lcd\lvgl\src\core\lv_obj_pos.h **** 
  18:d:\kzc\stm32\h743ii_lcd\lvgl\src\core\lv_obj_pos.h **** /*********************
  19:d:\kzc\stm32\h743ii_lcd\lvgl\src\core\lv_obj_pos.h ****  *      DEFINES
  20:d:\kzc\stm32\h743ii_lcd\lvgl\src\core\lv_obj_pos.h ****  *********************/
  21:d:\kzc\stm32\h743ii_lcd\lvgl\src\core\lv_obj_pos.h **** 
  22:d:\kzc\stm32\h743ii_lcd\lvgl\src\core\lv_obj_pos.h **** /**********************
  23:d:\kzc\stm32\h743ii_lcd\lvgl\src\core\lv_obj_pos.h ****  *      TYPEDEFS
  24:d:\kzc\stm32\h743ii_lcd\lvgl\src\core\lv_obj_pos.h ****  **********************/
  25:d:\kzc\stm32\h743ii_lcd\lvgl\src\core\lv_obj_pos.h **** struct _lv_obj_t;
  26:d:\kzc\stm32\h743ii_lcd\lvgl\src\core\lv_obj_pos.h **** 
  27:d:\kzc\stm32\h743ii_lcd\lvgl\src\core\lv_obj_pos.h **** typedef void (*lv_layout_update_cb_t)(struct _lv_obj_t *, void * user_data);
  28:d:\kzc\stm32\h743ii_lcd\lvgl\src\core\lv_obj_pos.h **** typedef struct {
  29:d:\kzc\stm32\h743ii_lcd\lvgl\src\core\lv_obj_pos.h ****     lv_layout_update_cb_t cb;
  30:d:\kzc\stm32\h743ii_lcd\lvgl\src\core\lv_obj_pos.h ****     void * user_data;
  31:d:\kzc\stm32\h743ii_lcd\lvgl\src\core\lv_obj_pos.h **** } lv_layout_dsc_t;
  32:d:\kzc\stm32\h743ii_lcd\lvgl\src\core\lv_obj_pos.h **** 
  33:d:\kzc\stm32\h743ii_lcd\lvgl\src\core\lv_obj_pos.h **** /**********************
  34:d:\kzc\stm32\h743ii_lcd\lvgl\src\core\lv_obj_pos.h ****  * GLOBAL PROTOTYPES
  35:d:\kzc\stm32\h743ii_lcd\lvgl\src\core\lv_obj_pos.h ****  **********************/
  36:d:\kzc\stm32\h743ii_lcd\lvgl\src\core\lv_obj_pos.h **** 
  37:d:\kzc\stm32\h743ii_lcd\lvgl\src\core\lv_obj_pos.h **** /**
  38:d:\kzc\stm32\h743ii_lcd\lvgl\src\core\lv_obj_pos.h ****  * Set the position of an object relative to the set alignment.
  39:d:\kzc\stm32\h743ii_lcd\lvgl\src\core\lv_obj_pos.h ****  * @param obj       pointer to an object
  40:d:\kzc\stm32\h743ii_lcd\lvgl\src\core\lv_obj_pos.h ****  * @param x         new x coordinate
  41:d:\kzc\stm32\h743ii_lcd\lvgl\src\core\lv_obj_pos.h ****  * @param y         new y coordinate
  42:d:\kzc\stm32\h743ii_lcd\lvgl\src\core\lv_obj_pos.h ****  * @note            With default alignment it's the distance from the top left corner
  43:d:\kzc\stm32\h743ii_lcd\lvgl\src\core\lv_obj_pos.h ****  * @note            E.g. LV_ALIGN_CENTER alignment it's the offset from the center of the parent
  44:d:\kzc\stm32\h743ii_lcd\lvgl\src\core\lv_obj_pos.h ****  * @note            The position is interpreted on the content area of the parent
ARM GAS  C:\Users\OSD\AppData\Local\Temp\cc7MtQgB.s 			page 36


  45:d:\kzc\stm32\h743ii_lcd\lvgl\src\core\lv_obj_pos.h ****  * @note            The values can be set in pixel or in percentage of parent size with `lv_pct(v)`
  46:d:\kzc\stm32\h743ii_lcd\lvgl\src\core\lv_obj_pos.h ****  */
  47:d:\kzc\stm32\h743ii_lcd\lvgl\src\core\lv_obj_pos.h **** void lv_obj_set_pos(struct _lv_obj_t * obj, lv_coord_t x, lv_coord_t y);
  48:d:\kzc\stm32\h743ii_lcd\lvgl\src\core\lv_obj_pos.h **** 
  49:d:\kzc\stm32\h743ii_lcd\lvgl\src\core\lv_obj_pos.h **** /**
  50:d:\kzc\stm32\h743ii_lcd\lvgl\src\core\lv_obj_pos.h ****  * Set the x coordinate of an object
  51:d:\kzc\stm32\h743ii_lcd\lvgl\src\core\lv_obj_pos.h ****  * @param obj       pointer to an object
  52:d:\kzc\stm32\h743ii_lcd\lvgl\src\core\lv_obj_pos.h ****  * @param x         new x coordinate
  53:d:\kzc\stm32\h743ii_lcd\lvgl\src\core\lv_obj_pos.h ****  * @note            With default alignment it's the distance from the top left corner
  54:d:\kzc\stm32\h743ii_lcd\lvgl\src\core\lv_obj_pos.h ****  * @note            E.g. LV_ALIGN_CENTER alignment it's the offset from the center of the parent
  55:d:\kzc\stm32\h743ii_lcd\lvgl\src\core\lv_obj_pos.h ****  * @note            The position is interpreted on the content area of the parent
  56:d:\kzc\stm32\h743ii_lcd\lvgl\src\core\lv_obj_pos.h ****  * @note            The values can be set in pixel or in percentage of parent size with `lv_pct(v)`
  57:d:\kzc\stm32\h743ii_lcd\lvgl\src\core\lv_obj_pos.h ****  */
  58:d:\kzc\stm32\h743ii_lcd\lvgl\src\core\lv_obj_pos.h **** void lv_obj_set_x(struct _lv_obj_t * obj, lv_coord_t x);
  59:d:\kzc\stm32\h743ii_lcd\lvgl\src\core\lv_obj_pos.h **** 
  60:d:\kzc\stm32\h743ii_lcd\lvgl\src\core\lv_obj_pos.h **** /**
  61:d:\kzc\stm32\h743ii_lcd\lvgl\src\core\lv_obj_pos.h ****  * Set the y coordinate of an object
  62:d:\kzc\stm32\h743ii_lcd\lvgl\src\core\lv_obj_pos.h ****  * @param obj       pointer to an object
  63:d:\kzc\stm32\h743ii_lcd\lvgl\src\core\lv_obj_pos.h ****  * @param y         new y coordinate
  64:d:\kzc\stm32\h743ii_lcd\lvgl\src\core\lv_obj_pos.h ****  * @note            With default alignment it's the distance from the top left corner
  65:d:\kzc\stm32\h743ii_lcd\lvgl\src\core\lv_obj_pos.h ****  * @note            E.g. LV_ALIGN_CENTER alignment it's the offset from the center of the parent
  66:d:\kzc\stm32\h743ii_lcd\lvgl\src\core\lv_obj_pos.h ****  * @note            The position is interpreted on the content area of the parent
  67:d:\kzc\stm32\h743ii_lcd\lvgl\src\core\lv_obj_pos.h ****  * @note            The values can be set in pixel or in percentage of parent size with `lv_pct(v)`
  68:d:\kzc\stm32\h743ii_lcd\lvgl\src\core\lv_obj_pos.h ****  */
  69:d:\kzc\stm32\h743ii_lcd\lvgl\src\core\lv_obj_pos.h **** void lv_obj_set_y(struct _lv_obj_t * obj, lv_coord_t y);
  70:d:\kzc\stm32\h743ii_lcd\lvgl\src\core\lv_obj_pos.h **** 
  71:d:\kzc\stm32\h743ii_lcd\lvgl\src\core\lv_obj_pos.h **** /**
  72:d:\kzc\stm32\h743ii_lcd\lvgl\src\core\lv_obj_pos.h ****  * Set the size of an object.
  73:d:\kzc\stm32\h743ii_lcd\lvgl\src\core\lv_obj_pos.h ****  * @param obj       pointer to an object
  74:d:\kzc\stm32\h743ii_lcd\lvgl\src\core\lv_obj_pos.h ****  * @param w         the new width
  75:d:\kzc\stm32\h743ii_lcd\lvgl\src\core\lv_obj_pos.h ****  * @param h         the new height
  76:d:\kzc\stm32\h743ii_lcd\lvgl\src\core\lv_obj_pos.h ****  * @note            possible values are:
  77:d:\kzc\stm32\h743ii_lcd\lvgl\src\core\lv_obj_pos.h ****  *                  pixel               simple set the size accordingly
  78:d:\kzc\stm32\h743ii_lcd\lvgl\src\core\lv_obj_pos.h ****  *                  LV_SIZE_CONTENT     set the size to involve all children in the given direction
  79:d:\kzc\stm32\h743ii_lcd\lvgl\src\core\lv_obj_pos.h ****  *                  LV_SIZE_PCT(x)     to set size in percentage of the parent's content area size 
  80:d:\kzc\stm32\h743ii_lcd\lvgl\src\core\lv_obj_pos.h ****  *                                      x should be in [0..1000]% range
  81:d:\kzc\stm32\h743ii_lcd\lvgl\src\core\lv_obj_pos.h ****  */
  82:d:\kzc\stm32\h743ii_lcd\lvgl\src\core\lv_obj_pos.h **** void lv_obj_set_size(struct _lv_obj_t * obj, lv_coord_t w, lv_coord_t h);
  83:d:\kzc\stm32\h743ii_lcd\lvgl\src\core\lv_obj_pos.h **** 
  84:d:\kzc\stm32\h743ii_lcd\lvgl\src\core\lv_obj_pos.h **** /**
  85:d:\kzc\stm32\h743ii_lcd\lvgl\src\core\lv_obj_pos.h ****  * Recalculate the size of the object
  86:d:\kzc\stm32\h743ii_lcd\lvgl\src\core\lv_obj_pos.h ****  * @param obj       pointer to an object
  87:d:\kzc\stm32\h743ii_lcd\lvgl\src\core\lv_obj_pos.h ****  * @return          true: the size has been changed
  88:d:\kzc\stm32\h743ii_lcd\lvgl\src\core\lv_obj_pos.h ****  */
  89:d:\kzc\stm32\h743ii_lcd\lvgl\src\core\lv_obj_pos.h **** bool lv_obj_refr_size(struct _lv_obj_t * obj);
  90:d:\kzc\stm32\h743ii_lcd\lvgl\src\core\lv_obj_pos.h **** 
  91:d:\kzc\stm32\h743ii_lcd\lvgl\src\core\lv_obj_pos.h **** /**
  92:d:\kzc\stm32\h743ii_lcd\lvgl\src\core\lv_obj_pos.h ****  * Set the width of an object
  93:d:\kzc\stm32\h743ii_lcd\lvgl\src\core\lv_obj_pos.h ****  * @param obj       pointer to an object
  94:d:\kzc\stm32\h743ii_lcd\lvgl\src\core\lv_obj_pos.h ****  * @param w         the new width
  95:d:\kzc\stm32\h743ii_lcd\lvgl\src\core\lv_obj_pos.h ****  * @note            possible values are:
  96:d:\kzc\stm32\h743ii_lcd\lvgl\src\core\lv_obj_pos.h ****  *                  pixel               simple set the size accordingly
  97:d:\kzc\stm32\h743ii_lcd\lvgl\src\core\lv_obj_pos.h ****  *                  LV_SIZE_CONTENT     set the size to involve all children in the given direction
  98:d:\kzc\stm32\h743ii_lcd\lvgl\src\core\lv_obj_pos.h ****  *                  lv_pct(x)           to set size in percentage of the parent's content area size
  99:d:\kzc\stm32\h743ii_lcd\lvgl\src\core\lv_obj_pos.h ****  *                                      x should be in [0..1000]% range
 100:d:\kzc\stm32\h743ii_lcd\lvgl\src\core\lv_obj_pos.h ****  */
 101:d:\kzc\stm32\h743ii_lcd\lvgl\src\core\lv_obj_pos.h **** void lv_obj_set_width(struct _lv_obj_t * obj, lv_coord_t w);
ARM GAS  C:\Users\OSD\AppData\Local\Temp\cc7MtQgB.s 			page 37


 102:d:\kzc\stm32\h743ii_lcd\lvgl\src\core\lv_obj_pos.h **** 
 103:d:\kzc\stm32\h743ii_lcd\lvgl\src\core\lv_obj_pos.h **** /**
 104:d:\kzc\stm32\h743ii_lcd\lvgl\src\core\lv_obj_pos.h ****  * Set the height of an object
 105:d:\kzc\stm32\h743ii_lcd\lvgl\src\core\lv_obj_pos.h ****  * @param obj       pointer to an object
 106:d:\kzc\stm32\h743ii_lcd\lvgl\src\core\lv_obj_pos.h ****  * @param h         the new height
 107:d:\kzc\stm32\h743ii_lcd\lvgl\src\core\lv_obj_pos.h ****  * @note            possible values are:
 108:d:\kzc\stm32\h743ii_lcd\lvgl\src\core\lv_obj_pos.h ****  *                  pixel               simple set the size accordingly
 109:d:\kzc\stm32\h743ii_lcd\lvgl\src\core\lv_obj_pos.h ****  *                  LV_SIZE_CONTENT     set the size to involve all children in the given direction
 110:d:\kzc\stm32\h743ii_lcd\lvgl\src\core\lv_obj_pos.h ****  *                  lv_pct(x)           to set size in percentage of the parent's content area size
 111:d:\kzc\stm32\h743ii_lcd\lvgl\src\core\lv_obj_pos.h ****  *                                      x should be in [0..1000]% range
 112:d:\kzc\stm32\h743ii_lcd\lvgl\src\core\lv_obj_pos.h ****  */
 113:d:\kzc\stm32\h743ii_lcd\lvgl\src\core\lv_obj_pos.h **** void lv_obj_set_height(struct _lv_obj_t * obj, lv_coord_t h);
 114:d:\kzc\stm32\h743ii_lcd\lvgl\src\core\lv_obj_pos.h **** 
 115:d:\kzc\stm32\h743ii_lcd\lvgl\src\core\lv_obj_pos.h **** /**
 116:d:\kzc\stm32\h743ii_lcd\lvgl\src\core\lv_obj_pos.h ****  * Set the width reduced by the left and right padding and the border width.
 117:d:\kzc\stm32\h743ii_lcd\lvgl\src\core\lv_obj_pos.h ****  * @param obj       pointer to an object
 118:d:\kzc\stm32\h743ii_lcd\lvgl\src\core\lv_obj_pos.h ****  * @param w         the width without paddings in pixels
 119:d:\kzc\stm32\h743ii_lcd\lvgl\src\core\lv_obj_pos.h ****  */
 120:d:\kzc\stm32\h743ii_lcd\lvgl\src\core\lv_obj_pos.h **** void lv_obj_set_content_width(struct _lv_obj_t * obj, lv_coord_t w);
 121:d:\kzc\stm32\h743ii_lcd\lvgl\src\core\lv_obj_pos.h **** 
 122:d:\kzc\stm32\h743ii_lcd\lvgl\src\core\lv_obj_pos.h **** /**
 123:d:\kzc\stm32\h743ii_lcd\lvgl\src\core\lv_obj_pos.h ****  * Set the height reduced by the top and bottom padding and the border width.
 124:d:\kzc\stm32\h743ii_lcd\lvgl\src\core\lv_obj_pos.h ****  * @param obj       pointer to an object
 125:d:\kzc\stm32\h743ii_lcd\lvgl\src\core\lv_obj_pos.h ****  * @param h         the height without paddings in pixels
 126:d:\kzc\stm32\h743ii_lcd\lvgl\src\core\lv_obj_pos.h ****  */
 127:d:\kzc\stm32\h743ii_lcd\lvgl\src\core\lv_obj_pos.h **** void lv_obj_set_content_height(struct _lv_obj_t * obj, lv_coord_t h);
 128:d:\kzc\stm32\h743ii_lcd\lvgl\src\core\lv_obj_pos.h **** 
 129:d:\kzc\stm32\h743ii_lcd\lvgl\src\core\lv_obj_pos.h **** /**
 130:d:\kzc\stm32\h743ii_lcd\lvgl\src\core\lv_obj_pos.h ****  * Set a layout for an object
 131:d:\kzc\stm32\h743ii_lcd\lvgl\src\core\lv_obj_pos.h ****  * @param obj       pointer to an object
 132:d:\kzc\stm32\h743ii_lcd\lvgl\src\core\lv_obj_pos.h ****  * @param layout    pointer to a layout descriptor to set
 133:d:\kzc\stm32\h743ii_lcd\lvgl\src\core\lv_obj_pos.h ****  */
 134:d:\kzc\stm32\h743ii_lcd\lvgl\src\core\lv_obj_pos.h **** void lv_obj_set_layout(struct _lv_obj_t * obj, uint32_t layout);
 135:d:\kzc\stm32\h743ii_lcd\lvgl\src\core\lv_obj_pos.h **** 
 136:d:\kzc\stm32\h743ii_lcd\lvgl\src\core\lv_obj_pos.h **** /**
 137:d:\kzc\stm32\h743ii_lcd\lvgl\src\core\lv_obj_pos.h ****  * Test whether the and object is positioned by a layout or not
 138:d:\kzc\stm32\h743ii_lcd\lvgl\src\core\lv_obj_pos.h ****  * @param obj       pointer to an object to test
 139:d:\kzc\stm32\h743ii_lcd\lvgl\src\core\lv_obj_pos.h ****  * @return true:    positioned by a layout; false: not positioned by a layout
 140:d:\kzc\stm32\h743ii_lcd\lvgl\src\core\lv_obj_pos.h ****  */
 141:d:\kzc\stm32\h743ii_lcd\lvgl\src\core\lv_obj_pos.h **** bool lv_obj_is_layout_positioned(const struct _lv_obj_t * obj);
 142:d:\kzc\stm32\h743ii_lcd\lvgl\src\core\lv_obj_pos.h **** 
 143:d:\kzc\stm32\h743ii_lcd\lvgl\src\core\lv_obj_pos.h **** /**
 144:d:\kzc\stm32\h743ii_lcd\lvgl\src\core\lv_obj_pos.h ****  * Mark the object for layout update.
 145:d:\kzc\stm32\h743ii_lcd\lvgl\src\core\lv_obj_pos.h ****  * @param obj      pointer to an object whose children needs to be updated
 146:d:\kzc\stm32\h743ii_lcd\lvgl\src\core\lv_obj_pos.h ****  */
 147:d:\kzc\stm32\h743ii_lcd\lvgl\src\core\lv_obj_pos.h **** void lv_obj_mark_layout_as_dirty(struct _lv_obj_t * obj);
 148:d:\kzc\stm32\h743ii_lcd\lvgl\src\core\lv_obj_pos.h **** 
 149:d:\kzc\stm32\h743ii_lcd\lvgl\src\core\lv_obj_pos.h **** /**
 150:d:\kzc\stm32\h743ii_lcd\lvgl\src\core\lv_obj_pos.h ****  * Update the layout of an object.
 151:d:\kzc\stm32\h743ii_lcd\lvgl\src\core\lv_obj_pos.h ****  * @param obj      pointer to an object whose children needs to be updated
 152:d:\kzc\stm32\h743ii_lcd\lvgl\src\core\lv_obj_pos.h ****  */
 153:d:\kzc\stm32\h743ii_lcd\lvgl\src\core\lv_obj_pos.h **** void lv_obj_update_layout(const struct _lv_obj_t * obj);
 154:d:\kzc\stm32\h743ii_lcd\lvgl\src\core\lv_obj_pos.h **** 
 155:d:\kzc\stm32\h743ii_lcd\lvgl\src\core\lv_obj_pos.h **** /**
 156:d:\kzc\stm32\h743ii_lcd\lvgl\src\core\lv_obj_pos.h ****  * Register a new layout
 157:d:\kzc\stm32\h743ii_lcd\lvgl\src\core\lv_obj_pos.h ****  * @param cb        the layout update callback
 158:d:\kzc\stm32\h743ii_lcd\lvgl\src\core\lv_obj_pos.h ****  * @param user_data custom data that will be passed to `cb`
ARM GAS  C:\Users\OSD\AppData\Local\Temp\cc7MtQgB.s 			page 38


 159:d:\kzc\stm32\h743ii_lcd\lvgl\src\core\lv_obj_pos.h ****  * @return          the ID of the new layout
 160:d:\kzc\stm32\h743ii_lcd\lvgl\src\core\lv_obj_pos.h ****  */
 161:d:\kzc\stm32\h743ii_lcd\lvgl\src\core\lv_obj_pos.h **** uint32_t lv_layout_register(lv_layout_update_cb_t cb, void * user_data);
 162:d:\kzc\stm32\h743ii_lcd\lvgl\src\core\lv_obj_pos.h **** 
 163:d:\kzc\stm32\h743ii_lcd\lvgl\src\core\lv_obj_pos.h **** /**
 164:d:\kzc\stm32\h743ii_lcd\lvgl\src\core\lv_obj_pos.h ****  * Change the alignment of an object.
 165:d:\kzc\stm32\h743ii_lcd\lvgl\src\core\lv_obj_pos.h ****  * @param obj       pointer to an object to align
 166:d:\kzc\stm32\h743ii_lcd\lvgl\src\core\lv_obj_pos.h ****  * @param align     type of alignment (see 'lv_align_t' enum) `LV_ALIGN_OUT_...` can't be used.
 167:d:\kzc\stm32\h743ii_lcd\lvgl\src\core\lv_obj_pos.h ****  */
 168:d:\kzc\stm32\h743ii_lcd\lvgl\src\core\lv_obj_pos.h **** void lv_obj_set_align(struct _lv_obj_t * obj, lv_align_t align);
 169:d:\kzc\stm32\h743ii_lcd\lvgl\src\core\lv_obj_pos.h **** 
 170:d:\kzc\stm32\h743ii_lcd\lvgl\src\core\lv_obj_pos.h **** /**
 171:d:\kzc\stm32\h743ii_lcd\lvgl\src\core\lv_obj_pos.h ****  * Change the alignment of an object and set new coordinates.
 172:d:\kzc\stm32\h743ii_lcd\lvgl\src\core\lv_obj_pos.h ****  * Equivalent to:
 173:d:\kzc\stm32\h743ii_lcd\lvgl\src\core\lv_obj_pos.h ****  * lv_obj_set_align(obj, align);
 174:d:\kzc\stm32\h743ii_lcd\lvgl\src\core\lv_obj_pos.h ****  * lv_obj_set_pos(obj, x_ofs, y_ofs);
 175:d:\kzc\stm32\h743ii_lcd\lvgl\src\core\lv_obj_pos.h ****  * @param obj       pointer to an object to align
 176:d:\kzc\stm32\h743ii_lcd\lvgl\src\core\lv_obj_pos.h ****  * @param align     type of alignment (see 'lv_align_t' enum) `LV_ALIGN_OUT_...` can't be used.
 177:d:\kzc\stm32\h743ii_lcd\lvgl\src\core\lv_obj_pos.h ****  * @param x_ofs     x coordinate offset after alignment
 178:d:\kzc\stm32\h743ii_lcd\lvgl\src\core\lv_obj_pos.h ****  * @param y_ofs     y coordinate offset after alignment
 179:d:\kzc\stm32\h743ii_lcd\lvgl\src\core\lv_obj_pos.h ****  */
 180:d:\kzc\stm32\h743ii_lcd\lvgl\src\core\lv_obj_pos.h **** void lv_obj_align(struct _lv_obj_t * obj, lv_align_t align, lv_coord_t x_ofs, lv_coord_t y_ofs);
 181:d:\kzc\stm32\h743ii_lcd\lvgl\src\core\lv_obj_pos.h **** 
 182:d:\kzc\stm32\h743ii_lcd\lvgl\src\core\lv_obj_pos.h **** /**
 183:d:\kzc\stm32\h743ii_lcd\lvgl\src\core\lv_obj_pos.h ****  * Align an object to an other object.
 184:d:\kzc\stm32\h743ii_lcd\lvgl\src\core\lv_obj_pos.h ****  * @param obj       pointer to an object to align
 185:d:\kzc\stm32\h743ii_lcd\lvgl\src\core\lv_obj_pos.h ****  * @param base      pointer to an other object (if NULL `obj`s parent is used). 'obj' will be align
 186:d:\kzc\stm32\h743ii_lcd\lvgl\src\core\lv_obj_pos.h ****  * @param align     type of alignment (see 'lv_align_t' enum)
 187:d:\kzc\stm32\h743ii_lcd\lvgl\src\core\lv_obj_pos.h ****  * @param x_ofs     x coordinate offset after alignment
 188:d:\kzc\stm32\h743ii_lcd\lvgl\src\core\lv_obj_pos.h ****  * @param y_ofs     y coordinate offset after alignment
 189:d:\kzc\stm32\h743ii_lcd\lvgl\src\core\lv_obj_pos.h ****  * @note            if the position or size of `base` changes `obj` needs to be aligned manually ag
 190:d:\kzc\stm32\h743ii_lcd\lvgl\src\core\lv_obj_pos.h ****  */
 191:d:\kzc\stm32\h743ii_lcd\lvgl\src\core\lv_obj_pos.h **** void lv_obj_align_to(struct _lv_obj_t * obj, const struct _lv_obj_t * base, lv_align_t align, lv_co
 192:d:\kzc\stm32\h743ii_lcd\lvgl\src\core\lv_obj_pos.h ****                      lv_coord_t y_ofs);
 193:d:\kzc\stm32\h743ii_lcd\lvgl\src\core\lv_obj_pos.h **** 
 194:d:\kzc\stm32\h743ii_lcd\lvgl\src\core\lv_obj_pos.h **** /**
 195:d:\kzc\stm32\h743ii_lcd\lvgl\src\core\lv_obj_pos.h ****  * Align an object to the center on its parent.
 196:d:\kzc\stm32\h743ii_lcd\lvgl\src\core\lv_obj_pos.h ****  * @param obj       pointer to an object to align
 197:d:\kzc\stm32\h743ii_lcd\lvgl\src\core\lv_obj_pos.h ****  * @note            if the parent size changes `obj` needs to be aligned manually again
 198:d:\kzc\stm32\h743ii_lcd\lvgl\src\core\lv_obj_pos.h ****  */
 199:d:\kzc\stm32\h743ii_lcd\lvgl\src\core\lv_obj_pos.h **** static inline void lv_obj_center(struct _lv_obj_t * obj)
 1023              		.loc 5 199 20 view .LVU307
 1024              	.LBB171:
 200:d:\kzc\stm32\h743ii_lcd\lvgl\src\core\lv_obj_pos.h **** {
 201:d:\kzc\stm32\h743ii_lcd\lvgl\src\core\lv_obj_pos.h ****     lv_obj_align(obj, LV_ALIGN_CENTER, 0, 0);
 1025              		.loc 5 201 5 view .LVU308
 1026 005e 0023     		movs	r3, #0
 1027 0060 1A46     		mov	r2, r3
 1028 0062 0921     		movs	r1, #9
 1029 0064 2846     		mov	r0, r5
 1030 0066 FFF7FEFF 		bl	lv_obj_align
 1031              	.LVL101:
 1032              		.loc 5 201 5 is_stmt 0 view .LVU309
 1033              	.LBE171:
 1034              	.LBE170:
 153:lvgl/examples/anim/lv_example_anim_timeline_1.c **** 
 154:lvgl/examples/anim/lv_example_anim_timeline_1.c ****     /* create btn_del */
ARM GAS  C:\Users\OSD\AppData\Local\Temp\cc7MtQgB.s 			page 39


 155:lvgl/examples/anim/lv_example_anim_timeline_1.c ****     lv_obj_t * btn_del = lv_btn_create(par);
 1035              		.loc 1 155 5 is_stmt 1 view .LVU310
 1036              		.loc 1 155 26 is_stmt 0 view .LVU311
 1037 006a 2046     		mov	r0, r4
 1038 006c FFF7FEFF 		bl	lv_btn_create
 1039              	.LVL102:
 1040 0070 0546     		mov	r5, r0
 1041              	.LVL103:
 156:lvgl/examples/anim/lv_example_anim_timeline_1.c ****     lv_obj_add_event_cb(btn_del, btn_del_event_handler, LV_EVENT_CLICKED, NULL);
 1042              		.loc 1 156 5 is_stmt 1 view .LVU312
 1043 0072 0023     		movs	r3, #0
 1044 0074 0722     		movs	r2, #7
 1045 0076 3B49     		ldr	r1, .L33+8
 1046 0078 FFF7FEFF 		bl	lv_obj_add_event_cb
 1047              	.LVL104:
 157:lvgl/examples/anim/lv_example_anim_timeline_1.c ****     lv_obj_add_flag(btn_del, LV_OBJ_FLAG_IGNORE_LAYOUT);
 1048              		.loc 1 157 5 view .LVU313
 1049 007c 4FF40031 		mov	r1, #131072
 1050 0080 2846     		mov	r0, r5
 1051 0082 FFF7FEFF 		bl	lv_obj_add_flag
 1052              	.LVL105:
 158:lvgl/examples/anim/lv_example_anim_timeline_1.c ****     lv_obj_align(btn_del, LV_ALIGN_TOP_MID, 0, 20);
 1053              		.loc 1 158 5 view .LVU314
 1054 0086 1423     		movs	r3, #20
 1055 0088 0022     		movs	r2, #0
 1056 008a 0221     		movs	r1, #2
 1057 008c 2846     		mov	r0, r5
 1058 008e FFF7FEFF 		bl	lv_obj_align
 1059              	.LVL106:
 159:lvgl/examples/anim/lv_example_anim_timeline_1.c **** 
 160:lvgl/examples/anim/lv_example_anim_timeline_1.c ****     lv_obj_t * label_del = lv_label_create(btn_del);
 1060              		.loc 1 160 5 view .LVU315
 1061              		.loc 1 160 28 is_stmt 0 view .LVU316
 1062 0092 2846     		mov	r0, r5
 1063 0094 FFF7FEFF 		bl	lv_label_create
 1064              	.LVL107:
 1065 0098 0546     		mov	r5, r0
 1066              	.LVL108:
 161:lvgl/examples/anim/lv_example_anim_timeline_1.c ****     lv_label_set_text(label_del, "Delete");
 1067              		.loc 1 161 5 is_stmt 1 view .LVU317
 1068 009a 3349     		ldr	r1, .L33+12
 1069 009c FFF7FEFF 		bl	lv_label_set_text
 1070              	.LVL109:
 162:lvgl/examples/anim/lv_example_anim_timeline_1.c ****     lv_obj_center(label_del);
 1071              		.loc 1 162 5 view .LVU318
 1072              	.LBB172:
 1073              	.LBI172:
 199:d:\kzc\stm32\h743ii_lcd\lvgl\src\core\lv_obj_pos.h **** {
 1074              		.loc 5 199 20 view .LVU319
 1075              	.LBB173:
 1076              		.loc 5 201 5 view .LVU320
 1077 00a0 0023     		movs	r3, #0
 1078 00a2 1A46     		mov	r2, r3
 1079 00a4 0921     		movs	r1, #9
 1080 00a6 2846     		mov	r0, r5
 1081 00a8 FFF7FEFF 		bl	lv_obj_align
 1082              	.LVL110:
ARM GAS  C:\Users\OSD\AppData\Local\Temp\cc7MtQgB.s 			page 40


 1083              		.loc 5 201 5 is_stmt 0 view .LVU321
 1084              	.LBE173:
 1085              	.LBE172:
 163:lvgl/examples/anim/lv_example_anim_timeline_1.c **** 
 164:lvgl/examples/anim/lv_example_anim_timeline_1.c ****     /* create btn_stop */
 165:lvgl/examples/anim/lv_example_anim_timeline_1.c ****     lv_obj_t * btn_stop = lv_btn_create(par);
 1086              		.loc 1 165 5 is_stmt 1 view .LVU322
 1087              		.loc 1 165 27 is_stmt 0 view .LVU323
 1088 00ac 2046     		mov	r0, r4
 1089 00ae FFF7FEFF 		bl	lv_btn_create
 1090              	.LVL111:
 1091 00b2 0546     		mov	r5, r0
 1092              	.LVL112:
 166:lvgl/examples/anim/lv_example_anim_timeline_1.c ****     lv_obj_add_event_cb(btn_stop, btn_stop_event_handler, LV_EVENT_CLICKED, NULL);
 1093              		.loc 1 166 5 is_stmt 1 view .LVU324
 1094 00b4 0023     		movs	r3, #0
 1095 00b6 0722     		movs	r2, #7
 1096 00b8 2C49     		ldr	r1, .L33+16
 1097 00ba FFF7FEFF 		bl	lv_obj_add_event_cb
 1098              	.LVL113:
 167:lvgl/examples/anim/lv_example_anim_timeline_1.c ****     lv_obj_add_flag(btn_stop, LV_OBJ_FLAG_IGNORE_LAYOUT);
 1099              		.loc 1 167 5 view .LVU325
 1100 00be 4FF40031 		mov	r1, #131072
 1101 00c2 2846     		mov	r0, r5
 1102 00c4 FFF7FEFF 		bl	lv_obj_add_flag
 1103              	.LVL114:
 168:lvgl/examples/anim/lv_example_anim_timeline_1.c ****     lv_obj_align(btn_stop, LV_ALIGN_TOP_MID, 100, 20);
 1104              		.loc 1 168 5 view .LVU326
 1105 00c8 1423     		movs	r3, #20
 1106 00ca 6422     		movs	r2, #100
 1107 00cc 0221     		movs	r1, #2
 1108 00ce 2846     		mov	r0, r5
 1109 00d0 FFF7FEFF 		bl	lv_obj_align
 1110              	.LVL115:
 169:lvgl/examples/anim/lv_example_anim_timeline_1.c **** 
 170:lvgl/examples/anim/lv_example_anim_timeline_1.c ****     lv_obj_t * label_stop = lv_label_create(btn_stop);
 1111              		.loc 1 170 5 view .LVU327
 1112              		.loc 1 170 29 is_stmt 0 view .LVU328
 1113 00d4 2846     		mov	r0, r5
 1114 00d6 FFF7FEFF 		bl	lv_label_create
 1115              	.LVL116:
 1116 00da 0546     		mov	r5, r0
 1117              	.LVL117:
 171:lvgl/examples/anim/lv_example_anim_timeline_1.c ****     lv_label_set_text(label_stop, "Stop");
 1118              		.loc 1 171 5 is_stmt 1 view .LVU329
 1119 00dc 2449     		ldr	r1, .L33+20
 1120 00de FFF7FEFF 		bl	lv_label_set_text
 1121              	.LVL118:
 172:lvgl/examples/anim/lv_example_anim_timeline_1.c ****     lv_obj_center(label_stop);
 1122              		.loc 1 172 5 view .LVU330
 1123              	.LBB174:
 1124              	.LBI174:
 199:d:\kzc\stm32\h743ii_lcd\lvgl\src\core\lv_obj_pos.h **** {
 1125              		.loc 5 199 20 view .LVU331
 1126              	.LBB175:
 1127              		.loc 5 201 5 view .LVU332
 1128 00e2 0023     		movs	r3, #0
ARM GAS  C:\Users\OSD\AppData\Local\Temp\cc7MtQgB.s 			page 41


 1129 00e4 1A46     		mov	r2, r3
 1130 00e6 0921     		movs	r1, #9
 1131 00e8 2846     		mov	r0, r5
 1132 00ea FFF7FEFF 		bl	lv_obj_align
 1133              	.LVL119:
 1134              		.loc 5 201 5 is_stmt 0 view .LVU333
 1135              	.LBE175:
 1136              	.LBE174:
 173:lvgl/examples/anim/lv_example_anim_timeline_1.c **** 
 174:lvgl/examples/anim/lv_example_anim_timeline_1.c ****     /* create slider_prg */
 175:lvgl/examples/anim/lv_example_anim_timeline_1.c ****     lv_obj_t * slider_prg = lv_slider_create(par);
 1137              		.loc 1 175 5 is_stmt 1 view .LVU334
 1138              		.loc 1 175 29 is_stmt 0 view .LVU335
 1139 00ee 2046     		mov	r0, r4
 1140 00f0 FFF7FEFF 		bl	lv_slider_create
 1141              	.LVL120:
 1142 00f4 0546     		mov	r5, r0
 1143              	.LVL121:
 176:lvgl/examples/anim/lv_example_anim_timeline_1.c ****     lv_obj_add_event_cb(slider_prg, slider_prg_event_handler, LV_EVENT_VALUE_CHANGED, NULL);
 1144              		.loc 1 176 5 is_stmt 1 view .LVU336
 1145 00f6 0023     		movs	r3, #0
 1146 00f8 1C22     		movs	r2, #28
 1147 00fa 1E49     		ldr	r1, .L33+24
 1148 00fc FFF7FEFF 		bl	lv_obj_add_event_cb
 1149              	.LVL122:
 177:lvgl/examples/anim/lv_example_anim_timeline_1.c ****     lv_obj_add_flag(slider_prg, LV_OBJ_FLAG_IGNORE_LAYOUT);
 1150              		.loc 1 177 5 view .LVU337
 1151 0100 4FF40031 		mov	r1, #131072
 1152 0104 2846     		mov	r0, r5
 1153 0106 FFF7FEFF 		bl	lv_obj_add_flag
 1154              	.LVL123:
 178:lvgl/examples/anim/lv_example_anim_timeline_1.c ****     lv_obj_align(slider_prg, LV_ALIGN_BOTTOM_MID, 0, -20);
 1155              		.loc 1 178 5 view .LVU338
 1156 010a 6FF01303 		mvn	r3, #19
 1157 010e 0022     		movs	r2, #0
 1158 0110 0521     		movs	r1, #5
 1159 0112 2846     		mov	r0, r5
 1160 0114 FFF7FEFF 		bl	lv_obj_align
 1161              	.LVL124:
 179:lvgl/examples/anim/lv_example_anim_timeline_1.c ****     lv_slider_set_range(slider_prg, 0, 65535);
 1162              		.loc 1 179 5 view .LVU339
 1163              	.LBB176:
 1164              	.LBI176:
 106:lvgl/examples/anim/../../src/widgets/lv_slider.h **** {
 1165              		.loc 3 106 20 view .LVU340
 1166              	.LBB177:
 108:lvgl/examples/anim/../../src/widgets/lv_slider.h **** }
 1167              		.loc 3 108 5 view .LVU341
 1168 0118 4FF6FF72 		movw	r2, #65535
 1169 011c 0021     		movs	r1, #0
 1170 011e 2846     		mov	r0, r5
 1171 0120 FFF7FEFF 		bl	lv_bar_set_range
 1172              	.LVL125:
 108:lvgl/examples/anim/../../src/widgets/lv_slider.h **** }
 1173              		.loc 3 108 5 is_stmt 0 view .LVU342
 1174              	.LBE177:
 1175              	.LBE176:
ARM GAS  C:\Users\OSD\AppData\Local\Temp\cc7MtQgB.s 			page 42


 180:lvgl/examples/anim/lv_example_anim_timeline_1.c **** 
 181:lvgl/examples/anim/lv_example_anim_timeline_1.c ****     /* create 3 objects */
 182:lvgl/examples/anim/lv_example_anim_timeline_1.c ****     obj1 = lv_obj_create(par);
 1176              		.loc 1 182 5 is_stmt 1 view .LVU343
 1177              		.loc 1 182 12 is_stmt 0 view .LVU344
 1178 0124 2046     		mov	r0, r4
 1179 0126 FFF7FEFF 		bl	lv_obj_create
 1180              	.LVL126:
 1181              		.loc 1 182 10 view .LVU345
 1182 012a 134B     		ldr	r3, .L33+28
 1183 012c 1860     		str	r0, [r3]
 183:lvgl/examples/anim/lv_example_anim_timeline_1.c ****     lv_obj_set_size(obj1, obj_width, obj_height);
 1184              		.loc 1 183 5 is_stmt 1 view .LVU346
 1185 012e 4622     		movs	r2, #70
 1186 0130 5A21     		movs	r1, #90
 1187 0132 FFF7FEFF 		bl	lv_obj_set_size
 1188              	.LVL127:
 184:lvgl/examples/anim/lv_example_anim_timeline_1.c **** 
 185:lvgl/examples/anim/lv_example_anim_timeline_1.c ****     obj2 = lv_obj_create(par);
 1189              		.loc 1 185 5 view .LVU347
 1190              		.loc 1 185 12 is_stmt 0 view .LVU348
 1191 0136 2046     		mov	r0, r4
 1192 0138 FFF7FEFF 		bl	lv_obj_create
 1193              	.LVL128:
 1194              		.loc 1 185 10 view .LVU349
 1195 013c 0F4B     		ldr	r3, .L33+32
 1196 013e 1860     		str	r0, [r3]
 186:lvgl/examples/anim/lv_example_anim_timeline_1.c ****     lv_obj_set_size(obj2, obj_width, obj_height);
 1197              		.loc 1 186 5 is_stmt 1 view .LVU350
 1198 0140 4622     		movs	r2, #70
 1199 0142 5A21     		movs	r1, #90
 1200 0144 FFF7FEFF 		bl	lv_obj_set_size
 1201              	.LVL129:
 187:lvgl/examples/anim/lv_example_anim_timeline_1.c **** 
 188:lvgl/examples/anim/lv_example_anim_timeline_1.c ****     obj3 = lv_obj_create(par);
 1202              		.loc 1 188 5 view .LVU351
 1203              		.loc 1 188 12 is_stmt 0 view .LVU352
 1204 0148 2046     		mov	r0, r4
 1205 014a FFF7FEFF 		bl	lv_obj_create
 1206              	.LVL130:
 1207              		.loc 1 188 10 view .LVU353
 1208 014e 0C4B     		ldr	r3, .L33+36
 1209 0150 1860     		str	r0, [r3]
 189:lvgl/examples/anim/lv_example_anim_timeline_1.c ****     lv_obj_set_size(obj3, obj_width, obj_height);
 1210              		.loc 1 189 5 is_stmt 1 view .LVU354
 1211 0152 4622     		movs	r2, #70
 1212 0154 5A21     		movs	r1, #90
 1213 0156 FFF7FEFF 		bl	lv_obj_set_size
 1214              	.LVL131:
 190:lvgl/examples/anim/lv_example_anim_timeline_1.c **** }
 1215              		.loc 1 190 1 is_stmt 0 view .LVU355
 1216 015a 38BD     		pop	{r3, r4, r5, pc}
 1217              	.LVL132:
 1218              	.L34:
 1219              		.loc 1 190 1 view .LVU356
 1220              		.align	2
 1221              	.L33:
ARM GAS  C:\Users\OSD\AppData\Local\Temp\cc7MtQgB.s 			page 43


 1222 015c 00000000 		.word	btn_start_event_handler
 1223 0160 00000000 		.word	.LC0
 1224 0164 00000000 		.word	btn_del_event_handler
 1225 0168 08000000 		.word	.LC1
 1226 016c 00000000 		.word	btn_stop_event_handler
 1227 0170 10000000 		.word	.LC2
 1228 0174 00000000 		.word	slider_prg_event_handler
 1229 0178 00000000 		.word	.LANCHOR0
 1230 017c 00000000 		.word	.LANCHOR1
 1231 0180 00000000 		.word	.LANCHOR2
 1232              		.cfi_endproc
 1233              	.LFE211:
 1235              		.section	.bss.anim_timeline,"aw",%nobits
 1236              		.align	2
 1237              		.set	.LANCHOR3,. + 0
 1240              	anim_timeline:
 1241 0000 00000000 		.space	4
 1242              		.section	.bss.obj1,"aw",%nobits
 1243              		.align	2
 1244              		.set	.LANCHOR0,. + 0
 1247              	obj1:
 1248 0000 00000000 		.space	4
 1249              		.section	.bss.obj2,"aw",%nobits
 1250              		.align	2
 1251              		.set	.LANCHOR1,. + 0
 1254              	obj2:
 1255 0000 00000000 		.space	4
 1256              		.section	.bss.obj3,"aw",%nobits
 1257              		.align	2
 1258              		.set	.LANCHOR2,. + 0
 1261              	obj3:
 1262 0000 00000000 		.space	4
 1263              		.text
 1264              	.Letext0:
 1265              		.file 6 "c:\\tools\\gcc-arm-none-eabi\\arm-none-eabi\\include\\machine\\_default_types.h"
 1266              		.file 7 "c:\\tools\\gcc-arm-none-eabi\\arm-none-eabi\\include\\sys\\_stdint.h"
 1267              		.file 8 "lvgl/examples/anim/../../src/misc/lv_anim_timeline.h"
 1268              		.file 9 "d:\\kzc\\stm32\\h743ii_lcd\\lvgl\\src\\misc\\lv_area.h"
 1269              		.file 10 "d:\\kzc\\stm32\\h743ii_lcd\\lvgl\\src\\misc\\lv_color.h"
 1270              		.file 11 "d:\\kzc\\stm32\\h743ii_lcd\\lvgl\\src\\misc\\lv_style.h"
 1271              		.file 12 "lvgl/examples/anim/../../src/core/lv_obj.h"
 1272              		.file 13 "d:\\kzc\\stm32\\h743ii_lcd\\lvgl\\src\\misc\\lv_ll.h"
 1273              		.file 14 "lvgl/examples/anim/../../src/core/lv_group.h"
 1274              		.file 15 "lvgl/examples/anim/../../src/core/lv_obj_scroll.h"
 1275              		.file 16 "lvgl/examples/anim/../../src/core/lv_obj_style.h"
 1276              		.file 17 "lvgl/examples/anim/../../src/core/lv_obj_class.h"
 1277              		.file 18 "lvgl/examples/anim/../../src/core/lv_event.h"
 1278              		.file 19 "lvgl/examples/anim/../../src/widgets/lv_bar.h"
 1279              		.file 20 "lvgl/examples/anim/../../src/extra/layouts/flex/lv_flex.h"
 1280              		.file 21 "lvgl/examples/anim/../../src/extra/widgets/imgbtn/lv_imgbtn.h"
 1281              		.file 22 "lvgl/examples/anim/../../src/hal/lv_hal_disp.h"
 1282              		.file 23 "lvgl/examples/anim/../../src/widgets/lv_btn.h"
 1283              		.file 24 "lvgl/examples/anim/../../src/widgets/lv_label.h"
ARM GAS  C:\Users\OSD\AppData\Local\Temp\cc7MtQgB.s 			page 44

