ARM GAS  C:\Users\OSD\AppData\Local\Temp\cczpOCmA.s 			page 1


   1              		.cpu cortex-m7
   2              		.arch armv7e-m
   3              		.fpu fpv5-d16
   4              		.eabi_attribute 28, 1
   5              		.eabi_attribute 20, 1
   6              		.eabi_attribute 21, 1
   7              		.eabi_attribute 23, 3
   8              		.eabi_attribute 24, 1
   9              		.eabi_attribute 25, 1
  10              		.eabi_attribute 26, 1
  11              		.eabi_attribute 30, 1
  12              		.eabi_attribute 34, 1
  13              		.eabi_attribute 18, 4
  14              		.file	"lv_example_calendar_1.c"
  15              		.text
  16              	.Ltext0:
  17              		.cfi_sections	.debug_frame
  18              		.section	.text.event_handler,"ax",%progbits
  19              		.align	1
  20              		.syntax unified
  21              		.thumb
  22              		.thumb_func
  24              	event_handler:
  25              	.LVL0:
  26              	.LFB204:
  27              		.file 1 "lvgl/examples/widgets/calendar/lv_example_calendar_1.c"
   1:lvgl/examples/widgets/calendar/lv_example_calendar_1.c **** #include "../../lv_examples.h"
   2:lvgl/examples/widgets/calendar/lv_example_calendar_1.c **** #if LV_USE_CALENDAR && LV_BUILD_EXAMPLES
   3:lvgl/examples/widgets/calendar/lv_example_calendar_1.c **** 
   4:lvgl/examples/widgets/calendar/lv_example_calendar_1.c **** static void event_handler(lv_event_t * e)
   5:lvgl/examples/widgets/calendar/lv_example_calendar_1.c **** {
  28              		.loc 1 5 1 view -0
  29              		.cfi_startproc
  30              		@ args = 0, pretend = 0, frame = 8
  31              		@ frame_needed = 0, uses_anonymous_args = 0
  32              		.loc 1 5 1 is_stmt 0 view .LVU1
  33 0000 30B5     		push	{r4, r5, lr}
  34              		.cfi_def_cfa_offset 12
  35              		.cfi_offset 4, -12
  36              		.cfi_offset 5, -8
  37              		.cfi_offset 14, -4
  38 0002 83B0     		sub	sp, sp, #12
  39              		.cfi_def_cfa_offset 24
  40 0004 0546     		mov	r5, r0
   6:lvgl/examples/widgets/calendar/lv_example_calendar_1.c ****     lv_event_code_t code = lv_event_get_code(e);
  41              		.loc 1 6 5 is_stmt 1 view .LVU2
  42              		.loc 1 6 28 is_stmt 0 view .LVU3
  43 0006 FFF7FEFF 		bl	lv_event_get_code
  44              	.LVL1:
  45              		.loc 1 6 28 view .LVU4
  46 000a 0446     		mov	r4, r0
  47              	.LVL2:
   7:lvgl/examples/widgets/calendar/lv_example_calendar_1.c ****     lv_obj_t * obj = lv_event_get_current_target(e);
  48              		.loc 1 7 5 is_stmt 1 view .LVU5
  49              		.loc 1 7 22 is_stmt 0 view .LVU6
  50 000c 2846     		mov	r0, r5
  51 000e FFF7FEFF 		bl	lv_event_get_current_target
ARM GAS  C:\Users\OSD\AppData\Local\Temp\cczpOCmA.s 			page 2


  52              	.LVL3:
   8:lvgl/examples/widgets/calendar/lv_example_calendar_1.c **** 
   9:lvgl/examples/widgets/calendar/lv_example_calendar_1.c ****     if(code == LV_EVENT_VALUE_CHANGED) {
  53              		.loc 1 9 5 is_stmt 1 view .LVU7
  54              		.loc 1 9 7 is_stmt 0 view .LVU8
  55 0012 1C2C     		cmp	r4, #28
  56 0014 01D0     		beq	.L4
  57              	.LVL4:
  58              	.L1:
  10:lvgl/examples/widgets/calendar/lv_example_calendar_1.c ****         lv_calendar_date_t date;
  11:lvgl/examples/widgets/calendar/lv_example_calendar_1.c ****         if(lv_calendar_get_pressed_date(obj, &date)) {
  12:lvgl/examples/widgets/calendar/lv_example_calendar_1.c ****             LV_LOG_USER("Clicked date: %02d.%02d.%d", date.day, date.month, date.year);
  13:lvgl/examples/widgets/calendar/lv_example_calendar_1.c ****         }
  14:lvgl/examples/widgets/calendar/lv_example_calendar_1.c ****     }
  15:lvgl/examples/widgets/calendar/lv_example_calendar_1.c **** }
  59              		.loc 1 15 1 view .LVU9
  60 0016 03B0     		add	sp, sp, #12
  61              		.cfi_remember_state
  62              		.cfi_def_cfa_offset 12
  63              		@ sp needed
  64 0018 30BD     		pop	{r4, r5, pc}
  65              	.LVL5:
  66              	.L4:
  67              		.cfi_restore_state
  68              	.LBB2:
  10:lvgl/examples/widgets/calendar/lv_example_calendar_1.c ****         lv_calendar_date_t date;
  69              		.loc 1 10 9 is_stmt 1 view .LVU10
  11:lvgl/examples/widgets/calendar/lv_example_calendar_1.c ****             LV_LOG_USER("Clicked date: %02d.%02d.%d", date.day, date.month, date.year);
  70              		.loc 1 11 9 view .LVU11
  11:lvgl/examples/widgets/calendar/lv_example_calendar_1.c ****             LV_LOG_USER("Clicked date: %02d.%02d.%d", date.day, date.month, date.year);
  71              		.loc 1 11 12 is_stmt 0 view .LVU12
  72 001a 01A9     		add	r1, sp, #4
  73 001c FFF7FEFF 		bl	lv_calendar_get_pressed_date
  74              	.LVL6:
  12:lvgl/examples/widgets/calendar/lv_example_calendar_1.c ****         }
  75              		.loc 1 12 13 is_stmt 1 view .LVU13
  12:lvgl/examples/widgets/calendar/lv_example_calendar_1.c ****         }
  76              		.loc 1 12 13 view .LVU14
  12:lvgl/examples/widgets/calendar/lv_example_calendar_1.c ****         }
  77              		.loc 1 12 13 view .LVU15
  78              	.LBE2:
  79              		.loc 1 15 1 is_stmt 0 view .LVU16
  80 0020 F9E7     		b	.L1
  81              		.cfi_endproc
  82              	.LFE204:
  84              		.section	.text.lv_example_calendar_1,"ax",%progbits
  85              		.align	1
  86              		.global	lv_example_calendar_1
  87              		.syntax unified
  88              		.thumb
  89              		.thumb_func
  91              	lv_example_calendar_1:
  92              	.LFB205:
  16:lvgl/examples/widgets/calendar/lv_example_calendar_1.c **** 
  17:lvgl/examples/widgets/calendar/lv_example_calendar_1.c **** void lv_example_calendar_1(void)
  18:lvgl/examples/widgets/calendar/lv_example_calendar_1.c **** {
  93              		.loc 1 18 1 is_stmt 1 view -0
ARM GAS  C:\Users\OSD\AppData\Local\Temp\cczpOCmA.s 			page 3


  94              		.cfi_startproc
  95              		@ args = 0, pretend = 0, frame = 0
  96              		@ frame_needed = 0, uses_anonymous_args = 0
  97 0000 38B5     		push	{r3, r4, r5, lr}
  98              		.cfi_def_cfa_offset 16
  99              		.cfi_offset 3, -16
 100              		.cfi_offset 4, -12
 101              		.cfi_offset 5, -8
 102              		.cfi_offset 14, -4
  19:lvgl/examples/widgets/calendar/lv_example_calendar_1.c ****     lv_obj_t  * calendar = lv_calendar_create(lv_scr_act());
 103              		.loc 1 19 5 view .LVU18
 104              	.LBB5:
 105              	.LBI5:
 106              		.file 2 "d:\\kzc\\stm32\\h743ii_lcd\\lvgl\\src/core/lv_disp.h"
   1:d:\kzc\stm32\h743ii_lcd\lvgl\src/core\lv_disp.h **** /**
   2:d:\kzc\stm32\h743ii_lcd\lvgl\src/core\lv_disp.h ****  * @file lv_disp.h
   3:d:\kzc\stm32\h743ii_lcd\lvgl\src/core\lv_disp.h ****  *
   4:d:\kzc\stm32\h743ii_lcd\lvgl\src/core\lv_disp.h ****  */
   5:d:\kzc\stm32\h743ii_lcd\lvgl\src/core\lv_disp.h **** 
   6:d:\kzc\stm32\h743ii_lcd\lvgl\src/core\lv_disp.h **** #ifndef LV_DISP_H
   7:d:\kzc\stm32\h743ii_lcd\lvgl\src/core\lv_disp.h **** #define LV_DISP_H
   8:d:\kzc\stm32\h743ii_lcd\lvgl\src/core\lv_disp.h **** 
   9:d:\kzc\stm32\h743ii_lcd\lvgl\src/core\lv_disp.h **** #ifdef __cplusplus
  10:d:\kzc\stm32\h743ii_lcd\lvgl\src/core\lv_disp.h **** extern "C" {
  11:d:\kzc\stm32\h743ii_lcd\lvgl\src/core\lv_disp.h **** #endif
  12:d:\kzc\stm32\h743ii_lcd\lvgl\src/core\lv_disp.h **** 
  13:d:\kzc\stm32\h743ii_lcd\lvgl\src/core\lv_disp.h **** /*********************
  14:d:\kzc\stm32\h743ii_lcd\lvgl\src/core\lv_disp.h ****  *      INCLUDES
  15:d:\kzc\stm32\h743ii_lcd\lvgl\src/core\lv_disp.h ****  *********************/
  16:d:\kzc\stm32\h743ii_lcd\lvgl\src/core\lv_disp.h **** #include "../hal/lv_hal.h"
  17:d:\kzc\stm32\h743ii_lcd\lvgl\src/core\lv_disp.h **** #include "lv_obj.h"
  18:d:\kzc\stm32\h743ii_lcd\lvgl\src/core\lv_disp.h **** #include "lv_theme.h"
  19:d:\kzc\stm32\h743ii_lcd\lvgl\src/core\lv_disp.h **** 
  20:d:\kzc\stm32\h743ii_lcd\lvgl\src/core\lv_disp.h **** /*********************
  21:d:\kzc\stm32\h743ii_lcd\lvgl\src/core\lv_disp.h ****  *      DEFINES
  22:d:\kzc\stm32\h743ii_lcd\lvgl\src/core\lv_disp.h ****  *********************/
  23:d:\kzc\stm32\h743ii_lcd\lvgl\src/core\lv_disp.h **** 
  24:d:\kzc\stm32\h743ii_lcd\lvgl\src/core\lv_disp.h **** /**********************
  25:d:\kzc\stm32\h743ii_lcd\lvgl\src/core\lv_disp.h ****  *      TYPEDEFS
  26:d:\kzc\stm32\h743ii_lcd\lvgl\src/core\lv_disp.h ****  **********************/
  27:d:\kzc\stm32\h743ii_lcd\lvgl\src/core\lv_disp.h **** 
  28:d:\kzc\stm32\h743ii_lcd\lvgl\src/core\lv_disp.h **** typedef enum {
  29:d:\kzc\stm32\h743ii_lcd\lvgl\src/core\lv_disp.h ****     LV_SCR_LOAD_ANIM_NONE,
  30:d:\kzc\stm32\h743ii_lcd\lvgl\src/core\lv_disp.h ****     LV_SCR_LOAD_ANIM_OVER_LEFT,
  31:d:\kzc\stm32\h743ii_lcd\lvgl\src/core\lv_disp.h ****     LV_SCR_LOAD_ANIM_OVER_RIGHT,
  32:d:\kzc\stm32\h743ii_lcd\lvgl\src/core\lv_disp.h ****     LV_SCR_LOAD_ANIM_OVER_TOP,
  33:d:\kzc\stm32\h743ii_lcd\lvgl\src/core\lv_disp.h ****     LV_SCR_LOAD_ANIM_OVER_BOTTOM,
  34:d:\kzc\stm32\h743ii_lcd\lvgl\src/core\lv_disp.h ****     LV_SCR_LOAD_ANIM_MOVE_LEFT,
  35:d:\kzc\stm32\h743ii_lcd\lvgl\src/core\lv_disp.h ****     LV_SCR_LOAD_ANIM_MOVE_RIGHT,
  36:d:\kzc\stm32\h743ii_lcd\lvgl\src/core\lv_disp.h ****     LV_SCR_LOAD_ANIM_MOVE_TOP,
  37:d:\kzc\stm32\h743ii_lcd\lvgl\src/core\lv_disp.h ****     LV_SCR_LOAD_ANIM_MOVE_BOTTOM,
  38:d:\kzc\stm32\h743ii_lcd\lvgl\src/core\lv_disp.h ****     LV_SCR_LOAD_ANIM_FADE_IN,
  39:d:\kzc\stm32\h743ii_lcd\lvgl\src/core\lv_disp.h ****     LV_SCR_LOAD_ANIM_FADE_ON = LV_SCR_LOAD_ANIM_FADE_IN, /*For backward compatibility*/
  40:d:\kzc\stm32\h743ii_lcd\lvgl\src/core\lv_disp.h ****     LV_SCR_LOAD_ANIM_FADE_OUT,
  41:d:\kzc\stm32\h743ii_lcd\lvgl\src/core\lv_disp.h ****     LV_SCR_LOAD_ANIM_OUT_LEFT,
  42:d:\kzc\stm32\h743ii_lcd\lvgl\src/core\lv_disp.h ****     LV_SCR_LOAD_ANIM_OUT_RIGHT,
  43:d:\kzc\stm32\h743ii_lcd\lvgl\src/core\lv_disp.h ****     LV_SCR_LOAD_ANIM_OUT_TOP,
ARM GAS  C:\Users\OSD\AppData\Local\Temp\cczpOCmA.s 			page 4


  44:d:\kzc\stm32\h743ii_lcd\lvgl\src/core\lv_disp.h ****     LV_SCR_LOAD_ANIM_OUT_BOTTOM,
  45:d:\kzc\stm32\h743ii_lcd\lvgl\src/core\lv_disp.h **** } lv_scr_load_anim_t;
  46:d:\kzc\stm32\h743ii_lcd\lvgl\src/core\lv_disp.h **** 
  47:d:\kzc\stm32\h743ii_lcd\lvgl\src/core\lv_disp.h **** /**********************
  48:d:\kzc\stm32\h743ii_lcd\lvgl\src/core\lv_disp.h ****  * GLOBAL PROTOTYPES
  49:d:\kzc\stm32\h743ii_lcd\lvgl\src/core\lv_disp.h ****  **********************/
  50:d:\kzc\stm32\h743ii_lcd\lvgl\src/core\lv_disp.h **** 
  51:d:\kzc\stm32\h743ii_lcd\lvgl\src/core\lv_disp.h **** /**
  52:d:\kzc\stm32\h743ii_lcd\lvgl\src/core\lv_disp.h ****  * Return with a pointer to the active screen
  53:d:\kzc\stm32\h743ii_lcd\lvgl\src/core\lv_disp.h ****  * @param disp pointer to display which active screen should be get. (NULL to use the default
  54:d:\kzc\stm32\h743ii_lcd\lvgl\src/core\lv_disp.h ****  * screen)
  55:d:\kzc\stm32\h743ii_lcd\lvgl\src/core\lv_disp.h ****  * @return pointer to the active screen object (loaded by 'lv_scr_load()')
  56:d:\kzc\stm32\h743ii_lcd\lvgl\src/core\lv_disp.h ****  */
  57:d:\kzc\stm32\h743ii_lcd\lvgl\src/core\lv_disp.h **** lv_obj_t * lv_disp_get_scr_act(lv_disp_t * disp);
  58:d:\kzc\stm32\h743ii_lcd\lvgl\src/core\lv_disp.h **** 
  59:d:\kzc\stm32\h743ii_lcd\lvgl\src/core\lv_disp.h **** /**
  60:d:\kzc\stm32\h743ii_lcd\lvgl\src/core\lv_disp.h ****  * Return with a pointer to the previous screen. Only used during screen transitions.
  61:d:\kzc\stm32\h743ii_lcd\lvgl\src/core\lv_disp.h ****  * @param disp pointer to display which previous screen should be get. (NULL to use the default
  62:d:\kzc\stm32\h743ii_lcd\lvgl\src/core\lv_disp.h ****  * screen)
  63:d:\kzc\stm32\h743ii_lcd\lvgl\src/core\lv_disp.h ****  * @return pointer to the previous screen object or NULL if not used now
  64:d:\kzc\stm32\h743ii_lcd\lvgl\src/core\lv_disp.h ****  */
  65:d:\kzc\stm32\h743ii_lcd\lvgl\src/core\lv_disp.h **** lv_obj_t * lv_disp_get_scr_prev(lv_disp_t * disp);
  66:d:\kzc\stm32\h743ii_lcd\lvgl\src/core\lv_disp.h **** 
  67:d:\kzc\stm32\h743ii_lcd\lvgl\src/core\lv_disp.h **** /**
  68:d:\kzc\stm32\h743ii_lcd\lvgl\src/core\lv_disp.h ****  * Make a screen active
  69:d:\kzc\stm32\h743ii_lcd\lvgl\src/core\lv_disp.h ****  * @param scr pointer to a screen
  70:d:\kzc\stm32\h743ii_lcd\lvgl\src/core\lv_disp.h ****  */
  71:d:\kzc\stm32\h743ii_lcd\lvgl\src/core\lv_disp.h **** void lv_disp_load_scr(lv_obj_t * scr);
  72:d:\kzc\stm32\h743ii_lcd\lvgl\src/core\lv_disp.h **** 
  73:d:\kzc\stm32\h743ii_lcd\lvgl\src/core\lv_disp.h **** /**
  74:d:\kzc\stm32\h743ii_lcd\lvgl\src/core\lv_disp.h ****  * Return with the top layer. (Same on every screen and it is above the normal screen layer)
  75:d:\kzc\stm32\h743ii_lcd\lvgl\src/core\lv_disp.h ****  * @param disp pointer to display which top layer should be get. (NULL to use the default screen)
  76:d:\kzc\stm32\h743ii_lcd\lvgl\src/core\lv_disp.h ****  * @return pointer to the top layer object (transparent screen sized lv_obj)
  77:d:\kzc\stm32\h743ii_lcd\lvgl\src/core\lv_disp.h ****  */
  78:d:\kzc\stm32\h743ii_lcd\lvgl\src/core\lv_disp.h **** lv_obj_t * lv_disp_get_layer_top(lv_disp_t * disp);
  79:d:\kzc\stm32\h743ii_lcd\lvgl\src/core\lv_disp.h **** 
  80:d:\kzc\stm32\h743ii_lcd\lvgl\src/core\lv_disp.h **** /**
  81:d:\kzc\stm32\h743ii_lcd\lvgl\src/core\lv_disp.h ****  * Return with the sys. layer. (Same on every screen and it is above the normal screen and the top
  82:d:\kzc\stm32\h743ii_lcd\lvgl\src/core\lv_disp.h ****  * layer)
  83:d:\kzc\stm32\h743ii_lcd\lvgl\src/core\lv_disp.h ****  * @param disp pointer to display which sys. layer should be retrieved. (NULL to use the default sc
  84:d:\kzc\stm32\h743ii_lcd\lvgl\src/core\lv_disp.h ****  * @return pointer to the sys layer object (transparent screen sized lv_obj)
  85:d:\kzc\stm32\h743ii_lcd\lvgl\src/core\lv_disp.h ****  */
  86:d:\kzc\stm32\h743ii_lcd\lvgl\src/core\lv_disp.h **** lv_obj_t * lv_disp_get_layer_sys(lv_disp_t * disp);
  87:d:\kzc\stm32\h743ii_lcd\lvgl\src/core\lv_disp.h **** 
  88:d:\kzc\stm32\h743ii_lcd\lvgl\src/core\lv_disp.h **** /**
  89:d:\kzc\stm32\h743ii_lcd\lvgl\src/core\lv_disp.h ****  * Set the theme of a display
  90:d:\kzc\stm32\h743ii_lcd\lvgl\src/core\lv_disp.h ****  * @param disp pointer to a display
  91:d:\kzc\stm32\h743ii_lcd\lvgl\src/core\lv_disp.h ****  */
  92:d:\kzc\stm32\h743ii_lcd\lvgl\src/core\lv_disp.h **** void lv_disp_set_theme(lv_disp_t * disp, lv_theme_t * th);
  93:d:\kzc\stm32\h743ii_lcd\lvgl\src/core\lv_disp.h **** 
  94:d:\kzc\stm32\h743ii_lcd\lvgl\src/core\lv_disp.h **** /**
  95:d:\kzc\stm32\h743ii_lcd\lvgl\src/core\lv_disp.h ****  * Get the theme of a display
  96:d:\kzc\stm32\h743ii_lcd\lvgl\src/core\lv_disp.h ****  * @param disp pointer to a display
  97:d:\kzc\stm32\h743ii_lcd\lvgl\src/core\lv_disp.h ****  * @return the display's theme (can be NULL)
  98:d:\kzc\stm32\h743ii_lcd\lvgl\src/core\lv_disp.h ****  */
  99:d:\kzc\stm32\h743ii_lcd\lvgl\src/core\lv_disp.h **** lv_theme_t * lv_disp_get_theme(lv_disp_t * disp);
 100:d:\kzc\stm32\h743ii_lcd\lvgl\src/core\lv_disp.h **** 
ARM GAS  C:\Users\OSD\AppData\Local\Temp\cczpOCmA.s 			page 5


 101:d:\kzc\stm32\h743ii_lcd\lvgl\src/core\lv_disp.h **** /**
 102:d:\kzc\stm32\h743ii_lcd\lvgl\src/core\lv_disp.h ****  * Set the background color of a display
 103:d:\kzc\stm32\h743ii_lcd\lvgl\src/core\lv_disp.h ****  * @param disp pointer to a display
 104:d:\kzc\stm32\h743ii_lcd\lvgl\src/core\lv_disp.h ****  * @param color color of the background
 105:d:\kzc\stm32\h743ii_lcd\lvgl\src/core\lv_disp.h ****  */
 106:d:\kzc\stm32\h743ii_lcd\lvgl\src/core\lv_disp.h **** void lv_disp_set_bg_color(lv_disp_t * disp, lv_color_t color);
 107:d:\kzc\stm32\h743ii_lcd\lvgl\src/core\lv_disp.h **** 
 108:d:\kzc\stm32\h743ii_lcd\lvgl\src/core\lv_disp.h **** /**
 109:d:\kzc\stm32\h743ii_lcd\lvgl\src/core\lv_disp.h ****  * Set the background image of a display
 110:d:\kzc\stm32\h743ii_lcd\lvgl\src/core\lv_disp.h ****  * @param disp pointer to a display
 111:d:\kzc\stm32\h743ii_lcd\lvgl\src/core\lv_disp.h ****  * @param img_src path to file or pointer to an `lv_img_dsc_t` variable
 112:d:\kzc\stm32\h743ii_lcd\lvgl\src/core\lv_disp.h ****  */
 113:d:\kzc\stm32\h743ii_lcd\lvgl\src/core\lv_disp.h **** void lv_disp_set_bg_image(lv_disp_t * disp, const void  * img_src);
 114:d:\kzc\stm32\h743ii_lcd\lvgl\src/core\lv_disp.h **** 
 115:d:\kzc\stm32\h743ii_lcd\lvgl\src/core\lv_disp.h **** /**
 116:d:\kzc\stm32\h743ii_lcd\lvgl\src/core\lv_disp.h ****  * Set opacity of the background
 117:d:\kzc\stm32\h743ii_lcd\lvgl\src/core\lv_disp.h ****  * @param disp pointer to a display
 118:d:\kzc\stm32\h743ii_lcd\lvgl\src/core\lv_disp.h ****  * @param opa opacity (0..255)
 119:d:\kzc\stm32\h743ii_lcd\lvgl\src/core\lv_disp.h ****  */
 120:d:\kzc\stm32\h743ii_lcd\lvgl\src/core\lv_disp.h **** void lv_disp_set_bg_opa(lv_disp_t * disp, lv_opa_t opa);
 121:d:\kzc\stm32\h743ii_lcd\lvgl\src/core\lv_disp.h **** 
 122:d:\kzc\stm32\h743ii_lcd\lvgl\src/core\lv_disp.h **** /**
 123:d:\kzc\stm32\h743ii_lcd\lvgl\src/core\lv_disp.h ****  * Switch screen with animation
 124:d:\kzc\stm32\h743ii_lcd\lvgl\src/core\lv_disp.h ****  * @param scr pointer to the new screen to load
 125:d:\kzc\stm32\h743ii_lcd\lvgl\src/core\lv_disp.h ****  * @param anim_type type of the animation from `lv_scr_load_anim_t`, e.g. `LV_SCR_LOAD_ANIM_MOVE_LE
 126:d:\kzc\stm32\h743ii_lcd\lvgl\src/core\lv_disp.h ****  * @param time time of the animation
 127:d:\kzc\stm32\h743ii_lcd\lvgl\src/core\lv_disp.h ****  * @param delay delay before the transition
 128:d:\kzc\stm32\h743ii_lcd\lvgl\src/core\lv_disp.h ****  * @param auto_del true: automatically delete the old screen
 129:d:\kzc\stm32\h743ii_lcd\lvgl\src/core\lv_disp.h ****  */
 130:d:\kzc\stm32\h743ii_lcd\lvgl\src/core\lv_disp.h **** void lv_scr_load_anim(lv_obj_t * scr, lv_scr_load_anim_t anim_type, uint32_t time, uint32_t delay, 
 131:d:\kzc\stm32\h743ii_lcd\lvgl\src/core\lv_disp.h **** 
 132:d:\kzc\stm32\h743ii_lcd\lvgl\src/core\lv_disp.h **** /**
 133:d:\kzc\stm32\h743ii_lcd\lvgl\src/core\lv_disp.h ****  * Get elapsed time since last user activity on a display (e.g. click)
 134:d:\kzc\stm32\h743ii_lcd\lvgl\src/core\lv_disp.h ****  * @param disp pointer to a display (NULL to get the overall smallest inactivity)
 135:d:\kzc\stm32\h743ii_lcd\lvgl\src/core\lv_disp.h ****  * @return elapsed ticks (milliseconds) since the last activity
 136:d:\kzc\stm32\h743ii_lcd\lvgl\src/core\lv_disp.h ****  */
 137:d:\kzc\stm32\h743ii_lcd\lvgl\src/core\lv_disp.h **** uint32_t lv_disp_get_inactive_time(const lv_disp_t * disp);
 138:d:\kzc\stm32\h743ii_lcd\lvgl\src/core\lv_disp.h **** 
 139:d:\kzc\stm32\h743ii_lcd\lvgl\src/core\lv_disp.h **** /**
 140:d:\kzc\stm32\h743ii_lcd\lvgl\src/core\lv_disp.h ****  * Manually trigger an activity on a display
 141:d:\kzc\stm32\h743ii_lcd\lvgl\src/core\lv_disp.h ****  * @param disp pointer to a display (NULL to use the default display)
 142:d:\kzc\stm32\h743ii_lcd\lvgl\src/core\lv_disp.h ****  */
 143:d:\kzc\stm32\h743ii_lcd\lvgl\src/core\lv_disp.h **** void lv_disp_trig_activity(lv_disp_t * disp);
 144:d:\kzc\stm32\h743ii_lcd\lvgl\src/core\lv_disp.h **** 
 145:d:\kzc\stm32\h743ii_lcd\lvgl\src/core\lv_disp.h **** /**
 146:d:\kzc\stm32\h743ii_lcd\lvgl\src/core\lv_disp.h ****  * Clean any CPU cache that is related to the display.
 147:d:\kzc\stm32\h743ii_lcd\lvgl\src/core\lv_disp.h ****  * @param disp pointer to a display (NULL to use the default display)
 148:d:\kzc\stm32\h743ii_lcd\lvgl\src/core\lv_disp.h ****  */
 149:d:\kzc\stm32\h743ii_lcd\lvgl\src/core\lv_disp.h **** void lv_disp_clean_dcache(lv_disp_t * disp);
 150:d:\kzc\stm32\h743ii_lcd\lvgl\src/core\lv_disp.h **** 
 151:d:\kzc\stm32\h743ii_lcd\lvgl\src/core\lv_disp.h **** /**
 152:d:\kzc\stm32\h743ii_lcd\lvgl\src/core\lv_disp.h ****  * Temporarily enable and disable the invalidation of the display.
 153:d:\kzc\stm32\h743ii_lcd\lvgl\src/core\lv_disp.h ****  * @param disp pointer to a display (NULL to use the default display)
 154:d:\kzc\stm32\h743ii_lcd\lvgl\src/core\lv_disp.h ****  * @param en true: enable invalidation; false: invalidation
 155:d:\kzc\stm32\h743ii_lcd\lvgl\src/core\lv_disp.h ****  */
 156:d:\kzc\stm32\h743ii_lcd\lvgl\src/core\lv_disp.h **** void lv_disp_enable_invalidation(lv_disp_t * disp, bool en);
 157:d:\kzc\stm32\h743ii_lcd\lvgl\src/core\lv_disp.h **** 
ARM GAS  C:\Users\OSD\AppData\Local\Temp\cczpOCmA.s 			page 6


 158:d:\kzc\stm32\h743ii_lcd\lvgl\src/core\lv_disp.h **** /**
 159:d:\kzc\stm32\h743ii_lcd\lvgl\src/core\lv_disp.h ****  * Get display invalidation is enabled.
 160:d:\kzc\stm32\h743ii_lcd\lvgl\src/core\lv_disp.h ****  * @param disp pointer to a display (NULL to use the default display)
 161:d:\kzc\stm32\h743ii_lcd\lvgl\src/core\lv_disp.h ****  * @return return true if invalidation is enabled
 162:d:\kzc\stm32\h743ii_lcd\lvgl\src/core\lv_disp.h ****  */
 163:d:\kzc\stm32\h743ii_lcd\lvgl\src/core\lv_disp.h **** bool lv_disp_is_invalidation_enabled(lv_disp_t * disp);
 164:d:\kzc\stm32\h743ii_lcd\lvgl\src/core\lv_disp.h **** 
 165:d:\kzc\stm32\h743ii_lcd\lvgl\src/core\lv_disp.h **** /**
 166:d:\kzc\stm32\h743ii_lcd\lvgl\src/core\lv_disp.h ****  * Get a pointer to the screen refresher timer to
 167:d:\kzc\stm32\h743ii_lcd\lvgl\src/core\lv_disp.h ****  * modify its parameters with `lv_timer_...` functions.
 168:d:\kzc\stm32\h743ii_lcd\lvgl\src/core\lv_disp.h ****  * @param disp pointer to a display
 169:d:\kzc\stm32\h743ii_lcd\lvgl\src/core\lv_disp.h ****  * @return pointer to the display refresher timer. (NULL on error)
 170:d:\kzc\stm32\h743ii_lcd\lvgl\src/core\lv_disp.h ****  */
 171:d:\kzc\stm32\h743ii_lcd\lvgl\src/core\lv_disp.h **** lv_timer_t * _lv_disp_get_refr_timer(lv_disp_t * disp);
 172:d:\kzc\stm32\h743ii_lcd\lvgl\src/core\lv_disp.h **** 
 173:d:\kzc\stm32\h743ii_lcd\lvgl\src/core\lv_disp.h **** /*------------------------------------------------
 174:d:\kzc\stm32\h743ii_lcd\lvgl\src/core\lv_disp.h ****  * To improve backward compatibility
 175:d:\kzc\stm32\h743ii_lcd\lvgl\src/core\lv_disp.h ****  * Recommended only if you have one display
 176:d:\kzc\stm32\h743ii_lcd\lvgl\src/core\lv_disp.h ****  *------------------------------------------------*/
 177:d:\kzc\stm32\h743ii_lcd\lvgl\src/core\lv_disp.h **** 
 178:d:\kzc\stm32\h743ii_lcd\lvgl\src/core\lv_disp.h **** /**
 179:d:\kzc\stm32\h743ii_lcd\lvgl\src/core\lv_disp.h ****  * Get the active screen of the default display
 180:d:\kzc\stm32\h743ii_lcd\lvgl\src/core\lv_disp.h ****  * @return pointer to the active screen
 181:d:\kzc\stm32\h743ii_lcd\lvgl\src/core\lv_disp.h ****  */
 182:d:\kzc\stm32\h743ii_lcd\lvgl\src/core\lv_disp.h **** static inline lv_obj_t * lv_scr_act(void)
 107              		.loc 2 182 26 view .LVU19
 108              	.LBB6:
 183:d:\kzc\stm32\h743ii_lcd\lvgl\src/core\lv_disp.h **** {
 184:d:\kzc\stm32\h743ii_lcd\lvgl\src/core\lv_disp.h ****     return lv_disp_get_scr_act(lv_disp_get_default());
 109              		.loc 2 184 5 view .LVU20
 110              		.loc 2 184 12 is_stmt 0 view .LVU21
 111 0002 FFF7FEFF 		bl	lv_disp_get_default
 112              	.LVL7:
 113 0006 FFF7FEFF 		bl	lv_disp_get_scr_act
 114              	.LVL8:
 115              	.LBE6:
 116              	.LBE5:
 117              		.loc 1 19 28 view .LVU22
 118 000a FFF7FEFF 		bl	lv_calendar_create
 119              	.LVL9:
 120 000e 0446     		mov	r4, r0
 121              	.LVL10:
  20:lvgl/examples/widgets/calendar/lv_example_calendar_1.c ****     lv_obj_set_size(calendar, 185, 185);
 122              		.loc 1 20 5 is_stmt 1 view .LVU23
 123 0010 B922     		movs	r2, #185
 124 0012 1146     		mov	r1, r2
 125 0014 FFF7FEFF 		bl	lv_obj_set_size
 126              	.LVL11:
  21:lvgl/examples/widgets/calendar/lv_example_calendar_1.c ****     lv_obj_align(calendar, LV_ALIGN_CENTER, 0, 27);
 127              		.loc 1 21 5 view .LVU24
 128 0018 1B23     		movs	r3, #27
 129 001a 0022     		movs	r2, #0
 130 001c 0921     		movs	r1, #9
 131 001e 2046     		mov	r0, r4
 132 0020 FFF7FEFF 		bl	lv_obj_align
 133              	.LVL12:
  22:lvgl/examples/widgets/calendar/lv_example_calendar_1.c ****     lv_obj_add_event_cb(calendar, event_handler, LV_EVENT_ALL, NULL);
ARM GAS  C:\Users\OSD\AppData\Local\Temp\cczpOCmA.s 			page 7


 134              		.loc 1 22 5 view .LVU25
 135 0024 0023     		movs	r3, #0
 136 0026 1A46     		mov	r2, r3
 137 0028 1749     		ldr	r1, .L7
 138 002a 2046     		mov	r0, r4
 139 002c FFF7FEFF 		bl	lv_obj_add_event_cb
 140              	.LVL13:
  23:lvgl/examples/widgets/calendar/lv_example_calendar_1.c **** 
  24:lvgl/examples/widgets/calendar/lv_example_calendar_1.c ****     lv_calendar_set_today_date(calendar, 2021, 02, 23);
 141              		.loc 1 24 5 view .LVU26
 142 0030 1723     		movs	r3, #23
 143 0032 0222     		movs	r2, #2
 144 0034 40F2E571 		movw	r1, #2021
 145 0038 2046     		mov	r0, r4
 146 003a FFF7FEFF 		bl	lv_calendar_set_today_date
 147              	.LVL14:
  25:lvgl/examples/widgets/calendar/lv_example_calendar_1.c ****     lv_calendar_set_showed_date(calendar, 2021, 02);
 148              		.loc 1 25 5 view .LVU27
 149 003e 0222     		movs	r2, #2
 150 0040 40F2E571 		movw	r1, #2021
 151 0044 2046     		mov	r0, r4
 152 0046 FFF7FEFF 		bl	lv_calendar_set_showed_date
 153              	.LVL15:
  26:lvgl/examples/widgets/calendar/lv_example_calendar_1.c **** 
  27:lvgl/examples/widgets/calendar/lv_example_calendar_1.c ****     /*Highlight a few days*/
  28:lvgl/examples/widgets/calendar/lv_example_calendar_1.c ****     static lv_calendar_date_t highlighted_days[3];       /*Only its pointer will be saved so should
 154              		.loc 1 28 5 view .LVU28
  29:lvgl/examples/widgets/calendar/lv_example_calendar_1.c ****     highlighted_days[0].year = 2021;
 155              		.loc 1 29 5 view .LVU29
 156              		.loc 1 29 30 is_stmt 0 view .LVU30
 157 004a 1049     		ldr	r1, .L7+4
 158 004c 40F2E575 		movw	r5, #2021
 159 0050 0D80     		strh	r5, [r1]	@ movhi
  30:lvgl/examples/widgets/calendar/lv_example_calendar_1.c ****     highlighted_days[0].month = 02;
 160              		.loc 1 30 5 is_stmt 1 view .LVU31
 161              		.loc 1 30 31 is_stmt 0 view .LVU32
 162 0052 0223     		movs	r3, #2
 163 0054 8B70     		strb	r3, [r1, #2]
  31:lvgl/examples/widgets/calendar/lv_example_calendar_1.c ****     highlighted_days[0].day = 6;
 164              		.loc 1 31 5 is_stmt 1 view .LVU33
 165              		.loc 1 31 29 is_stmt 0 view .LVU34
 166 0056 0622     		movs	r2, #6
 167 0058 CA70     		strb	r2, [r1, #3]
  32:lvgl/examples/widgets/calendar/lv_example_calendar_1.c **** 
  33:lvgl/examples/widgets/calendar/lv_example_calendar_1.c ****     highlighted_days[1].year = 2021;
 168              		.loc 1 33 5 is_stmt 1 view .LVU35
 169              		.loc 1 33 30 is_stmt 0 view .LVU36
 170 005a 8D80     		strh	r5, [r1, #4]	@ movhi
  34:lvgl/examples/widgets/calendar/lv_example_calendar_1.c ****     highlighted_days[1].month = 02;
 171              		.loc 1 34 5 is_stmt 1 view .LVU37
 172              		.loc 1 34 31 is_stmt 0 view .LVU38
 173 005c 8B71     		strb	r3, [r1, #6]
  35:lvgl/examples/widgets/calendar/lv_example_calendar_1.c ****     highlighted_days[1].day = 11;
 174              		.loc 1 35 5 is_stmt 1 view .LVU39
 175              		.loc 1 35 29 is_stmt 0 view .LVU40
 176 005e 0B22     		movs	r2, #11
 177 0060 CA71     		strb	r2, [r1, #7]
ARM GAS  C:\Users\OSD\AppData\Local\Temp\cczpOCmA.s 			page 8


  36:lvgl/examples/widgets/calendar/lv_example_calendar_1.c **** 
  37:lvgl/examples/widgets/calendar/lv_example_calendar_1.c ****     highlighted_days[2].year = 2022;
 178              		.loc 1 37 5 is_stmt 1 view .LVU41
 179              		.loc 1 37 30 is_stmt 0 view .LVU42
 180 0062 40F2E672 		movw	r2, #2022
 181 0066 0A81     		strh	r2, [r1, #8]	@ movhi
  38:lvgl/examples/widgets/calendar/lv_example_calendar_1.c ****     highlighted_days[2].month = 02;
 182              		.loc 1 38 5 is_stmt 1 view .LVU43
 183              		.loc 1 38 31 is_stmt 0 view .LVU44
 184 0068 8B72     		strb	r3, [r1, #10]
  39:lvgl/examples/widgets/calendar/lv_example_calendar_1.c ****     highlighted_days[2].day = 22;
 185              		.loc 1 39 5 is_stmt 1 view .LVU45
 186              		.loc 1 39 29 is_stmt 0 view .LVU46
 187 006a 1623     		movs	r3, #22
 188 006c CB72     		strb	r3, [r1, #11]
  40:lvgl/examples/widgets/calendar/lv_example_calendar_1.c **** 
  41:lvgl/examples/widgets/calendar/lv_example_calendar_1.c ****     lv_calendar_set_highlighted_dates(calendar, highlighted_days, 3);
 189              		.loc 1 41 5 is_stmt 1 view .LVU47
 190 006e 0322     		movs	r2, #3
 191 0070 2046     		mov	r0, r4
 192 0072 FFF7FEFF 		bl	lv_calendar_set_highlighted_dates
 193              	.LVL16:
  42:lvgl/examples/widgets/calendar/lv_example_calendar_1.c **** 
  43:lvgl/examples/widgets/calendar/lv_example_calendar_1.c **** #if LV_USE_CALENDAR_HEADER_DROPDOWN
  44:lvgl/examples/widgets/calendar/lv_example_calendar_1.c ****     lv_calendar_header_dropdown_create(calendar);
 194              		.loc 1 44 5 view .LVU48
 195 0076 2046     		mov	r0, r4
 196 0078 FFF7FEFF 		bl	lv_calendar_header_dropdown_create
 197              	.LVL17:
  45:lvgl/examples/widgets/calendar/lv_example_calendar_1.c **** #elif LV_USE_CALENDAR_HEADER_ARROW
  46:lvgl/examples/widgets/calendar/lv_example_calendar_1.c ****     lv_calendar_header_arrow_create(calendar);
  47:lvgl/examples/widgets/calendar/lv_example_calendar_1.c **** #endif
  48:lvgl/examples/widgets/calendar/lv_example_calendar_1.c ****     lv_calendar_set_showed_date(calendar, 2021, 10);
 198              		.loc 1 48 5 view .LVU49
 199 007c 0A22     		movs	r2, #10
 200 007e 2946     		mov	r1, r5
 201 0080 2046     		mov	r0, r4
 202 0082 FFF7FEFF 		bl	lv_calendar_set_showed_date
 203              	.LVL18:
  49:lvgl/examples/widgets/calendar/lv_example_calendar_1.c **** }
 204              		.loc 1 49 1 is_stmt 0 view .LVU50
 205 0086 38BD     		pop	{r3, r4, r5, pc}
 206              	.LVL19:
 207              	.L8:
 208              		.loc 1 49 1 view .LVU51
 209              		.align	2
 210              	.L7:
 211 0088 00000000 		.word	event_handler
 212 008c 00000000 		.word	.LANCHOR0
 213              		.cfi_endproc
 214              	.LFE205:
 216              		.section	.bss.highlighted_days.0,"aw",%nobits
 217              		.align	2
 218              		.set	.LANCHOR0,. + 0
 221              	highlighted_days.0:
 222 0000 00000000 		.space	12
 222      00000000 
ARM GAS  C:\Users\OSD\AppData\Local\Temp\cczpOCmA.s 			page 9


 222      00000000 
 223              		.text
 224              	.Letext0:
 225              		.file 3 "c:\\tools\\gcc-arm-none-eabi\\arm-none-eabi\\include\\machine\\_default_types.h"
 226              		.file 4 "c:\\tools\\gcc-arm-none-eabi\\arm-none-eabi\\include\\sys\\_stdint.h"
 227              		.file 5 "d:\\kzc\\stm32\\h743ii_lcd\\lvgl\\src\\misc\\lv_area.h"
 228              		.file 6 "d:\\kzc\\stm32\\h743ii_lcd\\lvgl\\src\\misc\\lv_color.h"
 229              		.file 7 "d:\\kzc\\stm32\\h743ii_lcd\\lvgl\\src\\misc\\lv_style.h"
 230              		.file 8 "d:\\kzc\\stm32\\h743ii_lcd\\lvgl\\src/core/lv_obj.h"
 231              		.file 9 "d:\\kzc\\stm32\\h743ii_lcd\\lvgl\\src\\misc\\lv_ll.h"
 232              		.file 10 "d:\\kzc\\stm32\\h743ii_lcd\\lvgl\\src/core/lv_group.h"
 233              		.file 11 "d:\\kzc\\stm32\\h743ii_lcd\\lvgl\\src/core/lv_obj_scroll.h"
 234              		.file 12 "d:\\kzc\\stm32\\h743ii_lcd\\lvgl\\src/core/lv_obj_style.h"
 235              		.file 13 "d:\\kzc\\stm32\\h743ii_lcd\\lvgl\\src/core/lv_obj_class.h"
 236              		.file 14 "d:\\kzc\\stm32\\h743ii_lcd\\lvgl\\src/core/lv_event.h"
 237              		.file 15 "d:\\kzc\\stm32\\h743ii_lcd\\lvgl\\src/extra/widgets/calendar/lv_calendar.h"
 238              		.file 16 "d:\\kzc\\stm32\\h743ii_lcd\\lvgl\\src/hal/lv_hal_disp.h"
 239              		.file 17 "d:\\kzc\\stm32\\h743ii_lcd\\lvgl\\src\\core\\lv_obj_pos.h"
 240              		.file 18 "d:\\kzc\\stm32\\h743ii_lcd\\lvgl\\src/extra/widgets/calendar/lv_calendar_header_dropdown
ARM GAS  C:\Users\OSD\AppData\Local\Temp\cczpOCmA.s 			page 10

