ARM GAS  C:\Users\OSD\AppData\Local\Temp\ccDUSLEU.s 			page 1


   1              		.cpu cortex-m7
   2              		.arch armv7e-m
   3              		.fpu fpv5-d16
   4              		.eabi_attribute 28, 1
   5              		.eabi_attribute 20, 1
   6              		.eabi_attribute 21, 1
   7              		.eabi_attribute 23, 3
   8              		.eabi_attribute 24, 1
   9              		.eabi_attribute 25, 1
  10              		.eabi_attribute 26, 1
  11              		.eabi_attribute 30, 1
  12              		.eabi_attribute 34, 1
  13              		.eabi_attribute 18, 4
  14              		.file	"lv_example_table_1.c"
  15              		.text
  16              	.Ltext0:
  17              		.cfi_sections	.debug_frame
  18              		.section	.text.draw_part_event_cb,"ax",%progbits
  19              		.align	1
  20              		.syntax unified
  21              		.thumb
  22              		.thumb_func
  24              	draw_part_event_cb:
  25              	.LVL0:
  26              	.LFB204:
  27              		.file 1 "lvgl/examples/widgets/table/lv_example_table_1.c"
   1:lvgl/examples/widgets/table/lv_example_table_1.c **** #include "../../lv_examples.h"
   2:lvgl/examples/widgets/table/lv_example_table_1.c **** #if LV_USE_TABLE && LV_BUILD_EXAMPLES
   3:lvgl/examples/widgets/table/lv_example_table_1.c **** 
   4:lvgl/examples/widgets/table/lv_example_table_1.c **** static void draw_part_event_cb(lv_event_t * e)
   5:lvgl/examples/widgets/table/lv_example_table_1.c **** {
  28              		.loc 1 5 1 view -0
  29              		.cfi_startproc
  30              		@ args = 0, pretend = 0, frame = 0
  31              		@ frame_needed = 0, uses_anonymous_args = 0
  32              		.loc 1 5 1 is_stmt 0 view .LVU1
  33 0000 2DE9F843 		push	{r3, r4, r5, r6, r7, r8, r9, lr}
  34              		.cfi_def_cfa_offset 32
  35              		.cfi_offset 3, -32
  36              		.cfi_offset 4, -28
  37              		.cfi_offset 5, -24
  38              		.cfi_offset 6, -20
  39              		.cfi_offset 7, -16
  40              		.cfi_offset 8, -12
  41              		.cfi_offset 9, -8
  42              		.cfi_offset 14, -4
  43 0004 0446     		mov	r4, r0
   6:lvgl/examples/widgets/table/lv_example_table_1.c ****     lv_obj_t * obj = lv_event_get_target(e);
  44              		.loc 1 6 5 is_stmt 1 view .LVU2
  45              		.loc 1 6 22 is_stmt 0 view .LVU3
  46 0006 FFF7FEFF 		bl	lv_event_get_target
  47              	.LVL1:
  48              		.loc 1 6 22 view .LVU4
  49 000a 0546     		mov	r5, r0
  50              	.LVL2:
   7:lvgl/examples/widgets/table/lv_example_table_1.c ****     lv_obj_draw_part_dsc_t * dsc = lv_event_get_draw_part_dsc(e);
  51              		.loc 1 7 5 is_stmt 1 view .LVU5
ARM GAS  C:\Users\OSD\AppData\Local\Temp\ccDUSLEU.s 			page 2


  52              		.loc 1 7 36 is_stmt 0 view .LVU6
  53 000c 2046     		mov	r0, r4
  54              	.LVL3:
  55              		.loc 1 7 36 view .LVU7
  56 000e FFF7FEFF 		bl	lv_event_get_draw_part_dsc
  57              	.LVL4:
   8:lvgl/examples/widgets/table/lv_example_table_1.c ****     /*If the cells are drawn...*/
   9:lvgl/examples/widgets/table/lv_example_table_1.c ****     if(dsc->part == LV_PART_ITEMS) {
  58              		.loc 1 9 5 is_stmt 1 view .LVU8
  59              		.loc 1 9 11 is_stmt 0 view .LVU9
  60 0012 436B     		ldr	r3, [r0, #52]
  61              		.loc 1 9 7 view .LVU10
  62 0014 B3F5A02F 		cmp	r3, #327680
  63 0018 01D0     		beq	.L7
  64              	.LVL5:
  65              	.L1:
  10:lvgl/examples/widgets/table/lv_example_table_1.c ****         uint32_t row = dsc->id /  lv_table_get_col_cnt(obj);
  11:lvgl/examples/widgets/table/lv_example_table_1.c ****         uint32_t col = dsc->id - row * lv_table_get_col_cnt(obj);
  12:lvgl/examples/widgets/table/lv_example_table_1.c **** 
  13:lvgl/examples/widgets/table/lv_example_table_1.c ****         /*Make the texts in the first cell center aligned*/
  14:lvgl/examples/widgets/table/lv_example_table_1.c ****         if(row == 0) {
  15:lvgl/examples/widgets/table/lv_example_table_1.c ****             dsc->label_dsc->align = LV_TEXT_ALIGN_CENTER;
  16:lvgl/examples/widgets/table/lv_example_table_1.c ****             dsc->rect_dsc->bg_color = lv_color_mix(lv_palette_main(LV_PALETTE_BLUE), dsc->rect_dsc-
  17:lvgl/examples/widgets/table/lv_example_table_1.c ****             dsc->rect_dsc->bg_opa = LV_OPA_COVER;
  18:lvgl/examples/widgets/table/lv_example_table_1.c ****         }
  19:lvgl/examples/widgets/table/lv_example_table_1.c ****         /*In the first column align the texts to the right*/
  20:lvgl/examples/widgets/table/lv_example_table_1.c ****         else if(col == 0) {
  21:lvgl/examples/widgets/table/lv_example_table_1.c ****             dsc->label_dsc->align = LV_TEXT_ALIGN_RIGHT;
  22:lvgl/examples/widgets/table/lv_example_table_1.c ****         }
  23:lvgl/examples/widgets/table/lv_example_table_1.c **** 
  24:lvgl/examples/widgets/table/lv_example_table_1.c ****         /*MAke every 2nd row grayish*/
  25:lvgl/examples/widgets/table/lv_example_table_1.c ****         if((row != 0 && row % 2) == 0) {
  26:lvgl/examples/widgets/table/lv_example_table_1.c ****             dsc->rect_dsc->bg_color = lv_color_mix(lv_palette_main(LV_PALETTE_GREY), dsc->rect_dsc-
  27:lvgl/examples/widgets/table/lv_example_table_1.c ****             dsc->rect_dsc->bg_opa = LV_OPA_COVER;
  28:lvgl/examples/widgets/table/lv_example_table_1.c ****         }
  29:lvgl/examples/widgets/table/lv_example_table_1.c ****     }
  30:lvgl/examples/widgets/table/lv_example_table_1.c **** }
  66              		.loc 1 30 1 view .LVU11
  67 001a BDE8F883 		pop	{r3, r4, r5, r6, r7, r8, r9, pc}
  68              	.LVL6:
  69              	.L7:
  70              		.loc 1 30 1 view .LVU12
  71 001e 0446     		mov	r4, r0
  72              	.LVL7:
  73              	.LBB9:
  10:lvgl/examples/widgets/table/lv_example_table_1.c ****         uint32_t row = dsc->id /  lv_table_get_col_cnt(obj);
  74              		.loc 1 10 9 is_stmt 1 view .LVU13
  10:lvgl/examples/widgets/table/lv_example_table_1.c ****         uint32_t row = dsc->id /  lv_table_get_col_cnt(obj);
  75              		.loc 1 10 27 is_stmt 0 view .LVU14
  76 0020 876B     		ldr	r7, [r0, #56]
  10:lvgl/examples/widgets/table/lv_example_table_1.c ****         uint32_t row = dsc->id /  lv_table_get_col_cnt(obj);
  77              		.loc 1 10 35 view .LVU15
  78 0022 2846     		mov	r0, r5
  79              	.LVL8:
  10:lvgl/examples/widgets/table/lv_example_table_1.c ****         uint32_t row = dsc->id /  lv_table_get_col_cnt(obj);
  80              		.loc 1 10 35 view .LVU16
  81 0024 FFF7FEFF 		bl	lv_table_get_col_cnt
ARM GAS  C:\Users\OSD\AppData\Local\Temp\ccDUSLEU.s 			page 3


  82              	.LVL9:
  83 0028 0646     		mov	r6, r0
  10:lvgl/examples/widgets/table/lv_example_table_1.c ****         uint32_t row = dsc->id /  lv_table_get_col_cnt(obj);
  84              		.loc 1 10 18 view .LVU17
  85 002a B7FBF0F8 		udiv	r8, r7, r0
  86              	.LVL10:
  11:lvgl/examples/widgets/table/lv_example_table_1.c **** 
  87              		.loc 1 11 9 is_stmt 1 view .LVU18
  11:lvgl/examples/widgets/table/lv_example_table_1.c **** 
  88              		.loc 1 11 27 is_stmt 0 view .LVU19
  89 002e D4F83890 		ldr	r9, [r4, #56]
  11:lvgl/examples/widgets/table/lv_example_table_1.c **** 
  90              		.loc 1 11 40 view .LVU20
  91 0032 2846     		mov	r0, r5
  92 0034 FFF7FEFF 		bl	lv_table_get_col_cnt
  93              	.LVL11:
  11:lvgl/examples/widgets/table/lv_example_table_1.c **** 
  94              		.loc 1 11 38 view .LVU21
  95 0038 08FB00F0 		mul	r0, r8, r0
  96              	.LVL12:
  14:lvgl/examples/widgets/table/lv_example_table_1.c ****             dsc->label_dsc->align = LV_TEXT_ALIGN_CENTER;
  97              		.loc 1 14 9 is_stmt 1 view .LVU22
  14:lvgl/examples/widgets/table/lv_example_table_1.c ****             dsc->label_dsc->align = LV_TEXT_ALIGN_CENTER;
  98              		.loc 1 14 11 is_stmt 0 view .LVU23
  99 003c B742     		cmp	r7, r6
 100 003e 4AD3     		bcc	.L8
  20:lvgl/examples/widgets/table/lv_example_table_1.c ****             dsc->label_dsc->align = LV_TEXT_ALIGN_RIGHT;
 101              		.loc 1 20 14 is_stmt 1 view .LVU24
  20:lvgl/examples/widgets/table/lv_example_table_1.c ****             dsc->label_dsc->align = LV_TEXT_ALIGN_RIGHT;
 102              		.loc 1 20 16 is_stmt 0 view .LVU25
 103 0040 8145     		cmp	r9, r0
 104 0042 00F09080 		beq	.L9
 105              	.LVL13:
 106              	.L4:
  25:lvgl/examples/widgets/table/lv_example_table_1.c ****             dsc->rect_dsc->bg_color = lv_color_mix(lv_palette_main(LV_PALETTE_GREY), dsc->rect_dsc-
 107              		.loc 1 25 9 is_stmt 1 view .LVU26
  25:lvgl/examples/widgets/table/lv_example_table_1.c ****             dsc->rect_dsc->bg_color = lv_color_mix(lv_palette_main(LV_PALETTE_GREY), dsc->rect_dsc-
 108              		.loc 1 25 22 is_stmt 0 view .LVU27
 109 0046 B742     		cmp	r7, r6
 110 0048 02D3     		bcc	.L5
  25:lvgl/examples/widgets/table/lv_example_table_1.c ****             dsc->rect_dsc->bg_color = lv_color_mix(lv_palette_main(LV_PALETTE_GREY), dsc->rect_dsc-
 111              		.loc 1 25 22 discriminator 1 view .LVU28
 112 004a 18F0010F 		tst	r8, #1
 113 004e E4D1     		bne	.L1
 114              	.L5:
  26:lvgl/examples/widgets/table/lv_example_table_1.c ****             dsc->rect_dsc->bg_opa = LV_OPA_COVER;
 115              		.loc 1 26 13 is_stmt 1 view .LVU29
  26:lvgl/examples/widgets/table/lv_example_table_1.c ****             dsc->rect_dsc->bg_opa = LV_OPA_COVER;
 116              		.loc 1 26 39 is_stmt 0 view .LVU30
 117 0050 1220     		movs	r0, #18
 118              	.LVL14:
  26:lvgl/examples/widgets/table/lv_example_table_1.c ****             dsc->rect_dsc->bg_opa = LV_OPA_COVER;
 119              		.loc 1 26 39 view .LVU31
 120 0052 FFF7FEFF 		bl	lv_palette_main
 121              	.LVL15:
  26:lvgl/examples/widgets/table/lv_example_table_1.c ****             dsc->rect_dsc->bg_opa = LV_OPA_COVER;
 122              		.loc 1 26 89 view .LVU32
ARM GAS  C:\Users\OSD\AppData\Local\Temp\ccDUSLEU.s 			page 4


 123 0056 2569     		ldr	r5, [r4, #16]
 124 0058 6B68     		ldr	r3, [r5, #4]
 125              	.LVL16:
 126              	.LBB10:
 127              	.LBI10:
 128              		.file 2 "d:\\kzc\\stm32\\h743ii_lcd\\lvgl\\src\\misc\\lv_color.h"
   1:d:\kzc\stm32\h743ii_lcd\lvgl\src\misc\lv_color.h **** /**
   2:d:\kzc\stm32\h743ii_lcd\lvgl\src\misc\lv_color.h ****  * @file lv_color.h
   3:d:\kzc\stm32\h743ii_lcd\lvgl\src\misc\lv_color.h ****  *
   4:d:\kzc\stm32\h743ii_lcd\lvgl\src\misc\lv_color.h ****  */
   5:d:\kzc\stm32\h743ii_lcd\lvgl\src\misc\lv_color.h **** 
   6:d:\kzc\stm32\h743ii_lcd\lvgl\src\misc\lv_color.h **** #ifndef LV_COLOR_H
   7:d:\kzc\stm32\h743ii_lcd\lvgl\src\misc\lv_color.h **** #define LV_COLOR_H
   8:d:\kzc\stm32\h743ii_lcd\lvgl\src\misc\lv_color.h **** 
   9:d:\kzc\stm32\h743ii_lcd\lvgl\src\misc\lv_color.h **** #ifdef __cplusplus
  10:d:\kzc\stm32\h743ii_lcd\lvgl\src\misc\lv_color.h **** extern "C" {
  11:d:\kzc\stm32\h743ii_lcd\lvgl\src\misc\lv_color.h **** #endif
  12:d:\kzc\stm32\h743ii_lcd\lvgl\src\misc\lv_color.h **** 
  13:d:\kzc\stm32\h743ii_lcd\lvgl\src\misc\lv_color.h **** /*********************
  14:d:\kzc\stm32\h743ii_lcd\lvgl\src\misc\lv_color.h ****  *      INCLUDES
  15:d:\kzc\stm32\h743ii_lcd\lvgl\src\misc\lv_color.h ****  *********************/
  16:d:\kzc\stm32\h743ii_lcd\lvgl\src\misc\lv_color.h **** #include "../lv_conf_internal.h"
  17:d:\kzc\stm32\h743ii_lcd\lvgl\src\misc\lv_color.h **** #include "lv_assert.h"
  18:d:\kzc\stm32\h743ii_lcd\lvgl\src\misc\lv_color.h **** #include "lv_math.h"
  19:d:\kzc\stm32\h743ii_lcd\lvgl\src\misc\lv_color.h **** #include "lv_types.h"
  20:d:\kzc\stm32\h743ii_lcd\lvgl\src\misc\lv_color.h **** 
  21:d:\kzc\stm32\h743ii_lcd\lvgl\src\misc\lv_color.h **** /*Error checking*/
  22:d:\kzc\stm32\h743ii_lcd\lvgl\src\misc\lv_color.h **** #if LV_COLOR_DEPTH == 24
  23:d:\kzc\stm32\h743ii_lcd\lvgl\src\misc\lv_color.h **** #error "LV_COLOR_DEPTH 24 is deprecated. Use LV_COLOR_DEPTH 32 instead (lv_conf.h)"
  24:d:\kzc\stm32\h743ii_lcd\lvgl\src\misc\lv_color.h **** #endif
  25:d:\kzc\stm32\h743ii_lcd\lvgl\src\misc\lv_color.h **** 
  26:d:\kzc\stm32\h743ii_lcd\lvgl\src\misc\lv_color.h **** #if LV_COLOR_DEPTH != 16 && LV_COLOR_16_SWAP != 0
  27:d:\kzc\stm32\h743ii_lcd\lvgl\src\misc\lv_color.h **** #error "LV_COLOR_16_SWAP requires LV_COLOR_DEPTH == 16. Set it in lv_conf.h"
  28:d:\kzc\stm32\h743ii_lcd\lvgl\src\misc\lv_color.h **** #endif
  29:d:\kzc\stm32\h743ii_lcd\lvgl\src\misc\lv_color.h **** 
  30:d:\kzc\stm32\h743ii_lcd\lvgl\src\misc\lv_color.h **** #include <stdint.h>
  31:d:\kzc\stm32\h743ii_lcd\lvgl\src\misc\lv_color.h **** 
  32:d:\kzc\stm32\h743ii_lcd\lvgl\src\misc\lv_color.h **** /*********************
  33:d:\kzc\stm32\h743ii_lcd\lvgl\src\misc\lv_color.h ****  *      DEFINES
  34:d:\kzc\stm32\h743ii_lcd\lvgl\src\misc\lv_color.h ****  *********************/
  35:d:\kzc\stm32\h743ii_lcd\lvgl\src\misc\lv_color.h **** LV_EXPORT_CONST_INT(LV_COLOR_DEPTH);
  36:d:\kzc\stm32\h743ii_lcd\lvgl\src\misc\lv_color.h **** LV_EXPORT_CONST_INT(LV_COLOR_16_SWAP);
  37:d:\kzc\stm32\h743ii_lcd\lvgl\src\misc\lv_color.h **** 
  38:d:\kzc\stm32\h743ii_lcd\lvgl\src\misc\lv_color.h **** /**
  39:d:\kzc\stm32\h743ii_lcd\lvgl\src\misc\lv_color.h ****  * Opacity percentages.
  40:d:\kzc\stm32\h743ii_lcd\lvgl\src\misc\lv_color.h ****  */
  41:d:\kzc\stm32\h743ii_lcd\lvgl\src\misc\lv_color.h **** enum {
  42:d:\kzc\stm32\h743ii_lcd\lvgl\src\misc\lv_color.h ****     LV_OPA_TRANSP = 0,
  43:d:\kzc\stm32\h743ii_lcd\lvgl\src\misc\lv_color.h ****     LV_OPA_0      = 0,
  44:d:\kzc\stm32\h743ii_lcd\lvgl\src\misc\lv_color.h ****     LV_OPA_10     = 25,
  45:d:\kzc\stm32\h743ii_lcd\lvgl\src\misc\lv_color.h ****     LV_OPA_20     = 51,
  46:d:\kzc\stm32\h743ii_lcd\lvgl\src\misc\lv_color.h ****     LV_OPA_30     = 76,
  47:d:\kzc\stm32\h743ii_lcd\lvgl\src\misc\lv_color.h ****     LV_OPA_40     = 102,
  48:d:\kzc\stm32\h743ii_lcd\lvgl\src\misc\lv_color.h ****     LV_OPA_50     = 127,
  49:d:\kzc\stm32\h743ii_lcd\lvgl\src\misc\lv_color.h ****     LV_OPA_60     = 153,
  50:d:\kzc\stm32\h743ii_lcd\lvgl\src\misc\lv_color.h ****     LV_OPA_70     = 178,
  51:d:\kzc\stm32\h743ii_lcd\lvgl\src\misc\lv_color.h ****     LV_OPA_80     = 204,
ARM GAS  C:\Users\OSD\AppData\Local\Temp\ccDUSLEU.s 			page 5


  52:d:\kzc\stm32\h743ii_lcd\lvgl\src\misc\lv_color.h ****     LV_OPA_90     = 229,
  53:d:\kzc\stm32\h743ii_lcd\lvgl\src\misc\lv_color.h ****     LV_OPA_100    = 255,
  54:d:\kzc\stm32\h743ii_lcd\lvgl\src\misc\lv_color.h ****     LV_OPA_COVER  = 255,
  55:d:\kzc\stm32\h743ii_lcd\lvgl\src\misc\lv_color.h **** };
  56:d:\kzc\stm32\h743ii_lcd\lvgl\src\misc\lv_color.h **** 
  57:d:\kzc\stm32\h743ii_lcd\lvgl\src\misc\lv_color.h **** #define LV_OPA_MIN 2    /*Opacities below this will be transparent*/
  58:d:\kzc\stm32\h743ii_lcd\lvgl\src\misc\lv_color.h **** #define LV_OPA_MAX 253  /*Opacities above this will fully cover*/
  59:d:\kzc\stm32\h743ii_lcd\lvgl\src\misc\lv_color.h **** 
  60:d:\kzc\stm32\h743ii_lcd\lvgl\src\misc\lv_color.h **** #if LV_COLOR_DEPTH == 1
  61:d:\kzc\stm32\h743ii_lcd\lvgl\src\misc\lv_color.h **** #define LV_COLOR_SIZE 8
  62:d:\kzc\stm32\h743ii_lcd\lvgl\src\misc\lv_color.h **** #elif LV_COLOR_DEPTH == 8
  63:d:\kzc\stm32\h743ii_lcd\lvgl\src\misc\lv_color.h **** #define LV_COLOR_SIZE 8
  64:d:\kzc\stm32\h743ii_lcd\lvgl\src\misc\lv_color.h **** #elif LV_COLOR_DEPTH == 16
  65:d:\kzc\stm32\h743ii_lcd\lvgl\src\misc\lv_color.h **** #define LV_COLOR_SIZE 16
  66:d:\kzc\stm32\h743ii_lcd\lvgl\src\misc\lv_color.h **** #elif LV_COLOR_DEPTH == 32
  67:d:\kzc\stm32\h743ii_lcd\lvgl\src\misc\lv_color.h **** #define LV_COLOR_SIZE 32
  68:d:\kzc\stm32\h743ii_lcd\lvgl\src\misc\lv_color.h **** #else
  69:d:\kzc\stm32\h743ii_lcd\lvgl\src\misc\lv_color.h **** #error "Invalid LV_COLOR_DEPTH in lv_conf.h! Set it to 1, 8, 16 or 32!"
  70:d:\kzc\stm32\h743ii_lcd\lvgl\src\misc\lv_color.h **** #endif
  71:d:\kzc\stm32\h743ii_lcd\lvgl\src\misc\lv_color.h **** 
  72:d:\kzc\stm32\h743ii_lcd\lvgl\src\misc\lv_color.h **** #if defined(__cplusplus) && !defined(_LV_COLOR_HAS_MODERN_CPP)
  73:d:\kzc\stm32\h743ii_lcd\lvgl\src\misc\lv_color.h **** /**
  74:d:\kzc\stm32\h743ii_lcd\lvgl\src\misc\lv_color.h **** * MSVC compiler's definition of the __cplusplus indicating 199711L regardless to C++ standard versi
  75:d:\kzc\stm32\h743ii_lcd\lvgl\src\misc\lv_color.h **** * see https://devblogs.microsoft.com/cppblog/msvc-now-correctly-reports-cplusplus
  76:d:\kzc\stm32\h743ii_lcd\lvgl\src\misc\lv_color.h **** * so we use _MSC_VER macro instead of __cplusplus
  77:d:\kzc\stm32\h743ii_lcd\lvgl\src\misc\lv_color.h **** */
  78:d:\kzc\stm32\h743ii_lcd\lvgl\src\misc\lv_color.h **** #ifdef _MSC_VER
  79:d:\kzc\stm32\h743ii_lcd\lvgl\src\misc\lv_color.h **** #if _MSC_VER >= 1900 /*Visual Studio 2015*/
  80:d:\kzc\stm32\h743ii_lcd\lvgl\src\misc\lv_color.h **** #define _LV_COLOR_HAS_MODERN_CPP 1
  81:d:\kzc\stm32\h743ii_lcd\lvgl\src\misc\lv_color.h **** #endif
  82:d:\kzc\stm32\h743ii_lcd\lvgl\src\misc\lv_color.h **** #else
  83:d:\kzc\stm32\h743ii_lcd\lvgl\src\misc\lv_color.h **** #if __cplusplus >= 201103L
  84:d:\kzc\stm32\h743ii_lcd\lvgl\src\misc\lv_color.h **** #define _LV_COLOR_HAS_MODERN_CPP 1
  85:d:\kzc\stm32\h743ii_lcd\lvgl\src\misc\lv_color.h **** #endif
  86:d:\kzc\stm32\h743ii_lcd\lvgl\src\misc\lv_color.h **** #endif
  87:d:\kzc\stm32\h743ii_lcd\lvgl\src\misc\lv_color.h **** #endif /*__cplusplus*/
  88:d:\kzc\stm32\h743ii_lcd\lvgl\src\misc\lv_color.h **** 
  89:d:\kzc\stm32\h743ii_lcd\lvgl\src\misc\lv_color.h **** #ifndef _LV_COLOR_HAS_MODERN_CPP
  90:d:\kzc\stm32\h743ii_lcd\lvgl\src\misc\lv_color.h **** #define _LV_COLOR_HAS_MODERN_CPP 0
  91:d:\kzc\stm32\h743ii_lcd\lvgl\src\misc\lv_color.h **** #endif
  92:d:\kzc\stm32\h743ii_lcd\lvgl\src\misc\lv_color.h **** 
  93:d:\kzc\stm32\h743ii_lcd\lvgl\src\misc\lv_color.h **** #if _LV_COLOR_HAS_MODERN_CPP
  94:d:\kzc\stm32\h743ii_lcd\lvgl\src\misc\lv_color.h **** /*Fix msvc compiler error C4576 inside C++ code*/
  95:d:\kzc\stm32\h743ii_lcd\lvgl\src\misc\lv_color.h **** #define _LV_COLOR_MAKE_TYPE_HELPER lv_color_t
  96:d:\kzc\stm32\h743ii_lcd\lvgl\src\misc\lv_color.h **** #else
  97:d:\kzc\stm32\h743ii_lcd\lvgl\src\misc\lv_color.h **** #define _LV_COLOR_MAKE_TYPE_HELPER (lv_color_t)
  98:d:\kzc\stm32\h743ii_lcd\lvgl\src\misc\lv_color.h **** #endif
  99:d:\kzc\stm32\h743ii_lcd\lvgl\src\misc\lv_color.h **** 
 100:d:\kzc\stm32\h743ii_lcd\lvgl\src\misc\lv_color.h **** /*---------------------------------------
 101:d:\kzc\stm32\h743ii_lcd\lvgl\src\misc\lv_color.h ****  * Macros for all existing color depths
 102:d:\kzc\stm32\h743ii_lcd\lvgl\src\misc\lv_color.h ****  * to set/get values of the color channels
 103:d:\kzc\stm32\h743ii_lcd\lvgl\src\misc\lv_color.h ****  *------------------------------------------*/
 104:d:\kzc\stm32\h743ii_lcd\lvgl\src\misc\lv_color.h **** # define LV_COLOR_SET_R1(c, v) (c).ch.red = (uint8_t)((v) & 0x1)
 105:d:\kzc\stm32\h743ii_lcd\lvgl\src\misc\lv_color.h **** # define LV_COLOR_SET_G1(c, v) (c).ch.green = (uint8_t)((v) & 0x1)
 106:d:\kzc\stm32\h743ii_lcd\lvgl\src\misc\lv_color.h **** # define LV_COLOR_SET_B1(c, v) (c).ch.blue = (uint8_t)((v) & 0x1)
 107:d:\kzc\stm32\h743ii_lcd\lvgl\src\misc\lv_color.h **** # define LV_COLOR_SET_A1(c, v) do {} while(0)
 108:d:\kzc\stm32\h743ii_lcd\lvgl\src\misc\lv_color.h **** 
ARM GAS  C:\Users\OSD\AppData\Local\Temp\ccDUSLEU.s 			page 6


 109:d:\kzc\stm32\h743ii_lcd\lvgl\src\misc\lv_color.h **** # define LV_COLOR_GET_R1(c) (c).ch.red
 110:d:\kzc\stm32\h743ii_lcd\lvgl\src\misc\lv_color.h **** # define LV_COLOR_GET_G1(c) (c).ch.green
 111:d:\kzc\stm32\h743ii_lcd\lvgl\src\misc\lv_color.h **** # define LV_COLOR_GET_B1(c) (c).ch.blue
 112:d:\kzc\stm32\h743ii_lcd\lvgl\src\misc\lv_color.h **** # define LV_COLOR_GET_A1(c) 0xFF
 113:d:\kzc\stm32\h743ii_lcd\lvgl\src\misc\lv_color.h **** 
 114:d:\kzc\stm32\h743ii_lcd\lvgl\src\misc\lv_color.h **** # define _LV_COLOR_ZERO_INITIALIZER1 {0x00}
 115:d:\kzc\stm32\h743ii_lcd\lvgl\src\misc\lv_color.h **** # define LV_COLOR_MAKE1(r8, g8, b8)  {(uint8_t)((b8 >> 7) | (g8 >> 7) | (r8 >> 7))}
 116:d:\kzc\stm32\h743ii_lcd\lvgl\src\misc\lv_color.h **** 
 117:d:\kzc\stm32\h743ii_lcd\lvgl\src\misc\lv_color.h **** # define LV_COLOR_SET_R8(c, v) (c).ch.red = (uint8_t)((v) & 0x7U)
 118:d:\kzc\stm32\h743ii_lcd\lvgl\src\misc\lv_color.h **** # define LV_COLOR_SET_G8(c, v) (c).ch.green = (uint8_t)((v) & 0x7U)
 119:d:\kzc\stm32\h743ii_lcd\lvgl\src\misc\lv_color.h **** # define LV_COLOR_SET_B8(c, v) (c).ch.blue = (uint8_t)((v) & 0x3U)
 120:d:\kzc\stm32\h743ii_lcd\lvgl\src\misc\lv_color.h **** # define LV_COLOR_SET_A8(c, v) do {} while(0)
 121:d:\kzc\stm32\h743ii_lcd\lvgl\src\misc\lv_color.h **** 
 122:d:\kzc\stm32\h743ii_lcd\lvgl\src\misc\lv_color.h **** # define LV_COLOR_GET_R8(c) (c).ch.red
 123:d:\kzc\stm32\h743ii_lcd\lvgl\src\misc\lv_color.h **** # define LV_COLOR_GET_G8(c) (c).ch.green
 124:d:\kzc\stm32\h743ii_lcd\lvgl\src\misc\lv_color.h **** # define LV_COLOR_GET_B8(c) (c).ch.blue
 125:d:\kzc\stm32\h743ii_lcd\lvgl\src\misc\lv_color.h **** # define LV_COLOR_GET_A8(c) 0xFF
 126:d:\kzc\stm32\h743ii_lcd\lvgl\src\misc\lv_color.h **** 
 127:d:\kzc\stm32\h743ii_lcd\lvgl\src\misc\lv_color.h **** # define _LV_COLOR_ZERO_INITIALIZER8 {{0x00, 0x00, 0x00}}
 128:d:\kzc\stm32\h743ii_lcd\lvgl\src\misc\lv_color.h **** # define LV_COLOR_MAKE8(r8, g8, b8) {{(uint8_t)((b8 >> 6) & 0x3U), (uint8_t)((g8 >> 5) & 0x7U), (ui
 129:d:\kzc\stm32\h743ii_lcd\lvgl\src\misc\lv_color.h **** 
 130:d:\kzc\stm32\h743ii_lcd\lvgl\src\misc\lv_color.h **** # define LV_COLOR_SET_R16(c, v) (c).ch.red = (uint8_t)((v) & 0x1FU)
 131:d:\kzc\stm32\h743ii_lcd\lvgl\src\misc\lv_color.h **** #if LV_COLOR_16_SWAP == 0
 132:d:\kzc\stm32\h743ii_lcd\lvgl\src\misc\lv_color.h **** # define LV_COLOR_SET_G16(c, v) (c).ch.green = (uint8_t)((v) & 0x3FU)
 133:d:\kzc\stm32\h743ii_lcd\lvgl\src\misc\lv_color.h **** #else
 134:d:\kzc\stm32\h743ii_lcd\lvgl\src\misc\lv_color.h **** # define LV_COLOR_SET_G16(c, v) {(c).ch.green_h = (uint8_t)(((v) >> 3) & 0x7); (c).ch.green_l = (ui
 135:d:\kzc\stm32\h743ii_lcd\lvgl\src\misc\lv_color.h **** #endif
 136:d:\kzc\stm32\h743ii_lcd\lvgl\src\misc\lv_color.h **** # define LV_COLOR_SET_B16(c, v) (c).ch.blue = (uint8_t)((v) & 0x1FU)
 137:d:\kzc\stm32\h743ii_lcd\lvgl\src\misc\lv_color.h **** # define LV_COLOR_SET_A16(c, v) do {} while(0)
 138:d:\kzc\stm32\h743ii_lcd\lvgl\src\misc\lv_color.h **** 
 139:d:\kzc\stm32\h743ii_lcd\lvgl\src\misc\lv_color.h **** # define LV_COLOR_GET_R16(c) (c).ch.red
 140:d:\kzc\stm32\h743ii_lcd\lvgl\src\misc\lv_color.h **** #if LV_COLOR_16_SWAP == 0
 141:d:\kzc\stm32\h743ii_lcd\lvgl\src\misc\lv_color.h **** # define LV_COLOR_GET_G16(c) (c).ch.green
 142:d:\kzc\stm32\h743ii_lcd\lvgl\src\misc\lv_color.h **** #else
 143:d:\kzc\stm32\h743ii_lcd\lvgl\src\misc\lv_color.h **** # define LV_COLOR_GET_G16(c) (((c).ch.green_h << 3) + (c).ch.green_l)
 144:d:\kzc\stm32\h743ii_lcd\lvgl\src\misc\lv_color.h **** #endif
 145:d:\kzc\stm32\h743ii_lcd\lvgl\src\misc\lv_color.h **** # define LV_COLOR_GET_B16(c) (c).ch.blue
 146:d:\kzc\stm32\h743ii_lcd\lvgl\src\misc\lv_color.h **** # define LV_COLOR_GET_A16(c) 0xFF
 147:d:\kzc\stm32\h743ii_lcd\lvgl\src\misc\lv_color.h **** 
 148:d:\kzc\stm32\h743ii_lcd\lvgl\src\misc\lv_color.h **** #if LV_COLOR_16_SWAP == 0
 149:d:\kzc\stm32\h743ii_lcd\lvgl\src\misc\lv_color.h **** # define _LV_COLOR_ZERO_INITIALIZER16  {{0x00, 0x00, 0x00}}
 150:d:\kzc\stm32\h743ii_lcd\lvgl\src\misc\lv_color.h **** # define LV_COLOR_MAKE16(r8, g8, b8) {{(uint8_t)((b8 >> 3) & 0x1FU), (uint8_t)((g8 >> 2) & 0x3FU), 
 151:d:\kzc\stm32\h743ii_lcd\lvgl\src\misc\lv_color.h **** #else
 152:d:\kzc\stm32\h743ii_lcd\lvgl\src\misc\lv_color.h **** # define _LV_COLOR_ZERO_INITIALIZER16 {{0x00, 0x00, 0x00, 0x00}}
 153:d:\kzc\stm32\h743ii_lcd\lvgl\src\misc\lv_color.h **** # define LV_COLOR_MAKE16(r8, g8, b8) {{(uint8_t)((g8 >> 5) & 0x7U), (uint8_t)((r8 >> 3) & 0x1FU), (
 154:d:\kzc\stm32\h743ii_lcd\lvgl\src\misc\lv_color.h **** #endif
 155:d:\kzc\stm32\h743ii_lcd\lvgl\src\misc\lv_color.h **** 
 156:d:\kzc\stm32\h743ii_lcd\lvgl\src\misc\lv_color.h **** # define LV_COLOR_SET_R32(c, v) (c).ch.red = (uint8_t)((v) & 0xFF)
 157:d:\kzc\stm32\h743ii_lcd\lvgl\src\misc\lv_color.h **** # define LV_COLOR_SET_G32(c, v) (c).ch.green = (uint8_t)((v) & 0xFF)
 158:d:\kzc\stm32\h743ii_lcd\lvgl\src\misc\lv_color.h **** # define LV_COLOR_SET_B32(c, v) (c).ch.blue = (uint8_t)((v) & 0xFF)
 159:d:\kzc\stm32\h743ii_lcd\lvgl\src\misc\lv_color.h **** # define LV_COLOR_SET_A32(c, v) (c).ch.alpha = (uint8_t)((v) & 0xFF)
 160:d:\kzc\stm32\h743ii_lcd\lvgl\src\misc\lv_color.h **** 
 161:d:\kzc\stm32\h743ii_lcd\lvgl\src\misc\lv_color.h **** # define LV_COLOR_GET_R32(c) (c).ch.red
 162:d:\kzc\stm32\h743ii_lcd\lvgl\src\misc\lv_color.h **** # define LV_COLOR_GET_G32(c) (c).ch.green
 163:d:\kzc\stm32\h743ii_lcd\lvgl\src\misc\lv_color.h **** # define LV_COLOR_GET_B32(c) (c).ch.blue
 164:d:\kzc\stm32\h743ii_lcd\lvgl\src\misc\lv_color.h **** # define LV_COLOR_GET_A32(c) (c).ch.alpha
 165:d:\kzc\stm32\h743ii_lcd\lvgl\src\misc\lv_color.h **** 
ARM GAS  C:\Users\OSD\AppData\Local\Temp\ccDUSLEU.s 			page 7


 166:d:\kzc\stm32\h743ii_lcd\lvgl\src\misc\lv_color.h **** # define _LV_COLOR_ZERO_INITIALIZER32  {{0x00, 0x00, 0x00, 0x00}}
 167:d:\kzc\stm32\h743ii_lcd\lvgl\src\misc\lv_color.h **** # define LV_COLOR_MAKE32(r8, g8, b8) {{b8, g8, r8, 0xff}} /*Fix 0xff alpha*/
 168:d:\kzc\stm32\h743ii_lcd\lvgl\src\misc\lv_color.h **** 
 169:d:\kzc\stm32\h743ii_lcd\lvgl\src\misc\lv_color.h **** /*---------------------------------------
 170:d:\kzc\stm32\h743ii_lcd\lvgl\src\misc\lv_color.h ****  * Macros for the current color depth
 171:d:\kzc\stm32\h743ii_lcd\lvgl\src\misc\lv_color.h ****  * to set/get values of the color channels
 172:d:\kzc\stm32\h743ii_lcd\lvgl\src\misc\lv_color.h ****  *------------------------------------------*/
 173:d:\kzc\stm32\h743ii_lcd\lvgl\src\misc\lv_color.h **** #define LV_COLOR_SET_R(c, v) LV_CONCAT(LV_COLOR_SET_R, LV_COLOR_DEPTH)(c, v)
 174:d:\kzc\stm32\h743ii_lcd\lvgl\src\misc\lv_color.h **** #define LV_COLOR_SET_G(c, v) LV_CONCAT(LV_COLOR_SET_G, LV_COLOR_DEPTH)(c, v)
 175:d:\kzc\stm32\h743ii_lcd\lvgl\src\misc\lv_color.h **** #define LV_COLOR_SET_B(c, v) LV_CONCAT(LV_COLOR_SET_B, LV_COLOR_DEPTH)(c, v)
 176:d:\kzc\stm32\h743ii_lcd\lvgl\src\misc\lv_color.h **** #define LV_COLOR_SET_A(c, v) LV_CONCAT(LV_COLOR_SET_A, LV_COLOR_DEPTH)(c, v)
 177:d:\kzc\stm32\h743ii_lcd\lvgl\src\misc\lv_color.h **** 
 178:d:\kzc\stm32\h743ii_lcd\lvgl\src\misc\lv_color.h **** #define LV_COLOR_GET_R(c) LV_CONCAT(LV_COLOR_GET_R, LV_COLOR_DEPTH)(c)
 179:d:\kzc\stm32\h743ii_lcd\lvgl\src\misc\lv_color.h **** #define LV_COLOR_GET_G(c) LV_CONCAT(LV_COLOR_GET_G, LV_COLOR_DEPTH)(c)
 180:d:\kzc\stm32\h743ii_lcd\lvgl\src\misc\lv_color.h **** #define LV_COLOR_GET_B(c) LV_CONCAT(LV_COLOR_GET_B, LV_COLOR_DEPTH)(c)
 181:d:\kzc\stm32\h743ii_lcd\lvgl\src\misc\lv_color.h **** #define LV_COLOR_GET_A(c) LV_CONCAT(LV_COLOR_GET_A, LV_COLOR_DEPTH)(c)
 182:d:\kzc\stm32\h743ii_lcd\lvgl\src\misc\lv_color.h **** 
 183:d:\kzc\stm32\h743ii_lcd\lvgl\src\misc\lv_color.h **** #define _LV_COLOR_ZERO_INITIALIZER LV_CONCAT(_LV_COLOR_ZERO_INITIALIZER, LV_COLOR_DEPTH)
 184:d:\kzc\stm32\h743ii_lcd\lvgl\src\misc\lv_color.h **** #define LV_COLOR_MAKE(r8, g8, b8) LV_CONCAT(LV_COLOR_MAKE, LV_COLOR_DEPTH)(r8, g8, b8)
 185:d:\kzc\stm32\h743ii_lcd\lvgl\src\misc\lv_color.h **** 
 186:d:\kzc\stm32\h743ii_lcd\lvgl\src\misc\lv_color.h **** /**********************
 187:d:\kzc\stm32\h743ii_lcd\lvgl\src\misc\lv_color.h ****  *      TYPEDEFS
 188:d:\kzc\stm32\h743ii_lcd\lvgl\src\misc\lv_color.h ****  **********************/
 189:d:\kzc\stm32\h743ii_lcd\lvgl\src\misc\lv_color.h **** 
 190:d:\kzc\stm32\h743ii_lcd\lvgl\src\misc\lv_color.h **** typedef union {
 191:d:\kzc\stm32\h743ii_lcd\lvgl\src\misc\lv_color.h ****     uint8_t full; /*must be declared first to set all bits of byte via initializer list*/
 192:d:\kzc\stm32\h743ii_lcd\lvgl\src\misc\lv_color.h ****     union {
 193:d:\kzc\stm32\h743ii_lcd\lvgl\src\misc\lv_color.h ****         uint8_t blue : 1;
 194:d:\kzc\stm32\h743ii_lcd\lvgl\src\misc\lv_color.h ****         uint8_t green : 1;
 195:d:\kzc\stm32\h743ii_lcd\lvgl\src\misc\lv_color.h ****         uint8_t red : 1;
 196:d:\kzc\stm32\h743ii_lcd\lvgl\src\misc\lv_color.h ****     } ch;
 197:d:\kzc\stm32\h743ii_lcd\lvgl\src\misc\lv_color.h **** } lv_color1_t;
 198:d:\kzc\stm32\h743ii_lcd\lvgl\src\misc\lv_color.h **** 
 199:d:\kzc\stm32\h743ii_lcd\lvgl\src\misc\lv_color.h **** typedef union {
 200:d:\kzc\stm32\h743ii_lcd\lvgl\src\misc\lv_color.h ****     struct {
 201:d:\kzc\stm32\h743ii_lcd\lvgl\src\misc\lv_color.h ****         uint8_t blue : 2;
 202:d:\kzc\stm32\h743ii_lcd\lvgl\src\misc\lv_color.h ****         uint8_t green : 3;
 203:d:\kzc\stm32\h743ii_lcd\lvgl\src\misc\lv_color.h ****         uint8_t red : 3;
 204:d:\kzc\stm32\h743ii_lcd\lvgl\src\misc\lv_color.h ****     } ch;
 205:d:\kzc\stm32\h743ii_lcd\lvgl\src\misc\lv_color.h ****     uint8_t full;
 206:d:\kzc\stm32\h743ii_lcd\lvgl\src\misc\lv_color.h **** } lv_color8_t;
 207:d:\kzc\stm32\h743ii_lcd\lvgl\src\misc\lv_color.h **** 
 208:d:\kzc\stm32\h743ii_lcd\lvgl\src\misc\lv_color.h **** typedef union {
 209:d:\kzc\stm32\h743ii_lcd\lvgl\src\misc\lv_color.h ****     struct {
 210:d:\kzc\stm32\h743ii_lcd\lvgl\src\misc\lv_color.h **** #if LV_COLOR_16_SWAP == 0
 211:d:\kzc\stm32\h743ii_lcd\lvgl\src\misc\lv_color.h ****         uint16_t blue : 5;
 212:d:\kzc\stm32\h743ii_lcd\lvgl\src\misc\lv_color.h ****         uint16_t green : 6;
 213:d:\kzc\stm32\h743ii_lcd\lvgl\src\misc\lv_color.h ****         uint16_t red : 5;
 214:d:\kzc\stm32\h743ii_lcd\lvgl\src\misc\lv_color.h **** #else
 215:d:\kzc\stm32\h743ii_lcd\lvgl\src\misc\lv_color.h ****         uint16_t green_h : 3;
 216:d:\kzc\stm32\h743ii_lcd\lvgl\src\misc\lv_color.h ****         uint16_t red : 5;
 217:d:\kzc\stm32\h743ii_lcd\lvgl\src\misc\lv_color.h ****         uint16_t blue : 5;
 218:d:\kzc\stm32\h743ii_lcd\lvgl\src\misc\lv_color.h ****         uint16_t green_l : 3;
 219:d:\kzc\stm32\h743ii_lcd\lvgl\src\misc\lv_color.h **** #endif
 220:d:\kzc\stm32\h743ii_lcd\lvgl\src\misc\lv_color.h ****     } ch;
 221:d:\kzc\stm32\h743ii_lcd\lvgl\src\misc\lv_color.h ****     uint16_t full;
 222:d:\kzc\stm32\h743ii_lcd\lvgl\src\misc\lv_color.h **** } lv_color16_t;
ARM GAS  C:\Users\OSD\AppData\Local\Temp\ccDUSLEU.s 			page 8


 223:d:\kzc\stm32\h743ii_lcd\lvgl\src\misc\lv_color.h **** 
 224:d:\kzc\stm32\h743ii_lcd\lvgl\src\misc\lv_color.h **** typedef union {
 225:d:\kzc\stm32\h743ii_lcd\lvgl\src\misc\lv_color.h ****     struct {
 226:d:\kzc\stm32\h743ii_lcd\lvgl\src\misc\lv_color.h ****         uint8_t blue;
 227:d:\kzc\stm32\h743ii_lcd\lvgl\src\misc\lv_color.h ****         uint8_t green;
 228:d:\kzc\stm32\h743ii_lcd\lvgl\src\misc\lv_color.h ****         uint8_t red;
 229:d:\kzc\stm32\h743ii_lcd\lvgl\src\misc\lv_color.h ****         uint8_t alpha;
 230:d:\kzc\stm32\h743ii_lcd\lvgl\src\misc\lv_color.h ****     } ch;
 231:d:\kzc\stm32\h743ii_lcd\lvgl\src\misc\lv_color.h ****     uint32_t full;
 232:d:\kzc\stm32\h743ii_lcd\lvgl\src\misc\lv_color.h **** } lv_color32_t;
 233:d:\kzc\stm32\h743ii_lcd\lvgl\src\misc\lv_color.h **** 
 234:d:\kzc\stm32\h743ii_lcd\lvgl\src\misc\lv_color.h **** typedef LV_CONCAT3(uint, LV_COLOR_SIZE, _t) lv_color_int_t;
 235:d:\kzc\stm32\h743ii_lcd\lvgl\src\misc\lv_color.h **** typedef LV_CONCAT3(lv_color, LV_COLOR_DEPTH, _t) lv_color_t;
 236:d:\kzc\stm32\h743ii_lcd\lvgl\src\misc\lv_color.h **** 
 237:d:\kzc\stm32\h743ii_lcd\lvgl\src\misc\lv_color.h **** typedef struct {
 238:d:\kzc\stm32\h743ii_lcd\lvgl\src\misc\lv_color.h ****     uint16_t h;
 239:d:\kzc\stm32\h743ii_lcd\lvgl\src\misc\lv_color.h ****     uint8_t s;
 240:d:\kzc\stm32\h743ii_lcd\lvgl\src\misc\lv_color.h ****     uint8_t v;
 241:d:\kzc\stm32\h743ii_lcd\lvgl\src\misc\lv_color.h **** } lv_color_hsv_t;
 242:d:\kzc\stm32\h743ii_lcd\lvgl\src\misc\lv_color.h **** 
 243:d:\kzc\stm32\h743ii_lcd\lvgl\src\misc\lv_color.h **** //! @cond Doxygen_Suppress
 244:d:\kzc\stm32\h743ii_lcd\lvgl\src\misc\lv_color.h **** /*No idea where the guard is required but else throws warnings in the docs*/
 245:d:\kzc\stm32\h743ii_lcd\lvgl\src\misc\lv_color.h **** typedef uint8_t lv_opa_t;
 246:d:\kzc\stm32\h743ii_lcd\lvgl\src\misc\lv_color.h **** //! @endcond
 247:d:\kzc\stm32\h743ii_lcd\lvgl\src\misc\lv_color.h **** 
 248:d:\kzc\stm32\h743ii_lcd\lvgl\src\misc\lv_color.h **** struct _lv_color_filter_dsc_t;
 249:d:\kzc\stm32\h743ii_lcd\lvgl\src\misc\lv_color.h **** 
 250:d:\kzc\stm32\h743ii_lcd\lvgl\src\misc\lv_color.h **** typedef lv_color_t (*lv_color_filter_cb_t)(const struct _lv_color_filter_dsc_t *, lv_color_t, lv_op
 251:d:\kzc\stm32\h743ii_lcd\lvgl\src\misc\lv_color.h **** 
 252:d:\kzc\stm32\h743ii_lcd\lvgl\src\misc\lv_color.h **** typedef struct _lv_color_filter_dsc_t {
 253:d:\kzc\stm32\h743ii_lcd\lvgl\src\misc\lv_color.h ****     lv_color_filter_cb_t filter_cb;
 254:d:\kzc\stm32\h743ii_lcd\lvgl\src\misc\lv_color.h ****     void * user_data;
 255:d:\kzc\stm32\h743ii_lcd\lvgl\src\misc\lv_color.h **** } lv_color_filter_dsc_t;
 256:d:\kzc\stm32\h743ii_lcd\lvgl\src\misc\lv_color.h **** 
 257:d:\kzc\stm32\h743ii_lcd\lvgl\src\misc\lv_color.h **** typedef enum {
 258:d:\kzc\stm32\h743ii_lcd\lvgl\src\misc\lv_color.h ****     LV_PALETTE_RED,
 259:d:\kzc\stm32\h743ii_lcd\lvgl\src\misc\lv_color.h ****     LV_PALETTE_PINK,
 260:d:\kzc\stm32\h743ii_lcd\lvgl\src\misc\lv_color.h ****     LV_PALETTE_PURPLE,
 261:d:\kzc\stm32\h743ii_lcd\lvgl\src\misc\lv_color.h ****     LV_PALETTE_DEEP_PURPLE,
 262:d:\kzc\stm32\h743ii_lcd\lvgl\src\misc\lv_color.h ****     LV_PALETTE_INDIGO,
 263:d:\kzc\stm32\h743ii_lcd\lvgl\src\misc\lv_color.h ****     LV_PALETTE_BLUE,
 264:d:\kzc\stm32\h743ii_lcd\lvgl\src\misc\lv_color.h ****     LV_PALETTE_LIGHT_BLUE,
 265:d:\kzc\stm32\h743ii_lcd\lvgl\src\misc\lv_color.h ****     LV_PALETTE_CYAN,
 266:d:\kzc\stm32\h743ii_lcd\lvgl\src\misc\lv_color.h ****     LV_PALETTE_TEAL,
 267:d:\kzc\stm32\h743ii_lcd\lvgl\src\misc\lv_color.h ****     LV_PALETTE_GREEN,
 268:d:\kzc\stm32\h743ii_lcd\lvgl\src\misc\lv_color.h ****     LV_PALETTE_LIGHT_GREEN,
 269:d:\kzc\stm32\h743ii_lcd\lvgl\src\misc\lv_color.h ****     LV_PALETTE_LIME,
 270:d:\kzc\stm32\h743ii_lcd\lvgl\src\misc\lv_color.h ****     LV_PALETTE_YELLOW,
 271:d:\kzc\stm32\h743ii_lcd\lvgl\src\misc\lv_color.h ****     LV_PALETTE_AMBER,
 272:d:\kzc\stm32\h743ii_lcd\lvgl\src\misc\lv_color.h ****     LV_PALETTE_ORANGE,
 273:d:\kzc\stm32\h743ii_lcd\lvgl\src\misc\lv_color.h ****     LV_PALETTE_DEEP_ORANGE,
 274:d:\kzc\stm32\h743ii_lcd\lvgl\src\misc\lv_color.h ****     LV_PALETTE_BROWN,
 275:d:\kzc\stm32\h743ii_lcd\lvgl\src\misc\lv_color.h ****     LV_PALETTE_BLUE_GREY,
 276:d:\kzc\stm32\h743ii_lcd\lvgl\src\misc\lv_color.h ****     LV_PALETTE_GREY,
 277:d:\kzc\stm32\h743ii_lcd\lvgl\src\misc\lv_color.h ****     _LV_PALETTE_LAST,
 278:d:\kzc\stm32\h743ii_lcd\lvgl\src\misc\lv_color.h ****     LV_PALETTE_NONE = 0xff,
 279:d:\kzc\stm32\h743ii_lcd\lvgl\src\misc\lv_color.h **** } lv_palette_t;
ARM GAS  C:\Users\OSD\AppData\Local\Temp\ccDUSLEU.s 			page 9


 280:d:\kzc\stm32\h743ii_lcd\lvgl\src\misc\lv_color.h **** 
 281:d:\kzc\stm32\h743ii_lcd\lvgl\src\misc\lv_color.h **** /**********************
 282:d:\kzc\stm32\h743ii_lcd\lvgl\src\misc\lv_color.h ****  * GLOBAL PROTOTYPES
 283:d:\kzc\stm32\h743ii_lcd\lvgl\src\misc\lv_color.h ****  **********************/
 284:d:\kzc\stm32\h743ii_lcd\lvgl\src\misc\lv_color.h **** 
 285:d:\kzc\stm32\h743ii_lcd\lvgl\src\misc\lv_color.h **** /*In color conversations:
 286:d:\kzc\stm32\h743ii_lcd\lvgl\src\misc\lv_color.h ****  * - When converting to bigger color type the LSB weight of 1 LSB is calculated
 287:d:\kzc\stm32\h743ii_lcd\lvgl\src\misc\lv_color.h ****  *   E.g. 16 bit Red has 5 bits
 288:d:\kzc\stm32\h743ii_lcd\lvgl\src\misc\lv_color.h ****  *         8 bit Red has 3 bits
 289:d:\kzc\stm32\h743ii_lcd\lvgl\src\misc\lv_color.h ****  *        ----------------------
 290:d:\kzc\stm32\h743ii_lcd\lvgl\src\misc\lv_color.h ****  *        8 bit red LSB = (2^5 - 1) / (2^3 - 1) = 31 / 7 = 4
 291:d:\kzc\stm32\h743ii_lcd\lvgl\src\misc\lv_color.h ****  *
 292:d:\kzc\stm32\h743ii_lcd\lvgl\src\misc\lv_color.h ****  * - When calculating to smaller color type simply shift out the LSBs
 293:d:\kzc\stm32\h743ii_lcd\lvgl\src\misc\lv_color.h ****  *   E.g.  8 bit Red has 3 bits
 294:d:\kzc\stm32\h743ii_lcd\lvgl\src\misc\lv_color.h ****  *        16 bit Red has 5 bits
 295:d:\kzc\stm32\h743ii_lcd\lvgl\src\misc\lv_color.h ****  *        ----------------------
 296:d:\kzc\stm32\h743ii_lcd\lvgl\src\misc\lv_color.h ****  *         Shift right with 5 - 3 = 2
 297:d:\kzc\stm32\h743ii_lcd\lvgl\src\misc\lv_color.h ****  */
 298:d:\kzc\stm32\h743ii_lcd\lvgl\src\misc\lv_color.h **** static inline uint8_t lv_color_to1(lv_color_t color)
 299:d:\kzc\stm32\h743ii_lcd\lvgl\src\misc\lv_color.h **** {
 300:d:\kzc\stm32\h743ii_lcd\lvgl\src\misc\lv_color.h **** #if LV_COLOR_DEPTH == 1
 301:d:\kzc\stm32\h743ii_lcd\lvgl\src\misc\lv_color.h ****     return color.full;
 302:d:\kzc\stm32\h743ii_lcd\lvgl\src\misc\lv_color.h **** #elif LV_COLOR_DEPTH == 8
 303:d:\kzc\stm32\h743ii_lcd\lvgl\src\misc\lv_color.h ****     if((LV_COLOR_GET_R(color) & 0x4) || (LV_COLOR_GET_G(color) & 0x4) || (LV_COLOR_GET_B(color) & 0
 304:d:\kzc\stm32\h743ii_lcd\lvgl\src\misc\lv_color.h ****         return 1;
 305:d:\kzc\stm32\h743ii_lcd\lvgl\src\misc\lv_color.h ****     }
 306:d:\kzc\stm32\h743ii_lcd\lvgl\src\misc\lv_color.h ****     else {
 307:d:\kzc\stm32\h743ii_lcd\lvgl\src\misc\lv_color.h ****         return 0;
 308:d:\kzc\stm32\h743ii_lcd\lvgl\src\misc\lv_color.h ****     }
 309:d:\kzc\stm32\h743ii_lcd\lvgl\src\misc\lv_color.h **** #elif LV_COLOR_DEPTH == 16
 310:d:\kzc\stm32\h743ii_lcd\lvgl\src\misc\lv_color.h ****     if((LV_COLOR_GET_R(color) & 0x10) || (LV_COLOR_GET_G(color) & 0x20) || (LV_COLOR_GET_B(color) &
 311:d:\kzc\stm32\h743ii_lcd\lvgl\src\misc\lv_color.h ****         return 1;
 312:d:\kzc\stm32\h743ii_lcd\lvgl\src\misc\lv_color.h ****     }
 313:d:\kzc\stm32\h743ii_lcd\lvgl\src\misc\lv_color.h ****     else {
 314:d:\kzc\stm32\h743ii_lcd\lvgl\src\misc\lv_color.h ****         return 0;
 315:d:\kzc\stm32\h743ii_lcd\lvgl\src\misc\lv_color.h ****     }
 316:d:\kzc\stm32\h743ii_lcd\lvgl\src\misc\lv_color.h **** #elif LV_COLOR_DEPTH == 32
 317:d:\kzc\stm32\h743ii_lcd\lvgl\src\misc\lv_color.h ****     if((LV_COLOR_GET_R(color) & 0x80) || (LV_COLOR_GET_G(color) & 0x80) || (LV_COLOR_GET_B(color) &
 318:d:\kzc\stm32\h743ii_lcd\lvgl\src\misc\lv_color.h ****         return 1;
 319:d:\kzc\stm32\h743ii_lcd\lvgl\src\misc\lv_color.h ****     }
 320:d:\kzc\stm32\h743ii_lcd\lvgl\src\misc\lv_color.h ****     else {
 321:d:\kzc\stm32\h743ii_lcd\lvgl\src\misc\lv_color.h ****         return 0;
 322:d:\kzc\stm32\h743ii_lcd\lvgl\src\misc\lv_color.h ****     }
 323:d:\kzc\stm32\h743ii_lcd\lvgl\src\misc\lv_color.h **** #endif
 324:d:\kzc\stm32\h743ii_lcd\lvgl\src\misc\lv_color.h **** }
 325:d:\kzc\stm32\h743ii_lcd\lvgl\src\misc\lv_color.h **** 
 326:d:\kzc\stm32\h743ii_lcd\lvgl\src\misc\lv_color.h **** static inline uint8_t lv_color_to8(lv_color_t color)
 327:d:\kzc\stm32\h743ii_lcd\lvgl\src\misc\lv_color.h **** {
 328:d:\kzc\stm32\h743ii_lcd\lvgl\src\misc\lv_color.h **** #if LV_COLOR_DEPTH == 1
 329:d:\kzc\stm32\h743ii_lcd\lvgl\src\misc\lv_color.h ****     if(color.full == 0)
 330:d:\kzc\stm32\h743ii_lcd\lvgl\src\misc\lv_color.h ****         return 0;
 331:d:\kzc\stm32\h743ii_lcd\lvgl\src\misc\lv_color.h ****     else
 332:d:\kzc\stm32\h743ii_lcd\lvgl\src\misc\lv_color.h ****         return 0xFF;
 333:d:\kzc\stm32\h743ii_lcd\lvgl\src\misc\lv_color.h **** #elif LV_COLOR_DEPTH == 8
 334:d:\kzc\stm32\h743ii_lcd\lvgl\src\misc\lv_color.h ****     return color.full;
 335:d:\kzc\stm32\h743ii_lcd\lvgl\src\misc\lv_color.h **** #elif LV_COLOR_DEPTH == 16
 336:d:\kzc\stm32\h743ii_lcd\lvgl\src\misc\lv_color.h ****     lv_color8_t ret;
ARM GAS  C:\Users\OSD\AppData\Local\Temp\ccDUSLEU.s 			page 10


 337:d:\kzc\stm32\h743ii_lcd\lvgl\src\misc\lv_color.h ****     LV_COLOR_SET_R8(ret, LV_COLOR_GET_R(color) >> 2); /*5 - 3  = 2*/
 338:d:\kzc\stm32\h743ii_lcd\lvgl\src\misc\lv_color.h ****     LV_COLOR_SET_G8(ret, LV_COLOR_GET_G(color) >> 3); /*6 - 3  = 3*/
 339:d:\kzc\stm32\h743ii_lcd\lvgl\src\misc\lv_color.h ****     LV_COLOR_SET_B8(ret, LV_COLOR_GET_B(color) >> 3); /*5 - 2  = 3*/
 340:d:\kzc\stm32\h743ii_lcd\lvgl\src\misc\lv_color.h ****     return ret.full;
 341:d:\kzc\stm32\h743ii_lcd\lvgl\src\misc\lv_color.h **** #elif LV_COLOR_DEPTH == 32
 342:d:\kzc\stm32\h743ii_lcd\lvgl\src\misc\lv_color.h ****     lv_color8_t ret;
 343:d:\kzc\stm32\h743ii_lcd\lvgl\src\misc\lv_color.h ****     LV_COLOR_SET_R8(ret, LV_COLOR_GET_R(color) >> 5); /*8 - 3  = 5*/
 344:d:\kzc\stm32\h743ii_lcd\lvgl\src\misc\lv_color.h ****     LV_COLOR_SET_G8(ret, LV_COLOR_GET_G(color) >> 5); /*8 - 3  = 5*/
 345:d:\kzc\stm32\h743ii_lcd\lvgl\src\misc\lv_color.h ****     LV_COLOR_SET_B8(ret, LV_COLOR_GET_B(color) >> 6); /*8 - 2  = 6*/
 346:d:\kzc\stm32\h743ii_lcd\lvgl\src\misc\lv_color.h ****     return ret.full;
 347:d:\kzc\stm32\h743ii_lcd\lvgl\src\misc\lv_color.h **** #endif
 348:d:\kzc\stm32\h743ii_lcd\lvgl\src\misc\lv_color.h **** }
 349:d:\kzc\stm32\h743ii_lcd\lvgl\src\misc\lv_color.h **** 
 350:d:\kzc\stm32\h743ii_lcd\lvgl\src\misc\lv_color.h **** static inline uint16_t lv_color_to16(lv_color_t color)
 351:d:\kzc\stm32\h743ii_lcd\lvgl\src\misc\lv_color.h **** {
 352:d:\kzc\stm32\h743ii_lcd\lvgl\src\misc\lv_color.h **** #if LV_COLOR_DEPTH == 1
 353:d:\kzc\stm32\h743ii_lcd\lvgl\src\misc\lv_color.h ****     if(color.full == 0)
 354:d:\kzc\stm32\h743ii_lcd\lvgl\src\misc\lv_color.h ****         return 0;
 355:d:\kzc\stm32\h743ii_lcd\lvgl\src\misc\lv_color.h ****     else
 356:d:\kzc\stm32\h743ii_lcd\lvgl\src\misc\lv_color.h ****         return 0xFFFF;
 357:d:\kzc\stm32\h743ii_lcd\lvgl\src\misc\lv_color.h **** #elif LV_COLOR_DEPTH == 8
 358:d:\kzc\stm32\h743ii_lcd\lvgl\src\misc\lv_color.h ****     lv_color16_t ret;
 359:d:\kzc\stm32\h743ii_lcd\lvgl\src\misc\lv_color.h ****     LV_COLOR_SET_R16(ret, LV_COLOR_GET_R(color) * 4);  /*(2^5 - 1)/(2^3 - 1) = 31/7 = 4*/
 360:d:\kzc\stm32\h743ii_lcd\lvgl\src\misc\lv_color.h ****     LV_COLOR_SET_G16(ret, LV_COLOR_GET_G(color) * 9);  /*(2^6 - 1)/(2^3 - 1) = 63/7 = 9*/
 361:d:\kzc\stm32\h743ii_lcd\lvgl\src\misc\lv_color.h ****     LV_COLOR_SET_B16(ret, LV_COLOR_GET_B(color) * 10); /*(2^5 - 1)/(2^2 - 1) = 31/3 = 10*/
 362:d:\kzc\stm32\h743ii_lcd\lvgl\src\misc\lv_color.h ****     return ret.full;
 363:d:\kzc\stm32\h743ii_lcd\lvgl\src\misc\lv_color.h **** #elif LV_COLOR_DEPTH == 16
 364:d:\kzc\stm32\h743ii_lcd\lvgl\src\misc\lv_color.h ****     return color.full;
 365:d:\kzc\stm32\h743ii_lcd\lvgl\src\misc\lv_color.h **** #elif LV_COLOR_DEPTH == 32
 366:d:\kzc\stm32\h743ii_lcd\lvgl\src\misc\lv_color.h ****     lv_color16_t ret;
 367:d:\kzc\stm32\h743ii_lcd\lvgl\src\misc\lv_color.h ****     LV_COLOR_SET_R16(ret, LV_COLOR_GET_R(color) >> 3); /*8 - 5  = 3*/
 368:d:\kzc\stm32\h743ii_lcd\lvgl\src\misc\lv_color.h ****     LV_COLOR_SET_G16(ret, LV_COLOR_GET_G(color) >> 2); /*8 - 6  = 2*/
 369:d:\kzc\stm32\h743ii_lcd\lvgl\src\misc\lv_color.h ****     LV_COLOR_SET_B16(ret, LV_COLOR_GET_B(color) >> 3); /*8 - 5  = 3*/
 370:d:\kzc\stm32\h743ii_lcd\lvgl\src\misc\lv_color.h ****     return ret.full;
 371:d:\kzc\stm32\h743ii_lcd\lvgl\src\misc\lv_color.h **** #endif
 372:d:\kzc\stm32\h743ii_lcd\lvgl\src\misc\lv_color.h **** }
 373:d:\kzc\stm32\h743ii_lcd\lvgl\src\misc\lv_color.h **** 
 374:d:\kzc\stm32\h743ii_lcd\lvgl\src\misc\lv_color.h **** static inline uint32_t lv_color_to32(lv_color_t color)
 375:d:\kzc\stm32\h743ii_lcd\lvgl\src\misc\lv_color.h **** {
 376:d:\kzc\stm32\h743ii_lcd\lvgl\src\misc\lv_color.h **** #if LV_COLOR_DEPTH == 1
 377:d:\kzc\stm32\h743ii_lcd\lvgl\src\misc\lv_color.h ****     if(color.full == 0)
 378:d:\kzc\stm32\h743ii_lcd\lvgl\src\misc\lv_color.h ****         return 0xFF000000;
 379:d:\kzc\stm32\h743ii_lcd\lvgl\src\misc\lv_color.h ****     else
 380:d:\kzc\stm32\h743ii_lcd\lvgl\src\misc\lv_color.h ****         return 0xFFFFFFFF;
 381:d:\kzc\stm32\h743ii_lcd\lvgl\src\misc\lv_color.h **** #elif LV_COLOR_DEPTH == 8
 382:d:\kzc\stm32\h743ii_lcd\lvgl\src\misc\lv_color.h ****     lv_color32_t ret;
 383:d:\kzc\stm32\h743ii_lcd\lvgl\src\misc\lv_color.h ****     LV_COLOR_SET_R32(ret, LV_COLOR_GET_R(color) * 36); /*(2^8 - 1)/(2^3 - 1) = 255/7 = 36*/
 384:d:\kzc\stm32\h743ii_lcd\lvgl\src\misc\lv_color.h ****     LV_COLOR_SET_G32(ret, LV_COLOR_GET_G(color) * 36); /*(2^8 - 1)/(2^3 - 1) = 255/7 = 36*/
 385:d:\kzc\stm32\h743ii_lcd\lvgl\src\misc\lv_color.h ****     LV_COLOR_SET_B32(ret, LV_COLOR_GET_B(color) * 85); /*(2^8 - 1)/(2^2 - 1) = 255/3 = 85*/
 386:d:\kzc\stm32\h743ii_lcd\lvgl\src\misc\lv_color.h ****     LV_COLOR_SET_A32(ret, 0xFF);
 387:d:\kzc\stm32\h743ii_lcd\lvgl\src\misc\lv_color.h ****     return ret.full;
 388:d:\kzc\stm32\h743ii_lcd\lvgl\src\misc\lv_color.h **** #elif LV_COLOR_DEPTH == 16
 389:d:\kzc\stm32\h743ii_lcd\lvgl\src\misc\lv_color.h ****     /**
 390:d:\kzc\stm32\h743ii_lcd\lvgl\src\misc\lv_color.h ****      * The floating point math for conversion is:
 391:d:\kzc\stm32\h743ii_lcd\lvgl\src\misc\lv_color.h ****      *  valueto = valuefrom * ( (2^bitsto - 1) / (float)(2^bitsfrom - 1) )
 392:d:\kzc\stm32\h743ii_lcd\lvgl\src\misc\lv_color.h ****      * The faster integer math for conversion is:
 393:d:\kzc\stm32\h743ii_lcd\lvgl\src\misc\lv_color.h ****      *  valueto = ( valuefrom * multiplier + adder ) >> divisor
ARM GAS  C:\Users\OSD\AppData\Local\Temp\ccDUSLEU.s 			page 11


 394:d:\kzc\stm32\h743ii_lcd\lvgl\src\misc\lv_color.h ****      *   multiplier = FLOOR( ( (2^bitsto - 1) << divisor ) / (float)(2^bitsfrom - 1) )
 395:d:\kzc\stm32\h743ii_lcd\lvgl\src\misc\lv_color.h ****      *
 396:d:\kzc\stm32\h743ii_lcd\lvgl\src\misc\lv_color.h ****      * Find the first divisor where ( adder >> divisor ) <= 0
 397:d:\kzc\stm32\h743ii_lcd\lvgl\src\misc\lv_color.h ****      *
 398:d:\kzc\stm32\h743ii_lcd\lvgl\src\misc\lv_color.h ****      * 5-bit to 8-bit: ( 31 * multiplier + adder ) >> divisor = 255
 399:d:\kzc\stm32\h743ii_lcd\lvgl\src\misc\lv_color.h ****      * divisor  multiplier  adder  min (0)  max (31)
 400:d:\kzc\stm32\h743ii_lcd\lvgl\src\misc\lv_color.h ****      *       0           8      7        7       255
 401:d:\kzc\stm32\h743ii_lcd\lvgl\src\misc\lv_color.h ****      *       1          16     14        7       255
 402:d:\kzc\stm32\h743ii_lcd\lvgl\src\misc\lv_color.h ****      *       2          32     28        7       255
 403:d:\kzc\stm32\h743ii_lcd\lvgl\src\misc\lv_color.h ****      *       3          65     25        3       255
 404:d:\kzc\stm32\h743ii_lcd\lvgl\src\misc\lv_color.h ****      *       4         131     19        1       255
 405:d:\kzc\stm32\h743ii_lcd\lvgl\src\misc\lv_color.h ****      *       5         263      7        0       255
 406:d:\kzc\stm32\h743ii_lcd\lvgl\src\misc\lv_color.h ****      *
 407:d:\kzc\stm32\h743ii_lcd\lvgl\src\misc\lv_color.h ****      * 6-bit to 8-bit: 255 = ( 63 * multiplier + adder ) >> divisor
 408:d:\kzc\stm32\h743ii_lcd\lvgl\src\misc\lv_color.h ****      * divisor  multiplier  adder  min (0)  max (63)
 409:d:\kzc\stm32\h743ii_lcd\lvgl\src\misc\lv_color.h ****      *       0           4      3        3       255
 410:d:\kzc\stm32\h743ii_lcd\lvgl\src\misc\lv_color.h ****      *       1           8      6        3       255
 411:d:\kzc\stm32\h743ii_lcd\lvgl\src\misc\lv_color.h ****      *       2          16     12        3       255
 412:d:\kzc\stm32\h743ii_lcd\lvgl\src\misc\lv_color.h ****      *       3          32     24        3       255
 413:d:\kzc\stm32\h743ii_lcd\lvgl\src\misc\lv_color.h ****      *       4          64     48        3       255
 414:d:\kzc\stm32\h743ii_lcd\lvgl\src\misc\lv_color.h ****      *       5         129     33        1       255
 415:d:\kzc\stm32\h743ii_lcd\lvgl\src\misc\lv_color.h ****      *       6         259      3        0       255
 416:d:\kzc\stm32\h743ii_lcd\lvgl\src\misc\lv_color.h ****      */
 417:d:\kzc\stm32\h743ii_lcd\lvgl\src\misc\lv_color.h **** 
 418:d:\kzc\stm32\h743ii_lcd\lvgl\src\misc\lv_color.h ****     lv_color32_t ret;
 419:d:\kzc\stm32\h743ii_lcd\lvgl\src\misc\lv_color.h ****     LV_COLOR_SET_R32(ret, (LV_COLOR_GET_R(color) * 263 + 7) >> 5);
 420:d:\kzc\stm32\h743ii_lcd\lvgl\src\misc\lv_color.h ****     LV_COLOR_SET_G32(ret, (LV_COLOR_GET_G(color) * 259 + 3) >> 6);
 421:d:\kzc\stm32\h743ii_lcd\lvgl\src\misc\lv_color.h ****     LV_COLOR_SET_B32(ret, (LV_COLOR_GET_B(color) * 263 + 7) >> 5);
 422:d:\kzc\stm32\h743ii_lcd\lvgl\src\misc\lv_color.h ****     LV_COLOR_SET_A32(ret, 0xFF);
 423:d:\kzc\stm32\h743ii_lcd\lvgl\src\misc\lv_color.h ****     return ret.full;
 424:d:\kzc\stm32\h743ii_lcd\lvgl\src\misc\lv_color.h **** #elif LV_COLOR_DEPTH == 32
 425:d:\kzc\stm32\h743ii_lcd\lvgl\src\misc\lv_color.h ****     return color.full;
 426:d:\kzc\stm32\h743ii_lcd\lvgl\src\misc\lv_color.h **** #endif
 427:d:\kzc\stm32\h743ii_lcd\lvgl\src\misc\lv_color.h **** }
 428:d:\kzc\stm32\h743ii_lcd\lvgl\src\misc\lv_color.h **** 
 429:d:\kzc\stm32\h743ii_lcd\lvgl\src\misc\lv_color.h **** //! @cond Doxygen_Suppress
 430:d:\kzc\stm32\h743ii_lcd\lvgl\src\misc\lv_color.h **** 
 431:d:\kzc\stm32\h743ii_lcd\lvgl\src\misc\lv_color.h **** /**
 432:d:\kzc\stm32\h743ii_lcd\lvgl\src\misc\lv_color.h ****  * Mix two colors with a given ratio.
 433:d:\kzc\stm32\h743ii_lcd\lvgl\src\misc\lv_color.h ****  * @param c1 the first color to mix (usually the foreground)
 434:d:\kzc\stm32\h743ii_lcd\lvgl\src\misc\lv_color.h ****  * @param c2 the second color to mix (usually the background)
 435:d:\kzc\stm32\h743ii_lcd\lvgl\src\misc\lv_color.h ****  * @param mix The ratio of the colors. 0: full `c2`, 255: full `c1`, 127: half `c1` and half`c2`
 436:d:\kzc\stm32\h743ii_lcd\lvgl\src\misc\lv_color.h ****  * @return the mixed color
 437:d:\kzc\stm32\h743ii_lcd\lvgl\src\misc\lv_color.h ****  */
 438:d:\kzc\stm32\h743ii_lcd\lvgl\src\misc\lv_color.h **** static inline lv_color_t LV_ATTRIBUTE_FAST_MEM lv_color_mix(lv_color_t c1, lv_color_t c2, uint8_t m
 129              		.loc 2 438 48 is_stmt 1 view .LVU33
 130              	.LBB11:
 439:d:\kzc\stm32\h743ii_lcd\lvgl\src\misc\lv_color.h **** {
 440:d:\kzc\stm32\h743ii_lcd\lvgl\src\misc\lv_color.h ****     lv_color_t ret;
 131              		.loc 2 440 5 view .LVU34
 441:d:\kzc\stm32\h743ii_lcd\lvgl\src\misc\lv_color.h **** 
 442:d:\kzc\stm32\h743ii_lcd\lvgl\src\misc\lv_color.h **** #if LV_COLOR_DEPTH == 16 && LV_COLOR_MIX_ROUND_OFS == 0
 443:d:\kzc\stm32\h743ii_lcd\lvgl\src\misc\lv_color.h **** #if LV_COLOR_16_SWAP == 1
 444:d:\kzc\stm32\h743ii_lcd\lvgl\src\misc\lv_color.h ****     c1.full = c1.full << 8 | c1.full >> 8;
 445:d:\kzc\stm32\h743ii_lcd\lvgl\src\misc\lv_color.h ****     c2.full = c2.full << 8 | c2.full >> 8;
 446:d:\kzc\stm32\h743ii_lcd\lvgl\src\misc\lv_color.h **** #endif
 447:d:\kzc\stm32\h743ii_lcd\lvgl\src\misc\lv_color.h ****     /*Source: https://stackoverflow.com/a/50012418/1999969*/
ARM GAS  C:\Users\OSD\AppData\Local\Temp\ccDUSLEU.s 			page 12


 448:d:\kzc\stm32\h743ii_lcd\lvgl\src\misc\lv_color.h ****     mix = (uint32_t)((uint32_t)mix + 4) >> 3;
 449:d:\kzc\stm32\h743ii_lcd\lvgl\src\misc\lv_color.h ****     uint32_t bg = (uint32_t)((uint32_t)c2.full | ((uint32_t)c2.full << 16)) &
 450:d:\kzc\stm32\h743ii_lcd\lvgl\src\misc\lv_color.h ****                   0x7E0F81F; /*0b00000111111000001111100000011111*/
 451:d:\kzc\stm32\h743ii_lcd\lvgl\src\misc\lv_color.h ****     uint32_t fg = (uint32_t)((uint32_t)c1.full | ((uint32_t)c1.full << 16)) & 0x7E0F81F;
 452:d:\kzc\stm32\h743ii_lcd\lvgl\src\misc\lv_color.h ****     uint32_t result = ((((fg - bg) * mix) >> 5) + bg) & 0x7E0F81F;
 453:d:\kzc\stm32\h743ii_lcd\lvgl\src\misc\lv_color.h ****     ret.full = (uint16_t)((result >> 16) | result);
 454:d:\kzc\stm32\h743ii_lcd\lvgl\src\misc\lv_color.h **** #if LV_COLOR_16_SWAP == 1
 455:d:\kzc\stm32\h743ii_lcd\lvgl\src\misc\lv_color.h ****     ret.full = ret.full << 8 | ret.full >> 8;
 456:d:\kzc\stm32\h743ii_lcd\lvgl\src\misc\lv_color.h **** #endif
 457:d:\kzc\stm32\h743ii_lcd\lvgl\src\misc\lv_color.h **** #elif LV_COLOR_DEPTH != 1
 458:d:\kzc\stm32\h743ii_lcd\lvgl\src\misc\lv_color.h ****     /*LV_COLOR_DEPTH == 8, 16 or 32*/
 459:d:\kzc\stm32\h743ii_lcd\lvgl\src\misc\lv_color.h ****     LV_COLOR_SET_R(ret, LV_UDIV255((uint16_t)LV_COLOR_GET_R(c1) * mix + LV_COLOR_GET_R(c2) *
 132              		.loc 2 459 5 view .LVU35
 133 005a C0F30742 		ubfx	r2, r0, #16, #8
 134 005e 02EB8202 		add	r2, r2, r2, lsl #2
 135 0062 02EB8202 		add	r2, r2, r2, lsl #2
 136              	.LVL17:
 137              		.loc 2 459 5 is_stmt 0 view .LVU36
 138 0066 C3F30741 		ubfx	r1, r3, #16, #8
 139 006a 4FF0E60C 		mov	ip, #230
 140 006e 0CFB0122 		mla	r2, ip, r1, r2
 141 0072 02EB0221 		add	r1, r2, r2, lsl #8
 142 0076 02EBC112 		add	r2, r2, r1, lsl #7
 143 007a C2F3C752 		ubfx	r2, r2, #23, #8
 144 007e 0021     		movs	r1, #0
 145              		.loc 2 459 5 view .LVU37
 146 0080 62F31741 		bfi	r1, r2, #16, #8
 147              	.LVL18:
 460:d:\kzc\stm32\h743ii_lcd\lvgl\src\misc\lv_color.h ****                                    (255 - mix) + LV_COLOR_MIX_ROUND_OFS));
 461:d:\kzc\stm32\h743ii_lcd\lvgl\src\misc\lv_color.h ****     LV_COLOR_SET_G(ret, LV_UDIV255((uint16_t)LV_COLOR_GET_G(c1) * mix + LV_COLOR_GET_G(c2) *
 148              		.loc 2 461 5 is_stmt 1 view .LVU38
 149 0084 C0F30722 		ubfx	r2, r0, #8, #8
 150 0088 02EB8202 		add	r2, r2, r2, lsl #2
 151 008c 02EB8202 		add	r2, r2, r2, lsl #2
 152 0090 C3F30726 		ubfx	r6, r3, #8, #8
 153 0094 0CFB0622 		mla	r2, ip, r6, r2
 154 0098 02EB0226 		add	r6, r2, r2, lsl #8
 155 009c 02EBC612 		add	r2, r2, r6, lsl #7
 156 00a0 C2F3C752 		ubfx	r2, r2, #23, #8
 157 00a4 62F30F21 		bfi	r1, r2, #8, #8
 462:d:\kzc\stm32\h743ii_lcd\lvgl\src\misc\lv_color.h ****                                    (255 - mix) + LV_COLOR_MIX_ROUND_OFS));
 463:d:\kzc\stm32\h743ii_lcd\lvgl\src\misc\lv_color.h ****     LV_COLOR_SET_B(ret, LV_UDIV255((uint16_t)LV_COLOR_GET_B(c1) * mix + LV_COLOR_GET_B(c2) *
 158              		.loc 2 463 5 view .LVU39
 159 00a8 C0B2     		uxtb	r0, r0
 160 00aa 00EB8000 		add	r0, r0, r0, lsl #2
 161 00ae 00EB8000 		add	r0, r0, r0, lsl #2
 162 00b2 DBB2     		uxtb	r3, r3
 163              	.LVL19:
 164              		.loc 2 463 5 is_stmt 0 view .LVU40
 165 00b4 0CFB0303 		mla	r3, ip, r3, r0
 166 00b8 03EB0322 		add	r2, r3, r3, lsl #8
 167 00bc 03EBC213 		add	r3, r3, r2, lsl #7
 168 00c0 C3F3C753 		ubfx	r3, r3, #23, #8
 169 00c4 63F30701 		bfi	r1, r3, #0, #8
 464:d:\kzc\stm32\h743ii_lcd\lvgl\src\misc\lv_color.h ****                                    (255 - mix) + LV_COLOR_MIX_ROUND_OFS));
 465:d:\kzc\stm32\h743ii_lcd\lvgl\src\misc\lv_color.h ****     LV_COLOR_SET_A(ret, 0xFF);
 170              		.loc 2 465 5 is_stmt 1 view .LVU41
ARM GAS  C:\Users\OSD\AppData\Local\Temp\ccDUSLEU.s 			page 13


 171 00c8 41F07F41 		orr	r1, r1, #-16777216
 172              	.LVL20:
 466:d:\kzc\stm32\h743ii_lcd\lvgl\src\misc\lv_color.h **** #else
 467:d:\kzc\stm32\h743ii_lcd\lvgl\src\misc\lv_color.h ****     /*LV_COLOR_DEPTH == 1*/
 468:d:\kzc\stm32\h743ii_lcd\lvgl\src\misc\lv_color.h ****     ret.full = mix > LV_OPA_50 ? c1.full : c2.full;
 469:d:\kzc\stm32\h743ii_lcd\lvgl\src\misc\lv_color.h **** #endif
 470:d:\kzc\stm32\h743ii_lcd\lvgl\src\misc\lv_color.h **** 
 471:d:\kzc\stm32\h743ii_lcd\lvgl\src\misc\lv_color.h ****     return ret;
 173              		.loc 2 471 5 view .LVU42
 174              		.loc 2 471 5 is_stmt 0 view .LVU43
 175              	.LBE11:
 176              	.LBE10:
  26:lvgl/examples/widgets/table/lv_example_table_1.c ****             dsc->rect_dsc->bg_opa = LV_OPA_COVER;
 177              		.loc 1 26 39 view .LVU44
 178 00cc 6960     		str	r1, [r5, #4]
  27:lvgl/examples/widgets/table/lv_example_table_1.c ****         }
 179              		.loc 1 27 13 is_stmt 1 view .LVU45
  27:lvgl/examples/widgets/table/lv_example_table_1.c ****         }
 180              		.loc 1 27 16 is_stmt 0 view .LVU46
 181 00ce 2369     		ldr	r3, [r4, #16]
  27:lvgl/examples/widgets/table/lv_example_table_1.c ****         }
 182              		.loc 1 27 35 view .LVU47
 183 00d0 FF22     		movs	r2, #255
 184 00d2 DA70     		strb	r2, [r3, #3]
 185              	.LBE9:
 186              		.loc 1 30 1 view .LVU48
 187 00d4 A1E7     		b	.L1
 188              	.LVL21:
 189              	.L8:
 190              	.LBB14:
  15:lvgl/examples/widgets/table/lv_example_table_1.c ****             dsc->rect_dsc->bg_color = lv_color_mix(lv_palette_main(LV_PALETTE_BLUE), dsc->rect_dsc-
 191              		.loc 1 15 13 is_stmt 1 view .LVU49
  15:lvgl/examples/widgets/table/lv_example_table_1.c ****             dsc->rect_dsc->bg_color = lv_color_mix(lv_palette_main(LV_PALETTE_BLUE), dsc->rect_dsc-
 192              		.loc 1 15 16 is_stmt 0 view .LVU50
 193 00d6 6369     		ldr	r3, [r4, #20]
  15:lvgl/examples/widgets/table/lv_example_table_1.c ****             dsc->rect_dsc->bg_color = lv_color_mix(lv_palette_main(LV_PALETTE_BLUE), dsc->rect_dsc-
 194              		.loc 1 15 35 view .LVU51
 195 00d8 0222     		movs	r2, #2
 196 00da 83F82220 		strb	r2, [r3, #34]
  16:lvgl/examples/widgets/table/lv_example_table_1.c ****             dsc->rect_dsc->bg_opa = LV_OPA_COVER;
 197              		.loc 1 16 13 is_stmt 1 view .LVU52
  16:lvgl/examples/widgets/table/lv_example_table_1.c ****             dsc->rect_dsc->bg_opa = LV_OPA_COVER;
 198              		.loc 1 16 39 is_stmt 0 view .LVU53
 199 00de 0520     		movs	r0, #5
 200              	.LVL22:
  16:lvgl/examples/widgets/table/lv_example_table_1.c ****             dsc->rect_dsc->bg_opa = LV_OPA_COVER;
 201              		.loc 1 16 39 view .LVU54
 202 00e0 FFF7FEFF 		bl	lv_palette_main
 203              	.LVL23:
 204 00e4 0246     		mov	r2, r0
  16:lvgl/examples/widgets/table/lv_example_table_1.c ****             dsc->rect_dsc->bg_opa = LV_OPA_COVER;
 205              		.loc 1 16 89 view .LVU55
 206 00e6 2569     		ldr	r5, [r4, #16]
 207              	.LVL24:
  16:lvgl/examples/widgets/table/lv_example_table_1.c ****             dsc->rect_dsc->bg_opa = LV_OPA_COVER;
 208              		.loc 1 16 89 view .LVU56
 209 00e8 6B68     		ldr	r3, [r5, #4]
ARM GAS  C:\Users\OSD\AppData\Local\Temp\ccDUSLEU.s 			page 14


 210              	.LVL25:
 211              	.LBB12:
 212              	.LBI12:
 438:d:\kzc\stm32\h743ii_lcd\lvgl\src\misc\lv_color.h **** {
 213              		.loc 2 438 48 is_stmt 1 view .LVU57
 214              	.LBB13:
 440:d:\kzc\stm32\h743ii_lcd\lvgl\src\misc\lv_color.h **** 
 215              		.loc 2 440 5 view .LVU58
 459:d:\kzc\stm32\h743ii_lcd\lvgl\src\misc\lv_color.h ****                                    (255 - mix) + LV_COLOR_MIX_ROUND_OFS));
 216              		.loc 2 459 5 view .LVU59
 217 00ea C0F30741 		ubfx	r1, r0, #16, #8
 218 00ee 01EB4101 		add	r1, r1, r1, lsl #1
 219 00f2 01EB0111 		add	r1, r1, r1, lsl #4
 220              	.LVL26:
 459:d:\kzc\stm32\h743ii_lcd\lvgl\src\misc\lv_color.h ****                                    (255 - mix) + LV_COLOR_MIX_ROUND_OFS));
 221              		.loc 2 459 5 is_stmt 0 view .LVU60
 222 00f6 C3F30740 		ubfx	r0, r3, #16, #8
 223 00fa 4FF0CC0C 		mov	ip, #204
 224 00fe 0CFB0011 		mla	r1, ip, r0, r1
 225 0102 01EB0120 		add	r0, r1, r1, lsl #8
 226 0106 01EBC011 		add	r1, r1, r0, lsl #7
 227 010a C1F3C751 		ubfx	r1, r1, #23, #8
 228 010e 0020     		movs	r0, #0
 459:d:\kzc\stm32\h743ii_lcd\lvgl\src\misc\lv_color.h ****                                    (255 - mix) + LV_COLOR_MIX_ROUND_OFS));
 229              		.loc 2 459 5 view .LVU61
 230 0110 61F31740 		bfi	r0, r1, #16, #8
 231              	.LVL27:
 461:d:\kzc\stm32\h743ii_lcd\lvgl\src\misc\lv_color.h ****                                    (255 - mix) + LV_COLOR_MIX_ROUND_OFS));
 232              		.loc 2 461 5 is_stmt 1 view .LVU62
 233 0114 C2F30721 		ubfx	r1, r2, #8, #8
 234 0118 01EB4101 		add	r1, r1, r1, lsl #1
 235 011c 01EB0111 		add	r1, r1, r1, lsl #4
 236 0120 C3F3072E 		ubfx	lr, r3, #8, #8
 237 0124 0CFB0E11 		mla	r1, ip, lr, r1
 238 0128 01EB012E 		add	lr, r1, r1, lsl #8
 239 012c 01EBCE11 		add	r1, r1, lr, lsl #7
 240 0130 C1F3C751 		ubfx	r1, r1, #23, #8
 241 0134 61F30F20 		bfi	r0, r1, #8, #8
 463:d:\kzc\stm32\h743ii_lcd\lvgl\src\misc\lv_color.h ****                                    (255 - mix) + LV_COLOR_MIX_ROUND_OFS));
 242              		.loc 2 463 5 view .LVU63
 243 0138 D2B2     		uxtb	r2, r2
 244 013a 02EB4202 		add	r2, r2, r2, lsl #1
 245 013e 02EB0212 		add	r2, r2, r2, lsl #4
 246 0142 DBB2     		uxtb	r3, r3
 247              	.LVL28:
 463:d:\kzc\stm32\h743ii_lcd\lvgl\src\misc\lv_color.h ****                                    (255 - mix) + LV_COLOR_MIX_ROUND_OFS));
 248              		.loc 2 463 5 is_stmt 0 view .LVU64
 249 0144 0CFB0323 		mla	r3, ip, r3, r2
 250 0148 03EB0322 		add	r2, r3, r3, lsl #8
 251 014c 03EBC213 		add	r3, r3, r2, lsl #7
 252 0150 C3F3C753 		ubfx	r3, r3, #23, #8
 253 0154 63F30700 		bfi	r0, r3, #0, #8
 465:d:\kzc\stm32\h743ii_lcd\lvgl\src\misc\lv_color.h **** #else
 254              		.loc 2 465 5 is_stmt 1 view .LVU65
 255 0158 40F07F40 		orr	r0, r0, #-16777216
 256              	.LVL29:
 257              		.loc 2 471 5 view .LVU66
ARM GAS  C:\Users\OSD\AppData\Local\Temp\ccDUSLEU.s 			page 15


 258              		.loc 2 471 5 is_stmt 0 view .LVU67
 259              	.LBE13:
 260              	.LBE12:
  16:lvgl/examples/widgets/table/lv_example_table_1.c ****             dsc->rect_dsc->bg_opa = LV_OPA_COVER;
 261              		.loc 1 16 39 view .LVU68
 262 015c 6860     		str	r0, [r5, #4]
  17:lvgl/examples/widgets/table/lv_example_table_1.c ****         }
 263              		.loc 1 17 13 is_stmt 1 view .LVU69
  17:lvgl/examples/widgets/table/lv_example_table_1.c ****         }
 264              		.loc 1 17 16 is_stmt 0 view .LVU70
 265 015e 2369     		ldr	r3, [r4, #16]
  17:lvgl/examples/widgets/table/lv_example_table_1.c ****         }
 266              		.loc 1 17 35 view .LVU71
 267 0160 FF22     		movs	r2, #255
 268 0162 DA70     		strb	r2, [r3, #3]
 269 0164 6FE7     		b	.L4
 270              	.LVL30:
 271              	.L9:
  21:lvgl/examples/widgets/table/lv_example_table_1.c ****         }
 272              		.loc 1 21 13 is_stmt 1 view .LVU72
  21:lvgl/examples/widgets/table/lv_example_table_1.c ****         }
 273              		.loc 1 21 16 is_stmt 0 view .LVU73
 274 0166 6369     		ldr	r3, [r4, #20]
  21:lvgl/examples/widgets/table/lv_example_table_1.c ****         }
 275              		.loc 1 21 35 view .LVU74
 276 0168 0322     		movs	r2, #3
 277 016a 83F82220 		strb	r2, [r3, #34]
 278 016e 6AE7     		b	.L4
 279              	.LBE14:
 280              		.cfi_endproc
 281              	.LFE204:
 283              		.section	.rodata.lv_example_table_1.str1.4,"aMS",%progbits,1
 284              		.align	2
 285              	.LC0:
 286 0000 4E616D65 		.ascii	"Name\000"
 286      00
 287 0005 000000   		.align	2
 288              	.LC1:
 289 0008 4170706C 		.ascii	"Apple\000"
 289      6500
 290 000e 0000     		.align	2
 291              	.LC2:
 292 0010 42616E61 		.ascii	"Banana\000"
 292      6E6100
 293 0017 00       		.align	2
 294              	.LC3:
 295 0018 4C656D6F 		.ascii	"Lemon\000"
 295      6E00
 296 001e 0000     		.align	2
 297              	.LC4:
 298 0020 47726170 		.ascii	"Grape\000"
 298      6500
 299 0026 0000     		.align	2
 300              	.LC5:
 301 0028 4D656C6F 		.ascii	"Melon\000"
 301      6E00
 302 002e 0000     		.align	2
ARM GAS  C:\Users\OSD\AppData\Local\Temp\ccDUSLEU.s 			page 16


 303              	.LC6:
 304 0030 50656163 		.ascii	"Peach\000"
 304      6800
 305 0036 0000     		.align	2
 306              	.LC7:
 307 0038 4E757473 		.ascii	"Nuts\000"
 307      00
 308 003d 000000   		.align	2
 309              	.LC8:
 310 0040 50726963 		.ascii	"Price\000"
 310      6500
 311 0046 0000     		.align	2
 312              	.LC9:
 313 0048 243700   		.ascii	"$7\000"
 314 004b 00       		.align	2
 315              	.LC10:
 316 004c 243400   		.ascii	"$4\000"
 317 004f 00       		.align	2
 318              	.LC11:
 319 0050 243600   		.ascii	"$6\000"
 320 0053 00       		.align	2
 321              	.LC12:
 322 0054 243200   		.ascii	"$2\000"
 323 0057 00       		.align	2
 324              	.LC13:
 325 0058 243500   		.ascii	"$5\000"
 326 005b 00       		.align	2
 327              	.LC14:
 328 005c 243100   		.ascii	"$1\000"
 329 005f 00       		.align	2
 330              	.LC15:
 331 0060 243900   		.ascii	"$9\000"
 332              		.section	.text.lv_example_table_1,"ax",%progbits
 333              		.align	1
 334              		.global	lv_example_table_1
 335              		.syntax unified
 336              		.thumb
 337              		.thumb_func
 339              	lv_example_table_1:
 340              	.LFB205:
  31:lvgl/examples/widgets/table/lv_example_table_1.c **** 
  32:lvgl/examples/widgets/table/lv_example_table_1.c **** void lv_example_table_1(void)
  33:lvgl/examples/widgets/table/lv_example_table_1.c **** {
 341              		.loc 1 33 1 is_stmt 1 view -0
 342              		.cfi_startproc
 343              		@ args = 0, pretend = 0, frame = 0
 344              		@ frame_needed = 0, uses_anonymous_args = 0
 345 0000 10B5     		push	{r4, lr}
 346              		.cfi_def_cfa_offset 8
 347              		.cfi_offset 4, -8
 348              		.cfi_offset 14, -4
  34:lvgl/examples/widgets/table/lv_example_table_1.c ****     lv_obj_t * table = lv_table_create(lv_scr_act());
 349              		.loc 1 34 5 view .LVU76
 350              	.LBB19:
 351              	.LBI19:
 352              		.file 3 "d:\\kzc\\stm32\\h743ii_lcd\\lvgl\\src/core/lv_disp.h"
   1:d:\kzc\stm32\h743ii_lcd\lvgl\src/core\lv_disp.h **** /**
ARM GAS  C:\Users\OSD\AppData\Local\Temp\ccDUSLEU.s 			page 17


   2:d:\kzc\stm32\h743ii_lcd\lvgl\src/core\lv_disp.h ****  * @file lv_disp.h
   3:d:\kzc\stm32\h743ii_lcd\lvgl\src/core\lv_disp.h ****  *
   4:d:\kzc\stm32\h743ii_lcd\lvgl\src/core\lv_disp.h ****  */
   5:d:\kzc\stm32\h743ii_lcd\lvgl\src/core\lv_disp.h **** 
   6:d:\kzc\stm32\h743ii_lcd\lvgl\src/core\lv_disp.h **** #ifndef LV_DISP_H
   7:d:\kzc\stm32\h743ii_lcd\lvgl\src/core\lv_disp.h **** #define LV_DISP_H
   8:d:\kzc\stm32\h743ii_lcd\lvgl\src/core\lv_disp.h **** 
   9:d:\kzc\stm32\h743ii_lcd\lvgl\src/core\lv_disp.h **** #ifdef __cplusplus
  10:d:\kzc\stm32\h743ii_lcd\lvgl\src/core\lv_disp.h **** extern "C" {
  11:d:\kzc\stm32\h743ii_lcd\lvgl\src/core\lv_disp.h **** #endif
  12:d:\kzc\stm32\h743ii_lcd\lvgl\src/core\lv_disp.h **** 
  13:d:\kzc\stm32\h743ii_lcd\lvgl\src/core\lv_disp.h **** /*********************
  14:d:\kzc\stm32\h743ii_lcd\lvgl\src/core\lv_disp.h ****  *      INCLUDES
  15:d:\kzc\stm32\h743ii_lcd\lvgl\src/core\lv_disp.h ****  *********************/
  16:d:\kzc\stm32\h743ii_lcd\lvgl\src/core\lv_disp.h **** #include "../hal/lv_hal.h"
  17:d:\kzc\stm32\h743ii_lcd\lvgl\src/core\lv_disp.h **** #include "lv_obj.h"
  18:d:\kzc\stm32\h743ii_lcd\lvgl\src/core\lv_disp.h **** #include "lv_theme.h"
  19:d:\kzc\stm32\h743ii_lcd\lvgl\src/core\lv_disp.h **** 
  20:d:\kzc\stm32\h743ii_lcd\lvgl\src/core\lv_disp.h **** /*********************
  21:d:\kzc\stm32\h743ii_lcd\lvgl\src/core\lv_disp.h ****  *      DEFINES
  22:d:\kzc\stm32\h743ii_lcd\lvgl\src/core\lv_disp.h ****  *********************/
  23:d:\kzc\stm32\h743ii_lcd\lvgl\src/core\lv_disp.h **** 
  24:d:\kzc\stm32\h743ii_lcd\lvgl\src/core\lv_disp.h **** /**********************
  25:d:\kzc\stm32\h743ii_lcd\lvgl\src/core\lv_disp.h ****  *      TYPEDEFS
  26:d:\kzc\stm32\h743ii_lcd\lvgl\src/core\lv_disp.h ****  **********************/
  27:d:\kzc\stm32\h743ii_lcd\lvgl\src/core\lv_disp.h **** 
  28:d:\kzc\stm32\h743ii_lcd\lvgl\src/core\lv_disp.h **** typedef enum {
  29:d:\kzc\stm32\h743ii_lcd\lvgl\src/core\lv_disp.h ****     LV_SCR_LOAD_ANIM_NONE,
  30:d:\kzc\stm32\h743ii_lcd\lvgl\src/core\lv_disp.h ****     LV_SCR_LOAD_ANIM_OVER_LEFT,
  31:d:\kzc\stm32\h743ii_lcd\lvgl\src/core\lv_disp.h ****     LV_SCR_LOAD_ANIM_OVER_RIGHT,
  32:d:\kzc\stm32\h743ii_lcd\lvgl\src/core\lv_disp.h ****     LV_SCR_LOAD_ANIM_OVER_TOP,
  33:d:\kzc\stm32\h743ii_lcd\lvgl\src/core\lv_disp.h ****     LV_SCR_LOAD_ANIM_OVER_BOTTOM,
  34:d:\kzc\stm32\h743ii_lcd\lvgl\src/core\lv_disp.h ****     LV_SCR_LOAD_ANIM_MOVE_LEFT,
  35:d:\kzc\stm32\h743ii_lcd\lvgl\src/core\lv_disp.h ****     LV_SCR_LOAD_ANIM_MOVE_RIGHT,
  36:d:\kzc\stm32\h743ii_lcd\lvgl\src/core\lv_disp.h ****     LV_SCR_LOAD_ANIM_MOVE_TOP,
  37:d:\kzc\stm32\h743ii_lcd\lvgl\src/core\lv_disp.h ****     LV_SCR_LOAD_ANIM_MOVE_BOTTOM,
  38:d:\kzc\stm32\h743ii_lcd\lvgl\src/core\lv_disp.h ****     LV_SCR_LOAD_ANIM_FADE_IN,
  39:d:\kzc\stm32\h743ii_lcd\lvgl\src/core\lv_disp.h ****     LV_SCR_LOAD_ANIM_FADE_ON = LV_SCR_LOAD_ANIM_FADE_IN, /*For backward compatibility*/
  40:d:\kzc\stm32\h743ii_lcd\lvgl\src/core\lv_disp.h ****     LV_SCR_LOAD_ANIM_FADE_OUT,
  41:d:\kzc\stm32\h743ii_lcd\lvgl\src/core\lv_disp.h ****     LV_SCR_LOAD_ANIM_OUT_LEFT,
  42:d:\kzc\stm32\h743ii_lcd\lvgl\src/core\lv_disp.h ****     LV_SCR_LOAD_ANIM_OUT_RIGHT,
  43:d:\kzc\stm32\h743ii_lcd\lvgl\src/core\lv_disp.h ****     LV_SCR_LOAD_ANIM_OUT_TOP,
  44:d:\kzc\stm32\h743ii_lcd\lvgl\src/core\lv_disp.h ****     LV_SCR_LOAD_ANIM_OUT_BOTTOM,
  45:d:\kzc\stm32\h743ii_lcd\lvgl\src/core\lv_disp.h **** } lv_scr_load_anim_t;
  46:d:\kzc\stm32\h743ii_lcd\lvgl\src/core\lv_disp.h **** 
  47:d:\kzc\stm32\h743ii_lcd\lvgl\src/core\lv_disp.h **** /**********************
  48:d:\kzc\stm32\h743ii_lcd\lvgl\src/core\lv_disp.h ****  * GLOBAL PROTOTYPES
  49:d:\kzc\stm32\h743ii_lcd\lvgl\src/core\lv_disp.h ****  **********************/
  50:d:\kzc\stm32\h743ii_lcd\lvgl\src/core\lv_disp.h **** 
  51:d:\kzc\stm32\h743ii_lcd\lvgl\src/core\lv_disp.h **** /**
  52:d:\kzc\stm32\h743ii_lcd\lvgl\src/core\lv_disp.h ****  * Return with a pointer to the active screen
  53:d:\kzc\stm32\h743ii_lcd\lvgl\src/core\lv_disp.h ****  * @param disp pointer to display which active screen should be get. (NULL to use the default
  54:d:\kzc\stm32\h743ii_lcd\lvgl\src/core\lv_disp.h ****  * screen)
  55:d:\kzc\stm32\h743ii_lcd\lvgl\src/core\lv_disp.h ****  * @return pointer to the active screen object (loaded by 'lv_scr_load()')
  56:d:\kzc\stm32\h743ii_lcd\lvgl\src/core\lv_disp.h ****  */
  57:d:\kzc\stm32\h743ii_lcd\lvgl\src/core\lv_disp.h **** lv_obj_t * lv_disp_get_scr_act(lv_disp_t * disp);
  58:d:\kzc\stm32\h743ii_lcd\lvgl\src/core\lv_disp.h **** 
ARM GAS  C:\Users\OSD\AppData\Local\Temp\ccDUSLEU.s 			page 18


  59:d:\kzc\stm32\h743ii_lcd\lvgl\src/core\lv_disp.h **** /**
  60:d:\kzc\stm32\h743ii_lcd\lvgl\src/core\lv_disp.h ****  * Return with a pointer to the previous screen. Only used during screen transitions.
  61:d:\kzc\stm32\h743ii_lcd\lvgl\src/core\lv_disp.h ****  * @param disp pointer to display which previous screen should be get. (NULL to use the default
  62:d:\kzc\stm32\h743ii_lcd\lvgl\src/core\lv_disp.h ****  * screen)
  63:d:\kzc\stm32\h743ii_lcd\lvgl\src/core\lv_disp.h ****  * @return pointer to the previous screen object or NULL if not used now
  64:d:\kzc\stm32\h743ii_lcd\lvgl\src/core\lv_disp.h ****  */
  65:d:\kzc\stm32\h743ii_lcd\lvgl\src/core\lv_disp.h **** lv_obj_t * lv_disp_get_scr_prev(lv_disp_t * disp);
  66:d:\kzc\stm32\h743ii_lcd\lvgl\src/core\lv_disp.h **** 
  67:d:\kzc\stm32\h743ii_lcd\lvgl\src/core\lv_disp.h **** /**
  68:d:\kzc\stm32\h743ii_lcd\lvgl\src/core\lv_disp.h ****  * Make a screen active
  69:d:\kzc\stm32\h743ii_lcd\lvgl\src/core\lv_disp.h ****  * @param scr pointer to a screen
  70:d:\kzc\stm32\h743ii_lcd\lvgl\src/core\lv_disp.h ****  */
  71:d:\kzc\stm32\h743ii_lcd\lvgl\src/core\lv_disp.h **** void lv_disp_load_scr(lv_obj_t * scr);
  72:d:\kzc\stm32\h743ii_lcd\lvgl\src/core\lv_disp.h **** 
  73:d:\kzc\stm32\h743ii_lcd\lvgl\src/core\lv_disp.h **** /**
  74:d:\kzc\stm32\h743ii_lcd\lvgl\src/core\lv_disp.h ****  * Return with the top layer. (Same on every screen and it is above the normal screen layer)
  75:d:\kzc\stm32\h743ii_lcd\lvgl\src/core\lv_disp.h ****  * @param disp pointer to display which top layer should be get. (NULL to use the default screen)
  76:d:\kzc\stm32\h743ii_lcd\lvgl\src/core\lv_disp.h ****  * @return pointer to the top layer object (transparent screen sized lv_obj)
  77:d:\kzc\stm32\h743ii_lcd\lvgl\src/core\lv_disp.h ****  */
  78:d:\kzc\stm32\h743ii_lcd\lvgl\src/core\lv_disp.h **** lv_obj_t * lv_disp_get_layer_top(lv_disp_t * disp);
  79:d:\kzc\stm32\h743ii_lcd\lvgl\src/core\lv_disp.h **** 
  80:d:\kzc\stm32\h743ii_lcd\lvgl\src/core\lv_disp.h **** /**
  81:d:\kzc\stm32\h743ii_lcd\lvgl\src/core\lv_disp.h ****  * Return with the sys. layer. (Same on every screen and it is above the normal screen and the top
  82:d:\kzc\stm32\h743ii_lcd\lvgl\src/core\lv_disp.h ****  * layer)
  83:d:\kzc\stm32\h743ii_lcd\lvgl\src/core\lv_disp.h ****  * @param disp pointer to display which sys. layer should be retrieved. (NULL to use the default sc
  84:d:\kzc\stm32\h743ii_lcd\lvgl\src/core\lv_disp.h ****  * @return pointer to the sys layer object (transparent screen sized lv_obj)
  85:d:\kzc\stm32\h743ii_lcd\lvgl\src/core\lv_disp.h ****  */
  86:d:\kzc\stm32\h743ii_lcd\lvgl\src/core\lv_disp.h **** lv_obj_t * lv_disp_get_layer_sys(lv_disp_t * disp);
  87:d:\kzc\stm32\h743ii_lcd\lvgl\src/core\lv_disp.h **** 
  88:d:\kzc\stm32\h743ii_lcd\lvgl\src/core\lv_disp.h **** /**
  89:d:\kzc\stm32\h743ii_lcd\lvgl\src/core\lv_disp.h ****  * Set the theme of a display
  90:d:\kzc\stm32\h743ii_lcd\lvgl\src/core\lv_disp.h ****  * @param disp pointer to a display
  91:d:\kzc\stm32\h743ii_lcd\lvgl\src/core\lv_disp.h ****  */
  92:d:\kzc\stm32\h743ii_lcd\lvgl\src/core\lv_disp.h **** void lv_disp_set_theme(lv_disp_t * disp, lv_theme_t * th);
  93:d:\kzc\stm32\h743ii_lcd\lvgl\src/core\lv_disp.h **** 
  94:d:\kzc\stm32\h743ii_lcd\lvgl\src/core\lv_disp.h **** /**
  95:d:\kzc\stm32\h743ii_lcd\lvgl\src/core\lv_disp.h ****  * Get the theme of a display
  96:d:\kzc\stm32\h743ii_lcd\lvgl\src/core\lv_disp.h ****  * @param disp pointer to a display
  97:d:\kzc\stm32\h743ii_lcd\lvgl\src/core\lv_disp.h ****  * @return the display's theme (can be NULL)
  98:d:\kzc\stm32\h743ii_lcd\lvgl\src/core\lv_disp.h ****  */
  99:d:\kzc\stm32\h743ii_lcd\lvgl\src/core\lv_disp.h **** lv_theme_t * lv_disp_get_theme(lv_disp_t * disp);
 100:d:\kzc\stm32\h743ii_lcd\lvgl\src/core\lv_disp.h **** 
 101:d:\kzc\stm32\h743ii_lcd\lvgl\src/core\lv_disp.h **** /**
 102:d:\kzc\stm32\h743ii_lcd\lvgl\src/core\lv_disp.h ****  * Set the background color of a display
 103:d:\kzc\stm32\h743ii_lcd\lvgl\src/core\lv_disp.h ****  * @param disp pointer to a display
 104:d:\kzc\stm32\h743ii_lcd\lvgl\src/core\lv_disp.h ****  * @param color color of the background
 105:d:\kzc\stm32\h743ii_lcd\lvgl\src/core\lv_disp.h ****  */
 106:d:\kzc\stm32\h743ii_lcd\lvgl\src/core\lv_disp.h **** void lv_disp_set_bg_color(lv_disp_t * disp, lv_color_t color);
 107:d:\kzc\stm32\h743ii_lcd\lvgl\src/core\lv_disp.h **** 
 108:d:\kzc\stm32\h743ii_lcd\lvgl\src/core\lv_disp.h **** /**
 109:d:\kzc\stm32\h743ii_lcd\lvgl\src/core\lv_disp.h ****  * Set the background image of a display
 110:d:\kzc\stm32\h743ii_lcd\lvgl\src/core\lv_disp.h ****  * @param disp pointer to a display
 111:d:\kzc\stm32\h743ii_lcd\lvgl\src/core\lv_disp.h ****  * @param img_src path to file or pointer to an `lv_img_dsc_t` variable
 112:d:\kzc\stm32\h743ii_lcd\lvgl\src/core\lv_disp.h ****  */
 113:d:\kzc\stm32\h743ii_lcd\lvgl\src/core\lv_disp.h **** void lv_disp_set_bg_image(lv_disp_t * disp, const void  * img_src);
 114:d:\kzc\stm32\h743ii_lcd\lvgl\src/core\lv_disp.h **** 
 115:d:\kzc\stm32\h743ii_lcd\lvgl\src/core\lv_disp.h **** /**
ARM GAS  C:\Users\OSD\AppData\Local\Temp\ccDUSLEU.s 			page 19


 116:d:\kzc\stm32\h743ii_lcd\lvgl\src/core\lv_disp.h ****  * Set opacity of the background
 117:d:\kzc\stm32\h743ii_lcd\lvgl\src/core\lv_disp.h ****  * @param disp pointer to a display
 118:d:\kzc\stm32\h743ii_lcd\lvgl\src/core\lv_disp.h ****  * @param opa opacity (0..255)
 119:d:\kzc\stm32\h743ii_lcd\lvgl\src/core\lv_disp.h ****  */
 120:d:\kzc\stm32\h743ii_lcd\lvgl\src/core\lv_disp.h **** void lv_disp_set_bg_opa(lv_disp_t * disp, lv_opa_t opa);
 121:d:\kzc\stm32\h743ii_lcd\lvgl\src/core\lv_disp.h **** 
 122:d:\kzc\stm32\h743ii_lcd\lvgl\src/core\lv_disp.h **** /**
 123:d:\kzc\stm32\h743ii_lcd\lvgl\src/core\lv_disp.h ****  * Switch screen with animation
 124:d:\kzc\stm32\h743ii_lcd\lvgl\src/core\lv_disp.h ****  * @param scr pointer to the new screen to load
 125:d:\kzc\stm32\h743ii_lcd\lvgl\src/core\lv_disp.h ****  * @param anim_type type of the animation from `lv_scr_load_anim_t`, e.g. `LV_SCR_LOAD_ANIM_MOVE_LE
 126:d:\kzc\stm32\h743ii_lcd\lvgl\src/core\lv_disp.h ****  * @param time time of the animation
 127:d:\kzc\stm32\h743ii_lcd\lvgl\src/core\lv_disp.h ****  * @param delay delay before the transition
 128:d:\kzc\stm32\h743ii_lcd\lvgl\src/core\lv_disp.h ****  * @param auto_del true: automatically delete the old screen
 129:d:\kzc\stm32\h743ii_lcd\lvgl\src/core\lv_disp.h ****  */
 130:d:\kzc\stm32\h743ii_lcd\lvgl\src/core\lv_disp.h **** void lv_scr_load_anim(lv_obj_t * scr, lv_scr_load_anim_t anim_type, uint32_t time, uint32_t delay, 
 131:d:\kzc\stm32\h743ii_lcd\lvgl\src/core\lv_disp.h **** 
 132:d:\kzc\stm32\h743ii_lcd\lvgl\src/core\lv_disp.h **** /**
 133:d:\kzc\stm32\h743ii_lcd\lvgl\src/core\lv_disp.h ****  * Get elapsed time since last user activity on a display (e.g. click)
 134:d:\kzc\stm32\h743ii_lcd\lvgl\src/core\lv_disp.h ****  * @param disp pointer to a display (NULL to get the overall smallest inactivity)
 135:d:\kzc\stm32\h743ii_lcd\lvgl\src/core\lv_disp.h ****  * @return elapsed ticks (milliseconds) since the last activity
 136:d:\kzc\stm32\h743ii_lcd\lvgl\src/core\lv_disp.h ****  */
 137:d:\kzc\stm32\h743ii_lcd\lvgl\src/core\lv_disp.h **** uint32_t lv_disp_get_inactive_time(const lv_disp_t * disp);
 138:d:\kzc\stm32\h743ii_lcd\lvgl\src/core\lv_disp.h **** 
 139:d:\kzc\stm32\h743ii_lcd\lvgl\src/core\lv_disp.h **** /**
 140:d:\kzc\stm32\h743ii_lcd\lvgl\src/core\lv_disp.h ****  * Manually trigger an activity on a display
 141:d:\kzc\stm32\h743ii_lcd\lvgl\src/core\lv_disp.h ****  * @param disp pointer to a display (NULL to use the default display)
 142:d:\kzc\stm32\h743ii_lcd\lvgl\src/core\lv_disp.h ****  */
 143:d:\kzc\stm32\h743ii_lcd\lvgl\src/core\lv_disp.h **** void lv_disp_trig_activity(lv_disp_t * disp);
 144:d:\kzc\stm32\h743ii_lcd\lvgl\src/core\lv_disp.h **** 
 145:d:\kzc\stm32\h743ii_lcd\lvgl\src/core\lv_disp.h **** /**
 146:d:\kzc\stm32\h743ii_lcd\lvgl\src/core\lv_disp.h ****  * Clean any CPU cache that is related to the display.
 147:d:\kzc\stm32\h743ii_lcd\lvgl\src/core\lv_disp.h ****  * @param disp pointer to a display (NULL to use the default display)
 148:d:\kzc\stm32\h743ii_lcd\lvgl\src/core\lv_disp.h ****  */
 149:d:\kzc\stm32\h743ii_lcd\lvgl\src/core\lv_disp.h **** void lv_disp_clean_dcache(lv_disp_t * disp);
 150:d:\kzc\stm32\h743ii_lcd\lvgl\src/core\lv_disp.h **** 
 151:d:\kzc\stm32\h743ii_lcd\lvgl\src/core\lv_disp.h **** /**
 152:d:\kzc\stm32\h743ii_lcd\lvgl\src/core\lv_disp.h ****  * Temporarily enable and disable the invalidation of the display.
 153:d:\kzc\stm32\h743ii_lcd\lvgl\src/core\lv_disp.h ****  * @param disp pointer to a display (NULL to use the default display)
 154:d:\kzc\stm32\h743ii_lcd\lvgl\src/core\lv_disp.h ****  * @param en true: enable invalidation; false: invalidation
 155:d:\kzc\stm32\h743ii_lcd\lvgl\src/core\lv_disp.h ****  */
 156:d:\kzc\stm32\h743ii_lcd\lvgl\src/core\lv_disp.h **** void lv_disp_enable_invalidation(lv_disp_t * disp, bool en);
 157:d:\kzc\stm32\h743ii_lcd\lvgl\src/core\lv_disp.h **** 
 158:d:\kzc\stm32\h743ii_lcd\lvgl\src/core\lv_disp.h **** /**
 159:d:\kzc\stm32\h743ii_lcd\lvgl\src/core\lv_disp.h ****  * Get display invalidation is enabled.
 160:d:\kzc\stm32\h743ii_lcd\lvgl\src/core\lv_disp.h ****  * @param disp pointer to a display (NULL to use the default display)
 161:d:\kzc\stm32\h743ii_lcd\lvgl\src/core\lv_disp.h ****  * @return return true if invalidation is enabled
 162:d:\kzc\stm32\h743ii_lcd\lvgl\src/core\lv_disp.h ****  */
 163:d:\kzc\stm32\h743ii_lcd\lvgl\src/core\lv_disp.h **** bool lv_disp_is_invalidation_enabled(lv_disp_t * disp);
 164:d:\kzc\stm32\h743ii_lcd\lvgl\src/core\lv_disp.h **** 
 165:d:\kzc\stm32\h743ii_lcd\lvgl\src/core\lv_disp.h **** /**
 166:d:\kzc\stm32\h743ii_lcd\lvgl\src/core\lv_disp.h ****  * Get a pointer to the screen refresher timer to
 167:d:\kzc\stm32\h743ii_lcd\lvgl\src/core\lv_disp.h ****  * modify its parameters with `lv_timer_...` functions.
 168:d:\kzc\stm32\h743ii_lcd\lvgl\src/core\lv_disp.h ****  * @param disp pointer to a display
 169:d:\kzc\stm32\h743ii_lcd\lvgl\src/core\lv_disp.h ****  * @return pointer to the display refresher timer. (NULL on error)
 170:d:\kzc\stm32\h743ii_lcd\lvgl\src/core\lv_disp.h ****  */
 171:d:\kzc\stm32\h743ii_lcd\lvgl\src/core\lv_disp.h **** lv_timer_t * _lv_disp_get_refr_timer(lv_disp_t * disp);
 172:d:\kzc\stm32\h743ii_lcd\lvgl\src/core\lv_disp.h **** 
ARM GAS  C:\Users\OSD\AppData\Local\Temp\ccDUSLEU.s 			page 20


 173:d:\kzc\stm32\h743ii_lcd\lvgl\src/core\lv_disp.h **** /*------------------------------------------------
 174:d:\kzc\stm32\h743ii_lcd\lvgl\src/core\lv_disp.h ****  * To improve backward compatibility
 175:d:\kzc\stm32\h743ii_lcd\lvgl\src/core\lv_disp.h ****  * Recommended only if you have one display
 176:d:\kzc\stm32\h743ii_lcd\lvgl\src/core\lv_disp.h ****  *------------------------------------------------*/
 177:d:\kzc\stm32\h743ii_lcd\lvgl\src/core\lv_disp.h **** 
 178:d:\kzc\stm32\h743ii_lcd\lvgl\src/core\lv_disp.h **** /**
 179:d:\kzc\stm32\h743ii_lcd\lvgl\src/core\lv_disp.h ****  * Get the active screen of the default display
 180:d:\kzc\stm32\h743ii_lcd\lvgl\src/core\lv_disp.h ****  * @return pointer to the active screen
 181:d:\kzc\stm32\h743ii_lcd\lvgl\src/core\lv_disp.h ****  */
 182:d:\kzc\stm32\h743ii_lcd\lvgl\src/core\lv_disp.h **** static inline lv_obj_t * lv_scr_act(void)
 353              		.loc 3 182 26 view .LVU77
 354              	.LBB20:
 183:d:\kzc\stm32\h743ii_lcd\lvgl\src/core\lv_disp.h **** {
 184:d:\kzc\stm32\h743ii_lcd\lvgl\src/core\lv_disp.h ****     return lv_disp_get_scr_act(lv_disp_get_default());
 355              		.loc 3 184 5 view .LVU78
 356              		.loc 3 184 12 is_stmt 0 view .LVU79
 357 0002 FFF7FEFF 		bl	lv_disp_get_default
 358              	.LVL31:
 359 0006 FFF7FEFF 		bl	lv_disp_get_scr_act
 360              	.LVL32:
 361              	.LBE20:
 362              	.LBE19:
 363              		.loc 1 34 24 view .LVU80
 364 000a FFF7FEFF 		bl	lv_table_create
 365              	.LVL33:
 366 000e 0446     		mov	r4, r0
 367              	.LVL34:
  35:lvgl/examples/widgets/table/lv_example_table_1.c **** 
  36:lvgl/examples/widgets/table/lv_example_table_1.c ****     /*Fill the first column*/
  37:lvgl/examples/widgets/table/lv_example_table_1.c ****     lv_table_set_cell_value(table, 0, 0, "Name");
 368              		.loc 1 37 5 is_stmt 1 view .LVU81
 369 0010 374B     		ldr	r3, .L12
 370 0012 0022     		movs	r2, #0
 371 0014 1146     		mov	r1, r2
 372 0016 FFF7FEFF 		bl	lv_table_set_cell_value
 373              	.LVL35:
  38:lvgl/examples/widgets/table/lv_example_table_1.c ****     lv_table_set_cell_value(table, 1, 0, "Apple");
 374              		.loc 1 38 5 view .LVU82
 375 001a 364B     		ldr	r3, .L12+4
 376 001c 0022     		movs	r2, #0
 377 001e 0121     		movs	r1, #1
 378 0020 2046     		mov	r0, r4
 379 0022 FFF7FEFF 		bl	lv_table_set_cell_value
 380              	.LVL36:
  39:lvgl/examples/widgets/table/lv_example_table_1.c ****     lv_table_set_cell_value(table, 2, 0, "Banana");
 381              		.loc 1 39 5 view .LVU83
 382 0026 344B     		ldr	r3, .L12+8
 383 0028 0022     		movs	r2, #0
 384 002a 0221     		movs	r1, #2
 385 002c 2046     		mov	r0, r4
 386 002e FFF7FEFF 		bl	lv_table_set_cell_value
 387              	.LVL37:
  40:lvgl/examples/widgets/table/lv_example_table_1.c ****     lv_table_set_cell_value(table, 3, 0, "Lemon");
 388              		.loc 1 40 5 view .LVU84
 389 0032 324B     		ldr	r3, .L12+12
 390 0034 0022     		movs	r2, #0
 391 0036 0321     		movs	r1, #3
ARM GAS  C:\Users\OSD\AppData\Local\Temp\ccDUSLEU.s 			page 21


 392 0038 2046     		mov	r0, r4
 393 003a FFF7FEFF 		bl	lv_table_set_cell_value
 394              	.LVL38:
  41:lvgl/examples/widgets/table/lv_example_table_1.c ****     lv_table_set_cell_value(table, 4, 0, "Grape");
 395              		.loc 1 41 5 view .LVU85
 396 003e 304B     		ldr	r3, .L12+16
 397 0040 0022     		movs	r2, #0
 398 0042 0421     		movs	r1, #4
 399 0044 2046     		mov	r0, r4
 400 0046 FFF7FEFF 		bl	lv_table_set_cell_value
 401              	.LVL39:
  42:lvgl/examples/widgets/table/lv_example_table_1.c ****     lv_table_set_cell_value(table, 5, 0, "Melon");
 402              		.loc 1 42 5 view .LVU86
 403 004a 2E4B     		ldr	r3, .L12+20
 404 004c 0022     		movs	r2, #0
 405 004e 0521     		movs	r1, #5
 406 0050 2046     		mov	r0, r4
 407 0052 FFF7FEFF 		bl	lv_table_set_cell_value
 408              	.LVL40:
  43:lvgl/examples/widgets/table/lv_example_table_1.c ****     lv_table_set_cell_value(table, 6, 0, "Peach");
 409              		.loc 1 43 5 view .LVU87
 410 0056 2C4B     		ldr	r3, .L12+24
 411 0058 0022     		movs	r2, #0
 412 005a 0621     		movs	r1, #6
 413 005c 2046     		mov	r0, r4
 414 005e FFF7FEFF 		bl	lv_table_set_cell_value
 415              	.LVL41:
  44:lvgl/examples/widgets/table/lv_example_table_1.c ****     lv_table_set_cell_value(table, 7, 0, "Nuts");
 416              		.loc 1 44 5 view .LVU88
 417 0062 2A4B     		ldr	r3, .L12+28
 418 0064 0022     		movs	r2, #0
 419 0066 0721     		movs	r1, #7
 420 0068 2046     		mov	r0, r4
 421 006a FFF7FEFF 		bl	lv_table_set_cell_value
 422              	.LVL42:
  45:lvgl/examples/widgets/table/lv_example_table_1.c **** 
  46:lvgl/examples/widgets/table/lv_example_table_1.c ****     /*Fill the second column*/
  47:lvgl/examples/widgets/table/lv_example_table_1.c ****     lv_table_set_cell_value(table, 0, 1, "Price");
 423              		.loc 1 47 5 view .LVU89
 424 006e 284B     		ldr	r3, .L12+32
 425 0070 0122     		movs	r2, #1
 426 0072 0021     		movs	r1, #0
 427 0074 2046     		mov	r0, r4
 428 0076 FFF7FEFF 		bl	lv_table_set_cell_value
 429              	.LVL43:
  48:lvgl/examples/widgets/table/lv_example_table_1.c ****     lv_table_set_cell_value(table, 1, 1, "$7");
 430              		.loc 1 48 5 view .LVU90
 431 007a 264B     		ldr	r3, .L12+36
 432 007c 0122     		movs	r2, #1
 433 007e 1146     		mov	r1, r2
 434 0080 2046     		mov	r0, r4
 435 0082 FFF7FEFF 		bl	lv_table_set_cell_value
 436              	.LVL44:
  49:lvgl/examples/widgets/table/lv_example_table_1.c ****     lv_table_set_cell_value(table, 2, 1, "$4");
 437              		.loc 1 49 5 view .LVU91
 438 0086 244B     		ldr	r3, .L12+40
 439 0088 0122     		movs	r2, #1
ARM GAS  C:\Users\OSD\AppData\Local\Temp\ccDUSLEU.s 			page 22


 440 008a 0221     		movs	r1, #2
 441 008c 2046     		mov	r0, r4
 442 008e FFF7FEFF 		bl	lv_table_set_cell_value
 443              	.LVL45:
  50:lvgl/examples/widgets/table/lv_example_table_1.c ****     lv_table_set_cell_value(table, 3, 1, "$6");
 444              		.loc 1 50 5 view .LVU92
 445 0092 224B     		ldr	r3, .L12+44
 446 0094 0122     		movs	r2, #1
 447 0096 0321     		movs	r1, #3
 448 0098 2046     		mov	r0, r4
 449 009a FFF7FEFF 		bl	lv_table_set_cell_value
 450              	.LVL46:
  51:lvgl/examples/widgets/table/lv_example_table_1.c ****     lv_table_set_cell_value(table, 4, 1, "$2");
 451              		.loc 1 51 5 view .LVU93
 452 009e 204B     		ldr	r3, .L12+48
 453 00a0 0122     		movs	r2, #1
 454 00a2 0421     		movs	r1, #4
 455 00a4 2046     		mov	r0, r4
 456 00a6 FFF7FEFF 		bl	lv_table_set_cell_value
 457              	.LVL47:
  52:lvgl/examples/widgets/table/lv_example_table_1.c ****     lv_table_set_cell_value(table, 5, 1, "$5");
 458              		.loc 1 52 5 view .LVU94
 459 00aa 1E4B     		ldr	r3, .L12+52
 460 00ac 0122     		movs	r2, #1
 461 00ae 0521     		movs	r1, #5
 462 00b0 2046     		mov	r0, r4
 463 00b2 FFF7FEFF 		bl	lv_table_set_cell_value
 464              	.LVL48:
  53:lvgl/examples/widgets/table/lv_example_table_1.c ****     lv_table_set_cell_value(table, 6, 1, "$1");
 465              		.loc 1 53 5 view .LVU95
 466 00b6 1C4B     		ldr	r3, .L12+56
 467 00b8 0122     		movs	r2, #1
 468 00ba 0621     		movs	r1, #6
 469 00bc 2046     		mov	r0, r4
 470 00be FFF7FEFF 		bl	lv_table_set_cell_value
 471              	.LVL49:
  54:lvgl/examples/widgets/table/lv_example_table_1.c ****     lv_table_set_cell_value(table, 7, 1, "$9");
 472              		.loc 1 54 5 view .LVU96
 473 00c2 1A4B     		ldr	r3, .L12+60
 474 00c4 0122     		movs	r2, #1
 475 00c6 0721     		movs	r1, #7
 476 00c8 2046     		mov	r0, r4
 477 00ca FFF7FEFF 		bl	lv_table_set_cell_value
 478              	.LVL50:
  55:lvgl/examples/widgets/table/lv_example_table_1.c **** 
  56:lvgl/examples/widgets/table/lv_example_table_1.c ****     /*Set a smaller height to the table. It'll make it scrollable*/
  57:lvgl/examples/widgets/table/lv_example_table_1.c ****     lv_obj_set_height(table, 200);
 479              		.loc 1 57 5 view .LVU97
 480 00ce C821     		movs	r1, #200
 481 00d0 2046     		mov	r0, r4
 482 00d2 FFF7FEFF 		bl	lv_obj_set_height
 483              	.LVL51:
  58:lvgl/examples/widgets/table/lv_example_table_1.c ****     lv_obj_center(table);
 484              		.loc 1 58 5 view .LVU98
 485              	.LBB21:
 486              	.LBI21:
 487              		.file 4 "d:\\kzc\\stm32\\h743ii_lcd\\lvgl\\src\\core\\lv_obj_pos.h"
ARM GAS  C:\Users\OSD\AppData\Local\Temp\ccDUSLEU.s 			page 23


   1:d:\kzc\stm32\h743ii_lcd\lvgl\src/core\lv_obj_pos.h **** /**
   2:d:\kzc\stm32\h743ii_lcd\lvgl\src/core\lv_obj_pos.h ****  * @file lv_obj_pos.h
   3:d:\kzc\stm32\h743ii_lcd\lvgl\src/core\lv_obj_pos.h ****  *
   4:d:\kzc\stm32\h743ii_lcd\lvgl\src/core\lv_obj_pos.h ****  */
   5:d:\kzc\stm32\h743ii_lcd\lvgl\src/core\lv_obj_pos.h **** 
   6:d:\kzc\stm32\h743ii_lcd\lvgl\src/core\lv_obj_pos.h **** #ifndef LV_OBJ_POS_H
   7:d:\kzc\stm32\h743ii_lcd\lvgl\src/core\lv_obj_pos.h **** #define LV_OBJ_POS_H
   8:d:\kzc\stm32\h743ii_lcd\lvgl\src/core\lv_obj_pos.h **** 
   9:d:\kzc\stm32\h743ii_lcd\lvgl\src/core\lv_obj_pos.h **** #ifdef __cplusplus
  10:d:\kzc\stm32\h743ii_lcd\lvgl\src/core\lv_obj_pos.h **** extern "C" {
  11:d:\kzc\stm32\h743ii_lcd\lvgl\src/core\lv_obj_pos.h **** #endif
  12:d:\kzc\stm32\h743ii_lcd\lvgl\src/core\lv_obj_pos.h **** 
  13:d:\kzc\stm32\h743ii_lcd\lvgl\src/core\lv_obj_pos.h **** /*********************
  14:d:\kzc\stm32\h743ii_lcd\lvgl\src/core\lv_obj_pos.h ****  *      INCLUDES
  15:d:\kzc\stm32\h743ii_lcd\lvgl\src/core\lv_obj_pos.h ****  *********************/
  16:d:\kzc\stm32\h743ii_lcd\lvgl\src/core\lv_obj_pos.h **** #include "../misc/lv_area.h"
  17:d:\kzc\stm32\h743ii_lcd\lvgl\src/core\lv_obj_pos.h **** 
  18:d:\kzc\stm32\h743ii_lcd\lvgl\src/core\lv_obj_pos.h **** /*********************
  19:d:\kzc\stm32\h743ii_lcd\lvgl\src/core\lv_obj_pos.h ****  *      DEFINES
  20:d:\kzc\stm32\h743ii_lcd\lvgl\src/core\lv_obj_pos.h ****  *********************/
  21:d:\kzc\stm32\h743ii_lcd\lvgl\src/core\lv_obj_pos.h **** 
  22:d:\kzc\stm32\h743ii_lcd\lvgl\src/core\lv_obj_pos.h **** /**********************
  23:d:\kzc\stm32\h743ii_lcd\lvgl\src/core\lv_obj_pos.h ****  *      TYPEDEFS
  24:d:\kzc\stm32\h743ii_lcd\lvgl\src/core\lv_obj_pos.h ****  **********************/
  25:d:\kzc\stm32\h743ii_lcd\lvgl\src/core\lv_obj_pos.h **** struct _lv_obj_t;
  26:d:\kzc\stm32\h743ii_lcd\lvgl\src/core\lv_obj_pos.h **** 
  27:d:\kzc\stm32\h743ii_lcd\lvgl\src/core\lv_obj_pos.h **** typedef void (*lv_layout_update_cb_t)(struct _lv_obj_t *, void * user_data);
  28:d:\kzc\stm32\h743ii_lcd\lvgl\src/core\lv_obj_pos.h **** typedef struct {
  29:d:\kzc\stm32\h743ii_lcd\lvgl\src/core\lv_obj_pos.h ****     lv_layout_update_cb_t cb;
  30:d:\kzc\stm32\h743ii_lcd\lvgl\src/core\lv_obj_pos.h ****     void * user_data;
  31:d:\kzc\stm32\h743ii_lcd\lvgl\src/core\lv_obj_pos.h **** } lv_layout_dsc_t;
  32:d:\kzc\stm32\h743ii_lcd\lvgl\src/core\lv_obj_pos.h **** 
  33:d:\kzc\stm32\h743ii_lcd\lvgl\src/core\lv_obj_pos.h **** /**********************
  34:d:\kzc\stm32\h743ii_lcd\lvgl\src/core\lv_obj_pos.h ****  * GLOBAL PROTOTYPES
  35:d:\kzc\stm32\h743ii_lcd\lvgl\src/core\lv_obj_pos.h ****  **********************/
  36:d:\kzc\stm32\h743ii_lcd\lvgl\src/core\lv_obj_pos.h **** 
  37:d:\kzc\stm32\h743ii_lcd\lvgl\src/core\lv_obj_pos.h **** /**
  38:d:\kzc\stm32\h743ii_lcd\lvgl\src/core\lv_obj_pos.h ****  * Set the position of an object relative to the set alignment.
  39:d:\kzc\stm32\h743ii_lcd\lvgl\src/core\lv_obj_pos.h ****  * @param obj       pointer to an object
  40:d:\kzc\stm32\h743ii_lcd\lvgl\src/core\lv_obj_pos.h ****  * @param x         new x coordinate
  41:d:\kzc\stm32\h743ii_lcd\lvgl\src/core\lv_obj_pos.h ****  * @param y         new y coordinate
  42:d:\kzc\stm32\h743ii_lcd\lvgl\src/core\lv_obj_pos.h ****  * @note            With default alignment it's the distance from the top left corner
  43:d:\kzc\stm32\h743ii_lcd\lvgl\src/core\lv_obj_pos.h ****  * @note            E.g. LV_ALIGN_CENTER alignment it's the offset from the center of the parent
  44:d:\kzc\stm32\h743ii_lcd\lvgl\src/core\lv_obj_pos.h ****  * @note            The position is interpreted on the content area of the parent
  45:d:\kzc\stm32\h743ii_lcd\lvgl\src/core\lv_obj_pos.h ****  * @note            The values can be set in pixel or in percentage of parent size with `lv_pct(v)`
  46:d:\kzc\stm32\h743ii_lcd\lvgl\src/core\lv_obj_pos.h ****  */
  47:d:\kzc\stm32\h743ii_lcd\lvgl\src/core\lv_obj_pos.h **** void lv_obj_set_pos(struct _lv_obj_t * obj, lv_coord_t x, lv_coord_t y);
  48:d:\kzc\stm32\h743ii_lcd\lvgl\src/core\lv_obj_pos.h **** 
  49:d:\kzc\stm32\h743ii_lcd\lvgl\src/core\lv_obj_pos.h **** /**
  50:d:\kzc\stm32\h743ii_lcd\lvgl\src/core\lv_obj_pos.h ****  * Set the x coordinate of an object
  51:d:\kzc\stm32\h743ii_lcd\lvgl\src/core\lv_obj_pos.h ****  * @param obj       pointer to an object
  52:d:\kzc\stm32\h743ii_lcd\lvgl\src/core\lv_obj_pos.h ****  * @param x         new x coordinate
  53:d:\kzc\stm32\h743ii_lcd\lvgl\src/core\lv_obj_pos.h ****  * @note            With default alignment it's the distance from the top left corner
  54:d:\kzc\stm32\h743ii_lcd\lvgl\src/core\lv_obj_pos.h ****  * @note            E.g. LV_ALIGN_CENTER alignment it's the offset from the center of the parent
  55:d:\kzc\stm32\h743ii_lcd\lvgl\src/core\lv_obj_pos.h ****  * @note            The position is interpreted on the content area of the parent
  56:d:\kzc\stm32\h743ii_lcd\lvgl\src/core\lv_obj_pos.h ****  * @note            The values can be set in pixel or in percentage of parent size with `lv_pct(v)`
  57:d:\kzc\stm32\h743ii_lcd\lvgl\src/core\lv_obj_pos.h ****  */
ARM GAS  C:\Users\OSD\AppData\Local\Temp\ccDUSLEU.s 			page 24


  58:d:\kzc\stm32\h743ii_lcd\lvgl\src/core\lv_obj_pos.h **** void lv_obj_set_x(struct _lv_obj_t * obj, lv_coord_t x);
  59:d:\kzc\stm32\h743ii_lcd\lvgl\src/core\lv_obj_pos.h **** 
  60:d:\kzc\stm32\h743ii_lcd\lvgl\src/core\lv_obj_pos.h **** /**
  61:d:\kzc\stm32\h743ii_lcd\lvgl\src/core\lv_obj_pos.h ****  * Set the y coordinate of an object
  62:d:\kzc\stm32\h743ii_lcd\lvgl\src/core\lv_obj_pos.h ****  * @param obj       pointer to an object
  63:d:\kzc\stm32\h743ii_lcd\lvgl\src/core\lv_obj_pos.h ****  * @param y         new y coordinate
  64:d:\kzc\stm32\h743ii_lcd\lvgl\src/core\lv_obj_pos.h ****  * @note            With default alignment it's the distance from the top left corner
  65:d:\kzc\stm32\h743ii_lcd\lvgl\src/core\lv_obj_pos.h ****  * @note            E.g. LV_ALIGN_CENTER alignment it's the offset from the center of the parent
  66:d:\kzc\stm32\h743ii_lcd\lvgl\src/core\lv_obj_pos.h ****  * @note            The position is interpreted on the content area of the parent
  67:d:\kzc\stm32\h743ii_lcd\lvgl\src/core\lv_obj_pos.h ****  * @note            The values can be set in pixel or in percentage of parent size with `lv_pct(v)`
  68:d:\kzc\stm32\h743ii_lcd\lvgl\src/core\lv_obj_pos.h ****  */
  69:d:\kzc\stm32\h743ii_lcd\lvgl\src/core\lv_obj_pos.h **** void lv_obj_set_y(struct _lv_obj_t * obj, lv_coord_t y);
  70:d:\kzc\stm32\h743ii_lcd\lvgl\src/core\lv_obj_pos.h **** 
  71:d:\kzc\stm32\h743ii_lcd\lvgl\src/core\lv_obj_pos.h **** /**
  72:d:\kzc\stm32\h743ii_lcd\lvgl\src/core\lv_obj_pos.h ****  * Set the size of an object.
  73:d:\kzc\stm32\h743ii_lcd\lvgl\src/core\lv_obj_pos.h ****  * @param obj       pointer to an object
  74:d:\kzc\stm32\h743ii_lcd\lvgl\src/core\lv_obj_pos.h ****  * @param w         the new width
  75:d:\kzc\stm32\h743ii_lcd\lvgl\src/core\lv_obj_pos.h ****  * @param h         the new height
  76:d:\kzc\stm32\h743ii_lcd\lvgl\src/core\lv_obj_pos.h ****  * @note            possible values are:
  77:d:\kzc\stm32\h743ii_lcd\lvgl\src/core\lv_obj_pos.h ****  *                  pixel               simple set the size accordingly
  78:d:\kzc\stm32\h743ii_lcd\lvgl\src/core\lv_obj_pos.h ****  *                  LV_SIZE_CONTENT     set the size to involve all children in the given direction
  79:d:\kzc\stm32\h743ii_lcd\lvgl\src/core\lv_obj_pos.h ****  *                  LV_SIZE_PCT(x)     to set size in percentage of the parent's content area size 
  80:d:\kzc\stm32\h743ii_lcd\lvgl\src/core\lv_obj_pos.h ****  *                                      x should be in [0..1000]% range
  81:d:\kzc\stm32\h743ii_lcd\lvgl\src/core\lv_obj_pos.h ****  */
  82:d:\kzc\stm32\h743ii_lcd\lvgl\src/core\lv_obj_pos.h **** void lv_obj_set_size(struct _lv_obj_t * obj, lv_coord_t w, lv_coord_t h);
  83:d:\kzc\stm32\h743ii_lcd\lvgl\src/core\lv_obj_pos.h **** 
  84:d:\kzc\stm32\h743ii_lcd\lvgl\src/core\lv_obj_pos.h **** /**
  85:d:\kzc\stm32\h743ii_lcd\lvgl\src/core\lv_obj_pos.h ****  * Recalculate the size of the object
  86:d:\kzc\stm32\h743ii_lcd\lvgl\src/core\lv_obj_pos.h ****  * @param obj       pointer to an object
  87:d:\kzc\stm32\h743ii_lcd\lvgl\src/core\lv_obj_pos.h ****  * @return          true: the size has been changed
  88:d:\kzc\stm32\h743ii_lcd\lvgl\src/core\lv_obj_pos.h ****  */
  89:d:\kzc\stm32\h743ii_lcd\lvgl\src/core\lv_obj_pos.h **** bool lv_obj_refr_size(struct _lv_obj_t * obj);
  90:d:\kzc\stm32\h743ii_lcd\lvgl\src/core\lv_obj_pos.h **** 
  91:d:\kzc\stm32\h743ii_lcd\lvgl\src/core\lv_obj_pos.h **** /**
  92:d:\kzc\stm32\h743ii_lcd\lvgl\src/core\lv_obj_pos.h ****  * Set the width of an object
  93:d:\kzc\stm32\h743ii_lcd\lvgl\src/core\lv_obj_pos.h ****  * @param obj       pointer to an object
  94:d:\kzc\stm32\h743ii_lcd\lvgl\src/core\lv_obj_pos.h ****  * @param w         the new width
  95:d:\kzc\stm32\h743ii_lcd\lvgl\src/core\lv_obj_pos.h ****  * @note            possible values are:
  96:d:\kzc\stm32\h743ii_lcd\lvgl\src/core\lv_obj_pos.h ****  *                  pixel               simple set the size accordingly
  97:d:\kzc\stm32\h743ii_lcd\lvgl\src/core\lv_obj_pos.h ****  *                  LV_SIZE_CONTENT     set the size to involve all children in the given direction
  98:d:\kzc\stm32\h743ii_lcd\lvgl\src/core\lv_obj_pos.h ****  *                  lv_pct(x)           to set size in percentage of the parent's content area size
  99:d:\kzc\stm32\h743ii_lcd\lvgl\src/core\lv_obj_pos.h ****  *                                      x should be in [0..1000]% range
 100:d:\kzc\stm32\h743ii_lcd\lvgl\src/core\lv_obj_pos.h ****  */
 101:d:\kzc\stm32\h743ii_lcd\lvgl\src/core\lv_obj_pos.h **** void lv_obj_set_width(struct _lv_obj_t * obj, lv_coord_t w);
 102:d:\kzc\stm32\h743ii_lcd\lvgl\src/core\lv_obj_pos.h **** 
 103:d:\kzc\stm32\h743ii_lcd\lvgl\src/core\lv_obj_pos.h **** /**
 104:d:\kzc\stm32\h743ii_lcd\lvgl\src/core\lv_obj_pos.h ****  * Set the height of an object
 105:d:\kzc\stm32\h743ii_lcd\lvgl\src/core\lv_obj_pos.h ****  * @param obj       pointer to an object
 106:d:\kzc\stm32\h743ii_lcd\lvgl\src/core\lv_obj_pos.h ****  * @param h         the new height
 107:d:\kzc\stm32\h743ii_lcd\lvgl\src/core\lv_obj_pos.h ****  * @note            possible values are:
 108:d:\kzc\stm32\h743ii_lcd\lvgl\src/core\lv_obj_pos.h ****  *                  pixel               simple set the size accordingly
 109:d:\kzc\stm32\h743ii_lcd\lvgl\src/core\lv_obj_pos.h ****  *                  LV_SIZE_CONTENT     set the size to involve all children in the given direction
 110:d:\kzc\stm32\h743ii_lcd\lvgl\src/core\lv_obj_pos.h ****  *                  lv_pct(x)           to set size in percentage of the parent's content area size
 111:d:\kzc\stm32\h743ii_lcd\lvgl\src/core\lv_obj_pos.h ****  *                                      x should be in [0..1000]% range
 112:d:\kzc\stm32\h743ii_lcd\lvgl\src/core\lv_obj_pos.h ****  */
 113:d:\kzc\stm32\h743ii_lcd\lvgl\src/core\lv_obj_pos.h **** void lv_obj_set_height(struct _lv_obj_t * obj, lv_coord_t h);
 114:d:\kzc\stm32\h743ii_lcd\lvgl\src/core\lv_obj_pos.h **** 
ARM GAS  C:\Users\OSD\AppData\Local\Temp\ccDUSLEU.s 			page 25


 115:d:\kzc\stm32\h743ii_lcd\lvgl\src/core\lv_obj_pos.h **** /**
 116:d:\kzc\stm32\h743ii_lcd\lvgl\src/core\lv_obj_pos.h ****  * Set the width reduced by the left and right padding and the border width.
 117:d:\kzc\stm32\h743ii_lcd\lvgl\src/core\lv_obj_pos.h ****  * @param obj       pointer to an object
 118:d:\kzc\stm32\h743ii_lcd\lvgl\src/core\lv_obj_pos.h ****  * @param w         the width without paddings in pixels
 119:d:\kzc\stm32\h743ii_lcd\lvgl\src/core\lv_obj_pos.h ****  */
 120:d:\kzc\stm32\h743ii_lcd\lvgl\src/core\lv_obj_pos.h **** void lv_obj_set_content_width(struct _lv_obj_t * obj, lv_coord_t w);
 121:d:\kzc\stm32\h743ii_lcd\lvgl\src/core\lv_obj_pos.h **** 
 122:d:\kzc\stm32\h743ii_lcd\lvgl\src/core\lv_obj_pos.h **** /**
 123:d:\kzc\stm32\h743ii_lcd\lvgl\src/core\lv_obj_pos.h ****  * Set the height reduced by the top and bottom padding and the border width.
 124:d:\kzc\stm32\h743ii_lcd\lvgl\src/core\lv_obj_pos.h ****  * @param obj       pointer to an object
 125:d:\kzc\stm32\h743ii_lcd\lvgl\src/core\lv_obj_pos.h ****  * @param h         the height without paddings in pixels
 126:d:\kzc\stm32\h743ii_lcd\lvgl\src/core\lv_obj_pos.h ****  */
 127:d:\kzc\stm32\h743ii_lcd\lvgl\src/core\lv_obj_pos.h **** void lv_obj_set_content_height(struct _lv_obj_t * obj, lv_coord_t h);
 128:d:\kzc\stm32\h743ii_lcd\lvgl\src/core\lv_obj_pos.h **** 
 129:d:\kzc\stm32\h743ii_lcd\lvgl\src/core\lv_obj_pos.h **** /**
 130:d:\kzc\stm32\h743ii_lcd\lvgl\src/core\lv_obj_pos.h ****  * Set a layout for an object
 131:d:\kzc\stm32\h743ii_lcd\lvgl\src/core\lv_obj_pos.h ****  * @param obj       pointer to an object
 132:d:\kzc\stm32\h743ii_lcd\lvgl\src/core\lv_obj_pos.h ****  * @param layout    pointer to a layout descriptor to set
 133:d:\kzc\stm32\h743ii_lcd\lvgl\src/core\lv_obj_pos.h ****  */
 134:d:\kzc\stm32\h743ii_lcd\lvgl\src/core\lv_obj_pos.h **** void lv_obj_set_layout(struct _lv_obj_t * obj, uint32_t layout);
 135:d:\kzc\stm32\h743ii_lcd\lvgl\src/core\lv_obj_pos.h **** 
 136:d:\kzc\stm32\h743ii_lcd\lvgl\src/core\lv_obj_pos.h **** /**
 137:d:\kzc\stm32\h743ii_lcd\lvgl\src/core\lv_obj_pos.h ****  * Test whether the and object is positioned by a layout or not
 138:d:\kzc\stm32\h743ii_lcd\lvgl\src/core\lv_obj_pos.h ****  * @param obj       pointer to an object to test
 139:d:\kzc\stm32\h743ii_lcd\lvgl\src/core\lv_obj_pos.h ****  * @return true:    positioned by a layout; false: not positioned by a layout
 140:d:\kzc\stm32\h743ii_lcd\lvgl\src/core\lv_obj_pos.h ****  */
 141:d:\kzc\stm32\h743ii_lcd\lvgl\src/core\lv_obj_pos.h **** bool lv_obj_is_layout_positioned(const struct _lv_obj_t * obj);
 142:d:\kzc\stm32\h743ii_lcd\lvgl\src/core\lv_obj_pos.h **** 
 143:d:\kzc\stm32\h743ii_lcd\lvgl\src/core\lv_obj_pos.h **** /**
 144:d:\kzc\stm32\h743ii_lcd\lvgl\src/core\lv_obj_pos.h ****  * Mark the object for layout update.
 145:d:\kzc\stm32\h743ii_lcd\lvgl\src/core\lv_obj_pos.h ****  * @param obj      pointer to an object whose children needs to be updated
 146:d:\kzc\stm32\h743ii_lcd\lvgl\src/core\lv_obj_pos.h ****  */
 147:d:\kzc\stm32\h743ii_lcd\lvgl\src/core\lv_obj_pos.h **** void lv_obj_mark_layout_as_dirty(struct _lv_obj_t * obj);
 148:d:\kzc\stm32\h743ii_lcd\lvgl\src/core\lv_obj_pos.h **** 
 149:d:\kzc\stm32\h743ii_lcd\lvgl\src/core\lv_obj_pos.h **** /**
 150:d:\kzc\stm32\h743ii_lcd\lvgl\src/core\lv_obj_pos.h ****  * Update the layout of an object.
 151:d:\kzc\stm32\h743ii_lcd\lvgl\src/core\lv_obj_pos.h ****  * @param obj      pointer to an object whose children needs to be updated
 152:d:\kzc\stm32\h743ii_lcd\lvgl\src/core\lv_obj_pos.h ****  */
 153:d:\kzc\stm32\h743ii_lcd\lvgl\src/core\lv_obj_pos.h **** void lv_obj_update_layout(const struct _lv_obj_t * obj);
 154:d:\kzc\stm32\h743ii_lcd\lvgl\src/core\lv_obj_pos.h **** 
 155:d:\kzc\stm32\h743ii_lcd\lvgl\src/core\lv_obj_pos.h **** /**
 156:d:\kzc\stm32\h743ii_lcd\lvgl\src/core\lv_obj_pos.h ****  * Register a new layout
 157:d:\kzc\stm32\h743ii_lcd\lvgl\src/core\lv_obj_pos.h ****  * @param cb        the layout update callback
 158:d:\kzc\stm32\h743ii_lcd\lvgl\src/core\lv_obj_pos.h ****  * @param user_data custom data that will be passed to `cb`
 159:d:\kzc\stm32\h743ii_lcd\lvgl\src/core\lv_obj_pos.h ****  * @return          the ID of the new layout
 160:d:\kzc\stm32\h743ii_lcd\lvgl\src/core\lv_obj_pos.h ****  */
 161:d:\kzc\stm32\h743ii_lcd\lvgl\src/core\lv_obj_pos.h **** uint32_t lv_layout_register(lv_layout_update_cb_t cb, void * user_data);
 162:d:\kzc\stm32\h743ii_lcd\lvgl\src/core\lv_obj_pos.h **** 
 163:d:\kzc\stm32\h743ii_lcd\lvgl\src/core\lv_obj_pos.h **** /**
 164:d:\kzc\stm32\h743ii_lcd\lvgl\src/core\lv_obj_pos.h ****  * Change the alignment of an object.
 165:d:\kzc\stm32\h743ii_lcd\lvgl\src/core\lv_obj_pos.h ****  * @param obj       pointer to an object to align
 166:d:\kzc\stm32\h743ii_lcd\lvgl\src/core\lv_obj_pos.h ****  * @param align     type of alignment (see 'lv_align_t' enum) `LV_ALIGN_OUT_...` can't be used.
 167:d:\kzc\stm32\h743ii_lcd\lvgl\src/core\lv_obj_pos.h ****  */
 168:d:\kzc\stm32\h743ii_lcd\lvgl\src/core\lv_obj_pos.h **** void lv_obj_set_align(struct _lv_obj_t * obj, lv_align_t align);
 169:d:\kzc\stm32\h743ii_lcd\lvgl\src/core\lv_obj_pos.h **** 
 170:d:\kzc\stm32\h743ii_lcd\lvgl\src/core\lv_obj_pos.h **** /**
 171:d:\kzc\stm32\h743ii_lcd\lvgl\src/core\lv_obj_pos.h ****  * Change the alignment of an object and set new coordinates.
ARM GAS  C:\Users\OSD\AppData\Local\Temp\ccDUSLEU.s 			page 26


 172:d:\kzc\stm32\h743ii_lcd\lvgl\src/core\lv_obj_pos.h ****  * Equivalent to:
 173:d:\kzc\stm32\h743ii_lcd\lvgl\src/core\lv_obj_pos.h ****  * lv_obj_set_align(obj, align);
 174:d:\kzc\stm32\h743ii_lcd\lvgl\src/core\lv_obj_pos.h ****  * lv_obj_set_pos(obj, x_ofs, y_ofs);
 175:d:\kzc\stm32\h743ii_lcd\lvgl\src/core\lv_obj_pos.h ****  * @param obj       pointer to an object to align
 176:d:\kzc\stm32\h743ii_lcd\lvgl\src/core\lv_obj_pos.h ****  * @param align     type of alignment (see 'lv_align_t' enum) `LV_ALIGN_OUT_...` can't be used.
 177:d:\kzc\stm32\h743ii_lcd\lvgl\src/core\lv_obj_pos.h ****  * @param x_ofs     x coordinate offset after alignment
 178:d:\kzc\stm32\h743ii_lcd\lvgl\src/core\lv_obj_pos.h ****  * @param y_ofs     y coordinate offset after alignment
 179:d:\kzc\stm32\h743ii_lcd\lvgl\src/core\lv_obj_pos.h ****  */
 180:d:\kzc\stm32\h743ii_lcd\lvgl\src/core\lv_obj_pos.h **** void lv_obj_align(struct _lv_obj_t * obj, lv_align_t align, lv_coord_t x_ofs, lv_coord_t y_ofs);
 181:d:\kzc\stm32\h743ii_lcd\lvgl\src/core\lv_obj_pos.h **** 
 182:d:\kzc\stm32\h743ii_lcd\lvgl\src/core\lv_obj_pos.h **** /**
 183:d:\kzc\stm32\h743ii_lcd\lvgl\src/core\lv_obj_pos.h ****  * Align an object to an other object.
 184:d:\kzc\stm32\h743ii_lcd\lvgl\src/core\lv_obj_pos.h ****  * @param obj       pointer to an object to align
 185:d:\kzc\stm32\h743ii_lcd\lvgl\src/core\lv_obj_pos.h ****  * @param base      pointer to an other object (if NULL `obj`s parent is used). 'obj' will be align
 186:d:\kzc\stm32\h743ii_lcd\lvgl\src/core\lv_obj_pos.h ****  * @param align     type of alignment (see 'lv_align_t' enum)
 187:d:\kzc\stm32\h743ii_lcd\lvgl\src/core\lv_obj_pos.h ****  * @param x_ofs     x coordinate offset after alignment
 188:d:\kzc\stm32\h743ii_lcd\lvgl\src/core\lv_obj_pos.h ****  * @param y_ofs     y coordinate offset after alignment
 189:d:\kzc\stm32\h743ii_lcd\lvgl\src/core\lv_obj_pos.h ****  * @note            if the position or size of `base` changes `obj` needs to be aligned manually ag
 190:d:\kzc\stm32\h743ii_lcd\lvgl\src/core\lv_obj_pos.h ****  */
 191:d:\kzc\stm32\h743ii_lcd\lvgl\src/core\lv_obj_pos.h **** void lv_obj_align_to(struct _lv_obj_t * obj, const struct _lv_obj_t * base, lv_align_t align, lv_co
 192:d:\kzc\stm32\h743ii_lcd\lvgl\src/core\lv_obj_pos.h ****                      lv_coord_t y_ofs);
 193:d:\kzc\stm32\h743ii_lcd\lvgl\src/core\lv_obj_pos.h **** 
 194:d:\kzc\stm32\h743ii_lcd\lvgl\src/core\lv_obj_pos.h **** /**
 195:d:\kzc\stm32\h743ii_lcd\lvgl\src/core\lv_obj_pos.h ****  * Align an object to the center on its parent.
 196:d:\kzc\stm32\h743ii_lcd\lvgl\src/core\lv_obj_pos.h ****  * @param obj       pointer to an object to align
 197:d:\kzc\stm32\h743ii_lcd\lvgl\src/core\lv_obj_pos.h ****  * @note            if the parent size changes `obj` needs to be aligned manually again
 198:d:\kzc\stm32\h743ii_lcd\lvgl\src/core\lv_obj_pos.h ****  */
 199:d:\kzc\stm32\h743ii_lcd\lvgl\src/core\lv_obj_pos.h **** static inline void lv_obj_center(struct _lv_obj_t * obj)
 488              		.loc 4 199 20 view .LVU99
 489              	.LBB22:
 200:d:\kzc\stm32\h743ii_lcd\lvgl\src/core\lv_obj_pos.h **** {
 201:d:\kzc\stm32\h743ii_lcd\lvgl\src/core\lv_obj_pos.h ****     lv_obj_align(obj, LV_ALIGN_CENTER, 0, 0);
 490              		.loc 4 201 5 view .LVU100
 491 00d6 0023     		movs	r3, #0
 492 00d8 1A46     		mov	r2, r3
 493 00da 0921     		movs	r1, #9
 494 00dc 2046     		mov	r0, r4
 495 00de FFF7FEFF 		bl	lv_obj_align
 496              	.LVL52:
 497              		.loc 4 201 5 is_stmt 0 view .LVU101
 498              	.LBE22:
 499              	.LBE21:
  59:lvgl/examples/widgets/table/lv_example_table_1.c **** 
  60:lvgl/examples/widgets/table/lv_example_table_1.c ****     /*Add an event callback to to apply some custom drawing*/
  61:lvgl/examples/widgets/table/lv_example_table_1.c ****     lv_obj_add_event_cb(table, draw_part_event_cb, LV_EVENT_DRAW_PART_BEGIN, NULL);
 500              		.loc 1 61 5 is_stmt 1 view .LVU102
 501 00e2 0023     		movs	r3, #0
 502 00e4 1A22     		movs	r2, #26
 503 00e6 1249     		ldr	r1, .L12+64
 504 00e8 2046     		mov	r0, r4
 505 00ea FFF7FEFF 		bl	lv_obj_add_event_cb
 506              	.LVL53:
  62:lvgl/examples/widgets/table/lv_example_table_1.c **** }
 507              		.loc 1 62 1 is_stmt 0 view .LVU103
 508 00ee 10BD     		pop	{r4, pc}
 509              	.LVL54:
 510              	.L13:
ARM GAS  C:\Users\OSD\AppData\Local\Temp\ccDUSLEU.s 			page 27


 511              		.loc 1 62 1 view .LVU104
 512              		.align	2
 513              	.L12:
 514 00f0 00000000 		.word	.LC0
 515 00f4 08000000 		.word	.LC1
 516 00f8 10000000 		.word	.LC2
 517 00fc 18000000 		.word	.LC3
 518 0100 20000000 		.word	.LC4
 519 0104 28000000 		.word	.LC5
 520 0108 30000000 		.word	.LC6
 521 010c 38000000 		.word	.LC7
 522 0110 40000000 		.word	.LC8
 523 0114 48000000 		.word	.LC9
 524 0118 4C000000 		.word	.LC10
 525 011c 50000000 		.word	.LC11
 526 0120 54000000 		.word	.LC12
 527 0124 58000000 		.word	.LC13
 528 0128 5C000000 		.word	.LC14
 529 012c 60000000 		.word	.LC15
 530 0130 00000000 		.word	draw_part_event_cb
 531              		.cfi_endproc
 532              	.LFE205:
 534              		.text
 535              	.Letext0:
 536              		.file 5 "c:\\tools\\gcc-arm-none-eabi\\arm-none-eabi\\include\\machine\\_default_types.h"
 537              		.file 6 "c:\\tools\\gcc-arm-none-eabi\\arm-none-eabi\\include\\sys\\_stdint.h"
 538              		.file 7 "d:\\kzc\\stm32\\h743ii_lcd\\lvgl\\src/misc/lv_types.h"
 539              		.file 8 "c:\\tools\\gcc-arm-none-eabi\\lib\\gcc\\arm-none-eabi\\10.3.1\\include\\stddef.h"
 540              		.file 9 "d:\\kzc\\stm32\\h743ii_lcd\\lvgl\\src\\misc\\lv_area.h"
 541              		.file 10 "d:\\kzc\\stm32\\h743ii_lcd\\lvgl\\src\\font\\lv_font.h"
 542              		.file 11 "d:\\kzc\\stm32\\h743ii_lcd\\lvgl\\src\\misc\\lv_txt.h"
 543              		.file 12 "d:\\kzc\\stm32\\h743ii_lcd\\lvgl\\src\\misc\\lv_bidi.h"
 544              		.file 13 "d:\\kzc\\stm32\\h743ii_lcd\\lvgl\\src\\misc\\lv_style.h"
 545              		.file 14 "d:\\kzc\\stm32\\h743ii_lcd\\lvgl\\src\\draw\\lv_img_buf.h"
 546              		.file 15 "d:\\kzc\\stm32\\h743ii_lcd\\lvgl\\src/core/lv_obj.h"
 547              		.file 16 "d:\\kzc\\stm32\\h743ii_lcd\\lvgl\\src\\draw\\lv_draw_rect.h"
 548              		.file 17 "d:\\kzc\\stm32\\h743ii_lcd\\lvgl\\src\\draw\\lv_draw_label.h"
 549              		.file 18 "d:\\kzc\\stm32\\h743ii_lcd\\lvgl\\src\\draw\\lv_draw_img.h"
 550              		.file 19 "d:\\kzc\\stm32\\h743ii_lcd\\lvgl\\src\\draw\\lv_draw_line.h"
 551              		.file 20 "d:\\kzc\\stm32\\h743ii_lcd\\lvgl\\src\\draw\\lv_draw_arc.h"
 552              		.file 21 "d:\\kzc\\stm32\\h743ii_lcd\\lvgl\\src\\draw\\lv_draw_layer.h"
 553              		.file 22 "d:\\kzc\\stm32\\h743ii_lcd\\lvgl\\src\\draw\\lv_draw.h"
 554              		.file 23 "d:\\kzc\\stm32\\h743ii_lcd\\lvgl\\src\\misc\\lv_ll.h"
 555              		.file 24 "d:\\kzc\\stm32\\h743ii_lcd\\lvgl\\src/core/lv_group.h"
 556              		.file 25 "d:\\kzc\\stm32\\h743ii_lcd\\lvgl\\src/core/lv_obj_scroll.h"
 557              		.file 26 "d:\\kzc\\stm32\\h743ii_lcd\\lvgl\\src/core/lv_obj_style.h"
 558              		.file 27 "d:\\kzc\\stm32\\h743ii_lcd\\lvgl\\src/core/lv_obj_draw.h"
 559              		.file 28 "d:\\kzc\\stm32\\h743ii_lcd\\lvgl\\src/core/lv_obj_class.h"
 560              		.file 29 "d:\\kzc\\stm32\\h743ii_lcd\\lvgl\\src/core/lv_event.h"
 561              		.file 30 "d:\\kzc\\stm32\\h743ii_lcd\\lvgl\\src/hal/lv_hal_disp.h"
 562              		.file 31 "d:\\kzc\\stm32\\h743ii_lcd\\lvgl\\src/widgets/lv_table.h"
ARM GAS  C:\Users\OSD\AppData\Local\Temp\ccDUSLEU.s 			page 28

