ARM GAS  C:\Users\OSD\AppData\Local\Temp\ccSnGOQJ.s 			page 1


   1              		.cpu cortex-m7
   2              		.arch armv7e-m
   3              		.fpu fpv5-d16
   4              		.eabi_attribute 28, 1
   5              		.eabi_attribute 20, 1
   6              		.eabi_attribute 21, 1
   7              		.eabi_attribute 23, 3
   8              		.eabi_attribute 24, 1
   9              		.eabi_attribute 25, 1
  10              		.eabi_attribute 26, 1
  11              		.eabi_attribute 30, 1
  12              		.eabi_attribute 34, 1
  13              		.eabi_attribute 18, 4
  14              		.file	"lv_example_event_3.c"
  15              		.text
  16              	.Ltext0:
  17              		.cfi_sections	.debug_frame
  18              		.section	.text.event_cb,"ax",%progbits
  19              		.align	1
  20              		.syntax unified
  21              		.thumb
  22              		.thumb_func
  24              	event_cb:
  25              	.LVL0:
  26              	.LFB204:
  27              		.file 1 "lvgl/examples/event/lv_example_event_3.c"
   1:lvgl/examples/event/lv_example_event_3.c **** #include "../lv_examples.h"
   2:lvgl/examples/event/lv_example_event_3.c **** #if LV_BUILD_EXAMPLES && LV_USE_FLEX
   3:lvgl/examples/event/lv_example_event_3.c **** 
   4:lvgl/examples/event/lv_example_event_3.c **** static void event_cb(lv_event_t * e)
   5:lvgl/examples/event/lv_example_event_3.c **** {
  28              		.loc 1 5 1 view -0
  29              		.cfi_startproc
  30              		@ args = 0, pretend = 0, frame = 0
  31              		@ frame_needed = 0, uses_anonymous_args = 0
  32              		.loc 1 5 1 is_stmt 0 view .LVU1
  33 0000 38B5     		push	{r3, r4, r5, lr}
  34              		.cfi_def_cfa_offset 16
  35              		.cfi_offset 3, -16
  36              		.cfi_offset 4, -12
  37              		.cfi_offset 5, -8
  38              		.cfi_offset 14, -4
  39 0002 0546     		mov	r5, r0
   6:lvgl/examples/event/lv_example_event_3.c ****     /*The original target of the event. Can be the buttons or the container*/
   7:lvgl/examples/event/lv_example_event_3.c ****     lv_obj_t * target = lv_event_get_target(e);
  40              		.loc 1 7 5 is_stmt 1 view .LVU2
  41              		.loc 1 7 25 is_stmt 0 view .LVU3
  42 0004 FFF7FEFF 		bl	lv_event_get_target
  43              	.LVL1:
  44              		.loc 1 7 25 view .LVU4
  45 0008 0446     		mov	r4, r0
  46              	.LVL2:
   8:lvgl/examples/event/lv_example_event_3.c **** 
   9:lvgl/examples/event/lv_example_event_3.c ****     /*The current target is always the container as the event is added to it*/
  10:lvgl/examples/event/lv_example_event_3.c ****     lv_obj_t * cont = lv_event_get_current_target(e);
  47              		.loc 1 10 5 is_stmt 1 view .LVU5
  48              		.loc 1 10 23 is_stmt 0 view .LVU6
ARM GAS  C:\Users\OSD\AppData\Local\Temp\ccSnGOQJ.s 			page 2


  49 000a 2846     		mov	r0, r5
  50              	.LVL3:
  51              		.loc 1 10 23 view .LVU7
  52 000c FFF7FEFF 		bl	lv_event_get_current_target
  53              	.LVL4:
  11:lvgl/examples/event/lv_example_event_3.c **** 
  12:lvgl/examples/event/lv_example_event_3.c ****     /*If container was clicked do nothing*/
  13:lvgl/examples/event/lv_example_event_3.c ****     if(target == cont) return;
  54              		.loc 1 13 5 is_stmt 1 view .LVU8
  55              		.loc 1 13 7 is_stmt 0 view .LVU9
  56 0010 8442     		cmp	r4, r0
  57 0012 07D0     		beq	.L1
  14:lvgl/examples/event/lv_example_event_3.c **** 
  15:lvgl/examples/event/lv_example_event_3.c ****     /*Make the clicked buttons red*/
  16:lvgl/examples/event/lv_example_event_3.c ****     lv_obj_set_style_bg_color(target, lv_palette_main(LV_PALETTE_RED), 0);
  58              		.loc 1 16 5 is_stmt 1 view .LVU10
  59 0014 0020     		movs	r0, #0
  60              	.LVL5:
  61              		.loc 1 16 5 is_stmt 0 view .LVU11
  62 0016 FFF7FEFF 		bl	lv_palette_main
  63              	.LVL6:
  64 001a 0146     		mov	r1, r0
  65 001c 0022     		movs	r2, #0
  66 001e 2046     		mov	r0, r4
  67 0020 FFF7FEFF 		bl	lv_obj_set_style_bg_color
  68              	.LVL7:
  69              	.L1:
  17:lvgl/examples/event/lv_example_event_3.c **** }
  70              		.loc 1 17 1 view .LVU12
  71 0024 38BD     		pop	{r3, r4, r5, pc}
  72              		.loc 1 17 1 view .LVU13
  73              		.cfi_endproc
  74              	.LFE204:
  76              		.section	.rodata.lv_example_event_3.str1.4,"aMS",%progbits,1
  77              		.align	2
  78              	.LC0:
  79 0000 256C7500 		.ascii	"%lu\000"
  80              		.section	.text.lv_example_event_3,"ax",%progbits
  81              		.align	1
  82              		.global	lv_example_event_3
  83              		.syntax unified
  84              		.thumb
  85              		.thumb_func
  87              	lv_example_event_3:
  88              	.LFB205:
  18:lvgl/examples/event/lv_example_event_3.c **** 
  19:lvgl/examples/event/lv_example_event_3.c **** /**
  20:lvgl/examples/event/lv_example_event_3.c ****  * Demonstrate event bubbling
  21:lvgl/examples/event/lv_example_event_3.c ****  */
  22:lvgl/examples/event/lv_example_event_3.c **** void lv_example_event_3(void)
  23:lvgl/examples/event/lv_example_event_3.c **** {
  89              		.loc 1 23 1 is_stmt 1 view -0
  90              		.cfi_startproc
  91              		@ args = 0, pretend = 0, frame = 0
  92              		@ frame_needed = 0, uses_anonymous_args = 0
  93 0000 70B5     		push	{r4, r5, r6, lr}
  94              		.cfi_def_cfa_offset 16
ARM GAS  C:\Users\OSD\AppData\Local\Temp\ccSnGOQJ.s 			page 3


  95              		.cfi_offset 4, -16
  96              		.cfi_offset 5, -12
  97              		.cfi_offset 6, -8
  98              		.cfi_offset 14, -4
  24:lvgl/examples/event/lv_example_event_3.c **** 
  25:lvgl/examples/event/lv_example_event_3.c ****     lv_obj_t * cont = lv_obj_create(lv_scr_act());
  99              		.loc 1 25 5 view .LVU15
 100              	.LBB14:
 101              	.LBI14:
 102              		.file 2 "lvgl/examples/event/../../src/core/lv_disp.h"
   1:lvgl/examples/event/../../src/core/lv_disp.h **** /**
   2:lvgl/examples/event/../../src/core/lv_disp.h ****  * @file lv_disp.h
   3:lvgl/examples/event/../../src/core/lv_disp.h ****  *
   4:lvgl/examples/event/../../src/core/lv_disp.h ****  */
   5:lvgl/examples/event/../../src/core/lv_disp.h **** 
   6:lvgl/examples/event/../../src/core/lv_disp.h **** #ifndef LV_DISP_H
   7:lvgl/examples/event/../../src/core/lv_disp.h **** #define LV_DISP_H
   8:lvgl/examples/event/../../src/core/lv_disp.h **** 
   9:lvgl/examples/event/../../src/core/lv_disp.h **** #ifdef __cplusplus
  10:lvgl/examples/event/../../src/core/lv_disp.h **** extern "C" {
  11:lvgl/examples/event/../../src/core/lv_disp.h **** #endif
  12:lvgl/examples/event/../../src/core/lv_disp.h **** 
  13:lvgl/examples/event/../../src/core/lv_disp.h **** /*********************
  14:lvgl/examples/event/../../src/core/lv_disp.h ****  *      INCLUDES
  15:lvgl/examples/event/../../src/core/lv_disp.h ****  *********************/
  16:lvgl/examples/event/../../src/core/lv_disp.h **** #include "../hal/lv_hal.h"
  17:lvgl/examples/event/../../src/core/lv_disp.h **** #include "lv_obj.h"
  18:lvgl/examples/event/../../src/core/lv_disp.h **** #include "lv_theme.h"
  19:lvgl/examples/event/../../src/core/lv_disp.h **** 
  20:lvgl/examples/event/../../src/core/lv_disp.h **** /*********************
  21:lvgl/examples/event/../../src/core/lv_disp.h ****  *      DEFINES
  22:lvgl/examples/event/../../src/core/lv_disp.h ****  *********************/
  23:lvgl/examples/event/../../src/core/lv_disp.h **** 
  24:lvgl/examples/event/../../src/core/lv_disp.h **** /**********************
  25:lvgl/examples/event/../../src/core/lv_disp.h ****  *      TYPEDEFS
  26:lvgl/examples/event/../../src/core/lv_disp.h ****  **********************/
  27:lvgl/examples/event/../../src/core/lv_disp.h **** 
  28:lvgl/examples/event/../../src/core/lv_disp.h **** typedef enum {
  29:lvgl/examples/event/../../src/core/lv_disp.h ****     LV_SCR_LOAD_ANIM_NONE,
  30:lvgl/examples/event/../../src/core/lv_disp.h ****     LV_SCR_LOAD_ANIM_OVER_LEFT,
  31:lvgl/examples/event/../../src/core/lv_disp.h ****     LV_SCR_LOAD_ANIM_OVER_RIGHT,
  32:lvgl/examples/event/../../src/core/lv_disp.h ****     LV_SCR_LOAD_ANIM_OVER_TOP,
  33:lvgl/examples/event/../../src/core/lv_disp.h ****     LV_SCR_LOAD_ANIM_OVER_BOTTOM,
  34:lvgl/examples/event/../../src/core/lv_disp.h ****     LV_SCR_LOAD_ANIM_MOVE_LEFT,
  35:lvgl/examples/event/../../src/core/lv_disp.h ****     LV_SCR_LOAD_ANIM_MOVE_RIGHT,
  36:lvgl/examples/event/../../src/core/lv_disp.h ****     LV_SCR_LOAD_ANIM_MOVE_TOP,
  37:lvgl/examples/event/../../src/core/lv_disp.h ****     LV_SCR_LOAD_ANIM_MOVE_BOTTOM,
  38:lvgl/examples/event/../../src/core/lv_disp.h ****     LV_SCR_LOAD_ANIM_FADE_IN,
  39:lvgl/examples/event/../../src/core/lv_disp.h ****     LV_SCR_LOAD_ANIM_FADE_ON = LV_SCR_LOAD_ANIM_FADE_IN, /*For backward compatibility*/
  40:lvgl/examples/event/../../src/core/lv_disp.h ****     LV_SCR_LOAD_ANIM_FADE_OUT,
  41:lvgl/examples/event/../../src/core/lv_disp.h ****     LV_SCR_LOAD_ANIM_OUT_LEFT,
  42:lvgl/examples/event/../../src/core/lv_disp.h ****     LV_SCR_LOAD_ANIM_OUT_RIGHT,
  43:lvgl/examples/event/../../src/core/lv_disp.h ****     LV_SCR_LOAD_ANIM_OUT_TOP,
  44:lvgl/examples/event/../../src/core/lv_disp.h ****     LV_SCR_LOAD_ANIM_OUT_BOTTOM,
  45:lvgl/examples/event/../../src/core/lv_disp.h **** } lv_scr_load_anim_t;
  46:lvgl/examples/event/../../src/core/lv_disp.h **** 
  47:lvgl/examples/event/../../src/core/lv_disp.h **** /**********************
ARM GAS  C:\Users\OSD\AppData\Local\Temp\ccSnGOQJ.s 			page 4


  48:lvgl/examples/event/../../src/core/lv_disp.h ****  * GLOBAL PROTOTYPES
  49:lvgl/examples/event/../../src/core/lv_disp.h ****  **********************/
  50:lvgl/examples/event/../../src/core/lv_disp.h **** 
  51:lvgl/examples/event/../../src/core/lv_disp.h **** /**
  52:lvgl/examples/event/../../src/core/lv_disp.h ****  * Return with a pointer to the active screen
  53:lvgl/examples/event/../../src/core/lv_disp.h ****  * @param disp pointer to display which active screen should be get. (NULL to use the default
  54:lvgl/examples/event/../../src/core/lv_disp.h ****  * screen)
  55:lvgl/examples/event/../../src/core/lv_disp.h ****  * @return pointer to the active screen object (loaded by 'lv_scr_load()')
  56:lvgl/examples/event/../../src/core/lv_disp.h ****  */
  57:lvgl/examples/event/../../src/core/lv_disp.h **** lv_obj_t * lv_disp_get_scr_act(lv_disp_t * disp);
  58:lvgl/examples/event/../../src/core/lv_disp.h **** 
  59:lvgl/examples/event/../../src/core/lv_disp.h **** /**
  60:lvgl/examples/event/../../src/core/lv_disp.h ****  * Return with a pointer to the previous screen. Only used during screen transitions.
  61:lvgl/examples/event/../../src/core/lv_disp.h ****  * @param disp pointer to display which previous screen should be get. (NULL to use the default
  62:lvgl/examples/event/../../src/core/lv_disp.h ****  * screen)
  63:lvgl/examples/event/../../src/core/lv_disp.h ****  * @return pointer to the previous screen object or NULL if not used now
  64:lvgl/examples/event/../../src/core/lv_disp.h ****  */
  65:lvgl/examples/event/../../src/core/lv_disp.h **** lv_obj_t * lv_disp_get_scr_prev(lv_disp_t * disp);
  66:lvgl/examples/event/../../src/core/lv_disp.h **** 
  67:lvgl/examples/event/../../src/core/lv_disp.h **** /**
  68:lvgl/examples/event/../../src/core/lv_disp.h ****  * Make a screen active
  69:lvgl/examples/event/../../src/core/lv_disp.h ****  * @param scr pointer to a screen
  70:lvgl/examples/event/../../src/core/lv_disp.h ****  */
  71:lvgl/examples/event/../../src/core/lv_disp.h **** void lv_disp_load_scr(lv_obj_t * scr);
  72:lvgl/examples/event/../../src/core/lv_disp.h **** 
  73:lvgl/examples/event/../../src/core/lv_disp.h **** /**
  74:lvgl/examples/event/../../src/core/lv_disp.h ****  * Return with the top layer. (Same on every screen and it is above the normal screen layer)
  75:lvgl/examples/event/../../src/core/lv_disp.h ****  * @param disp pointer to display which top layer should be get. (NULL to use the default screen)
  76:lvgl/examples/event/../../src/core/lv_disp.h ****  * @return pointer to the top layer object (transparent screen sized lv_obj)
  77:lvgl/examples/event/../../src/core/lv_disp.h ****  */
  78:lvgl/examples/event/../../src/core/lv_disp.h **** lv_obj_t * lv_disp_get_layer_top(lv_disp_t * disp);
  79:lvgl/examples/event/../../src/core/lv_disp.h **** 
  80:lvgl/examples/event/../../src/core/lv_disp.h **** /**
  81:lvgl/examples/event/../../src/core/lv_disp.h ****  * Return with the sys. layer. (Same on every screen and it is above the normal screen and the top
  82:lvgl/examples/event/../../src/core/lv_disp.h ****  * layer)
  83:lvgl/examples/event/../../src/core/lv_disp.h ****  * @param disp pointer to display which sys. layer should be retrieved. (NULL to use the default sc
  84:lvgl/examples/event/../../src/core/lv_disp.h ****  * @return pointer to the sys layer object (transparent screen sized lv_obj)
  85:lvgl/examples/event/../../src/core/lv_disp.h ****  */
  86:lvgl/examples/event/../../src/core/lv_disp.h **** lv_obj_t * lv_disp_get_layer_sys(lv_disp_t * disp);
  87:lvgl/examples/event/../../src/core/lv_disp.h **** 
  88:lvgl/examples/event/../../src/core/lv_disp.h **** /**
  89:lvgl/examples/event/../../src/core/lv_disp.h ****  * Set the theme of a display
  90:lvgl/examples/event/../../src/core/lv_disp.h ****  * @param disp pointer to a display
  91:lvgl/examples/event/../../src/core/lv_disp.h ****  */
  92:lvgl/examples/event/../../src/core/lv_disp.h **** void lv_disp_set_theme(lv_disp_t * disp, lv_theme_t * th);
  93:lvgl/examples/event/../../src/core/lv_disp.h **** 
  94:lvgl/examples/event/../../src/core/lv_disp.h **** /**
  95:lvgl/examples/event/../../src/core/lv_disp.h ****  * Get the theme of a display
  96:lvgl/examples/event/../../src/core/lv_disp.h ****  * @param disp pointer to a display
  97:lvgl/examples/event/../../src/core/lv_disp.h ****  * @return the display's theme (can be NULL)
  98:lvgl/examples/event/../../src/core/lv_disp.h ****  */
  99:lvgl/examples/event/../../src/core/lv_disp.h **** lv_theme_t * lv_disp_get_theme(lv_disp_t * disp);
 100:lvgl/examples/event/../../src/core/lv_disp.h **** 
 101:lvgl/examples/event/../../src/core/lv_disp.h **** /**
 102:lvgl/examples/event/../../src/core/lv_disp.h ****  * Set the background color of a display
 103:lvgl/examples/event/../../src/core/lv_disp.h ****  * @param disp pointer to a display
 104:lvgl/examples/event/../../src/core/lv_disp.h ****  * @param color color of the background
ARM GAS  C:\Users\OSD\AppData\Local\Temp\ccSnGOQJ.s 			page 5


 105:lvgl/examples/event/../../src/core/lv_disp.h ****  */
 106:lvgl/examples/event/../../src/core/lv_disp.h **** void lv_disp_set_bg_color(lv_disp_t * disp, lv_color_t color);
 107:lvgl/examples/event/../../src/core/lv_disp.h **** 
 108:lvgl/examples/event/../../src/core/lv_disp.h **** /**
 109:lvgl/examples/event/../../src/core/lv_disp.h ****  * Set the background image of a display
 110:lvgl/examples/event/../../src/core/lv_disp.h ****  * @param disp pointer to a display
 111:lvgl/examples/event/../../src/core/lv_disp.h ****  * @param img_src path to file or pointer to an `lv_img_dsc_t` variable
 112:lvgl/examples/event/../../src/core/lv_disp.h ****  */
 113:lvgl/examples/event/../../src/core/lv_disp.h **** void lv_disp_set_bg_image(lv_disp_t * disp, const void  * img_src);
 114:lvgl/examples/event/../../src/core/lv_disp.h **** 
 115:lvgl/examples/event/../../src/core/lv_disp.h **** /**
 116:lvgl/examples/event/../../src/core/lv_disp.h ****  * Set opacity of the background
 117:lvgl/examples/event/../../src/core/lv_disp.h ****  * @param disp pointer to a display
 118:lvgl/examples/event/../../src/core/lv_disp.h ****  * @param opa opacity (0..255)
 119:lvgl/examples/event/../../src/core/lv_disp.h ****  */
 120:lvgl/examples/event/../../src/core/lv_disp.h **** void lv_disp_set_bg_opa(lv_disp_t * disp, lv_opa_t opa);
 121:lvgl/examples/event/../../src/core/lv_disp.h **** 
 122:lvgl/examples/event/../../src/core/lv_disp.h **** /**
 123:lvgl/examples/event/../../src/core/lv_disp.h ****  * Switch screen with animation
 124:lvgl/examples/event/../../src/core/lv_disp.h ****  * @param scr pointer to the new screen to load
 125:lvgl/examples/event/../../src/core/lv_disp.h ****  * @param anim_type type of the animation from `lv_scr_load_anim_t`, e.g. `LV_SCR_LOAD_ANIM_MOVE_LE
 126:lvgl/examples/event/../../src/core/lv_disp.h ****  * @param time time of the animation
 127:lvgl/examples/event/../../src/core/lv_disp.h ****  * @param delay delay before the transition
 128:lvgl/examples/event/../../src/core/lv_disp.h ****  * @param auto_del true: automatically delete the old screen
 129:lvgl/examples/event/../../src/core/lv_disp.h ****  */
 130:lvgl/examples/event/../../src/core/lv_disp.h **** void lv_scr_load_anim(lv_obj_t * scr, lv_scr_load_anim_t anim_type, uint32_t time, uint32_t delay, 
 131:lvgl/examples/event/../../src/core/lv_disp.h **** 
 132:lvgl/examples/event/../../src/core/lv_disp.h **** /**
 133:lvgl/examples/event/../../src/core/lv_disp.h ****  * Get elapsed time since last user activity on a display (e.g. click)
 134:lvgl/examples/event/../../src/core/lv_disp.h ****  * @param disp pointer to a display (NULL to get the overall smallest inactivity)
 135:lvgl/examples/event/../../src/core/lv_disp.h ****  * @return elapsed ticks (milliseconds) since the last activity
 136:lvgl/examples/event/../../src/core/lv_disp.h ****  */
 137:lvgl/examples/event/../../src/core/lv_disp.h **** uint32_t lv_disp_get_inactive_time(const lv_disp_t * disp);
 138:lvgl/examples/event/../../src/core/lv_disp.h **** 
 139:lvgl/examples/event/../../src/core/lv_disp.h **** /**
 140:lvgl/examples/event/../../src/core/lv_disp.h ****  * Manually trigger an activity on a display
 141:lvgl/examples/event/../../src/core/lv_disp.h ****  * @param disp pointer to a display (NULL to use the default display)
 142:lvgl/examples/event/../../src/core/lv_disp.h ****  */
 143:lvgl/examples/event/../../src/core/lv_disp.h **** void lv_disp_trig_activity(lv_disp_t * disp);
 144:lvgl/examples/event/../../src/core/lv_disp.h **** 
 145:lvgl/examples/event/../../src/core/lv_disp.h **** /**
 146:lvgl/examples/event/../../src/core/lv_disp.h ****  * Clean any CPU cache that is related to the display.
 147:lvgl/examples/event/../../src/core/lv_disp.h ****  * @param disp pointer to a display (NULL to use the default display)
 148:lvgl/examples/event/../../src/core/lv_disp.h ****  */
 149:lvgl/examples/event/../../src/core/lv_disp.h **** void lv_disp_clean_dcache(lv_disp_t * disp);
 150:lvgl/examples/event/../../src/core/lv_disp.h **** 
 151:lvgl/examples/event/../../src/core/lv_disp.h **** /**
 152:lvgl/examples/event/../../src/core/lv_disp.h ****  * Temporarily enable and disable the invalidation of the display.
 153:lvgl/examples/event/../../src/core/lv_disp.h ****  * @param disp pointer to a display (NULL to use the default display)
 154:lvgl/examples/event/../../src/core/lv_disp.h ****  * @param en true: enable invalidation; false: invalidation
 155:lvgl/examples/event/../../src/core/lv_disp.h ****  */
 156:lvgl/examples/event/../../src/core/lv_disp.h **** void lv_disp_enable_invalidation(lv_disp_t * disp, bool en);
 157:lvgl/examples/event/../../src/core/lv_disp.h **** 
 158:lvgl/examples/event/../../src/core/lv_disp.h **** /**
 159:lvgl/examples/event/../../src/core/lv_disp.h ****  * Get display invalidation is enabled.
 160:lvgl/examples/event/../../src/core/lv_disp.h ****  * @param disp pointer to a display (NULL to use the default display)
 161:lvgl/examples/event/../../src/core/lv_disp.h ****  * @return return true if invalidation is enabled
ARM GAS  C:\Users\OSD\AppData\Local\Temp\ccSnGOQJ.s 			page 6


 162:lvgl/examples/event/../../src/core/lv_disp.h ****  */
 163:lvgl/examples/event/../../src/core/lv_disp.h **** bool lv_disp_is_invalidation_enabled(lv_disp_t * disp);
 164:lvgl/examples/event/../../src/core/lv_disp.h **** 
 165:lvgl/examples/event/../../src/core/lv_disp.h **** /**
 166:lvgl/examples/event/../../src/core/lv_disp.h ****  * Get a pointer to the screen refresher timer to
 167:lvgl/examples/event/../../src/core/lv_disp.h ****  * modify its parameters with `lv_timer_...` functions.
 168:lvgl/examples/event/../../src/core/lv_disp.h ****  * @param disp pointer to a display
 169:lvgl/examples/event/../../src/core/lv_disp.h ****  * @return pointer to the display refresher timer. (NULL on error)
 170:lvgl/examples/event/../../src/core/lv_disp.h ****  */
 171:lvgl/examples/event/../../src/core/lv_disp.h **** lv_timer_t * _lv_disp_get_refr_timer(lv_disp_t * disp);
 172:lvgl/examples/event/../../src/core/lv_disp.h **** 
 173:lvgl/examples/event/../../src/core/lv_disp.h **** /*------------------------------------------------
 174:lvgl/examples/event/../../src/core/lv_disp.h ****  * To improve backward compatibility
 175:lvgl/examples/event/../../src/core/lv_disp.h ****  * Recommended only if you have one display
 176:lvgl/examples/event/../../src/core/lv_disp.h ****  *------------------------------------------------*/
 177:lvgl/examples/event/../../src/core/lv_disp.h **** 
 178:lvgl/examples/event/../../src/core/lv_disp.h **** /**
 179:lvgl/examples/event/../../src/core/lv_disp.h ****  * Get the active screen of the default display
 180:lvgl/examples/event/../../src/core/lv_disp.h ****  * @return pointer to the active screen
 181:lvgl/examples/event/../../src/core/lv_disp.h ****  */
 182:lvgl/examples/event/../../src/core/lv_disp.h **** static inline lv_obj_t * lv_scr_act(void)
 103              		.loc 2 182 26 view .LVU16
 104              	.LBB15:
 183:lvgl/examples/event/../../src/core/lv_disp.h **** {
 184:lvgl/examples/event/../../src/core/lv_disp.h ****     return lv_disp_get_scr_act(lv_disp_get_default());
 105              		.loc 2 184 5 view .LVU17
 106              		.loc 2 184 12 is_stmt 0 view .LVU18
 107 0002 FFF7FEFF 		bl	lv_disp_get_default
 108              	.LVL8:
 109 0006 FFF7FEFF 		bl	lv_disp_get_scr_act
 110              	.LVL9:
 111              	.LBE15:
 112              	.LBE14:
 113              		.loc 1 25 23 view .LVU19
 114 000a FFF7FEFF 		bl	lv_obj_create
 115              	.LVL10:
 116 000e 0646     		mov	r6, r0
 117              	.LVL11:
  26:lvgl/examples/event/lv_example_event_3.c ****     lv_obj_set_size(cont, 290, 200);
 118              		.loc 1 26 5 is_stmt 1 view .LVU20
 119 0010 C822     		movs	r2, #200
 120 0012 4FF49171 		mov	r1, #290
 121 0016 FFF7FEFF 		bl	lv_obj_set_size
 122              	.LVL12:
  27:lvgl/examples/event/lv_example_event_3.c ****     lv_obj_center(cont);
 123              		.loc 1 27 5 view .LVU21
 124              	.LBB16:
 125              	.LBI16:
 126              		.file 3 "d:\\kzc\\stm32\\h743ii_lcd\\lvgl\\src\\core\\lv_obj_pos.h"
   1:d:\kzc\stm32\h743ii_lcd\lvgl\src\core\lv_obj_pos.h **** /**
   2:d:\kzc\stm32\h743ii_lcd\lvgl\src\core\lv_obj_pos.h ****  * @file lv_obj_pos.h
   3:d:\kzc\stm32\h743ii_lcd\lvgl\src\core\lv_obj_pos.h ****  *
   4:d:\kzc\stm32\h743ii_lcd\lvgl\src\core\lv_obj_pos.h ****  */
   5:d:\kzc\stm32\h743ii_lcd\lvgl\src\core\lv_obj_pos.h **** 
   6:d:\kzc\stm32\h743ii_lcd\lvgl\src\core\lv_obj_pos.h **** #ifndef LV_OBJ_POS_H
   7:d:\kzc\stm32\h743ii_lcd\lvgl\src\core\lv_obj_pos.h **** #define LV_OBJ_POS_H
   8:d:\kzc\stm32\h743ii_lcd\lvgl\src\core\lv_obj_pos.h **** 
ARM GAS  C:\Users\OSD\AppData\Local\Temp\ccSnGOQJ.s 			page 7


   9:d:\kzc\stm32\h743ii_lcd\lvgl\src\core\lv_obj_pos.h **** #ifdef __cplusplus
  10:d:\kzc\stm32\h743ii_lcd\lvgl\src\core\lv_obj_pos.h **** extern "C" {
  11:d:\kzc\stm32\h743ii_lcd\lvgl\src\core\lv_obj_pos.h **** #endif
  12:d:\kzc\stm32\h743ii_lcd\lvgl\src\core\lv_obj_pos.h **** 
  13:d:\kzc\stm32\h743ii_lcd\lvgl\src\core\lv_obj_pos.h **** /*********************
  14:d:\kzc\stm32\h743ii_lcd\lvgl\src\core\lv_obj_pos.h ****  *      INCLUDES
  15:d:\kzc\stm32\h743ii_lcd\lvgl\src\core\lv_obj_pos.h ****  *********************/
  16:d:\kzc\stm32\h743ii_lcd\lvgl\src\core\lv_obj_pos.h **** #include "../misc/lv_area.h"
  17:d:\kzc\stm32\h743ii_lcd\lvgl\src\core\lv_obj_pos.h **** 
  18:d:\kzc\stm32\h743ii_lcd\lvgl\src\core\lv_obj_pos.h **** /*********************
  19:d:\kzc\stm32\h743ii_lcd\lvgl\src\core\lv_obj_pos.h ****  *      DEFINES
  20:d:\kzc\stm32\h743ii_lcd\lvgl\src\core\lv_obj_pos.h ****  *********************/
  21:d:\kzc\stm32\h743ii_lcd\lvgl\src\core\lv_obj_pos.h **** 
  22:d:\kzc\stm32\h743ii_lcd\lvgl\src\core\lv_obj_pos.h **** /**********************
  23:d:\kzc\stm32\h743ii_lcd\lvgl\src\core\lv_obj_pos.h ****  *      TYPEDEFS
  24:d:\kzc\stm32\h743ii_lcd\lvgl\src\core\lv_obj_pos.h ****  **********************/
  25:d:\kzc\stm32\h743ii_lcd\lvgl\src\core\lv_obj_pos.h **** struct _lv_obj_t;
  26:d:\kzc\stm32\h743ii_lcd\lvgl\src\core\lv_obj_pos.h **** 
  27:d:\kzc\stm32\h743ii_lcd\lvgl\src\core\lv_obj_pos.h **** typedef void (*lv_layout_update_cb_t)(struct _lv_obj_t *, void * user_data);
  28:d:\kzc\stm32\h743ii_lcd\lvgl\src\core\lv_obj_pos.h **** typedef struct {
  29:d:\kzc\stm32\h743ii_lcd\lvgl\src\core\lv_obj_pos.h ****     lv_layout_update_cb_t cb;
  30:d:\kzc\stm32\h743ii_lcd\lvgl\src\core\lv_obj_pos.h ****     void * user_data;
  31:d:\kzc\stm32\h743ii_lcd\lvgl\src\core\lv_obj_pos.h **** } lv_layout_dsc_t;
  32:d:\kzc\stm32\h743ii_lcd\lvgl\src\core\lv_obj_pos.h **** 
  33:d:\kzc\stm32\h743ii_lcd\lvgl\src\core\lv_obj_pos.h **** /**********************
  34:d:\kzc\stm32\h743ii_lcd\lvgl\src\core\lv_obj_pos.h ****  * GLOBAL PROTOTYPES
  35:d:\kzc\stm32\h743ii_lcd\lvgl\src\core\lv_obj_pos.h ****  **********************/
  36:d:\kzc\stm32\h743ii_lcd\lvgl\src\core\lv_obj_pos.h **** 
  37:d:\kzc\stm32\h743ii_lcd\lvgl\src\core\lv_obj_pos.h **** /**
  38:d:\kzc\stm32\h743ii_lcd\lvgl\src\core\lv_obj_pos.h ****  * Set the position of an object relative to the set alignment.
  39:d:\kzc\stm32\h743ii_lcd\lvgl\src\core\lv_obj_pos.h ****  * @param obj       pointer to an object
  40:d:\kzc\stm32\h743ii_lcd\lvgl\src\core\lv_obj_pos.h ****  * @param x         new x coordinate
  41:d:\kzc\stm32\h743ii_lcd\lvgl\src\core\lv_obj_pos.h ****  * @param y         new y coordinate
  42:d:\kzc\stm32\h743ii_lcd\lvgl\src\core\lv_obj_pos.h ****  * @note            With default alignment it's the distance from the top left corner
  43:d:\kzc\stm32\h743ii_lcd\lvgl\src\core\lv_obj_pos.h ****  * @note            E.g. LV_ALIGN_CENTER alignment it's the offset from the center of the parent
  44:d:\kzc\stm32\h743ii_lcd\lvgl\src\core\lv_obj_pos.h ****  * @note            The position is interpreted on the content area of the parent
  45:d:\kzc\stm32\h743ii_lcd\lvgl\src\core\lv_obj_pos.h ****  * @note            The values can be set in pixel or in percentage of parent size with `lv_pct(v)`
  46:d:\kzc\stm32\h743ii_lcd\lvgl\src\core\lv_obj_pos.h ****  */
  47:d:\kzc\stm32\h743ii_lcd\lvgl\src\core\lv_obj_pos.h **** void lv_obj_set_pos(struct _lv_obj_t * obj, lv_coord_t x, lv_coord_t y);
  48:d:\kzc\stm32\h743ii_lcd\lvgl\src\core\lv_obj_pos.h **** 
  49:d:\kzc\stm32\h743ii_lcd\lvgl\src\core\lv_obj_pos.h **** /**
  50:d:\kzc\stm32\h743ii_lcd\lvgl\src\core\lv_obj_pos.h ****  * Set the x coordinate of an object
  51:d:\kzc\stm32\h743ii_lcd\lvgl\src\core\lv_obj_pos.h ****  * @param obj       pointer to an object
  52:d:\kzc\stm32\h743ii_lcd\lvgl\src\core\lv_obj_pos.h ****  * @param x         new x coordinate
  53:d:\kzc\stm32\h743ii_lcd\lvgl\src\core\lv_obj_pos.h ****  * @note            With default alignment it's the distance from the top left corner
  54:d:\kzc\stm32\h743ii_lcd\lvgl\src\core\lv_obj_pos.h ****  * @note            E.g. LV_ALIGN_CENTER alignment it's the offset from the center of the parent
  55:d:\kzc\stm32\h743ii_lcd\lvgl\src\core\lv_obj_pos.h ****  * @note            The position is interpreted on the content area of the parent
  56:d:\kzc\stm32\h743ii_lcd\lvgl\src\core\lv_obj_pos.h ****  * @note            The values can be set in pixel or in percentage of parent size with `lv_pct(v)`
  57:d:\kzc\stm32\h743ii_lcd\lvgl\src\core\lv_obj_pos.h ****  */
  58:d:\kzc\stm32\h743ii_lcd\lvgl\src\core\lv_obj_pos.h **** void lv_obj_set_x(struct _lv_obj_t * obj, lv_coord_t x);
  59:d:\kzc\stm32\h743ii_lcd\lvgl\src\core\lv_obj_pos.h **** 
  60:d:\kzc\stm32\h743ii_lcd\lvgl\src\core\lv_obj_pos.h **** /**
  61:d:\kzc\stm32\h743ii_lcd\lvgl\src\core\lv_obj_pos.h ****  * Set the y coordinate of an object
  62:d:\kzc\stm32\h743ii_lcd\lvgl\src\core\lv_obj_pos.h ****  * @param obj       pointer to an object
  63:d:\kzc\stm32\h743ii_lcd\lvgl\src\core\lv_obj_pos.h ****  * @param y         new y coordinate
  64:d:\kzc\stm32\h743ii_lcd\lvgl\src\core\lv_obj_pos.h ****  * @note            With default alignment it's the distance from the top left corner
  65:d:\kzc\stm32\h743ii_lcd\lvgl\src\core\lv_obj_pos.h ****  * @note            E.g. LV_ALIGN_CENTER alignment it's the offset from the center of the parent
ARM GAS  C:\Users\OSD\AppData\Local\Temp\ccSnGOQJ.s 			page 8


  66:d:\kzc\stm32\h743ii_lcd\lvgl\src\core\lv_obj_pos.h ****  * @note            The position is interpreted on the content area of the parent
  67:d:\kzc\stm32\h743ii_lcd\lvgl\src\core\lv_obj_pos.h ****  * @note            The values can be set in pixel or in percentage of parent size with `lv_pct(v)`
  68:d:\kzc\stm32\h743ii_lcd\lvgl\src\core\lv_obj_pos.h ****  */
  69:d:\kzc\stm32\h743ii_lcd\lvgl\src\core\lv_obj_pos.h **** void lv_obj_set_y(struct _lv_obj_t * obj, lv_coord_t y);
  70:d:\kzc\stm32\h743ii_lcd\lvgl\src\core\lv_obj_pos.h **** 
  71:d:\kzc\stm32\h743ii_lcd\lvgl\src\core\lv_obj_pos.h **** /**
  72:d:\kzc\stm32\h743ii_lcd\lvgl\src\core\lv_obj_pos.h ****  * Set the size of an object.
  73:d:\kzc\stm32\h743ii_lcd\lvgl\src\core\lv_obj_pos.h ****  * @param obj       pointer to an object
  74:d:\kzc\stm32\h743ii_lcd\lvgl\src\core\lv_obj_pos.h ****  * @param w         the new width
  75:d:\kzc\stm32\h743ii_lcd\lvgl\src\core\lv_obj_pos.h ****  * @param h         the new height
  76:d:\kzc\stm32\h743ii_lcd\lvgl\src\core\lv_obj_pos.h ****  * @note            possible values are:
  77:d:\kzc\stm32\h743ii_lcd\lvgl\src\core\lv_obj_pos.h ****  *                  pixel               simple set the size accordingly
  78:d:\kzc\stm32\h743ii_lcd\lvgl\src\core\lv_obj_pos.h ****  *                  LV_SIZE_CONTENT     set the size to involve all children in the given direction
  79:d:\kzc\stm32\h743ii_lcd\lvgl\src\core\lv_obj_pos.h ****  *                  LV_SIZE_PCT(x)     to set size in percentage of the parent's content area size 
  80:d:\kzc\stm32\h743ii_lcd\lvgl\src\core\lv_obj_pos.h ****  *                                      x should be in [0..1000]% range
  81:d:\kzc\stm32\h743ii_lcd\lvgl\src\core\lv_obj_pos.h ****  */
  82:d:\kzc\stm32\h743ii_lcd\lvgl\src\core\lv_obj_pos.h **** void lv_obj_set_size(struct _lv_obj_t * obj, lv_coord_t w, lv_coord_t h);
  83:d:\kzc\stm32\h743ii_lcd\lvgl\src\core\lv_obj_pos.h **** 
  84:d:\kzc\stm32\h743ii_lcd\lvgl\src\core\lv_obj_pos.h **** /**
  85:d:\kzc\stm32\h743ii_lcd\lvgl\src\core\lv_obj_pos.h ****  * Recalculate the size of the object
  86:d:\kzc\stm32\h743ii_lcd\lvgl\src\core\lv_obj_pos.h ****  * @param obj       pointer to an object
  87:d:\kzc\stm32\h743ii_lcd\lvgl\src\core\lv_obj_pos.h ****  * @return          true: the size has been changed
  88:d:\kzc\stm32\h743ii_lcd\lvgl\src\core\lv_obj_pos.h ****  */
  89:d:\kzc\stm32\h743ii_lcd\lvgl\src\core\lv_obj_pos.h **** bool lv_obj_refr_size(struct _lv_obj_t * obj);
  90:d:\kzc\stm32\h743ii_lcd\lvgl\src\core\lv_obj_pos.h **** 
  91:d:\kzc\stm32\h743ii_lcd\lvgl\src\core\lv_obj_pos.h **** /**
  92:d:\kzc\stm32\h743ii_lcd\lvgl\src\core\lv_obj_pos.h ****  * Set the width of an object
  93:d:\kzc\stm32\h743ii_lcd\lvgl\src\core\lv_obj_pos.h ****  * @param obj       pointer to an object
  94:d:\kzc\stm32\h743ii_lcd\lvgl\src\core\lv_obj_pos.h ****  * @param w         the new width
  95:d:\kzc\stm32\h743ii_lcd\lvgl\src\core\lv_obj_pos.h ****  * @note            possible values are:
  96:d:\kzc\stm32\h743ii_lcd\lvgl\src\core\lv_obj_pos.h ****  *                  pixel               simple set the size accordingly
  97:d:\kzc\stm32\h743ii_lcd\lvgl\src\core\lv_obj_pos.h ****  *                  LV_SIZE_CONTENT     set the size to involve all children in the given direction
  98:d:\kzc\stm32\h743ii_lcd\lvgl\src\core\lv_obj_pos.h ****  *                  lv_pct(x)           to set size in percentage of the parent's content area size
  99:d:\kzc\stm32\h743ii_lcd\lvgl\src\core\lv_obj_pos.h ****  *                                      x should be in [0..1000]% range
 100:d:\kzc\stm32\h743ii_lcd\lvgl\src\core\lv_obj_pos.h ****  */
 101:d:\kzc\stm32\h743ii_lcd\lvgl\src\core\lv_obj_pos.h **** void lv_obj_set_width(struct _lv_obj_t * obj, lv_coord_t w);
 102:d:\kzc\stm32\h743ii_lcd\lvgl\src\core\lv_obj_pos.h **** 
 103:d:\kzc\stm32\h743ii_lcd\lvgl\src\core\lv_obj_pos.h **** /**
 104:d:\kzc\stm32\h743ii_lcd\lvgl\src\core\lv_obj_pos.h ****  * Set the height of an object
 105:d:\kzc\stm32\h743ii_lcd\lvgl\src\core\lv_obj_pos.h ****  * @param obj       pointer to an object
 106:d:\kzc\stm32\h743ii_lcd\lvgl\src\core\lv_obj_pos.h ****  * @param h         the new height
 107:d:\kzc\stm32\h743ii_lcd\lvgl\src\core\lv_obj_pos.h ****  * @note            possible values are:
 108:d:\kzc\stm32\h743ii_lcd\lvgl\src\core\lv_obj_pos.h ****  *                  pixel               simple set the size accordingly
 109:d:\kzc\stm32\h743ii_lcd\lvgl\src\core\lv_obj_pos.h ****  *                  LV_SIZE_CONTENT     set the size to involve all children in the given direction
 110:d:\kzc\stm32\h743ii_lcd\lvgl\src\core\lv_obj_pos.h ****  *                  lv_pct(x)           to set size in percentage of the parent's content area size
 111:d:\kzc\stm32\h743ii_lcd\lvgl\src\core\lv_obj_pos.h ****  *                                      x should be in [0..1000]% range
 112:d:\kzc\stm32\h743ii_lcd\lvgl\src\core\lv_obj_pos.h ****  */
 113:d:\kzc\stm32\h743ii_lcd\lvgl\src\core\lv_obj_pos.h **** void lv_obj_set_height(struct _lv_obj_t * obj, lv_coord_t h);
 114:d:\kzc\stm32\h743ii_lcd\lvgl\src\core\lv_obj_pos.h **** 
 115:d:\kzc\stm32\h743ii_lcd\lvgl\src\core\lv_obj_pos.h **** /**
 116:d:\kzc\stm32\h743ii_lcd\lvgl\src\core\lv_obj_pos.h ****  * Set the width reduced by the left and right padding and the border width.
 117:d:\kzc\stm32\h743ii_lcd\lvgl\src\core\lv_obj_pos.h ****  * @param obj       pointer to an object
 118:d:\kzc\stm32\h743ii_lcd\lvgl\src\core\lv_obj_pos.h ****  * @param w         the width without paddings in pixels
 119:d:\kzc\stm32\h743ii_lcd\lvgl\src\core\lv_obj_pos.h ****  */
 120:d:\kzc\stm32\h743ii_lcd\lvgl\src\core\lv_obj_pos.h **** void lv_obj_set_content_width(struct _lv_obj_t * obj, lv_coord_t w);
 121:d:\kzc\stm32\h743ii_lcd\lvgl\src\core\lv_obj_pos.h **** 
 122:d:\kzc\stm32\h743ii_lcd\lvgl\src\core\lv_obj_pos.h **** /**
ARM GAS  C:\Users\OSD\AppData\Local\Temp\ccSnGOQJ.s 			page 9


 123:d:\kzc\stm32\h743ii_lcd\lvgl\src\core\lv_obj_pos.h ****  * Set the height reduced by the top and bottom padding and the border width.
 124:d:\kzc\stm32\h743ii_lcd\lvgl\src\core\lv_obj_pos.h ****  * @param obj       pointer to an object
 125:d:\kzc\stm32\h743ii_lcd\lvgl\src\core\lv_obj_pos.h ****  * @param h         the height without paddings in pixels
 126:d:\kzc\stm32\h743ii_lcd\lvgl\src\core\lv_obj_pos.h ****  */
 127:d:\kzc\stm32\h743ii_lcd\lvgl\src\core\lv_obj_pos.h **** void lv_obj_set_content_height(struct _lv_obj_t * obj, lv_coord_t h);
 128:d:\kzc\stm32\h743ii_lcd\lvgl\src\core\lv_obj_pos.h **** 
 129:d:\kzc\stm32\h743ii_lcd\lvgl\src\core\lv_obj_pos.h **** /**
 130:d:\kzc\stm32\h743ii_lcd\lvgl\src\core\lv_obj_pos.h ****  * Set a layout for an object
 131:d:\kzc\stm32\h743ii_lcd\lvgl\src\core\lv_obj_pos.h ****  * @param obj       pointer to an object
 132:d:\kzc\stm32\h743ii_lcd\lvgl\src\core\lv_obj_pos.h ****  * @param layout    pointer to a layout descriptor to set
 133:d:\kzc\stm32\h743ii_lcd\lvgl\src\core\lv_obj_pos.h ****  */
 134:d:\kzc\stm32\h743ii_lcd\lvgl\src\core\lv_obj_pos.h **** void lv_obj_set_layout(struct _lv_obj_t * obj, uint32_t layout);
 135:d:\kzc\stm32\h743ii_lcd\lvgl\src\core\lv_obj_pos.h **** 
 136:d:\kzc\stm32\h743ii_lcd\lvgl\src\core\lv_obj_pos.h **** /**
 137:d:\kzc\stm32\h743ii_lcd\lvgl\src\core\lv_obj_pos.h ****  * Test whether the and object is positioned by a layout or not
 138:d:\kzc\stm32\h743ii_lcd\lvgl\src\core\lv_obj_pos.h ****  * @param obj       pointer to an object to test
 139:d:\kzc\stm32\h743ii_lcd\lvgl\src\core\lv_obj_pos.h ****  * @return true:    positioned by a layout; false: not positioned by a layout
 140:d:\kzc\stm32\h743ii_lcd\lvgl\src\core\lv_obj_pos.h ****  */
 141:d:\kzc\stm32\h743ii_lcd\lvgl\src\core\lv_obj_pos.h **** bool lv_obj_is_layout_positioned(const struct _lv_obj_t * obj);
 142:d:\kzc\stm32\h743ii_lcd\lvgl\src\core\lv_obj_pos.h **** 
 143:d:\kzc\stm32\h743ii_lcd\lvgl\src\core\lv_obj_pos.h **** /**
 144:d:\kzc\stm32\h743ii_lcd\lvgl\src\core\lv_obj_pos.h ****  * Mark the object for layout update.
 145:d:\kzc\stm32\h743ii_lcd\lvgl\src\core\lv_obj_pos.h ****  * @param obj      pointer to an object whose children needs to be updated
 146:d:\kzc\stm32\h743ii_lcd\lvgl\src\core\lv_obj_pos.h ****  */
 147:d:\kzc\stm32\h743ii_lcd\lvgl\src\core\lv_obj_pos.h **** void lv_obj_mark_layout_as_dirty(struct _lv_obj_t * obj);
 148:d:\kzc\stm32\h743ii_lcd\lvgl\src\core\lv_obj_pos.h **** 
 149:d:\kzc\stm32\h743ii_lcd\lvgl\src\core\lv_obj_pos.h **** /**
 150:d:\kzc\stm32\h743ii_lcd\lvgl\src\core\lv_obj_pos.h ****  * Update the layout of an object.
 151:d:\kzc\stm32\h743ii_lcd\lvgl\src\core\lv_obj_pos.h ****  * @param obj      pointer to an object whose children needs to be updated
 152:d:\kzc\stm32\h743ii_lcd\lvgl\src\core\lv_obj_pos.h ****  */
 153:d:\kzc\stm32\h743ii_lcd\lvgl\src\core\lv_obj_pos.h **** void lv_obj_update_layout(const struct _lv_obj_t * obj);
 154:d:\kzc\stm32\h743ii_lcd\lvgl\src\core\lv_obj_pos.h **** 
 155:d:\kzc\stm32\h743ii_lcd\lvgl\src\core\lv_obj_pos.h **** /**
 156:d:\kzc\stm32\h743ii_lcd\lvgl\src\core\lv_obj_pos.h ****  * Register a new layout
 157:d:\kzc\stm32\h743ii_lcd\lvgl\src\core\lv_obj_pos.h ****  * @param cb        the layout update callback
 158:d:\kzc\stm32\h743ii_lcd\lvgl\src\core\lv_obj_pos.h ****  * @param user_data custom data that will be passed to `cb`
 159:d:\kzc\stm32\h743ii_lcd\lvgl\src\core\lv_obj_pos.h ****  * @return          the ID of the new layout
 160:d:\kzc\stm32\h743ii_lcd\lvgl\src\core\lv_obj_pos.h ****  */
 161:d:\kzc\stm32\h743ii_lcd\lvgl\src\core\lv_obj_pos.h **** uint32_t lv_layout_register(lv_layout_update_cb_t cb, void * user_data);
 162:d:\kzc\stm32\h743ii_lcd\lvgl\src\core\lv_obj_pos.h **** 
 163:d:\kzc\stm32\h743ii_lcd\lvgl\src\core\lv_obj_pos.h **** /**
 164:d:\kzc\stm32\h743ii_lcd\lvgl\src\core\lv_obj_pos.h ****  * Change the alignment of an object.
 165:d:\kzc\stm32\h743ii_lcd\lvgl\src\core\lv_obj_pos.h ****  * @param obj       pointer to an object to align
 166:d:\kzc\stm32\h743ii_lcd\lvgl\src\core\lv_obj_pos.h ****  * @param align     type of alignment (see 'lv_align_t' enum) `LV_ALIGN_OUT_...` can't be used.
 167:d:\kzc\stm32\h743ii_lcd\lvgl\src\core\lv_obj_pos.h ****  */
 168:d:\kzc\stm32\h743ii_lcd\lvgl\src\core\lv_obj_pos.h **** void lv_obj_set_align(struct _lv_obj_t * obj, lv_align_t align);
 169:d:\kzc\stm32\h743ii_lcd\lvgl\src\core\lv_obj_pos.h **** 
 170:d:\kzc\stm32\h743ii_lcd\lvgl\src\core\lv_obj_pos.h **** /**
 171:d:\kzc\stm32\h743ii_lcd\lvgl\src\core\lv_obj_pos.h ****  * Change the alignment of an object and set new coordinates.
 172:d:\kzc\stm32\h743ii_lcd\lvgl\src\core\lv_obj_pos.h ****  * Equivalent to:
 173:d:\kzc\stm32\h743ii_lcd\lvgl\src\core\lv_obj_pos.h ****  * lv_obj_set_align(obj, align);
 174:d:\kzc\stm32\h743ii_lcd\lvgl\src\core\lv_obj_pos.h ****  * lv_obj_set_pos(obj, x_ofs, y_ofs);
 175:d:\kzc\stm32\h743ii_lcd\lvgl\src\core\lv_obj_pos.h ****  * @param obj       pointer to an object to align
 176:d:\kzc\stm32\h743ii_lcd\lvgl\src\core\lv_obj_pos.h ****  * @param align     type of alignment (see 'lv_align_t' enum) `LV_ALIGN_OUT_...` can't be used.
 177:d:\kzc\stm32\h743ii_lcd\lvgl\src\core\lv_obj_pos.h ****  * @param x_ofs     x coordinate offset after alignment
 178:d:\kzc\stm32\h743ii_lcd\lvgl\src\core\lv_obj_pos.h ****  * @param y_ofs     y coordinate offset after alignment
 179:d:\kzc\stm32\h743ii_lcd\lvgl\src\core\lv_obj_pos.h ****  */
ARM GAS  C:\Users\OSD\AppData\Local\Temp\ccSnGOQJ.s 			page 10


 180:d:\kzc\stm32\h743ii_lcd\lvgl\src\core\lv_obj_pos.h **** void lv_obj_align(struct _lv_obj_t * obj, lv_align_t align, lv_coord_t x_ofs, lv_coord_t y_ofs);
 181:d:\kzc\stm32\h743ii_lcd\lvgl\src\core\lv_obj_pos.h **** 
 182:d:\kzc\stm32\h743ii_lcd\lvgl\src\core\lv_obj_pos.h **** /**
 183:d:\kzc\stm32\h743ii_lcd\lvgl\src\core\lv_obj_pos.h ****  * Align an object to an other object.
 184:d:\kzc\stm32\h743ii_lcd\lvgl\src\core\lv_obj_pos.h ****  * @param obj       pointer to an object to align
 185:d:\kzc\stm32\h743ii_lcd\lvgl\src\core\lv_obj_pos.h ****  * @param base      pointer to an other object (if NULL `obj`s parent is used). 'obj' will be align
 186:d:\kzc\stm32\h743ii_lcd\lvgl\src\core\lv_obj_pos.h ****  * @param align     type of alignment (see 'lv_align_t' enum)
 187:d:\kzc\stm32\h743ii_lcd\lvgl\src\core\lv_obj_pos.h ****  * @param x_ofs     x coordinate offset after alignment
 188:d:\kzc\stm32\h743ii_lcd\lvgl\src\core\lv_obj_pos.h ****  * @param y_ofs     y coordinate offset after alignment
 189:d:\kzc\stm32\h743ii_lcd\lvgl\src\core\lv_obj_pos.h ****  * @note            if the position or size of `base` changes `obj` needs to be aligned manually ag
 190:d:\kzc\stm32\h743ii_lcd\lvgl\src\core\lv_obj_pos.h ****  */
 191:d:\kzc\stm32\h743ii_lcd\lvgl\src\core\lv_obj_pos.h **** void lv_obj_align_to(struct _lv_obj_t * obj, const struct _lv_obj_t * base, lv_align_t align, lv_co
 192:d:\kzc\stm32\h743ii_lcd\lvgl\src\core\lv_obj_pos.h ****                      lv_coord_t y_ofs);
 193:d:\kzc\stm32\h743ii_lcd\lvgl\src\core\lv_obj_pos.h **** 
 194:d:\kzc\stm32\h743ii_lcd\lvgl\src\core\lv_obj_pos.h **** /**
 195:d:\kzc\stm32\h743ii_lcd\lvgl\src\core\lv_obj_pos.h ****  * Align an object to the center on its parent.
 196:d:\kzc\stm32\h743ii_lcd\lvgl\src\core\lv_obj_pos.h ****  * @param obj       pointer to an object to align
 197:d:\kzc\stm32\h743ii_lcd\lvgl\src\core\lv_obj_pos.h ****  * @note            if the parent size changes `obj` needs to be aligned manually again
 198:d:\kzc\stm32\h743ii_lcd\lvgl\src\core\lv_obj_pos.h ****  */
 199:d:\kzc\stm32\h743ii_lcd\lvgl\src\core\lv_obj_pos.h **** static inline void lv_obj_center(struct _lv_obj_t * obj)
 127              		.loc 3 199 20 view .LVU22
 128              	.LBB17:
 200:d:\kzc\stm32\h743ii_lcd\lvgl\src\core\lv_obj_pos.h **** {
 201:d:\kzc\stm32\h743ii_lcd\lvgl\src\core\lv_obj_pos.h ****     lv_obj_align(obj, LV_ALIGN_CENTER, 0, 0);
 129              		.loc 3 201 5 view .LVU23
 130 001a 0023     		movs	r3, #0
 131 001c 1A46     		mov	r2, r3
 132 001e 0921     		movs	r1, #9
 133 0020 3046     		mov	r0, r6
 134 0022 FFF7FEFF 		bl	lv_obj_align
 135              	.LVL13:
 136              		.loc 3 201 5 is_stmt 0 view .LVU24
 137              	.LBE17:
 138              	.LBE16:
  28:lvgl/examples/event/lv_example_event_3.c ****     lv_obj_set_flex_flow(cont, LV_FLEX_FLOW_ROW_WRAP);
 139              		.loc 1 28 5 is_stmt 1 view .LVU25
 140 0026 0421     		movs	r1, #4
 141 0028 3046     		mov	r0, r6
 142 002a FFF7FEFF 		bl	lv_obj_set_flex_flow
 143              	.LVL14:
  29:lvgl/examples/event/lv_example_event_3.c **** 
  30:lvgl/examples/event/lv_example_event_3.c ****     uint32_t i;
 144              		.loc 1 30 5 view .LVU26
  31:lvgl/examples/event/lv_example_event_3.c ****     for(i = 0; i < 30; i++) {
 145              		.loc 1 31 5 view .LVU27
 146              		.loc 1 31 11 is_stmt 0 view .LVU28
 147 002e 0025     		movs	r5, #0
 148              		.loc 1 31 5 view .LVU29
 149 0030 1BE0     		b	.L5
 150              	.LVL15:
 151              	.L6:
 152              	.LBB18:
  32:lvgl/examples/event/lv_example_event_3.c ****         lv_obj_t * btn = lv_btn_create(cont);
 153              		.loc 1 32 9 is_stmt 1 discriminator 3 view .LVU30
 154              		.loc 1 32 26 is_stmt 0 discriminator 3 view .LVU31
 155 0032 3046     		mov	r0, r6
 156 0034 FFF7FEFF 		bl	lv_btn_create
ARM GAS  C:\Users\OSD\AppData\Local\Temp\ccSnGOQJ.s 			page 11


 157              	.LVL16:
 158 0038 0446     		mov	r4, r0
 159              	.LVL17:
  33:lvgl/examples/event/lv_example_event_3.c ****         lv_obj_set_size(btn, 80, 50);
 160              		.loc 1 33 9 is_stmt 1 discriminator 3 view .LVU32
 161 003a 3222     		movs	r2, #50
 162 003c 5021     		movs	r1, #80
 163 003e FFF7FEFF 		bl	lv_obj_set_size
 164              	.LVL18:
  34:lvgl/examples/event/lv_example_event_3.c ****         lv_obj_add_flag(btn, LV_OBJ_FLAG_EVENT_BUBBLE);
 165              		.loc 1 34 9 discriminator 3 view .LVU33
 166 0042 4FF48041 		mov	r1, #16384
 167 0046 2046     		mov	r0, r4
 168 0048 FFF7FEFF 		bl	lv_obj_add_flag
 169              	.LVL19:
  35:lvgl/examples/event/lv_example_event_3.c **** 
  36:lvgl/examples/event/lv_example_event_3.c ****         lv_obj_t * label = lv_label_create(btn);
 170              		.loc 1 36 9 discriminator 3 view .LVU34
 171              		.loc 1 36 28 is_stmt 0 discriminator 3 view .LVU35
 172 004c 2046     		mov	r0, r4
 173 004e FFF7FEFF 		bl	lv_label_create
 174              	.LVL20:
 175 0052 0446     		mov	r4, r0
 176              	.LVL21:
  37:lvgl/examples/event/lv_example_event_3.c ****         lv_label_set_text_fmt(label, "%"LV_PRIu32, i);
 177              		.loc 1 37 9 is_stmt 1 discriminator 3 view .LVU36
 178 0054 2A46     		mov	r2, r5
 179 0056 0949     		ldr	r1, .L8
 180 0058 FFF7FEFF 		bl	lv_label_set_text_fmt
 181              	.LVL22:
  38:lvgl/examples/event/lv_example_event_3.c ****         lv_obj_center(label);
 182              		.loc 1 38 9 discriminator 3 view .LVU37
 183              	.LBB19:
 184              	.LBI19:
 199:d:\kzc\stm32\h743ii_lcd\lvgl\src\core\lv_obj_pos.h **** {
 185              		.loc 3 199 20 discriminator 3 view .LVU38
 186              	.LBB20:
 187              		.loc 3 201 5 discriminator 3 view .LVU39
 188 005c 0023     		movs	r3, #0
 189 005e 1A46     		mov	r2, r3
 190 0060 0921     		movs	r1, #9
 191 0062 2046     		mov	r0, r4
 192 0064 FFF7FEFF 		bl	lv_obj_align
 193              	.LVL23:
 194              		.loc 3 201 5 is_stmt 0 discriminator 3 view .LVU40
 195              	.LBE20:
 196              	.LBE19:
 197              	.LBE18:
  31:lvgl/examples/event/lv_example_event_3.c ****         lv_obj_t * btn = lv_btn_create(cont);
 198              		.loc 1 31 24 is_stmt 1 discriminator 3 view .LVU41
  31:lvgl/examples/event/lv_example_event_3.c ****         lv_obj_t * btn = lv_btn_create(cont);
 199              		.loc 1 31 25 is_stmt 0 discriminator 3 view .LVU42
 200 0068 0135     		adds	r5, r5, #1
 201              	.LVL24:
 202              	.L5:
  31:lvgl/examples/event/lv_example_event_3.c ****         lv_obj_t * btn = lv_btn_create(cont);
 203              		.loc 1 31 16 is_stmt 1 discriminator 1 view .LVU43
ARM GAS  C:\Users\OSD\AppData\Local\Temp\ccSnGOQJ.s 			page 12


  31:lvgl/examples/event/lv_example_event_3.c ****         lv_obj_t * btn = lv_btn_create(cont);
 204              		.loc 1 31 5 is_stmt 0 discriminator 1 view .LVU44
 205 006a 1D2D     		cmp	r5, #29
 206 006c E1D9     		bls	.L6
  39:lvgl/examples/event/lv_example_event_3.c ****     }
  40:lvgl/examples/event/lv_example_event_3.c **** 
  41:lvgl/examples/event/lv_example_event_3.c ****     lv_obj_add_event_cb(cont, event_cb, LV_EVENT_CLICKED, NULL);
 207              		.loc 1 41 5 is_stmt 1 view .LVU45
 208 006e 0023     		movs	r3, #0
 209 0070 0722     		movs	r2, #7
 210 0072 0349     		ldr	r1, .L8+4
 211 0074 3046     		mov	r0, r6
 212 0076 FFF7FEFF 		bl	lv_obj_add_event_cb
 213              	.LVL25:
  42:lvgl/examples/event/lv_example_event_3.c **** }
 214              		.loc 1 42 1 is_stmt 0 view .LVU46
 215 007a 70BD     		pop	{r4, r5, r6, pc}
 216              	.LVL26:
 217              	.L9:
 218              		.loc 1 42 1 view .LVU47
 219              		.align	2
 220              	.L8:
 221 007c 00000000 		.word	.LC0
 222 0080 00000000 		.word	event_cb
 223              		.cfi_endproc
 224              	.LFE205:
 226              		.text
 227              	.Letext0:
 228              		.file 4 "c:\\tools\\gcc-arm-none-eabi\\arm-none-eabi\\include\\machine\\_default_types.h"
 229              		.file 5 "c:\\tools\\gcc-arm-none-eabi\\arm-none-eabi\\include\\sys\\_stdint.h"
 230              		.file 6 "d:\\kzc\\stm32\\h743ii_lcd\\lvgl\\src\\misc\\lv_area.h"
 231              		.file 7 "d:\\kzc\\stm32\\h743ii_lcd\\lvgl\\src\\misc\\lv_color.h"
 232              		.file 8 "d:\\kzc\\stm32\\h743ii_lcd\\lvgl\\src\\misc\\lv_style.h"
 233              		.file 9 "lvgl/examples/event/../../src/core/lv_obj.h"
 234              		.file 10 "d:\\kzc\\stm32\\h743ii_lcd\\lvgl\\src\\misc\\lv_ll.h"
 235              		.file 11 "lvgl/examples/event/../../src/core/lv_group.h"
 236              		.file 12 "lvgl/examples/event/../../src/core/lv_obj_scroll.h"
 237              		.file 13 "lvgl/examples/event/../../src/core/lv_obj_style.h"
 238              		.file 14 "lvgl/examples/event/../../src/core/lv_obj_class.h"
 239              		.file 15 "lvgl/examples/event/../../src/core/lv_event.h"
 240              		.file 16 "lvgl/examples/event/../../src/extra/layouts/flex/lv_flex.h"
 241              		.file 17 "lvgl/examples/event/../../src/widgets/lv_btn.h"
 242              		.file 18 "lvgl/examples/event/../../src/widgets/lv_label.h"
 243              		.file 19 "lvgl/examples/event/../../src/hal/lv_hal_disp.h"
 244              		.file 20 "lvgl/examples/event/../../src/core/lv_obj_style_gen.h"
ARM GAS  C:\Users\OSD\AppData\Local\Temp\ccSnGOQJ.s 			page 13

