ARM GAS  C:\Users\OSD\AppData\Local\Temp\ccZXXBE8.s 			page 1


   1              		.cpu cortex-m7
   2              		.arch armv7e-m
   3              		.fpu fpv5-d16
   4              		.eabi_attribute 28, 1
   5              		.eabi_attribute 20, 1
   6              		.eabi_attribute 21, 1
   7              		.eabi_attribute 23, 3
   8              		.eabi_attribute 24, 1
   9              		.eabi_attribute 25, 1
  10              		.eabi_attribute 26, 1
  11              		.eabi_attribute 30, 1
  12              		.eabi_attribute 34, 1
  13              		.eabi_attribute 18, 4
  14              		.file	"lv_example_tabview_1.c"
  15              		.text
  16              	.Ltext0:
  17              		.cfi_sections	.debug_frame
  18              		.section	.rodata.lv_example_tabview_1.str1.4,"aMS",%progbits,1
  19              		.align	2
  20              	.LC0:
  21 0000 54616220 		.ascii	"Tab 1\000"
  21      3100
  22 0006 0000     		.align	2
  23              	.LC1:
  24 0008 54616220 		.ascii	"Tab 2\000"
  24      3200
  25 000e 0000     		.align	2
  26              	.LC2:
  27 0010 54616220 		.ascii	"Tab 3\000"
  27      3300
  28 0016 0000     		.align	2
  29              	.LC3:
  30 0018 54686973 		.ascii	"This the first tab\012\012If the content\012of a ta"
  30      20746865 
  30      20666972 
  30      73742074 
  30      61620A0A 
  31 0042 620A6265 		.ascii	"b\012becomes too\012longer\012than the\012container"
  31      636F6D65 
  31      7320746F 
  31      6F0A6C6F 
  31      6E676572 
  32 0069 0A746865 		.ascii	"\012then it\012automatically\012becomes\012scrollab"
  32      6E206974 
  32      0A617574 
  32      6F6D6174 
  32      6963616C 
  33 0090 6C652E0A 		.ascii	"le.\012\012\012\012Can you see it?\000"
  33      0A0A0A43 
  33      616E2079 
  33      6F752073 
  33      65652069 
  34 00a7 00       		.align	2
  35              	.LC4:
  36 00a8 5365636F 		.ascii	"Second tab\000"
  36      6E642074 
  36      616200
ARM GAS  C:\Users\OSD\AppData\Local\Temp\ccZXXBE8.s 			page 2


  37 00b3 00       		.align	2
  38              	.LC5:
  39 00b4 54686972 		.ascii	"Third tab\000"
  39      64207461 
  39      6200
  40              		.section	.text.lv_example_tabview_1,"ax",%progbits
  41              		.align	1
  42              		.global	lv_example_tabview_1
  43              		.syntax unified
  44              		.thumb
  45              		.thumb_func
  47              	lv_example_tabview_1:
  48              	.LFB204:
  49              		.file 1 "lvgl/examples/widgets/tabview/lv_example_tabview_1.c"
   1:lvgl/examples/widgets/tabview/lv_example_tabview_1.c **** #include "../../lv_examples.h"
   2:lvgl/examples/widgets/tabview/lv_example_tabview_1.c **** #if LV_USE_TABVIEW && LV_BUILD_EXAMPLES
   3:lvgl/examples/widgets/tabview/lv_example_tabview_1.c **** 
   4:lvgl/examples/widgets/tabview/lv_example_tabview_1.c **** void lv_example_tabview_1(void)
   5:lvgl/examples/widgets/tabview/lv_example_tabview_1.c **** {
  50              		.loc 1 5 1 view -0
  51              		.cfi_startproc
  52              		@ args = 0, pretend = 0, frame = 0
  53              		@ frame_needed = 0, uses_anonymous_args = 0
  54 0000 70B5     		push	{r4, r5, r6, lr}
  55              		.cfi_def_cfa_offset 16
  56              		.cfi_offset 4, -16
  57              		.cfi_offset 5, -12
  58              		.cfi_offset 6, -8
  59              		.cfi_offset 14, -4
   6:lvgl/examples/widgets/tabview/lv_example_tabview_1.c ****     /*Create a Tab view object*/
   7:lvgl/examples/widgets/tabview/lv_example_tabview_1.c ****     lv_obj_t * tabview;
  60              		.loc 1 7 5 view .LVU1
   8:lvgl/examples/widgets/tabview/lv_example_tabview_1.c ****     tabview = lv_tabview_create(lv_scr_act(), LV_DIR_TOP, 50);
  61              		.loc 1 8 5 view .LVU2
  62              	.LBB4:
  63              	.LBI4:
  64              		.file 2 "d:\\kzc\\stm32\\h743ii_lcd\\lvgl\\src/core/lv_disp.h"
   1:d:\kzc\stm32\h743ii_lcd\lvgl\src/core\lv_disp.h **** /**
   2:d:\kzc\stm32\h743ii_lcd\lvgl\src/core\lv_disp.h ****  * @file lv_disp.h
   3:d:\kzc\stm32\h743ii_lcd\lvgl\src/core\lv_disp.h ****  *
   4:d:\kzc\stm32\h743ii_lcd\lvgl\src/core\lv_disp.h ****  */
   5:d:\kzc\stm32\h743ii_lcd\lvgl\src/core\lv_disp.h **** 
   6:d:\kzc\stm32\h743ii_lcd\lvgl\src/core\lv_disp.h **** #ifndef LV_DISP_H
   7:d:\kzc\stm32\h743ii_lcd\lvgl\src/core\lv_disp.h **** #define LV_DISP_H
   8:d:\kzc\stm32\h743ii_lcd\lvgl\src/core\lv_disp.h **** 
   9:d:\kzc\stm32\h743ii_lcd\lvgl\src/core\lv_disp.h **** #ifdef __cplusplus
  10:d:\kzc\stm32\h743ii_lcd\lvgl\src/core\lv_disp.h **** extern "C" {
  11:d:\kzc\stm32\h743ii_lcd\lvgl\src/core\lv_disp.h **** #endif
  12:d:\kzc\stm32\h743ii_lcd\lvgl\src/core\lv_disp.h **** 
  13:d:\kzc\stm32\h743ii_lcd\lvgl\src/core\lv_disp.h **** /*********************
  14:d:\kzc\stm32\h743ii_lcd\lvgl\src/core\lv_disp.h ****  *      INCLUDES
  15:d:\kzc\stm32\h743ii_lcd\lvgl\src/core\lv_disp.h ****  *********************/
  16:d:\kzc\stm32\h743ii_lcd\lvgl\src/core\lv_disp.h **** #include "../hal/lv_hal.h"
  17:d:\kzc\stm32\h743ii_lcd\lvgl\src/core\lv_disp.h **** #include "lv_obj.h"
  18:d:\kzc\stm32\h743ii_lcd\lvgl\src/core\lv_disp.h **** #include "lv_theme.h"
  19:d:\kzc\stm32\h743ii_lcd\lvgl\src/core\lv_disp.h **** 
  20:d:\kzc\stm32\h743ii_lcd\lvgl\src/core\lv_disp.h **** /*********************
ARM GAS  C:\Users\OSD\AppData\Local\Temp\ccZXXBE8.s 			page 3


  21:d:\kzc\stm32\h743ii_lcd\lvgl\src/core\lv_disp.h ****  *      DEFINES
  22:d:\kzc\stm32\h743ii_lcd\lvgl\src/core\lv_disp.h ****  *********************/
  23:d:\kzc\stm32\h743ii_lcd\lvgl\src/core\lv_disp.h **** 
  24:d:\kzc\stm32\h743ii_lcd\lvgl\src/core\lv_disp.h **** /**********************
  25:d:\kzc\stm32\h743ii_lcd\lvgl\src/core\lv_disp.h ****  *      TYPEDEFS
  26:d:\kzc\stm32\h743ii_lcd\lvgl\src/core\lv_disp.h ****  **********************/
  27:d:\kzc\stm32\h743ii_lcd\lvgl\src/core\lv_disp.h **** 
  28:d:\kzc\stm32\h743ii_lcd\lvgl\src/core\lv_disp.h **** typedef enum {
  29:d:\kzc\stm32\h743ii_lcd\lvgl\src/core\lv_disp.h ****     LV_SCR_LOAD_ANIM_NONE,
  30:d:\kzc\stm32\h743ii_lcd\lvgl\src/core\lv_disp.h ****     LV_SCR_LOAD_ANIM_OVER_LEFT,
  31:d:\kzc\stm32\h743ii_lcd\lvgl\src/core\lv_disp.h ****     LV_SCR_LOAD_ANIM_OVER_RIGHT,
  32:d:\kzc\stm32\h743ii_lcd\lvgl\src/core\lv_disp.h ****     LV_SCR_LOAD_ANIM_OVER_TOP,
  33:d:\kzc\stm32\h743ii_lcd\lvgl\src/core\lv_disp.h ****     LV_SCR_LOAD_ANIM_OVER_BOTTOM,
  34:d:\kzc\stm32\h743ii_lcd\lvgl\src/core\lv_disp.h ****     LV_SCR_LOAD_ANIM_MOVE_LEFT,
  35:d:\kzc\stm32\h743ii_lcd\lvgl\src/core\lv_disp.h ****     LV_SCR_LOAD_ANIM_MOVE_RIGHT,
  36:d:\kzc\stm32\h743ii_lcd\lvgl\src/core\lv_disp.h ****     LV_SCR_LOAD_ANIM_MOVE_TOP,
  37:d:\kzc\stm32\h743ii_lcd\lvgl\src/core\lv_disp.h ****     LV_SCR_LOAD_ANIM_MOVE_BOTTOM,
  38:d:\kzc\stm32\h743ii_lcd\lvgl\src/core\lv_disp.h ****     LV_SCR_LOAD_ANIM_FADE_IN,
  39:d:\kzc\stm32\h743ii_lcd\lvgl\src/core\lv_disp.h ****     LV_SCR_LOAD_ANIM_FADE_ON = LV_SCR_LOAD_ANIM_FADE_IN, /*For backward compatibility*/
  40:d:\kzc\stm32\h743ii_lcd\lvgl\src/core\lv_disp.h ****     LV_SCR_LOAD_ANIM_FADE_OUT,
  41:d:\kzc\stm32\h743ii_lcd\lvgl\src/core\lv_disp.h ****     LV_SCR_LOAD_ANIM_OUT_LEFT,
  42:d:\kzc\stm32\h743ii_lcd\lvgl\src/core\lv_disp.h ****     LV_SCR_LOAD_ANIM_OUT_RIGHT,
  43:d:\kzc\stm32\h743ii_lcd\lvgl\src/core\lv_disp.h ****     LV_SCR_LOAD_ANIM_OUT_TOP,
  44:d:\kzc\stm32\h743ii_lcd\lvgl\src/core\lv_disp.h ****     LV_SCR_LOAD_ANIM_OUT_BOTTOM,
  45:d:\kzc\stm32\h743ii_lcd\lvgl\src/core\lv_disp.h **** } lv_scr_load_anim_t;
  46:d:\kzc\stm32\h743ii_lcd\lvgl\src/core\lv_disp.h **** 
  47:d:\kzc\stm32\h743ii_lcd\lvgl\src/core\lv_disp.h **** /**********************
  48:d:\kzc\stm32\h743ii_lcd\lvgl\src/core\lv_disp.h ****  * GLOBAL PROTOTYPES
  49:d:\kzc\stm32\h743ii_lcd\lvgl\src/core\lv_disp.h ****  **********************/
  50:d:\kzc\stm32\h743ii_lcd\lvgl\src/core\lv_disp.h **** 
  51:d:\kzc\stm32\h743ii_lcd\lvgl\src/core\lv_disp.h **** /**
  52:d:\kzc\stm32\h743ii_lcd\lvgl\src/core\lv_disp.h ****  * Return with a pointer to the active screen
  53:d:\kzc\stm32\h743ii_lcd\lvgl\src/core\lv_disp.h ****  * @param disp pointer to display which active screen should be get. (NULL to use the default
  54:d:\kzc\stm32\h743ii_lcd\lvgl\src/core\lv_disp.h ****  * screen)
  55:d:\kzc\stm32\h743ii_lcd\lvgl\src/core\lv_disp.h ****  * @return pointer to the active screen object (loaded by 'lv_scr_load()')
  56:d:\kzc\stm32\h743ii_lcd\lvgl\src/core\lv_disp.h ****  */
  57:d:\kzc\stm32\h743ii_lcd\lvgl\src/core\lv_disp.h **** lv_obj_t * lv_disp_get_scr_act(lv_disp_t * disp);
  58:d:\kzc\stm32\h743ii_lcd\lvgl\src/core\lv_disp.h **** 
  59:d:\kzc\stm32\h743ii_lcd\lvgl\src/core\lv_disp.h **** /**
  60:d:\kzc\stm32\h743ii_lcd\lvgl\src/core\lv_disp.h ****  * Return with a pointer to the previous screen. Only used during screen transitions.
  61:d:\kzc\stm32\h743ii_lcd\lvgl\src/core\lv_disp.h ****  * @param disp pointer to display which previous screen should be get. (NULL to use the default
  62:d:\kzc\stm32\h743ii_lcd\lvgl\src/core\lv_disp.h ****  * screen)
  63:d:\kzc\stm32\h743ii_lcd\lvgl\src/core\lv_disp.h ****  * @return pointer to the previous screen object or NULL if not used now
  64:d:\kzc\stm32\h743ii_lcd\lvgl\src/core\lv_disp.h ****  */
  65:d:\kzc\stm32\h743ii_lcd\lvgl\src/core\lv_disp.h **** lv_obj_t * lv_disp_get_scr_prev(lv_disp_t * disp);
  66:d:\kzc\stm32\h743ii_lcd\lvgl\src/core\lv_disp.h **** 
  67:d:\kzc\stm32\h743ii_lcd\lvgl\src/core\lv_disp.h **** /**
  68:d:\kzc\stm32\h743ii_lcd\lvgl\src/core\lv_disp.h ****  * Make a screen active
  69:d:\kzc\stm32\h743ii_lcd\lvgl\src/core\lv_disp.h ****  * @param scr pointer to a screen
  70:d:\kzc\stm32\h743ii_lcd\lvgl\src/core\lv_disp.h ****  */
  71:d:\kzc\stm32\h743ii_lcd\lvgl\src/core\lv_disp.h **** void lv_disp_load_scr(lv_obj_t * scr);
  72:d:\kzc\stm32\h743ii_lcd\lvgl\src/core\lv_disp.h **** 
  73:d:\kzc\stm32\h743ii_lcd\lvgl\src/core\lv_disp.h **** /**
  74:d:\kzc\stm32\h743ii_lcd\lvgl\src/core\lv_disp.h ****  * Return with the top layer. (Same on every screen and it is above the normal screen layer)
  75:d:\kzc\stm32\h743ii_lcd\lvgl\src/core\lv_disp.h ****  * @param disp pointer to display which top layer should be get. (NULL to use the default screen)
  76:d:\kzc\stm32\h743ii_lcd\lvgl\src/core\lv_disp.h ****  * @return pointer to the top layer object (transparent screen sized lv_obj)
  77:d:\kzc\stm32\h743ii_lcd\lvgl\src/core\lv_disp.h ****  */
ARM GAS  C:\Users\OSD\AppData\Local\Temp\ccZXXBE8.s 			page 4


  78:d:\kzc\stm32\h743ii_lcd\lvgl\src/core\lv_disp.h **** lv_obj_t * lv_disp_get_layer_top(lv_disp_t * disp);
  79:d:\kzc\stm32\h743ii_lcd\lvgl\src/core\lv_disp.h **** 
  80:d:\kzc\stm32\h743ii_lcd\lvgl\src/core\lv_disp.h **** /**
  81:d:\kzc\stm32\h743ii_lcd\lvgl\src/core\lv_disp.h ****  * Return with the sys. layer. (Same on every screen and it is above the normal screen and the top
  82:d:\kzc\stm32\h743ii_lcd\lvgl\src/core\lv_disp.h ****  * layer)
  83:d:\kzc\stm32\h743ii_lcd\lvgl\src/core\lv_disp.h ****  * @param disp pointer to display which sys. layer should be retrieved. (NULL to use the default sc
  84:d:\kzc\stm32\h743ii_lcd\lvgl\src/core\lv_disp.h ****  * @return pointer to the sys layer object (transparent screen sized lv_obj)
  85:d:\kzc\stm32\h743ii_lcd\lvgl\src/core\lv_disp.h ****  */
  86:d:\kzc\stm32\h743ii_lcd\lvgl\src/core\lv_disp.h **** lv_obj_t * lv_disp_get_layer_sys(lv_disp_t * disp);
  87:d:\kzc\stm32\h743ii_lcd\lvgl\src/core\lv_disp.h **** 
  88:d:\kzc\stm32\h743ii_lcd\lvgl\src/core\lv_disp.h **** /**
  89:d:\kzc\stm32\h743ii_lcd\lvgl\src/core\lv_disp.h ****  * Set the theme of a display
  90:d:\kzc\stm32\h743ii_lcd\lvgl\src/core\lv_disp.h ****  * @param disp pointer to a display
  91:d:\kzc\stm32\h743ii_lcd\lvgl\src/core\lv_disp.h ****  */
  92:d:\kzc\stm32\h743ii_lcd\lvgl\src/core\lv_disp.h **** void lv_disp_set_theme(lv_disp_t * disp, lv_theme_t * th);
  93:d:\kzc\stm32\h743ii_lcd\lvgl\src/core\lv_disp.h **** 
  94:d:\kzc\stm32\h743ii_lcd\lvgl\src/core\lv_disp.h **** /**
  95:d:\kzc\stm32\h743ii_lcd\lvgl\src/core\lv_disp.h ****  * Get the theme of a display
  96:d:\kzc\stm32\h743ii_lcd\lvgl\src/core\lv_disp.h ****  * @param disp pointer to a display
  97:d:\kzc\stm32\h743ii_lcd\lvgl\src/core\lv_disp.h ****  * @return the display's theme (can be NULL)
  98:d:\kzc\stm32\h743ii_lcd\lvgl\src/core\lv_disp.h ****  */
  99:d:\kzc\stm32\h743ii_lcd\lvgl\src/core\lv_disp.h **** lv_theme_t * lv_disp_get_theme(lv_disp_t * disp);
 100:d:\kzc\stm32\h743ii_lcd\lvgl\src/core\lv_disp.h **** 
 101:d:\kzc\stm32\h743ii_lcd\lvgl\src/core\lv_disp.h **** /**
 102:d:\kzc\stm32\h743ii_lcd\lvgl\src/core\lv_disp.h ****  * Set the background color of a display
 103:d:\kzc\stm32\h743ii_lcd\lvgl\src/core\lv_disp.h ****  * @param disp pointer to a display
 104:d:\kzc\stm32\h743ii_lcd\lvgl\src/core\lv_disp.h ****  * @param color color of the background
 105:d:\kzc\stm32\h743ii_lcd\lvgl\src/core\lv_disp.h ****  */
 106:d:\kzc\stm32\h743ii_lcd\lvgl\src/core\lv_disp.h **** void lv_disp_set_bg_color(lv_disp_t * disp, lv_color_t color);
 107:d:\kzc\stm32\h743ii_lcd\lvgl\src/core\lv_disp.h **** 
 108:d:\kzc\stm32\h743ii_lcd\lvgl\src/core\lv_disp.h **** /**
 109:d:\kzc\stm32\h743ii_lcd\lvgl\src/core\lv_disp.h ****  * Set the background image of a display
 110:d:\kzc\stm32\h743ii_lcd\lvgl\src/core\lv_disp.h ****  * @param disp pointer to a display
 111:d:\kzc\stm32\h743ii_lcd\lvgl\src/core\lv_disp.h ****  * @param img_src path to file or pointer to an `lv_img_dsc_t` variable
 112:d:\kzc\stm32\h743ii_lcd\lvgl\src/core\lv_disp.h ****  */
 113:d:\kzc\stm32\h743ii_lcd\lvgl\src/core\lv_disp.h **** void lv_disp_set_bg_image(lv_disp_t * disp, const void  * img_src);
 114:d:\kzc\stm32\h743ii_lcd\lvgl\src/core\lv_disp.h **** 
 115:d:\kzc\stm32\h743ii_lcd\lvgl\src/core\lv_disp.h **** /**
 116:d:\kzc\stm32\h743ii_lcd\lvgl\src/core\lv_disp.h ****  * Set opacity of the background
 117:d:\kzc\stm32\h743ii_lcd\lvgl\src/core\lv_disp.h ****  * @param disp pointer to a display
 118:d:\kzc\stm32\h743ii_lcd\lvgl\src/core\lv_disp.h ****  * @param opa opacity (0..255)
 119:d:\kzc\stm32\h743ii_lcd\lvgl\src/core\lv_disp.h ****  */
 120:d:\kzc\stm32\h743ii_lcd\lvgl\src/core\lv_disp.h **** void lv_disp_set_bg_opa(lv_disp_t * disp, lv_opa_t opa);
 121:d:\kzc\stm32\h743ii_lcd\lvgl\src/core\lv_disp.h **** 
 122:d:\kzc\stm32\h743ii_lcd\lvgl\src/core\lv_disp.h **** /**
 123:d:\kzc\stm32\h743ii_lcd\lvgl\src/core\lv_disp.h ****  * Switch screen with animation
 124:d:\kzc\stm32\h743ii_lcd\lvgl\src/core\lv_disp.h ****  * @param scr pointer to the new screen to load
 125:d:\kzc\stm32\h743ii_lcd\lvgl\src/core\lv_disp.h ****  * @param anim_type type of the animation from `lv_scr_load_anim_t`, e.g. `LV_SCR_LOAD_ANIM_MOVE_LE
 126:d:\kzc\stm32\h743ii_lcd\lvgl\src/core\lv_disp.h ****  * @param time time of the animation
 127:d:\kzc\stm32\h743ii_lcd\lvgl\src/core\lv_disp.h ****  * @param delay delay before the transition
 128:d:\kzc\stm32\h743ii_lcd\lvgl\src/core\lv_disp.h ****  * @param auto_del true: automatically delete the old screen
 129:d:\kzc\stm32\h743ii_lcd\lvgl\src/core\lv_disp.h ****  */
 130:d:\kzc\stm32\h743ii_lcd\lvgl\src/core\lv_disp.h **** void lv_scr_load_anim(lv_obj_t * scr, lv_scr_load_anim_t anim_type, uint32_t time, uint32_t delay, 
 131:d:\kzc\stm32\h743ii_lcd\lvgl\src/core\lv_disp.h **** 
 132:d:\kzc\stm32\h743ii_lcd\lvgl\src/core\lv_disp.h **** /**
 133:d:\kzc\stm32\h743ii_lcd\lvgl\src/core\lv_disp.h ****  * Get elapsed time since last user activity on a display (e.g. click)
 134:d:\kzc\stm32\h743ii_lcd\lvgl\src/core\lv_disp.h ****  * @param disp pointer to a display (NULL to get the overall smallest inactivity)
ARM GAS  C:\Users\OSD\AppData\Local\Temp\ccZXXBE8.s 			page 5


 135:d:\kzc\stm32\h743ii_lcd\lvgl\src/core\lv_disp.h ****  * @return elapsed ticks (milliseconds) since the last activity
 136:d:\kzc\stm32\h743ii_lcd\lvgl\src/core\lv_disp.h ****  */
 137:d:\kzc\stm32\h743ii_lcd\lvgl\src/core\lv_disp.h **** uint32_t lv_disp_get_inactive_time(const lv_disp_t * disp);
 138:d:\kzc\stm32\h743ii_lcd\lvgl\src/core\lv_disp.h **** 
 139:d:\kzc\stm32\h743ii_lcd\lvgl\src/core\lv_disp.h **** /**
 140:d:\kzc\stm32\h743ii_lcd\lvgl\src/core\lv_disp.h ****  * Manually trigger an activity on a display
 141:d:\kzc\stm32\h743ii_lcd\lvgl\src/core\lv_disp.h ****  * @param disp pointer to a display (NULL to use the default display)
 142:d:\kzc\stm32\h743ii_lcd\lvgl\src/core\lv_disp.h ****  */
 143:d:\kzc\stm32\h743ii_lcd\lvgl\src/core\lv_disp.h **** void lv_disp_trig_activity(lv_disp_t * disp);
 144:d:\kzc\stm32\h743ii_lcd\lvgl\src/core\lv_disp.h **** 
 145:d:\kzc\stm32\h743ii_lcd\lvgl\src/core\lv_disp.h **** /**
 146:d:\kzc\stm32\h743ii_lcd\lvgl\src/core\lv_disp.h ****  * Clean any CPU cache that is related to the display.
 147:d:\kzc\stm32\h743ii_lcd\lvgl\src/core\lv_disp.h ****  * @param disp pointer to a display (NULL to use the default display)
 148:d:\kzc\stm32\h743ii_lcd\lvgl\src/core\lv_disp.h ****  */
 149:d:\kzc\stm32\h743ii_lcd\lvgl\src/core\lv_disp.h **** void lv_disp_clean_dcache(lv_disp_t * disp);
 150:d:\kzc\stm32\h743ii_lcd\lvgl\src/core\lv_disp.h **** 
 151:d:\kzc\stm32\h743ii_lcd\lvgl\src/core\lv_disp.h **** /**
 152:d:\kzc\stm32\h743ii_lcd\lvgl\src/core\lv_disp.h ****  * Temporarily enable and disable the invalidation of the display.
 153:d:\kzc\stm32\h743ii_lcd\lvgl\src/core\lv_disp.h ****  * @param disp pointer to a display (NULL to use the default display)
 154:d:\kzc\stm32\h743ii_lcd\lvgl\src/core\lv_disp.h ****  * @param en true: enable invalidation; false: invalidation
 155:d:\kzc\stm32\h743ii_lcd\lvgl\src/core\lv_disp.h ****  */
 156:d:\kzc\stm32\h743ii_lcd\lvgl\src/core\lv_disp.h **** void lv_disp_enable_invalidation(lv_disp_t * disp, bool en);
 157:d:\kzc\stm32\h743ii_lcd\lvgl\src/core\lv_disp.h **** 
 158:d:\kzc\stm32\h743ii_lcd\lvgl\src/core\lv_disp.h **** /**
 159:d:\kzc\stm32\h743ii_lcd\lvgl\src/core\lv_disp.h ****  * Get display invalidation is enabled.
 160:d:\kzc\stm32\h743ii_lcd\lvgl\src/core\lv_disp.h ****  * @param disp pointer to a display (NULL to use the default display)
 161:d:\kzc\stm32\h743ii_lcd\lvgl\src/core\lv_disp.h ****  * @return return true if invalidation is enabled
 162:d:\kzc\stm32\h743ii_lcd\lvgl\src/core\lv_disp.h ****  */
 163:d:\kzc\stm32\h743ii_lcd\lvgl\src/core\lv_disp.h **** bool lv_disp_is_invalidation_enabled(lv_disp_t * disp);
 164:d:\kzc\stm32\h743ii_lcd\lvgl\src/core\lv_disp.h **** 
 165:d:\kzc\stm32\h743ii_lcd\lvgl\src/core\lv_disp.h **** /**
 166:d:\kzc\stm32\h743ii_lcd\lvgl\src/core\lv_disp.h ****  * Get a pointer to the screen refresher timer to
 167:d:\kzc\stm32\h743ii_lcd\lvgl\src/core\lv_disp.h ****  * modify its parameters with `lv_timer_...` functions.
 168:d:\kzc\stm32\h743ii_lcd\lvgl\src/core\lv_disp.h ****  * @param disp pointer to a display
 169:d:\kzc\stm32\h743ii_lcd\lvgl\src/core\lv_disp.h ****  * @return pointer to the display refresher timer. (NULL on error)
 170:d:\kzc\stm32\h743ii_lcd\lvgl\src/core\lv_disp.h ****  */
 171:d:\kzc\stm32\h743ii_lcd\lvgl\src/core\lv_disp.h **** lv_timer_t * _lv_disp_get_refr_timer(lv_disp_t * disp);
 172:d:\kzc\stm32\h743ii_lcd\lvgl\src/core\lv_disp.h **** 
 173:d:\kzc\stm32\h743ii_lcd\lvgl\src/core\lv_disp.h **** /*------------------------------------------------
 174:d:\kzc\stm32\h743ii_lcd\lvgl\src/core\lv_disp.h ****  * To improve backward compatibility
 175:d:\kzc\stm32\h743ii_lcd\lvgl\src/core\lv_disp.h ****  * Recommended only if you have one display
 176:d:\kzc\stm32\h743ii_lcd\lvgl\src/core\lv_disp.h ****  *------------------------------------------------*/
 177:d:\kzc\stm32\h743ii_lcd\lvgl\src/core\lv_disp.h **** 
 178:d:\kzc\stm32\h743ii_lcd\lvgl\src/core\lv_disp.h **** /**
 179:d:\kzc\stm32\h743ii_lcd\lvgl\src/core\lv_disp.h ****  * Get the active screen of the default display
 180:d:\kzc\stm32\h743ii_lcd\lvgl\src/core\lv_disp.h ****  * @return pointer to the active screen
 181:d:\kzc\stm32\h743ii_lcd\lvgl\src/core\lv_disp.h ****  */
 182:d:\kzc\stm32\h743ii_lcd\lvgl\src/core\lv_disp.h **** static inline lv_obj_t * lv_scr_act(void)
  65              		.loc 2 182 26 view .LVU3
  66              	.LBB5:
 183:d:\kzc\stm32\h743ii_lcd\lvgl\src/core\lv_disp.h **** {
 184:d:\kzc\stm32\h743ii_lcd\lvgl\src/core\lv_disp.h ****     return lv_disp_get_scr_act(lv_disp_get_default());
  67              		.loc 2 184 5 view .LVU4
  68              		.loc 2 184 12 is_stmt 0 view .LVU5
  69 0002 FFF7FEFF 		bl	lv_disp_get_default
  70              	.LVL0:
  71 0006 FFF7FEFF 		bl	lv_disp_get_scr_act
ARM GAS  C:\Users\OSD\AppData\Local\Temp\ccZXXBE8.s 			page 6


  72              	.LVL1:
  73              	.LBE5:
  74              	.LBE4:
  75              		.loc 1 8 15 view .LVU6
  76 000a 3222     		movs	r2, #50
  77 000c 0421     		movs	r1, #4
  78 000e FFF7FEFF 		bl	lv_tabview_create
  79              	.LVL2:
  80 0012 0446     		mov	r4, r0
  81              	.LVL3:
   9:lvgl/examples/widgets/tabview/lv_example_tabview_1.c **** 
  10:lvgl/examples/widgets/tabview/lv_example_tabview_1.c ****     /*Add 3 tabs (the tabs are page (lv_page) and can be scrolled*/
  11:lvgl/examples/widgets/tabview/lv_example_tabview_1.c ****     lv_obj_t * tab1 = lv_tabview_add_tab(tabview, "Tab 1");
  82              		.loc 1 11 5 is_stmt 1 view .LVU7
  83              		.loc 1 11 23 is_stmt 0 view .LVU8
  84 0014 1249     		ldr	r1, .L3
  85 0016 FFF7FEFF 		bl	lv_tabview_add_tab
  86              	.LVL4:
  87              		.loc 1 11 23 view .LVU9
  88 001a 0646     		mov	r6, r0
  89              	.LVL5:
  12:lvgl/examples/widgets/tabview/lv_example_tabview_1.c ****     lv_obj_t * tab2 = lv_tabview_add_tab(tabview, "Tab 2");
  90              		.loc 1 12 5 is_stmt 1 view .LVU10
  91              		.loc 1 12 23 is_stmt 0 view .LVU11
  92 001c 1149     		ldr	r1, .L3+4
  93 001e 2046     		mov	r0, r4
  94              	.LVL6:
  95              		.loc 1 12 23 view .LVU12
  96 0020 FFF7FEFF 		bl	lv_tabview_add_tab
  97              	.LVL7:
  98 0024 0546     		mov	r5, r0
  99              	.LVL8:
  13:lvgl/examples/widgets/tabview/lv_example_tabview_1.c ****     lv_obj_t * tab3 = lv_tabview_add_tab(tabview, "Tab 3");
 100              		.loc 1 13 5 is_stmt 1 view .LVU13
 101              		.loc 1 13 23 is_stmt 0 view .LVU14
 102 0026 1049     		ldr	r1, .L3+8
 103 0028 2046     		mov	r0, r4
 104              	.LVL9:
 105              		.loc 1 13 23 view .LVU15
 106 002a FFF7FEFF 		bl	lv_tabview_add_tab
 107              	.LVL10:
 108 002e 0446     		mov	r4, r0
 109              	.LVL11:
  14:lvgl/examples/widgets/tabview/lv_example_tabview_1.c **** 
  15:lvgl/examples/widgets/tabview/lv_example_tabview_1.c ****     /*Add content to the tabs*/
  16:lvgl/examples/widgets/tabview/lv_example_tabview_1.c ****     lv_obj_t * label = lv_label_create(tab1);
 110              		.loc 1 16 5 is_stmt 1 view .LVU16
 111              		.loc 1 16 24 is_stmt 0 view .LVU17
 112 0030 3046     		mov	r0, r6
 113              	.LVL12:
 114              		.loc 1 16 24 view .LVU18
 115 0032 FFF7FEFF 		bl	lv_label_create
 116              	.LVL13:
  17:lvgl/examples/widgets/tabview/lv_example_tabview_1.c ****     lv_label_set_text(label, "This the first tab\n\n"
 117              		.loc 1 17 5 is_stmt 1 view .LVU19
 118 0036 0D49     		ldr	r1, .L3+12
 119 0038 FFF7FEFF 		bl	lv_label_set_text
ARM GAS  C:\Users\OSD\AppData\Local\Temp\ccZXXBE8.s 			page 7


 120              	.LVL14:
  18:lvgl/examples/widgets/tabview/lv_example_tabview_1.c ****                       "If the content\n"
  19:lvgl/examples/widgets/tabview/lv_example_tabview_1.c ****                       "of a tab\n"
  20:lvgl/examples/widgets/tabview/lv_example_tabview_1.c ****                       "becomes too\n"
  21:lvgl/examples/widgets/tabview/lv_example_tabview_1.c ****                       "longer\n"
  22:lvgl/examples/widgets/tabview/lv_example_tabview_1.c ****                       "than the\n"
  23:lvgl/examples/widgets/tabview/lv_example_tabview_1.c ****                       "container\n"
  24:lvgl/examples/widgets/tabview/lv_example_tabview_1.c ****                       "then it\n"
  25:lvgl/examples/widgets/tabview/lv_example_tabview_1.c ****                       "automatically\n"
  26:lvgl/examples/widgets/tabview/lv_example_tabview_1.c ****                       "becomes\n"
  27:lvgl/examples/widgets/tabview/lv_example_tabview_1.c ****                       "scrollable.\n"
  28:lvgl/examples/widgets/tabview/lv_example_tabview_1.c ****                       "\n"
  29:lvgl/examples/widgets/tabview/lv_example_tabview_1.c ****                       "\n"
  30:lvgl/examples/widgets/tabview/lv_example_tabview_1.c ****                       "\n"
  31:lvgl/examples/widgets/tabview/lv_example_tabview_1.c ****                       "Can you see it?");
  32:lvgl/examples/widgets/tabview/lv_example_tabview_1.c **** 
  33:lvgl/examples/widgets/tabview/lv_example_tabview_1.c ****     label = lv_label_create(tab2);
 121              		.loc 1 33 5 view .LVU20
 122              		.loc 1 33 13 is_stmt 0 view .LVU21
 123 003c 2846     		mov	r0, r5
 124 003e FFF7FEFF 		bl	lv_label_create
 125              	.LVL15:
  34:lvgl/examples/widgets/tabview/lv_example_tabview_1.c ****     lv_label_set_text(label, "Second tab");
 126              		.loc 1 34 5 is_stmt 1 view .LVU22
 127 0042 0B49     		ldr	r1, .L3+16
 128 0044 FFF7FEFF 		bl	lv_label_set_text
 129              	.LVL16:
  35:lvgl/examples/widgets/tabview/lv_example_tabview_1.c **** 
  36:lvgl/examples/widgets/tabview/lv_example_tabview_1.c ****     label = lv_label_create(tab3);
 130              		.loc 1 36 5 view .LVU23
 131              		.loc 1 36 13 is_stmt 0 view .LVU24
 132 0048 2046     		mov	r0, r4
 133 004a FFF7FEFF 		bl	lv_label_create
 134              	.LVL17:
 135 004e 0446     		mov	r4, r0
 136              	.LVL18:
  37:lvgl/examples/widgets/tabview/lv_example_tabview_1.c ****     lv_label_set_text(label, "Third tab");
 137              		.loc 1 37 5 is_stmt 1 view .LVU25
 138 0050 0849     		ldr	r1, .L3+20
 139 0052 FFF7FEFF 		bl	lv_label_set_text
 140              	.LVL19:
  38:lvgl/examples/widgets/tabview/lv_example_tabview_1.c **** 
  39:lvgl/examples/widgets/tabview/lv_example_tabview_1.c ****     lv_obj_scroll_to_view_recursive(label, LV_ANIM_ON);
 141              		.loc 1 39 5 view .LVU26
 142 0056 0121     		movs	r1, #1
 143 0058 2046     		mov	r0, r4
 144 005a FFF7FEFF 		bl	lv_obj_scroll_to_view_recursive
 145              	.LVL20:
  40:lvgl/examples/widgets/tabview/lv_example_tabview_1.c **** 
  41:lvgl/examples/widgets/tabview/lv_example_tabview_1.c **** }
 146              		.loc 1 41 1 is_stmt 0 view .LVU27
 147 005e 70BD     		pop	{r4, r5, r6, pc}
 148              	.LVL21:
 149              	.L4:
 150              		.loc 1 41 1 view .LVU28
 151              		.align	2
 152              	.L3:
ARM GAS  C:\Users\OSD\AppData\Local\Temp\ccZXXBE8.s 			page 8


 153 0060 00000000 		.word	.LC0
 154 0064 08000000 		.word	.LC1
 155 0068 10000000 		.word	.LC2
 156 006c 18000000 		.word	.LC3
 157 0070 A8000000 		.word	.LC4
 158 0074 B4000000 		.word	.LC5
 159              		.cfi_endproc
 160              	.LFE204:
 162              		.text
 163              	.Letext0:
 164              		.file 3 "c:\\tools\\gcc-arm-none-eabi\\arm-none-eabi\\include\\machine\\_default_types.h"
 165              		.file 4 "c:\\tools\\gcc-arm-none-eabi\\arm-none-eabi\\include\\sys\\_stdint.h"
 166              		.file 5 "d:\\kzc\\stm32\\h743ii_lcd\\lvgl\\src\\misc\\lv_area.h"
 167              		.file 6 "d:\\kzc\\stm32\\h743ii_lcd\\lvgl\\src/misc/lv_anim.h"
 168              		.file 7 "d:\\kzc\\stm32\\h743ii_lcd\\lvgl\\src\\misc\\lv_color.h"
 169              		.file 8 "d:\\kzc\\stm32\\h743ii_lcd\\lvgl\\src\\misc\\lv_style.h"
 170              		.file 9 "d:\\kzc\\stm32\\h743ii_lcd\\lvgl\\src/core/lv_obj.h"
 171              		.file 10 "d:\\kzc\\stm32\\h743ii_lcd\\lvgl\\src\\misc\\lv_ll.h"
 172              		.file 11 "d:\\kzc\\stm32\\h743ii_lcd\\lvgl\\src/core/lv_group.h"
 173              		.file 12 "d:\\kzc\\stm32\\h743ii_lcd\\lvgl\\src/core/lv_obj_scroll.h"
 174              		.file 13 "d:\\kzc\\stm32\\h743ii_lcd\\lvgl\\src/core/lv_obj_style.h"
 175              		.file 14 "d:\\kzc\\stm32\\h743ii_lcd\\lvgl\\src/core/lv_obj_class.h"
 176              		.file 15 "d:\\kzc\\stm32\\h743ii_lcd\\lvgl\\src/core/lv_event.h"
 177              		.file 16 "d:\\kzc\\stm32\\h743ii_lcd\\lvgl\\src/hal/lv_hal_disp.h"
 178              		.file 17 "d:\\kzc\\stm32\\h743ii_lcd\\lvgl\\src/extra/widgets/tabview/lv_tabview.h"
 179              		.file 18 "d:\\kzc\\stm32\\h743ii_lcd\\lvgl\\src/widgets/lv_label.h"
ARM GAS  C:\Users\OSD\AppData\Local\Temp\ccZXXBE8.s 			page 9

