ARM GAS  C:\Users\OSD\AppData\Local\Temp\ccAc10dz.s 			page 1


   1              		.cpu cortex-m7
   2              		.arch armv7e-m
   3              		.fpu fpv5-d16
   4              		.eabi_attribute 28, 1
   5              		.eabi_attribute 20, 1
   6              		.eabi_attribute 21, 1
   7              		.eabi_attribute 23, 3
   8              		.eabi_attribute 24, 1
   9              		.eabi_attribute 25, 1
  10              		.eabi_attribute 26, 1
  11              		.eabi_attribute 30, 1
  12              		.eabi_attribute 34, 1
  13              		.eabi_attribute 18, 4
  14              		.file	"lv_gc.c"
  15              		.text
  16              	.Ltext0:
  17              		.cfi_sections	.debug_frame
  18              		.section	.text._lv_gc_clear_roots,"ax",%progbits
  19              		.align	1
  20              		.global	_lv_gc_clear_roots
  21              		.syntax unified
  22              		.thumb
  23              		.thumb_func
  25              	_lv_gc_clear_roots:
  26              	.LFB24:
  27              		.file 1 "lvgl/src/misc/lv_gc.c"
   1:lvgl/src/misc/lv_gc.c **** /**
   2:lvgl/src/misc/lv_gc.c ****  * @file lv_gc.c
   3:lvgl/src/misc/lv_gc.c ****  *
   4:lvgl/src/misc/lv_gc.c ****  */
   5:lvgl/src/misc/lv_gc.c **** 
   6:lvgl/src/misc/lv_gc.c **** /*********************
   7:lvgl/src/misc/lv_gc.c ****  *      INCLUDES
   8:lvgl/src/misc/lv_gc.c ****  *********************/
   9:lvgl/src/misc/lv_gc.c **** #include "lv_gc.h"
  10:lvgl/src/misc/lv_gc.c **** 
  11:lvgl/src/misc/lv_gc.c **** /*********************
  12:lvgl/src/misc/lv_gc.c ****  *      DEFINES
  13:lvgl/src/misc/lv_gc.c ****  *********************/
  14:lvgl/src/misc/lv_gc.c **** 
  15:lvgl/src/misc/lv_gc.c **** /**********************
  16:lvgl/src/misc/lv_gc.c ****  *      TYPEDEFS
  17:lvgl/src/misc/lv_gc.c ****  **********************/
  18:lvgl/src/misc/lv_gc.c **** 
  19:lvgl/src/misc/lv_gc.c **** /**********************
  20:lvgl/src/misc/lv_gc.c ****  *  STATIC PROTOTYPES
  21:lvgl/src/misc/lv_gc.c ****  **********************/
  22:lvgl/src/misc/lv_gc.c **** 
  23:lvgl/src/misc/lv_gc.c **** /**********************
  24:lvgl/src/misc/lv_gc.c ****  *  STATIC VARIABLES
  25:lvgl/src/misc/lv_gc.c ****  **********************/
  26:lvgl/src/misc/lv_gc.c **** 
  27:lvgl/src/misc/lv_gc.c **** #if(!defined(LV_ENABLE_GC)) || LV_ENABLE_GC == 0
  28:lvgl/src/misc/lv_gc.c ****     LV_ROOTS
  29:lvgl/src/misc/lv_gc.c **** #endif /*LV_ENABLE_GC*/
  30:lvgl/src/misc/lv_gc.c **** 
  31:lvgl/src/misc/lv_gc.c **** /**********************
ARM GAS  C:\Users\OSD\AppData\Local\Temp\ccAc10dz.s 			page 2


  32:lvgl/src/misc/lv_gc.c ****  *      MACROS
  33:lvgl/src/misc/lv_gc.c ****  **********************/
  34:lvgl/src/misc/lv_gc.c **** 
  35:lvgl/src/misc/lv_gc.c **** /**********************
  36:lvgl/src/misc/lv_gc.c ****  *   GLOBAL FUNCTIONS
  37:lvgl/src/misc/lv_gc.c ****  **********************/
  38:lvgl/src/misc/lv_gc.c **** 
  39:lvgl/src/misc/lv_gc.c **** void _lv_gc_clear_roots(void)
  40:lvgl/src/misc/lv_gc.c **** {
  28              		.loc 1 40 1 view -0
  29              		.cfi_startproc
  30              		@ args = 0, pretend = 0, frame = 0
  31              		@ frame_needed = 0, uses_anonymous_args = 0
  32 0000 08B5     		push	{r3, lr}
  33              		.cfi_def_cfa_offset 8
  34              		.cfi_offset 3, -8
  35              		.cfi_offset 14, -4
  41:lvgl/src/misc/lv_gc.c **** #define LV_CLEAR_ROOT(root_type, root_name) lv_memset_00(&LV_GC_ROOT(root_name), sizeof(LV_GC_ROOT(
  42:lvgl/src/misc/lv_gc.c ****     LV_ITERATE_ROOTS(LV_CLEAR_ROOT)
  36              		.loc 1 42 5 view .LVU1
  37 0002 0C21     		movs	r1, #12
  38 0004 2348     		ldr	r0, .L3
  39 0006 FFF7FEFF 		bl	lv_memset_00
  40              	.LVL0:
  41              		.loc 1 42 5 view .LVU2
  42 000a 0C21     		movs	r1, #12
  43 000c 2248     		ldr	r0, .L3+4
  44 000e FFF7FEFF 		bl	lv_memset_00
  45              	.LVL1:
  46              		.loc 1 42 5 view .LVU3
  47 0012 0C21     		movs	r1, #12
  48 0014 2148     		ldr	r0, .L3+8
  49 0016 FFF7FEFF 		bl	lv_memset_00
  50              	.LVL2:
  51              		.loc 1 42 5 view .LVU4
  52 001a 0C21     		movs	r1, #12
  53 001c 2048     		ldr	r0, .L3+12
  54 001e FFF7FEFF 		bl	lv_memset_00
  55              	.LVL3:
  56              		.loc 1 42 5 view .LVU5
  57 0022 0C21     		movs	r1, #12
  58 0024 1F48     		ldr	r0, .L3+16
  59 0026 FFF7FEFF 		bl	lv_memset_00
  60              	.LVL4:
  61              		.loc 1 42 5 view .LVU6
  62 002a 0C21     		movs	r1, #12
  63 002c 1E48     		ldr	r0, .L3+20
  64 002e FFF7FEFF 		bl	lv_memset_00
  65              	.LVL5:
  66              		.loc 1 42 5 view .LVU7
  67 0032 0C21     		movs	r1, #12
  68 0034 1D48     		ldr	r0, .L3+24
  69 0036 FFF7FEFF 		bl	lv_memset_00
  70              	.LVL6:
  71              		.loc 1 42 5 view .LVU8
  72 003a 0C21     		movs	r1, #12
  73 003c 1C48     		ldr	r0, .L3+28
ARM GAS  C:\Users\OSD\AppData\Local\Temp\ccAc10dz.s 			page 3


  74 003e FFF7FEFF 		bl	lv_memset_00
  75              	.LVL7:
  76              		.loc 1 42 5 view .LVU9
  77 0042 0421     		movs	r1, #4
  78 0044 1B48     		ldr	r0, .L3+32
  79 0046 FFF7FEFF 		bl	lv_memset_00
  80              	.LVL8:
  81              		.loc 1 42 5 view .LVU10
  82 004a 2C21     		movs	r1, #44
  83 004c 1A48     		ldr	r0, .L3+36
  84 004e FFF7FEFF 		bl	lv_memset_00
  85              	.LVL9:
  86              		.loc 1 42 5 view .LVU11
  87 0052 0421     		movs	r1, #4
  88 0054 1948     		ldr	r0, .L3+40
  89 0056 FFF7FEFF 		bl	lv_memset_00
  90              	.LVL10:
  91              		.loc 1 42 5 view .LVU12
  92 005a 8021     		movs	r1, #128
  93 005c 1848     		ldr	r0, .L3+44
  94 005e FFF7FEFF 		bl	lv_memset_00
  95              	.LVL11:
  96              		.loc 1 42 5 view .LVU13
  97 0062 7021     		movs	r1, #112
  98 0064 1748     		ldr	r0, .L3+48
  99 0066 FFF7FEFF 		bl	lv_memset_00
 100              	.LVL12:
 101              		.loc 1 42 5 view .LVU14
 102 006a 8021     		movs	r1, #128
 103 006c 1648     		ldr	r0, .L3+52
 104 006e FFF7FEFF 		bl	lv_memset_00
 105              	.LVL13:
 106              		.loc 1 42 5 view .LVU15
 107 0072 0421     		movs	r1, #4
 108 0074 1548     		ldr	r0, .L3+56
 109 0076 FFF7FEFF 		bl	lv_memset_00
 110              	.LVL14:
 111              		.loc 1 42 5 view .LVU16
 112 007a 0421     		movs	r1, #4
 113 007c 1448     		ldr	r0, .L3+60
 114 007e FFF7FEFF 		bl	lv_memset_00
 115              	.LVL15:
 116              		.loc 1 42 5 view .LVU17
 117 0082 0421     		movs	r1, #4
 118 0084 1348     		ldr	r0, .L3+64
 119 0086 FFF7FEFF 		bl	lv_memset_00
 120              	.LVL16:
 121              		.loc 1 42 5 view .LVU18
 122 008a 0421     		movs	r1, #4
 123 008c 1248     		ldr	r0, .L3+68
 124 008e FFF7FEFF 		bl	lv_memset_00
 125              	.LVL17:
  43:lvgl/src/misc/lv_gc.c **** }
 126              		.loc 1 43 1 is_stmt 0 view .LVU19
 127 0092 08BD     		pop	{r3, pc}
 128              	.L4:
 129              		.align	2
ARM GAS  C:\Users\OSD\AppData\Local\Temp\ccAc10dz.s 			page 4


 130              	.L3:
 131 0094 00000000 		.word	.LANCHOR0
 132 0098 00000000 		.word	.LANCHOR1
 133 009c 00000000 		.word	.LANCHOR2
 134 00a0 00000000 		.word	.LANCHOR3
 135 00a4 00000000 		.word	.LANCHOR4
 136 00a8 00000000 		.word	.LANCHOR5
 137 00ac 00000000 		.word	.LANCHOR6
 138 00b0 00000000 		.word	.LANCHOR7
 139 00b4 00000000 		.word	.LANCHOR8
 140 00b8 00000000 		.word	.LANCHOR9
 141 00bc 00000000 		.word	.LANCHOR10
 142 00c0 00000000 		.word	.LANCHOR11
 143 00c4 00000000 		.word	.LANCHOR12
 144 00c8 00000000 		.word	.LANCHOR13
 145 00cc 00000000 		.word	.LANCHOR14
 146 00d0 00000000 		.word	.LANCHOR15
 147 00d4 00000000 		.word	.LANCHOR16
 148 00d8 00000000 		.word	.LANCHOR17
 149              		.cfi_endproc
 150              	.LFE24:
 152              		.global	_lv_style_custom_prop_flag_lookup_table
 153              		.global	_lv_grad_cache_mem
 154              		.global	_lv_theme_basic_styles
 155              		.global	_lv_theme_default_styles
 156              		.global	_lv_draw_mask_list
 157              		.global	_lv_circle_cache
 158              		.global	lv_mem_buf
 159              		.global	_lv_timer_act
 160              		.global	_lv_img_cache_single
 161              		.global	_lv_layout_list
 162              		.global	_lv_obj_style_trans_ll
 163              		.global	_lv_img_decoder_ll
 164              		.global	_lv_group_ll
 165              		.global	_lv_anim_ll
 166              		.global	_lv_fsdrv_ll
 167              		.global	_lv_indev_ll
 168              		.global	_lv_disp_ll
 169              		.global	_lv_timer_ll
 170              		.section	.bss._lv_anim_ll,"aw",%nobits
 171              		.align	2
 172              		.set	.LANCHOR4,. + 0
 175              	_lv_anim_ll:
 176 0000 00000000 		.space	12
 176      00000000 
 176      00000000 
 177              		.section	.bss._lv_circle_cache,"aw",%nobits
 178              		.align	2
 179              		.set	.LANCHOR12,. + 0
 182              	_lv_circle_cache:
 183 0000 00000000 		.space	112
 183      00000000 
 183      00000000 
 183      00000000 
 183      00000000 
 184              		.section	.bss._lv_disp_ll,"aw",%nobits
 185              		.align	2
ARM GAS  C:\Users\OSD\AppData\Local\Temp\ccAc10dz.s 			page 5


 186              		.set	.LANCHOR1,. + 0
 189              	_lv_disp_ll:
 190 0000 00000000 		.space	12
 190      00000000 
 190      00000000 
 191              		.section	.bss._lv_draw_mask_list,"aw",%nobits
 192              		.align	2
 193              		.set	.LANCHOR13,. + 0
 196              	_lv_draw_mask_list:
 197 0000 00000000 		.space	128
 197      00000000 
 197      00000000 
 197      00000000 
 197      00000000 
 198              		.section	.bss._lv_fsdrv_ll,"aw",%nobits
 199              		.align	2
 200              		.set	.LANCHOR3,. + 0
 203              	_lv_fsdrv_ll:
 204 0000 00000000 		.space	12
 204      00000000 
 204      00000000 
 205              		.section	.bss._lv_grad_cache_mem,"aw",%nobits
 206              		.align	2
 207              		.set	.LANCHOR16,. + 0
 210              	_lv_grad_cache_mem:
 211 0000 00000000 		.space	4
 212              		.section	.bss._lv_group_ll,"aw",%nobits
 213              		.align	2
 214              		.set	.LANCHOR5,. + 0
 217              	_lv_group_ll:
 218 0000 00000000 		.space	12
 218      00000000 
 218      00000000 
 219              		.section	.bss._lv_img_cache_single,"aw",%nobits
 220              		.align	2
 221              		.set	.LANCHOR9,. + 0
 224              	_lv_img_cache_single:
 225 0000 00000000 		.space	44
 225      00000000 
 225      00000000 
 225      00000000 
 225      00000000 
 226              		.section	.bss._lv_img_decoder_ll,"aw",%nobits
 227              		.align	2
 228              		.set	.LANCHOR6,. + 0
 231              	_lv_img_decoder_ll:
 232 0000 00000000 		.space	12
 232      00000000 
 232      00000000 
 233              		.section	.bss._lv_indev_ll,"aw",%nobits
 234              		.align	2
 235              		.set	.LANCHOR2,. + 0
 238              	_lv_indev_ll:
 239 0000 00000000 		.space	12
 239      00000000 
 239      00000000 
 240              		.section	.bss._lv_layout_list,"aw",%nobits
ARM GAS  C:\Users\OSD\AppData\Local\Temp\ccAc10dz.s 			page 6


 241              		.align	2
 242              		.set	.LANCHOR8,. + 0
 245              	_lv_layout_list:
 246 0000 00000000 		.space	4
 247              		.section	.bss._lv_obj_style_trans_ll,"aw",%nobits
 248              		.align	2
 249              		.set	.LANCHOR7,. + 0
 252              	_lv_obj_style_trans_ll:
 253 0000 00000000 		.space	12
 253      00000000 
 253      00000000 
 254              		.section	.bss._lv_style_custom_prop_flag_lookup_table,"aw",%nobits
 255              		.align	2
 256              		.set	.LANCHOR17,. + 0
 259              	_lv_style_custom_prop_flag_lookup_table:
 260 0000 00000000 		.space	4
 261              		.section	.bss._lv_theme_basic_styles,"aw",%nobits
 262              		.align	2
 263              		.set	.LANCHOR15,. + 0
 266              	_lv_theme_basic_styles:
 267 0000 00000000 		.space	4
 268              		.section	.bss._lv_theme_default_styles,"aw",%nobits
 269              		.align	2
 270              		.set	.LANCHOR14,. + 0
 273              	_lv_theme_default_styles:
 274 0000 00000000 		.space	4
 275              		.section	.bss._lv_timer_act,"aw",%nobits
 276              		.align	2
 277              		.set	.LANCHOR10,. + 0
 280              	_lv_timer_act:
 281 0000 00000000 		.space	4
 282              		.section	.bss._lv_timer_ll,"aw",%nobits
 283              		.align	2
 284              		.set	.LANCHOR0,. + 0
 287              	_lv_timer_ll:
 288 0000 00000000 		.space	12
 288      00000000 
 288      00000000 
 289              		.section	.bss.lv_mem_buf,"aw",%nobits
 290              		.align	2
 291              		.set	.LANCHOR11,. + 0
 294              	lv_mem_buf:
 295 0000 00000000 		.space	128
 295      00000000 
 295      00000000 
 295      00000000 
 295      00000000 
 296              		.text
 297              	.Letext0:
 298              		.file 2 "c:\\tools\\gcc-arm-none-eabi\\arm-none-eabi\\include\\machine\\_default_types.h"
 299              		.file 3 "c:\\tools\\gcc-arm-none-eabi\\arm-none-eabi\\include\\sys\\_stdint.h"
 300              		.file 4 "lvgl/src/misc/lv_types.h"
 301              		.file 5 "lvgl/src/misc/lv_mem.h"
 302              		.file 6 "lvgl/src/misc/lv_ll.h"
 303              		.file 7 "lvgl/src/misc/lv_timer.h"
 304              		.file 8 "lvgl/src/misc/../draw/../misc/lv_color.h"
 305              		.file 9 "lvgl/src/misc/../draw/../misc/lv_area.h"
ARM GAS  C:\Users\OSD\AppData\Local\Temp\ccAc10dz.s 			page 7


 306              		.file 10 "lvgl/src/misc/../draw/lv_img_buf.h"
 307              		.file 11 "lvgl/src/misc/../draw/lv_img_decoder.h"
 308              		.file 12 "lvgl/src/misc/../draw/lv_img_cache.h"
 309              		.file 13 "lvgl/src/misc/../draw/lv_draw_mask.h"
 310              		.file 14 "lvgl/src/misc/../core/lv_obj_pos.h"
 311              		.file 15 "lvgl/src/misc/lv_gc.h"
ARM GAS  C:\Users\OSD\AppData\Local\Temp\ccAc10dz.s 			page 8


DEFINED SYMBOLS
                            *ABS*:00000000 lv_gc.c
C:\Users\OSD\AppData\Local\Temp\ccAc10dz.s:19     .text._lv_gc_clear_roots:00000000 $t
C:\Users\OSD\AppData\Local\Temp\ccAc10dz.s:25     .text._lv_gc_clear_roots:00000000 _lv_gc_clear_roots
C:\Users\OSD\AppData\Local\Temp\ccAc10dz.s:131    .text._lv_gc_clear_roots:00000094 $d
C:\Users\OSD\AppData\Local\Temp\ccAc10dz.s:259    .bss._lv_style_custom_prop_flag_lookup_table:00000000 _lv_style_custom_prop_flag_lookup_table
C:\Users\OSD\AppData\Local\Temp\ccAc10dz.s:210    .bss._lv_grad_cache_mem:00000000 _lv_grad_cache_mem
C:\Users\OSD\AppData\Local\Temp\ccAc10dz.s:266    .bss._lv_theme_basic_styles:00000000 _lv_theme_basic_styles
C:\Users\OSD\AppData\Local\Temp\ccAc10dz.s:273    .bss._lv_theme_default_styles:00000000 _lv_theme_default_styles
C:\Users\OSD\AppData\Local\Temp\ccAc10dz.s:196    .bss._lv_draw_mask_list:00000000 _lv_draw_mask_list
C:\Users\OSD\AppData\Local\Temp\ccAc10dz.s:182    .bss._lv_circle_cache:00000000 _lv_circle_cache
C:\Users\OSD\AppData\Local\Temp\ccAc10dz.s:294    .bss.lv_mem_buf:00000000 lv_mem_buf
C:\Users\OSD\AppData\Local\Temp\ccAc10dz.s:280    .bss._lv_timer_act:00000000 _lv_timer_act
C:\Users\OSD\AppData\Local\Temp\ccAc10dz.s:224    .bss._lv_img_cache_single:00000000 _lv_img_cache_single
C:\Users\OSD\AppData\Local\Temp\ccAc10dz.s:245    .bss._lv_layout_list:00000000 _lv_layout_list
C:\Users\OSD\AppData\Local\Temp\ccAc10dz.s:252    .bss._lv_obj_style_trans_ll:00000000 _lv_obj_style_trans_ll
C:\Users\OSD\AppData\Local\Temp\ccAc10dz.s:231    .bss._lv_img_decoder_ll:00000000 _lv_img_decoder_ll
C:\Users\OSD\AppData\Local\Temp\ccAc10dz.s:217    .bss._lv_group_ll:00000000 _lv_group_ll
C:\Users\OSD\AppData\Local\Temp\ccAc10dz.s:175    .bss._lv_anim_ll:00000000 _lv_anim_ll
C:\Users\OSD\AppData\Local\Temp\ccAc10dz.s:203    .bss._lv_fsdrv_ll:00000000 _lv_fsdrv_ll
C:\Users\OSD\AppData\Local\Temp\ccAc10dz.s:238    .bss._lv_indev_ll:00000000 _lv_indev_ll
C:\Users\OSD\AppData\Local\Temp\ccAc10dz.s:189    .bss._lv_disp_ll:00000000 _lv_disp_ll
C:\Users\OSD\AppData\Local\Temp\ccAc10dz.s:287    .bss._lv_timer_ll:00000000 _lv_timer_ll
C:\Users\OSD\AppData\Local\Temp\ccAc10dz.s:171    .bss._lv_anim_ll:00000000 $d
C:\Users\OSD\AppData\Local\Temp\ccAc10dz.s:178    .bss._lv_circle_cache:00000000 $d
C:\Users\OSD\AppData\Local\Temp\ccAc10dz.s:185    .bss._lv_disp_ll:00000000 $d
C:\Users\OSD\AppData\Local\Temp\ccAc10dz.s:192    .bss._lv_draw_mask_list:00000000 $d
C:\Users\OSD\AppData\Local\Temp\ccAc10dz.s:199    .bss._lv_fsdrv_ll:00000000 $d
C:\Users\OSD\AppData\Local\Temp\ccAc10dz.s:206    .bss._lv_grad_cache_mem:00000000 $d
C:\Users\OSD\AppData\Local\Temp\ccAc10dz.s:213    .bss._lv_group_ll:00000000 $d
C:\Users\OSD\AppData\Local\Temp\ccAc10dz.s:220    .bss._lv_img_cache_single:00000000 $d
C:\Users\OSD\AppData\Local\Temp\ccAc10dz.s:227    .bss._lv_img_decoder_ll:00000000 $d
C:\Users\OSD\AppData\Local\Temp\ccAc10dz.s:234    .bss._lv_indev_ll:00000000 $d
C:\Users\OSD\AppData\Local\Temp\ccAc10dz.s:241    .bss._lv_layout_list:00000000 $d
C:\Users\OSD\AppData\Local\Temp\ccAc10dz.s:248    .bss._lv_obj_style_trans_ll:00000000 $d
C:\Users\OSD\AppData\Local\Temp\ccAc10dz.s:255    .bss._lv_style_custom_prop_flag_lookup_table:00000000 $d
C:\Users\OSD\AppData\Local\Temp\ccAc10dz.s:262    .bss._lv_theme_basic_styles:00000000 $d
C:\Users\OSD\AppData\Local\Temp\ccAc10dz.s:269    .bss._lv_theme_default_styles:00000000 $d
C:\Users\OSD\AppData\Local\Temp\ccAc10dz.s:276    .bss._lv_timer_act:00000000 $d
C:\Users\OSD\AppData\Local\Temp\ccAc10dz.s:283    .bss._lv_timer_ll:00000000 $d
C:\Users\OSD\AppData\Local\Temp\ccAc10dz.s:290    .bss.lv_mem_buf:00000000 $d

UNDEFINED SYMBOLS
lv_memset_00
