ARM GAS  C:\Users\OSD\AppData\Local\Temp\ccKYLEBM.s 			page 1


   1              		.cpu cortex-m7
   2              		.arch armv7e-m
   3              		.fpu fpv5-d16
   4              		.eabi_attribute 28, 1
   5              		.eabi_attribute 20, 1
   6              		.eabi_attribute 21, 1
   7              		.eabi_attribute 23, 3
   8              		.eabi_attribute 24, 1
   9              		.eabi_attribute 25, 1
  10              		.eabi_attribute 26, 1
  11              		.eabi_attribute 30, 1
  12              		.eabi_attribute 34, 1
  13              		.eabi_attribute 18, 4
  14              		.file	"lv_grid.c"
  15              		.text
  16              	.Ltext0:
  17              		.cfi_sections	.debug_frame
  18              		.section	.text.grid_align,"ax",%progbits
  19              		.align	1
  20              		.syntax unified
  21              		.thumb
  22              		.thumb_func
  24              	grid_align:
  25              	.LVL0:
  26              	.LFB217:
  27              		.file 1 "lvgl/src/extra/layouts/grid/lv_grid.c"
   1:lvgl/src/extra/layouts/grid/lv_grid.c **** /**
   2:lvgl/src/extra/layouts/grid/lv_grid.c ****  * @file lv_grid.c
   3:lvgl/src/extra/layouts/grid/lv_grid.c ****  *
   4:lvgl/src/extra/layouts/grid/lv_grid.c ****  */
   5:lvgl/src/extra/layouts/grid/lv_grid.c **** 
   6:lvgl/src/extra/layouts/grid/lv_grid.c **** /*********************
   7:lvgl/src/extra/layouts/grid/lv_grid.c ****  *      INCLUDES
   8:lvgl/src/extra/layouts/grid/lv_grid.c ****  *********************/
   9:lvgl/src/extra/layouts/grid/lv_grid.c **** #include "../lv_layouts.h"
  10:lvgl/src/extra/layouts/grid/lv_grid.c **** 
  11:lvgl/src/extra/layouts/grid/lv_grid.c **** #if LV_USE_GRID
  12:lvgl/src/extra/layouts/grid/lv_grid.c **** 
  13:lvgl/src/extra/layouts/grid/lv_grid.c **** /*********************
  14:lvgl/src/extra/layouts/grid/lv_grid.c ****  *      DEFINES
  15:lvgl/src/extra/layouts/grid/lv_grid.c ****  *********************/
  16:lvgl/src/extra/layouts/grid/lv_grid.c **** /**
  17:lvgl/src/extra/layouts/grid/lv_grid.c ****  * Some helper defines
  18:lvgl/src/extra/layouts/grid/lv_grid.c ****  */
  19:lvgl/src/extra/layouts/grid/lv_grid.c **** #define IS_FR(x)       (x >= LV_COORD_MAX - 100)
  20:lvgl/src/extra/layouts/grid/lv_grid.c **** #define IS_CONTENT(x)  (x == LV_COORD_MAX - 101)
  21:lvgl/src/extra/layouts/grid/lv_grid.c **** #define GET_FR(x)      (x - (LV_COORD_MAX - 100))
  22:lvgl/src/extra/layouts/grid/lv_grid.c **** 
  23:lvgl/src/extra/layouts/grid/lv_grid.c **** /**********************
  24:lvgl/src/extra/layouts/grid/lv_grid.c ****  *      TYPEDEFS
  25:lvgl/src/extra/layouts/grid/lv_grid.c ****  **********************/
  26:lvgl/src/extra/layouts/grid/lv_grid.c **** typedef struct {
  27:lvgl/src/extra/layouts/grid/lv_grid.c ****     uint32_t col;
  28:lvgl/src/extra/layouts/grid/lv_grid.c ****     uint32_t row;
  29:lvgl/src/extra/layouts/grid/lv_grid.c ****     lv_point_t grid_abs;
  30:lvgl/src/extra/layouts/grid/lv_grid.c **** } item_repos_hint_t;
  31:lvgl/src/extra/layouts/grid/lv_grid.c **** 
ARM GAS  C:\Users\OSD\AppData\Local\Temp\ccKYLEBM.s 			page 2


  32:lvgl/src/extra/layouts/grid/lv_grid.c **** typedef struct {
  33:lvgl/src/extra/layouts/grid/lv_grid.c ****     lv_coord_t * x;
  34:lvgl/src/extra/layouts/grid/lv_grid.c ****     lv_coord_t * y;
  35:lvgl/src/extra/layouts/grid/lv_grid.c ****     lv_coord_t * w;
  36:lvgl/src/extra/layouts/grid/lv_grid.c ****     lv_coord_t * h;
  37:lvgl/src/extra/layouts/grid/lv_grid.c ****     uint32_t col_num;
  38:lvgl/src/extra/layouts/grid/lv_grid.c ****     uint32_t row_num;
  39:lvgl/src/extra/layouts/grid/lv_grid.c ****     lv_coord_t grid_w;
  40:lvgl/src/extra/layouts/grid/lv_grid.c ****     lv_coord_t grid_h;
  41:lvgl/src/extra/layouts/grid/lv_grid.c **** } _lv_grid_calc_t;
  42:lvgl/src/extra/layouts/grid/lv_grid.c **** 
  43:lvgl/src/extra/layouts/grid/lv_grid.c **** /**********************
  44:lvgl/src/extra/layouts/grid/lv_grid.c ****  *  GLOBAL PROTOTYPES
  45:lvgl/src/extra/layouts/grid/lv_grid.c ****  **********************/
  46:lvgl/src/extra/layouts/grid/lv_grid.c **** 
  47:lvgl/src/extra/layouts/grid/lv_grid.c **** /**********************
  48:lvgl/src/extra/layouts/grid/lv_grid.c ****  *  STATIC PROTOTYPES
  49:lvgl/src/extra/layouts/grid/lv_grid.c ****  **********************/
  50:lvgl/src/extra/layouts/grid/lv_grid.c **** static void grid_update(lv_obj_t * cont, void * user_data);
  51:lvgl/src/extra/layouts/grid/lv_grid.c **** static void calc(lv_obj_t * obj, _lv_grid_calc_t * calc);
  52:lvgl/src/extra/layouts/grid/lv_grid.c **** static void calc_free(_lv_grid_calc_t * calc);
  53:lvgl/src/extra/layouts/grid/lv_grid.c **** static void calc_cols(lv_obj_t * cont, _lv_grid_calc_t * c);
  54:lvgl/src/extra/layouts/grid/lv_grid.c **** static void calc_rows(lv_obj_t * cont, _lv_grid_calc_t * c);
  55:lvgl/src/extra/layouts/grid/lv_grid.c **** static void item_repos(lv_obj_t * item, _lv_grid_calc_t * c, item_repos_hint_t * hint);
  56:lvgl/src/extra/layouts/grid/lv_grid.c **** static lv_coord_t grid_align(lv_coord_t cont_size,  bool auto_size, uint8_t align, lv_coord_t gap, 
  57:lvgl/src/extra/layouts/grid/lv_grid.c ****                              lv_coord_t * size_array, lv_coord_t * pos_array, bool reverse);
  58:lvgl/src/extra/layouts/grid/lv_grid.c **** static uint32_t count_tracks(const lv_coord_t * templ);
  59:lvgl/src/extra/layouts/grid/lv_grid.c **** 
  60:lvgl/src/extra/layouts/grid/lv_grid.c **** static inline const lv_coord_t * get_col_dsc(lv_obj_t * obj)
  61:lvgl/src/extra/layouts/grid/lv_grid.c **** {
  62:lvgl/src/extra/layouts/grid/lv_grid.c ****     return lv_obj_get_style_grid_column_dsc_array(obj, 0);
  63:lvgl/src/extra/layouts/grid/lv_grid.c **** }
  64:lvgl/src/extra/layouts/grid/lv_grid.c **** static inline const lv_coord_t * get_row_dsc(lv_obj_t * obj)
  65:lvgl/src/extra/layouts/grid/lv_grid.c **** {
  66:lvgl/src/extra/layouts/grid/lv_grid.c ****     return lv_obj_get_style_grid_row_dsc_array(obj, 0);
  67:lvgl/src/extra/layouts/grid/lv_grid.c **** }
  68:lvgl/src/extra/layouts/grid/lv_grid.c **** static inline uint8_t get_col_pos(lv_obj_t * obj)
  69:lvgl/src/extra/layouts/grid/lv_grid.c **** {
  70:lvgl/src/extra/layouts/grid/lv_grid.c ****     return lv_obj_get_style_grid_cell_column_pos(obj, 0);
  71:lvgl/src/extra/layouts/grid/lv_grid.c **** }
  72:lvgl/src/extra/layouts/grid/lv_grid.c **** static inline uint8_t get_row_pos(lv_obj_t * obj)
  73:lvgl/src/extra/layouts/grid/lv_grid.c **** {
  74:lvgl/src/extra/layouts/grid/lv_grid.c ****     return lv_obj_get_style_grid_cell_row_pos(obj, 0);
  75:lvgl/src/extra/layouts/grid/lv_grid.c **** }
  76:lvgl/src/extra/layouts/grid/lv_grid.c **** static inline uint8_t get_col_span(lv_obj_t * obj)
  77:lvgl/src/extra/layouts/grid/lv_grid.c **** {
  78:lvgl/src/extra/layouts/grid/lv_grid.c ****     return lv_obj_get_style_grid_cell_column_span(obj, 0);
  79:lvgl/src/extra/layouts/grid/lv_grid.c **** }
  80:lvgl/src/extra/layouts/grid/lv_grid.c **** static inline uint8_t get_row_span(lv_obj_t * obj)
  81:lvgl/src/extra/layouts/grid/lv_grid.c **** {
  82:lvgl/src/extra/layouts/grid/lv_grid.c ****     return lv_obj_get_style_grid_cell_row_span(obj, 0);
  83:lvgl/src/extra/layouts/grid/lv_grid.c **** }
  84:lvgl/src/extra/layouts/grid/lv_grid.c **** static inline uint8_t get_cell_col_align(lv_obj_t * obj)
  85:lvgl/src/extra/layouts/grid/lv_grid.c **** {
  86:lvgl/src/extra/layouts/grid/lv_grid.c ****     return lv_obj_get_style_grid_cell_x_align(obj, 0);
  87:lvgl/src/extra/layouts/grid/lv_grid.c **** }
  88:lvgl/src/extra/layouts/grid/lv_grid.c **** static inline uint8_t get_cell_row_align(lv_obj_t * obj)
ARM GAS  C:\Users\OSD\AppData\Local\Temp\ccKYLEBM.s 			page 3


  89:lvgl/src/extra/layouts/grid/lv_grid.c **** {
  90:lvgl/src/extra/layouts/grid/lv_grid.c ****     return lv_obj_get_style_grid_cell_y_align(obj, 0);
  91:lvgl/src/extra/layouts/grid/lv_grid.c **** }
  92:lvgl/src/extra/layouts/grid/lv_grid.c **** static inline uint8_t get_grid_col_align(lv_obj_t * obj)
  93:lvgl/src/extra/layouts/grid/lv_grid.c **** {
  94:lvgl/src/extra/layouts/grid/lv_grid.c ****     return lv_obj_get_style_grid_column_align(obj, 0);
  95:lvgl/src/extra/layouts/grid/lv_grid.c **** }
  96:lvgl/src/extra/layouts/grid/lv_grid.c **** static inline uint8_t get_grid_row_align(lv_obj_t * obj)
  97:lvgl/src/extra/layouts/grid/lv_grid.c **** {
  98:lvgl/src/extra/layouts/grid/lv_grid.c ****     return lv_obj_get_style_grid_row_align(obj, 0);
  99:lvgl/src/extra/layouts/grid/lv_grid.c **** }
 100:lvgl/src/extra/layouts/grid/lv_grid.c **** 
 101:lvgl/src/extra/layouts/grid/lv_grid.c **** /**********************
 102:lvgl/src/extra/layouts/grid/lv_grid.c ****  *  GLOBAL VARIABLES
 103:lvgl/src/extra/layouts/grid/lv_grid.c ****  **********************/
 104:lvgl/src/extra/layouts/grid/lv_grid.c **** uint16_t LV_LAYOUT_GRID;
 105:lvgl/src/extra/layouts/grid/lv_grid.c **** lv_style_prop_t LV_STYLE_GRID_COLUMN_DSC_ARRAY;
 106:lvgl/src/extra/layouts/grid/lv_grid.c **** lv_style_prop_t LV_STYLE_GRID_COLUMN_ALIGN;
 107:lvgl/src/extra/layouts/grid/lv_grid.c **** lv_style_prop_t LV_STYLE_GRID_ROW_DSC_ARRAY;
 108:lvgl/src/extra/layouts/grid/lv_grid.c **** lv_style_prop_t LV_STYLE_GRID_ROW_ALIGN;
 109:lvgl/src/extra/layouts/grid/lv_grid.c **** lv_style_prop_t LV_STYLE_GRID_CELL_COLUMN_POS;
 110:lvgl/src/extra/layouts/grid/lv_grid.c **** lv_style_prop_t LV_STYLE_GRID_CELL_COLUMN_SPAN;
 111:lvgl/src/extra/layouts/grid/lv_grid.c **** lv_style_prop_t LV_STYLE_GRID_CELL_X_ALIGN;
 112:lvgl/src/extra/layouts/grid/lv_grid.c **** lv_style_prop_t LV_STYLE_GRID_CELL_ROW_POS;
 113:lvgl/src/extra/layouts/grid/lv_grid.c **** lv_style_prop_t LV_STYLE_GRID_CELL_ROW_SPAN;
 114:lvgl/src/extra/layouts/grid/lv_grid.c **** lv_style_prop_t LV_STYLE_GRID_CELL_Y_ALIGN;
 115:lvgl/src/extra/layouts/grid/lv_grid.c **** 
 116:lvgl/src/extra/layouts/grid/lv_grid.c **** /**********************
 117:lvgl/src/extra/layouts/grid/lv_grid.c ****  *  STATIC VARIABLES
 118:lvgl/src/extra/layouts/grid/lv_grid.c ****  **********************/
 119:lvgl/src/extra/layouts/grid/lv_grid.c **** 
 120:lvgl/src/extra/layouts/grid/lv_grid.c **** /**********************
 121:lvgl/src/extra/layouts/grid/lv_grid.c ****  *      MACROS
 122:lvgl/src/extra/layouts/grid/lv_grid.c ****  **********************/
 123:lvgl/src/extra/layouts/grid/lv_grid.c **** 
 124:lvgl/src/extra/layouts/grid/lv_grid.c **** /**********************
 125:lvgl/src/extra/layouts/grid/lv_grid.c ****  *   GLOBAL FUNCTIONS
 126:lvgl/src/extra/layouts/grid/lv_grid.c ****  **********************/
 127:lvgl/src/extra/layouts/grid/lv_grid.c **** 
 128:lvgl/src/extra/layouts/grid/lv_grid.c **** void lv_grid_init(void)
 129:lvgl/src/extra/layouts/grid/lv_grid.c **** {
 130:lvgl/src/extra/layouts/grid/lv_grid.c ****     LV_LAYOUT_GRID = lv_layout_register(grid_update, NULL);
 131:lvgl/src/extra/layouts/grid/lv_grid.c **** 
 132:lvgl/src/extra/layouts/grid/lv_grid.c ****     LV_STYLE_GRID_COLUMN_DSC_ARRAY = lv_style_register_prop(LV_STYLE_PROP_LAYOUT_REFR);
 133:lvgl/src/extra/layouts/grid/lv_grid.c ****     LV_STYLE_GRID_ROW_DSC_ARRAY = lv_style_register_prop(LV_STYLE_PROP_LAYOUT_REFR);
 134:lvgl/src/extra/layouts/grid/lv_grid.c ****     LV_STYLE_GRID_COLUMN_ALIGN = lv_style_register_prop(LV_STYLE_PROP_LAYOUT_REFR);
 135:lvgl/src/extra/layouts/grid/lv_grid.c ****     LV_STYLE_GRID_ROW_ALIGN = lv_style_register_prop(LV_STYLE_PROP_LAYOUT_REFR);
 136:lvgl/src/extra/layouts/grid/lv_grid.c **** 
 137:lvgl/src/extra/layouts/grid/lv_grid.c ****     LV_STYLE_GRID_CELL_ROW_SPAN = lv_style_register_prop(LV_STYLE_PROP_LAYOUT_REFR);
 138:lvgl/src/extra/layouts/grid/lv_grid.c ****     LV_STYLE_GRID_CELL_ROW_POS = lv_style_register_prop(LV_STYLE_PROP_LAYOUT_REFR);
 139:lvgl/src/extra/layouts/grid/lv_grid.c ****     LV_STYLE_GRID_CELL_COLUMN_SPAN = lv_style_register_prop(LV_STYLE_PROP_LAYOUT_REFR);
 140:lvgl/src/extra/layouts/grid/lv_grid.c ****     LV_STYLE_GRID_CELL_COLUMN_POS = lv_style_register_prop(LV_STYLE_PROP_LAYOUT_REFR);
 141:lvgl/src/extra/layouts/grid/lv_grid.c ****     LV_STYLE_GRID_CELL_X_ALIGN = lv_style_register_prop(LV_STYLE_PROP_LAYOUT_REFR);
 142:lvgl/src/extra/layouts/grid/lv_grid.c ****     LV_STYLE_GRID_CELL_Y_ALIGN = lv_style_register_prop(LV_STYLE_PROP_LAYOUT_REFR);
 143:lvgl/src/extra/layouts/grid/lv_grid.c **** }
 144:lvgl/src/extra/layouts/grid/lv_grid.c **** 
 145:lvgl/src/extra/layouts/grid/lv_grid.c **** void lv_obj_set_grid_dsc_array(lv_obj_t * obj, const lv_coord_t col_dsc[], const lv_coord_t row_dsc
ARM GAS  C:\Users\OSD\AppData\Local\Temp\ccKYLEBM.s 			page 4


 146:lvgl/src/extra/layouts/grid/lv_grid.c **** {
 147:lvgl/src/extra/layouts/grid/lv_grid.c ****     lv_obj_set_style_grid_column_dsc_array(obj, col_dsc, 0);
 148:lvgl/src/extra/layouts/grid/lv_grid.c ****     lv_obj_set_style_grid_row_dsc_array(obj, row_dsc, 0);
 149:lvgl/src/extra/layouts/grid/lv_grid.c ****     lv_obj_set_style_layout(obj, LV_LAYOUT_GRID, 0);
 150:lvgl/src/extra/layouts/grid/lv_grid.c **** }
 151:lvgl/src/extra/layouts/grid/lv_grid.c **** 
 152:lvgl/src/extra/layouts/grid/lv_grid.c **** void lv_obj_set_grid_align(lv_obj_t * obj, lv_grid_align_t column_align, lv_grid_align_t row_align)
 153:lvgl/src/extra/layouts/grid/lv_grid.c **** {
 154:lvgl/src/extra/layouts/grid/lv_grid.c ****     lv_obj_set_style_grid_column_align(obj, column_align, 0);
 155:lvgl/src/extra/layouts/grid/lv_grid.c ****     lv_obj_set_style_grid_row_align(obj, row_align, 0);
 156:lvgl/src/extra/layouts/grid/lv_grid.c **** 
 157:lvgl/src/extra/layouts/grid/lv_grid.c **** }
 158:lvgl/src/extra/layouts/grid/lv_grid.c **** 
 159:lvgl/src/extra/layouts/grid/lv_grid.c **** void lv_obj_set_grid_cell(lv_obj_t * obj, lv_grid_align_t x_align, uint8_t col_pos, uint8_t col_spa
 160:lvgl/src/extra/layouts/grid/lv_grid.c ****                           lv_grid_align_t y_align, uint8_t row_pos, uint8_t row_span)
 161:lvgl/src/extra/layouts/grid/lv_grid.c **** 
 162:lvgl/src/extra/layouts/grid/lv_grid.c **** {
 163:lvgl/src/extra/layouts/grid/lv_grid.c ****     lv_obj_set_style_grid_cell_column_pos(obj, col_pos, 0);
 164:lvgl/src/extra/layouts/grid/lv_grid.c ****     lv_obj_set_style_grid_cell_row_pos(obj, row_pos, 0);
 165:lvgl/src/extra/layouts/grid/lv_grid.c ****     lv_obj_set_style_grid_cell_x_align(obj, x_align, 0);
 166:lvgl/src/extra/layouts/grid/lv_grid.c ****     lv_obj_set_style_grid_cell_column_span(obj, col_span, 0);
 167:lvgl/src/extra/layouts/grid/lv_grid.c ****     lv_obj_set_style_grid_cell_row_span(obj, row_span, 0);
 168:lvgl/src/extra/layouts/grid/lv_grid.c ****     lv_obj_set_style_grid_cell_y_align(obj, y_align, 0);
 169:lvgl/src/extra/layouts/grid/lv_grid.c **** 
 170:lvgl/src/extra/layouts/grid/lv_grid.c ****     lv_obj_mark_layout_as_dirty(lv_obj_get_parent(obj));
 171:lvgl/src/extra/layouts/grid/lv_grid.c **** }
 172:lvgl/src/extra/layouts/grid/lv_grid.c **** 
 173:lvgl/src/extra/layouts/grid/lv_grid.c **** void lv_style_set_grid_row_dsc_array(lv_style_t * style, const lv_coord_t value[])
 174:lvgl/src/extra/layouts/grid/lv_grid.c **** {
 175:lvgl/src/extra/layouts/grid/lv_grid.c ****     lv_style_value_t v = {
 176:lvgl/src/extra/layouts/grid/lv_grid.c ****         .ptr = (const void *)value
 177:lvgl/src/extra/layouts/grid/lv_grid.c ****     };
 178:lvgl/src/extra/layouts/grid/lv_grid.c ****     lv_style_set_prop(style, LV_STYLE_GRID_ROW_DSC_ARRAY, v);
 179:lvgl/src/extra/layouts/grid/lv_grid.c **** }
 180:lvgl/src/extra/layouts/grid/lv_grid.c **** 
 181:lvgl/src/extra/layouts/grid/lv_grid.c **** void lv_style_set_grid_column_dsc_array(lv_style_t * style, const lv_coord_t value[])
 182:lvgl/src/extra/layouts/grid/lv_grid.c **** {
 183:lvgl/src/extra/layouts/grid/lv_grid.c ****     lv_style_value_t v = {
 184:lvgl/src/extra/layouts/grid/lv_grid.c ****         .ptr = (const void *)value
 185:lvgl/src/extra/layouts/grid/lv_grid.c ****     };
 186:lvgl/src/extra/layouts/grid/lv_grid.c ****     lv_style_set_prop(style, LV_STYLE_GRID_COLUMN_DSC_ARRAY, v);
 187:lvgl/src/extra/layouts/grid/lv_grid.c **** }
 188:lvgl/src/extra/layouts/grid/lv_grid.c **** 
 189:lvgl/src/extra/layouts/grid/lv_grid.c **** void lv_style_set_grid_row_align(lv_style_t * style, lv_grid_align_t value)
 190:lvgl/src/extra/layouts/grid/lv_grid.c **** {
 191:lvgl/src/extra/layouts/grid/lv_grid.c ****     lv_style_value_t v = {
 192:lvgl/src/extra/layouts/grid/lv_grid.c ****         .num = (lv_grid_align_t)value
 193:lvgl/src/extra/layouts/grid/lv_grid.c ****     };
 194:lvgl/src/extra/layouts/grid/lv_grid.c ****     lv_style_set_prop(style, LV_STYLE_GRID_ROW_ALIGN, v);
 195:lvgl/src/extra/layouts/grid/lv_grid.c **** }
 196:lvgl/src/extra/layouts/grid/lv_grid.c **** 
 197:lvgl/src/extra/layouts/grid/lv_grid.c **** void lv_style_set_grid_column_align(lv_style_t * style, lv_grid_align_t value)
 198:lvgl/src/extra/layouts/grid/lv_grid.c **** {
 199:lvgl/src/extra/layouts/grid/lv_grid.c ****     lv_style_value_t v = {
 200:lvgl/src/extra/layouts/grid/lv_grid.c ****         .num = (lv_grid_align_t)value
 201:lvgl/src/extra/layouts/grid/lv_grid.c ****     };
 202:lvgl/src/extra/layouts/grid/lv_grid.c ****     lv_style_set_prop(style, LV_STYLE_GRID_COLUMN_ALIGN, v);
ARM GAS  C:\Users\OSD\AppData\Local\Temp\ccKYLEBM.s 			page 5


 203:lvgl/src/extra/layouts/grid/lv_grid.c **** }
 204:lvgl/src/extra/layouts/grid/lv_grid.c **** 
 205:lvgl/src/extra/layouts/grid/lv_grid.c **** void lv_style_set_grid_cell_column_pos(lv_style_t * style, lv_coord_t value)
 206:lvgl/src/extra/layouts/grid/lv_grid.c **** {
 207:lvgl/src/extra/layouts/grid/lv_grid.c ****     lv_style_value_t v = {
 208:lvgl/src/extra/layouts/grid/lv_grid.c ****         .num = value
 209:lvgl/src/extra/layouts/grid/lv_grid.c ****     };
 210:lvgl/src/extra/layouts/grid/lv_grid.c ****     lv_style_set_prop(style, LV_STYLE_GRID_CELL_COLUMN_POS, v);
 211:lvgl/src/extra/layouts/grid/lv_grid.c **** }
 212:lvgl/src/extra/layouts/grid/lv_grid.c **** 
 213:lvgl/src/extra/layouts/grid/lv_grid.c **** void lv_style_set_grid_cell_column_span(lv_style_t * style, lv_coord_t value)
 214:lvgl/src/extra/layouts/grid/lv_grid.c **** {
 215:lvgl/src/extra/layouts/grid/lv_grid.c ****     lv_style_value_t v = {
 216:lvgl/src/extra/layouts/grid/lv_grid.c ****         .num = value
 217:lvgl/src/extra/layouts/grid/lv_grid.c ****     };
 218:lvgl/src/extra/layouts/grid/lv_grid.c ****     lv_style_set_prop(style, LV_STYLE_GRID_CELL_COLUMN_SPAN, v);
 219:lvgl/src/extra/layouts/grid/lv_grid.c **** }
 220:lvgl/src/extra/layouts/grid/lv_grid.c **** 
 221:lvgl/src/extra/layouts/grid/lv_grid.c **** void lv_style_set_grid_cell_row_pos(lv_style_t * style, lv_coord_t value)
 222:lvgl/src/extra/layouts/grid/lv_grid.c **** {
 223:lvgl/src/extra/layouts/grid/lv_grid.c ****     lv_style_value_t v = {
 224:lvgl/src/extra/layouts/grid/lv_grid.c ****         .num = value
 225:lvgl/src/extra/layouts/grid/lv_grid.c ****     };
 226:lvgl/src/extra/layouts/grid/lv_grid.c ****     lv_style_set_prop(style, LV_STYLE_GRID_CELL_ROW_POS, v);
 227:lvgl/src/extra/layouts/grid/lv_grid.c **** }
 228:lvgl/src/extra/layouts/grid/lv_grid.c **** 
 229:lvgl/src/extra/layouts/grid/lv_grid.c **** void lv_style_set_grid_cell_row_span(lv_style_t * style, lv_coord_t value)
 230:lvgl/src/extra/layouts/grid/lv_grid.c **** {
 231:lvgl/src/extra/layouts/grid/lv_grid.c ****     lv_style_value_t v = {
 232:lvgl/src/extra/layouts/grid/lv_grid.c ****         .num = value
 233:lvgl/src/extra/layouts/grid/lv_grid.c ****     };
 234:lvgl/src/extra/layouts/grid/lv_grid.c ****     lv_style_set_prop(style, LV_STYLE_GRID_CELL_ROW_SPAN, v);
 235:lvgl/src/extra/layouts/grid/lv_grid.c **** }
 236:lvgl/src/extra/layouts/grid/lv_grid.c **** 
 237:lvgl/src/extra/layouts/grid/lv_grid.c **** void lv_style_set_grid_cell_x_align(lv_style_t * style, lv_coord_t value)
 238:lvgl/src/extra/layouts/grid/lv_grid.c **** {
 239:lvgl/src/extra/layouts/grid/lv_grid.c ****     lv_style_value_t v = {
 240:lvgl/src/extra/layouts/grid/lv_grid.c ****         .num = value
 241:lvgl/src/extra/layouts/grid/lv_grid.c ****     };
 242:lvgl/src/extra/layouts/grid/lv_grid.c ****     lv_style_set_prop(style, LV_STYLE_GRID_CELL_X_ALIGN, v);
 243:lvgl/src/extra/layouts/grid/lv_grid.c **** }
 244:lvgl/src/extra/layouts/grid/lv_grid.c **** 
 245:lvgl/src/extra/layouts/grid/lv_grid.c **** void lv_style_set_grid_cell_y_align(lv_style_t * style, lv_coord_t value)
 246:lvgl/src/extra/layouts/grid/lv_grid.c **** {
 247:lvgl/src/extra/layouts/grid/lv_grid.c ****     lv_style_value_t v = {
 248:lvgl/src/extra/layouts/grid/lv_grid.c ****         .num = value
 249:lvgl/src/extra/layouts/grid/lv_grid.c ****     };
 250:lvgl/src/extra/layouts/grid/lv_grid.c ****     lv_style_set_prop(style, LV_STYLE_GRID_CELL_Y_ALIGN, v);
 251:lvgl/src/extra/layouts/grid/lv_grid.c **** }
 252:lvgl/src/extra/layouts/grid/lv_grid.c **** 
 253:lvgl/src/extra/layouts/grid/lv_grid.c **** void lv_obj_set_style_grid_row_dsc_array(lv_obj_t * obj, const lv_coord_t value[], lv_style_selecto
 254:lvgl/src/extra/layouts/grid/lv_grid.c **** {
 255:lvgl/src/extra/layouts/grid/lv_grid.c ****     lv_style_value_t v = {
 256:lvgl/src/extra/layouts/grid/lv_grid.c ****         .ptr = (const void *)value
 257:lvgl/src/extra/layouts/grid/lv_grid.c ****     };
 258:lvgl/src/extra/layouts/grid/lv_grid.c ****     lv_obj_set_local_style_prop(obj, LV_STYLE_GRID_ROW_DSC_ARRAY, v, selector);
 259:lvgl/src/extra/layouts/grid/lv_grid.c **** }
ARM GAS  C:\Users\OSD\AppData\Local\Temp\ccKYLEBM.s 			page 6


 260:lvgl/src/extra/layouts/grid/lv_grid.c **** 
 261:lvgl/src/extra/layouts/grid/lv_grid.c **** void lv_obj_set_style_grid_column_dsc_array(lv_obj_t * obj, const lv_coord_t value[], lv_style_sele
 262:lvgl/src/extra/layouts/grid/lv_grid.c **** {
 263:lvgl/src/extra/layouts/grid/lv_grid.c ****     lv_style_value_t v = {
 264:lvgl/src/extra/layouts/grid/lv_grid.c ****         .ptr = (const void *)value
 265:lvgl/src/extra/layouts/grid/lv_grid.c ****     };
 266:lvgl/src/extra/layouts/grid/lv_grid.c ****     lv_obj_set_local_style_prop(obj, LV_STYLE_GRID_COLUMN_DSC_ARRAY, v, selector);
 267:lvgl/src/extra/layouts/grid/lv_grid.c **** }
 268:lvgl/src/extra/layouts/grid/lv_grid.c **** 
 269:lvgl/src/extra/layouts/grid/lv_grid.c **** void lv_obj_set_style_grid_row_align(lv_obj_t * obj, lv_grid_align_t value, lv_style_selector_t sel
 270:lvgl/src/extra/layouts/grid/lv_grid.c **** {
 271:lvgl/src/extra/layouts/grid/lv_grid.c ****     lv_style_value_t v = {
 272:lvgl/src/extra/layouts/grid/lv_grid.c ****         .num = (int32_t) value
 273:lvgl/src/extra/layouts/grid/lv_grid.c ****     };
 274:lvgl/src/extra/layouts/grid/lv_grid.c ****     lv_obj_set_local_style_prop(obj, LV_STYLE_GRID_ROW_ALIGN, v, selector);
 275:lvgl/src/extra/layouts/grid/lv_grid.c **** }
 276:lvgl/src/extra/layouts/grid/lv_grid.c **** 
 277:lvgl/src/extra/layouts/grid/lv_grid.c **** void lv_obj_set_style_grid_column_align(lv_obj_t * obj, lv_grid_align_t value, lv_style_selector_t 
 278:lvgl/src/extra/layouts/grid/lv_grid.c **** {
 279:lvgl/src/extra/layouts/grid/lv_grid.c ****     lv_style_value_t v = {
 280:lvgl/src/extra/layouts/grid/lv_grid.c ****         .num = (int32_t) value
 281:lvgl/src/extra/layouts/grid/lv_grid.c ****     };
 282:lvgl/src/extra/layouts/grid/lv_grid.c ****     lv_obj_set_local_style_prop(obj, LV_STYLE_GRID_COLUMN_ALIGN, v, selector);
 283:lvgl/src/extra/layouts/grid/lv_grid.c **** }
 284:lvgl/src/extra/layouts/grid/lv_grid.c **** 
 285:lvgl/src/extra/layouts/grid/lv_grid.c **** void lv_obj_set_style_grid_cell_column_pos(lv_obj_t * obj, lv_coord_t value, lv_style_selector_t se
 286:lvgl/src/extra/layouts/grid/lv_grid.c **** {
 287:lvgl/src/extra/layouts/grid/lv_grid.c ****     lv_style_value_t v = {
 288:lvgl/src/extra/layouts/grid/lv_grid.c ****         .num = value
 289:lvgl/src/extra/layouts/grid/lv_grid.c ****     };
 290:lvgl/src/extra/layouts/grid/lv_grid.c ****     lv_obj_set_local_style_prop(obj, LV_STYLE_GRID_CELL_COLUMN_POS, v, selector);
 291:lvgl/src/extra/layouts/grid/lv_grid.c **** }
 292:lvgl/src/extra/layouts/grid/lv_grid.c **** 
 293:lvgl/src/extra/layouts/grid/lv_grid.c **** void lv_obj_set_style_grid_cell_column_span(lv_obj_t * obj, lv_coord_t value, lv_style_selector_t s
 294:lvgl/src/extra/layouts/grid/lv_grid.c **** {
 295:lvgl/src/extra/layouts/grid/lv_grid.c ****     lv_style_value_t v = {
 296:lvgl/src/extra/layouts/grid/lv_grid.c ****         .num = value
 297:lvgl/src/extra/layouts/grid/lv_grid.c ****     };
 298:lvgl/src/extra/layouts/grid/lv_grid.c ****     lv_obj_set_local_style_prop(obj, LV_STYLE_GRID_CELL_COLUMN_SPAN, v, selector);
 299:lvgl/src/extra/layouts/grid/lv_grid.c **** }
 300:lvgl/src/extra/layouts/grid/lv_grid.c **** 
 301:lvgl/src/extra/layouts/grid/lv_grid.c **** void lv_obj_set_style_grid_cell_row_pos(lv_obj_t * obj, lv_coord_t value, lv_style_selector_t selec
 302:lvgl/src/extra/layouts/grid/lv_grid.c **** {
 303:lvgl/src/extra/layouts/grid/lv_grid.c ****     lv_style_value_t v = {
 304:lvgl/src/extra/layouts/grid/lv_grid.c ****         .num = value
 305:lvgl/src/extra/layouts/grid/lv_grid.c ****     };
 306:lvgl/src/extra/layouts/grid/lv_grid.c ****     lv_obj_set_local_style_prop(obj, LV_STYLE_GRID_CELL_ROW_POS, v, selector);
 307:lvgl/src/extra/layouts/grid/lv_grid.c **** }
 308:lvgl/src/extra/layouts/grid/lv_grid.c **** 
 309:lvgl/src/extra/layouts/grid/lv_grid.c **** void lv_obj_set_style_grid_cell_row_span(lv_obj_t * obj, lv_coord_t value, lv_style_selector_t sele
 310:lvgl/src/extra/layouts/grid/lv_grid.c **** {
 311:lvgl/src/extra/layouts/grid/lv_grid.c ****     lv_style_value_t v = {
 312:lvgl/src/extra/layouts/grid/lv_grid.c ****         .num = value
 313:lvgl/src/extra/layouts/grid/lv_grid.c ****     };
 314:lvgl/src/extra/layouts/grid/lv_grid.c ****     lv_obj_set_local_style_prop(obj, LV_STYLE_GRID_CELL_ROW_SPAN, v, selector);
 315:lvgl/src/extra/layouts/grid/lv_grid.c **** }
 316:lvgl/src/extra/layouts/grid/lv_grid.c **** 
ARM GAS  C:\Users\OSD\AppData\Local\Temp\ccKYLEBM.s 			page 7


 317:lvgl/src/extra/layouts/grid/lv_grid.c **** void lv_obj_set_style_grid_cell_x_align(lv_obj_t * obj, lv_coord_t value, lv_style_selector_t selec
 318:lvgl/src/extra/layouts/grid/lv_grid.c **** {
 319:lvgl/src/extra/layouts/grid/lv_grid.c ****     lv_style_value_t v = {
 320:lvgl/src/extra/layouts/grid/lv_grid.c ****         .num = value
 321:lvgl/src/extra/layouts/grid/lv_grid.c ****     };
 322:lvgl/src/extra/layouts/grid/lv_grid.c ****     lv_obj_set_local_style_prop(obj, LV_STYLE_GRID_CELL_X_ALIGN, v, selector);
 323:lvgl/src/extra/layouts/grid/lv_grid.c **** }
 324:lvgl/src/extra/layouts/grid/lv_grid.c **** 
 325:lvgl/src/extra/layouts/grid/lv_grid.c **** void lv_obj_set_style_grid_cell_y_align(lv_obj_t * obj, lv_coord_t value, lv_style_selector_t selec
 326:lvgl/src/extra/layouts/grid/lv_grid.c **** {
 327:lvgl/src/extra/layouts/grid/lv_grid.c ****     lv_style_value_t v = {
 328:lvgl/src/extra/layouts/grid/lv_grid.c ****         .num = value
 329:lvgl/src/extra/layouts/grid/lv_grid.c ****     };
 330:lvgl/src/extra/layouts/grid/lv_grid.c ****     lv_obj_set_local_style_prop(obj, LV_STYLE_GRID_CELL_Y_ALIGN, v, selector);
 331:lvgl/src/extra/layouts/grid/lv_grid.c **** }
 332:lvgl/src/extra/layouts/grid/lv_grid.c **** 
 333:lvgl/src/extra/layouts/grid/lv_grid.c **** /**********************
 334:lvgl/src/extra/layouts/grid/lv_grid.c ****  *   STATIC FUNCTIONS
 335:lvgl/src/extra/layouts/grid/lv_grid.c ****  **********************/
 336:lvgl/src/extra/layouts/grid/lv_grid.c **** 
 337:lvgl/src/extra/layouts/grid/lv_grid.c **** static void grid_update(lv_obj_t * cont, void * user_data)
 338:lvgl/src/extra/layouts/grid/lv_grid.c **** {
 339:lvgl/src/extra/layouts/grid/lv_grid.c ****     LV_LOG_INFO("update %p container", (void *)cont);
 340:lvgl/src/extra/layouts/grid/lv_grid.c ****     LV_UNUSED(user_data);
 341:lvgl/src/extra/layouts/grid/lv_grid.c **** 
 342:lvgl/src/extra/layouts/grid/lv_grid.c ****     const lv_coord_t * col_templ = get_col_dsc(cont);
 343:lvgl/src/extra/layouts/grid/lv_grid.c ****     const lv_coord_t * row_templ = get_row_dsc(cont);
 344:lvgl/src/extra/layouts/grid/lv_grid.c ****     if(col_templ == NULL || row_templ == NULL) return;
 345:lvgl/src/extra/layouts/grid/lv_grid.c **** 
 346:lvgl/src/extra/layouts/grid/lv_grid.c ****     _lv_grid_calc_t c;
 347:lvgl/src/extra/layouts/grid/lv_grid.c ****     calc(cont, &c);
 348:lvgl/src/extra/layouts/grid/lv_grid.c **** 
 349:lvgl/src/extra/layouts/grid/lv_grid.c ****     item_repos_hint_t hint;
 350:lvgl/src/extra/layouts/grid/lv_grid.c ****     lv_memset_00(&hint, sizeof(hint));
 351:lvgl/src/extra/layouts/grid/lv_grid.c **** 
 352:lvgl/src/extra/layouts/grid/lv_grid.c ****     /*Calculate the grids absolute x and y coordinates.
 353:lvgl/src/extra/layouts/grid/lv_grid.c ****      *It will be used as helper during item repositioning to avoid calculating this value for every
 354:lvgl/src/extra/layouts/grid/lv_grid.c ****     lv_coord_t border_widt = lv_obj_get_style_border_width(cont, LV_PART_MAIN);
 355:lvgl/src/extra/layouts/grid/lv_grid.c ****     lv_coord_t pad_left = lv_obj_get_style_pad_left(cont, LV_PART_MAIN) + border_widt;
 356:lvgl/src/extra/layouts/grid/lv_grid.c ****     lv_coord_t pad_top = lv_obj_get_style_pad_top(cont, LV_PART_MAIN) + border_widt;
 357:lvgl/src/extra/layouts/grid/lv_grid.c ****     hint.grid_abs.x = pad_left + cont->coords.x1 - lv_obj_get_scroll_x(cont);
 358:lvgl/src/extra/layouts/grid/lv_grid.c ****     hint.grid_abs.y = pad_top + cont->coords.y1 - lv_obj_get_scroll_y(cont);
 359:lvgl/src/extra/layouts/grid/lv_grid.c **** 
 360:lvgl/src/extra/layouts/grid/lv_grid.c ****     uint32_t i;
 361:lvgl/src/extra/layouts/grid/lv_grid.c ****     for(i = 0; i < cont->spec_attr->child_cnt; i++) {
 362:lvgl/src/extra/layouts/grid/lv_grid.c ****         lv_obj_t * item = cont->spec_attr->children[i];
 363:lvgl/src/extra/layouts/grid/lv_grid.c ****         item_repos(item, &c, &hint);
 364:lvgl/src/extra/layouts/grid/lv_grid.c ****     }
 365:lvgl/src/extra/layouts/grid/lv_grid.c ****     calc_free(&c);
 366:lvgl/src/extra/layouts/grid/lv_grid.c **** 
 367:lvgl/src/extra/layouts/grid/lv_grid.c ****     lv_coord_t w_set = lv_obj_get_style_width(cont, LV_PART_MAIN);
 368:lvgl/src/extra/layouts/grid/lv_grid.c ****     lv_coord_t h_set = lv_obj_get_style_height(cont, LV_PART_MAIN);
 369:lvgl/src/extra/layouts/grid/lv_grid.c ****     if(w_set == LV_SIZE_CONTENT || h_set == LV_SIZE_CONTENT) {
 370:lvgl/src/extra/layouts/grid/lv_grid.c ****         lv_obj_refr_size(cont);
 371:lvgl/src/extra/layouts/grid/lv_grid.c ****     }
 372:lvgl/src/extra/layouts/grid/lv_grid.c **** 
 373:lvgl/src/extra/layouts/grid/lv_grid.c ****     lv_event_send(cont, LV_EVENT_LAYOUT_CHANGED, NULL);
ARM GAS  C:\Users\OSD\AppData\Local\Temp\ccKYLEBM.s 			page 8


 374:lvgl/src/extra/layouts/grid/lv_grid.c **** 
 375:lvgl/src/extra/layouts/grid/lv_grid.c ****     LV_TRACE_LAYOUT("finished");
 376:lvgl/src/extra/layouts/grid/lv_grid.c **** }
 377:lvgl/src/extra/layouts/grid/lv_grid.c **** 
 378:lvgl/src/extra/layouts/grid/lv_grid.c **** /**
 379:lvgl/src/extra/layouts/grid/lv_grid.c ****  * Calculate the grid cells coordinates
 380:lvgl/src/extra/layouts/grid/lv_grid.c ****  * @param cont an object that has a grid
 381:lvgl/src/extra/layouts/grid/lv_grid.c ****  * @param calc store the calculated cells sizes here
 382:lvgl/src/extra/layouts/grid/lv_grid.c ****  * @note `_lv_grid_calc_free(calc_out)` needs to be called when `calc_out` is not needed anymore
 383:lvgl/src/extra/layouts/grid/lv_grid.c ****  */
 384:lvgl/src/extra/layouts/grid/lv_grid.c **** static void calc(lv_obj_t * cont, _lv_grid_calc_t * calc_out)
 385:lvgl/src/extra/layouts/grid/lv_grid.c **** {
 386:lvgl/src/extra/layouts/grid/lv_grid.c ****     if(lv_obj_get_child(cont, 0) == NULL) {
 387:lvgl/src/extra/layouts/grid/lv_grid.c ****         lv_memset_00(calc_out, sizeof(_lv_grid_calc_t));
 388:lvgl/src/extra/layouts/grid/lv_grid.c ****         return;
 389:lvgl/src/extra/layouts/grid/lv_grid.c ****     }
 390:lvgl/src/extra/layouts/grid/lv_grid.c **** 
 391:lvgl/src/extra/layouts/grid/lv_grid.c ****     calc_rows(cont, calc_out);
 392:lvgl/src/extra/layouts/grid/lv_grid.c ****     calc_cols(cont, calc_out);
 393:lvgl/src/extra/layouts/grid/lv_grid.c **** 
 394:lvgl/src/extra/layouts/grid/lv_grid.c ****     lv_coord_t col_gap = lv_obj_get_style_pad_column(cont, LV_PART_MAIN);
 395:lvgl/src/extra/layouts/grid/lv_grid.c ****     lv_coord_t row_gap = lv_obj_get_style_pad_row(cont, LV_PART_MAIN);
 396:lvgl/src/extra/layouts/grid/lv_grid.c **** 
 397:lvgl/src/extra/layouts/grid/lv_grid.c ****     bool rev = lv_obj_get_style_base_dir(cont, LV_PART_MAIN) == LV_BASE_DIR_RTL ? true : false;
 398:lvgl/src/extra/layouts/grid/lv_grid.c **** 
 399:lvgl/src/extra/layouts/grid/lv_grid.c ****     lv_coord_t w_set = lv_obj_get_style_width(cont, LV_PART_MAIN);
 400:lvgl/src/extra/layouts/grid/lv_grid.c ****     lv_coord_t h_set = lv_obj_get_style_height(cont, LV_PART_MAIN);
 401:lvgl/src/extra/layouts/grid/lv_grid.c ****     bool auto_w = (w_set == LV_SIZE_CONTENT && !cont->w_layout) ? true : false;
 402:lvgl/src/extra/layouts/grid/lv_grid.c ****     lv_coord_t cont_w = lv_obj_get_content_width(cont);
 403:lvgl/src/extra/layouts/grid/lv_grid.c ****     calc_out->grid_w = grid_align(cont_w, auto_w, get_grid_col_align(cont), col_gap, calc_out->col_
 404:lvgl/src/extra/layouts/grid/lv_grid.c ****                                   calc_out->x, rev);
 405:lvgl/src/extra/layouts/grid/lv_grid.c **** 
 406:lvgl/src/extra/layouts/grid/lv_grid.c ****     bool auto_h = (h_set == LV_SIZE_CONTENT && !cont->h_layout) ? true : false;
 407:lvgl/src/extra/layouts/grid/lv_grid.c ****     lv_coord_t cont_h = lv_obj_get_content_height(cont);
 408:lvgl/src/extra/layouts/grid/lv_grid.c ****     calc_out->grid_h = grid_align(cont_h, auto_h, get_grid_row_align(cont), row_gap, calc_out->row_
 409:lvgl/src/extra/layouts/grid/lv_grid.c ****                                   calc_out->y, false);
 410:lvgl/src/extra/layouts/grid/lv_grid.c **** 
 411:lvgl/src/extra/layouts/grid/lv_grid.c ****     LV_ASSERT_MEM_INTEGRITY();
 412:lvgl/src/extra/layouts/grid/lv_grid.c **** }
 413:lvgl/src/extra/layouts/grid/lv_grid.c **** 
 414:lvgl/src/extra/layouts/grid/lv_grid.c **** /**
 415:lvgl/src/extra/layouts/grid/lv_grid.c ****  * Free the a grid calculation's data
 416:lvgl/src/extra/layouts/grid/lv_grid.c ****  * @param calc pointer to the calculated grid cell coordinates
 417:lvgl/src/extra/layouts/grid/lv_grid.c ****  */
 418:lvgl/src/extra/layouts/grid/lv_grid.c **** static void calc_free(_lv_grid_calc_t * calc)
 419:lvgl/src/extra/layouts/grid/lv_grid.c **** {
 420:lvgl/src/extra/layouts/grid/lv_grid.c ****     lv_mem_buf_release(calc->x);
 421:lvgl/src/extra/layouts/grid/lv_grid.c ****     lv_mem_buf_release(calc->y);
 422:lvgl/src/extra/layouts/grid/lv_grid.c ****     lv_mem_buf_release(calc->w);
 423:lvgl/src/extra/layouts/grid/lv_grid.c ****     lv_mem_buf_release(calc->h);
 424:lvgl/src/extra/layouts/grid/lv_grid.c **** }
 425:lvgl/src/extra/layouts/grid/lv_grid.c **** 
 426:lvgl/src/extra/layouts/grid/lv_grid.c **** static void calc_cols(lv_obj_t * cont, _lv_grid_calc_t * c)
 427:lvgl/src/extra/layouts/grid/lv_grid.c **** {
 428:lvgl/src/extra/layouts/grid/lv_grid.c ****     const lv_coord_t * col_templ = get_col_dsc(cont);
 429:lvgl/src/extra/layouts/grid/lv_grid.c ****     lv_coord_t cont_w = lv_obj_get_content_width(cont);
 430:lvgl/src/extra/layouts/grid/lv_grid.c **** 
ARM GAS  C:\Users\OSD\AppData\Local\Temp\ccKYLEBM.s 			page 9


 431:lvgl/src/extra/layouts/grid/lv_grid.c ****     c->col_num = count_tracks(col_templ);
 432:lvgl/src/extra/layouts/grid/lv_grid.c ****     c->x = lv_mem_buf_get(sizeof(lv_coord_t) * c->col_num);
 433:lvgl/src/extra/layouts/grid/lv_grid.c ****     c->w = lv_mem_buf_get(sizeof(lv_coord_t) * c->col_num);
 434:lvgl/src/extra/layouts/grid/lv_grid.c **** 
 435:lvgl/src/extra/layouts/grid/lv_grid.c ****     /*Set sizes for CONTENT cells*/
 436:lvgl/src/extra/layouts/grid/lv_grid.c ****     uint32_t i;
 437:lvgl/src/extra/layouts/grid/lv_grid.c ****     for(i = 0; i < c->col_num; i++) {
 438:lvgl/src/extra/layouts/grid/lv_grid.c ****         lv_coord_t size = LV_COORD_MIN;
 439:lvgl/src/extra/layouts/grid/lv_grid.c ****         if(IS_CONTENT(col_templ[i])) {
 440:lvgl/src/extra/layouts/grid/lv_grid.c ****             /*Check the size of children of this cell*/
 441:lvgl/src/extra/layouts/grid/lv_grid.c ****             uint32_t ci;
 442:lvgl/src/extra/layouts/grid/lv_grid.c ****             for(ci = 0; ci < lv_obj_get_child_cnt(cont); ci++) {
 443:lvgl/src/extra/layouts/grid/lv_grid.c ****                 lv_obj_t * item = lv_obj_get_child(cont, ci);
 444:lvgl/src/extra/layouts/grid/lv_grid.c ****                 if(lv_obj_has_flag_any(item, LV_OBJ_FLAG_IGNORE_LAYOUT | LV_OBJ_FLAG_HIDDEN | LV_OB
 445:lvgl/src/extra/layouts/grid/lv_grid.c ****                 uint32_t col_span = get_col_span(item);
 446:lvgl/src/extra/layouts/grid/lv_grid.c ****                 if(col_span != 1) continue;
 447:lvgl/src/extra/layouts/grid/lv_grid.c **** 
 448:lvgl/src/extra/layouts/grid/lv_grid.c ****                 uint32_t col_pos = get_col_pos(item);
 449:lvgl/src/extra/layouts/grid/lv_grid.c ****                 if(col_pos != i) continue;
 450:lvgl/src/extra/layouts/grid/lv_grid.c **** 
 451:lvgl/src/extra/layouts/grid/lv_grid.c ****                 size = LV_MAX(size, lv_obj_get_width(item));
 452:lvgl/src/extra/layouts/grid/lv_grid.c ****             }
 453:lvgl/src/extra/layouts/grid/lv_grid.c ****             if(size >= 0) c->w[i] = size;
 454:lvgl/src/extra/layouts/grid/lv_grid.c ****             else c->w[i] = 0;
 455:lvgl/src/extra/layouts/grid/lv_grid.c ****         }
 456:lvgl/src/extra/layouts/grid/lv_grid.c ****     }
 457:lvgl/src/extra/layouts/grid/lv_grid.c **** 
 458:lvgl/src/extra/layouts/grid/lv_grid.c ****     uint32_t col_fr_cnt = 0;
 459:lvgl/src/extra/layouts/grid/lv_grid.c ****     lv_coord_t grid_w = 0;
 460:lvgl/src/extra/layouts/grid/lv_grid.c **** 
 461:lvgl/src/extra/layouts/grid/lv_grid.c ****     for(i = 0; i < c->col_num; i++) {
 462:lvgl/src/extra/layouts/grid/lv_grid.c ****         lv_coord_t x = col_templ[i];
 463:lvgl/src/extra/layouts/grid/lv_grid.c ****         if(IS_FR(x)) {
 464:lvgl/src/extra/layouts/grid/lv_grid.c ****             col_fr_cnt += GET_FR(x);
 465:lvgl/src/extra/layouts/grid/lv_grid.c ****         }
 466:lvgl/src/extra/layouts/grid/lv_grid.c ****         else if(IS_CONTENT(x)) {
 467:lvgl/src/extra/layouts/grid/lv_grid.c ****             grid_w += c->w[i];
 468:lvgl/src/extra/layouts/grid/lv_grid.c ****         }
 469:lvgl/src/extra/layouts/grid/lv_grid.c ****         else {
 470:lvgl/src/extra/layouts/grid/lv_grid.c ****             c->w[i] = x;
 471:lvgl/src/extra/layouts/grid/lv_grid.c ****             grid_w += x;
 472:lvgl/src/extra/layouts/grid/lv_grid.c ****         }
 473:lvgl/src/extra/layouts/grid/lv_grid.c ****     }
 474:lvgl/src/extra/layouts/grid/lv_grid.c **** 
 475:lvgl/src/extra/layouts/grid/lv_grid.c ****     lv_coord_t col_gap = lv_obj_get_style_pad_column(cont, LV_PART_MAIN);
 476:lvgl/src/extra/layouts/grid/lv_grid.c ****     cont_w -= col_gap * (c->col_num - 1);
 477:lvgl/src/extra/layouts/grid/lv_grid.c ****     lv_coord_t free_w = cont_w - grid_w;
 478:lvgl/src/extra/layouts/grid/lv_grid.c ****     if(free_w < 0) free_w = 0;
 479:lvgl/src/extra/layouts/grid/lv_grid.c **** 
 480:lvgl/src/extra/layouts/grid/lv_grid.c ****     int32_t last_fr_i = -1;
 481:lvgl/src/extra/layouts/grid/lv_grid.c ****     int32_t last_fr_x = 0;
 482:lvgl/src/extra/layouts/grid/lv_grid.c ****     for(i = 0; i < c->col_num; i++) {
 483:lvgl/src/extra/layouts/grid/lv_grid.c ****         lv_coord_t x = col_templ[i];
 484:lvgl/src/extra/layouts/grid/lv_grid.c ****         if(IS_FR(x)) {
 485:lvgl/src/extra/layouts/grid/lv_grid.c ****             lv_coord_t f = GET_FR(x);
 486:lvgl/src/extra/layouts/grid/lv_grid.c ****             c->w[i] = (free_w * f) / col_fr_cnt;
 487:lvgl/src/extra/layouts/grid/lv_grid.c ****             last_fr_i = i;
ARM GAS  C:\Users\OSD\AppData\Local\Temp\ccKYLEBM.s 			page 10


 488:lvgl/src/extra/layouts/grid/lv_grid.c ****             last_fr_x = f;
 489:lvgl/src/extra/layouts/grid/lv_grid.c ****         }
 490:lvgl/src/extra/layouts/grid/lv_grid.c ****     }
 491:lvgl/src/extra/layouts/grid/lv_grid.c **** 
 492:lvgl/src/extra/layouts/grid/lv_grid.c ****     /*To avoid rounding errors set the last FR track to the remaining size */
 493:lvgl/src/extra/layouts/grid/lv_grid.c ****     if(last_fr_i >= 0) {
 494:lvgl/src/extra/layouts/grid/lv_grid.c ****         c->w[last_fr_i] = free_w - ((free_w * (col_fr_cnt - last_fr_x)) / col_fr_cnt);
 495:lvgl/src/extra/layouts/grid/lv_grid.c ****     }
 496:lvgl/src/extra/layouts/grid/lv_grid.c **** }
 497:lvgl/src/extra/layouts/grid/lv_grid.c **** 
 498:lvgl/src/extra/layouts/grid/lv_grid.c **** static void calc_rows(lv_obj_t * cont, _lv_grid_calc_t * c)
 499:lvgl/src/extra/layouts/grid/lv_grid.c **** {
 500:lvgl/src/extra/layouts/grid/lv_grid.c ****     uint32_t i;
 501:lvgl/src/extra/layouts/grid/lv_grid.c ****     const lv_coord_t * row_templ = get_row_dsc(cont);
 502:lvgl/src/extra/layouts/grid/lv_grid.c ****     c->row_num = count_tracks(row_templ);
 503:lvgl/src/extra/layouts/grid/lv_grid.c ****     c->y = lv_mem_buf_get(sizeof(lv_coord_t) * c->row_num);
 504:lvgl/src/extra/layouts/grid/lv_grid.c ****     c->h = lv_mem_buf_get(sizeof(lv_coord_t) * c->row_num);
 505:lvgl/src/extra/layouts/grid/lv_grid.c ****     /*Set sizes for CONTENT cells*/
 506:lvgl/src/extra/layouts/grid/lv_grid.c ****     for(i = 0; i < c->row_num; i++) {
 507:lvgl/src/extra/layouts/grid/lv_grid.c ****         lv_coord_t size = LV_COORD_MIN;
 508:lvgl/src/extra/layouts/grid/lv_grid.c ****         if(IS_CONTENT(row_templ[i])) {
 509:lvgl/src/extra/layouts/grid/lv_grid.c ****             /*Check the size of children of this cell*/
 510:lvgl/src/extra/layouts/grid/lv_grid.c ****             uint32_t ci;
 511:lvgl/src/extra/layouts/grid/lv_grid.c ****             for(ci = 0; ci < lv_obj_get_child_cnt(cont); ci++) {
 512:lvgl/src/extra/layouts/grid/lv_grid.c ****                 lv_obj_t * item = lv_obj_get_child(cont, ci);
 513:lvgl/src/extra/layouts/grid/lv_grid.c ****                 if(lv_obj_has_flag_any(item, LV_OBJ_FLAG_IGNORE_LAYOUT | LV_OBJ_FLAG_HIDDEN | LV_OB
 514:lvgl/src/extra/layouts/grid/lv_grid.c ****                 uint32_t row_span = get_row_span(item);
 515:lvgl/src/extra/layouts/grid/lv_grid.c ****                 if(row_span != 1) continue;
 516:lvgl/src/extra/layouts/grid/lv_grid.c **** 
 517:lvgl/src/extra/layouts/grid/lv_grid.c ****                 uint32_t row_pos = get_row_pos(item);
 518:lvgl/src/extra/layouts/grid/lv_grid.c ****                 if(row_pos != i) continue;
 519:lvgl/src/extra/layouts/grid/lv_grid.c **** 
 520:lvgl/src/extra/layouts/grid/lv_grid.c ****                 size = LV_MAX(size, lv_obj_get_height(item));
 521:lvgl/src/extra/layouts/grid/lv_grid.c ****             }
 522:lvgl/src/extra/layouts/grid/lv_grid.c ****             if(size >= 0) c->h[i] = size;
 523:lvgl/src/extra/layouts/grid/lv_grid.c ****             else c->h[i] = 0;
 524:lvgl/src/extra/layouts/grid/lv_grid.c ****         }
 525:lvgl/src/extra/layouts/grid/lv_grid.c ****     }
 526:lvgl/src/extra/layouts/grid/lv_grid.c **** 
 527:lvgl/src/extra/layouts/grid/lv_grid.c ****     uint32_t row_fr_cnt = 0;
 528:lvgl/src/extra/layouts/grid/lv_grid.c ****     lv_coord_t grid_h = 0;
 529:lvgl/src/extra/layouts/grid/lv_grid.c **** 
 530:lvgl/src/extra/layouts/grid/lv_grid.c ****     for(i = 0; i < c->row_num; i++) {
 531:lvgl/src/extra/layouts/grid/lv_grid.c ****         lv_coord_t x = row_templ[i];
 532:lvgl/src/extra/layouts/grid/lv_grid.c ****         if(IS_FR(x)) {
 533:lvgl/src/extra/layouts/grid/lv_grid.c ****             row_fr_cnt += GET_FR(x);
 534:lvgl/src/extra/layouts/grid/lv_grid.c ****         }
 535:lvgl/src/extra/layouts/grid/lv_grid.c ****         else if(IS_CONTENT(x)) {
 536:lvgl/src/extra/layouts/grid/lv_grid.c ****             grid_h += c->h[i];
 537:lvgl/src/extra/layouts/grid/lv_grid.c ****         }
 538:lvgl/src/extra/layouts/grid/lv_grid.c ****         else {
 539:lvgl/src/extra/layouts/grid/lv_grid.c ****             c->h[i] = x;
 540:lvgl/src/extra/layouts/grid/lv_grid.c ****             grid_h += x;
 541:lvgl/src/extra/layouts/grid/lv_grid.c ****         }
 542:lvgl/src/extra/layouts/grid/lv_grid.c ****     }
 543:lvgl/src/extra/layouts/grid/lv_grid.c **** 
 544:lvgl/src/extra/layouts/grid/lv_grid.c ****     lv_coord_t row_gap = lv_obj_get_style_pad_row(cont, LV_PART_MAIN);
ARM GAS  C:\Users\OSD\AppData\Local\Temp\ccKYLEBM.s 			page 11


 545:lvgl/src/extra/layouts/grid/lv_grid.c ****     lv_coord_t cont_h = lv_obj_get_content_height(cont) - row_gap * (c->row_num - 1);
 546:lvgl/src/extra/layouts/grid/lv_grid.c ****     lv_coord_t free_h = cont_h - grid_h;
 547:lvgl/src/extra/layouts/grid/lv_grid.c ****     if(free_h < 0) free_h = 0;
 548:lvgl/src/extra/layouts/grid/lv_grid.c **** 
 549:lvgl/src/extra/layouts/grid/lv_grid.c ****     int32_t last_fr_i = -1;
 550:lvgl/src/extra/layouts/grid/lv_grid.c ****     int32_t last_fr_x = 0;
 551:lvgl/src/extra/layouts/grid/lv_grid.c ****     for(i = 0; i < c->row_num; i++) {
 552:lvgl/src/extra/layouts/grid/lv_grid.c ****         lv_coord_t x = row_templ[i];
 553:lvgl/src/extra/layouts/grid/lv_grid.c ****         if(IS_FR(x)) {
 554:lvgl/src/extra/layouts/grid/lv_grid.c ****             lv_coord_t f = GET_FR(x);
 555:lvgl/src/extra/layouts/grid/lv_grid.c ****             c->h[i] = (free_h * f) / row_fr_cnt;
 556:lvgl/src/extra/layouts/grid/lv_grid.c ****             last_fr_i = i;
 557:lvgl/src/extra/layouts/grid/lv_grid.c ****             last_fr_x = f;
 558:lvgl/src/extra/layouts/grid/lv_grid.c ****         }
 559:lvgl/src/extra/layouts/grid/lv_grid.c ****     }
 560:lvgl/src/extra/layouts/grid/lv_grid.c **** 
 561:lvgl/src/extra/layouts/grid/lv_grid.c ****     /*To avoid rounding errors set the last FR track to the remaining size */
 562:lvgl/src/extra/layouts/grid/lv_grid.c ****     if(last_fr_i >= 0) {
 563:lvgl/src/extra/layouts/grid/lv_grid.c ****         c->h[last_fr_i] = free_h - ((free_h * (row_fr_cnt - last_fr_x)) / row_fr_cnt);
 564:lvgl/src/extra/layouts/grid/lv_grid.c ****     }
 565:lvgl/src/extra/layouts/grid/lv_grid.c **** }
 566:lvgl/src/extra/layouts/grid/lv_grid.c **** 
 567:lvgl/src/extra/layouts/grid/lv_grid.c **** /**
 568:lvgl/src/extra/layouts/grid/lv_grid.c ****  * Reposition a grid item in its cell
 569:lvgl/src/extra/layouts/grid/lv_grid.c ****  * @param item a grid item to reposition
 570:lvgl/src/extra/layouts/grid/lv_grid.c ****  * @param calc the calculated grid of `cont`
 571:lvgl/src/extra/layouts/grid/lv_grid.c ****  * @param child_id_ext helper value if the ID of the child is know (order from the oldest) else -1
 572:lvgl/src/extra/layouts/grid/lv_grid.c ****  * @param grid_abs helper value, the absolute position of the grid, NULL if unknown
 573:lvgl/src/extra/layouts/grid/lv_grid.c ****  */
 574:lvgl/src/extra/layouts/grid/lv_grid.c **** static void item_repos(lv_obj_t * item, _lv_grid_calc_t * c, item_repos_hint_t * hint)
 575:lvgl/src/extra/layouts/grid/lv_grid.c **** {
 576:lvgl/src/extra/layouts/grid/lv_grid.c ****     if(lv_obj_has_flag_any(item, LV_OBJ_FLAG_IGNORE_LAYOUT | LV_OBJ_FLAG_HIDDEN | LV_OBJ_FLAG_FLOAT
 577:lvgl/src/extra/layouts/grid/lv_grid.c ****     uint32_t col_span = get_col_span(item);
 578:lvgl/src/extra/layouts/grid/lv_grid.c ****     uint32_t row_span = get_row_span(item);
 579:lvgl/src/extra/layouts/grid/lv_grid.c ****     if(row_span == 0 || col_span == 0) return;
 580:lvgl/src/extra/layouts/grid/lv_grid.c **** 
 581:lvgl/src/extra/layouts/grid/lv_grid.c ****     uint32_t col_pos = get_col_pos(item);
 582:lvgl/src/extra/layouts/grid/lv_grid.c ****     uint32_t row_pos = get_row_pos(item);
 583:lvgl/src/extra/layouts/grid/lv_grid.c ****     lv_grid_align_t col_align = get_cell_col_align(item);
 584:lvgl/src/extra/layouts/grid/lv_grid.c ****     lv_grid_align_t row_align = get_cell_row_align(item);
 585:lvgl/src/extra/layouts/grid/lv_grid.c **** 
 586:lvgl/src/extra/layouts/grid/lv_grid.c ****     lv_coord_t col_x1 = c->x[col_pos];
 587:lvgl/src/extra/layouts/grid/lv_grid.c ****     lv_coord_t col_x2 = c->x[col_pos + col_span - 1] + c->w[col_pos + col_span - 1];
 588:lvgl/src/extra/layouts/grid/lv_grid.c ****     lv_coord_t col_w = col_x2 - col_x1;
 589:lvgl/src/extra/layouts/grid/lv_grid.c **** 
 590:lvgl/src/extra/layouts/grid/lv_grid.c ****     lv_coord_t row_y1 = c->y[row_pos];
 591:lvgl/src/extra/layouts/grid/lv_grid.c ****     lv_coord_t row_y2 = c->y[row_pos + row_span - 1] + c->h[row_pos + row_span - 1];
 592:lvgl/src/extra/layouts/grid/lv_grid.c ****     lv_coord_t row_h = row_y2 - row_y1;
 593:lvgl/src/extra/layouts/grid/lv_grid.c **** 
 594:lvgl/src/extra/layouts/grid/lv_grid.c ****     /*If the item has RTL base dir switch start and end*/
 595:lvgl/src/extra/layouts/grid/lv_grid.c ****     if(lv_obj_get_style_base_dir(item, LV_PART_MAIN) == LV_BASE_DIR_RTL) {
 596:lvgl/src/extra/layouts/grid/lv_grid.c ****         if(col_align == LV_GRID_ALIGN_START) col_align = LV_GRID_ALIGN_END;
 597:lvgl/src/extra/layouts/grid/lv_grid.c ****         else if(col_align == LV_GRID_ALIGN_END) col_align = LV_GRID_ALIGN_START;
 598:lvgl/src/extra/layouts/grid/lv_grid.c ****     }
 599:lvgl/src/extra/layouts/grid/lv_grid.c **** 
 600:lvgl/src/extra/layouts/grid/lv_grid.c ****     lv_coord_t x;
 601:lvgl/src/extra/layouts/grid/lv_grid.c ****     lv_coord_t y;
ARM GAS  C:\Users\OSD\AppData\Local\Temp\ccKYLEBM.s 			page 12


 602:lvgl/src/extra/layouts/grid/lv_grid.c ****     lv_coord_t item_w = lv_area_get_width(&item->coords);
 603:lvgl/src/extra/layouts/grid/lv_grid.c ****     lv_coord_t item_h = lv_area_get_height(&item->coords);
 604:lvgl/src/extra/layouts/grid/lv_grid.c **** 
 605:lvgl/src/extra/layouts/grid/lv_grid.c ****     switch(col_align) {
 606:lvgl/src/extra/layouts/grid/lv_grid.c ****         default:
 607:lvgl/src/extra/layouts/grid/lv_grid.c ****         case LV_GRID_ALIGN_START:
 608:lvgl/src/extra/layouts/grid/lv_grid.c ****             x = c->x[col_pos];
 609:lvgl/src/extra/layouts/grid/lv_grid.c ****             item->w_layout = 0;
 610:lvgl/src/extra/layouts/grid/lv_grid.c ****             break;
 611:lvgl/src/extra/layouts/grid/lv_grid.c ****         case LV_GRID_ALIGN_STRETCH:
 612:lvgl/src/extra/layouts/grid/lv_grid.c ****             x = c->x[col_pos];
 613:lvgl/src/extra/layouts/grid/lv_grid.c ****             item_w = col_w;
 614:lvgl/src/extra/layouts/grid/lv_grid.c ****             item->w_layout = 1;
 615:lvgl/src/extra/layouts/grid/lv_grid.c ****             break;
 616:lvgl/src/extra/layouts/grid/lv_grid.c ****         case LV_GRID_ALIGN_CENTER:
 617:lvgl/src/extra/layouts/grid/lv_grid.c ****             x = c->x[col_pos] + (col_w - item_w) / 2;
 618:lvgl/src/extra/layouts/grid/lv_grid.c ****             item->w_layout = 0;
 619:lvgl/src/extra/layouts/grid/lv_grid.c ****             break;
 620:lvgl/src/extra/layouts/grid/lv_grid.c ****         case LV_GRID_ALIGN_END:
 621:lvgl/src/extra/layouts/grid/lv_grid.c ****             x = c->x[col_pos] + col_w - lv_obj_get_width(item);
 622:lvgl/src/extra/layouts/grid/lv_grid.c ****             item->w_layout = 0;
 623:lvgl/src/extra/layouts/grid/lv_grid.c ****             break;
 624:lvgl/src/extra/layouts/grid/lv_grid.c ****     }
 625:lvgl/src/extra/layouts/grid/lv_grid.c **** 
 626:lvgl/src/extra/layouts/grid/lv_grid.c ****     switch(row_align) {
 627:lvgl/src/extra/layouts/grid/lv_grid.c ****         default:
 628:lvgl/src/extra/layouts/grid/lv_grid.c ****         case LV_GRID_ALIGN_START:
 629:lvgl/src/extra/layouts/grid/lv_grid.c ****             y = c->y[row_pos];
 630:lvgl/src/extra/layouts/grid/lv_grid.c ****             item->h_layout = 0;
 631:lvgl/src/extra/layouts/grid/lv_grid.c ****             break;
 632:lvgl/src/extra/layouts/grid/lv_grid.c ****         case LV_GRID_ALIGN_STRETCH:
 633:lvgl/src/extra/layouts/grid/lv_grid.c ****             y = c->y[row_pos];
 634:lvgl/src/extra/layouts/grid/lv_grid.c ****             item_h = row_h;
 635:lvgl/src/extra/layouts/grid/lv_grid.c ****             item->h_layout = 1;
 636:lvgl/src/extra/layouts/grid/lv_grid.c ****             break;
 637:lvgl/src/extra/layouts/grid/lv_grid.c ****         case LV_GRID_ALIGN_CENTER:
 638:lvgl/src/extra/layouts/grid/lv_grid.c ****             y = c->y[row_pos] + (row_h - item_h) / 2;
 639:lvgl/src/extra/layouts/grid/lv_grid.c ****             item->h_layout = 0;
 640:lvgl/src/extra/layouts/grid/lv_grid.c ****             break;
 641:lvgl/src/extra/layouts/grid/lv_grid.c ****         case LV_GRID_ALIGN_END:
 642:lvgl/src/extra/layouts/grid/lv_grid.c ****             y = c->y[row_pos] + row_h - lv_obj_get_height(item);
 643:lvgl/src/extra/layouts/grid/lv_grid.c ****             item->h_layout = 0;
 644:lvgl/src/extra/layouts/grid/lv_grid.c ****             break;
 645:lvgl/src/extra/layouts/grid/lv_grid.c ****     }
 646:lvgl/src/extra/layouts/grid/lv_grid.c **** 
 647:lvgl/src/extra/layouts/grid/lv_grid.c ****     /*Set a new size if required*/
 648:lvgl/src/extra/layouts/grid/lv_grid.c ****     if(lv_obj_get_width(item) != item_w || lv_obj_get_height(item) != item_h) {
 649:lvgl/src/extra/layouts/grid/lv_grid.c ****         lv_area_t old_coords;
 650:lvgl/src/extra/layouts/grid/lv_grid.c ****         lv_area_copy(&old_coords, &item->coords);
 651:lvgl/src/extra/layouts/grid/lv_grid.c ****         lv_obj_invalidate(item);
 652:lvgl/src/extra/layouts/grid/lv_grid.c ****         lv_area_set_width(&item->coords, item_w);
 653:lvgl/src/extra/layouts/grid/lv_grid.c ****         lv_area_set_height(&item->coords, item_h);
 654:lvgl/src/extra/layouts/grid/lv_grid.c ****         lv_obj_invalidate(item);
 655:lvgl/src/extra/layouts/grid/lv_grid.c ****         lv_event_send(item, LV_EVENT_SIZE_CHANGED, &old_coords);
 656:lvgl/src/extra/layouts/grid/lv_grid.c ****         lv_event_send(lv_obj_get_parent(item), LV_EVENT_CHILD_CHANGED, item);
 657:lvgl/src/extra/layouts/grid/lv_grid.c **** 
 658:lvgl/src/extra/layouts/grid/lv_grid.c ****     }
ARM GAS  C:\Users\OSD\AppData\Local\Temp\ccKYLEBM.s 			page 13


 659:lvgl/src/extra/layouts/grid/lv_grid.c **** 
 660:lvgl/src/extra/layouts/grid/lv_grid.c ****     /*Handle percentage value of translate*/
 661:lvgl/src/extra/layouts/grid/lv_grid.c ****     lv_coord_t tr_x = lv_obj_get_style_translate_x(item, LV_PART_MAIN);
 662:lvgl/src/extra/layouts/grid/lv_grid.c ****     lv_coord_t tr_y = lv_obj_get_style_translate_y(item, LV_PART_MAIN);
 663:lvgl/src/extra/layouts/grid/lv_grid.c ****     lv_coord_t w = lv_obj_get_width(item);
 664:lvgl/src/extra/layouts/grid/lv_grid.c ****     lv_coord_t h = lv_obj_get_height(item);
 665:lvgl/src/extra/layouts/grid/lv_grid.c ****     if(LV_COORD_IS_PCT(tr_x)) tr_x = (w * LV_COORD_GET_PCT(tr_x)) / 100;
 666:lvgl/src/extra/layouts/grid/lv_grid.c ****     if(LV_COORD_IS_PCT(tr_y)) tr_y = (h * LV_COORD_GET_PCT(tr_y)) / 100;
 667:lvgl/src/extra/layouts/grid/lv_grid.c **** 
 668:lvgl/src/extra/layouts/grid/lv_grid.c ****     x += tr_x;
 669:lvgl/src/extra/layouts/grid/lv_grid.c ****     y += tr_y;
 670:lvgl/src/extra/layouts/grid/lv_grid.c **** 
 671:lvgl/src/extra/layouts/grid/lv_grid.c ****     lv_coord_t diff_x = hint->grid_abs.x + x - item->coords.x1;
 672:lvgl/src/extra/layouts/grid/lv_grid.c ****     lv_coord_t diff_y = hint->grid_abs.y + y - item->coords.y1;
 673:lvgl/src/extra/layouts/grid/lv_grid.c ****     if(diff_x || diff_y) {
 674:lvgl/src/extra/layouts/grid/lv_grid.c ****         lv_obj_invalidate(item);
 675:lvgl/src/extra/layouts/grid/lv_grid.c ****         item->coords.x1 += diff_x;
 676:lvgl/src/extra/layouts/grid/lv_grid.c ****         item->coords.x2 += diff_x;
 677:lvgl/src/extra/layouts/grid/lv_grid.c ****         item->coords.y1 += diff_y;
 678:lvgl/src/extra/layouts/grid/lv_grid.c ****         item->coords.y2 += diff_y;
 679:lvgl/src/extra/layouts/grid/lv_grid.c ****         lv_obj_invalidate(item);
 680:lvgl/src/extra/layouts/grid/lv_grid.c ****         lv_obj_move_children_by(item, diff_x, diff_y, false);
 681:lvgl/src/extra/layouts/grid/lv_grid.c ****     }
 682:lvgl/src/extra/layouts/grid/lv_grid.c **** }
 683:lvgl/src/extra/layouts/grid/lv_grid.c **** 
 684:lvgl/src/extra/layouts/grid/lv_grid.c **** /**
 685:lvgl/src/extra/layouts/grid/lv_grid.c ****  * Place the grid track according to align methods. It keeps the track sizes but sets their positio
 686:lvgl/src/extra/layouts/grid/lv_grid.c ****  * It can process both columns or rows according to the passed parameters.
 687:lvgl/src/extra/layouts/grid/lv_grid.c ****  * @param cont_size size of the containers content area (width/height)
 688:lvgl/src/extra/layouts/grid/lv_grid.c ****  * @param auto_size true: the container has auto size in the current direction
 689:lvgl/src/extra/layouts/grid/lv_grid.c ****  * @param align align method
 690:lvgl/src/extra/layouts/grid/lv_grid.c ****  * @param gap grid gap
 691:lvgl/src/extra/layouts/grid/lv_grid.c ****  * @param track_num number of tracks
 692:lvgl/src/extra/layouts/grid/lv_grid.c ****  * @param size_array array with the track sizes
 693:lvgl/src/extra/layouts/grid/lv_grid.c ****  * @param pos_array write the positions of the tracks here
 694:lvgl/src/extra/layouts/grid/lv_grid.c ****  * @return the total size of the grid
 695:lvgl/src/extra/layouts/grid/lv_grid.c ****  */
 696:lvgl/src/extra/layouts/grid/lv_grid.c **** static lv_coord_t grid_align(lv_coord_t cont_size,  bool auto_size, uint8_t align, lv_coord_t gap, 
 697:lvgl/src/extra/layouts/grid/lv_grid.c ****                              lv_coord_t * size_array, lv_coord_t * pos_array, bool reverse)
 698:lvgl/src/extra/layouts/grid/lv_grid.c **** {
  28              		.loc 1 698 1 view -0
  29              		.cfi_startproc
  30              		@ args = 16, pretend = 0, frame = 0
  31              		@ frame_needed = 0, uses_anonymous_args = 0
  32              		.loc 1 698 1 is_stmt 0 view .LVU1
  33 0000 2DE9F041 		push	{r4, r5, r6, r7, r8, lr}
  34              		.cfi_def_cfa_offset 24
  35              		.cfi_offset 4, -24
  36              		.cfi_offset 5, -20
  37              		.cfi_offset 6, -16
  38              		.cfi_offset 7, -12
  39              		.cfi_offset 8, -8
  40              		.cfi_offset 14, -4
  41 0004 8446     		mov	ip, r0
  42 0006 069D     		ldr	r5, [sp, #24]
  43 0008 079E     		ldr	r6, [sp, #28]
  44 000a 089C     		ldr	r4, [sp, #32]
ARM GAS  C:\Users\OSD\AppData\Local\Temp\ccKYLEBM.s 			page 14


  45 000c 9DF82470 		ldrb	r7, [sp, #36]	@ zero_extendqisi2
 699:lvgl/src/extra/layouts/grid/lv_grid.c ****     lv_coord_t grid_size = 0;
  46              		.loc 1 699 5 is_stmt 1 view .LVU2
  47              	.LVL1:
 700:lvgl/src/extra/layouts/grid/lv_grid.c ****     uint32_t i;
  48              		.loc 1 700 5 view .LVU3
 701:lvgl/src/extra/layouts/grid/lv_grid.c **** 
 702:lvgl/src/extra/layouts/grid/lv_grid.c ****     if(auto_size) {
  49              		.loc 1 702 5 view .LVU4
  50              		.loc 1 702 7 is_stmt 0 view .LVU5
  51 0010 19B1     		cbz	r1, .L2
 703:lvgl/src/extra/layouts/grid/lv_grid.c ****         pos_array[0] = 0;
  52              		.loc 1 703 9 is_stmt 1 view .LVU6
  53              		.loc 1 703 22 is_stmt 0 view .LVU7
  54 0012 0022     		movs	r2, #0
  55              	.LVL2:
  56              		.loc 1 703 22 view .LVU8
  57 0014 2280     		strh	r2, [r4]	@ movhi
  58              	.LVL3:
  59              	.L3:
 704:lvgl/src/extra/layouts/grid/lv_grid.c ****     }
 705:lvgl/src/extra/layouts/grid/lv_grid.c ****     else {
 706:lvgl/src/extra/layouts/grid/lv_grid.c ****         /*With spaced alignment gap will be calculated from the remaining space*/
 707:lvgl/src/extra/layouts/grid/lv_grid.c ****         if(align == LV_GRID_ALIGN_SPACE_AROUND || align == LV_GRID_ALIGN_SPACE_BETWEEN || align == 
 708:lvgl/src/extra/layouts/grid/lv_grid.c ****             gap = 0;
 709:lvgl/src/extra/layouts/grid/lv_grid.c ****             if(track_num == 1) align = LV_GRID_ALIGN_CENTER;
 710:lvgl/src/extra/layouts/grid/lv_grid.c ****         }
 711:lvgl/src/extra/layouts/grid/lv_grid.c **** 
 712:lvgl/src/extra/layouts/grid/lv_grid.c ****         /*Get the full grid size with gap*/
 713:lvgl/src/extra/layouts/grid/lv_grid.c ****         for(i = 0; i < track_num; i++) {
 714:lvgl/src/extra/layouts/grid/lv_grid.c ****             grid_size += size_array[i] + gap;
 715:lvgl/src/extra/layouts/grid/lv_grid.c ****         }
 716:lvgl/src/extra/layouts/grid/lv_grid.c ****         grid_size -= gap;
 717:lvgl/src/extra/layouts/grid/lv_grid.c **** 
 718:lvgl/src/extra/layouts/grid/lv_grid.c ****         /*Calculate the position of the first item and set gap is necessary*/
 719:lvgl/src/extra/layouts/grid/lv_grid.c ****         switch(align) {
 720:lvgl/src/extra/layouts/grid/lv_grid.c ****             case LV_GRID_ALIGN_START:
 721:lvgl/src/extra/layouts/grid/lv_grid.c ****                 pos_array[0] = 0;
 722:lvgl/src/extra/layouts/grid/lv_grid.c ****                 break;
 723:lvgl/src/extra/layouts/grid/lv_grid.c ****             case LV_GRID_ALIGN_CENTER:
 724:lvgl/src/extra/layouts/grid/lv_grid.c ****                 pos_array[0] = (cont_size - grid_size) / 2;
 725:lvgl/src/extra/layouts/grid/lv_grid.c ****                 break;
 726:lvgl/src/extra/layouts/grid/lv_grid.c ****             case LV_GRID_ALIGN_END:
 727:lvgl/src/extra/layouts/grid/lv_grid.c ****                 pos_array[0] = cont_size - grid_size;
 728:lvgl/src/extra/layouts/grid/lv_grid.c ****                 break;
 729:lvgl/src/extra/layouts/grid/lv_grid.c ****             case LV_GRID_ALIGN_SPACE_BETWEEN:
 730:lvgl/src/extra/layouts/grid/lv_grid.c ****                 pos_array[0] = 0;
 731:lvgl/src/extra/layouts/grid/lv_grid.c ****                 gap = (lv_coord_t)(cont_size - grid_size) / (lv_coord_t)(track_num - 1);
 732:lvgl/src/extra/layouts/grid/lv_grid.c ****                 break;
 733:lvgl/src/extra/layouts/grid/lv_grid.c ****             case LV_GRID_ALIGN_SPACE_AROUND:
 734:lvgl/src/extra/layouts/grid/lv_grid.c ****                 gap = (lv_coord_t)(cont_size - grid_size) / (lv_coord_t)(track_num);
 735:lvgl/src/extra/layouts/grid/lv_grid.c ****                 pos_array[0] = gap / 2;
 736:lvgl/src/extra/layouts/grid/lv_grid.c ****                 break;
 737:lvgl/src/extra/layouts/grid/lv_grid.c ****             case LV_GRID_ALIGN_SPACE_EVENLY:
 738:lvgl/src/extra/layouts/grid/lv_grid.c ****                 gap = (lv_coord_t)(cont_size - grid_size) / (lv_coord_t)(track_num + 1);
 739:lvgl/src/extra/layouts/grid/lv_grid.c ****                 pos_array[0] = gap;
 740:lvgl/src/extra/layouts/grid/lv_grid.c ****                 break;
ARM GAS  C:\Users\OSD\AppData\Local\Temp\ccKYLEBM.s 			page 15


 741:lvgl/src/extra/layouts/grid/lv_grid.c **** 
 742:lvgl/src/extra/layouts/grid/lv_grid.c ****         }
 743:lvgl/src/extra/layouts/grid/lv_grid.c ****     }
 744:lvgl/src/extra/layouts/grid/lv_grid.c **** 
 745:lvgl/src/extra/layouts/grid/lv_grid.c ****     /*Set the position of all tracks from the start position, gaps and track sizes*/
 746:lvgl/src/extra/layouts/grid/lv_grid.c ****     for(i = 0; i < track_num - 1; i++) {
  60              		.loc 1 746 5 is_stmt 1 view .LVU9
  61              		.loc 1 746 11 is_stmt 0 view .LVU10
  62 0016 0022     		movs	r2, #0
  63              		.loc 1 746 5 view .LVU11
  64 0018 71E0     		b	.L16
  65              	.LVL4:
  66              	.L2:
 707:lvgl/src/extra/layouts/grid/lv_grid.c ****             gap = 0;
  67              		.loc 1 707 9 is_stmt 1 view .LVU12
 707:lvgl/src/extra/layouts/grid/lv_grid.c ****             gap = 0;
  68              		.loc 1 707 88 is_stmt 0 view .LVU13
  69 001a 111F     		subs	r1, r2, #4
  70              	.LVL5:
 707:lvgl/src/extra/layouts/grid/lv_grid.c ****             gap = 0;
  71              		.loc 1 707 88 view .LVU14
  72 001c C9B2     		uxtb	r1, r1
 707:lvgl/src/extra/layouts/grid/lv_grid.c ****             gap = 0;
  73              		.loc 1 707 11 view .LVU15
  74 001e 0229     		cmp	r1, #2
  75 0020 02D8     		bhi	.L4
 708:lvgl/src/extra/layouts/grid/lv_grid.c ****             if(track_num == 1) align = LV_GRID_ALIGN_CENTER;
  76              		.loc 1 708 13 is_stmt 1 view .LVU16
  77              	.LVL6:
 709:lvgl/src/extra/layouts/grid/lv_grid.c ****         }
  78              		.loc 1 709 13 view .LVU17
 709:lvgl/src/extra/layouts/grid/lv_grid.c ****         }
  79              		.loc 1 709 15 is_stmt 0 view .LVU18
  80 0022 012D     		cmp	r5, #1
  81 0024 0CD0     		beq	.L21
 708:lvgl/src/extra/layouts/grid/lv_grid.c ****             if(track_num == 1) align = LV_GRID_ALIGN_CENTER;
  82              		.loc 1 708 17 view .LVU19
  83 0026 0023     		movs	r3, #0
  84              	.LVL7:
  85              	.L4:
 713:lvgl/src/extra/layouts/grid/lv_grid.c ****             grid_size += size_array[i] + gap;
  86              		.loc 1 713 9 is_stmt 1 view .LVU20
 713:lvgl/src/extra/layouts/grid/lv_grid.c ****             grid_size += size_array[i] + gap;
  87              		.loc 1 713 15 is_stmt 0 view .LVU21
  88 0028 0020     		movs	r0, #0
  89              	.LVL8:
 699:lvgl/src/extra/layouts/grid/lv_grid.c ****     uint32_t i;
  90              		.loc 1 699 16 view .LVU22
  91 002a 0146     		mov	r1, r0
  92              	.LVL9:
  93              	.L5:
 713:lvgl/src/extra/layouts/grid/lv_grid.c ****             grid_size += size_array[i] + gap;
  94              		.loc 1 713 20 is_stmt 1 discriminator 1 view .LVU23
 713:lvgl/src/extra/layouts/grid/lv_grid.c ****             grid_size += size_array[i] + gap;
  95              		.loc 1 713 9 is_stmt 0 discriminator 1 view .LVU24
  96 002c A842     		cmp	r0, r5
  97 002e 0AD2     		bcs	.L24
ARM GAS  C:\Users\OSD\AppData\Local\Temp\ccKYLEBM.s 			page 16


 714:lvgl/src/extra/layouts/grid/lv_grid.c ****         }
  98              		.loc 1 714 13 is_stmt 1 discriminator 3 view .LVU25
 714:lvgl/src/extra/layouts/grid/lv_grid.c ****         }
  99              		.loc 1 714 36 is_stmt 0 discriminator 3 view .LVU26
 100 0030 36F810E0 		ldrh	lr, [r6, r0, lsl #1]
 714:lvgl/src/extra/layouts/grid/lv_grid.c ****         }
 101              		.loc 1 714 40 discriminator 3 view .LVU27
 102 0034 9E44     		add	lr, lr, r3
 714:lvgl/src/extra/layouts/grid/lv_grid.c ****         }
 103              		.loc 1 714 23 discriminator 3 view .LVU28
 104 0036 11FA8EF1 		uxtah	r1, r1, lr
 105              	.LVL10:
 714:lvgl/src/extra/layouts/grid/lv_grid.c ****         }
 106              		.loc 1 714 23 discriminator 3 view .LVU29
 107 003a 09B2     		sxth	r1, r1
 108              	.LVL11:
 713:lvgl/src/extra/layouts/grid/lv_grid.c ****             grid_size += size_array[i] + gap;
 109              		.loc 1 713 35 is_stmt 1 discriminator 3 view .LVU30
 713:lvgl/src/extra/layouts/grid/lv_grid.c ****             grid_size += size_array[i] + gap;
 110              		.loc 1 713 36 is_stmt 0 discriminator 3 view .LVU31
 111 003c 0130     		adds	r0, r0, #1
 112              	.LVL12:
 713:lvgl/src/extra/layouts/grid/lv_grid.c ****             grid_size += size_array[i] + gap;
 113              		.loc 1 713 36 discriminator 3 view .LVU32
 114 003e F5E7     		b	.L5
 115              	.LVL13:
 116              	.L21:
 708:lvgl/src/extra/layouts/grid/lv_grid.c ****             if(track_num == 1) align = LV_GRID_ALIGN_CENTER;
 117              		.loc 1 708 17 view .LVU33
 118 0040 0023     		movs	r3, #0
 709:lvgl/src/extra/layouts/grid/lv_grid.c ****         }
 119              		.loc 1 709 38 view .LVU34
 120 0042 0122     		movs	r2, #1
 121              	.LVL14:
 709:lvgl/src/extra/layouts/grid/lv_grid.c ****         }
 122              		.loc 1 709 38 view .LVU35
 123 0044 F0E7     		b	.L4
 124              	.LVL15:
 125              	.L24:
 716:lvgl/src/extra/layouts/grid/lv_grid.c **** 
 126              		.loc 1 716 9 is_stmt 1 view .LVU36
 716:lvgl/src/extra/layouts/grid/lv_grid.c **** 
 127              		.loc 1 716 19 is_stmt 0 view .LVU37
 128 0046 89B2     		uxth	r1, r1
 716:lvgl/src/extra/layouts/grid/lv_grid.c **** 
 129              		.loc 1 716 19 view .LVU38
 130 0048 98B2     		uxth	r0, r3
 131              	.LVL16:
 716:lvgl/src/extra/layouts/grid/lv_grid.c **** 
 132              		.loc 1 716 19 view .LVU39
 133 004a A1EB000E 		sub	lr, r1, r0
 134 004e 0FFA8EFE 		sxth	lr, lr
 135              	.LVL17:
 719:lvgl/src/extra/layouts/grid/lv_grid.c ****             case LV_GRID_ALIGN_START:
 136              		.loc 1 719 9 is_stmt 1 view .LVU40
 137 0052 062A     		cmp	r2, #6
 138 0054 DFD8     		bhi	.L3
ARM GAS  C:\Users\OSD\AppData\Local\Temp\ccKYLEBM.s 			page 17


 139 0056 0FF20808 		adr	r8, .L8
 140 005a 58F822F0 		ldr	pc, [r8, r2, lsl #2]
 141 005e 00BF     		.p2align 2
 142              	.L8:
 143 0060 7D000000 		.word	.L13+1
 144 0064 83000000 		.word	.L12+1
 145 0068 99000000 		.word	.L11+1
 146 006c 17000000 		.word	.L3+1
 147 0070 D7000000 		.word	.L10+1
 148 0074 B9000000 		.word	.L9+1
 149 0078 A3000000 		.word	.L7+1
 150              		.p2align 1
 151              	.L13:
 721:lvgl/src/extra/layouts/grid/lv_grid.c ****                 break;
 152              		.loc 1 721 17 view .LVU41
 721:lvgl/src/extra/layouts/grid/lv_grid.c ****                 break;
 153              		.loc 1 721 30 is_stmt 0 view .LVU42
 154 007c 0022     		movs	r2, #0
 155              	.LVL18:
 721:lvgl/src/extra/layouts/grid/lv_grid.c ****                 break;
 156              		.loc 1 721 30 view .LVU43
 157 007e 2280     		strh	r2, [r4]	@ movhi
 722:lvgl/src/extra/layouts/grid/lv_grid.c ****             case LV_GRID_ALIGN_CENTER:
 158              		.loc 1 722 17 is_stmt 1 view .LVU44
 159 0080 C9E7     		b	.L3
 160              	.LVL19:
 161              	.L12:
 724:lvgl/src/extra/layouts/grid/lv_grid.c ****                 break;
 162              		.loc 1 724 17 view .LVU45
 724:lvgl/src/extra/layouts/grid/lv_grid.c ****                 break;
 163              		.loc 1 724 56 is_stmt 0 view .LVU46
 164 0082 BCEB0E0E 		subs	lr, ip, lr
 165              	.LVL20:
 724:lvgl/src/extra/layouts/grid/lv_grid.c ****                 break;
 166              		.loc 1 724 56 view .LVU47
 167 0086 04D4     		bmi	.L25
 168              	.L14:
 169 0088 4FEA6E0E 		asr	lr, lr, #1
 724:lvgl/src/extra/layouts/grid/lv_grid.c ****                 break;
 170              		.loc 1 724 30 view .LVU48
 171 008c A4F800E0 		strh	lr, [r4]	@ movhi
 725:lvgl/src/extra/layouts/grid/lv_grid.c ****             case LV_GRID_ALIGN_END:
 172              		.loc 1 725 17 is_stmt 1 view .LVU49
 173 0090 C1E7     		b	.L3
 174              	.L25:
 724:lvgl/src/extra/layouts/grid/lv_grid.c ****                 break;
 175              		.loc 1 724 56 is_stmt 0 view .LVU50
 176 0092 0EF1010E 		add	lr, lr, #1
 177 0096 F7E7     		b	.L14
 178              	.LVL21:
 179              	.L11:
 727:lvgl/src/extra/layouts/grid/lv_grid.c ****                 break;
 180              		.loc 1 727 17 is_stmt 1 view .LVU51
 727:lvgl/src/extra/layouts/grid/lv_grid.c ****                 break;
 181              		.loc 1 727 42 is_stmt 0 view .LVU52
 182 0098 411A     		subs	r1, r0, r1
 183 009a 01EB0C02 		add	r2, r1, ip
ARM GAS  C:\Users\OSD\AppData\Local\Temp\ccKYLEBM.s 			page 18


 184              	.LVL22:
 727:lvgl/src/extra/layouts/grid/lv_grid.c ****                 break;
 185              		.loc 1 727 30 view .LVU53
 186 009e 2280     		strh	r2, [r4]	@ movhi
 728:lvgl/src/extra/layouts/grid/lv_grid.c ****             case LV_GRID_ALIGN_SPACE_BETWEEN:
 187              		.loc 1 728 17 is_stmt 1 view .LVU54
 188 00a0 B9E7     		b	.L3
 189              	.LVL23:
 190              	.L7:
 730:lvgl/src/extra/layouts/grid/lv_grid.c ****                 gap = (lv_coord_t)(cont_size - grid_size) / (lv_coord_t)(track_num - 1);
 191              		.loc 1 730 17 view .LVU55
 730:lvgl/src/extra/layouts/grid/lv_grid.c ****                 gap = (lv_coord_t)(cont_size - grid_size) / (lv_coord_t)(track_num - 1);
 192              		.loc 1 730 30 is_stmt 0 view .LVU56
 193 00a2 0023     		movs	r3, #0
 194              	.LVL24:
 730:lvgl/src/extra/layouts/grid/lv_grid.c ****                 gap = (lv_coord_t)(cont_size - grid_size) / (lv_coord_t)(track_num - 1);
 195              		.loc 1 730 30 view .LVU57
 196 00a4 2380     		strh	r3, [r4]	@ movhi
 731:lvgl/src/extra/layouts/grid/lv_grid.c ****                 break;
 197              		.loc 1 731 17 is_stmt 1 view .LVU58
 731:lvgl/src/extra/layouts/grid/lv_grid.c ****                 break;
 198              		.loc 1 731 46 is_stmt 0 view .LVU59
 199 00a6 431A     		subs	r3, r0, r1
 200 00a8 6344     		add	r3, r3, ip
 731:lvgl/src/extra/layouts/grid/lv_grid.c ****                 break;
 201              		.loc 1 731 23 view .LVU60
 202 00aa 1BB2     		sxth	r3, r3
 731:lvgl/src/extra/layouts/grid/lv_grid.c ****                 break;
 203              		.loc 1 731 84 view .LVU61
 204 00ac 6A1E     		subs	r2, r5, #1
 205              	.LVL25:
 731:lvgl/src/extra/layouts/grid/lv_grid.c ****                 break;
 206              		.loc 1 731 61 view .LVU62
 207 00ae 12B2     		sxth	r2, r2
 731:lvgl/src/extra/layouts/grid/lv_grid.c ****                 break;
 208              		.loc 1 731 59 view .LVU63
 209 00b0 93FBF2F3 		sdiv	r3, r3, r2
 731:lvgl/src/extra/layouts/grid/lv_grid.c ****                 break;
 210              		.loc 1 731 21 view .LVU64
 211 00b4 1BB2     		sxth	r3, r3
 212              	.LVL26:
 732:lvgl/src/extra/layouts/grid/lv_grid.c ****             case LV_GRID_ALIGN_SPACE_AROUND:
 213              		.loc 1 732 17 is_stmt 1 view .LVU65
 214 00b6 AEE7     		b	.L3
 215              	.LVL27:
 216              	.L9:
 734:lvgl/src/extra/layouts/grid/lv_grid.c ****                 pos_array[0] = gap / 2;
 217              		.loc 1 734 17 view .LVU66
 734:lvgl/src/extra/layouts/grid/lv_grid.c ****                 pos_array[0] = gap / 2;
 218              		.loc 1 734 46 is_stmt 0 view .LVU67
 219 00b8 431A     		subs	r3, r0, r1
 220              	.LVL28:
 734:lvgl/src/extra/layouts/grid/lv_grid.c ****                 pos_array[0] = gap / 2;
 221              		.loc 1 734 46 view .LVU68
 222 00ba 6344     		add	r3, r3, ip
 734:lvgl/src/extra/layouts/grid/lv_grid.c ****                 pos_array[0] = gap / 2;
 223              		.loc 1 734 23 view .LVU69
ARM GAS  C:\Users\OSD\AppData\Local\Temp\ccKYLEBM.s 			page 19


 224 00bc 1BB2     		sxth	r3, r3
 734:lvgl/src/extra/layouts/grid/lv_grid.c ****                 pos_array[0] = gap / 2;
 225              		.loc 1 734 61 view .LVU70
 226 00be 2AB2     		sxth	r2, r5
 227              	.LVL29:
 734:lvgl/src/extra/layouts/grid/lv_grid.c ****                 pos_array[0] = gap / 2;
 228              		.loc 1 734 59 view .LVU71
 229 00c0 93FBF2F3 		sdiv	r3, r3, r2
 734:lvgl/src/extra/layouts/grid/lv_grid.c ****                 pos_array[0] = gap / 2;
 230              		.loc 1 734 21 view .LVU72
 231 00c4 1BB2     		sxth	r3, r3
 232              	.LVL30:
 735:lvgl/src/extra/layouts/grid/lv_grid.c ****                 break;
 233              		.loc 1 735 17 is_stmt 1 view .LVU73
 735:lvgl/src/extra/layouts/grid/lv_grid.c ****                 break;
 234              		.loc 1 735 30 is_stmt 0 view .LVU74
 235 00c6 1A46     		mov	r2, r3
 236 00c8 002B     		cmp	r3, #0
 237 00ca 02DB     		blt	.L26
 238              	.L15:
 239 00cc 5210     		asrs	r2, r2, #1
 240 00ce 2280     		strh	r2, [r4]	@ movhi
 736:lvgl/src/extra/layouts/grid/lv_grid.c ****             case LV_GRID_ALIGN_SPACE_EVENLY:
 241              		.loc 1 736 17 is_stmt 1 view .LVU75
 242 00d0 A1E7     		b	.L3
 243              	.L26:
 735:lvgl/src/extra/layouts/grid/lv_grid.c ****                 break;
 244              		.loc 1 735 30 is_stmt 0 view .LVU76
 245 00d2 5A1C     		adds	r2, r3, #1
 246 00d4 FAE7     		b	.L15
 247              	.LVL31:
 248              	.L10:
 738:lvgl/src/extra/layouts/grid/lv_grid.c ****                 pos_array[0] = gap;
 249              		.loc 1 738 17 is_stmt 1 view .LVU77
 738:lvgl/src/extra/layouts/grid/lv_grid.c ****                 pos_array[0] = gap;
 250              		.loc 1 738 46 is_stmt 0 view .LVU78
 251 00d6 431A     		subs	r3, r0, r1
 252              	.LVL32:
 738:lvgl/src/extra/layouts/grid/lv_grid.c ****                 pos_array[0] = gap;
 253              		.loc 1 738 46 view .LVU79
 254 00d8 6344     		add	r3, r3, ip
 738:lvgl/src/extra/layouts/grid/lv_grid.c ****                 pos_array[0] = gap;
 255              		.loc 1 738 23 view .LVU80
 256 00da 1BB2     		sxth	r3, r3
 738:lvgl/src/extra/layouts/grid/lv_grid.c ****                 pos_array[0] = gap;
 257              		.loc 1 738 84 view .LVU81
 258 00dc 6A1C     		adds	r2, r5, #1
 259              	.LVL33:
 738:lvgl/src/extra/layouts/grid/lv_grid.c ****                 pos_array[0] = gap;
 260              		.loc 1 738 61 view .LVU82
 261 00de 12B2     		sxth	r2, r2
 738:lvgl/src/extra/layouts/grid/lv_grid.c ****                 pos_array[0] = gap;
 262              		.loc 1 738 59 view .LVU83
 263 00e0 93FBF2F3 		sdiv	r3, r3, r2
 738:lvgl/src/extra/layouts/grid/lv_grid.c ****                 pos_array[0] = gap;
 264              		.loc 1 738 21 view .LVU84
 265 00e4 1BB2     		sxth	r3, r3
ARM GAS  C:\Users\OSD\AppData\Local\Temp\ccKYLEBM.s 			page 20


 266              	.LVL34:
 739:lvgl/src/extra/layouts/grid/lv_grid.c ****                 break;
 267              		.loc 1 739 17 is_stmt 1 view .LVU85
 739:lvgl/src/extra/layouts/grid/lv_grid.c ****                 break;
 268              		.loc 1 739 30 is_stmt 0 view .LVU86
 269 00e6 2380     		strh	r3, [r4]	@ movhi
 740:lvgl/src/extra/layouts/grid/lv_grid.c **** 
 270              		.loc 1 740 17 is_stmt 1 view .LVU87
 271 00e8 95E7     		b	.L3
 272              	.LVL35:
 273              	.L17:
 747:lvgl/src/extra/layouts/grid/lv_grid.c ****         pos_array[i + 1] = pos_array[i] + size_array[i] + gap;
 274              		.loc 1 747 9 discriminator 3 view .LVU88
 275              		.loc 1 747 37 is_stmt 0 discriminator 3 view .LVU89
 276 00ea 34F81210 		ldrh	r1, [r4, r2, lsl #1]
 277              		.loc 1 747 53 discriminator 3 view .LVU90
 278 00ee 36F81200 		ldrh	r0, [r6, r2, lsl #1]
 279              		.loc 1 747 41 discriminator 3 view .LVU91
 280 00f2 0144     		add	r1, r1, r0
 281              		.loc 1 747 18 discriminator 3 view .LVU92
 282 00f4 0132     		adds	r2, r2, #1
 283              	.LVL36:
 284              		.loc 1 747 57 discriminator 3 view .LVU93
 285 00f6 13FA81F1 		uxtah	r1, r3, r1
 286              		.loc 1 747 26 discriminator 3 view .LVU94
 287 00fa 24F81210 		strh	r1, [r4, r2, lsl #1]	@ movhi
 746:lvgl/src/extra/layouts/grid/lv_grid.c ****         pos_array[i + 1] = pos_array[i] + size_array[i] + gap;
 288              		.loc 1 746 35 is_stmt 1 discriminator 3 view .LVU95
 289              	.LVL37:
 290              	.L16:
 746:lvgl/src/extra/layouts/grid/lv_grid.c ****         pos_array[i + 1] = pos_array[i] + size_array[i] + gap;
 291              		.loc 1 746 16 discriminator 1 view .LVU96
 746:lvgl/src/extra/layouts/grid/lv_grid.c ****         pos_array[i + 1] = pos_array[i] + size_array[i] + gap;
 292              		.loc 1 746 30 is_stmt 0 discriminator 1 view .LVU97
 293 00fe 691E     		subs	r1, r5, #1
 746:lvgl/src/extra/layouts/grid/lv_grid.c ****         pos_array[i + 1] = pos_array[i] + size_array[i] + gap;
 294              		.loc 1 746 5 discriminator 1 view .LVU98
 295 0100 9142     		cmp	r1, r2
 296 0102 F2D8     		bhi	.L17
 748:lvgl/src/extra/layouts/grid/lv_grid.c ****     }
 749:lvgl/src/extra/layouts/grid/lv_grid.c **** 
 750:lvgl/src/extra/layouts/grid/lv_grid.c ****     lv_coord_t total_gird_size = pos_array[track_num - 1] + size_array[track_num - 1] - pos_array[0
 297              		.loc 1 750 5 is_stmt 1 view .LVU99
 298              		.loc 1 750 43 is_stmt 0 view .LVU100
 299 0104 6FF00043 		mvn	r3, #-2147483648
 300              	.LVL38:
 301              		.loc 1 750 43 view .LVU101
 302 0108 2B44     		add	r3, r3, r5
 303 010a 34F81300 		ldrh	r0, [r4, r3, lsl #1]
 304              		.loc 1 750 71 view .LVU102
 305 010e 36F81330 		ldrh	r3, [r6, r3, lsl #1]
 306              		.loc 1 750 59 view .LVU103
 307 0112 1844     		add	r0, r0, r3
 308 0114 80B2     		uxth	r0, r0
 309              		.loc 1 750 98 view .LVU104
 310 0116 2388     		ldrh	r3, [r4]
 311              		.loc 1 750 87 view .LVU105
ARM GAS  C:\Users\OSD\AppData\Local\Temp\ccKYLEBM.s 			page 21


 312 0118 C01A     		subs	r0, r0, r3
 313              		.loc 1 750 16 view .LVU106
 314 011a 00B2     		sxth	r0, r0
 315              	.LVL39:
 751:lvgl/src/extra/layouts/grid/lv_grid.c **** 
 752:lvgl/src/extra/layouts/grid/lv_grid.c ****     if(reverse) {
 316              		.loc 1 752 5 is_stmt 1 view .LVU107
 317              		.loc 1 752 7 is_stmt 0 view .LVU108
 318 011c 0FB9     		cbnz	r7, .L22
 319              	.L19:
 753:lvgl/src/extra/layouts/grid/lv_grid.c ****         for(i = 0; i < track_num; i++) {
 754:lvgl/src/extra/layouts/grid/lv_grid.c ****             pos_array[i] = cont_size - pos_array[i] - size_array[i];
 755:lvgl/src/extra/layouts/grid/lv_grid.c ****         }
 756:lvgl/src/extra/layouts/grid/lv_grid.c **** 
 757:lvgl/src/extra/layouts/grid/lv_grid.c ****     }
 758:lvgl/src/extra/layouts/grid/lv_grid.c **** 
 759:lvgl/src/extra/layouts/grid/lv_grid.c ****     /*Return the full size of the grid*/
 760:lvgl/src/extra/layouts/grid/lv_grid.c ****     return total_gird_size;
 320              		.loc 1 760 5 is_stmt 1 view .LVU109
 761:lvgl/src/extra/layouts/grid/lv_grid.c **** }
 321              		.loc 1 761 1 is_stmt 0 view .LVU110
 322 011e BDE8F081 		pop	{r4, r5, r6, r7, r8, pc}
 323              	.LVL40:
 324              	.L22:
 753:lvgl/src/extra/layouts/grid/lv_grid.c ****         for(i = 0; i < track_num; i++) {
 325              		.loc 1 753 15 view .LVU111
 326 0122 0022     		movs	r2, #0
 327              	.LVL41:
 328              	.L18:
 753:lvgl/src/extra/layouts/grid/lv_grid.c ****         for(i = 0; i < track_num; i++) {
 329              		.loc 1 753 20 is_stmt 1 discriminator 1 view .LVU112
 753:lvgl/src/extra/layouts/grid/lv_grid.c ****         for(i = 0; i < track_num; i++) {
 330              		.loc 1 753 9 is_stmt 0 discriminator 1 view .LVU113
 331 0124 AA42     		cmp	r2, r5
 332 0126 FAD2     		bcs	.L19
 754:lvgl/src/extra/layouts/grid/lv_grid.c ****         }
 333              		.loc 1 754 13 is_stmt 1 discriminator 3 view .LVU114
 754:lvgl/src/extra/layouts/grid/lv_grid.c ****         }
 334              		.loc 1 754 49 is_stmt 0 discriminator 3 view .LVU115
 335 0128 34F81230 		ldrh	r3, [r4, r2, lsl #1]
 754:lvgl/src/extra/layouts/grid/lv_grid.c ****         }
 336              		.loc 1 754 38 discriminator 3 view .LVU116
 337 012c ACEB0303 		sub	r3, ip, r3
 338 0130 9BB2     		uxth	r3, r3
 754:lvgl/src/extra/layouts/grid/lv_grid.c ****         }
 339              		.loc 1 754 65 discriminator 3 view .LVU117
 340 0132 36F81210 		ldrh	r1, [r6, r2, lsl #1]
 754:lvgl/src/extra/layouts/grid/lv_grid.c ****         }
 341              		.loc 1 754 53 discriminator 3 view .LVU118
 342 0136 5B1A     		subs	r3, r3, r1
 754:lvgl/src/extra/layouts/grid/lv_grid.c ****         }
 343              		.loc 1 754 26 discriminator 3 view .LVU119
 344 0138 24F81230 		strh	r3, [r4, r2, lsl #1]	@ movhi
 753:lvgl/src/extra/layouts/grid/lv_grid.c ****         for(i = 0; i < track_num; i++) {
 345              		.loc 1 753 35 is_stmt 1 discriminator 3 view .LVU120
 753:lvgl/src/extra/layouts/grid/lv_grid.c ****         for(i = 0; i < track_num; i++) {
 346              		.loc 1 753 36 is_stmt 0 discriminator 3 view .LVU121
ARM GAS  C:\Users\OSD\AppData\Local\Temp\ccKYLEBM.s 			page 22


 347 013c 0132     		adds	r2, r2, #1
 348              	.LVL42:
 753:lvgl/src/extra/layouts/grid/lv_grid.c ****         for(i = 0; i < track_num; i++) {
 349              		.loc 1 753 36 discriminator 3 view .LVU122
 350 013e F1E7     		b	.L18
 351              		.cfi_endproc
 352              	.LFE217:
 354              		.section	.text.count_tracks,"ax",%progbits
 355              		.align	1
 356              		.syntax unified
 357              		.thumb
 358              		.thumb_func
 360              	count_tracks:
 361              	.LVL43:
 362              	.LFB218:
 762:lvgl/src/extra/layouts/grid/lv_grid.c **** 
 763:lvgl/src/extra/layouts/grid/lv_grid.c **** static uint32_t count_tracks(const lv_coord_t * templ)
 764:lvgl/src/extra/layouts/grid/lv_grid.c **** {
 363              		.loc 1 764 1 is_stmt 1 view -0
 364              		.cfi_startproc
 365              		@ args = 0, pretend = 0, frame = 0
 366              		@ frame_needed = 0, uses_anonymous_args = 0
 367              		@ link register save eliminated.
 368              		.loc 1 764 1 is_stmt 0 view .LVU124
 369 0000 0146     		mov	r1, r0
 765:lvgl/src/extra/layouts/grid/lv_grid.c ****     uint32_t i;
 370              		.loc 1 765 5 is_stmt 1 view .LVU125
 766:lvgl/src/extra/layouts/grid/lv_grid.c ****     for(i = 0; templ[i] != LV_GRID_TEMPLATE_LAST; i++);
 371              		.loc 1 766 5 view .LVU126
 372              	.LVL44:
 373              		.loc 1 766 11 is_stmt 0 view .LVU127
 374 0002 0020     		movs	r0, #0
 375              	.LVL45:
 376              		.loc 1 766 5 view .LVU128
 377 0004 00E0     		b	.L28
 378              	.LVL46:
 379              	.L29:
 380              		.loc 1 766 55 is_stmt 1 discriminator 3 view .LVU129
 381              		.loc 1 766 51 discriminator 3 view .LVU130
 382              		.loc 1 766 52 is_stmt 0 discriminator 3 view .LVU131
 383 0006 0130     		adds	r0, r0, #1
 384              	.LVL47:
 385              	.L28:
 386              		.loc 1 766 16 is_stmt 1 discriminator 1 view .LVU132
 387              		.loc 1 766 21 is_stmt 0 discriminator 1 view .LVU133
 388 0008 31F91020 		ldrsh	r2, [r1, r0, lsl #1]
 389              		.loc 1 766 5 discriminator 1 view .LVU134
 390 000c 41F6FF73 		movw	r3, #8191
 391 0010 9A42     		cmp	r2, r3
 392 0012 F8D1     		bne	.L29
 767:lvgl/src/extra/layouts/grid/lv_grid.c **** 
 768:lvgl/src/extra/layouts/grid/lv_grid.c ****     return i;
 393              		.loc 1 768 5 is_stmt 1 view .LVU135
 769:lvgl/src/extra/layouts/grid/lv_grid.c **** }
 394              		.loc 1 769 1 is_stmt 0 view .LVU136
 395 0014 7047     		bx	lr
 396              		.cfi_endproc
ARM GAS  C:\Users\OSD\AppData\Local\Temp\ccKYLEBM.s 			page 23


 397              	.LFE218:
 399              		.section	.text.item_repos,"ax",%progbits
 400              		.align	1
 401              		.syntax unified
 402              		.thumb
 403              		.thumb_func
 405              	item_repos:
 406              	.LVL48:
 407              	.LFB216:
 575:lvgl/src/extra/layouts/grid/lv_grid.c ****     if(lv_obj_has_flag_any(item, LV_OBJ_FLAG_IGNORE_LAYOUT | LV_OBJ_FLAG_HIDDEN | LV_OBJ_FLAG_FLOAT
 408              		.loc 1 575 1 is_stmt 1 view -0
 409              		.cfi_startproc
 410              		@ args = 0, pretend = 0, frame = 32
 411              		@ frame_needed = 0, uses_anonymous_args = 0
 575:lvgl/src/extra/layouts/grid/lv_grid.c ****     if(lv_obj_has_flag_any(item, LV_OBJ_FLAG_IGNORE_LAYOUT | LV_OBJ_FLAG_HIDDEN | LV_OBJ_FLAG_FLOAT
 412              		.loc 1 575 1 is_stmt 0 view .LVU138
 413 0000 2DE9F04F 		push	{r4, r5, r6, r7, r8, r9, r10, fp, lr}
 414              		.cfi_def_cfa_offset 36
 415              		.cfi_offset 4, -36
 416              		.cfi_offset 5, -32
 417              		.cfi_offset 6, -28
 418              		.cfi_offset 7, -24
 419              		.cfi_offset 8, -20
 420              		.cfi_offset 9, -16
 421              		.cfi_offset 10, -12
 422              		.cfi_offset 11, -8
 423              		.cfi_offset 14, -4
 424 0004 89B0     		sub	sp, sp, #36
 425              		.cfi_def_cfa_offset 72
 426 0006 0446     		mov	r4, r0
 427 0008 0D46     		mov	r5, r1
 428 000a 0192     		str	r2, [sp, #4]
 576:lvgl/src/extra/layouts/grid/lv_grid.c ****     uint32_t col_span = get_col_span(item);
 429              		.loc 1 576 5 is_stmt 1 view .LVU139
 576:lvgl/src/extra/layouts/grid/lv_grid.c ****     uint32_t col_span = get_col_span(item);
 430              		.loc 1 576 8 is_stmt 0 view .LVU140
 431 000c C549     		ldr	r1, .L61
 432              	.LVL49:
 576:lvgl/src/extra/layouts/grid/lv_grid.c ****     uint32_t col_span = get_col_span(item);
 433              		.loc 1 576 8 view .LVU141
 434 000e FFF7FEFF 		bl	lv_obj_has_flag_any
 435              	.LVL50:
 576:lvgl/src/extra/layouts/grid/lv_grid.c ****     uint32_t col_span = get_col_span(item);
 436              		.loc 1 576 7 view .LVU142
 437 0012 10B1     		cbz	r0, .L54
 438              	.LVL51:
 439              	.L30:
 682:lvgl/src/extra/layouts/grid/lv_grid.c **** 
 440              		.loc 1 682 1 view .LVU143
 441 0014 09B0     		add	sp, sp, #36
 442              		.cfi_remember_state
 443              		.cfi_def_cfa_offset 36
 444              		@ sp needed
 445 0016 BDE8F08F 		pop	{r4, r5, r6, r7, r8, r9, r10, fp, pc}
 446              	.LVL52:
 447              	.L54:
 448              		.cfi_restore_state
ARM GAS  C:\Users\OSD\AppData\Local\Temp\ccKYLEBM.s 			page 24


 577:lvgl/src/extra/layouts/grid/lv_grid.c ****     uint32_t row_span = get_row_span(item);
 449              		.loc 1 577 5 is_stmt 1 view .LVU144
 450              	.LBB109:
 451              	.LBI109:
  76:lvgl/src/extra/layouts/grid/lv_grid.c **** {
 452              		.loc 1 76 23 view .LVU145
 453              	.LBB110:
  78:lvgl/src/extra/layouts/grid/lv_grid.c **** }
 454              		.loc 1 78 5 view .LVU146
 455              	.LBB111:
 456              	.LBI111:
 457              		.file 2 "lvgl/src/extra/layouts/grid/../grid/lv_grid.h"
   1:lvgl/src/extra/layouts/grid/../grid/lv_grid.h **** /**
   2:lvgl/src/extra/layouts/grid/../grid/lv_grid.h ****  * @file lv_grid.h
   3:lvgl/src/extra/layouts/grid/../grid/lv_grid.h ****  *
   4:lvgl/src/extra/layouts/grid/../grid/lv_grid.h ****  */
   5:lvgl/src/extra/layouts/grid/../grid/lv_grid.h **** 
   6:lvgl/src/extra/layouts/grid/../grid/lv_grid.h **** #ifndef LV_GRID_H
   7:lvgl/src/extra/layouts/grid/../grid/lv_grid.h **** #define LV_GRID_H
   8:lvgl/src/extra/layouts/grid/../grid/lv_grid.h **** 
   9:lvgl/src/extra/layouts/grid/../grid/lv_grid.h **** #ifdef __cplusplus
  10:lvgl/src/extra/layouts/grid/../grid/lv_grid.h **** extern "C" {
  11:lvgl/src/extra/layouts/grid/../grid/lv_grid.h **** #endif
  12:lvgl/src/extra/layouts/grid/../grid/lv_grid.h **** 
  13:lvgl/src/extra/layouts/grid/../grid/lv_grid.h **** /*********************
  14:lvgl/src/extra/layouts/grid/../grid/lv_grid.h ****  *      INCLUDES
  15:lvgl/src/extra/layouts/grid/../grid/lv_grid.h ****  *********************/
  16:lvgl/src/extra/layouts/grid/../grid/lv_grid.h **** #include "../../../core/lv_obj.h"
  17:lvgl/src/extra/layouts/grid/../grid/lv_grid.h **** #if LV_USE_GRID
  18:lvgl/src/extra/layouts/grid/../grid/lv_grid.h **** 
  19:lvgl/src/extra/layouts/grid/../grid/lv_grid.h **** /*********************
  20:lvgl/src/extra/layouts/grid/../grid/lv_grid.h ****  *      DEFINES
  21:lvgl/src/extra/layouts/grid/../grid/lv_grid.h ****  *********************/
  22:lvgl/src/extra/layouts/grid/../grid/lv_grid.h **** /**
  23:lvgl/src/extra/layouts/grid/../grid/lv_grid.h ****  * Can be used track size to make the track fill the free space.
  24:lvgl/src/extra/layouts/grid/../grid/lv_grid.h ****  * @param x how much space to take proportionally to other FR tracks
  25:lvgl/src/extra/layouts/grid/../grid/lv_grid.h ****  * @return a special track size
  26:lvgl/src/extra/layouts/grid/../grid/lv_grid.h ****  */
  27:lvgl/src/extra/layouts/grid/../grid/lv_grid.h **** #define LV_GRID_FR(x)          (LV_COORD_MAX - 100 + x)
  28:lvgl/src/extra/layouts/grid/../grid/lv_grid.h **** 
  29:lvgl/src/extra/layouts/grid/../grid/lv_grid.h **** #define LV_GRID_CONTENT        (LV_COORD_MAX - 101)
  30:lvgl/src/extra/layouts/grid/../grid/lv_grid.h **** LV_EXPORT_CONST_INT(LV_GRID_CONTENT);
  31:lvgl/src/extra/layouts/grid/../grid/lv_grid.h **** 
  32:lvgl/src/extra/layouts/grid/../grid/lv_grid.h **** #define LV_GRID_TEMPLATE_LAST  (LV_COORD_MAX)
  33:lvgl/src/extra/layouts/grid/../grid/lv_grid.h **** LV_EXPORT_CONST_INT(LV_GRID_TEMPLATE_LAST);
  34:lvgl/src/extra/layouts/grid/../grid/lv_grid.h **** 
  35:lvgl/src/extra/layouts/grid/../grid/lv_grid.h **** /**********************
  36:lvgl/src/extra/layouts/grid/../grid/lv_grid.h ****  *      TYPEDEFS
  37:lvgl/src/extra/layouts/grid/../grid/lv_grid.h ****  **********************/
  38:lvgl/src/extra/layouts/grid/../grid/lv_grid.h **** 
  39:lvgl/src/extra/layouts/grid/../grid/lv_grid.h **** /*Can't include lv_obj.h because it includes this header file*/
  40:lvgl/src/extra/layouts/grid/../grid/lv_grid.h **** struct _lv_obj_t;
  41:lvgl/src/extra/layouts/grid/../grid/lv_grid.h **** 
  42:lvgl/src/extra/layouts/grid/../grid/lv_grid.h **** typedef enum {
  43:lvgl/src/extra/layouts/grid/../grid/lv_grid.h ****     LV_GRID_ALIGN_START,
  44:lvgl/src/extra/layouts/grid/../grid/lv_grid.h ****     LV_GRID_ALIGN_CENTER,
  45:lvgl/src/extra/layouts/grid/../grid/lv_grid.h ****     LV_GRID_ALIGN_END,
ARM GAS  C:\Users\OSD\AppData\Local\Temp\ccKYLEBM.s 			page 25


  46:lvgl/src/extra/layouts/grid/../grid/lv_grid.h ****     LV_GRID_ALIGN_STRETCH,
  47:lvgl/src/extra/layouts/grid/../grid/lv_grid.h ****     LV_GRID_ALIGN_SPACE_EVENLY,
  48:lvgl/src/extra/layouts/grid/../grid/lv_grid.h ****     LV_GRID_ALIGN_SPACE_AROUND,
  49:lvgl/src/extra/layouts/grid/../grid/lv_grid.h ****     LV_GRID_ALIGN_SPACE_BETWEEN,
  50:lvgl/src/extra/layouts/grid/../grid/lv_grid.h **** } lv_grid_align_t;
  51:lvgl/src/extra/layouts/grid/../grid/lv_grid.h **** 
  52:lvgl/src/extra/layouts/grid/../grid/lv_grid.h **** /**********************
  53:lvgl/src/extra/layouts/grid/../grid/lv_grid.h ****  * GLOBAL VARIABLES
  54:lvgl/src/extra/layouts/grid/../grid/lv_grid.h ****  **********************/
  55:lvgl/src/extra/layouts/grid/../grid/lv_grid.h **** 
  56:lvgl/src/extra/layouts/grid/../grid/lv_grid.h **** extern uint16_t LV_LAYOUT_GRID;
  57:lvgl/src/extra/layouts/grid/../grid/lv_grid.h **** extern lv_style_prop_t LV_STYLE_GRID_COLUMN_DSC_ARRAY;
  58:lvgl/src/extra/layouts/grid/../grid/lv_grid.h **** extern lv_style_prop_t LV_STYLE_GRID_COLUMN_ALIGN;
  59:lvgl/src/extra/layouts/grid/../grid/lv_grid.h **** extern lv_style_prop_t LV_STYLE_GRID_ROW_DSC_ARRAY;
  60:lvgl/src/extra/layouts/grid/../grid/lv_grid.h **** extern lv_style_prop_t LV_STYLE_GRID_ROW_ALIGN;
  61:lvgl/src/extra/layouts/grid/../grid/lv_grid.h **** extern lv_style_prop_t LV_STYLE_GRID_CELL_COLUMN_POS;
  62:lvgl/src/extra/layouts/grid/../grid/lv_grid.h **** extern lv_style_prop_t LV_STYLE_GRID_CELL_COLUMN_SPAN;
  63:lvgl/src/extra/layouts/grid/../grid/lv_grid.h **** extern lv_style_prop_t LV_STYLE_GRID_CELL_X_ALIGN;
  64:lvgl/src/extra/layouts/grid/../grid/lv_grid.h **** extern lv_style_prop_t LV_STYLE_GRID_CELL_ROW_POS;
  65:lvgl/src/extra/layouts/grid/../grid/lv_grid.h **** extern lv_style_prop_t LV_STYLE_GRID_CELL_ROW_SPAN;
  66:lvgl/src/extra/layouts/grid/../grid/lv_grid.h **** extern lv_style_prop_t LV_STYLE_GRID_CELL_Y_ALIGN;
  67:lvgl/src/extra/layouts/grid/../grid/lv_grid.h **** 
  68:lvgl/src/extra/layouts/grid/../grid/lv_grid.h **** /**********************
  69:lvgl/src/extra/layouts/grid/../grid/lv_grid.h ****  * GLOBAL PROTOTYPES
  70:lvgl/src/extra/layouts/grid/../grid/lv_grid.h ****  **********************/
  71:lvgl/src/extra/layouts/grid/../grid/lv_grid.h **** 
  72:lvgl/src/extra/layouts/grid/../grid/lv_grid.h **** void lv_grid_init(void);
  73:lvgl/src/extra/layouts/grid/../grid/lv_grid.h **** 
  74:lvgl/src/extra/layouts/grid/../grid/lv_grid.h **** void lv_obj_set_grid_dsc_array(lv_obj_t * obj, const lv_coord_t col_dsc[], const lv_coord_t row_dsc
  75:lvgl/src/extra/layouts/grid/../grid/lv_grid.h **** 
  76:lvgl/src/extra/layouts/grid/../grid/lv_grid.h **** void lv_obj_set_grid_align(lv_obj_t * obj, lv_grid_align_t column_align, lv_grid_align_t row_align)
  77:lvgl/src/extra/layouts/grid/../grid/lv_grid.h **** 
  78:lvgl/src/extra/layouts/grid/../grid/lv_grid.h **** /**
  79:lvgl/src/extra/layouts/grid/../grid/lv_grid.h ****  * Set the cell of an object. The object's parent needs to have grid layout, else nothing will happ
  80:lvgl/src/extra/layouts/grid/../grid/lv_grid.h ****  * @param obj pointer to an object
  81:lvgl/src/extra/layouts/grid/../grid/lv_grid.h ****  * @param column_align the vertical alignment in the cell. `LV_GRID_START/END/CENTER/STRETCH`
  82:lvgl/src/extra/layouts/grid/../grid/lv_grid.h ****  * @param col_pos column ID
  83:lvgl/src/extra/layouts/grid/../grid/lv_grid.h ****  * @param col_span number of columns to take (>= 1)
  84:lvgl/src/extra/layouts/grid/../grid/lv_grid.h ****  * @param row_align the horizontal alignment in the cell. `LV_GRID_START/END/CENTER/STRETCH`
  85:lvgl/src/extra/layouts/grid/../grid/lv_grid.h ****  * @param row_pos row ID
  86:lvgl/src/extra/layouts/grid/../grid/lv_grid.h ****  * @param row_span number of rows to take (>= 1)
  87:lvgl/src/extra/layouts/grid/../grid/lv_grid.h ****  */
  88:lvgl/src/extra/layouts/grid/../grid/lv_grid.h **** void lv_obj_set_grid_cell(lv_obj_t * obj, lv_grid_align_t column_align, uint8_t col_pos, uint8_t co
  89:lvgl/src/extra/layouts/grid/../grid/lv_grid.h ****                           lv_grid_align_t row_align, uint8_t row_pos, uint8_t row_span);
  90:lvgl/src/extra/layouts/grid/../grid/lv_grid.h **** 
  91:lvgl/src/extra/layouts/grid/../grid/lv_grid.h **** /**
  92:lvgl/src/extra/layouts/grid/../grid/lv_grid.h ****  * Just a wrapper to `LV_GRID_FR` for bindings.
  93:lvgl/src/extra/layouts/grid/../grid/lv_grid.h ****  */
  94:lvgl/src/extra/layouts/grid/../grid/lv_grid.h **** static inline lv_coord_t lv_grid_fr(uint8_t x)
  95:lvgl/src/extra/layouts/grid/../grid/lv_grid.h **** {
  96:lvgl/src/extra/layouts/grid/../grid/lv_grid.h ****     return LV_GRID_FR(x);
  97:lvgl/src/extra/layouts/grid/../grid/lv_grid.h **** }
  98:lvgl/src/extra/layouts/grid/../grid/lv_grid.h **** 
  99:lvgl/src/extra/layouts/grid/../grid/lv_grid.h **** void lv_style_set_grid_row_dsc_array(lv_style_t * style, const lv_coord_t value[]);
 100:lvgl/src/extra/layouts/grid/../grid/lv_grid.h **** void lv_style_set_grid_column_dsc_array(lv_style_t * style, const lv_coord_t value[]);
 101:lvgl/src/extra/layouts/grid/../grid/lv_grid.h **** void lv_style_set_grid_row_align(lv_style_t * style, lv_grid_align_t value);
 102:lvgl/src/extra/layouts/grid/../grid/lv_grid.h **** void lv_style_set_grid_column_align(lv_style_t * style, lv_grid_align_t value);
ARM GAS  C:\Users\OSD\AppData\Local\Temp\ccKYLEBM.s 			page 26


 103:lvgl/src/extra/layouts/grid/../grid/lv_grid.h **** void lv_style_set_grid_cell_column_pos(lv_style_t * style, lv_coord_t value);
 104:lvgl/src/extra/layouts/grid/../grid/lv_grid.h **** void lv_style_set_grid_cell_column_span(lv_style_t * style, lv_coord_t value);
 105:lvgl/src/extra/layouts/grid/../grid/lv_grid.h **** void lv_style_set_grid_cell_row_pos(lv_style_t * style, lv_coord_t value);
 106:lvgl/src/extra/layouts/grid/../grid/lv_grid.h **** void lv_style_set_grid_cell_row_span(lv_style_t * style, lv_coord_t value);
 107:lvgl/src/extra/layouts/grid/../grid/lv_grid.h **** void lv_style_set_grid_cell_x_align(lv_style_t * style, lv_coord_t value);
 108:lvgl/src/extra/layouts/grid/../grid/lv_grid.h **** void lv_style_set_grid_cell_y_align(lv_style_t * style, lv_coord_t value);
 109:lvgl/src/extra/layouts/grid/../grid/lv_grid.h **** 
 110:lvgl/src/extra/layouts/grid/../grid/lv_grid.h **** void lv_obj_set_style_grid_row_dsc_array(lv_obj_t * obj, const lv_coord_t value[], lv_style_selecto
 111:lvgl/src/extra/layouts/grid/../grid/lv_grid.h **** void lv_obj_set_style_grid_column_dsc_array(lv_obj_t * obj, const lv_coord_t value[], lv_style_sele
 112:lvgl/src/extra/layouts/grid/../grid/lv_grid.h **** void lv_obj_set_style_grid_row_align(lv_obj_t * obj, lv_grid_align_t value, lv_style_selector_t sel
 113:lvgl/src/extra/layouts/grid/../grid/lv_grid.h **** void lv_obj_set_style_grid_column_align(lv_obj_t * obj, lv_grid_align_t value, lv_style_selector_t 
 114:lvgl/src/extra/layouts/grid/../grid/lv_grid.h **** void lv_obj_set_style_grid_cell_column_pos(lv_obj_t * obj, lv_coord_t value, lv_style_selector_t se
 115:lvgl/src/extra/layouts/grid/../grid/lv_grid.h **** void lv_obj_set_style_grid_cell_column_span(lv_obj_t * obj, lv_coord_t value, lv_style_selector_t s
 116:lvgl/src/extra/layouts/grid/../grid/lv_grid.h **** void lv_obj_set_style_grid_cell_row_pos(lv_obj_t * obj, lv_coord_t value, lv_style_selector_t selec
 117:lvgl/src/extra/layouts/grid/../grid/lv_grid.h **** void lv_obj_set_style_grid_cell_row_span(lv_obj_t * obj, lv_coord_t value, lv_style_selector_t sele
 118:lvgl/src/extra/layouts/grid/../grid/lv_grid.h **** void lv_obj_set_style_grid_cell_x_align(lv_obj_t * obj, lv_coord_t value, lv_style_selector_t selec
 119:lvgl/src/extra/layouts/grid/../grid/lv_grid.h **** void lv_obj_set_style_grid_cell_y_align(lv_obj_t * obj, lv_coord_t value, lv_style_selector_t selec
 120:lvgl/src/extra/layouts/grid/../grid/lv_grid.h **** 
 121:lvgl/src/extra/layouts/grid/../grid/lv_grid.h **** static inline const lv_coord_t * lv_obj_get_style_grid_row_dsc_array(const lv_obj_t * obj, uint32_t
 122:lvgl/src/extra/layouts/grid/../grid/lv_grid.h **** {
 123:lvgl/src/extra/layouts/grid/../grid/lv_grid.h ****     lv_style_value_t v = lv_obj_get_style_prop(obj, part, LV_STYLE_GRID_ROW_DSC_ARRAY);
 124:lvgl/src/extra/layouts/grid/../grid/lv_grid.h ****     return (const lv_coord_t *)v.ptr;
 125:lvgl/src/extra/layouts/grid/../grid/lv_grid.h **** }
 126:lvgl/src/extra/layouts/grid/../grid/lv_grid.h **** 
 127:lvgl/src/extra/layouts/grid/../grid/lv_grid.h **** static inline const lv_coord_t * lv_obj_get_style_grid_column_dsc_array(const lv_obj_t * obj, uint3
 128:lvgl/src/extra/layouts/grid/../grid/lv_grid.h **** {
 129:lvgl/src/extra/layouts/grid/../grid/lv_grid.h ****     lv_style_value_t v = lv_obj_get_style_prop(obj, part, LV_STYLE_GRID_COLUMN_DSC_ARRAY);
 130:lvgl/src/extra/layouts/grid/../grid/lv_grid.h ****     return (const lv_coord_t *)v.ptr;
 131:lvgl/src/extra/layouts/grid/../grid/lv_grid.h **** }
 132:lvgl/src/extra/layouts/grid/../grid/lv_grid.h **** 
 133:lvgl/src/extra/layouts/grid/../grid/lv_grid.h **** static inline lv_grid_align_t lv_obj_get_style_grid_row_align(const lv_obj_t * obj, uint32_t part)
 134:lvgl/src/extra/layouts/grid/../grid/lv_grid.h **** {
 135:lvgl/src/extra/layouts/grid/../grid/lv_grid.h ****     lv_style_value_t v = lv_obj_get_style_prop(obj, part, LV_STYLE_GRID_ROW_ALIGN);
 136:lvgl/src/extra/layouts/grid/../grid/lv_grid.h ****     return (lv_grid_align_t)v.num;
 137:lvgl/src/extra/layouts/grid/../grid/lv_grid.h **** }
 138:lvgl/src/extra/layouts/grid/../grid/lv_grid.h **** 
 139:lvgl/src/extra/layouts/grid/../grid/lv_grid.h **** static inline lv_grid_align_t lv_obj_get_style_grid_column_align(const lv_obj_t * obj, uint32_t par
 140:lvgl/src/extra/layouts/grid/../grid/lv_grid.h **** {
 141:lvgl/src/extra/layouts/grid/../grid/lv_grid.h ****     lv_style_value_t v = lv_obj_get_style_prop(obj, part, LV_STYLE_GRID_COLUMN_ALIGN);
 142:lvgl/src/extra/layouts/grid/../grid/lv_grid.h ****     return (lv_grid_align_t)v.num;
 143:lvgl/src/extra/layouts/grid/../grid/lv_grid.h **** }
 144:lvgl/src/extra/layouts/grid/../grid/lv_grid.h **** 
 145:lvgl/src/extra/layouts/grid/../grid/lv_grid.h **** static inline lv_coord_t lv_obj_get_style_grid_cell_column_pos(const lv_obj_t * obj, uint32_t part)
 146:lvgl/src/extra/layouts/grid/../grid/lv_grid.h **** {
 147:lvgl/src/extra/layouts/grid/../grid/lv_grid.h ****     lv_style_value_t v = lv_obj_get_style_prop(obj, part, LV_STYLE_GRID_CELL_COLUMN_POS);
 148:lvgl/src/extra/layouts/grid/../grid/lv_grid.h ****     return (lv_coord_t)v.num;
 149:lvgl/src/extra/layouts/grid/../grid/lv_grid.h **** }
 150:lvgl/src/extra/layouts/grid/../grid/lv_grid.h **** 
 151:lvgl/src/extra/layouts/grid/../grid/lv_grid.h **** static inline lv_coord_t lv_obj_get_style_grid_cell_column_span(const lv_obj_t * obj, uint32_t part
 458              		.loc 2 151 26 view .LVU147
 459              	.LBB112:
 152:lvgl/src/extra/layouts/grid/../grid/lv_grid.h **** {
 153:lvgl/src/extra/layouts/grid/../grid/lv_grid.h ****     lv_style_value_t v = lv_obj_get_style_prop(obj, part, LV_STYLE_GRID_CELL_COLUMN_SPAN);
 460              		.loc 2 153 5 view .LVU148
 461              		.loc 2 153 26 is_stmt 0 view .LVU149
 462 001a C34B     		ldr	r3, .L61+4
 463 001c 1A88     		ldrh	r2, [r3]
ARM GAS  C:\Users\OSD\AppData\Local\Temp\ccKYLEBM.s 			page 27


 464 001e 0021     		movs	r1, #0
 465 0020 2046     		mov	r0, r4
 466 0022 FFF7FEFF 		bl	lv_obj_get_style_prop
 467              	.LVL53:
 154:lvgl/src/extra/layouts/grid/../grid/lv_grid.h ****     return (lv_coord_t)v.num;
 468              		.loc 2 154 5 is_stmt 1 view .LVU150
 469              		.loc 2 154 5 is_stmt 0 view .LVU151
 470              	.LBE112:
 471              	.LBE111:
  78:lvgl/src/extra/layouts/grid/lv_grid.c **** }
 472              		.loc 1 78 12 view .LVU152
 473 0026 C7B2     		uxtb	r7, r0
 474              	.LVL54:
  78:lvgl/src/extra/layouts/grid/lv_grid.c **** }
 475              		.loc 1 78 12 view .LVU153
 476              	.LBE110:
 477              	.LBE109:
 578:lvgl/src/extra/layouts/grid/lv_grid.c ****     if(row_span == 0 || col_span == 0) return;
 478              		.loc 1 578 5 is_stmt 1 view .LVU154
 479              	.LBB113:
 480              	.LBI113:
  80:lvgl/src/extra/layouts/grid/lv_grid.c **** {
 481              		.loc 1 80 23 view .LVU155
 482              	.LBB114:
  82:lvgl/src/extra/layouts/grid/lv_grid.c **** }
 483              		.loc 1 82 5 view .LVU156
 484              	.LBB115:
 485              	.LBI115:
 155:lvgl/src/extra/layouts/grid/../grid/lv_grid.h **** }
 156:lvgl/src/extra/layouts/grid/../grid/lv_grid.h **** 
 157:lvgl/src/extra/layouts/grid/../grid/lv_grid.h **** static inline lv_coord_t lv_obj_get_style_grid_cell_row_pos(const lv_obj_t * obj, uint32_t part)
 158:lvgl/src/extra/layouts/grid/../grid/lv_grid.h **** {
 159:lvgl/src/extra/layouts/grid/../grid/lv_grid.h ****     lv_style_value_t v = lv_obj_get_style_prop(obj, part, LV_STYLE_GRID_CELL_ROW_POS);
 160:lvgl/src/extra/layouts/grid/../grid/lv_grid.h ****     return (lv_coord_t)v.num;
 161:lvgl/src/extra/layouts/grid/../grid/lv_grid.h **** }
 162:lvgl/src/extra/layouts/grid/../grid/lv_grid.h **** 
 163:lvgl/src/extra/layouts/grid/../grid/lv_grid.h **** static inline lv_coord_t lv_obj_get_style_grid_cell_row_span(const lv_obj_t * obj, uint32_t part)
 486              		.loc 2 163 26 view .LVU157
 487              	.LBB116:
 164:lvgl/src/extra/layouts/grid/../grid/lv_grid.h **** {
 165:lvgl/src/extra/layouts/grid/../grid/lv_grid.h ****     lv_style_value_t v = lv_obj_get_style_prop(obj, part, LV_STYLE_GRID_CELL_ROW_SPAN);
 488              		.loc 2 165 5 view .LVU158
 489              		.loc 2 165 26 is_stmt 0 view .LVU159
 490 0028 C04B     		ldr	r3, .L61+8
 491 002a 1A88     		ldrh	r2, [r3]
 492 002c 0021     		movs	r1, #0
 493 002e 2046     		mov	r0, r4
 494 0030 FFF7FEFF 		bl	lv_obj_get_style_prop
 495              	.LVL55:
 166:lvgl/src/extra/layouts/grid/../grid/lv_grid.h ****     return (lv_coord_t)v.num;
 496              		.loc 2 166 5 is_stmt 1 view .LVU160
 497              		.loc 2 166 5 is_stmt 0 view .LVU161
 498              	.LBE116:
 499              	.LBE115:
 500              	.LBE114:
 501              	.LBE113:
 579:lvgl/src/extra/layouts/grid/lv_grid.c **** 
ARM GAS  C:\Users\OSD\AppData\Local\Temp\ccKYLEBM.s 			page 28


 502              		.loc 1 579 5 is_stmt 1 view .LVU162
 579:lvgl/src/extra/layouts/grid/lv_grid.c **** 
 503              		.loc 1 579 17 is_stmt 0 view .LVU163
 504 0034 10F0FF06 		ands	r6, r0, #255
 505 0038 0CBF     		ite	eq
 506 003a 0123     		moveq	r3, #1
 507 003c 0023     		movne	r3, #0
 579:lvgl/src/extra/layouts/grid/lv_grid.c **** 
 508              		.loc 1 579 22 view .LVU164
 509 003e 002F     		cmp	r7, #0
 510 0040 08BF     		it	eq
 511 0042 43F00103 		orreq	r3, r3, #1
 579:lvgl/src/extra/layouts/grid/lv_grid.c **** 
 512              		.loc 1 579 7 view .LVU165
 513 0046 002B     		cmp	r3, #0
 514 0048 E4D1     		bne	.L30
 581:lvgl/src/extra/layouts/grid/lv_grid.c ****     uint32_t row_pos = get_row_pos(item);
 515              		.loc 1 581 5 is_stmt 1 view .LVU166
 516              	.LVL56:
 517              	.LBB117:
 518              	.LBI117:
  68:lvgl/src/extra/layouts/grid/lv_grid.c **** {
 519              		.loc 1 68 23 view .LVU167
 520              	.LBB118:
  70:lvgl/src/extra/layouts/grid/lv_grid.c **** }
 521              		.loc 1 70 5 view .LVU168
 522              	.LBB119:
 523              	.LBI119:
 145:lvgl/src/extra/layouts/grid/../grid/lv_grid.h **** {
 524              		.loc 2 145 26 view .LVU169
 525              	.LBB120:
 147:lvgl/src/extra/layouts/grid/../grid/lv_grid.h ****     return (lv_coord_t)v.num;
 526              		.loc 2 147 5 view .LVU170
 147:lvgl/src/extra/layouts/grid/../grid/lv_grid.h ****     return (lv_coord_t)v.num;
 527              		.loc 2 147 26 is_stmt 0 view .LVU171
 528 004a B94B     		ldr	r3, .L61+12
 529 004c 1A88     		ldrh	r2, [r3]
 530 004e 0021     		movs	r1, #0
 531 0050 2046     		mov	r0, r4
 532              	.LVL57:
 147:lvgl/src/extra/layouts/grid/../grid/lv_grid.h ****     return (lv_coord_t)v.num;
 533              		.loc 2 147 26 view .LVU172
 534 0052 FFF7FEFF 		bl	lv_obj_get_style_prop
 535              	.LVL58:
 148:lvgl/src/extra/layouts/grid/../grid/lv_grid.h **** }
 536              		.loc 2 148 5 is_stmt 1 view .LVU173
 148:lvgl/src/extra/layouts/grid/../grid/lv_grid.h **** }
 537              		.loc 2 148 5 is_stmt 0 view .LVU174
 538              	.LBE120:
 539              	.LBE119:
  70:lvgl/src/extra/layouts/grid/lv_grid.c **** }
 540              		.loc 1 70 12 view .LVU175
 541 0056 5FFA80FB 		uxtb	fp, r0
 542              	.LVL59:
  70:lvgl/src/extra/layouts/grid/lv_grid.c **** }
 543              		.loc 1 70 12 view .LVU176
 544              	.LBE118:
ARM GAS  C:\Users\OSD\AppData\Local\Temp\ccKYLEBM.s 			page 29


 545              	.LBE117:
 582:lvgl/src/extra/layouts/grid/lv_grid.c ****     lv_grid_align_t col_align = get_cell_col_align(item);
 546              		.loc 1 582 5 is_stmt 1 view .LVU177
 547              	.LBB121:
 548              	.LBI121:
  72:lvgl/src/extra/layouts/grid/lv_grid.c **** {
 549              		.loc 1 72 23 view .LVU178
 550              	.LBB122:
  74:lvgl/src/extra/layouts/grid/lv_grid.c **** }
 551              		.loc 1 74 5 view .LVU179
 552              	.LBB123:
 553              	.LBI123:
 157:lvgl/src/extra/layouts/grid/../grid/lv_grid.h **** {
 554              		.loc 2 157 26 view .LVU180
 555              	.LBB124:
 159:lvgl/src/extra/layouts/grid/../grid/lv_grid.h ****     return (lv_coord_t)v.num;
 556              		.loc 2 159 5 view .LVU181
 159:lvgl/src/extra/layouts/grid/../grid/lv_grid.h ****     return (lv_coord_t)v.num;
 557              		.loc 2 159 26 is_stmt 0 view .LVU182
 558 005a B64B     		ldr	r3, .L61+16
 559 005c 1A88     		ldrh	r2, [r3]
 560 005e 0021     		movs	r1, #0
 561 0060 2046     		mov	r0, r4
 562 0062 FFF7FEFF 		bl	lv_obj_get_style_prop
 563              	.LVL60:
 160:lvgl/src/extra/layouts/grid/../grid/lv_grid.h **** }
 564              		.loc 2 160 5 is_stmt 1 view .LVU183
 160:lvgl/src/extra/layouts/grid/../grid/lv_grid.h **** }
 565              		.loc 2 160 5 is_stmt 0 view .LVU184
 566              	.LBE124:
 567              	.LBE123:
  74:lvgl/src/extra/layouts/grid/lv_grid.c **** }
 568              		.loc 1 74 12 view .LVU185
 569 0066 5FFA80FA 		uxtb	r10, r0
 570              	.LVL61:
  74:lvgl/src/extra/layouts/grid/lv_grid.c **** }
 571              		.loc 1 74 12 view .LVU186
 572              	.LBE122:
 573              	.LBE121:
 583:lvgl/src/extra/layouts/grid/lv_grid.c ****     lv_grid_align_t row_align = get_cell_row_align(item);
 574              		.loc 1 583 5 is_stmt 1 view .LVU187
 575              	.LBB125:
 576              	.LBI125:
  84:lvgl/src/extra/layouts/grid/lv_grid.c **** {
 577              		.loc 1 84 23 view .LVU188
 578              	.LBB126:
  86:lvgl/src/extra/layouts/grid/lv_grid.c **** }
 579              		.loc 1 86 5 view .LVU189
 580              	.LBB127:
 581              	.LBI127:
 167:lvgl/src/extra/layouts/grid/../grid/lv_grid.h **** }
 168:lvgl/src/extra/layouts/grid/../grid/lv_grid.h **** 
 169:lvgl/src/extra/layouts/grid/../grid/lv_grid.h **** static inline lv_coord_t lv_obj_get_style_grid_cell_x_align(const lv_obj_t * obj, uint32_t part)
 582              		.loc 2 169 26 view .LVU190
 583              	.LBB128:
 170:lvgl/src/extra/layouts/grid/../grid/lv_grid.h **** {
 171:lvgl/src/extra/layouts/grid/../grid/lv_grid.h ****     lv_style_value_t v = lv_obj_get_style_prop(obj, part, LV_STYLE_GRID_CELL_X_ALIGN);
ARM GAS  C:\Users\OSD\AppData\Local\Temp\ccKYLEBM.s 			page 30


 584              		.loc 2 171 5 view .LVU191
 585              		.loc 2 171 26 is_stmt 0 view .LVU192
 586 006a B34B     		ldr	r3, .L61+20
 587 006c 1A88     		ldrh	r2, [r3]
 588 006e 0021     		movs	r1, #0
 589 0070 2046     		mov	r0, r4
 590 0072 FFF7FEFF 		bl	lv_obj_get_style_prop
 591              	.LVL62:
 172:lvgl/src/extra/layouts/grid/../grid/lv_grid.h ****     return (lv_coord_t)v.num;
 592              		.loc 2 172 5 is_stmt 1 view .LVU193
 593              		.loc 2 172 5 is_stmt 0 view .LVU194
 594              	.LBE128:
 595              	.LBE127:
  86:lvgl/src/extra/layouts/grid/lv_grid.c **** }
 596              		.loc 1 86 12 view .LVU195
 597 0076 5FFA80F8 		uxtb	r8, r0
 598              	.LVL63:
  86:lvgl/src/extra/layouts/grid/lv_grid.c **** }
 599              		.loc 1 86 12 view .LVU196
 600              	.LBE126:
 601              	.LBE125:
 584:lvgl/src/extra/layouts/grid/lv_grid.c **** 
 602              		.loc 1 584 5 is_stmt 1 view .LVU197
 603              	.LBB129:
 604              	.LBI129:
  88:lvgl/src/extra/layouts/grid/lv_grid.c **** {
 605              		.loc 1 88 23 view .LVU198
 606              	.LBB130:
  90:lvgl/src/extra/layouts/grid/lv_grid.c **** }
 607              		.loc 1 90 5 view .LVU199
 608              	.LBB131:
 609              	.LBI131:
 173:lvgl/src/extra/layouts/grid/../grid/lv_grid.h **** }
 174:lvgl/src/extra/layouts/grid/../grid/lv_grid.h **** 
 175:lvgl/src/extra/layouts/grid/../grid/lv_grid.h **** static inline lv_coord_t lv_obj_get_style_grid_cell_y_align(const lv_obj_t * obj, uint32_t part)
 610              		.loc 2 175 26 view .LVU200
 611              	.LBB132:
 176:lvgl/src/extra/layouts/grid/../grid/lv_grid.h **** {
 177:lvgl/src/extra/layouts/grid/../grid/lv_grid.h ****     lv_style_value_t v = lv_obj_get_style_prop(obj, part, LV_STYLE_GRID_CELL_Y_ALIGN);
 612              		.loc 2 177 5 view .LVU201
 613              		.loc 2 177 26 is_stmt 0 view .LVU202
 614 007a B04B     		ldr	r3, .L61+24
 615 007c 1A88     		ldrh	r2, [r3]
 616 007e 0021     		movs	r1, #0
 617 0080 2046     		mov	r0, r4
 618 0082 FFF7FEFF 		bl	lv_obj_get_style_prop
 619              	.LVL64:
 178:lvgl/src/extra/layouts/grid/../grid/lv_grid.h ****     return (lv_coord_t)v.num;
 620              		.loc 2 178 5 is_stmt 1 view .LVU203
 621              		.loc 2 178 5 is_stmt 0 view .LVU204
 622              	.LBE132:
 623              	.LBE131:
  90:lvgl/src/extra/layouts/grid/lv_grid.c **** }
 624              		.loc 1 90 12 view .LVU205
 625 0086 5FFA80F9 		uxtb	r9, r0
 626              	.LVL65:
  90:lvgl/src/extra/layouts/grid/lv_grid.c **** }
ARM GAS  C:\Users\OSD\AppData\Local\Temp\ccKYLEBM.s 			page 31


 627              		.loc 1 90 12 view .LVU206
 628              	.LBE130:
 629              	.LBE129:
 586:lvgl/src/extra/layouts/grid/lv_grid.c ****     lv_coord_t col_x2 = c->x[col_pos + col_span - 1] + c->w[col_pos + col_span - 1];
 630              		.loc 1 586 5 is_stmt 1 view .LVU207
 586:lvgl/src/extra/layouts/grid/lv_grid.c ****     lv_coord_t col_x2 = c->x[col_pos + col_span - 1] + c->w[col_pos + col_span - 1];
 631              		.loc 1 586 26 is_stmt 0 view .LVU208
 632 008a 2B68     		ldr	r3, [r5]
 586:lvgl/src/extra/layouts/grid/lv_grid.c ****     lv_coord_t col_x2 = c->x[col_pos + col_span - 1] + c->w[col_pos + col_span - 1];
 633              		.loc 1 586 16 view .LVU209
 634 008c 33F91B10 		ldrsh	r1, [r3, fp, lsl #1]
 635              	.LVL66:
 587:lvgl/src/extra/layouts/grid/lv_grid.c ****     lv_coord_t col_w = col_x2 - col_x1;
 636              		.loc 1 587 5 is_stmt 1 view .LVU210
 587:lvgl/src/extra/layouts/grid/lv_grid.c ****     lv_coord_t col_w = col_x2 - col_x1;
 637              		.loc 1 587 38 is_stmt 0 view .LVU211
 638 0090 5F44     		add	r7, r7, fp
 639              	.LVL67:
 587:lvgl/src/extra/layouts/grid/lv_grid.c ****     lv_coord_t col_w = col_x2 - col_x1;
 640              		.loc 1 587 29 view .LVU212
 641 0092 6FF00042 		mvn	r2, #-2147483648
 642 0096 1744     		add	r7, r7, r2
 643 0098 33F81730 		ldrh	r3, [r3, r7, lsl #1]
 587:lvgl/src/extra/layouts/grid/lv_grid.c ****     lv_coord_t col_w = col_x2 - col_x1;
 644              		.loc 1 587 57 view .LVU213
 645 009c A868     		ldr	r0, [r5, #8]
 587:lvgl/src/extra/layouts/grid/lv_grid.c ****     lv_coord_t col_w = col_x2 - col_x1;
 646              		.loc 1 587 60 view .LVU214
 647 009e 30F81700 		ldrh	r0, [r0, r7, lsl #1]
 587:lvgl/src/extra/layouts/grid/lv_grid.c ****     lv_coord_t col_w = col_x2 - col_x1;
 648              		.loc 1 587 54 view .LVU215
 649 00a2 0344     		add	r3, r3, r0
 650 00a4 9BB2     		uxth	r3, r3
 651              	.LVL68:
 588:lvgl/src/extra/layouts/grid/lv_grid.c **** 
 652              		.loc 1 588 5 is_stmt 1 view .LVU216
 588:lvgl/src/extra/layouts/grid/lv_grid.c **** 
 653              		.loc 1 588 31 is_stmt 0 view .LVU217
 654 00a6 5B1A     		subs	r3, r3, r1
 655              	.LVL69:
 588:lvgl/src/extra/layouts/grid/lv_grid.c **** 
 656              		.loc 1 588 31 view .LVU218
 657 00a8 99B2     		uxth	r1, r3
 658              	.LVL70:
 588:lvgl/src/extra/layouts/grid/lv_grid.c **** 
 659              		.loc 1 588 31 view .LVU219
 660 00aa 0491     		str	r1, [sp, #16]
 588:lvgl/src/extra/layouts/grid/lv_grid.c **** 
 661              		.loc 1 588 16 view .LVU220
 662 00ac 1BB2     		sxth	r3, r3
 663 00ae 0293     		str	r3, [sp, #8]
 664              	.LVL71:
 590:lvgl/src/extra/layouts/grid/lv_grid.c ****     lv_coord_t row_y2 = c->y[row_pos + row_span - 1] + c->h[row_pos + row_span - 1];
 665              		.loc 1 590 5 is_stmt 1 view .LVU221
 590:lvgl/src/extra/layouts/grid/lv_grid.c ****     lv_coord_t row_y2 = c->y[row_pos + row_span - 1] + c->h[row_pos + row_span - 1];
 666              		.loc 1 590 26 is_stmt 0 view .LVU222
 667 00b0 6B68     		ldr	r3, [r5, #4]
ARM GAS  C:\Users\OSD\AppData\Local\Temp\ccKYLEBM.s 			page 32


 590:lvgl/src/extra/layouts/grid/lv_grid.c ****     lv_coord_t row_y2 = c->y[row_pos + row_span - 1] + c->h[row_pos + row_span - 1];
 668              		.loc 1 590 16 view .LVU223
 669 00b2 33F91A10 		ldrsh	r1, [r3, r10, lsl #1]
 670              	.LVL72:
 591:lvgl/src/extra/layouts/grid/lv_grid.c ****     lv_coord_t row_h = row_y2 - row_y1;
 671              		.loc 1 591 5 is_stmt 1 view .LVU224
 591:lvgl/src/extra/layouts/grid/lv_grid.c ****     lv_coord_t row_h = row_y2 - row_y1;
 672              		.loc 1 591 38 is_stmt 0 view .LVU225
 673 00b6 5644     		add	r6, r6, r10
 591:lvgl/src/extra/layouts/grid/lv_grid.c ****     lv_coord_t row_h = row_y2 - row_y1;
 674              		.loc 1 591 29 view .LVU226
 675 00b8 3244     		add	r2, r2, r6
 676 00ba 33F81230 		ldrh	r3, [r3, r2, lsl #1]
 591:lvgl/src/extra/layouts/grid/lv_grid.c ****     lv_coord_t row_h = row_y2 - row_y1;
 677              		.loc 1 591 57 view .LVU227
 678 00be E868     		ldr	r0, [r5, #12]
 679              	.LVL73:
 591:lvgl/src/extra/layouts/grid/lv_grid.c ****     lv_coord_t row_h = row_y2 - row_y1;
 680              		.loc 1 591 60 view .LVU228
 681 00c0 30F81220 		ldrh	r2, [r0, r2, lsl #1]
 591:lvgl/src/extra/layouts/grid/lv_grid.c ****     lv_coord_t row_h = row_y2 - row_y1;
 682              		.loc 1 591 54 view .LVU229
 683 00c4 1344     		add	r3, r3, r2
 684 00c6 9BB2     		uxth	r3, r3
 685              	.LVL74:
 592:lvgl/src/extra/layouts/grid/lv_grid.c **** 
 686              		.loc 1 592 5 is_stmt 1 view .LVU230
 592:lvgl/src/extra/layouts/grid/lv_grid.c **** 
 687              		.loc 1 592 31 is_stmt 0 view .LVU231
 688 00c8 5B1A     		subs	r3, r3, r1
 689              	.LVL75:
 592:lvgl/src/extra/layouts/grid/lv_grid.c **** 
 690              		.loc 1 592 31 view .LVU232
 691 00ca 9AB2     		uxth	r2, r3
 692              	.LVL76:
 592:lvgl/src/extra/layouts/grid/lv_grid.c **** 
 693              		.loc 1 592 31 view .LVU233
 694 00cc 0592     		str	r2, [sp, #20]
 592:lvgl/src/extra/layouts/grid/lv_grid.c **** 
 695              		.loc 1 592 16 view .LVU234
 696 00ce 1BB2     		sxth	r3, r3
 697 00d0 0393     		str	r3, [sp, #12]
 698              	.LVL77:
 595:lvgl/src/extra/layouts/grid/lv_grid.c ****         if(col_align == LV_GRID_ALIGN_START) col_align = LV_GRID_ALIGN_END;
 699              		.loc 1 595 5 is_stmt 1 view .LVU235
 700              	.LBB133:
 701              	.LBI133:
 702              		.file 3 "d:\\kzc\\stm32\\h743ii_lcd\\lvgl\\src\\core\\lv_obj_style_gen.h"
   1:d:\kzc\stm32\h743ii_lcd\lvgl\src\core\lv_obj_style_gen.h **** static inline lv_coord_t lv_obj_get_style_width(const struct _lv_obj_t * obj, uint32_t part)
   2:d:\kzc\stm32\h743ii_lcd\lvgl\src\core\lv_obj_style_gen.h **** {
   3:d:\kzc\stm32\h743ii_lcd\lvgl\src\core\lv_obj_style_gen.h ****     lv_style_value_t v = lv_obj_get_style_prop(obj, part, LV_STYLE_WIDTH);
   4:d:\kzc\stm32\h743ii_lcd\lvgl\src\core\lv_obj_style_gen.h ****     return (lv_coord_t)v.num;
   5:d:\kzc\stm32\h743ii_lcd\lvgl\src\core\lv_obj_style_gen.h **** }
   6:d:\kzc\stm32\h743ii_lcd\lvgl\src\core\lv_obj_style_gen.h **** 
   7:d:\kzc\stm32\h743ii_lcd\lvgl\src\core\lv_obj_style_gen.h **** static inline lv_coord_t lv_obj_get_style_min_width(const struct _lv_obj_t * obj, uint32_t part)
   8:d:\kzc\stm32\h743ii_lcd\lvgl\src\core\lv_obj_style_gen.h **** {
   9:d:\kzc\stm32\h743ii_lcd\lvgl\src\core\lv_obj_style_gen.h ****     lv_style_value_t v = lv_obj_get_style_prop(obj, part, LV_STYLE_MIN_WIDTH);
ARM GAS  C:\Users\OSD\AppData\Local\Temp\ccKYLEBM.s 			page 33


  10:d:\kzc\stm32\h743ii_lcd\lvgl\src\core\lv_obj_style_gen.h ****     return (lv_coord_t)v.num;
  11:d:\kzc\stm32\h743ii_lcd\lvgl\src\core\lv_obj_style_gen.h **** }
  12:d:\kzc\stm32\h743ii_lcd\lvgl\src\core\lv_obj_style_gen.h **** 
  13:d:\kzc\stm32\h743ii_lcd\lvgl\src\core\lv_obj_style_gen.h **** static inline lv_coord_t lv_obj_get_style_max_width(const struct _lv_obj_t * obj, uint32_t part)
  14:d:\kzc\stm32\h743ii_lcd\lvgl\src\core\lv_obj_style_gen.h **** {
  15:d:\kzc\stm32\h743ii_lcd\lvgl\src\core\lv_obj_style_gen.h ****     lv_style_value_t v = lv_obj_get_style_prop(obj, part, LV_STYLE_MAX_WIDTH);
  16:d:\kzc\stm32\h743ii_lcd\lvgl\src\core\lv_obj_style_gen.h ****     return (lv_coord_t)v.num;
  17:d:\kzc\stm32\h743ii_lcd\lvgl\src\core\lv_obj_style_gen.h **** }
  18:d:\kzc\stm32\h743ii_lcd\lvgl\src\core\lv_obj_style_gen.h **** 
  19:d:\kzc\stm32\h743ii_lcd\lvgl\src\core\lv_obj_style_gen.h **** static inline lv_coord_t lv_obj_get_style_height(const struct _lv_obj_t * obj, uint32_t part)
  20:d:\kzc\stm32\h743ii_lcd\lvgl\src\core\lv_obj_style_gen.h **** {
  21:d:\kzc\stm32\h743ii_lcd\lvgl\src\core\lv_obj_style_gen.h ****     lv_style_value_t v = lv_obj_get_style_prop(obj, part, LV_STYLE_HEIGHT);
  22:d:\kzc\stm32\h743ii_lcd\lvgl\src\core\lv_obj_style_gen.h ****     return (lv_coord_t)v.num;
  23:d:\kzc\stm32\h743ii_lcd\lvgl\src\core\lv_obj_style_gen.h **** }
  24:d:\kzc\stm32\h743ii_lcd\lvgl\src\core\lv_obj_style_gen.h **** 
  25:d:\kzc\stm32\h743ii_lcd\lvgl\src\core\lv_obj_style_gen.h **** static inline lv_coord_t lv_obj_get_style_min_height(const struct _lv_obj_t * obj, uint32_t part)
  26:d:\kzc\stm32\h743ii_lcd\lvgl\src\core\lv_obj_style_gen.h **** {
  27:d:\kzc\stm32\h743ii_lcd\lvgl\src\core\lv_obj_style_gen.h ****     lv_style_value_t v = lv_obj_get_style_prop(obj, part, LV_STYLE_MIN_HEIGHT);
  28:d:\kzc\stm32\h743ii_lcd\lvgl\src\core\lv_obj_style_gen.h ****     return (lv_coord_t)v.num;
  29:d:\kzc\stm32\h743ii_lcd\lvgl\src\core\lv_obj_style_gen.h **** }
  30:d:\kzc\stm32\h743ii_lcd\lvgl\src\core\lv_obj_style_gen.h **** 
  31:d:\kzc\stm32\h743ii_lcd\lvgl\src\core\lv_obj_style_gen.h **** static inline lv_coord_t lv_obj_get_style_max_height(const struct _lv_obj_t * obj, uint32_t part)
  32:d:\kzc\stm32\h743ii_lcd\lvgl\src\core\lv_obj_style_gen.h **** {
  33:d:\kzc\stm32\h743ii_lcd\lvgl\src\core\lv_obj_style_gen.h ****     lv_style_value_t v = lv_obj_get_style_prop(obj, part, LV_STYLE_MAX_HEIGHT);
  34:d:\kzc\stm32\h743ii_lcd\lvgl\src\core\lv_obj_style_gen.h ****     return (lv_coord_t)v.num;
  35:d:\kzc\stm32\h743ii_lcd\lvgl\src\core\lv_obj_style_gen.h **** }
  36:d:\kzc\stm32\h743ii_lcd\lvgl\src\core\lv_obj_style_gen.h **** 
  37:d:\kzc\stm32\h743ii_lcd\lvgl\src\core\lv_obj_style_gen.h **** static inline lv_coord_t lv_obj_get_style_x(const struct _lv_obj_t * obj, uint32_t part)
  38:d:\kzc\stm32\h743ii_lcd\lvgl\src\core\lv_obj_style_gen.h **** {
  39:d:\kzc\stm32\h743ii_lcd\lvgl\src\core\lv_obj_style_gen.h ****     lv_style_value_t v = lv_obj_get_style_prop(obj, part, LV_STYLE_X);
  40:d:\kzc\stm32\h743ii_lcd\lvgl\src\core\lv_obj_style_gen.h ****     return (lv_coord_t)v.num;
  41:d:\kzc\stm32\h743ii_lcd\lvgl\src\core\lv_obj_style_gen.h **** }
  42:d:\kzc\stm32\h743ii_lcd\lvgl\src\core\lv_obj_style_gen.h **** 
  43:d:\kzc\stm32\h743ii_lcd\lvgl\src\core\lv_obj_style_gen.h **** static inline lv_coord_t lv_obj_get_style_y(const struct _lv_obj_t * obj, uint32_t part)
  44:d:\kzc\stm32\h743ii_lcd\lvgl\src\core\lv_obj_style_gen.h **** {
  45:d:\kzc\stm32\h743ii_lcd\lvgl\src\core\lv_obj_style_gen.h ****     lv_style_value_t v = lv_obj_get_style_prop(obj, part, LV_STYLE_Y);
  46:d:\kzc\stm32\h743ii_lcd\lvgl\src\core\lv_obj_style_gen.h ****     return (lv_coord_t)v.num;
  47:d:\kzc\stm32\h743ii_lcd\lvgl\src\core\lv_obj_style_gen.h **** }
  48:d:\kzc\stm32\h743ii_lcd\lvgl\src\core\lv_obj_style_gen.h **** 
  49:d:\kzc\stm32\h743ii_lcd\lvgl\src\core\lv_obj_style_gen.h **** static inline lv_align_t lv_obj_get_style_align(const struct _lv_obj_t * obj, uint32_t part)
  50:d:\kzc\stm32\h743ii_lcd\lvgl\src\core\lv_obj_style_gen.h **** {
  51:d:\kzc\stm32\h743ii_lcd\lvgl\src\core\lv_obj_style_gen.h ****     lv_style_value_t v = lv_obj_get_style_prop(obj, part, LV_STYLE_ALIGN);
  52:d:\kzc\stm32\h743ii_lcd\lvgl\src\core\lv_obj_style_gen.h ****     return (lv_align_t)v.num;
  53:d:\kzc\stm32\h743ii_lcd\lvgl\src\core\lv_obj_style_gen.h **** }
  54:d:\kzc\stm32\h743ii_lcd\lvgl\src\core\lv_obj_style_gen.h **** 
  55:d:\kzc\stm32\h743ii_lcd\lvgl\src\core\lv_obj_style_gen.h **** static inline lv_coord_t lv_obj_get_style_transform_width(const struct _lv_obj_t * obj, uint32_t pa
  56:d:\kzc\stm32\h743ii_lcd\lvgl\src\core\lv_obj_style_gen.h **** {
  57:d:\kzc\stm32\h743ii_lcd\lvgl\src\core\lv_obj_style_gen.h ****     lv_style_value_t v = lv_obj_get_style_prop(obj, part, LV_STYLE_TRANSFORM_WIDTH);
  58:d:\kzc\stm32\h743ii_lcd\lvgl\src\core\lv_obj_style_gen.h ****     return (lv_coord_t)v.num;
  59:d:\kzc\stm32\h743ii_lcd\lvgl\src\core\lv_obj_style_gen.h **** }
  60:d:\kzc\stm32\h743ii_lcd\lvgl\src\core\lv_obj_style_gen.h **** 
  61:d:\kzc\stm32\h743ii_lcd\lvgl\src\core\lv_obj_style_gen.h **** static inline lv_coord_t lv_obj_get_style_transform_height(const struct _lv_obj_t * obj, uint32_t p
  62:d:\kzc\stm32\h743ii_lcd\lvgl\src\core\lv_obj_style_gen.h **** {
  63:d:\kzc\stm32\h743ii_lcd\lvgl\src\core\lv_obj_style_gen.h ****     lv_style_value_t v = lv_obj_get_style_prop(obj, part, LV_STYLE_TRANSFORM_HEIGHT);
  64:d:\kzc\stm32\h743ii_lcd\lvgl\src\core\lv_obj_style_gen.h ****     return (lv_coord_t)v.num;
  65:d:\kzc\stm32\h743ii_lcd\lvgl\src\core\lv_obj_style_gen.h **** }
  66:d:\kzc\stm32\h743ii_lcd\lvgl\src\core\lv_obj_style_gen.h **** 
ARM GAS  C:\Users\OSD\AppData\Local\Temp\ccKYLEBM.s 			page 34


  67:d:\kzc\stm32\h743ii_lcd\lvgl\src\core\lv_obj_style_gen.h **** static inline lv_coord_t lv_obj_get_style_translate_x(const struct _lv_obj_t * obj, uint32_t part)
  68:d:\kzc\stm32\h743ii_lcd\lvgl\src\core\lv_obj_style_gen.h **** {
  69:d:\kzc\stm32\h743ii_lcd\lvgl\src\core\lv_obj_style_gen.h ****     lv_style_value_t v = lv_obj_get_style_prop(obj, part, LV_STYLE_TRANSLATE_X);
  70:d:\kzc\stm32\h743ii_lcd\lvgl\src\core\lv_obj_style_gen.h ****     return (lv_coord_t)v.num;
  71:d:\kzc\stm32\h743ii_lcd\lvgl\src\core\lv_obj_style_gen.h **** }
  72:d:\kzc\stm32\h743ii_lcd\lvgl\src\core\lv_obj_style_gen.h **** 
  73:d:\kzc\stm32\h743ii_lcd\lvgl\src\core\lv_obj_style_gen.h **** static inline lv_coord_t lv_obj_get_style_translate_y(const struct _lv_obj_t * obj, uint32_t part)
  74:d:\kzc\stm32\h743ii_lcd\lvgl\src\core\lv_obj_style_gen.h **** {
  75:d:\kzc\stm32\h743ii_lcd\lvgl\src\core\lv_obj_style_gen.h ****     lv_style_value_t v = lv_obj_get_style_prop(obj, part, LV_STYLE_TRANSLATE_Y);
  76:d:\kzc\stm32\h743ii_lcd\lvgl\src\core\lv_obj_style_gen.h ****     return (lv_coord_t)v.num;
  77:d:\kzc\stm32\h743ii_lcd\lvgl\src\core\lv_obj_style_gen.h **** }
  78:d:\kzc\stm32\h743ii_lcd\lvgl\src\core\lv_obj_style_gen.h **** 
  79:d:\kzc\stm32\h743ii_lcd\lvgl\src\core\lv_obj_style_gen.h **** static inline lv_coord_t lv_obj_get_style_transform_zoom(const struct _lv_obj_t * obj, uint32_t par
  80:d:\kzc\stm32\h743ii_lcd\lvgl\src\core\lv_obj_style_gen.h **** {
  81:d:\kzc\stm32\h743ii_lcd\lvgl\src\core\lv_obj_style_gen.h ****     lv_style_value_t v = lv_obj_get_style_prop(obj, part, LV_STYLE_TRANSFORM_ZOOM);
  82:d:\kzc\stm32\h743ii_lcd\lvgl\src\core\lv_obj_style_gen.h ****     return (lv_coord_t)v.num;
  83:d:\kzc\stm32\h743ii_lcd\lvgl\src\core\lv_obj_style_gen.h **** }
  84:d:\kzc\stm32\h743ii_lcd\lvgl\src\core\lv_obj_style_gen.h **** 
  85:d:\kzc\stm32\h743ii_lcd\lvgl\src\core\lv_obj_style_gen.h **** static inline lv_coord_t lv_obj_get_style_transform_angle(const struct _lv_obj_t * obj, uint32_t pa
  86:d:\kzc\stm32\h743ii_lcd\lvgl\src\core\lv_obj_style_gen.h **** {
  87:d:\kzc\stm32\h743ii_lcd\lvgl\src\core\lv_obj_style_gen.h ****     lv_style_value_t v = lv_obj_get_style_prop(obj, part, LV_STYLE_TRANSFORM_ANGLE);
  88:d:\kzc\stm32\h743ii_lcd\lvgl\src\core\lv_obj_style_gen.h ****     return (lv_coord_t)v.num;
  89:d:\kzc\stm32\h743ii_lcd\lvgl\src\core\lv_obj_style_gen.h **** }
  90:d:\kzc\stm32\h743ii_lcd\lvgl\src\core\lv_obj_style_gen.h **** 
  91:d:\kzc\stm32\h743ii_lcd\lvgl\src\core\lv_obj_style_gen.h **** static inline lv_coord_t lv_obj_get_style_transform_pivot_x(const struct _lv_obj_t * obj, uint32_t 
  92:d:\kzc\stm32\h743ii_lcd\lvgl\src\core\lv_obj_style_gen.h **** {
  93:d:\kzc\stm32\h743ii_lcd\lvgl\src\core\lv_obj_style_gen.h ****     lv_style_value_t v = lv_obj_get_style_prop(obj, part, LV_STYLE_TRANSFORM_PIVOT_X);
  94:d:\kzc\stm32\h743ii_lcd\lvgl\src\core\lv_obj_style_gen.h ****     return (lv_coord_t)v.num;
  95:d:\kzc\stm32\h743ii_lcd\lvgl\src\core\lv_obj_style_gen.h **** }
  96:d:\kzc\stm32\h743ii_lcd\lvgl\src\core\lv_obj_style_gen.h **** 
  97:d:\kzc\stm32\h743ii_lcd\lvgl\src\core\lv_obj_style_gen.h **** static inline lv_coord_t lv_obj_get_style_transform_pivot_y(const struct _lv_obj_t * obj, uint32_t 
  98:d:\kzc\stm32\h743ii_lcd\lvgl\src\core\lv_obj_style_gen.h **** {
  99:d:\kzc\stm32\h743ii_lcd\lvgl\src\core\lv_obj_style_gen.h ****     lv_style_value_t v = lv_obj_get_style_prop(obj, part, LV_STYLE_TRANSFORM_PIVOT_Y);
 100:d:\kzc\stm32\h743ii_lcd\lvgl\src\core\lv_obj_style_gen.h ****     return (lv_coord_t)v.num;
 101:d:\kzc\stm32\h743ii_lcd\lvgl\src\core\lv_obj_style_gen.h **** }
 102:d:\kzc\stm32\h743ii_lcd\lvgl\src\core\lv_obj_style_gen.h **** 
 103:d:\kzc\stm32\h743ii_lcd\lvgl\src\core\lv_obj_style_gen.h **** static inline lv_coord_t lv_obj_get_style_pad_top(const struct _lv_obj_t * obj, uint32_t part)
 104:d:\kzc\stm32\h743ii_lcd\lvgl\src\core\lv_obj_style_gen.h **** {
 105:d:\kzc\stm32\h743ii_lcd\lvgl\src\core\lv_obj_style_gen.h ****     lv_style_value_t v = lv_obj_get_style_prop(obj, part, LV_STYLE_PAD_TOP);
 106:d:\kzc\stm32\h743ii_lcd\lvgl\src\core\lv_obj_style_gen.h ****     return (lv_coord_t)v.num;
 107:d:\kzc\stm32\h743ii_lcd\lvgl\src\core\lv_obj_style_gen.h **** }
 108:d:\kzc\stm32\h743ii_lcd\lvgl\src\core\lv_obj_style_gen.h **** 
 109:d:\kzc\stm32\h743ii_lcd\lvgl\src\core\lv_obj_style_gen.h **** static inline lv_coord_t lv_obj_get_style_pad_bottom(const struct _lv_obj_t * obj, uint32_t part)
 110:d:\kzc\stm32\h743ii_lcd\lvgl\src\core\lv_obj_style_gen.h **** {
 111:d:\kzc\stm32\h743ii_lcd\lvgl\src\core\lv_obj_style_gen.h ****     lv_style_value_t v = lv_obj_get_style_prop(obj, part, LV_STYLE_PAD_BOTTOM);
 112:d:\kzc\stm32\h743ii_lcd\lvgl\src\core\lv_obj_style_gen.h ****     return (lv_coord_t)v.num;
 113:d:\kzc\stm32\h743ii_lcd\lvgl\src\core\lv_obj_style_gen.h **** }
 114:d:\kzc\stm32\h743ii_lcd\lvgl\src\core\lv_obj_style_gen.h **** 
 115:d:\kzc\stm32\h743ii_lcd\lvgl\src\core\lv_obj_style_gen.h **** static inline lv_coord_t lv_obj_get_style_pad_left(const struct _lv_obj_t * obj, uint32_t part)
 116:d:\kzc\stm32\h743ii_lcd\lvgl\src\core\lv_obj_style_gen.h **** {
 117:d:\kzc\stm32\h743ii_lcd\lvgl\src\core\lv_obj_style_gen.h ****     lv_style_value_t v = lv_obj_get_style_prop(obj, part, LV_STYLE_PAD_LEFT);
 118:d:\kzc\stm32\h743ii_lcd\lvgl\src\core\lv_obj_style_gen.h ****     return (lv_coord_t)v.num;
 119:d:\kzc\stm32\h743ii_lcd\lvgl\src\core\lv_obj_style_gen.h **** }
 120:d:\kzc\stm32\h743ii_lcd\lvgl\src\core\lv_obj_style_gen.h **** 
 121:d:\kzc\stm32\h743ii_lcd\lvgl\src\core\lv_obj_style_gen.h **** static inline lv_coord_t lv_obj_get_style_pad_right(const struct _lv_obj_t * obj, uint32_t part)
 122:d:\kzc\stm32\h743ii_lcd\lvgl\src\core\lv_obj_style_gen.h **** {
 123:d:\kzc\stm32\h743ii_lcd\lvgl\src\core\lv_obj_style_gen.h ****     lv_style_value_t v = lv_obj_get_style_prop(obj, part, LV_STYLE_PAD_RIGHT);
ARM GAS  C:\Users\OSD\AppData\Local\Temp\ccKYLEBM.s 			page 35


 124:d:\kzc\stm32\h743ii_lcd\lvgl\src\core\lv_obj_style_gen.h ****     return (lv_coord_t)v.num;
 125:d:\kzc\stm32\h743ii_lcd\lvgl\src\core\lv_obj_style_gen.h **** }
 126:d:\kzc\stm32\h743ii_lcd\lvgl\src\core\lv_obj_style_gen.h **** 
 127:d:\kzc\stm32\h743ii_lcd\lvgl\src\core\lv_obj_style_gen.h **** static inline lv_coord_t lv_obj_get_style_pad_row(const struct _lv_obj_t * obj, uint32_t part)
 128:d:\kzc\stm32\h743ii_lcd\lvgl\src\core\lv_obj_style_gen.h **** {
 129:d:\kzc\stm32\h743ii_lcd\lvgl\src\core\lv_obj_style_gen.h ****     lv_style_value_t v = lv_obj_get_style_prop(obj, part, LV_STYLE_PAD_ROW);
 130:d:\kzc\stm32\h743ii_lcd\lvgl\src\core\lv_obj_style_gen.h ****     return (lv_coord_t)v.num;
 131:d:\kzc\stm32\h743ii_lcd\lvgl\src\core\lv_obj_style_gen.h **** }
 132:d:\kzc\stm32\h743ii_lcd\lvgl\src\core\lv_obj_style_gen.h **** 
 133:d:\kzc\stm32\h743ii_lcd\lvgl\src\core\lv_obj_style_gen.h **** static inline lv_coord_t lv_obj_get_style_pad_column(const struct _lv_obj_t * obj, uint32_t part)
 134:d:\kzc\stm32\h743ii_lcd\lvgl\src\core\lv_obj_style_gen.h **** {
 135:d:\kzc\stm32\h743ii_lcd\lvgl\src\core\lv_obj_style_gen.h ****     lv_style_value_t v = lv_obj_get_style_prop(obj, part, LV_STYLE_PAD_COLUMN);
 136:d:\kzc\stm32\h743ii_lcd\lvgl\src\core\lv_obj_style_gen.h ****     return (lv_coord_t)v.num;
 137:d:\kzc\stm32\h743ii_lcd\lvgl\src\core\lv_obj_style_gen.h **** }
 138:d:\kzc\stm32\h743ii_lcd\lvgl\src\core\lv_obj_style_gen.h **** 
 139:d:\kzc\stm32\h743ii_lcd\lvgl\src\core\lv_obj_style_gen.h **** static inline lv_color_t lv_obj_get_style_bg_color(const struct _lv_obj_t * obj, uint32_t part)
 140:d:\kzc\stm32\h743ii_lcd\lvgl\src\core\lv_obj_style_gen.h **** {
 141:d:\kzc\stm32\h743ii_lcd\lvgl\src\core\lv_obj_style_gen.h ****     lv_style_value_t v = lv_obj_get_style_prop(obj, part, LV_STYLE_BG_COLOR);
 142:d:\kzc\stm32\h743ii_lcd\lvgl\src\core\lv_obj_style_gen.h ****     return v.color;
 143:d:\kzc\stm32\h743ii_lcd\lvgl\src\core\lv_obj_style_gen.h **** }
 144:d:\kzc\stm32\h743ii_lcd\lvgl\src\core\lv_obj_style_gen.h **** 
 145:d:\kzc\stm32\h743ii_lcd\lvgl\src\core\lv_obj_style_gen.h **** static inline lv_color_t lv_obj_get_style_bg_color_filtered(const struct _lv_obj_t * obj, uint32_t 
 146:d:\kzc\stm32\h743ii_lcd\lvgl\src\core\lv_obj_style_gen.h **** {
 147:d:\kzc\stm32\h743ii_lcd\lvgl\src\core\lv_obj_style_gen.h ****     lv_style_value_t v = _lv_obj_style_apply_color_filter(obj, part, lv_obj_get_style_prop(obj, par
 148:d:\kzc\stm32\h743ii_lcd\lvgl\src\core\lv_obj_style_gen.h ****     return v.color;
 149:d:\kzc\stm32\h743ii_lcd\lvgl\src\core\lv_obj_style_gen.h **** }
 150:d:\kzc\stm32\h743ii_lcd\lvgl\src\core\lv_obj_style_gen.h **** 
 151:d:\kzc\stm32\h743ii_lcd\lvgl\src\core\lv_obj_style_gen.h **** static inline lv_opa_t lv_obj_get_style_bg_opa(const struct _lv_obj_t * obj, uint32_t part)
 152:d:\kzc\stm32\h743ii_lcd\lvgl\src\core\lv_obj_style_gen.h **** {
 153:d:\kzc\stm32\h743ii_lcd\lvgl\src\core\lv_obj_style_gen.h ****     lv_style_value_t v = lv_obj_get_style_prop(obj, part, LV_STYLE_BG_OPA);
 154:d:\kzc\stm32\h743ii_lcd\lvgl\src\core\lv_obj_style_gen.h ****     return (lv_opa_t)v.num;
 155:d:\kzc\stm32\h743ii_lcd\lvgl\src\core\lv_obj_style_gen.h **** }
 156:d:\kzc\stm32\h743ii_lcd\lvgl\src\core\lv_obj_style_gen.h **** 
 157:d:\kzc\stm32\h743ii_lcd\lvgl\src\core\lv_obj_style_gen.h **** static inline lv_color_t lv_obj_get_style_bg_grad_color(const struct _lv_obj_t * obj, uint32_t part
 158:d:\kzc\stm32\h743ii_lcd\lvgl\src\core\lv_obj_style_gen.h **** {
 159:d:\kzc\stm32\h743ii_lcd\lvgl\src\core\lv_obj_style_gen.h ****     lv_style_value_t v = lv_obj_get_style_prop(obj, part, LV_STYLE_BG_GRAD_COLOR);
 160:d:\kzc\stm32\h743ii_lcd\lvgl\src\core\lv_obj_style_gen.h ****     return v.color;
 161:d:\kzc\stm32\h743ii_lcd\lvgl\src\core\lv_obj_style_gen.h **** }
 162:d:\kzc\stm32\h743ii_lcd\lvgl\src\core\lv_obj_style_gen.h **** 
 163:d:\kzc\stm32\h743ii_lcd\lvgl\src\core\lv_obj_style_gen.h **** static inline lv_color_t lv_obj_get_style_bg_grad_color_filtered(const struct _lv_obj_t * obj, uint
 164:d:\kzc\stm32\h743ii_lcd\lvgl\src\core\lv_obj_style_gen.h **** {
 165:d:\kzc\stm32\h743ii_lcd\lvgl\src\core\lv_obj_style_gen.h ****     lv_style_value_t v = _lv_obj_style_apply_color_filter(obj, part, lv_obj_get_style_prop(obj, par
 166:d:\kzc\stm32\h743ii_lcd\lvgl\src\core\lv_obj_style_gen.h ****     return v.color;
 167:d:\kzc\stm32\h743ii_lcd\lvgl\src\core\lv_obj_style_gen.h **** }
 168:d:\kzc\stm32\h743ii_lcd\lvgl\src\core\lv_obj_style_gen.h **** 
 169:d:\kzc\stm32\h743ii_lcd\lvgl\src\core\lv_obj_style_gen.h **** static inline lv_grad_dir_t lv_obj_get_style_bg_grad_dir(const struct _lv_obj_t * obj, uint32_t par
 170:d:\kzc\stm32\h743ii_lcd\lvgl\src\core\lv_obj_style_gen.h **** {
 171:d:\kzc\stm32\h743ii_lcd\lvgl\src\core\lv_obj_style_gen.h ****     lv_style_value_t v = lv_obj_get_style_prop(obj, part, LV_STYLE_BG_GRAD_DIR);
 172:d:\kzc\stm32\h743ii_lcd\lvgl\src\core\lv_obj_style_gen.h ****     return (lv_grad_dir_t)v.num;
 173:d:\kzc\stm32\h743ii_lcd\lvgl\src\core\lv_obj_style_gen.h **** }
 174:d:\kzc\stm32\h743ii_lcd\lvgl\src\core\lv_obj_style_gen.h **** 
 175:d:\kzc\stm32\h743ii_lcd\lvgl\src\core\lv_obj_style_gen.h **** static inline lv_coord_t lv_obj_get_style_bg_main_stop(const struct _lv_obj_t * obj, uint32_t part)
 176:d:\kzc\stm32\h743ii_lcd\lvgl\src\core\lv_obj_style_gen.h **** {
 177:d:\kzc\stm32\h743ii_lcd\lvgl\src\core\lv_obj_style_gen.h ****     lv_style_value_t v = lv_obj_get_style_prop(obj, part, LV_STYLE_BG_MAIN_STOP);
 178:d:\kzc\stm32\h743ii_lcd\lvgl\src\core\lv_obj_style_gen.h ****     return (lv_coord_t)v.num;
 179:d:\kzc\stm32\h743ii_lcd\lvgl\src\core\lv_obj_style_gen.h **** }
 180:d:\kzc\stm32\h743ii_lcd\lvgl\src\core\lv_obj_style_gen.h **** 
ARM GAS  C:\Users\OSD\AppData\Local\Temp\ccKYLEBM.s 			page 36


 181:d:\kzc\stm32\h743ii_lcd\lvgl\src\core\lv_obj_style_gen.h **** static inline lv_coord_t lv_obj_get_style_bg_grad_stop(const struct _lv_obj_t * obj, uint32_t part)
 182:d:\kzc\stm32\h743ii_lcd\lvgl\src\core\lv_obj_style_gen.h **** {
 183:d:\kzc\stm32\h743ii_lcd\lvgl\src\core\lv_obj_style_gen.h ****     lv_style_value_t v = lv_obj_get_style_prop(obj, part, LV_STYLE_BG_GRAD_STOP);
 184:d:\kzc\stm32\h743ii_lcd\lvgl\src\core\lv_obj_style_gen.h ****     return (lv_coord_t)v.num;
 185:d:\kzc\stm32\h743ii_lcd\lvgl\src\core\lv_obj_style_gen.h **** }
 186:d:\kzc\stm32\h743ii_lcd\lvgl\src\core\lv_obj_style_gen.h **** 
 187:d:\kzc\stm32\h743ii_lcd\lvgl\src\core\lv_obj_style_gen.h **** static inline const lv_grad_dsc_t * lv_obj_get_style_bg_grad(const struct _lv_obj_t * obj, uint32_t
 188:d:\kzc\stm32\h743ii_lcd\lvgl\src\core\lv_obj_style_gen.h **** {
 189:d:\kzc\stm32\h743ii_lcd\lvgl\src\core\lv_obj_style_gen.h ****     lv_style_value_t v = lv_obj_get_style_prop(obj, part, LV_STYLE_BG_GRAD);
 190:d:\kzc\stm32\h743ii_lcd\lvgl\src\core\lv_obj_style_gen.h ****     return (const lv_grad_dsc_t *)v.ptr;
 191:d:\kzc\stm32\h743ii_lcd\lvgl\src\core\lv_obj_style_gen.h **** }
 192:d:\kzc\stm32\h743ii_lcd\lvgl\src\core\lv_obj_style_gen.h **** 
 193:d:\kzc\stm32\h743ii_lcd\lvgl\src\core\lv_obj_style_gen.h **** static inline lv_dither_mode_t lv_obj_get_style_bg_dither_mode(const struct _lv_obj_t * obj, uint32
 194:d:\kzc\stm32\h743ii_lcd\lvgl\src\core\lv_obj_style_gen.h **** {
 195:d:\kzc\stm32\h743ii_lcd\lvgl\src\core\lv_obj_style_gen.h ****     lv_style_value_t v = lv_obj_get_style_prop(obj, part, LV_STYLE_BG_DITHER_MODE);
 196:d:\kzc\stm32\h743ii_lcd\lvgl\src\core\lv_obj_style_gen.h ****     return (lv_dither_mode_t)v.num;
 197:d:\kzc\stm32\h743ii_lcd\lvgl\src\core\lv_obj_style_gen.h **** }
 198:d:\kzc\stm32\h743ii_lcd\lvgl\src\core\lv_obj_style_gen.h **** 
 199:d:\kzc\stm32\h743ii_lcd\lvgl\src\core\lv_obj_style_gen.h **** static inline const void * lv_obj_get_style_bg_img_src(const struct _lv_obj_t * obj, uint32_t part)
 200:d:\kzc\stm32\h743ii_lcd\lvgl\src\core\lv_obj_style_gen.h **** {
 201:d:\kzc\stm32\h743ii_lcd\lvgl\src\core\lv_obj_style_gen.h ****     lv_style_value_t v = lv_obj_get_style_prop(obj, part, LV_STYLE_BG_IMG_SRC);
 202:d:\kzc\stm32\h743ii_lcd\lvgl\src\core\lv_obj_style_gen.h ****     return (const void *)v.ptr;
 203:d:\kzc\stm32\h743ii_lcd\lvgl\src\core\lv_obj_style_gen.h **** }
 204:d:\kzc\stm32\h743ii_lcd\lvgl\src\core\lv_obj_style_gen.h **** 
 205:d:\kzc\stm32\h743ii_lcd\lvgl\src\core\lv_obj_style_gen.h **** static inline lv_opa_t lv_obj_get_style_bg_img_opa(const struct _lv_obj_t * obj, uint32_t part)
 206:d:\kzc\stm32\h743ii_lcd\lvgl\src\core\lv_obj_style_gen.h **** {
 207:d:\kzc\stm32\h743ii_lcd\lvgl\src\core\lv_obj_style_gen.h ****     lv_style_value_t v = lv_obj_get_style_prop(obj, part, LV_STYLE_BG_IMG_OPA);
 208:d:\kzc\stm32\h743ii_lcd\lvgl\src\core\lv_obj_style_gen.h ****     return (lv_opa_t)v.num;
 209:d:\kzc\stm32\h743ii_lcd\lvgl\src\core\lv_obj_style_gen.h **** }
 210:d:\kzc\stm32\h743ii_lcd\lvgl\src\core\lv_obj_style_gen.h **** 
 211:d:\kzc\stm32\h743ii_lcd\lvgl\src\core\lv_obj_style_gen.h **** static inline lv_color_t lv_obj_get_style_bg_img_recolor(const struct _lv_obj_t * obj, uint32_t par
 212:d:\kzc\stm32\h743ii_lcd\lvgl\src\core\lv_obj_style_gen.h **** {
 213:d:\kzc\stm32\h743ii_lcd\lvgl\src\core\lv_obj_style_gen.h ****     lv_style_value_t v = lv_obj_get_style_prop(obj, part, LV_STYLE_BG_IMG_RECOLOR);
 214:d:\kzc\stm32\h743ii_lcd\lvgl\src\core\lv_obj_style_gen.h ****     return v.color;
 215:d:\kzc\stm32\h743ii_lcd\lvgl\src\core\lv_obj_style_gen.h **** }
 216:d:\kzc\stm32\h743ii_lcd\lvgl\src\core\lv_obj_style_gen.h **** 
 217:d:\kzc\stm32\h743ii_lcd\lvgl\src\core\lv_obj_style_gen.h **** static inline lv_color_t lv_obj_get_style_bg_img_recolor_filtered(const struct _lv_obj_t * obj, uin
 218:d:\kzc\stm32\h743ii_lcd\lvgl\src\core\lv_obj_style_gen.h **** {
 219:d:\kzc\stm32\h743ii_lcd\lvgl\src\core\lv_obj_style_gen.h ****     lv_style_value_t v = _lv_obj_style_apply_color_filter(obj, part, lv_obj_get_style_prop(obj, par
 220:d:\kzc\stm32\h743ii_lcd\lvgl\src\core\lv_obj_style_gen.h ****     return v.color;
 221:d:\kzc\stm32\h743ii_lcd\lvgl\src\core\lv_obj_style_gen.h **** }
 222:d:\kzc\stm32\h743ii_lcd\lvgl\src\core\lv_obj_style_gen.h **** 
 223:d:\kzc\stm32\h743ii_lcd\lvgl\src\core\lv_obj_style_gen.h **** static inline lv_opa_t lv_obj_get_style_bg_img_recolor_opa(const struct _lv_obj_t * obj, uint32_t p
 224:d:\kzc\stm32\h743ii_lcd\lvgl\src\core\lv_obj_style_gen.h **** {
 225:d:\kzc\stm32\h743ii_lcd\lvgl\src\core\lv_obj_style_gen.h ****     lv_style_value_t v = lv_obj_get_style_prop(obj, part, LV_STYLE_BG_IMG_RECOLOR_OPA);
 226:d:\kzc\stm32\h743ii_lcd\lvgl\src\core\lv_obj_style_gen.h ****     return (lv_opa_t)v.num;
 227:d:\kzc\stm32\h743ii_lcd\lvgl\src\core\lv_obj_style_gen.h **** }
 228:d:\kzc\stm32\h743ii_lcd\lvgl\src\core\lv_obj_style_gen.h **** 
 229:d:\kzc\stm32\h743ii_lcd\lvgl\src\core\lv_obj_style_gen.h **** static inline bool lv_obj_get_style_bg_img_tiled(const struct _lv_obj_t * obj, uint32_t part)
 230:d:\kzc\stm32\h743ii_lcd\lvgl\src\core\lv_obj_style_gen.h **** {
 231:d:\kzc\stm32\h743ii_lcd\lvgl\src\core\lv_obj_style_gen.h ****     lv_style_value_t v = lv_obj_get_style_prop(obj, part, LV_STYLE_BG_IMG_TILED);
 232:d:\kzc\stm32\h743ii_lcd\lvgl\src\core\lv_obj_style_gen.h ****     return (bool)v.num;
 233:d:\kzc\stm32\h743ii_lcd\lvgl\src\core\lv_obj_style_gen.h **** }
 234:d:\kzc\stm32\h743ii_lcd\lvgl\src\core\lv_obj_style_gen.h **** 
 235:d:\kzc\stm32\h743ii_lcd\lvgl\src\core\lv_obj_style_gen.h **** static inline lv_color_t lv_obj_get_style_border_color(const struct _lv_obj_t * obj, uint32_t part)
 236:d:\kzc\stm32\h743ii_lcd\lvgl\src\core\lv_obj_style_gen.h **** {
 237:d:\kzc\stm32\h743ii_lcd\lvgl\src\core\lv_obj_style_gen.h ****     lv_style_value_t v = lv_obj_get_style_prop(obj, part, LV_STYLE_BORDER_COLOR);
ARM GAS  C:\Users\OSD\AppData\Local\Temp\ccKYLEBM.s 			page 37


 238:d:\kzc\stm32\h743ii_lcd\lvgl\src\core\lv_obj_style_gen.h ****     return v.color;
 239:d:\kzc\stm32\h743ii_lcd\lvgl\src\core\lv_obj_style_gen.h **** }
 240:d:\kzc\stm32\h743ii_lcd\lvgl\src\core\lv_obj_style_gen.h **** 
 241:d:\kzc\stm32\h743ii_lcd\lvgl\src\core\lv_obj_style_gen.h **** static inline lv_color_t lv_obj_get_style_border_color_filtered(const struct _lv_obj_t * obj, uint3
 242:d:\kzc\stm32\h743ii_lcd\lvgl\src\core\lv_obj_style_gen.h **** {
 243:d:\kzc\stm32\h743ii_lcd\lvgl\src\core\lv_obj_style_gen.h ****     lv_style_value_t v = _lv_obj_style_apply_color_filter(obj, part, lv_obj_get_style_prop(obj, par
 244:d:\kzc\stm32\h743ii_lcd\lvgl\src\core\lv_obj_style_gen.h ****     return v.color;
 245:d:\kzc\stm32\h743ii_lcd\lvgl\src\core\lv_obj_style_gen.h **** }
 246:d:\kzc\stm32\h743ii_lcd\lvgl\src\core\lv_obj_style_gen.h **** 
 247:d:\kzc\stm32\h743ii_lcd\lvgl\src\core\lv_obj_style_gen.h **** static inline lv_opa_t lv_obj_get_style_border_opa(const struct _lv_obj_t * obj, uint32_t part)
 248:d:\kzc\stm32\h743ii_lcd\lvgl\src\core\lv_obj_style_gen.h **** {
 249:d:\kzc\stm32\h743ii_lcd\lvgl\src\core\lv_obj_style_gen.h ****     lv_style_value_t v = lv_obj_get_style_prop(obj, part, LV_STYLE_BORDER_OPA);
 250:d:\kzc\stm32\h743ii_lcd\lvgl\src\core\lv_obj_style_gen.h ****     return (lv_opa_t)v.num;
 251:d:\kzc\stm32\h743ii_lcd\lvgl\src\core\lv_obj_style_gen.h **** }
 252:d:\kzc\stm32\h743ii_lcd\lvgl\src\core\lv_obj_style_gen.h **** 
 253:d:\kzc\stm32\h743ii_lcd\lvgl\src\core\lv_obj_style_gen.h **** static inline lv_coord_t lv_obj_get_style_border_width(const struct _lv_obj_t * obj, uint32_t part)
 254:d:\kzc\stm32\h743ii_lcd\lvgl\src\core\lv_obj_style_gen.h **** {
 255:d:\kzc\stm32\h743ii_lcd\lvgl\src\core\lv_obj_style_gen.h ****     lv_style_value_t v = lv_obj_get_style_prop(obj, part, LV_STYLE_BORDER_WIDTH);
 256:d:\kzc\stm32\h743ii_lcd\lvgl\src\core\lv_obj_style_gen.h ****     return (lv_coord_t)v.num;
 257:d:\kzc\stm32\h743ii_lcd\lvgl\src\core\lv_obj_style_gen.h **** }
 258:d:\kzc\stm32\h743ii_lcd\lvgl\src\core\lv_obj_style_gen.h **** 
 259:d:\kzc\stm32\h743ii_lcd\lvgl\src\core\lv_obj_style_gen.h **** static inline lv_border_side_t lv_obj_get_style_border_side(const struct _lv_obj_t * obj, uint32_t 
 260:d:\kzc\stm32\h743ii_lcd\lvgl\src\core\lv_obj_style_gen.h **** {
 261:d:\kzc\stm32\h743ii_lcd\lvgl\src\core\lv_obj_style_gen.h ****     lv_style_value_t v = lv_obj_get_style_prop(obj, part, LV_STYLE_BORDER_SIDE);
 262:d:\kzc\stm32\h743ii_lcd\lvgl\src\core\lv_obj_style_gen.h ****     return (lv_border_side_t)v.num;
 263:d:\kzc\stm32\h743ii_lcd\lvgl\src\core\lv_obj_style_gen.h **** }
 264:d:\kzc\stm32\h743ii_lcd\lvgl\src\core\lv_obj_style_gen.h **** 
 265:d:\kzc\stm32\h743ii_lcd\lvgl\src\core\lv_obj_style_gen.h **** static inline bool lv_obj_get_style_border_post(const struct _lv_obj_t * obj, uint32_t part)
 266:d:\kzc\stm32\h743ii_lcd\lvgl\src\core\lv_obj_style_gen.h **** {
 267:d:\kzc\stm32\h743ii_lcd\lvgl\src\core\lv_obj_style_gen.h ****     lv_style_value_t v = lv_obj_get_style_prop(obj, part, LV_STYLE_BORDER_POST);
 268:d:\kzc\stm32\h743ii_lcd\lvgl\src\core\lv_obj_style_gen.h ****     return (bool)v.num;
 269:d:\kzc\stm32\h743ii_lcd\lvgl\src\core\lv_obj_style_gen.h **** }
 270:d:\kzc\stm32\h743ii_lcd\lvgl\src\core\lv_obj_style_gen.h **** 
 271:d:\kzc\stm32\h743ii_lcd\lvgl\src\core\lv_obj_style_gen.h **** static inline lv_coord_t lv_obj_get_style_outline_width(const struct _lv_obj_t * obj, uint32_t part
 272:d:\kzc\stm32\h743ii_lcd\lvgl\src\core\lv_obj_style_gen.h **** {
 273:d:\kzc\stm32\h743ii_lcd\lvgl\src\core\lv_obj_style_gen.h ****     lv_style_value_t v = lv_obj_get_style_prop(obj, part, LV_STYLE_OUTLINE_WIDTH);
 274:d:\kzc\stm32\h743ii_lcd\lvgl\src\core\lv_obj_style_gen.h ****     return (lv_coord_t)v.num;
 275:d:\kzc\stm32\h743ii_lcd\lvgl\src\core\lv_obj_style_gen.h **** }
 276:d:\kzc\stm32\h743ii_lcd\lvgl\src\core\lv_obj_style_gen.h **** 
 277:d:\kzc\stm32\h743ii_lcd\lvgl\src\core\lv_obj_style_gen.h **** static inline lv_color_t lv_obj_get_style_outline_color(const struct _lv_obj_t * obj, uint32_t part
 278:d:\kzc\stm32\h743ii_lcd\lvgl\src\core\lv_obj_style_gen.h **** {
 279:d:\kzc\stm32\h743ii_lcd\lvgl\src\core\lv_obj_style_gen.h ****     lv_style_value_t v = lv_obj_get_style_prop(obj, part, LV_STYLE_OUTLINE_COLOR);
 280:d:\kzc\stm32\h743ii_lcd\lvgl\src\core\lv_obj_style_gen.h ****     return v.color;
 281:d:\kzc\stm32\h743ii_lcd\lvgl\src\core\lv_obj_style_gen.h **** }
 282:d:\kzc\stm32\h743ii_lcd\lvgl\src\core\lv_obj_style_gen.h **** 
 283:d:\kzc\stm32\h743ii_lcd\lvgl\src\core\lv_obj_style_gen.h **** static inline lv_color_t lv_obj_get_style_outline_color_filtered(const struct _lv_obj_t * obj, uint
 284:d:\kzc\stm32\h743ii_lcd\lvgl\src\core\lv_obj_style_gen.h **** {
 285:d:\kzc\stm32\h743ii_lcd\lvgl\src\core\lv_obj_style_gen.h ****     lv_style_value_t v = _lv_obj_style_apply_color_filter(obj, part, lv_obj_get_style_prop(obj, par
 286:d:\kzc\stm32\h743ii_lcd\lvgl\src\core\lv_obj_style_gen.h ****     return v.color;
 287:d:\kzc\stm32\h743ii_lcd\lvgl\src\core\lv_obj_style_gen.h **** }
 288:d:\kzc\stm32\h743ii_lcd\lvgl\src\core\lv_obj_style_gen.h **** 
 289:d:\kzc\stm32\h743ii_lcd\lvgl\src\core\lv_obj_style_gen.h **** static inline lv_opa_t lv_obj_get_style_outline_opa(const struct _lv_obj_t * obj, uint32_t part)
 290:d:\kzc\stm32\h743ii_lcd\lvgl\src\core\lv_obj_style_gen.h **** {
 291:d:\kzc\stm32\h743ii_lcd\lvgl\src\core\lv_obj_style_gen.h ****     lv_style_value_t v = lv_obj_get_style_prop(obj, part, LV_STYLE_OUTLINE_OPA);
 292:d:\kzc\stm32\h743ii_lcd\lvgl\src\core\lv_obj_style_gen.h ****     return (lv_opa_t)v.num;
 293:d:\kzc\stm32\h743ii_lcd\lvgl\src\core\lv_obj_style_gen.h **** }
 294:d:\kzc\stm32\h743ii_lcd\lvgl\src\core\lv_obj_style_gen.h **** 
ARM GAS  C:\Users\OSD\AppData\Local\Temp\ccKYLEBM.s 			page 38


 295:d:\kzc\stm32\h743ii_lcd\lvgl\src\core\lv_obj_style_gen.h **** static inline lv_coord_t lv_obj_get_style_outline_pad(const struct _lv_obj_t * obj, uint32_t part)
 296:d:\kzc\stm32\h743ii_lcd\lvgl\src\core\lv_obj_style_gen.h **** {
 297:d:\kzc\stm32\h743ii_lcd\lvgl\src\core\lv_obj_style_gen.h ****     lv_style_value_t v = lv_obj_get_style_prop(obj, part, LV_STYLE_OUTLINE_PAD);
 298:d:\kzc\stm32\h743ii_lcd\lvgl\src\core\lv_obj_style_gen.h ****     return (lv_coord_t)v.num;
 299:d:\kzc\stm32\h743ii_lcd\lvgl\src\core\lv_obj_style_gen.h **** }
 300:d:\kzc\stm32\h743ii_lcd\lvgl\src\core\lv_obj_style_gen.h **** 
 301:d:\kzc\stm32\h743ii_lcd\lvgl\src\core\lv_obj_style_gen.h **** static inline lv_coord_t lv_obj_get_style_shadow_width(const struct _lv_obj_t * obj, uint32_t part)
 302:d:\kzc\stm32\h743ii_lcd\lvgl\src\core\lv_obj_style_gen.h **** {
 303:d:\kzc\stm32\h743ii_lcd\lvgl\src\core\lv_obj_style_gen.h ****     lv_style_value_t v = lv_obj_get_style_prop(obj, part, LV_STYLE_SHADOW_WIDTH);
 304:d:\kzc\stm32\h743ii_lcd\lvgl\src\core\lv_obj_style_gen.h ****     return (lv_coord_t)v.num;
 305:d:\kzc\stm32\h743ii_lcd\lvgl\src\core\lv_obj_style_gen.h **** }
 306:d:\kzc\stm32\h743ii_lcd\lvgl\src\core\lv_obj_style_gen.h **** 
 307:d:\kzc\stm32\h743ii_lcd\lvgl\src\core\lv_obj_style_gen.h **** static inline lv_coord_t lv_obj_get_style_shadow_ofs_x(const struct _lv_obj_t * obj, uint32_t part)
 308:d:\kzc\stm32\h743ii_lcd\lvgl\src\core\lv_obj_style_gen.h **** {
 309:d:\kzc\stm32\h743ii_lcd\lvgl\src\core\lv_obj_style_gen.h ****     lv_style_value_t v = lv_obj_get_style_prop(obj, part, LV_STYLE_SHADOW_OFS_X);
 310:d:\kzc\stm32\h743ii_lcd\lvgl\src\core\lv_obj_style_gen.h ****     return (lv_coord_t)v.num;
 311:d:\kzc\stm32\h743ii_lcd\lvgl\src\core\lv_obj_style_gen.h **** }
 312:d:\kzc\stm32\h743ii_lcd\lvgl\src\core\lv_obj_style_gen.h **** 
 313:d:\kzc\stm32\h743ii_lcd\lvgl\src\core\lv_obj_style_gen.h **** static inline lv_coord_t lv_obj_get_style_shadow_ofs_y(const struct _lv_obj_t * obj, uint32_t part)
 314:d:\kzc\stm32\h743ii_lcd\lvgl\src\core\lv_obj_style_gen.h **** {
 315:d:\kzc\stm32\h743ii_lcd\lvgl\src\core\lv_obj_style_gen.h ****     lv_style_value_t v = lv_obj_get_style_prop(obj, part, LV_STYLE_SHADOW_OFS_Y);
 316:d:\kzc\stm32\h743ii_lcd\lvgl\src\core\lv_obj_style_gen.h ****     return (lv_coord_t)v.num;
 317:d:\kzc\stm32\h743ii_lcd\lvgl\src\core\lv_obj_style_gen.h **** }
 318:d:\kzc\stm32\h743ii_lcd\lvgl\src\core\lv_obj_style_gen.h **** 
 319:d:\kzc\stm32\h743ii_lcd\lvgl\src\core\lv_obj_style_gen.h **** static inline lv_coord_t lv_obj_get_style_shadow_spread(const struct _lv_obj_t * obj, uint32_t part
 320:d:\kzc\stm32\h743ii_lcd\lvgl\src\core\lv_obj_style_gen.h **** {
 321:d:\kzc\stm32\h743ii_lcd\lvgl\src\core\lv_obj_style_gen.h ****     lv_style_value_t v = lv_obj_get_style_prop(obj, part, LV_STYLE_SHADOW_SPREAD);
 322:d:\kzc\stm32\h743ii_lcd\lvgl\src\core\lv_obj_style_gen.h ****     return (lv_coord_t)v.num;
 323:d:\kzc\stm32\h743ii_lcd\lvgl\src\core\lv_obj_style_gen.h **** }
 324:d:\kzc\stm32\h743ii_lcd\lvgl\src\core\lv_obj_style_gen.h **** 
 325:d:\kzc\stm32\h743ii_lcd\lvgl\src\core\lv_obj_style_gen.h **** static inline lv_color_t lv_obj_get_style_shadow_color(const struct _lv_obj_t * obj, uint32_t part)
 326:d:\kzc\stm32\h743ii_lcd\lvgl\src\core\lv_obj_style_gen.h **** {
 327:d:\kzc\stm32\h743ii_lcd\lvgl\src\core\lv_obj_style_gen.h ****     lv_style_value_t v = lv_obj_get_style_prop(obj, part, LV_STYLE_SHADOW_COLOR);
 328:d:\kzc\stm32\h743ii_lcd\lvgl\src\core\lv_obj_style_gen.h ****     return v.color;
 329:d:\kzc\stm32\h743ii_lcd\lvgl\src\core\lv_obj_style_gen.h **** }
 330:d:\kzc\stm32\h743ii_lcd\lvgl\src\core\lv_obj_style_gen.h **** 
 331:d:\kzc\stm32\h743ii_lcd\lvgl\src\core\lv_obj_style_gen.h **** static inline lv_color_t lv_obj_get_style_shadow_color_filtered(const struct _lv_obj_t * obj, uint3
 332:d:\kzc\stm32\h743ii_lcd\lvgl\src\core\lv_obj_style_gen.h **** {
 333:d:\kzc\stm32\h743ii_lcd\lvgl\src\core\lv_obj_style_gen.h ****     lv_style_value_t v = _lv_obj_style_apply_color_filter(obj, part, lv_obj_get_style_prop(obj, par
 334:d:\kzc\stm32\h743ii_lcd\lvgl\src\core\lv_obj_style_gen.h ****     return v.color;
 335:d:\kzc\stm32\h743ii_lcd\lvgl\src\core\lv_obj_style_gen.h **** }
 336:d:\kzc\stm32\h743ii_lcd\lvgl\src\core\lv_obj_style_gen.h **** 
 337:d:\kzc\stm32\h743ii_lcd\lvgl\src\core\lv_obj_style_gen.h **** static inline lv_opa_t lv_obj_get_style_shadow_opa(const struct _lv_obj_t * obj, uint32_t part)
 338:d:\kzc\stm32\h743ii_lcd\lvgl\src\core\lv_obj_style_gen.h **** {
 339:d:\kzc\stm32\h743ii_lcd\lvgl\src\core\lv_obj_style_gen.h ****     lv_style_value_t v = lv_obj_get_style_prop(obj, part, LV_STYLE_SHADOW_OPA);
 340:d:\kzc\stm32\h743ii_lcd\lvgl\src\core\lv_obj_style_gen.h ****     return (lv_opa_t)v.num;
 341:d:\kzc\stm32\h743ii_lcd\lvgl\src\core\lv_obj_style_gen.h **** }
 342:d:\kzc\stm32\h743ii_lcd\lvgl\src\core\lv_obj_style_gen.h **** 
 343:d:\kzc\stm32\h743ii_lcd\lvgl\src\core\lv_obj_style_gen.h **** static inline lv_opa_t lv_obj_get_style_img_opa(const struct _lv_obj_t * obj, uint32_t part)
 344:d:\kzc\stm32\h743ii_lcd\lvgl\src\core\lv_obj_style_gen.h **** {
 345:d:\kzc\stm32\h743ii_lcd\lvgl\src\core\lv_obj_style_gen.h ****     lv_style_value_t v = lv_obj_get_style_prop(obj, part, LV_STYLE_IMG_OPA);
 346:d:\kzc\stm32\h743ii_lcd\lvgl\src\core\lv_obj_style_gen.h ****     return (lv_opa_t)v.num;
 347:d:\kzc\stm32\h743ii_lcd\lvgl\src\core\lv_obj_style_gen.h **** }
 348:d:\kzc\stm32\h743ii_lcd\lvgl\src\core\lv_obj_style_gen.h **** 
 349:d:\kzc\stm32\h743ii_lcd\lvgl\src\core\lv_obj_style_gen.h **** static inline lv_color_t lv_obj_get_style_img_recolor(const struct _lv_obj_t * obj, uint32_t part)
 350:d:\kzc\stm32\h743ii_lcd\lvgl\src\core\lv_obj_style_gen.h **** {
 351:d:\kzc\stm32\h743ii_lcd\lvgl\src\core\lv_obj_style_gen.h ****     lv_style_value_t v = lv_obj_get_style_prop(obj, part, LV_STYLE_IMG_RECOLOR);
ARM GAS  C:\Users\OSD\AppData\Local\Temp\ccKYLEBM.s 			page 39


 352:d:\kzc\stm32\h743ii_lcd\lvgl\src\core\lv_obj_style_gen.h ****     return v.color;
 353:d:\kzc\stm32\h743ii_lcd\lvgl\src\core\lv_obj_style_gen.h **** }
 354:d:\kzc\stm32\h743ii_lcd\lvgl\src\core\lv_obj_style_gen.h **** 
 355:d:\kzc\stm32\h743ii_lcd\lvgl\src\core\lv_obj_style_gen.h **** static inline lv_color_t lv_obj_get_style_img_recolor_filtered(const struct _lv_obj_t * obj, uint32
 356:d:\kzc\stm32\h743ii_lcd\lvgl\src\core\lv_obj_style_gen.h **** {
 357:d:\kzc\stm32\h743ii_lcd\lvgl\src\core\lv_obj_style_gen.h ****     lv_style_value_t v = _lv_obj_style_apply_color_filter(obj, part, lv_obj_get_style_prop(obj, par
 358:d:\kzc\stm32\h743ii_lcd\lvgl\src\core\lv_obj_style_gen.h ****     return v.color;
 359:d:\kzc\stm32\h743ii_lcd\lvgl\src\core\lv_obj_style_gen.h **** }
 360:d:\kzc\stm32\h743ii_lcd\lvgl\src\core\lv_obj_style_gen.h **** 
 361:d:\kzc\stm32\h743ii_lcd\lvgl\src\core\lv_obj_style_gen.h **** static inline lv_opa_t lv_obj_get_style_img_recolor_opa(const struct _lv_obj_t * obj, uint32_t part
 362:d:\kzc\stm32\h743ii_lcd\lvgl\src\core\lv_obj_style_gen.h **** {
 363:d:\kzc\stm32\h743ii_lcd\lvgl\src\core\lv_obj_style_gen.h ****     lv_style_value_t v = lv_obj_get_style_prop(obj, part, LV_STYLE_IMG_RECOLOR_OPA);
 364:d:\kzc\stm32\h743ii_lcd\lvgl\src\core\lv_obj_style_gen.h ****     return (lv_opa_t)v.num;
 365:d:\kzc\stm32\h743ii_lcd\lvgl\src\core\lv_obj_style_gen.h **** }
 366:d:\kzc\stm32\h743ii_lcd\lvgl\src\core\lv_obj_style_gen.h **** 
 367:d:\kzc\stm32\h743ii_lcd\lvgl\src\core\lv_obj_style_gen.h **** static inline lv_coord_t lv_obj_get_style_line_width(const struct _lv_obj_t * obj, uint32_t part)
 368:d:\kzc\stm32\h743ii_lcd\lvgl\src\core\lv_obj_style_gen.h **** {
 369:d:\kzc\stm32\h743ii_lcd\lvgl\src\core\lv_obj_style_gen.h ****     lv_style_value_t v = lv_obj_get_style_prop(obj, part, LV_STYLE_LINE_WIDTH);
 370:d:\kzc\stm32\h743ii_lcd\lvgl\src\core\lv_obj_style_gen.h ****     return (lv_coord_t)v.num;
 371:d:\kzc\stm32\h743ii_lcd\lvgl\src\core\lv_obj_style_gen.h **** }
 372:d:\kzc\stm32\h743ii_lcd\lvgl\src\core\lv_obj_style_gen.h **** 
 373:d:\kzc\stm32\h743ii_lcd\lvgl\src\core\lv_obj_style_gen.h **** static inline lv_coord_t lv_obj_get_style_line_dash_width(const struct _lv_obj_t * obj, uint32_t pa
 374:d:\kzc\stm32\h743ii_lcd\lvgl\src\core\lv_obj_style_gen.h **** {
 375:d:\kzc\stm32\h743ii_lcd\lvgl\src\core\lv_obj_style_gen.h ****     lv_style_value_t v = lv_obj_get_style_prop(obj, part, LV_STYLE_LINE_DASH_WIDTH);
 376:d:\kzc\stm32\h743ii_lcd\lvgl\src\core\lv_obj_style_gen.h ****     return (lv_coord_t)v.num;
 377:d:\kzc\stm32\h743ii_lcd\lvgl\src\core\lv_obj_style_gen.h **** }
 378:d:\kzc\stm32\h743ii_lcd\lvgl\src\core\lv_obj_style_gen.h **** 
 379:d:\kzc\stm32\h743ii_lcd\lvgl\src\core\lv_obj_style_gen.h **** static inline lv_coord_t lv_obj_get_style_line_dash_gap(const struct _lv_obj_t * obj, uint32_t part
 380:d:\kzc\stm32\h743ii_lcd\lvgl\src\core\lv_obj_style_gen.h **** {
 381:d:\kzc\stm32\h743ii_lcd\lvgl\src\core\lv_obj_style_gen.h ****     lv_style_value_t v = lv_obj_get_style_prop(obj, part, LV_STYLE_LINE_DASH_GAP);
 382:d:\kzc\stm32\h743ii_lcd\lvgl\src\core\lv_obj_style_gen.h ****     return (lv_coord_t)v.num;
 383:d:\kzc\stm32\h743ii_lcd\lvgl\src\core\lv_obj_style_gen.h **** }
 384:d:\kzc\stm32\h743ii_lcd\lvgl\src\core\lv_obj_style_gen.h **** 
 385:d:\kzc\stm32\h743ii_lcd\lvgl\src\core\lv_obj_style_gen.h **** static inline bool lv_obj_get_style_line_rounded(const struct _lv_obj_t * obj, uint32_t part)
 386:d:\kzc\stm32\h743ii_lcd\lvgl\src\core\lv_obj_style_gen.h **** {
 387:d:\kzc\stm32\h743ii_lcd\lvgl\src\core\lv_obj_style_gen.h ****     lv_style_value_t v = lv_obj_get_style_prop(obj, part, LV_STYLE_LINE_ROUNDED);
 388:d:\kzc\stm32\h743ii_lcd\lvgl\src\core\lv_obj_style_gen.h ****     return (bool)v.num;
 389:d:\kzc\stm32\h743ii_lcd\lvgl\src\core\lv_obj_style_gen.h **** }
 390:d:\kzc\stm32\h743ii_lcd\lvgl\src\core\lv_obj_style_gen.h **** 
 391:d:\kzc\stm32\h743ii_lcd\lvgl\src\core\lv_obj_style_gen.h **** static inline lv_color_t lv_obj_get_style_line_color(const struct _lv_obj_t * obj, uint32_t part)
 392:d:\kzc\stm32\h743ii_lcd\lvgl\src\core\lv_obj_style_gen.h **** {
 393:d:\kzc\stm32\h743ii_lcd\lvgl\src\core\lv_obj_style_gen.h ****     lv_style_value_t v = lv_obj_get_style_prop(obj, part, LV_STYLE_LINE_COLOR);
 394:d:\kzc\stm32\h743ii_lcd\lvgl\src\core\lv_obj_style_gen.h ****     return v.color;
 395:d:\kzc\stm32\h743ii_lcd\lvgl\src\core\lv_obj_style_gen.h **** }
 396:d:\kzc\stm32\h743ii_lcd\lvgl\src\core\lv_obj_style_gen.h **** 
 397:d:\kzc\stm32\h743ii_lcd\lvgl\src\core\lv_obj_style_gen.h **** static inline lv_color_t lv_obj_get_style_line_color_filtered(const struct _lv_obj_t * obj, uint32_
 398:d:\kzc\stm32\h743ii_lcd\lvgl\src\core\lv_obj_style_gen.h **** {
 399:d:\kzc\stm32\h743ii_lcd\lvgl\src\core\lv_obj_style_gen.h ****     lv_style_value_t v = _lv_obj_style_apply_color_filter(obj, part, lv_obj_get_style_prop(obj, par
 400:d:\kzc\stm32\h743ii_lcd\lvgl\src\core\lv_obj_style_gen.h ****     return v.color;
 401:d:\kzc\stm32\h743ii_lcd\lvgl\src\core\lv_obj_style_gen.h **** }
 402:d:\kzc\stm32\h743ii_lcd\lvgl\src\core\lv_obj_style_gen.h **** 
 403:d:\kzc\stm32\h743ii_lcd\lvgl\src\core\lv_obj_style_gen.h **** static inline lv_opa_t lv_obj_get_style_line_opa(const struct _lv_obj_t * obj, uint32_t part)
 404:d:\kzc\stm32\h743ii_lcd\lvgl\src\core\lv_obj_style_gen.h **** {
 405:d:\kzc\stm32\h743ii_lcd\lvgl\src\core\lv_obj_style_gen.h ****     lv_style_value_t v = lv_obj_get_style_prop(obj, part, LV_STYLE_LINE_OPA);
 406:d:\kzc\stm32\h743ii_lcd\lvgl\src\core\lv_obj_style_gen.h ****     return (lv_opa_t)v.num;
 407:d:\kzc\stm32\h743ii_lcd\lvgl\src\core\lv_obj_style_gen.h **** }
 408:d:\kzc\stm32\h743ii_lcd\lvgl\src\core\lv_obj_style_gen.h **** 
ARM GAS  C:\Users\OSD\AppData\Local\Temp\ccKYLEBM.s 			page 40


 409:d:\kzc\stm32\h743ii_lcd\lvgl\src\core\lv_obj_style_gen.h **** static inline lv_coord_t lv_obj_get_style_arc_width(const struct _lv_obj_t * obj, uint32_t part)
 410:d:\kzc\stm32\h743ii_lcd\lvgl\src\core\lv_obj_style_gen.h **** {
 411:d:\kzc\stm32\h743ii_lcd\lvgl\src\core\lv_obj_style_gen.h ****     lv_style_value_t v = lv_obj_get_style_prop(obj, part, LV_STYLE_ARC_WIDTH);
 412:d:\kzc\stm32\h743ii_lcd\lvgl\src\core\lv_obj_style_gen.h ****     return (lv_coord_t)v.num;
 413:d:\kzc\stm32\h743ii_lcd\lvgl\src\core\lv_obj_style_gen.h **** }
 414:d:\kzc\stm32\h743ii_lcd\lvgl\src\core\lv_obj_style_gen.h **** 
 415:d:\kzc\stm32\h743ii_lcd\lvgl\src\core\lv_obj_style_gen.h **** static inline bool lv_obj_get_style_arc_rounded(const struct _lv_obj_t * obj, uint32_t part)
 416:d:\kzc\stm32\h743ii_lcd\lvgl\src\core\lv_obj_style_gen.h **** {
 417:d:\kzc\stm32\h743ii_lcd\lvgl\src\core\lv_obj_style_gen.h ****     lv_style_value_t v = lv_obj_get_style_prop(obj, part, LV_STYLE_ARC_ROUNDED);
 418:d:\kzc\stm32\h743ii_lcd\lvgl\src\core\lv_obj_style_gen.h ****     return (bool)v.num;
 419:d:\kzc\stm32\h743ii_lcd\lvgl\src\core\lv_obj_style_gen.h **** }
 420:d:\kzc\stm32\h743ii_lcd\lvgl\src\core\lv_obj_style_gen.h **** 
 421:d:\kzc\stm32\h743ii_lcd\lvgl\src\core\lv_obj_style_gen.h **** static inline lv_color_t lv_obj_get_style_arc_color(const struct _lv_obj_t * obj, uint32_t part)
 422:d:\kzc\stm32\h743ii_lcd\lvgl\src\core\lv_obj_style_gen.h **** {
 423:d:\kzc\stm32\h743ii_lcd\lvgl\src\core\lv_obj_style_gen.h ****     lv_style_value_t v = lv_obj_get_style_prop(obj, part, LV_STYLE_ARC_COLOR);
 424:d:\kzc\stm32\h743ii_lcd\lvgl\src\core\lv_obj_style_gen.h ****     return v.color;
 425:d:\kzc\stm32\h743ii_lcd\lvgl\src\core\lv_obj_style_gen.h **** }
 426:d:\kzc\stm32\h743ii_lcd\lvgl\src\core\lv_obj_style_gen.h **** 
 427:d:\kzc\stm32\h743ii_lcd\lvgl\src\core\lv_obj_style_gen.h **** static inline lv_color_t lv_obj_get_style_arc_color_filtered(const struct _lv_obj_t * obj, uint32_t
 428:d:\kzc\stm32\h743ii_lcd\lvgl\src\core\lv_obj_style_gen.h **** {
 429:d:\kzc\stm32\h743ii_lcd\lvgl\src\core\lv_obj_style_gen.h ****     lv_style_value_t v = _lv_obj_style_apply_color_filter(obj, part, lv_obj_get_style_prop(obj, par
 430:d:\kzc\stm32\h743ii_lcd\lvgl\src\core\lv_obj_style_gen.h ****     return v.color;
 431:d:\kzc\stm32\h743ii_lcd\lvgl\src\core\lv_obj_style_gen.h **** }
 432:d:\kzc\stm32\h743ii_lcd\lvgl\src\core\lv_obj_style_gen.h **** 
 433:d:\kzc\stm32\h743ii_lcd\lvgl\src\core\lv_obj_style_gen.h **** static inline lv_opa_t lv_obj_get_style_arc_opa(const struct _lv_obj_t * obj, uint32_t part)
 434:d:\kzc\stm32\h743ii_lcd\lvgl\src\core\lv_obj_style_gen.h **** {
 435:d:\kzc\stm32\h743ii_lcd\lvgl\src\core\lv_obj_style_gen.h ****     lv_style_value_t v = lv_obj_get_style_prop(obj, part, LV_STYLE_ARC_OPA);
 436:d:\kzc\stm32\h743ii_lcd\lvgl\src\core\lv_obj_style_gen.h ****     return (lv_opa_t)v.num;
 437:d:\kzc\stm32\h743ii_lcd\lvgl\src\core\lv_obj_style_gen.h **** }
 438:d:\kzc\stm32\h743ii_lcd\lvgl\src\core\lv_obj_style_gen.h **** 
 439:d:\kzc\stm32\h743ii_lcd\lvgl\src\core\lv_obj_style_gen.h **** static inline const void * lv_obj_get_style_arc_img_src(const struct _lv_obj_t * obj, uint32_t part
 440:d:\kzc\stm32\h743ii_lcd\lvgl\src\core\lv_obj_style_gen.h **** {
 441:d:\kzc\stm32\h743ii_lcd\lvgl\src\core\lv_obj_style_gen.h ****     lv_style_value_t v = lv_obj_get_style_prop(obj, part, LV_STYLE_ARC_IMG_SRC);
 442:d:\kzc\stm32\h743ii_lcd\lvgl\src\core\lv_obj_style_gen.h ****     return (const void *)v.ptr;
 443:d:\kzc\stm32\h743ii_lcd\lvgl\src\core\lv_obj_style_gen.h **** }
 444:d:\kzc\stm32\h743ii_lcd\lvgl\src\core\lv_obj_style_gen.h **** 
 445:d:\kzc\stm32\h743ii_lcd\lvgl\src\core\lv_obj_style_gen.h **** static inline lv_color_t lv_obj_get_style_text_color(const struct _lv_obj_t * obj, uint32_t part)
 446:d:\kzc\stm32\h743ii_lcd\lvgl\src\core\lv_obj_style_gen.h **** {
 447:d:\kzc\stm32\h743ii_lcd\lvgl\src\core\lv_obj_style_gen.h ****     lv_style_value_t v = lv_obj_get_style_prop(obj, part, LV_STYLE_TEXT_COLOR);
 448:d:\kzc\stm32\h743ii_lcd\lvgl\src\core\lv_obj_style_gen.h ****     return v.color;
 449:d:\kzc\stm32\h743ii_lcd\lvgl\src\core\lv_obj_style_gen.h **** }
 450:d:\kzc\stm32\h743ii_lcd\lvgl\src\core\lv_obj_style_gen.h **** 
 451:d:\kzc\stm32\h743ii_lcd\lvgl\src\core\lv_obj_style_gen.h **** static inline lv_color_t lv_obj_get_style_text_color_filtered(const struct _lv_obj_t * obj, uint32_
 452:d:\kzc\stm32\h743ii_lcd\lvgl\src\core\lv_obj_style_gen.h **** {
 453:d:\kzc\stm32\h743ii_lcd\lvgl\src\core\lv_obj_style_gen.h ****     lv_style_value_t v = _lv_obj_style_apply_color_filter(obj, part, lv_obj_get_style_prop(obj, par
 454:d:\kzc\stm32\h743ii_lcd\lvgl\src\core\lv_obj_style_gen.h ****     return v.color;
 455:d:\kzc\stm32\h743ii_lcd\lvgl\src\core\lv_obj_style_gen.h **** }
 456:d:\kzc\stm32\h743ii_lcd\lvgl\src\core\lv_obj_style_gen.h **** 
 457:d:\kzc\stm32\h743ii_lcd\lvgl\src\core\lv_obj_style_gen.h **** static inline lv_opa_t lv_obj_get_style_text_opa(const struct _lv_obj_t * obj, uint32_t part)
 458:d:\kzc\stm32\h743ii_lcd\lvgl\src\core\lv_obj_style_gen.h **** {
 459:d:\kzc\stm32\h743ii_lcd\lvgl\src\core\lv_obj_style_gen.h ****     lv_style_value_t v = lv_obj_get_style_prop(obj, part, LV_STYLE_TEXT_OPA);
 460:d:\kzc\stm32\h743ii_lcd\lvgl\src\core\lv_obj_style_gen.h ****     return (lv_opa_t)v.num;
 461:d:\kzc\stm32\h743ii_lcd\lvgl\src\core\lv_obj_style_gen.h **** }
 462:d:\kzc\stm32\h743ii_lcd\lvgl\src\core\lv_obj_style_gen.h **** 
 463:d:\kzc\stm32\h743ii_lcd\lvgl\src\core\lv_obj_style_gen.h **** static inline const lv_font_t * lv_obj_get_style_text_font(const struct _lv_obj_t * obj, uint32_t p
 464:d:\kzc\stm32\h743ii_lcd\lvgl\src\core\lv_obj_style_gen.h **** {
 465:d:\kzc\stm32\h743ii_lcd\lvgl\src\core\lv_obj_style_gen.h ****     lv_style_value_t v = lv_obj_get_style_prop(obj, part, LV_STYLE_TEXT_FONT);
ARM GAS  C:\Users\OSD\AppData\Local\Temp\ccKYLEBM.s 			page 41


 466:d:\kzc\stm32\h743ii_lcd\lvgl\src\core\lv_obj_style_gen.h ****     return (const lv_font_t *)v.ptr;
 467:d:\kzc\stm32\h743ii_lcd\lvgl\src\core\lv_obj_style_gen.h **** }
 468:d:\kzc\stm32\h743ii_lcd\lvgl\src\core\lv_obj_style_gen.h **** 
 469:d:\kzc\stm32\h743ii_lcd\lvgl\src\core\lv_obj_style_gen.h **** static inline lv_coord_t lv_obj_get_style_text_letter_space(const struct _lv_obj_t * obj, uint32_t 
 470:d:\kzc\stm32\h743ii_lcd\lvgl\src\core\lv_obj_style_gen.h **** {
 471:d:\kzc\stm32\h743ii_lcd\lvgl\src\core\lv_obj_style_gen.h ****     lv_style_value_t v = lv_obj_get_style_prop(obj, part, LV_STYLE_TEXT_LETTER_SPACE);
 472:d:\kzc\stm32\h743ii_lcd\lvgl\src\core\lv_obj_style_gen.h ****     return (lv_coord_t)v.num;
 473:d:\kzc\stm32\h743ii_lcd\lvgl\src\core\lv_obj_style_gen.h **** }
 474:d:\kzc\stm32\h743ii_lcd\lvgl\src\core\lv_obj_style_gen.h **** 
 475:d:\kzc\stm32\h743ii_lcd\lvgl\src\core\lv_obj_style_gen.h **** static inline lv_coord_t lv_obj_get_style_text_line_space(const struct _lv_obj_t * obj, uint32_t pa
 476:d:\kzc\stm32\h743ii_lcd\lvgl\src\core\lv_obj_style_gen.h **** {
 477:d:\kzc\stm32\h743ii_lcd\lvgl\src\core\lv_obj_style_gen.h ****     lv_style_value_t v = lv_obj_get_style_prop(obj, part, LV_STYLE_TEXT_LINE_SPACE);
 478:d:\kzc\stm32\h743ii_lcd\lvgl\src\core\lv_obj_style_gen.h ****     return (lv_coord_t)v.num;
 479:d:\kzc\stm32\h743ii_lcd\lvgl\src\core\lv_obj_style_gen.h **** }
 480:d:\kzc\stm32\h743ii_lcd\lvgl\src\core\lv_obj_style_gen.h **** 
 481:d:\kzc\stm32\h743ii_lcd\lvgl\src\core\lv_obj_style_gen.h **** static inline lv_text_decor_t lv_obj_get_style_text_decor(const struct _lv_obj_t * obj, uint32_t pa
 482:d:\kzc\stm32\h743ii_lcd\lvgl\src\core\lv_obj_style_gen.h **** {
 483:d:\kzc\stm32\h743ii_lcd\lvgl\src\core\lv_obj_style_gen.h ****     lv_style_value_t v = lv_obj_get_style_prop(obj, part, LV_STYLE_TEXT_DECOR);
 484:d:\kzc\stm32\h743ii_lcd\lvgl\src\core\lv_obj_style_gen.h ****     return (lv_text_decor_t)v.num;
 485:d:\kzc\stm32\h743ii_lcd\lvgl\src\core\lv_obj_style_gen.h **** }
 486:d:\kzc\stm32\h743ii_lcd\lvgl\src\core\lv_obj_style_gen.h **** 
 487:d:\kzc\stm32\h743ii_lcd\lvgl\src\core\lv_obj_style_gen.h **** static inline lv_text_align_t lv_obj_get_style_text_align(const struct _lv_obj_t * obj, uint32_t pa
 488:d:\kzc\stm32\h743ii_lcd\lvgl\src\core\lv_obj_style_gen.h **** {
 489:d:\kzc\stm32\h743ii_lcd\lvgl\src\core\lv_obj_style_gen.h ****     lv_style_value_t v = lv_obj_get_style_prop(obj, part, LV_STYLE_TEXT_ALIGN);
 490:d:\kzc\stm32\h743ii_lcd\lvgl\src\core\lv_obj_style_gen.h ****     return (lv_text_align_t)v.num;
 491:d:\kzc\stm32\h743ii_lcd\lvgl\src\core\lv_obj_style_gen.h **** }
 492:d:\kzc\stm32\h743ii_lcd\lvgl\src\core\lv_obj_style_gen.h **** 
 493:d:\kzc\stm32\h743ii_lcd\lvgl\src\core\lv_obj_style_gen.h **** static inline lv_coord_t lv_obj_get_style_radius(const struct _lv_obj_t * obj, uint32_t part)
 494:d:\kzc\stm32\h743ii_lcd\lvgl\src\core\lv_obj_style_gen.h **** {
 495:d:\kzc\stm32\h743ii_lcd\lvgl\src\core\lv_obj_style_gen.h ****     lv_style_value_t v = lv_obj_get_style_prop(obj, part, LV_STYLE_RADIUS);
 496:d:\kzc\stm32\h743ii_lcd\lvgl\src\core\lv_obj_style_gen.h ****     return (lv_coord_t)v.num;
 497:d:\kzc\stm32\h743ii_lcd\lvgl\src\core\lv_obj_style_gen.h **** }
 498:d:\kzc\stm32\h743ii_lcd\lvgl\src\core\lv_obj_style_gen.h **** 
 499:d:\kzc\stm32\h743ii_lcd\lvgl\src\core\lv_obj_style_gen.h **** static inline bool lv_obj_get_style_clip_corner(const struct _lv_obj_t * obj, uint32_t part)
 500:d:\kzc\stm32\h743ii_lcd\lvgl\src\core\lv_obj_style_gen.h **** {
 501:d:\kzc\stm32\h743ii_lcd\lvgl\src\core\lv_obj_style_gen.h ****     lv_style_value_t v = lv_obj_get_style_prop(obj, part, LV_STYLE_CLIP_CORNER);
 502:d:\kzc\stm32\h743ii_lcd\lvgl\src\core\lv_obj_style_gen.h ****     return (bool)v.num;
 503:d:\kzc\stm32\h743ii_lcd\lvgl\src\core\lv_obj_style_gen.h **** }
 504:d:\kzc\stm32\h743ii_lcd\lvgl\src\core\lv_obj_style_gen.h **** 
 505:d:\kzc\stm32\h743ii_lcd\lvgl\src\core\lv_obj_style_gen.h **** static inline lv_opa_t lv_obj_get_style_opa(const struct _lv_obj_t * obj, uint32_t part)
 506:d:\kzc\stm32\h743ii_lcd\lvgl\src\core\lv_obj_style_gen.h **** {
 507:d:\kzc\stm32\h743ii_lcd\lvgl\src\core\lv_obj_style_gen.h ****     lv_style_value_t v = lv_obj_get_style_prop(obj, part, LV_STYLE_OPA);
 508:d:\kzc\stm32\h743ii_lcd\lvgl\src\core\lv_obj_style_gen.h ****     return (lv_opa_t)v.num;
 509:d:\kzc\stm32\h743ii_lcd\lvgl\src\core\lv_obj_style_gen.h **** }
 510:d:\kzc\stm32\h743ii_lcd\lvgl\src\core\lv_obj_style_gen.h **** 
 511:d:\kzc\stm32\h743ii_lcd\lvgl\src\core\lv_obj_style_gen.h **** static inline lv_opa_t lv_obj_get_style_opa_layered(const struct _lv_obj_t * obj, uint32_t part)
 512:d:\kzc\stm32\h743ii_lcd\lvgl\src\core\lv_obj_style_gen.h **** {
 513:d:\kzc\stm32\h743ii_lcd\lvgl\src\core\lv_obj_style_gen.h ****     lv_style_value_t v = lv_obj_get_style_prop(obj, part, LV_STYLE_OPA_LAYERED);
 514:d:\kzc\stm32\h743ii_lcd\lvgl\src\core\lv_obj_style_gen.h ****     return (lv_opa_t)v.num;
 515:d:\kzc\stm32\h743ii_lcd\lvgl\src\core\lv_obj_style_gen.h **** }
 516:d:\kzc\stm32\h743ii_lcd\lvgl\src\core\lv_obj_style_gen.h **** 
 517:d:\kzc\stm32\h743ii_lcd\lvgl\src\core\lv_obj_style_gen.h **** static inline const lv_color_filter_dsc_t * lv_obj_get_style_color_filter_dsc(const struct _lv_obj_
 518:d:\kzc\stm32\h743ii_lcd\lvgl\src\core\lv_obj_style_gen.h **** {
 519:d:\kzc\stm32\h743ii_lcd\lvgl\src\core\lv_obj_style_gen.h ****     lv_style_value_t v = lv_obj_get_style_prop(obj, part, LV_STYLE_COLOR_FILTER_DSC);
 520:d:\kzc\stm32\h743ii_lcd\lvgl\src\core\lv_obj_style_gen.h ****     return (const lv_color_filter_dsc_t *)v.ptr;
 521:d:\kzc\stm32\h743ii_lcd\lvgl\src\core\lv_obj_style_gen.h **** }
 522:d:\kzc\stm32\h743ii_lcd\lvgl\src\core\lv_obj_style_gen.h **** 
ARM GAS  C:\Users\OSD\AppData\Local\Temp\ccKYLEBM.s 			page 42


 523:d:\kzc\stm32\h743ii_lcd\lvgl\src\core\lv_obj_style_gen.h **** static inline lv_opa_t lv_obj_get_style_color_filter_opa(const struct _lv_obj_t * obj, uint32_t par
 524:d:\kzc\stm32\h743ii_lcd\lvgl\src\core\lv_obj_style_gen.h **** {
 525:d:\kzc\stm32\h743ii_lcd\lvgl\src\core\lv_obj_style_gen.h ****     lv_style_value_t v = lv_obj_get_style_prop(obj, part, LV_STYLE_COLOR_FILTER_OPA);
 526:d:\kzc\stm32\h743ii_lcd\lvgl\src\core\lv_obj_style_gen.h ****     return (lv_opa_t)v.num;
 527:d:\kzc\stm32\h743ii_lcd\lvgl\src\core\lv_obj_style_gen.h **** }
 528:d:\kzc\stm32\h743ii_lcd\lvgl\src\core\lv_obj_style_gen.h **** 
 529:d:\kzc\stm32\h743ii_lcd\lvgl\src\core\lv_obj_style_gen.h **** static inline const lv_anim_t * lv_obj_get_style_anim(const struct _lv_obj_t * obj, uint32_t part)
 530:d:\kzc\stm32\h743ii_lcd\lvgl\src\core\lv_obj_style_gen.h **** {
 531:d:\kzc\stm32\h743ii_lcd\lvgl\src\core\lv_obj_style_gen.h ****     lv_style_value_t v = lv_obj_get_style_prop(obj, part, LV_STYLE_ANIM);
 532:d:\kzc\stm32\h743ii_lcd\lvgl\src\core\lv_obj_style_gen.h ****     return (const lv_anim_t *)v.ptr;
 533:d:\kzc\stm32\h743ii_lcd\lvgl\src\core\lv_obj_style_gen.h **** }
 534:d:\kzc\stm32\h743ii_lcd\lvgl\src\core\lv_obj_style_gen.h **** 
 535:d:\kzc\stm32\h743ii_lcd\lvgl\src\core\lv_obj_style_gen.h **** static inline uint32_t lv_obj_get_style_anim_time(const struct _lv_obj_t * obj, uint32_t part)
 536:d:\kzc\stm32\h743ii_lcd\lvgl\src\core\lv_obj_style_gen.h **** {
 537:d:\kzc\stm32\h743ii_lcd\lvgl\src\core\lv_obj_style_gen.h ****     lv_style_value_t v = lv_obj_get_style_prop(obj, part, LV_STYLE_ANIM_TIME);
 538:d:\kzc\stm32\h743ii_lcd\lvgl\src\core\lv_obj_style_gen.h ****     return (uint32_t)v.num;
 539:d:\kzc\stm32\h743ii_lcd\lvgl\src\core\lv_obj_style_gen.h **** }
 540:d:\kzc\stm32\h743ii_lcd\lvgl\src\core\lv_obj_style_gen.h **** 
 541:d:\kzc\stm32\h743ii_lcd\lvgl\src\core\lv_obj_style_gen.h **** static inline uint32_t lv_obj_get_style_anim_speed(const struct _lv_obj_t * obj, uint32_t part)
 542:d:\kzc\stm32\h743ii_lcd\lvgl\src\core\lv_obj_style_gen.h **** {
 543:d:\kzc\stm32\h743ii_lcd\lvgl\src\core\lv_obj_style_gen.h ****     lv_style_value_t v = lv_obj_get_style_prop(obj, part, LV_STYLE_ANIM_SPEED);
 544:d:\kzc\stm32\h743ii_lcd\lvgl\src\core\lv_obj_style_gen.h ****     return (uint32_t)v.num;
 545:d:\kzc\stm32\h743ii_lcd\lvgl\src\core\lv_obj_style_gen.h **** }
 546:d:\kzc\stm32\h743ii_lcd\lvgl\src\core\lv_obj_style_gen.h **** 
 547:d:\kzc\stm32\h743ii_lcd\lvgl\src\core\lv_obj_style_gen.h **** static inline const lv_style_transition_dsc_t * lv_obj_get_style_transition(const struct _lv_obj_t 
 548:d:\kzc\stm32\h743ii_lcd\lvgl\src\core\lv_obj_style_gen.h **** {
 549:d:\kzc\stm32\h743ii_lcd\lvgl\src\core\lv_obj_style_gen.h ****     lv_style_value_t v = lv_obj_get_style_prop(obj, part, LV_STYLE_TRANSITION);
 550:d:\kzc\stm32\h743ii_lcd\lvgl\src\core\lv_obj_style_gen.h ****     return (const lv_style_transition_dsc_t *)v.ptr;
 551:d:\kzc\stm32\h743ii_lcd\lvgl\src\core\lv_obj_style_gen.h **** }
 552:d:\kzc\stm32\h743ii_lcd\lvgl\src\core\lv_obj_style_gen.h **** 
 553:d:\kzc\stm32\h743ii_lcd\lvgl\src\core\lv_obj_style_gen.h **** static inline lv_blend_mode_t lv_obj_get_style_blend_mode(const struct _lv_obj_t * obj, uint32_t pa
 554:d:\kzc\stm32\h743ii_lcd\lvgl\src\core\lv_obj_style_gen.h **** {
 555:d:\kzc\stm32\h743ii_lcd\lvgl\src\core\lv_obj_style_gen.h ****     lv_style_value_t v = lv_obj_get_style_prop(obj, part, LV_STYLE_BLEND_MODE);
 556:d:\kzc\stm32\h743ii_lcd\lvgl\src\core\lv_obj_style_gen.h ****     return (lv_blend_mode_t)v.num;
 557:d:\kzc\stm32\h743ii_lcd\lvgl\src\core\lv_obj_style_gen.h **** }
 558:d:\kzc\stm32\h743ii_lcd\lvgl\src\core\lv_obj_style_gen.h **** 
 559:d:\kzc\stm32\h743ii_lcd\lvgl\src\core\lv_obj_style_gen.h **** static inline uint16_t lv_obj_get_style_layout(const struct _lv_obj_t * obj, uint32_t part)
 560:d:\kzc\stm32\h743ii_lcd\lvgl\src\core\lv_obj_style_gen.h **** {
 561:d:\kzc\stm32\h743ii_lcd\lvgl\src\core\lv_obj_style_gen.h ****     lv_style_value_t v = lv_obj_get_style_prop(obj, part, LV_STYLE_LAYOUT);
 562:d:\kzc\stm32\h743ii_lcd\lvgl\src\core\lv_obj_style_gen.h ****     return (uint16_t)v.num;
 563:d:\kzc\stm32\h743ii_lcd\lvgl\src\core\lv_obj_style_gen.h **** }
 564:d:\kzc\stm32\h743ii_lcd\lvgl\src\core\lv_obj_style_gen.h **** 
 565:d:\kzc\stm32\h743ii_lcd\lvgl\src\core\lv_obj_style_gen.h **** static inline lv_base_dir_t lv_obj_get_style_base_dir(const struct _lv_obj_t * obj, uint32_t part)
 703              		.loc 3 565 29 view .LVU236
 704              	.LBB134:
 566:d:\kzc\stm32\h743ii_lcd\lvgl\src\core\lv_obj_style_gen.h **** {
 567:d:\kzc\stm32\h743ii_lcd\lvgl\src\core\lv_obj_style_gen.h ****     lv_style_value_t v = lv_obj_get_style_prop(obj, part, LV_STYLE_BASE_DIR);
 705              		.loc 3 567 5 view .LVU237
 706              		.loc 3 567 26 is_stmt 0 view .LVU238
 707 00d2 1622     		movs	r2, #22
 708 00d4 0021     		movs	r1, #0
 709              	.LVL78:
 710              		.loc 3 567 26 view .LVU239
 711 00d6 2046     		mov	r0, r4
 712              	.LVL79:
 713              		.loc 3 567 26 view .LVU240
 714 00d8 FFF7FEFF 		bl	lv_obj_get_style_prop
ARM GAS  C:\Users\OSD\AppData\Local\Temp\ccKYLEBM.s 			page 43


 715              	.LVL80:
 568:d:\kzc\stm32\h743ii_lcd\lvgl\src\core\lv_obj_style_gen.h ****     return (lv_base_dir_t)v.num;
 716              		.loc 3 568 5 is_stmt 1 view .LVU241
 717              		.loc 3 568 12 is_stmt 0 view .LVU242
 718 00dc C0B2     		uxtb	r0, r0
 719              	.LVL81:
 720              		.loc 3 568 12 view .LVU243
 721              	.LBE134:
 722              	.LBE133:
 595:lvgl/src/extra/layouts/grid/lv_grid.c ****         if(col_align == LV_GRID_ALIGN_START) col_align = LV_GRID_ALIGN_END;
 723              		.loc 1 595 7 view .LVU244
 724 00de 0128     		cmp	r0, #1
 725 00e0 00F0C180 		beq	.L55
 726              	.LVL82:
 727              	.L32:
 600:lvgl/src/extra/layouts/grid/lv_grid.c ****     lv_coord_t y;
 728              		.loc 1 600 5 is_stmt 1 view .LVU245
 601:lvgl/src/extra/layouts/grid/lv_grid.c ****     lv_coord_t item_w = lv_area_get_width(&item->coords);
 729              		.loc 1 601 5 view .LVU246
 602:lvgl/src/extra/layouts/grid/lv_grid.c ****     lv_coord_t item_h = lv_area_get_height(&item->coords);
 730              		.loc 1 602 5 view .LVU247
 731              	.LBB135:
 732              	.LBI135:
 733              		.file 4 "d:\\kzc\\stm32\\h743ii_lcd\\lvgl\\src\\misc\\lv_area.h"
   1:d:\kzc\stm32\h743ii_lcd\lvgl\src\misc\lv_area.h **** /**
   2:d:\kzc\stm32\h743ii_lcd\lvgl\src\misc\lv_area.h ****  * @file lv_area.h
   3:d:\kzc\stm32\h743ii_lcd\lvgl\src\misc\lv_area.h ****  *
   4:d:\kzc\stm32\h743ii_lcd\lvgl\src\misc\lv_area.h ****  */
   5:d:\kzc\stm32\h743ii_lcd\lvgl\src\misc\lv_area.h **** 
   6:d:\kzc\stm32\h743ii_lcd\lvgl\src\misc\lv_area.h **** #ifndef LV_AREA_H
   7:d:\kzc\stm32\h743ii_lcd\lvgl\src\misc\lv_area.h **** #define LV_AREA_H
   8:d:\kzc\stm32\h743ii_lcd\lvgl\src\misc\lv_area.h **** 
   9:d:\kzc\stm32\h743ii_lcd\lvgl\src\misc\lv_area.h **** #ifdef __cplusplus
  10:d:\kzc\stm32\h743ii_lcd\lvgl\src\misc\lv_area.h **** extern "C" {
  11:d:\kzc\stm32\h743ii_lcd\lvgl\src\misc\lv_area.h **** #endif
  12:d:\kzc\stm32\h743ii_lcd\lvgl\src\misc\lv_area.h **** 
  13:d:\kzc\stm32\h743ii_lcd\lvgl\src\misc\lv_area.h **** /*********************
  14:d:\kzc\stm32\h743ii_lcd\lvgl\src\misc\lv_area.h ****  *      INCLUDES
  15:d:\kzc\stm32\h743ii_lcd\lvgl\src\misc\lv_area.h ****  *********************/
  16:d:\kzc\stm32\h743ii_lcd\lvgl\src\misc\lv_area.h **** #include "../lv_conf_internal.h"
  17:d:\kzc\stm32\h743ii_lcd\lvgl\src\misc\lv_area.h **** #include <stdbool.h>
  18:d:\kzc\stm32\h743ii_lcd\lvgl\src\misc\lv_area.h **** #include <stdint.h>
  19:d:\kzc\stm32\h743ii_lcd\lvgl\src\misc\lv_area.h **** 
  20:d:\kzc\stm32\h743ii_lcd\lvgl\src\misc\lv_area.h **** /*********************
  21:d:\kzc\stm32\h743ii_lcd\lvgl\src\misc\lv_area.h ****  *      DEFINES
  22:d:\kzc\stm32\h743ii_lcd\lvgl\src\misc\lv_area.h ****  *********************/
  23:d:\kzc\stm32\h743ii_lcd\lvgl\src\misc\lv_area.h **** 
  24:d:\kzc\stm32\h743ii_lcd\lvgl\src\misc\lv_area.h **** #if LV_USE_LARGE_COORD
  25:d:\kzc\stm32\h743ii_lcd\lvgl\src\misc\lv_area.h **** typedef int32_t lv_coord_t;
  26:d:\kzc\stm32\h743ii_lcd\lvgl\src\misc\lv_area.h **** #else
  27:d:\kzc\stm32\h743ii_lcd\lvgl\src\misc\lv_area.h **** typedef int16_t lv_coord_t;
  28:d:\kzc\stm32\h743ii_lcd\lvgl\src\misc\lv_area.h **** #endif
  29:d:\kzc\stm32\h743ii_lcd\lvgl\src\misc\lv_area.h **** 
  30:d:\kzc\stm32\h743ii_lcd\lvgl\src\misc\lv_area.h **** /**********************
  31:d:\kzc\stm32\h743ii_lcd\lvgl\src\misc\lv_area.h ****  *      TYPEDEFS
  32:d:\kzc\stm32\h743ii_lcd\lvgl\src\misc\lv_area.h ****  **********************/
  33:d:\kzc\stm32\h743ii_lcd\lvgl\src\misc\lv_area.h **** 
ARM GAS  C:\Users\OSD\AppData\Local\Temp\ccKYLEBM.s 			page 44


  34:d:\kzc\stm32\h743ii_lcd\lvgl\src\misc\lv_area.h **** /**
  35:d:\kzc\stm32\h743ii_lcd\lvgl\src\misc\lv_area.h ****  * Represents a point on the screen.
  36:d:\kzc\stm32\h743ii_lcd\lvgl\src\misc\lv_area.h ****  */
  37:d:\kzc\stm32\h743ii_lcd\lvgl\src\misc\lv_area.h **** typedef struct {
  38:d:\kzc\stm32\h743ii_lcd\lvgl\src\misc\lv_area.h ****     lv_coord_t x;
  39:d:\kzc\stm32\h743ii_lcd\lvgl\src\misc\lv_area.h ****     lv_coord_t y;
  40:d:\kzc\stm32\h743ii_lcd\lvgl\src\misc\lv_area.h **** } lv_point_t;
  41:d:\kzc\stm32\h743ii_lcd\lvgl\src\misc\lv_area.h **** 
  42:d:\kzc\stm32\h743ii_lcd\lvgl\src\misc\lv_area.h **** /** Represents an area of the screen.*/
  43:d:\kzc\stm32\h743ii_lcd\lvgl\src\misc\lv_area.h **** typedef struct {
  44:d:\kzc\stm32\h743ii_lcd\lvgl\src\misc\lv_area.h ****     lv_coord_t x1;
  45:d:\kzc\stm32\h743ii_lcd\lvgl\src\misc\lv_area.h ****     lv_coord_t y1;
  46:d:\kzc\stm32\h743ii_lcd\lvgl\src\misc\lv_area.h ****     lv_coord_t x2;
  47:d:\kzc\stm32\h743ii_lcd\lvgl\src\misc\lv_area.h ****     lv_coord_t y2;
  48:d:\kzc\stm32\h743ii_lcd\lvgl\src\misc\lv_area.h **** } lv_area_t;
  49:d:\kzc\stm32\h743ii_lcd\lvgl\src\misc\lv_area.h **** 
  50:d:\kzc\stm32\h743ii_lcd\lvgl\src\misc\lv_area.h **** /** Alignments*/
  51:d:\kzc\stm32\h743ii_lcd\lvgl\src\misc\lv_area.h **** enum {
  52:d:\kzc\stm32\h743ii_lcd\lvgl\src\misc\lv_area.h ****     LV_ALIGN_DEFAULT = 0,
  53:d:\kzc\stm32\h743ii_lcd\lvgl\src\misc\lv_area.h ****     LV_ALIGN_TOP_LEFT,
  54:d:\kzc\stm32\h743ii_lcd\lvgl\src\misc\lv_area.h ****     LV_ALIGN_TOP_MID,
  55:d:\kzc\stm32\h743ii_lcd\lvgl\src\misc\lv_area.h ****     LV_ALIGN_TOP_RIGHT,
  56:d:\kzc\stm32\h743ii_lcd\lvgl\src\misc\lv_area.h ****     LV_ALIGN_BOTTOM_LEFT,
  57:d:\kzc\stm32\h743ii_lcd\lvgl\src\misc\lv_area.h ****     LV_ALIGN_BOTTOM_MID,
  58:d:\kzc\stm32\h743ii_lcd\lvgl\src\misc\lv_area.h ****     LV_ALIGN_BOTTOM_RIGHT,
  59:d:\kzc\stm32\h743ii_lcd\lvgl\src\misc\lv_area.h ****     LV_ALIGN_LEFT_MID,
  60:d:\kzc\stm32\h743ii_lcd\lvgl\src\misc\lv_area.h ****     LV_ALIGN_RIGHT_MID,
  61:d:\kzc\stm32\h743ii_lcd\lvgl\src\misc\lv_area.h ****     LV_ALIGN_CENTER,
  62:d:\kzc\stm32\h743ii_lcd\lvgl\src\misc\lv_area.h **** 
  63:d:\kzc\stm32\h743ii_lcd\lvgl\src\misc\lv_area.h ****     LV_ALIGN_OUT_TOP_LEFT,
  64:d:\kzc\stm32\h743ii_lcd\lvgl\src\misc\lv_area.h ****     LV_ALIGN_OUT_TOP_MID,
  65:d:\kzc\stm32\h743ii_lcd\lvgl\src\misc\lv_area.h ****     LV_ALIGN_OUT_TOP_RIGHT,
  66:d:\kzc\stm32\h743ii_lcd\lvgl\src\misc\lv_area.h ****     LV_ALIGN_OUT_BOTTOM_LEFT,
  67:d:\kzc\stm32\h743ii_lcd\lvgl\src\misc\lv_area.h ****     LV_ALIGN_OUT_BOTTOM_MID,
  68:d:\kzc\stm32\h743ii_lcd\lvgl\src\misc\lv_area.h ****     LV_ALIGN_OUT_BOTTOM_RIGHT,
  69:d:\kzc\stm32\h743ii_lcd\lvgl\src\misc\lv_area.h ****     LV_ALIGN_OUT_LEFT_TOP,
  70:d:\kzc\stm32\h743ii_lcd\lvgl\src\misc\lv_area.h ****     LV_ALIGN_OUT_LEFT_MID,
  71:d:\kzc\stm32\h743ii_lcd\lvgl\src\misc\lv_area.h ****     LV_ALIGN_OUT_LEFT_BOTTOM,
  72:d:\kzc\stm32\h743ii_lcd\lvgl\src\misc\lv_area.h ****     LV_ALIGN_OUT_RIGHT_TOP,
  73:d:\kzc\stm32\h743ii_lcd\lvgl\src\misc\lv_area.h ****     LV_ALIGN_OUT_RIGHT_MID,
  74:d:\kzc\stm32\h743ii_lcd\lvgl\src\misc\lv_area.h ****     LV_ALIGN_OUT_RIGHT_BOTTOM,
  75:d:\kzc\stm32\h743ii_lcd\lvgl\src\misc\lv_area.h **** };
  76:d:\kzc\stm32\h743ii_lcd\lvgl\src\misc\lv_area.h **** typedef uint8_t lv_align_t;
  77:d:\kzc\stm32\h743ii_lcd\lvgl\src\misc\lv_area.h **** 
  78:d:\kzc\stm32\h743ii_lcd\lvgl\src\misc\lv_area.h **** enum {
  79:d:\kzc\stm32\h743ii_lcd\lvgl\src\misc\lv_area.h ****     LV_DIR_NONE     = 0x00,
  80:d:\kzc\stm32\h743ii_lcd\lvgl\src\misc\lv_area.h ****     LV_DIR_LEFT     = (1 << 0),
  81:d:\kzc\stm32\h743ii_lcd\lvgl\src\misc\lv_area.h ****     LV_DIR_RIGHT    = (1 << 1),
  82:d:\kzc\stm32\h743ii_lcd\lvgl\src\misc\lv_area.h ****     LV_DIR_TOP      = (1 << 2),
  83:d:\kzc\stm32\h743ii_lcd\lvgl\src\misc\lv_area.h ****     LV_DIR_BOTTOM   = (1 << 3),
  84:d:\kzc\stm32\h743ii_lcd\lvgl\src\misc\lv_area.h ****     LV_DIR_HOR      = LV_DIR_LEFT | LV_DIR_RIGHT,
  85:d:\kzc\stm32\h743ii_lcd\lvgl\src\misc\lv_area.h ****     LV_DIR_VER      = LV_DIR_TOP | LV_DIR_BOTTOM,
  86:d:\kzc\stm32\h743ii_lcd\lvgl\src\misc\lv_area.h ****     LV_DIR_ALL      = LV_DIR_HOR | LV_DIR_VER,
  87:d:\kzc\stm32\h743ii_lcd\lvgl\src\misc\lv_area.h **** };
  88:d:\kzc\stm32\h743ii_lcd\lvgl\src\misc\lv_area.h **** 
  89:d:\kzc\stm32\h743ii_lcd\lvgl\src\misc\lv_area.h **** typedef uint8_t lv_dir_t;
  90:d:\kzc\stm32\h743ii_lcd\lvgl\src\misc\lv_area.h **** 
ARM GAS  C:\Users\OSD\AppData\Local\Temp\ccKYLEBM.s 			page 45


  91:d:\kzc\stm32\h743ii_lcd\lvgl\src\misc\lv_area.h **** /**********************
  92:d:\kzc\stm32\h743ii_lcd\lvgl\src\misc\lv_area.h ****  * GLOBAL PROTOTYPES
  93:d:\kzc\stm32\h743ii_lcd\lvgl\src\misc\lv_area.h ****  **********************/
  94:d:\kzc\stm32\h743ii_lcd\lvgl\src\misc\lv_area.h **** 
  95:d:\kzc\stm32\h743ii_lcd\lvgl\src\misc\lv_area.h **** /**
  96:d:\kzc\stm32\h743ii_lcd\lvgl\src\misc\lv_area.h ****  * Initialize an area
  97:d:\kzc\stm32\h743ii_lcd\lvgl\src\misc\lv_area.h ****  * @param area_p pointer to an area
  98:d:\kzc\stm32\h743ii_lcd\lvgl\src\misc\lv_area.h ****  * @param x1 left coordinate of the area
  99:d:\kzc\stm32\h743ii_lcd\lvgl\src\misc\lv_area.h ****  * @param y1 top coordinate of the area
 100:d:\kzc\stm32\h743ii_lcd\lvgl\src\misc\lv_area.h ****  * @param x2 right coordinate of the area
 101:d:\kzc\stm32\h743ii_lcd\lvgl\src\misc\lv_area.h ****  * @param y2 bottom coordinate of the area
 102:d:\kzc\stm32\h743ii_lcd\lvgl\src\misc\lv_area.h ****  */
 103:d:\kzc\stm32\h743ii_lcd\lvgl\src\misc\lv_area.h **** void lv_area_set(lv_area_t * area_p, lv_coord_t x1, lv_coord_t y1, lv_coord_t x2, lv_coord_t y2);
 104:d:\kzc\stm32\h743ii_lcd\lvgl\src\misc\lv_area.h **** 
 105:d:\kzc\stm32\h743ii_lcd\lvgl\src\misc\lv_area.h **** /**
 106:d:\kzc\stm32\h743ii_lcd\lvgl\src\misc\lv_area.h ****  * Copy an area
 107:d:\kzc\stm32\h743ii_lcd\lvgl\src\misc\lv_area.h ****  * @param dest pointer to the destination area
 108:d:\kzc\stm32\h743ii_lcd\lvgl\src\misc\lv_area.h ****  * @param src pointer to the source area
 109:d:\kzc\stm32\h743ii_lcd\lvgl\src\misc\lv_area.h ****  */
 110:d:\kzc\stm32\h743ii_lcd\lvgl\src\misc\lv_area.h **** inline static void lv_area_copy(lv_area_t * dest, const lv_area_t * src)
 111:d:\kzc\stm32\h743ii_lcd\lvgl\src\misc\lv_area.h **** {
 112:d:\kzc\stm32\h743ii_lcd\lvgl\src\misc\lv_area.h ****     dest->x1 = src->x1;
 113:d:\kzc\stm32\h743ii_lcd\lvgl\src\misc\lv_area.h ****     dest->y1 = src->y1;
 114:d:\kzc\stm32\h743ii_lcd\lvgl\src\misc\lv_area.h ****     dest->x2 = src->x2;
 115:d:\kzc\stm32\h743ii_lcd\lvgl\src\misc\lv_area.h ****     dest->y2 = src->y2;
 116:d:\kzc\stm32\h743ii_lcd\lvgl\src\misc\lv_area.h **** }
 117:d:\kzc\stm32\h743ii_lcd\lvgl\src\misc\lv_area.h **** 
 118:d:\kzc\stm32\h743ii_lcd\lvgl\src\misc\lv_area.h **** /**
 119:d:\kzc\stm32\h743ii_lcd\lvgl\src\misc\lv_area.h ****  * Get the width of an area
 120:d:\kzc\stm32\h743ii_lcd\lvgl\src\misc\lv_area.h ****  * @param area_p pointer to an area
 121:d:\kzc\stm32\h743ii_lcd\lvgl\src\misc\lv_area.h ****  * @return the width of the area (if x1 == x2 -> width = 1)
 122:d:\kzc\stm32\h743ii_lcd\lvgl\src\misc\lv_area.h ****  */
 123:d:\kzc\stm32\h743ii_lcd\lvgl\src\misc\lv_area.h **** static inline lv_coord_t lv_area_get_width(const lv_area_t * area_p)
 734              		.loc 4 123 26 view .LVU248
 735              	.LBB136:
 124:d:\kzc\stm32\h743ii_lcd\lvgl\src\misc\lv_area.h **** {
 125:d:\kzc\stm32\h743ii_lcd\lvgl\src\misc\lv_area.h ****     return (lv_coord_t)(area_p->x2 - area_p->x1 + 1);
 736              		.loc 4 125 5 view .LVU249
 737              		.loc 4 125 31 is_stmt 0 view .LVU250
 738 00e4 268B     		ldrh	r6, [r4, #24]
 739              		.loc 4 125 44 view .LVU251
 740 00e6 A38A     		ldrh	r3, [r4, #20]
 741              		.loc 4 125 36 view .LVU252
 742 00e8 F61A     		subs	r6, r6, r3
 743 00ea B6B2     		uxth	r6, r6
 744              		.loc 4 125 49 view .LVU253
 745 00ec 0136     		adds	r6, r6, #1
 746              		.loc 4 125 12 view .LVU254
 747 00ee 36B2     		sxth	r6, r6
 748              	.LVL83:
 749              		.loc 4 125 12 view .LVU255
 750              	.LBE136:
 751              	.LBE135:
 603:lvgl/src/extra/layouts/grid/lv_grid.c **** 
 752              		.loc 1 603 5 is_stmt 1 view .LVU256
 753              	.LBB137:
 754              	.LBI137:
ARM GAS  C:\Users\OSD\AppData\Local\Temp\ccKYLEBM.s 			page 46


 126:d:\kzc\stm32\h743ii_lcd\lvgl\src\misc\lv_area.h **** }
 127:d:\kzc\stm32\h743ii_lcd\lvgl\src\misc\lv_area.h **** 
 128:d:\kzc\stm32\h743ii_lcd\lvgl\src\misc\lv_area.h **** /**
 129:d:\kzc\stm32\h743ii_lcd\lvgl\src\misc\lv_area.h ****  * Get the height of an area
 130:d:\kzc\stm32\h743ii_lcd\lvgl\src\misc\lv_area.h ****  * @param area_p pointer to an area
 131:d:\kzc\stm32\h743ii_lcd\lvgl\src\misc\lv_area.h ****  * @return the height of the area (if y1 == y2 -> height = 1)
 132:d:\kzc\stm32\h743ii_lcd\lvgl\src\misc\lv_area.h ****  */
 133:d:\kzc\stm32\h743ii_lcd\lvgl\src\misc\lv_area.h **** static inline lv_coord_t lv_area_get_height(const lv_area_t * area_p)
 755              		.loc 4 133 26 view .LVU257
 756              	.LBB138:
 134:d:\kzc\stm32\h743ii_lcd\lvgl\src\misc\lv_area.h **** {
 135:d:\kzc\stm32\h743ii_lcd\lvgl\src\misc\lv_area.h ****     return (lv_coord_t)(area_p->y2 - area_p->y1 + 1);
 757              		.loc 4 135 5 view .LVU258
 758              		.loc 4 135 31 is_stmt 0 view .LVU259
 759 00f0 678B     		ldrh	r7, [r4, #26]
 760              		.loc 4 135 44 view .LVU260
 761 00f2 E38A     		ldrh	r3, [r4, #22]
 762              		.loc 4 135 36 view .LVU261
 763 00f4 FF1A     		subs	r7, r7, r3
 764 00f6 BFB2     		uxth	r7, r7
 765              		.loc 4 135 49 view .LVU262
 766 00f8 0137     		adds	r7, r7, #1
 767              		.loc 4 135 12 view .LVU263
 768 00fa 3FB2     		sxth	r7, r7
 769              	.LVL84:
 770              		.loc 4 135 12 view .LVU264
 771              	.LBE138:
 772              	.LBE137:
 605:lvgl/src/extra/layouts/grid/lv_grid.c ****         default:
 773              		.loc 1 605 5 is_stmt 1 view .LVU265
 774 00fc B8F1020F 		cmp	r8, #2
 775 0100 00F0DC80 		beq	.L33
 776 0104 B8F1030F 		cmp	r8, #3
 777 0108 00F0BA80 		beq	.L34
 778 010c B8F1010F 		cmp	r8, #1
 779 0110 00F0C180 		beq	.L35
 608:lvgl/src/extra/layouts/grid/lv_grid.c ****             item->w_layout = 0;
 780              		.loc 1 608 13 view .LVU266
 608:lvgl/src/extra/layouts/grid/lv_grid.c ****             item->w_layout = 0;
 781              		.loc 1 608 18 is_stmt 0 view .LVU267
 782 0114 2B68     		ldr	r3, [r5]
 608:lvgl/src/extra/layouts/grid/lv_grid.c ****             item->w_layout = 0;
 783              		.loc 1 608 15 view .LVU268
 784 0116 33F91B80 		ldrsh	r8, [r3, fp, lsl #1]
 785              	.LVL85:
 609:lvgl/src/extra/layouts/grid/lv_grid.c ****             break;
 786              		.loc 1 609 13 is_stmt 1 view .LVU269
 609:lvgl/src/extra/layouts/grid/lv_grid.c ****             break;
 787              		.loc 1 609 28 is_stmt 0 view .LVU270
 788 011a 94F82330 		ldrb	r3, [r4, #35]	@ zero_extendqisi2
 789 011e 6FF3C303 		bfc	r3, #3, #1
 790 0122 84F82330 		strb	r3, [r4, #35]
 791              	.LVL86:
 610:lvgl/src/extra/layouts/grid/lv_grid.c ****         case LV_GRID_ALIGN_STRETCH:
 792              		.loc 1 610 13 is_stmt 1 view .LVU271
 793              	.L36:
 626:lvgl/src/extra/layouts/grid/lv_grid.c ****         default:
ARM GAS  C:\Users\OSD\AppData\Local\Temp\ccKYLEBM.s 			page 47


 794              		.loc 1 626 5 view .LVU272
 795 0126 B9F1020F 		cmp	r9, #2
 796 012a 00F00981 		beq	.L38
 626:lvgl/src/extra/layouts/grid/lv_grid.c ****         default:
 797              		.loc 1 626 5 is_stmt 0 view .LVU273
 798 012e B9F1030F 		cmp	r9, #3
 799 0132 00F0D980 		beq	.L39
 800 0136 B9F1010F 		cmp	r9, #1
 801 013a 00F0E080 		beq	.L40
 629:lvgl/src/extra/layouts/grid/lv_grid.c ****             item->h_layout = 0;
 802              		.loc 1 629 13 is_stmt 1 view .LVU274
 629:lvgl/src/extra/layouts/grid/lv_grid.c ****             item->h_layout = 0;
 803              		.loc 1 629 18 is_stmt 0 view .LVU275
 804 013e 6B68     		ldr	r3, [r5, #4]
 629:lvgl/src/extra/layouts/grid/lv_grid.c ****             item->h_layout = 0;
 805              		.loc 1 629 15 view .LVU276
 806 0140 33F91A50 		ldrsh	r5, [r3, r10, lsl #1]
 807              	.LVL87:
 630:lvgl/src/extra/layouts/grid/lv_grid.c ****             break;
 808              		.loc 1 630 13 is_stmt 1 view .LVU277
 630:lvgl/src/extra/layouts/grid/lv_grid.c ****             break;
 809              		.loc 1 630 28 is_stmt 0 view .LVU278
 810 0144 94F82330 		ldrb	r3, [r4, #35]	@ zero_extendqisi2
 811 0148 6FF38203 		bfc	r3, #2, #1
 812 014c 84F82330 		strb	r3, [r4, #35]
 631:lvgl/src/extra/layouts/grid/lv_grid.c ****         case LV_GRID_ALIGN_STRETCH:
 813              		.loc 1 631 13 is_stmt 1 view .LVU279
 814              	.LVL88:
 815              	.L41:
 648:lvgl/src/extra/layouts/grid/lv_grid.c ****         lv_area_t old_coords;
 816              		.loc 1 648 5 view .LVU280
 648:lvgl/src/extra/layouts/grid/lv_grid.c ****         lv_area_t old_coords;
 817              		.loc 1 648 8 is_stmt 0 view .LVU281
 818 0150 2046     		mov	r0, r4
 819 0152 FFF7FEFF 		bl	lv_obj_get_width
 820              	.LVL89:
 648:lvgl/src/extra/layouts/grid/lv_grid.c ****         lv_area_t old_coords;
 821              		.loc 1 648 7 view .LVU282
 822 0156 B042     		cmp	r0, r6
 823 0158 00F00581 		beq	.L56
 824              	.L43:
 825              	.LBB139:
 649:lvgl/src/extra/layouts/grid/lv_grid.c ****         lv_area_copy(&old_coords, &item->coords);
 826              		.loc 1 649 9 is_stmt 1 view .LVU283
 650:lvgl/src/extra/layouts/grid/lv_grid.c ****         lv_obj_invalidate(item);
 827              		.loc 1 650 9 view .LVU284
 828              	.LVL90:
 829              	.LBB140:
 830              	.LBI140:
 110:d:\kzc\stm32\h743ii_lcd\lvgl\src\misc\lv_area.h **** {
 831              		.loc 4 110 20 view .LVU285
 832              	.LBB141:
 112:d:\kzc\stm32\h743ii_lcd\lvgl\src\misc\lv_area.h ****     dest->y1 = src->y1;
 833              		.loc 4 112 5 view .LVU286
 112:d:\kzc\stm32\h743ii_lcd\lvgl\src\misc\lv_area.h ****     dest->y1 = src->y1;
 834              		.loc 4 112 19 is_stmt 0 view .LVU287
 835 015c B4F91430 		ldrsh	r3, [r4, #20]
ARM GAS  C:\Users\OSD\AppData\Local\Temp\ccKYLEBM.s 			page 48


 112:d:\kzc\stm32\h743ii_lcd\lvgl\src\misc\lv_area.h ****     dest->y1 = src->y1;
 836              		.loc 4 112 14 view .LVU288
 837 0160 ADF81830 		strh	r3, [sp, #24]	@ movhi
 113:d:\kzc\stm32\h743ii_lcd\lvgl\src\misc\lv_area.h ****     dest->x2 = src->x2;
 838              		.loc 4 113 5 is_stmt 1 view .LVU289
 113:d:\kzc\stm32\h743ii_lcd\lvgl\src\misc\lv_area.h ****     dest->x2 = src->x2;
 839              		.loc 4 113 19 is_stmt 0 view .LVU290
 840 0164 B4F91630 		ldrsh	r3, [r4, #22]
 113:d:\kzc\stm32\h743ii_lcd\lvgl\src\misc\lv_area.h ****     dest->x2 = src->x2;
 841              		.loc 4 113 14 view .LVU291
 842 0168 ADF81A30 		strh	r3, [sp, #26]	@ movhi
 114:d:\kzc\stm32\h743ii_lcd\lvgl\src\misc\lv_area.h ****     dest->y2 = src->y2;
 843              		.loc 4 114 5 is_stmt 1 view .LVU292
 114:d:\kzc\stm32\h743ii_lcd\lvgl\src\misc\lv_area.h ****     dest->y2 = src->y2;
 844              		.loc 4 114 19 is_stmt 0 view .LVU293
 845 016c B4F91830 		ldrsh	r3, [r4, #24]
 114:d:\kzc\stm32\h743ii_lcd\lvgl\src\misc\lv_area.h ****     dest->y2 = src->y2;
 846              		.loc 4 114 14 view .LVU294
 847 0170 ADF81C30 		strh	r3, [sp, #28]	@ movhi
 115:d:\kzc\stm32\h743ii_lcd\lvgl\src\misc\lv_area.h **** }
 848              		.loc 4 115 5 is_stmt 1 view .LVU295
 115:d:\kzc\stm32\h743ii_lcd\lvgl\src\misc\lv_area.h **** }
 849              		.loc 4 115 19 is_stmt 0 view .LVU296
 850 0174 B4F91A30 		ldrsh	r3, [r4, #26]
 115:d:\kzc\stm32\h743ii_lcd\lvgl\src\misc\lv_area.h **** }
 851              		.loc 4 115 14 view .LVU297
 852 0178 ADF81E30 		strh	r3, [sp, #30]	@ movhi
 853              	.LVL91:
 115:d:\kzc\stm32\h743ii_lcd\lvgl\src\misc\lv_area.h **** }
 854              		.loc 4 115 14 view .LVU298
 855              	.LBE141:
 856              	.LBE140:
 651:lvgl/src/extra/layouts/grid/lv_grid.c ****         lv_area_set_width(&item->coords, item_w);
 857              		.loc 1 651 9 is_stmt 1 view .LVU299
 858 017c 2046     		mov	r0, r4
 859 017e FFF7FEFF 		bl	lv_obj_invalidate
 860              	.LVL92:
 652:lvgl/src/extra/layouts/grid/lv_grid.c ****         lv_area_set_height(&item->coords, item_h);
 861              		.loc 1 652 9 view .LVU300
 862 0182 04F11403 		add	r3, r4, #20
 863 0186 3146     		mov	r1, r6
 864 0188 1E46     		mov	r6, r3
 865              	.LVL93:
 652:lvgl/src/extra/layouts/grid/lv_grid.c ****         lv_area_set_height(&item->coords, item_h);
 866              		.loc 1 652 9 is_stmt 0 view .LVU301
 867 018a 1846     		mov	r0, r3
 868 018c FFF7FEFF 		bl	lv_area_set_width
 869              	.LVL94:
 653:lvgl/src/extra/layouts/grid/lv_grid.c ****         lv_obj_invalidate(item);
 870              		.loc 1 653 9 is_stmt 1 view .LVU302
 871 0190 3946     		mov	r1, r7
 872 0192 3046     		mov	r0, r6
 873 0194 FFF7FEFF 		bl	lv_area_set_height
 874              	.LVL95:
 654:lvgl/src/extra/layouts/grid/lv_grid.c ****         lv_event_send(item, LV_EVENT_SIZE_CHANGED, &old_coords);
 875              		.loc 1 654 9 view .LVU303
 876 0198 2046     		mov	r0, r4
ARM GAS  C:\Users\OSD\AppData\Local\Temp\ccKYLEBM.s 			page 49


 877 019a FFF7FEFF 		bl	lv_obj_invalidate
 878              	.LVL96:
 655:lvgl/src/extra/layouts/grid/lv_grid.c ****         lv_event_send(lv_obj_get_parent(item), LV_EVENT_CHILD_CHANGED, item);
 879              		.loc 1 655 9 view .LVU304
 880 019e 06AA     		add	r2, sp, #24
 881 01a0 2921     		movs	r1, #41
 882 01a2 2046     		mov	r0, r4
 883 01a4 FFF7FEFF 		bl	lv_event_send
 884              	.LVL97:
 656:lvgl/src/extra/layouts/grid/lv_grid.c **** 
 885              		.loc 1 656 9 view .LVU305
 886 01a8 2046     		mov	r0, r4
 887 01aa FFF7FEFF 		bl	lv_obj_get_parent
 888              	.LVL98:
 889 01ae 2246     		mov	r2, r4
 890 01b0 2221     		movs	r1, #34
 891 01b2 FFF7FEFF 		bl	lv_event_send
 892              	.LVL99:
 893              	.L44:
 656:lvgl/src/extra/layouts/grid/lv_grid.c **** 
 894              		.loc 1 656 9 is_stmt 0 view .LVU306
 895              	.LBE139:
 661:lvgl/src/extra/layouts/grid/lv_grid.c ****     lv_coord_t tr_y = lv_obj_get_style_translate_y(item, LV_PART_MAIN);
 896              		.loc 1 661 5 is_stmt 1 view .LVU307
 897              	.LBB142:
 898              	.LBI142:
  67:d:\kzc\stm32\h743ii_lcd\lvgl\src\core\lv_obj_style_gen.h **** {
 899              		.loc 3 67 26 view .LVU308
 900              	.LBB143:
  69:d:\kzc\stm32\h743ii_lcd\lvgl\src\core\lv_obj_style_gen.h ****     return (lv_coord_t)v.num;
 901              		.loc 3 69 5 view .LVU309
  69:d:\kzc\stm32\h743ii_lcd\lvgl\src\core\lv_obj_style_gen.h ****     return (lv_coord_t)v.num;
 902              		.loc 3 69 26 is_stmt 0 view .LVU310
 903 01b6 6B22     		movs	r2, #107
 904 01b8 0021     		movs	r1, #0
 905 01ba 2046     		mov	r0, r4
 906 01bc FFF7FEFF 		bl	lv_obj_get_style_prop
 907              	.LVL100:
 908 01c0 0746     		mov	r7, r0
 909              	.LVL101:
  70:d:\kzc\stm32\h743ii_lcd\lvgl\src\core\lv_obj_style_gen.h **** }
 910              		.loc 3 70 5 is_stmt 1 view .LVU311
  70:d:\kzc\stm32\h743ii_lcd\lvgl\src\core\lv_obj_style_gen.h **** }
 911              		.loc 3 70 12 is_stmt 0 view .LVU312
 912 01c2 0FFA80FA 		sxth	r10, r0
 913              	.LVL102:
  70:d:\kzc\stm32\h743ii_lcd\lvgl\src\core\lv_obj_style_gen.h **** }
 914              		.loc 3 70 12 view .LVU313
 915              	.LBE143:
 916              	.LBE142:
 662:lvgl/src/extra/layouts/grid/lv_grid.c ****     lv_coord_t w = lv_obj_get_width(item);
 917              		.loc 1 662 5 is_stmt 1 view .LVU314
 918              	.LBB144:
 919              	.LBI144:
  73:d:\kzc\stm32\h743ii_lcd\lvgl\src\core\lv_obj_style_gen.h **** {
 920              		.loc 3 73 26 view .LVU315
 921              	.LBB145:
ARM GAS  C:\Users\OSD\AppData\Local\Temp\ccKYLEBM.s 			page 50


  75:d:\kzc\stm32\h743ii_lcd\lvgl\src\core\lv_obj_style_gen.h ****     return (lv_coord_t)v.num;
 922              		.loc 3 75 5 view .LVU316
  75:d:\kzc\stm32\h743ii_lcd\lvgl\src\core\lv_obj_style_gen.h ****     return (lv_coord_t)v.num;
 923              		.loc 3 75 26 is_stmt 0 view .LVU317
 924 01c6 6C22     		movs	r2, #108
 925 01c8 0021     		movs	r1, #0
 926 01ca 2046     		mov	r0, r4
  75:d:\kzc\stm32\h743ii_lcd\lvgl\src\core\lv_obj_style_gen.h ****     return (lv_coord_t)v.num;
 927              		.loc 3 75 26 view .LVU318
 928 01cc FFF7FEFF 		bl	lv_obj_get_style_prop
 929              	.LVL103:
 930 01d0 0646     		mov	r6, r0
  76:d:\kzc\stm32\h743ii_lcd\lvgl\src\core\lv_obj_style_gen.h **** }
 931              		.loc 3 76 5 is_stmt 1 view .LVU319
  76:d:\kzc\stm32\h743ii_lcd\lvgl\src\core\lv_obj_style_gen.h **** }
 932              		.loc 3 76 12 is_stmt 0 view .LVU320
 933 01d2 0FFA80F9 		sxth	r9, r0
 934              	.LVL104:
  76:d:\kzc\stm32\h743ii_lcd\lvgl\src\core\lv_obj_style_gen.h **** }
 935              		.loc 3 76 12 view .LVU321
 936              	.LBE145:
 937              	.LBE144:
 663:lvgl/src/extra/layouts/grid/lv_grid.c ****     lv_coord_t h = lv_obj_get_height(item);
 938              		.loc 1 663 5 is_stmt 1 view .LVU322
 663:lvgl/src/extra/layouts/grid/lv_grid.c ****     lv_coord_t h = lv_obj_get_height(item);
 939              		.loc 1 663 20 is_stmt 0 view .LVU323
 940 01d6 2046     		mov	r0, r4
 941 01d8 FFF7FEFF 		bl	lv_obj_get_width
 942              	.LVL105:
 943 01dc 8346     		mov	fp, r0
 944              	.LVL106:
 664:lvgl/src/extra/layouts/grid/lv_grid.c ****     if(LV_COORD_IS_PCT(tr_x)) tr_x = (w * LV_COORD_GET_PCT(tr_x)) / 100;
 945              		.loc 1 664 5 is_stmt 1 view .LVU324
 664:lvgl/src/extra/layouts/grid/lv_grid.c ****     if(LV_COORD_IS_PCT(tr_x)) tr_x = (w * LV_COORD_GET_PCT(tr_x)) / 100;
 946              		.loc 1 664 20 is_stmt 0 view .LVU325
 947 01de 2046     		mov	r0, r4
 948 01e0 FFF7FEFF 		bl	lv_obj_get_height
 949              	.LVL107:
 665:lvgl/src/extra/layouts/grid/lv_grid.c ****     if(LV_COORD_IS_PCT(tr_y)) tr_y = (h * LV_COORD_GET_PCT(tr_y)) / 100;
 950              		.loc 1 665 5 is_stmt 1 view .LVU326
 665:lvgl/src/extra/layouts/grid/lv_grid.c ****     if(LV_COORD_IS_PCT(tr_y)) tr_y = (h * LV_COORD_GET_PCT(tr_y)) / 100;
 951              		.loc 1 665 8 is_stmt 0 view .LVU327
 952 01e4 07F4C047 		and	r7, r7, #24576
 953              	.LVL108:
 665:lvgl/src/extra/layouts/grid/lv_grid.c ****     if(LV_COORD_IS_PCT(tr_y)) tr_y = (h * LV_COORD_GET_PCT(tr_y)) / 100;
 954              		.loc 1 665 7 view .LVU328
 955 01e8 B7F5005F 		cmp	r7, #8192
 956 01ec 00F0C280 		beq	.L57
 957              	.LVL109:
 958              	.L45:
 666:lvgl/src/extra/layouts/grid/lv_grid.c **** 
 959              		.loc 1 666 5 is_stmt 1 view .LVU329
 666:lvgl/src/extra/layouts/grid/lv_grid.c **** 
 960              		.loc 1 666 8 is_stmt 0 view .LVU330
 961 01f0 06F4C046 		and	r6, r6, #24576
 666:lvgl/src/extra/layouts/grid/lv_grid.c **** 
 962              		.loc 1 666 7 view .LVU331
ARM GAS  C:\Users\OSD\AppData\Local\Temp\ccKYLEBM.s 			page 51


 963 01f4 B6F5005F 		cmp	r6, #8192
 964 01f8 00F0D380 		beq	.L58
 965              	.L48:
 668:lvgl/src/extra/layouts/grid/lv_grid.c ****     y += tr_y;
 966              		.loc 1 668 5 is_stmt 1 view .LVU332
 668:lvgl/src/extra/layouts/grid/lv_grid.c ****     y += tr_y;
 967              		.loc 1 668 7 is_stmt 0 view .LVU333
 968 01fc 08EB0A06 		add	r6, r8, r10
 969              	.LVL110:
 669:lvgl/src/extra/layouts/grid/lv_grid.c **** 
 970              		.loc 1 669 5 is_stmt 1 view .LVU334
 669:lvgl/src/extra/layouts/grid/lv_grid.c **** 
 971              		.loc 1 669 7 is_stmt 0 view .LVU335
 972 0200 05EB0902 		add	r2, r5, r9
 973              	.LVL111:
 671:lvgl/src/extra/layouts/grid/lv_grid.c ****     lv_coord_t diff_y = hint->grid_abs.y + y - item->coords.y1;
 974              		.loc 1 671 5 is_stmt 1 view .LVU336
 671:lvgl/src/extra/layouts/grid/lv_grid.c ****     lv_coord_t diff_y = hint->grid_abs.y + y - item->coords.y1;
 975              		.loc 1 671 39 is_stmt 0 view .LVU337
 976 0204 0199     		ldr	r1, [sp, #4]
 977 0206 B1F80880 		ldrh	r8, [r1, #8]
 671:lvgl/src/extra/layouts/grid/lv_grid.c ****     lv_coord_t diff_y = hint->grid_abs.y + y - item->coords.y1;
 978              		.loc 1 671 42 view .LVU338
 979 020a 18FA86F6 		uxtah	r6, r8, r6
 980              	.LVL112:
 671:lvgl/src/extra/layouts/grid/lv_grid.c ****     lv_coord_t diff_y = hint->grid_abs.y + y - item->coords.y1;
 981              		.loc 1 671 42 view .LVU339
 982 020e B6B2     		uxth	r6, r6
 671:lvgl/src/extra/layouts/grid/lv_grid.c ****     lv_coord_t diff_y = hint->grid_abs.y + y - item->coords.y1;
 983              		.loc 1 671 60 view .LVU340
 984 0210 A38A     		ldrh	r3, [r4, #20]
 671:lvgl/src/extra/layouts/grid/lv_grid.c ****     lv_coord_t diff_y = hint->grid_abs.y + y - item->coords.y1;
 985              		.loc 1 671 46 view .LVU341
 986 0212 F61A     		subs	r6, r6, r3
 987 0214 B7B2     		uxth	r7, r6
 671:lvgl/src/extra/layouts/grid/lv_grid.c ****     lv_coord_t diff_y = hint->grid_abs.y + y - item->coords.y1;
 988              		.loc 1 671 16 view .LVU342
 989 0216 36B2     		sxth	r6, r6
 990              	.LVL113:
 672:lvgl/src/extra/layouts/grid/lv_grid.c ****     if(diff_x || diff_y) {
 991              		.loc 1 672 5 is_stmt 1 view .LVU343
 672:lvgl/src/extra/layouts/grid/lv_grid.c ****     if(diff_x || diff_y) {
 992              		.loc 1 672 39 is_stmt 0 view .LVU344
 993 0218 4D89     		ldrh	r5, [r1, #10]
 672:lvgl/src/extra/layouts/grid/lv_grid.c ****     if(diff_x || diff_y) {
 994              		.loc 1 672 42 view .LVU345
 995 021a 15FA82F2 		uxtah	r2, r5, r2
 996              	.LVL114:
 672:lvgl/src/extra/layouts/grid/lv_grid.c ****     if(diff_x || diff_y) {
 997              		.loc 1 672 42 view .LVU346
 998 021e 92B2     		uxth	r2, r2
 672:lvgl/src/extra/layouts/grid/lv_grid.c ****     if(diff_x || diff_y) {
 999              		.loc 1 672 60 view .LVU347
 1000 0220 E38A     		ldrh	r3, [r4, #22]
 672:lvgl/src/extra/layouts/grid/lv_grid.c ****     if(diff_x || diff_y) {
 1001              		.loc 1 672 46 view .LVU348
 1002 0222 D21A     		subs	r2, r2, r3
ARM GAS  C:\Users\OSD\AppData\Local\Temp\ccKYLEBM.s 			page 52


 1003 0224 1FFA82F8 		uxth	r8, r2
 672:lvgl/src/extra/layouts/grid/lv_grid.c ****     if(diff_x || diff_y) {
 1004              		.loc 1 672 16 view .LVU349
 1005 0228 15B2     		sxth	r5, r2
 1006              	.LVL115:
 673:lvgl/src/extra/layouts/grid/lv_grid.c ****         lv_obj_invalidate(item);
 1007              		.loc 1 673 5 is_stmt 1 view .LVU350
 673:lvgl/src/extra/layouts/grid/lv_grid.c ****         lv_obj_invalidate(item);
 1008              		.loc 1 673 7 is_stmt 0 view .LVU351
 1009 022a 56EA0503 		orrs	r3, r6, r5
 1010 022e 3FF4F1AE 		beq	.L30
 674:lvgl/src/extra/layouts/grid/lv_grid.c ****         item->coords.x1 += diff_x;
 1011              		.loc 1 674 9 is_stmt 1 view .LVU352
 1012 0232 2046     		mov	r0, r4
 1013              	.LVL116:
 674:lvgl/src/extra/layouts/grid/lv_grid.c ****         item->coords.x1 += diff_x;
 1014              		.loc 1 674 9 is_stmt 0 view .LVU353
 1015 0234 FFF7FEFF 		bl	lv_obj_invalidate
 1016              	.LVL117:
 675:lvgl/src/extra/layouts/grid/lv_grid.c ****         item->coords.x2 += diff_x;
 1017              		.loc 1 675 9 is_stmt 1 view .LVU354
 675:lvgl/src/extra/layouts/grid/lv_grid.c ****         item->coords.x2 += diff_x;
 1018              		.loc 1 675 25 is_stmt 0 view .LVU355
 1019 0238 A38A     		ldrh	r3, [r4, #20]
 1020 023a 3B44     		add	r3, r3, r7
 1021 023c A382     		strh	r3, [r4, #20]	@ movhi
 676:lvgl/src/extra/layouts/grid/lv_grid.c ****         item->coords.y1 += diff_y;
 1022              		.loc 1 676 9 is_stmt 1 view .LVU356
 676:lvgl/src/extra/layouts/grid/lv_grid.c ****         item->coords.y1 += diff_y;
 1023              		.loc 1 676 25 is_stmt 0 view .LVU357
 1024 023e 238B     		ldrh	r3, [r4, #24]
 1025 0240 1F44     		add	r7, r7, r3
 1026 0242 2783     		strh	r7, [r4, #24]	@ movhi
 677:lvgl/src/extra/layouts/grid/lv_grid.c ****         item->coords.y2 += diff_y;
 1027              		.loc 1 677 9 is_stmt 1 view .LVU358
 677:lvgl/src/extra/layouts/grid/lv_grid.c ****         item->coords.y2 += diff_y;
 1028              		.loc 1 677 25 is_stmt 0 view .LVU359
 1029 0244 E38A     		ldrh	r3, [r4, #22]
 1030 0246 4344     		add	r3, r3, r8
 1031 0248 E382     		strh	r3, [r4, #22]	@ movhi
 678:lvgl/src/extra/layouts/grid/lv_grid.c ****         lv_obj_invalidate(item);
 1032              		.loc 1 678 9 is_stmt 1 view .LVU360
 678:lvgl/src/extra/layouts/grid/lv_grid.c ****         lv_obj_invalidate(item);
 1033              		.loc 1 678 25 is_stmt 0 view .LVU361
 1034 024a 638B     		ldrh	r3, [r4, #26]
 1035 024c 9844     		add	r8, r8, r3
 1036 024e A4F81A80 		strh	r8, [r4, #26]	@ movhi
 679:lvgl/src/extra/layouts/grid/lv_grid.c ****         lv_obj_move_children_by(item, diff_x, diff_y, false);
 1037              		.loc 1 679 9 is_stmt 1 view .LVU362
 1038 0252 2046     		mov	r0, r4
 1039 0254 FFF7FEFF 		bl	lv_obj_invalidate
 1040              	.LVL118:
 680:lvgl/src/extra/layouts/grid/lv_grid.c ****     }
 1041              		.loc 1 680 9 view .LVU363
 1042 0258 0023     		movs	r3, #0
 1043 025a 2A46     		mov	r2, r5
 1044 025c 3146     		mov	r1, r6
ARM GAS  C:\Users\OSD\AppData\Local\Temp\ccKYLEBM.s 			page 53


 1045 025e 2046     		mov	r0, r4
 1046 0260 FFF7FEFF 		bl	lv_obj_move_children_by
 1047              	.LVL119:
 1048 0264 D6E6     		b	.L30
 1049              	.LVL120:
 1050              	.L55:
 596:lvgl/src/extra/layouts/grid/lv_grid.c ****         else if(col_align == LV_GRID_ALIGN_END) col_align = LV_GRID_ALIGN_START;
 1051              		.loc 1 596 9 view .LVU364
 596:lvgl/src/extra/layouts/grid/lv_grid.c ****         else if(col_align == LV_GRID_ALIGN_END) col_align = LV_GRID_ALIGN_START;
 1052              		.loc 1 596 11 is_stmt 0 view .LVU365
 1053 0266 B8F1000F 		cmp	r8, #0
 1054 026a 06D0     		beq	.L51
 597:lvgl/src/extra/layouts/grid/lv_grid.c ****     }
 1055              		.loc 1 597 14 is_stmt 1 view .LVU366
 597:lvgl/src/extra/layouts/grid/lv_grid.c ****     }
 1056              		.loc 1 597 16 is_stmt 0 view .LVU367
 1057 026c B8F1020F 		cmp	r8, #2
 1058 0270 7FF438AF 		bne	.L32
 597:lvgl/src/extra/layouts/grid/lv_grid.c ****     }
 1059              		.loc 1 597 59 view .LVU368
 1060 0274 4FF00008 		mov	r8, #0
 1061              	.LVL121:
 597:lvgl/src/extra/layouts/grid/lv_grid.c ****     }
 1062              		.loc 1 597 59 view .LVU369
 1063 0278 34E7     		b	.L32
 1064              	.LVL122:
 1065              	.L51:
 596:lvgl/src/extra/layouts/grid/lv_grid.c ****         else if(col_align == LV_GRID_ALIGN_END) col_align = LV_GRID_ALIGN_START;
 1066              		.loc 1 596 56 view .LVU370
 1067 027a 4FF00208 		mov	r8, #2
 1068              	.LVL123:
 596:lvgl/src/extra/layouts/grid/lv_grid.c ****         else if(col_align == LV_GRID_ALIGN_END) col_align = LV_GRID_ALIGN_START;
 1069              		.loc 1 596 56 view .LVU371
 1070 027e 31E7     		b	.L32
 1071              	.LVL124:
 1072              	.L34:
 612:lvgl/src/extra/layouts/grid/lv_grid.c ****             item_w = col_w;
 1073              		.loc 1 612 13 is_stmt 1 view .LVU372
 612:lvgl/src/extra/layouts/grid/lv_grid.c ****             item_w = col_w;
 1074              		.loc 1 612 18 is_stmt 0 view .LVU373
 1075 0280 2B68     		ldr	r3, [r5]
 612:lvgl/src/extra/layouts/grid/lv_grid.c ****             item_w = col_w;
 1076              		.loc 1 612 15 view .LVU374
 1077 0282 33F91B80 		ldrsh	r8, [r3, fp, lsl #1]
 1078              	.LVL125:
 613:lvgl/src/extra/layouts/grid/lv_grid.c ****             item->w_layout = 1;
 1079              		.loc 1 613 13 is_stmt 1 view .LVU375
 614:lvgl/src/extra/layouts/grid/lv_grid.c ****             break;
 1080              		.loc 1 614 13 view .LVU376
 614:lvgl/src/extra/layouts/grid/lv_grid.c ****             break;
 1081              		.loc 1 614 28 is_stmt 0 view .LVU377
 1082 0286 94F82330 		ldrb	r3, [r4, #35]	@ zero_extendqisi2
 1083 028a 43F00803 		orr	r3, r3, #8
 1084 028e 84F82330 		strb	r3, [r4, #35]
 1085              	.LVL126:
 615:lvgl/src/extra/layouts/grid/lv_grid.c ****         case LV_GRID_ALIGN_CENTER:
 1086              		.loc 1 615 13 is_stmt 1 view .LVU378
ARM GAS  C:\Users\OSD\AppData\Local\Temp\ccKYLEBM.s 			page 54


 613:lvgl/src/extra/layouts/grid/lv_grid.c ****             item->w_layout = 1;
 1087              		.loc 1 613 20 is_stmt 0 view .LVU379
 1088 0292 029E     		ldr	r6, [sp, #8]
 615:lvgl/src/extra/layouts/grid/lv_grid.c ****         case LV_GRID_ALIGN_CENTER:
 1089              		.loc 1 615 13 view .LVU380
 1090 0294 47E7     		b	.L36
 1091              	.LVL127:
 1092              	.L35:
 617:lvgl/src/extra/layouts/grid/lv_grid.c ****             item->w_layout = 0;
 1093              		.loc 1 617 13 is_stmt 1 view .LVU381
 617:lvgl/src/extra/layouts/grid/lv_grid.c ****             item->w_layout = 0;
 1094              		.loc 1 617 18 is_stmt 0 view .LVU382
 1095 0296 2B68     		ldr	r3, [r5]
 617:lvgl/src/extra/layouts/grid/lv_grid.c ****             item->w_layout = 0;
 1096              		.loc 1 617 21 view .LVU383
 1097 0298 33F81B80 		ldrh	r8, [r3, fp, lsl #1]
 1098              	.LVL128:
 617:lvgl/src/extra/layouts/grid/lv_grid.c ****             item->w_layout = 0;
 1099              		.loc 1 617 50 view .LVU384
 1100 029c 029B     		ldr	r3, [sp, #8]
 1101 029e 9B1B     		subs	r3, r3, r6
 1102 02a0 0AD4     		bmi	.L59
 1103              	.L37:
 617:lvgl/src/extra/layouts/grid/lv_grid.c ****             item->w_layout = 0;
 1104              		.loc 1 617 31 view .LVU385
 1105 02a2 08EB6308 		add	r8, r8, r3, asr #1
 617:lvgl/src/extra/layouts/grid/lv_grid.c ****             item->w_layout = 0;
 1106              		.loc 1 617 15 view .LVU386
 1107 02a6 0FFA88F8 		sxth	r8, r8
 1108              	.LVL129:
 618:lvgl/src/extra/layouts/grid/lv_grid.c ****             break;
 1109              		.loc 1 618 13 is_stmt 1 view .LVU387
 618:lvgl/src/extra/layouts/grid/lv_grid.c ****             break;
 1110              		.loc 1 618 28 is_stmt 0 view .LVU388
 1111 02aa 94F82330 		ldrb	r3, [r4, #35]	@ zero_extendqisi2
 1112 02ae 6FF3C303 		bfc	r3, #3, #1
 1113 02b2 84F82330 		strb	r3, [r4, #35]
 1114              	.LVL130:
 619:lvgl/src/extra/layouts/grid/lv_grid.c ****         case LV_GRID_ALIGN_END:
 1115              		.loc 1 619 13 is_stmt 1 view .LVU389
 1116 02b6 36E7     		b	.L36
 1117              	.LVL131:
 1118              	.L59:
 617:lvgl/src/extra/layouts/grid/lv_grid.c ****             item->w_layout = 0;
 1119              		.loc 1 617 50 is_stmt 0 view .LVU390
 1120 02b8 0133     		adds	r3, r3, #1
 1121 02ba F2E7     		b	.L37
 1122              	.LVL132:
 1123              	.L33:
 621:lvgl/src/extra/layouts/grid/lv_grid.c ****             item->w_layout = 0;
 1124              		.loc 1 621 13 is_stmt 1 view .LVU391
 621:lvgl/src/extra/layouts/grid/lv_grid.c ****             item->w_layout = 0;
 1125              		.loc 1 621 18 is_stmt 0 view .LVU392
 1126 02bc 2B68     		ldr	r3, [r5]
 621:lvgl/src/extra/layouts/grid/lv_grid.c ****             item->w_layout = 0;
 1127              		.loc 1 621 21 view .LVU393
 1128 02be 33F81B80 		ldrh	r8, [r3, fp, lsl #1]
ARM GAS  C:\Users\OSD\AppData\Local\Temp\ccKYLEBM.s 			page 55


 1129              	.LVL133:
 621:lvgl/src/extra/layouts/grid/lv_grid.c ****             item->w_layout = 0;
 1130              		.loc 1 621 31 view .LVU394
 1131 02c2 049B     		ldr	r3, [sp, #16]
 1132 02c4 4344     		add	r3, r3, r8
 1133 02c6 1FFA83F8 		uxth	r8, r3
 621:lvgl/src/extra/layouts/grid/lv_grid.c ****             item->w_layout = 0;
 1134              		.loc 1 621 41 view .LVU395
 1135 02ca 2046     		mov	r0, r4
 1136 02cc FFF7FEFF 		bl	lv_obj_get_width
 1137              	.LVL134:
 1138 02d0 80B2     		uxth	r0, r0
 621:lvgl/src/extra/layouts/grid/lv_grid.c ****             item->w_layout = 0;
 1139              		.loc 1 621 39 view .LVU396
 1140 02d2 A8EB0008 		sub	r8, r8, r0
 621:lvgl/src/extra/layouts/grid/lv_grid.c ****             item->w_layout = 0;
 1141              		.loc 1 621 15 view .LVU397
 1142 02d6 0FFA88F8 		sxth	r8, r8
 1143              	.LVL135:
 622:lvgl/src/extra/layouts/grid/lv_grid.c ****             break;
 1144              		.loc 1 622 13 is_stmt 1 view .LVU398
 622:lvgl/src/extra/layouts/grid/lv_grid.c ****             break;
 1145              		.loc 1 622 28 is_stmt 0 view .LVU399
 1146 02da 94F82330 		ldrb	r3, [r4, #35]	@ zero_extendqisi2
 1147 02de 6FF3C303 		bfc	r3, #3, #1
 1148 02e2 84F82330 		strb	r3, [r4, #35]
 1149              	.LVL136:
 623:lvgl/src/extra/layouts/grid/lv_grid.c ****     }
 1150              		.loc 1 623 13 is_stmt 1 view .LVU400
 1151 02e6 1EE7     		b	.L36
 1152              	.L39:
 633:lvgl/src/extra/layouts/grid/lv_grid.c ****             item_h = row_h;
 1153              		.loc 1 633 13 view .LVU401
 633:lvgl/src/extra/layouts/grid/lv_grid.c ****             item_h = row_h;
 1154              		.loc 1 633 18 is_stmt 0 view .LVU402
 1155 02e8 6B68     		ldr	r3, [r5, #4]
 633:lvgl/src/extra/layouts/grid/lv_grid.c ****             item_h = row_h;
 1156              		.loc 1 633 15 view .LVU403
 1157 02ea 33F91A50 		ldrsh	r5, [r3, r10, lsl #1]
 1158              	.LVL137:
 634:lvgl/src/extra/layouts/grid/lv_grid.c ****             item->h_layout = 1;
 1159              		.loc 1 634 13 is_stmt 1 view .LVU404
 635:lvgl/src/extra/layouts/grid/lv_grid.c ****             break;
 1160              		.loc 1 635 13 view .LVU405
 635:lvgl/src/extra/layouts/grid/lv_grid.c ****             break;
 1161              		.loc 1 635 28 is_stmt 0 view .LVU406
 1162 02ee 94F82330 		ldrb	r3, [r4, #35]	@ zero_extendqisi2
 1163 02f2 43F00403 		orr	r3, r3, #4
 1164 02f6 84F82330 		strb	r3, [r4, #35]
 1165              	.LVL138:
 636:lvgl/src/extra/layouts/grid/lv_grid.c ****         case LV_GRID_ALIGN_CENTER:
 1166              		.loc 1 636 13 is_stmt 1 view .LVU407
 634:lvgl/src/extra/layouts/grid/lv_grid.c ****             item->h_layout = 1;
 1167              		.loc 1 634 20 is_stmt 0 view .LVU408
 1168 02fa 039F     		ldr	r7, [sp, #12]
 636:lvgl/src/extra/layouts/grid/lv_grid.c ****         case LV_GRID_ALIGN_CENTER:
 1169              		.loc 1 636 13 view .LVU409
ARM GAS  C:\Users\OSD\AppData\Local\Temp\ccKYLEBM.s 			page 56


 1170 02fc 28E7     		b	.L41
 1171              	.LVL139:
 1172              	.L40:
 638:lvgl/src/extra/layouts/grid/lv_grid.c ****             item->h_layout = 0;
 1173              		.loc 1 638 13 is_stmt 1 view .LVU410
 638:lvgl/src/extra/layouts/grid/lv_grid.c ****             item->h_layout = 0;
 1174              		.loc 1 638 18 is_stmt 0 view .LVU411
 1175 02fe 6B68     		ldr	r3, [r5, #4]
 638:lvgl/src/extra/layouts/grid/lv_grid.c ****             item->h_layout = 0;
 1176              		.loc 1 638 21 view .LVU412
 1177 0300 33F81A50 		ldrh	r5, [r3, r10, lsl #1]
 1178              	.LVL140:
 638:lvgl/src/extra/layouts/grid/lv_grid.c ****             item->h_layout = 0;
 1179              		.loc 1 638 50 view .LVU413
 1180 0304 039B     		ldr	r3, [sp, #12]
 1181 0306 DB1B     		subs	r3, r3, r7
 1182 0308 09D4     		bmi	.L60
 1183              	.L42:
 638:lvgl/src/extra/layouts/grid/lv_grid.c ****             item->h_layout = 0;
 1184              		.loc 1 638 31 view .LVU414
 1185 030a 05EB6305 		add	r5, r5, r3, asr #1
 638:lvgl/src/extra/layouts/grid/lv_grid.c ****             item->h_layout = 0;
 1186              		.loc 1 638 15 view .LVU415
 1187 030e 2DB2     		sxth	r5, r5
 1188              	.LVL141:
 639:lvgl/src/extra/layouts/grid/lv_grid.c ****             break;
 1189              		.loc 1 639 13 is_stmt 1 view .LVU416
 639:lvgl/src/extra/layouts/grid/lv_grid.c ****             break;
 1190              		.loc 1 639 28 is_stmt 0 view .LVU417
 1191 0310 94F82330 		ldrb	r3, [r4, #35]	@ zero_extendqisi2
 1192 0314 6FF38203 		bfc	r3, #2, #1
 1193 0318 84F82330 		strb	r3, [r4, #35]
 640:lvgl/src/extra/layouts/grid/lv_grid.c ****         case LV_GRID_ALIGN_END:
 1194              		.loc 1 640 13 is_stmt 1 view .LVU418
 1195 031c 18E7     		b	.L41
 1196              	.LVL142:
 1197              	.L60:
 638:lvgl/src/extra/layouts/grid/lv_grid.c ****             item->h_layout = 0;
 1198              		.loc 1 638 50 is_stmt 0 view .LVU419
 1199 031e 0133     		adds	r3, r3, #1
 1200 0320 F3E7     		b	.L42
 1201              	.L62:
 1202 0322 00BF     		.align	2
 1203              	.L61:
 1204 0324 01000600 		.word	393217
 1205 0328 00000000 		.word	.LANCHOR0
 1206 032c 00000000 		.word	.LANCHOR1
 1207 0330 00000000 		.word	.LANCHOR2
 1208 0334 00000000 		.word	.LANCHOR3
 1209 0338 00000000 		.word	.LANCHOR4
 1210 033c 00000000 		.word	.LANCHOR5
 1211              	.LVL143:
 1212              	.L38:
 642:lvgl/src/extra/layouts/grid/lv_grid.c ****             item->h_layout = 0;
 1213              		.loc 1 642 13 is_stmt 1 view .LVU420
 642:lvgl/src/extra/layouts/grid/lv_grid.c ****             item->h_layout = 0;
 1214              		.loc 1 642 18 is_stmt 0 view .LVU421
ARM GAS  C:\Users\OSD\AppData\Local\Temp\ccKYLEBM.s 			page 57


 1215 0340 6B68     		ldr	r3, [r5, #4]
 642:lvgl/src/extra/layouts/grid/lv_grid.c ****             item->h_layout = 0;
 1216              		.loc 1 642 21 view .LVU422
 1217 0342 33F81A50 		ldrh	r5, [r3, r10, lsl #1]
 1218              	.LVL144:
 642:lvgl/src/extra/layouts/grid/lv_grid.c ****             item->h_layout = 0;
 1219              		.loc 1 642 31 view .LVU423
 1220 0346 059B     		ldr	r3, [sp, #20]
 1221 0348 2B44     		add	r3, r3, r5
 1222 034a 9DB2     		uxth	r5, r3
 642:lvgl/src/extra/layouts/grid/lv_grid.c ****             item->h_layout = 0;
 1223              		.loc 1 642 41 view .LVU424
 1224 034c 2046     		mov	r0, r4
 1225 034e FFF7FEFF 		bl	lv_obj_get_height
 1226              	.LVL145:
 1227 0352 80B2     		uxth	r0, r0
 642:lvgl/src/extra/layouts/grid/lv_grid.c ****             item->h_layout = 0;
 1228              		.loc 1 642 39 view .LVU425
 1229 0354 2D1A     		subs	r5, r5, r0
 642:lvgl/src/extra/layouts/grid/lv_grid.c ****             item->h_layout = 0;
 1230              		.loc 1 642 15 view .LVU426
 1231 0356 2DB2     		sxth	r5, r5
 1232              	.LVL146:
 643:lvgl/src/extra/layouts/grid/lv_grid.c ****             break;
 1233              		.loc 1 643 13 is_stmt 1 view .LVU427
 643:lvgl/src/extra/layouts/grid/lv_grid.c ****             break;
 1234              		.loc 1 643 28 is_stmt 0 view .LVU428
 1235 0358 94F82330 		ldrb	r3, [r4, #35]	@ zero_extendqisi2
 1236 035c 6FF38203 		bfc	r3, #2, #1
 1237 0360 84F82330 		strb	r3, [r4, #35]
 644:lvgl/src/extra/layouts/grid/lv_grid.c ****     }
 1238              		.loc 1 644 13 is_stmt 1 view .LVU429
 1239 0364 F4E6     		b	.L41
 1240              	.L56:
 648:lvgl/src/extra/layouts/grid/lv_grid.c ****         lv_area_t old_coords;
 1241              		.loc 1 648 44 is_stmt 0 discriminator 1 view .LVU430
 1242 0366 2046     		mov	r0, r4
 1243 0368 FFF7FEFF 		bl	lv_obj_get_height
 1244              	.LVL147:
 648:lvgl/src/extra/layouts/grid/lv_grid.c ****         lv_area_t old_coords;
 1245              		.loc 1 648 41 discriminator 1 view .LVU431
 1246 036c B842     		cmp	r0, r7
 1247 036e 7FF4F5AE 		bne	.L43
 1248 0372 20E7     		b	.L44
 1249              	.LVL148:
 1250              	.L57:
 665:lvgl/src/extra/layouts/grid/lv_grid.c ****     if(LV_COORD_IS_PCT(tr_y)) tr_y = (h * LV_COORD_GET_PCT(tr_y)) / 100;
 1251              		.loc 1 665 8 discriminator 1 view .LVU432
 1252 0374 2AF4C043 		bic	r3, r10, #24576
 1253 0378 B3F5FA6F 		cmp	r3, #2000
 1254 037c 3FF738AF 		bgt	.L45
 665:lvgl/src/extra/layouts/grid/lv_grid.c ****     if(LV_COORD_IS_PCT(tr_y)) tr_y = (h * LV_COORD_GET_PCT(tr_y)) / 100;
 1255              		.loc 1 665 31 is_stmt 1 discriminator 2 view .LVU433
 665:lvgl/src/extra/layouts/grid/lv_grid.c ****     if(LV_COORD_IS_PCT(tr_y)) tr_y = (h * LV_COORD_GET_PCT(tr_y)) / 100;
 1256              		.loc 1 665 43 is_stmt 0 discriminator 2 view .LVU434
 1257 0380 B3F57A7F 		cmp	r3, #1000
 1258 0384 01DD     		ble	.L47
ARM GAS  C:\Users\OSD\AppData\Local\Temp\ccKYLEBM.s 			page 58


 665:lvgl/src/extra/layouts/grid/lv_grid.c ****     if(LV_COORD_IS_PCT(tr_y)) tr_y = (h * LV_COORD_GET_PCT(tr_y)) / 100;
 1259              		.loc 1 665 43 discriminator 3 view .LVU435
 1260 0386 C3F57A73 		rsb	r3, r3, #1000
 1261              	.L47:
 665:lvgl/src/extra/layouts/grid/lv_grid.c ****     if(LV_COORD_IS_PCT(tr_y)) tr_y = (h * LV_COORD_GET_PCT(tr_y)) / 100;
 1262              		.loc 1 665 41 discriminator 6 view .LVU436
 1263 038a 03FB0BFB 		mul	fp, r3, fp
 1264              	.LVL149:
 665:lvgl/src/extra/layouts/grid/lv_grid.c ****     if(LV_COORD_IS_PCT(tr_y)) tr_y = (h * LV_COORD_GET_PCT(tr_y)) / 100;
 1265              		.loc 1 665 67 discriminator 6 view .LVU437
 1266 038e 104B     		ldr	r3, .L63
 1267 0390 83FB0B3A 		smull	r3, r10, r3, fp
 1268              	.LVL150:
 665:lvgl/src/extra/layouts/grid/lv_grid.c ****     if(LV_COORD_IS_PCT(tr_y)) tr_y = (h * LV_COORD_GET_PCT(tr_y)) / 100;
 1269              		.loc 1 665 67 discriminator 6 view .LVU438
 1270 0394 4FEAEB7B 		asr	fp, fp, #31
 1271 0398 CBEB6A1A 		rsb	r10, fp, r10, asr #5
 665:lvgl/src/extra/layouts/grid/lv_grid.c ****     if(LV_COORD_IS_PCT(tr_y)) tr_y = (h * LV_COORD_GET_PCT(tr_y)) / 100;
 1272              		.loc 1 665 36 discriminator 6 view .LVU439
 1273 039c 0FFA8AFA 		sxth	r10, r10
 1274              	.LVL151:
 665:lvgl/src/extra/layouts/grid/lv_grid.c ****     if(LV_COORD_IS_PCT(tr_y)) tr_y = (h * LV_COORD_GET_PCT(tr_y)) / 100;
 1275              		.loc 1 665 36 discriminator 6 view .LVU440
 1276 03a0 26E7     		b	.L45
 1277              	.L58:
 666:lvgl/src/extra/layouts/grid/lv_grid.c **** 
 1278              		.loc 1 666 8 discriminator 1 view .LVU441
 1279 03a2 29F4C043 		bic	r3, r9, #24576
 1280 03a6 B3F5FA6F 		cmp	r3, #2000
 1281 03aa 3FF727AF 		bgt	.L48
 666:lvgl/src/extra/layouts/grid/lv_grid.c **** 
 1282              		.loc 1 666 31 is_stmt 1 discriminator 2 view .LVU442
 666:lvgl/src/extra/layouts/grid/lv_grid.c **** 
 1283              		.loc 1 666 43 is_stmt 0 discriminator 2 view .LVU443
 1284 03ae B3F57A7F 		cmp	r3, #1000
 1285 03b2 01DD     		ble	.L50
 666:lvgl/src/extra/layouts/grid/lv_grid.c **** 
 1286              		.loc 1 666 43 discriminator 3 view .LVU444
 1287 03b4 C3F57A73 		rsb	r3, r3, #1000
 1288              	.L50:
 666:lvgl/src/extra/layouts/grid/lv_grid.c **** 
 1289              		.loc 1 666 41 discriminator 6 view .LVU445
 1290 03b8 00FB03F3 		mul	r3, r0, r3
 666:lvgl/src/extra/layouts/grid/lv_grid.c **** 
 1291              		.loc 1 666 67 discriminator 6 view .LVU446
 1292 03bc 044A     		ldr	r2, .L63
 1293 03be 82FB0312 		smull	r1, r2, r2, r3
 1294 03c2 4FEAE379 		asr	r9, r3, #31
 1295              	.LVL152:
 666:lvgl/src/extra/layouts/grid/lv_grid.c **** 
 1296              		.loc 1 666 67 discriminator 6 view .LVU447
 1297 03c6 C9EB6219 		rsb	r9, r9, r2, asr #5
 666:lvgl/src/extra/layouts/grid/lv_grid.c **** 
 1298              		.loc 1 666 36 discriminator 6 view .LVU448
 1299 03ca 0FFA89F9 		sxth	r9, r9
 1300              	.LVL153:
 666:lvgl/src/extra/layouts/grid/lv_grid.c **** 
ARM GAS  C:\Users\OSD\AppData\Local\Temp\ccKYLEBM.s 			page 59


 1301              		.loc 1 666 36 discriminator 6 view .LVU449
 1302 03ce 15E7     		b	.L48
 1303              	.L64:
 1304              		.align	2
 1305              	.L63:
 1306 03d0 1F85EB51 		.word	1374389535
 1307              		.cfi_endproc
 1308              	.LFE216:
 1310              		.section	.text.calc_free,"ax",%progbits
 1311              		.align	1
 1312              		.syntax unified
 1313              		.thumb
 1314              		.thumb_func
 1316              	calc_free:
 1317              	.LVL154:
 1318              	.LFB213:
 419:lvgl/src/extra/layouts/grid/lv_grid.c ****     lv_mem_buf_release(calc->x);
 1319              		.loc 1 419 1 is_stmt 1 view -0
 1320              		.cfi_startproc
 1321              		@ args = 0, pretend = 0, frame = 0
 1322              		@ frame_needed = 0, uses_anonymous_args = 0
 419:lvgl/src/extra/layouts/grid/lv_grid.c ****     lv_mem_buf_release(calc->x);
 1323              		.loc 1 419 1 is_stmt 0 view .LVU451
 1324 0000 10B5     		push	{r4, lr}
 1325              		.cfi_def_cfa_offset 8
 1326              		.cfi_offset 4, -8
 1327              		.cfi_offset 14, -4
 1328 0002 0446     		mov	r4, r0
 420:lvgl/src/extra/layouts/grid/lv_grid.c ****     lv_mem_buf_release(calc->y);
 1329              		.loc 1 420 5 is_stmt 1 view .LVU452
 1330 0004 0068     		ldr	r0, [r0]
 1331              	.LVL155:
 420:lvgl/src/extra/layouts/grid/lv_grid.c ****     lv_mem_buf_release(calc->y);
 1332              		.loc 1 420 5 is_stmt 0 view .LVU453
 1333 0006 FFF7FEFF 		bl	lv_mem_buf_release
 1334              	.LVL156:
 421:lvgl/src/extra/layouts/grid/lv_grid.c ****     lv_mem_buf_release(calc->w);
 1335              		.loc 1 421 5 is_stmt 1 view .LVU454
 1336 000a 6068     		ldr	r0, [r4, #4]
 1337 000c FFF7FEFF 		bl	lv_mem_buf_release
 1338              	.LVL157:
 422:lvgl/src/extra/layouts/grid/lv_grid.c ****     lv_mem_buf_release(calc->h);
 1339              		.loc 1 422 5 view .LVU455
 1340 0010 A068     		ldr	r0, [r4, #8]
 1341 0012 FFF7FEFF 		bl	lv_mem_buf_release
 1342              	.LVL158:
 423:lvgl/src/extra/layouts/grid/lv_grid.c **** }
 1343              		.loc 1 423 5 view .LVU456
 1344 0016 E068     		ldr	r0, [r4, #12]
 1345 0018 FFF7FEFF 		bl	lv_mem_buf_release
 1346              	.LVL159:
 424:lvgl/src/extra/layouts/grid/lv_grid.c **** 
 1347              		.loc 1 424 1 is_stmt 0 view .LVU457
 1348 001c 10BD     		pop	{r4, pc}
 424:lvgl/src/extra/layouts/grid/lv_grid.c **** 
 1349              		.loc 1 424 1 view .LVU458
 1350              		.cfi_endproc
ARM GAS  C:\Users\OSD\AppData\Local\Temp\ccKYLEBM.s 			page 60


 1351              	.LFE213:
 1353              		.section	.text.calc_cols,"ax",%progbits
 1354              		.align	1
 1355              		.syntax unified
 1356              		.thumb
 1357              		.thumb_func
 1359              	calc_cols:
 1360              	.LVL160:
 1361              	.LFB214:
 427:lvgl/src/extra/layouts/grid/lv_grid.c ****     const lv_coord_t * col_templ = get_col_dsc(cont);
 1362              		.loc 1 427 1 is_stmt 1 view -0
 1363              		.cfi_startproc
 1364              		@ args = 0, pretend = 0, frame = 8
 1365              		@ frame_needed = 0, uses_anonymous_args = 0
 427:lvgl/src/extra/layouts/grid/lv_grid.c ****     const lv_coord_t * col_templ = get_col_dsc(cont);
 1366              		.loc 1 427 1 is_stmt 0 view .LVU460
 1367 0000 2DE9F04F 		push	{r4, r5, r6, r7, r8, r9, r10, fp, lr}
 1368              		.cfi_def_cfa_offset 36
 1369              		.cfi_offset 4, -36
 1370              		.cfi_offset 5, -32
 1371              		.cfi_offset 6, -28
 1372              		.cfi_offset 7, -24
 1373              		.cfi_offset 8, -20
 1374              		.cfi_offset 9, -16
 1375              		.cfi_offset 10, -12
 1376              		.cfi_offset 11, -8
 1377              		.cfi_offset 14, -4
 1378 0004 83B0     		sub	sp, sp, #12
 1379              		.cfi_def_cfa_offset 48
 1380 0006 8146     		mov	r9, r0
 1381 0008 0C46     		mov	r4, r1
 428:lvgl/src/extra/layouts/grid/lv_grid.c ****     lv_coord_t cont_w = lv_obj_get_content_width(cont);
 1382              		.loc 1 428 5 is_stmt 1 view .LVU461
 1383              	.LVL161:
 1384              	.LBB166:
 1385              	.LBI166:
  60:lvgl/src/extra/layouts/grid/lv_grid.c **** {
 1386              		.loc 1 60 34 view .LVU462
 1387              	.LBE166:
  62:lvgl/src/extra/layouts/grid/lv_grid.c **** }
 1388              		.loc 1 62 5 view .LVU463
 1389              	.LBB169:
 1390              	.LBB167:
 1391              	.LBI167:
 127:lvgl/src/extra/layouts/grid/../grid/lv_grid.h **** {
 1392              		.loc 2 127 34 view .LVU464
 1393              	.LBB168:
 129:lvgl/src/extra/layouts/grid/../grid/lv_grid.h ****     return (const lv_coord_t *)v.ptr;
 1394              		.loc 2 129 5 view .LVU465
 129:lvgl/src/extra/layouts/grid/../grid/lv_grid.h ****     return (const lv_coord_t *)v.ptr;
 1395              		.loc 2 129 26 is_stmt 0 view .LVU466
 1396 000a 5D4B     		ldr	r3, .L94
 1397 000c 1A88     		ldrh	r2, [r3]
 1398 000e 0021     		movs	r1, #0
 1399              	.LVL162:
 129:lvgl/src/extra/layouts/grid/../grid/lv_grid.h ****     return (const lv_coord_t *)v.ptr;
 1400              		.loc 2 129 26 view .LVU467
ARM GAS  C:\Users\OSD\AppData\Local\Temp\ccKYLEBM.s 			page 61


 1401 0010 FFF7FEFF 		bl	lv_obj_get_style_prop
 1402              	.LVL163:
 129:lvgl/src/extra/layouts/grid/../grid/lv_grid.h ****     return (const lv_coord_t *)v.ptr;
 1403              		.loc 2 129 26 view .LVU468
 1404 0014 8046     		mov	r8, r0
 130:lvgl/src/extra/layouts/grid/../grid/lv_grid.h **** }
 1405              		.loc 2 130 5 is_stmt 1 view .LVU469
 1406              	.LVL164:
 130:lvgl/src/extra/layouts/grid/../grid/lv_grid.h **** }
 1407              		.loc 2 130 5 is_stmt 0 view .LVU470
 1408              	.LBE168:
 1409              	.LBE167:
 1410              	.LBE169:
 429:lvgl/src/extra/layouts/grid/lv_grid.c **** 
 1411              		.loc 1 429 5 is_stmt 1 view .LVU471
 429:lvgl/src/extra/layouts/grid/lv_grid.c **** 
 1412              		.loc 1 429 25 is_stmt 0 view .LVU472
 1413 0016 4846     		mov	r0, r9
 1414              	.LVL165:
 429:lvgl/src/extra/layouts/grid/lv_grid.c **** 
 1415              		.loc 1 429 25 view .LVU473
 1416 0018 FFF7FEFF 		bl	lv_obj_get_content_width
 1417              	.LVL166:
 1418 001c 0190     		str	r0, [sp, #4]
 1419              	.LVL167:
 431:lvgl/src/extra/layouts/grid/lv_grid.c ****     c->x = lv_mem_buf_get(sizeof(lv_coord_t) * c->col_num);
 1420              		.loc 1 431 5 is_stmt 1 view .LVU474
 431:lvgl/src/extra/layouts/grid/lv_grid.c ****     c->x = lv_mem_buf_get(sizeof(lv_coord_t) * c->col_num);
 1421              		.loc 1 431 18 is_stmt 0 view .LVU475
 1422 001e 4046     		mov	r0, r8
 1423 0020 FFF7FEFF 		bl	count_tracks
 1424              	.LVL168:
 431:lvgl/src/extra/layouts/grid/lv_grid.c ****     c->x = lv_mem_buf_get(sizeof(lv_coord_t) * c->col_num);
 1425              		.loc 1 431 16 view .LVU476
 1426 0024 2061     		str	r0, [r4, #16]
 432:lvgl/src/extra/layouts/grid/lv_grid.c ****     c->w = lv_mem_buf_get(sizeof(lv_coord_t) * c->col_num);
 1427              		.loc 1 432 5 is_stmt 1 view .LVU477
 432:lvgl/src/extra/layouts/grid/lv_grid.c ****     c->w = lv_mem_buf_get(sizeof(lv_coord_t) * c->col_num);
 1428              		.loc 1 432 12 is_stmt 0 view .LVU478
 1429 0026 4000     		lsls	r0, r0, #1
 1430 0028 FFF7FEFF 		bl	lv_mem_buf_get
 1431              	.LVL169:
 432:lvgl/src/extra/layouts/grid/lv_grid.c ****     c->w = lv_mem_buf_get(sizeof(lv_coord_t) * c->col_num);
 1432              		.loc 1 432 10 view .LVU479
 1433 002c 2060     		str	r0, [r4]
 433:lvgl/src/extra/layouts/grid/lv_grid.c **** 
 1434              		.loc 1 433 5 is_stmt 1 view .LVU480
 433:lvgl/src/extra/layouts/grid/lv_grid.c **** 
 1435              		.loc 1 433 49 is_stmt 0 view .LVU481
 1436 002e 2069     		ldr	r0, [r4, #16]
 433:lvgl/src/extra/layouts/grid/lv_grid.c **** 
 1437              		.loc 1 433 12 view .LVU482
 1438 0030 4000     		lsls	r0, r0, #1
 1439 0032 FFF7FEFF 		bl	lv_mem_buf_get
 1440              	.LVL170:
 433:lvgl/src/extra/layouts/grid/lv_grid.c **** 
 1441              		.loc 1 433 10 view .LVU483
ARM GAS  C:\Users\OSD\AppData\Local\Temp\ccKYLEBM.s 			page 62


 1442 0036 A060     		str	r0, [r4, #8]
 436:lvgl/src/extra/layouts/grid/lv_grid.c ****     for(i = 0; i < c->col_num; i++) {
 1443              		.loc 1 436 5 is_stmt 1 view .LVU484
 437:lvgl/src/extra/layouts/grid/lv_grid.c ****         lv_coord_t size = LV_COORD_MIN;
 1444              		.loc 1 437 5 view .LVU485
 1445              	.LVL171:
 437:lvgl/src/extra/layouts/grid/lv_grid.c ****         lv_coord_t size = LV_COORD_MIN;
 1446              		.loc 1 437 11 is_stmt 0 view .LVU486
 1447 0038 0026     		movs	r6, #0
 437:lvgl/src/extra/layouts/grid/lv_grid.c ****         lv_coord_t size = LV_COORD_MIN;
 1448              		.loc 1 437 5 view .LVU487
 1449 003a 32E0     		b	.L68
 1450              	.LVL172:
 1451              	.L71:
 1452              	.LBB170:
 1453              	.LBB171:
 442:lvgl/src/extra/layouts/grid/lv_grid.c ****                 lv_obj_t * item = lv_obj_get_child(cont, ci);
 1454              		.loc 1 442 58 is_stmt 1 discriminator 2 view .LVU488
 442:lvgl/src/extra/layouts/grid/lv_grid.c ****                 lv_obj_t * item = lv_obj_get_child(cont, ci);
 1455              		.loc 1 442 60 is_stmt 0 discriminator 2 view .LVU489
 1456 003c 0135     		adds	r5, r5, #1
 1457              	.LVL173:
 1458              	.L69:
 442:lvgl/src/extra/layouts/grid/lv_grid.c ****                 lv_obj_t * item = lv_obj_get_child(cont, ci);
 1459              		.loc 1 442 25 is_stmt 1 discriminator 1 view .LVU490
 442:lvgl/src/extra/layouts/grid/lv_grid.c ****                 lv_obj_t * item = lv_obj_get_child(cont, ci);
 1460              		.loc 1 442 30 is_stmt 0 discriminator 1 view .LVU491
 1461 003e 4846     		mov	r0, r9
 1462 0040 FFF7FEFF 		bl	lv_obj_get_child_cnt
 1463              	.LVL174:
 442:lvgl/src/extra/layouts/grid/lv_grid.c ****                 lv_obj_t * item = lv_obj_get_child(cont, ci);
 1464              		.loc 1 442 13 discriminator 1 view .LVU492
 1465 0044 A842     		cmp	r0, r5
 1466 0046 25D9     		bls	.L88
 1467              	.LBB172:
 443:lvgl/src/extra/layouts/grid/lv_grid.c ****                 if(lv_obj_has_flag_any(item, LV_OBJ_FLAG_IGNORE_LAYOUT | LV_OBJ_FLAG_HIDDEN | LV_OB
 1468              		.loc 1 443 17 is_stmt 1 view .LVU493
 443:lvgl/src/extra/layouts/grid/lv_grid.c ****                 if(lv_obj_has_flag_any(item, LV_OBJ_FLAG_IGNORE_LAYOUT | LV_OBJ_FLAG_HIDDEN | LV_OB
 1469              		.loc 1 443 35 is_stmt 0 view .LVU494
 1470 0048 2946     		mov	r1, r5
 1471 004a 4846     		mov	r0, r9
 1472 004c FFF7FEFF 		bl	lv_obj_get_child
 1473              	.LVL175:
 1474 0050 0746     		mov	r7, r0
 1475              	.LVL176:
 444:lvgl/src/extra/layouts/grid/lv_grid.c ****                 uint32_t col_span = get_col_span(item);
 1476              		.loc 1 444 17 is_stmt 1 view .LVU495
 444:lvgl/src/extra/layouts/grid/lv_grid.c ****                 uint32_t col_span = get_col_span(item);
 1477              		.loc 1 444 20 is_stmt 0 view .LVU496
 1478 0052 4C49     		ldr	r1, .L94+4
 1479 0054 FFF7FEFF 		bl	lv_obj_has_flag_any
 1480              	.LVL177:
 444:lvgl/src/extra/layouts/grid/lv_grid.c ****                 uint32_t col_span = get_col_span(item);
 1481              		.loc 1 444 19 view .LVU497
 1482 0058 0028     		cmp	r0, #0
 1483 005a EFD1     		bne	.L71
 445:lvgl/src/extra/layouts/grid/lv_grid.c ****                 if(col_span != 1) continue;
ARM GAS  C:\Users\OSD\AppData\Local\Temp\ccKYLEBM.s 			page 63


 1484              		.loc 1 445 17 is_stmt 1 view .LVU498
 1485              	.LVL178:
 1486              	.LBB173:
 1487              	.LBI173:
  76:lvgl/src/extra/layouts/grid/lv_grid.c **** {
 1488              		.loc 1 76 23 view .LVU499
 1489              	.LBB174:
  78:lvgl/src/extra/layouts/grid/lv_grid.c **** }
 1490              		.loc 1 78 5 view .LVU500
 1491              	.LBB175:
 1492              	.LBI175:
 151:lvgl/src/extra/layouts/grid/../grid/lv_grid.h **** {
 1493              		.loc 2 151 26 view .LVU501
 1494              	.LBB176:
 153:lvgl/src/extra/layouts/grid/../grid/lv_grid.h ****     return (lv_coord_t)v.num;
 1495              		.loc 2 153 5 view .LVU502
 153:lvgl/src/extra/layouts/grid/../grid/lv_grid.h ****     return (lv_coord_t)v.num;
 1496              		.loc 2 153 26 is_stmt 0 view .LVU503
 1497 005c 4A4B     		ldr	r3, .L94+8
 1498 005e 1A88     		ldrh	r2, [r3]
 1499 0060 0021     		movs	r1, #0
 1500 0062 3846     		mov	r0, r7
 1501 0064 FFF7FEFF 		bl	lv_obj_get_style_prop
 1502              	.LVL179:
 154:lvgl/src/extra/layouts/grid/../grid/lv_grid.h **** }
 1503              		.loc 2 154 5 is_stmt 1 view .LVU504
 154:lvgl/src/extra/layouts/grid/../grid/lv_grid.h **** }
 1504              		.loc 2 154 5 is_stmt 0 view .LVU505
 1505              	.LBE176:
 1506              	.LBE175:
  78:lvgl/src/extra/layouts/grid/lv_grid.c **** }
 1507              		.loc 1 78 12 view .LVU506
 1508 0068 C0B2     		uxtb	r0, r0
 1509              	.LVL180:
  78:lvgl/src/extra/layouts/grid/lv_grid.c **** }
 1510              		.loc 1 78 12 view .LVU507
 1511              	.LBE174:
 1512              	.LBE173:
 446:lvgl/src/extra/layouts/grid/lv_grid.c **** 
 1513              		.loc 1 446 17 is_stmt 1 view .LVU508
 446:lvgl/src/extra/layouts/grid/lv_grid.c **** 
 1514              		.loc 1 446 19 is_stmt 0 view .LVU509
 1515 006a 0128     		cmp	r0, #1
 1516 006c E6D1     		bne	.L71
 448:lvgl/src/extra/layouts/grid/lv_grid.c ****                 if(col_pos != i) continue;
 1517              		.loc 1 448 17 is_stmt 1 view .LVU510
 1518              	.LVL181:
 1519              	.LBB177:
 1520              	.LBI177:
  68:lvgl/src/extra/layouts/grid/lv_grid.c **** {
 1521              		.loc 1 68 23 view .LVU511
 1522              	.LBB178:
  70:lvgl/src/extra/layouts/grid/lv_grid.c **** }
 1523              		.loc 1 70 5 view .LVU512
 1524              	.LBB179:
 1525              	.LBI179:
 145:lvgl/src/extra/layouts/grid/../grid/lv_grid.h **** {
ARM GAS  C:\Users\OSD\AppData\Local\Temp\ccKYLEBM.s 			page 64


 1526              		.loc 2 145 26 view .LVU513
 1527              	.LBB180:
 147:lvgl/src/extra/layouts/grid/../grid/lv_grid.h ****     return (lv_coord_t)v.num;
 1528              		.loc 2 147 5 view .LVU514
 147:lvgl/src/extra/layouts/grid/../grid/lv_grid.h ****     return (lv_coord_t)v.num;
 1529              		.loc 2 147 26 is_stmt 0 view .LVU515
 1530 006e 474B     		ldr	r3, .L94+12
 1531 0070 1A88     		ldrh	r2, [r3]
 1532 0072 0021     		movs	r1, #0
 1533 0074 3846     		mov	r0, r7
 1534              	.LVL182:
 147:lvgl/src/extra/layouts/grid/../grid/lv_grid.h ****     return (lv_coord_t)v.num;
 1535              		.loc 2 147 26 view .LVU516
 1536 0076 FFF7FEFF 		bl	lv_obj_get_style_prop
 1537              	.LVL183:
 148:lvgl/src/extra/layouts/grid/../grid/lv_grid.h **** }
 1538              		.loc 2 148 5 is_stmt 1 view .LVU517
 148:lvgl/src/extra/layouts/grid/../grid/lv_grid.h **** }
 1539              		.loc 2 148 5 is_stmt 0 view .LVU518
 1540              	.LBE180:
 1541              	.LBE179:
  70:lvgl/src/extra/layouts/grid/lv_grid.c **** }
 1542              		.loc 1 70 12 view .LVU519
 1543 007a C0B2     		uxtb	r0, r0
 1544              	.LVL184:
  70:lvgl/src/extra/layouts/grid/lv_grid.c **** }
 1545              		.loc 1 70 12 view .LVU520
 1546              	.LBE178:
 1547              	.LBE177:
 449:lvgl/src/extra/layouts/grid/lv_grid.c **** 
 1548              		.loc 1 449 17 is_stmt 1 view .LVU521
 449:lvgl/src/extra/layouts/grid/lv_grid.c **** 
 1549              		.loc 1 449 19 is_stmt 0 view .LVU522
 1550 007c 8642     		cmp	r6, r0
 1551 007e DDD1     		bne	.L71
 451:lvgl/src/extra/layouts/grid/lv_grid.c ****             }
 1552              		.loc 1 451 17 is_stmt 1 view .LVU523
 451:lvgl/src/extra/layouts/grid/lv_grid.c ****             }
 1553              		.loc 1 451 24 is_stmt 0 view .LVU524
 1554 0080 3846     		mov	r0, r7
 1555              	.LVL185:
 451:lvgl/src/extra/layouts/grid/lv_grid.c ****             }
 1556              		.loc 1 451 24 view .LVU525
 1557 0082 FFF7FEFF 		bl	lv_obj_get_width
 1558              	.LVL186:
 451:lvgl/src/extra/layouts/grid/lv_grid.c ****             }
 1559              		.loc 1 451 22 view .LVU526
 1560 0086 5845     		cmp	r0, fp
 1561 0088 D8DB     		blt	.L71
 451:lvgl/src/extra/layouts/grid/lv_grid.c ****             }
 1562              		.loc 1 451 24 discriminator 1 view .LVU527
 1563 008a 3846     		mov	r0, r7
 1564 008c FFF7FEFF 		bl	lv_obj_get_width
 1565              	.LVL187:
 1566 0090 8346     		mov	fp, r0
 1567              	.LVL188:
 451:lvgl/src/extra/layouts/grid/lv_grid.c ****             }
ARM GAS  C:\Users\OSD\AppData\Local\Temp\ccKYLEBM.s 			page 65


