ARM GAS  C:\Users\OSD\AppData\Local\Temp\ccllLVSZ.s 			page 1


   1              		.cpu cortex-m7
   2              		.arch armv7e-m
   3              		.fpu fpv5-d16
   4              		.eabi_attribute 28, 1
   5              		.eabi_attribute 20, 1
   6              		.eabi_attribute 21, 1
   7              		.eabi_attribute 23, 3
   8              		.eabi_attribute 24, 1
   9              		.eabi_attribute 25, 1
  10              		.eabi_attribute 26, 1
  11              		.eabi_attribute 30, 1
  12              		.eabi_attribute 34, 1
  13              		.eabi_attribute 18, 4
  14              		.file	"lv_group.c"
  15              		.text
  16              	.Ltext0:
  17              		.cfi_sections	.debug_frame
  18              		.section	.text.get_indev,"ax",%progbits
  19              		.align	1
  20              		.syntax unified
  21              		.thumb
  22              		.thumb_func
  24              	get_indev:
  25              	.LVL0:
  26              	.LFB188:
  27              		.file 1 "lvgl/src/core/lv_group.c"
   1:lvgl/src/core/lv_group.c **** /**
   2:lvgl/src/core/lv_group.c ****  * @file lv_group.c
   3:lvgl/src/core/lv_group.c ****  *
   4:lvgl/src/core/lv_group.c ****  */
   5:lvgl/src/core/lv_group.c **** 
   6:lvgl/src/core/lv_group.c **** /*********************
   7:lvgl/src/core/lv_group.c ****  *      INCLUDES
   8:lvgl/src/core/lv_group.c ****  *********************/
   9:lvgl/src/core/lv_group.c **** #include <stddef.h>
  10:lvgl/src/core/lv_group.c **** 
  11:lvgl/src/core/lv_group.c **** #include "lv_group.h"
  12:lvgl/src/core/lv_group.c **** #include "../misc/lv_gc.h"
  13:lvgl/src/core/lv_group.c **** #include "../core/lv_obj.h"
  14:lvgl/src/core/lv_group.c **** #include "../core/lv_indev.h"
  15:lvgl/src/core/lv_group.c **** 
  16:lvgl/src/core/lv_group.c **** /*********************
  17:lvgl/src/core/lv_group.c ****  *      DEFINES
  18:lvgl/src/core/lv_group.c ****  *********************/
  19:lvgl/src/core/lv_group.c **** 
  20:lvgl/src/core/lv_group.c **** /**********************
  21:lvgl/src/core/lv_group.c ****  *      TYPEDEFS
  22:lvgl/src/core/lv_group.c ****  **********************/
  23:lvgl/src/core/lv_group.c **** 
  24:lvgl/src/core/lv_group.c **** /**********************
  25:lvgl/src/core/lv_group.c ****  *  STATIC PROTOTYPES
  26:lvgl/src/core/lv_group.c ****  **********************/
  27:lvgl/src/core/lv_group.c **** static bool focus_next_core(lv_group_t * group, void * (*begin)(const lv_ll_t *),
  28:lvgl/src/core/lv_group.c ****                             void * (*move)(const lv_ll_t *, const void *));
  29:lvgl/src/core/lv_group.c **** static void lv_group_refocus(lv_group_t * g);
  30:lvgl/src/core/lv_group.c **** static lv_indev_t * get_indev(const lv_group_t * g);
  31:lvgl/src/core/lv_group.c **** 
ARM GAS  C:\Users\OSD\AppData\Local\Temp\ccllLVSZ.s 			page 2


  32:lvgl/src/core/lv_group.c **** /**********************
  33:lvgl/src/core/lv_group.c ****  *  STATIC VARIABLES
  34:lvgl/src/core/lv_group.c ****  **********************/
  35:lvgl/src/core/lv_group.c **** static lv_group_t * default_group;
  36:lvgl/src/core/lv_group.c **** 
  37:lvgl/src/core/lv_group.c **** /**********************
  38:lvgl/src/core/lv_group.c ****  *      MACROS
  39:lvgl/src/core/lv_group.c ****  **********************/
  40:lvgl/src/core/lv_group.c **** 
  41:lvgl/src/core/lv_group.c **** /**********************
  42:lvgl/src/core/lv_group.c ****  *   GLOBAL FUNCTIONS
  43:lvgl/src/core/lv_group.c ****  **********************/
  44:lvgl/src/core/lv_group.c **** 
  45:lvgl/src/core/lv_group.c **** void _lv_group_init(void)
  46:lvgl/src/core/lv_group.c **** {
  47:lvgl/src/core/lv_group.c ****     _lv_ll_init(&LV_GC_ROOT(_lv_group_ll), sizeof(lv_group_t));
  48:lvgl/src/core/lv_group.c **** }
  49:lvgl/src/core/lv_group.c **** 
  50:lvgl/src/core/lv_group.c **** lv_group_t * lv_group_create(void)
  51:lvgl/src/core/lv_group.c **** {
  52:lvgl/src/core/lv_group.c ****     lv_group_t * group = _lv_ll_ins_head(&LV_GC_ROOT(_lv_group_ll));
  53:lvgl/src/core/lv_group.c ****     LV_ASSERT_MALLOC(group);
  54:lvgl/src/core/lv_group.c ****     if(group == NULL) return NULL;
  55:lvgl/src/core/lv_group.c ****     _lv_ll_init(&group->obj_ll, sizeof(lv_obj_t *));
  56:lvgl/src/core/lv_group.c **** 
  57:lvgl/src/core/lv_group.c ****     group->obj_focus      = NULL;
  58:lvgl/src/core/lv_group.c ****     group->frozen         = 0;
  59:lvgl/src/core/lv_group.c ****     group->focus_cb       = NULL;
  60:lvgl/src/core/lv_group.c ****     group->edge_cb        = NULL;
  61:lvgl/src/core/lv_group.c ****     group->editing        = 0;
  62:lvgl/src/core/lv_group.c ****     group->refocus_policy = LV_GROUP_REFOCUS_POLICY_PREV;
  63:lvgl/src/core/lv_group.c ****     group->wrap           = 1;
  64:lvgl/src/core/lv_group.c **** 
  65:lvgl/src/core/lv_group.c **** #if LV_USE_USER_DATA
  66:lvgl/src/core/lv_group.c ****     group->user_data = NULL;
  67:lvgl/src/core/lv_group.c **** #endif
  68:lvgl/src/core/lv_group.c **** 
  69:lvgl/src/core/lv_group.c ****     return group;
  70:lvgl/src/core/lv_group.c **** }
  71:lvgl/src/core/lv_group.c **** 
  72:lvgl/src/core/lv_group.c **** void lv_group_del(lv_group_t * group)
  73:lvgl/src/core/lv_group.c **** {
  74:lvgl/src/core/lv_group.c ****     /*Defocus the currently focused object*/
  75:lvgl/src/core/lv_group.c ****     if(group->obj_focus != NULL) {
  76:lvgl/src/core/lv_group.c ****         lv_event_send(*group->obj_focus, LV_EVENT_DEFOCUSED, get_indev(group));
  77:lvgl/src/core/lv_group.c ****         lv_obj_invalidate(*group->obj_focus);
  78:lvgl/src/core/lv_group.c ****     }
  79:lvgl/src/core/lv_group.c **** 
  80:lvgl/src/core/lv_group.c ****     /*Remove the objects from the group*/
  81:lvgl/src/core/lv_group.c ****     lv_obj_t ** obj;
  82:lvgl/src/core/lv_group.c ****     _LV_LL_READ(&group->obj_ll, obj) {
  83:lvgl/src/core/lv_group.c ****         if((*obj)->spec_attr)(*obj)->spec_attr->group_p = NULL;
  84:lvgl/src/core/lv_group.c ****     }
  85:lvgl/src/core/lv_group.c **** 
  86:lvgl/src/core/lv_group.c ****     /*Remove the group from any indev devices */
  87:lvgl/src/core/lv_group.c ****     lv_indev_t * indev = lv_indev_get_next(NULL);
  88:lvgl/src/core/lv_group.c ****     while(indev) {
ARM GAS  C:\Users\OSD\AppData\Local\Temp\ccllLVSZ.s 			page 3


  89:lvgl/src/core/lv_group.c ****         if(indev->group == group) {
  90:lvgl/src/core/lv_group.c ****             lv_indev_set_group(indev, NULL);
  91:lvgl/src/core/lv_group.c ****         }
  92:lvgl/src/core/lv_group.c ****         indev = lv_indev_get_next(indev);
  93:lvgl/src/core/lv_group.c ****     }
  94:lvgl/src/core/lv_group.c **** 
  95:lvgl/src/core/lv_group.c ****     if(default_group == group) default_group = NULL;
  96:lvgl/src/core/lv_group.c ****     _lv_ll_clear(&(group->obj_ll));
  97:lvgl/src/core/lv_group.c ****     _lv_ll_remove(&LV_GC_ROOT(_lv_group_ll), group);
  98:lvgl/src/core/lv_group.c ****     lv_mem_free(group);
  99:lvgl/src/core/lv_group.c **** }
 100:lvgl/src/core/lv_group.c **** 
 101:lvgl/src/core/lv_group.c **** void lv_group_set_default(lv_group_t * group)
 102:lvgl/src/core/lv_group.c **** {
 103:lvgl/src/core/lv_group.c ****     default_group = group;
 104:lvgl/src/core/lv_group.c **** }
 105:lvgl/src/core/lv_group.c **** 
 106:lvgl/src/core/lv_group.c **** lv_group_t * lv_group_get_default(void)
 107:lvgl/src/core/lv_group.c **** {
 108:lvgl/src/core/lv_group.c ****     return default_group;
 109:lvgl/src/core/lv_group.c **** }
 110:lvgl/src/core/lv_group.c **** 
 111:lvgl/src/core/lv_group.c **** void lv_group_add_obj(lv_group_t * group, lv_obj_t * obj)
 112:lvgl/src/core/lv_group.c **** {
 113:lvgl/src/core/lv_group.c ****     if(group == NULL) return;
 114:lvgl/src/core/lv_group.c **** 
 115:lvgl/src/core/lv_group.c ****     LV_LOG_TRACE("begin");
 116:lvgl/src/core/lv_group.c **** 
 117:lvgl/src/core/lv_group.c ****     /*Be sure the object is removed from its current group*/
 118:lvgl/src/core/lv_group.c ****     lv_group_remove_obj(obj);
 119:lvgl/src/core/lv_group.c **** 
 120:lvgl/src/core/lv_group.c ****     /*Do not add the object twice*/
 121:lvgl/src/core/lv_group.c ****     lv_obj_t ** obj_i;
 122:lvgl/src/core/lv_group.c ****     _LV_LL_READ(&group->obj_ll, obj_i) {
 123:lvgl/src/core/lv_group.c ****         if((*obj_i) == obj) {
 124:lvgl/src/core/lv_group.c ****             LV_LOG_INFO("the object is already added to this group");
 125:lvgl/src/core/lv_group.c ****             return;
 126:lvgl/src/core/lv_group.c ****         }
 127:lvgl/src/core/lv_group.c ****     }
 128:lvgl/src/core/lv_group.c **** 
 129:lvgl/src/core/lv_group.c ****     /*If the object is already in a group and focused then refocus it*/
 130:lvgl/src/core/lv_group.c ****     lv_group_t * group_cur = lv_obj_get_group(obj);
 131:lvgl/src/core/lv_group.c ****     if(group_cur) {
 132:lvgl/src/core/lv_group.c ****         if(obj->spec_attr->group_p && *(obj->spec_attr->group_p->obj_focus) == obj) {
 133:lvgl/src/core/lv_group.c ****             lv_group_refocus(group_cur);
 134:lvgl/src/core/lv_group.c **** 
 135:lvgl/src/core/lv_group.c ****             LV_LOG_INFO("changing object's group");
 136:lvgl/src/core/lv_group.c ****         }
 137:lvgl/src/core/lv_group.c ****     }
 138:lvgl/src/core/lv_group.c **** 
 139:lvgl/src/core/lv_group.c ****     if(obj->spec_attr == NULL) lv_obj_allocate_spec_attr(obj);
 140:lvgl/src/core/lv_group.c ****     obj->spec_attr->group_p = group;
 141:lvgl/src/core/lv_group.c **** 
 142:lvgl/src/core/lv_group.c ****     lv_obj_t ** next = _lv_ll_ins_tail(&group->obj_ll);
 143:lvgl/src/core/lv_group.c ****     LV_ASSERT_MALLOC(next);
 144:lvgl/src/core/lv_group.c ****     if(next == NULL) return;
 145:lvgl/src/core/lv_group.c ****     *next = obj;
ARM GAS  C:\Users\OSD\AppData\Local\Temp\ccllLVSZ.s 			page 4


 146:lvgl/src/core/lv_group.c **** 
 147:lvgl/src/core/lv_group.c ****     /*If the head and the tail is equal then there is only one object in the linked list.
 148:lvgl/src/core/lv_group.c ****      *In this case automatically activate it*/
 149:lvgl/src/core/lv_group.c ****     if(_lv_ll_get_head(&group->obj_ll) == next) {
 150:lvgl/src/core/lv_group.c ****         lv_group_refocus(group);
 151:lvgl/src/core/lv_group.c ****     }
 152:lvgl/src/core/lv_group.c **** 
 153:lvgl/src/core/lv_group.c ****     LV_LOG_TRACE("finished");
 154:lvgl/src/core/lv_group.c **** }
 155:lvgl/src/core/lv_group.c **** 
 156:lvgl/src/core/lv_group.c **** void lv_group_swap_obj(lv_obj_t * obj1, lv_obj_t * obj2)
 157:lvgl/src/core/lv_group.c **** {
 158:lvgl/src/core/lv_group.c ****     lv_group_t * g1 = lv_obj_get_group(obj1);
 159:lvgl/src/core/lv_group.c ****     lv_group_t * g2 = lv_obj_get_group(obj2);
 160:lvgl/src/core/lv_group.c ****     if(g1 != g2) return;
 161:lvgl/src/core/lv_group.c ****     if(g1 == NULL) return;
 162:lvgl/src/core/lv_group.c **** 
 163:lvgl/src/core/lv_group.c ****     /*Do not add the object twice*/
 164:lvgl/src/core/lv_group.c ****     lv_obj_t ** obj_i;
 165:lvgl/src/core/lv_group.c ****     _LV_LL_READ(&g1->obj_ll, obj_i) {
 166:lvgl/src/core/lv_group.c ****         if((*obj_i) == obj1)(*obj_i) = obj2;
 167:lvgl/src/core/lv_group.c ****         else if((*obj_i) == obj2)(*obj_i) = obj1;
 168:lvgl/src/core/lv_group.c ****     }
 169:lvgl/src/core/lv_group.c **** 
 170:lvgl/src/core/lv_group.c ****     lv_obj_t * focused = lv_group_get_focused(g1);
 171:lvgl/src/core/lv_group.c ****     if(focused == obj1) lv_group_focus_obj(obj2);
 172:lvgl/src/core/lv_group.c ****     else if(focused == obj2) lv_group_focus_obj(obj1);
 173:lvgl/src/core/lv_group.c **** 
 174:lvgl/src/core/lv_group.c **** }
 175:lvgl/src/core/lv_group.c **** 
 176:lvgl/src/core/lv_group.c **** void lv_group_remove_obj(lv_obj_t * obj)
 177:lvgl/src/core/lv_group.c **** {
 178:lvgl/src/core/lv_group.c ****     lv_group_t * g = lv_obj_get_group(obj);
 179:lvgl/src/core/lv_group.c ****     if(g == NULL) return;
 180:lvgl/src/core/lv_group.c **** 
 181:lvgl/src/core/lv_group.c ****     LV_LOG_TRACE("begin");
 182:lvgl/src/core/lv_group.c **** 
 183:lvgl/src/core/lv_group.c ****     /*Focus on the next object*/
 184:lvgl/src/core/lv_group.c ****     if(g->obj_focus && *g->obj_focus == obj) {
 185:lvgl/src/core/lv_group.c ****         if(g->frozen) g->frozen = 0;
 186:lvgl/src/core/lv_group.c **** 
 187:lvgl/src/core/lv_group.c ****         /*If this is the only object in the group then focus to nothing.*/
 188:lvgl/src/core/lv_group.c ****         if(_lv_ll_get_head(&g->obj_ll) == g->obj_focus && _lv_ll_get_tail(&g->obj_ll) == g->obj_foc
 189:lvgl/src/core/lv_group.c ****             lv_event_send(*g->obj_focus, LV_EVENT_DEFOCUSED, get_indev(g));
 190:lvgl/src/core/lv_group.c ****         }
 191:lvgl/src/core/lv_group.c ****         /*If there more objects in the group then focus to the next/prev object*/
 192:lvgl/src/core/lv_group.c ****         else {
 193:lvgl/src/core/lv_group.c ****             lv_group_refocus(g);
 194:lvgl/src/core/lv_group.c ****         }
 195:lvgl/src/core/lv_group.c ****     }
 196:lvgl/src/core/lv_group.c **** 
 197:lvgl/src/core/lv_group.c ****     /*If the focuses object is still the same then it was the only object in the group but it will
 198:lvgl/src/core/lv_group.c ****      *be deleted. Set the `obj_focus` to NULL to get back to the initial state of the group with
 199:lvgl/src/core/lv_group.c ****      *zero objects*/
 200:lvgl/src/core/lv_group.c ****     if(g->obj_focus && *g->obj_focus == obj) {
 201:lvgl/src/core/lv_group.c ****         g->obj_focus = NULL;
 202:lvgl/src/core/lv_group.c ****     }
ARM GAS  C:\Users\OSD\AppData\Local\Temp\ccllLVSZ.s 			page 5


 203:lvgl/src/core/lv_group.c **** 
 204:lvgl/src/core/lv_group.c ****     /*Search the object and remove it from its group*/
 205:lvgl/src/core/lv_group.c ****     lv_obj_t ** i;
 206:lvgl/src/core/lv_group.c ****     _LV_LL_READ(&g->obj_ll, i) {
 207:lvgl/src/core/lv_group.c ****         if(*i == obj) {
 208:lvgl/src/core/lv_group.c ****             _lv_ll_remove(&g->obj_ll, i);
 209:lvgl/src/core/lv_group.c ****             lv_mem_free(i);
 210:lvgl/src/core/lv_group.c ****             if(obj->spec_attr) obj->spec_attr->group_p = NULL;
 211:lvgl/src/core/lv_group.c ****             break;
 212:lvgl/src/core/lv_group.c ****         }
 213:lvgl/src/core/lv_group.c ****     }
 214:lvgl/src/core/lv_group.c ****     LV_LOG_TRACE("finished");
 215:lvgl/src/core/lv_group.c **** }
 216:lvgl/src/core/lv_group.c **** 
 217:lvgl/src/core/lv_group.c **** void lv_group_remove_all_objs(lv_group_t * group)
 218:lvgl/src/core/lv_group.c **** {
 219:lvgl/src/core/lv_group.c ****     /*Defocus the currently focused object*/
 220:lvgl/src/core/lv_group.c ****     if(group->obj_focus != NULL) {
 221:lvgl/src/core/lv_group.c ****         lv_event_send(*group->obj_focus, LV_EVENT_DEFOCUSED, get_indev(group));
 222:lvgl/src/core/lv_group.c ****         lv_obj_invalidate(*group->obj_focus);
 223:lvgl/src/core/lv_group.c ****         group->obj_focus = NULL;
 224:lvgl/src/core/lv_group.c ****     }
 225:lvgl/src/core/lv_group.c **** 
 226:lvgl/src/core/lv_group.c ****     /*Remove the objects from the group*/
 227:lvgl/src/core/lv_group.c ****     lv_obj_t ** obj;
 228:lvgl/src/core/lv_group.c ****     _LV_LL_READ(&group->obj_ll, obj) {
 229:lvgl/src/core/lv_group.c ****         if((*obj)->spec_attr)(*obj)->spec_attr->group_p = NULL;
 230:lvgl/src/core/lv_group.c ****     }
 231:lvgl/src/core/lv_group.c **** 
 232:lvgl/src/core/lv_group.c ****     _lv_ll_clear(&(group->obj_ll));
 233:lvgl/src/core/lv_group.c **** }
 234:lvgl/src/core/lv_group.c **** 
 235:lvgl/src/core/lv_group.c **** void lv_group_focus_obj(lv_obj_t * obj)
 236:lvgl/src/core/lv_group.c **** {
 237:lvgl/src/core/lv_group.c ****     if(obj == NULL) return;
 238:lvgl/src/core/lv_group.c ****     lv_group_t * g = lv_obj_get_group(obj);
 239:lvgl/src/core/lv_group.c ****     if(g == NULL) return;
 240:lvgl/src/core/lv_group.c **** 
 241:lvgl/src/core/lv_group.c ****     if(g->frozen != 0) return;
 242:lvgl/src/core/lv_group.c **** 
 243:lvgl/src/core/lv_group.c ****     /*On defocus edit mode must be leaved*/
 244:lvgl/src/core/lv_group.c ****     lv_group_set_editing(g, false);
 245:lvgl/src/core/lv_group.c **** 
 246:lvgl/src/core/lv_group.c ****     lv_obj_t ** i;
 247:lvgl/src/core/lv_group.c ****     _LV_LL_READ(&g->obj_ll, i) {
 248:lvgl/src/core/lv_group.c ****         if(*i == obj) {
 249:lvgl/src/core/lv_group.c ****             if(g->obj_focus != NULL && obj != *g->obj_focus) {  /*Do not defocus if the same object
 250:lvgl/src/core/lv_group.c ****                 lv_res_t res = lv_event_send(*g->obj_focus, LV_EVENT_DEFOCUSED, get_indev(g));
 251:lvgl/src/core/lv_group.c ****                 if(res != LV_RES_OK) return;
 252:lvgl/src/core/lv_group.c ****                 lv_obj_invalidate(*g->obj_focus);
 253:lvgl/src/core/lv_group.c ****             }
 254:lvgl/src/core/lv_group.c **** 
 255:lvgl/src/core/lv_group.c ****             g->obj_focus = i;
 256:lvgl/src/core/lv_group.c **** 
 257:lvgl/src/core/lv_group.c ****             if(g->obj_focus != NULL) {
 258:lvgl/src/core/lv_group.c ****                 if(g->focus_cb) g->focus_cb(g);
 259:lvgl/src/core/lv_group.c ****                 lv_res_t res = lv_event_send(*g->obj_focus, LV_EVENT_FOCUSED, get_indev(g));
ARM GAS  C:\Users\OSD\AppData\Local\Temp\ccllLVSZ.s 			page 6


 260:lvgl/src/core/lv_group.c ****                 if(res != LV_RES_OK) return;
 261:lvgl/src/core/lv_group.c ****                 lv_obj_invalidate(*g->obj_focus);
 262:lvgl/src/core/lv_group.c ****             }
 263:lvgl/src/core/lv_group.c ****             break;
 264:lvgl/src/core/lv_group.c ****         }
 265:lvgl/src/core/lv_group.c ****     }
 266:lvgl/src/core/lv_group.c **** }
 267:lvgl/src/core/lv_group.c **** 
 268:lvgl/src/core/lv_group.c **** void lv_group_focus_next(lv_group_t * group)
 269:lvgl/src/core/lv_group.c **** {
 270:lvgl/src/core/lv_group.c ****     bool focus_changed = focus_next_core(group, _lv_ll_get_head, _lv_ll_get_next);
 271:lvgl/src/core/lv_group.c ****     if(group->edge_cb) {
 272:lvgl/src/core/lv_group.c ****         if(!focus_changed)
 273:lvgl/src/core/lv_group.c ****             group->edge_cb(group, true);
 274:lvgl/src/core/lv_group.c ****     }
 275:lvgl/src/core/lv_group.c **** }
 276:lvgl/src/core/lv_group.c **** 
 277:lvgl/src/core/lv_group.c **** void lv_group_focus_prev(lv_group_t * group)
 278:lvgl/src/core/lv_group.c **** {
 279:lvgl/src/core/lv_group.c ****     bool focus_changed = focus_next_core(group, _lv_ll_get_tail, _lv_ll_get_prev);
 280:lvgl/src/core/lv_group.c ****     if(group->edge_cb) {
 281:lvgl/src/core/lv_group.c ****         if(!focus_changed)
 282:lvgl/src/core/lv_group.c ****             group->edge_cb(group, false);
 283:lvgl/src/core/lv_group.c ****     }
 284:lvgl/src/core/lv_group.c **** }
 285:lvgl/src/core/lv_group.c **** 
 286:lvgl/src/core/lv_group.c **** void lv_group_focus_freeze(lv_group_t * group, bool en)
 287:lvgl/src/core/lv_group.c **** {
 288:lvgl/src/core/lv_group.c ****     if(en == false) group->frozen = 0;
 289:lvgl/src/core/lv_group.c ****     else group->frozen = 1;
 290:lvgl/src/core/lv_group.c **** }
 291:lvgl/src/core/lv_group.c **** 
 292:lvgl/src/core/lv_group.c **** lv_res_t lv_group_send_data(lv_group_t * group, uint32_t c)
 293:lvgl/src/core/lv_group.c **** {
 294:lvgl/src/core/lv_group.c ****     lv_obj_t * act = lv_group_get_focused(group);
 295:lvgl/src/core/lv_group.c ****     if(act == NULL) return LV_RES_OK;
 296:lvgl/src/core/lv_group.c **** 
 297:lvgl/src/core/lv_group.c ****     if(lv_obj_has_state(act, LV_STATE_DISABLED)) return LV_RES_OK;
 298:lvgl/src/core/lv_group.c **** 
 299:lvgl/src/core/lv_group.c ****     return lv_event_send(act, LV_EVENT_KEY, &c);
 300:lvgl/src/core/lv_group.c **** }
 301:lvgl/src/core/lv_group.c **** 
 302:lvgl/src/core/lv_group.c **** void lv_group_set_focus_cb(lv_group_t * group, lv_group_focus_cb_t focus_cb)
 303:lvgl/src/core/lv_group.c **** {
 304:lvgl/src/core/lv_group.c ****     group->focus_cb = focus_cb;
 305:lvgl/src/core/lv_group.c **** }
 306:lvgl/src/core/lv_group.c **** 
 307:lvgl/src/core/lv_group.c **** void lv_group_set_edge_cb(lv_group_t * group, lv_group_edge_cb_t edge_cb)
 308:lvgl/src/core/lv_group.c **** {
 309:lvgl/src/core/lv_group.c ****     group->edge_cb = edge_cb;
 310:lvgl/src/core/lv_group.c **** }
 311:lvgl/src/core/lv_group.c **** 
 312:lvgl/src/core/lv_group.c **** void lv_group_set_editing(lv_group_t * group, bool edit)
 313:lvgl/src/core/lv_group.c **** {
 314:lvgl/src/core/lv_group.c ****     if(group == NULL) return;
 315:lvgl/src/core/lv_group.c ****     uint8_t en_val = edit ? 1 : 0;
 316:lvgl/src/core/lv_group.c **** 
ARM GAS  C:\Users\OSD\AppData\Local\Temp\ccllLVSZ.s 			page 7


 317:lvgl/src/core/lv_group.c ****     if(en_val == group->editing) return; /*Do not set the same mode again*/
 318:lvgl/src/core/lv_group.c **** 
 319:lvgl/src/core/lv_group.c ****     group->editing     = en_val;
 320:lvgl/src/core/lv_group.c ****     lv_obj_t * focused = lv_group_get_focused(group);
 321:lvgl/src/core/lv_group.c **** 
 322:lvgl/src/core/lv_group.c ****     if(focused) {
 323:lvgl/src/core/lv_group.c ****         lv_res_t res = lv_event_send(*group->obj_focus, LV_EVENT_FOCUSED, get_indev(group));
 324:lvgl/src/core/lv_group.c ****         if(res != LV_RES_OK) return;
 325:lvgl/src/core/lv_group.c **** 
 326:lvgl/src/core/lv_group.c ****         lv_obj_invalidate(focused);
 327:lvgl/src/core/lv_group.c ****     }
 328:lvgl/src/core/lv_group.c **** }
 329:lvgl/src/core/lv_group.c **** 
 330:lvgl/src/core/lv_group.c **** void lv_group_set_refocus_policy(lv_group_t * group, lv_group_refocus_policy_t policy)
 331:lvgl/src/core/lv_group.c **** {
 332:lvgl/src/core/lv_group.c ****     group->refocus_policy = policy & 0x01;
 333:lvgl/src/core/lv_group.c **** }
 334:lvgl/src/core/lv_group.c **** 
 335:lvgl/src/core/lv_group.c **** void lv_group_set_wrap(lv_group_t * group, bool en)
 336:lvgl/src/core/lv_group.c **** {
 337:lvgl/src/core/lv_group.c ****     group->wrap = en ? 1 : 0;
 338:lvgl/src/core/lv_group.c **** }
 339:lvgl/src/core/lv_group.c **** 
 340:lvgl/src/core/lv_group.c **** lv_obj_t * lv_group_get_focused(const lv_group_t * group)
 341:lvgl/src/core/lv_group.c **** {
 342:lvgl/src/core/lv_group.c ****     if(!group) return NULL;
 343:lvgl/src/core/lv_group.c ****     if(group->obj_focus == NULL) return NULL;
 344:lvgl/src/core/lv_group.c **** 
 345:lvgl/src/core/lv_group.c ****     return *group->obj_focus;
 346:lvgl/src/core/lv_group.c **** }
 347:lvgl/src/core/lv_group.c **** 
 348:lvgl/src/core/lv_group.c **** lv_group_focus_cb_t lv_group_get_focus_cb(const lv_group_t * group)
 349:lvgl/src/core/lv_group.c **** {
 350:lvgl/src/core/lv_group.c ****     if(!group) return NULL;
 351:lvgl/src/core/lv_group.c ****     return group->focus_cb;
 352:lvgl/src/core/lv_group.c **** }
 353:lvgl/src/core/lv_group.c **** 
 354:lvgl/src/core/lv_group.c **** lv_group_edge_cb_t lv_group_get_edge_cb(const lv_group_t * group)
 355:lvgl/src/core/lv_group.c **** {
 356:lvgl/src/core/lv_group.c ****     if(!group) return NULL;
 357:lvgl/src/core/lv_group.c ****     return group->edge_cb;
 358:lvgl/src/core/lv_group.c **** }
 359:lvgl/src/core/lv_group.c **** 
 360:lvgl/src/core/lv_group.c **** bool lv_group_get_editing(const lv_group_t * group)
 361:lvgl/src/core/lv_group.c **** {
 362:lvgl/src/core/lv_group.c ****     if(!group) return false;
 363:lvgl/src/core/lv_group.c ****     return group->editing ? true : false;
 364:lvgl/src/core/lv_group.c **** }
 365:lvgl/src/core/lv_group.c **** 
 366:lvgl/src/core/lv_group.c **** bool lv_group_get_wrap(lv_group_t * group)
 367:lvgl/src/core/lv_group.c **** {
 368:lvgl/src/core/lv_group.c ****     if(!group) return false;
 369:lvgl/src/core/lv_group.c ****     return group->wrap ? true : false;
 370:lvgl/src/core/lv_group.c **** }
 371:lvgl/src/core/lv_group.c **** 
 372:lvgl/src/core/lv_group.c **** uint32_t lv_group_get_obj_count(lv_group_t * group)
 373:lvgl/src/core/lv_group.c **** {
ARM GAS  C:\Users\OSD\AppData\Local\Temp\ccllLVSZ.s 			page 8


 374:lvgl/src/core/lv_group.c ****     return _lv_ll_get_len(&group->obj_ll);
 375:lvgl/src/core/lv_group.c **** }
 376:lvgl/src/core/lv_group.c **** /**********************
 377:lvgl/src/core/lv_group.c ****  *   STATIC FUNCTIONS
 378:lvgl/src/core/lv_group.c ****  **********************/
 379:lvgl/src/core/lv_group.c **** 
 380:lvgl/src/core/lv_group.c **** static void lv_group_refocus(lv_group_t * g)
 381:lvgl/src/core/lv_group.c **** {
 382:lvgl/src/core/lv_group.c ****     /*Refocus must temporarily allow wrapping to work correctly*/
 383:lvgl/src/core/lv_group.c ****     uint8_t temp_wrap = g->wrap;
 384:lvgl/src/core/lv_group.c ****     g->wrap           = 1;
 385:lvgl/src/core/lv_group.c **** 
 386:lvgl/src/core/lv_group.c ****     if(g->refocus_policy == LV_GROUP_REFOCUS_POLICY_NEXT)
 387:lvgl/src/core/lv_group.c ****         lv_group_focus_next(g);
 388:lvgl/src/core/lv_group.c ****     else if(g->refocus_policy == LV_GROUP_REFOCUS_POLICY_PREV)
 389:lvgl/src/core/lv_group.c ****         lv_group_focus_prev(g);
 390:lvgl/src/core/lv_group.c ****     /*Restore wrap property*/
 391:lvgl/src/core/lv_group.c ****     g->wrap = temp_wrap;
 392:lvgl/src/core/lv_group.c **** }
 393:lvgl/src/core/lv_group.c **** 
 394:lvgl/src/core/lv_group.c **** static bool focus_next_core(lv_group_t * group, void * (*begin)(const lv_ll_t *),
 395:lvgl/src/core/lv_group.c ****                             void * (*move)(const lv_ll_t *, const void *))
 396:lvgl/src/core/lv_group.c **** {
 397:lvgl/src/core/lv_group.c ****     bool focus_changed = false;
 398:lvgl/src/core/lv_group.c ****     if(group->frozen) return focus_changed;
 399:lvgl/src/core/lv_group.c **** 
 400:lvgl/src/core/lv_group.c ****     lv_obj_t ** obj_next     = group->obj_focus;
 401:lvgl/src/core/lv_group.c ****     lv_obj_t ** obj_sentinel = NULL;
 402:lvgl/src/core/lv_group.c ****     bool can_move            = true;
 403:lvgl/src/core/lv_group.c ****     bool can_begin           = true;
 404:lvgl/src/core/lv_group.c **** 
 405:lvgl/src/core/lv_group.c ****     for(;;) {
 406:lvgl/src/core/lv_group.c ****         if(obj_next == NULL) {
 407:lvgl/src/core/lv_group.c ****             if(group->wrap || obj_sentinel == NULL) {
 408:lvgl/src/core/lv_group.c ****                 if(!can_begin) return focus_changed;
 409:lvgl/src/core/lv_group.c ****                 obj_next  = begin(&group->obj_ll);
 410:lvgl/src/core/lv_group.c ****                 can_move  = false;
 411:lvgl/src/core/lv_group.c ****                 can_begin = false;
 412:lvgl/src/core/lv_group.c ****             }
 413:lvgl/src/core/lv_group.c ****             else {
 414:lvgl/src/core/lv_group.c ****                 /*Currently focused object is the last/first in the group, keep it that way*/
 415:lvgl/src/core/lv_group.c ****                 return focus_changed;
 416:lvgl/src/core/lv_group.c ****             }
 417:lvgl/src/core/lv_group.c ****         }
 418:lvgl/src/core/lv_group.c **** 
 419:lvgl/src/core/lv_group.c ****         if(obj_sentinel == NULL) {
 420:lvgl/src/core/lv_group.c ****             obj_sentinel = obj_next;
 421:lvgl/src/core/lv_group.c ****             if(obj_sentinel == NULL) return focus_changed; /*Group is empty*/
 422:lvgl/src/core/lv_group.c ****         }
 423:lvgl/src/core/lv_group.c **** 
 424:lvgl/src/core/lv_group.c ****         if(can_move) {
 425:lvgl/src/core/lv_group.c ****             obj_next = move(&group->obj_ll, obj_next);
 426:lvgl/src/core/lv_group.c **** 
 427:lvgl/src/core/lv_group.c ****             /*Give up if we walked the entire list and haven't found another visible object*/
 428:lvgl/src/core/lv_group.c ****             if(obj_next == obj_sentinel) return focus_changed;
 429:lvgl/src/core/lv_group.c ****         }
 430:lvgl/src/core/lv_group.c **** 
ARM GAS  C:\Users\OSD\AppData\Local\Temp\ccllLVSZ.s 			page 9


 431:lvgl/src/core/lv_group.c ****         can_move = true;
 432:lvgl/src/core/lv_group.c **** 
 433:lvgl/src/core/lv_group.c ****         if(obj_next == NULL) continue;
 434:lvgl/src/core/lv_group.c ****         if(lv_obj_get_state(*obj_next) & LV_STATE_DISABLED) continue;
 435:lvgl/src/core/lv_group.c **** 
 436:lvgl/src/core/lv_group.c ****         /*Hidden objects don't receive focus.
 437:lvgl/src/core/lv_group.c ****          *If any parent is hidden, the object is also hidden)*/
 438:lvgl/src/core/lv_group.c ****         lv_obj_t * parent = *obj_next;
 439:lvgl/src/core/lv_group.c ****         while(parent) {
 440:lvgl/src/core/lv_group.c ****             if(lv_obj_has_flag(parent, LV_OBJ_FLAG_HIDDEN)) break;
 441:lvgl/src/core/lv_group.c ****             parent = lv_obj_get_parent(parent);
 442:lvgl/src/core/lv_group.c ****         }
 443:lvgl/src/core/lv_group.c **** 
 444:lvgl/src/core/lv_group.c ****         if(parent && lv_obj_has_flag(parent, LV_OBJ_FLAG_HIDDEN)) continue;
 445:lvgl/src/core/lv_group.c **** 
 446:lvgl/src/core/lv_group.c ****         /*If we got her a good candidate is found*/
 447:lvgl/src/core/lv_group.c ****         break;
 448:lvgl/src/core/lv_group.c ****     }
 449:lvgl/src/core/lv_group.c **** 
 450:lvgl/src/core/lv_group.c ****     if(obj_next == group->obj_focus) return focus_changed; /*There's only one visible object and it
 451:lvgl/src/core/lv_group.c **** 
 452:lvgl/src/core/lv_group.c ****     if(group->obj_focus) {
 453:lvgl/src/core/lv_group.c ****         lv_res_t res = lv_event_send(*group->obj_focus, LV_EVENT_DEFOCUSED, get_indev(group));
 454:lvgl/src/core/lv_group.c ****         if(res != LV_RES_OK) return focus_changed;
 455:lvgl/src/core/lv_group.c ****         lv_obj_invalidate(*group->obj_focus);
 456:lvgl/src/core/lv_group.c ****     }
 457:lvgl/src/core/lv_group.c **** 
 458:lvgl/src/core/lv_group.c ****     group->obj_focus = obj_next;
 459:lvgl/src/core/lv_group.c **** 
 460:lvgl/src/core/lv_group.c ****     lv_res_t res = lv_event_send(*group->obj_focus, LV_EVENT_FOCUSED, get_indev(group));
 461:lvgl/src/core/lv_group.c ****     if(res != LV_RES_OK) return focus_changed;
 462:lvgl/src/core/lv_group.c **** 
 463:lvgl/src/core/lv_group.c ****     lv_obj_invalidate(*group->obj_focus);
 464:lvgl/src/core/lv_group.c **** 
 465:lvgl/src/core/lv_group.c ****     if(group->focus_cb) group->focus_cb(group);
 466:lvgl/src/core/lv_group.c ****     focus_changed = true;
 467:lvgl/src/core/lv_group.c ****     return focus_changed;
 468:lvgl/src/core/lv_group.c **** }
 469:lvgl/src/core/lv_group.c **** 
 470:lvgl/src/core/lv_group.c **** /**
 471:lvgl/src/core/lv_group.c ****  * Find an indev preferably with KEYPAD or ENCOEDR type that uses the given group.
 472:lvgl/src/core/lv_group.c ****  * In other words, find an indev, that is related to the given group.
 473:lvgl/src/core/lv_group.c ****  * In the worst case simply return the latest indev
 474:lvgl/src/core/lv_group.c ****  * @param g     a group the find in the indevs
 475:lvgl/src/core/lv_group.c ****  * @return      the suggested indev
 476:lvgl/src/core/lv_group.c ****  */
 477:lvgl/src/core/lv_group.c **** static lv_indev_t * get_indev(const lv_group_t * g)
 478:lvgl/src/core/lv_group.c **** {
  28              		.loc 1 478 1 view -0
  29              		.cfi_startproc
  30              		@ args = 0, pretend = 0, frame = 0
  31              		@ frame_needed = 0, uses_anonymous_args = 0
  32              		.loc 1 478 1 is_stmt 0 view .LVU1
  33 0000 F8B5     		push	{r3, r4, r5, r6, r7, lr}
  34              		.cfi_def_cfa_offset 24
  35              		.cfi_offset 3, -24
  36              		.cfi_offset 4, -20
ARM GAS  C:\Users\OSD\AppData\Local\Temp\ccllLVSZ.s 			page 10


  37              		.cfi_offset 5, -16
  38              		.cfi_offset 6, -12
  39              		.cfi_offset 7, -8
  40              		.cfi_offset 14, -4
  41 0002 0546     		mov	r5, r0
 479:lvgl/src/core/lv_group.c ****     lv_indev_t * indev_encoder = NULL;
  42              		.loc 1 479 5 is_stmt 1 view .LVU2
  43              	.LVL1:
 480:lvgl/src/core/lv_group.c ****     lv_indev_t * indev_group = NULL;
  44              		.loc 1 480 5 view .LVU3
 481:lvgl/src/core/lv_group.c ****     lv_indev_t * indev = lv_indev_get_next(NULL);
  45              		.loc 1 481 5 view .LVU4
  46              		.loc 1 481 26 is_stmt 0 view .LVU5
  47 0004 0020     		movs	r0, #0
  48              	.LVL2:
  49              		.loc 1 481 26 view .LVU6
  50 0006 FFF7FEFF 		bl	lv_indev_get_next
  51              	.LVL3:
  52 000a 0446     		mov	r4, r0
  53              	.LVL4:
 482:lvgl/src/core/lv_group.c ****     while(indev) {
  54              		.loc 1 482 5 is_stmt 1 view .LVU7
 480:lvgl/src/core/lv_group.c ****     lv_indev_t * indev_group = NULL;
  55              		.loc 1 480 18 is_stmt 0 view .LVU8
  56 000c 0026     		movs	r6, #0
 479:lvgl/src/core/lv_group.c ****     lv_indev_t * indev_group = NULL;
  57              		.loc 1 479 18 view .LVU9
  58 000e 3746     		mov	r7, r6
  59              		.loc 1 482 10 view .LVU10
  60 0010 05E0     		b	.L2
  61              	.LVL5:
  62              	.L7:
  63              	.LBB2:
 483:lvgl/src/core/lv_group.c ****         lv_indev_type_t indev_type = lv_indev_get_type(indev);
 484:lvgl/src/core/lv_group.c ****         if(indev->group == g) {
 485:lvgl/src/core/lv_group.c ****             /*Prefer KEYPAD*/
 486:lvgl/src/core/lv_group.c ****             if(indev_type == LV_INDEV_TYPE_KEYPAD) return indev;
 487:lvgl/src/core/lv_group.c ****             if(indev_type == LV_INDEV_TYPE_ENCODER) indev_encoder = indev;
 488:lvgl/src/core/lv_group.c ****             indev_group = indev;
  64              		.loc 1 488 25 view .LVU11
  65 0012 2646     		mov	r6, r4
  66              	.LVL6:
 487:lvgl/src/core/lv_group.c ****             indev_group = indev;
  67              		.loc 1 487 67 view .LVU12
  68 0014 2746     		mov	r7, r4
  69              	.LVL7:
  70              	.L3:
 489:lvgl/src/core/lv_group.c ****         }
 490:lvgl/src/core/lv_group.c ****         indev = lv_indev_get_next(indev);
  71              		.loc 1 490 9 is_stmt 1 view .LVU13
  72              		.loc 1 490 17 is_stmt 0 view .LVU14
  73 0016 2046     		mov	r0, r4
  74              	.LVL8:
  75              		.loc 1 490 17 view .LVU15
  76 0018 FFF7FEFF 		bl	lv_indev_get_next
  77              	.LVL9:
  78 001c 0446     		mov	r4, r0
ARM GAS  C:\Users\OSD\AppData\Local\Temp\ccllLVSZ.s 			page 11


  79              	.LVL10:
  80              	.L2:
  81              		.loc 1 490 17 view .LVU16
  82              	.LBE2:
 482:lvgl/src/core/lv_group.c ****         lv_indev_type_t indev_type = lv_indev_get_type(indev);
  83              		.loc 1 482 10 is_stmt 1 view .LVU17
  84 001e 5CB1     		cbz	r4, .L10
  85              	.LBB3:
 483:lvgl/src/core/lv_group.c ****         if(indev->group == g) {
  86              		.loc 1 483 9 view .LVU18
 483:lvgl/src/core/lv_group.c ****         if(indev->group == g) {
  87              		.loc 1 483 38 is_stmt 0 view .LVU19
  88 0020 2046     		mov	r0, r4
 483:lvgl/src/core/lv_group.c ****         if(indev->group == g) {
  89              		.loc 1 483 38 view .LVU20
  90 0022 FFF7FEFF 		bl	lv_indev_get_type
  91              	.LVL11:
 484:lvgl/src/core/lv_group.c ****             /*Prefer KEYPAD*/
  92              		.loc 1 484 9 is_stmt 1 view .LVU21
 484:lvgl/src/core/lv_group.c ****             /*Prefer KEYPAD*/
  93              		.loc 1 484 17 is_stmt 0 view .LVU22
  94 0026 636D     		ldr	r3, [r4, #84]
 484:lvgl/src/core/lv_group.c ****             /*Prefer KEYPAD*/
  95              		.loc 1 484 11 view .LVU23
  96 0028 AB42     		cmp	r3, r5
  97 002a F4D1     		bne	.L3
 486:lvgl/src/core/lv_group.c ****             if(indev_type == LV_INDEV_TYPE_ENCODER) indev_encoder = indev;
  98              		.loc 1 486 13 is_stmt 1 view .LVU24
 486:lvgl/src/core/lv_group.c ****             if(indev_type == LV_INDEV_TYPE_ENCODER) indev_encoder = indev;
  99              		.loc 1 486 15 is_stmt 0 view .LVU25
 100 002c 0228     		cmp	r0, #2
 101 002e 0ED0     		beq	.L6
 487:lvgl/src/core/lv_group.c ****             indev_group = indev;
 102              		.loc 1 487 13 is_stmt 1 view .LVU26
 487:lvgl/src/core/lv_group.c ****             indev_group = indev;
 103              		.loc 1 487 15 is_stmt 0 view .LVU27
 104 0030 0428     		cmp	r0, #4
 105 0032 EED0     		beq	.L7
 488:lvgl/src/core/lv_group.c ****         }
 106              		.loc 1 488 25 view .LVU28
 107 0034 2646     		mov	r6, r4
 108              	.LVL12:
 488:lvgl/src/core/lv_group.c ****         }
 109              		.loc 1 488 25 view .LVU29
 110 0036 EEE7     		b	.L3
 111              	.LVL13:
 112              	.L10:
 488:lvgl/src/core/lv_group.c ****         }
 113              		.loc 1 488 25 view .LVU30
 114              	.LBE3:
 491:lvgl/src/core/lv_group.c ****     }
 492:lvgl/src/core/lv_group.c **** 
 493:lvgl/src/core/lv_group.c ****     if(indev_encoder) return indev_encoder;
 115              		.loc 1 493 5 is_stmt 1 view .LVU31
 116              		.loc 1 493 7 is_stmt 0 view .LVU32
 117 0038 0FB1     		cbz	r7, .L11
 118              	.LVL14:
ARM GAS  C:\Users\OSD\AppData\Local\Temp\ccllLVSZ.s 			page 12


 119              	.L1:
 494:lvgl/src/core/lv_group.c ****     if(indev_group) return indev_group;
 495:lvgl/src/core/lv_group.c **** 
 496:lvgl/src/core/lv_group.c ****     /*In lack of a better option use the first input device. (It can be NULL if there is no input d
 497:lvgl/src/core/lv_group.c ****     return lv_indev_get_next(NULL);
 498:lvgl/src/core/lv_group.c **** }
 120              		.loc 1 498 1 view .LVU33
 121 003a 3846     		mov	r0, r7
 122 003c F8BD     		pop	{r3, r4, r5, r6, r7, pc}
 123              	.LVL15:
 124              	.L11:
 494:lvgl/src/core/lv_group.c ****     if(indev_group) return indev_group;
 125              		.loc 1 494 5 is_stmt 1 view .LVU34
 494:lvgl/src/core/lv_group.c ****     if(indev_group) return indev_group;
 126              		.loc 1 494 7 is_stmt 0 view .LVU35
 127 003e 0EB1     		cbz	r6, .L12
 494:lvgl/src/core/lv_group.c ****     if(indev_group) return indev_group;
 128              		.loc 1 494 28 view .LVU36
 129 0040 3746     		mov	r7, r6
 130              	.LVL16:
 494:lvgl/src/core/lv_group.c ****     if(indev_group) return indev_group;
 131              		.loc 1 494 28 view .LVU37
 132 0042 FAE7     		b	.L1
 133              	.LVL17:
 134              	.L12:
 497:lvgl/src/core/lv_group.c **** }
 135              		.loc 1 497 5 is_stmt 1 view .LVU38
 497:lvgl/src/core/lv_group.c **** }
 136              		.loc 1 497 12 is_stmt 0 view .LVU39
 137 0044 0020     		movs	r0, #0
 138              	.LVL18:
 497:lvgl/src/core/lv_group.c **** }
 139              		.loc 1 497 12 view .LVU40
 140 0046 FFF7FEFF 		bl	lv_indev_get_next
 141              	.LVL19:
 142 004a 0746     		mov	r7, r0
 143              	.LVL20:
 497:lvgl/src/core/lv_group.c **** }
 144              		.loc 1 497 12 view .LVU41
 145 004c F5E7     		b	.L1
 146              	.LVL21:
 147              	.L6:
 148              	.LBB4:
 486:lvgl/src/core/lv_group.c ****             if(indev_type == LV_INDEV_TYPE_ENCODER) indev_encoder = indev;
 149              		.loc 1 486 59 view .LVU42
 150 004e 2746     		mov	r7, r4
 151              	.LVL22:
 486:lvgl/src/core/lv_group.c ****             if(indev_type == LV_INDEV_TYPE_ENCODER) indev_encoder = indev;
 152              		.loc 1 486 59 view .LVU43
 153 0050 F3E7     		b	.L1
 154              	.LBE4:
 155              		.cfi_endproc
 156              	.LFE188:
 158              		.section	.text.focus_next_core,"ax",%progbits
 159              		.align	1
 160              		.syntax unified
 161              		.thumb
ARM GAS  C:\Users\OSD\AppData\Local\Temp\ccllLVSZ.s 			page 13


 162              		.thumb_func
 164              	focus_next_core:
 165              	.LVL23:
 166              	.LFB187:
 396:lvgl/src/core/lv_group.c ****     bool focus_changed = false;
 167              		.loc 1 396 1 is_stmt 1 view -0
 168              		.cfi_startproc
 169              		@ args = 0, pretend = 0, frame = 0
 170              		@ frame_needed = 0, uses_anonymous_args = 0
 396:lvgl/src/core/lv_group.c ****     bool focus_changed = false;
 171              		.loc 1 396 1 is_stmt 0 view .LVU45
 172 0000 2DE9F047 		push	{r4, r5, r6, r7, r8, r9, r10, lr}
 173              		.cfi_def_cfa_offset 32
 174              		.cfi_offset 4, -32
 175              		.cfi_offset 5, -28
 176              		.cfi_offset 6, -24
 177              		.cfi_offset 7, -20
 178              		.cfi_offset 8, -16
 179              		.cfi_offset 9, -12
 180              		.cfi_offset 10, -8
 181              		.cfi_offset 14, -4
 397:lvgl/src/core/lv_group.c ****     if(group->frozen) return focus_changed;
 182              		.loc 1 397 5 is_stmt 1 view .LVU46
 183              	.LVL24:
 398:lvgl/src/core/lv_group.c **** 
 184              		.loc 1 398 5 view .LVU47
 398:lvgl/src/core/lv_group.c **** 
 185              		.loc 1 398 8 is_stmt 0 view .LVU48
 186 0004 037F     		ldrb	r3, [r0, #28]	@ zero_extendqisi2
 398:lvgl/src/core/lv_group.c **** 
 187              		.loc 1 398 7 view .LVU49
 188 0006 13F0010F 		tst	r3, #1
 189 000a 6FD1     		bne	.L26
 190 000c 0646     		mov	r6, r0
 191 000e 8A46     		mov	r10, r1
 192 0010 9146     		mov	r9, r2
 400:lvgl/src/core/lv_group.c ****     lv_obj_t ** obj_sentinel = NULL;
 193              		.loc 1 400 5 is_stmt 1 view .LVU50
 400:lvgl/src/core/lv_group.c ****     lv_obj_t ** obj_sentinel = NULL;
 194              		.loc 1 400 17 is_stmt 0 view .LVU51
 195 0012 C568     		ldr	r5, [r0, #12]
 196              	.LVL25:
 401:lvgl/src/core/lv_group.c ****     bool can_move            = true;
 197              		.loc 1 401 5 is_stmt 1 view .LVU52
 402:lvgl/src/core/lv_group.c ****     bool can_begin           = true;
 198              		.loc 1 402 5 view .LVU53
 403:lvgl/src/core/lv_group.c **** 
 199              		.loc 1 403 5 view .LVU54
 403:lvgl/src/core/lv_group.c **** 
 200              		.loc 1 403 10 is_stmt 0 view .LVU55
 201 0014 4FF00108 		mov	r8, #1
 401:lvgl/src/core/lv_group.c ****     bool can_move            = true;
 202              		.loc 1 401 17 view .LVU56
 203 0018 0027     		movs	r7, #0
 204              	.LVL26:
 205              	.L15:
 405:lvgl/src/core/lv_group.c ****         if(obj_next == NULL) {
ARM GAS  C:\Users\OSD\AppData\Local\Temp\ccllLVSZ.s 			page 14


 206              		.loc 1 405 5 is_stmt 1 view .LVU57
 207              	.LBB5:
 406:lvgl/src/core/lv_group.c ****             if(group->wrap || obj_sentinel == NULL) {
 208              		.loc 1 406 9 view .LVU58
 406:lvgl/src/core/lv_group.c ****             if(group->wrap || obj_sentinel == NULL) {
 209              		.loc 1 406 11 is_stmt 0 view .LVU59
 210 001a E5B1     		cbz	r5, .L36
 406:lvgl/src/core/lv_group.c ****             if(group->wrap || obj_sentinel == NULL) {
 211              		.loc 1 406 11 view .LVU60
 212 001c 0123     		movs	r3, #1
 213              	.LVL27:
 214              	.L16:
 419:lvgl/src/core/lv_group.c ****             obj_sentinel = obj_next;
 215              		.loc 1 419 9 is_stmt 1 view .LVU61
 419:lvgl/src/core/lv_group.c ****             obj_sentinel = obj_next;
 216              		.loc 1 419 11 is_stmt 0 view .LVU62
 217 001e 57B3     		cbz	r7, .L37
 218              	.L18:
 424:lvgl/src/core/lv_group.c ****             obj_next = move(&group->obj_ll, obj_next);
 219              		.loc 1 424 9 is_stmt 1 view .LVU63
 424:lvgl/src/core/lv_group.c ****             obj_next = move(&group->obj_ll, obj_next);
 220              		.loc 1 424 11 is_stmt 0 view .LVU64
 221 0020 2BB1     		cbz	r3, .L19
 425:lvgl/src/core/lv_group.c **** 
 222              		.loc 1 425 13 is_stmt 1 view .LVU65
 425:lvgl/src/core/lv_group.c **** 
 223              		.loc 1 425 24 is_stmt 0 view .LVU66
 224 0022 2946     		mov	r1, r5
 225 0024 3046     		mov	r0, r6
 226 0026 C847     		blx	r9
 227              	.LVL28:
 425:lvgl/src/core/lv_group.c **** 
 228              		.loc 1 425 24 view .LVU67
 229 0028 0546     		mov	r5, r0
 230              	.LVL29:
 428:lvgl/src/core/lv_group.c ****         }
 231              		.loc 1 428 13 is_stmt 1 view .LVU68
 428:lvgl/src/core/lv_group.c ****         }
 232              		.loc 1 428 15 is_stmt 0 view .LVU69
 233 002a 8742     		cmp	r7, r0
 234 002c 69D0     		beq	.L30
 235              	.LVL30:
 236              	.L19:
 431:lvgl/src/core/lv_group.c **** 
 237              		.loc 1 431 9 is_stmt 1 view .LVU70
 433:lvgl/src/core/lv_group.c ****         if(lv_obj_get_state(*obj_next) & LV_STATE_DISABLED) continue;
 238              		.loc 1 433 9 view .LVU71
 433:lvgl/src/core/lv_group.c ****         if(lv_obj_get_state(*obj_next) & LV_STATE_DISABLED) continue;
 239              		.loc 1 433 11 is_stmt 0 view .LVU72
 240 002e 002D     		cmp	r5, #0
 241 0030 F3D0     		beq	.L15
 434:lvgl/src/core/lv_group.c **** 
 242              		.loc 1 434 9 is_stmt 1 view .LVU73
 434:lvgl/src/core/lv_group.c **** 
 243              		.loc 1 434 12 is_stmt 0 view .LVU74
 244 0032 2868     		ldr	r0, [r5]
 245 0034 FFF7FEFF 		bl	lv_obj_get_state
ARM GAS  C:\Users\OSD\AppData\Local\Temp\ccllLVSZ.s 			page 15


 246              	.LVL31:
 434:lvgl/src/core/lv_group.c **** 
 247              		.loc 1 434 11 view .LVU75
 248 0038 10F0800F 		tst	r0, #128
 249 003c EDD1     		bne	.L15
 438:lvgl/src/core/lv_group.c ****         while(parent) {
 250              		.loc 1 438 9 is_stmt 1 view .LVU76
 438:lvgl/src/core/lv_group.c ****         while(parent) {
 251              		.loc 1 438 20 is_stmt 0 view .LVU77
 252 003e 2C68     		ldr	r4, [r5]
 253              	.LVL32:
 439:lvgl/src/core/lv_group.c ****             if(lv_obj_has_flag(parent, LV_OBJ_FLAG_HIDDEN)) break;
 254              		.loc 1 439 9 is_stmt 1 view .LVU78
 255              	.L21:
 439:lvgl/src/core/lv_group.c ****             if(lv_obj_has_flag(parent, LV_OBJ_FLAG_HIDDEN)) break;
 256              		.loc 1 439 14 view .LVU79
 257 0040 ECB1     		cbz	r4, .L22
 440:lvgl/src/core/lv_group.c ****             parent = lv_obj_get_parent(parent);
 258              		.loc 1 440 13 view .LVU80
 440:lvgl/src/core/lv_group.c ****             parent = lv_obj_get_parent(parent);
 259              		.loc 1 440 16 is_stmt 0 view .LVU81
 260 0042 0121     		movs	r1, #1
 261 0044 2046     		mov	r0, r4
 262 0046 FFF7FEFF 		bl	lv_obj_has_flag
 263              	.LVL33:
 440:lvgl/src/core/lv_group.c ****             parent = lv_obj_get_parent(parent);
 264              		.loc 1 440 15 view .LVU82
 265 004a C0B9     		cbnz	r0, .L22
 441:lvgl/src/core/lv_group.c ****         }
 266              		.loc 1 441 13 is_stmt 1 view .LVU83
 441:lvgl/src/core/lv_group.c ****         }
 267              		.loc 1 441 22 is_stmt 0 view .LVU84
 268 004c 2046     		mov	r0, r4
 269 004e FFF7FEFF 		bl	lv_obj_get_parent
 270              	.LVL34:
 271 0052 0446     		mov	r4, r0
 272              	.LVL35:
 441:lvgl/src/core/lv_group.c ****         }
 273              		.loc 1 441 22 view .LVU85
 274 0054 F4E7     		b	.L21
 275              	.LVL36:
 276              	.L36:
 407:lvgl/src/core/lv_group.c ****                 if(!can_begin) return focus_changed;
 277              		.loc 1 407 13 is_stmt 1 view .LVU86
 407:lvgl/src/core/lv_group.c ****                 if(!can_begin) return focus_changed;
 278              		.loc 1 407 16 is_stmt 0 view .LVU87
 279 0056 337F     		ldrb	r3, [r6, #28]	@ zero_extendqisi2
 407:lvgl/src/core/lv_group.c ****                 if(!can_begin) return focus_changed;
 280              		.loc 1 407 15 view .LVU88
 281 0058 13F0080F 		tst	r3, #8
 282 005c 01D1     		bne	.L17
 407:lvgl/src/core/lv_group.c ****                 if(!can_begin) return focus_changed;
 283              		.loc 1 407 28 discriminator 1 view .LVU89
 284 005e 002F     		cmp	r7, #0
 285 0060 49D1     		bne	.L28
 286              	.L17:
 408:lvgl/src/core/lv_group.c ****                 obj_next  = begin(&group->obj_ll);
ARM GAS  C:\Users\OSD\AppData\Local\Temp\ccllLVSZ.s 			page 16


 287              		.loc 1 408 17 is_stmt 1 view .LVU90
 408:lvgl/src/core/lv_group.c ****                 obj_next  = begin(&group->obj_ll);
 288              		.loc 1 408 19 is_stmt 0 view .LVU91
 289 0062 B8F1000F 		cmp	r8, #0
 290 0066 43D0     		beq	.L14
 409:lvgl/src/core/lv_group.c ****                 can_move  = false;
 291              		.loc 1 409 17 is_stmt 1 view .LVU92
 409:lvgl/src/core/lv_group.c ****                 can_move  = false;
 292              		.loc 1 409 29 is_stmt 0 view .LVU93
 293 0068 3046     		mov	r0, r6
 294 006a D047     		blx	r10
 295              	.LVL37:
 296 006c 0546     		mov	r5, r0
 297              	.LVL38:
 410:lvgl/src/core/lv_group.c ****                 can_begin = false;
 298              		.loc 1 410 17 is_stmt 1 view .LVU94
 411:lvgl/src/core/lv_group.c ****             }
 299              		.loc 1 411 17 view .LVU95
 411:lvgl/src/core/lv_group.c ****             }
 300              		.loc 1 411 27 is_stmt 0 view .LVU96
 301 006e 4FF00008 		mov	r8, #0
 410:lvgl/src/core/lv_group.c ****                 can_begin = false;
 302              		.loc 1 410 27 view .LVU97
 303 0072 4346     		mov	r3, r8
 411:lvgl/src/core/lv_group.c ****             }
 304              		.loc 1 411 27 view .LVU98
 305 0074 D3E7     		b	.L16
 306              	.LVL39:
 307              	.L37:
 420:lvgl/src/core/lv_group.c ****             if(obj_sentinel == NULL) return focus_changed; /*Group is empty*/
 308              		.loc 1 420 13 is_stmt 1 view .LVU99
 421:lvgl/src/core/lv_group.c ****         }
 309              		.loc 1 421 13 view .LVU100
 421:lvgl/src/core/lv_group.c ****         }
 310              		.loc 1 421 15 is_stmt 0 view .LVU101
 311 0076 002D     		cmp	r5, #0
 312 0078 40D0     		beq	.L29
 420:lvgl/src/core/lv_group.c ****             if(obj_sentinel == NULL) return focus_changed; /*Group is empty*/
 313              		.loc 1 420 26 view .LVU102
 314 007a 2F46     		mov	r7, r5
 315 007c D0E7     		b	.L18
 316              	.LVL40:
 317              	.L22:
 444:lvgl/src/core/lv_group.c **** 
 318              		.loc 1 444 9 is_stmt 1 view .LVU103
 444:lvgl/src/core/lv_group.c **** 
 319              		.loc 1 444 11 is_stmt 0 view .LVU104
 320 007e 2CB1     		cbz	r4, .L24
 444:lvgl/src/core/lv_group.c **** 
 321              		.loc 1 444 22 discriminator 1 view .LVU105
 322 0080 0121     		movs	r1, #1
 323 0082 2046     		mov	r0, r4
 324 0084 FFF7FEFF 		bl	lv_obj_has_flag
 325              	.LVL41:
 444:lvgl/src/core/lv_group.c **** 
 326              		.loc 1 444 19 discriminator 1 view .LVU106
 327 0088 0028     		cmp	r0, #0
ARM GAS  C:\Users\OSD\AppData\Local\Temp\ccllLVSZ.s 			page 17


 328 008a C6D1     		bne	.L15
 329              	.L24:
 447:lvgl/src/core/lv_group.c ****     }
 330              		.loc 1 447 9 is_stmt 1 view .LVU107
 331              	.LBE5:
 450:lvgl/src/core/lv_group.c **** 
 332              		.loc 1 450 5 view .LVU108
 450:lvgl/src/core/lv_group.c **** 
 333              		.loc 1 450 25 is_stmt 0 view .LVU109
 334 008c F368     		ldr	r3, [r6, #12]
 450:lvgl/src/core/lv_group.c **** 
 335              		.loc 1 450 7 view .LVU110
 336 008e AB42     		cmp	r3, r5
 337 0090 3AD0     		beq	.L31
 452:lvgl/src/core/lv_group.c ****         lv_res_t res = lv_event_send(*group->obj_focus, LV_EVENT_DEFOCUSED, get_indev(group));
 338              		.loc 1 452 5 is_stmt 1 view .LVU111
 452:lvgl/src/core/lv_group.c ****         lv_res_t res = lv_event_send(*group->obj_focus, LV_EVENT_DEFOCUSED, get_indev(group));
 339              		.loc 1 452 7 is_stmt 0 view .LVU112
 340 0092 8BB1     		cbz	r3, .L25
 341              	.LBB6:
 453:lvgl/src/core/lv_group.c ****         if(res != LV_RES_OK) return focus_changed;
 342              		.loc 1 453 9 is_stmt 1 view .LVU113
 453:lvgl/src/core/lv_group.c ****         if(res != LV_RES_OK) return focus_changed;
 343              		.loc 1 453 24 is_stmt 0 view .LVU114
 344 0094 1C68     		ldr	r4, [r3]
 345              	.LVL42:
 453:lvgl/src/core/lv_group.c ****         if(res != LV_RES_OK) return focus_changed;
 346              		.loc 1 453 77 view .LVU115
 347 0096 3046     		mov	r0, r6
 348 0098 FFF7FEFF 		bl	get_indev
 349              	.LVL43:
 350 009c 0246     		mov	r2, r0
 453:lvgl/src/core/lv_group.c ****         if(res != LV_RES_OK) return focus_changed;
 351              		.loc 1 453 24 view .LVU116
 352 009e 0F21     		movs	r1, #15
 353 00a0 2046     		mov	r0, r4
 354 00a2 FFF7FEFF 		bl	lv_event_send
 355              	.LVL44:
 454:lvgl/src/core/lv_group.c ****         lv_obj_invalidate(*group->obj_focus);
 356              		.loc 1 454 9 is_stmt 1 view .LVU117
 454:lvgl/src/core/lv_group.c ****         lv_obj_invalidate(*group->obj_focus);
 357              		.loc 1 454 11 is_stmt 0 view .LVU118
 358 00a6 0128     		cmp	r0, #1
 359 00a8 02D0     		beq	.L38
 454:lvgl/src/core/lv_group.c ****         lv_obj_invalidate(*group->obj_focus);
 360              		.loc 1 454 37 view .LVU119
 361 00aa 4FF00008 		mov	r8, #0
 362              	.LVL45:
 454:lvgl/src/core/lv_group.c ****         lv_obj_invalidate(*group->obj_focus);
 363              		.loc 1 454 37 view .LVU120
 364 00ae 1FE0     		b	.L14
 365              	.LVL46:
 366              	.L38:
 455:lvgl/src/core/lv_group.c ****     }
 367              		.loc 1 455 9 is_stmt 1 view .LVU121
 455:lvgl/src/core/lv_group.c ****     }
 368              		.loc 1 455 33 is_stmt 0 view .LVU122
ARM GAS  C:\Users\OSD\AppData\Local\Temp\ccllLVSZ.s 			page 18


 369 00b0 F368     		ldr	r3, [r6, #12]
 455:lvgl/src/core/lv_group.c ****     }
 370              		.loc 1 455 9 view .LVU123
 371 00b2 1868     		ldr	r0, [r3]
 372              	.LVL47:
 455:lvgl/src/core/lv_group.c ****     }
 373              		.loc 1 455 9 view .LVU124
 374 00b4 FFF7FEFF 		bl	lv_obj_invalidate
 375              	.LVL48:
 376              	.L25:
 455:lvgl/src/core/lv_group.c ****     }
 377              		.loc 1 455 9 view .LVU125
 378              	.LBE6:
 458:lvgl/src/core/lv_group.c **** 
 379              		.loc 1 458 5 is_stmt 1 view .LVU126
 458:lvgl/src/core/lv_group.c **** 
 380              		.loc 1 458 22 is_stmt 0 view .LVU127
 381 00b8 F560     		str	r5, [r6, #12]
 460:lvgl/src/core/lv_group.c ****     if(res != LV_RES_OK) return focus_changed;
 382              		.loc 1 460 5 is_stmt 1 view .LVU128
 460:lvgl/src/core/lv_group.c ****     if(res != LV_RES_OK) return focus_changed;
 383              		.loc 1 460 20 is_stmt 0 view .LVU129
 384 00ba 2C68     		ldr	r4, [r5]
 460:lvgl/src/core/lv_group.c ****     if(res != LV_RES_OK) return focus_changed;
 385              		.loc 1 460 71 view .LVU130
 386 00bc 3046     		mov	r0, r6
 387 00be FFF7FEFF 		bl	get_indev
 388              	.LVL49:
 389 00c2 0246     		mov	r2, r0
 460:lvgl/src/core/lv_group.c ****     if(res != LV_RES_OK) return focus_changed;
 390              		.loc 1 460 20 view .LVU131
 391 00c4 0E21     		movs	r1, #14
 392 00c6 2046     		mov	r0, r4
 393 00c8 FFF7FEFF 		bl	lv_event_send
 394              	.LVL50:
 461:lvgl/src/core/lv_group.c **** 
 395              		.loc 1 461 5 is_stmt 1 view .LVU132
 461:lvgl/src/core/lv_group.c **** 
 396              		.loc 1 461 7 is_stmt 0 view .LVU133
 397 00cc 0128     		cmp	r0, #1
 398 00ce 02D0     		beq	.L39
 461:lvgl/src/core/lv_group.c **** 
 399              		.loc 1 461 33 view .LVU134
 400 00d0 4FF00008 		mov	r8, #0
 401              	.LVL51:
 461:lvgl/src/core/lv_group.c **** 
 402              		.loc 1 461 33 view .LVU135
 403 00d4 0CE0     		b	.L14
 404              	.LVL52:
 405              	.L39:
 463:lvgl/src/core/lv_group.c **** 
 406              		.loc 1 463 5 is_stmt 1 view .LVU136
 463:lvgl/src/core/lv_group.c **** 
 407              		.loc 1 463 29 is_stmt 0 view .LVU137
 408 00d6 F368     		ldr	r3, [r6, #12]
 463:lvgl/src/core/lv_group.c **** 
 409              		.loc 1 463 5 view .LVU138
ARM GAS  C:\Users\OSD\AppData\Local\Temp\ccllLVSZ.s 			page 19


 410 00d8 1868     		ldr	r0, [r3]
 411              	.LVL53:
 463:lvgl/src/core/lv_group.c **** 
 412              		.loc 1 463 5 view .LVU139
 413 00da FFF7FEFF 		bl	lv_obj_invalidate
 414              	.LVL54:
 465:lvgl/src/core/lv_group.c ****     focus_changed = true;
 415              		.loc 1 465 5 is_stmt 1 view .LVU140
 465:lvgl/src/core/lv_group.c ****     focus_changed = true;
 416              		.loc 1 465 13 is_stmt 0 view .LVU141
 417 00de 3369     		ldr	r3, [r6, #16]
 465:lvgl/src/core/lv_group.c ****     focus_changed = true;
 418              		.loc 1 465 7 view .LVU142
 419 00e0 ABB1     		cbz	r3, .L34
 465:lvgl/src/core/lv_group.c ****     focus_changed = true;
 420              		.loc 1 465 25 is_stmt 1 discriminator 1 view .LVU143
 421 00e2 3046     		mov	r0, r6
 422 00e4 9847     		blx	r3
 423              	.LVL55:
 467:lvgl/src/core/lv_group.c **** }
 424              		.loc 1 467 12 is_stmt 0 discriminator 1 view .LVU144
 425 00e6 4FF00108 		mov	r8, #1
 426              	.LVL56:
 467:lvgl/src/core/lv_group.c **** }
 427              		.loc 1 467 12 discriminator 1 view .LVU145
 428 00ea 01E0     		b	.L14
 429              	.LVL57:
 430              	.L26:
 398:lvgl/src/core/lv_group.c **** 
 431              		.loc 1 398 30 view .LVU146
 432 00ec 4FF00008 		mov	r8, #0
 433              	.LVL58:
 434              	.L14:
 468:lvgl/src/core/lv_group.c **** 
 435              		.loc 1 468 1 view .LVU147
 436 00f0 4046     		mov	r0, r8
 437 00f2 BDE8F087 		pop	{r4, r5, r6, r7, r8, r9, r10, pc}
 438              	.LVL59:
 439              	.L28:
 440              	.LBB7:
 415:lvgl/src/core/lv_group.c ****             }
 441              		.loc 1 415 24 view .LVU148
 442 00f6 4FF00008 		mov	r8, #0
 443              	.LVL60:
 415:lvgl/src/core/lv_group.c ****             }
 444              		.loc 1 415 24 view .LVU149
 445 00fa F9E7     		b	.L14
 446              	.LVL61:
 447              	.L29:
 421:lvgl/src/core/lv_group.c ****         }
 448              		.loc 1 421 45 view .LVU150
 449 00fc 4FF00008 		mov	r8, #0
 450              	.LVL62:
 421:lvgl/src/core/lv_group.c ****         }
 451              		.loc 1 421 45 view .LVU151
 452 0100 F6E7     		b	.L14
 453              	.LVL63:
ARM GAS  C:\Users\OSD\AppData\Local\Temp\ccllLVSZ.s 			page 20


 454              	.L30:
 428:lvgl/src/core/lv_group.c ****         }
 455              		.loc 1 428 49 view .LVU152
 456 0102 4FF00008 		mov	r8, #0
 457              	.LVL64:
 428:lvgl/src/core/lv_group.c ****         }
 458              		.loc 1 428 49 view .LVU153
 459 0106 F3E7     		b	.L14
 460              	.LVL65:
 461              	.L31:
 428:lvgl/src/core/lv_group.c ****         }
 462              		.loc 1 428 49 view .LVU154
 463              	.LBE7:
 450:lvgl/src/core/lv_group.c **** 
 464              		.loc 1 450 45 view .LVU155
 465 0108 4FF00008 		mov	r8, #0
 466              	.LVL66:
 450:lvgl/src/core/lv_group.c **** 
 467              		.loc 1 450 45 view .LVU156
 468 010c F0E7     		b	.L14
 469              	.LVL67:
 470              	.L34:
 467:lvgl/src/core/lv_group.c **** }
 471              		.loc 1 467 12 view .LVU157
 472 010e 4FF00108 		mov	r8, #1
 473              	.LVL68:
 467:lvgl/src/core/lv_group.c **** }
 474              		.loc 1 467 12 view .LVU158
 475 0112 EDE7     		b	.L14
 476              		.cfi_endproc
 477              	.LFE187:
 479              		.section	.text._lv_group_init,"ax",%progbits
 480              		.align	1
 481              		.global	_lv_group_init
 482              		.syntax unified
 483              		.thumb
 484              		.thumb_func
 486              	_lv_group_init:
 487              	.LFB161:
  46:lvgl/src/core/lv_group.c ****     _lv_ll_init(&LV_GC_ROOT(_lv_group_ll), sizeof(lv_group_t));
 488              		.loc 1 46 1 is_stmt 1 view -0
 489              		.cfi_startproc
 490              		@ args = 0, pretend = 0, frame = 0
 491              		@ frame_needed = 0, uses_anonymous_args = 0
 492 0000 08B5     		push	{r3, lr}
 493              		.cfi_def_cfa_offset 8
 494              		.cfi_offset 3, -8
 495              		.cfi_offset 14, -4
  47:lvgl/src/core/lv_group.c **** }
 496              		.loc 1 47 5 view .LVU160
 497 0002 2021     		movs	r1, #32
 498 0004 0148     		ldr	r0, .L42
 499 0006 FFF7FEFF 		bl	_lv_ll_init
 500              	.LVL69:
  48:lvgl/src/core/lv_group.c **** 
 501              		.loc 1 48 1 is_stmt 0 view .LVU161
 502 000a 08BD     		pop	{r3, pc}
ARM GAS  C:\Users\OSD\AppData\Local\Temp\ccllLVSZ.s 			page 21


 503              	.L43:
 504              		.align	2
 505              	.L42:
 506 000c 00000000 		.word	_lv_group_ll
 507              		.cfi_endproc
 508              	.LFE161:
 510              		.section	.text.lv_group_create,"ax",%progbits
 511              		.align	1
 512              		.global	lv_group_create
 513              		.syntax unified
 514              		.thumb
 515              		.thumb_func
 517              	lv_group_create:
 518              	.LFB162:
  51:lvgl/src/core/lv_group.c ****     lv_group_t * group = _lv_ll_ins_head(&LV_GC_ROOT(_lv_group_ll));
 519              		.loc 1 51 1 is_stmt 1 view -0
 520              		.cfi_startproc
 521              		@ args = 0, pretend = 0, frame = 0
 522              		@ frame_needed = 0, uses_anonymous_args = 0
 523 0000 10B5     		push	{r4, lr}
 524              		.cfi_def_cfa_offset 8
 525              		.cfi_offset 4, -8
 526              		.cfi_offset 14, -4
  52:lvgl/src/core/lv_group.c ****     LV_ASSERT_MALLOC(group);
 527              		.loc 1 52 5 view .LVU163
  52:lvgl/src/core/lv_group.c ****     LV_ASSERT_MALLOC(group);
 528              		.loc 1 52 26 is_stmt 0 view .LVU164
 529 0002 1048     		ldr	r0, .L48
 530 0004 FFF7FEFF 		bl	_lv_ll_ins_head
 531              	.LVL70:
  53:lvgl/src/core/lv_group.c ****     if(group == NULL) return NULL;
 532              		.loc 1 53 5 is_stmt 1 view .LVU165
  53:lvgl/src/core/lv_group.c ****     if(group == NULL) return NULL;
 533              		.loc 1 53 5 view .LVU166
 534 0008 D0B1     		cbz	r0, .L46
 535 000a 0446     		mov	r4, r0
  53:lvgl/src/core/lv_group.c ****     if(group == NULL) return NULL;
 536              		.loc 1 53 5 view .LVU167
  53:lvgl/src/core/lv_group.c ****     if(group == NULL) return NULL;
 537              		.loc 1 53 28 view .LVU168
  54:lvgl/src/core/lv_group.c ****     _lv_ll_init(&group->obj_ll, sizeof(lv_obj_t *));
 538              		.loc 1 54 5 view .LVU169
  55:lvgl/src/core/lv_group.c **** 
 539              		.loc 1 55 5 view .LVU170
 540 000c 0421     		movs	r1, #4
 541 000e FFF7FEFF 		bl	_lv_ll_init
 542              	.LVL71:
  57:lvgl/src/core/lv_group.c ****     group->frozen         = 0;
 543              		.loc 1 57 5 view .LVU171
  57:lvgl/src/core/lv_group.c ****     group->frozen         = 0;
 544              		.loc 1 57 27 is_stmt 0 view .LVU172
 545 0012 0023     		movs	r3, #0
 546 0014 E360     		str	r3, [r4, #12]
  58:lvgl/src/core/lv_group.c ****     group->focus_cb       = NULL;
 547              		.loc 1 58 5 is_stmt 1 view .LVU173
  58:lvgl/src/core/lv_group.c ****     group->focus_cb       = NULL;
 548              		.loc 1 58 27 is_stmt 0 view .LVU174
ARM GAS  C:\Users\OSD\AppData\Local\Temp\ccllLVSZ.s 			page 22


 549 0016 227F     		ldrb	r2, [r4, #28]	@ zero_extendqisi2
 550 0018 63F30002 		bfi	r2, r3, #0, #1
 551 001c 2277     		strb	r2, [r4, #28]
  59:lvgl/src/core/lv_group.c ****     group->edge_cb        = NULL;
 552              		.loc 1 59 5 is_stmt 1 view .LVU175
  59:lvgl/src/core/lv_group.c ****     group->edge_cb        = NULL;
 553              		.loc 1 59 27 is_stmt 0 view .LVU176
 554 001e 2361     		str	r3, [r4, #16]
  60:lvgl/src/core/lv_group.c ****     group->editing        = 0;
 555              		.loc 1 60 5 is_stmt 1 view .LVU177
  60:lvgl/src/core/lv_group.c ****     group->editing        = 0;
 556              		.loc 1 60 27 is_stmt 0 view .LVU178
 557 0020 6361     		str	r3, [r4, #20]
  61:lvgl/src/core/lv_group.c ****     group->refocus_policy = LV_GROUP_REFOCUS_POLICY_PREV;
 558              		.loc 1 61 5 is_stmt 1 view .LVU179
  61:lvgl/src/core/lv_group.c ****     group->refocus_policy = LV_GROUP_REFOCUS_POLICY_PREV;
 559              		.loc 1 61 27 is_stmt 0 view .LVU180
 560 0022 D2B2     		uxtb	r2, r2
 561 0024 63F34102 		bfi	r2, r3, #1, #1
 562 0028 2277     		strb	r2, [r4, #28]
  62:lvgl/src/core/lv_group.c ****     group->wrap           = 1;
 563              		.loc 1 62 5 is_stmt 1 view .LVU181
  62:lvgl/src/core/lv_group.c ****     group->wrap           = 1;
 564              		.loc 1 62 27 is_stmt 0 view .LVU182
 565 002a D2B2     		uxtb	r2, r2
 566 002c 42F00402 		orr	r2, r2, #4
 567 0030 2277     		strb	r2, [r4, #28]
  63:lvgl/src/core/lv_group.c **** 
 568              		.loc 1 63 5 is_stmt 1 view .LVU183
  63:lvgl/src/core/lv_group.c **** 
 569              		.loc 1 63 27 is_stmt 0 view .LVU184
 570 0032 D2B2     		uxtb	r2, r2
 571 0034 42F00802 		orr	r2, r2, #8
 572 0038 2277     		strb	r2, [r4, #28]
  66:lvgl/src/core/lv_group.c **** #endif
 573              		.loc 1 66 5 is_stmt 1 view .LVU185
  66:lvgl/src/core/lv_group.c **** #endif
 574              		.loc 1 66 22 is_stmt 0 view .LVU186
 575 003a A361     		str	r3, [r4, #24]
  69:lvgl/src/core/lv_group.c **** }
 576              		.loc 1 69 5 is_stmt 1 view .LVU187
  70:lvgl/src/core/lv_group.c **** 
 577              		.loc 1 70 1 is_stmt 0 view .LVU188
 578 003c 2046     		mov	r0, r4
 579 003e 10BD     		pop	{r4, pc}
 580              	.LVL72:
 581              	.L46:
  53:lvgl/src/core/lv_group.c ****     if(group == NULL) return NULL;
 582              		.loc 1 53 5 is_stmt 1 discriminator 1 view .LVU189
  53:lvgl/src/core/lv_group.c ****     if(group == NULL) return NULL;
 583              		.loc 1 53 5 discriminator 1 view .LVU190
  53:lvgl/src/core/lv_group.c ****     if(group == NULL) return NULL;
 584              		.loc 1 53 5 discriminator 1 view .LVU191
  53:lvgl/src/core/lv_group.c ****     if(group == NULL) return NULL;
 585              		.loc 1 53 5 discriminator 1 view .LVU192
  53:lvgl/src/core/lv_group.c ****     if(group == NULL) return NULL;
 586              		.loc 1 53 5 discriminator 1 view .LVU193
ARM GAS  C:\Users\OSD\AppData\Local\Temp\ccllLVSZ.s 			page 23


  53:lvgl/src/core/lv_group.c ****     if(group == NULL) return NULL;
 587              		.loc 1 53 5 discriminator 1 view .LVU194
 588 0040 FEE7     		b	.L46
 589              	.L49:
 590 0042 00BF     		.align	2
 591              	.L48:
 592 0044 00000000 		.word	_lv_group_ll
 593              		.cfi_endproc
 594              	.LFE162:
 596              		.section	.text.lv_group_del,"ax",%progbits
 597              		.align	1
 598              		.global	lv_group_del
 599              		.syntax unified
 600              		.thumb
 601              		.thumb_func
 603              	lv_group_del:
 604              	.LVL73:
 605              	.LFB163:
  73:lvgl/src/core/lv_group.c ****     /*Defocus the currently focused object*/
 606              		.loc 1 73 1 view -0
 607              		.cfi_startproc
 608              		@ args = 0, pretend = 0, frame = 0
 609              		@ frame_needed = 0, uses_anonymous_args = 0
  73:lvgl/src/core/lv_group.c ****     /*Defocus the currently focused object*/
 610              		.loc 1 73 1 is_stmt 0 view .LVU196
 611 0000 38B5     		push	{r3, r4, r5, lr}
 612              		.cfi_def_cfa_offset 16
 613              		.cfi_offset 3, -16
 614              		.cfi_offset 4, -12
 615              		.cfi_offset 5, -8
 616              		.cfi_offset 14, -4
 617 0002 0546     		mov	r5, r0
  75:lvgl/src/core/lv_group.c ****         lv_event_send(*group->obj_focus, LV_EVENT_DEFOCUSED, get_indev(group));
 618              		.loc 1 75 5 is_stmt 1 view .LVU197
  75:lvgl/src/core/lv_group.c ****         lv_event_send(*group->obj_focus, LV_EVENT_DEFOCUSED, get_indev(group));
 619              		.loc 1 75 13 is_stmt 0 view .LVU198
 620 0004 C368     		ldr	r3, [r0, #12]
  75:lvgl/src/core/lv_group.c ****         lv_event_send(*group->obj_focus, LV_EVENT_DEFOCUSED, get_indev(group));
 621              		.loc 1 75 7 view .LVU199
 622 0006 5BB1     		cbz	r3, .L51
  76:lvgl/src/core/lv_group.c ****         lv_obj_invalidate(*group->obj_focus);
 623              		.loc 1 76 9 is_stmt 1 view .LVU200
 624 0008 1C68     		ldr	r4, [r3]
  76:lvgl/src/core/lv_group.c ****         lv_obj_invalidate(*group->obj_focus);
 625              		.loc 1 76 62 is_stmt 0 view .LVU201
 626 000a FFF7FEFF 		bl	get_indev
 627              	.LVL74:
  76:lvgl/src/core/lv_group.c ****         lv_obj_invalidate(*group->obj_focus);
 628              		.loc 1 76 62 view .LVU202
 629 000e 0246     		mov	r2, r0
  76:lvgl/src/core/lv_group.c ****         lv_obj_invalidate(*group->obj_focus);
 630              		.loc 1 76 9 view .LVU203
 631 0010 0F21     		movs	r1, #15
 632 0012 2046     		mov	r0, r4
 633 0014 FFF7FEFF 		bl	lv_event_send
 634              	.LVL75:
  77:lvgl/src/core/lv_group.c ****     }
ARM GAS  C:\Users\OSD\AppData\Local\Temp\ccllLVSZ.s 			page 24


 635              		.loc 1 77 9 is_stmt 1 view .LVU204
  77:lvgl/src/core/lv_group.c ****     }
 636              		.loc 1 77 33 is_stmt 0 view .LVU205
 637 0018 EB68     		ldr	r3, [r5, #12]
  77:lvgl/src/core/lv_group.c ****     }
 638              		.loc 1 77 9 view .LVU206
 639 001a 1868     		ldr	r0, [r3]
 640 001c FFF7FEFF 		bl	lv_obj_invalidate
 641              	.LVL76:
 642              	.L51:
  81:lvgl/src/core/lv_group.c ****     _LV_LL_READ(&group->obj_ll, obj) {
 643              		.loc 1 81 5 is_stmt 1 view .LVU207
  82:lvgl/src/core/lv_group.c ****         if((*obj)->spec_attr)(*obj)->spec_attr->group_p = NULL;
 644              		.loc 1 82 5 view .LVU208
 645 0020 2846     		mov	r0, r5
 646 0022 FFF7FEFF 		bl	_lv_ll_get_head
 647              	.LVL77:
 648 0026 0146     		mov	r1, r0
 649              	.LVL78:
  82:lvgl/src/core/lv_group.c ****         if((*obj)->spec_attr)(*obj)->spec_attr->group_p = NULL;
 650              		.loc 1 82 5 is_stmt 0 view .LVU209
 651 0028 05E0     		b	.L52
 652              	.L61:
  83:lvgl/src/core/lv_group.c ****     }
 653              		.loc 1 83 30 is_stmt 1 discriminator 1 view .LVU210
  83:lvgl/src/core/lv_group.c ****     }
 654              		.loc 1 83 57 is_stmt 0 discriminator 1 view .LVU211
 655 002a 0022     		movs	r2, #0
 656 002c 9A60     		str	r2, [r3, #8]
 657              	.L53:
  82:lvgl/src/core/lv_group.c ****         if((*obj)->spec_attr)(*obj)->spec_attr->group_p = NULL;
 658              		.loc 1 82 5 is_stmt 1 discriminator 2 view .LVU212
 659 002e 2846     		mov	r0, r5
 660              	.LVL79:
  82:lvgl/src/core/lv_group.c ****         if((*obj)->spec_attr)(*obj)->spec_attr->group_p = NULL;
 661              		.loc 1 82 5 is_stmt 0 discriminator 2 view .LVU213
 662 0030 FFF7FEFF 		bl	_lv_ll_get_next
 663              	.LVL80:
  82:lvgl/src/core/lv_group.c ****         if((*obj)->spec_attr)(*obj)->spec_attr->group_p = NULL;
 664              		.loc 1 82 5 discriminator 2 view .LVU214
 665 0034 0146     		mov	r1, r0
 666              	.LVL81:
 667              	.L52:
  82:lvgl/src/core/lv_group.c ****         if((*obj)->spec_attr)(*obj)->spec_attr->group_p = NULL;
 668              		.loc 1 82 5 is_stmt 1 discriminator 1 view .LVU215
 669 0036 21B1     		cbz	r1, .L60
  83:lvgl/src/core/lv_group.c ****     }
 670              		.loc 1 83 9 view .LVU216
  83:lvgl/src/core/lv_group.c ****     }
 671              		.loc 1 83 13 is_stmt 0 view .LVU217
 672 0038 0B68     		ldr	r3, [r1]
  83:lvgl/src/core/lv_group.c ****     }
 673              		.loc 1 83 18 view .LVU218
 674 003a 9B68     		ldr	r3, [r3, #8]
  83:lvgl/src/core/lv_group.c ****     }
 675              		.loc 1 83 11 view .LVU219
 676 003c 002B     		cmp	r3, #0
ARM GAS  C:\Users\OSD\AppData\Local\Temp\ccllLVSZ.s 			page 25


 677 003e F4D1     		bne	.L61
 678 0040 F5E7     		b	.L53
 679              	.L60:
  87:lvgl/src/core/lv_group.c ****     while(indev) {
 680              		.loc 1 87 5 is_stmt 1 view .LVU220
  87:lvgl/src/core/lv_group.c ****     while(indev) {
 681              		.loc 1 87 26 is_stmt 0 view .LVU221
 682 0042 0020     		movs	r0, #0
 683              	.LVL82:
  87:lvgl/src/core/lv_group.c ****     while(indev) {
 684              		.loc 1 87 26 view .LVU222
 685 0044 FFF7FEFF 		bl	lv_indev_get_next
 686              	.LVL83:
  87:lvgl/src/core/lv_group.c ****     while(indev) {
 687              		.loc 1 87 26 view .LVU223
 688 0048 0446     		mov	r4, r0
 689              	.LVL84:
  88:lvgl/src/core/lv_group.c ****         if(indev->group == group) {
 690              		.loc 1 88 5 is_stmt 1 view .LVU224
  88:lvgl/src/core/lv_group.c ****         if(indev->group == group) {
 691              		.loc 1 88 10 is_stmt 0 view .LVU225
 692 004a 03E0     		b	.L55
 693              	.LVL85:
 694              	.L56:
  92:lvgl/src/core/lv_group.c ****     }
 695              		.loc 1 92 9 is_stmt 1 view .LVU226
  92:lvgl/src/core/lv_group.c ****     }
 696              		.loc 1 92 17 is_stmt 0 view .LVU227
 697 004c 2046     		mov	r0, r4
 698 004e FFF7FEFF 		bl	lv_indev_get_next
 699              	.LVL86:
 700 0052 0446     		mov	r4, r0
 701              	.LVL87:
 702              	.L55:
  88:lvgl/src/core/lv_group.c ****         if(indev->group == group) {
 703              		.loc 1 88 10 is_stmt 1 view .LVU228
 704 0054 3CB1     		cbz	r4, .L62
  89:lvgl/src/core/lv_group.c ****             lv_indev_set_group(indev, NULL);
 705              		.loc 1 89 9 view .LVU229
  89:lvgl/src/core/lv_group.c ****             lv_indev_set_group(indev, NULL);
 706              		.loc 1 89 17 is_stmt 0 view .LVU230
 707 0056 636D     		ldr	r3, [r4, #84]
  89:lvgl/src/core/lv_group.c ****             lv_indev_set_group(indev, NULL);
 708              		.loc 1 89 11 view .LVU231
 709 0058 AB42     		cmp	r3, r5
 710 005a F7D1     		bne	.L56
  90:lvgl/src/core/lv_group.c ****         }
 711              		.loc 1 90 13 is_stmt 1 view .LVU232
 712 005c 0021     		movs	r1, #0
 713 005e 2046     		mov	r0, r4
  90:lvgl/src/core/lv_group.c ****         }
 714              		.loc 1 90 13 is_stmt 0 view .LVU233
 715 0060 FFF7FEFF 		bl	lv_indev_set_group
 716              	.LVL88:
  90:lvgl/src/core/lv_group.c ****         }
 717              		.loc 1 90 13 view .LVU234
 718 0064 F2E7     		b	.L56
ARM GAS  C:\Users\OSD\AppData\Local\Temp\ccllLVSZ.s 			page 26


 719              	.LVL89:
 720              	.L62:
  95:lvgl/src/core/lv_group.c ****     _lv_ll_clear(&(group->obj_ll));
 721              		.loc 1 95 5 is_stmt 1 view .LVU235
  95:lvgl/src/core/lv_group.c ****     _lv_ll_clear(&(group->obj_ll));
 722              		.loc 1 95 22 is_stmt 0 view .LVU236
 723 0066 094B     		ldr	r3, .L64
 724 0068 1B68     		ldr	r3, [r3]
  95:lvgl/src/core/lv_group.c ****     _lv_ll_clear(&(group->obj_ll));
 725              		.loc 1 95 7 view .LVU237
 726 006a AB42     		cmp	r3, r5
 727 006c 0AD0     		beq	.L63
 728              	.L58:
  96:lvgl/src/core/lv_group.c ****     _lv_ll_remove(&LV_GC_ROOT(_lv_group_ll), group);
 729              		.loc 1 96 5 is_stmt 1 view .LVU238
 730 006e 2846     		mov	r0, r5
 731              	.LVL90:
  96:lvgl/src/core/lv_group.c ****     _lv_ll_remove(&LV_GC_ROOT(_lv_group_ll), group);
 732              		.loc 1 96 5 is_stmt 0 view .LVU239
 733 0070 FFF7FEFF 		bl	_lv_ll_clear
 734              	.LVL91:
  97:lvgl/src/core/lv_group.c ****     lv_mem_free(group);
 735              		.loc 1 97 5 is_stmt 1 view .LVU240
 736 0074 2946     		mov	r1, r5
 737 0076 0648     		ldr	r0, .L64+4
 738 0078 FFF7FEFF 		bl	_lv_ll_remove
 739              	.LVL92:
  98:lvgl/src/core/lv_group.c **** }
 740              		.loc 1 98 5 view .LVU241
 741 007c 2846     		mov	r0, r5
 742 007e FFF7FEFF 		bl	lv_mem_free
 743              	.LVL93:
  99:lvgl/src/core/lv_group.c **** 
 744              		.loc 1 99 1 is_stmt 0 view .LVU242
 745 0082 38BD     		pop	{r3, r4, r5, pc}
 746              	.LVL94:
 747              	.L63:
  95:lvgl/src/core/lv_group.c ****     _lv_ll_clear(&(group->obj_ll));
 748              		.loc 1 95 32 is_stmt 1 discriminator 1 view .LVU243
  95:lvgl/src/core/lv_group.c ****     _lv_ll_clear(&(group->obj_ll));
 749              		.loc 1 95 46 is_stmt 0 discriminator 1 view .LVU244
 750 0084 014B     		ldr	r3, .L64
 751 0086 0022     		movs	r2, #0
 752 0088 1A60     		str	r2, [r3]
 753 008a F0E7     		b	.L58
 754              	.L65:
 755              		.align	2
 756              	.L64:
 757 008c 00000000 		.word	.LANCHOR0
 758 0090 00000000 		.word	_lv_group_ll
 759              		.cfi_endproc
 760              	.LFE163:
 762              		.section	.text.lv_group_set_default,"ax",%progbits
 763              		.align	1
 764              		.global	lv_group_set_default
 765              		.syntax unified
 766              		.thumb
ARM GAS  C:\Users\OSD\AppData\Local\Temp\ccllLVSZ.s 			page 27


 767              		.thumb_func
 769              	lv_group_set_default:
 770              	.LVL95:
 771              	.LFB164:
 102:lvgl/src/core/lv_group.c ****     default_group = group;
 772              		.loc 1 102 1 is_stmt 1 view -0
 773              		.cfi_startproc
 774              		@ args = 0, pretend = 0, frame = 0
 775              		@ frame_needed = 0, uses_anonymous_args = 0
 776              		@ link register save eliminated.
 103:lvgl/src/core/lv_group.c **** }
 777              		.loc 1 103 5 view .LVU246
 103:lvgl/src/core/lv_group.c **** }
 778              		.loc 1 103 19 is_stmt 0 view .LVU247
 779 0000 014B     		ldr	r3, .L67
 780 0002 1860     		str	r0, [r3]
 104:lvgl/src/core/lv_group.c **** 
 781              		.loc 1 104 1 view .LVU248
 782 0004 7047     		bx	lr
 783              	.L68:
 784 0006 00BF     		.align	2
 785              	.L67:
 786 0008 00000000 		.word	.LANCHOR0
 787              		.cfi_endproc
 788              	.LFE164:
 790              		.section	.text.lv_group_get_default,"ax",%progbits
 791              		.align	1
 792              		.global	lv_group_get_default
 793              		.syntax unified
 794              		.thumb
 795              		.thumb_func
 797              	lv_group_get_default:
 798              	.LFB165:
 107:lvgl/src/core/lv_group.c ****     return default_group;
 799              		.loc 1 107 1 is_stmt 1 view -0
 800              		.cfi_startproc
 801              		@ args = 0, pretend = 0, frame = 0
 802              		@ frame_needed = 0, uses_anonymous_args = 0
 803              		@ link register save eliminated.
 108:lvgl/src/core/lv_group.c **** }
 804              		.loc 1 108 5 view .LVU250
 109:lvgl/src/core/lv_group.c **** 
 805              		.loc 1 109 1 is_stmt 0 view .LVU251
 806 0000 014B     		ldr	r3, .L70
 807 0002 1868     		ldr	r0, [r3]
 808 0004 7047     		bx	lr
 809              	.L71:
 810 0006 00BF     		.align	2
 811              	.L70:
 812 0008 00000000 		.word	.LANCHOR0
 813              		.cfi_endproc
 814              	.LFE165:
 816              		.section	.text.lv_group_remove_all_objs,"ax",%progbits
 817              		.align	1
 818              		.global	lv_group_remove_all_objs
 819              		.syntax unified
 820              		.thumb
ARM GAS  C:\Users\OSD\AppData\Local\Temp\ccllLVSZ.s 			page 28


 821              		.thumb_func
 823              	lv_group_remove_all_objs:
 824              	.LVL96:
 825              	.LFB169:
 218:lvgl/src/core/lv_group.c ****     /*Defocus the currently focused object*/
 826              		.loc 1 218 1 is_stmt 1 view -0
 827              		.cfi_startproc
 828              		@ args = 0, pretend = 0, frame = 0
 829              		@ frame_needed = 0, uses_anonymous_args = 0
 218:lvgl/src/core/lv_group.c ****     /*Defocus the currently focused object*/
 830              		.loc 1 218 1 is_stmt 0 view .LVU253
 831 0000 38B5     		push	{r3, r4, r5, lr}
 832              		.cfi_def_cfa_offset 16
 833              		.cfi_offset 3, -16
 834              		.cfi_offset 4, -12
 835              		.cfi_offset 5, -8
 836              		.cfi_offset 14, -4
 837 0002 0446     		mov	r4, r0
 220:lvgl/src/core/lv_group.c ****         lv_event_send(*group->obj_focus, LV_EVENT_DEFOCUSED, get_indev(group));
 838              		.loc 1 220 5 is_stmt 1 view .LVU254
 220:lvgl/src/core/lv_group.c ****         lv_event_send(*group->obj_focus, LV_EVENT_DEFOCUSED, get_indev(group));
 839              		.loc 1 220 13 is_stmt 0 view .LVU255
 840 0004 C368     		ldr	r3, [r0, #12]
 220:lvgl/src/core/lv_group.c ****         lv_event_send(*group->obj_focus, LV_EVENT_DEFOCUSED, get_indev(group));
 841              		.loc 1 220 7 view .LVU256
 842 0006 6BB1     		cbz	r3, .L73
 221:lvgl/src/core/lv_group.c ****         lv_obj_invalidate(*group->obj_focus);
 843              		.loc 1 221 9 is_stmt 1 view .LVU257
 844 0008 1D68     		ldr	r5, [r3]
 221:lvgl/src/core/lv_group.c ****         lv_obj_invalidate(*group->obj_focus);
 845              		.loc 1 221 62 is_stmt 0 view .LVU258
 846 000a FFF7FEFF 		bl	get_indev
 847              	.LVL97:
 221:lvgl/src/core/lv_group.c ****         lv_obj_invalidate(*group->obj_focus);
 848              		.loc 1 221 62 view .LVU259
 849 000e 0246     		mov	r2, r0
 221:lvgl/src/core/lv_group.c ****         lv_obj_invalidate(*group->obj_focus);
 850              		.loc 1 221 9 view .LVU260
 851 0010 0F21     		movs	r1, #15
 852 0012 2846     		mov	r0, r5
 853 0014 FFF7FEFF 		bl	lv_event_send
 854              	.LVL98:
 222:lvgl/src/core/lv_group.c ****         group->obj_focus = NULL;
 855              		.loc 1 222 9 is_stmt 1 view .LVU261
 222:lvgl/src/core/lv_group.c ****         group->obj_focus = NULL;
 856              		.loc 1 222 33 is_stmt 0 view .LVU262
 857 0018 E368     		ldr	r3, [r4, #12]
 222:lvgl/src/core/lv_group.c ****         group->obj_focus = NULL;
 858              		.loc 1 222 9 view .LVU263
 859 001a 1868     		ldr	r0, [r3]
 860 001c FFF7FEFF 		bl	lv_obj_invalidate
 861              	.LVL99:
 223:lvgl/src/core/lv_group.c ****     }
 862              		.loc 1 223 9 is_stmt 1 view .LVU264
 223:lvgl/src/core/lv_group.c ****     }
 863              		.loc 1 223 26 is_stmt 0 view .LVU265
 864 0020 0023     		movs	r3, #0
ARM GAS  C:\Users\OSD\AppData\Local\Temp\ccllLVSZ.s 			page 29


 865 0022 E360     		str	r3, [r4, #12]
 866              	.L73:
 227:lvgl/src/core/lv_group.c ****     _LV_LL_READ(&group->obj_ll, obj) {
 867              		.loc 1 227 5 is_stmt 1 view .LVU266
 228:lvgl/src/core/lv_group.c ****         if((*obj)->spec_attr)(*obj)->spec_attr->group_p = NULL;
 868              		.loc 1 228 5 view .LVU267
 869 0024 2046     		mov	r0, r4
 870 0026 FFF7FEFF 		bl	_lv_ll_get_head
 871              	.LVL100:
 872 002a 0146     		mov	r1, r0
 873              	.LVL101:
 228:lvgl/src/core/lv_group.c ****         if((*obj)->spec_attr)(*obj)->spec_attr->group_p = NULL;
 874              		.loc 1 228 5 is_stmt 0 view .LVU268
 875 002c 05E0     		b	.L74
 876              	.L79:
 229:lvgl/src/core/lv_group.c ****     }
 877              		.loc 1 229 30 is_stmt 1 discriminator 1 view .LVU269
 229:lvgl/src/core/lv_group.c ****     }
 878              		.loc 1 229 57 is_stmt 0 discriminator 1 view .LVU270
 879 002e 0022     		movs	r2, #0
 880 0030 9A60     		str	r2, [r3, #8]
 881              	.L75:
 228:lvgl/src/core/lv_group.c ****         if((*obj)->spec_attr)(*obj)->spec_attr->group_p = NULL;
 882              		.loc 1 228 5 is_stmt 1 discriminator 2 view .LVU271
 883 0032 2046     		mov	r0, r4
 884              	.LVL102:
 228:lvgl/src/core/lv_group.c ****         if((*obj)->spec_attr)(*obj)->spec_attr->group_p = NULL;
 885              		.loc 1 228 5 is_stmt 0 discriminator 2 view .LVU272
 886 0034 FFF7FEFF 		bl	_lv_ll_get_next
 887              	.LVL103:
 228:lvgl/src/core/lv_group.c ****         if((*obj)->spec_attr)(*obj)->spec_attr->group_p = NULL;
 888              		.loc 1 228 5 discriminator 2 view .LVU273
 889 0038 0146     		mov	r1, r0
 890              	.LVL104:
 891              	.L74:
 228:lvgl/src/core/lv_group.c ****         if((*obj)->spec_attr)(*obj)->spec_attr->group_p = NULL;
 892              		.loc 1 228 5 is_stmt 1 discriminator 1 view .LVU274
 893 003a 21B1     		cbz	r1, .L78
 229:lvgl/src/core/lv_group.c ****     }
 894              		.loc 1 229 9 view .LVU275
 229:lvgl/src/core/lv_group.c ****     }
 895              		.loc 1 229 13 is_stmt 0 view .LVU276
 896 003c 0B68     		ldr	r3, [r1]
 229:lvgl/src/core/lv_group.c ****     }
 897              		.loc 1 229 18 view .LVU277
 898 003e 9B68     		ldr	r3, [r3, #8]
 229:lvgl/src/core/lv_group.c ****     }
 899              		.loc 1 229 11 view .LVU278
 900 0040 002B     		cmp	r3, #0
 901 0042 F4D1     		bne	.L79
 902 0044 F5E7     		b	.L75
 903              	.L78:
 232:lvgl/src/core/lv_group.c **** }
 904              		.loc 1 232 5 is_stmt 1 view .LVU279
 905 0046 2046     		mov	r0, r4
 906              	.LVL105:
 232:lvgl/src/core/lv_group.c **** }
ARM GAS  C:\Users\OSD\AppData\Local\Temp\ccllLVSZ.s 			page 30


 907              		.loc 1 232 5 is_stmt 0 view .LVU280
 908 0048 FFF7FEFF 		bl	_lv_ll_clear
 909              	.LVL106:
 233:lvgl/src/core/lv_group.c **** 
 910              		.loc 1 233 1 view .LVU281
 911 004c 38BD     		pop	{r3, r4, r5, pc}
 233:lvgl/src/core/lv_group.c **** 
 912              		.loc 1 233 1 view .LVU282
 913              		.cfi_endproc
 914              	.LFE169:
 916              		.section	.text.lv_group_focus_next,"ax",%progbits
 917              		.align	1
 918              		.global	lv_group_focus_next
 919              		.syntax unified
 920              		.thumb
 921              		.thumb_func
 923              	lv_group_focus_next:
 924              	.LVL107:
 925              	.LFB171:
 269:lvgl/src/core/lv_group.c ****     bool focus_changed = focus_next_core(group, _lv_ll_get_head, _lv_ll_get_next);
 926              		.loc 1 269 1 is_stmt 1 view -0
 927              		.cfi_startproc
 928              		@ args = 0, pretend = 0, frame = 0
 929              		@ frame_needed = 0, uses_anonymous_args = 0
 269:lvgl/src/core/lv_group.c ****     bool focus_changed = focus_next_core(group, _lv_ll_get_head, _lv_ll_get_next);
 930              		.loc 1 269 1 is_stmt 0 view .LVU284
 931 0000 10B5     		push	{r4, lr}
 932              		.cfi_def_cfa_offset 8
 933              		.cfi_offset 4, -8
 934              		.cfi_offset 14, -4
 935 0002 0446     		mov	r4, r0
 270:lvgl/src/core/lv_group.c ****     if(group->edge_cb) {
 936              		.loc 1 270 5 is_stmt 1 view .LVU285
 270:lvgl/src/core/lv_group.c ****     if(group->edge_cb) {
 937              		.loc 1 270 26 is_stmt 0 view .LVU286
 938 0004 054A     		ldr	r2, .L83
 939 0006 0649     		ldr	r1, .L83+4
 940 0008 FFF7FEFF 		bl	focus_next_core
 941              	.LVL108:
 271:lvgl/src/core/lv_group.c ****         if(!focus_changed)
 942              		.loc 1 271 5 is_stmt 1 view .LVU287
 271:lvgl/src/core/lv_group.c ****         if(!focus_changed)
 943              		.loc 1 271 13 is_stmt 0 view .LVU288
 944 000c 6369     		ldr	r3, [r4, #20]
 271:lvgl/src/core/lv_group.c ****         if(!focus_changed)
 945              		.loc 1 271 7 view .LVU289
 946 000e 1BB1     		cbz	r3, .L80
 272:lvgl/src/core/lv_group.c ****             group->edge_cb(group, true);
 947              		.loc 1 272 9 is_stmt 1 view .LVU290
 272:lvgl/src/core/lv_group.c ****             group->edge_cb(group, true);
 948              		.loc 1 272 11 is_stmt 0 view .LVU291
 949 0010 10B9     		cbnz	r0, .L80
 273:lvgl/src/core/lv_group.c ****     }
 950              		.loc 1 273 13 is_stmt 1 view .LVU292
 951 0012 0121     		movs	r1, #1
 952 0014 2046     		mov	r0, r4
 953              	.LVL109:
ARM GAS  C:\Users\OSD\AppData\Local\Temp\ccllLVSZ.s 			page 31


 273:lvgl/src/core/lv_group.c ****     }
 954              		.loc 1 273 13 is_stmt 0 view .LVU293
 955 0016 9847     		blx	r3
 956              	.LVL110:
 957              	.L80:
 275:lvgl/src/core/lv_group.c **** 
 958              		.loc 1 275 1 view .LVU294
 959 0018 10BD     		pop	{r4, pc}
 960              	.LVL111:
 961              	.L84:
 275:lvgl/src/core/lv_group.c **** 
 962              		.loc 1 275 1 view .LVU295
 963 001a 00BF     		.align	2
 964              	.L83:
 965 001c 00000000 		.word	_lv_ll_get_next
 966 0020 00000000 		.word	_lv_ll_get_head
 967              		.cfi_endproc
 968              	.LFE171:
 970              		.section	.text.lv_group_focus_prev,"ax",%progbits
 971              		.align	1
 972              		.global	lv_group_focus_prev
 973              		.syntax unified
 974              		.thumb
 975              		.thumb_func
 977              	lv_group_focus_prev:
 978              	.LVL112:
 979              	.LFB172:
 278:lvgl/src/core/lv_group.c ****     bool focus_changed = focus_next_core(group, _lv_ll_get_tail, _lv_ll_get_prev);
 980              		.loc 1 278 1 is_stmt 1 view -0
 981              		.cfi_startproc
 982              		@ args = 0, pretend = 0, frame = 0
 983              		@ frame_needed = 0, uses_anonymous_args = 0
 278:lvgl/src/core/lv_group.c ****     bool focus_changed = focus_next_core(group, _lv_ll_get_tail, _lv_ll_get_prev);
 984              		.loc 1 278 1 is_stmt 0 view .LVU297
 985 0000 10B5     		push	{r4, lr}
 986              		.cfi_def_cfa_offset 8
 987              		.cfi_offset 4, -8
 988              		.cfi_offset 14, -4
 989 0002 0446     		mov	r4, r0
 279:lvgl/src/core/lv_group.c ****     if(group->edge_cb) {
 990              		.loc 1 279 5 is_stmt 1 view .LVU298
 279:lvgl/src/core/lv_group.c ****     if(group->edge_cb) {
 991              		.loc 1 279 26 is_stmt 0 view .LVU299
 992 0004 054A     		ldr	r2, .L88
 993 0006 0649     		ldr	r1, .L88+4
 994 0008 FFF7FEFF 		bl	focus_next_core
 995              	.LVL113:
 280:lvgl/src/core/lv_group.c ****         if(!focus_changed)
 996              		.loc 1 280 5 is_stmt 1 view .LVU300
 280:lvgl/src/core/lv_group.c ****         if(!focus_changed)
 997              		.loc 1 280 13 is_stmt 0 view .LVU301
 998 000c 6369     		ldr	r3, [r4, #20]
 280:lvgl/src/core/lv_group.c ****         if(!focus_changed)
 999              		.loc 1 280 7 view .LVU302
 1000 000e 1BB1     		cbz	r3, .L85
 281:lvgl/src/core/lv_group.c ****             group->edge_cb(group, false);
 1001              		.loc 1 281 9 is_stmt 1 view .LVU303
ARM GAS  C:\Users\OSD\AppData\Local\Temp\ccllLVSZ.s 			page 32


 281:lvgl/src/core/lv_group.c ****             group->edge_cb(group, false);
 1002              		.loc 1 281 11 is_stmt 0 view .LVU304
 1003 0010 10B9     		cbnz	r0, .L85
 282:lvgl/src/core/lv_group.c ****     }
 1004              		.loc 1 282 13 is_stmt 1 view .LVU305
 1005 0012 0021     		movs	r1, #0
 1006 0014 2046     		mov	r0, r4
 1007              	.LVL114:
 282:lvgl/src/core/lv_group.c ****     }
 1008              		.loc 1 282 13 is_stmt 0 view .LVU306
 1009 0016 9847     		blx	r3
 1010              	.LVL115:
 1011              	.L85:
 284:lvgl/src/core/lv_group.c **** 
 1012              		.loc 1 284 1 view .LVU307
 1013 0018 10BD     		pop	{r4, pc}
 1014              	.LVL116:
 1015              	.L89:
 284:lvgl/src/core/lv_group.c **** 
 1016              		.loc 1 284 1 view .LVU308
 1017 001a 00BF     		.align	2
 1018              	.L88:
 1019 001c 00000000 		.word	_lv_ll_get_prev
 1020 0020 00000000 		.word	_lv_ll_get_tail
 1021              		.cfi_endproc
 1022              	.LFE172:
 1024              		.section	.text.lv_group_refocus,"ax",%progbits
 1025              		.align	1
 1026              		.syntax unified
 1027              		.thumb
 1028              		.thumb_func
 1030              	lv_group_refocus:
 1031              	.LVL117:
 1032              	.LFB186:
 381:lvgl/src/core/lv_group.c ****     /*Refocus must temporarily allow wrapping to work correctly*/
 1033              		.loc 1 381 1 is_stmt 1 view -0
 1034              		.cfi_startproc
 1035              		@ args = 0, pretend = 0, frame = 0
 1036              		@ frame_needed = 0, uses_anonymous_args = 0
 381:lvgl/src/core/lv_group.c ****     /*Refocus must temporarily allow wrapping to work correctly*/
 1037              		.loc 1 381 1 is_stmt 0 view .LVU310
 1038 0000 38B5     		push	{r3, r4, r5, lr}
 1039              		.cfi_def_cfa_offset 16
 1040              		.cfi_offset 3, -16
 1041              		.cfi_offset 4, -12
 1042              		.cfi_offset 5, -8
 1043              		.cfi_offset 14, -4
 1044 0002 0446     		mov	r4, r0
 383:lvgl/src/core/lv_group.c ****     g->wrap           = 1;
 1045              		.loc 1 383 5 is_stmt 1 view .LVU311
 383:lvgl/src/core/lv_group.c ****     g->wrap           = 1;
 1046              		.loc 1 383 26 is_stmt 0 view .LVU312
 1047 0004 037F     		ldrb	r3, [r0, #28]	@ zero_extendqisi2
 1048 0006 C3F3C005 		ubfx	r5, r3, #3, #1
 1049              	.LVL118:
 384:lvgl/src/core/lv_group.c **** 
 1050              		.loc 1 384 5 is_stmt 1 view .LVU313
ARM GAS  C:\Users\OSD\AppData\Local\Temp\ccllLVSZ.s 			page 33


 384:lvgl/src/core/lv_group.c **** 
 1051              		.loc 1 384 23 is_stmt 0 view .LVU314
 1052 000a 43F00803 		orr	r3, r3, #8
 1053              	.LVL119:
 384:lvgl/src/core/lv_group.c **** 
 1054              		.loc 1 384 23 view .LVU315
 1055 000e 0377     		strb	r3, [r0, #28]
 1056              	.LVL120:
 386:lvgl/src/core/lv_group.c ****         lv_group_focus_next(g);
 1057              		.loc 1 386 5 is_stmt 1 view .LVU316
 386:lvgl/src/core/lv_group.c ****         lv_group_focus_next(g);
 1058              		.loc 1 386 26 is_stmt 0 view .LVU317
 1059 0010 DBB2     		uxtb	r3, r3
 386:lvgl/src/core/lv_group.c ****         lv_group_focus_next(g);
 1060              		.loc 1 386 7 view .LVU318
 1061 0012 13F0040F 		tst	r3, #4
 1062 0016 06D1     		bne	.L91
 387:lvgl/src/core/lv_group.c ****     else if(g->refocus_policy == LV_GROUP_REFOCUS_POLICY_PREV)
 1063              		.loc 1 387 9 is_stmt 1 view .LVU319
 1064 0018 FFF7FEFF 		bl	lv_group_focus_next
 1065              	.LVL121:
 1066              	.L92:
 391:lvgl/src/core/lv_group.c **** }
 1067              		.loc 1 391 5 view .LVU320
 391:lvgl/src/core/lv_group.c **** }
 1068              		.loc 1 391 13 is_stmt 0 view .LVU321
 1069 001c 237F     		ldrb	r3, [r4, #28]	@ zero_extendqisi2
 1070 001e 65F3C303 		bfi	r3, r5, #3, #1
 1071 0022 2377     		strb	r3, [r4, #28]
 392:lvgl/src/core/lv_group.c **** 
 1072              		.loc 1 392 1 view .LVU322
 1073 0024 38BD     		pop	{r3, r4, r5, pc}
 1074              	.LVL122:
 1075              	.L91:
 388:lvgl/src/core/lv_group.c ****         lv_group_focus_prev(g);
 1076              		.loc 1 388 10 is_stmt 1 view .LVU323
 389:lvgl/src/core/lv_group.c ****     /*Restore wrap property*/
 1077              		.loc 1 389 9 view .LVU324
 1078 0026 FFF7FEFF 		bl	lv_group_focus_prev
 1079              	.LVL123:
 389:lvgl/src/core/lv_group.c ****     /*Restore wrap property*/
 1080              		.loc 1 389 9 is_stmt 0 view .LVU325
 1081 002a F7E7     		b	.L92
 1082              		.cfi_endproc
 1083              	.LFE186:
 1085              		.section	.text.lv_group_remove_obj,"ax",%progbits
 1086              		.align	1
 1087              		.global	lv_group_remove_obj
 1088              		.syntax unified
 1089              		.thumb
 1090              		.thumb_func
 1092              	lv_group_remove_obj:
 1093              	.LVL124:
 1094              	.LFB168:
 177:lvgl/src/core/lv_group.c ****     lv_group_t * g = lv_obj_get_group(obj);
 1095              		.loc 1 177 1 is_stmt 1 view -0
 1096              		.cfi_startproc
ARM GAS  C:\Users\OSD\AppData\Local\Temp\ccllLVSZ.s 			page 34


 1097              		@ args = 0, pretend = 0, frame = 0
 1098              		@ frame_needed = 0, uses_anonymous_args = 0
 177:lvgl/src/core/lv_group.c ****     lv_group_t * g = lv_obj_get_group(obj);
 1099              		.loc 1 177 1 is_stmt 0 view .LVU327
 1100 0000 70B5     		push	{r4, r5, r6, lr}
 1101              		.cfi_def_cfa_offset 16
 1102              		.cfi_offset 4, -16
 1103              		.cfi_offset 5, -12
 1104              		.cfi_offset 6, -8
 1105              		.cfi_offset 14, -4
 1106 0002 0646     		mov	r6, r0
 178:lvgl/src/core/lv_group.c ****     if(g == NULL) return;
 1107              		.loc 1 178 5 is_stmt 1 view .LVU328
 178:lvgl/src/core/lv_group.c ****     if(g == NULL) return;
 1108              		.loc 1 178 22 is_stmt 0 view .LVU329
 1109 0004 FFF7FEFF 		bl	lv_obj_get_group
 1110              	.LVL125:
 179:lvgl/src/core/lv_group.c **** 
 1111              		.loc 1 179 5 is_stmt 1 view .LVU330
 179:lvgl/src/core/lv_group.c **** 
 1112              		.loc 1 179 7 is_stmt 0 view .LVU331
 1113 0008 0028     		cmp	r0, #0
 1114 000a 49D0     		beq	.L94
 1115 000c 0546     		mov	r5, r0
 181:lvgl/src/core/lv_group.c **** 
 1116              		.loc 1 181 5 is_stmt 1 view .LVU332
 181:lvgl/src/core/lv_group.c **** 
 1117              		.loc 1 181 5 view .LVU333
 181:lvgl/src/core/lv_group.c **** 
 1118              		.loc 1 181 5 view .LVU334
 184:lvgl/src/core/lv_group.c ****         if(g->frozen) g->frozen = 0;
 1119              		.loc 1 184 5 view .LVU335
 184:lvgl/src/core/lv_group.c ****         if(g->frozen) g->frozen = 0;
 1120              		.loc 1 184 9 is_stmt 0 view .LVU336
 1121 000e C368     		ldr	r3, [r0, #12]
 184:lvgl/src/core/lv_group.c ****         if(g->frozen) g->frozen = 0;
 1122              		.loc 1 184 7 view .LVU337
 1123 0010 13B1     		cbz	r3, .L96
 184:lvgl/src/core/lv_group.c ****         if(g->frozen) g->frozen = 0;
 1124              		.loc 1 184 24 discriminator 1 view .LVU338
 1125 0012 1B68     		ldr	r3, [r3]
 184:lvgl/src/core/lv_group.c ****         if(g->frozen) g->frozen = 0;
 1126              		.loc 1 184 21 discriminator 1 view .LVU339
 1127 0014 B342     		cmp	r3, r6
 1128 0016 13D0     		beq	.L104
 1129              	.LVL126:
 1130              	.L96:
 200:lvgl/src/core/lv_group.c ****         g->obj_focus = NULL;
 1131              		.loc 1 200 5 is_stmt 1 view .LVU340
 200:lvgl/src/core/lv_group.c ****         g->obj_focus = NULL;
 1132              		.loc 1 200 9 is_stmt 0 view .LVU341
 1133 0018 EB68     		ldr	r3, [r5, #12]
 200:lvgl/src/core/lv_group.c ****         g->obj_focus = NULL;
 1134              		.loc 1 200 7 view .LVU342
 1135 001a 13B1     		cbz	r3, .L99
 200:lvgl/src/core/lv_group.c ****         g->obj_focus = NULL;
 1136              		.loc 1 200 24 discriminator 1 view .LVU343
ARM GAS  C:\Users\OSD\AppData\Local\Temp\ccllLVSZ.s 			page 35


 1137 001c 1B68     		ldr	r3, [r3]
 200:lvgl/src/core/lv_group.c ****         g->obj_focus = NULL;
 1138              		.loc 1 200 21 discriminator 1 view .LVU344
 1139 001e B342     		cmp	r3, r6
 1140 0020 30D0     		beq	.L105
 1141              	.L99:
 205:lvgl/src/core/lv_group.c ****     _LV_LL_READ(&g->obj_ll, i) {
 1142              		.loc 1 205 5 is_stmt 1 view .LVU345
 206:lvgl/src/core/lv_group.c ****         if(*i == obj) {
 1143              		.loc 1 206 5 view .LVU346
 1144 0022 2846     		mov	r0, r5
 1145 0024 FFF7FEFF 		bl	_lv_ll_get_head
 1146              	.LVL127:
 1147 0028 0446     		mov	r4, r0
 1148              	.LVL128:
 1149              	.L100:
 206:lvgl/src/core/lv_group.c ****         if(*i == obj) {
 1150              		.loc 1 206 5 discriminator 1 view .LVU347
 1151 002a 002C     		cmp	r4, #0
 1152 002c 38D0     		beq	.L94
 207:lvgl/src/core/lv_group.c ****             _lv_ll_remove(&g->obj_ll, i);
 1153              		.loc 1 207 9 view .LVU348
 207:lvgl/src/core/lv_group.c ****             _lv_ll_remove(&g->obj_ll, i);
 1154              		.loc 1 207 12 is_stmt 0 view .LVU349
 1155 002e 2368     		ldr	r3, [r4]
 207:lvgl/src/core/lv_group.c ****             _lv_ll_remove(&g->obj_ll, i);
 1156              		.loc 1 207 11 view .LVU350
 1157 0030 B342     		cmp	r3, r6
 1158 0032 2AD0     		beq	.L106
 206:lvgl/src/core/lv_group.c ****         if(*i == obj) {
 1159              		.loc 1 206 5 is_stmt 1 discriminator 2 view .LVU351
 1160 0034 2146     		mov	r1, r4
 1161 0036 2846     		mov	r0, r5
 1162              	.LVL129:
 206:lvgl/src/core/lv_group.c ****         if(*i == obj) {
 1163              		.loc 1 206 5 is_stmt 0 discriminator 2 view .LVU352
 1164 0038 FFF7FEFF 		bl	_lv_ll_get_next
 1165              	.LVL130:
 206:lvgl/src/core/lv_group.c ****         if(*i == obj) {
 1166              		.loc 1 206 5 discriminator 2 view .LVU353
 1167 003c 0446     		mov	r4, r0
 1168              	.LVL131:
 206:lvgl/src/core/lv_group.c ****         if(*i == obj) {
 1169              		.loc 1 206 5 discriminator 2 view .LVU354
 1170 003e F4E7     		b	.L100
 1171              	.LVL132:
 1172              	.L104:
 185:lvgl/src/core/lv_group.c **** 
 1173              		.loc 1 185 9 is_stmt 1 view .LVU355
 185:lvgl/src/core/lv_group.c **** 
 1174              		.loc 1 185 12 is_stmt 0 view .LVU356
 1175 0040 037F     		ldrb	r3, [r0, #28]	@ zero_extendqisi2
 185:lvgl/src/core/lv_group.c **** 
 1176              		.loc 1 185 11 view .LVU357
 1177 0042 13F0010F 		tst	r3, #1
 1178 0046 03D0     		beq	.L97
 185:lvgl/src/core/lv_group.c **** 
ARM GAS  C:\Users\OSD\AppData\Local\Temp\ccllLVSZ.s 			page 36


 1179              		.loc 1 185 23 is_stmt 1 discriminator 1 view .LVU358
 185:lvgl/src/core/lv_group.c **** 
 1180              		.loc 1 185 33 is_stmt 0 discriminator 1 view .LVU359
 1181 0048 037F     		ldrb	r3, [r0, #28]	@ zero_extendqisi2
 1182 004a 6FF30003 		bfc	r3, #0, #1
 1183 004e 0377     		strb	r3, [r0, #28]
 1184              	.L97:
 188:lvgl/src/core/lv_group.c ****             lv_event_send(*g->obj_focus, LV_EVENT_DEFOCUSED, get_indev(g));
 1185              		.loc 1 188 9 is_stmt 1 view .LVU360
 188:lvgl/src/core/lv_group.c ****             lv_event_send(*g->obj_focus, LV_EVENT_DEFOCUSED, get_indev(g));
 1186              		.loc 1 188 12 is_stmt 0 view .LVU361
 1187 0050 2846     		mov	r0, r5
 1188              	.LVL133:
 188:lvgl/src/core/lv_group.c ****             lv_event_send(*g->obj_focus, LV_EVENT_DEFOCUSED, get_indev(g));
 1189              		.loc 1 188 12 view .LVU362
 1190 0052 FFF7FEFF 		bl	_lv_ll_get_head
 1191              	.LVL134:
 188:lvgl/src/core/lv_group.c ****             lv_event_send(*g->obj_focus, LV_EVENT_DEFOCUSED, get_indev(g));
 1192              		.loc 1 188 44 view .LVU363
 1193 0056 EB68     		ldr	r3, [r5, #12]
 188:lvgl/src/core/lv_group.c ****             lv_event_send(*g->obj_focus, LV_EVENT_DEFOCUSED, get_indev(g));
 1194              		.loc 1 188 11 view .LVU364
 1195 0058 8342     		cmp	r3, r0
 1196 005a 03D0     		beq	.L107
 1197              	.L98:
 193:lvgl/src/core/lv_group.c ****         }
 1198              		.loc 1 193 13 is_stmt 1 view .LVU365
 1199 005c 2846     		mov	r0, r5
 1200 005e FFF7FEFF 		bl	lv_group_refocus
 1201              	.LVL135:
 1202 0062 D9E7     		b	.L96
 1203              	.L107:
 188:lvgl/src/core/lv_group.c ****             lv_event_send(*g->obj_focus, LV_EVENT_DEFOCUSED, get_indev(g));
 1204              		.loc 1 188 59 is_stmt 0 discriminator 1 view .LVU366
 1205 0064 2846     		mov	r0, r5
 1206 0066 FFF7FEFF 		bl	_lv_ll_get_tail
 1207              	.LVL136:
 188:lvgl/src/core/lv_group.c ****             lv_event_send(*g->obj_focus, LV_EVENT_DEFOCUSED, get_indev(g));
 1208              		.loc 1 188 91 discriminator 1 view .LVU367
 1209 006a EB68     		ldr	r3, [r5, #12]
 188:lvgl/src/core/lv_group.c ****             lv_event_send(*g->obj_focus, LV_EVENT_DEFOCUSED, get_indev(g));
 1210              		.loc 1 188 56 discriminator 1 view .LVU368
 1211 006c 8342     		cmp	r3, r0
 1212 006e F5D1     		bne	.L98
 189:lvgl/src/core/lv_group.c ****         }
 1213              		.loc 1 189 13 is_stmt 1 view .LVU369
 1214 0070 1C68     		ldr	r4, [r3]
 189:lvgl/src/core/lv_group.c ****         }
 1215              		.loc 1 189 62 is_stmt 0 view .LVU370
 1216 0072 2846     		mov	r0, r5
 1217 0074 FFF7FEFF 		bl	get_indev
 1218              	.LVL137:
 1219 0078 0246     		mov	r2, r0
 189:lvgl/src/core/lv_group.c ****         }
 1220              		.loc 1 189 13 view .LVU371
 1221 007a 0F21     		movs	r1, #15
 1222 007c 2046     		mov	r0, r4
ARM GAS  C:\Users\OSD\AppData\Local\Temp\ccllLVSZ.s 			page 37


 1223 007e FFF7FEFF 		bl	lv_event_send
 1224              	.LVL138:
 1225 0082 C9E7     		b	.L96
 1226              	.L105:
 201:lvgl/src/core/lv_group.c ****     }
 1227              		.loc 1 201 9 is_stmt 1 view .LVU372
 201:lvgl/src/core/lv_group.c ****     }
 1228              		.loc 1 201 22 is_stmt 0 view .LVU373
 1229 0084 0023     		movs	r3, #0
 1230 0086 EB60     		str	r3, [r5, #12]
 1231 0088 CBE7     		b	.L99
 1232              	.LVL139:
 1233              	.L106:
 208:lvgl/src/core/lv_group.c ****             lv_mem_free(i);
 1234              		.loc 1 208 13 is_stmt 1 view .LVU374
 1235 008a 2146     		mov	r1, r4
 1236 008c 2846     		mov	r0, r5
 1237              	.LVL140:
 208:lvgl/src/core/lv_group.c ****             lv_mem_free(i);
 1238              		.loc 1 208 13 is_stmt 0 view .LVU375
 1239 008e FFF7FEFF 		bl	_lv_ll_remove
 1240              	.LVL141:
 209:lvgl/src/core/lv_group.c ****             if(obj->spec_attr) obj->spec_attr->group_p = NULL;
 1241              		.loc 1 209 13 is_stmt 1 view .LVU376
 1242 0092 2046     		mov	r0, r4
 1243 0094 FFF7FEFF 		bl	lv_mem_free
 1244              	.LVL142:
 210:lvgl/src/core/lv_group.c ****             break;
 1245              		.loc 1 210 13 view .LVU377
 210:lvgl/src/core/lv_group.c ****             break;
 1246              		.loc 1 210 19 is_stmt 0 view .LVU378
 1247 0098 B368     		ldr	r3, [r6, #8]
 210:lvgl/src/core/lv_group.c ****             break;
 1248              		.loc 1 210 15 view .LVU379
 1249 009a 0BB1     		cbz	r3, .L94
 210:lvgl/src/core/lv_group.c ****             break;
 1250              		.loc 1 210 32 is_stmt 1 discriminator 1 view .LVU380
 210:lvgl/src/core/lv_group.c ****             break;
 1251              		.loc 1 210 56 is_stmt 0 discriminator 1 view .LVU381
 1252 009c 0022     		movs	r2, #0
 1253 009e 9A60     		str	r2, [r3, #8]
 1254              	.LVL143:
 1255              	.L94:
 215:lvgl/src/core/lv_group.c **** 
 1256              		.loc 1 215 1 view .LVU382
 1257 00a0 70BD     		pop	{r4, r5, r6, pc}
 215:lvgl/src/core/lv_group.c **** 
 1258              		.loc 1 215 1 view .LVU383
 1259              		.cfi_endproc
 1260              	.LFE168:
 1262              		.section	.text.lv_group_add_obj,"ax",%progbits
 1263              		.align	1
 1264              		.global	lv_group_add_obj
 1265              		.syntax unified
 1266              		.thumb
 1267              		.thumb_func
 1269              	lv_group_add_obj:
ARM GAS  C:\Users\OSD\AppData\Local\Temp\ccllLVSZ.s 			page 38


 1270              	.LVL144:
 1271              	.LFB166:
 112:lvgl/src/core/lv_group.c ****     if(group == NULL) return;
 1272              		.loc 1 112 1 is_stmt 1 view -0
 1273              		.cfi_startproc
 1274              		@ args = 0, pretend = 0, frame = 0
 1275              		@ frame_needed = 0, uses_anonymous_args = 0
 113:lvgl/src/core/lv_group.c **** 
 1276              		.loc 1 113 5 view .LVU385
 113:lvgl/src/core/lv_group.c **** 
 1277              		.loc 1 113 7 is_stmt 0 view .LVU386
 1278 0000 0028     		cmp	r0, #0
 1279 0002 39D0     		beq	.L117
 112:lvgl/src/core/lv_group.c ****     if(group == NULL) return;
 1280              		.loc 1 112 1 view .LVU387
 1281 0004 70B5     		push	{r4, r5, r6, lr}
 1282              		.cfi_def_cfa_offset 16
 1283              		.cfi_offset 4, -16
 1284              		.cfi_offset 5, -12
 1285              		.cfi_offset 6, -8
 1286              		.cfi_offset 14, -4
 1287 0006 0C46     		mov	r4, r1
 1288 0008 0546     		mov	r5, r0
 115:lvgl/src/core/lv_group.c **** 
 1289              		.loc 1 115 5 is_stmt 1 view .LVU388
 115:lvgl/src/core/lv_group.c **** 
 1290              		.loc 1 115 5 view .LVU389
 115:lvgl/src/core/lv_group.c **** 
 1291              		.loc 1 115 5 view .LVU390
 118:lvgl/src/core/lv_group.c **** 
 1292              		.loc 1 118 5 view .LVU391
 1293 000a 0846     		mov	r0, r1
 1294              	.LVL145:
 118:lvgl/src/core/lv_group.c **** 
 1295              		.loc 1 118 5 is_stmt 0 view .LVU392
 1296 000c FFF7FEFF 		bl	lv_group_remove_obj
 1297              	.LVL146:
 121:lvgl/src/core/lv_group.c ****     _LV_LL_READ(&group->obj_ll, obj_i) {
 1298              		.loc 1 121 5 is_stmt 1 view .LVU393
 122:lvgl/src/core/lv_group.c ****         if((*obj_i) == obj) {
 1299              		.loc 1 122 5 view .LVU394
 1300 0010 2846     		mov	r0, r5
 1301 0012 FFF7FEFF 		bl	_lv_ll_get_head
 1302              	.LVL147:
 1303 0016 0146     		mov	r1, r0
 1304              	.LVL148:
 1305              	.L110:
 122:lvgl/src/core/lv_group.c ****         if((*obj_i) == obj) {
 1306              		.loc 1 122 5 discriminator 1 view .LVU395
 1307 0018 39B1     		cbz	r1, .L120
 123:lvgl/src/core/lv_group.c ****             LV_LOG_INFO("the object is already added to this group");
 1308              		.loc 1 123 9 view .LVU396
 123:lvgl/src/core/lv_group.c ****             LV_LOG_INFO("the object is already added to this group");
 1309              		.loc 1 123 13 is_stmt 0 view .LVU397
 1310 001a 0B68     		ldr	r3, [r1]
 123:lvgl/src/core/lv_group.c ****             LV_LOG_INFO("the object is already added to this group");
 1311              		.loc 1 123 11 view .LVU398
ARM GAS  C:\Users\OSD\AppData\Local\Temp\ccllLVSZ.s 			page 39


 1312 001c A342     		cmp	r3, r4
 1313 001e 1ED0     		beq	.L108
 122:lvgl/src/core/lv_group.c ****         if((*obj_i) == obj) {
 1314              		.loc 1 122 5 is_stmt 1 discriminator 2 view .LVU399
 1315 0020 2846     		mov	r0, r5
 1316              	.LVL149:
 122:lvgl/src/core/lv_group.c ****         if((*obj_i) == obj) {
 1317              		.loc 1 122 5 is_stmt 0 discriminator 2 view .LVU400
 1318 0022 FFF7FEFF 		bl	_lv_ll_get_next
 1319              	.LVL150:
 122:lvgl/src/core/lv_group.c ****         if((*obj_i) == obj) {
 1320              		.loc 1 122 5 discriminator 2 view .LVU401
 1321 0026 0146     		mov	r1, r0
 1322              	.LVL151:
 122:lvgl/src/core/lv_group.c ****         if((*obj_i) == obj) {
 1323              		.loc 1 122 5 discriminator 2 view .LVU402
 1324 0028 F6E7     		b	.L110
 1325              	.L120:
 130:lvgl/src/core/lv_group.c ****     if(group_cur) {
 1326              		.loc 1 130 5 is_stmt 1 view .LVU403
 130:lvgl/src/core/lv_group.c ****     if(group_cur) {
 1327              		.loc 1 130 30 is_stmt 0 view .LVU404
 1328 002a 2046     		mov	r0, r4
 1329              	.LVL152:
 130:lvgl/src/core/lv_group.c ****     if(group_cur) {
 1330              		.loc 1 130 30 view .LVU405
 1331 002c FFF7FEFF 		bl	lv_obj_get_group
 1332              	.LVL153:
 131:lvgl/src/core/lv_group.c ****         if(obj->spec_attr->group_p && *(obj->spec_attr->group_p->obj_focus) == obj) {
 1333              		.loc 1 131 5 is_stmt 1 view .LVU406
 131:lvgl/src/core/lv_group.c ****         if(obj->spec_attr->group_p && *(obj->spec_attr->group_p->obj_focus) == obj) {
 1334              		.loc 1 131 7 is_stmt 0 view .LVU407
 1335 0030 30B1     		cbz	r0, .L112
 132:lvgl/src/core/lv_group.c ****             lv_group_refocus(group_cur);
 1336              		.loc 1 132 9 is_stmt 1 view .LVU408
 132:lvgl/src/core/lv_group.c ****             lv_group_refocus(group_cur);
 1337              		.loc 1 132 15 is_stmt 0 view .LVU409
 1338 0032 A368     		ldr	r3, [r4, #8]
 132:lvgl/src/core/lv_group.c ****             lv_group_refocus(group_cur);
 1339              		.loc 1 132 26 view .LVU410
 1340 0034 9B68     		ldr	r3, [r3, #8]
 132:lvgl/src/core/lv_group.c ****             lv_group_refocus(group_cur);
 1341              		.loc 1 132 11 view .LVU411
 1342 0036 1BB1     		cbz	r3, .L112
 132:lvgl/src/core/lv_group.c ****             lv_group_refocus(group_cur);
 1343              		.loc 1 132 64 discriminator 1 view .LVU412
 1344 0038 DB68     		ldr	r3, [r3, #12]
 132:lvgl/src/core/lv_group.c ****             lv_group_refocus(group_cur);
 1345              		.loc 1 132 39 discriminator 1 view .LVU413
 1346 003a 1B68     		ldr	r3, [r3]
 132:lvgl/src/core/lv_group.c ****             lv_group_refocus(group_cur);
 1347              		.loc 1 132 36 discriminator 1 view .LVU414
 1348 003c A342     		cmp	r3, r4
 1349 003e 0FD0     		beq	.L121
 1350              	.LVL154:
 1351              	.L112:
 135:lvgl/src/core/lv_group.c ****         }
ARM GAS  C:\Users\OSD\AppData\Local\Temp\ccllLVSZ.s 			page 40


 1352              		.loc 1 135 13 is_stmt 1 view .LVU415
 135:lvgl/src/core/lv_group.c ****         }
 1353              		.loc 1 135 13 view .LVU416
 135:lvgl/src/core/lv_group.c ****         }
 1354              		.loc 1 135 13 view .LVU417
 139:lvgl/src/core/lv_group.c ****     obj->spec_attr->group_p = group;
 1355              		.loc 1 139 5 view .LVU418
 139:lvgl/src/core/lv_group.c ****     obj->spec_attr->group_p = group;
 1356              		.loc 1 139 11 is_stmt 0 view .LVU419
 1357 0040 A368     		ldr	r3, [r4, #8]
 139:lvgl/src/core/lv_group.c ****     obj->spec_attr->group_p = group;
 1358              		.loc 1 139 7 view .LVU420
 1359 0042 83B1     		cbz	r3, .L122
 1360              	.L113:
 140:lvgl/src/core/lv_group.c **** 
 1361              		.loc 1 140 5 is_stmt 1 view .LVU421
 140:lvgl/src/core/lv_group.c **** 
 1362              		.loc 1 140 8 is_stmt 0 view .LVU422
 1363 0044 A368     		ldr	r3, [r4, #8]
 140:lvgl/src/core/lv_group.c **** 
 1364              		.loc 1 140 29 view .LVU423
 1365 0046 9D60     		str	r5, [r3, #8]
 142:lvgl/src/core/lv_group.c ****     LV_ASSERT_MALLOC(next);
 1366              		.loc 1 142 5 is_stmt 1 view .LVU424
 142:lvgl/src/core/lv_group.c ****     LV_ASSERT_MALLOC(next);
 1367              		.loc 1 142 24 is_stmt 0 view .LVU425
 1368 0048 2846     		mov	r0, r5
 1369 004a FFF7FEFF 		bl	_lv_ll_ins_tail
 1370              	.LVL155:
 143:lvgl/src/core/lv_group.c ****     if(next == NULL) return;
 1371              		.loc 1 143 5 is_stmt 1 view .LVU426
 143:lvgl/src/core/lv_group.c ****     if(next == NULL) return;
 1372              		.loc 1 143 5 view .LVU427
 1373 004e 0646     		mov	r6, r0
 1374 0050 68B1     		cbz	r0, .L115
 143:lvgl/src/core/lv_group.c ****     if(next == NULL) return;
 1375              		.loc 1 143 5 view .LVU428
 143:lvgl/src/core/lv_group.c ****     if(next == NULL) return;
 1376              		.loc 1 143 27 view .LVU429
 144:lvgl/src/core/lv_group.c ****     *next = obj;
 1377              		.loc 1 144 5 view .LVU430
 145:lvgl/src/core/lv_group.c **** 
 1378              		.loc 1 145 5 view .LVU431
 145:lvgl/src/core/lv_group.c **** 
 1379              		.loc 1 145 11 is_stmt 0 view .LVU432
 1380 0052 0460     		str	r4, [r0]
 149:lvgl/src/core/lv_group.c ****         lv_group_refocus(group);
 1381              		.loc 1 149 5 is_stmt 1 view .LVU433
 149:lvgl/src/core/lv_group.c ****         lv_group_refocus(group);
 1382              		.loc 1 149 8 is_stmt 0 view .LVU434
 1383 0054 2846     		mov	r0, r5
 1384              	.LVL156:
 149:lvgl/src/core/lv_group.c ****         lv_group_refocus(group);
 1385              		.loc 1 149 8 view .LVU435
 1386 0056 FFF7FEFF 		bl	_lv_ll_get_head
 1387              	.LVL157:
 149:lvgl/src/core/lv_group.c ****         lv_group_refocus(group);
ARM GAS  C:\Users\OSD\AppData\Local\Temp\ccllLVSZ.s 			page 41


 1388              		.loc 1 149 7 view .LVU436
 1389 005a 8642     		cmp	r6, r0
 1390 005c 08D0     		beq	.L123
 1391              	.LVL158:
 1392              	.L108:
 154:lvgl/src/core/lv_group.c **** 
 1393              		.loc 1 154 1 view .LVU437
 1394 005e 70BD     		pop	{r4, r5, r6, pc}
 1395              	.LVL159:
 1396              	.L121:
 133:lvgl/src/core/lv_group.c **** 
 1397              		.loc 1 133 13 is_stmt 1 view .LVU438
 1398 0060 FFF7FEFF 		bl	lv_group_refocus
 1399              	.LVL160:
 133:lvgl/src/core/lv_group.c **** 
 1400              		.loc 1 133 13 is_stmt 0 view .LVU439
 1401 0064 ECE7     		b	.L112
 1402              	.L122:
 139:lvgl/src/core/lv_group.c ****     obj->spec_attr->group_p = group;
 1403              		.loc 1 139 32 is_stmt 1 discriminator 1 view .LVU440
 1404 0066 2046     		mov	r0, r4
 1405 0068 FFF7FEFF 		bl	lv_obj_allocate_spec_attr
 1406              	.LVL161:
 1407 006c EAE7     		b	.L113
 1408              	.LVL162:
 1409              	.L115:
 143:lvgl/src/core/lv_group.c ****     if(next == NULL) return;
 1410              		.loc 1 143 5 discriminator 1 view .LVU441
 143:lvgl/src/core/lv_group.c ****     if(next == NULL) return;
 1411              		.loc 1 143 5 discriminator 1 view .LVU442
 143:lvgl/src/core/lv_group.c ****     if(next == NULL) return;
 1412              		.loc 1 143 5 discriminator 1 view .LVU443
 143:lvgl/src/core/lv_group.c ****     if(next == NULL) return;
 1413              		.loc 1 143 5 discriminator 1 view .LVU444
 143:lvgl/src/core/lv_group.c ****     if(next == NULL) return;
 1414              		.loc 1 143 5 discriminator 1 view .LVU445
 143:lvgl/src/core/lv_group.c ****     if(next == NULL) return;
 1415              		.loc 1 143 5 discriminator 1 view .LVU446
 1416 006e FEE7     		b	.L115
 1417              	.LVL163:
 1418              	.L123:
 150:lvgl/src/core/lv_group.c ****     }
 1419              		.loc 1 150 9 view .LVU447
 1420 0070 2846     		mov	r0, r5
 1421 0072 FFF7FEFF 		bl	lv_group_refocus
 1422              	.LVL164:
 153:lvgl/src/core/lv_group.c **** }
 1423              		.loc 1 153 5 view .LVU448
 153:lvgl/src/core/lv_group.c **** }
 1424              		.loc 1 153 5 view .LVU449
 153:lvgl/src/core/lv_group.c **** }
 1425              		.loc 1 153 5 view .LVU450
 1426 0076 F2E7     		b	.L108
 1427              	.LVL165:
 1428              	.L117:
 1429              		.cfi_def_cfa_offset 0
 1430              		.cfi_restore 4
ARM GAS  C:\Users\OSD\AppData\Local\Temp\ccllLVSZ.s 			page 42


 1431              		.cfi_restore 5
 1432              		.cfi_restore 6
 1433              		.cfi_restore 14
 153:lvgl/src/core/lv_group.c **** }
 1434              		.loc 1 153 5 is_stmt 0 view .LVU451
 1435 0078 7047     		bx	lr
 1436              		.cfi_endproc
 1437              	.LFE166:
 1439              		.section	.text.lv_group_focus_freeze,"ax",%progbits
 1440              		.align	1
 1441              		.global	lv_group_focus_freeze
 1442              		.syntax unified
 1443              		.thumb
 1444              		.thumb_func
 1446              	lv_group_focus_freeze:
 1447              	.LVL166:
 1448              	.LFB173:
 287:lvgl/src/core/lv_group.c ****     if(en == false) group->frozen = 0;
 1449              		.loc 1 287 1 is_stmt 1 view -0
 1450              		.cfi_startproc
 1451              		@ args = 0, pretend = 0, frame = 0
 1452              		@ frame_needed = 0, uses_anonymous_args = 0
 1453              		@ link register save eliminated.
 288:lvgl/src/core/lv_group.c ****     else group->frozen = 1;
 1454              		.loc 1 288 5 view .LVU453
 288:lvgl/src/core/lv_group.c ****     else group->frozen = 1;
 1455              		.loc 1 288 7 is_stmt 0 view .LVU454
 1456 0000 21B9     		cbnz	r1, .L125
 288:lvgl/src/core/lv_group.c ****     else group->frozen = 1;
 1457              		.loc 1 288 21 is_stmt 1 discriminator 1 view .LVU455
 288:lvgl/src/core/lv_group.c ****     else group->frozen = 1;
 1458              		.loc 1 288 35 is_stmt 0 discriminator 1 view .LVU456
 1459 0002 037F     		ldrb	r3, [r0, #28]	@ zero_extendqisi2
 1460 0004 6FF30003 		bfc	r3, #0, #1
 1461 0008 0377     		strb	r3, [r0, #28]
 1462 000a 7047     		bx	lr
 1463              	.L125:
 289:lvgl/src/core/lv_group.c **** }
 1464              		.loc 1 289 10 is_stmt 1 view .LVU457
 289:lvgl/src/core/lv_group.c **** }
 1465              		.loc 1 289 24 is_stmt 0 view .LVU458
 1466 000c 037F     		ldrb	r3, [r0, #28]	@ zero_extendqisi2
 1467 000e 43F00103 		orr	r3, r3, #1
 1468 0012 0377     		strb	r3, [r0, #28]
 290:lvgl/src/core/lv_group.c **** 
 1469              		.loc 1 290 1 view .LVU459
 1470 0014 7047     		bx	lr
 1471              		.cfi_endproc
 1472              	.LFE173:
 1474              		.section	.text.lv_group_set_focus_cb,"ax",%progbits
 1475              		.align	1
 1476              		.global	lv_group_set_focus_cb
 1477              		.syntax unified
 1478              		.thumb
 1479              		.thumb_func
 1481              	lv_group_set_focus_cb:
 1482              	.LVL167:
ARM GAS  C:\Users\OSD\AppData\Local\Temp\ccllLVSZ.s 			page 43


 1483              	.LFB175:
 303:lvgl/src/core/lv_group.c ****     group->focus_cb = focus_cb;
 1484              		.loc 1 303 1 is_stmt 1 view -0
 1485              		.cfi_startproc
 1486              		@ args = 0, pretend = 0, frame = 0
 1487              		@ frame_needed = 0, uses_anonymous_args = 0
 1488              		@ link register save eliminated.
 304:lvgl/src/core/lv_group.c **** }
 1489              		.loc 1 304 5 view .LVU461
 304:lvgl/src/core/lv_group.c **** }
 1490              		.loc 1 304 21 is_stmt 0 view .LVU462
 1491 0000 0161     		str	r1, [r0, #16]
 305:lvgl/src/core/lv_group.c **** 
 1492              		.loc 1 305 1 view .LVU463
 1493 0002 7047     		bx	lr
 1494              		.cfi_endproc
 1495              	.LFE175:
 1497              		.section	.text.lv_group_set_edge_cb,"ax",%progbits
 1498              		.align	1
 1499              		.global	lv_group_set_edge_cb
 1500              		.syntax unified
 1501              		.thumb
 1502              		.thumb_func
 1504              	lv_group_set_edge_cb:
 1505              	.LVL168:
 1506              	.LFB176:
 308:lvgl/src/core/lv_group.c ****     group->edge_cb = edge_cb;
 1507              		.loc 1 308 1 is_stmt 1 view -0
 1508              		.cfi_startproc
 1509              		@ args = 0, pretend = 0, frame = 0
 1510              		@ frame_needed = 0, uses_anonymous_args = 0
 1511              		@ link register save eliminated.
 309:lvgl/src/core/lv_group.c **** }
 1512              		.loc 1 309 5 view .LVU465
 309:lvgl/src/core/lv_group.c **** }
 1513              		.loc 1 309 20 is_stmt 0 view .LVU466
 1514 0000 4161     		str	r1, [r0, #20]
 310:lvgl/src/core/lv_group.c **** 
 1515              		.loc 1 310 1 view .LVU467
 1516 0002 7047     		bx	lr
 1517              		.cfi_endproc
 1518              	.LFE176:
 1520              		.section	.text.lv_group_set_refocus_policy,"ax",%progbits
 1521              		.align	1
 1522              		.global	lv_group_set_refocus_policy
 1523              		.syntax unified
 1524              		.thumb
 1525              		.thumb_func
 1527              	lv_group_set_refocus_policy:
 1528              	.LVL169:
 1529              	.LFB178:
 331:lvgl/src/core/lv_group.c ****     group->refocus_policy = policy & 0x01;
 1530              		.loc 1 331 1 is_stmt 1 view -0
 1531              		.cfi_startproc
 1532              		@ args = 0, pretend = 0, frame = 0
 1533              		@ frame_needed = 0, uses_anonymous_args = 0
 1534              		@ link register save eliminated.
ARM GAS  C:\Users\OSD\AppData\Local\Temp\ccllLVSZ.s 			page 44


 332:lvgl/src/core/lv_group.c **** }
 1535              		.loc 1 332 5 view .LVU469
 332:lvgl/src/core/lv_group.c **** }
 1536              		.loc 1 332 27 is_stmt 0 view .LVU470
 1537 0000 037F     		ldrb	r3, [r0, #28]	@ zero_extendqisi2
 1538 0002 61F38203 		bfi	r3, r1, #2, #1
 1539 0006 0377     		strb	r3, [r0, #28]
 333:lvgl/src/core/lv_group.c **** 
 1540              		.loc 1 333 1 view .LVU471
 1541 0008 7047     		bx	lr
 1542              		.cfi_endproc
 1543              	.LFE178:
 1545              		.section	.text.lv_group_set_wrap,"ax",%progbits
 1546              		.align	1
 1547              		.global	lv_group_set_wrap
 1548              		.syntax unified
 1549              		.thumb
 1550              		.thumb_func
 1552              	lv_group_set_wrap:
 1553              	.LVL170:
 1554              	.LFB179:
 336:lvgl/src/core/lv_group.c ****     group->wrap = en ? 1 : 0;
 1555              		.loc 1 336 1 is_stmt 1 view -0
 1556              		.cfi_startproc
 1557              		@ args = 0, pretend = 0, frame = 0
 1558              		@ frame_needed = 0, uses_anonymous_args = 0
 1559              		@ link register save eliminated.
 337:lvgl/src/core/lv_group.c **** }
 1560              		.loc 1 337 5 view .LVU473
 337:lvgl/src/core/lv_group.c **** }
 1561              		.loc 1 337 17 is_stmt 0 view .LVU474
 1562 0000 037F     		ldrb	r3, [r0, #28]	@ zero_extendqisi2
 1563 0002 61F3C303 		bfi	r3, r1, #3, #1
 1564 0006 0377     		strb	r3, [r0, #28]
 338:lvgl/src/core/lv_group.c **** 
 1565              		.loc 1 338 1 view .LVU475
 1566 0008 7047     		bx	lr
 1567              		.cfi_endproc
 1568              	.LFE179:
 1570              		.section	.text.lv_group_get_focused,"ax",%progbits
 1571              		.align	1
 1572              		.global	lv_group_get_focused
 1573              		.syntax unified
 1574              		.thumb
 1575              		.thumb_func
 1577              	lv_group_get_focused:
 1578              	.LVL171:
 1579              	.LFB180:
 341:lvgl/src/core/lv_group.c ****     if(!group) return NULL;
 1580              		.loc 1 341 1 is_stmt 1 view -0
 1581              		.cfi_startproc
 1582              		@ args = 0, pretend = 0, frame = 0
 1583              		@ frame_needed = 0, uses_anonymous_args = 0
 1584              		@ link register save eliminated.
 342:lvgl/src/core/lv_group.c ****     if(group->obj_focus == NULL) return NULL;
 1585              		.loc 1 342 5 view .LVU477
 342:lvgl/src/core/lv_group.c ****     if(group->obj_focus == NULL) return NULL;
ARM GAS  C:\Users\OSD\AppData\Local\Temp\ccllLVSZ.s 			page 45


 1586              		.loc 1 342 7 is_stmt 0 view .LVU478
 1587 0000 18B1     		cbz	r0, .L131
 343:lvgl/src/core/lv_group.c **** 
 1588              		.loc 1 343 5 is_stmt 1 view .LVU479
 343:lvgl/src/core/lv_group.c **** 
 1589              		.loc 1 343 13 is_stmt 0 view .LVU480
 1590 0002 C068     		ldr	r0, [r0, #12]
 1591              	.LVL172:
 343:lvgl/src/core/lv_group.c **** 
 1592              		.loc 1 343 7 view .LVU481
 1593 0004 08B1     		cbz	r0, .L131
 345:lvgl/src/core/lv_group.c **** }
 1594              		.loc 1 345 5 is_stmt 1 view .LVU482
 345:lvgl/src/core/lv_group.c **** }
 1595              		.loc 1 345 12 is_stmt 0 view .LVU483
 1596 0006 0068     		ldr	r0, [r0]
 1597 0008 7047     		bx	lr
 1598              	.L131:
 346:lvgl/src/core/lv_group.c **** 
 1599              		.loc 1 346 1 view .LVU484
 1600 000a 7047     		bx	lr
 1601              		.cfi_endproc
 1602              	.LFE180:
 1604              		.section	.text.lv_group_send_data,"ax",%progbits
 1605              		.align	1
 1606              		.global	lv_group_send_data
 1607              		.syntax unified
 1608              		.thumb
 1609              		.thumb_func
 1611              	lv_group_send_data:
 1612              	.LVL173:
 1613              	.LFB174:
 293:lvgl/src/core/lv_group.c ****     lv_obj_t * act = lv_group_get_focused(group);
 1614              		.loc 1 293 1 is_stmt 1 view -0
 1615              		.cfi_startproc
 1616              		@ args = 0, pretend = 0, frame = 8
 1617              		@ frame_needed = 0, uses_anonymous_args = 0
 293:lvgl/src/core/lv_group.c ****     lv_obj_t * act = lv_group_get_focused(group);
 1618              		.loc 1 293 1 is_stmt 0 view .LVU486
 1619 0000 10B5     		push	{r4, lr}
 1620              		.cfi_def_cfa_offset 8
 1621              		.cfi_offset 4, -8
 1622              		.cfi_offset 14, -4
 1623 0002 82B0     		sub	sp, sp, #8
 1624              		.cfi_def_cfa_offset 16
 1625 0004 0191     		str	r1, [sp, #4]
 294:lvgl/src/core/lv_group.c ****     if(act == NULL) return LV_RES_OK;
 1626              		.loc 1 294 5 is_stmt 1 view .LVU487
 294:lvgl/src/core/lv_group.c ****     if(act == NULL) return LV_RES_OK;
 1627              		.loc 1 294 22 is_stmt 0 view .LVU488
 1628 0006 FFF7FEFF 		bl	lv_group_get_focused
 1629              	.LVL174:
 295:lvgl/src/core/lv_group.c **** 
 1630              		.loc 1 295 5 is_stmt 1 view .LVU489
 295:lvgl/src/core/lv_group.c **** 
 1631              		.loc 1 295 7 is_stmt 0 view .LVU490
 1632 000a 68B1     		cbz	r0, .L136
ARM GAS  C:\Users\OSD\AppData\Local\Temp\ccllLVSZ.s 			page 46


 1633 000c 0446     		mov	r4, r0
 297:lvgl/src/core/lv_group.c **** 
 1634              		.loc 1 297 5 is_stmt 1 view .LVU491
 297:lvgl/src/core/lv_group.c **** 
 1635              		.loc 1 297 8 is_stmt 0 view .LVU492
 1636 000e 8021     		movs	r1, #128
 1637 0010 FFF7FEFF 		bl	lv_obj_has_state
 1638              	.LVL175:
 297:lvgl/src/core/lv_group.c **** 
 1639              		.loc 1 297 7 view .LVU493
 1640 0014 10B1     		cbz	r0, .L139
 297:lvgl/src/core/lv_group.c **** 
 1641              		.loc 1 297 57 view .LVU494
 1642 0016 0120     		movs	r0, #1
 1643              	.LVL176:
 1644              	.L135:
 300:lvgl/src/core/lv_group.c **** 
 1645              		.loc 1 300 1 view .LVU495
 1646 0018 02B0     		add	sp, sp, #8
 1647              		.cfi_remember_state
 1648              		.cfi_def_cfa_offset 8
 1649              		@ sp needed
 1650 001a 10BD     		pop	{r4, pc}
 1651              	.LVL177:
 1652              	.L139:
 1653              		.cfi_restore_state
 299:lvgl/src/core/lv_group.c **** }
 1654              		.loc 1 299 5 is_stmt 1 view .LVU496
 299:lvgl/src/core/lv_group.c **** }
 1655              		.loc 1 299 12 is_stmt 0 view .LVU497
 1656 001c 01AA     		add	r2, sp, #4
 1657 001e 0D21     		movs	r1, #13
 1658 0020 2046     		mov	r0, r4
 1659 0022 FFF7FEFF 		bl	lv_event_send
 1660              	.LVL178:
 1661 0026 F7E7     		b	.L135
 1662              	.LVL179:
 1663              	.L136:
 295:lvgl/src/core/lv_group.c **** 
 1664              		.loc 1 295 28 view .LVU498
 1665 0028 0120     		movs	r0, #1
 1666              	.LVL180:
 295:lvgl/src/core/lv_group.c **** 
 1667              		.loc 1 295 28 view .LVU499
 1668 002a F5E7     		b	.L135
 1669              		.cfi_endproc
 1670              	.LFE174:
 1672              		.section	.text.lv_group_set_editing,"ax",%progbits
 1673              		.align	1
 1674              		.global	lv_group_set_editing
 1675              		.syntax unified
 1676              		.thumb
 1677              		.thumb_func
 1679              	lv_group_set_editing:
 1680              	.LVL181:
 1681              	.LFB177:
 313:lvgl/src/core/lv_group.c ****     if(group == NULL) return;
ARM GAS  C:\Users\OSD\AppData\Local\Temp\ccllLVSZ.s 			page 47


 1682              		.loc 1 313 1 is_stmt 1 view -0
 1683              		.cfi_startproc
 1684              		@ args = 0, pretend = 0, frame = 0
 1685              		@ frame_needed = 0, uses_anonymous_args = 0
 314:lvgl/src/core/lv_group.c ****     uint8_t en_val = edit ? 1 : 0;
 1686              		.loc 1 314 5 view .LVU501
 314:lvgl/src/core/lv_group.c ****     uint8_t en_val = edit ? 1 : 0;
 1687              		.loc 1 314 7 is_stmt 0 view .LVU502
 1688 0000 F8B1     		cbz	r0, .L143
 313:lvgl/src/core/lv_group.c ****     if(group == NULL) return;
 1689              		.loc 1 313 1 view .LVU503
 1690 0002 70B5     		push	{r4, r5, r6, lr}
 1691              		.cfi_def_cfa_offset 16
 1692              		.cfi_offset 4, -16
 1693              		.cfi_offset 5, -12
 1694              		.cfi_offset 6, -8
 1695              		.cfi_offset 14, -4
 1696 0004 0446     		mov	r4, r0
 315:lvgl/src/core/lv_group.c **** 
 1697              		.loc 1 315 5 is_stmt 1 view .LVU504
 1698              	.LVL182:
 317:lvgl/src/core/lv_group.c **** 
 1699              		.loc 1 317 5 view .LVU505
 317:lvgl/src/core/lv_group.c **** 
 1700              		.loc 1 317 23 is_stmt 0 view .LVU506
 1701 0006 037F     		ldrb	r3, [r0, #28]	@ zero_extendqisi2
 1702 0008 C3F34003 		ubfx	r3, r3, #1, #1
 317:lvgl/src/core/lv_group.c **** 
 1703              		.loc 1 317 7 view .LVU507
 1704 000c 8B42     		cmp	r3, r1
 1705 000e 13D0     		beq	.L140
 319:lvgl/src/core/lv_group.c ****     lv_obj_t * focused = lv_group_get_focused(group);
 1706              		.loc 1 319 5 is_stmt 1 view .LVU508
 319:lvgl/src/core/lv_group.c ****     lv_obj_t * focused = lv_group_get_focused(group);
 1707              		.loc 1 319 24 is_stmt 0 view .LVU509
 1708 0010 037F     		ldrb	r3, [r0, #28]	@ zero_extendqisi2
 1709 0012 61F34103 		bfi	r3, r1, #1, #1
 1710 0016 0377     		strb	r3, [r0, #28]
 320:lvgl/src/core/lv_group.c **** 
 1711              		.loc 1 320 5 is_stmt 1 view .LVU510
 320:lvgl/src/core/lv_group.c **** 
 1712              		.loc 1 320 26 is_stmt 0 view .LVU511
 1713 0018 FFF7FEFF 		bl	lv_group_get_focused
 1714              	.LVL183:
 322:lvgl/src/core/lv_group.c ****         lv_res_t res = lv_event_send(*group->obj_focus, LV_EVENT_FOCUSED, get_indev(group));
 1715              		.loc 1 322 5 is_stmt 1 view .LVU512
 322:lvgl/src/core/lv_group.c ****         lv_res_t res = lv_event_send(*group->obj_focus, LV_EVENT_FOCUSED, get_indev(group));
 1716              		.loc 1 322 7 is_stmt 0 view .LVU513
 1717 001c 0546     		mov	r5, r0
 1718 001e 58B1     		cbz	r0, .L140
 1719              	.LBB8:
 323:lvgl/src/core/lv_group.c ****         if(res != LV_RES_OK) return;
 1720              		.loc 1 323 9 is_stmt 1 view .LVU514
 323:lvgl/src/core/lv_group.c ****         if(res != LV_RES_OK) return;
 1721              		.loc 1 323 44 is_stmt 0 view .LVU515
 1722 0020 E368     		ldr	r3, [r4, #12]
 323:lvgl/src/core/lv_group.c ****         if(res != LV_RES_OK) return;
ARM GAS  C:\Users\OSD\AppData\Local\Temp\ccllLVSZ.s 			page 48


 1723              		.loc 1 323 24 view .LVU516
 1724 0022 1E68     		ldr	r6, [r3]
 323:lvgl/src/core/lv_group.c ****         if(res != LV_RES_OK) return;
 1725              		.loc 1 323 75 view .LVU517
 1726 0024 2046     		mov	r0, r4
 1727              	.LVL184:
 323:lvgl/src/core/lv_group.c ****         if(res != LV_RES_OK) return;
 1728              		.loc 1 323 75 view .LVU518
 1729 0026 FFF7FEFF 		bl	get_indev
 1730              	.LVL185:
 1731 002a 0246     		mov	r2, r0
 323:lvgl/src/core/lv_group.c ****         if(res != LV_RES_OK) return;
 1732              		.loc 1 323 24 view .LVU519
 1733 002c 0E21     		movs	r1, #14
 1734 002e 3046     		mov	r0, r6
 1735 0030 FFF7FEFF 		bl	lv_event_send
 1736              	.LVL186:
 324:lvgl/src/core/lv_group.c **** 
 1737              		.loc 1 324 9 is_stmt 1 view .LVU520
 324:lvgl/src/core/lv_group.c **** 
 1738              		.loc 1 324 11 is_stmt 0 view .LVU521
 1739 0034 0128     		cmp	r0, #1
 1740 0036 00D0     		beq	.L146
 1741              	.LVL187:
 1742              	.L140:
 324:lvgl/src/core/lv_group.c **** 
 1743              		.loc 1 324 11 view .LVU522
 1744              	.LBE8:
 328:lvgl/src/core/lv_group.c **** 
 1745              		.loc 1 328 1 view .LVU523
 1746 0038 70BD     		pop	{r4, r5, r6, pc}
 1747              	.LVL188:
 1748              	.L146:
 1749              	.LBB9:
 326:lvgl/src/core/lv_group.c ****     }
 1750              		.loc 1 326 9 is_stmt 1 view .LVU524
 1751 003a 2846     		mov	r0, r5
 1752              	.LVL189:
 326:lvgl/src/core/lv_group.c ****     }
 1753              		.loc 1 326 9 is_stmt 0 view .LVU525
 1754 003c FFF7FEFF 		bl	lv_obj_invalidate
 1755              	.LVL190:
 1756 0040 FAE7     		b	.L140
 1757              	.LVL191:
 1758              	.L143:
 1759              		.cfi_def_cfa_offset 0
 1760              		.cfi_restore 4
 1761              		.cfi_restore 5
 1762              		.cfi_restore 6
 1763              		.cfi_restore 14
 326:lvgl/src/core/lv_group.c ****     }
 1764              		.loc 1 326 9 view .LVU526
 1765 0042 7047     		bx	lr
 1766              	.LBE9:
 1767              		.cfi_endproc
 1768              	.LFE177:
 1770              		.section	.text.lv_group_focus_obj,"ax",%progbits
ARM GAS  C:\Users\OSD\AppData\Local\Temp\ccllLVSZ.s 			page 49


 1771              		.align	1
 1772              		.global	lv_group_focus_obj
 1773              		.syntax unified
 1774              		.thumb
 1775              		.thumb_func
 1777              	lv_group_focus_obj:
 1778              	.LVL192:
 1779              	.LFB170:
 236:lvgl/src/core/lv_group.c ****     if(obj == NULL) return;
 1780              		.loc 1 236 1 is_stmt 1 view -0
 1781              		.cfi_startproc
 1782              		@ args = 0, pretend = 0, frame = 0
 1783              		@ frame_needed = 0, uses_anonymous_args = 0
 237:lvgl/src/core/lv_group.c ****     lv_group_t * g = lv_obj_get_group(obj);
 1784              		.loc 1 237 5 view .LVU528
 237:lvgl/src/core/lv_group.c ****     lv_group_t * g = lv_obj_get_group(obj);
 1785              		.loc 1 237 7 is_stmt 0 view .LVU529
 1786 0000 0028     		cmp	r0, #0
 1787 0002 45D0     		beq	.L155
 236:lvgl/src/core/lv_group.c ****     if(obj == NULL) return;
 1788              		.loc 1 236 1 view .LVU530
 1789 0004 F8B5     		push	{r3, r4, r5, r6, r7, lr}
 1790              		.cfi_def_cfa_offset 24
 1791              		.cfi_offset 3, -24
 1792              		.cfi_offset 4, -20
 1793              		.cfi_offset 5, -16
 1794              		.cfi_offset 6, -12
 1795              		.cfi_offset 7, -8
 1796              		.cfi_offset 14, -4
 1797 0006 0546     		mov	r5, r0
 238:lvgl/src/core/lv_group.c ****     if(g == NULL) return;
 1798              		.loc 1 238 5 is_stmt 1 view .LVU531
 238:lvgl/src/core/lv_group.c ****     if(g == NULL) return;
 1799              		.loc 1 238 22 is_stmt 0 view .LVU532
 1800 0008 FFF7FEFF 		bl	lv_obj_get_group
 1801              	.LVL193:
 239:lvgl/src/core/lv_group.c **** 
 1802              		.loc 1 239 5 is_stmt 1 view .LVU533
 239:lvgl/src/core/lv_group.c **** 
 1803              		.loc 1 239 7 is_stmt 0 view .LVU534
 1804 000c 0646     		mov	r6, r0
 1805 000e 18B1     		cbz	r0, .L147
 241:lvgl/src/core/lv_group.c **** 
 1806              		.loc 1 241 5 is_stmt 1 view .LVU535
 241:lvgl/src/core/lv_group.c **** 
 1807              		.loc 1 241 18 is_stmt 0 view .LVU536
 1808 0010 037F     		ldrb	r3, [r0, #28]	@ zero_extendqisi2
 241:lvgl/src/core/lv_group.c **** 
 1809              		.loc 1 241 7 view .LVU537
 1810 0012 13F0010F 		tst	r3, #1
 1811 0016 00D0     		beq	.L158
 1812              	.LVL194:
 1813              	.L147:
 266:lvgl/src/core/lv_group.c **** 
 1814              		.loc 1 266 1 view .LVU538
 1815 0018 F8BD     		pop	{r3, r4, r5, r6, r7, pc}
 1816              	.LVL195:
ARM GAS  C:\Users\OSD\AppData\Local\Temp\ccllLVSZ.s 			page 50


 1817              	.L158:
 244:lvgl/src/core/lv_group.c **** 
 1818              		.loc 1 244 5 is_stmt 1 view .LVU539
 1819 001a 0021     		movs	r1, #0
 1820 001c FFF7FEFF 		bl	lv_group_set_editing
 1821              	.LVL196:
 246:lvgl/src/core/lv_group.c ****     _LV_LL_READ(&g->obj_ll, i) {
 1822              		.loc 1 246 5 view .LVU540
 247:lvgl/src/core/lv_group.c ****         if(*i == obj) {
 1823              		.loc 1 247 5 view .LVU541
 1824 0020 3046     		mov	r0, r6
 1825 0022 FFF7FEFF 		bl	_lv_ll_get_head
 1826              	.LVL197:
 1827 0026 0446     		mov	r4, r0
 1828              	.LVL198:
 1829              	.L149:
 247:lvgl/src/core/lv_group.c ****         if(*i == obj) {
 1830              		.loc 1 247 5 discriminator 1 view .LVU542
 1831 0028 002C     		cmp	r4, #0
 1832 002a F5D0     		beq	.L147
 248:lvgl/src/core/lv_group.c ****             if(g->obj_focus != NULL && obj != *g->obj_focus) {  /*Do not defocus if the same object
 1833              		.loc 1 248 9 view .LVU543
 248:lvgl/src/core/lv_group.c ****             if(g->obj_focus != NULL && obj != *g->obj_focus) {  /*Do not defocus if the same object
 1834              		.loc 1 248 12 is_stmt 0 view .LVU544
 1835 002c 2368     		ldr	r3, [r4]
 248:lvgl/src/core/lv_group.c ****             if(g->obj_focus != NULL && obj != *g->obj_focus) {  /*Do not defocus if the same object
 1836              		.loc 1 248 11 view .LVU545
 1837 002e AB42     		cmp	r3, r5
 1838 0030 05D0     		beq	.L159
 247:lvgl/src/core/lv_group.c ****         if(*i == obj) {
 1839              		.loc 1 247 5 is_stmt 1 discriminator 2 view .LVU546
 1840 0032 2146     		mov	r1, r4
 1841 0034 3046     		mov	r0, r6
 1842              	.LVL199:
 247:lvgl/src/core/lv_group.c ****         if(*i == obj) {
 1843              		.loc 1 247 5 is_stmt 0 discriminator 2 view .LVU547
 1844 0036 FFF7FEFF 		bl	_lv_ll_get_next
 1845              	.LVL200:
 247:lvgl/src/core/lv_group.c ****         if(*i == obj) {
 1846              		.loc 1 247 5 discriminator 2 view .LVU548
 1847 003a 0446     		mov	r4, r0
 1848              	.LVL201:
 247:lvgl/src/core/lv_group.c ****         if(*i == obj) {
 1849              		.loc 1 247 5 discriminator 2 view .LVU549
 1850 003c F4E7     		b	.L149
 1851              	.L159:
 249:lvgl/src/core/lv_group.c ****                 lv_res_t res = lv_event_send(*g->obj_focus, LV_EVENT_DEFOCUSED, get_indev(g));
 1852              		.loc 1 249 13 is_stmt 1 view .LVU550
 249:lvgl/src/core/lv_group.c ****                 lv_res_t res = lv_event_send(*g->obj_focus, LV_EVENT_DEFOCUSED, get_indev(g));
 1853              		.loc 1 249 17 is_stmt 0 view .LVU551
 1854 003e F368     		ldr	r3, [r6, #12]
 249:lvgl/src/core/lv_group.c ****                 lv_res_t res = lv_event_send(*g->obj_focus, LV_EVENT_DEFOCUSED, get_indev(g));
 1855              		.loc 1 249 15 view .LVU552
 1856 0040 83B1     		cbz	r3, .L151
 249:lvgl/src/core/lv_group.c ****                 lv_res_t res = lv_event_send(*g->obj_focus, LV_EVENT_DEFOCUSED, get_indev(g));
 1857              		.loc 1 249 47 discriminator 1 view .LVU553
 1858 0042 1F68     		ldr	r7, [r3]
ARM GAS  C:\Users\OSD\AppData\Local\Temp\ccllLVSZ.s 			page 51


 249:lvgl/src/core/lv_group.c ****                 lv_res_t res = lv_event_send(*g->obj_focus, LV_EVENT_DEFOCUSED, get_indev(g));
 1859              		.loc 1 249 37 discriminator 1 view .LVU554
 1860 0044 AF42     		cmp	r7, r5
 1861 0046 0DD0     		beq	.L151
 1862              	.LBB10:
 250:lvgl/src/core/lv_group.c ****                 if(res != LV_RES_OK) return;
 1863              		.loc 1 250 17 is_stmt 1 view .LVU555
 250:lvgl/src/core/lv_group.c ****                 if(res != LV_RES_OK) return;
 1864              		.loc 1 250 81 is_stmt 0 view .LVU556
 1865 0048 3046     		mov	r0, r6
 1866              	.LVL202:
 250:lvgl/src/core/lv_group.c ****                 if(res != LV_RES_OK) return;
 1867              		.loc 1 250 81 view .LVU557
 1868 004a FFF7FEFF 		bl	get_indev
 1869              	.LVL203:
 1870 004e 0246     		mov	r2, r0
 250:lvgl/src/core/lv_group.c ****                 if(res != LV_RES_OK) return;
 1871              		.loc 1 250 32 view .LVU558
 1872 0050 0F21     		movs	r1, #15
 1873 0052 3846     		mov	r0, r7
 1874 0054 FFF7FEFF 		bl	lv_event_send
 1875              	.LVL204:
 251:lvgl/src/core/lv_group.c ****                 lv_obj_invalidate(*g->obj_focus);
 1876              		.loc 1 251 17 is_stmt 1 view .LVU559
 251:lvgl/src/core/lv_group.c ****                 lv_obj_invalidate(*g->obj_focus);
 1877              		.loc 1 251 19 is_stmt 0 view .LVU560
 1878 0058 0128     		cmp	r0, #1
 1879 005a DDD1     		bne	.L147
 252:lvgl/src/core/lv_group.c ****             }
 1880              		.loc 1 252 17 is_stmt 1 view .LVU561
 252:lvgl/src/core/lv_group.c ****             }
 1881              		.loc 1 252 37 is_stmt 0 view .LVU562
 1882 005c F368     		ldr	r3, [r6, #12]
 252:lvgl/src/core/lv_group.c ****             }
 1883              		.loc 1 252 17 view .LVU563
 1884 005e 1868     		ldr	r0, [r3]
 1885              	.LVL205:
 252:lvgl/src/core/lv_group.c ****             }
 1886              		.loc 1 252 17 view .LVU564
 1887 0060 FFF7FEFF 		bl	lv_obj_invalidate
 1888              	.LVL206:
 1889              	.L151:
 252:lvgl/src/core/lv_group.c ****             }
 1890              		.loc 1 252 17 view .LVU565
 1891              	.LBE10:
 255:lvgl/src/core/lv_group.c **** 
 1892              		.loc 1 255 13 is_stmt 1 view .LVU566
 255:lvgl/src/core/lv_group.c **** 
 1893              		.loc 1 255 26 is_stmt 0 view .LVU567
 1894 0064 F460     		str	r4, [r6, #12]
 257:lvgl/src/core/lv_group.c ****                 if(g->focus_cb) g->focus_cb(g);
 1895              		.loc 1 257 13 is_stmt 1 view .LVU568
 1896              	.LBB11:
 258:lvgl/src/core/lv_group.c ****                 lv_res_t res = lv_event_send(*g->obj_focus, LV_EVENT_FOCUSED, get_indev(g));
 1897              		.loc 1 258 17 view .LVU569
 258:lvgl/src/core/lv_group.c ****                 lv_res_t res = lv_event_send(*g->obj_focus, LV_EVENT_FOCUSED, get_indev(g));
 1898              		.loc 1 258 21 is_stmt 0 view .LVU570
ARM GAS  C:\Users\OSD\AppData\Local\Temp\ccllLVSZ.s 			page 52


 1899 0066 3369     		ldr	r3, [r6, #16]
 258:lvgl/src/core/lv_group.c ****                 lv_res_t res = lv_event_send(*g->obj_focus, LV_EVENT_FOCUSED, get_indev(g));
 1900              		.loc 1 258 19 view .LVU571
 1901 0068 0BB1     		cbz	r3, .L152
 258:lvgl/src/core/lv_group.c ****                 lv_res_t res = lv_event_send(*g->obj_focus, LV_EVENT_FOCUSED, get_indev(g));
 1902              		.loc 1 258 33 is_stmt 1 discriminator 1 view .LVU572
 1903 006a 3046     		mov	r0, r6
 1904 006c 9847     		blx	r3
 1905              	.LVL207:
 1906              	.L152:
 259:lvgl/src/core/lv_group.c ****                 if(res != LV_RES_OK) return;
 1907              		.loc 1 259 17 view .LVU573
 259:lvgl/src/core/lv_group.c ****                 if(res != LV_RES_OK) return;
 1908              		.loc 1 259 48 is_stmt 0 view .LVU574
 1909 006e F368     		ldr	r3, [r6, #12]
 259:lvgl/src/core/lv_group.c ****                 if(res != LV_RES_OK) return;
 1910              		.loc 1 259 32 view .LVU575
 1911 0070 1C68     		ldr	r4, [r3]
 1912              	.LVL208:
 259:lvgl/src/core/lv_group.c ****                 if(res != LV_RES_OK) return;
 1913              		.loc 1 259 79 view .LVU576
 1914 0072 3046     		mov	r0, r6
 1915 0074 FFF7FEFF 		bl	get_indev
 1916              	.LVL209:
 1917 0078 0246     		mov	r2, r0
 259:lvgl/src/core/lv_group.c ****                 if(res != LV_RES_OK) return;
 1918              		.loc 1 259 32 view .LVU577
 1919 007a 0E21     		movs	r1, #14
 1920 007c 2046     		mov	r0, r4
 1921 007e FFF7FEFF 		bl	lv_event_send
 1922              	.LVL210:
 260:lvgl/src/core/lv_group.c ****                 lv_obj_invalidate(*g->obj_focus);
 1923              		.loc 1 260 17 is_stmt 1 view .LVU578
 260:lvgl/src/core/lv_group.c ****                 lv_obj_invalidate(*g->obj_focus);
 1924              		.loc 1 260 19 is_stmt 0 view .LVU579
 1925 0082 0128     		cmp	r0, #1
 1926 0084 C8D1     		bne	.L147
 261:lvgl/src/core/lv_group.c ****             }
 1927              		.loc 1 261 17 is_stmt 1 view .LVU580
 261:lvgl/src/core/lv_group.c ****             }
 1928              		.loc 1 261 37 is_stmt 0 view .LVU581
 1929 0086 F368     		ldr	r3, [r6, #12]
 261:lvgl/src/core/lv_group.c ****             }
 1930              		.loc 1 261 17 view .LVU582
 1931 0088 1868     		ldr	r0, [r3]
 1932              	.LVL211:
 261:lvgl/src/core/lv_group.c ****             }
 1933              		.loc 1 261 17 view .LVU583
 1934 008a FFF7FEFF 		bl	lv_obj_invalidate
 1935              	.LVL212:
 1936 008e C3E7     		b	.L147
 1937              	.LVL213:
 1938              	.L155:
 1939              		.cfi_def_cfa_offset 0
 1940              		.cfi_restore 3
 1941              		.cfi_restore 4
 1942              		.cfi_restore 5
ARM GAS  C:\Users\OSD\AppData\Local\Temp\ccllLVSZ.s 			page 53


 1943              		.cfi_restore 6
 1944              		.cfi_restore 7
 1945              		.cfi_restore 14
 261:lvgl/src/core/lv_group.c ****             }
 1946              		.loc 1 261 17 view .LVU584
 1947 0090 7047     		bx	lr
 1948              	.LBE11:
 1949              		.cfi_endproc
 1950              	.LFE170:
 1952              		.section	.text.lv_group_swap_obj,"ax",%progbits
 1953              		.align	1
 1954              		.global	lv_group_swap_obj
 1955              		.syntax unified
 1956              		.thumb
 1957              		.thumb_func
 1959              	lv_group_swap_obj:
 1960              	.LVL214:
 1961              	.LFB167:
 157:lvgl/src/core/lv_group.c ****     lv_group_t * g1 = lv_obj_get_group(obj1);
 1962              		.loc 1 157 1 is_stmt 1 view -0
 1963              		.cfi_startproc
 1964              		@ args = 0, pretend = 0, frame = 0
 1965              		@ frame_needed = 0, uses_anonymous_args = 0
 157:lvgl/src/core/lv_group.c ****     lv_group_t * g1 = lv_obj_get_group(obj1);
 1966              		.loc 1 157 1 is_stmt 0 view .LVU586
 1967 0000 70B5     		push	{r4, r5, r6, lr}
 1968              		.cfi_def_cfa_offset 16
 1969              		.cfi_offset 4, -16
 1970              		.cfi_offset 5, -12
 1971              		.cfi_offset 6, -8
 1972              		.cfi_offset 14, -4
 1973 0002 0646     		mov	r6, r0
 1974 0004 0D46     		mov	r5, r1
 158:lvgl/src/core/lv_group.c ****     lv_group_t * g2 = lv_obj_get_group(obj2);
 1975              		.loc 1 158 5 is_stmt 1 view .LVU587
 158:lvgl/src/core/lv_group.c ****     lv_group_t * g2 = lv_obj_get_group(obj2);
 1976              		.loc 1 158 23 is_stmt 0 view .LVU588
 1977 0006 FFF7FEFF 		bl	lv_obj_get_group
 1978              	.LVL215:
 158:lvgl/src/core/lv_group.c ****     lv_group_t * g2 = lv_obj_get_group(obj2);
 1979              		.loc 1 158 23 view .LVU589
 1980 000a 0446     		mov	r4, r0
 1981              	.LVL216:
 159:lvgl/src/core/lv_group.c ****     if(g1 != g2) return;
 1982              		.loc 1 159 5 is_stmt 1 view .LVU590
 159:lvgl/src/core/lv_group.c ****     if(g1 != g2) return;
 1983              		.loc 1 159 23 is_stmt 0 view .LVU591
 1984 000c 2846     		mov	r0, r5
 1985              	.LVL217:
 159:lvgl/src/core/lv_group.c ****     if(g1 != g2) return;
 1986              		.loc 1 159 23 view .LVU592
 1987 000e FFF7FEFF 		bl	lv_obj_get_group
 1988              	.LVL218:
 160:lvgl/src/core/lv_group.c ****     if(g1 == NULL) return;
 1989              		.loc 1 160 5 is_stmt 1 view .LVU593
 160:lvgl/src/core/lv_group.c ****     if(g1 == NULL) return;
 1990              		.loc 1 160 7 is_stmt 0 view .LVU594
ARM GAS  C:\Users\OSD\AppData\Local\Temp\ccllLVSZ.s 			page 54


 1991 0012 8442     		cmp	r4, r0
 1992 0014 00D0     		beq	.L168
 1993              	.LVL219:
 1994              	.L160:
 174:lvgl/src/core/lv_group.c **** 
 1995              		.loc 1 174 1 view .LVU595
 1996 0016 70BD     		pop	{r4, r5, r6, pc}
 1997              	.LVL220:
 1998              	.L168:
 161:lvgl/src/core/lv_group.c **** 
 1999              		.loc 1 161 5 is_stmt 1 view .LVU596
 161:lvgl/src/core/lv_group.c **** 
 2000              		.loc 1 161 7 is_stmt 0 view .LVU597
 2001 0018 002C     		cmp	r4, #0
 2002 001a FCD0     		beq	.L160
 164:lvgl/src/core/lv_group.c ****     _LV_LL_READ(&g1->obj_ll, obj_i) {
 2003              		.loc 1 164 5 is_stmt 1 view .LVU598
 165:lvgl/src/core/lv_group.c ****         if((*obj_i) == obj1)(*obj_i) = obj2;
 2004              		.loc 1 165 5 view .LVU599
 2005 001c 2046     		mov	r0, r4
 2006              	.LVL221:
 165:lvgl/src/core/lv_group.c ****         if((*obj_i) == obj1)(*obj_i) = obj2;
 2007              		.loc 1 165 5 is_stmt 0 view .LVU600
 2008 001e FFF7FEFF 		bl	_lv_ll_get_head
 2009              	.LVL222:
 2010 0022 0146     		mov	r1, r0
 2011              	.LVL223:
 165:lvgl/src/core/lv_group.c ****         if((*obj_i) == obj1)(*obj_i) = obj2;
 2012              		.loc 1 165 5 view .LVU601
 2013 0024 04E0     		b	.L162
 2014              	.L170:
 166:lvgl/src/core/lv_group.c ****         else if((*obj_i) == obj2)(*obj_i) = obj1;
 2015              		.loc 1 166 29 is_stmt 1 discriminator 1 view .LVU602
 166:lvgl/src/core/lv_group.c ****         else if((*obj_i) == obj2)(*obj_i) = obj1;
 2016              		.loc 1 166 38 is_stmt 0 discriminator 1 view .LVU603
 2017 0026 0D60     		str	r5, [r1]
 2018              	.L164:
 165:lvgl/src/core/lv_group.c ****         if((*obj_i) == obj1)(*obj_i) = obj2;
 2019              		.loc 1 165 5 is_stmt 1 discriminator 2 view .LVU604
 2020 0028 2046     		mov	r0, r4
 2021              	.LVL224:
 165:lvgl/src/core/lv_group.c ****         if((*obj_i) == obj1)(*obj_i) = obj2;
 2022              		.loc 1 165 5 is_stmt 0 discriminator 2 view .LVU605
 2023 002a FFF7FEFF 		bl	_lv_ll_get_next
 2024              	.LVL225:
 165:lvgl/src/core/lv_group.c ****         if((*obj_i) == obj1)(*obj_i) = obj2;
 2025              		.loc 1 165 5 discriminator 2 view .LVU606
 2026 002e 0146     		mov	r1, r0
 2027              	.LVL226:
 2028              	.L162:
 165:lvgl/src/core/lv_group.c ****         if((*obj_i) == obj1)(*obj_i) = obj2;
 2029              		.loc 1 165 5 is_stmt 1 discriminator 1 view .LVU607
 2030 0030 31B1     		cbz	r1, .L169
 166:lvgl/src/core/lv_group.c ****         else if((*obj_i) == obj2)(*obj_i) = obj1;
 2031              		.loc 1 166 9 view .LVU608
 166:lvgl/src/core/lv_group.c ****         else if((*obj_i) == obj2)(*obj_i) = obj1;
 2032              		.loc 1 166 13 is_stmt 0 view .LVU609
ARM GAS  C:\Users\OSD\AppData\Local\Temp\ccllLVSZ.s 			page 55


 2033 0032 0B68     		ldr	r3, [r1]
 166:lvgl/src/core/lv_group.c ****         else if((*obj_i) == obj2)(*obj_i) = obj1;
 2034              		.loc 1 166 11 view .LVU610
 2035 0034 B342     		cmp	r3, r6
 2036 0036 F6D0     		beq	.L170
 167:lvgl/src/core/lv_group.c ****     }
 2037              		.loc 1 167 14 is_stmt 1 view .LVU611
 167:lvgl/src/core/lv_group.c ****     }
 2038              		.loc 1 167 16 is_stmt 0 view .LVU612
 2039 0038 AB42     		cmp	r3, r5
 2040 003a F5D1     		bne	.L164
 167:lvgl/src/core/lv_group.c ****     }
 2041              		.loc 1 167 34 is_stmt 1 discriminator 1 view .LVU613
 167:lvgl/src/core/lv_group.c ****     }
 2042              		.loc 1 167 43 is_stmt 0 discriminator 1 view .LVU614
 2043 003c 0E60     		str	r6, [r1]
 2044 003e F3E7     		b	.L164
 2045              	.L169:
 170:lvgl/src/core/lv_group.c ****     if(focused == obj1) lv_group_focus_obj(obj2);
 2046              		.loc 1 170 5 is_stmt 1 view .LVU615
 170:lvgl/src/core/lv_group.c ****     if(focused == obj1) lv_group_focus_obj(obj2);
 2047              		.loc 1 170 26 is_stmt 0 view .LVU616
 2048 0040 2046     		mov	r0, r4
 2049              	.LVL227:
 170:lvgl/src/core/lv_group.c ****     if(focused == obj1) lv_group_focus_obj(obj2);
 2050              		.loc 1 170 26 view .LVU617
 2051 0042 FFF7FEFF 		bl	lv_group_get_focused
 2052              	.LVL228:
 171:lvgl/src/core/lv_group.c ****     else if(focused == obj2) lv_group_focus_obj(obj1);
 2053              		.loc 1 171 5 is_stmt 1 view .LVU618
 171:lvgl/src/core/lv_group.c ****     else if(focused == obj2) lv_group_focus_obj(obj1);
 2054              		.loc 1 171 7 is_stmt 0 view .LVU619
 2055 0046 8642     		cmp	r6, r0
 2056 0048 05D0     		beq	.L171
 172:lvgl/src/core/lv_group.c **** 
 2057              		.loc 1 172 10 is_stmt 1 view .LVU620
 172:lvgl/src/core/lv_group.c **** 
 2058              		.loc 1 172 12 is_stmt 0 view .LVU621
 2059 004a 8542     		cmp	r5, r0
 2060 004c E3D1     		bne	.L160
 172:lvgl/src/core/lv_group.c **** 
 2061              		.loc 1 172 30 is_stmt 1 discriminator 1 view .LVU622
 2062 004e 3046     		mov	r0, r6
 2063              	.LVL229:
 172:lvgl/src/core/lv_group.c **** 
 2064              		.loc 1 172 30 is_stmt 0 discriminator 1 view .LVU623
 2065 0050 FFF7FEFF 		bl	lv_group_focus_obj
 2066              	.LVL230:
 2067 0054 DFE7     		b	.L160
 2068              	.LVL231:
 2069              	.L171:
 171:lvgl/src/core/lv_group.c ****     else if(focused == obj2) lv_group_focus_obj(obj1);
 2070              		.loc 1 171 25 is_stmt 1 discriminator 1 view .LVU624
 2071 0056 2846     		mov	r0, r5
 2072              	.LVL232:
 171:lvgl/src/core/lv_group.c ****     else if(focused == obj2) lv_group_focus_obj(obj1);
 2073              		.loc 1 171 25 is_stmt 0 discriminator 1 view .LVU625
ARM GAS  C:\Users\OSD\AppData\Local\Temp\ccllLVSZ.s 			page 56


 2074 0058 FFF7FEFF 		bl	lv_group_focus_obj
 2075              	.LVL233:
 2076 005c DBE7     		b	.L160
 2077              		.cfi_endproc
 2078              	.LFE167:
 2080              		.section	.text.lv_group_get_focus_cb,"ax",%progbits
 2081              		.align	1
 2082              		.global	lv_group_get_focus_cb
 2083              		.syntax unified
 2084              		.thumb
 2085              		.thumb_func
 2087              	lv_group_get_focus_cb:
 2088              	.LVL234:
 2089              	.LFB181:
 349:lvgl/src/core/lv_group.c ****     if(!group) return NULL;
 2090              		.loc 1 349 1 is_stmt 1 view -0
 2091              		.cfi_startproc
 2092              		@ args = 0, pretend = 0, frame = 0
 2093              		@ frame_needed = 0, uses_anonymous_args = 0
 2094              		@ link register save eliminated.
 350:lvgl/src/core/lv_group.c ****     return group->focus_cb;
 2095              		.loc 1 350 5 view .LVU627
 350:lvgl/src/core/lv_group.c ****     return group->focus_cb;
 2096              		.loc 1 350 7 is_stmt 0 view .LVU628
 2097 0000 08B1     		cbz	r0, .L174
 351:lvgl/src/core/lv_group.c **** }
 2098              		.loc 1 351 5 is_stmt 1 view .LVU629
 351:lvgl/src/core/lv_group.c **** }
 2099              		.loc 1 351 17 is_stmt 0 view .LVU630
 2100 0002 0069     		ldr	r0, [r0, #16]
 2101              	.LVL235:
 351:lvgl/src/core/lv_group.c **** }
 2102              		.loc 1 351 17 view .LVU631
 2103 0004 7047     		bx	lr
 2104              	.LVL236:
 2105              	.L174:
 350:lvgl/src/core/lv_group.c ****     return group->focus_cb;
 2106              		.loc 1 350 23 view .LVU632
 2107 0006 0020     		movs	r0, #0
 2108              	.LVL237:
 352:lvgl/src/core/lv_group.c **** 
 2109              		.loc 1 352 1 view .LVU633
 2110 0008 7047     		bx	lr
 2111              		.cfi_endproc
 2112              	.LFE181:
 2114              		.section	.text.lv_group_get_edge_cb,"ax",%progbits
 2115              		.align	1
 2116              		.global	lv_group_get_edge_cb
 2117              		.syntax unified
 2118              		.thumb
 2119              		.thumb_func
 2121              	lv_group_get_edge_cb:
 2122              	.LVL238:
 2123              	.LFB182:
 355:lvgl/src/core/lv_group.c ****     if(!group) return NULL;
 2124              		.loc 1 355 1 is_stmt 1 view -0
 2125              		.cfi_startproc
ARM GAS  C:\Users\OSD\AppData\Local\Temp\ccllLVSZ.s 			page 57


 2126              		@ args = 0, pretend = 0, frame = 0
 2127              		@ frame_needed = 0, uses_anonymous_args = 0
 2128              		@ link register save eliminated.
 356:lvgl/src/core/lv_group.c ****     return group->edge_cb;
 2129              		.loc 1 356 5 view .LVU635
 356:lvgl/src/core/lv_group.c ****     return group->edge_cb;
 2130              		.loc 1 356 7 is_stmt 0 view .LVU636
 2131 0000 08B1     		cbz	r0, .L177
 357:lvgl/src/core/lv_group.c **** }
 2132              		.loc 1 357 5 is_stmt 1 view .LVU637
 357:lvgl/src/core/lv_group.c **** }
 2133              		.loc 1 357 17 is_stmt 0 view .LVU638
 2134 0002 4069     		ldr	r0, [r0, #20]
 2135              	.LVL239:
 357:lvgl/src/core/lv_group.c **** }
 2136              		.loc 1 357 17 view .LVU639
 2137 0004 7047     		bx	lr
 2138              	.LVL240:
 2139              	.L177:
 356:lvgl/src/core/lv_group.c ****     return group->edge_cb;
 2140              		.loc 1 356 23 view .LVU640
 2141 0006 0020     		movs	r0, #0
 2142              	.LVL241:
 358:lvgl/src/core/lv_group.c **** 
 2143              		.loc 1 358 1 view .LVU641
 2144 0008 7047     		bx	lr
 2145              		.cfi_endproc
 2146              	.LFE182:
 2148              		.section	.text.lv_group_get_editing,"ax",%progbits
 2149              		.align	1
 2150              		.global	lv_group_get_editing
 2151              		.syntax unified
 2152              		.thumb
 2153              		.thumb_func
 2155              	lv_group_get_editing:
 2156              	.LVL242:
 2157              	.LFB183:
 361:lvgl/src/core/lv_group.c ****     if(!group) return false;
 2158              		.loc 1 361 1 is_stmt 1 view -0
 2159              		.cfi_startproc
 2160              		@ args = 0, pretend = 0, frame = 0
 2161              		@ frame_needed = 0, uses_anonymous_args = 0
 2162              		@ link register save eliminated.
 362:lvgl/src/core/lv_group.c ****     return group->editing ? true : false;
 2163              		.loc 1 362 5 view .LVU643
 362:lvgl/src/core/lv_group.c ****     return group->editing ? true : false;
 2164              		.loc 1 362 7 is_stmt 0 view .LVU644
 2165 0000 18B1     		cbz	r0, .L180
 363:lvgl/src/core/lv_group.c **** }
 2166              		.loc 1 363 5 is_stmt 1 view .LVU645
 363:lvgl/src/core/lv_group.c **** }
 2167              		.loc 1 363 27 is_stmt 0 view .LVU646
 2168 0002 007F     		ldrb	r0, [r0, #28]	@ zero_extendqisi2
 2169              	.LVL243:
 363:lvgl/src/core/lv_group.c **** }
 2170              		.loc 1 363 34 view .LVU647
 2171 0004 C0F34000 		ubfx	r0, r0, #1, #1
ARM GAS  C:\Users\OSD\AppData\Local\Temp\ccllLVSZ.s 			page 58


 2172 0008 7047     		bx	lr
 2173              	.LVL244:
 2174              	.L180:
 362:lvgl/src/core/lv_group.c ****     return group->editing ? true : false;
 2175              		.loc 1 362 23 view .LVU648
 2176 000a 0020     		movs	r0, #0
 2177              	.LVL245:
 364:lvgl/src/core/lv_group.c **** 
 2178              		.loc 1 364 1 view .LVU649
 2179 000c 7047     		bx	lr
 2180              		.cfi_endproc
 2181              	.LFE183:
 2183              		.section	.text.lv_group_get_wrap,"ax",%progbits
 2184              		.align	1
 2185              		.global	lv_group_get_wrap
 2186              		.syntax unified
 2187              		.thumb
 2188              		.thumb_func
 2190              	lv_group_get_wrap:
 2191              	.LVL246:
 2192              	.LFB184:
 367:lvgl/src/core/lv_group.c ****     if(!group) return false;
 2193              		.loc 1 367 1 is_stmt 1 view -0
 2194              		.cfi_startproc
 2195              		@ args = 0, pretend = 0, frame = 0
 2196              		@ frame_needed = 0, uses_anonymous_args = 0
 2197              		@ link register save eliminated.
 368:lvgl/src/core/lv_group.c ****     return group->wrap ? true : false;
 2198              		.loc 1 368 5 view .LVU651
 368:lvgl/src/core/lv_group.c ****     return group->wrap ? true : false;
 2199              		.loc 1 368 7 is_stmt 0 view .LVU652
 2200 0000 18B1     		cbz	r0, .L183
 369:lvgl/src/core/lv_group.c **** }
 2201              		.loc 1 369 5 is_stmt 1 view .LVU653
 369:lvgl/src/core/lv_group.c **** }
 2202              		.loc 1 369 24 is_stmt 0 view .LVU654
 2203 0002 007F     		ldrb	r0, [r0, #28]	@ zero_extendqisi2
 2204              	.LVL247:
 369:lvgl/src/core/lv_group.c **** }
 2205              		.loc 1 369 31 view .LVU655
 2206 0004 C0F3C000 		ubfx	r0, r0, #3, #1
 2207 0008 7047     		bx	lr
 2208              	.LVL248:
 2209              	.L183:
 368:lvgl/src/core/lv_group.c ****     return group->wrap ? true : false;
 2210              		.loc 1 368 23 view .LVU656
 2211 000a 0020     		movs	r0, #0
 2212              	.LVL249:
 370:lvgl/src/core/lv_group.c **** 
 2213              		.loc 1 370 1 view .LVU657
 2214 000c 7047     		bx	lr
 2215              		.cfi_endproc
 2216              	.LFE184:
 2218              		.section	.text.lv_group_get_obj_count,"ax",%progbits
 2219              		.align	1
 2220              		.global	lv_group_get_obj_count
 2221              		.syntax unified
ARM GAS  C:\Users\OSD\AppData\Local\Temp\ccllLVSZ.s 			page 59


 2222              		.thumb
 2223              		.thumb_func
 2225              	lv_group_get_obj_count:
 2226              	.LVL250:
 2227              	.LFB185:
 373:lvgl/src/core/lv_group.c ****     return _lv_ll_get_len(&group->obj_ll);
 2228              		.loc 1 373 1 is_stmt 1 view -0
 2229              		.cfi_startproc
 2230              		@ args = 0, pretend = 0, frame = 0
 2231              		@ frame_needed = 0, uses_anonymous_args = 0
 373:lvgl/src/core/lv_group.c ****     return _lv_ll_get_len(&group->obj_ll);
 2232              		.loc 1 373 1 is_stmt 0 view .LVU659
 2233 0000 08B5     		push	{r3, lr}
 2234              		.cfi_def_cfa_offset 8
 2235              		.cfi_offset 3, -8
 2236              		.cfi_offset 14, -4
 374:lvgl/src/core/lv_group.c **** }
 2237              		.loc 1 374 5 is_stmt 1 view .LVU660
 374:lvgl/src/core/lv_group.c **** }
 2238              		.loc 1 374 12 is_stmt 0 view .LVU661
 2239 0002 FFF7FEFF 		bl	_lv_ll_get_len
 2240              	.LVL251:
 375:lvgl/src/core/lv_group.c **** /**********************
 2241              		.loc 1 375 1 view .LVU662
 2242 0006 08BD     		pop	{r3, pc}
 2243              		.cfi_endproc
 2244              	.LFE185:
 2246              		.section	.bss.default_group,"aw",%nobits
 2247              		.align	2
 2248              		.set	.LANCHOR0,. + 0
 2251              	default_group:
 2252 0000 00000000 		.space	4
 2253              		.text
 2254              	.Letext0:
 2255              		.file 2 "c:\\tools\\gcc-arm-none-eabi\\lib\\gcc\\arm-none-eabi\\10.3.1\\include\\stddef.h"
 2256              		.file 3 "c:\\tools\\gcc-arm-none-eabi\\arm-none-eabi\\include\\machine\\_default_types.h"
 2257              		.file 4 "c:\\tools\\gcc-arm-none-eabi\\arm-none-eabi\\include\\sys\\_stdint.h"
 2258              		.file 5 "lvgl/src/core/../misc/lv_ll.h"
 2259              		.file 6 "lvgl/src/core/../misc/lv_types.h"
 2260              		.file 7 "lvgl/src/core/lv_group.h"
 2261              		.file 8 "lvgl/src/core/../core/lv_obj.h"
 2262              		.file 9 "lvgl/src/core/../misc/lv_timer.h"
 2263              		.file 10 "lvgl/src/core/../misc/../draw/../misc/lv_color.h"
 2264              		.file 11 "lvgl/src/core/../misc/../draw/../misc/lv_area.h"
 2265              		.file 12 "lvgl/src/core/../misc/../draw/lv_img_buf.h"
 2266              		.file 13 "lvgl/src/core/../core/../misc/../font/lv_font.h"
 2267              		.file 14 "lvgl/src/core/../core/../misc/lv_txt.h"
 2268              		.file 15 "lvgl/src/core/../core/../misc/lv_bidi.h"
 2269              		.file 16 "lvgl/src/core/../core/../misc/lv_style.h"
 2270              		.file 17 "lvgl/src/core/../core/../hal/../draw/lv_draw_rect.h"
 2271              		.file 18 "lvgl/src/core/../core/../hal/../draw/lv_draw_label.h"
 2272              		.file 19 "lvgl/src/core/../core/../hal/../draw/lv_draw_img.h"
 2273              		.file 20 "lvgl/src/core/../core/../hal/../draw/lv_draw_line.h"
 2274              		.file 21 "lvgl/src/core/../core/../hal/../draw/lv_draw_arc.h"
 2275              		.file 22 "lvgl/src/core/../core/../hal/../draw/lv_draw_layer.h"
 2276              		.file 23 "lvgl/src/core/../core/../hal/../draw/lv_draw.h"
 2277              		.file 24 "lvgl/src/core/../core/../hal/lv_hal_disp.h"
ARM GAS  C:\Users\OSD\AppData\Local\Temp\ccllLVSZ.s 			page 60


 2278              		.file 25 "lvgl/src/core/../core/../hal/lv_hal_indev.h"
 2279              		.file 26 "lvgl/src/core/../core/lv_obj_scroll.h"
 2280              		.file 27 "lvgl/src/core/../core/lv_obj_style.h"
 2281              		.file 28 "lvgl/src/core/../core/lv_obj_class.h"
 2282              		.file 29 "lvgl/src/core/../core/lv_event.h"
 2283              		.file 30 "lvgl/src/core/../misc/lv_gc.h"
 2284              		.file 31 "lvgl/src/core/../core/lv_indev.h"
 2285              		.file 32 "lvgl/src/core/../core/lv_obj_tree.h"
 2286              		.file 33 "lvgl/src/core/../misc/../core/lv_obj_pos.h"
 2287              		.file 34 "lvgl/src/core/../misc/lv_mem.h"
ARM GAS  C:\Users\OSD\AppData\Local\Temp\ccllLVSZ.s 			page 61

