ARM GAS  C:\Users\OSD\AppData\Local\Temp\ccDD6lYO.s 			page 1


   1              		.cpu cortex-m7
   2              		.arch armv7e-m
   3              		.fpu fpv5-d16
   4              		.eabi_attribute 28, 1
   5              		.eabi_attribute 20, 1
   6              		.eabi_attribute 21, 1
   7              		.eabi_attribute 23, 3
   8              		.eabi_attribute 24, 1
   9              		.eabi_attribute 25, 1
  10              		.eabi_attribute 26, 1
  11              		.eabi_attribute 30, 1
  12              		.eabi_attribute 34, 1
  13              		.eabi_attribute 18, 4
  14              		.file	"lv_hal_disp.c"
  15              		.text
  16              	.Ltext0:
  17              		.cfi_sections	.debug_frame
  18              		.section	.text.invalidate_layout_cb,"ax",%progbits
  19              		.align	1
  20              		.syntax unified
  21              		.thumb
  22              		.thumb_func
  24              	invalidate_layout_cb:
  25              	.LVL0:
  26              	.LFB183:
  27              		.file 1 "lvgl/src/hal/lv_hal_disp.c"
   1:lvgl/src/hal/lv_hal_disp.c **** /**
   2:lvgl/src/hal/lv_hal_disp.c ****  * @file lv_hal_disp.c
   3:lvgl/src/hal/lv_hal_disp.c ****  *
   4:lvgl/src/hal/lv_hal_disp.c ****  * @description HAL layer for display driver
   5:lvgl/src/hal/lv_hal_disp.c ****  *
   6:lvgl/src/hal/lv_hal_disp.c ****  */
   7:lvgl/src/hal/lv_hal_disp.c **** 
   8:lvgl/src/hal/lv_hal_disp.c **** /*********************
   9:lvgl/src/hal/lv_hal_disp.c ****  *      INCLUDES
  10:lvgl/src/hal/lv_hal_disp.c ****  *********************/
  11:lvgl/src/hal/lv_hal_disp.c **** #include <stdint.h>
  12:lvgl/src/hal/lv_hal_disp.c **** #include <stddef.h>
  13:lvgl/src/hal/lv_hal_disp.c **** #include "lv_hal.h"
  14:lvgl/src/hal/lv_hal_disp.c **** #include "../misc/lv_mem.h"
  15:lvgl/src/hal/lv_hal_disp.c **** #include "../misc/lv_gc.h"
  16:lvgl/src/hal/lv_hal_disp.c **** #include "../misc/lv_assert.h"
  17:lvgl/src/hal/lv_hal_disp.c **** #include "../core/lv_obj.h"
  18:lvgl/src/hal/lv_hal_disp.c **** #include "../core/lv_refr.h"
  19:lvgl/src/hal/lv_hal_disp.c **** #include "../core/lv_theme.h"
  20:lvgl/src/hal/lv_hal_disp.c **** #include "../draw/sdl/lv_draw_sdl.h"
  21:lvgl/src/hal/lv_hal_disp.c **** #include "../draw/sw/lv_draw_sw.h"
  22:lvgl/src/hal/lv_hal_disp.c **** #include "../draw/sdl/lv_draw_sdl.h"
  23:lvgl/src/hal/lv_hal_disp.c **** #include "../draw/stm32_dma2d/lv_gpu_stm32_dma2d.h"
  24:lvgl/src/hal/lv_hal_disp.c **** #include "../draw/swm341_dma2d/lv_gpu_swm341_dma2d.h"
  25:lvgl/src/hal/lv_hal_disp.c **** #include "../draw/arm2d/lv_gpu_arm2d.h"
  26:lvgl/src/hal/lv_hal_disp.c **** #include "../draw/nxp/vglite/lv_draw_vglite.h"
  27:lvgl/src/hal/lv_hal_disp.c **** #include "../draw/nxp/pxp/lv_draw_pxp.h"
  28:lvgl/src/hal/lv_hal_disp.c **** #include "../draw/renesas/lv_gpu_d2_ra6m3.h"
  29:lvgl/src/hal/lv_hal_disp.c **** 
  30:lvgl/src/hal/lv_hal_disp.c **** #if LV_USE_THEME_DEFAULT
  31:lvgl/src/hal/lv_hal_disp.c ****     #include "../extra/themes/default/lv_theme_default.h"
ARM GAS  C:\Users\OSD\AppData\Local\Temp\ccDD6lYO.s 			page 2


  32:lvgl/src/hal/lv_hal_disp.c **** #endif
  33:lvgl/src/hal/lv_hal_disp.c **** 
  34:lvgl/src/hal/lv_hal_disp.c **** /*********************
  35:lvgl/src/hal/lv_hal_disp.c ****  *      DEFINES
  36:lvgl/src/hal/lv_hal_disp.c ****  *********************/
  37:lvgl/src/hal/lv_hal_disp.c **** 
  38:lvgl/src/hal/lv_hal_disp.c **** /**********************
  39:lvgl/src/hal/lv_hal_disp.c ****  *      TYPEDEFS
  40:lvgl/src/hal/lv_hal_disp.c ****  **********************/
  41:lvgl/src/hal/lv_hal_disp.c **** 
  42:lvgl/src/hal/lv_hal_disp.c **** /**********************
  43:lvgl/src/hal/lv_hal_disp.c ****  *  STATIC PROTOTYPES
  44:lvgl/src/hal/lv_hal_disp.c ****  **********************/
  45:lvgl/src/hal/lv_hal_disp.c **** static lv_obj_tree_walk_res_t invalidate_layout_cb(lv_obj_t * obj, void * user_data);
  46:lvgl/src/hal/lv_hal_disp.c **** 
  47:lvgl/src/hal/lv_hal_disp.c **** static void set_px_true_color_alpha(lv_disp_drv_t * disp_drv, uint8_t * buf, lv_coord_t buf_w, lv_c
  48:lvgl/src/hal/lv_hal_disp.c ****                                     lv_coord_t y,
  49:lvgl/src/hal/lv_hal_disp.c ****                                     lv_color_t color, lv_opa_t opa);
  50:lvgl/src/hal/lv_hal_disp.c **** 
  51:lvgl/src/hal/lv_hal_disp.c **** static void set_px_cb_alpha1(lv_disp_drv_t * disp_drv, uint8_t * buf, lv_coord_t buf_w, lv_coord_t 
  52:lvgl/src/hal/lv_hal_disp.c ****                              lv_color_t color, lv_opa_t opa);
  53:lvgl/src/hal/lv_hal_disp.c **** 
  54:lvgl/src/hal/lv_hal_disp.c **** static void set_px_cb_alpha2(lv_disp_drv_t * disp_drv, uint8_t * buf, lv_coord_t buf_w, lv_coord_t 
  55:lvgl/src/hal/lv_hal_disp.c ****                              lv_color_t color, lv_opa_t opa);
  56:lvgl/src/hal/lv_hal_disp.c **** 
  57:lvgl/src/hal/lv_hal_disp.c **** static void set_px_cb_alpha4(lv_disp_drv_t * disp_drv, uint8_t * buf, lv_coord_t buf_w, lv_coord_t 
  58:lvgl/src/hal/lv_hal_disp.c ****                              lv_color_t color, lv_opa_t opa);
  59:lvgl/src/hal/lv_hal_disp.c **** 
  60:lvgl/src/hal/lv_hal_disp.c **** static void set_px_cb_alpha8(lv_disp_drv_t * disp_drv, uint8_t * buf, lv_coord_t buf_w, lv_coord_t 
  61:lvgl/src/hal/lv_hal_disp.c ****                              lv_color_t color, lv_opa_t opa);
  62:lvgl/src/hal/lv_hal_disp.c **** 
  63:lvgl/src/hal/lv_hal_disp.c **** static void set_px_alpha_generic(lv_img_dsc_t * d, lv_coord_t x, lv_coord_t y, lv_color_t color, lv
  64:lvgl/src/hal/lv_hal_disp.c **** 
  65:lvgl/src/hal/lv_hal_disp.c **** /**********************
  66:lvgl/src/hal/lv_hal_disp.c ****  *  STATIC VARIABLES
  67:lvgl/src/hal/lv_hal_disp.c ****  **********************/
  68:lvgl/src/hal/lv_hal_disp.c **** static lv_disp_t * disp_def;
  69:lvgl/src/hal/lv_hal_disp.c **** 
  70:lvgl/src/hal/lv_hal_disp.c **** /**********************
  71:lvgl/src/hal/lv_hal_disp.c ****  *      MACROS
  72:lvgl/src/hal/lv_hal_disp.c ****  **********************/
  73:lvgl/src/hal/lv_hal_disp.c **** 
  74:lvgl/src/hal/lv_hal_disp.c **** /**********************
  75:lvgl/src/hal/lv_hal_disp.c ****  *   GLOBAL FUNCTIONS
  76:lvgl/src/hal/lv_hal_disp.c ****  **********************/
  77:lvgl/src/hal/lv_hal_disp.c **** 
  78:lvgl/src/hal/lv_hal_disp.c **** /**
  79:lvgl/src/hal/lv_hal_disp.c ****  * Initialize a display driver with default values.
  80:lvgl/src/hal/lv_hal_disp.c ****  * It is used to surly have known values in the fields ant not memory junk.
  81:lvgl/src/hal/lv_hal_disp.c ****  * After it you can set the fields.
  82:lvgl/src/hal/lv_hal_disp.c ****  * @param driver pointer to driver variable to initialize
  83:lvgl/src/hal/lv_hal_disp.c ****  */
  84:lvgl/src/hal/lv_hal_disp.c **** void lv_disp_drv_init(lv_disp_drv_t * driver)
  85:lvgl/src/hal/lv_hal_disp.c **** {
  86:lvgl/src/hal/lv_hal_disp.c ****     lv_memset_00(driver, sizeof(lv_disp_drv_t));
  87:lvgl/src/hal/lv_hal_disp.c **** 
  88:lvgl/src/hal/lv_hal_disp.c ****     driver->hor_res          = 320;
ARM GAS  C:\Users\OSD\AppData\Local\Temp\ccDD6lYO.s 			page 3


  89:lvgl/src/hal/lv_hal_disp.c ****     driver->ver_res          = 240;
  90:lvgl/src/hal/lv_hal_disp.c ****     driver->physical_hor_res = -1;
  91:lvgl/src/hal/lv_hal_disp.c ****     driver->physical_ver_res = -1;
  92:lvgl/src/hal/lv_hal_disp.c ****     driver->offset_x         = 0;
  93:lvgl/src/hal/lv_hal_disp.c ****     driver->offset_y         = 0;
  94:lvgl/src/hal/lv_hal_disp.c ****     driver->antialiasing     = LV_COLOR_DEPTH > 8 ? 1 : 0;
  95:lvgl/src/hal/lv_hal_disp.c ****     driver->screen_transp    = 0;
  96:lvgl/src/hal/lv_hal_disp.c ****     driver->dpi              = LV_DPI_DEF;
  97:lvgl/src/hal/lv_hal_disp.c ****     driver->color_chroma_key = LV_COLOR_CHROMA_KEY;
  98:lvgl/src/hal/lv_hal_disp.c **** 
  99:lvgl/src/hal/lv_hal_disp.c **** #if LV_USE_GPU_RA6M3_G2D
 100:lvgl/src/hal/lv_hal_disp.c ****     driver->draw_ctx_init = lv_draw_ra6m3_2d_ctx_init;
 101:lvgl/src/hal/lv_hal_disp.c ****     driver->draw_ctx_deinit = lv_draw_ra6m3_2d_ctx_init;
 102:lvgl/src/hal/lv_hal_disp.c ****     driver->draw_ctx_size = sizeof(lv_draw_ra6m3_dma2d_ctx_t);
 103:lvgl/src/hal/lv_hal_disp.c **** #elif LV_USE_GPU_STM32_DMA2D
 104:lvgl/src/hal/lv_hal_disp.c ****     driver->draw_ctx_init = lv_draw_stm32_dma2d_ctx_init;
 105:lvgl/src/hal/lv_hal_disp.c ****     driver->draw_ctx_deinit = lv_draw_stm32_dma2d_ctx_init;
 106:lvgl/src/hal/lv_hal_disp.c ****     driver->draw_ctx_size = sizeof(lv_draw_stm32_dma2d_ctx_t);
 107:lvgl/src/hal/lv_hal_disp.c **** #elif LV_USE_GPU_SWM341_DMA2D
 108:lvgl/src/hal/lv_hal_disp.c ****     driver->draw_ctx_init = lv_draw_swm341_dma2d_ctx_init;
 109:lvgl/src/hal/lv_hal_disp.c ****     driver->draw_ctx_deinit = lv_draw_swm341_dma2d_ctx_init;
 110:lvgl/src/hal/lv_hal_disp.c ****     driver->draw_ctx_size = sizeof(lv_draw_swm341_dma2d_ctx_t);
 111:lvgl/src/hal/lv_hal_disp.c **** #elif LV_USE_GPU_NXP_VG_LITE
 112:lvgl/src/hal/lv_hal_disp.c ****     driver->draw_ctx_init = lv_draw_vglite_ctx_init;
 113:lvgl/src/hal/lv_hal_disp.c ****     driver->draw_ctx_deinit = lv_draw_vglite_ctx_deinit;
 114:lvgl/src/hal/lv_hal_disp.c ****     driver->draw_ctx_size = sizeof(lv_draw_vglite_ctx_t);
 115:lvgl/src/hal/lv_hal_disp.c **** #elif LV_USE_GPU_NXP_PXP
 116:lvgl/src/hal/lv_hal_disp.c ****     driver->draw_ctx_init = lv_draw_pxp_ctx_init;
 117:lvgl/src/hal/lv_hal_disp.c ****     driver->draw_ctx_deinit = lv_draw_pxp_ctx_deinit;
 118:lvgl/src/hal/lv_hal_disp.c ****     driver->draw_ctx_size = sizeof(lv_draw_pxp_ctx_t);
 119:lvgl/src/hal/lv_hal_disp.c **** #elif LV_USE_GPU_SDL
 120:lvgl/src/hal/lv_hal_disp.c ****     driver->draw_ctx_init = lv_draw_sdl_init_ctx;
 121:lvgl/src/hal/lv_hal_disp.c ****     driver->draw_ctx_deinit = lv_draw_sdl_deinit_ctx;
 122:lvgl/src/hal/lv_hal_disp.c ****     driver->draw_ctx_size = sizeof(lv_draw_sdl_ctx_t);
 123:lvgl/src/hal/lv_hal_disp.c **** #elif LV_USE_GPU_ARM2D
 124:lvgl/src/hal/lv_hal_disp.c ****     driver->draw_ctx_init = lv_draw_arm2d_ctx_init;
 125:lvgl/src/hal/lv_hal_disp.c ****     driver->draw_ctx_deinit = lv_draw_arm2d_ctx_init;
 126:lvgl/src/hal/lv_hal_disp.c ****     driver->draw_ctx_size = sizeof(lv_draw_arm2d_ctx_t);
 127:lvgl/src/hal/lv_hal_disp.c **** #else
 128:lvgl/src/hal/lv_hal_disp.c ****     driver->draw_ctx_init = lv_draw_sw_init_ctx;
 129:lvgl/src/hal/lv_hal_disp.c ****     driver->draw_ctx_deinit = lv_draw_sw_init_ctx;
 130:lvgl/src/hal/lv_hal_disp.c ****     driver->draw_ctx_size = sizeof(lv_draw_sw_ctx_t);
 131:lvgl/src/hal/lv_hal_disp.c **** #endif
 132:lvgl/src/hal/lv_hal_disp.c **** 
 133:lvgl/src/hal/lv_hal_disp.c **** }
 134:lvgl/src/hal/lv_hal_disp.c **** 
 135:lvgl/src/hal/lv_hal_disp.c **** /**
 136:lvgl/src/hal/lv_hal_disp.c ****  * Initialize a display buffer
 137:lvgl/src/hal/lv_hal_disp.c ****  * @param draw_buf pointer `lv_disp_draw_buf_t` variable to initialize
 138:lvgl/src/hal/lv_hal_disp.c ****  * @param buf1 A buffer to be used by LVGL to draw the image.
 139:lvgl/src/hal/lv_hal_disp.c ****  *             Always has to specified and can't be NULL.
 140:lvgl/src/hal/lv_hal_disp.c ****  *             Can be an array allocated by the user. E.g. `static lv_color_t disp_buf1[1024 * 10]`
 141:lvgl/src/hal/lv_hal_disp.c ****  *             Or a memory address e.g. in external SRAM
 142:lvgl/src/hal/lv_hal_disp.c ****  * @param buf2 Optionally specify a second buffer to make image rendering and image flushing
 143:lvgl/src/hal/lv_hal_disp.c ****  *             (sending to the display) parallel.
 144:lvgl/src/hal/lv_hal_disp.c ****  *             In the `disp_drv->flush` you should use DMA or similar hardware to send
 145:lvgl/src/hal/lv_hal_disp.c ****  *             the image to the display in the background.
ARM GAS  C:\Users\OSD\AppData\Local\Temp\ccDD6lYO.s 			page 4


 146:lvgl/src/hal/lv_hal_disp.c ****  *             It lets LVGL to render next frame into the other buffer while previous is being
 147:lvgl/src/hal/lv_hal_disp.c ****  * sent. Set to `NULL` if unused.
 148:lvgl/src/hal/lv_hal_disp.c ****  * @param size_in_px_cnt size of the `buf1` and `buf2` in pixel count.
 149:lvgl/src/hal/lv_hal_disp.c ****  */
 150:lvgl/src/hal/lv_hal_disp.c **** void lv_disp_draw_buf_init(lv_disp_draw_buf_t * draw_buf, void * buf1, void * buf2, uint32_t size_i
 151:lvgl/src/hal/lv_hal_disp.c **** {
 152:lvgl/src/hal/lv_hal_disp.c ****     lv_memset_00(draw_buf, sizeof(lv_disp_draw_buf_t));
 153:lvgl/src/hal/lv_hal_disp.c **** 
 154:lvgl/src/hal/lv_hal_disp.c ****     draw_buf->buf1    = buf1;
 155:lvgl/src/hal/lv_hal_disp.c ****     draw_buf->buf2    = buf2;
 156:lvgl/src/hal/lv_hal_disp.c ****     draw_buf->buf_act = draw_buf->buf1;
 157:lvgl/src/hal/lv_hal_disp.c ****     draw_buf->size    = size_in_px_cnt;
 158:lvgl/src/hal/lv_hal_disp.c **** }
 159:lvgl/src/hal/lv_hal_disp.c **** 
 160:lvgl/src/hal/lv_hal_disp.c **** /**
 161:lvgl/src/hal/lv_hal_disp.c ****  * Register an initialized display driver.
 162:lvgl/src/hal/lv_hal_disp.c ****  * Automatically set the first display as active.
 163:lvgl/src/hal/lv_hal_disp.c ****  * @param driver pointer to an initialized 'lv_disp_drv_t' variable. Only its pointer is saved!
 164:lvgl/src/hal/lv_hal_disp.c ****  * @return pointer to the new display or NULL on error
 165:lvgl/src/hal/lv_hal_disp.c ****  */
 166:lvgl/src/hal/lv_hal_disp.c **** lv_disp_t * lv_disp_drv_register(lv_disp_drv_t * driver)
 167:lvgl/src/hal/lv_hal_disp.c **** {
 168:lvgl/src/hal/lv_hal_disp.c ****     lv_disp_t * disp = _lv_ll_ins_head(&LV_GC_ROOT(_lv_disp_ll));
 169:lvgl/src/hal/lv_hal_disp.c ****     LV_ASSERT_MALLOC(disp);
 170:lvgl/src/hal/lv_hal_disp.c ****     if(!disp) {
 171:lvgl/src/hal/lv_hal_disp.c ****         return NULL;
 172:lvgl/src/hal/lv_hal_disp.c ****     }
 173:lvgl/src/hal/lv_hal_disp.c **** 
 174:lvgl/src/hal/lv_hal_disp.c ****     /*Create a draw context if not created yet*/
 175:lvgl/src/hal/lv_hal_disp.c ****     if(driver->draw_ctx == NULL) {
 176:lvgl/src/hal/lv_hal_disp.c ****         lv_draw_ctx_t * draw_ctx = lv_mem_alloc(driver->draw_ctx_size);
 177:lvgl/src/hal/lv_hal_disp.c ****         LV_ASSERT_MALLOC(draw_ctx);
 178:lvgl/src/hal/lv_hal_disp.c ****         if(draw_ctx == NULL) return NULL;
 179:lvgl/src/hal/lv_hal_disp.c ****         driver->draw_ctx_init(driver, draw_ctx);
 180:lvgl/src/hal/lv_hal_disp.c ****         driver->draw_ctx = draw_ctx;
 181:lvgl/src/hal/lv_hal_disp.c ****     }
 182:lvgl/src/hal/lv_hal_disp.c **** 
 183:lvgl/src/hal/lv_hal_disp.c ****     lv_memset_00(disp, sizeof(lv_disp_t));
 184:lvgl/src/hal/lv_hal_disp.c **** 
 185:lvgl/src/hal/lv_hal_disp.c ****     disp->driver = driver;
 186:lvgl/src/hal/lv_hal_disp.c **** 
 187:lvgl/src/hal/lv_hal_disp.c ****     disp->inv_en_cnt = 1;
 188:lvgl/src/hal/lv_hal_disp.c **** 
 189:lvgl/src/hal/lv_hal_disp.c ****     _lv_ll_init(&disp->sync_areas, sizeof(lv_area_t));
 190:lvgl/src/hal/lv_hal_disp.c **** 
 191:lvgl/src/hal/lv_hal_disp.c ****     lv_disp_t * disp_def_tmp = disp_def;
 192:lvgl/src/hal/lv_hal_disp.c ****     disp_def                 = disp; /*Temporarily change the default screen to create the default 
 193:lvgl/src/hal/lv_hal_disp.c ****                                         new display*/
 194:lvgl/src/hal/lv_hal_disp.c ****     /*Create a refresh timer*/
 195:lvgl/src/hal/lv_hal_disp.c ****     disp->refr_timer = lv_timer_create(_lv_disp_refr_timer, LV_DISP_DEF_REFR_PERIOD, disp);
 196:lvgl/src/hal/lv_hal_disp.c ****     LV_ASSERT_MALLOC(disp->refr_timer);
 197:lvgl/src/hal/lv_hal_disp.c ****     if(disp->refr_timer == NULL) {
 198:lvgl/src/hal/lv_hal_disp.c ****         lv_mem_free(disp);
 199:lvgl/src/hal/lv_hal_disp.c ****         return NULL;
 200:lvgl/src/hal/lv_hal_disp.c ****     }
 201:lvgl/src/hal/lv_hal_disp.c **** 
 202:lvgl/src/hal/lv_hal_disp.c ****     if(driver->full_refresh && driver->draw_buf->size < (uint32_t)driver->hor_res * driver->ver_res
ARM GAS  C:\Users\OSD\AppData\Local\Temp\ccDD6lYO.s 			page 5


 203:lvgl/src/hal/lv_hal_disp.c ****         driver->full_refresh = 0;
 204:lvgl/src/hal/lv_hal_disp.c ****         LV_LOG_WARN("full_refresh requires at least screen sized draw buffer(s)");
 205:lvgl/src/hal/lv_hal_disp.c ****     }
 206:lvgl/src/hal/lv_hal_disp.c **** 
 207:lvgl/src/hal/lv_hal_disp.c ****     disp->bg_color = lv_color_white();
 208:lvgl/src/hal/lv_hal_disp.c **** #if LV_COLOR_SCREEN_TRANSP
 209:lvgl/src/hal/lv_hal_disp.c ****     disp->bg_opa = LV_OPA_TRANSP;
 210:lvgl/src/hal/lv_hal_disp.c **** #else
 211:lvgl/src/hal/lv_hal_disp.c ****     disp->bg_opa = LV_OPA_COVER;
 212:lvgl/src/hal/lv_hal_disp.c **** #endif
 213:lvgl/src/hal/lv_hal_disp.c **** 
 214:lvgl/src/hal/lv_hal_disp.c **** #if LV_USE_THEME_DEFAULT
 215:lvgl/src/hal/lv_hal_disp.c ****     if(lv_theme_default_is_inited() == false) {
 216:lvgl/src/hal/lv_hal_disp.c ****         disp->theme = lv_theme_default_init(disp, lv_palette_main(LV_PALETTE_BLUE), lv_palette_main
 217:lvgl/src/hal/lv_hal_disp.c ****                                             LV_THEME_DEFAULT_DARK, LV_FONT_DEFAULT);
 218:lvgl/src/hal/lv_hal_disp.c ****     }
 219:lvgl/src/hal/lv_hal_disp.c ****     else {
 220:lvgl/src/hal/lv_hal_disp.c ****         disp->theme = lv_theme_default_get();
 221:lvgl/src/hal/lv_hal_disp.c ****     }
 222:lvgl/src/hal/lv_hal_disp.c **** #endif
 223:lvgl/src/hal/lv_hal_disp.c **** 
 224:lvgl/src/hal/lv_hal_disp.c ****     disp->act_scr   = lv_obj_create(NULL); /*Create a default screen on the display*/
 225:lvgl/src/hal/lv_hal_disp.c ****     disp->top_layer = lv_obj_create(NULL); /*Create top layer on the display*/
 226:lvgl/src/hal/lv_hal_disp.c ****     disp->sys_layer = lv_obj_create(NULL); /*Create sys layer on the display*/
 227:lvgl/src/hal/lv_hal_disp.c ****     lv_obj_remove_style_all(disp->top_layer);
 228:lvgl/src/hal/lv_hal_disp.c ****     lv_obj_remove_style_all(disp->sys_layer);
 229:lvgl/src/hal/lv_hal_disp.c ****     lv_obj_clear_flag(disp->top_layer, LV_OBJ_FLAG_CLICKABLE);
 230:lvgl/src/hal/lv_hal_disp.c ****     lv_obj_clear_flag(disp->sys_layer, LV_OBJ_FLAG_CLICKABLE);
 231:lvgl/src/hal/lv_hal_disp.c **** 
 232:lvgl/src/hal/lv_hal_disp.c ****     lv_obj_set_scrollbar_mode(disp->top_layer, LV_SCROLLBAR_MODE_OFF);
 233:lvgl/src/hal/lv_hal_disp.c ****     lv_obj_set_scrollbar_mode(disp->sys_layer, LV_SCROLLBAR_MODE_OFF);
 234:lvgl/src/hal/lv_hal_disp.c **** 
 235:lvgl/src/hal/lv_hal_disp.c ****     lv_obj_invalidate(disp->act_scr);
 236:lvgl/src/hal/lv_hal_disp.c **** 
 237:lvgl/src/hal/lv_hal_disp.c ****     disp_def = disp_def_tmp; /*Revert the default display*/
 238:lvgl/src/hal/lv_hal_disp.c ****     if(disp_def == NULL) disp_def = disp; /*Initialize the default display*/
 239:lvgl/src/hal/lv_hal_disp.c **** 
 240:lvgl/src/hal/lv_hal_disp.c ****     lv_timer_ready(disp->refr_timer); /*Be sure the screen will be refreshed immediately on start u
 241:lvgl/src/hal/lv_hal_disp.c **** 
 242:lvgl/src/hal/lv_hal_disp.c ****     return disp;
 243:lvgl/src/hal/lv_hal_disp.c **** }
 244:lvgl/src/hal/lv_hal_disp.c **** 
 245:lvgl/src/hal/lv_hal_disp.c **** /**
 246:lvgl/src/hal/lv_hal_disp.c ****  * Update the driver in run time.
 247:lvgl/src/hal/lv_hal_disp.c ****  * @param disp pointer to a display. (return value of `lv_disp_drv_register`)
 248:lvgl/src/hal/lv_hal_disp.c ****  * @param new_drv pointer to the new driver
 249:lvgl/src/hal/lv_hal_disp.c ****  */
 250:lvgl/src/hal/lv_hal_disp.c **** void lv_disp_drv_update(lv_disp_t * disp, lv_disp_drv_t * new_drv)
 251:lvgl/src/hal/lv_hal_disp.c **** {
 252:lvgl/src/hal/lv_hal_disp.c ****     disp->driver = new_drv;
 253:lvgl/src/hal/lv_hal_disp.c **** 
 254:lvgl/src/hal/lv_hal_disp.c ****     if(disp->driver->full_refresh &&
 255:lvgl/src/hal/lv_hal_disp.c ****        disp->driver->draw_buf->size < (uint32_t)disp->driver->hor_res * disp->driver->ver_res) {
 256:lvgl/src/hal/lv_hal_disp.c ****         disp->driver->full_refresh = 0;
 257:lvgl/src/hal/lv_hal_disp.c ****         LV_LOG_WARN("full_refresh requires at least screen sized draw buffer(s)");
 258:lvgl/src/hal/lv_hal_disp.c ****     }
 259:lvgl/src/hal/lv_hal_disp.c **** 
ARM GAS  C:\Users\OSD\AppData\Local\Temp\ccDD6lYO.s 			page 6


 260:lvgl/src/hal/lv_hal_disp.c ****     lv_coord_t w = lv_disp_get_hor_res(disp);
 261:lvgl/src/hal/lv_hal_disp.c ****     lv_coord_t h = lv_disp_get_ver_res(disp);
 262:lvgl/src/hal/lv_hal_disp.c ****     uint32_t i;
 263:lvgl/src/hal/lv_hal_disp.c ****     for(i = 0; i < disp->screen_cnt; i++) {
 264:lvgl/src/hal/lv_hal_disp.c ****         lv_area_t prev_coords;
 265:lvgl/src/hal/lv_hal_disp.c ****         lv_obj_get_coords(disp->screens[i], &prev_coords);
 266:lvgl/src/hal/lv_hal_disp.c ****         lv_area_set_width(&disp->screens[i]->coords, w);
 267:lvgl/src/hal/lv_hal_disp.c ****         lv_area_set_height(&disp->screens[i]->coords, h);
 268:lvgl/src/hal/lv_hal_disp.c ****         lv_event_send(disp->screens[i], LV_EVENT_SIZE_CHANGED, &prev_coords);
 269:lvgl/src/hal/lv_hal_disp.c ****     }
 270:lvgl/src/hal/lv_hal_disp.c **** 
 271:lvgl/src/hal/lv_hal_disp.c ****     /*
 272:lvgl/src/hal/lv_hal_disp.c ****      * This method is usually called upon orientation change, thus the screen is now a
 273:lvgl/src/hal/lv_hal_disp.c ****      * different size.
 274:lvgl/src/hal/lv_hal_disp.c ****      * The object invalidated its previous area. That area is now out of the screen area
 275:lvgl/src/hal/lv_hal_disp.c ****      * so we reset all invalidated areas and invalidate the active screen's new area only.
 276:lvgl/src/hal/lv_hal_disp.c ****      */
 277:lvgl/src/hal/lv_hal_disp.c ****     lv_memset_00(disp->inv_areas, sizeof(disp->inv_areas));
 278:lvgl/src/hal/lv_hal_disp.c ****     lv_memset_00(disp->inv_area_joined, sizeof(disp->inv_area_joined));
 279:lvgl/src/hal/lv_hal_disp.c ****     disp->inv_p = 0;
 280:lvgl/src/hal/lv_hal_disp.c ****     if(disp->act_scr != NULL) lv_obj_invalidate(disp->act_scr);
 281:lvgl/src/hal/lv_hal_disp.c **** 
 282:lvgl/src/hal/lv_hal_disp.c ****     lv_obj_tree_walk(NULL, invalidate_layout_cb, NULL);
 283:lvgl/src/hal/lv_hal_disp.c **** 
 284:lvgl/src/hal/lv_hal_disp.c ****     if(disp->driver->drv_update_cb) disp->driver->drv_update_cb(disp->driver);
 285:lvgl/src/hal/lv_hal_disp.c **** }
 286:lvgl/src/hal/lv_hal_disp.c **** 
 287:lvgl/src/hal/lv_hal_disp.c **** /**
 288:lvgl/src/hal/lv_hal_disp.c ****  * Remove a display
 289:lvgl/src/hal/lv_hal_disp.c ****  * @param disp pointer to display
 290:lvgl/src/hal/lv_hal_disp.c ****  */
 291:lvgl/src/hal/lv_hal_disp.c **** void lv_disp_remove(lv_disp_t * disp)
 292:lvgl/src/hal/lv_hal_disp.c **** {
 293:lvgl/src/hal/lv_hal_disp.c ****     bool was_default = false;
 294:lvgl/src/hal/lv_hal_disp.c ****     if(disp == lv_disp_get_default()) was_default = true;
 295:lvgl/src/hal/lv_hal_disp.c **** 
 296:lvgl/src/hal/lv_hal_disp.c ****     /*Detach the input devices*/
 297:lvgl/src/hal/lv_hal_disp.c ****     lv_indev_t * indev;
 298:lvgl/src/hal/lv_hal_disp.c ****     indev = lv_indev_get_next(NULL);
 299:lvgl/src/hal/lv_hal_disp.c ****     while(indev) {
 300:lvgl/src/hal/lv_hal_disp.c ****         if(indev->driver->disp == disp) {
 301:lvgl/src/hal/lv_hal_disp.c ****             indev->driver->disp = NULL;
 302:lvgl/src/hal/lv_hal_disp.c ****         }
 303:lvgl/src/hal/lv_hal_disp.c ****         indev = lv_indev_get_next(indev);
 304:lvgl/src/hal/lv_hal_disp.c ****     }
 305:lvgl/src/hal/lv_hal_disp.c **** 
 306:lvgl/src/hal/lv_hal_disp.c ****     /** delete screen and other obj */
 307:lvgl/src/hal/lv_hal_disp.c ****     if(disp->sys_layer) {
 308:lvgl/src/hal/lv_hal_disp.c ****         lv_obj_del(disp->sys_layer);
 309:lvgl/src/hal/lv_hal_disp.c ****         disp->sys_layer = NULL;
 310:lvgl/src/hal/lv_hal_disp.c ****     }
 311:lvgl/src/hal/lv_hal_disp.c ****     if(disp->top_layer) {
 312:lvgl/src/hal/lv_hal_disp.c ****         lv_obj_del(disp->top_layer);
 313:lvgl/src/hal/lv_hal_disp.c ****         disp->top_layer = NULL;
 314:lvgl/src/hal/lv_hal_disp.c ****     }
 315:lvgl/src/hal/lv_hal_disp.c ****     while(disp->screen_cnt != 0) {
 316:lvgl/src/hal/lv_hal_disp.c ****         /*Delete the screenst*/
ARM GAS  C:\Users\OSD\AppData\Local\Temp\ccDD6lYO.s 			page 7


 317:lvgl/src/hal/lv_hal_disp.c ****         lv_obj_del(disp->screens[0]);
 318:lvgl/src/hal/lv_hal_disp.c ****     }
 319:lvgl/src/hal/lv_hal_disp.c **** 
 320:lvgl/src/hal/lv_hal_disp.c ****     _lv_ll_remove(&LV_GC_ROOT(_lv_disp_ll), disp);
 321:lvgl/src/hal/lv_hal_disp.c ****     _lv_ll_clear(&disp->sync_areas);
 322:lvgl/src/hal/lv_hal_disp.c ****     if(disp->refr_timer) lv_timer_del(disp->refr_timer);
 323:lvgl/src/hal/lv_hal_disp.c ****     lv_mem_free(disp);
 324:lvgl/src/hal/lv_hal_disp.c **** 
 325:lvgl/src/hal/lv_hal_disp.c ****     if(was_default) lv_disp_set_default(_lv_ll_get_head(&LV_GC_ROOT(_lv_disp_ll)));
 326:lvgl/src/hal/lv_hal_disp.c **** }
 327:lvgl/src/hal/lv_hal_disp.c **** 
 328:lvgl/src/hal/lv_hal_disp.c **** /**
 329:lvgl/src/hal/lv_hal_disp.c ****  * Set a default display. The new screens will be created on it by default.
 330:lvgl/src/hal/lv_hal_disp.c ****  * @param disp pointer to a display
 331:lvgl/src/hal/lv_hal_disp.c ****  */
 332:lvgl/src/hal/lv_hal_disp.c **** void lv_disp_set_default(lv_disp_t * disp)
 333:lvgl/src/hal/lv_hal_disp.c **** {
 334:lvgl/src/hal/lv_hal_disp.c ****     disp_def = disp;
 335:lvgl/src/hal/lv_hal_disp.c **** }
 336:lvgl/src/hal/lv_hal_disp.c **** 
 337:lvgl/src/hal/lv_hal_disp.c **** /**
 338:lvgl/src/hal/lv_hal_disp.c ****  * Get the default display
 339:lvgl/src/hal/lv_hal_disp.c ****  * @return pointer to the default display
 340:lvgl/src/hal/lv_hal_disp.c ****  */
 341:lvgl/src/hal/lv_hal_disp.c **** lv_disp_t * lv_disp_get_default(void)
 342:lvgl/src/hal/lv_hal_disp.c **** {
 343:lvgl/src/hal/lv_hal_disp.c ****     return disp_def;
 344:lvgl/src/hal/lv_hal_disp.c **** }
 345:lvgl/src/hal/lv_hal_disp.c **** 
 346:lvgl/src/hal/lv_hal_disp.c **** /**
 347:lvgl/src/hal/lv_hal_disp.c ****  * Get the horizontal resolution of a display
 348:lvgl/src/hal/lv_hal_disp.c ****  * @param disp pointer to a display (NULL to use the default display)
 349:lvgl/src/hal/lv_hal_disp.c ****  * @return the horizontal resolution of the display
 350:lvgl/src/hal/lv_hal_disp.c ****  */
 351:lvgl/src/hal/lv_hal_disp.c **** lv_coord_t lv_disp_get_hor_res(lv_disp_t * disp)
 352:lvgl/src/hal/lv_hal_disp.c **** {
 353:lvgl/src/hal/lv_hal_disp.c ****     if(disp == NULL) disp = lv_disp_get_default();
 354:lvgl/src/hal/lv_hal_disp.c **** 
 355:lvgl/src/hal/lv_hal_disp.c ****     if(disp == NULL) {
 356:lvgl/src/hal/lv_hal_disp.c ****         return 0;
 357:lvgl/src/hal/lv_hal_disp.c ****     }
 358:lvgl/src/hal/lv_hal_disp.c ****     else {
 359:lvgl/src/hal/lv_hal_disp.c ****         switch(disp->driver->rotated) {
 360:lvgl/src/hal/lv_hal_disp.c ****             case LV_DISP_ROT_90:
 361:lvgl/src/hal/lv_hal_disp.c ****             case LV_DISP_ROT_270:
 362:lvgl/src/hal/lv_hal_disp.c ****                 return disp->driver->ver_res;
 363:lvgl/src/hal/lv_hal_disp.c ****             default:
 364:lvgl/src/hal/lv_hal_disp.c ****                 return disp->driver->hor_res;
 365:lvgl/src/hal/lv_hal_disp.c ****         }
 366:lvgl/src/hal/lv_hal_disp.c ****     }
 367:lvgl/src/hal/lv_hal_disp.c **** }
 368:lvgl/src/hal/lv_hal_disp.c **** 
 369:lvgl/src/hal/lv_hal_disp.c **** /**
 370:lvgl/src/hal/lv_hal_disp.c ****  * Get the vertical resolution of a display
 371:lvgl/src/hal/lv_hal_disp.c ****  * @param disp pointer to a display (NULL to use the default display)
 372:lvgl/src/hal/lv_hal_disp.c ****  * @return the vertical resolution of the display
 373:lvgl/src/hal/lv_hal_disp.c ****  */
ARM GAS  C:\Users\OSD\AppData\Local\Temp\ccDD6lYO.s 			page 8


 374:lvgl/src/hal/lv_hal_disp.c **** lv_coord_t lv_disp_get_ver_res(lv_disp_t * disp)
 375:lvgl/src/hal/lv_hal_disp.c **** {
 376:lvgl/src/hal/lv_hal_disp.c ****     if(disp == NULL) disp = lv_disp_get_default();
 377:lvgl/src/hal/lv_hal_disp.c **** 
 378:lvgl/src/hal/lv_hal_disp.c ****     if(disp == NULL) {
 379:lvgl/src/hal/lv_hal_disp.c ****         return 0;
 380:lvgl/src/hal/lv_hal_disp.c ****     }
 381:lvgl/src/hal/lv_hal_disp.c ****     else {
 382:lvgl/src/hal/lv_hal_disp.c ****         switch(disp->driver->rotated) {
 383:lvgl/src/hal/lv_hal_disp.c ****             case LV_DISP_ROT_90:
 384:lvgl/src/hal/lv_hal_disp.c ****             case LV_DISP_ROT_270:
 385:lvgl/src/hal/lv_hal_disp.c ****                 return disp->driver->hor_res;
 386:lvgl/src/hal/lv_hal_disp.c ****             default:
 387:lvgl/src/hal/lv_hal_disp.c ****                 return disp->driver->ver_res;
 388:lvgl/src/hal/lv_hal_disp.c ****         }
 389:lvgl/src/hal/lv_hal_disp.c ****     }
 390:lvgl/src/hal/lv_hal_disp.c **** }
 391:lvgl/src/hal/lv_hal_disp.c **** 
 392:lvgl/src/hal/lv_hal_disp.c **** /**
 393:lvgl/src/hal/lv_hal_disp.c ****  * Get the full / physical horizontal resolution of a display
 394:lvgl/src/hal/lv_hal_disp.c ****  * @param disp pointer to a display (NULL to use the default display)
 395:lvgl/src/hal/lv_hal_disp.c ****  * @return the full / physical horizontal resolution of the display
 396:lvgl/src/hal/lv_hal_disp.c ****  */
 397:lvgl/src/hal/lv_hal_disp.c **** lv_coord_t lv_disp_get_physical_hor_res(lv_disp_t * disp)
 398:lvgl/src/hal/lv_hal_disp.c **** {
 399:lvgl/src/hal/lv_hal_disp.c ****     if(disp == NULL) disp = lv_disp_get_default();
 400:lvgl/src/hal/lv_hal_disp.c **** 
 401:lvgl/src/hal/lv_hal_disp.c ****     if(disp == NULL) {
 402:lvgl/src/hal/lv_hal_disp.c ****         return 0;
 403:lvgl/src/hal/lv_hal_disp.c ****     }
 404:lvgl/src/hal/lv_hal_disp.c ****     else {
 405:lvgl/src/hal/lv_hal_disp.c ****         switch(disp->driver->rotated) {
 406:lvgl/src/hal/lv_hal_disp.c ****             case LV_DISP_ROT_90:
 407:lvgl/src/hal/lv_hal_disp.c ****             case LV_DISP_ROT_270:
 408:lvgl/src/hal/lv_hal_disp.c ****                 return disp->driver->physical_ver_res > 0 ? disp->driver->physical_ver_res : disp->
 409:lvgl/src/hal/lv_hal_disp.c ****             default:
 410:lvgl/src/hal/lv_hal_disp.c ****                 return disp->driver->physical_hor_res > 0 ? disp->driver->physical_hor_res : disp->
 411:lvgl/src/hal/lv_hal_disp.c ****         }
 412:lvgl/src/hal/lv_hal_disp.c ****     }
 413:lvgl/src/hal/lv_hal_disp.c **** }
 414:lvgl/src/hal/lv_hal_disp.c **** 
 415:lvgl/src/hal/lv_hal_disp.c **** /**
 416:lvgl/src/hal/lv_hal_disp.c ****  * Get the full / physical vertical resolution of a display
 417:lvgl/src/hal/lv_hal_disp.c ****  * @param disp pointer to a display (NULL to use the default display)
 418:lvgl/src/hal/lv_hal_disp.c ****  * @return the full / physical vertical resolution of the display
 419:lvgl/src/hal/lv_hal_disp.c ****  */
 420:lvgl/src/hal/lv_hal_disp.c **** lv_coord_t lv_disp_get_physical_ver_res(lv_disp_t * disp)
 421:lvgl/src/hal/lv_hal_disp.c **** {
 422:lvgl/src/hal/lv_hal_disp.c ****     if(disp == NULL) disp = lv_disp_get_default();
 423:lvgl/src/hal/lv_hal_disp.c **** 
 424:lvgl/src/hal/lv_hal_disp.c ****     if(disp == NULL) {
 425:lvgl/src/hal/lv_hal_disp.c ****         return 0;
 426:lvgl/src/hal/lv_hal_disp.c ****     }
 427:lvgl/src/hal/lv_hal_disp.c ****     else {
 428:lvgl/src/hal/lv_hal_disp.c ****         switch(disp->driver->rotated) {
 429:lvgl/src/hal/lv_hal_disp.c ****             case LV_DISP_ROT_90:
 430:lvgl/src/hal/lv_hal_disp.c ****             case LV_DISP_ROT_270:
ARM GAS  C:\Users\OSD\AppData\Local\Temp\ccDD6lYO.s 			page 9


 431:lvgl/src/hal/lv_hal_disp.c ****                 return disp->driver->physical_hor_res > 0 ? disp->driver->physical_hor_res : disp->
 432:lvgl/src/hal/lv_hal_disp.c ****             default:
 433:lvgl/src/hal/lv_hal_disp.c ****                 return disp->driver->physical_ver_res > 0 ? disp->driver->physical_ver_res : disp->
 434:lvgl/src/hal/lv_hal_disp.c ****         }
 435:lvgl/src/hal/lv_hal_disp.c ****     }
 436:lvgl/src/hal/lv_hal_disp.c **** }
 437:lvgl/src/hal/lv_hal_disp.c **** 
 438:lvgl/src/hal/lv_hal_disp.c **** /**
 439:lvgl/src/hal/lv_hal_disp.c ****  * Get the horizontal offset from the full / physical display
 440:lvgl/src/hal/lv_hal_disp.c ****  * @param disp pointer to a display (NULL to use the default display)
 441:lvgl/src/hal/lv_hal_disp.c ****  * @return the horizontal offset from the full / physical display
 442:lvgl/src/hal/lv_hal_disp.c ****  */
 443:lvgl/src/hal/lv_hal_disp.c **** lv_coord_t lv_disp_get_offset_x(lv_disp_t * disp)
 444:lvgl/src/hal/lv_hal_disp.c **** {
 445:lvgl/src/hal/lv_hal_disp.c ****     if(disp == NULL) disp = lv_disp_get_default();
 446:lvgl/src/hal/lv_hal_disp.c **** 
 447:lvgl/src/hal/lv_hal_disp.c ****     if(disp == NULL) {
 448:lvgl/src/hal/lv_hal_disp.c ****         return 0;
 449:lvgl/src/hal/lv_hal_disp.c ****     }
 450:lvgl/src/hal/lv_hal_disp.c ****     else {
 451:lvgl/src/hal/lv_hal_disp.c ****         switch(disp->driver->rotated) {
 452:lvgl/src/hal/lv_hal_disp.c ****             case LV_DISP_ROT_90:
 453:lvgl/src/hal/lv_hal_disp.c ****                 return disp->driver->offset_y;
 454:lvgl/src/hal/lv_hal_disp.c ****             case LV_DISP_ROT_180:
 455:lvgl/src/hal/lv_hal_disp.c ****                 return lv_disp_get_physical_hor_res(disp) - disp->driver->offset_x;
 456:lvgl/src/hal/lv_hal_disp.c ****             case LV_DISP_ROT_270:
 457:lvgl/src/hal/lv_hal_disp.c ****                 return lv_disp_get_physical_hor_res(disp) - disp->driver->offset_y;
 458:lvgl/src/hal/lv_hal_disp.c ****             default:
 459:lvgl/src/hal/lv_hal_disp.c ****                 return disp->driver->offset_x;
 460:lvgl/src/hal/lv_hal_disp.c ****         }
 461:lvgl/src/hal/lv_hal_disp.c ****     }
 462:lvgl/src/hal/lv_hal_disp.c **** }
 463:lvgl/src/hal/lv_hal_disp.c **** 
 464:lvgl/src/hal/lv_hal_disp.c **** /**
 465:lvgl/src/hal/lv_hal_disp.c ****  * Get the vertical offset from the full / physical display
 466:lvgl/src/hal/lv_hal_disp.c ****  * @param disp pointer to a display (NULL to use the default display)
 467:lvgl/src/hal/lv_hal_disp.c ****  * @return the horizontal offset from the full / physical display
 468:lvgl/src/hal/lv_hal_disp.c ****  */
 469:lvgl/src/hal/lv_hal_disp.c **** lv_coord_t lv_disp_get_offset_y(lv_disp_t * disp)
 470:lvgl/src/hal/lv_hal_disp.c **** {
 471:lvgl/src/hal/lv_hal_disp.c ****     if(disp == NULL) disp = lv_disp_get_default();
 472:lvgl/src/hal/lv_hal_disp.c **** 
 473:lvgl/src/hal/lv_hal_disp.c ****     if(disp == NULL) {
 474:lvgl/src/hal/lv_hal_disp.c ****         return 0;
 475:lvgl/src/hal/lv_hal_disp.c ****     }
 476:lvgl/src/hal/lv_hal_disp.c ****     else {
 477:lvgl/src/hal/lv_hal_disp.c ****         switch(disp->driver->rotated) {
 478:lvgl/src/hal/lv_hal_disp.c ****             case LV_DISP_ROT_90:
 479:lvgl/src/hal/lv_hal_disp.c ****                 return disp->driver->offset_x;
 480:lvgl/src/hal/lv_hal_disp.c ****             case LV_DISP_ROT_180:
 481:lvgl/src/hal/lv_hal_disp.c ****                 return lv_disp_get_physical_ver_res(disp) - disp->driver->offset_y;
 482:lvgl/src/hal/lv_hal_disp.c ****             case LV_DISP_ROT_270:
 483:lvgl/src/hal/lv_hal_disp.c ****                 return lv_disp_get_physical_ver_res(disp) - disp->driver->offset_x;
 484:lvgl/src/hal/lv_hal_disp.c ****             default:
 485:lvgl/src/hal/lv_hal_disp.c ****                 return disp->driver->offset_y;
 486:lvgl/src/hal/lv_hal_disp.c ****         }
 487:lvgl/src/hal/lv_hal_disp.c ****     }
ARM GAS  C:\Users\OSD\AppData\Local\Temp\ccDD6lYO.s 			page 10


 488:lvgl/src/hal/lv_hal_disp.c **** }
 489:lvgl/src/hal/lv_hal_disp.c **** 
 490:lvgl/src/hal/lv_hal_disp.c **** /**
 491:lvgl/src/hal/lv_hal_disp.c ****  * Get if anti-aliasing is enabled for a display or not
 492:lvgl/src/hal/lv_hal_disp.c ****  * @param disp pointer to a display (NULL to use the default display)
 493:lvgl/src/hal/lv_hal_disp.c ****  * @return true: anti-aliasing is enabled; false: disabled
 494:lvgl/src/hal/lv_hal_disp.c ****  */
 495:lvgl/src/hal/lv_hal_disp.c **** bool lv_disp_get_antialiasing(lv_disp_t * disp)
 496:lvgl/src/hal/lv_hal_disp.c **** {
 497:lvgl/src/hal/lv_hal_disp.c ****     if(disp == NULL) disp = lv_disp_get_default();
 498:lvgl/src/hal/lv_hal_disp.c ****     if(disp == NULL) return false;
 499:lvgl/src/hal/lv_hal_disp.c **** 
 500:lvgl/src/hal/lv_hal_disp.c ****     return disp->driver->antialiasing ? true : false;
 501:lvgl/src/hal/lv_hal_disp.c **** }
 502:lvgl/src/hal/lv_hal_disp.c **** 
 503:lvgl/src/hal/lv_hal_disp.c **** /**
 504:lvgl/src/hal/lv_hal_disp.c ****  * Get the DPI of the display
 505:lvgl/src/hal/lv_hal_disp.c ****  * @param disp pointer to a display (NULL to use the default display)
 506:lvgl/src/hal/lv_hal_disp.c ****  * @return dpi of the display
 507:lvgl/src/hal/lv_hal_disp.c ****  */
 508:lvgl/src/hal/lv_hal_disp.c **** lv_coord_t lv_disp_get_dpi(const lv_disp_t * disp)
 509:lvgl/src/hal/lv_hal_disp.c **** {
 510:lvgl/src/hal/lv_hal_disp.c ****     if(disp == NULL) disp = lv_disp_get_default();
 511:lvgl/src/hal/lv_hal_disp.c ****     if(disp == NULL) return LV_DPI_DEF;  /*Do not return 0 because it might be a divider*/
 512:lvgl/src/hal/lv_hal_disp.c ****     return disp->driver->dpi;
 513:lvgl/src/hal/lv_hal_disp.c **** }
 514:lvgl/src/hal/lv_hal_disp.c **** 
 515:lvgl/src/hal/lv_hal_disp.c **** /**
 516:lvgl/src/hal/lv_hal_disp.c ****  * Call in the display driver's `flush_cb` function when the flushing is finished
 517:lvgl/src/hal/lv_hal_disp.c ****  * @param disp_drv pointer to display driver in `flush_cb` where this function is called
 518:lvgl/src/hal/lv_hal_disp.c ****  */
 519:lvgl/src/hal/lv_hal_disp.c **** void LV_ATTRIBUTE_FLUSH_READY lv_disp_flush_ready(lv_disp_drv_t * disp_drv)
 520:lvgl/src/hal/lv_hal_disp.c **** {
 521:lvgl/src/hal/lv_hal_disp.c ****     disp_drv->draw_buf->flushing = 0;
 522:lvgl/src/hal/lv_hal_disp.c ****     disp_drv->draw_buf->flushing_last = 0;
 523:lvgl/src/hal/lv_hal_disp.c **** }
 524:lvgl/src/hal/lv_hal_disp.c **** 
 525:lvgl/src/hal/lv_hal_disp.c **** /**
 526:lvgl/src/hal/lv_hal_disp.c ****  * Tell if it's the last area of the refreshing process.
 527:lvgl/src/hal/lv_hal_disp.c ****  * Can be called from `flush_cb` to execute some special display refreshing if needed when all area
 528:lvgl/src/hal/lv_hal_disp.c ****  * @param disp_drv pointer to display driver
 529:lvgl/src/hal/lv_hal_disp.c ****  * @return true: it's the last area to flush; false: there are other areas too which will be refres
 530:lvgl/src/hal/lv_hal_disp.c ****  */
 531:lvgl/src/hal/lv_hal_disp.c **** bool LV_ATTRIBUTE_FLUSH_READY lv_disp_flush_is_last(lv_disp_drv_t * disp_drv)
 532:lvgl/src/hal/lv_hal_disp.c **** {
 533:lvgl/src/hal/lv_hal_disp.c ****     return disp_drv->draw_buf->flushing_last;
 534:lvgl/src/hal/lv_hal_disp.c **** }
 535:lvgl/src/hal/lv_hal_disp.c **** 
 536:lvgl/src/hal/lv_hal_disp.c **** /**
 537:lvgl/src/hal/lv_hal_disp.c ****  * Get the next display.
 538:lvgl/src/hal/lv_hal_disp.c ****  * @param disp pointer to the current display. NULL to initialize.
 539:lvgl/src/hal/lv_hal_disp.c ****  * @return the next display or NULL if no more. Give the first display when the parameter is NULL
 540:lvgl/src/hal/lv_hal_disp.c ****  */
 541:lvgl/src/hal/lv_hal_disp.c **** lv_disp_t * lv_disp_get_next(lv_disp_t * disp)
 542:lvgl/src/hal/lv_hal_disp.c **** {
 543:lvgl/src/hal/lv_hal_disp.c ****     if(disp == NULL)
 544:lvgl/src/hal/lv_hal_disp.c ****         return _lv_ll_get_head(&LV_GC_ROOT(_lv_disp_ll));
ARM GAS  C:\Users\OSD\AppData\Local\Temp\ccDD6lYO.s 			page 11


 545:lvgl/src/hal/lv_hal_disp.c ****     else
 546:lvgl/src/hal/lv_hal_disp.c ****         return _lv_ll_get_next(&LV_GC_ROOT(_lv_disp_ll), disp);
 547:lvgl/src/hal/lv_hal_disp.c **** }
 548:lvgl/src/hal/lv_hal_disp.c **** 
 549:lvgl/src/hal/lv_hal_disp.c **** /**
 550:lvgl/src/hal/lv_hal_disp.c ****  * Get the internal buffer of a display
 551:lvgl/src/hal/lv_hal_disp.c ****  * @param disp pointer to a display
 552:lvgl/src/hal/lv_hal_disp.c ****  * @return pointer to the internal buffers
 553:lvgl/src/hal/lv_hal_disp.c ****  */
 554:lvgl/src/hal/lv_hal_disp.c **** lv_disp_draw_buf_t * lv_disp_get_draw_buf(lv_disp_t * disp)
 555:lvgl/src/hal/lv_hal_disp.c **** {
 556:lvgl/src/hal/lv_hal_disp.c ****     return disp->driver->draw_buf;
 557:lvgl/src/hal/lv_hal_disp.c **** }
 558:lvgl/src/hal/lv_hal_disp.c **** 
 559:lvgl/src/hal/lv_hal_disp.c **** /**
 560:lvgl/src/hal/lv_hal_disp.c ****  * Set the rotation of this display.
 561:lvgl/src/hal/lv_hal_disp.c ****  * @param disp pointer to a display (NULL to use the default display)
 562:lvgl/src/hal/lv_hal_disp.c ****  * @param rotation rotation angle
 563:lvgl/src/hal/lv_hal_disp.c ****  */
 564:lvgl/src/hal/lv_hal_disp.c **** void lv_disp_set_rotation(lv_disp_t * disp, lv_disp_rot_t rotation)
 565:lvgl/src/hal/lv_hal_disp.c **** {
 566:lvgl/src/hal/lv_hal_disp.c ****     if(disp == NULL) disp = lv_disp_get_default();
 567:lvgl/src/hal/lv_hal_disp.c ****     if(disp == NULL) return;
 568:lvgl/src/hal/lv_hal_disp.c **** 
 569:lvgl/src/hal/lv_hal_disp.c ****     disp->driver->rotated = rotation;
 570:lvgl/src/hal/lv_hal_disp.c ****     lv_disp_drv_update(disp, disp->driver);
 571:lvgl/src/hal/lv_hal_disp.c **** }
 572:lvgl/src/hal/lv_hal_disp.c **** 
 573:lvgl/src/hal/lv_hal_disp.c **** /**
 574:lvgl/src/hal/lv_hal_disp.c ****  * Get the current rotation of this display.
 575:lvgl/src/hal/lv_hal_disp.c ****  * @param disp pointer to a display (NULL to use the default display)
 576:lvgl/src/hal/lv_hal_disp.c ****  * @return rotation angle
 577:lvgl/src/hal/lv_hal_disp.c ****  */
 578:lvgl/src/hal/lv_hal_disp.c **** lv_disp_rot_t lv_disp_get_rotation(lv_disp_t * disp)
 579:lvgl/src/hal/lv_hal_disp.c **** {
 580:lvgl/src/hal/lv_hal_disp.c ****     if(disp == NULL) disp = lv_disp_get_default();
 581:lvgl/src/hal/lv_hal_disp.c ****     if(disp == NULL) return LV_DISP_ROT_NONE;
 582:lvgl/src/hal/lv_hal_disp.c ****     return disp->driver->rotated;
 583:lvgl/src/hal/lv_hal_disp.c **** }
 584:lvgl/src/hal/lv_hal_disp.c **** 
 585:lvgl/src/hal/lv_hal_disp.c **** void lv_disp_drv_use_generic_set_px_cb(lv_disp_drv_t * disp_drv, lv_img_cf_t cf)
 586:lvgl/src/hal/lv_hal_disp.c **** {
 587:lvgl/src/hal/lv_hal_disp.c ****     switch(cf) {
 588:lvgl/src/hal/lv_hal_disp.c ****         case LV_IMG_CF_TRUE_COLOR_ALPHA:
 589:lvgl/src/hal/lv_hal_disp.c ****             disp_drv->set_px_cb = set_px_true_color_alpha;
 590:lvgl/src/hal/lv_hal_disp.c ****             break;
 591:lvgl/src/hal/lv_hal_disp.c ****         case LV_IMG_CF_ALPHA_1BIT:
 592:lvgl/src/hal/lv_hal_disp.c ****             disp_drv->set_px_cb = set_px_cb_alpha1;
 593:lvgl/src/hal/lv_hal_disp.c ****             break;
 594:lvgl/src/hal/lv_hal_disp.c ****         case LV_IMG_CF_ALPHA_2BIT:
 595:lvgl/src/hal/lv_hal_disp.c ****             disp_drv->set_px_cb = set_px_cb_alpha2;
 596:lvgl/src/hal/lv_hal_disp.c ****             break;
 597:lvgl/src/hal/lv_hal_disp.c ****         case LV_IMG_CF_ALPHA_4BIT:
 598:lvgl/src/hal/lv_hal_disp.c ****             disp_drv->set_px_cb = set_px_cb_alpha4;
 599:lvgl/src/hal/lv_hal_disp.c ****             break;
 600:lvgl/src/hal/lv_hal_disp.c ****         case LV_IMG_CF_ALPHA_8BIT:
 601:lvgl/src/hal/lv_hal_disp.c ****             disp_drv->set_px_cb = set_px_cb_alpha8;
ARM GAS  C:\Users\OSD\AppData\Local\Temp\ccDD6lYO.s 			page 12


 602:lvgl/src/hal/lv_hal_disp.c ****             break;
 603:lvgl/src/hal/lv_hal_disp.c ****         default:
 604:lvgl/src/hal/lv_hal_disp.c ****             disp_drv->set_px_cb = NULL;
 605:lvgl/src/hal/lv_hal_disp.c ****     }
 606:lvgl/src/hal/lv_hal_disp.c **** }
 607:lvgl/src/hal/lv_hal_disp.c **** 
 608:lvgl/src/hal/lv_hal_disp.c **** /**********************
 609:lvgl/src/hal/lv_hal_disp.c ****  *   STATIC FUNCTIONS
 610:lvgl/src/hal/lv_hal_disp.c ****  **********************/
 611:lvgl/src/hal/lv_hal_disp.c **** 
 612:lvgl/src/hal/lv_hal_disp.c **** static lv_obj_tree_walk_res_t invalidate_layout_cb(lv_obj_t * obj, void * user_data)
 613:lvgl/src/hal/lv_hal_disp.c **** {
  28              		.loc 1 613 1 view -0
  29              		.cfi_startproc
  30              		@ args = 0, pretend = 0, frame = 0
  31              		@ frame_needed = 0, uses_anonymous_args = 0
  32              		.loc 1 613 1 is_stmt 0 view .LVU1
  33 0000 08B5     		push	{r3, lr}
  34              		.cfi_def_cfa_offset 8
  35              		.cfi_offset 3, -8
  36              		.cfi_offset 14, -4
 614:lvgl/src/hal/lv_hal_disp.c ****     LV_UNUSED(user_data);
  37              		.loc 1 614 5 is_stmt 1 view .LVU2
 615:lvgl/src/hal/lv_hal_disp.c ****     lv_obj_mark_layout_as_dirty(obj);
  38              		.loc 1 615 5 view .LVU3
  39 0002 FFF7FEFF 		bl	lv_obj_mark_layout_as_dirty
  40              	.LVL1:
 616:lvgl/src/hal/lv_hal_disp.c ****     return LV_OBJ_TREE_WALK_NEXT;
  41              		.loc 1 616 5 view .LVU4
 617:lvgl/src/hal/lv_hal_disp.c **** }
  42              		.loc 1 617 1 is_stmt 0 view .LVU5
  43 0006 0020     		movs	r0, #0
  44 0008 08BD     		pop	{r3, pc}
  45              		.cfi_endproc
  46              	.LFE183:
  48              		.section	.text.set_px_alpha_generic,"ax",%progbits
  49              		.align	1
  50              		.syntax unified
  51              		.thumb
  52              		.thumb_func
  54              	set_px_alpha_generic:
  55              	.LVL2:
  56              	.LFB188:
 618:lvgl/src/hal/lv_hal_disp.c **** 
 619:lvgl/src/hal/lv_hal_disp.c **** static void set_px_cb_alpha1(lv_disp_drv_t * disp_drv, uint8_t * buf, lv_coord_t buf_w, lv_coord_t 
 620:lvgl/src/hal/lv_hal_disp.c ****                              lv_color_t color, lv_opa_t opa)
 621:lvgl/src/hal/lv_hal_disp.c **** {
 622:lvgl/src/hal/lv_hal_disp.c ****     (void) disp_drv; /*Unused*/
 623:lvgl/src/hal/lv_hal_disp.c **** 
 624:lvgl/src/hal/lv_hal_disp.c ****     if(opa <= LV_OPA_MIN) return;
 625:lvgl/src/hal/lv_hal_disp.c ****     lv_img_dsc_t d;
 626:lvgl/src/hal/lv_hal_disp.c ****     d.data = buf;
 627:lvgl/src/hal/lv_hal_disp.c ****     d.header.w = buf_w;
 628:lvgl/src/hal/lv_hal_disp.c ****     d.header.cf = LV_IMG_CF_ALPHA_1BIT;
 629:lvgl/src/hal/lv_hal_disp.c **** 
 630:lvgl/src/hal/lv_hal_disp.c ****     set_px_alpha_generic(&d, x, y, color, opa);
 631:lvgl/src/hal/lv_hal_disp.c **** }
ARM GAS  C:\Users\OSD\AppData\Local\Temp\ccDD6lYO.s 			page 13


 632:lvgl/src/hal/lv_hal_disp.c **** 
 633:lvgl/src/hal/lv_hal_disp.c **** static void set_px_cb_alpha2(lv_disp_drv_t * disp_drv, uint8_t * buf, lv_coord_t buf_w, lv_coord_t 
 634:lvgl/src/hal/lv_hal_disp.c ****                              lv_color_t color, lv_opa_t opa)
 635:lvgl/src/hal/lv_hal_disp.c **** {
 636:lvgl/src/hal/lv_hal_disp.c ****     (void) disp_drv; /*Unused*/
 637:lvgl/src/hal/lv_hal_disp.c **** 
 638:lvgl/src/hal/lv_hal_disp.c ****     if(opa <= LV_OPA_MIN) return;
 639:lvgl/src/hal/lv_hal_disp.c ****     lv_img_dsc_t d;
 640:lvgl/src/hal/lv_hal_disp.c ****     d.data = buf;
 641:lvgl/src/hal/lv_hal_disp.c ****     d.header.w = buf_w;
 642:lvgl/src/hal/lv_hal_disp.c ****     d.header.cf = LV_IMG_CF_ALPHA_2BIT;
 643:lvgl/src/hal/lv_hal_disp.c **** 
 644:lvgl/src/hal/lv_hal_disp.c ****     set_px_alpha_generic(&d, x, y, color, opa);
 645:lvgl/src/hal/lv_hal_disp.c **** }
 646:lvgl/src/hal/lv_hal_disp.c **** 
 647:lvgl/src/hal/lv_hal_disp.c **** static void set_px_cb_alpha4(lv_disp_drv_t * disp_drv, uint8_t * buf, lv_coord_t buf_w, lv_coord_t 
 648:lvgl/src/hal/lv_hal_disp.c ****                              lv_color_t color, lv_opa_t opa)
 649:lvgl/src/hal/lv_hal_disp.c **** {
 650:lvgl/src/hal/lv_hal_disp.c ****     (void) disp_drv; /*Unused*/
 651:lvgl/src/hal/lv_hal_disp.c **** 
 652:lvgl/src/hal/lv_hal_disp.c ****     if(opa <= LV_OPA_MIN) return;
 653:lvgl/src/hal/lv_hal_disp.c ****     lv_img_dsc_t d;
 654:lvgl/src/hal/lv_hal_disp.c ****     d.data = buf;
 655:lvgl/src/hal/lv_hal_disp.c ****     d.header.w = buf_w;
 656:lvgl/src/hal/lv_hal_disp.c ****     d.header.cf = LV_IMG_CF_ALPHA_4BIT;
 657:lvgl/src/hal/lv_hal_disp.c **** 
 658:lvgl/src/hal/lv_hal_disp.c ****     set_px_alpha_generic(&d, x, y, color, opa);
 659:lvgl/src/hal/lv_hal_disp.c **** }
 660:lvgl/src/hal/lv_hal_disp.c **** 
 661:lvgl/src/hal/lv_hal_disp.c **** static void set_px_cb_alpha8(lv_disp_drv_t * disp_drv, uint8_t * buf, lv_coord_t buf_w, lv_coord_t 
 662:lvgl/src/hal/lv_hal_disp.c ****                              lv_color_t color, lv_opa_t opa)
 663:lvgl/src/hal/lv_hal_disp.c **** {
 664:lvgl/src/hal/lv_hal_disp.c ****     (void) disp_drv; /*Unused*/
 665:lvgl/src/hal/lv_hal_disp.c **** 
 666:lvgl/src/hal/lv_hal_disp.c ****     if(opa <= LV_OPA_MIN) return;
 667:lvgl/src/hal/lv_hal_disp.c ****     lv_img_dsc_t d;
 668:lvgl/src/hal/lv_hal_disp.c ****     d.data = buf;
 669:lvgl/src/hal/lv_hal_disp.c ****     d.header.w = buf_w;
 670:lvgl/src/hal/lv_hal_disp.c ****     d.header.cf = LV_IMG_CF_ALPHA_8BIT;
 671:lvgl/src/hal/lv_hal_disp.c **** 
 672:lvgl/src/hal/lv_hal_disp.c ****     set_px_alpha_generic(&d, x, y, color, opa);
 673:lvgl/src/hal/lv_hal_disp.c **** }
 674:lvgl/src/hal/lv_hal_disp.c **** 
 675:lvgl/src/hal/lv_hal_disp.c **** static void set_px_alpha_generic(lv_img_dsc_t * d, lv_coord_t x, lv_coord_t y, lv_color_t color, lv
 676:lvgl/src/hal/lv_hal_disp.c **** {
  57              		.loc 1 676 1 is_stmt 1 view -0
  58              		.cfi_startproc
  59              		@ args = 4, pretend = 0, frame = 0
  60              		@ frame_needed = 0, uses_anonymous_args = 0
  61              		.loc 1 676 1 is_stmt 0 view .LVU7
  62 0000 2DE9F041 		push	{r4, r5, r6, r7, r8, lr}
  63              		.cfi_def_cfa_offset 24
  64              		.cfi_offset 4, -24
  65              		.cfi_offset 5, -20
  66              		.cfi_offset 6, -16
  67              		.cfi_offset 7, -12
  68              		.cfi_offset 8, -8
ARM GAS  C:\Users\OSD\AppData\Local\Temp\ccDD6lYO.s 			page 14


  69              		.cfi_offset 14, -4
  70 0004 0446     		mov	r4, r0
  71 0006 0D46     		mov	r5, r1
  72 0008 1646     		mov	r6, r2
  73 000a 9DF81870 		ldrb	r7, [sp, #24]	@ zero_extendqisi2
 677:lvgl/src/hal/lv_hal_disp.c ****     d->header.always_zero = 0;
  74              		.loc 1 677 5 is_stmt 1 view .LVU8
  75              		.loc 1 677 27 is_stmt 0 view .LVU9
  76 000e 0278     		ldrb	r2, [r0]	@ zero_extendqisi2
  77              	.LVL3:
  78              		.loc 1 677 27 view .LVU10
  79 0010 6FF34712 		bfc	r2, #5, #3
  80 0014 0270     		strb	r2, [r0]
 678:lvgl/src/hal/lv_hal_disp.c ****     d->header.h = 1;    /*Doesn't matter*/
  81              		.loc 1 678 5 is_stmt 1 view .LVU11
  82              		.loc 1 678 17 is_stmt 0 view .LVU12
  83 0016 4288     		ldrh	r2, [r0, #2]
  84 0018 0121     		movs	r1, #1
  85              	.LVL4:
  86              		.loc 1 678 17 view .LVU13
  87 001a 61F34F12 		bfi	r2, r1, #5, #11
  88 001e 4280     		strh	r2, [r0, #2]	@ movhi
 679:lvgl/src/hal/lv_hal_disp.c **** 
 680:lvgl/src/hal/lv_hal_disp.c ****     uint8_t br = lv_color_brightness(color);
  89              		.loc 1 680 5 is_stmt 1 view .LVU14
  90              	.LBB22:
  91              	.LBI22:
  92              		.file 2 "lvgl/src/hal/../draw/../misc/lv_color.h"
   1:lvgl/src/hal/../draw/../misc/lv_color.h **** /**
   2:lvgl/src/hal/../draw/../misc/lv_color.h ****  * @file lv_color.h
   3:lvgl/src/hal/../draw/../misc/lv_color.h ****  *
   4:lvgl/src/hal/../draw/../misc/lv_color.h ****  */
   5:lvgl/src/hal/../draw/../misc/lv_color.h **** 
   6:lvgl/src/hal/../draw/../misc/lv_color.h **** #ifndef LV_COLOR_H
   7:lvgl/src/hal/../draw/../misc/lv_color.h **** #define LV_COLOR_H
   8:lvgl/src/hal/../draw/../misc/lv_color.h **** 
   9:lvgl/src/hal/../draw/../misc/lv_color.h **** #ifdef __cplusplus
  10:lvgl/src/hal/../draw/../misc/lv_color.h **** extern "C" {
  11:lvgl/src/hal/../draw/../misc/lv_color.h **** #endif
  12:lvgl/src/hal/../draw/../misc/lv_color.h **** 
  13:lvgl/src/hal/../draw/../misc/lv_color.h **** /*********************
  14:lvgl/src/hal/../draw/../misc/lv_color.h ****  *      INCLUDES
  15:lvgl/src/hal/../draw/../misc/lv_color.h ****  *********************/
  16:lvgl/src/hal/../draw/../misc/lv_color.h **** #include "../lv_conf_internal.h"
  17:lvgl/src/hal/../draw/../misc/lv_color.h **** #include "lv_assert.h"
  18:lvgl/src/hal/../draw/../misc/lv_color.h **** #include "lv_math.h"
  19:lvgl/src/hal/../draw/../misc/lv_color.h **** #include "lv_types.h"
  20:lvgl/src/hal/../draw/../misc/lv_color.h **** 
  21:lvgl/src/hal/../draw/../misc/lv_color.h **** /*Error checking*/
  22:lvgl/src/hal/../draw/../misc/lv_color.h **** #if LV_COLOR_DEPTH == 24
  23:lvgl/src/hal/../draw/../misc/lv_color.h **** #error "LV_COLOR_DEPTH 24 is deprecated. Use LV_COLOR_DEPTH 32 instead (lv_conf.h)"
  24:lvgl/src/hal/../draw/../misc/lv_color.h **** #endif
  25:lvgl/src/hal/../draw/../misc/lv_color.h **** 
  26:lvgl/src/hal/../draw/../misc/lv_color.h **** #if LV_COLOR_DEPTH != 16 && LV_COLOR_16_SWAP != 0
  27:lvgl/src/hal/../draw/../misc/lv_color.h **** #error "LV_COLOR_16_SWAP requires LV_COLOR_DEPTH == 16. Set it in lv_conf.h"
  28:lvgl/src/hal/../draw/../misc/lv_color.h **** #endif
  29:lvgl/src/hal/../draw/../misc/lv_color.h **** 
ARM GAS  C:\Users\OSD\AppData\Local\Temp\ccDD6lYO.s 			page 15


  30:lvgl/src/hal/../draw/../misc/lv_color.h **** #include <stdint.h>
  31:lvgl/src/hal/../draw/../misc/lv_color.h **** 
  32:lvgl/src/hal/../draw/../misc/lv_color.h **** /*********************
  33:lvgl/src/hal/../draw/../misc/lv_color.h ****  *      DEFINES
  34:lvgl/src/hal/../draw/../misc/lv_color.h ****  *********************/
  35:lvgl/src/hal/../draw/../misc/lv_color.h **** LV_EXPORT_CONST_INT(LV_COLOR_DEPTH);
  36:lvgl/src/hal/../draw/../misc/lv_color.h **** LV_EXPORT_CONST_INT(LV_COLOR_16_SWAP);
  37:lvgl/src/hal/../draw/../misc/lv_color.h **** 
  38:lvgl/src/hal/../draw/../misc/lv_color.h **** /**
  39:lvgl/src/hal/../draw/../misc/lv_color.h ****  * Opacity percentages.
  40:lvgl/src/hal/../draw/../misc/lv_color.h ****  */
  41:lvgl/src/hal/../draw/../misc/lv_color.h **** enum {
  42:lvgl/src/hal/../draw/../misc/lv_color.h ****     LV_OPA_TRANSP = 0,
  43:lvgl/src/hal/../draw/../misc/lv_color.h ****     LV_OPA_0      = 0,
  44:lvgl/src/hal/../draw/../misc/lv_color.h ****     LV_OPA_10     = 25,
  45:lvgl/src/hal/../draw/../misc/lv_color.h ****     LV_OPA_20     = 51,
  46:lvgl/src/hal/../draw/../misc/lv_color.h ****     LV_OPA_30     = 76,
  47:lvgl/src/hal/../draw/../misc/lv_color.h ****     LV_OPA_40     = 102,
  48:lvgl/src/hal/../draw/../misc/lv_color.h ****     LV_OPA_50     = 127,
  49:lvgl/src/hal/../draw/../misc/lv_color.h ****     LV_OPA_60     = 153,
  50:lvgl/src/hal/../draw/../misc/lv_color.h ****     LV_OPA_70     = 178,
  51:lvgl/src/hal/../draw/../misc/lv_color.h ****     LV_OPA_80     = 204,
  52:lvgl/src/hal/../draw/../misc/lv_color.h ****     LV_OPA_90     = 229,
  53:lvgl/src/hal/../draw/../misc/lv_color.h ****     LV_OPA_100    = 255,
  54:lvgl/src/hal/../draw/../misc/lv_color.h ****     LV_OPA_COVER  = 255,
  55:lvgl/src/hal/../draw/../misc/lv_color.h **** };
  56:lvgl/src/hal/../draw/../misc/lv_color.h **** 
  57:lvgl/src/hal/../draw/../misc/lv_color.h **** #define LV_OPA_MIN 2    /*Opacities below this will be transparent*/
  58:lvgl/src/hal/../draw/../misc/lv_color.h **** #define LV_OPA_MAX 253  /*Opacities above this will fully cover*/
  59:lvgl/src/hal/../draw/../misc/lv_color.h **** 
  60:lvgl/src/hal/../draw/../misc/lv_color.h **** #if LV_COLOR_DEPTH == 1
  61:lvgl/src/hal/../draw/../misc/lv_color.h **** #define LV_COLOR_SIZE 8
  62:lvgl/src/hal/../draw/../misc/lv_color.h **** #elif LV_COLOR_DEPTH == 8
  63:lvgl/src/hal/../draw/../misc/lv_color.h **** #define LV_COLOR_SIZE 8
  64:lvgl/src/hal/../draw/../misc/lv_color.h **** #elif LV_COLOR_DEPTH == 16
  65:lvgl/src/hal/../draw/../misc/lv_color.h **** #define LV_COLOR_SIZE 16
  66:lvgl/src/hal/../draw/../misc/lv_color.h **** #elif LV_COLOR_DEPTH == 32
  67:lvgl/src/hal/../draw/../misc/lv_color.h **** #define LV_COLOR_SIZE 32
  68:lvgl/src/hal/../draw/../misc/lv_color.h **** #else
  69:lvgl/src/hal/../draw/../misc/lv_color.h **** #error "Invalid LV_COLOR_DEPTH in lv_conf.h! Set it to 1, 8, 16 or 32!"
  70:lvgl/src/hal/../draw/../misc/lv_color.h **** #endif
  71:lvgl/src/hal/../draw/../misc/lv_color.h **** 
  72:lvgl/src/hal/../draw/../misc/lv_color.h **** #if defined(__cplusplus) && !defined(_LV_COLOR_HAS_MODERN_CPP)
  73:lvgl/src/hal/../draw/../misc/lv_color.h **** /**
  74:lvgl/src/hal/../draw/../misc/lv_color.h **** * MSVC compiler's definition of the __cplusplus indicating 199711L regardless to C++ standard versi
  75:lvgl/src/hal/../draw/../misc/lv_color.h **** * see https://devblogs.microsoft.com/cppblog/msvc-now-correctly-reports-cplusplus
  76:lvgl/src/hal/../draw/../misc/lv_color.h **** * so we use _MSC_VER macro instead of __cplusplus
  77:lvgl/src/hal/../draw/../misc/lv_color.h **** */
  78:lvgl/src/hal/../draw/../misc/lv_color.h **** #ifdef _MSC_VER
  79:lvgl/src/hal/../draw/../misc/lv_color.h **** #if _MSC_VER >= 1900 /*Visual Studio 2015*/
  80:lvgl/src/hal/../draw/../misc/lv_color.h **** #define _LV_COLOR_HAS_MODERN_CPP 1
  81:lvgl/src/hal/../draw/../misc/lv_color.h **** #endif
  82:lvgl/src/hal/../draw/../misc/lv_color.h **** #else
  83:lvgl/src/hal/../draw/../misc/lv_color.h **** #if __cplusplus >= 201103L
  84:lvgl/src/hal/../draw/../misc/lv_color.h **** #define _LV_COLOR_HAS_MODERN_CPP 1
  85:lvgl/src/hal/../draw/../misc/lv_color.h **** #endif
  86:lvgl/src/hal/../draw/../misc/lv_color.h **** #endif
ARM GAS  C:\Users\OSD\AppData\Local\Temp\ccDD6lYO.s 			page 16


  87:lvgl/src/hal/../draw/../misc/lv_color.h **** #endif /*__cplusplus*/
  88:lvgl/src/hal/../draw/../misc/lv_color.h **** 
  89:lvgl/src/hal/../draw/../misc/lv_color.h **** #ifndef _LV_COLOR_HAS_MODERN_CPP
  90:lvgl/src/hal/../draw/../misc/lv_color.h **** #define _LV_COLOR_HAS_MODERN_CPP 0
  91:lvgl/src/hal/../draw/../misc/lv_color.h **** #endif
  92:lvgl/src/hal/../draw/../misc/lv_color.h **** 
  93:lvgl/src/hal/../draw/../misc/lv_color.h **** #if _LV_COLOR_HAS_MODERN_CPP
  94:lvgl/src/hal/../draw/../misc/lv_color.h **** /*Fix msvc compiler error C4576 inside C++ code*/
  95:lvgl/src/hal/../draw/../misc/lv_color.h **** #define _LV_COLOR_MAKE_TYPE_HELPER lv_color_t
  96:lvgl/src/hal/../draw/../misc/lv_color.h **** #else
  97:lvgl/src/hal/../draw/../misc/lv_color.h **** #define _LV_COLOR_MAKE_TYPE_HELPER (lv_color_t)
  98:lvgl/src/hal/../draw/../misc/lv_color.h **** #endif
  99:lvgl/src/hal/../draw/../misc/lv_color.h **** 
 100:lvgl/src/hal/../draw/../misc/lv_color.h **** /*---------------------------------------
 101:lvgl/src/hal/../draw/../misc/lv_color.h ****  * Macros for all existing color depths
 102:lvgl/src/hal/../draw/../misc/lv_color.h ****  * to set/get values of the color channels
 103:lvgl/src/hal/../draw/../misc/lv_color.h ****  *------------------------------------------*/
 104:lvgl/src/hal/../draw/../misc/lv_color.h **** # define LV_COLOR_SET_R1(c, v) (c).ch.red = (uint8_t)((v) & 0x1)
 105:lvgl/src/hal/../draw/../misc/lv_color.h **** # define LV_COLOR_SET_G1(c, v) (c).ch.green = (uint8_t)((v) & 0x1)
 106:lvgl/src/hal/../draw/../misc/lv_color.h **** # define LV_COLOR_SET_B1(c, v) (c).ch.blue = (uint8_t)((v) & 0x1)
 107:lvgl/src/hal/../draw/../misc/lv_color.h **** # define LV_COLOR_SET_A1(c, v) do {} while(0)
 108:lvgl/src/hal/../draw/../misc/lv_color.h **** 
 109:lvgl/src/hal/../draw/../misc/lv_color.h **** # define LV_COLOR_GET_R1(c) (c).ch.red
 110:lvgl/src/hal/../draw/../misc/lv_color.h **** # define LV_COLOR_GET_G1(c) (c).ch.green
 111:lvgl/src/hal/../draw/../misc/lv_color.h **** # define LV_COLOR_GET_B1(c) (c).ch.blue
 112:lvgl/src/hal/../draw/../misc/lv_color.h **** # define LV_COLOR_GET_A1(c) 0xFF
 113:lvgl/src/hal/../draw/../misc/lv_color.h **** 
 114:lvgl/src/hal/../draw/../misc/lv_color.h **** # define _LV_COLOR_ZERO_INITIALIZER1 {0x00}
 115:lvgl/src/hal/../draw/../misc/lv_color.h **** # define LV_COLOR_MAKE1(r8, g8, b8)  {(uint8_t)((b8 >> 7) | (g8 >> 7) | (r8 >> 7))}
 116:lvgl/src/hal/../draw/../misc/lv_color.h **** 
 117:lvgl/src/hal/../draw/../misc/lv_color.h **** # define LV_COLOR_SET_R8(c, v) (c).ch.red = (uint8_t)((v) & 0x7U)
 118:lvgl/src/hal/../draw/../misc/lv_color.h **** # define LV_COLOR_SET_G8(c, v) (c).ch.green = (uint8_t)((v) & 0x7U)
 119:lvgl/src/hal/../draw/../misc/lv_color.h **** # define LV_COLOR_SET_B8(c, v) (c).ch.blue = (uint8_t)((v) & 0x3U)
 120:lvgl/src/hal/../draw/../misc/lv_color.h **** # define LV_COLOR_SET_A8(c, v) do {} while(0)
 121:lvgl/src/hal/../draw/../misc/lv_color.h **** 
 122:lvgl/src/hal/../draw/../misc/lv_color.h **** # define LV_COLOR_GET_R8(c) (c).ch.red
 123:lvgl/src/hal/../draw/../misc/lv_color.h **** # define LV_COLOR_GET_G8(c) (c).ch.green
 124:lvgl/src/hal/../draw/../misc/lv_color.h **** # define LV_COLOR_GET_B8(c) (c).ch.blue
 125:lvgl/src/hal/../draw/../misc/lv_color.h **** # define LV_COLOR_GET_A8(c) 0xFF
 126:lvgl/src/hal/../draw/../misc/lv_color.h **** 
 127:lvgl/src/hal/../draw/../misc/lv_color.h **** # define _LV_COLOR_ZERO_INITIALIZER8 {{0x00, 0x00, 0x00}}
 128:lvgl/src/hal/../draw/../misc/lv_color.h **** # define LV_COLOR_MAKE8(r8, g8, b8) {{(uint8_t)((b8 >> 6) & 0x3U), (uint8_t)((g8 >> 5) & 0x7U), (ui
 129:lvgl/src/hal/../draw/../misc/lv_color.h **** 
 130:lvgl/src/hal/../draw/../misc/lv_color.h **** # define LV_COLOR_SET_R16(c, v) (c).ch.red = (uint8_t)((v) & 0x1FU)
 131:lvgl/src/hal/../draw/../misc/lv_color.h **** #if LV_COLOR_16_SWAP == 0
 132:lvgl/src/hal/../draw/../misc/lv_color.h **** # define LV_COLOR_SET_G16(c, v) (c).ch.green = (uint8_t)((v) & 0x3FU)
 133:lvgl/src/hal/../draw/../misc/lv_color.h **** #else
 134:lvgl/src/hal/../draw/../misc/lv_color.h **** # define LV_COLOR_SET_G16(c, v) {(c).ch.green_h = (uint8_t)(((v) >> 3) & 0x7); (c).ch.green_l = (ui
 135:lvgl/src/hal/../draw/../misc/lv_color.h **** #endif
 136:lvgl/src/hal/../draw/../misc/lv_color.h **** # define LV_COLOR_SET_B16(c, v) (c).ch.blue = (uint8_t)((v) & 0x1FU)
 137:lvgl/src/hal/../draw/../misc/lv_color.h **** # define LV_COLOR_SET_A16(c, v) do {} while(0)
 138:lvgl/src/hal/../draw/../misc/lv_color.h **** 
 139:lvgl/src/hal/../draw/../misc/lv_color.h **** # define LV_COLOR_GET_R16(c) (c).ch.red
 140:lvgl/src/hal/../draw/../misc/lv_color.h **** #if LV_COLOR_16_SWAP == 0
 141:lvgl/src/hal/../draw/../misc/lv_color.h **** # define LV_COLOR_GET_G16(c) (c).ch.green
 142:lvgl/src/hal/../draw/../misc/lv_color.h **** #else
 143:lvgl/src/hal/../draw/../misc/lv_color.h **** # define LV_COLOR_GET_G16(c) (((c).ch.green_h << 3) + (c).ch.green_l)
ARM GAS  C:\Users\OSD\AppData\Local\Temp\ccDD6lYO.s 			page 17


 144:lvgl/src/hal/../draw/../misc/lv_color.h **** #endif
 145:lvgl/src/hal/../draw/../misc/lv_color.h **** # define LV_COLOR_GET_B16(c) (c).ch.blue
 146:lvgl/src/hal/../draw/../misc/lv_color.h **** # define LV_COLOR_GET_A16(c) 0xFF
 147:lvgl/src/hal/../draw/../misc/lv_color.h **** 
 148:lvgl/src/hal/../draw/../misc/lv_color.h **** #if LV_COLOR_16_SWAP == 0
 149:lvgl/src/hal/../draw/../misc/lv_color.h **** # define _LV_COLOR_ZERO_INITIALIZER16  {{0x00, 0x00, 0x00}}
 150:lvgl/src/hal/../draw/../misc/lv_color.h **** # define LV_COLOR_MAKE16(r8, g8, b8) {{(uint8_t)((b8 >> 3) & 0x1FU), (uint8_t)((g8 >> 2) & 0x3FU), 
 151:lvgl/src/hal/../draw/../misc/lv_color.h **** #else
 152:lvgl/src/hal/../draw/../misc/lv_color.h **** # define _LV_COLOR_ZERO_INITIALIZER16 {{0x00, 0x00, 0x00, 0x00}}
 153:lvgl/src/hal/../draw/../misc/lv_color.h **** # define LV_COLOR_MAKE16(r8, g8, b8) {{(uint8_t)((g8 >> 5) & 0x7U), (uint8_t)((r8 >> 3) & 0x1FU), (
 154:lvgl/src/hal/../draw/../misc/lv_color.h **** #endif
 155:lvgl/src/hal/../draw/../misc/lv_color.h **** 
 156:lvgl/src/hal/../draw/../misc/lv_color.h **** # define LV_COLOR_SET_R32(c, v) (c).ch.red = (uint8_t)((v) & 0xFF)
 157:lvgl/src/hal/../draw/../misc/lv_color.h **** # define LV_COLOR_SET_G32(c, v) (c).ch.green = (uint8_t)((v) & 0xFF)
 158:lvgl/src/hal/../draw/../misc/lv_color.h **** # define LV_COLOR_SET_B32(c, v) (c).ch.blue = (uint8_t)((v) & 0xFF)
 159:lvgl/src/hal/../draw/../misc/lv_color.h **** # define LV_COLOR_SET_A32(c, v) (c).ch.alpha = (uint8_t)((v) & 0xFF)
 160:lvgl/src/hal/../draw/../misc/lv_color.h **** 
 161:lvgl/src/hal/../draw/../misc/lv_color.h **** # define LV_COLOR_GET_R32(c) (c).ch.red
 162:lvgl/src/hal/../draw/../misc/lv_color.h **** # define LV_COLOR_GET_G32(c) (c).ch.green
 163:lvgl/src/hal/../draw/../misc/lv_color.h **** # define LV_COLOR_GET_B32(c) (c).ch.blue
 164:lvgl/src/hal/../draw/../misc/lv_color.h **** # define LV_COLOR_GET_A32(c) (c).ch.alpha
 165:lvgl/src/hal/../draw/../misc/lv_color.h **** 
 166:lvgl/src/hal/../draw/../misc/lv_color.h **** # define _LV_COLOR_ZERO_INITIALIZER32  {{0x00, 0x00, 0x00, 0x00}}
 167:lvgl/src/hal/../draw/../misc/lv_color.h **** # define LV_COLOR_MAKE32(r8, g8, b8) {{b8, g8, r8, 0xff}} /*Fix 0xff alpha*/
 168:lvgl/src/hal/../draw/../misc/lv_color.h **** 
 169:lvgl/src/hal/../draw/../misc/lv_color.h **** /*---------------------------------------
 170:lvgl/src/hal/../draw/../misc/lv_color.h ****  * Macros for the current color depth
 171:lvgl/src/hal/../draw/../misc/lv_color.h ****  * to set/get values of the color channels
 172:lvgl/src/hal/../draw/../misc/lv_color.h ****  *------------------------------------------*/
 173:lvgl/src/hal/../draw/../misc/lv_color.h **** #define LV_COLOR_SET_R(c, v) LV_CONCAT(LV_COLOR_SET_R, LV_COLOR_DEPTH)(c, v)
 174:lvgl/src/hal/../draw/../misc/lv_color.h **** #define LV_COLOR_SET_G(c, v) LV_CONCAT(LV_COLOR_SET_G, LV_COLOR_DEPTH)(c, v)
 175:lvgl/src/hal/../draw/../misc/lv_color.h **** #define LV_COLOR_SET_B(c, v) LV_CONCAT(LV_COLOR_SET_B, LV_COLOR_DEPTH)(c, v)
 176:lvgl/src/hal/../draw/../misc/lv_color.h **** #define LV_COLOR_SET_A(c, v) LV_CONCAT(LV_COLOR_SET_A, LV_COLOR_DEPTH)(c, v)
 177:lvgl/src/hal/../draw/../misc/lv_color.h **** 
 178:lvgl/src/hal/../draw/../misc/lv_color.h **** #define LV_COLOR_GET_R(c) LV_CONCAT(LV_COLOR_GET_R, LV_COLOR_DEPTH)(c)
 179:lvgl/src/hal/../draw/../misc/lv_color.h **** #define LV_COLOR_GET_G(c) LV_CONCAT(LV_COLOR_GET_G, LV_COLOR_DEPTH)(c)
 180:lvgl/src/hal/../draw/../misc/lv_color.h **** #define LV_COLOR_GET_B(c) LV_CONCAT(LV_COLOR_GET_B, LV_COLOR_DEPTH)(c)
 181:lvgl/src/hal/../draw/../misc/lv_color.h **** #define LV_COLOR_GET_A(c) LV_CONCAT(LV_COLOR_GET_A, LV_COLOR_DEPTH)(c)
 182:lvgl/src/hal/../draw/../misc/lv_color.h **** 
 183:lvgl/src/hal/../draw/../misc/lv_color.h **** #define _LV_COLOR_ZERO_INITIALIZER LV_CONCAT(_LV_COLOR_ZERO_INITIALIZER, LV_COLOR_DEPTH)
 184:lvgl/src/hal/../draw/../misc/lv_color.h **** #define LV_COLOR_MAKE(r8, g8, b8) LV_CONCAT(LV_COLOR_MAKE, LV_COLOR_DEPTH)(r8, g8, b8)
 185:lvgl/src/hal/../draw/../misc/lv_color.h **** 
 186:lvgl/src/hal/../draw/../misc/lv_color.h **** /**********************
 187:lvgl/src/hal/../draw/../misc/lv_color.h ****  *      TYPEDEFS
 188:lvgl/src/hal/../draw/../misc/lv_color.h ****  **********************/
 189:lvgl/src/hal/../draw/../misc/lv_color.h **** 
 190:lvgl/src/hal/../draw/../misc/lv_color.h **** typedef union {
 191:lvgl/src/hal/../draw/../misc/lv_color.h ****     uint8_t full; /*must be declared first to set all bits of byte via initializer list*/
 192:lvgl/src/hal/../draw/../misc/lv_color.h ****     union {
 193:lvgl/src/hal/../draw/../misc/lv_color.h ****         uint8_t blue : 1;
 194:lvgl/src/hal/../draw/../misc/lv_color.h ****         uint8_t green : 1;
 195:lvgl/src/hal/../draw/../misc/lv_color.h ****         uint8_t red : 1;
 196:lvgl/src/hal/../draw/../misc/lv_color.h ****     } ch;
 197:lvgl/src/hal/../draw/../misc/lv_color.h **** } lv_color1_t;
 198:lvgl/src/hal/../draw/../misc/lv_color.h **** 
 199:lvgl/src/hal/../draw/../misc/lv_color.h **** typedef union {
 200:lvgl/src/hal/../draw/../misc/lv_color.h ****     struct {
ARM GAS  C:\Users\OSD\AppData\Local\Temp\ccDD6lYO.s 			page 18


 201:lvgl/src/hal/../draw/../misc/lv_color.h ****         uint8_t blue : 2;
 202:lvgl/src/hal/../draw/../misc/lv_color.h ****         uint8_t green : 3;
 203:lvgl/src/hal/../draw/../misc/lv_color.h ****         uint8_t red : 3;
 204:lvgl/src/hal/../draw/../misc/lv_color.h ****     } ch;
 205:lvgl/src/hal/../draw/../misc/lv_color.h ****     uint8_t full;
 206:lvgl/src/hal/../draw/../misc/lv_color.h **** } lv_color8_t;
 207:lvgl/src/hal/../draw/../misc/lv_color.h **** 
 208:lvgl/src/hal/../draw/../misc/lv_color.h **** typedef union {
 209:lvgl/src/hal/../draw/../misc/lv_color.h ****     struct {
 210:lvgl/src/hal/../draw/../misc/lv_color.h **** #if LV_COLOR_16_SWAP == 0
 211:lvgl/src/hal/../draw/../misc/lv_color.h ****         uint16_t blue : 5;
 212:lvgl/src/hal/../draw/../misc/lv_color.h ****         uint16_t green : 6;
 213:lvgl/src/hal/../draw/../misc/lv_color.h ****         uint16_t red : 5;
 214:lvgl/src/hal/../draw/../misc/lv_color.h **** #else
 215:lvgl/src/hal/../draw/../misc/lv_color.h ****         uint16_t green_h : 3;
 216:lvgl/src/hal/../draw/../misc/lv_color.h ****         uint16_t red : 5;
 217:lvgl/src/hal/../draw/../misc/lv_color.h ****         uint16_t blue : 5;
 218:lvgl/src/hal/../draw/../misc/lv_color.h ****         uint16_t green_l : 3;
 219:lvgl/src/hal/../draw/../misc/lv_color.h **** #endif
 220:lvgl/src/hal/../draw/../misc/lv_color.h ****     } ch;
 221:lvgl/src/hal/../draw/../misc/lv_color.h ****     uint16_t full;
 222:lvgl/src/hal/../draw/../misc/lv_color.h **** } lv_color16_t;
 223:lvgl/src/hal/../draw/../misc/lv_color.h **** 
 224:lvgl/src/hal/../draw/../misc/lv_color.h **** typedef union {
 225:lvgl/src/hal/../draw/../misc/lv_color.h ****     struct {
 226:lvgl/src/hal/../draw/../misc/lv_color.h ****         uint8_t blue;
 227:lvgl/src/hal/../draw/../misc/lv_color.h ****         uint8_t green;
 228:lvgl/src/hal/../draw/../misc/lv_color.h ****         uint8_t red;
 229:lvgl/src/hal/../draw/../misc/lv_color.h ****         uint8_t alpha;
 230:lvgl/src/hal/../draw/../misc/lv_color.h ****     } ch;
 231:lvgl/src/hal/../draw/../misc/lv_color.h ****     uint32_t full;
 232:lvgl/src/hal/../draw/../misc/lv_color.h **** } lv_color32_t;
 233:lvgl/src/hal/../draw/../misc/lv_color.h **** 
 234:lvgl/src/hal/../draw/../misc/lv_color.h **** typedef LV_CONCAT3(uint, LV_COLOR_SIZE, _t) lv_color_int_t;
 235:lvgl/src/hal/../draw/../misc/lv_color.h **** typedef LV_CONCAT3(lv_color, LV_COLOR_DEPTH, _t) lv_color_t;
 236:lvgl/src/hal/../draw/../misc/lv_color.h **** 
 237:lvgl/src/hal/../draw/../misc/lv_color.h **** typedef struct {
 238:lvgl/src/hal/../draw/../misc/lv_color.h ****     uint16_t h;
 239:lvgl/src/hal/../draw/../misc/lv_color.h ****     uint8_t s;
 240:lvgl/src/hal/../draw/../misc/lv_color.h ****     uint8_t v;
 241:lvgl/src/hal/../draw/../misc/lv_color.h **** } lv_color_hsv_t;
 242:lvgl/src/hal/../draw/../misc/lv_color.h **** 
 243:lvgl/src/hal/../draw/../misc/lv_color.h **** //! @cond Doxygen_Suppress
 244:lvgl/src/hal/../draw/../misc/lv_color.h **** /*No idea where the guard is required but else throws warnings in the docs*/
 245:lvgl/src/hal/../draw/../misc/lv_color.h **** typedef uint8_t lv_opa_t;
 246:lvgl/src/hal/../draw/../misc/lv_color.h **** //! @endcond
 247:lvgl/src/hal/../draw/../misc/lv_color.h **** 
 248:lvgl/src/hal/../draw/../misc/lv_color.h **** struct _lv_color_filter_dsc_t;
 249:lvgl/src/hal/../draw/../misc/lv_color.h **** 
 250:lvgl/src/hal/../draw/../misc/lv_color.h **** typedef lv_color_t (*lv_color_filter_cb_t)(const struct _lv_color_filter_dsc_t *, lv_color_t, lv_op
 251:lvgl/src/hal/../draw/../misc/lv_color.h **** 
 252:lvgl/src/hal/../draw/../misc/lv_color.h **** typedef struct _lv_color_filter_dsc_t {
 253:lvgl/src/hal/../draw/../misc/lv_color.h ****     lv_color_filter_cb_t filter_cb;
 254:lvgl/src/hal/../draw/../misc/lv_color.h ****     void * user_data;
 255:lvgl/src/hal/../draw/../misc/lv_color.h **** } lv_color_filter_dsc_t;
 256:lvgl/src/hal/../draw/../misc/lv_color.h **** 
 257:lvgl/src/hal/../draw/../misc/lv_color.h **** typedef enum {
ARM GAS  C:\Users\OSD\AppData\Local\Temp\ccDD6lYO.s 			page 19


 258:lvgl/src/hal/../draw/../misc/lv_color.h ****     LV_PALETTE_RED,
 259:lvgl/src/hal/../draw/../misc/lv_color.h ****     LV_PALETTE_PINK,
 260:lvgl/src/hal/../draw/../misc/lv_color.h ****     LV_PALETTE_PURPLE,
 261:lvgl/src/hal/../draw/../misc/lv_color.h ****     LV_PALETTE_DEEP_PURPLE,
 262:lvgl/src/hal/../draw/../misc/lv_color.h ****     LV_PALETTE_INDIGO,
 263:lvgl/src/hal/../draw/../misc/lv_color.h ****     LV_PALETTE_BLUE,
 264:lvgl/src/hal/../draw/../misc/lv_color.h ****     LV_PALETTE_LIGHT_BLUE,
 265:lvgl/src/hal/../draw/../misc/lv_color.h ****     LV_PALETTE_CYAN,
 266:lvgl/src/hal/../draw/../misc/lv_color.h ****     LV_PALETTE_TEAL,
 267:lvgl/src/hal/../draw/../misc/lv_color.h ****     LV_PALETTE_GREEN,
 268:lvgl/src/hal/../draw/../misc/lv_color.h ****     LV_PALETTE_LIGHT_GREEN,
 269:lvgl/src/hal/../draw/../misc/lv_color.h ****     LV_PALETTE_LIME,
 270:lvgl/src/hal/../draw/../misc/lv_color.h ****     LV_PALETTE_YELLOW,
 271:lvgl/src/hal/../draw/../misc/lv_color.h ****     LV_PALETTE_AMBER,
 272:lvgl/src/hal/../draw/../misc/lv_color.h ****     LV_PALETTE_ORANGE,
 273:lvgl/src/hal/../draw/../misc/lv_color.h ****     LV_PALETTE_DEEP_ORANGE,
 274:lvgl/src/hal/../draw/../misc/lv_color.h ****     LV_PALETTE_BROWN,
 275:lvgl/src/hal/../draw/../misc/lv_color.h ****     LV_PALETTE_BLUE_GREY,
 276:lvgl/src/hal/../draw/../misc/lv_color.h ****     LV_PALETTE_GREY,
 277:lvgl/src/hal/../draw/../misc/lv_color.h ****     _LV_PALETTE_LAST,
 278:lvgl/src/hal/../draw/../misc/lv_color.h ****     LV_PALETTE_NONE = 0xff,
 279:lvgl/src/hal/../draw/../misc/lv_color.h **** } lv_palette_t;
 280:lvgl/src/hal/../draw/../misc/lv_color.h **** 
 281:lvgl/src/hal/../draw/../misc/lv_color.h **** /**********************
 282:lvgl/src/hal/../draw/../misc/lv_color.h ****  * GLOBAL PROTOTYPES
 283:lvgl/src/hal/../draw/../misc/lv_color.h ****  **********************/
 284:lvgl/src/hal/../draw/../misc/lv_color.h **** 
 285:lvgl/src/hal/../draw/../misc/lv_color.h **** /*In color conversations:
 286:lvgl/src/hal/../draw/../misc/lv_color.h ****  * - When converting to bigger color type the LSB weight of 1 LSB is calculated
 287:lvgl/src/hal/../draw/../misc/lv_color.h ****  *   E.g. 16 bit Red has 5 bits
 288:lvgl/src/hal/../draw/../misc/lv_color.h ****  *         8 bit Red has 3 bits
 289:lvgl/src/hal/../draw/../misc/lv_color.h ****  *        ----------------------
 290:lvgl/src/hal/../draw/../misc/lv_color.h ****  *        8 bit red LSB = (2^5 - 1) / (2^3 - 1) = 31 / 7 = 4
 291:lvgl/src/hal/../draw/../misc/lv_color.h ****  *
 292:lvgl/src/hal/../draw/../misc/lv_color.h ****  * - When calculating to smaller color type simply shift out the LSBs
 293:lvgl/src/hal/../draw/../misc/lv_color.h ****  *   E.g.  8 bit Red has 3 bits
 294:lvgl/src/hal/../draw/../misc/lv_color.h ****  *        16 bit Red has 5 bits
 295:lvgl/src/hal/../draw/../misc/lv_color.h ****  *        ----------------------
 296:lvgl/src/hal/../draw/../misc/lv_color.h ****  *         Shift right with 5 - 3 = 2
 297:lvgl/src/hal/../draw/../misc/lv_color.h ****  */
 298:lvgl/src/hal/../draw/../misc/lv_color.h **** static inline uint8_t lv_color_to1(lv_color_t color)
 299:lvgl/src/hal/../draw/../misc/lv_color.h **** {
 300:lvgl/src/hal/../draw/../misc/lv_color.h **** #if LV_COLOR_DEPTH == 1
 301:lvgl/src/hal/../draw/../misc/lv_color.h ****     return color.full;
 302:lvgl/src/hal/../draw/../misc/lv_color.h **** #elif LV_COLOR_DEPTH == 8
 303:lvgl/src/hal/../draw/../misc/lv_color.h ****     if((LV_COLOR_GET_R(color) & 0x4) || (LV_COLOR_GET_G(color) & 0x4) || (LV_COLOR_GET_B(color) & 0
 304:lvgl/src/hal/../draw/../misc/lv_color.h ****         return 1;
 305:lvgl/src/hal/../draw/../misc/lv_color.h ****     }
 306:lvgl/src/hal/../draw/../misc/lv_color.h ****     else {
 307:lvgl/src/hal/../draw/../misc/lv_color.h ****         return 0;
 308:lvgl/src/hal/../draw/../misc/lv_color.h ****     }
 309:lvgl/src/hal/../draw/../misc/lv_color.h **** #elif LV_COLOR_DEPTH == 16
 310:lvgl/src/hal/../draw/../misc/lv_color.h ****     if((LV_COLOR_GET_R(color) & 0x10) || (LV_COLOR_GET_G(color) & 0x20) || (LV_COLOR_GET_B(color) &
 311:lvgl/src/hal/../draw/../misc/lv_color.h ****         return 1;
 312:lvgl/src/hal/../draw/../misc/lv_color.h ****     }
 313:lvgl/src/hal/../draw/../misc/lv_color.h ****     else {
 314:lvgl/src/hal/../draw/../misc/lv_color.h ****         return 0;
ARM GAS  C:\Users\OSD\AppData\Local\Temp\ccDD6lYO.s 			page 20


 315:lvgl/src/hal/../draw/../misc/lv_color.h ****     }
 316:lvgl/src/hal/../draw/../misc/lv_color.h **** #elif LV_COLOR_DEPTH == 32
 317:lvgl/src/hal/../draw/../misc/lv_color.h ****     if((LV_COLOR_GET_R(color) & 0x80) || (LV_COLOR_GET_G(color) & 0x80) || (LV_COLOR_GET_B(color) &
 318:lvgl/src/hal/../draw/../misc/lv_color.h ****         return 1;
 319:lvgl/src/hal/../draw/../misc/lv_color.h ****     }
 320:lvgl/src/hal/../draw/../misc/lv_color.h ****     else {
 321:lvgl/src/hal/../draw/../misc/lv_color.h ****         return 0;
 322:lvgl/src/hal/../draw/../misc/lv_color.h ****     }
 323:lvgl/src/hal/../draw/../misc/lv_color.h **** #endif
 324:lvgl/src/hal/../draw/../misc/lv_color.h **** }
 325:lvgl/src/hal/../draw/../misc/lv_color.h **** 
 326:lvgl/src/hal/../draw/../misc/lv_color.h **** static inline uint8_t lv_color_to8(lv_color_t color)
 327:lvgl/src/hal/../draw/../misc/lv_color.h **** {
 328:lvgl/src/hal/../draw/../misc/lv_color.h **** #if LV_COLOR_DEPTH == 1
 329:lvgl/src/hal/../draw/../misc/lv_color.h ****     if(color.full == 0)
 330:lvgl/src/hal/../draw/../misc/lv_color.h ****         return 0;
 331:lvgl/src/hal/../draw/../misc/lv_color.h ****     else
 332:lvgl/src/hal/../draw/../misc/lv_color.h ****         return 0xFF;
 333:lvgl/src/hal/../draw/../misc/lv_color.h **** #elif LV_COLOR_DEPTH == 8
 334:lvgl/src/hal/../draw/../misc/lv_color.h ****     return color.full;
 335:lvgl/src/hal/../draw/../misc/lv_color.h **** #elif LV_COLOR_DEPTH == 16
 336:lvgl/src/hal/../draw/../misc/lv_color.h ****     lv_color8_t ret;
 337:lvgl/src/hal/../draw/../misc/lv_color.h ****     LV_COLOR_SET_R8(ret, LV_COLOR_GET_R(color) >> 2); /*5 - 3  = 2*/
 338:lvgl/src/hal/../draw/../misc/lv_color.h ****     LV_COLOR_SET_G8(ret, LV_COLOR_GET_G(color) >> 3); /*6 - 3  = 3*/
 339:lvgl/src/hal/../draw/../misc/lv_color.h ****     LV_COLOR_SET_B8(ret, LV_COLOR_GET_B(color) >> 3); /*5 - 2  = 3*/
 340:lvgl/src/hal/../draw/../misc/lv_color.h ****     return ret.full;
 341:lvgl/src/hal/../draw/../misc/lv_color.h **** #elif LV_COLOR_DEPTH == 32
 342:lvgl/src/hal/../draw/../misc/lv_color.h ****     lv_color8_t ret;
 343:lvgl/src/hal/../draw/../misc/lv_color.h ****     LV_COLOR_SET_R8(ret, LV_COLOR_GET_R(color) >> 5); /*8 - 3  = 5*/
 344:lvgl/src/hal/../draw/../misc/lv_color.h ****     LV_COLOR_SET_G8(ret, LV_COLOR_GET_G(color) >> 5); /*8 - 3  = 5*/
 345:lvgl/src/hal/../draw/../misc/lv_color.h ****     LV_COLOR_SET_B8(ret, LV_COLOR_GET_B(color) >> 6); /*8 - 2  = 6*/
 346:lvgl/src/hal/../draw/../misc/lv_color.h ****     return ret.full;
 347:lvgl/src/hal/../draw/../misc/lv_color.h **** #endif
 348:lvgl/src/hal/../draw/../misc/lv_color.h **** }
 349:lvgl/src/hal/../draw/../misc/lv_color.h **** 
 350:lvgl/src/hal/../draw/../misc/lv_color.h **** static inline uint16_t lv_color_to16(lv_color_t color)
 351:lvgl/src/hal/../draw/../misc/lv_color.h **** {
 352:lvgl/src/hal/../draw/../misc/lv_color.h **** #if LV_COLOR_DEPTH == 1
 353:lvgl/src/hal/../draw/../misc/lv_color.h ****     if(color.full == 0)
 354:lvgl/src/hal/../draw/../misc/lv_color.h ****         return 0;
 355:lvgl/src/hal/../draw/../misc/lv_color.h ****     else
 356:lvgl/src/hal/../draw/../misc/lv_color.h ****         return 0xFFFF;
 357:lvgl/src/hal/../draw/../misc/lv_color.h **** #elif LV_COLOR_DEPTH == 8
 358:lvgl/src/hal/../draw/../misc/lv_color.h ****     lv_color16_t ret;
 359:lvgl/src/hal/../draw/../misc/lv_color.h ****     LV_COLOR_SET_R16(ret, LV_COLOR_GET_R(color) * 4);  /*(2^5 - 1)/(2^3 - 1) = 31/7 = 4*/
 360:lvgl/src/hal/../draw/../misc/lv_color.h ****     LV_COLOR_SET_G16(ret, LV_COLOR_GET_G(color) * 9);  /*(2^6 - 1)/(2^3 - 1) = 63/7 = 9*/
 361:lvgl/src/hal/../draw/../misc/lv_color.h ****     LV_COLOR_SET_B16(ret, LV_COLOR_GET_B(color) * 10); /*(2^5 - 1)/(2^2 - 1) = 31/3 = 10*/
 362:lvgl/src/hal/../draw/../misc/lv_color.h ****     return ret.full;
 363:lvgl/src/hal/../draw/../misc/lv_color.h **** #elif LV_COLOR_DEPTH == 16
 364:lvgl/src/hal/../draw/../misc/lv_color.h ****     return color.full;
 365:lvgl/src/hal/../draw/../misc/lv_color.h **** #elif LV_COLOR_DEPTH == 32
 366:lvgl/src/hal/../draw/../misc/lv_color.h ****     lv_color16_t ret;
 367:lvgl/src/hal/../draw/../misc/lv_color.h ****     LV_COLOR_SET_R16(ret, LV_COLOR_GET_R(color) >> 3); /*8 - 5  = 3*/
 368:lvgl/src/hal/../draw/../misc/lv_color.h ****     LV_COLOR_SET_G16(ret, LV_COLOR_GET_G(color) >> 2); /*8 - 6  = 2*/
 369:lvgl/src/hal/../draw/../misc/lv_color.h ****     LV_COLOR_SET_B16(ret, LV_COLOR_GET_B(color) >> 3); /*8 - 5  = 3*/
 370:lvgl/src/hal/../draw/../misc/lv_color.h ****     return ret.full;
 371:lvgl/src/hal/../draw/../misc/lv_color.h **** #endif
ARM GAS  C:\Users\OSD\AppData\Local\Temp\ccDD6lYO.s 			page 21


 372:lvgl/src/hal/../draw/../misc/lv_color.h **** }
 373:lvgl/src/hal/../draw/../misc/lv_color.h **** 
 374:lvgl/src/hal/../draw/../misc/lv_color.h **** static inline uint32_t lv_color_to32(lv_color_t color)
 375:lvgl/src/hal/../draw/../misc/lv_color.h **** {
 376:lvgl/src/hal/../draw/../misc/lv_color.h **** #if LV_COLOR_DEPTH == 1
 377:lvgl/src/hal/../draw/../misc/lv_color.h ****     if(color.full == 0)
 378:lvgl/src/hal/../draw/../misc/lv_color.h ****         return 0xFF000000;
 379:lvgl/src/hal/../draw/../misc/lv_color.h ****     else
 380:lvgl/src/hal/../draw/../misc/lv_color.h ****         return 0xFFFFFFFF;
 381:lvgl/src/hal/../draw/../misc/lv_color.h **** #elif LV_COLOR_DEPTH == 8
 382:lvgl/src/hal/../draw/../misc/lv_color.h ****     lv_color32_t ret;
 383:lvgl/src/hal/../draw/../misc/lv_color.h ****     LV_COLOR_SET_R32(ret, LV_COLOR_GET_R(color) * 36); /*(2^8 - 1)/(2^3 - 1) = 255/7 = 36*/
 384:lvgl/src/hal/../draw/../misc/lv_color.h ****     LV_COLOR_SET_G32(ret, LV_COLOR_GET_G(color) * 36); /*(2^8 - 1)/(2^3 - 1) = 255/7 = 36*/
 385:lvgl/src/hal/../draw/../misc/lv_color.h ****     LV_COLOR_SET_B32(ret, LV_COLOR_GET_B(color) * 85); /*(2^8 - 1)/(2^2 - 1) = 255/3 = 85*/
 386:lvgl/src/hal/../draw/../misc/lv_color.h ****     LV_COLOR_SET_A32(ret, 0xFF);
 387:lvgl/src/hal/../draw/../misc/lv_color.h ****     return ret.full;
 388:lvgl/src/hal/../draw/../misc/lv_color.h **** #elif LV_COLOR_DEPTH == 16
 389:lvgl/src/hal/../draw/../misc/lv_color.h ****     /**
 390:lvgl/src/hal/../draw/../misc/lv_color.h ****      * The floating point math for conversion is:
 391:lvgl/src/hal/../draw/../misc/lv_color.h ****      *  valueto = valuefrom * ( (2^bitsto - 1) / (float)(2^bitsfrom - 1) )
 392:lvgl/src/hal/../draw/../misc/lv_color.h ****      * The faster integer math for conversion is:
 393:lvgl/src/hal/../draw/../misc/lv_color.h ****      *  valueto = ( valuefrom * multiplier + adder ) >> divisor
 394:lvgl/src/hal/../draw/../misc/lv_color.h ****      *   multiplier = FLOOR( ( (2^bitsto - 1) << divisor ) / (float)(2^bitsfrom - 1) )
 395:lvgl/src/hal/../draw/../misc/lv_color.h ****      *
 396:lvgl/src/hal/../draw/../misc/lv_color.h ****      * Find the first divisor where ( adder >> divisor ) <= 0
 397:lvgl/src/hal/../draw/../misc/lv_color.h ****      *
 398:lvgl/src/hal/../draw/../misc/lv_color.h ****      * 5-bit to 8-bit: ( 31 * multiplier + adder ) >> divisor = 255
 399:lvgl/src/hal/../draw/../misc/lv_color.h ****      * divisor  multiplier  adder  min (0)  max (31)
 400:lvgl/src/hal/../draw/../misc/lv_color.h ****      *       0           8      7        7       255
 401:lvgl/src/hal/../draw/../misc/lv_color.h ****      *       1          16     14        7       255
 402:lvgl/src/hal/../draw/../misc/lv_color.h ****      *       2          32     28        7       255
 403:lvgl/src/hal/../draw/../misc/lv_color.h ****      *       3          65     25        3       255
 404:lvgl/src/hal/../draw/../misc/lv_color.h ****      *       4         131     19        1       255
 405:lvgl/src/hal/../draw/../misc/lv_color.h ****      *       5         263      7        0       255
 406:lvgl/src/hal/../draw/../misc/lv_color.h ****      *
 407:lvgl/src/hal/../draw/../misc/lv_color.h ****      * 6-bit to 8-bit: 255 = ( 63 * multiplier + adder ) >> divisor
 408:lvgl/src/hal/../draw/../misc/lv_color.h ****      * divisor  multiplier  adder  min (0)  max (63)
 409:lvgl/src/hal/../draw/../misc/lv_color.h ****      *       0           4      3        3       255
 410:lvgl/src/hal/../draw/../misc/lv_color.h ****      *       1           8      6        3       255
 411:lvgl/src/hal/../draw/../misc/lv_color.h ****      *       2          16     12        3       255
 412:lvgl/src/hal/../draw/../misc/lv_color.h ****      *       3          32     24        3       255
 413:lvgl/src/hal/../draw/../misc/lv_color.h ****      *       4          64     48        3       255
 414:lvgl/src/hal/../draw/../misc/lv_color.h ****      *       5         129     33        1       255
 415:lvgl/src/hal/../draw/../misc/lv_color.h ****      *       6         259      3        0       255
 416:lvgl/src/hal/../draw/../misc/lv_color.h ****      */
 417:lvgl/src/hal/../draw/../misc/lv_color.h **** 
 418:lvgl/src/hal/../draw/../misc/lv_color.h ****     lv_color32_t ret;
 419:lvgl/src/hal/../draw/../misc/lv_color.h ****     LV_COLOR_SET_R32(ret, (LV_COLOR_GET_R(color) * 263 + 7) >> 5);
 420:lvgl/src/hal/../draw/../misc/lv_color.h ****     LV_COLOR_SET_G32(ret, (LV_COLOR_GET_G(color) * 259 + 3) >> 6);
 421:lvgl/src/hal/../draw/../misc/lv_color.h ****     LV_COLOR_SET_B32(ret, (LV_COLOR_GET_B(color) * 263 + 7) >> 5);
 422:lvgl/src/hal/../draw/../misc/lv_color.h ****     LV_COLOR_SET_A32(ret, 0xFF);
 423:lvgl/src/hal/../draw/../misc/lv_color.h ****     return ret.full;
 424:lvgl/src/hal/../draw/../misc/lv_color.h **** #elif LV_COLOR_DEPTH == 32
 425:lvgl/src/hal/../draw/../misc/lv_color.h ****     return color.full;
 426:lvgl/src/hal/../draw/../misc/lv_color.h **** #endif
 427:lvgl/src/hal/../draw/../misc/lv_color.h **** }
 428:lvgl/src/hal/../draw/../misc/lv_color.h **** 
ARM GAS  C:\Users\OSD\AppData\Local\Temp\ccDD6lYO.s 			page 22


 429:lvgl/src/hal/../draw/../misc/lv_color.h **** //! @cond Doxygen_Suppress
 430:lvgl/src/hal/../draw/../misc/lv_color.h **** 
 431:lvgl/src/hal/../draw/../misc/lv_color.h **** /**
 432:lvgl/src/hal/../draw/../misc/lv_color.h ****  * Mix two colors with a given ratio.
 433:lvgl/src/hal/../draw/../misc/lv_color.h ****  * @param c1 the first color to mix (usually the foreground)
 434:lvgl/src/hal/../draw/../misc/lv_color.h ****  * @param c2 the second color to mix (usually the background)
 435:lvgl/src/hal/../draw/../misc/lv_color.h ****  * @param mix The ratio of the colors. 0: full `c2`, 255: full `c1`, 127: half `c1` and half`c2`
 436:lvgl/src/hal/../draw/../misc/lv_color.h ****  * @return the mixed color
 437:lvgl/src/hal/../draw/../misc/lv_color.h ****  */
 438:lvgl/src/hal/../draw/../misc/lv_color.h **** static inline lv_color_t LV_ATTRIBUTE_FAST_MEM lv_color_mix(lv_color_t c1, lv_color_t c2, uint8_t m
 439:lvgl/src/hal/../draw/../misc/lv_color.h **** {
 440:lvgl/src/hal/../draw/../misc/lv_color.h ****     lv_color_t ret;
 441:lvgl/src/hal/../draw/../misc/lv_color.h **** 
 442:lvgl/src/hal/../draw/../misc/lv_color.h **** #if LV_COLOR_DEPTH == 16 && LV_COLOR_MIX_ROUND_OFS == 0
 443:lvgl/src/hal/../draw/../misc/lv_color.h **** #if LV_COLOR_16_SWAP == 1
 444:lvgl/src/hal/../draw/../misc/lv_color.h ****     c1.full = c1.full << 8 | c1.full >> 8;
 445:lvgl/src/hal/../draw/../misc/lv_color.h ****     c2.full = c2.full << 8 | c2.full >> 8;
 446:lvgl/src/hal/../draw/../misc/lv_color.h **** #endif
 447:lvgl/src/hal/../draw/../misc/lv_color.h ****     /*Source: https://stackoverflow.com/a/50012418/1999969*/
 448:lvgl/src/hal/../draw/../misc/lv_color.h ****     mix = (uint32_t)((uint32_t)mix + 4) >> 3;
 449:lvgl/src/hal/../draw/../misc/lv_color.h ****     uint32_t bg = (uint32_t)((uint32_t)c2.full | ((uint32_t)c2.full << 16)) &
 450:lvgl/src/hal/../draw/../misc/lv_color.h ****                   0x7E0F81F; /*0b00000111111000001111100000011111*/
 451:lvgl/src/hal/../draw/../misc/lv_color.h ****     uint32_t fg = (uint32_t)((uint32_t)c1.full | ((uint32_t)c1.full << 16)) & 0x7E0F81F;
 452:lvgl/src/hal/../draw/../misc/lv_color.h ****     uint32_t result = ((((fg - bg) * mix) >> 5) + bg) & 0x7E0F81F;
 453:lvgl/src/hal/../draw/../misc/lv_color.h ****     ret.full = (uint16_t)((result >> 16) | result);
 454:lvgl/src/hal/../draw/../misc/lv_color.h **** #if LV_COLOR_16_SWAP == 1
 455:lvgl/src/hal/../draw/../misc/lv_color.h ****     ret.full = ret.full << 8 | ret.full >> 8;
 456:lvgl/src/hal/../draw/../misc/lv_color.h **** #endif
 457:lvgl/src/hal/../draw/../misc/lv_color.h **** #elif LV_COLOR_DEPTH != 1
 458:lvgl/src/hal/../draw/../misc/lv_color.h ****     /*LV_COLOR_DEPTH == 8, 16 or 32*/
 459:lvgl/src/hal/../draw/../misc/lv_color.h ****     LV_COLOR_SET_R(ret, LV_UDIV255((uint16_t)LV_COLOR_GET_R(c1) * mix + LV_COLOR_GET_R(c2) *
 460:lvgl/src/hal/../draw/../misc/lv_color.h ****                                    (255 - mix) + LV_COLOR_MIX_ROUND_OFS));
 461:lvgl/src/hal/../draw/../misc/lv_color.h ****     LV_COLOR_SET_G(ret, LV_UDIV255((uint16_t)LV_COLOR_GET_G(c1) * mix + LV_COLOR_GET_G(c2) *
 462:lvgl/src/hal/../draw/../misc/lv_color.h ****                                    (255 - mix) + LV_COLOR_MIX_ROUND_OFS));
 463:lvgl/src/hal/../draw/../misc/lv_color.h ****     LV_COLOR_SET_B(ret, LV_UDIV255((uint16_t)LV_COLOR_GET_B(c1) * mix + LV_COLOR_GET_B(c2) *
 464:lvgl/src/hal/../draw/../misc/lv_color.h ****                                    (255 - mix) + LV_COLOR_MIX_ROUND_OFS));
 465:lvgl/src/hal/../draw/../misc/lv_color.h ****     LV_COLOR_SET_A(ret, 0xFF);
 466:lvgl/src/hal/../draw/../misc/lv_color.h **** #else
 467:lvgl/src/hal/../draw/../misc/lv_color.h ****     /*LV_COLOR_DEPTH == 1*/
 468:lvgl/src/hal/../draw/../misc/lv_color.h ****     ret.full = mix > LV_OPA_50 ? c1.full : c2.full;
 469:lvgl/src/hal/../draw/../misc/lv_color.h **** #endif
 470:lvgl/src/hal/../draw/../misc/lv_color.h **** 
 471:lvgl/src/hal/../draw/../misc/lv_color.h ****     return ret;
 472:lvgl/src/hal/../draw/../misc/lv_color.h **** }
 473:lvgl/src/hal/../draw/../misc/lv_color.h **** 
 474:lvgl/src/hal/../draw/../misc/lv_color.h **** static inline void LV_ATTRIBUTE_FAST_MEM lv_color_premult(lv_color_t c, uint8_t mix, uint16_t * out
 475:lvgl/src/hal/../draw/../misc/lv_color.h **** {
 476:lvgl/src/hal/../draw/../misc/lv_color.h **** #if LV_COLOR_DEPTH != 1
 477:lvgl/src/hal/../draw/../misc/lv_color.h ****     out[0] = (uint16_t)LV_COLOR_GET_R(c) * mix;
 478:lvgl/src/hal/../draw/../misc/lv_color.h ****     out[1] = (uint16_t)LV_COLOR_GET_G(c) * mix;
 479:lvgl/src/hal/../draw/../misc/lv_color.h ****     out[2] = (uint16_t)LV_COLOR_GET_B(c) * mix;
 480:lvgl/src/hal/../draw/../misc/lv_color.h **** #else
 481:lvgl/src/hal/../draw/../misc/lv_color.h ****     (void) mix;
 482:lvgl/src/hal/../draw/../misc/lv_color.h ****     /*Pre-multiplication can't be used with 1 bpp*/
 483:lvgl/src/hal/../draw/../misc/lv_color.h ****     out[0] = LV_COLOR_GET_R(c);
 484:lvgl/src/hal/../draw/../misc/lv_color.h ****     out[1] = LV_COLOR_GET_G(c);
 485:lvgl/src/hal/../draw/../misc/lv_color.h ****     out[2] = LV_COLOR_GET_B(c);
ARM GAS  C:\Users\OSD\AppData\Local\Temp\ccDD6lYO.s 			page 23


 486:lvgl/src/hal/../draw/../misc/lv_color.h **** #endif
 487:lvgl/src/hal/../draw/../misc/lv_color.h **** 
 488:lvgl/src/hal/../draw/../misc/lv_color.h **** }
 489:lvgl/src/hal/../draw/../misc/lv_color.h **** 
 490:lvgl/src/hal/../draw/../misc/lv_color.h **** /**
 491:lvgl/src/hal/../draw/../misc/lv_color.h ****  * Mix two colors with a given ratio. It runs faster then `lv_color_mix` but requires some pre comp
 492:lvgl/src/hal/../draw/../misc/lv_color.h ****  * @param premult_c1 The first color. Should be preprocessed with `lv_color_premult(c1)`
 493:lvgl/src/hal/../draw/../misc/lv_color.h ****  * @param c2 The second color. As it is no pre computation required on it
 494:lvgl/src/hal/../draw/../misc/lv_color.h ****  * @param mix The ratio of the colors. 0: full `c1`, 255: full `c2`, 127: half `c1` and half `c2`.
 495:lvgl/src/hal/../draw/../misc/lv_color.h ****  *            Should be modified like mix = `255 - mix`
 496:lvgl/src/hal/../draw/../misc/lv_color.h ****  * @return the mixed color
 497:lvgl/src/hal/../draw/../misc/lv_color.h ****  * @note 255 won't give clearly `c1`.
 498:lvgl/src/hal/../draw/../misc/lv_color.h ****  */
 499:lvgl/src/hal/../draw/../misc/lv_color.h **** static inline lv_color_t LV_ATTRIBUTE_FAST_MEM lv_color_mix_premult(uint16_t * premult_c1, lv_color
 500:lvgl/src/hal/../draw/../misc/lv_color.h **** {
 501:lvgl/src/hal/../draw/../misc/lv_color.h ****     lv_color_t ret;
 502:lvgl/src/hal/../draw/../misc/lv_color.h **** #if LV_COLOR_DEPTH != 1
 503:lvgl/src/hal/../draw/../misc/lv_color.h ****     /*LV_COLOR_DEPTH == 8 or 32*/
 504:lvgl/src/hal/../draw/../misc/lv_color.h ****     LV_COLOR_SET_R(ret, LV_UDIV255(premult_c1[0] + LV_COLOR_GET_R(c2) * mix + LV_COLOR_MIX_ROUND_OF
 505:lvgl/src/hal/../draw/../misc/lv_color.h ****     LV_COLOR_SET_G(ret, LV_UDIV255(premult_c1[1] + LV_COLOR_GET_G(c2) * mix + LV_COLOR_MIX_ROUND_OF
 506:lvgl/src/hal/../draw/../misc/lv_color.h ****     LV_COLOR_SET_B(ret, LV_UDIV255(premult_c1[2] + LV_COLOR_GET_B(c2) * mix + LV_COLOR_MIX_ROUND_OF
 507:lvgl/src/hal/../draw/../misc/lv_color.h ****     LV_COLOR_SET_A(ret, 0xFF);
 508:lvgl/src/hal/../draw/../misc/lv_color.h **** #else
 509:lvgl/src/hal/../draw/../misc/lv_color.h ****     /*LV_COLOR_DEPTH == 1*/
 510:lvgl/src/hal/../draw/../misc/lv_color.h ****     /*Restore color1*/
 511:lvgl/src/hal/../draw/../misc/lv_color.h ****     lv_color_t c1;
 512:lvgl/src/hal/../draw/../misc/lv_color.h ****     LV_COLOR_SET_R(c1, premult_c1[0]);
 513:lvgl/src/hal/../draw/../misc/lv_color.h ****     LV_COLOR_SET_G(c1, premult_c1[1]);
 514:lvgl/src/hal/../draw/../misc/lv_color.h ****     LV_COLOR_SET_B(c1, premult_c1[2]);
 515:lvgl/src/hal/../draw/../misc/lv_color.h ****     ret.full = mix > LV_OPA_50 ? c2.full : c1.full;
 516:lvgl/src/hal/../draw/../misc/lv_color.h **** #endif
 517:lvgl/src/hal/../draw/../misc/lv_color.h **** 
 518:lvgl/src/hal/../draw/../misc/lv_color.h ****     return ret;
 519:lvgl/src/hal/../draw/../misc/lv_color.h **** }
 520:lvgl/src/hal/../draw/../misc/lv_color.h **** 
 521:lvgl/src/hal/../draw/../misc/lv_color.h **** /**
 522:lvgl/src/hal/../draw/../misc/lv_color.h ****  * Mix two colors. Both color can have alpha value.
 523:lvgl/src/hal/../draw/../misc/lv_color.h ****  * @param bg_color background color
 524:lvgl/src/hal/../draw/../misc/lv_color.h ****  * @param bg_opa alpha of the background color
 525:lvgl/src/hal/../draw/../misc/lv_color.h ****  * @param fg_color foreground color
 526:lvgl/src/hal/../draw/../misc/lv_color.h ****  * @param fg_opa alpha of the foreground color
 527:lvgl/src/hal/../draw/../misc/lv_color.h ****  * @param res_color the result color
 528:lvgl/src/hal/../draw/../misc/lv_color.h ****  * @param res_opa the result opacity
 529:lvgl/src/hal/../draw/../misc/lv_color.h ****  */
 530:lvgl/src/hal/../draw/../misc/lv_color.h **** static inline void LV_ATTRIBUTE_FAST_MEM lv_color_mix_with_alpha(lv_color_t bg_color, lv_opa_t bg_o
 531:lvgl/src/hal/../draw/../misc/lv_color.h ****                                                                  lv_color_t fg_color, lv_opa_t fg_o
 532:lvgl/src/hal/../draw/../misc/lv_color.h ****                                                                  lv_color_t * res_color, lv_opa_t *
 533:lvgl/src/hal/../draw/../misc/lv_color.h **** {
 534:lvgl/src/hal/../draw/../misc/lv_color.h ****     /*Pick the foreground if it's fully opaque or the Background is fully transparent*/
 535:lvgl/src/hal/../draw/../misc/lv_color.h ****     if(fg_opa >= LV_OPA_MAX || bg_opa <= LV_OPA_MIN) {
 536:lvgl/src/hal/../draw/../misc/lv_color.h ****         res_color->full = fg_color.full;
 537:lvgl/src/hal/../draw/../misc/lv_color.h ****         *res_opa = fg_opa;
 538:lvgl/src/hal/../draw/../misc/lv_color.h ****     }
 539:lvgl/src/hal/../draw/../misc/lv_color.h ****     /*Transparent foreground: use the Background*/
 540:lvgl/src/hal/../draw/../misc/lv_color.h ****     else if(fg_opa <= LV_OPA_MIN) {
 541:lvgl/src/hal/../draw/../misc/lv_color.h ****         res_color->full = bg_color.full;
 542:lvgl/src/hal/../draw/../misc/lv_color.h ****         *res_opa = bg_opa;
ARM GAS  C:\Users\OSD\AppData\Local\Temp\ccDD6lYO.s 			page 24


 543:lvgl/src/hal/../draw/../misc/lv_color.h ****     }
 544:lvgl/src/hal/../draw/../misc/lv_color.h ****     /*Opaque background: use simple mix*/
 545:lvgl/src/hal/../draw/../misc/lv_color.h ****     else if(bg_opa >= LV_OPA_MAX) {
 546:lvgl/src/hal/../draw/../misc/lv_color.h ****         *res_color = lv_color_mix(fg_color, bg_color, fg_opa);
 547:lvgl/src/hal/../draw/../misc/lv_color.h ****         *res_opa = LV_OPA_COVER;
 548:lvgl/src/hal/../draw/../misc/lv_color.h ****     }
 549:lvgl/src/hal/../draw/../misc/lv_color.h ****     /*Both colors have alpha. Expensive calculation need to be applied*/
 550:lvgl/src/hal/../draw/../misc/lv_color.h ****     else {
 551:lvgl/src/hal/../draw/../misc/lv_color.h ****         /*Save the parameters and the result. If they will be asked again don't compute again*/
 552:lvgl/src/hal/../draw/../misc/lv_color.h ****         static lv_opa_t fg_opa_save     = 0;
 553:lvgl/src/hal/../draw/../misc/lv_color.h ****         static lv_opa_t bg_opa_save     = 0;
 554:lvgl/src/hal/../draw/../misc/lv_color.h ****         static lv_color_t fg_color_save = _LV_COLOR_ZERO_INITIALIZER;
 555:lvgl/src/hal/../draw/../misc/lv_color.h ****         static lv_color_t bg_color_save = _LV_COLOR_ZERO_INITIALIZER;
 556:lvgl/src/hal/../draw/../misc/lv_color.h ****         static lv_color_t res_color_saved = _LV_COLOR_ZERO_INITIALIZER;
 557:lvgl/src/hal/../draw/../misc/lv_color.h ****         static lv_opa_t res_opa_saved = 0;
 558:lvgl/src/hal/../draw/../misc/lv_color.h **** 
 559:lvgl/src/hal/../draw/../misc/lv_color.h ****         if(fg_opa != fg_opa_save || bg_opa != bg_opa_save || fg_color.full != fg_color_save.full ||
 560:lvgl/src/hal/../draw/../misc/lv_color.h ****            bg_color.full != bg_color_save.full) {
 561:lvgl/src/hal/../draw/../misc/lv_color.h ****             fg_opa_save        = fg_opa;
 562:lvgl/src/hal/../draw/../misc/lv_color.h ****             bg_opa_save        = bg_opa;
 563:lvgl/src/hal/../draw/../misc/lv_color.h ****             fg_color_save.full = fg_color.full;
 564:lvgl/src/hal/../draw/../misc/lv_color.h ****             bg_color_save.full = bg_color.full;
 565:lvgl/src/hal/../draw/../misc/lv_color.h ****             /*Info:
 566:lvgl/src/hal/../draw/../misc/lv_color.h ****              * https://en.wikipedia.org/wiki/Alpha_compositing#Analytical_derivation_of_the_over_op
 567:lvgl/src/hal/../draw/../misc/lv_color.h ****             res_opa_saved = 255 - ((uint16_t)((uint16_t)(255 - fg_opa) * (255 - bg_opa)) >> 8);
 568:lvgl/src/hal/../draw/../misc/lv_color.h ****             LV_ASSERT(res_opa_saved != 0);
 569:lvgl/src/hal/../draw/../misc/lv_color.h ****             lv_opa_t ratio = (uint16_t)((uint16_t)fg_opa * 255) / res_opa_saved;
 570:lvgl/src/hal/../draw/../misc/lv_color.h ****             res_color_saved = lv_color_mix(fg_color, bg_color, ratio);
 571:lvgl/src/hal/../draw/../misc/lv_color.h **** 
 572:lvgl/src/hal/../draw/../misc/lv_color.h ****         }
 573:lvgl/src/hal/../draw/../misc/lv_color.h **** 
 574:lvgl/src/hal/../draw/../misc/lv_color.h ****         res_color->full = res_color_saved.full;
 575:lvgl/src/hal/../draw/../misc/lv_color.h ****         *res_opa = res_opa_saved;
 576:lvgl/src/hal/../draw/../misc/lv_color.h ****     }
 577:lvgl/src/hal/../draw/../misc/lv_color.h **** }
 578:lvgl/src/hal/../draw/../misc/lv_color.h **** 
 579:lvgl/src/hal/../draw/../misc/lv_color.h **** //! @endcond
 580:lvgl/src/hal/../draw/../misc/lv_color.h **** 
 581:lvgl/src/hal/../draw/../misc/lv_color.h **** /**
 582:lvgl/src/hal/../draw/../misc/lv_color.h ****  * Get the brightness of a color
 583:lvgl/src/hal/../draw/../misc/lv_color.h ****  * @param color a color
 584:lvgl/src/hal/../draw/../misc/lv_color.h ****  * @return the brightness [0..255]
 585:lvgl/src/hal/../draw/../misc/lv_color.h ****  */
 586:lvgl/src/hal/../draw/../misc/lv_color.h **** static inline uint8_t lv_color_brightness(lv_color_t color)
  93              		.loc 2 586 23 view .LVU15
  94              	.LBB23:
 587:lvgl/src/hal/../draw/../misc/lv_color.h **** {
 588:lvgl/src/hal/../draw/../misc/lv_color.h ****     lv_color32_t c32;
  95              		.loc 2 588 5 view .LVU16
 589:lvgl/src/hal/../draw/../misc/lv_color.h ****     c32.full        = lv_color_to32(color);
  96              		.loc 2 589 5 view .LVU17
  97              	.LBB24:
  98              	.LBI24:
 374:lvgl/src/hal/../draw/../misc/lv_color.h **** {
  99              		.loc 2 374 24 view .LVU18
 100              	.LBB25:
 425:lvgl/src/hal/../draw/../misc/lv_color.h **** #endif
ARM GAS  C:\Users\OSD\AppData\Local\Temp\ccDD6lYO.s 			page 25


 101              		.loc 2 425 5 view .LVU19
 102              	.LBE25:
 103              	.LBE24:
 590:lvgl/src/hal/../draw/../misc/lv_color.h ****     uint16_t bright = (uint16_t)(3u * LV_COLOR_GET_R32(c32) + LV_COLOR_GET_B32(c32) + 4u * LV_COLOR
 104              		.loc 2 590 5 view .LVU20
 105              		.loc 2 590 39 is_stmt 0 view .LVU21
 106 0020 C3F3074C 		ubfx	ip, r3, #16, #8
 107              		.loc 2 590 37 view .LVU22
 108 0024 0CEB4C0C 		add	ip, ip, ip, lsl #1
 109              		.loc 2 590 92 view .LVU23
 110 0028 C3F30722 		ubfx	r2, r3, #8, #8
 111              		.loc 2 590 85 view .LVU24
 112 002c 0CEB820C 		add	ip, ip, r2, lsl #2
 113              		.loc 2 590 63 view .LVU25
 114 0030 DBB2     		uxtb	r3, r3
 115              	.LVL5:
 116              		.loc 2 590 14 view .LVU26
 117 0032 13FA8CF3 		uxtah	r3, r3, ip
 118              	.LVL6:
 591:lvgl/src/hal/../draw/../misc/lv_color.h ****     return (uint8_t)(bright >> 3);
 119              		.loc 2 591 5 is_stmt 1 view .LVU27
 120              		.loc 2 591 12 is_stmt 0 view .LVU28
 121 0036 C3F3CC08 		ubfx	r8, r3, #3, #13
 122 003a C3F3C703 		ubfx	r3, r3, #3, #8
 123              	.LVL7:
 124              		.loc 2 591 12 view .LVU29
 125              	.LBE23:
 126              	.LBE22:
 681:lvgl/src/hal/lv_hal_disp.c ****     if(opa < LV_OPA_MAX) {
 127              		.loc 1 681 5 is_stmt 1 view .LVU30
 128              		.loc 1 681 7 is_stmt 0 view .LVU31
 129 003e FC2F     		cmp	r7, #252
 130 0040 06D9     		bls	.L6
 131              	.LVL8:
 132              	.L4:
 682:lvgl/src/hal/lv_hal_disp.c ****         uint8_t bg = lv_img_buf_get_px_alpha(d, x, y);
 683:lvgl/src/hal/lv_hal_disp.c ****         br = (uint16_t)((uint16_t)br * opa + (bg * (255 - opa))) >> 8;
 684:lvgl/src/hal/lv_hal_disp.c ****     }
 685:lvgl/src/hal/lv_hal_disp.c **** 
 686:lvgl/src/hal/lv_hal_disp.c ****     lv_img_buf_set_px_alpha(d, x, y, br);
 133              		.loc 1 686 5 is_stmt 1 view .LVU32
 134 0042 3246     		mov	r2, r6
 135 0044 2946     		mov	r1, r5
 136 0046 2046     		mov	r0, r4
 137 0048 FFF7FEFF 		bl	lv_img_buf_set_px_alpha
 138              	.LVL9:
 687:lvgl/src/hal/lv_hal_disp.c **** }
 139              		.loc 1 687 1 is_stmt 0 view .LVU33
 140 004c BDE8F081 		pop	{r4, r5, r6, r7, r8, pc}
 141              	.LVL10:
 142              	.L6:
 143              	.LBB26:
 682:lvgl/src/hal/lv_hal_disp.c ****         uint8_t bg = lv_img_buf_get_px_alpha(d, x, y);
 144              		.loc 1 682 9 is_stmt 1 view .LVU34
 682:lvgl/src/hal/lv_hal_disp.c ****         uint8_t bg = lv_img_buf_get_px_alpha(d, x, y);
 145              		.loc 1 682 22 is_stmt 0 view .LVU35
 146 0050 3246     		mov	r2, r6
ARM GAS  C:\Users\OSD\AppData\Local\Temp\ccDD6lYO.s 			page 26


 147 0052 2946     		mov	r1, r5
 148 0054 FFF7FEFF 		bl	lv_img_buf_get_px_alpha
 149              	.LVL11:
 683:lvgl/src/hal/lv_hal_disp.c ****     }
 150              		.loc 1 683 9 is_stmt 1 view .LVU36
 683:lvgl/src/hal/lv_hal_disp.c ****     }
 151              		.loc 1 683 38 is_stmt 0 view .LVU37
 152 0058 5FFA88F8 		uxtb	r8, r8
 683:lvgl/src/hal/lv_hal_disp.c ****     }
 153              		.loc 1 683 57 view .LVU38
 154 005c C7F1FF03 		rsb	r3, r7, #255
 683:lvgl/src/hal/lv_hal_disp.c ****     }
 155              		.loc 1 683 14 view .LVU39
 156 0060 10FB03F3 		smulbb	r3, r0, r3
 157 0064 08FB0733 		mla	r3, r8, r7, r3
 683:lvgl/src/hal/lv_hal_disp.c ****     }
 158              		.loc 1 683 12 view .LVU40
 159 0068 C3F30723 		ubfx	r3, r3, #8, #8
 160              	.LVL12:
 683:lvgl/src/hal/lv_hal_disp.c ****     }
 161              		.loc 1 683 12 view .LVU41
 162 006c E9E7     		b	.L4
 163              	.LBE26:
 164              		.cfi_endproc
 165              	.LFE188:
 167              		.section	.text.set_px_cb_alpha8,"ax",%progbits
 168              		.align	1
 169              		.syntax unified
 170              		.thumb
 171              		.thumb_func
 173              	set_px_cb_alpha8:
 174              	.LVL13:
 175              	.LFB187:
 663:lvgl/src/hal/lv_hal_disp.c ****     (void) disp_drv; /*Unused*/
 176              		.loc 1 663 1 is_stmt 1 view -0
 177              		.cfi_startproc
 178              		@ args = 12, pretend = 0, frame = 16
 179              		@ frame_needed = 0, uses_anonymous_args = 0
 663:lvgl/src/hal/lv_hal_disp.c ****     (void) disp_drv; /*Unused*/
 180              		.loc 1 663 1 is_stmt 0 view .LVU43
 181 0000 00B5     		push	{lr}
 182              		.cfi_def_cfa_offset 4
 183              		.cfi_offset 14, -4
 184 0002 87B0     		sub	sp, sp, #28
 185              		.cfi_def_cfa_offset 32
 186 0004 0846     		mov	r0, r1
 187              	.LVL14:
 663:lvgl/src/hal/lv_hal_disp.c ****     (void) disp_drv; /*Unused*/
 188              		.loc 1 663 1 view .LVU44
 189 0006 1946     		mov	r1, r3
 190              	.LVL15:
 663:lvgl/src/hal/lv_hal_disp.c ****     (void) disp_drv; /*Unused*/
 191              		.loc 1 663 1 view .LVU45
 192 0008 9DF82830 		ldrb	r3, [sp, #40]	@ zero_extendqisi2
 193              	.LVL16:
 664:lvgl/src/hal/lv_hal_disp.c **** 
 194              		.loc 1 664 5 is_stmt 1 view .LVU46
ARM GAS  C:\Users\OSD\AppData\Local\Temp\ccDD6lYO.s 			page 27


 666:lvgl/src/hal/lv_hal_disp.c ****     lv_img_dsc_t d;
 195              		.loc 1 666 5 view .LVU47
 666:lvgl/src/hal/lv_hal_disp.c ****     lv_img_dsc_t d;
 196              		.loc 1 666 7 is_stmt 0 view .LVU48
 197 000c 022B     		cmp	r3, #2
 198 000e 02D8     		bhi	.L11
 199              	.LVL17:
 200              	.L7:
 673:lvgl/src/hal/lv_hal_disp.c **** 
 201              		.loc 1 673 1 view .LVU49
 202 0010 07B0     		add	sp, sp, #28
 203              		.cfi_remember_state
 204              		.cfi_def_cfa_offset 4
 205              		@ sp needed
 206 0012 5DF804FB 		ldr	pc, [sp], #4
 207              	.LVL18:
 208              	.L11:
 209              		.cfi_restore_state
 667:lvgl/src/hal/lv_hal_disp.c ****     d.data = buf;
 210              		.loc 1 667 5 is_stmt 1 view .LVU50
 668:lvgl/src/hal/lv_hal_disp.c ****     d.header.w = buf_w;
 211              		.loc 1 668 5 view .LVU51
 668:lvgl/src/hal/lv_hal_disp.c ****     d.header.w = buf_w;
 212              		.loc 1 668 12 is_stmt 0 view .LVU52
 213 0016 0590     		str	r0, [sp, #20]
 669:lvgl/src/hal/lv_hal_disp.c ****     d.header.cf = LV_IMG_CF_ALPHA_8BIT;
 214              		.loc 1 669 5 is_stmt 1 view .LVU53
 669:lvgl/src/hal/lv_hal_disp.c ****     d.header.cf = LV_IMG_CF_ALPHA_8BIT;
 215              		.loc 1 669 16 is_stmt 0 view .LVU54
 216 0018 0398     		ldr	r0, [sp, #12]
 217              	.LVL19:
 669:lvgl/src/hal/lv_hal_disp.c ****     d.header.cf = LV_IMG_CF_ALPHA_8BIT;
 218              		.loc 1 669 16 view .LVU55
 219 001a 62F39420 		bfi	r0, r2, #10, #11
 220 001e 0390     		str	r0, [sp, #12]
 670:lvgl/src/hal/lv_hal_disp.c **** 
 221              		.loc 1 670 5 is_stmt 1 view .LVU56
 670:lvgl/src/hal/lv_hal_disp.c **** 
 222              		.loc 1 670 17 is_stmt 0 view .LVU57
 223 0020 9DF80C20 		ldrb	r2, [sp, #12]	@ zero_extendqisi2
 224              	.LVL20:
 670:lvgl/src/hal/lv_hal_disp.c **** 
 225              		.loc 1 670 17 view .LVU58
 226 0024 0E20     		movs	r0, #14
 227 0026 60F30402 		bfi	r2, r0, #0, #5
 228 002a 8DF80C20 		strb	r2, [sp, #12]
 672:lvgl/src/hal/lv_hal_disp.c **** }
 229              		.loc 1 672 5 is_stmt 1 view .LVU59
 230 002e 0093     		str	r3, [sp]
 231 0030 099B     		ldr	r3, [sp, #36]
 232 0032 BDF92020 		ldrsh	r2, [sp, #32]
 233 0036 03A8     		add	r0, sp, #12
 234 0038 FFF7FEFF 		bl	set_px_alpha_generic
 235              	.LVL21:
 672:lvgl/src/hal/lv_hal_disp.c **** }
 236              		.loc 1 672 5 is_stmt 0 view .LVU60
 237 003c E8E7     		b	.L7
ARM GAS  C:\Users\OSD\AppData\Local\Temp\ccDD6lYO.s 			page 28


 238              		.cfi_endproc
 239              	.LFE187:
 241              		.section	.text.set_px_cb_alpha4,"ax",%progbits
 242              		.align	1
 243              		.syntax unified
 244              		.thumb
 245              		.thumb_func
 247              	set_px_cb_alpha4:
 248              	.LVL22:
 249              	.LFB186:
 649:lvgl/src/hal/lv_hal_disp.c ****     (void) disp_drv; /*Unused*/
 250              		.loc 1 649 1 is_stmt 1 view -0
 251              		.cfi_startproc
 252              		@ args = 12, pretend = 0, frame = 16
 253              		@ frame_needed = 0, uses_anonymous_args = 0
 649:lvgl/src/hal/lv_hal_disp.c ****     (void) disp_drv; /*Unused*/
 254              		.loc 1 649 1 is_stmt 0 view .LVU62
 255 0000 00B5     		push	{lr}
 256              		.cfi_def_cfa_offset 4
 257              		.cfi_offset 14, -4
 258 0002 87B0     		sub	sp, sp, #28
 259              		.cfi_def_cfa_offset 32
 260 0004 0846     		mov	r0, r1
 261              	.LVL23:
 649:lvgl/src/hal/lv_hal_disp.c ****     (void) disp_drv; /*Unused*/
 262              		.loc 1 649 1 view .LVU63
 263 0006 1946     		mov	r1, r3
 264              	.LVL24:
 649:lvgl/src/hal/lv_hal_disp.c ****     (void) disp_drv; /*Unused*/
 265              		.loc 1 649 1 view .LVU64
 266 0008 9DF82830 		ldrb	r3, [sp, #40]	@ zero_extendqisi2
 267              	.LVL25:
 650:lvgl/src/hal/lv_hal_disp.c **** 
 268              		.loc 1 650 5 is_stmt 1 view .LVU65
 652:lvgl/src/hal/lv_hal_disp.c ****     lv_img_dsc_t d;
 269              		.loc 1 652 5 view .LVU66
 652:lvgl/src/hal/lv_hal_disp.c ****     lv_img_dsc_t d;
 270              		.loc 1 652 7 is_stmt 0 view .LVU67
 271 000c 022B     		cmp	r3, #2
 272 000e 02D8     		bhi	.L16
 273              	.LVL26:
 274              	.L12:
 659:lvgl/src/hal/lv_hal_disp.c **** 
 275              		.loc 1 659 1 view .LVU68
 276 0010 07B0     		add	sp, sp, #28
 277              		.cfi_remember_state
 278              		.cfi_def_cfa_offset 4
 279              		@ sp needed
 280 0012 5DF804FB 		ldr	pc, [sp], #4
 281              	.LVL27:
 282              	.L16:
 283              		.cfi_restore_state
 653:lvgl/src/hal/lv_hal_disp.c ****     d.data = buf;
 284              		.loc 1 653 5 is_stmt 1 view .LVU69
 654:lvgl/src/hal/lv_hal_disp.c ****     d.header.w = buf_w;
 285              		.loc 1 654 5 view .LVU70
 654:lvgl/src/hal/lv_hal_disp.c ****     d.header.w = buf_w;
ARM GAS  C:\Users\OSD\AppData\Local\Temp\ccDD6lYO.s 			page 29


 286              		.loc 1 654 12 is_stmt 0 view .LVU71
 287 0016 0590     		str	r0, [sp, #20]
 655:lvgl/src/hal/lv_hal_disp.c ****     d.header.cf = LV_IMG_CF_ALPHA_4BIT;
 288              		.loc 1 655 5 is_stmt 1 view .LVU72
 655:lvgl/src/hal/lv_hal_disp.c ****     d.header.cf = LV_IMG_CF_ALPHA_4BIT;
 289              		.loc 1 655 16 is_stmt 0 view .LVU73
 290 0018 0398     		ldr	r0, [sp, #12]
 291              	.LVL28:
 655:lvgl/src/hal/lv_hal_disp.c ****     d.header.cf = LV_IMG_CF_ALPHA_4BIT;
 292              		.loc 1 655 16 view .LVU74
 293 001a 62F39420 		bfi	r0, r2, #10, #11
 294 001e 0390     		str	r0, [sp, #12]
 656:lvgl/src/hal/lv_hal_disp.c **** 
 295              		.loc 1 656 5 is_stmt 1 view .LVU75
 656:lvgl/src/hal/lv_hal_disp.c **** 
 296              		.loc 1 656 17 is_stmt 0 view .LVU76
 297 0020 9DF80C20 		ldrb	r2, [sp, #12]	@ zero_extendqisi2
 298              	.LVL29:
 656:lvgl/src/hal/lv_hal_disp.c **** 
 299              		.loc 1 656 17 view .LVU77
 300 0024 0D20     		movs	r0, #13
 301 0026 60F30402 		bfi	r2, r0, #0, #5
 302 002a 8DF80C20 		strb	r2, [sp, #12]
 658:lvgl/src/hal/lv_hal_disp.c **** }
 303              		.loc 1 658 5 is_stmt 1 view .LVU78
 304 002e 0093     		str	r3, [sp]
 305 0030 099B     		ldr	r3, [sp, #36]
 306 0032 BDF92020 		ldrsh	r2, [sp, #32]
 307 0036 03A8     		add	r0, sp, #12
 308 0038 FFF7FEFF 		bl	set_px_alpha_generic
 309              	.LVL30:
 658:lvgl/src/hal/lv_hal_disp.c **** }
 310              		.loc 1 658 5 is_stmt 0 view .LVU79
 311 003c E8E7     		b	.L12
 312              		.cfi_endproc
 313              	.LFE186:
 315              		.section	.text.set_px_cb_alpha2,"ax",%progbits
 316              		.align	1
 317              		.syntax unified
 318              		.thumb
 319              		.thumb_func
 321              	set_px_cb_alpha2:
 322              	.LVL31:
 323              	.LFB185:
 635:lvgl/src/hal/lv_hal_disp.c ****     (void) disp_drv; /*Unused*/
 324              		.loc 1 635 1 is_stmt 1 view -0
 325              		.cfi_startproc
 326              		@ args = 12, pretend = 0, frame = 16
 327              		@ frame_needed = 0, uses_anonymous_args = 0
 635:lvgl/src/hal/lv_hal_disp.c ****     (void) disp_drv; /*Unused*/
 328              		.loc 1 635 1 is_stmt 0 view .LVU81
 329 0000 00B5     		push	{lr}
 330              		.cfi_def_cfa_offset 4
 331              		.cfi_offset 14, -4
 332 0002 87B0     		sub	sp, sp, #28
 333              		.cfi_def_cfa_offset 32
 334 0004 0846     		mov	r0, r1
ARM GAS  C:\Users\OSD\AppData\Local\Temp\ccDD6lYO.s 			page 30


 335              	.LVL32:
 635:lvgl/src/hal/lv_hal_disp.c ****     (void) disp_drv; /*Unused*/
 336              		.loc 1 635 1 view .LVU82
 337 0006 1946     		mov	r1, r3
 338              	.LVL33:
 635:lvgl/src/hal/lv_hal_disp.c ****     (void) disp_drv; /*Unused*/
 339              		.loc 1 635 1 view .LVU83
 340 0008 9DF82830 		ldrb	r3, [sp, #40]	@ zero_extendqisi2
 341              	.LVL34:
 636:lvgl/src/hal/lv_hal_disp.c **** 
 342              		.loc 1 636 5 is_stmt 1 view .LVU84
 638:lvgl/src/hal/lv_hal_disp.c ****     lv_img_dsc_t d;
 343              		.loc 1 638 5 view .LVU85
 638:lvgl/src/hal/lv_hal_disp.c ****     lv_img_dsc_t d;
 344              		.loc 1 638 7 is_stmt 0 view .LVU86
 345 000c 022B     		cmp	r3, #2
 346 000e 02D8     		bhi	.L21
 347              	.LVL35:
 348              	.L17:
 645:lvgl/src/hal/lv_hal_disp.c **** 
 349              		.loc 1 645 1 view .LVU87
 350 0010 07B0     		add	sp, sp, #28
 351              		.cfi_remember_state
 352              		.cfi_def_cfa_offset 4
 353              		@ sp needed
 354 0012 5DF804FB 		ldr	pc, [sp], #4
 355              	.LVL36:
 356              	.L21:
 357              		.cfi_restore_state
 639:lvgl/src/hal/lv_hal_disp.c ****     d.data = buf;
 358              		.loc 1 639 5 is_stmt 1 view .LVU88
 640:lvgl/src/hal/lv_hal_disp.c ****     d.header.w = buf_w;
 359              		.loc 1 640 5 view .LVU89
 640:lvgl/src/hal/lv_hal_disp.c ****     d.header.w = buf_w;
 360              		.loc 1 640 12 is_stmt 0 view .LVU90
 361 0016 0590     		str	r0, [sp, #20]
 641:lvgl/src/hal/lv_hal_disp.c ****     d.header.cf = LV_IMG_CF_ALPHA_2BIT;
 362              		.loc 1 641 5 is_stmt 1 view .LVU91
 641:lvgl/src/hal/lv_hal_disp.c ****     d.header.cf = LV_IMG_CF_ALPHA_2BIT;
 363              		.loc 1 641 16 is_stmt 0 view .LVU92
 364 0018 0398     		ldr	r0, [sp, #12]
 365              	.LVL37:
 641:lvgl/src/hal/lv_hal_disp.c ****     d.header.cf = LV_IMG_CF_ALPHA_2BIT;
 366              		.loc 1 641 16 view .LVU93
 367 001a 62F39420 		bfi	r0, r2, #10, #11
 368 001e 0390     		str	r0, [sp, #12]
 642:lvgl/src/hal/lv_hal_disp.c **** 
 369              		.loc 1 642 5 is_stmt 1 view .LVU94
 642:lvgl/src/hal/lv_hal_disp.c **** 
 370              		.loc 1 642 17 is_stmt 0 view .LVU95
 371 0020 9DF80C20 		ldrb	r2, [sp, #12]	@ zero_extendqisi2
 372              	.LVL38:
 642:lvgl/src/hal/lv_hal_disp.c **** 
 373              		.loc 1 642 17 view .LVU96
 374 0024 0C20     		movs	r0, #12
 375 0026 60F30402 		bfi	r2, r0, #0, #5
 376 002a 8DF80C20 		strb	r2, [sp, #12]
ARM GAS  C:\Users\OSD\AppData\Local\Temp\ccDD6lYO.s 			page 31


 644:lvgl/src/hal/lv_hal_disp.c **** }
 377              		.loc 1 644 5 is_stmt 1 view .LVU97
 378 002e 0093     		str	r3, [sp]
 379 0030 099B     		ldr	r3, [sp, #36]
 380 0032 BDF92020 		ldrsh	r2, [sp, #32]
 381 0036 6844     		add	r0, sp, r0
 382 0038 FFF7FEFF 		bl	set_px_alpha_generic
 383              	.LVL39:
 644:lvgl/src/hal/lv_hal_disp.c **** }
 384              		.loc 1 644 5 is_stmt 0 view .LVU98
 385 003c E8E7     		b	.L17
 386              		.cfi_endproc
 387              	.LFE185:
 389              		.section	.text.set_px_cb_alpha1,"ax",%progbits
 390              		.align	1
 391              		.syntax unified
 392              		.thumb
 393              		.thumb_func
 395              	set_px_cb_alpha1:
 396              	.LVL40:
 397              	.LFB184:
 621:lvgl/src/hal/lv_hal_disp.c ****     (void) disp_drv; /*Unused*/
 398              		.loc 1 621 1 is_stmt 1 view -0
 399              		.cfi_startproc
 400              		@ args = 12, pretend = 0, frame = 16
 401              		@ frame_needed = 0, uses_anonymous_args = 0
 621:lvgl/src/hal/lv_hal_disp.c ****     (void) disp_drv; /*Unused*/
 402              		.loc 1 621 1 is_stmt 0 view .LVU100
 403 0000 00B5     		push	{lr}
 404              		.cfi_def_cfa_offset 4
 405              		.cfi_offset 14, -4
 406 0002 87B0     		sub	sp, sp, #28
 407              		.cfi_def_cfa_offset 32
 408 0004 0846     		mov	r0, r1
 409              	.LVL41:
 621:lvgl/src/hal/lv_hal_disp.c ****     (void) disp_drv; /*Unused*/
 410              		.loc 1 621 1 view .LVU101
 411 0006 1946     		mov	r1, r3
 412              	.LVL42:
 621:lvgl/src/hal/lv_hal_disp.c ****     (void) disp_drv; /*Unused*/
 413              		.loc 1 621 1 view .LVU102
 414 0008 9DF82830 		ldrb	r3, [sp, #40]	@ zero_extendqisi2
 415              	.LVL43:
 622:lvgl/src/hal/lv_hal_disp.c **** 
 416              		.loc 1 622 5 is_stmt 1 view .LVU103
 624:lvgl/src/hal/lv_hal_disp.c ****     lv_img_dsc_t d;
 417              		.loc 1 624 5 view .LVU104
 624:lvgl/src/hal/lv_hal_disp.c ****     lv_img_dsc_t d;
 418              		.loc 1 624 7 is_stmt 0 view .LVU105
 419 000c 022B     		cmp	r3, #2
 420 000e 02D8     		bhi	.L26
 421              	.LVL44:
 422              	.L22:
 631:lvgl/src/hal/lv_hal_disp.c **** 
 423              		.loc 1 631 1 view .LVU106
 424 0010 07B0     		add	sp, sp, #28
 425              		.cfi_remember_state
ARM GAS  C:\Users\OSD\AppData\Local\Temp\ccDD6lYO.s 			page 32


 426              		.cfi_def_cfa_offset 4
 427              		@ sp needed
 428 0012 5DF804FB 		ldr	pc, [sp], #4
 429              	.LVL45:
 430              	.L26:
 431              		.cfi_restore_state
 625:lvgl/src/hal/lv_hal_disp.c ****     d.data = buf;
 432              		.loc 1 625 5 is_stmt 1 view .LVU107
 626:lvgl/src/hal/lv_hal_disp.c ****     d.header.w = buf_w;
 433              		.loc 1 626 5 view .LVU108
 626:lvgl/src/hal/lv_hal_disp.c ****     d.header.w = buf_w;
 434              		.loc 1 626 12 is_stmt 0 view .LVU109
 435 0016 0590     		str	r0, [sp, #20]
 627:lvgl/src/hal/lv_hal_disp.c ****     d.header.cf = LV_IMG_CF_ALPHA_1BIT;
 436              		.loc 1 627 5 is_stmt 1 view .LVU110
 627:lvgl/src/hal/lv_hal_disp.c ****     d.header.cf = LV_IMG_CF_ALPHA_1BIT;
 437              		.loc 1 627 16 is_stmt 0 view .LVU111
 438 0018 0398     		ldr	r0, [sp, #12]
 439              	.LVL46:
 627:lvgl/src/hal/lv_hal_disp.c ****     d.header.cf = LV_IMG_CF_ALPHA_1BIT;
 440              		.loc 1 627 16 view .LVU112
 441 001a 62F39420 		bfi	r0, r2, #10, #11
 442 001e 0390     		str	r0, [sp, #12]
 628:lvgl/src/hal/lv_hal_disp.c **** 
 443              		.loc 1 628 5 is_stmt 1 view .LVU113
 628:lvgl/src/hal/lv_hal_disp.c **** 
 444              		.loc 1 628 17 is_stmt 0 view .LVU114
 445 0020 9DF80C20 		ldrb	r2, [sp, #12]	@ zero_extendqisi2
 446              	.LVL47:
 628:lvgl/src/hal/lv_hal_disp.c **** 
 447              		.loc 1 628 17 view .LVU115
 448 0024 0B20     		movs	r0, #11
 449 0026 60F30402 		bfi	r2, r0, #0, #5
 450 002a 8DF80C20 		strb	r2, [sp, #12]
 630:lvgl/src/hal/lv_hal_disp.c **** }
 451              		.loc 1 630 5 is_stmt 1 view .LVU116
 452 002e 0093     		str	r3, [sp]
 453 0030 099B     		ldr	r3, [sp, #36]
 454 0032 BDF92020 		ldrsh	r2, [sp, #32]
 455 0036 03A8     		add	r0, sp, #12
 456 0038 FFF7FEFF 		bl	set_px_alpha_generic
 457              	.LVL48:
 630:lvgl/src/hal/lv_hal_disp.c **** }
 458              		.loc 1 630 5 is_stmt 0 view .LVU117
 459 003c E8E7     		b	.L22
 460              		.cfi_endproc
 461              	.LFE184:
 463              		.section	.text.set_px_true_color_alpha,"ax",%progbits
 464              		.align	1
 465              		.syntax unified
 466              		.thumb
 467              		.thumb_func
 469              	set_px_true_color_alpha:
 470              	.LVL49:
 471              	.LFB189:
 688:lvgl/src/hal/lv_hal_disp.c **** 
 689:lvgl/src/hal/lv_hal_disp.c **** static void set_px_true_color_alpha(lv_disp_drv_t * disp_drv, uint8_t * buf, lv_coord_t buf_w,
ARM GAS  C:\Users\OSD\AppData\Local\Temp\ccDD6lYO.s 			page 33


 690:lvgl/src/hal/lv_hal_disp.c ****                                     lv_coord_t x, lv_coord_t y,
 691:lvgl/src/hal/lv_hal_disp.c ****                                     lv_color_t color, lv_opa_t opa)
 692:lvgl/src/hal/lv_hal_disp.c **** {
 472              		.loc 1 692 1 is_stmt 1 view -0
 473              		.cfi_startproc
 474              		@ args = 12, pretend = 0, frame = 0
 475              		@ frame_needed = 0, uses_anonymous_args = 0
 476              		.loc 1 692 1 is_stmt 0 view .LVU119
 477 0000 70B5     		push	{r4, r5, r6, lr}
 478              		.cfi_def_cfa_offset 16
 479              		.cfi_offset 4, -16
 480              		.cfi_offset 5, -12
 481              		.cfi_offset 6, -8
 482              		.cfi_offset 14, -4
 483 0002 9DF818C0 		ldrb	ip, [sp, #24]	@ zero_extendqisi2
 693:lvgl/src/hal/lv_hal_disp.c ****     (void) disp_drv; /*Unused*/
 484              		.loc 1 693 5 is_stmt 1 view .LVU120
 694:lvgl/src/hal/lv_hal_disp.c **** 
 695:lvgl/src/hal/lv_hal_disp.c ****     uint8_t * buf_px = buf + (buf_w * y * LV_IMG_PX_SIZE_ALPHA_BYTE + x * LV_IMG_PX_SIZE_ALPHA_BYTE
 485              		.loc 1 695 5 view .LVU121
 486              		.loc 1 695 69 is_stmt 0 view .LVU122
 487 0006 BDF91000 		ldrsh	r0, [sp, #16]
 488              	.LVL50:
 489              		.loc 1 695 69 view .LVU123
 490 000a 00FB0233 		mla	r3, r0, r2, r3
 491              	.LVL51:
 492              		.loc 1 695 15 view .LVU124
 493 000e 01EB830E 		add	lr, r1, r3, lsl #2
 494              	.LVL52:
 696:lvgl/src/hal/lv_hal_disp.c **** 
 697:lvgl/src/hal/lv_hal_disp.c ****     lv_color_t bg_color;
 495              		.loc 1 697 5 is_stmt 1 view .LVU125
 698:lvgl/src/hal/lv_hal_disp.c ****     lv_color_t res_color;
 496              		.loc 1 698 5 view .LVU126
 699:lvgl/src/hal/lv_hal_disp.c ****     lv_opa_t bg_opa = buf_px[LV_IMG_PX_SIZE_ALPHA_BYTE - 1];
 497              		.loc 1 699 5 view .LVU127
 498              		.loc 1 699 14 is_stmt 0 view .LVU128
 499 0012 9EF80340 		ldrb	r4, [lr, #3]	@ zero_extendqisi2
 500              	.LVL53:
 700:lvgl/src/hal/lv_hal_disp.c **** #if LV_COLOR_DEPTH == 8 || LV_COLOR_DEPTH == 1
 701:lvgl/src/hal/lv_hal_disp.c ****     bg_color.full = buf_px[0];
 702:lvgl/src/hal/lv_hal_disp.c ****     lv_color_mix_with_alpha(bg_color, bg_opa, color, opa, &res_color, &buf_px[2]);
 703:lvgl/src/hal/lv_hal_disp.c ****     if(buf_px[1] <= LV_OPA_MIN) return;
 704:lvgl/src/hal/lv_hal_disp.c ****     buf_px[0] = res_color.full;
 705:lvgl/src/hal/lv_hal_disp.c **** #elif LV_COLOR_DEPTH == 16
 706:lvgl/src/hal/lv_hal_disp.c ****     bg_color.full = buf_px[0] + (buf_px[1] << 8);
 707:lvgl/src/hal/lv_hal_disp.c ****     lv_color_mix_with_alpha(bg_color, bg_opa, color, opa, &res_color, &buf_px[2]);
 708:lvgl/src/hal/lv_hal_disp.c ****     if(buf_px[2] <= LV_OPA_MIN) return;
 709:lvgl/src/hal/lv_hal_disp.c ****     buf_px[0] = res_color.full & 0xff;
 710:lvgl/src/hal/lv_hal_disp.c ****     buf_px[1] = res_color.full >> 8;
 711:lvgl/src/hal/lv_hal_disp.c **** #elif LV_COLOR_DEPTH == 32
 712:lvgl/src/hal/lv_hal_disp.c ****     bg_color = *((lv_color_t *)buf_px);
 501              		.loc 1 712 5 is_stmt 1 view .LVU129
 502              		.loc 1 712 14 is_stmt 0 view .LVU130
 503 0016 51F82300 		ldr	r0, [r1, r3, lsl #2]
 504              	.LVL54:
 713:lvgl/src/hal/lv_hal_disp.c ****     lv_color_mix_with_alpha(bg_color, bg_opa, color, opa, &res_color, &buf_px[3]);
ARM GAS  C:\Users\OSD\AppData\Local\Temp\ccDD6lYO.s 			page 34


 505              		.loc 1 713 5 is_stmt 1 view .LVU131
 506              	.LBB35:
 507              	.LBI35:
 530:lvgl/src/hal/../draw/../misc/lv_color.h ****                                                                  lv_color_t fg_color, lv_opa_t fg_o
 508              		.loc 2 530 42 view .LVU132
 509              	.LBB36:
 535:lvgl/src/hal/../draw/../misc/lv_color.h ****         res_color->full = fg_color.full;
 510              		.loc 2 535 5 view .LVU133
 535:lvgl/src/hal/../draw/../misc/lv_color.h ****         res_color->full = fg_color.full;
 511              		.loc 2 535 39 is_stmt 0 view .LVU134
 512 001a 022C     		cmp	r4, #2
 513 001c 8CBF     		ite	hi
 514 001e 0022     		movhi	r2, #0
 515              	.LVL55:
 535:lvgl/src/hal/../draw/../misc/lv_color.h ****         res_color->full = fg_color.full;
 516              		.loc 2 535 39 view .LVU135
 517 0020 0122     		movls	r2, #1
 535:lvgl/src/hal/../draw/../misc/lv_color.h ****         res_color->full = fg_color.full;
 518              		.loc 2 535 29 view .LVU136
 519 0022 BCF1FC0F 		cmp	ip, #252
 520 0026 88BF     		it	hi
 521 0028 42F00102 		orrhi	r2, r2, #1
 535:lvgl/src/hal/../draw/../misc/lv_color.h ****         res_color->full = fg_color.full;
 522              		.loc 2 535 7 view .LVU137
 523 002c 8AB1     		cbz	r2, .L28
 536:lvgl/src/hal/../draw/../misc/lv_color.h ****         *res_opa = fg_opa;
 524              		.loc 2 536 9 is_stmt 1 view .LVU138
 536:lvgl/src/hal/../draw/../misc/lv_color.h ****         *res_opa = fg_opa;
 525              		.loc 2 536 25 is_stmt 0 view .LVU139
 526 002e 0598     		ldr	r0, [sp, #20]
 527              	.LVL56:
 537:lvgl/src/hal/../draw/../misc/lv_color.h ****     }
 528              		.loc 2 537 9 is_stmt 1 view .LVU140
 537:lvgl/src/hal/../draw/../misc/lv_color.h ****     }
 529              		.loc 2 537 18 is_stmt 0 view .LVU141
 530 0030 8EF803C0 		strb	ip, [lr, #3]
 531              	.LVL57:
 532              	.L29:
 537:lvgl/src/hal/../draw/../misc/lv_color.h ****     }
 533              		.loc 2 537 18 view .LVU142
 534              	.LBE36:
 535              	.LBE35:
 714:lvgl/src/hal/lv_hal_disp.c ****     if(buf_px[3] <= LV_OPA_MIN) return;
 536              		.loc 1 714 5 is_stmt 1 view .LVU143
 537              		.loc 1 714 14 is_stmt 0 view .LVU144
 538 0034 9EF80320 		ldrb	r2, [lr, #3]	@ zero_extendqisi2
 539              		.loc 1 714 7 view .LVU145
 540 0038 022A     		cmp	r2, #2
 541 003a 09D9     		bls	.L27
 715:lvgl/src/hal/lv_hal_disp.c ****     buf_px[0] = res_color.ch.blue;
 542              		.loc 1 715 5 is_stmt 1 view .LVU146
 543              		.loc 1 715 15 is_stmt 0 view .LVU147
 544 003c 01F82300 		strb	r0, [r1, r3, lsl #2]
 716:lvgl/src/hal/lv_hal_disp.c ****     buf_px[1] = res_color.ch.green;
 545              		.loc 1 716 5 is_stmt 1 view .LVU148
 546              		.loc 1 716 29 is_stmt 0 view .LVU149
 547 0040 C0F30723 		ubfx	r3, r0, #8, #8
ARM GAS  C:\Users\OSD\AppData\Local\Temp\ccDD6lYO.s 			page 35


 548              		.loc 1 716 15 view .LVU150
 549 0044 8EF80130 		strb	r3, [lr, #1]
 717:lvgl/src/hal/lv_hal_disp.c ****     buf_px[2] = res_color.ch.red;
 550              		.loc 1 717 5 is_stmt 1 view .LVU151
 551              		.loc 1 717 29 is_stmt 0 view .LVU152
 552 0048 C0F30740 		ubfx	r0, r0, #16, #8
 553              		.loc 1 717 15 view .LVU153
 554 004c 8EF80200 		strb	r0, [lr, #2]
 555              	.L27:
 718:lvgl/src/hal/lv_hal_disp.c **** #endif
 719:lvgl/src/hal/lv_hal_disp.c **** 
 720:lvgl/src/hal/lv_hal_disp.c **** }
 556              		.loc 1 720 1 view .LVU154
 557 0050 70BD     		pop	{r4, r5, r6, pc}
 558              	.LVL58:
 559              	.L28:
 560              	.LBB45:
 561              	.LBB44:
 540:lvgl/src/hal/../draw/../misc/lv_color.h ****         res_color->full = bg_color.full;
 562              		.loc 2 540 10 is_stmt 1 view .LVU155
 540:lvgl/src/hal/../draw/../misc/lv_color.h ****         res_color->full = bg_color.full;
 563              		.loc 2 540 12 is_stmt 0 view .LVU156
 564 0052 BCF1020F 		cmp	ip, #2
 565 0056 02D8     		bhi	.L30
 541:lvgl/src/hal/../draw/../misc/lv_color.h ****         *res_opa = bg_opa;
 566              		.loc 2 541 9 is_stmt 1 view .LVU157
 542:lvgl/src/hal/../draw/../misc/lv_color.h ****     }
 567              		.loc 2 542 9 view .LVU158
 542:lvgl/src/hal/../draw/../misc/lv_color.h ****     }
 568              		.loc 2 542 18 is_stmt 0 view .LVU159
 569 0058 8EF80340 		strb	r4, [lr, #3]
 570 005c EAE7     		b	.L29
 571              	.L30:
 545:lvgl/src/hal/../draw/../misc/lv_color.h ****         *res_color = lv_color_mix(fg_color, bg_color, fg_opa);
 572              		.loc 2 545 10 is_stmt 1 view .LVU160
 545:lvgl/src/hal/../draw/../misc/lv_color.h ****         *res_color = lv_color_mix(fg_color, bg_color, fg_opa);
 573              		.loc 2 545 12 is_stmt 0 view .LVU161
 574 005e FC2C     		cmp	r4, #252
 575 0060 39D9     		bls	.L31
 546:lvgl/src/hal/../draw/../misc/lv_color.h ****         *res_opa = LV_OPA_COVER;
 576              		.loc 2 546 9 is_stmt 1 view .LVU162
 577              	.LVL59:
 578              	.LBB37:
 579              	.LBI37:
 438:lvgl/src/hal/../draw/../misc/lv_color.h **** {
 580              		.loc 2 438 48 view .LVU163
 581              	.LBB38:
 440:lvgl/src/hal/../draw/../misc/lv_color.h **** 
 582              		.loc 2 440 5 view .LVU164
 459:lvgl/src/hal/../draw/../misc/lv_color.h ****                                    (255 - mix) + LV_COLOR_MIX_ROUND_OFS));
 583              		.loc 2 459 5 view .LVU165
 584 0062 059A     		ldr	r2, [sp, #20]
 585 0064 C2F30745 		ubfx	r5, r2, #16, #8
 586              	.LVL60:
 459:lvgl/src/hal/../draw/../misc/lv_color.h ****                                    (255 - mix) + LV_COLOR_MIX_ROUND_OFS));
 587              		.loc 2 459 5 is_stmt 0 view .LVU166
 588 0068 C0F30744 		ubfx	r4, r0, #16, #8
ARM GAS  C:\Users\OSD\AppData\Local\Temp\ccDD6lYO.s 			page 36


 589              	.LVL61:
 459:lvgl/src/hal/../draw/../misc/lv_color.h ****                                    (255 - mix) + LV_COLOR_MIX_ROUND_OFS));
 590              		.loc 2 459 5 view .LVU167
 591 006c CCF1FF02 		rsb	r2, ip, #255
 592 0070 02FB04F4 		mul	r4, r2, r4
 593 0074 0CFB0544 		mla	r4, ip, r5, r4
 594 0078 04EB0425 		add	r5, r4, r4, lsl #8
 595 007c 04EBC514 		add	r4, r4, r5, lsl #7
 596 0080 C4F3C754 		ubfx	r4, r4, #23, #8
 597 0084 0025     		movs	r5, #0
 459:lvgl/src/hal/../draw/../misc/lv_color.h ****                                    (255 - mix) + LV_COLOR_MIX_ROUND_OFS));
 598              		.loc 2 459 5 view .LVU168
 599 0086 64F31745 		bfi	r5, r4, #16, #8
 600              	.LVL62:
 461:lvgl/src/hal/../draw/../misc/lv_color.h ****                                    (255 - mix) + LV_COLOR_MIX_ROUND_OFS));
 601              		.loc 2 461 5 is_stmt 1 view .LVU169
 602 008a 059C     		ldr	r4, [sp, #20]
 603 008c C4F30726 		ubfx	r6, r4, #8, #8
 604 0090 C0F30724 		ubfx	r4, r0, #8, #8
 605 0094 02FB04F4 		mul	r4, r2, r4
 606 0098 06FB0C44 		mla	r4, r6, ip, r4
 607 009c 04EB0426 		add	r6, r4, r4, lsl #8
 608 00a0 04EBC614 		add	r4, r4, r6, lsl #7
 609 00a4 C4F3C754 		ubfx	r4, r4, #23, #8
 610 00a8 64F30F25 		bfi	r5, r4, #8, #8
 463:lvgl/src/hal/../draw/../misc/lv_color.h ****                                    (255 - mix) + LV_COLOR_MIX_ROUND_OFS));
 611              		.loc 2 463 5 view .LVU170
 612 00ac 059C     		ldr	r4, [sp, #20]
 613 00ae E4B2     		uxtb	r4, r4
 614 00b0 C0B2     		uxtb	r0, r0
 615              	.LVL63:
 463:lvgl/src/hal/../draw/../misc/lv_color.h ****                                    (255 - mix) + LV_COLOR_MIX_ROUND_OFS));
 616              		.loc 2 463 5 is_stmt 0 view .LVU171
 617 00b2 00FB02F2 		mul	r2, r0, r2
 618 00b6 04FB0C2C 		mla	ip, r4, ip, r2
 619              	.LVL64:
 463:lvgl/src/hal/../draw/../misc/lv_color.h ****                                    (255 - mix) + LV_COLOR_MIX_ROUND_OFS));
 620              		.loc 2 463 5 view .LVU172
 621 00ba 0CEB0C22 		add	r2, ip, ip, lsl #8
 622 00be 0CEBC21C 		add	ip, ip, r2, lsl #7
 623 00c2 CCF3C75C 		ubfx	ip, ip, #23, #8
 624 00c6 6CF30705 		bfi	r5, ip, #0, #8
 465:lvgl/src/hal/../draw/../misc/lv_color.h **** #else
 625              		.loc 2 465 5 is_stmt 1 view .LVU173
 471:lvgl/src/hal/../draw/../misc/lv_color.h **** }
 626              		.loc 2 471 5 view .LVU174
 627              	.LVL65:
 471:lvgl/src/hal/../draw/../misc/lv_color.h **** }
 628              		.loc 2 471 5 is_stmt 0 view .LVU175
 629              	.LBE38:
 630              	.LBE37:
 546:lvgl/src/hal/../draw/../misc/lv_color.h ****         *res_opa = LV_OPA_COVER;
 631              		.loc 2 546 22 view .LVU176
 632 00ca 45F07F40 		orr	r0, r5, #-16777216
 547:lvgl/src/hal/../draw/../misc/lv_color.h ****     }
 633              		.loc 2 547 9 is_stmt 1 view .LVU177
 547:lvgl/src/hal/../draw/../misc/lv_color.h ****     }
ARM GAS  C:\Users\OSD\AppData\Local\Temp\ccDD6lYO.s 			page 37


 634              		.loc 2 547 18 is_stmt 0 view .LVU178
 635 00ce FF22     		movs	r2, #255
 636 00d0 8EF80320 		strb	r2, [lr, #3]
 637              	.LVL66:
 547:lvgl/src/hal/../draw/../misc/lv_color.h ****     }
 638              		.loc 2 547 18 view .LVU179
 639 00d4 AEE7     		b	.L29
 640              	.LVL67:
 641              	.L31:
 642              	.LBB39:
 552:lvgl/src/hal/../draw/../misc/lv_color.h ****         static lv_opa_t bg_opa_save     = 0;
 643              		.loc 2 552 9 is_stmt 1 view .LVU180
 553:lvgl/src/hal/../draw/../misc/lv_color.h ****         static lv_color_t fg_color_save = _LV_COLOR_ZERO_INITIALIZER;
 644              		.loc 2 553 9 view .LVU181
 554:lvgl/src/hal/../draw/../misc/lv_color.h ****         static lv_color_t bg_color_save = _LV_COLOR_ZERO_INITIALIZER;
 645              		.loc 2 554 9 view .LVU182
 555:lvgl/src/hal/../draw/../misc/lv_color.h ****         static lv_color_t res_color_saved = _LV_COLOR_ZERO_INITIALIZER;
 646              		.loc 2 555 9 view .LVU183
 556:lvgl/src/hal/../draw/../misc/lv_color.h ****         static lv_opa_t res_opa_saved = 0;
 647              		.loc 2 556 9 view .LVU184
 557:lvgl/src/hal/../draw/../misc/lv_color.h **** 
 648              		.loc 2 557 9 view .LVU185
 559:lvgl/src/hal/../draw/../misc/lv_color.h ****            bg_color.full != bg_color_save.full) {
 649              		.loc 2 559 9 view .LVU186
 559:lvgl/src/hal/../draw/../misc/lv_color.h ****            bg_color.full != bg_color_save.full) {
 650              		.loc 2 559 19 is_stmt 0 view .LVU187
 651 00d6 394A     		ldr	r2, .L40
 652 00d8 1278     		ldrb	r2, [r2]	@ zero_extendqisi2
 559:lvgl/src/hal/../draw/../misc/lv_color.h ****            bg_color.full != bg_color_save.full) {
 653              		.loc 2 559 11 view .LVU188
 654 00da 9445     		cmp	ip, r2
 655 00dc 19D0     		beq	.L39
 656              	.LVL68:
 657              	.L32:
 658              	.LBB40:
 561:lvgl/src/hal/../draw/../misc/lv_color.h ****             bg_opa_save        = bg_opa;
 659              		.loc 2 561 13 is_stmt 1 view .LVU189
 561:lvgl/src/hal/../draw/../misc/lv_color.h ****             bg_opa_save        = bg_opa;
 660              		.loc 2 561 32 is_stmt 0 view .LVU190
 661 00de 374A     		ldr	r2, .L40
 662 00e0 82F800C0 		strb	ip, [r2]
 562:lvgl/src/hal/../draw/../misc/lv_color.h ****             fg_color_save.full = fg_color.full;
 663              		.loc 2 562 13 is_stmt 1 view .LVU191
 562:lvgl/src/hal/../draw/../misc/lv_color.h ****             fg_color_save.full = fg_color.full;
 664              		.loc 2 562 32 is_stmt 0 view .LVU192
 665 00e4 364A     		ldr	r2, .L40+4
 666 00e6 1470     		strb	r4, [r2]
 563:lvgl/src/hal/../draw/../misc/lv_color.h ****             bg_color_save.full = bg_color.full;
 667              		.loc 2 563 13 is_stmt 1 view .LVU193
 563:lvgl/src/hal/../draw/../misc/lv_color.h ****             bg_color_save.full = bg_color.full;
 668              		.loc 2 563 32 is_stmt 0 view .LVU194
 669 00e8 364A     		ldr	r2, .L40+8
 670 00ea 059D     		ldr	r5, [sp, #20]
 671 00ec 1560     		str	r5, [r2]
 564:lvgl/src/hal/../draw/../misc/lv_color.h ****             /*Info:
 672              		.loc 2 564 13 is_stmt 1 view .LVU195
 564:lvgl/src/hal/../draw/../misc/lv_color.h ****             /*Info:
ARM GAS  C:\Users\OSD\AppData\Local\Temp\ccDD6lYO.s 			page 38


 673              		.loc 2 564 32 is_stmt 0 view .LVU196
 674 00ee 364A     		ldr	r2, .L40+12
 675 00f0 1060     		str	r0, [r2]
 567:lvgl/src/hal/../draw/../misc/lv_color.h ****             LV_ASSERT(res_opa_saved != 0);
 676              		.loc 2 567 13 is_stmt 1 view .LVU197
 567:lvgl/src/hal/../draw/../misc/lv_color.h ****             LV_ASSERT(res_opa_saved != 0);
 677              		.loc 2 567 47 is_stmt 0 view .LVU198
 678 00f2 1FFA8CF5 		uxth	r5, ip
 679 00f6 CCF1FF02 		rsb	r2, ip, #255
 567:lvgl/src/hal/../draw/../misc/lv_color.h ****             LV_ASSERT(res_opa_saved != 0);
 680              		.loc 2 567 79 view .LVU199
 681 00fa C4F1FF04 		rsb	r4, r4, #255
 682              	.LVL69:
 567:lvgl/src/hal/../draw/../misc/lv_color.h ****             LV_ASSERT(res_opa_saved != 0);
 683              		.loc 2 567 36 view .LVU200
 684 00fe 04FB02F2 		mul	r2, r4, r2
 567:lvgl/src/hal/../draw/../misc/lv_color.h ****             LV_ASSERT(res_opa_saved != 0);
 685              		.loc 2 567 33 view .LVU201
 686 0102 C2F30722 		ubfx	r2, r2, #8, #8
 687 0106 D243     		mvns	r2, r2
 688 0108 D2B2     		uxtb	r2, r2
 567:lvgl/src/hal/../draw/../misc/lv_color.h ****             LV_ASSERT(res_opa_saved != 0);
 689              		.loc 2 567 27 view .LVU202
 690 010a 304C     		ldr	r4, .L40+16
 691 010c 2270     		strb	r2, [r4]
 568:lvgl/src/hal/../draw/../misc/lv_color.h ****             lv_opa_t ratio = (uint16_t)((uint16_t)fg_opa * 255) / res_opa_saved;
 692              		.loc 2 568 13 is_stmt 1 view .LVU203
 568:lvgl/src/hal/../draw/../misc/lv_color.h ****             lv_opa_t ratio = (uint16_t)((uint16_t)fg_opa * 255) / res_opa_saved;
 693              		.loc 2 568 13 view .LVU204
 694 010e 72B9     		cbnz	r2, .L34
 695              	.L35:
 568:lvgl/src/hal/../draw/../misc/lv_color.h ****             lv_opa_t ratio = (uint16_t)((uint16_t)fg_opa * 255) / res_opa_saved;
 696              		.loc 2 568 13 view .LVU205
 568:lvgl/src/hal/../draw/../misc/lv_color.h ****             lv_opa_t ratio = (uint16_t)((uint16_t)fg_opa * 255) / res_opa_saved;
 697              		.loc 2 568 13 view .LVU206
 568:lvgl/src/hal/../draw/../misc/lv_color.h ****             lv_opa_t ratio = (uint16_t)((uint16_t)fg_opa * 255) / res_opa_saved;
 698              		.loc 2 568 13 view .LVU207
 568:lvgl/src/hal/../draw/../misc/lv_color.h ****             lv_opa_t ratio = (uint16_t)((uint16_t)fg_opa * 255) / res_opa_saved;
 699              		.loc 2 568 13 view .LVU208
 568:lvgl/src/hal/../draw/../misc/lv_color.h ****             lv_opa_t ratio = (uint16_t)((uint16_t)fg_opa * 255) / res_opa_saved;
 700              		.loc 2 568 13 view .LVU209
 568:lvgl/src/hal/../draw/../misc/lv_color.h ****             lv_opa_t ratio = (uint16_t)((uint16_t)fg_opa * 255) / res_opa_saved;
 701              		.loc 2 568 13 view .LVU210
 702 0110 FEE7     		b	.L35
 703              	.LVL70:
 704              	.L39:
 568:lvgl/src/hal/../draw/../misc/lv_color.h ****             lv_opa_t ratio = (uint16_t)((uint16_t)fg_opa * 255) / res_opa_saved;
 705              		.loc 2 568 13 is_stmt 0 view .LVU211
 706              	.LBE40:
 559:lvgl/src/hal/../draw/../misc/lv_color.h ****            bg_color.full != bg_color_save.full) {
 707              		.loc 2 559 44 view .LVU212
 708 0112 2B4A     		ldr	r2, .L40+4
 709 0114 1278     		ldrb	r2, [r2]	@ zero_extendqisi2
 559:lvgl/src/hal/../draw/../misc/lv_color.h ****            bg_color.full != bg_color_save.full) {
 710              		.loc 2 559 34 view .LVU213
 711 0116 9442     		cmp	r4, r2
 712 0118 E1D1     		bne	.L32
ARM GAS  C:\Users\OSD\AppData\Local\Temp\ccDD6lYO.s 			page 39


 559:lvgl/src/hal/../draw/../misc/lv_color.h ****            bg_color.full != bg_color_save.full) {
 713              		.loc 2 559 92 view .LVU214
 714 011a 2A4A     		ldr	r2, .L40+8
 715 011c 1268     		ldr	r2, [r2]
 559:lvgl/src/hal/../draw/../misc/lv_color.h ****            bg_color.full != bg_color_save.full) {
 716              		.loc 2 559 59 view .LVU215
 717 011e 059D     		ldr	r5, [sp, #20]
 718 0120 9542     		cmp	r5, r2
 719 0122 DCD1     		bne	.L32
 560:lvgl/src/hal/../draw/../misc/lv_color.h ****             fg_opa_save        = fg_opa;
 720              		.loc 2 560 42 view .LVU216
 721 0124 284A     		ldr	r2, .L40+12
 722 0126 1268     		ldr	r2, [r2]
 723              	.LVL71:
 559:lvgl/src/hal/../draw/../misc/lv_color.h ****            bg_color.full != bg_color_save.full) {
 724              		.loc 2 559 98 view .LVU217
 725 0128 9042     		cmp	r0, r2
 726 012a D8D1     		bne	.L32
 727 012c 3EE0     		b	.L33
 728              	.LVL72:
 729              	.L34:
 730              	.LBB43:
 568:lvgl/src/hal/../draw/../misc/lv_color.h ****             lv_opa_t ratio = (uint16_t)((uint16_t)fg_opa * 255) / res_opa_saved;
 731              		.loc 2 568 13 is_stmt 1 view .LVU218
 569:lvgl/src/hal/../draw/../misc/lv_color.h ****             res_color_saved = lv_color_mix(fg_color, bg_color, ratio);
 732              		.loc 2 569 13 view .LVU219
 569:lvgl/src/hal/../draw/../misc/lv_color.h ****             res_color_saved = lv_color_mix(fg_color, bg_color, ratio);
 733              		.loc 2 569 30 is_stmt 0 view .LVU220
 734 012e C5EB0525 		rsb	r5, r5, r5, lsl #8
 735 0132 ACB2     		uxth	r4, r5
 569:lvgl/src/hal/../draw/../misc/lv_color.h ****             res_color_saved = lv_color_mix(fg_color, bg_color, ratio);
 736              		.loc 2 569 65 view .LVU221
 737 0134 94FBF2F2 		sdiv	r2, r4, r2
 569:lvgl/src/hal/../draw/../misc/lv_color.h ****             res_color_saved = lv_color_mix(fg_color, bg_color, ratio);
 738              		.loc 2 569 22 view .LVU222
 739 0138 D2B2     		uxtb	r2, r2
 740              	.LVL73:
 570:lvgl/src/hal/../draw/../misc/lv_color.h **** 
 741              		.loc 2 570 13 is_stmt 1 view .LVU223
 742              	.LBB41:
 743              	.LBI41:
 438:lvgl/src/hal/../draw/../misc/lv_color.h **** {
 744              		.loc 2 438 48 view .LVU224
 745              	.LBB42:
 440:lvgl/src/hal/../draw/../misc/lv_color.h **** 
 746              		.loc 2 440 5 view .LVU225
 459:lvgl/src/hal/../draw/../misc/lv_color.h ****                                    (255 - mix) + LV_COLOR_MIX_ROUND_OFS));
 747              		.loc 2 459 5 view .LVU226
 748 013a 059C     		ldr	r4, [sp, #20]
 749 013c C4F30746 		ubfx	r6, r4, #16, #8
 750 0140 C0F30745 		ubfx	r5, r0, #16, #8
 751 0144 C2F1FF04 		rsb	r4, r2, #255
 752 0148 04FB05F5 		mul	r5, r4, r5
 753 014c 02FB0655 		mla	r5, r2, r6, r5
 754 0150 05EB0526 		add	r6, r5, r5, lsl #8
 755 0154 05EBC615 		add	r5, r5, r6, lsl #7
 756 0158 C5F3C755 		ubfx	r5, r5, #23, #8
ARM GAS  C:\Users\OSD\AppData\Local\Temp\ccDD6lYO.s 			page 40


 757 015c 0026     		movs	r6, #0
 459:lvgl/src/hal/../draw/../misc/lv_color.h ****                                    (255 - mix) + LV_COLOR_MIX_ROUND_OFS));
 758              		.loc 2 459 5 is_stmt 0 view .LVU227
 759 015e 65F31746 		bfi	r6, r5, #16, #8
 760              	.LVL74:
 461:lvgl/src/hal/../draw/../misc/lv_color.h ****                                    (255 - mix) + LV_COLOR_MIX_ROUND_OFS));
 761              		.loc 2 461 5 is_stmt 1 view .LVU228
 762 0162 059D     		ldr	r5, [sp, #20]
 763 0164 C5F3072C 		ubfx	ip, r5, #8, #8
 764              	.LVL75:
 461:lvgl/src/hal/../draw/../misc/lv_color.h ****                                    (255 - mix) + LV_COLOR_MIX_ROUND_OFS));
 765              		.loc 2 461 5 is_stmt 0 view .LVU229
 766 0168 C0F30725 		ubfx	r5, r0, #8, #8
 767 016c 04FB05F5 		mul	r5, r4, r5
 768 0170 0CFB0255 		mla	r5, ip, r2, r5
 769 0174 05EB052C 		add	ip, r5, r5, lsl #8
 770 0178 05EBCC15 		add	r5, r5, ip, lsl #7
 771 017c C5F3C755 		ubfx	r5, r5, #23, #8
 772 0180 65F30F26 		bfi	r6, r5, #8, #8
 463:lvgl/src/hal/../draw/../misc/lv_color.h ****                                    (255 - mix) + LV_COLOR_MIX_ROUND_OFS));
 773              		.loc 2 463 5 is_stmt 1 view .LVU230
 774 0184 059D     		ldr	r5, [sp, #20]
 775 0186 5FFA85FC 		uxtb	ip, r5
 776 018a C0B2     		uxtb	r0, r0
 777              	.LVL76:
 463:lvgl/src/hal/../draw/../misc/lv_color.h ****                                    (255 - mix) + LV_COLOR_MIX_ROUND_OFS));
 778              		.loc 2 463 5 is_stmt 0 view .LVU231
 779 018c 04FB00F0 		mul	r0, r4, r0
 780 0190 0CFB0202 		mla	r2, ip, r2, r0
 781              	.LVL77:
 463:lvgl/src/hal/../draw/../misc/lv_color.h ****                                    (255 - mix) + LV_COLOR_MIX_ROUND_OFS));
 782              		.loc 2 463 5 view .LVU232
 783 0194 02EB0220 		add	r0, r2, r2, lsl #8
 784 0198 02EBC012 		add	r2, r2, r0, lsl #7
 785 019c C2F3C752 		ubfx	r2, r2, #23, #8
 786 01a0 62F30706 		bfi	r6, r2, #0, #8
 465:lvgl/src/hal/../draw/../misc/lv_color.h **** #else
 787              		.loc 2 465 5 is_stmt 1 view .LVU233
 788 01a4 46F07F46 		orr	r6, r6, #-16777216
 789              	.LVL78:
 471:lvgl/src/hal/../draw/../misc/lv_color.h **** }
 790              		.loc 2 471 5 view .LVU234
 471:lvgl/src/hal/../draw/../misc/lv_color.h **** }
 791              		.loc 2 471 5 is_stmt 0 view .LVU235
 792              	.LBE42:
 793              	.LBE41:
 570:lvgl/src/hal/../draw/../misc/lv_color.h **** 
 794              		.loc 2 570 31 view .LVU236
 795 01a8 094A     		ldr	r2, .L40+20
 796              	.LVL79:
 570:lvgl/src/hal/../draw/../misc/lv_color.h **** 
 797              		.loc 2 570 31 view .LVU237
 798 01aa 1660     		str	r6, [r2]
 799              	.LVL80:
 800              	.L33:
 570:lvgl/src/hal/../draw/../misc/lv_color.h **** 
 801              		.loc 2 570 31 view .LVU238
ARM GAS  C:\Users\OSD\AppData\Local\Temp\ccDD6lYO.s 			page 41


 802              	.LBE43:
 574:lvgl/src/hal/../draw/../misc/lv_color.h ****         *res_opa = res_opa_saved;
 803              		.loc 2 574 9 is_stmt 1 view .LVU239
 574:lvgl/src/hal/../draw/../misc/lv_color.h ****         *res_opa = res_opa_saved;
 804              		.loc 2 574 42 is_stmt 0 view .LVU240
 805 01ac 084A     		ldr	r2, .L40+20
 806 01ae 1068     		ldr	r0, [r2]
 807              	.LVL81:
 575:lvgl/src/hal/../draw/../misc/lv_color.h ****     }
 808              		.loc 2 575 9 is_stmt 1 view .LVU241
 575:lvgl/src/hal/../draw/../misc/lv_color.h ****     }
 809              		.loc 2 575 18 is_stmt 0 view .LVU242
 810 01b0 064A     		ldr	r2, .L40+16
 811 01b2 1278     		ldrb	r2, [r2]	@ zero_extendqisi2
 812 01b4 8EF80320 		strb	r2, [lr, #3]
 813              	.LVL82:
 575:lvgl/src/hal/../draw/../misc/lv_color.h ****     }
 814              		.loc 2 575 18 view .LVU243
 815 01b8 3CE7     		b	.L29
 816              	.L41:
 817 01ba 00BF     		.align	2
 818              	.L40:
 819 01bc 00000000 		.word	.LANCHOR0
 820 01c0 00000000 		.word	.LANCHOR1
 821 01c4 00000000 		.word	.LANCHOR2
 822 01c8 00000000 		.word	.LANCHOR3
 823 01cc 00000000 		.word	.LANCHOR4
 824 01d0 00000000 		.word	.LANCHOR5
 825              	.LBE39:
 826              	.LBE44:
 827              	.LBE45:
 828              		.cfi_endproc
 829              	.LFE189:
 831              		.section	.text.lv_disp_drv_init,"ax",%progbits
 832              		.align	1
 833              		.global	lv_disp_drv_init
 834              		.syntax unified
 835              		.thumb
 836              		.thumb_func
 838              	lv_disp_drv_init:
 839              	.LVL83:
 840              	.LFB161:
  85:lvgl/src/hal/lv_hal_disp.c ****     lv_memset_00(driver, sizeof(lv_disp_drv_t));
 841              		.loc 1 85 1 is_stmt 1 view -0
 842              		.cfi_startproc
 843              		@ args = 0, pretend = 0, frame = 0
 844              		@ frame_needed = 0, uses_anonymous_args = 0
  85:lvgl/src/hal/lv_hal_disp.c ****     lv_memset_00(driver, sizeof(lv_disp_drv_t));
 845              		.loc 1 85 1 is_stmt 0 view .LVU245
 846 0000 10B5     		push	{r4, lr}
 847              		.cfi_def_cfa_offset 8
 848              		.cfi_offset 4, -8
 849              		.cfi_offset 14, -4
 850 0002 0446     		mov	r4, r0
  86:lvgl/src/hal/lv_hal_disp.c **** 
 851              		.loc 1 86 5 is_stmt 1 view .LVU246
 852 0004 5021     		movs	r1, #80
ARM GAS  C:\Users\OSD\AppData\Local\Temp\ccDD6lYO.s 			page 42


 853 0006 FFF7FEFF 		bl	lv_memset_00
 854              	.LVL84:
  88:lvgl/src/hal/lv_hal_disp.c ****     driver->ver_res          = 240;
 855              		.loc 1 88 5 view .LVU247
  88:lvgl/src/hal/lv_hal_disp.c ****     driver->ver_res          = 240;
 856              		.loc 1 88 30 is_stmt 0 view .LVU248
 857 000a 4FF4A073 		mov	r3, #320
 858 000e 2380     		strh	r3, [r4]	@ movhi
  89:lvgl/src/hal/lv_hal_disp.c ****     driver->physical_hor_res = -1;
 859              		.loc 1 89 5 is_stmt 1 view .LVU249
  89:lvgl/src/hal/lv_hal_disp.c ****     driver->physical_hor_res = -1;
 860              		.loc 1 89 30 is_stmt 0 view .LVU250
 861 0010 F023     		movs	r3, #240
 862 0012 6380     		strh	r3, [r4, #2]	@ movhi
  90:lvgl/src/hal/lv_hal_disp.c ****     driver->physical_ver_res = -1;
 863              		.loc 1 90 5 is_stmt 1 view .LVU251
  90:lvgl/src/hal/lv_hal_disp.c ****     driver->physical_ver_res = -1;
 864              		.loc 1 90 30 is_stmt 0 view .LVU252
 865 0014 4FF6FF73 		movw	r3, #65535
 866 0018 A380     		strh	r3, [r4, #4]	@ movhi
  91:lvgl/src/hal/lv_hal_disp.c ****     driver->offset_x         = 0;
 867              		.loc 1 91 5 is_stmt 1 view .LVU253
  91:lvgl/src/hal/lv_hal_disp.c ****     driver->offset_x         = 0;
 868              		.loc 1 91 30 is_stmt 0 view .LVU254
 869 001a E380     		strh	r3, [r4, #6]	@ movhi
  92:lvgl/src/hal/lv_hal_disp.c ****     driver->offset_y         = 0;
 870              		.loc 1 92 5 is_stmt 1 view .LVU255
  92:lvgl/src/hal/lv_hal_disp.c ****     driver->offset_y         = 0;
 871              		.loc 1 92 30 is_stmt 0 view .LVU256
 872 001c 0023     		movs	r3, #0
 873 001e 2381     		strh	r3, [r4, #8]	@ movhi
  93:lvgl/src/hal/lv_hal_disp.c ****     driver->antialiasing     = LV_COLOR_DEPTH > 8 ? 1 : 0;
 874              		.loc 1 93 5 is_stmt 1 view .LVU257
  93:lvgl/src/hal/lv_hal_disp.c ****     driver->antialiasing     = LV_COLOR_DEPTH > 8 ? 1 : 0;
 875              		.loc 1 93 30 is_stmt 0 view .LVU258
 876 0020 6381     		strh	r3, [r4, #10]	@ movhi
  94:lvgl/src/hal/lv_hal_disp.c ****     driver->screen_transp    = 0;
 877              		.loc 1 94 5 is_stmt 1 view .LVU259
  94:lvgl/src/hal/lv_hal_disp.c ****     driver->screen_transp    = 0;
 878              		.loc 1 94 30 is_stmt 0 view .LVU260
 879 0022 227C     		ldrb	r2, [r4, #16]	@ zero_extendqisi2
 880 0024 42F00802 		orr	r2, r2, #8
 881 0028 2274     		strb	r2, [r4, #16]
  95:lvgl/src/hal/lv_hal_disp.c ****     driver->dpi              = LV_DPI_DEF;
 882              		.loc 1 95 5 is_stmt 1 view .LVU261
  95:lvgl/src/hal/lv_hal_disp.c ****     driver->dpi              = LV_DPI_DEF;
 883              		.loc 1 95 30 is_stmt 0 view .LVU262
 884 002a D2B2     		uxtb	r2, r2
 885 002c 63F38612 		bfi	r2, r3, #6, #1
 886 0030 2274     		strb	r2, [r4, #16]
  96:lvgl/src/hal/lv_hal_disp.c ****     driver->color_chroma_key = LV_COLOR_CHROMA_KEY;
 887              		.loc 1 96 5 is_stmt 1 view .LVU263
  96:lvgl/src/hal/lv_hal_disp.c ****     driver->color_chroma_key = LV_COLOR_CHROMA_KEY;
 888              		.loc 1 96 30 is_stmt 0 view .LVU264
 889 0032 2369     		ldr	r3, [r4, #16]
 890 0034 8222     		movs	r2, #130
 891 0036 62F3D013 		bfi	r3, r2, #7, #10
ARM GAS  C:\Users\OSD\AppData\Local\Temp\ccDD6lYO.s 			page 43


 892 003a 2361     		str	r3, [r4, #16]
  97:lvgl/src/hal/lv_hal_disp.c **** 
 893              		.loc 1 97 5 is_stmt 1 view .LVU265
 894              	.LVL85:
 895              	.LBB46:
 896              	.LBI46:
 592:lvgl/src/hal/../draw/../misc/lv_color.h **** }
 593:lvgl/src/hal/../draw/../misc/lv_color.h **** 
 594:lvgl/src/hal/../draw/../misc/lv_color.h **** static inline lv_color_t lv_color_make(uint8_t r, uint8_t g, uint8_t b)
 595:lvgl/src/hal/../draw/../misc/lv_color.h **** {
 596:lvgl/src/hal/../draw/../misc/lv_color.h ****     return _LV_COLOR_MAKE_TYPE_HELPER LV_COLOR_MAKE(r, g, b);
 597:lvgl/src/hal/../draw/../misc/lv_color.h **** }
 598:lvgl/src/hal/../draw/../misc/lv_color.h **** 
 599:lvgl/src/hal/../draw/../misc/lv_color.h **** static inline lv_color_t lv_color_hex(uint32_t c)
 897              		.loc 2 599 26 view .LVU266
 898              	.LBB47:
 600:lvgl/src/hal/../draw/../misc/lv_color.h **** {
 601:lvgl/src/hal/../draw/../misc/lv_color.h **** #if LV_COLOR_DEPTH == 16
 602:lvgl/src/hal/../draw/../misc/lv_color.h ****     lv_color_t r;
 603:lvgl/src/hal/../draw/../misc/lv_color.h **** #if LV_COLOR_16_SWAP == 0
 604:lvgl/src/hal/../draw/../misc/lv_color.h ****     /* Convert a 4 bytes per pixel in format ARGB32 to R5G6B5 format
 605:lvgl/src/hal/../draw/../misc/lv_color.h ****         naive way (by calling lv_color_make with components):
 606:lvgl/src/hal/../draw/../misc/lv_color.h ****                     r = ((c & 0xFF0000) >> 19)
 607:lvgl/src/hal/../draw/../misc/lv_color.h ****                     g = ((c & 0xFF00) >> 10)
 608:lvgl/src/hal/../draw/../misc/lv_color.h ****                     b = ((c & 0xFF) >> 3)
 609:lvgl/src/hal/../draw/../misc/lv_color.h ****                     rgb565 = (r << 11) | (g << 5) | b
 610:lvgl/src/hal/../draw/../misc/lv_color.h ****         That's 3 mask, 5 bitshift and 2 or operations
 611:lvgl/src/hal/../draw/../misc/lv_color.h **** 
 612:lvgl/src/hal/../draw/../misc/lv_color.h ****         A bit better:
 613:lvgl/src/hal/../draw/../misc/lv_color.h ****                     r = ((c & 0xF80000) >> 8)
 614:lvgl/src/hal/../draw/../misc/lv_color.h ****                     g = ((c & 0xFC00) >> 5)
 615:lvgl/src/hal/../draw/../misc/lv_color.h ****                     b = ((c & 0xFF) >> 3)
 616:lvgl/src/hal/../draw/../misc/lv_color.h ****                     rgb565 = r | g | b
 617:lvgl/src/hal/../draw/../misc/lv_color.h ****         That's 3 mask, 3 bitshifts and 2 or operations */
 618:lvgl/src/hal/../draw/../misc/lv_color.h ****     r.full = (uint16_t)(((c & 0xF80000) >> 8) | ((c & 0xFC00) >> 5) | ((c & 0xFF) >> 3));
 619:lvgl/src/hal/../draw/../misc/lv_color.h **** #else
 620:lvgl/src/hal/../draw/../misc/lv_color.h ****     /* We want: rrrr rrrr GGGg gggg bbbb bbbb => gggb bbbb rrrr rGGG */
 621:lvgl/src/hal/../draw/../misc/lv_color.h ****     r.full = (uint16_t)(((c & 0xF80000) >> 16) | ((c & 0xFC00) >> 13) | ((c & 0x1C00) << 3) | ((c &
 622:lvgl/src/hal/../draw/../misc/lv_color.h **** #endif
 623:lvgl/src/hal/../draw/../misc/lv_color.h ****     return r;
 624:lvgl/src/hal/../draw/../misc/lv_color.h **** #elif LV_COLOR_DEPTH == 32
 625:lvgl/src/hal/../draw/../misc/lv_color.h ****     lv_color_t r;
 899              		.loc 2 625 5 view .LVU267
 626:lvgl/src/hal/../draw/../misc/lv_color.h ****     r.full = c | 0xFF000000;
 900              		.loc 2 626 5 view .LVU268
 901              		.loc 2 626 12 is_stmt 0 view .LVU269
 902 003c 4FF0FF23 		mov	r3, #-16711936
 903              	.LVL86:
 627:lvgl/src/hal/../draw/../misc/lv_color.h ****     return r;
 904              		.loc 2 627 5 is_stmt 1 view .LVU270
 905              		.loc 2 627 5 is_stmt 0 view .LVU271
 906              	.LBE47:
 907              	.LBE46:
  97:lvgl/src/hal/lv_hal_disp.c **** 
 908              		.loc 1 97 32 view .LVU272
 909 0040 A363     		str	r3, [r4, #56]
 128:lvgl/src/hal/lv_hal_disp.c ****     driver->draw_ctx_deinit = lv_draw_sw_init_ctx;
ARM GAS  C:\Users\OSD\AppData\Local\Temp\ccDD6lYO.s 			page 44


 910              		.loc 1 128 5 is_stmt 1 view .LVU273
 128:lvgl/src/hal/lv_hal_disp.c ****     driver->draw_ctx_deinit = lv_draw_sw_init_ctx;
 911              		.loc 1 128 27 is_stmt 0 view .LVU274
 912 0042 034B     		ldr	r3, .L44
 913              	.LVL87:
 128:lvgl/src/hal/lv_hal_disp.c ****     driver->draw_ctx_deinit = lv_draw_sw_init_ctx;
 914              		.loc 1 128 27 view .LVU275
 915 0044 2364     		str	r3, [r4, #64]
 129:lvgl/src/hal/lv_hal_disp.c ****     driver->draw_ctx_size = sizeof(lv_draw_sw_ctx_t);
 916              		.loc 1 129 5 is_stmt 1 view .LVU276
 129:lvgl/src/hal/lv_hal_disp.c ****     driver->draw_ctx_size = sizeof(lv_draw_sw_ctx_t);
 917              		.loc 1 129 29 is_stmt 0 view .LVU277
 918 0046 6364     		str	r3, [r4, #68]
 130:lvgl/src/hal/lv_hal_disp.c **** #endif
 919              		.loc 1 130 5 is_stmt 1 view .LVU278
 130:lvgl/src/hal/lv_hal_disp.c **** #endif
 920              		.loc 1 130 27 is_stmt 0 view .LVU279
 921 0048 5823     		movs	r3, #88
 922 004a A364     		str	r3, [r4, #72]
 133:lvgl/src/hal/lv_hal_disp.c **** 
 923              		.loc 1 133 1 view .LVU280
 924 004c 10BD     		pop	{r4, pc}
 925              	.LVL88:
 926              	.L45:
 133:lvgl/src/hal/lv_hal_disp.c **** 
 927              		.loc 1 133 1 view .LVU281
 928 004e 00BF     		.align	2
 929              	.L44:
 930 0050 00000000 		.word	lv_draw_sw_init_ctx
 931              		.cfi_endproc
 932              	.LFE161:
 934              		.section	.text.lv_disp_draw_buf_init,"ax",%progbits
 935              		.align	1
 936              		.global	lv_disp_draw_buf_init
 937              		.syntax unified
 938              		.thumb
 939              		.thumb_func
 941              	lv_disp_draw_buf_init:
 942              	.LVL89:
 943              	.LFB162:
 151:lvgl/src/hal/lv_hal_disp.c ****     lv_memset_00(draw_buf, sizeof(lv_disp_draw_buf_t));
 944              		.loc 1 151 1 is_stmt 1 view -0
 945              		.cfi_startproc
 946              		@ args = 0, pretend = 0, frame = 0
 947              		@ frame_needed = 0, uses_anonymous_args = 0
 151:lvgl/src/hal/lv_hal_disp.c ****     lv_memset_00(draw_buf, sizeof(lv_disp_draw_buf_t));
 948              		.loc 1 151 1 is_stmt 0 view .LVU283
 949 0000 F8B5     		push	{r3, r4, r5, r6, r7, lr}
 950              		.cfi_def_cfa_offset 24
 951              		.cfi_offset 3, -24
 952              		.cfi_offset 4, -20
 953              		.cfi_offset 5, -16
 954              		.cfi_offset 6, -12
 955              		.cfi_offset 7, -8
 956              		.cfi_offset 14, -4
 957 0002 0446     		mov	r4, r0
 958 0004 0D46     		mov	r5, r1
ARM GAS  C:\Users\OSD\AppData\Local\Temp\ccDD6lYO.s 			page 45


 959 0006 1746     		mov	r7, r2
 960 0008 1E46     		mov	r6, r3
 152:lvgl/src/hal/lv_hal_disp.c **** 
 961              		.loc 1 152 5 is_stmt 1 view .LVU284
 962 000a 1C21     		movs	r1, #28
 963              	.LVL90:
 152:lvgl/src/hal/lv_hal_disp.c **** 
 964              		.loc 1 152 5 is_stmt 0 view .LVU285
 965 000c FFF7FEFF 		bl	lv_memset_00
 966              	.LVL91:
 154:lvgl/src/hal/lv_hal_disp.c ****     draw_buf->buf2    = buf2;
 967              		.loc 1 154 5 is_stmt 1 view .LVU286
 154:lvgl/src/hal/lv_hal_disp.c ****     draw_buf->buf2    = buf2;
 968              		.loc 1 154 23 is_stmt 0 view .LVU287
 969 0010 2560     		str	r5, [r4]
 155:lvgl/src/hal/lv_hal_disp.c ****     draw_buf->buf_act = draw_buf->buf1;
 970              		.loc 1 155 5 is_stmt 1 view .LVU288
 155:lvgl/src/hal/lv_hal_disp.c ****     draw_buf->buf_act = draw_buf->buf1;
 971              		.loc 1 155 23 is_stmt 0 view .LVU289
 972 0012 6760     		str	r7, [r4, #4]
 156:lvgl/src/hal/lv_hal_disp.c ****     draw_buf->size    = size_in_px_cnt;
 973              		.loc 1 156 5 is_stmt 1 view .LVU290
 156:lvgl/src/hal/lv_hal_disp.c ****     draw_buf->size    = size_in_px_cnt;
 974              		.loc 1 156 23 is_stmt 0 view .LVU291
 975 0014 A560     		str	r5, [r4, #8]
 157:lvgl/src/hal/lv_hal_disp.c **** }
 976              		.loc 1 157 5 is_stmt 1 view .LVU292
 157:lvgl/src/hal/lv_hal_disp.c **** }
 977              		.loc 1 157 23 is_stmt 0 view .LVU293
 978 0016 E660     		str	r6, [r4, #12]
 158:lvgl/src/hal/lv_hal_disp.c **** 
 979              		.loc 1 158 1 view .LVU294
 980 0018 F8BD     		pop	{r3, r4, r5, r6, r7, pc}
 158:lvgl/src/hal/lv_hal_disp.c **** 
 981              		.loc 1 158 1 view .LVU295
 982              		.cfi_endproc
 983              	.LFE162:
 985              		.section	.text.lv_disp_drv_register,"ax",%progbits
 986              		.align	1
 987              		.global	lv_disp_drv_register
 988              		.syntax unified
 989              		.thumb
 990              		.thumb_func
 992              	lv_disp_drv_register:
 993              	.LVL92:
 994              	.LFB163:
 167:lvgl/src/hal/lv_hal_disp.c ****     lv_disp_t * disp = _lv_ll_ins_head(&LV_GC_ROOT(_lv_disp_ll));
 995              		.loc 1 167 1 is_stmt 1 view -0
 996              		.cfi_startproc
 997              		@ args = 0, pretend = 0, frame = 0
 998              		@ frame_needed = 0, uses_anonymous_args = 0
 167:lvgl/src/hal/lv_hal_disp.c ****     lv_disp_t * disp = _lv_ll_ins_head(&LV_GC_ROOT(_lv_disp_ll));
 999              		.loc 1 167 1 is_stmt 0 view .LVU297
 1000 0000 70B5     		push	{r4, r5, r6, lr}
 1001              		.cfi_def_cfa_offset 16
 1002              		.cfi_offset 4, -16
 1003              		.cfi_offset 5, -12
ARM GAS  C:\Users\OSD\AppData\Local\Temp\ccDD6lYO.s 			page 46


 1004              		.cfi_offset 6, -8
 1005              		.cfi_offset 14, -4
 1006 0002 82B0     		sub	sp, sp, #8
 1007              		.cfi_def_cfa_offset 24
 1008 0004 0546     		mov	r5, r0
 168:lvgl/src/hal/lv_hal_disp.c ****     LV_ASSERT_MALLOC(disp);
 1009              		.loc 1 168 5 is_stmt 1 view .LVU298
 168:lvgl/src/hal/lv_hal_disp.c ****     LV_ASSERT_MALLOC(disp);
 1010              		.loc 1 168 24 is_stmt 0 view .LVU299
 1011 0006 4A48     		ldr	r0, .L63
 1012              	.LVL93:
 168:lvgl/src/hal/lv_hal_disp.c ****     LV_ASSERT_MALLOC(disp);
 1013              		.loc 1 168 24 view .LVU300
 1014 0008 FFF7FEFF 		bl	_lv_ll_ins_head
 1015              	.LVL94:
 169:lvgl/src/hal/lv_hal_disp.c ****     if(!disp) {
 1016              		.loc 1 169 5 is_stmt 1 view .LVU301
 169:lvgl/src/hal/lv_hal_disp.c ****     if(!disp) {
 1017              		.loc 1 169 5 view .LVU302
 1018 000c 0028     		cmp	r0, #0
 1019 000e 7BD0     		beq	.L50
 1020 0010 0446     		mov	r4, r0
 169:lvgl/src/hal/lv_hal_disp.c ****     if(!disp) {
 1021              		.loc 1 169 5 view .LVU303
 169:lvgl/src/hal/lv_hal_disp.c ****     if(!disp) {
 1022              		.loc 1 169 27 view .LVU304
 170:lvgl/src/hal/lv_hal_disp.c ****         return NULL;
 1023              		.loc 1 170 5 view .LVU305
 175:lvgl/src/hal/lv_hal_disp.c ****         lv_draw_ctx_t * draw_ctx = lv_mem_alloc(driver->draw_ctx_size);
 1024              		.loc 1 175 5 view .LVU306
 175:lvgl/src/hal/lv_hal_disp.c ****         lv_draw_ctx_t * draw_ctx = lv_mem_alloc(driver->draw_ctx_size);
 1025              		.loc 1 175 14 is_stmt 0 view .LVU307
 1026 0012 EB6B     		ldr	r3, [r5, #60]
 175:lvgl/src/hal/lv_hal_disp.c ****         lv_draw_ctx_t * draw_ctx = lv_mem_alloc(driver->draw_ctx_size);
 1027              		.loc 1 175 7 view .LVU308
 1028 0014 002B     		cmp	r3, #0
 1029 0016 78D0     		beq	.L61
 1030              	.LVL95:
 1031              	.L51:
 183:lvgl/src/hal/lv_hal_disp.c **** 
 1032              		.loc 1 183 5 is_stmt 1 view .LVU309
 1033 0018 4FF4B671 		mov	r1, #364
 1034 001c 2046     		mov	r0, r4
 1035 001e FFF7FEFF 		bl	lv_memset_00
 1036              	.LVL96:
 185:lvgl/src/hal/lv_hal_disp.c **** 
 1037              		.loc 1 185 5 view .LVU310
 185:lvgl/src/hal/lv_hal_disp.c **** 
 1038              		.loc 1 185 18 is_stmt 0 view .LVU311
 1039 0022 2560     		str	r5, [r4]
 187:lvgl/src/hal/lv_hal_disp.c **** 
 1040              		.loc 1 187 5 is_stmt 1 view .LVU312
 187:lvgl/src/hal/lv_hal_disp.c **** 
 1041              		.loc 1 187 22 is_stmt 0 view .LVU313
 1042 0024 0123     		movs	r3, #1
 1043 0026 C4F85831 		str	r3, [r4, #344]
 189:lvgl/src/hal/lv_hal_disp.c **** 
ARM GAS  C:\Users\OSD\AppData\Local\Temp\ccDD6lYO.s 			page 47


 1044              		.loc 1 189 5 is_stmt 1 view .LVU314
 1045 002a 0821     		movs	r1, #8
 1046 002c 04F5AE70 		add	r0, r4, #348
 1047 0030 FFF7FEFF 		bl	_lv_ll_init
 1048              	.LVL97:
 191:lvgl/src/hal/lv_hal_disp.c ****     disp_def                 = disp; /*Temporarily change the default screen to create the default 
 1049              		.loc 1 191 5 view .LVU315
 191:lvgl/src/hal/lv_hal_disp.c ****     disp_def                 = disp; /*Temporarily change the default screen to create the default 
 1050              		.loc 1 191 17 is_stmt 0 view .LVU316
 1051 0034 3F4B     		ldr	r3, .L63+4
 1052 0036 1E68     		ldr	r6, [r3]
 1053              	.LVL98:
 192:lvgl/src/hal/lv_hal_disp.c ****                                         new display*/
 1054              		.loc 1 192 5 is_stmt 1 view .LVU317
 192:lvgl/src/hal/lv_hal_disp.c ****                                         new display*/
 1055              		.loc 1 192 30 is_stmt 0 view .LVU318
 1056 0038 1C60     		str	r4, [r3]
 195:lvgl/src/hal/lv_hal_disp.c ****     LV_ASSERT_MALLOC(disp->refr_timer);
 1057              		.loc 1 195 5 is_stmt 1 view .LVU319
 195:lvgl/src/hal/lv_hal_disp.c ****     LV_ASSERT_MALLOC(disp->refr_timer);
 1058              		.loc 1 195 24 is_stmt 0 view .LVU320
 1059 003a 2246     		mov	r2, r4
 1060 003c 1E21     		movs	r1, #30
 1061 003e 3E48     		ldr	r0, .L63+8
 1062 0040 FFF7FEFF 		bl	lv_timer_create
 1063              	.LVL99:
 195:lvgl/src/hal/lv_hal_disp.c ****     LV_ASSERT_MALLOC(disp->refr_timer);
 1064              		.loc 1 195 22 view .LVU321
 1065 0044 6060     		str	r0, [r4, #4]
 196:lvgl/src/hal/lv_hal_disp.c ****     if(disp->refr_timer == NULL) {
 1066              		.loc 1 196 5 is_stmt 1 view .LVU322
 196:lvgl/src/hal/lv_hal_disp.c ****     if(disp->refr_timer == NULL) {
 1067              		.loc 1 196 5 view .LVU323
 1068 0046 0028     		cmp	r0, #0
 1069 0048 6BD0     		beq	.L55
 196:lvgl/src/hal/lv_hal_disp.c ****     if(disp->refr_timer == NULL) {
 1070              		.loc 1 196 5 view .LVU324
 196:lvgl/src/hal/lv_hal_disp.c ****     if(disp->refr_timer == NULL) {
 1071              		.loc 1 196 39 view .LVU325
 197:lvgl/src/hal/lv_hal_disp.c ****         lv_mem_free(disp);
 1072              		.loc 1 197 5 view .LVU326
 202:lvgl/src/hal/lv_hal_disp.c ****         driver->full_refresh = 0;
 1073              		.loc 1 202 5 view .LVU327
 202:lvgl/src/hal/lv_hal_disp.c ****         driver->full_refresh = 0;
 1074              		.loc 1 202 8 is_stmt 0 view .LVU328
 1075 004a 2B7C     		ldrb	r3, [r5, #16]	@ zero_extendqisi2
 202:lvgl/src/hal/lv_hal_disp.c ****         driver->full_refresh = 0;
 1076              		.loc 1 202 7 view .LVU329
 1077 004c 13F0020F 		tst	r3, #2
 1078 0050 0DD0     		beq	.L56
 202:lvgl/src/hal/lv_hal_disp.c ****         driver->full_refresh = 0;
 1079              		.loc 1 202 38 discriminator 1 view .LVU330
 1080 0052 EB68     		ldr	r3, [r5, #12]
 202:lvgl/src/hal/lv_hal_disp.c ****         driver->full_refresh = 0;
 1081              		.loc 1 202 48 discriminator 1 view .LVU331
 1082 0054 DA68     		ldr	r2, [r3, #12]
 202:lvgl/src/hal/lv_hal_disp.c ****         driver->full_refresh = 0;
ARM GAS  C:\Users\OSD\AppData\Local\Temp\ccDD6lYO.s 			page 48


 1083              		.loc 1 202 73 discriminator 1 view .LVU332
 1084 0056 B5F90030 		ldrsh	r3, [r5]
 202:lvgl/src/hal/lv_hal_disp.c ****         driver->full_refresh = 0;
 1085              		.loc 1 202 91 discriminator 1 view .LVU333
 1086 005a B5F90210 		ldrsh	r1, [r5, #2]
 202:lvgl/src/hal/lv_hal_disp.c ****         driver->full_refresh = 0;
 1087              		.loc 1 202 83 discriminator 1 view .LVU334
 1088 005e 01FB03F3 		mul	r3, r1, r3
 202:lvgl/src/hal/lv_hal_disp.c ****         driver->full_refresh = 0;
 1089              		.loc 1 202 29 discriminator 1 view .LVU335
 1090 0062 9A42     		cmp	r2, r3
 1091 0064 03D2     		bcs	.L56
 203:lvgl/src/hal/lv_hal_disp.c ****         LV_LOG_WARN("full_refresh requires at least screen sized draw buffer(s)");
 1092              		.loc 1 203 9 is_stmt 1 view .LVU336
 203:lvgl/src/hal/lv_hal_disp.c ****         LV_LOG_WARN("full_refresh requires at least screen sized draw buffer(s)");
 1093              		.loc 1 203 30 is_stmt 0 view .LVU337
 1094 0066 2B7C     		ldrb	r3, [r5, #16]	@ zero_extendqisi2
 1095 0068 6FF34103 		bfc	r3, #1, #1
 1096 006c 2B74     		strb	r3, [r5, #16]
 1097              	.L56:
 204:lvgl/src/hal/lv_hal_disp.c ****     }
 1098              		.loc 1 204 9 is_stmt 1 view .LVU338
 204:lvgl/src/hal/lv_hal_disp.c ****     }
 1099              		.loc 1 204 9 view .LVU339
 204:lvgl/src/hal/lv_hal_disp.c ****     }
 1100              		.loc 1 204 9 view .LVU340
 207:lvgl/src/hal/lv_hal_disp.c **** #if LV_COLOR_SCREEN_TRANSP
 1101              		.loc 1 207 5 view .LVU341
 1102              	.LBB48:
 1103              	.LBI48:
 628:lvgl/src/hal/../draw/../misc/lv_color.h **** #else /*LV_COLOR_DEPTH == 8*/
 629:lvgl/src/hal/../draw/../misc/lv_color.h ****     return lv_color_make((uint8_t)((c >> 16) & 0xFF), (uint8_t)((c >> 8) & 0xFF), (uint8_t)(c & 0xF
 630:lvgl/src/hal/../draw/../misc/lv_color.h **** #endif
 631:lvgl/src/hal/../draw/../misc/lv_color.h **** }
 632:lvgl/src/hal/../draw/../misc/lv_color.h **** 
 633:lvgl/src/hal/../draw/../misc/lv_color.h **** static inline lv_color_t lv_color_hex3(uint32_t c)
 634:lvgl/src/hal/../draw/../misc/lv_color.h **** {
 635:lvgl/src/hal/../draw/../misc/lv_color.h ****     return lv_color_make((uint8_t)(((c >> 4) & 0xF0) | ((c >> 8) & 0xF)), (uint8_t)((c & 0xF0) | ((
 636:lvgl/src/hal/../draw/../misc/lv_color.h ****                          (uint8_t)((c & 0xF) | ((c & 0xF) << 4)));
 637:lvgl/src/hal/../draw/../misc/lv_color.h **** }
 638:lvgl/src/hal/../draw/../misc/lv_color.h **** 
 639:lvgl/src/hal/../draw/../misc/lv_color.h **** static inline void lv_color_filter_dsc_init(lv_color_filter_dsc_t * dsc, lv_color_filter_cb_t cb)
 640:lvgl/src/hal/../draw/../misc/lv_color.h **** {
 641:lvgl/src/hal/../draw/../misc/lv_color.h ****     dsc->filter_cb = cb;
 642:lvgl/src/hal/../draw/../misc/lv_color.h **** }
 643:lvgl/src/hal/../draw/../misc/lv_color.h **** 
 644:lvgl/src/hal/../draw/../misc/lv_color.h **** //! @cond Doxygen_Suppress
 645:lvgl/src/hal/../draw/../misc/lv_color.h **** //!
 646:lvgl/src/hal/../draw/../misc/lv_color.h **** void /* LV_ATTRIBUTE_FAST_MEM */ lv_color_fill(lv_color_t * buf, lv_color_t color, uint32_t px_num)
 647:lvgl/src/hal/../draw/../misc/lv_color.h **** 
 648:lvgl/src/hal/../draw/../misc/lv_color.h **** //! @endcond
 649:lvgl/src/hal/../draw/../misc/lv_color.h **** lv_color_t lv_color_lighten(lv_color_t c, lv_opa_t lvl);
 650:lvgl/src/hal/../draw/../misc/lv_color.h **** 
 651:lvgl/src/hal/../draw/../misc/lv_color.h **** lv_color_t lv_color_darken(lv_color_t c, lv_opa_t lvl);
 652:lvgl/src/hal/../draw/../misc/lv_color.h **** 
 653:lvgl/src/hal/../draw/../misc/lv_color.h **** lv_color_t lv_color_change_lightness(lv_color_t c, lv_opa_t lvl);
 654:lvgl/src/hal/../draw/../misc/lv_color.h **** 
ARM GAS  C:\Users\OSD\AppData\Local\Temp\ccDD6lYO.s 			page 49


 655:lvgl/src/hal/../draw/../misc/lv_color.h **** /**
 656:lvgl/src/hal/../draw/../misc/lv_color.h ****  * Convert a HSV color to RGB
 657:lvgl/src/hal/../draw/../misc/lv_color.h ****  * @param h hue [0..359]
 658:lvgl/src/hal/../draw/../misc/lv_color.h ****  * @param s saturation [0..100]
 659:lvgl/src/hal/../draw/../misc/lv_color.h ****  * @param v value [0..100]
 660:lvgl/src/hal/../draw/../misc/lv_color.h ****  * @return the given RGB color in RGB (with LV_COLOR_DEPTH depth)
 661:lvgl/src/hal/../draw/../misc/lv_color.h ****  */
 662:lvgl/src/hal/../draw/../misc/lv_color.h **** lv_color_t lv_color_hsv_to_rgb(uint16_t h, uint8_t s, uint8_t v);
 663:lvgl/src/hal/../draw/../misc/lv_color.h **** 
 664:lvgl/src/hal/../draw/../misc/lv_color.h **** /**
 665:lvgl/src/hal/../draw/../misc/lv_color.h ****  * Convert a 32-bit RGB color to HSV
 666:lvgl/src/hal/../draw/../misc/lv_color.h ****  * @param r8 8-bit red
 667:lvgl/src/hal/../draw/../misc/lv_color.h ****  * @param g8 8-bit green
 668:lvgl/src/hal/../draw/../misc/lv_color.h ****  * @param b8 8-bit blue
 669:lvgl/src/hal/../draw/../misc/lv_color.h ****  * @return the given RGB color in HSV
 670:lvgl/src/hal/../draw/../misc/lv_color.h ****  */
 671:lvgl/src/hal/../draw/../misc/lv_color.h **** lv_color_hsv_t lv_color_rgb_to_hsv(uint8_t r8, uint8_t g8, uint8_t b8);
 672:lvgl/src/hal/../draw/../misc/lv_color.h **** 
 673:lvgl/src/hal/../draw/../misc/lv_color.h **** /**
 674:lvgl/src/hal/../draw/../misc/lv_color.h ****  * Convert a color to HSV
 675:lvgl/src/hal/../draw/../misc/lv_color.h ****  * @param color color
 676:lvgl/src/hal/../draw/../misc/lv_color.h ****  * @return the given color in HSV
 677:lvgl/src/hal/../draw/../misc/lv_color.h ****  */
 678:lvgl/src/hal/../draw/../misc/lv_color.h **** lv_color_hsv_t lv_color_to_hsv(lv_color_t color);
 679:lvgl/src/hal/../draw/../misc/lv_color.h **** 
 680:lvgl/src/hal/../draw/../misc/lv_color.h **** /**
 681:lvgl/src/hal/../draw/../misc/lv_color.h ****  * Just a wrapper around LV_COLOR_CHROMA_KEY because it might be more convenient to use a function 
 682:lvgl/src/hal/../draw/../misc/lv_color.h ****  * @return LV_COLOR_CHROMA_KEY
 683:lvgl/src/hal/../draw/../misc/lv_color.h ****  */
 684:lvgl/src/hal/../draw/../misc/lv_color.h **** static inline lv_color_t lv_color_chroma_key(void)
 685:lvgl/src/hal/../draw/../misc/lv_color.h **** {
 686:lvgl/src/hal/../draw/../misc/lv_color.h ****     return LV_COLOR_CHROMA_KEY;
 687:lvgl/src/hal/../draw/../misc/lv_color.h **** }
 688:lvgl/src/hal/../draw/../misc/lv_color.h **** 
 689:lvgl/src/hal/../draw/../misc/lv_color.h **** /**********************
 690:lvgl/src/hal/../draw/../misc/lv_color.h ****  *  PREDEFINED COLORS
 691:lvgl/src/hal/../draw/../misc/lv_color.h ****  **********************/
 692:lvgl/src/hal/../draw/../misc/lv_color.h **** /*Source: https://vuetifyjs.com/en/styles/colors/#material-colors*/
 693:lvgl/src/hal/../draw/../misc/lv_color.h **** 
 694:lvgl/src/hal/../draw/../misc/lv_color.h **** lv_color_t lv_palette_main(lv_palette_t p);
 695:lvgl/src/hal/../draw/../misc/lv_color.h **** static inline lv_color_t lv_color_white(void)
 1104              		.loc 2 695 26 view .LVU342
 1105              	.LBE48:
 696:lvgl/src/hal/../draw/../misc/lv_color.h **** {
 697:lvgl/src/hal/../draw/../misc/lv_color.h ****     return lv_color_make(0xff, 0xff, 0xff);
 1106              		.loc 2 697 5 view .LVU343
 1107              	.LVL100:
 1108              	.LBB51:
 1109              	.LBB49:
 1110              	.LBI49:
 594:lvgl/src/hal/../draw/../misc/lv_color.h **** {
 1111              		.loc 2 594 26 view .LVU344
 1112              	.LBB50:
 596:lvgl/src/hal/../draw/../misc/lv_color.h **** }
 1113              		.loc 2 596 5 view .LVU345
 596:lvgl/src/hal/../draw/../misc/lv_color.h **** }
 1114              		.loc 2 596 12 is_stmt 0 view .LVU346
ARM GAS  C:\Users\OSD\AppData\Local\Temp\ccDD6lYO.s 			page 50


 1115 006e 4FF0FF33 		mov	r3, #-1
 1116              	.LVL101:
 596:lvgl/src/hal/../draw/../misc/lv_color.h **** }
 1117              		.loc 2 596 12 view .LVU347
 1118              	.LBE50:
 1119              	.LBE49:
 1120              	.LBE51:
 207:lvgl/src/hal/lv_hal_disp.c **** #if LV_COLOR_SCREEN_TRANSP
 1121              		.loc 1 207 22 view .LVU348
 1122 0072 E362     		str	r3, [r4, #44]
 211:lvgl/src/hal/lv_hal_disp.c **** #endif
 1123              		.loc 1 211 5 is_stmt 1 view .LVU349
 211:lvgl/src/hal/lv_hal_disp.c **** #endif
 1124              		.loc 1 211 18 is_stmt 0 view .LVU350
 1125 0074 FF23     		movs	r3, #255
 1126 0076 84F82930 		strb	r3, [r4, #41]
 215:lvgl/src/hal/lv_hal_disp.c ****         disp->theme = lv_theme_default_init(disp, lv_palette_main(LV_PALETTE_BLUE), lv_palette_main
 1127              		.loc 1 215 5 is_stmt 1 view .LVU351
 215:lvgl/src/hal/lv_hal_disp.c ****         disp->theme = lv_theme_default_init(disp, lv_palette_main(LV_PALETTE_BLUE), lv_palette_main
 1128              		.loc 1 215 8 is_stmt 0 view .LVU352
 1129 007a FFF7FEFF 		bl	lv_theme_default_is_inited
 1130              	.LVL102:
 215:lvgl/src/hal/lv_hal_disp.c ****         disp->theme = lv_theme_default_init(disp, lv_palette_main(LV_PALETTE_BLUE), lv_palette_main
 1131              		.loc 1 215 7 view .LVU353
 1132 007e 0028     		cmp	r0, #0
 1133 0080 50D1     		bne	.L57
 216:lvgl/src/hal/lv_hal_disp.c ****                                             LV_THEME_DEFAULT_DARK, LV_FONT_DEFAULT);
 1134              		.loc 1 216 9 is_stmt 1 view .LVU354
 216:lvgl/src/hal/lv_hal_disp.c ****                                             LV_THEME_DEFAULT_DARK, LV_FONT_DEFAULT);
 1135              		.loc 1 216 23 is_stmt 0 view .LVU355
 1136 0082 0520     		movs	r0, #5
 1137 0084 FFF7FEFF 		bl	lv_palette_main
 1138              	.LVL103:
 1139 0088 0546     		mov	r5, r0
 1140              	.LVL104:
 216:lvgl/src/hal/lv_hal_disp.c ****                                             LV_THEME_DEFAULT_DARK, LV_FONT_DEFAULT);
 1141              		.loc 1 216 23 view .LVU356
 1142 008a 0020     		movs	r0, #0
 1143 008c FFF7FEFF 		bl	lv_palette_main
 1144              	.LVL105:
 1145 0090 0246     		mov	r2, r0
 1146 0092 2A4B     		ldr	r3, .L63+12
 1147 0094 0093     		str	r3, [sp]
 1148 0096 0023     		movs	r3, #0
 1149 0098 2946     		mov	r1, r5
 1150 009a 2046     		mov	r0, r4
 1151 009c FFF7FEFF 		bl	lv_theme_default_init
 1152              	.LVL106:
 216:lvgl/src/hal/lv_hal_disp.c ****                                             LV_THEME_DEFAULT_DARK, LV_FONT_DEFAULT);
 1153              		.loc 1 216 21 view .LVU357
 1154 00a0 A060     		str	r0, [r4, #8]
 1155              	.L58:
 224:lvgl/src/hal/lv_hal_disp.c ****     disp->top_layer = lv_obj_create(NULL); /*Create top layer on the display*/
 1156              		.loc 1 224 5 is_stmt 1 view .LVU358
 224:lvgl/src/hal/lv_hal_disp.c ****     disp->top_layer = lv_obj_create(NULL); /*Create top layer on the display*/
 1157              		.loc 1 224 23 is_stmt 0 view .LVU359
 1158 00a2 0020     		movs	r0, #0
ARM GAS  C:\Users\OSD\AppData\Local\Temp\ccDD6lYO.s 			page 51


 1159 00a4 FFF7FEFF 		bl	lv_obj_create
 1160              	.LVL107:
 224:lvgl/src/hal/lv_hal_disp.c ****     disp->top_layer = lv_obj_create(NULL); /*Create top layer on the display*/
 1161              		.loc 1 224 21 view .LVU360
 1162 00a8 2061     		str	r0, [r4, #16]
 225:lvgl/src/hal/lv_hal_disp.c ****     disp->sys_layer = lv_obj_create(NULL); /*Create sys layer on the display*/
 1163              		.loc 1 225 5 is_stmt 1 view .LVU361
 225:lvgl/src/hal/lv_hal_disp.c ****     disp->sys_layer = lv_obj_create(NULL); /*Create sys layer on the display*/
 1164              		.loc 1 225 23 is_stmt 0 view .LVU362
 1165 00aa 0020     		movs	r0, #0
 1166 00ac FFF7FEFF 		bl	lv_obj_create
 1167              	.LVL108:
 225:lvgl/src/hal/lv_hal_disp.c ****     disp->sys_layer = lv_obj_create(NULL); /*Create sys layer on the display*/
 1168              		.loc 1 225 21 view .LVU363
 1169 00b0 E061     		str	r0, [r4, #28]
 226:lvgl/src/hal/lv_hal_disp.c ****     lv_obj_remove_style_all(disp->top_layer);
 1170              		.loc 1 226 5 is_stmt 1 view .LVU364
 226:lvgl/src/hal/lv_hal_disp.c ****     lv_obj_remove_style_all(disp->top_layer);
 1171              		.loc 1 226 23 is_stmt 0 view .LVU365
 1172 00b2 0020     		movs	r0, #0
 1173 00b4 FFF7FEFF 		bl	lv_obj_create
 1174              	.LVL109:
 226:lvgl/src/hal/lv_hal_disp.c ****     lv_obj_remove_style_all(disp->top_layer);
 1175              		.loc 1 226 21 view .LVU366
 1176 00b8 2062     		str	r0, [r4, #32]
 227:lvgl/src/hal/lv_hal_disp.c ****     lv_obj_remove_style_all(disp->sys_layer);
 1177              		.loc 1 227 5 is_stmt 1 view .LVU367
 1178              	.LVL110:
 1179              	.LBB52:
 1180              	.LBI52:
 1181              		.file 3 "lvgl/src/hal/../core/lv_obj_style.h"
   1:lvgl/src/hal/../core/lv_obj_style.h **** /**
   2:lvgl/src/hal/../core/lv_obj_style.h ****  * @file lv_obj_style.h
   3:lvgl/src/hal/../core/lv_obj_style.h ****  *
   4:lvgl/src/hal/../core/lv_obj_style.h ****  */
   5:lvgl/src/hal/../core/lv_obj_style.h **** 
   6:lvgl/src/hal/../core/lv_obj_style.h **** #ifndef LV_OBJ_STYLE_H
   7:lvgl/src/hal/../core/lv_obj_style.h **** #define LV_OBJ_STYLE_H
   8:lvgl/src/hal/../core/lv_obj_style.h **** 
   9:lvgl/src/hal/../core/lv_obj_style.h **** #ifdef __cplusplus
  10:lvgl/src/hal/../core/lv_obj_style.h **** extern "C" {
  11:lvgl/src/hal/../core/lv_obj_style.h **** #endif
  12:lvgl/src/hal/../core/lv_obj_style.h **** 
  13:lvgl/src/hal/../core/lv_obj_style.h **** /*********************
  14:lvgl/src/hal/../core/lv_obj_style.h ****  *      INCLUDES
  15:lvgl/src/hal/../core/lv_obj_style.h ****  *********************/
  16:lvgl/src/hal/../core/lv_obj_style.h **** #include <stdint.h>
  17:lvgl/src/hal/../core/lv_obj_style.h **** #include <stdbool.h>
  18:lvgl/src/hal/../core/lv_obj_style.h **** #include "../misc/lv_bidi.h"
  19:lvgl/src/hal/../core/lv_obj_style.h **** 
  20:lvgl/src/hal/../core/lv_obj_style.h **** /*********************
  21:lvgl/src/hal/../core/lv_obj_style.h ****  *      DEFINES
  22:lvgl/src/hal/../core/lv_obj_style.h ****  *********************/
  23:lvgl/src/hal/../core/lv_obj_style.h **** 
  24:lvgl/src/hal/../core/lv_obj_style.h **** /**********************
  25:lvgl/src/hal/../core/lv_obj_style.h ****  *      TYPEDEFS
  26:lvgl/src/hal/../core/lv_obj_style.h ****  **********************/
ARM GAS  C:\Users\OSD\AppData\Local\Temp\ccDD6lYO.s 			page 52


  27:lvgl/src/hal/../core/lv_obj_style.h **** /*Can't include lv_obj.h because it includes this header file*/
  28:lvgl/src/hal/../core/lv_obj_style.h **** struct _lv_obj_t;
  29:lvgl/src/hal/../core/lv_obj_style.h **** 
  30:lvgl/src/hal/../core/lv_obj_style.h **** typedef enum {
  31:lvgl/src/hal/../core/lv_obj_style.h ****     _LV_STYLE_STATE_CMP_SAME,           /*The style properties in the 2 states are identical*/
  32:lvgl/src/hal/../core/lv_obj_style.h ****     _LV_STYLE_STATE_CMP_DIFF_REDRAW,    /*The differences can be shown with a simple redraw*/
  33:lvgl/src/hal/../core/lv_obj_style.h ****     _LV_STYLE_STATE_CMP_DIFF_DRAW_PAD,  /*The differences can be shown with a simple redraw*/
  34:lvgl/src/hal/../core/lv_obj_style.h ****     _LV_STYLE_STATE_CMP_DIFF_LAYOUT,    /*The differences can be shown with a simple redraw*/
  35:lvgl/src/hal/../core/lv_obj_style.h **** } _lv_style_state_cmp_t;
  36:lvgl/src/hal/../core/lv_obj_style.h **** 
  37:lvgl/src/hal/../core/lv_obj_style.h **** typedef uint32_t lv_style_selector_t;
  38:lvgl/src/hal/../core/lv_obj_style.h **** 
  39:lvgl/src/hal/../core/lv_obj_style.h **** typedef struct {
  40:lvgl/src/hal/../core/lv_obj_style.h ****     lv_style_t * style;
  41:lvgl/src/hal/../core/lv_obj_style.h ****     uint32_t selector : 24;
  42:lvgl/src/hal/../core/lv_obj_style.h ****     uint32_t is_local : 1;
  43:lvgl/src/hal/../core/lv_obj_style.h ****     uint32_t is_trans : 1;
  44:lvgl/src/hal/../core/lv_obj_style.h **** } _lv_obj_style_t;
  45:lvgl/src/hal/../core/lv_obj_style.h **** 
  46:lvgl/src/hal/../core/lv_obj_style.h **** typedef struct {
  47:lvgl/src/hal/../core/lv_obj_style.h ****     uint16_t time;
  48:lvgl/src/hal/../core/lv_obj_style.h ****     uint16_t delay;
  49:lvgl/src/hal/../core/lv_obj_style.h ****     lv_style_selector_t selector;
  50:lvgl/src/hal/../core/lv_obj_style.h ****     lv_style_prop_t prop;
  51:lvgl/src/hal/../core/lv_obj_style.h ****     lv_anim_path_cb_t path_cb;
  52:lvgl/src/hal/../core/lv_obj_style.h **** #if LV_USE_USER_DATA
  53:lvgl/src/hal/../core/lv_obj_style.h ****     void * user_data;
  54:lvgl/src/hal/../core/lv_obj_style.h **** #endif
  55:lvgl/src/hal/../core/lv_obj_style.h **** } _lv_obj_style_transition_dsc_t;
  56:lvgl/src/hal/../core/lv_obj_style.h **** 
  57:lvgl/src/hal/../core/lv_obj_style.h **** /**********************
  58:lvgl/src/hal/../core/lv_obj_style.h ****  * GLOBAL PROTOTYPES
  59:lvgl/src/hal/../core/lv_obj_style.h ****  **********************/
  60:lvgl/src/hal/../core/lv_obj_style.h **** 
  61:lvgl/src/hal/../core/lv_obj_style.h **** /**
  62:lvgl/src/hal/../core/lv_obj_style.h ****  * Initialize the object related style manager module.
  63:lvgl/src/hal/../core/lv_obj_style.h ****  * Called by LVGL in `lv_init()`
  64:lvgl/src/hal/../core/lv_obj_style.h ****  */
  65:lvgl/src/hal/../core/lv_obj_style.h **** void _lv_obj_style_init(void);
  66:lvgl/src/hal/../core/lv_obj_style.h **** 
  67:lvgl/src/hal/../core/lv_obj_style.h **** /**
  68:lvgl/src/hal/../core/lv_obj_style.h ****  * Add a style to an object.
  69:lvgl/src/hal/../core/lv_obj_style.h ****  * @param obj       pointer to an object
  70:lvgl/src/hal/../core/lv_obj_style.h ****  * @param style     pointer to a style to add
  71:lvgl/src/hal/../core/lv_obj_style.h ****  * @param selector  OR-ed value of parts and state to which the style should be added
  72:lvgl/src/hal/../core/lv_obj_style.h ****  * @example         lv_obj_add_style(btn, &style_btn, 0); //Default button style
  73:lvgl/src/hal/../core/lv_obj_style.h ****  * @example         lv_obj_add_style(btn, &btn_red, LV_STATE_PRESSED); //Overwrite only some colors
  74:lvgl/src/hal/../core/lv_obj_style.h ****  */
  75:lvgl/src/hal/../core/lv_obj_style.h **** void lv_obj_add_style(struct _lv_obj_t * obj, lv_style_t * style, lv_style_selector_t selector);
  76:lvgl/src/hal/../core/lv_obj_style.h **** 
  77:lvgl/src/hal/../core/lv_obj_style.h **** /**
  78:lvgl/src/hal/../core/lv_obj_style.h ****  * Add a style to an object.
  79:lvgl/src/hal/../core/lv_obj_style.h ****  * @param obj       pointer to an object
  80:lvgl/src/hal/../core/lv_obj_style.h ****  * @param style     pointer to a style to remove. Can be NULL to check only the selector
  81:lvgl/src/hal/../core/lv_obj_style.h ****  * @param selector  OR-ed values of states and a part to remove only styles with matching selectors
  82:lvgl/src/hal/../core/lv_obj_style.h ****  * @example lv_obj_remove_style(obj, &style, LV_PART_ANY | LV_STATE_ANY); //Remove a specific style
  83:lvgl/src/hal/../core/lv_obj_style.h ****  * @example lv_obj_remove_style(obj, NULL, LV_PART_MAIN | LV_STATE_ANY); //Remove all styles from t
ARM GAS  C:\Users\OSD\AppData\Local\Temp\ccDD6lYO.s 			page 53


  84:lvgl/src/hal/../core/lv_obj_style.h ****  * @example lv_obj_remove_style(obj, NULL, LV_PART_ANY | LV_STATE_ANY); //Remove all styles
  85:lvgl/src/hal/../core/lv_obj_style.h ****  */
  86:lvgl/src/hal/../core/lv_obj_style.h **** void lv_obj_remove_style(struct _lv_obj_t * obj, lv_style_t * style, lv_style_selector_t selector);
  87:lvgl/src/hal/../core/lv_obj_style.h **** 
  88:lvgl/src/hal/../core/lv_obj_style.h **** /**
  89:lvgl/src/hal/../core/lv_obj_style.h ****  * Remove all styles from an object
  90:lvgl/src/hal/../core/lv_obj_style.h ****  * @param obj       pointer to an object
  91:lvgl/src/hal/../core/lv_obj_style.h ****  */
  92:lvgl/src/hal/../core/lv_obj_style.h **** static inline void lv_obj_remove_style_all(struct _lv_obj_t * obj)
 1182              		.loc 3 92 20 view .LVU368
 1183              	.LBB53:
  93:lvgl/src/hal/../core/lv_obj_style.h **** {
  94:lvgl/src/hal/../core/lv_obj_style.h ****     lv_obj_remove_style(obj, NULL, (lv_style_selector_t)LV_PART_ANY | (lv_style_selector_t)LV_STATE
 1184              		.loc 3 94 5 view .LVU369
 1185 00ba 214D     		ldr	r5, .L63+16
 1186 00bc 2A46     		mov	r2, r5
 1187 00be 0021     		movs	r1, #0
 1188 00c0 E069     		ldr	r0, [r4, #28]
 1189 00c2 FFF7FEFF 		bl	lv_obj_remove_style
 1190              	.LVL111:
 1191              		.loc 3 94 5 is_stmt 0 view .LVU370
 1192              	.LBE53:
 1193              	.LBE52:
 228:lvgl/src/hal/lv_hal_disp.c ****     lv_obj_clear_flag(disp->top_layer, LV_OBJ_FLAG_CLICKABLE);
 1194              		.loc 1 228 5 is_stmt 1 view .LVU371
 1195              	.LBB54:
 1196              	.LBI54:
  92:lvgl/src/hal/../core/lv_obj_style.h **** {
 1197              		.loc 3 92 20 view .LVU372
 1198              	.LBB55:
 1199              		.loc 3 94 5 view .LVU373
 1200 00c6 2A46     		mov	r2, r5
 1201 00c8 0021     		movs	r1, #0
 1202 00ca 206A     		ldr	r0, [r4, #32]
 1203 00cc FFF7FEFF 		bl	lv_obj_remove_style
 1204              	.LVL112:
 1205              		.loc 3 94 5 is_stmt 0 view .LVU374
 1206              	.LBE55:
 1207              	.LBE54:
 229:lvgl/src/hal/lv_hal_disp.c ****     lv_obj_clear_flag(disp->sys_layer, LV_OBJ_FLAG_CLICKABLE);
 1208              		.loc 1 229 5 is_stmt 1 view .LVU375
 1209 00d0 0221     		movs	r1, #2
 1210 00d2 E069     		ldr	r0, [r4, #28]
 1211 00d4 FFF7FEFF 		bl	lv_obj_clear_flag
 1212              	.LVL113:
 230:lvgl/src/hal/lv_hal_disp.c **** 
 1213              		.loc 1 230 5 view .LVU376
 1214 00d8 0221     		movs	r1, #2
 1215 00da 206A     		ldr	r0, [r4, #32]
 1216 00dc FFF7FEFF 		bl	lv_obj_clear_flag
 1217              	.LVL114:
 232:lvgl/src/hal/lv_hal_disp.c ****     lv_obj_set_scrollbar_mode(disp->sys_layer, LV_SCROLLBAR_MODE_OFF);
 1218              		.loc 1 232 5 view .LVU377
 1219 00e0 0021     		movs	r1, #0
 1220 00e2 E069     		ldr	r0, [r4, #28]
 1221 00e4 FFF7FEFF 		bl	lv_obj_set_scrollbar_mode
 1222              	.LVL115:
ARM GAS  C:\Users\OSD\AppData\Local\Temp\ccDD6lYO.s 			page 54


 233:lvgl/src/hal/lv_hal_disp.c **** 
 1223              		.loc 1 233 5 view .LVU378
 1224 00e8 0021     		movs	r1, #0
 1225 00ea 206A     		ldr	r0, [r4, #32]
 1226 00ec FFF7FEFF 		bl	lv_obj_set_scrollbar_mode
 1227              	.LVL116:
 235:lvgl/src/hal/lv_hal_disp.c **** 
 1228              		.loc 1 235 5 view .LVU379
 1229 00f0 2069     		ldr	r0, [r4, #16]
 1230 00f2 FFF7FEFF 		bl	lv_obj_invalidate
 1231              	.LVL117:
 237:lvgl/src/hal/lv_hal_disp.c ****     if(disp_def == NULL) disp_def = disp; /*Initialize the default display*/
 1232              		.loc 1 237 5 view .LVU380
 237:lvgl/src/hal/lv_hal_disp.c ****     if(disp_def == NULL) disp_def = disp; /*Initialize the default display*/
 1233              		.loc 1 237 14 is_stmt 0 view .LVU381
 1234 00f6 0F4B     		ldr	r3, .L63+4
 1235 00f8 1E60     		str	r6, [r3]
 238:lvgl/src/hal/lv_hal_disp.c **** 
 1236              		.loc 1 238 5 is_stmt 1 view .LVU382
 238:lvgl/src/hal/lv_hal_disp.c **** 
 1237              		.loc 1 238 7 is_stmt 0 view .LVU383
 1238 00fa BEB1     		cbz	r6, .L62
 1239              	.L59:
 240:lvgl/src/hal/lv_hal_disp.c **** 
 1240              		.loc 1 240 5 is_stmt 1 view .LVU384
 1241 00fc 6068     		ldr	r0, [r4, #4]
 1242 00fe FFF7FEFF 		bl	lv_timer_ready
 1243              	.LVL118:
 242:lvgl/src/hal/lv_hal_disp.c **** }
 1244              		.loc 1 242 5 view .LVU385
 243:lvgl/src/hal/lv_hal_disp.c **** 
 1245              		.loc 1 243 1 is_stmt 0 view .LVU386
 1246 0102 2046     		mov	r0, r4
 1247 0104 02B0     		add	sp, sp, #8
 1248              		.cfi_remember_state
 1249              		.cfi_def_cfa_offset 16
 1250              		@ sp needed
 1251 0106 70BD     		pop	{r4, r5, r6, pc}
 1252              	.LVL119:
 1253              	.L50:
 1254              		.cfi_restore_state
 169:lvgl/src/hal/lv_hal_disp.c ****     if(!disp) {
 1255              		.loc 1 169 5 is_stmt 1 discriminator 1 view .LVU387
 169:lvgl/src/hal/lv_hal_disp.c ****     if(!disp) {
 1256              		.loc 1 169 5 discriminator 1 view .LVU388
 169:lvgl/src/hal/lv_hal_disp.c ****     if(!disp) {
 1257              		.loc 1 169 5 discriminator 1 view .LVU389
 169:lvgl/src/hal/lv_hal_disp.c ****     if(!disp) {
 1258              		.loc 1 169 5 discriminator 1 view .LVU390
 169:lvgl/src/hal/lv_hal_disp.c ****     if(!disp) {
 1259              		.loc 1 169 5 discriminator 1 view .LVU391
 169:lvgl/src/hal/lv_hal_disp.c ****     if(!disp) {
 1260              		.loc 1 169 5 discriminator 1 view .LVU392
 1261 0108 FEE7     		b	.L50
 1262              	.L61:
 1263              	.LBB56:
 176:lvgl/src/hal/lv_hal_disp.c ****         LV_ASSERT_MALLOC(draw_ctx);
ARM GAS  C:\Users\OSD\AppData\Local\Temp\ccDD6lYO.s 			page 55


 1264              		.loc 1 176 9 view .LVU393
 176:lvgl/src/hal/lv_hal_disp.c ****         LV_ASSERT_MALLOC(draw_ctx);
 1265              		.loc 1 176 36 is_stmt 0 view .LVU394
 1266 010a A86C     		ldr	r0, [r5, #72]
 1267              	.LVL120:
 176:lvgl/src/hal/lv_hal_disp.c ****         LV_ASSERT_MALLOC(draw_ctx);
 1268              		.loc 1 176 36 view .LVU395
 1269 010c FFF7FEFF 		bl	lv_mem_alloc
 1270              	.LVL121:
 177:lvgl/src/hal/lv_hal_disp.c ****         if(draw_ctx == NULL) return NULL;
 1271              		.loc 1 177 9 is_stmt 1 view .LVU396
 177:lvgl/src/hal/lv_hal_disp.c ****         if(draw_ctx == NULL) return NULL;
 1272              		.loc 1 177 9 view .LVU397
 1273 0110 0646     		mov	r6, r0
 1274 0112 28B1     		cbz	r0, .L53
 177:lvgl/src/hal/lv_hal_disp.c ****         if(draw_ctx == NULL) return NULL;
 1275              		.loc 1 177 9 view .LVU398
 177:lvgl/src/hal/lv_hal_disp.c ****         if(draw_ctx == NULL) return NULL;
 1276              		.loc 1 177 35 view .LVU399
 178:lvgl/src/hal/lv_hal_disp.c ****         driver->draw_ctx_init(driver, draw_ctx);
 1277              		.loc 1 178 9 view .LVU400
 179:lvgl/src/hal/lv_hal_disp.c ****         driver->draw_ctx = draw_ctx;
 1278              		.loc 1 179 9 view .LVU401
 179:lvgl/src/hal/lv_hal_disp.c ****         driver->draw_ctx = draw_ctx;
 1279              		.loc 1 179 15 is_stmt 0 view .LVU402
 1280 0114 2B6C     		ldr	r3, [r5, #64]
 179:lvgl/src/hal/lv_hal_disp.c ****         driver->draw_ctx = draw_ctx;
 1281              		.loc 1 179 9 view .LVU403
 1282 0116 0146     		mov	r1, r0
 1283 0118 2846     		mov	r0, r5
 1284              	.LVL122:
 179:lvgl/src/hal/lv_hal_disp.c ****         driver->draw_ctx = draw_ctx;
 1285              		.loc 1 179 9 view .LVU404
 1286 011a 9847     		blx	r3
 1287              	.LVL123:
 180:lvgl/src/hal/lv_hal_disp.c ****     }
 1288              		.loc 1 180 9 is_stmt 1 view .LVU405
 180:lvgl/src/hal/lv_hal_disp.c ****     }
 1289              		.loc 1 180 26 is_stmt 0 view .LVU406
 1290 011c EE63     		str	r6, [r5, #60]
 1291 011e 7BE7     		b	.L51
 1292              	.LVL124:
 1293              	.L53:
 177:lvgl/src/hal/lv_hal_disp.c ****         if(draw_ctx == NULL) return NULL;
 1294              		.loc 1 177 9 is_stmt 1 discriminator 2 view .LVU407
 177:lvgl/src/hal/lv_hal_disp.c ****         if(draw_ctx == NULL) return NULL;
 1295              		.loc 1 177 9 discriminator 2 view .LVU408
 177:lvgl/src/hal/lv_hal_disp.c ****         if(draw_ctx == NULL) return NULL;
 1296              		.loc 1 177 9 discriminator 2 view .LVU409
 177:lvgl/src/hal/lv_hal_disp.c ****         if(draw_ctx == NULL) return NULL;
 1297              		.loc 1 177 9 discriminator 2 view .LVU410
 177:lvgl/src/hal/lv_hal_disp.c ****         if(draw_ctx == NULL) return NULL;
 1298              		.loc 1 177 9 discriminator 2 view .LVU411
 177:lvgl/src/hal/lv_hal_disp.c ****         if(draw_ctx == NULL) return NULL;
 1299              		.loc 1 177 9 discriminator 2 view .LVU412
 1300 0120 FEE7     		b	.L53
 1301              	.LVL125:
ARM GAS  C:\Users\OSD\AppData\Local\Temp\ccDD6lYO.s 			page 56


 1302              	.L55:
 177:lvgl/src/hal/lv_hal_disp.c ****         if(draw_ctx == NULL) return NULL;
 1303              		.loc 1 177 9 is_stmt 0 discriminator 2 view .LVU413
 1304              	.LBE56:
 196:lvgl/src/hal/lv_hal_disp.c ****     if(disp->refr_timer == NULL) {
 1305              		.loc 1 196 5 is_stmt 1 discriminator 3 view .LVU414
 196:lvgl/src/hal/lv_hal_disp.c ****     if(disp->refr_timer == NULL) {
 1306              		.loc 1 196 5 discriminator 3 view .LVU415
 196:lvgl/src/hal/lv_hal_disp.c ****     if(disp->refr_timer == NULL) {
 1307              		.loc 1 196 5 discriminator 3 view .LVU416
 196:lvgl/src/hal/lv_hal_disp.c ****     if(disp->refr_timer == NULL) {
 1308              		.loc 1 196 5 discriminator 3 view .LVU417
 196:lvgl/src/hal/lv_hal_disp.c ****     if(disp->refr_timer == NULL) {
 1309              		.loc 1 196 5 discriminator 3 view .LVU418
 196:lvgl/src/hal/lv_hal_disp.c ****     if(disp->refr_timer == NULL) {
 1310              		.loc 1 196 5 discriminator 3 view .LVU419
 1311 0122 FEE7     		b	.L55
 1312              	.L57:
 220:lvgl/src/hal/lv_hal_disp.c ****     }
 1313              		.loc 1 220 9 view .LVU420
 220:lvgl/src/hal/lv_hal_disp.c ****     }
 1314              		.loc 1 220 23 is_stmt 0 view .LVU421
 1315 0124 FFF7FEFF 		bl	lv_theme_default_get
 1316              	.LVL126:
 220:lvgl/src/hal/lv_hal_disp.c ****     }
 1317              		.loc 1 220 21 view .LVU422
 1318 0128 A060     		str	r0, [r4, #8]
 1319 012a BAE7     		b	.L58
 1320              	.LVL127:
 1321              	.L62:
 238:lvgl/src/hal/lv_hal_disp.c **** 
 1322              		.loc 1 238 26 is_stmt 1 discriminator 1 view .LVU423
 238:lvgl/src/hal/lv_hal_disp.c **** 
 1323              		.loc 1 238 35 is_stmt 0 discriminator 1 view .LVU424
 1324 012c 1C60     		str	r4, [r3]
 1325 012e E5E7     		b	.L59
 1326              	.L64:
 1327              		.align	2
 1328              	.L63:
 1329 0130 00000000 		.word	_lv_disp_ll
 1330 0134 00000000 		.word	.LANCHOR6
 1331 0138 00000000 		.word	_lv_disp_refr_timer
 1332 013c 00000000 		.word	lv_font_montserrat_14
 1333 0140 FFFF0F00 		.word	1048575
 1334              		.cfi_endproc
 1335              	.LFE163:
 1337              		.section	.text.lv_disp_set_default,"ax",%progbits
 1338              		.align	1
 1339              		.global	lv_disp_set_default
 1340              		.syntax unified
 1341              		.thumb
 1342              		.thumb_func
 1344              	lv_disp_set_default:
 1345              	.LVL128:
 1346              	.LFB166:
 333:lvgl/src/hal/lv_hal_disp.c ****     disp_def = disp;
 1347              		.loc 1 333 1 is_stmt 1 view -0
ARM GAS  C:\Users\OSD\AppData\Local\Temp\ccDD6lYO.s 			page 57


 1348              		.cfi_startproc
 1349              		@ args = 0, pretend = 0, frame = 0
 1350              		@ frame_needed = 0, uses_anonymous_args = 0
 1351              		@ link register save eliminated.
 334:lvgl/src/hal/lv_hal_disp.c **** }
 1352              		.loc 1 334 5 view .LVU426
 334:lvgl/src/hal/lv_hal_disp.c **** }
 1353              		.loc 1 334 14 is_stmt 0 view .LVU427
 1354 0000 014B     		ldr	r3, .L66
 1355 0002 1860     		str	r0, [r3]
 335:lvgl/src/hal/lv_hal_disp.c **** 
 1356              		.loc 1 335 1 view .LVU428
 1357 0004 7047     		bx	lr
 1358              	.L67:
 1359 0006 00BF     		.align	2
 1360              	.L66:
 1361 0008 00000000 		.word	.LANCHOR6
 1362              		.cfi_endproc
 1363              	.LFE166:
 1365              		.section	.text.lv_disp_get_default,"ax",%progbits
 1366              		.align	1
 1367              		.global	lv_disp_get_default
 1368              		.syntax unified
 1369              		.thumb
 1370              		.thumb_func
 1372              	lv_disp_get_default:
 1373              	.LFB167:
 342:lvgl/src/hal/lv_hal_disp.c ****     return disp_def;
 1374              		.loc 1 342 1 is_stmt 1 view -0
 1375              		.cfi_startproc
 1376              		@ args = 0, pretend = 0, frame = 0
 1377              		@ frame_needed = 0, uses_anonymous_args = 0
 1378              		@ link register save eliminated.
 343:lvgl/src/hal/lv_hal_disp.c **** }
 1379              		.loc 1 343 5 view .LVU430
 344:lvgl/src/hal/lv_hal_disp.c **** 
 1380              		.loc 1 344 1 is_stmt 0 view .LVU431
 1381 0000 014B     		ldr	r3, .L69
 1382 0002 1868     		ldr	r0, [r3]
 1383 0004 7047     		bx	lr
 1384              	.L70:
 1385 0006 00BF     		.align	2
 1386              	.L69:
 1387 0008 00000000 		.word	.LANCHOR6
 1388              		.cfi_endproc
 1389              	.LFE167:
 1391              		.section	.text.lv_disp_remove,"ax",%progbits
 1392              		.align	1
 1393              		.global	lv_disp_remove
 1394              		.syntax unified
 1395              		.thumb
 1396              		.thumb_func
 1398              	lv_disp_remove:
 1399              	.LVL129:
 1400              	.LFB165:
 292:lvgl/src/hal/lv_hal_disp.c ****     bool was_default = false;
 1401              		.loc 1 292 1 is_stmt 1 view -0
ARM GAS  C:\Users\OSD\AppData\Local\Temp\ccDD6lYO.s 			page 58


 1402              		.cfi_startproc
 1403              		@ args = 0, pretend = 0, frame = 0
 1404              		@ frame_needed = 0, uses_anonymous_args = 0
 292:lvgl/src/hal/lv_hal_disp.c ****     bool was_default = false;
 1405              		.loc 1 292 1 is_stmt 0 view .LVU433
 1406 0000 38B5     		push	{r3, r4, r5, lr}
 1407              		.cfi_def_cfa_offset 16
 1408              		.cfi_offset 3, -16
 1409              		.cfi_offset 4, -12
 1410              		.cfi_offset 5, -8
 1411              		.cfi_offset 14, -4
 1412 0002 0446     		mov	r4, r0
 293:lvgl/src/hal/lv_hal_disp.c ****     if(disp == lv_disp_get_default()) was_default = true;
 1413              		.loc 1 293 5 is_stmt 1 view .LVU434
 1414              	.LVL130:
 294:lvgl/src/hal/lv_hal_disp.c **** 
 1415              		.loc 1 294 5 view .LVU435
 294:lvgl/src/hal/lv_hal_disp.c **** 
 1416              		.loc 1 294 16 is_stmt 0 view .LVU436
 1417 0004 FFF7FEFF 		bl	lv_disp_get_default
 1418              	.LVL131:
 294:lvgl/src/hal/lv_hal_disp.c **** 
 1419              		.loc 1 294 7 view .LVU437
 1420 0008 8442     		cmp	r4, r0
 1421 000a 04D0     		beq	.L82
 293:lvgl/src/hal/lv_hal_disp.c ****     if(disp == lv_disp_get_default()) was_default = true;
 1422              		.loc 1 293 10 view .LVU438
 1423 000c 0025     		movs	r5, #0
 1424              	.L72:
 1425              	.LVL132:
 297:lvgl/src/hal/lv_hal_disp.c ****     indev = lv_indev_get_next(NULL);
 1426              		.loc 1 297 5 is_stmt 1 view .LVU439
 298:lvgl/src/hal/lv_hal_disp.c ****     while(indev) {
 1427              		.loc 1 298 5 view .LVU440
 298:lvgl/src/hal/lv_hal_disp.c ****     while(indev) {
 1428              		.loc 1 298 13 is_stmt 0 view .LVU441
 1429 000e 0020     		movs	r0, #0
 1430 0010 FFF7FEFF 		bl	lv_indev_get_next
 1431              	.LVL133:
 299:lvgl/src/hal/lv_hal_disp.c ****         if(indev->driver->disp == disp) {
 1432              		.loc 1 299 5 is_stmt 1 view .LVU442
 299:lvgl/src/hal/lv_hal_disp.c ****         if(indev->driver->disp == disp) {
 1433              		.loc 1 299 10 is_stmt 0 view .LVU443
 1434 0014 03E0     		b	.L73
 1435              	.LVL134:
 1436              	.L82:
 294:lvgl/src/hal/lv_hal_disp.c **** 
 1437              		.loc 1 294 51 view .LVU444
 1438 0016 0125     		movs	r5, #1
 1439 0018 F9E7     		b	.L72
 1440              	.LVL135:
 1441              	.L74:
 303:lvgl/src/hal/lv_hal_disp.c ****     }
 1442              		.loc 1 303 9 is_stmt 1 view .LVU445
 303:lvgl/src/hal/lv_hal_disp.c ****     }
 1443              		.loc 1 303 17 is_stmt 0 view .LVU446
 1444 001a FFF7FEFF 		bl	lv_indev_get_next
ARM GAS  C:\Users\OSD\AppData\Local\Temp\ccDD6lYO.s 			page 59


 1445              	.LVL136:
 1446              	.L73:
 299:lvgl/src/hal/lv_hal_disp.c ****         if(indev->driver->disp == disp) {
 1447              		.loc 1 299 10 is_stmt 1 view .LVU447
 1448 001e 30B1     		cbz	r0, .L84
 300:lvgl/src/hal/lv_hal_disp.c ****             indev->driver->disp = NULL;
 1449              		.loc 1 300 9 view .LVU448
 300:lvgl/src/hal/lv_hal_disp.c ****             indev->driver->disp = NULL;
 1450              		.loc 1 300 17 is_stmt 0 view .LVU449
 1451 0020 0368     		ldr	r3, [r0]
 300:lvgl/src/hal/lv_hal_disp.c ****             indev->driver->disp = NULL;
 1452              		.loc 1 300 25 view .LVU450
 1453 0022 1A69     		ldr	r2, [r3, #16]
 300:lvgl/src/hal/lv_hal_disp.c ****             indev->driver->disp = NULL;
 1454              		.loc 1 300 11 view .LVU451
 1455 0024 A242     		cmp	r2, r4
 1456 0026 F8D1     		bne	.L74
 301:lvgl/src/hal/lv_hal_disp.c ****         }
 1457              		.loc 1 301 13 is_stmt 1 view .LVU452
 301:lvgl/src/hal/lv_hal_disp.c ****         }
 1458              		.loc 1 301 33 is_stmt 0 view .LVU453
 1459 0028 0022     		movs	r2, #0
 1460 002a 1A61     		str	r2, [r3, #16]
 1461 002c F5E7     		b	.L74
 1462              	.L84:
 307:lvgl/src/hal/lv_hal_disp.c ****         lv_obj_del(disp->sys_layer);
 1463              		.loc 1 307 5 is_stmt 1 view .LVU454
 307:lvgl/src/hal/lv_hal_disp.c ****         lv_obj_del(disp->sys_layer);
 1464              		.loc 1 307 12 is_stmt 0 view .LVU455
 1465 002e 206A     		ldr	r0, [r4, #32]
 1466              	.LVL137:
 307:lvgl/src/hal/lv_hal_disp.c ****         lv_obj_del(disp->sys_layer);
 1467              		.loc 1 307 7 view .LVU456
 1468 0030 18B1     		cbz	r0, .L76
 308:lvgl/src/hal/lv_hal_disp.c ****         disp->sys_layer = NULL;
 1469              		.loc 1 308 9 is_stmt 1 view .LVU457
 1470 0032 FFF7FEFF 		bl	lv_obj_del
 1471              	.LVL138:
 309:lvgl/src/hal/lv_hal_disp.c ****     }
 1472              		.loc 1 309 9 view .LVU458
 309:lvgl/src/hal/lv_hal_disp.c ****     }
 1473              		.loc 1 309 25 is_stmt 0 view .LVU459
 1474 0036 0023     		movs	r3, #0
 1475 0038 2362     		str	r3, [r4, #32]
 1476              	.L76:
 311:lvgl/src/hal/lv_hal_disp.c ****         lv_obj_del(disp->top_layer);
 1477              		.loc 1 311 5 is_stmt 1 view .LVU460
 311:lvgl/src/hal/lv_hal_disp.c ****         lv_obj_del(disp->top_layer);
 1478              		.loc 1 311 12 is_stmt 0 view .LVU461
 1479 003a E069     		ldr	r0, [r4, #28]
 311:lvgl/src/hal/lv_hal_disp.c ****         lv_obj_del(disp->top_layer);
 1480              		.loc 1 311 7 view .LVU462
 1481 003c 40B1     		cbz	r0, .L78
 312:lvgl/src/hal/lv_hal_disp.c ****         disp->top_layer = NULL;
 1482              		.loc 1 312 9 is_stmt 1 view .LVU463
 1483 003e FFF7FEFF 		bl	lv_obj_del
 1484              	.LVL139:
ARM GAS  C:\Users\OSD\AppData\Local\Temp\ccDD6lYO.s 			page 60


 313:lvgl/src/hal/lv_hal_disp.c ****     }
 1485              		.loc 1 313 9 view .LVU464
 313:lvgl/src/hal/lv_hal_disp.c ****     }
 1486              		.loc 1 313 25 is_stmt 0 view .LVU465
 1487 0042 0023     		movs	r3, #0
 1488 0044 E361     		str	r3, [r4, #28]
 1489 0046 03E0     		b	.L78
 1490              	.L79:
 317:lvgl/src/hal/lv_hal_disp.c ****     }
 1491              		.loc 1 317 9 is_stmt 1 view .LVU466
 317:lvgl/src/hal/lv_hal_disp.c ****     }
 1492              		.loc 1 317 24 is_stmt 0 view .LVU467
 1493 0048 E368     		ldr	r3, [r4, #12]
 317:lvgl/src/hal/lv_hal_disp.c ****     }
 1494              		.loc 1 317 9 view .LVU468
 1495 004a 1868     		ldr	r0, [r3]
 1496 004c FFF7FEFF 		bl	lv_obj_del
 1497              	.LVL140:
 1498              	.L78:
 315:lvgl/src/hal/lv_hal_disp.c ****         /*Delete the screenst*/
 1499              		.loc 1 315 10 is_stmt 1 view .LVU469
 315:lvgl/src/hal/lv_hal_disp.c ****         /*Delete the screenst*/
 1500              		.loc 1 315 15 is_stmt 0 view .LVU470
 1501 0050 636A     		ldr	r3, [r4, #36]
 315:lvgl/src/hal/lv_hal_disp.c ****         /*Delete the screenst*/
 1502              		.loc 1 315 10 view .LVU471
 1503 0052 002B     		cmp	r3, #0
 1504 0054 F8D1     		bne	.L79
 320:lvgl/src/hal/lv_hal_disp.c ****     _lv_ll_clear(&disp->sync_areas);
 1505              		.loc 1 320 5 is_stmt 1 view .LVU472
 1506 0056 2146     		mov	r1, r4
 1507 0058 0A48     		ldr	r0, .L86
 1508 005a FFF7FEFF 		bl	_lv_ll_remove
 1509              	.LVL141:
 321:lvgl/src/hal/lv_hal_disp.c ****     if(disp->refr_timer) lv_timer_del(disp->refr_timer);
 1510              		.loc 1 321 5 view .LVU473
 1511 005e 04F5AE70 		add	r0, r4, #348
 1512 0062 FFF7FEFF 		bl	_lv_ll_clear
 1513              	.LVL142:
 322:lvgl/src/hal/lv_hal_disp.c ****     lv_mem_free(disp);
 1514              		.loc 1 322 5 view .LVU474
 322:lvgl/src/hal/lv_hal_disp.c ****     lv_mem_free(disp);
 1515              		.loc 1 322 12 is_stmt 0 view .LVU475
 1516 0066 6068     		ldr	r0, [r4, #4]
 322:lvgl/src/hal/lv_hal_disp.c ****     lv_mem_free(disp);
 1517              		.loc 1 322 7 view .LVU476
 1518 0068 08B1     		cbz	r0, .L80
 322:lvgl/src/hal/lv_hal_disp.c ****     lv_mem_free(disp);
 1519              		.loc 1 322 26 is_stmt 1 discriminator 1 view .LVU477
 1520 006a FFF7FEFF 		bl	lv_timer_del
 1521              	.LVL143:
 1522              	.L80:
 323:lvgl/src/hal/lv_hal_disp.c **** 
 1523              		.loc 1 323 5 view .LVU478
 1524 006e 2046     		mov	r0, r4
 1525 0070 FFF7FEFF 		bl	lv_mem_free
 1526              	.LVL144:
ARM GAS  C:\Users\OSD\AppData\Local\Temp\ccDD6lYO.s 			page 61


 325:lvgl/src/hal/lv_hal_disp.c **** }
 1527              		.loc 1 325 5 view .LVU479
 325:lvgl/src/hal/lv_hal_disp.c **** }
 1528              		.loc 1 325 7 is_stmt 0 view .LVU480
 1529 0074 05B9     		cbnz	r5, .L85
 1530              	.L71:
 326:lvgl/src/hal/lv_hal_disp.c **** 
 1531              		.loc 1 326 1 view .LVU481
 1532 0076 38BD     		pop	{r3, r4, r5, pc}
 1533              	.LVL145:
 1534              	.L85:
 325:lvgl/src/hal/lv_hal_disp.c **** }
 1535              		.loc 1 325 21 is_stmt 1 discriminator 1 view .LVU482
 325:lvgl/src/hal/lv_hal_disp.c **** }
 1536              		.loc 1 325 41 is_stmt 0 discriminator 1 view .LVU483
 1537 0078 0248     		ldr	r0, .L86
 1538 007a FFF7FEFF 		bl	_lv_ll_get_head
 1539              	.LVL146:
 325:lvgl/src/hal/lv_hal_disp.c **** }
 1540              		.loc 1 325 21 discriminator 1 view .LVU484
 1541 007e FFF7FEFF 		bl	lv_disp_set_default
 1542              	.LVL147:
 326:lvgl/src/hal/lv_hal_disp.c **** 
 1543              		.loc 1 326 1 discriminator 1 view .LVU485
 1544 0082 F8E7     		b	.L71
 1545              	.L87:
 1546              		.align	2
 1547              	.L86:
 1548 0084 00000000 		.word	_lv_disp_ll
 1549              		.cfi_endproc
 1550              	.LFE165:
 1552              		.section	.text.lv_disp_get_hor_res,"ax",%progbits
 1553              		.align	1
 1554              		.global	lv_disp_get_hor_res
 1555              		.syntax unified
 1556              		.thumb
 1557              		.thumb_func
 1559              	lv_disp_get_hor_res:
 1560              	.LVL148:
 1561              	.LFB168:
 352:lvgl/src/hal/lv_hal_disp.c ****     if(disp == NULL) disp = lv_disp_get_default();
 1562              		.loc 1 352 1 is_stmt 1 view -0
 1563              		.cfi_startproc
 1564              		@ args = 0, pretend = 0, frame = 0
 1565              		@ frame_needed = 0, uses_anonymous_args = 0
 352:lvgl/src/hal/lv_hal_disp.c ****     if(disp == NULL) disp = lv_disp_get_default();
 1566              		.loc 1 352 1 is_stmt 0 view .LVU487
 1567 0000 08B5     		push	{r3, lr}
 1568              		.cfi_def_cfa_offset 8
 1569              		.cfi_offset 3, -8
 1570              		.cfi_offset 14, -4
 353:lvgl/src/hal/lv_hal_disp.c **** 
 1571              		.loc 1 353 5 is_stmt 1 view .LVU488
 353:lvgl/src/hal/lv_hal_disp.c **** 
 1572              		.loc 1 353 7 is_stmt 0 view .LVU489
 1573 0002 0346     		mov	r3, r0
 1574 0004 58B1     		cbz	r0, .L95
ARM GAS  C:\Users\OSD\AppData\Local\Temp\ccDD6lYO.s 			page 62


 1575              	.L89:
 355:lvgl/src/hal/lv_hal_disp.c ****         return 0;
 1576              		.loc 1 355 5 is_stmt 1 view .LVU490
 355:lvgl/src/hal/lv_hal_disp.c ****         return 0;
 1577              		.loc 1 355 7 is_stmt 0 view .LVU491
 1578 0006 8BB1     		cbz	r3, .L93
 359:lvgl/src/hal/lv_hal_disp.c ****             case LV_DISP_ROT_90:
 1579              		.loc 1 359 9 is_stmt 1 view .LVU492
 359:lvgl/src/hal/lv_hal_disp.c ****             case LV_DISP_ROT_90:
 1580              		.loc 1 359 20 is_stmt 0 view .LVU493
 1581 0008 1A68     		ldr	r2, [r3]
 359:lvgl/src/hal/lv_hal_disp.c ****             case LV_DISP_ROT_90:
 1582              		.loc 1 359 28 view .LVU494
 1583 000a 137C     		ldrb	r3, [r2, #16]	@ zero_extendqisi2
 1584 000c C3F30113 		ubfx	r3, r3, #4, #2
 359:lvgl/src/hal/lv_hal_disp.c ****             case LV_DISP_ROT_90:
 1585              		.loc 1 359 9 view .LVU495
 1586 0010 012B     		cmp	r3, #1
 1587 0012 08D0     		beq	.L91
 1588 0014 032B     		cmp	r3, #3
 1589 0016 06D0     		beq	.L91
 364:lvgl/src/hal/lv_hal_disp.c ****         }
 1590              		.loc 1 364 17 is_stmt 1 view .LVU496
 364:lvgl/src/hal/lv_hal_disp.c ****         }
 1591              		.loc 1 364 36 is_stmt 0 view .LVU497
 1592 0018 B2F90000 		ldrsh	r0, [r2]
 1593              	.LVL149:
 364:lvgl/src/hal/lv_hal_disp.c ****         }
 1594              		.loc 1 364 36 view .LVU498
 1595 001c 05E0     		b	.L90
 1596              	.LVL150:
 1597              	.L95:
 353:lvgl/src/hal/lv_hal_disp.c **** 
 1598              		.loc 1 353 22 is_stmt 1 discriminator 1 view .LVU499
 353:lvgl/src/hal/lv_hal_disp.c **** 
 1599              		.loc 1 353 29 is_stmt 0 discriminator 1 view .LVU500
 1600 001e FFF7FEFF 		bl	lv_disp_get_default
 1601              	.LVL151:
 353:lvgl/src/hal/lv_hal_disp.c **** 
 1602              		.loc 1 353 29 discriminator 1 view .LVU501
 1603 0022 0346     		mov	r3, r0
 1604              	.LVL152:
 353:lvgl/src/hal/lv_hal_disp.c **** 
 1605              		.loc 1 353 29 discriminator 1 view .LVU502
 1606 0024 EFE7     		b	.L89
 1607              	.L91:
 362:lvgl/src/hal/lv_hal_disp.c ****             default:
 1608              		.loc 1 362 17 is_stmt 1 view .LVU503
 362:lvgl/src/hal/lv_hal_disp.c ****             default:
 1609              		.loc 1 362 36 is_stmt 0 view .LVU504
 1610 0026 B2F90200 		ldrsh	r0, [r2, #2]
 1611              	.LVL153:
 1612              	.L90:
 367:lvgl/src/hal/lv_hal_disp.c **** 
 1613              		.loc 1 367 1 view .LVU505
 1614 002a 08BD     		pop	{r3, pc}
 1615              	.LVL154:
ARM GAS  C:\Users\OSD\AppData\Local\Temp\ccDD6lYO.s 			page 63


 1616              	.L93:
 356:lvgl/src/hal/lv_hal_disp.c ****     }
 1617              		.loc 1 356 16 view .LVU506
 1618 002c 0020     		movs	r0, #0
 1619              	.LVL155:
 356:lvgl/src/hal/lv_hal_disp.c ****     }
 1620              		.loc 1 356 16 view .LVU507
 1621 002e FCE7     		b	.L90
 1622              		.cfi_endproc
 1623              	.LFE168:
 1625              		.section	.text.lv_disp_get_ver_res,"ax",%progbits
 1626              		.align	1
 1627              		.global	lv_disp_get_ver_res
 1628              		.syntax unified
 1629              		.thumb
 1630              		.thumb_func
 1632              	lv_disp_get_ver_res:
 1633              	.LVL156:
 1634              	.LFB169:
 375:lvgl/src/hal/lv_hal_disp.c ****     if(disp == NULL) disp = lv_disp_get_default();
 1635              		.loc 1 375 1 is_stmt 1 view -0
 1636              		.cfi_startproc
 1637              		@ args = 0, pretend = 0, frame = 0
 1638              		@ frame_needed = 0, uses_anonymous_args = 0
 375:lvgl/src/hal/lv_hal_disp.c ****     if(disp == NULL) disp = lv_disp_get_default();
 1639              		.loc 1 375 1 is_stmt 0 view .LVU509
 1640 0000 08B5     		push	{r3, lr}
 1641              		.cfi_def_cfa_offset 8
 1642              		.cfi_offset 3, -8
 1643              		.cfi_offset 14, -4
 376:lvgl/src/hal/lv_hal_disp.c **** 
 1644              		.loc 1 376 5 is_stmt 1 view .LVU510
 376:lvgl/src/hal/lv_hal_disp.c **** 
 1645              		.loc 1 376 7 is_stmt 0 view .LVU511
 1646 0002 0346     		mov	r3, r0
 1647 0004 58B1     		cbz	r0, .L103
 1648              	.L97:
 378:lvgl/src/hal/lv_hal_disp.c ****         return 0;
 1649              		.loc 1 378 5 is_stmt 1 view .LVU512
 378:lvgl/src/hal/lv_hal_disp.c ****         return 0;
 1650              		.loc 1 378 7 is_stmt 0 view .LVU513
 1651 0006 8BB1     		cbz	r3, .L101
 382:lvgl/src/hal/lv_hal_disp.c ****             case LV_DISP_ROT_90:
 1652              		.loc 1 382 9 is_stmt 1 view .LVU514
 382:lvgl/src/hal/lv_hal_disp.c ****             case LV_DISP_ROT_90:
 1653              		.loc 1 382 20 is_stmt 0 view .LVU515
 1654 0008 1A68     		ldr	r2, [r3]
 382:lvgl/src/hal/lv_hal_disp.c ****             case LV_DISP_ROT_90:
 1655              		.loc 1 382 28 view .LVU516
 1656 000a 137C     		ldrb	r3, [r2, #16]	@ zero_extendqisi2
 1657 000c C3F30113 		ubfx	r3, r3, #4, #2
 382:lvgl/src/hal/lv_hal_disp.c ****             case LV_DISP_ROT_90:
 1658              		.loc 1 382 9 view .LVU517
 1659 0010 012B     		cmp	r3, #1
 1660 0012 08D0     		beq	.L99
 1661 0014 032B     		cmp	r3, #3
 1662 0016 06D0     		beq	.L99
ARM GAS  C:\Users\OSD\AppData\Local\Temp\ccDD6lYO.s 			page 64


 387:lvgl/src/hal/lv_hal_disp.c ****         }
 1663              		.loc 1 387 17 is_stmt 1 view .LVU518
 387:lvgl/src/hal/lv_hal_disp.c ****         }
 1664              		.loc 1 387 36 is_stmt 0 view .LVU519
 1665 0018 B2F90200 		ldrsh	r0, [r2, #2]
 1666              	.LVL157:
 387:lvgl/src/hal/lv_hal_disp.c ****         }
 1667              		.loc 1 387 36 view .LVU520
 1668 001c 05E0     		b	.L98
 1669              	.LVL158:
 1670              	.L103:
 376:lvgl/src/hal/lv_hal_disp.c **** 
 1671              		.loc 1 376 22 is_stmt 1 discriminator 1 view .LVU521
 376:lvgl/src/hal/lv_hal_disp.c **** 
 1672              		.loc 1 376 29 is_stmt 0 discriminator 1 view .LVU522
 1673 001e FFF7FEFF 		bl	lv_disp_get_default
 1674              	.LVL159:
 376:lvgl/src/hal/lv_hal_disp.c **** 
 1675              		.loc 1 376 29 discriminator 1 view .LVU523
 1676 0022 0346     		mov	r3, r0
 1677              	.LVL160:
 376:lvgl/src/hal/lv_hal_disp.c **** 
 1678              		.loc 1 376 29 discriminator 1 view .LVU524
 1679 0024 EFE7     		b	.L97
 1680              	.L99:
 385:lvgl/src/hal/lv_hal_disp.c ****             default:
 1681              		.loc 1 385 17 is_stmt 1 view .LVU525
 385:lvgl/src/hal/lv_hal_disp.c ****             default:
 1682              		.loc 1 385 36 is_stmt 0 view .LVU526
 1683 0026 B2F90000 		ldrsh	r0, [r2]
 1684              	.LVL161:
 1685              	.L98:
 390:lvgl/src/hal/lv_hal_disp.c **** 
 1686              		.loc 1 390 1 view .LVU527
 1687 002a 08BD     		pop	{r3, pc}
 1688              	.LVL162:
 1689              	.L101:
 379:lvgl/src/hal/lv_hal_disp.c ****     }
 1690              		.loc 1 379 16 view .LVU528
 1691 002c 0020     		movs	r0, #0
 1692              	.LVL163:
 379:lvgl/src/hal/lv_hal_disp.c ****     }
 1693              		.loc 1 379 16 view .LVU529
 1694 002e FCE7     		b	.L98
 1695              		.cfi_endproc
 1696              	.LFE169:
 1698              		.section	.text.lv_disp_drv_update,"ax",%progbits
 1699              		.align	1
 1700              		.global	lv_disp_drv_update
 1701              		.syntax unified
 1702              		.thumb
 1703              		.thumb_func
 1705              	lv_disp_drv_update:
 1706              	.LVL164:
 1707              	.LFB164:
 251:lvgl/src/hal/lv_hal_disp.c ****     disp->driver = new_drv;
 1708              		.loc 1 251 1 is_stmt 1 view -0
ARM GAS  C:\Users\OSD\AppData\Local\Temp\ccDD6lYO.s 			page 65


 1709              		.cfi_startproc
 1710              		@ args = 0, pretend = 0, frame = 8
 1711              		@ frame_needed = 0, uses_anonymous_args = 0
 251:lvgl/src/hal/lv_hal_disp.c ****     disp->driver = new_drv;
 1712              		.loc 1 251 1 is_stmt 0 view .LVU531
 1713 0000 F0B5     		push	{r4, r5, r6, r7, lr}
 1714              		.cfi_def_cfa_offset 20
 1715              		.cfi_offset 4, -20
 1716              		.cfi_offset 5, -16
 1717              		.cfi_offset 6, -12
 1718              		.cfi_offset 7, -8
 1719              		.cfi_offset 14, -4
 1720 0002 83B0     		sub	sp, sp, #12
 1721              		.cfi_def_cfa_offset 32
 1722 0004 0546     		mov	r5, r0
 252:lvgl/src/hal/lv_hal_disp.c **** 
 1723              		.loc 1 252 5 is_stmt 1 view .LVU532
 252:lvgl/src/hal/lv_hal_disp.c **** 
 1724              		.loc 1 252 18 is_stmt 0 view .LVU533
 1725 0006 0160     		str	r1, [r0]
 254:lvgl/src/hal/lv_hal_disp.c ****        disp->driver->draw_buf->size < (uint32_t)disp->driver->hor_res * disp->driver->ver_res) {
 1726              		.loc 1 254 5 is_stmt 1 view .LVU534
 254:lvgl/src/hal/lv_hal_disp.c ****        disp->driver->draw_buf->size < (uint32_t)disp->driver->hor_res * disp->driver->ver_res) {
 1727              		.loc 1 254 8 is_stmt 0 view .LVU535
 1728 0008 0B7C     		ldrb	r3, [r1, #16]	@ zero_extendqisi2
 254:lvgl/src/hal/lv_hal_disp.c ****        disp->driver->draw_buf->size < (uint32_t)disp->driver->hor_res * disp->driver->ver_res) {
 1729              		.loc 1 254 7 view .LVU536
 1730 000a 13F0020F 		tst	r3, #2
 1731 000e 0DD0     		beq	.L105
 255:lvgl/src/hal/lv_hal_disp.c ****         disp->driver->full_refresh = 0;
 1732              		.loc 1 255 20 discriminator 1 view .LVU537
 1733 0010 CB68     		ldr	r3, [r1, #12]
 255:lvgl/src/hal/lv_hal_disp.c ****         disp->driver->full_refresh = 0;
 1734              		.loc 1 255 30 discriminator 1 view .LVU538
 1735 0012 DA68     		ldr	r2, [r3, #12]
 255:lvgl/src/hal/lv_hal_disp.c ****         disp->driver->full_refresh = 0;
 1736              		.loc 1 255 61 discriminator 1 view .LVU539
 1737 0014 B1F90030 		ldrsh	r3, [r1]
 255:lvgl/src/hal/lv_hal_disp.c ****         disp->driver->full_refresh = 0;
 1738              		.loc 1 255 85 discriminator 1 view .LVU540
 1739 0018 B1F90200 		ldrsh	r0, [r1, #2]
 1740              	.LVL165:
 255:lvgl/src/hal/lv_hal_disp.c ****         disp->driver->full_refresh = 0;
 1741              		.loc 1 255 71 discriminator 1 view .LVU541
 1742 001c 00FB03F3 		mul	r3, r0, r3
 254:lvgl/src/hal/lv_hal_disp.c ****        disp->driver->draw_buf->size < (uint32_t)disp->driver->hor_res * disp->driver->ver_res) {
 1743              		.loc 1 254 35 discriminator 1 view .LVU542
 1744 0020 9A42     		cmp	r2, r3
 1745 0022 03D2     		bcs	.L105
 256:lvgl/src/hal/lv_hal_disp.c ****         LV_LOG_WARN("full_refresh requires at least screen sized draw buffer(s)");
 1746              		.loc 1 256 9 is_stmt 1 view .LVU543
 256:lvgl/src/hal/lv_hal_disp.c ****         LV_LOG_WARN("full_refresh requires at least screen sized draw buffer(s)");
 1747              		.loc 1 256 36 is_stmt 0 view .LVU544
 1748 0024 0B7C     		ldrb	r3, [r1, #16]	@ zero_extendqisi2
 1749 0026 6FF34103 		bfc	r3, #1, #1
 1750 002a 0B74     		strb	r3, [r1, #16]
 1751              	.L105:
ARM GAS  C:\Users\OSD\AppData\Local\Temp\ccDD6lYO.s 			page 66


 257:lvgl/src/hal/lv_hal_disp.c ****     }
 1752              		.loc 1 257 9 is_stmt 1 view .LVU545
 257:lvgl/src/hal/lv_hal_disp.c ****     }
 1753              		.loc 1 257 9 view .LVU546
 257:lvgl/src/hal/lv_hal_disp.c ****     }
 1754              		.loc 1 257 9 view .LVU547
 260:lvgl/src/hal/lv_hal_disp.c ****     lv_coord_t h = lv_disp_get_ver_res(disp);
 1755              		.loc 1 260 5 view .LVU548
 260:lvgl/src/hal/lv_hal_disp.c ****     lv_coord_t h = lv_disp_get_ver_res(disp);
 1756              		.loc 1 260 20 is_stmt 0 view .LVU549
 1757 002c 2846     		mov	r0, r5
 1758 002e FFF7FEFF 		bl	lv_disp_get_hor_res
 1759              	.LVL166:
 260:lvgl/src/hal/lv_hal_disp.c ****     lv_coord_t h = lv_disp_get_ver_res(disp);
 1760              		.loc 1 260 20 view .LVU550
 1761 0032 0746     		mov	r7, r0
 1762              	.LVL167:
 261:lvgl/src/hal/lv_hal_disp.c ****     uint32_t i;
 1763              		.loc 1 261 5 is_stmt 1 view .LVU551
 261:lvgl/src/hal/lv_hal_disp.c ****     uint32_t i;
 1764              		.loc 1 261 20 is_stmt 0 view .LVU552
 1765 0034 2846     		mov	r0, r5
 1766 0036 FFF7FEFF 		bl	lv_disp_get_ver_res
 1767              	.LVL168:
 1768 003a 0646     		mov	r6, r0
 1769              	.LVL169:
 262:lvgl/src/hal/lv_hal_disp.c ****     for(i = 0; i < disp->screen_cnt; i++) {
 1770              		.loc 1 262 5 is_stmt 1 view .LVU553
 263:lvgl/src/hal/lv_hal_disp.c ****         lv_area_t prev_coords;
 1771              		.loc 1 263 5 view .LVU554
 263:lvgl/src/hal/lv_hal_disp.c ****         lv_area_t prev_coords;
 1772              		.loc 1 263 11 is_stmt 0 view .LVU555
 1773 003c 0024     		movs	r4, #0
 263:lvgl/src/hal/lv_hal_disp.c ****         lv_area_t prev_coords;
 1774              		.loc 1 263 5 view .LVU556
 1775 003e 1BE0     		b	.L106
 1776              	.LVL170:
 1777              	.L107:
 1778              	.LBB57:
 264:lvgl/src/hal/lv_hal_disp.c ****         lv_obj_get_coords(disp->screens[i], &prev_coords);
 1779              		.loc 1 264 9 is_stmt 1 discriminator 3 view .LVU557
 265:lvgl/src/hal/lv_hal_disp.c ****         lv_area_set_width(&disp->screens[i]->coords, w);
 1780              		.loc 1 265 9 discriminator 3 view .LVU558
 265:lvgl/src/hal/lv_hal_disp.c ****         lv_area_set_width(&disp->screens[i]->coords, w);
 1781              		.loc 1 265 31 is_stmt 0 discriminator 3 view .LVU559
 1782 0040 EB68     		ldr	r3, [r5, #12]
 265:lvgl/src/hal/lv_hal_disp.c ****         lv_area_set_width(&disp->screens[i]->coords, w);
 1783              		.loc 1 265 9 discriminator 3 view .LVU560
 1784 0042 6946     		mov	r1, sp
 1785 0044 53F82400 		ldr	r0, [r3, r4, lsl #2]
 1786 0048 FFF7FEFF 		bl	lv_obj_get_coords
 1787              	.LVL171:
 266:lvgl/src/hal/lv_hal_disp.c ****         lv_area_set_height(&disp->screens[i]->coords, h);
 1788              		.loc 1 266 9 is_stmt 1 discriminator 3 view .LVU561
 266:lvgl/src/hal/lv_hal_disp.c ****         lv_area_set_height(&disp->screens[i]->coords, h);
 1789              		.loc 1 266 32 is_stmt 0 discriminator 3 view .LVU562
 1790 004c EB68     		ldr	r3, [r5, #12]
ARM GAS  C:\Users\OSD\AppData\Local\Temp\ccDD6lYO.s 			page 67


 266:lvgl/src/hal/lv_hal_disp.c ****         lv_area_set_height(&disp->screens[i]->coords, h);
 1791              		.loc 1 266 41 discriminator 3 view .LVU563
 1792 004e 53F82400 		ldr	r0, [r3, r4, lsl #2]
 266:lvgl/src/hal/lv_hal_disp.c ****         lv_area_set_height(&disp->screens[i]->coords, h);
 1793              		.loc 1 266 9 discriminator 3 view .LVU564
 1794 0052 3946     		mov	r1, r7
 1795 0054 1430     		adds	r0, r0, #20
 1796 0056 FFF7FEFF 		bl	lv_area_set_width
 1797              	.LVL172:
 267:lvgl/src/hal/lv_hal_disp.c ****         lv_event_send(disp->screens[i], LV_EVENT_SIZE_CHANGED, &prev_coords);
 1798              		.loc 1 267 9 is_stmt 1 discriminator 3 view .LVU565
 267:lvgl/src/hal/lv_hal_disp.c ****         lv_event_send(disp->screens[i], LV_EVENT_SIZE_CHANGED, &prev_coords);
 1799              		.loc 1 267 33 is_stmt 0 discriminator 3 view .LVU566
 1800 005a EB68     		ldr	r3, [r5, #12]
 267:lvgl/src/hal/lv_hal_disp.c ****         lv_event_send(disp->screens[i], LV_EVENT_SIZE_CHANGED, &prev_coords);
 1801              		.loc 1 267 42 discriminator 3 view .LVU567
 1802 005c 53F82400 		ldr	r0, [r3, r4, lsl #2]
 267:lvgl/src/hal/lv_hal_disp.c ****         lv_event_send(disp->screens[i], LV_EVENT_SIZE_CHANGED, &prev_coords);
 1803              		.loc 1 267 9 discriminator 3 view .LVU568
 1804 0060 3146     		mov	r1, r6
 1805 0062 1430     		adds	r0, r0, #20
 1806 0064 FFF7FEFF 		bl	lv_area_set_height
 1807              	.LVL173:
 268:lvgl/src/hal/lv_hal_disp.c ****     }
 1808              		.loc 1 268 9 is_stmt 1 discriminator 3 view .LVU569
 268:lvgl/src/hal/lv_hal_disp.c ****     }
 1809              		.loc 1 268 27 is_stmt 0 discriminator 3 view .LVU570
 1810 0068 EB68     		ldr	r3, [r5, #12]
 268:lvgl/src/hal/lv_hal_disp.c ****     }
 1811              		.loc 1 268 9 discriminator 3 view .LVU571
 1812 006a 6A46     		mov	r2, sp
 1813 006c 2921     		movs	r1, #41
 1814 006e 53F82400 		ldr	r0, [r3, r4, lsl #2]
 1815 0072 FFF7FEFF 		bl	lv_event_send
 1816              	.LVL174:
 1817              	.LBE57:
 263:lvgl/src/hal/lv_hal_disp.c ****         lv_area_t prev_coords;
 1818              		.loc 1 263 38 is_stmt 1 discriminator 3 view .LVU572
 263:lvgl/src/hal/lv_hal_disp.c ****         lv_area_t prev_coords;
 1819              		.loc 1 263 39 is_stmt 0 discriminator 3 view .LVU573
 1820 0076 0134     		adds	r4, r4, #1
 1821              	.LVL175:
 1822              	.L106:
 263:lvgl/src/hal/lv_hal_disp.c ****         lv_area_t prev_coords;
 1823              		.loc 1 263 16 is_stmt 1 discriminator 1 view .LVU574
 263:lvgl/src/hal/lv_hal_disp.c ****         lv_area_t prev_coords;
 1824              		.loc 1 263 24 is_stmt 0 discriminator 1 view .LVU575
 1825 0078 6B6A     		ldr	r3, [r5, #36]
 263:lvgl/src/hal/lv_hal_disp.c ****         lv_area_t prev_coords;
 1826              		.loc 1 263 5 discriminator 1 view .LVU576
 1827 007a A342     		cmp	r3, r4
 1828 007c E0D8     		bhi	.L107
 277:lvgl/src/hal/lv_hal_disp.c ****     lv_memset_00(disp->inv_area_joined, sizeof(disp->inv_area_joined));
 1829              		.loc 1 277 5 is_stmt 1 view .LVU577
 1830 007e 4FF48071 		mov	r1, #256
 1831 0082 05F13400 		add	r0, r5, #52
 1832 0086 FFF7FEFF 		bl	lv_memset_00
ARM GAS  C:\Users\OSD\AppData\Local\Temp\ccDD6lYO.s 			page 68


 1833              	.LVL176:
 278:lvgl/src/hal/lv_hal_disp.c ****     disp->inv_p = 0;
 1834              		.loc 1 278 5 view .LVU578
 1835 008a 2021     		movs	r1, #32
 1836 008c 05F59A70 		add	r0, r5, #308
 1837 0090 FFF7FEFF 		bl	lv_memset_00
 1838              	.LVL177:
 279:lvgl/src/hal/lv_hal_disp.c ****     if(disp->act_scr != NULL) lv_obj_invalidate(disp->act_scr);
 1839              		.loc 1 279 5 view .LVU579
 279:lvgl/src/hal/lv_hal_disp.c ****     if(disp->act_scr != NULL) lv_obj_invalidate(disp->act_scr);
 1840              		.loc 1 279 17 is_stmt 0 view .LVU580
 1841 0094 0023     		movs	r3, #0
 1842 0096 A5F85431 		strh	r3, [r5, #340]	@ movhi
 280:lvgl/src/hal/lv_hal_disp.c **** 
 1843              		.loc 1 280 5 is_stmt 1 view .LVU581
 280:lvgl/src/hal/lv_hal_disp.c **** 
 1844              		.loc 1 280 12 is_stmt 0 view .LVU582
 1845 009a 2869     		ldr	r0, [r5, #16]
 280:lvgl/src/hal/lv_hal_disp.c **** 
 1846              		.loc 1 280 7 view .LVU583
 1847 009c 08B1     		cbz	r0, .L108
 280:lvgl/src/hal/lv_hal_disp.c **** 
 1848              		.loc 1 280 31 is_stmt 1 discriminator 1 view .LVU584
 1849 009e FFF7FEFF 		bl	lv_obj_invalidate
 1850              	.LVL178:
 1851              	.L108:
 282:lvgl/src/hal/lv_hal_disp.c **** 
 1852              		.loc 1 282 5 view .LVU585
 1853 00a2 0022     		movs	r2, #0
 1854 00a4 0449     		ldr	r1, .L111
 1855 00a6 1046     		mov	r0, r2
 1856 00a8 FFF7FEFF 		bl	lv_obj_tree_walk
 1857              	.LVL179:
 284:lvgl/src/hal/lv_hal_disp.c **** }
 1858              		.loc 1 284 5 view .LVU586
 284:lvgl/src/hal/lv_hal_disp.c **** }
 1859              		.loc 1 284 12 is_stmt 0 view .LVU587
 1860 00ac 2868     		ldr	r0, [r5]
 284:lvgl/src/hal/lv_hal_disp.c **** }
 1861              		.loc 1 284 20 view .LVU588
 1862 00ae 036B     		ldr	r3, [r0, #48]
 284:lvgl/src/hal/lv_hal_disp.c **** }
 1863              		.loc 1 284 7 view .LVU589
 1864 00b0 03B1     		cbz	r3, .L104
 284:lvgl/src/hal/lv_hal_disp.c **** }
 1865              		.loc 1 284 37 is_stmt 1 discriminator 1 view .LVU590
 1866 00b2 9847     		blx	r3
 1867              	.LVL180:
 1868              	.L104:
 285:lvgl/src/hal/lv_hal_disp.c **** 
 1869              		.loc 1 285 1 is_stmt 0 view .LVU591
 1870 00b4 03B0     		add	sp, sp, #12
 1871              		.cfi_def_cfa_offset 20
 1872              		@ sp needed
 1873 00b6 F0BD     		pop	{r4, r5, r6, r7, pc}
 1874              	.LVL181:
 1875              	.L112:
ARM GAS  C:\Users\OSD\AppData\Local\Temp\ccDD6lYO.s 			page 69


 285:lvgl/src/hal/lv_hal_disp.c **** 
 1876              		.loc 1 285 1 view .LVU592
 1877              		.align	2
 1878              	.L111:
 1879 00b8 00000000 		.word	invalidate_layout_cb
 1880              		.cfi_endproc
 1881              	.LFE164:
 1883              		.section	.text.lv_disp_get_physical_hor_res,"ax",%progbits
 1884              		.align	1
 1885              		.global	lv_disp_get_physical_hor_res
 1886              		.syntax unified
 1887              		.thumb
 1888              		.thumb_func
 1890              	lv_disp_get_physical_hor_res:
 1891              	.LVL182:
 1892              	.LFB170:
 398:lvgl/src/hal/lv_hal_disp.c ****     if(disp == NULL) disp = lv_disp_get_default();
 1893              		.loc 1 398 1 is_stmt 1 view -0
 1894              		.cfi_startproc
 1895              		@ args = 0, pretend = 0, frame = 0
 1896              		@ frame_needed = 0, uses_anonymous_args = 0
 398:lvgl/src/hal/lv_hal_disp.c ****     if(disp == NULL) disp = lv_disp_get_default();
 1897              		.loc 1 398 1 is_stmt 0 view .LVU594
 1898 0000 08B5     		push	{r3, lr}
 1899              		.cfi_def_cfa_offset 8
 1900              		.cfi_offset 3, -8
 1901              		.cfi_offset 14, -4
 399:lvgl/src/hal/lv_hal_disp.c **** 
 1902              		.loc 1 399 5 is_stmt 1 view .LVU595
 399:lvgl/src/hal/lv_hal_disp.c **** 
 1903              		.loc 1 399 7 is_stmt 0 view .LVU596
 1904 0002 0346     		mov	r3, r0
 1905 0004 78B1     		cbz	r0, .L122
 1906              	.L114:
 401:lvgl/src/hal/lv_hal_disp.c ****         return 0;
 1907              		.loc 1 401 5 is_stmt 1 view .LVU597
 401:lvgl/src/hal/lv_hal_disp.c ****         return 0;
 1908              		.loc 1 401 7 is_stmt 0 view .LVU598
 1909 0006 D3B1     		cbz	r3, .L120
 405:lvgl/src/hal/lv_hal_disp.c ****             case LV_DISP_ROT_90:
 1910              		.loc 1 405 9 is_stmt 1 view .LVU599
 405:lvgl/src/hal/lv_hal_disp.c ****             case LV_DISP_ROT_90:
 1911              		.loc 1 405 20 is_stmt 0 view .LVU600
 1912 0008 1A68     		ldr	r2, [r3]
 405:lvgl/src/hal/lv_hal_disp.c ****             case LV_DISP_ROT_90:
 1913              		.loc 1 405 28 view .LVU601
 1914 000a 137C     		ldrb	r3, [r2, #16]	@ zero_extendqisi2
 1915 000c C3F30113 		ubfx	r3, r3, #4, #2
 405:lvgl/src/hal/lv_hal_disp.c ****             case LV_DISP_ROT_90:
 1916              		.loc 1 405 9 view .LVU602
 1917 0010 012B     		cmp	r3, #1
 1918 0012 0CD0     		beq	.L116
 1919 0014 032B     		cmp	r3, #3
 1920 0016 0AD0     		beq	.L116
 410:lvgl/src/hal/lv_hal_disp.c ****         }
 1921              		.loc 1 410 17 is_stmt 1 view .LVU603
 410:lvgl/src/hal/lv_hal_disp.c ****         }
ARM GAS  C:\Users\OSD\AppData\Local\Temp\ccDD6lYO.s 			page 70


 1922              		.loc 1 410 36 is_stmt 0 view .LVU604
 1923 0018 B2F90400 		ldrsh	r0, [r2, #4]
 1924              	.LVL183:
 410:lvgl/src/hal/lv_hal_disp.c ****         }
 1925              		.loc 1 410 92 view .LVU605
 1926 001c 0028     		cmp	r0, #0
 1927 001e 0ADC     		bgt	.L115
 410:lvgl/src/hal/lv_hal_disp.c ****         }
 1928              		.loc 1 410 92 discriminator 2 view .LVU606
 1929 0020 B2F90000 		ldrsh	r0, [r2]
 1930 0024 07E0     		b	.L115
 1931              	.LVL184:
 1932              	.L122:
 399:lvgl/src/hal/lv_hal_disp.c **** 
 1933              		.loc 1 399 22 is_stmt 1 discriminator 1 view .LVU607
 399:lvgl/src/hal/lv_hal_disp.c **** 
 1934              		.loc 1 399 29 is_stmt 0 discriminator 1 view .LVU608
 1935 0026 FFF7FEFF 		bl	lv_disp_get_default
 1936              	.LVL185:
 399:lvgl/src/hal/lv_hal_disp.c **** 
 1937              		.loc 1 399 29 discriminator 1 view .LVU609
 1938 002a 0346     		mov	r3, r0
 1939              	.LVL186:
 399:lvgl/src/hal/lv_hal_disp.c **** 
 1940              		.loc 1 399 29 discriminator 1 view .LVU610
 1941 002c EBE7     		b	.L114
 1942              	.L116:
 408:lvgl/src/hal/lv_hal_disp.c ****             default:
 1943              		.loc 1 408 17 is_stmt 1 view .LVU611
 408:lvgl/src/hal/lv_hal_disp.c ****             default:
 1944              		.loc 1 408 36 is_stmt 0 view .LVU612
 1945 002e B2F90600 		ldrsh	r0, [r2, #6]
 1946              	.LVL187:
 408:lvgl/src/hal/lv_hal_disp.c ****             default:
 1947              		.loc 1 408 92 view .LVU613
 1948 0032 0028     		cmp	r0, #0
 1949 0034 00DD     		ble	.L123
 1950              	.L115:
 413:lvgl/src/hal/lv_hal_disp.c **** 
 1951              		.loc 1 413 1 view .LVU614
 1952 0036 08BD     		pop	{r3, pc}
 1953              	.L123:
 408:lvgl/src/hal/lv_hal_disp.c ****             default:
 1954              		.loc 1 408 92 discriminator 2 view .LVU615
 1955 0038 B2F90200 		ldrsh	r0, [r2, #2]
 1956 003c FBE7     		b	.L115
 1957              	.LVL188:
 1958              	.L120:
 402:lvgl/src/hal/lv_hal_disp.c ****     }
 1959              		.loc 1 402 16 view .LVU616
 1960 003e 0020     		movs	r0, #0
 1961              	.LVL189:
 402:lvgl/src/hal/lv_hal_disp.c ****     }
 1962              		.loc 1 402 16 view .LVU617
 1963 0040 F9E7     		b	.L115
 1964              		.cfi_endproc
 1965              	.LFE170:
ARM GAS  C:\Users\OSD\AppData\Local\Temp\ccDD6lYO.s 			page 71


 1967              		.section	.text.lv_disp_get_physical_ver_res,"ax",%progbits
 1968              		.align	1
 1969              		.global	lv_disp_get_physical_ver_res
 1970              		.syntax unified
 1971              		.thumb
 1972              		.thumb_func
 1974              	lv_disp_get_physical_ver_res:
 1975              	.LVL190:
 1976              	.LFB171:
 421:lvgl/src/hal/lv_hal_disp.c ****     if(disp == NULL) disp = lv_disp_get_default();
 1977              		.loc 1 421 1 is_stmt 1 view -0
 1978              		.cfi_startproc
 1979              		@ args = 0, pretend = 0, frame = 0
 1980              		@ frame_needed = 0, uses_anonymous_args = 0
 421:lvgl/src/hal/lv_hal_disp.c ****     if(disp == NULL) disp = lv_disp_get_default();
 1981              		.loc 1 421 1 is_stmt 0 view .LVU619
 1982 0000 08B5     		push	{r3, lr}
 1983              		.cfi_def_cfa_offset 8
 1984              		.cfi_offset 3, -8
 1985              		.cfi_offset 14, -4
 422:lvgl/src/hal/lv_hal_disp.c **** 
 1986              		.loc 1 422 5 is_stmt 1 view .LVU620
 422:lvgl/src/hal/lv_hal_disp.c **** 
 1987              		.loc 1 422 7 is_stmt 0 view .LVU621
 1988 0002 0346     		mov	r3, r0
 1989 0004 78B1     		cbz	r0, .L133
 1990              	.L125:
 424:lvgl/src/hal/lv_hal_disp.c ****         return 0;
 1991              		.loc 1 424 5 is_stmt 1 view .LVU622
 424:lvgl/src/hal/lv_hal_disp.c ****         return 0;
 1992              		.loc 1 424 7 is_stmt 0 view .LVU623
 1993 0006 D3B1     		cbz	r3, .L131
 428:lvgl/src/hal/lv_hal_disp.c ****             case LV_DISP_ROT_90:
 1994              		.loc 1 428 9 is_stmt 1 view .LVU624
 428:lvgl/src/hal/lv_hal_disp.c ****             case LV_DISP_ROT_90:
 1995              		.loc 1 428 20 is_stmt 0 view .LVU625
 1996 0008 1A68     		ldr	r2, [r3]
 428:lvgl/src/hal/lv_hal_disp.c ****             case LV_DISP_ROT_90:
 1997              		.loc 1 428 28 view .LVU626
 1998 000a 137C     		ldrb	r3, [r2, #16]	@ zero_extendqisi2
 1999 000c C3F30113 		ubfx	r3, r3, #4, #2
 428:lvgl/src/hal/lv_hal_disp.c ****             case LV_DISP_ROT_90:
 2000              		.loc 1 428 9 view .LVU627
 2001 0010 012B     		cmp	r3, #1
 2002 0012 0CD0     		beq	.L127
 2003 0014 032B     		cmp	r3, #3
 2004 0016 0AD0     		beq	.L127
 433:lvgl/src/hal/lv_hal_disp.c ****         }
 2005              		.loc 1 433 17 is_stmt 1 view .LVU628
 433:lvgl/src/hal/lv_hal_disp.c ****         }
 2006              		.loc 1 433 36 is_stmt 0 view .LVU629
 2007 0018 B2F90600 		ldrsh	r0, [r2, #6]
 2008              	.LVL191:
 433:lvgl/src/hal/lv_hal_disp.c ****         }
 2009              		.loc 1 433 92 view .LVU630
 2010 001c 0028     		cmp	r0, #0
 2011 001e 0ADC     		bgt	.L126
ARM GAS  C:\Users\OSD\AppData\Local\Temp\ccDD6lYO.s 			page 72


 433:lvgl/src/hal/lv_hal_disp.c ****         }
 2012              		.loc 1 433 92 discriminator 2 view .LVU631
 2013 0020 B2F90200 		ldrsh	r0, [r2, #2]
 2014 0024 07E0     		b	.L126
 2015              	.LVL192:
 2016              	.L133:
 422:lvgl/src/hal/lv_hal_disp.c **** 
 2017              		.loc 1 422 22 is_stmt 1 discriminator 1 view .LVU632
 422:lvgl/src/hal/lv_hal_disp.c **** 
 2018              		.loc 1 422 29 is_stmt 0 discriminator 1 view .LVU633
 2019 0026 FFF7FEFF 		bl	lv_disp_get_default
 2020              	.LVL193:
 422:lvgl/src/hal/lv_hal_disp.c **** 
 2021              		.loc 1 422 29 discriminator 1 view .LVU634
 2022 002a 0346     		mov	r3, r0
 2023              	.LVL194:
 422:lvgl/src/hal/lv_hal_disp.c **** 
 2024              		.loc 1 422 29 discriminator 1 view .LVU635
 2025 002c EBE7     		b	.L125
 2026              	.L127:
 431:lvgl/src/hal/lv_hal_disp.c ****             default:
 2027              		.loc 1 431 17 is_stmt 1 view .LVU636
 431:lvgl/src/hal/lv_hal_disp.c ****             default:
 2028              		.loc 1 431 36 is_stmt 0 view .LVU637
 2029 002e B2F90400 		ldrsh	r0, [r2, #4]
 2030              	.LVL195:
 431:lvgl/src/hal/lv_hal_disp.c ****             default:
 2031              		.loc 1 431 92 view .LVU638
 2032 0032 0028     		cmp	r0, #0
 2033 0034 00DD     		ble	.L134
 2034              	.L126:
 436:lvgl/src/hal/lv_hal_disp.c **** 
 2035              		.loc 1 436 1 view .LVU639
 2036 0036 08BD     		pop	{r3, pc}
 2037              	.L134:
 431:lvgl/src/hal/lv_hal_disp.c ****             default:
 2038              		.loc 1 431 92 discriminator 2 view .LVU640
 2039 0038 B2F90000 		ldrsh	r0, [r2]
 2040 003c FBE7     		b	.L126
 2041              	.LVL196:
 2042              	.L131:
 425:lvgl/src/hal/lv_hal_disp.c ****     }
 2043              		.loc 1 425 16 view .LVU641
 2044 003e 0020     		movs	r0, #0
 2045              	.LVL197:
 425:lvgl/src/hal/lv_hal_disp.c ****     }
 2046              		.loc 1 425 16 view .LVU642
 2047 0040 F9E7     		b	.L126
 2048              		.cfi_endproc
 2049              	.LFE171:
 2051              		.section	.text.lv_disp_get_offset_x,"ax",%progbits
 2052              		.align	1
 2053              		.global	lv_disp_get_offset_x
 2054              		.syntax unified
 2055              		.thumb
 2056              		.thumb_func
 2058              	lv_disp_get_offset_x:
ARM GAS  C:\Users\OSD\AppData\Local\Temp\ccDD6lYO.s 			page 73


 2059              	.LVL198:
 2060              	.LFB172:
 444:lvgl/src/hal/lv_hal_disp.c ****     if(disp == NULL) disp = lv_disp_get_default();
 2061              		.loc 1 444 1 is_stmt 1 view -0
 2062              		.cfi_startproc
 2063              		@ args = 0, pretend = 0, frame = 0
 2064              		@ frame_needed = 0, uses_anonymous_args = 0
 444:lvgl/src/hal/lv_hal_disp.c ****     if(disp == NULL) disp = lv_disp_get_default();
 2065              		.loc 1 444 1 is_stmt 0 view .LVU644
 2066 0000 10B5     		push	{r4, lr}
 2067              		.cfi_def_cfa_offset 8
 2068              		.cfi_offset 4, -8
 2069              		.cfi_offset 14, -4
 445:lvgl/src/hal/lv_hal_disp.c **** 
 2070              		.loc 1 445 5 is_stmt 1 view .LVU645
 445:lvgl/src/hal/lv_hal_disp.c **** 
 2071              		.loc 1 445 7 is_stmt 0 view .LVU646
 2072 0002 0246     		mov	r2, r0
 2073 0004 68B1     		cbz	r0, .L143
 2074              	.L136:
 447:lvgl/src/hal/lv_hal_disp.c ****         return 0;
 2075              		.loc 1 447 5 is_stmt 1 view .LVU647
 447:lvgl/src/hal/lv_hal_disp.c ****         return 0;
 2076              		.loc 1 447 7 is_stmt 0 view .LVU648
 2077 0006 1AB3     		cbz	r2, .L141
 451:lvgl/src/hal/lv_hal_disp.c ****             case LV_DISP_ROT_90:
 2078              		.loc 1 451 9 is_stmt 1 view .LVU649
 451:lvgl/src/hal/lv_hal_disp.c ****             case LV_DISP_ROT_90:
 2079              		.loc 1 451 20 is_stmt 0 view .LVU650
 2080 0008 1468     		ldr	r4, [r2]
 451:lvgl/src/hal/lv_hal_disp.c ****             case LV_DISP_ROT_90:
 2081              		.loc 1 451 28 view .LVU651
 2082 000a 237C     		ldrb	r3, [r4, #16]	@ zero_extendqisi2
 2083 000c C3F30113 		ubfx	r3, r3, #4, #2
 451:lvgl/src/hal/lv_hal_disp.c ****             case LV_DISP_ROT_90:
 2084              		.loc 1 451 9 view .LVU652
 2085 0010 022B     		cmp	r3, #2
 2086 0012 0DD0     		beq	.L138
 2087 0014 032B     		cmp	r3, #3
 2088 0016 13D0     		beq	.L139
 2089 0018 012B     		cmp	r3, #1
 2090 001a 06D0     		beq	.L144
 459:lvgl/src/hal/lv_hal_disp.c ****         }
 2091              		.loc 1 459 17 is_stmt 1 view .LVU653
 459:lvgl/src/hal/lv_hal_disp.c ****         }
 2092              		.loc 1 459 36 is_stmt 0 view .LVU654
 2093 001c B4F90800 		ldrsh	r0, [r4, #8]
 2094              	.LVL199:
 459:lvgl/src/hal/lv_hal_disp.c ****         }
 2095              		.loc 1 459 36 view .LVU655
 2096 0020 05E0     		b	.L137
 2097              	.LVL200:
 2098              	.L143:
 445:lvgl/src/hal/lv_hal_disp.c **** 
 2099              		.loc 1 445 22 is_stmt 1 discriminator 1 view .LVU656
 445:lvgl/src/hal/lv_hal_disp.c **** 
 2100              		.loc 1 445 29 is_stmt 0 discriminator 1 view .LVU657
ARM GAS  C:\Users\OSD\AppData\Local\Temp\ccDD6lYO.s 			page 74


 2101 0022 FFF7FEFF 		bl	lv_disp_get_default
 2102              	.LVL201:
 445:lvgl/src/hal/lv_hal_disp.c **** 
 2103              		.loc 1 445 29 discriminator 1 view .LVU658
 2104 0026 0246     		mov	r2, r0
 2105              	.LVL202:
 445:lvgl/src/hal/lv_hal_disp.c **** 
 2106              		.loc 1 445 29 discriminator 1 view .LVU659
 2107 0028 EDE7     		b	.L136
 2108              	.L144:
 453:lvgl/src/hal/lv_hal_disp.c ****             case LV_DISP_ROT_180:
 2109              		.loc 1 453 17 is_stmt 1 view .LVU660
 453:lvgl/src/hal/lv_hal_disp.c ****             case LV_DISP_ROT_180:
 2110              		.loc 1 453 36 is_stmt 0 view .LVU661
 2111 002a B4F90A00 		ldrsh	r0, [r4, #10]
 2112              	.LVL203:
 2113              	.L137:
 462:lvgl/src/hal/lv_hal_disp.c **** 
 2114              		.loc 1 462 1 view .LVU662
 2115 002e 10BD     		pop	{r4, pc}
 2116              	.LVL204:
 2117              	.L138:
 455:lvgl/src/hal/lv_hal_disp.c ****             case LV_DISP_ROT_270:
 2118              		.loc 1 455 17 is_stmt 1 view .LVU663
 455:lvgl/src/hal/lv_hal_disp.c ****             case LV_DISP_ROT_270:
 2119              		.loc 1 455 24 is_stmt 0 view .LVU664
 2120 0030 1046     		mov	r0, r2
 2121              	.LVL205:
 455:lvgl/src/hal/lv_hal_disp.c ****             case LV_DISP_ROT_270:
 2122              		.loc 1 455 24 view .LVU665
 2123 0032 FFF7FEFF 		bl	lv_disp_get_physical_hor_res
 2124              	.LVL206:
 455:lvgl/src/hal/lv_hal_disp.c ****             case LV_DISP_ROT_270:
 2125              		.loc 1 455 24 view .LVU666
 2126 0036 80B2     		uxth	r0, r0
 455:lvgl/src/hal/lv_hal_disp.c ****             case LV_DISP_ROT_270:
 2127              		.loc 1 455 73 view .LVU667
 2128 0038 2389     		ldrh	r3, [r4, #8]
 455:lvgl/src/hal/lv_hal_disp.c ****             case LV_DISP_ROT_270:
 2129              		.loc 1 455 59 view .LVU668
 2130 003a C01A     		subs	r0, r0, r3
 2131 003c 00B2     		sxth	r0, r0
 2132 003e F6E7     		b	.L137
 2133              	.LVL207:
 2134              	.L139:
 457:lvgl/src/hal/lv_hal_disp.c ****             default:
 2135              		.loc 1 457 17 is_stmt 1 view .LVU669
 457:lvgl/src/hal/lv_hal_disp.c ****             default:
 2136              		.loc 1 457 24 is_stmt 0 view .LVU670
 2137 0040 1046     		mov	r0, r2
 2138              	.LVL208:
 457:lvgl/src/hal/lv_hal_disp.c ****             default:
 2139              		.loc 1 457 24 view .LVU671
 2140 0042 FFF7FEFF 		bl	lv_disp_get_physical_hor_res
 2141              	.LVL209:
 457:lvgl/src/hal/lv_hal_disp.c ****             default:
 2142              		.loc 1 457 24 view .LVU672
ARM GAS  C:\Users\OSD\AppData\Local\Temp\ccDD6lYO.s 			page 75


 2143 0046 80B2     		uxth	r0, r0
 457:lvgl/src/hal/lv_hal_disp.c ****             default:
 2144              		.loc 1 457 73 view .LVU673
 2145 0048 6389     		ldrh	r3, [r4, #10]
 457:lvgl/src/hal/lv_hal_disp.c ****             default:
 2146              		.loc 1 457 59 view .LVU674
 2147 004a C01A     		subs	r0, r0, r3
 2148 004c 00B2     		sxth	r0, r0
 2149 004e EEE7     		b	.L137
 2150              	.LVL210:
 2151              	.L141:
 448:lvgl/src/hal/lv_hal_disp.c ****     }
 2152              		.loc 1 448 16 view .LVU675
 2153 0050 0020     		movs	r0, #0
 2154              	.LVL211:
 448:lvgl/src/hal/lv_hal_disp.c ****     }
 2155              		.loc 1 448 16 view .LVU676
 2156 0052 ECE7     		b	.L137
 2157              		.cfi_endproc
 2158              	.LFE172:
 2160              		.section	.text.lv_disp_get_offset_y,"ax",%progbits
 2161              		.align	1
 2162              		.global	lv_disp_get_offset_y
 2163              		.syntax unified
 2164              		.thumb
 2165              		.thumb_func
 2167              	lv_disp_get_offset_y:
 2168              	.LVL212:
 2169              	.LFB173:
 470:lvgl/src/hal/lv_hal_disp.c ****     if(disp == NULL) disp = lv_disp_get_default();
