ARM GAS  C:\Users\OSD\AppData\Local\Temp\ccQbBroK.s 			page 1


   1              		.cpu cortex-m7
   2              		.arch armv7e-m
   3              		.fpu fpv5-d16
   4              		.eabi_attribute 28, 1
   5              		.eabi_attribute 20, 1
   6              		.eabi_attribute 21, 1
   7              		.eabi_attribute 23, 3
   8              		.eabi_attribute 24, 1
   9              		.eabi_attribute 25, 1
  10              		.eabi_attribute 26, 1
  11              		.eabi_attribute 30, 1
  12              		.eabi_attribute 34, 1
  13              		.eabi_attribute 18, 4
  14              		.file	"lv_hal_tick.c"
  15              		.text
  16              	.Ltext0:
  17              		.cfi_sections	.debug_frame
  18              		.section	.text.lv_tick_inc,"ax",%progbits
  19              		.align	1
  20              		.global	lv_tick_inc
  21              		.syntax unified
  22              		.thumb
  23              		.thumb_func
  25              	lv_tick_inc:
  26              	.LVL0:
  27              	.LFB0:
  28              		.file 1 "lvgl/src/hal/lv_hal_tick.c"
   1:lvgl/src/hal/lv_hal_tick.c **** /**
   2:lvgl/src/hal/lv_hal_tick.c ****  * @file lv_hal_tick.c
   3:lvgl/src/hal/lv_hal_tick.c ****  * Provide access to the system tick with 1 millisecond resolution
   4:lvgl/src/hal/lv_hal_tick.c ****  */
   5:lvgl/src/hal/lv_hal_tick.c **** 
   6:lvgl/src/hal/lv_hal_tick.c **** /*********************
   7:lvgl/src/hal/lv_hal_tick.c ****  *      INCLUDES
   8:lvgl/src/hal/lv_hal_tick.c ****  *********************/
   9:lvgl/src/hal/lv_hal_tick.c **** #include "lv_hal_tick.h"
  10:lvgl/src/hal/lv_hal_tick.c **** #include <stddef.h>
  11:lvgl/src/hal/lv_hal_tick.c **** 
  12:lvgl/src/hal/lv_hal_tick.c **** #if LV_TICK_CUSTOM == 1
  13:lvgl/src/hal/lv_hal_tick.c ****     #include LV_TICK_CUSTOM_INCLUDE
  14:lvgl/src/hal/lv_hal_tick.c **** #endif
  15:lvgl/src/hal/lv_hal_tick.c **** 
  16:lvgl/src/hal/lv_hal_tick.c **** /*********************
  17:lvgl/src/hal/lv_hal_tick.c ****  *      DEFINES
  18:lvgl/src/hal/lv_hal_tick.c ****  *********************/
  19:lvgl/src/hal/lv_hal_tick.c **** 
  20:lvgl/src/hal/lv_hal_tick.c **** /**********************
  21:lvgl/src/hal/lv_hal_tick.c ****  *      TYPEDEFS
  22:lvgl/src/hal/lv_hal_tick.c ****  **********************/
  23:lvgl/src/hal/lv_hal_tick.c **** 
  24:lvgl/src/hal/lv_hal_tick.c **** /**********************
  25:lvgl/src/hal/lv_hal_tick.c ****  *  STATIC PROTOTYPES
  26:lvgl/src/hal/lv_hal_tick.c ****  **********************/
  27:lvgl/src/hal/lv_hal_tick.c **** 
  28:lvgl/src/hal/lv_hal_tick.c **** /**********************
  29:lvgl/src/hal/lv_hal_tick.c ****  *  STATIC VARIABLES
  30:lvgl/src/hal/lv_hal_tick.c ****  **********************/
ARM GAS  C:\Users\OSD\AppData\Local\Temp\ccQbBroK.s 			page 2


  31:lvgl/src/hal/lv_hal_tick.c **** #if !LV_TICK_CUSTOM
  32:lvgl/src/hal/lv_hal_tick.c ****     static uint32_t sys_time = 0;
  33:lvgl/src/hal/lv_hal_tick.c ****     static volatile uint8_t tick_irq_flag;
  34:lvgl/src/hal/lv_hal_tick.c **** #endif
  35:lvgl/src/hal/lv_hal_tick.c **** 
  36:lvgl/src/hal/lv_hal_tick.c **** /**********************
  37:lvgl/src/hal/lv_hal_tick.c ****  *      MACROS
  38:lvgl/src/hal/lv_hal_tick.c ****  **********************/
  39:lvgl/src/hal/lv_hal_tick.c **** 
  40:lvgl/src/hal/lv_hal_tick.c **** /**********************
  41:lvgl/src/hal/lv_hal_tick.c ****  *   GLOBAL FUNCTIONS
  42:lvgl/src/hal/lv_hal_tick.c ****  **********************/
  43:lvgl/src/hal/lv_hal_tick.c **** 
  44:lvgl/src/hal/lv_hal_tick.c **** #if !LV_TICK_CUSTOM
  45:lvgl/src/hal/lv_hal_tick.c **** /**
  46:lvgl/src/hal/lv_hal_tick.c ****  * You have to call this function periodically
  47:lvgl/src/hal/lv_hal_tick.c ****  * @param tick_period the call period of this function in milliseconds
  48:lvgl/src/hal/lv_hal_tick.c ****  */
  49:lvgl/src/hal/lv_hal_tick.c **** void LV_ATTRIBUTE_TICK_INC lv_tick_inc(uint32_t tick_period)
  50:lvgl/src/hal/lv_hal_tick.c **** {
  29              		.loc 1 50 1 view -0
  30              		.cfi_startproc
  31              		@ args = 0, pretend = 0, frame = 0
  32              		@ frame_needed = 0, uses_anonymous_args = 0
  33              		@ link register save eliminated.
  51:lvgl/src/hal/lv_hal_tick.c ****     tick_irq_flag = 0;
  34              		.loc 1 51 5 view .LVU1
  35              		.loc 1 51 19 is_stmt 0 view .LVU2
  36 0000 034B     		ldr	r3, .L2
  37 0002 0022     		movs	r2, #0
  38 0004 1A70     		strb	r2, [r3]
  52:lvgl/src/hal/lv_hal_tick.c ****     sys_time += tick_period;
  39              		.loc 1 52 5 is_stmt 1 view .LVU3
  40              		.loc 1 52 14 is_stmt 0 view .LVU4
  41 0006 034A     		ldr	r2, .L2+4
  42 0008 1368     		ldr	r3, [r2]
  43 000a 0344     		add	r3, r3, r0
  44 000c 1360     		str	r3, [r2]
  53:lvgl/src/hal/lv_hal_tick.c **** }
  45              		.loc 1 53 1 view .LVU5
  46 000e 7047     		bx	lr
  47              	.L3:
  48              		.align	2
  49              	.L2:
  50 0010 00000000 		.word	.LANCHOR0
  51 0014 00000000 		.word	.LANCHOR1
  52              		.cfi_endproc
  53              	.LFE0:
  55              		.section	.text.lv_tick_get,"ax",%progbits
  56              		.align	1
  57              		.global	lv_tick_get
  58              		.syntax unified
  59              		.thumb
  60              		.thumb_func
  62              	lv_tick_get:
  63              	.LFB1:
  54:lvgl/src/hal/lv_hal_tick.c **** #endif
ARM GAS  C:\Users\OSD\AppData\Local\Temp\ccQbBroK.s 			page 3


  55:lvgl/src/hal/lv_hal_tick.c **** 
  56:lvgl/src/hal/lv_hal_tick.c **** /**
  57:lvgl/src/hal/lv_hal_tick.c ****  * Get the elapsed milliseconds since start up
  58:lvgl/src/hal/lv_hal_tick.c ****  * @return the elapsed milliseconds
  59:lvgl/src/hal/lv_hal_tick.c ****  */
  60:lvgl/src/hal/lv_hal_tick.c **** uint32_t lv_tick_get(void)
  61:lvgl/src/hal/lv_hal_tick.c **** {
  64              		.loc 1 61 1 is_stmt 1 view -0
  65              		.cfi_startproc
  66              		@ args = 0, pretend = 0, frame = 0
  67              		@ frame_needed = 0, uses_anonymous_args = 0
  68              		@ link register save eliminated.
  69              	.L5:
  62:lvgl/src/hal/lv_hal_tick.c **** #if LV_TICK_CUSTOM == 0
  63:lvgl/src/hal/lv_hal_tick.c **** 
  64:lvgl/src/hal/lv_hal_tick.c ****     /*If `lv_tick_inc` is called from an interrupt while `sys_time` is read
  65:lvgl/src/hal/lv_hal_tick.c ****      *the result might be corrupted.
  66:lvgl/src/hal/lv_hal_tick.c ****      *This loop detects if `lv_tick_inc` was called while reading `sys_time`.
  67:lvgl/src/hal/lv_hal_tick.c ****      *If `tick_irq_flag` was cleared in `lv_tick_inc` try to read again
  68:lvgl/src/hal/lv_hal_tick.c ****      *until `tick_irq_flag` remains `1`.*/
  69:lvgl/src/hal/lv_hal_tick.c ****     uint32_t result;
  70              		.loc 1 69 5 discriminator 1 view .LVU7
  70:lvgl/src/hal/lv_hal_tick.c ****     do {
  71              		.loc 1 70 5 discriminator 1 view .LVU8
  71:lvgl/src/hal/lv_hal_tick.c ****         tick_irq_flag = 1;
  72              		.loc 1 71 9 discriminator 1 view .LVU9
  73              		.loc 1 71 23 is_stmt 0 discriminator 1 view .LVU10
  74 0000 044B     		ldr	r3, .L6
  75 0002 0122     		movs	r2, #1
  76 0004 1A70     		strb	r2, [r3]
  72:lvgl/src/hal/lv_hal_tick.c ****         result        = sys_time;
  77              		.loc 1 72 9 is_stmt 1 discriminator 1 view .LVU11
  78              		.loc 1 72 23 is_stmt 0 discriminator 1 view .LVU12
  79 0006 044A     		ldr	r2, .L6+4
  80 0008 1068     		ldr	r0, [r2]
  81              	.LVL1:
  73:lvgl/src/hal/lv_hal_tick.c ****     } while(!tick_irq_flag); /*Continue until see a non interrupted cycle*/
  82              		.loc 1 73 12 is_stmt 1 discriminator 1 view .LVU13
  83              		.loc 1 73 13 is_stmt 0 discriminator 1 view .LVU14
  84 000a 1B78     		ldrb	r3, [r3]	@ zero_extendqisi2
  85              		.loc 1 73 5 discriminator 1 view .LVU15
  86 000c 002B     		cmp	r3, #0
  87 000e F7D0     		beq	.L5
  74:lvgl/src/hal/lv_hal_tick.c **** 
  75:lvgl/src/hal/lv_hal_tick.c ****     return result;
  88              		.loc 1 75 5 is_stmt 1 view .LVU16
  76:lvgl/src/hal/lv_hal_tick.c **** #else
  77:lvgl/src/hal/lv_hal_tick.c ****     return LV_TICK_CUSTOM_SYS_TIME_EXPR;
  78:lvgl/src/hal/lv_hal_tick.c **** #endif
  79:lvgl/src/hal/lv_hal_tick.c **** }
  89              		.loc 1 79 1 is_stmt 0 view .LVU17
  90 0010 7047     		bx	lr
  91              	.L7:
  92 0012 00BF     		.align	2
  93              	.L6:
  94 0014 00000000 		.word	.LANCHOR0
  95 0018 00000000 		.word	.LANCHOR1
ARM GAS  C:\Users\OSD\AppData\Local\Temp\ccQbBroK.s 			page 4


  96              		.cfi_endproc
  97              	.LFE1:
  99              		.section	.text.lv_tick_elaps,"ax",%progbits
 100              		.align	1
 101              		.global	lv_tick_elaps
 102              		.syntax unified
 103              		.thumb
 104              		.thumb_func
 106              	lv_tick_elaps:
 107              	.LVL2:
 108              	.LFB2:
  80:lvgl/src/hal/lv_hal_tick.c **** 
  81:lvgl/src/hal/lv_hal_tick.c **** /**
  82:lvgl/src/hal/lv_hal_tick.c ****  * Get the elapsed milliseconds since a previous time stamp
  83:lvgl/src/hal/lv_hal_tick.c ****  * @param prev_tick a previous time stamp (return value of lv_tick_get() )
  84:lvgl/src/hal/lv_hal_tick.c ****  * @return the elapsed milliseconds since 'prev_tick'
  85:lvgl/src/hal/lv_hal_tick.c ****  */
  86:lvgl/src/hal/lv_hal_tick.c **** uint32_t lv_tick_elaps(uint32_t prev_tick)
  87:lvgl/src/hal/lv_hal_tick.c **** {
 109              		.loc 1 87 1 is_stmt 1 view -0
 110              		.cfi_startproc
 111              		@ args = 0, pretend = 0, frame = 0
 112              		@ frame_needed = 0, uses_anonymous_args = 0
 113              		.loc 1 87 1 is_stmt 0 view .LVU19
 114 0000 10B5     		push	{r4, lr}
 115              		.cfi_def_cfa_offset 8
 116              		.cfi_offset 4, -8
 117              		.cfi_offset 14, -4
 118 0002 0446     		mov	r4, r0
  88:lvgl/src/hal/lv_hal_tick.c ****     uint32_t act_time = lv_tick_get();
 119              		.loc 1 88 5 is_stmt 1 view .LVU20
 120              		.loc 1 88 25 is_stmt 0 view .LVU21
 121 0004 FFF7FEFF 		bl	lv_tick_get
 122              	.LVL3:
  89:lvgl/src/hal/lv_hal_tick.c **** 
  90:lvgl/src/hal/lv_hal_tick.c ****     /*If there is no overflow in sys_time simple subtract*/
  91:lvgl/src/hal/lv_hal_tick.c ****     if(act_time >= prev_tick) {
 123              		.loc 1 91 5 is_stmt 1 view .LVU22
 124              		.loc 1 91 7 is_stmt 0 view .LVU23
 125 0008 A042     		cmp	r0, r4
 126 000a 01D3     		bcc	.L9
  92:lvgl/src/hal/lv_hal_tick.c ****         prev_tick = act_time - prev_tick;
 127              		.loc 1 92 9 is_stmt 1 view .LVU24
 128              		.loc 1 92 19 is_stmt 0 view .LVU25
 129 000c 001B     		subs	r0, r0, r4
 130              	.LVL4:
 131              	.L8:
  93:lvgl/src/hal/lv_hal_tick.c ****     }
  94:lvgl/src/hal/lv_hal_tick.c ****     else {
  95:lvgl/src/hal/lv_hal_tick.c ****         prev_tick = UINT32_MAX - prev_tick + 1;
  96:lvgl/src/hal/lv_hal_tick.c ****         prev_tick += act_time;
  97:lvgl/src/hal/lv_hal_tick.c ****     }
  98:lvgl/src/hal/lv_hal_tick.c **** 
  99:lvgl/src/hal/lv_hal_tick.c ****     return prev_tick;
 100:lvgl/src/hal/lv_hal_tick.c **** }
 132              		.loc 1 100 1 view .LVU26
 133 000e 10BD     		pop	{r4, pc}
ARM GAS  C:\Users\OSD\AppData\Local\Temp\ccQbBroK.s 			page 5


 134              	.LVL5:
 135              	.L9:
  95:lvgl/src/hal/lv_hal_tick.c ****         prev_tick += act_time;
 136              		.loc 1 95 9 is_stmt 1 view .LVU27
  96:lvgl/src/hal/lv_hal_tick.c ****     }
 137              		.loc 1 96 9 view .LVU28
 138 0010 001B     		subs	r0, r0, r4
 139              	.LVL6:
  99:lvgl/src/hal/lv_hal_tick.c **** }
 140              		.loc 1 99 5 view .LVU29
  99:lvgl/src/hal/lv_hal_tick.c **** }
 141              		.loc 1 99 12 is_stmt 0 view .LVU30
 142 0012 FCE7     		b	.L8
 143              		.cfi_endproc
 144              	.LFE2:
 146              		.section	.bss.sys_time,"aw",%nobits
 147              		.align	2
 148              		.set	.LANCHOR1,. + 0
 151              	sys_time:
 152 0000 00000000 		.space	4
 153              		.section	.bss.tick_irq_flag,"aw",%nobits
 154              		.set	.LANCHOR0,. + 0
 157              	tick_irq_flag:
 158 0000 00       		.space	1
 159              		.text
 160              	.Letext0:
 161              		.file 2 "c:\\tools\\gcc-arm-none-eabi\\arm-none-eabi\\include\\machine\\_default_types.h"
 162              		.file 3 "c:\\tools\\gcc-arm-none-eabi\\arm-none-eabi\\include\\sys\\_stdint.h"
ARM GAS  C:\Users\OSD\AppData\Local\Temp\ccQbBroK.s 			page 6

