ARM GAS  C:\Users\OSD\AppData\Local\Temp\cc2Tckh0.s 			page 1


   1              		.cpu cortex-m7
   2              		.arch armv7e-m
   3              		.fpu fpv5-d16
   4              		.eabi_attribute 28, 1
   5              		.eabi_attribute 20, 1
   6              		.eabi_attribute 21, 1
   7              		.eabi_attribute 23, 3
   8              		.eabi_attribute 24, 1
   9              		.eabi_attribute 25, 1
  10              		.eabi_attribute 26, 1
  11              		.eabi_attribute 30, 1
  12              		.eabi_attribute 34, 1
  13              		.eabi_attribute 18, 4
  14              		.file	"lv_img_cache.c"
  15              		.text
  16              	.Ltext0:
  17              		.cfi_sections	.debug_frame
  18              		.section	.text._lv_img_cache_open,"ax",%progbits
  19              		.align	1
  20              		.global	_lv_img_cache_open
  21              		.syntax unified
  22              		.thumb
  23              		.thumb_func
  25              	_lv_img_cache_open:
  26              	.LVL0:
  27              	.LFB56:
  28              		.file 1 "lvgl/src/draw/lv_img_cache.c"
   1:lvgl/src/draw/lv_img_cache.c **** /**
   2:lvgl/src/draw/lv_img_cache.c ****  * @file lv_img_cache.c
   3:lvgl/src/draw/lv_img_cache.c ****  *
   4:lvgl/src/draw/lv_img_cache.c ****  */
   5:lvgl/src/draw/lv_img_cache.c **** 
   6:lvgl/src/draw/lv_img_cache.c **** /*********************
   7:lvgl/src/draw/lv_img_cache.c ****  *      INCLUDES
   8:lvgl/src/draw/lv_img_cache.c ****  *********************/
   9:lvgl/src/draw/lv_img_cache.c **** #include "../misc/lv_assert.h"
  10:lvgl/src/draw/lv_img_cache.c **** #include "lv_img_cache.h"
  11:lvgl/src/draw/lv_img_cache.c **** #include "lv_img_decoder.h"
  12:lvgl/src/draw/lv_img_cache.c **** #include "lv_draw_img.h"
  13:lvgl/src/draw/lv_img_cache.c **** #include "../hal/lv_hal_tick.h"
  14:lvgl/src/draw/lv_img_cache.c **** #include "../misc/lv_gc.h"
  15:lvgl/src/draw/lv_img_cache.c **** 
  16:lvgl/src/draw/lv_img_cache.c **** /*********************
  17:lvgl/src/draw/lv_img_cache.c ****  *      DEFINES
  18:lvgl/src/draw/lv_img_cache.c ****  *********************/
  19:lvgl/src/draw/lv_img_cache.c **** /*Decrement life with this value on every open*/
  20:lvgl/src/draw/lv_img_cache.c **** #define LV_IMG_CACHE_AGING 1
  21:lvgl/src/draw/lv_img_cache.c **** 
  22:lvgl/src/draw/lv_img_cache.c **** /*Boost life by this factor (multiply time_to_open with this value)*/
  23:lvgl/src/draw/lv_img_cache.c **** #define LV_IMG_CACHE_LIFE_GAIN 1
  24:lvgl/src/draw/lv_img_cache.c **** 
  25:lvgl/src/draw/lv_img_cache.c **** /*Don't let life to be greater than this limit because it would require a lot of time to
  26:lvgl/src/draw/lv_img_cache.c ****  * "die" from very high values*/
  27:lvgl/src/draw/lv_img_cache.c **** #define LV_IMG_CACHE_LIFE_LIMIT 1000
  28:lvgl/src/draw/lv_img_cache.c **** 
  29:lvgl/src/draw/lv_img_cache.c **** /**********************
  30:lvgl/src/draw/lv_img_cache.c ****  *      TYPEDEFS
ARM GAS  C:\Users\OSD\AppData\Local\Temp\cc2Tckh0.s 			page 2


  31:lvgl/src/draw/lv_img_cache.c ****  **********************/
  32:lvgl/src/draw/lv_img_cache.c **** 
  33:lvgl/src/draw/lv_img_cache.c **** /**********************
  34:lvgl/src/draw/lv_img_cache.c ****  *  STATIC PROTOTYPES
  35:lvgl/src/draw/lv_img_cache.c ****  **********************/
  36:lvgl/src/draw/lv_img_cache.c **** #if LV_IMG_CACHE_DEF_SIZE
  37:lvgl/src/draw/lv_img_cache.c ****     static bool lv_img_cache_match(const void * src1, const void * src2);
  38:lvgl/src/draw/lv_img_cache.c **** #endif
  39:lvgl/src/draw/lv_img_cache.c **** 
  40:lvgl/src/draw/lv_img_cache.c **** /**********************
  41:lvgl/src/draw/lv_img_cache.c ****  *  STATIC VARIABLES
  42:lvgl/src/draw/lv_img_cache.c ****  **********************/
  43:lvgl/src/draw/lv_img_cache.c **** #if LV_IMG_CACHE_DEF_SIZE
  44:lvgl/src/draw/lv_img_cache.c ****     static uint16_t entry_cnt;
  45:lvgl/src/draw/lv_img_cache.c **** #endif
  46:lvgl/src/draw/lv_img_cache.c **** 
  47:lvgl/src/draw/lv_img_cache.c **** /**********************
  48:lvgl/src/draw/lv_img_cache.c ****  *      MACROS
  49:lvgl/src/draw/lv_img_cache.c ****  **********************/
  50:lvgl/src/draw/lv_img_cache.c **** 
  51:lvgl/src/draw/lv_img_cache.c **** /**********************
  52:lvgl/src/draw/lv_img_cache.c ****  *   GLOBAL FUNCTIONS
  53:lvgl/src/draw/lv_img_cache.c ****  **********************/
  54:lvgl/src/draw/lv_img_cache.c **** 
  55:lvgl/src/draw/lv_img_cache.c **** /**
  56:lvgl/src/draw/lv_img_cache.c ****  * Open an image using the image decoder interface and cache it.
  57:lvgl/src/draw/lv_img_cache.c ****  * The image will be left open meaning if the image decoder open callback allocated memory then it 
  58:lvgl/src/draw/lv_img_cache.c ****  * The image is closed if a new image is opened and the new image takes its place in the cache.
  59:lvgl/src/draw/lv_img_cache.c ****  * @param src source of the image. Path to file or pointer to an `lv_img_dsc_t` variable
  60:lvgl/src/draw/lv_img_cache.c ****  * @param color color The color of the image with `LV_IMG_CF_ALPHA_...`
  61:lvgl/src/draw/lv_img_cache.c ****  * @return pointer to the cache entry or NULL if can open the image
  62:lvgl/src/draw/lv_img_cache.c ****  */
  63:lvgl/src/draw/lv_img_cache.c **** _lv_img_cache_entry_t * _lv_img_cache_open(const void * src, lv_color_t color, int32_t frame_id)
  64:lvgl/src/draw/lv_img_cache.c **** {
  29              		.loc 1 64 1 view -0
  30              		.cfi_startproc
  31              		@ args = 0, pretend = 0, frame = 0
  32              		@ frame_needed = 0, uses_anonymous_args = 0
  33              		.loc 1 64 1 is_stmt 0 view .LVU1
  34 0000 F8B5     		push	{r3, r4, r5, r6, r7, lr}
  35              		.cfi_def_cfa_offset 24
  36              		.cfi_offset 3, -24
  37              		.cfi_offset 4, -20
  38              		.cfi_offset 5, -16
  39              		.cfi_offset 6, -12
  40              		.cfi_offset 7, -8
  41              		.cfi_offset 14, -4
  42 0002 0446     		mov	r4, r0
  43 0004 0D46     		mov	r5, r1
  44              	.LVL1:
  45              		.loc 1 64 1 view .LVU2
  46 0006 1646     		mov	r6, r2
  65:lvgl/src/draw/lv_img_cache.c ****     /*Is the image cached?*/
  66:lvgl/src/draw/lv_img_cache.c ****     _lv_img_cache_entry_t * cached_src = NULL;
  47              		.loc 1 66 5 is_stmt 1 view .LVU3
  48              	.LVL2:
  67:lvgl/src/draw/lv_img_cache.c **** 
ARM GAS  C:\Users\OSD\AppData\Local\Temp\cc2Tckh0.s 			page 3


  68:lvgl/src/draw/lv_img_cache.c **** #if LV_IMG_CACHE_DEF_SIZE
  69:lvgl/src/draw/lv_img_cache.c ****     if(entry_cnt == 0) {
  70:lvgl/src/draw/lv_img_cache.c ****         LV_LOG_WARN("lv_img_cache_open: the cache size is 0");
  71:lvgl/src/draw/lv_img_cache.c ****         return NULL;
  72:lvgl/src/draw/lv_img_cache.c ****     }
  73:lvgl/src/draw/lv_img_cache.c **** 
  74:lvgl/src/draw/lv_img_cache.c ****     _lv_img_cache_entry_t * cache = LV_GC_ROOT(_lv_img_cache_array);
  75:lvgl/src/draw/lv_img_cache.c **** 
  76:lvgl/src/draw/lv_img_cache.c ****     /*Decrement all lifes. Make the entries older*/
  77:lvgl/src/draw/lv_img_cache.c ****     uint16_t i;
  78:lvgl/src/draw/lv_img_cache.c ****     for(i = 0; i < entry_cnt; i++) {
  79:lvgl/src/draw/lv_img_cache.c ****         if(cache[i].life > INT32_MIN + LV_IMG_CACHE_AGING) {
  80:lvgl/src/draw/lv_img_cache.c ****             cache[i].life -= LV_IMG_CACHE_AGING;
  81:lvgl/src/draw/lv_img_cache.c ****         }
  82:lvgl/src/draw/lv_img_cache.c ****     }
  83:lvgl/src/draw/lv_img_cache.c **** 
  84:lvgl/src/draw/lv_img_cache.c ****     for(i = 0; i < entry_cnt; i++) {
  85:lvgl/src/draw/lv_img_cache.c ****         if(color.full == cache[i].dec_dsc.color.full &&
  86:lvgl/src/draw/lv_img_cache.c ****            frame_id == cache[i].dec_dsc.frame_id &&
  87:lvgl/src/draw/lv_img_cache.c ****            lv_img_cache_match(src, cache[i].dec_dsc.src)) {
  88:lvgl/src/draw/lv_img_cache.c ****             /*If opened increment its life.
  89:lvgl/src/draw/lv_img_cache.c ****              *Image difficult to open should live longer to keep avoid frequent their recaching.
  90:lvgl/src/draw/lv_img_cache.c ****              *Therefore increase `life` with `time_to_open`*/
  91:lvgl/src/draw/lv_img_cache.c ****             cached_src = &cache[i];
  92:lvgl/src/draw/lv_img_cache.c ****             cached_src->life += cached_src->dec_dsc.time_to_open * LV_IMG_CACHE_LIFE_GAIN;
  93:lvgl/src/draw/lv_img_cache.c ****             if(cached_src->life > LV_IMG_CACHE_LIFE_LIMIT) cached_src->life = LV_IMG_CACHE_LIFE_LIM
  94:lvgl/src/draw/lv_img_cache.c ****             LV_LOG_TRACE("image source found in the cache");
  95:lvgl/src/draw/lv_img_cache.c ****             break;
  96:lvgl/src/draw/lv_img_cache.c ****         }
  97:lvgl/src/draw/lv_img_cache.c ****     }
  98:lvgl/src/draw/lv_img_cache.c **** 
  99:lvgl/src/draw/lv_img_cache.c ****     /*The image is not cached then cache it now*/
 100:lvgl/src/draw/lv_img_cache.c ****     if(cached_src) return cached_src;
 101:lvgl/src/draw/lv_img_cache.c **** 
 102:lvgl/src/draw/lv_img_cache.c ****     /*Find an entry to reuse. Select the entry with the least life*/
 103:lvgl/src/draw/lv_img_cache.c ****     cached_src = &cache[0];
 104:lvgl/src/draw/lv_img_cache.c ****     for(i = 1; i < entry_cnt; i++) {
 105:lvgl/src/draw/lv_img_cache.c ****         if(cache[i].life < cached_src->life) {
 106:lvgl/src/draw/lv_img_cache.c ****             cached_src = &cache[i];
 107:lvgl/src/draw/lv_img_cache.c ****         }
 108:lvgl/src/draw/lv_img_cache.c ****     }
 109:lvgl/src/draw/lv_img_cache.c **** 
 110:lvgl/src/draw/lv_img_cache.c ****     /*Close the decoder to reuse if it was opened (has a valid source)*/
 111:lvgl/src/draw/lv_img_cache.c ****     if(cached_src->dec_dsc.src) {
 112:lvgl/src/draw/lv_img_cache.c ****         lv_img_decoder_close(&cached_src->dec_dsc);
 113:lvgl/src/draw/lv_img_cache.c ****         LV_LOG_INFO("image draw: cache miss, close and reuse an entry");
 114:lvgl/src/draw/lv_img_cache.c ****     }
 115:lvgl/src/draw/lv_img_cache.c ****     else {
 116:lvgl/src/draw/lv_img_cache.c ****         LV_LOG_INFO("image draw: cache miss, cached to an empty entry");
 117:lvgl/src/draw/lv_img_cache.c ****     }
 118:lvgl/src/draw/lv_img_cache.c **** #else
 119:lvgl/src/draw/lv_img_cache.c ****     cached_src = &LV_GC_ROOT(_lv_img_cache_single);
  49              		.loc 1 119 5 view .LVU4
 120:lvgl/src/draw/lv_img_cache.c **** #endif
 121:lvgl/src/draw/lv_img_cache.c ****     /*Open the image and measure the time to open*/
 122:lvgl/src/draw/lv_img_cache.c ****     uint32_t t_start  = lv_tick_get();
  50              		.loc 1 122 5 view .LVU5
ARM GAS  C:\Users\OSD\AppData\Local\Temp\cc2Tckh0.s 			page 4


  51              		.loc 1 122 25 is_stmt 0 view .LVU6
  52 0008 FFF7FEFF 		bl	lv_tick_get
  53              	.LVL3:
  54              		.loc 1 122 25 view .LVU7
  55 000c 0746     		mov	r7, r0
  56              	.LVL4:
 123:lvgl/src/draw/lv_img_cache.c ****     lv_res_t open_res = lv_img_decoder_open(&cached_src->dec_dsc, src, color, frame_id);
  57              		.loc 1 123 5 is_stmt 1 view .LVU8
  58              		.loc 1 123 25 is_stmt 0 view .LVU9
  59 000e 3346     		mov	r3, r6
  60              	.LVL5:
  61              		.loc 1 123 25 view .LVU10
  62 0010 2A46     		mov	r2, r5
  63 0012 2146     		mov	r1, r4
  64 0014 1048     		ldr	r0, .L9
  65              	.LVL6:
  66              		.loc 1 123 25 view .LVU11
  67 0016 FFF7FEFF 		bl	lv_img_decoder_open
  68              	.LVL7:
 124:lvgl/src/draw/lv_img_cache.c ****     if(open_res == LV_RES_INV) {
  69              		.loc 1 124 5 is_stmt 1 view .LVU12
  70              		.loc 1 124 7 is_stmt 0 view .LVU13
  71 001a 58B1     		cbz	r0, .L7
 125:lvgl/src/draw/lv_img_cache.c ****         LV_LOG_WARN("Image draw cannot open the image resource");
 126:lvgl/src/draw/lv_img_cache.c ****         lv_memset_00(cached_src, sizeof(_lv_img_cache_entry_t));
 127:lvgl/src/draw/lv_img_cache.c ****         cached_src->life = INT32_MIN; /*Make the empty entry very "weak" to force its us*/
 128:lvgl/src/draw/lv_img_cache.c ****         return NULL;
 129:lvgl/src/draw/lv_img_cache.c ****     }
 130:lvgl/src/draw/lv_img_cache.c **** 
 131:lvgl/src/draw/lv_img_cache.c ****     cached_src->life = 0;
  72              		.loc 1 131 5 is_stmt 1 view .LVU14
  73              		.loc 1 131 22 is_stmt 0 view .LVU15
  74 001c 0E4B     		ldr	r3, .L9
  75 001e 0022     		movs	r2, #0
  76 0020 9A62     		str	r2, [r3, #40]
 132:lvgl/src/draw/lv_img_cache.c **** 
 133:lvgl/src/draw/lv_img_cache.c ****     /*If `time_to_open` was not set in the open function set it here*/
 134:lvgl/src/draw/lv_img_cache.c ****     if(cached_src->dec_dsc.time_to_open == 0) {
  77              		.loc 1 134 5 is_stmt 1 view .LVU16
  78              		.loc 1 134 27 is_stmt 0 view .LVU17
  79 0022 DB69     		ldr	r3, [r3, #28]
  80              		.loc 1 134 7 view .LVU18
  81 0024 83B1     		cbz	r3, .L8
  82              	.LVL8:
  83              	.L4:
 135:lvgl/src/draw/lv_img_cache.c ****         cached_src->dec_dsc.time_to_open = lv_tick_elaps(t_start);
 136:lvgl/src/draw/lv_img_cache.c ****     }
 137:lvgl/src/draw/lv_img_cache.c **** 
 138:lvgl/src/draw/lv_img_cache.c ****     if(cached_src->dec_dsc.time_to_open == 0) cached_src->dec_dsc.time_to_open = 1;
  84              		.loc 1 138 5 is_stmt 1 view .LVU19
  85              		.loc 1 138 27 is_stmt 0 view .LVU20
  86 0026 0C4B     		ldr	r3, .L9
  87 0028 DB69     		ldr	r3, [r3, #28]
  88              		.loc 1 138 7 view .LVU21
  89 002a 9BB9     		cbnz	r3, .L5
  90              		.loc 1 138 47 is_stmt 1 discriminator 1 view .LVU22
  91              		.loc 1 138 80 is_stmt 0 discriminator 1 view .LVU23
ARM GAS  C:\Users\OSD\AppData\Local\Temp\cc2Tckh0.s 			page 5


  92 002c 0A48     		ldr	r0, .L9
  93 002e 0123     		movs	r3, #1
  94 0030 C361     		str	r3, [r0, #28]
  95              	.LVL9:
  96              	.L1:
 139:lvgl/src/draw/lv_img_cache.c **** 
 140:lvgl/src/draw/lv_img_cache.c ****     return cached_src;
 141:lvgl/src/draw/lv_img_cache.c **** }
  97              		.loc 1 141 1 view .LVU24
  98 0032 F8BD     		pop	{r3, r4, r5, r6, r7, pc}
  99              	.LVL10:
 100              	.L7:
 125:lvgl/src/draw/lv_img_cache.c ****         lv_memset_00(cached_src, sizeof(_lv_img_cache_entry_t));
 101              		.loc 1 125 9 is_stmt 1 view .LVU25
 125:lvgl/src/draw/lv_img_cache.c ****         lv_memset_00(cached_src, sizeof(_lv_img_cache_entry_t));
 102              		.loc 1 125 9 view .LVU26
 125:lvgl/src/draw/lv_img_cache.c ****         lv_memset_00(cached_src, sizeof(_lv_img_cache_entry_t));
 103              		.loc 1 125 9 view .LVU27
 126:lvgl/src/draw/lv_img_cache.c ****         cached_src->life = INT32_MIN; /*Make the empty entry very "weak" to force its us*/
 104              		.loc 1 126 9 view .LVU28
 105 0034 084C     		ldr	r4, .L9
 106              	.LVL11:
 126:lvgl/src/draw/lv_img_cache.c ****         cached_src->life = INT32_MIN; /*Make the empty entry very "weak" to force its us*/
 107              		.loc 1 126 9 is_stmt 0 view .LVU29
 108 0036 2C21     		movs	r1, #44
 109 0038 2046     		mov	r0, r4
 110              	.LVL12:
 126:lvgl/src/draw/lv_img_cache.c ****         cached_src->life = INT32_MIN; /*Make the empty entry very "weak" to force its us*/
 111              		.loc 1 126 9 view .LVU30
 112 003a FFF7FEFF 		bl	lv_memset_00
 113              	.LVL13:
 127:lvgl/src/draw/lv_img_cache.c ****         return NULL;
 114              		.loc 1 127 9 is_stmt 1 view .LVU31
 127:lvgl/src/draw/lv_img_cache.c ****         return NULL;
 115              		.loc 1 127 26 is_stmt 0 view .LVU32
 116 003e 4FF00043 		mov	r3, #-2147483648
 117 0042 A362     		str	r3, [r4, #40]
 128:lvgl/src/draw/lv_img_cache.c ****     }
 118              		.loc 1 128 9 is_stmt 1 view .LVU33
 128:lvgl/src/draw/lv_img_cache.c ****     }
 119              		.loc 1 128 16 is_stmt 0 view .LVU34
 120 0044 0020     		movs	r0, #0
 121 0046 F4E7     		b	.L1
 122              	.LVL14:
 123              	.L8:
 135:lvgl/src/draw/lv_img_cache.c ****     }
 124              		.loc 1 135 9 is_stmt 1 view .LVU35
 135:lvgl/src/draw/lv_img_cache.c ****     }
 125              		.loc 1 135 44 is_stmt 0 view .LVU36
 126 0048 3846     		mov	r0, r7
 127              	.LVL15:
 135:lvgl/src/draw/lv_img_cache.c ****     }
 128              		.loc 1 135 44 view .LVU37
 129 004a FFF7FEFF 		bl	lv_tick_elaps
 130              	.LVL16:
 135:lvgl/src/draw/lv_img_cache.c ****     }
 131              		.loc 1 135 42 view .LVU38
ARM GAS  C:\Users\OSD\AppData\Local\Temp\cc2Tckh0.s 			page 6


 132 004e 024B     		ldr	r3, .L9
 133 0050 D861     		str	r0, [r3, #28]
 134 0052 E8E7     		b	.L4
 135              	.L5:
 140:lvgl/src/draw/lv_img_cache.c **** }
 136              		.loc 1 140 12 view .LVU39
 137 0054 0048     		ldr	r0, .L9
 138 0056 ECE7     		b	.L1
 139              	.L10:
 140              		.align	2
 141              	.L9:
 142 0058 00000000 		.word	_lv_img_cache_single
 143              		.cfi_endproc
 144              	.LFE56:
 146              		.section	.text.lv_img_cache_set_size,"ax",%progbits
 147              		.align	1
 148              		.global	lv_img_cache_set_size
 149              		.syntax unified
 150              		.thumb
 151              		.thumb_func
 153              	lv_img_cache_set_size:
 154              	.LVL17:
 155              	.LFB57:
 142:lvgl/src/draw/lv_img_cache.c **** 
 143:lvgl/src/draw/lv_img_cache.c **** /**
 144:lvgl/src/draw/lv_img_cache.c ****  * Set the number of images to be cached.
 145:lvgl/src/draw/lv_img_cache.c ****  * More cached images mean more opened image at same time which might mean more memory usage.
 146:lvgl/src/draw/lv_img_cache.c ****  * E.g. if 20 PNG or JPG images are open in the RAM they consume memory while opened in the cache.
 147:lvgl/src/draw/lv_img_cache.c ****  * @param new_entry_cnt number of image to cache
 148:lvgl/src/draw/lv_img_cache.c ****  */
 149:lvgl/src/draw/lv_img_cache.c **** void lv_img_cache_set_size(uint16_t new_entry_cnt)
 150:lvgl/src/draw/lv_img_cache.c **** {
 156              		.loc 1 150 1 is_stmt 1 view -0
 157              		.cfi_startproc
 158              		@ args = 0, pretend = 0, frame = 0
 159              		@ frame_needed = 0, uses_anonymous_args = 0
 160              		@ link register save eliminated.
 151:lvgl/src/draw/lv_img_cache.c **** #if LV_IMG_CACHE_DEF_SIZE == 0
 152:lvgl/src/draw/lv_img_cache.c ****     LV_UNUSED(new_entry_cnt);
 161              		.loc 1 152 5 view .LVU41
 153:lvgl/src/draw/lv_img_cache.c ****     LV_LOG_WARN("Can't change cache size because it's disabled by LV_IMG_CACHE_DEF_SIZE = 0");
 162              		.loc 1 153 5 view .LVU42
 163              		.loc 1 153 5 view .LVU43
 164              		.loc 1 153 5 view .LVU44
 154:lvgl/src/draw/lv_img_cache.c **** #else
 155:lvgl/src/draw/lv_img_cache.c ****     if(LV_GC_ROOT(_lv_img_cache_array) != NULL) {
 156:lvgl/src/draw/lv_img_cache.c ****         /*Clean the cache before free it*/
 157:lvgl/src/draw/lv_img_cache.c ****         lv_img_cache_invalidate_src(NULL);
 158:lvgl/src/draw/lv_img_cache.c ****         lv_mem_free(LV_GC_ROOT(_lv_img_cache_array));
 159:lvgl/src/draw/lv_img_cache.c ****     }
 160:lvgl/src/draw/lv_img_cache.c **** 
 161:lvgl/src/draw/lv_img_cache.c ****     /*Reallocate the cache*/
 162:lvgl/src/draw/lv_img_cache.c ****     LV_GC_ROOT(_lv_img_cache_array) = lv_mem_alloc(sizeof(_lv_img_cache_entry_t) * new_entry_cnt);
 163:lvgl/src/draw/lv_img_cache.c ****     LV_ASSERT_MALLOC(LV_GC_ROOT(_lv_img_cache_array));
 164:lvgl/src/draw/lv_img_cache.c ****     if(LV_GC_ROOT(_lv_img_cache_array) == NULL) {
 165:lvgl/src/draw/lv_img_cache.c ****         entry_cnt = 0;
 166:lvgl/src/draw/lv_img_cache.c ****         return;
ARM GAS  C:\Users\OSD\AppData\Local\Temp\cc2Tckh0.s 			page 7


 167:lvgl/src/draw/lv_img_cache.c ****     }
 168:lvgl/src/draw/lv_img_cache.c ****     entry_cnt = new_entry_cnt;
 169:lvgl/src/draw/lv_img_cache.c **** 
 170:lvgl/src/draw/lv_img_cache.c ****     /*Clean the cache*/
 171:lvgl/src/draw/lv_img_cache.c ****     lv_memset_00(LV_GC_ROOT(_lv_img_cache_array), entry_cnt * sizeof(_lv_img_cache_entry_t));
 172:lvgl/src/draw/lv_img_cache.c **** #endif
 173:lvgl/src/draw/lv_img_cache.c **** }
 165              		.loc 1 173 1 is_stmt 0 view .LVU45
 166 0000 7047     		bx	lr
 167              		.cfi_endproc
 168              	.LFE57:
 170              		.section	.text.lv_img_cache_invalidate_src,"ax",%progbits
 171              		.align	1
 172              		.global	lv_img_cache_invalidate_src
 173              		.syntax unified
 174              		.thumb
 175              		.thumb_func
 177              	lv_img_cache_invalidate_src:
 178              	.LVL18:
 179              	.LFB58:
 174:lvgl/src/draw/lv_img_cache.c **** 
 175:lvgl/src/draw/lv_img_cache.c **** /**
 176:lvgl/src/draw/lv_img_cache.c ****  * Invalidate an image source in the cache.
 177:lvgl/src/draw/lv_img_cache.c ****  * Useful if the image source is updated therefore it needs to be cached again.
 178:lvgl/src/draw/lv_img_cache.c ****  * @param src an image source path to a file or pointer to an `lv_img_dsc_t` variable.
 179:lvgl/src/draw/lv_img_cache.c ****  */
 180:lvgl/src/draw/lv_img_cache.c **** void lv_img_cache_invalidate_src(const void * src)
 181:lvgl/src/draw/lv_img_cache.c **** {
 180              		.loc 1 181 1 is_stmt 1 view -0
 181              		.cfi_startproc
 182              		@ args = 0, pretend = 0, frame = 0
 183              		@ frame_needed = 0, uses_anonymous_args = 0
 184              		@ link register save eliminated.
 182:lvgl/src/draw/lv_img_cache.c ****     LV_UNUSED(src);
 185              		.loc 1 182 5 view .LVU47
 183:lvgl/src/draw/lv_img_cache.c **** #if LV_IMG_CACHE_DEF_SIZE
 184:lvgl/src/draw/lv_img_cache.c ****     _lv_img_cache_entry_t * cache = LV_GC_ROOT(_lv_img_cache_array);
 185:lvgl/src/draw/lv_img_cache.c **** 
 186:lvgl/src/draw/lv_img_cache.c ****     uint16_t i;
 187:lvgl/src/draw/lv_img_cache.c ****     for(i = 0; i < entry_cnt; i++) {
 188:lvgl/src/draw/lv_img_cache.c ****         if(src == NULL || lv_img_cache_match(src, cache[i].dec_dsc.src)) {
 189:lvgl/src/draw/lv_img_cache.c ****             if(cache[i].dec_dsc.src != NULL) {
 190:lvgl/src/draw/lv_img_cache.c ****                 lv_img_decoder_close(&cache[i].dec_dsc);
 191:lvgl/src/draw/lv_img_cache.c ****             }
 192:lvgl/src/draw/lv_img_cache.c **** 
 193:lvgl/src/draw/lv_img_cache.c ****             lv_memset_00(&cache[i], sizeof(_lv_img_cache_entry_t));
 194:lvgl/src/draw/lv_img_cache.c ****         }
 195:lvgl/src/draw/lv_img_cache.c ****     }
 196:lvgl/src/draw/lv_img_cache.c **** #endif
 197:lvgl/src/draw/lv_img_cache.c **** }
 186              		.loc 1 197 1 is_stmt 0 view .LVU48
 187 0000 7047     		bx	lr
 188              		.cfi_endproc
 189              	.LFE58:
 191              		.text
 192              	.Letext0:
 193              		.file 2 "c:\\tools\\gcc-arm-none-eabi\\arm-none-eabi\\include\\machine\\_default_types.h"
ARM GAS  C:\Users\OSD\AppData\Local\Temp\cc2Tckh0.s 			page 8


 194              		.file 3 "c:\\tools\\gcc-arm-none-eabi\\arm-none-eabi\\include\\sys\\_stdint.h"
 195              		.file 4 "lvgl/src/draw/../misc/lv_types.h"
 196              		.file 5 "lvgl/src/draw/../misc/lv_color.h"
 197              		.file 6 "lvgl/src/draw/../misc/lv_area.h"
 198              		.file 7 "lvgl/src/draw/lv_img_buf.h"
 199              		.file 8 "lvgl/src/draw/lv_img_decoder.h"
 200              		.file 9 "lvgl/src/draw/lv_img_cache.h"
 201              		.file 10 "lvgl/src/draw/../misc/lv_gc.h"
 202              		.file 11 "lvgl/src/draw/../hal/lv_hal_tick.h"
 203              		.file 12 "lvgl/src/draw/../misc/lv_mem.h"
ARM GAS  C:\Users\OSD\AppData\Local\Temp\cc2Tckh0.s 			page 9

