ARM GAS  C:\Users\OSD\AppData\Local\Temp\ccrOx18j.s 			page 1


   1              		.cpu cortex-m7
   2              		.arch armv7e-m
   3              		.fpu fpv5-d16
   4              		.eabi_attribute 28, 1
   5              		.eabi_attribute 20, 1
   6              		.eabi_attribute 21, 1
   7              		.eabi_attribute 23, 3
   8              		.eabi_attribute 24, 1
   9              		.eabi_attribute 25, 1
  10              		.eabi_attribute 26, 1
  11              		.eabi_attribute 30, 1
  12              		.eabi_attribute 34, 1
  13              		.eabi_attribute 18, 4
  14              		.file	"lv_indev.c"
  15              		.text
  16              	.Ltext0:
  17              		.cfi_sections	.debug_frame
  18              		.section	.text.indev_proc_reset_query_handler,"ax",%progbits
  19              		.align	1
  20              		.syntax unified
  21              		.thumb
  22              		.thumb_func
  24              	indev_proc_reset_query_handler:
  25              	.LVL0:
  26              	.LFB192:
  27              		.file 1 "lvgl/src/core/lv_indev.c"
   1:lvgl/src/core/lv_indev.c **** /**
   2:lvgl/src/core/lv_indev.c ****  * @file lv_indev.c
   3:lvgl/src/core/lv_indev.c ****  *
   4:lvgl/src/core/lv_indev.c ****  */
   5:lvgl/src/core/lv_indev.c **** 
   6:lvgl/src/core/lv_indev.c **** /*********************
   7:lvgl/src/core/lv_indev.c ****  *      INCLUDES
   8:lvgl/src/core/lv_indev.c ****  ********************/
   9:lvgl/src/core/lv_indev.c **** #include "lv_indev.h"
  10:lvgl/src/core/lv_indev.c **** #include "lv_disp.h"
  11:lvgl/src/core/lv_indev.c **** #include "lv_obj.h"
  12:lvgl/src/core/lv_indev.c **** #include "lv_indev_scroll.h"
  13:lvgl/src/core/lv_indev.c **** #include "lv_group.h"
  14:lvgl/src/core/lv_indev.c **** #include "lv_refr.h"
  15:lvgl/src/core/lv_indev.c **** 
  16:lvgl/src/core/lv_indev.c **** #include "../hal/lv_hal_tick.h"
  17:lvgl/src/core/lv_indev.c **** #include "../misc/lv_timer.h"
  18:lvgl/src/core/lv_indev.c **** #include "../misc/lv_math.h"
  19:lvgl/src/core/lv_indev.c **** 
  20:lvgl/src/core/lv_indev.c **** /*********************
  21:lvgl/src/core/lv_indev.c ****  *      DEFINES
  22:lvgl/src/core/lv_indev.c ****  *********************/
  23:lvgl/src/core/lv_indev.c **** #if LV_INDEV_DEF_SCROLL_THROW <= 0
  24:lvgl/src/core/lv_indev.c ****     #warning "LV_INDEV_DRAG_THROW must be greater than 0"
  25:lvgl/src/core/lv_indev.c **** #endif
  26:lvgl/src/core/lv_indev.c **** 
  27:lvgl/src/core/lv_indev.c **** /**********************
  28:lvgl/src/core/lv_indev.c ****  *      TYPEDEFS
  29:lvgl/src/core/lv_indev.c ****  **********************/
  30:lvgl/src/core/lv_indev.c **** 
  31:lvgl/src/core/lv_indev.c **** /**********************
ARM GAS  C:\Users\OSD\AppData\Local\Temp\ccrOx18j.s 			page 2


  32:lvgl/src/core/lv_indev.c ****  *  STATIC PROTOTYPES
  33:lvgl/src/core/lv_indev.c ****  **********************/
  34:lvgl/src/core/lv_indev.c **** static void indev_pointer_proc(lv_indev_t * i, lv_indev_data_t * data);
  35:lvgl/src/core/lv_indev.c **** static void indev_keypad_proc(lv_indev_t * i, lv_indev_data_t * data);
  36:lvgl/src/core/lv_indev.c **** static void indev_encoder_proc(lv_indev_t * i, lv_indev_data_t * data);
  37:lvgl/src/core/lv_indev.c **** static void indev_button_proc(lv_indev_t * i, lv_indev_data_t * data);
  38:lvgl/src/core/lv_indev.c **** static void indev_proc_press(_lv_indev_proc_t * proc);
  39:lvgl/src/core/lv_indev.c **** static void indev_proc_release(_lv_indev_proc_t * proc);
  40:lvgl/src/core/lv_indev.c **** static void indev_proc_reset_query_handler(lv_indev_t * indev);
  41:lvgl/src/core/lv_indev.c **** static void indev_click_focus(_lv_indev_proc_t * proc);
  42:lvgl/src/core/lv_indev.c **** static void indev_gesture(_lv_indev_proc_t * proc);
  43:lvgl/src/core/lv_indev.c **** static bool indev_reset_check(_lv_indev_proc_t * proc);
  44:lvgl/src/core/lv_indev.c **** 
  45:lvgl/src/core/lv_indev.c **** /**********************
  46:lvgl/src/core/lv_indev.c ****  *  STATIC VARIABLES
  47:lvgl/src/core/lv_indev.c ****  **********************/
  48:lvgl/src/core/lv_indev.c **** static lv_indev_t * indev_act;
  49:lvgl/src/core/lv_indev.c **** static lv_obj_t * indev_obj_act = NULL;
  50:lvgl/src/core/lv_indev.c **** 
  51:lvgl/src/core/lv_indev.c **** /**********************
  52:lvgl/src/core/lv_indev.c ****  *      MACROS
  53:lvgl/src/core/lv_indev.c ****  **********************/
  54:lvgl/src/core/lv_indev.c **** #if LV_LOG_TRACE_INDEV
  55:lvgl/src/core/lv_indev.c ****     #define INDEV_TRACE(...) LV_LOG_TRACE(__VA_ARGS__)
  56:lvgl/src/core/lv_indev.c **** #else
  57:lvgl/src/core/lv_indev.c ****     #define INDEV_TRACE(...)
  58:lvgl/src/core/lv_indev.c **** #endif
  59:lvgl/src/core/lv_indev.c **** 
  60:lvgl/src/core/lv_indev.c **** /**********************
  61:lvgl/src/core/lv_indev.c ****  *   GLOBAL FUNCTIONS
  62:lvgl/src/core/lv_indev.c ****  **********************/
  63:lvgl/src/core/lv_indev.c **** 
  64:lvgl/src/core/lv_indev.c **** void lv_indev_read_timer_cb(lv_timer_t * timer)
  65:lvgl/src/core/lv_indev.c **** {
  66:lvgl/src/core/lv_indev.c ****     INDEV_TRACE("begin");
  67:lvgl/src/core/lv_indev.c **** 
  68:lvgl/src/core/lv_indev.c ****     lv_indev_data_t data;
  69:lvgl/src/core/lv_indev.c **** 
  70:lvgl/src/core/lv_indev.c ****     indev_act = timer->user_data;
  71:lvgl/src/core/lv_indev.c **** 
  72:lvgl/src/core/lv_indev.c ****     /*Read and process all indevs*/
  73:lvgl/src/core/lv_indev.c ****     if(indev_act->driver->disp == NULL) return; /*Not assigned to any displays*/
  74:lvgl/src/core/lv_indev.c **** 
  75:lvgl/src/core/lv_indev.c ****     /*Handle reset query before processing the point*/
  76:lvgl/src/core/lv_indev.c ****     indev_proc_reset_query_handler(indev_act);
  77:lvgl/src/core/lv_indev.c **** 
  78:lvgl/src/core/lv_indev.c ****     if(indev_act->proc.disabled ||
  79:lvgl/src/core/lv_indev.c ****        indev_act->driver->disp->prev_scr != NULL) return; /*Input disabled or screen animation acti
  80:lvgl/src/core/lv_indev.c ****     bool continue_reading;
  81:lvgl/src/core/lv_indev.c ****     do {
  82:lvgl/src/core/lv_indev.c ****         /*Read the data*/
  83:lvgl/src/core/lv_indev.c ****         _lv_indev_read(indev_act, &data);
  84:lvgl/src/core/lv_indev.c ****         continue_reading = data.continue_reading;
  85:lvgl/src/core/lv_indev.c **** 
  86:lvgl/src/core/lv_indev.c ****         /*The active object might be deleted even in the read function*/
  87:lvgl/src/core/lv_indev.c ****         indev_proc_reset_query_handler(indev_act);
  88:lvgl/src/core/lv_indev.c ****         indev_obj_act = NULL;
ARM GAS  C:\Users\OSD\AppData\Local\Temp\ccrOx18j.s 			page 3


  89:lvgl/src/core/lv_indev.c **** 
  90:lvgl/src/core/lv_indev.c ****         indev_act->proc.state = data.state;
  91:lvgl/src/core/lv_indev.c **** 
  92:lvgl/src/core/lv_indev.c ****         /*Save the last activity time*/
  93:lvgl/src/core/lv_indev.c ****         if(indev_act->proc.state == LV_INDEV_STATE_PRESSED) {
  94:lvgl/src/core/lv_indev.c ****             indev_act->driver->disp->last_activity_time = lv_tick_get();
  95:lvgl/src/core/lv_indev.c ****         }
  96:lvgl/src/core/lv_indev.c ****         else if(indev_act->driver->type == LV_INDEV_TYPE_ENCODER && data.enc_diff) {
  97:lvgl/src/core/lv_indev.c ****             indev_act->driver->disp->last_activity_time = lv_tick_get();
  98:lvgl/src/core/lv_indev.c ****         }
  99:lvgl/src/core/lv_indev.c **** 
 100:lvgl/src/core/lv_indev.c ****         if(indev_act->driver->type == LV_INDEV_TYPE_POINTER) {
 101:lvgl/src/core/lv_indev.c ****             indev_pointer_proc(indev_act, &data);
 102:lvgl/src/core/lv_indev.c ****         }
 103:lvgl/src/core/lv_indev.c ****         else if(indev_act->driver->type == LV_INDEV_TYPE_KEYPAD) {
 104:lvgl/src/core/lv_indev.c ****             indev_keypad_proc(indev_act, &data);
 105:lvgl/src/core/lv_indev.c ****         }
 106:lvgl/src/core/lv_indev.c ****         else if(indev_act->driver->type == LV_INDEV_TYPE_ENCODER) {
 107:lvgl/src/core/lv_indev.c ****             indev_encoder_proc(indev_act, &data);
 108:lvgl/src/core/lv_indev.c ****         }
 109:lvgl/src/core/lv_indev.c ****         else if(indev_act->driver->type == LV_INDEV_TYPE_BUTTON) {
 110:lvgl/src/core/lv_indev.c ****             indev_button_proc(indev_act, &data);
 111:lvgl/src/core/lv_indev.c ****         }
 112:lvgl/src/core/lv_indev.c ****         /*Handle reset query if it happened in during processing*/
 113:lvgl/src/core/lv_indev.c ****         indev_proc_reset_query_handler(indev_act);
 114:lvgl/src/core/lv_indev.c ****     } while(continue_reading);
 115:lvgl/src/core/lv_indev.c **** 
 116:lvgl/src/core/lv_indev.c ****     /*End of indev processing, so no act indev*/
 117:lvgl/src/core/lv_indev.c ****     indev_act     = NULL;
 118:lvgl/src/core/lv_indev.c ****     indev_obj_act = NULL;
 119:lvgl/src/core/lv_indev.c **** 
 120:lvgl/src/core/lv_indev.c ****     INDEV_TRACE("finished");
 121:lvgl/src/core/lv_indev.c **** }
 122:lvgl/src/core/lv_indev.c **** 
 123:lvgl/src/core/lv_indev.c **** void lv_indev_enable(lv_indev_t * indev, bool en)
 124:lvgl/src/core/lv_indev.c **** {
 125:lvgl/src/core/lv_indev.c ****     uint8_t enable = en ? 0 : 1;
 126:lvgl/src/core/lv_indev.c **** 
 127:lvgl/src/core/lv_indev.c ****     if(indev) {
 128:lvgl/src/core/lv_indev.c ****         indev->proc.disabled = enable;
 129:lvgl/src/core/lv_indev.c ****     }
 130:lvgl/src/core/lv_indev.c ****     else {
 131:lvgl/src/core/lv_indev.c ****         lv_indev_t * i = lv_indev_get_next(NULL);
 132:lvgl/src/core/lv_indev.c ****         while(i) {
 133:lvgl/src/core/lv_indev.c ****             i->proc.disabled = enable;
 134:lvgl/src/core/lv_indev.c ****             i = lv_indev_get_next(i);
 135:lvgl/src/core/lv_indev.c ****         }
 136:lvgl/src/core/lv_indev.c ****     }
 137:lvgl/src/core/lv_indev.c **** }
 138:lvgl/src/core/lv_indev.c **** 
 139:lvgl/src/core/lv_indev.c **** lv_indev_t * lv_indev_get_act(void)
 140:lvgl/src/core/lv_indev.c **** {
 141:lvgl/src/core/lv_indev.c ****     return indev_act;
 142:lvgl/src/core/lv_indev.c **** }
 143:lvgl/src/core/lv_indev.c **** 
 144:lvgl/src/core/lv_indev.c **** lv_indev_type_t lv_indev_get_type(const lv_indev_t * indev)
 145:lvgl/src/core/lv_indev.c **** {
ARM GAS  C:\Users\OSD\AppData\Local\Temp\ccrOx18j.s 			page 4


 146:lvgl/src/core/lv_indev.c ****     if(indev == NULL) return LV_INDEV_TYPE_NONE;
 147:lvgl/src/core/lv_indev.c **** 
 148:lvgl/src/core/lv_indev.c ****     return indev->driver->type;
 149:lvgl/src/core/lv_indev.c **** }
 150:lvgl/src/core/lv_indev.c **** 
 151:lvgl/src/core/lv_indev.c **** void lv_indev_reset(lv_indev_t * indev, lv_obj_t * obj)
 152:lvgl/src/core/lv_indev.c **** {
 153:lvgl/src/core/lv_indev.c ****     if(indev) {
 154:lvgl/src/core/lv_indev.c ****         indev->proc.reset_query = 1;
 155:lvgl/src/core/lv_indev.c ****         if(indev_act == indev) indev_obj_act = NULL;
 156:lvgl/src/core/lv_indev.c ****         if(indev->driver->type == LV_INDEV_TYPE_POINTER || indev->driver->type == LV_INDEV_TYPE_KEY
 157:lvgl/src/core/lv_indev.c ****             if(obj == NULL || indev->proc.types.pointer.last_pressed == obj) {
 158:lvgl/src/core/lv_indev.c ****                 indev->proc.types.pointer.last_pressed = NULL;
 159:lvgl/src/core/lv_indev.c ****             }
 160:lvgl/src/core/lv_indev.c ****             if(obj == NULL || indev->proc.types.pointer.act_obj == obj) {
 161:lvgl/src/core/lv_indev.c ****                 indev->proc.types.pointer.act_obj = NULL;
 162:lvgl/src/core/lv_indev.c ****             }
 163:lvgl/src/core/lv_indev.c ****             if(obj == NULL || indev->proc.types.pointer.last_obj == obj) {
 164:lvgl/src/core/lv_indev.c ****                 indev->proc.types.pointer.last_obj = NULL;
 165:lvgl/src/core/lv_indev.c ****             }
 166:lvgl/src/core/lv_indev.c ****         }
 167:lvgl/src/core/lv_indev.c ****     }
 168:lvgl/src/core/lv_indev.c ****     else {
 169:lvgl/src/core/lv_indev.c ****         lv_indev_t * i = lv_indev_get_next(NULL);
 170:lvgl/src/core/lv_indev.c ****         while(i) {
 171:lvgl/src/core/lv_indev.c ****             i->proc.reset_query = 1;
 172:lvgl/src/core/lv_indev.c ****             if(i->driver->type == LV_INDEV_TYPE_POINTER || i->driver->type == LV_INDEV_TYPE_KEYPAD)
 173:lvgl/src/core/lv_indev.c ****                 if(obj == NULL || i->proc.types.pointer.last_pressed == obj) {
 174:lvgl/src/core/lv_indev.c ****                     i->proc.types.pointer.last_pressed = NULL;
 175:lvgl/src/core/lv_indev.c ****                 }
 176:lvgl/src/core/lv_indev.c ****                 if(obj == NULL || i->proc.types.pointer.act_obj == obj) {
 177:lvgl/src/core/lv_indev.c ****                     i->proc.types.pointer.act_obj = NULL;
 178:lvgl/src/core/lv_indev.c ****                 }
 179:lvgl/src/core/lv_indev.c ****                 if(obj == NULL || i->proc.types.pointer.last_obj == obj) {
 180:lvgl/src/core/lv_indev.c ****                     i->proc.types.pointer.last_obj = NULL;
 181:lvgl/src/core/lv_indev.c ****                 }
 182:lvgl/src/core/lv_indev.c ****             }
 183:lvgl/src/core/lv_indev.c ****             i = lv_indev_get_next(i);
 184:lvgl/src/core/lv_indev.c ****         }
 185:lvgl/src/core/lv_indev.c ****         indev_obj_act = NULL;
 186:lvgl/src/core/lv_indev.c ****     }
 187:lvgl/src/core/lv_indev.c **** }
 188:lvgl/src/core/lv_indev.c **** 
 189:lvgl/src/core/lv_indev.c **** void lv_indev_reset_long_press(lv_indev_t * indev)
 190:lvgl/src/core/lv_indev.c **** {
 191:lvgl/src/core/lv_indev.c ****     indev->proc.long_pr_sent         = 0;
 192:lvgl/src/core/lv_indev.c ****     indev->proc.longpr_rep_timestamp = lv_tick_get();
 193:lvgl/src/core/lv_indev.c ****     indev->proc.pr_timestamp         = lv_tick_get();
 194:lvgl/src/core/lv_indev.c **** }
 195:lvgl/src/core/lv_indev.c **** 
 196:lvgl/src/core/lv_indev.c **** void lv_indev_set_cursor(lv_indev_t * indev, lv_obj_t * cur_obj)
 197:lvgl/src/core/lv_indev.c **** {
 198:lvgl/src/core/lv_indev.c ****     if(indev->driver->type != LV_INDEV_TYPE_POINTER) return;
 199:lvgl/src/core/lv_indev.c **** 
 200:lvgl/src/core/lv_indev.c ****     indev->cursor = cur_obj;
 201:lvgl/src/core/lv_indev.c ****     lv_obj_set_parent(indev->cursor, lv_disp_get_layer_sys(indev->driver->disp));
 202:lvgl/src/core/lv_indev.c ****     lv_obj_set_pos(indev->cursor, indev->proc.types.pointer.act_point.x, indev->proc.types.pointer.
ARM GAS  C:\Users\OSD\AppData\Local\Temp\ccrOx18j.s 			page 5


 203:lvgl/src/core/lv_indev.c ****     lv_obj_clear_flag(indev->cursor, LV_OBJ_FLAG_CLICKABLE);
 204:lvgl/src/core/lv_indev.c ****     lv_obj_add_flag(indev->cursor, LV_OBJ_FLAG_IGNORE_LAYOUT | LV_OBJ_FLAG_FLOATING);
 205:lvgl/src/core/lv_indev.c **** }
 206:lvgl/src/core/lv_indev.c **** 
 207:lvgl/src/core/lv_indev.c **** void lv_indev_set_group(lv_indev_t * indev, lv_group_t * group)
 208:lvgl/src/core/lv_indev.c **** {
 209:lvgl/src/core/lv_indev.c ****     if(indev->driver->type == LV_INDEV_TYPE_KEYPAD || indev->driver->type == LV_INDEV_TYPE_ENCODER)
 210:lvgl/src/core/lv_indev.c ****         indev->group = group;
 211:lvgl/src/core/lv_indev.c ****     }
 212:lvgl/src/core/lv_indev.c **** }
 213:lvgl/src/core/lv_indev.c **** 
 214:lvgl/src/core/lv_indev.c **** void lv_indev_set_button_points(lv_indev_t * indev, const lv_point_t points[])
 215:lvgl/src/core/lv_indev.c **** {
 216:lvgl/src/core/lv_indev.c ****     if(indev->driver->type == LV_INDEV_TYPE_BUTTON) {
 217:lvgl/src/core/lv_indev.c ****         indev->btn_points = points;
 218:lvgl/src/core/lv_indev.c ****     }
 219:lvgl/src/core/lv_indev.c **** }
 220:lvgl/src/core/lv_indev.c **** 
 221:lvgl/src/core/lv_indev.c **** void lv_indev_get_point(const lv_indev_t * indev, lv_point_t * point)
 222:lvgl/src/core/lv_indev.c **** {
 223:lvgl/src/core/lv_indev.c ****     if(indev == NULL) {
 224:lvgl/src/core/lv_indev.c ****         point->x = 0;
 225:lvgl/src/core/lv_indev.c ****         point->y = 0;
 226:lvgl/src/core/lv_indev.c ****         return;
 227:lvgl/src/core/lv_indev.c ****     }
 228:lvgl/src/core/lv_indev.c ****     if(indev->driver->type != LV_INDEV_TYPE_POINTER && indev->driver->type != LV_INDEV_TYPE_BUTTON)
 229:lvgl/src/core/lv_indev.c ****         point->x = -1;
 230:lvgl/src/core/lv_indev.c ****         point->y = -1;
 231:lvgl/src/core/lv_indev.c ****     }
 232:lvgl/src/core/lv_indev.c ****     else {
 233:lvgl/src/core/lv_indev.c ****         point->x = indev->proc.types.pointer.act_point.x;
 234:lvgl/src/core/lv_indev.c ****         point->y = indev->proc.types.pointer.act_point.y;
 235:lvgl/src/core/lv_indev.c ****     }
 236:lvgl/src/core/lv_indev.c **** }
 237:lvgl/src/core/lv_indev.c **** 
 238:lvgl/src/core/lv_indev.c **** lv_dir_t lv_indev_get_gesture_dir(const lv_indev_t * indev)
 239:lvgl/src/core/lv_indev.c **** {
 240:lvgl/src/core/lv_indev.c ****     return indev->proc.types.pointer.gesture_dir;
 241:lvgl/src/core/lv_indev.c **** }
 242:lvgl/src/core/lv_indev.c **** 
 243:lvgl/src/core/lv_indev.c **** uint32_t lv_indev_get_key(const lv_indev_t * indev)
 244:lvgl/src/core/lv_indev.c **** {
 245:lvgl/src/core/lv_indev.c ****     if(indev->driver->type != LV_INDEV_TYPE_KEYPAD)
 246:lvgl/src/core/lv_indev.c ****         return 0;
 247:lvgl/src/core/lv_indev.c ****     else
 248:lvgl/src/core/lv_indev.c ****         return indev->proc.types.keypad.last_key;
 249:lvgl/src/core/lv_indev.c **** }
 250:lvgl/src/core/lv_indev.c **** 
 251:lvgl/src/core/lv_indev.c **** lv_dir_t lv_indev_get_scroll_dir(const lv_indev_t * indev)
 252:lvgl/src/core/lv_indev.c **** {
 253:lvgl/src/core/lv_indev.c ****     if(indev == NULL) return false;
 254:lvgl/src/core/lv_indev.c ****     if(indev->driver->type != LV_INDEV_TYPE_POINTER && indev->driver->type != LV_INDEV_TYPE_BUTTON)
 255:lvgl/src/core/lv_indev.c ****     return indev->proc.types.pointer.scroll_dir;
 256:lvgl/src/core/lv_indev.c **** }
 257:lvgl/src/core/lv_indev.c **** 
 258:lvgl/src/core/lv_indev.c **** lv_obj_t * lv_indev_get_scroll_obj(const lv_indev_t * indev)
 259:lvgl/src/core/lv_indev.c **** {
ARM GAS  C:\Users\OSD\AppData\Local\Temp\ccrOx18j.s 			page 6


 260:lvgl/src/core/lv_indev.c ****     if(indev == NULL) return NULL;
 261:lvgl/src/core/lv_indev.c ****     if(indev->driver->type != LV_INDEV_TYPE_POINTER && indev->driver->type != LV_INDEV_TYPE_BUTTON)
 262:lvgl/src/core/lv_indev.c ****     return indev->proc.types.pointer.scroll_obj;
 263:lvgl/src/core/lv_indev.c **** }
 264:lvgl/src/core/lv_indev.c **** 
 265:lvgl/src/core/lv_indev.c **** void lv_indev_get_vect(const lv_indev_t * indev, lv_point_t * point)
 266:lvgl/src/core/lv_indev.c **** {
 267:lvgl/src/core/lv_indev.c ****     point->x = 0;
 268:lvgl/src/core/lv_indev.c ****     point->y = 0;
 269:lvgl/src/core/lv_indev.c **** 
 270:lvgl/src/core/lv_indev.c ****     if(indev == NULL) return;
 271:lvgl/src/core/lv_indev.c **** 
 272:lvgl/src/core/lv_indev.c ****     if(indev->driver->type == LV_INDEV_TYPE_POINTER || indev->driver->type == LV_INDEV_TYPE_BUTTON)
 273:lvgl/src/core/lv_indev.c ****         point->x = indev->proc.types.pointer.vect.x;
 274:lvgl/src/core/lv_indev.c ****         point->y = indev->proc.types.pointer.vect.y;
 275:lvgl/src/core/lv_indev.c ****     }
 276:lvgl/src/core/lv_indev.c **** }
 277:lvgl/src/core/lv_indev.c **** 
 278:lvgl/src/core/lv_indev.c **** void lv_indev_wait_release(lv_indev_t * indev)
 279:lvgl/src/core/lv_indev.c **** {
 280:lvgl/src/core/lv_indev.c ****     if(indev == NULL)return;
 281:lvgl/src/core/lv_indev.c ****     indev->proc.wait_until_release = 1;
 282:lvgl/src/core/lv_indev.c **** }
 283:lvgl/src/core/lv_indev.c **** 
 284:lvgl/src/core/lv_indev.c **** lv_obj_t * lv_indev_get_obj_act(void)
 285:lvgl/src/core/lv_indev.c **** {
 286:lvgl/src/core/lv_indev.c ****     return indev_obj_act;
 287:lvgl/src/core/lv_indev.c **** }
 288:lvgl/src/core/lv_indev.c **** 
 289:lvgl/src/core/lv_indev.c **** lv_timer_t * lv_indev_get_read_timer(lv_disp_t * indev)
 290:lvgl/src/core/lv_indev.c **** {
 291:lvgl/src/core/lv_indev.c ****     if(!indev) {
 292:lvgl/src/core/lv_indev.c ****         LV_LOG_WARN("lv_indev_get_read_timer: indev was NULL");
 293:lvgl/src/core/lv_indev.c ****         return NULL;
 294:lvgl/src/core/lv_indev.c ****     }
 295:lvgl/src/core/lv_indev.c **** 
 296:lvgl/src/core/lv_indev.c ****     return indev->refr_timer;
 297:lvgl/src/core/lv_indev.c **** }
 298:lvgl/src/core/lv_indev.c **** 
 299:lvgl/src/core/lv_indev.c **** lv_obj_t * lv_indev_search_obj(lv_obj_t * obj, lv_point_t * point)
 300:lvgl/src/core/lv_indev.c **** {
 301:lvgl/src/core/lv_indev.c ****     lv_obj_t * found_p = NULL;
 302:lvgl/src/core/lv_indev.c **** 
 303:lvgl/src/core/lv_indev.c ****     /*If this obj is hidden the children are hidden too so return immediately*/
 304:lvgl/src/core/lv_indev.c ****     if(lv_obj_has_flag(obj, LV_OBJ_FLAG_HIDDEN)) return NULL;
 305:lvgl/src/core/lv_indev.c **** 
 306:lvgl/src/core/lv_indev.c ****     lv_point_t p_trans = *point;
 307:lvgl/src/core/lv_indev.c ****     lv_obj_transform_point(obj, &p_trans, false, true);
 308:lvgl/src/core/lv_indev.c **** 
 309:lvgl/src/core/lv_indev.c ****     bool hit_test_ok = lv_obj_hit_test(obj, &p_trans);
 310:lvgl/src/core/lv_indev.c **** 
 311:lvgl/src/core/lv_indev.c ****     /*If the point is on this object or has overflow visible check its children too*/
 312:lvgl/src/core/lv_indev.c ****     if(_lv_area_is_point_on(&obj->coords, &p_trans, 0) || lv_obj_has_flag(obj, LV_OBJ_FLAG_OVERFLOW
 313:lvgl/src/core/lv_indev.c ****         int32_t i;
 314:lvgl/src/core/lv_indev.c ****         uint32_t child_cnt = lv_obj_get_child_cnt(obj);
 315:lvgl/src/core/lv_indev.c **** 
 316:lvgl/src/core/lv_indev.c ****         /*If a child matches use it*/
ARM GAS  C:\Users\OSD\AppData\Local\Temp\ccrOx18j.s 			page 7


 317:lvgl/src/core/lv_indev.c ****         for(i = child_cnt - 1; i >= 0; i--) {
 318:lvgl/src/core/lv_indev.c ****             lv_obj_t * child = obj->spec_attr->children[i];
 319:lvgl/src/core/lv_indev.c ****             found_p = lv_indev_search_obj(child, &p_trans);
 320:lvgl/src/core/lv_indev.c ****             if(found_p) return found_p;
 321:lvgl/src/core/lv_indev.c ****         }
 322:lvgl/src/core/lv_indev.c ****     }
 323:lvgl/src/core/lv_indev.c **** 
 324:lvgl/src/core/lv_indev.c ****     /*If not return earlier for a clicked child and this obj's hittest was ok use it
 325:lvgl/src/core/lv_indev.c ****      *else return NULL*/
 326:lvgl/src/core/lv_indev.c ****     if(hit_test_ok) return obj;
 327:lvgl/src/core/lv_indev.c ****     else return NULL;
 328:lvgl/src/core/lv_indev.c **** }
 329:lvgl/src/core/lv_indev.c **** 
 330:lvgl/src/core/lv_indev.c **** /**********************
 331:lvgl/src/core/lv_indev.c ****  *   STATIC FUNCTIONS
 332:lvgl/src/core/lv_indev.c ****  **********************/
 333:lvgl/src/core/lv_indev.c **** 
 334:lvgl/src/core/lv_indev.c **** /**
 335:lvgl/src/core/lv_indev.c ****  * Process a new point from LV_INDEV_TYPE_POINTER input device
 336:lvgl/src/core/lv_indev.c ****  * @param i pointer to an input device
 337:lvgl/src/core/lv_indev.c ****  * @param data pointer to the data read from the input device
 338:lvgl/src/core/lv_indev.c ****  */
 339:lvgl/src/core/lv_indev.c **** static void indev_pointer_proc(lv_indev_t * i, lv_indev_data_t * data)
 340:lvgl/src/core/lv_indev.c **** {
 341:lvgl/src/core/lv_indev.c ****     lv_disp_t * disp = i->driver->disp;
 342:lvgl/src/core/lv_indev.c ****     /*Save the raw points so they can be used again in _lv_indev_read*/
 343:lvgl/src/core/lv_indev.c ****     i->proc.types.pointer.last_raw_point.x = data->point.x;
 344:lvgl/src/core/lv_indev.c ****     i->proc.types.pointer.last_raw_point.y = data->point.y;
 345:lvgl/src/core/lv_indev.c **** 
 346:lvgl/src/core/lv_indev.c ****     if(disp->driver->rotated == LV_DISP_ROT_180 || disp->driver->rotated == LV_DISP_ROT_270) {
 347:lvgl/src/core/lv_indev.c ****         data->point.x = disp->driver->hor_res - data->point.x - 1;
 348:lvgl/src/core/lv_indev.c ****         data->point.y = disp->driver->ver_res - data->point.y - 1;
 349:lvgl/src/core/lv_indev.c ****     }
 350:lvgl/src/core/lv_indev.c ****     if(disp->driver->rotated == LV_DISP_ROT_90 || disp->driver->rotated == LV_DISP_ROT_270) {
 351:lvgl/src/core/lv_indev.c ****         lv_coord_t tmp = data->point.y;
 352:lvgl/src/core/lv_indev.c ****         data->point.y = data->point.x;
 353:lvgl/src/core/lv_indev.c ****         data->point.x = disp->driver->ver_res - tmp - 1;
 354:lvgl/src/core/lv_indev.c ****     }
 355:lvgl/src/core/lv_indev.c **** 
 356:lvgl/src/core/lv_indev.c ****     /*Simple sanity check*/
 357:lvgl/src/core/lv_indev.c ****     if(data->point.x < 0) {
 358:lvgl/src/core/lv_indev.c ****         LV_LOG_WARN("X is %d which is smaller than zero", (int)data->point.x);
 359:lvgl/src/core/lv_indev.c ****     }
 360:lvgl/src/core/lv_indev.c ****     if(data->point.x >= lv_disp_get_hor_res(i->driver->disp)) {
 361:lvgl/src/core/lv_indev.c ****         LV_LOG_WARN("X is %d which is greater than hor. res", (int)data->point.x);
 362:lvgl/src/core/lv_indev.c ****     }
 363:lvgl/src/core/lv_indev.c ****     if(data->point.y < 0) {
 364:lvgl/src/core/lv_indev.c ****         LV_LOG_WARN("Y is %d which is smaller than zero", (int)data->point.y);
 365:lvgl/src/core/lv_indev.c ****     }
 366:lvgl/src/core/lv_indev.c ****     if(data->point.y >= lv_disp_get_ver_res(i->driver->disp)) {
 367:lvgl/src/core/lv_indev.c ****         LV_LOG_WARN("Y is %d which is greater than ver. res", (int)data->point.y);
 368:lvgl/src/core/lv_indev.c ****     }
 369:lvgl/src/core/lv_indev.c **** 
 370:lvgl/src/core/lv_indev.c ****     /*Move the cursor if set and moved*/
 371:lvgl/src/core/lv_indev.c ****     if(i->cursor != NULL &&
 372:lvgl/src/core/lv_indev.c ****        (i->proc.types.pointer.last_point.x != data->point.x || i->proc.types.pointer.last_point.y !
 373:lvgl/src/core/lv_indev.c ****         lv_obj_set_pos(i->cursor, data->point.x, data->point.y);
ARM GAS  C:\Users\OSD\AppData\Local\Temp\ccrOx18j.s 			page 8


 374:lvgl/src/core/lv_indev.c ****     }
 375:lvgl/src/core/lv_indev.c **** 
 376:lvgl/src/core/lv_indev.c ****     i->proc.types.pointer.act_point.x = data->point.x;
 377:lvgl/src/core/lv_indev.c ****     i->proc.types.pointer.act_point.y = data->point.y;
 378:lvgl/src/core/lv_indev.c **** 
 379:lvgl/src/core/lv_indev.c ****     if(i->proc.state == LV_INDEV_STATE_PRESSED) {
 380:lvgl/src/core/lv_indev.c ****         indev_proc_press(&i->proc);
 381:lvgl/src/core/lv_indev.c ****     }
 382:lvgl/src/core/lv_indev.c ****     else {
 383:lvgl/src/core/lv_indev.c ****         indev_proc_release(&i->proc);
 384:lvgl/src/core/lv_indev.c ****     }
 385:lvgl/src/core/lv_indev.c **** 
 386:lvgl/src/core/lv_indev.c ****     i->proc.types.pointer.last_point.x = i->proc.types.pointer.act_point.x;
 387:lvgl/src/core/lv_indev.c ****     i->proc.types.pointer.last_point.y = i->proc.types.pointer.act_point.y;
 388:lvgl/src/core/lv_indev.c **** }
 389:lvgl/src/core/lv_indev.c **** 
 390:lvgl/src/core/lv_indev.c **** /**
 391:lvgl/src/core/lv_indev.c ****  * Process a new point from LV_INDEV_TYPE_KEYPAD input device
 392:lvgl/src/core/lv_indev.c ****  * @param i pointer to an input device
 393:lvgl/src/core/lv_indev.c ****  * @param data pointer to the data read from the input device
 394:lvgl/src/core/lv_indev.c ****  */
 395:lvgl/src/core/lv_indev.c **** static void indev_keypad_proc(lv_indev_t * i, lv_indev_data_t * data)
 396:lvgl/src/core/lv_indev.c **** {
 397:lvgl/src/core/lv_indev.c ****     if(data->state == LV_INDEV_STATE_PRESSED && i->proc.wait_until_release) return;
 398:lvgl/src/core/lv_indev.c **** 
 399:lvgl/src/core/lv_indev.c ****     if(i->proc.wait_until_release) {
 400:lvgl/src/core/lv_indev.c ****         i->proc.wait_until_release      = 0;
 401:lvgl/src/core/lv_indev.c ****         i->proc.pr_timestamp            = 0;
 402:lvgl/src/core/lv_indev.c ****         i->proc.long_pr_sent            = 0;
 403:lvgl/src/core/lv_indev.c ****         i->proc.types.keypad.last_state = LV_INDEV_STATE_RELEASED; /*To skip the processing of rele
 404:lvgl/src/core/lv_indev.c ****     }
 405:lvgl/src/core/lv_indev.c **** 
 406:lvgl/src/core/lv_indev.c ****     lv_group_t * g = i->group;
 407:lvgl/src/core/lv_indev.c ****     if(g == NULL) return;
 408:lvgl/src/core/lv_indev.c **** 
 409:lvgl/src/core/lv_indev.c ****     indev_obj_act = lv_group_get_focused(g);
 410:lvgl/src/core/lv_indev.c ****     if(indev_obj_act == NULL) return;
 411:lvgl/src/core/lv_indev.c **** 
 412:lvgl/src/core/lv_indev.c ****     bool dis = lv_obj_has_state(indev_obj_act, LV_STATE_DISABLED);
 413:lvgl/src/core/lv_indev.c **** 
 414:lvgl/src/core/lv_indev.c ****     /*Save the last key to compare it with the current latter on RELEASE*/
 415:lvgl/src/core/lv_indev.c ****     uint32_t prev_key = i->proc.types.keypad.last_key;
 416:lvgl/src/core/lv_indev.c **** 
 417:lvgl/src/core/lv_indev.c ****     /*Save the last key.
 418:lvgl/src/core/lv_indev.c ****      *It must be done here else `lv_indev_get_key` will return the last key in events*/
 419:lvgl/src/core/lv_indev.c ****     i->proc.types.keypad.last_key = data->key;
 420:lvgl/src/core/lv_indev.c **** 
 421:lvgl/src/core/lv_indev.c ****     /*Save the previous state so we can detect state changes below and also set the last state now
 422:lvgl/src/core/lv_indev.c ****      *so if any event handler on the way returns `LV_RES_INV` the last state is remembered
 423:lvgl/src/core/lv_indev.c ****      *for the next time*/
 424:lvgl/src/core/lv_indev.c ****     uint32_t prev_state             = i->proc.types.keypad.last_state;
 425:lvgl/src/core/lv_indev.c ****     i->proc.types.keypad.last_state = data->state;
 426:lvgl/src/core/lv_indev.c **** 
 427:lvgl/src/core/lv_indev.c ****     /*Key press happened*/
 428:lvgl/src/core/lv_indev.c ****     if(data->state == LV_INDEV_STATE_PRESSED && prev_state == LV_INDEV_STATE_RELEASED) {
 429:lvgl/src/core/lv_indev.c ****         LV_LOG_INFO("%" LV_PRIu32 " key is pressed", data->key);
 430:lvgl/src/core/lv_indev.c ****         i->proc.pr_timestamp = lv_tick_get();
ARM GAS  C:\Users\OSD\AppData\Local\Temp\ccrOx18j.s 			page 9


 431:lvgl/src/core/lv_indev.c **** 
 432:lvgl/src/core/lv_indev.c ****         /*Move the focus on NEXT*/
 433:lvgl/src/core/lv_indev.c ****         if(data->key == LV_KEY_NEXT) {
 434:lvgl/src/core/lv_indev.c ****             lv_group_set_editing(g, false); /*Editing is not used by KEYPAD is be sure it is disabl
 435:lvgl/src/core/lv_indev.c ****             lv_group_focus_next(g);
 436:lvgl/src/core/lv_indev.c ****             if(indev_reset_check(&i->proc)) return;
 437:lvgl/src/core/lv_indev.c ****         }
 438:lvgl/src/core/lv_indev.c ****         /*Move the focus on PREV*/
 439:lvgl/src/core/lv_indev.c ****         else if(data->key == LV_KEY_PREV) {
 440:lvgl/src/core/lv_indev.c ****             lv_group_set_editing(g, false); /*Editing is not used by KEYPAD is be sure it is disabl
 441:lvgl/src/core/lv_indev.c ****             lv_group_focus_prev(g);
 442:lvgl/src/core/lv_indev.c ****             if(indev_reset_check(&i->proc)) return;
 443:lvgl/src/core/lv_indev.c ****         }
 444:lvgl/src/core/lv_indev.c ****         else if(!dis) {
 445:lvgl/src/core/lv_indev.c ****             /*Simulate a press on the object if ENTER was pressed*/
 446:lvgl/src/core/lv_indev.c ****             if(data->key == LV_KEY_ENTER) {
 447:lvgl/src/core/lv_indev.c ****                 /*Send the ENTER as a normal KEY*/
 448:lvgl/src/core/lv_indev.c ****                 lv_group_send_data(g, LV_KEY_ENTER);
 449:lvgl/src/core/lv_indev.c ****                 if(indev_reset_check(&i->proc)) return;
 450:lvgl/src/core/lv_indev.c **** 
 451:lvgl/src/core/lv_indev.c ****                 if(!dis) lv_event_send(indev_obj_act, LV_EVENT_PRESSED, indev_act);
 452:lvgl/src/core/lv_indev.c ****                 if(indev_reset_check(&i->proc)) return;
 453:lvgl/src/core/lv_indev.c ****             }
 454:lvgl/src/core/lv_indev.c ****             else if(data->key == LV_KEY_ESC) {
 455:lvgl/src/core/lv_indev.c ****                 /*Send the ESC as a normal KEY*/
 456:lvgl/src/core/lv_indev.c ****                 lv_group_send_data(g, LV_KEY_ESC);
 457:lvgl/src/core/lv_indev.c ****                 if(indev_reset_check(&i->proc)) return;
 458:lvgl/src/core/lv_indev.c **** 
 459:lvgl/src/core/lv_indev.c ****                 lv_event_send(indev_obj_act, LV_EVENT_CANCEL, indev_act);
 460:lvgl/src/core/lv_indev.c ****                 if(indev_reset_check(&i->proc)) return;
 461:lvgl/src/core/lv_indev.c ****             }
 462:lvgl/src/core/lv_indev.c ****             /*Just send other keys to the object (e.g. 'A' or `LV_GROUP_KEY_RIGHT`)*/
 463:lvgl/src/core/lv_indev.c ****             else {
 464:lvgl/src/core/lv_indev.c ****                 lv_group_send_data(g, data->key);
 465:lvgl/src/core/lv_indev.c ****                 if(indev_reset_check(&i->proc)) return;
 466:lvgl/src/core/lv_indev.c ****             }
 467:lvgl/src/core/lv_indev.c ****         }
 468:lvgl/src/core/lv_indev.c ****     }
 469:lvgl/src/core/lv_indev.c ****     /*Pressing*/
 470:lvgl/src/core/lv_indev.c ****     else if(!dis && data->state == LV_INDEV_STATE_PRESSED && prev_state == LV_INDEV_STATE_PRESSED) 
 471:lvgl/src/core/lv_indev.c **** 
 472:lvgl/src/core/lv_indev.c ****         if(data->key == LV_KEY_ENTER) {
 473:lvgl/src/core/lv_indev.c ****             lv_event_send(indev_obj_act, LV_EVENT_PRESSING, indev_act);
 474:lvgl/src/core/lv_indev.c ****             if(indev_reset_check(&i->proc)) return;
 475:lvgl/src/core/lv_indev.c ****         }
 476:lvgl/src/core/lv_indev.c **** 
 477:lvgl/src/core/lv_indev.c ****         /*Long press time has elapsed?*/
 478:lvgl/src/core/lv_indev.c ****         if(i->proc.long_pr_sent == 0 && lv_tick_elaps(i->proc.pr_timestamp) > i->driver->long_press
 479:lvgl/src/core/lv_indev.c ****             i->proc.long_pr_sent = 1;
 480:lvgl/src/core/lv_indev.c ****             if(data->key == LV_KEY_ENTER) {
 481:lvgl/src/core/lv_indev.c ****                 i->proc.longpr_rep_timestamp = lv_tick_get();
 482:lvgl/src/core/lv_indev.c ****                 lv_event_send(indev_obj_act, LV_EVENT_LONG_PRESSED, indev_act);
 483:lvgl/src/core/lv_indev.c ****                 if(indev_reset_check(&i->proc)) return;
 484:lvgl/src/core/lv_indev.c ****             }
 485:lvgl/src/core/lv_indev.c ****         }
 486:lvgl/src/core/lv_indev.c ****         /*Long press repeated time has elapsed?*/
 487:lvgl/src/core/lv_indev.c ****         else if(i->proc.long_pr_sent != 0 &&
ARM GAS  C:\Users\OSD\AppData\Local\Temp\ccrOx18j.s 			page 10


 488:lvgl/src/core/lv_indev.c ****                 lv_tick_elaps(i->proc.longpr_rep_timestamp) > i->driver->long_press_repeat_time) {
 489:lvgl/src/core/lv_indev.c **** 
 490:lvgl/src/core/lv_indev.c ****             i->proc.longpr_rep_timestamp = lv_tick_get();
 491:lvgl/src/core/lv_indev.c **** 
 492:lvgl/src/core/lv_indev.c ****             /*Send LONG_PRESS_REP on ENTER*/
 493:lvgl/src/core/lv_indev.c ****             if(data->key == LV_KEY_ENTER) {
 494:lvgl/src/core/lv_indev.c ****                 lv_event_send(indev_obj_act, LV_EVENT_LONG_PRESSED_REPEAT, indev_act);
 495:lvgl/src/core/lv_indev.c ****                 if(indev_reset_check(&i->proc)) return;
 496:lvgl/src/core/lv_indev.c ****             }
 497:lvgl/src/core/lv_indev.c ****             /*Move the focus on NEXT again*/
 498:lvgl/src/core/lv_indev.c ****             else if(data->key == LV_KEY_NEXT) {
 499:lvgl/src/core/lv_indev.c ****                 lv_group_set_editing(g, false); /*Editing is not used by KEYPAD is be sure it is di
 500:lvgl/src/core/lv_indev.c ****                 lv_group_focus_next(g);
 501:lvgl/src/core/lv_indev.c ****                 if(indev_reset_check(&i->proc)) return;
 502:lvgl/src/core/lv_indev.c ****             }
 503:lvgl/src/core/lv_indev.c ****             /*Move the focus on PREV again*/
 504:lvgl/src/core/lv_indev.c ****             else if(data->key == LV_KEY_PREV) {
 505:lvgl/src/core/lv_indev.c ****                 lv_group_set_editing(g, false); /*Editing is not used by KEYPAD is be sure it is di
 506:lvgl/src/core/lv_indev.c ****                 lv_group_focus_prev(g);
 507:lvgl/src/core/lv_indev.c ****                 if(indev_reset_check(&i->proc)) return;
 508:lvgl/src/core/lv_indev.c ****             }
 509:lvgl/src/core/lv_indev.c ****             /*Just send other keys again to the object (e.g. 'A' or `LV_GROUP_KEY_RIGHT)*/
 510:lvgl/src/core/lv_indev.c ****             else {
 511:lvgl/src/core/lv_indev.c ****                 lv_group_send_data(g, data->key);
 512:lvgl/src/core/lv_indev.c ****                 if(indev_reset_check(&i->proc)) return;
 513:lvgl/src/core/lv_indev.c ****             }
 514:lvgl/src/core/lv_indev.c ****         }
 515:lvgl/src/core/lv_indev.c ****     }
 516:lvgl/src/core/lv_indev.c ****     /*Release happened*/
 517:lvgl/src/core/lv_indev.c ****     else if(!dis && data->state == LV_INDEV_STATE_RELEASED && prev_state == LV_INDEV_STATE_PRESSED)
 518:lvgl/src/core/lv_indev.c ****         LV_LOG_INFO("%" LV_PRIu32 " key is released", data->key);
 519:lvgl/src/core/lv_indev.c ****         /*The user might clear the key when it was released. Always release the pressed key*/
 520:lvgl/src/core/lv_indev.c ****         data->key = prev_key;
 521:lvgl/src/core/lv_indev.c ****         if(data->key == LV_KEY_ENTER) {
 522:lvgl/src/core/lv_indev.c **** 
 523:lvgl/src/core/lv_indev.c ****             lv_event_send(indev_obj_act, LV_EVENT_RELEASED, indev_act);
 524:lvgl/src/core/lv_indev.c ****             if(indev_reset_check(&i->proc)) return;
 525:lvgl/src/core/lv_indev.c **** 
 526:lvgl/src/core/lv_indev.c ****             if(i->proc.long_pr_sent == 0) {
 527:lvgl/src/core/lv_indev.c ****                 lv_event_send(indev_obj_act, LV_EVENT_SHORT_CLICKED, indev_act);
 528:lvgl/src/core/lv_indev.c ****                 if(indev_reset_check(&i->proc)) return;
 529:lvgl/src/core/lv_indev.c ****             }
 530:lvgl/src/core/lv_indev.c **** 
 531:lvgl/src/core/lv_indev.c ****             lv_event_send(indev_obj_act, LV_EVENT_CLICKED, indev_act);
 532:lvgl/src/core/lv_indev.c ****             if(indev_reset_check(&i->proc)) return;
 533:lvgl/src/core/lv_indev.c **** 
 534:lvgl/src/core/lv_indev.c ****         }
 535:lvgl/src/core/lv_indev.c ****         i->proc.pr_timestamp = 0;
 536:lvgl/src/core/lv_indev.c ****         i->proc.long_pr_sent = 0;
 537:lvgl/src/core/lv_indev.c ****     }
 538:lvgl/src/core/lv_indev.c ****     indev_obj_act = NULL;
 539:lvgl/src/core/lv_indev.c **** }
 540:lvgl/src/core/lv_indev.c **** 
 541:lvgl/src/core/lv_indev.c **** /**
 542:lvgl/src/core/lv_indev.c ****  * Process a new point from LV_INDEV_TYPE_ENCODER input device
 543:lvgl/src/core/lv_indev.c ****  * @param i pointer to an input device
 544:lvgl/src/core/lv_indev.c ****  * @param data pointer to the data read from the input device
ARM GAS  C:\Users\OSD\AppData\Local\Temp\ccrOx18j.s 			page 11


 545:lvgl/src/core/lv_indev.c ****  */
 546:lvgl/src/core/lv_indev.c **** static void indev_encoder_proc(lv_indev_t * i, lv_indev_data_t * data)
 547:lvgl/src/core/lv_indev.c **** {
 548:lvgl/src/core/lv_indev.c ****     if(data->state == LV_INDEV_STATE_PRESSED && i->proc.wait_until_release) return;
 549:lvgl/src/core/lv_indev.c **** 
 550:lvgl/src/core/lv_indev.c ****     if(i->proc.wait_until_release) {
 551:lvgl/src/core/lv_indev.c ****         i->proc.wait_until_release      = 0;
 552:lvgl/src/core/lv_indev.c ****         i->proc.pr_timestamp            = 0;
 553:lvgl/src/core/lv_indev.c ****         i->proc.long_pr_sent            = 0;
 554:lvgl/src/core/lv_indev.c ****         i->proc.types.keypad.last_state = LV_INDEV_STATE_RELEASED; /*To skip the processing of rele
 555:lvgl/src/core/lv_indev.c ****     }
 556:lvgl/src/core/lv_indev.c **** 
 557:lvgl/src/core/lv_indev.c ****     /*Save the last keys before anything else.
 558:lvgl/src/core/lv_indev.c ****      *They need to be already saved if the function returns for any reason*/
 559:lvgl/src/core/lv_indev.c ****     lv_indev_state_t last_state     = i->proc.types.keypad.last_state;
 560:lvgl/src/core/lv_indev.c ****     i->proc.types.keypad.last_state = data->state;
 561:lvgl/src/core/lv_indev.c ****     i->proc.types.keypad.last_key   = data->key;
 562:lvgl/src/core/lv_indev.c **** 
 563:lvgl/src/core/lv_indev.c ****     lv_group_t * g = i->group;
 564:lvgl/src/core/lv_indev.c ****     if(g == NULL) return;
 565:lvgl/src/core/lv_indev.c **** 
 566:lvgl/src/core/lv_indev.c ****     indev_obj_act = lv_group_get_focused(g);
 567:lvgl/src/core/lv_indev.c ****     if(indev_obj_act == NULL) return;
 568:lvgl/src/core/lv_indev.c **** 
 569:lvgl/src/core/lv_indev.c ****     /*Process the steps they are valid only with released button*/
 570:lvgl/src/core/lv_indev.c ****     if(data->state != LV_INDEV_STATE_RELEASED) {
 571:lvgl/src/core/lv_indev.c ****         data->enc_diff = 0;
 572:lvgl/src/core/lv_indev.c ****     }
 573:lvgl/src/core/lv_indev.c **** 
 574:lvgl/src/core/lv_indev.c ****     /*Refresh the focused object. It might change due to lv_group_focus_prev/next*/
 575:lvgl/src/core/lv_indev.c ****     indev_obj_act = lv_group_get_focused(g);
 576:lvgl/src/core/lv_indev.c ****     if(indev_obj_act == NULL) return;
 577:lvgl/src/core/lv_indev.c **** 
 578:lvgl/src/core/lv_indev.c ****     /*Button press happened*/
 579:lvgl/src/core/lv_indev.c ****     if(data->state == LV_INDEV_STATE_PRESSED && last_state == LV_INDEV_STATE_RELEASED) {
 580:lvgl/src/core/lv_indev.c ****         LV_LOG_INFO("pressed");
 581:lvgl/src/core/lv_indev.c **** 
 582:lvgl/src/core/lv_indev.c ****         i->proc.pr_timestamp = lv_tick_get();
 583:lvgl/src/core/lv_indev.c **** 
 584:lvgl/src/core/lv_indev.c ****         if(data->key == LV_KEY_ENTER) {
 585:lvgl/src/core/lv_indev.c ****             bool editable_or_scrollable = lv_obj_is_editable(indev_obj_act) ||
 586:lvgl/src/core/lv_indev.c ****                                           lv_obj_has_flag(indev_obj_act, LV_OBJ_FLAG_SCROLLABLE);
 587:lvgl/src/core/lv_indev.c ****             if(lv_group_get_editing(g) == true || editable_or_scrollable == false) {
 588:lvgl/src/core/lv_indev.c ****                 lv_event_send(indev_obj_act, LV_EVENT_PRESSED, indev_act);
 589:lvgl/src/core/lv_indev.c ****                 if(indev_reset_check(&i->proc)) return;
 590:lvgl/src/core/lv_indev.c ****             }
 591:lvgl/src/core/lv_indev.c ****         }
 592:lvgl/src/core/lv_indev.c ****         else if(data->key == LV_KEY_LEFT) {
 593:lvgl/src/core/lv_indev.c ****             /*emulate encoder left*/
 594:lvgl/src/core/lv_indev.c ****             data->enc_diff--;
 595:lvgl/src/core/lv_indev.c ****         }
 596:lvgl/src/core/lv_indev.c ****         else if(data->key == LV_KEY_RIGHT) {
 597:lvgl/src/core/lv_indev.c ****             /*emulate encoder right*/
 598:lvgl/src/core/lv_indev.c ****             data->enc_diff++;
 599:lvgl/src/core/lv_indev.c ****         }
 600:lvgl/src/core/lv_indev.c ****         else if(data->key == LV_KEY_ESC) {
 601:lvgl/src/core/lv_indev.c ****             /*Send the ESC as a normal KEY*/
ARM GAS  C:\Users\OSD\AppData\Local\Temp\ccrOx18j.s 			page 12


 602:lvgl/src/core/lv_indev.c ****             lv_group_send_data(g, LV_KEY_ESC);
 603:lvgl/src/core/lv_indev.c ****             if(indev_reset_check(&i->proc)) return;
 604:lvgl/src/core/lv_indev.c **** 
 605:lvgl/src/core/lv_indev.c ****             lv_event_send(indev_obj_act, LV_EVENT_CANCEL, indev_act);
 606:lvgl/src/core/lv_indev.c ****             if(indev_reset_check(&i->proc)) return;
 607:lvgl/src/core/lv_indev.c ****         }
 608:lvgl/src/core/lv_indev.c ****         /*Just send other keys to the object (e.g. 'A' or `LV_GROUP_KEY_RIGHT`)*/
 609:lvgl/src/core/lv_indev.c ****         else {
 610:lvgl/src/core/lv_indev.c ****             lv_group_send_data(g, data->key);
 611:lvgl/src/core/lv_indev.c ****             if(indev_reset_check(&i->proc)) return;
 612:lvgl/src/core/lv_indev.c ****         }
 613:lvgl/src/core/lv_indev.c ****     }
 614:lvgl/src/core/lv_indev.c ****     /*Pressing*/
 615:lvgl/src/core/lv_indev.c ****     else if(data->state == LV_INDEV_STATE_PRESSED && last_state == LV_INDEV_STATE_PRESSED) {
 616:lvgl/src/core/lv_indev.c ****         /*Long press*/
 617:lvgl/src/core/lv_indev.c ****         if(i->proc.long_pr_sent == 0 && lv_tick_elaps(i->proc.pr_timestamp) > i->driver->long_press
 618:lvgl/src/core/lv_indev.c **** 
 619:lvgl/src/core/lv_indev.c ****             i->proc.long_pr_sent = 1;
 620:lvgl/src/core/lv_indev.c ****             i->proc.longpr_rep_timestamp = lv_tick_get();
 621:lvgl/src/core/lv_indev.c **** 
 622:lvgl/src/core/lv_indev.c ****             if(data->key == LV_KEY_ENTER) {
 623:lvgl/src/core/lv_indev.c ****                 bool editable_or_scrollable = lv_obj_is_editable(indev_obj_act) ||
 624:lvgl/src/core/lv_indev.c ****                                               lv_obj_has_flag(indev_obj_act, LV_OBJ_FLAG_SCROLLABLE
 625:lvgl/src/core/lv_indev.c **** 
 626:lvgl/src/core/lv_indev.c ****                 /*On enter long press toggle edit mode.*/
 627:lvgl/src/core/lv_indev.c ****                 if(editable_or_scrollable) {
 628:lvgl/src/core/lv_indev.c ****                     /*Don't leave edit mode if there is only one object (nowhere to navigate)*/
 629:lvgl/src/core/lv_indev.c ****                     if(lv_group_get_obj_count(g) > 1) {
 630:lvgl/src/core/lv_indev.c ****                         LV_LOG_INFO("toggling edit mode");
 631:lvgl/src/core/lv_indev.c ****                         lv_group_set_editing(g, lv_group_get_editing(g) ? false : true); /*Toggle e
 632:lvgl/src/core/lv_indev.c ****                         lv_obj_clear_state(indev_obj_act, LV_STATE_PRESSED);    /*Remove the presse
 633:lvgl/src/core/lv_indev.c ****                     }
 634:lvgl/src/core/lv_indev.c ****                 }
 635:lvgl/src/core/lv_indev.c ****                 /*If not editable then just send a long press Call the ancestor's event handler*/
 636:lvgl/src/core/lv_indev.c ****                 else {
 637:lvgl/src/core/lv_indev.c ****                     lv_event_send(indev_obj_act, LV_EVENT_LONG_PRESSED, indev_act);
 638:lvgl/src/core/lv_indev.c ****                     if(indev_reset_check(&i->proc)) return;
 639:lvgl/src/core/lv_indev.c ****                 }
 640:lvgl/src/core/lv_indev.c ****             }
 641:lvgl/src/core/lv_indev.c **** 
 642:lvgl/src/core/lv_indev.c ****             i->proc.long_pr_sent = 1;
 643:lvgl/src/core/lv_indev.c ****         }
 644:lvgl/src/core/lv_indev.c ****         /*Long press repeated time has elapsed?*/
 645:lvgl/src/core/lv_indev.c ****         else if(i->proc.long_pr_sent != 0 && lv_tick_elaps(i->proc.longpr_rep_timestamp) > i->drive
 646:lvgl/src/core/lv_indev.c **** 
 647:lvgl/src/core/lv_indev.c ****             i->proc.longpr_rep_timestamp = lv_tick_get();
 648:lvgl/src/core/lv_indev.c **** 
 649:lvgl/src/core/lv_indev.c ****             if(data->key == LV_KEY_ENTER) {
 650:lvgl/src/core/lv_indev.c ****                 lv_event_send(indev_obj_act, LV_EVENT_LONG_PRESSED_REPEAT, indev_act);
 651:lvgl/src/core/lv_indev.c ****                 if(indev_reset_check(&i->proc)) return;
 652:lvgl/src/core/lv_indev.c ****             }
 653:lvgl/src/core/lv_indev.c ****             else if(data->key == LV_KEY_LEFT) {
 654:lvgl/src/core/lv_indev.c ****                 /*emulate encoder left*/
 655:lvgl/src/core/lv_indev.c ****                 data->enc_diff--;
 656:lvgl/src/core/lv_indev.c ****             }
 657:lvgl/src/core/lv_indev.c ****             else if(data->key == LV_KEY_RIGHT) {
 658:lvgl/src/core/lv_indev.c ****                 /*emulate encoder right*/
ARM GAS  C:\Users\OSD\AppData\Local\Temp\ccrOx18j.s 			page 13


 659:lvgl/src/core/lv_indev.c ****                 data->enc_diff++;
 660:lvgl/src/core/lv_indev.c ****             }
 661:lvgl/src/core/lv_indev.c ****             else {
 662:lvgl/src/core/lv_indev.c ****                 lv_group_send_data(g, data->key);
 663:lvgl/src/core/lv_indev.c ****                 if(indev_reset_check(&i->proc)) return;
 664:lvgl/src/core/lv_indev.c ****             }
 665:lvgl/src/core/lv_indev.c **** 
 666:lvgl/src/core/lv_indev.c ****         }
 667:lvgl/src/core/lv_indev.c **** 
 668:lvgl/src/core/lv_indev.c ****     }
 669:lvgl/src/core/lv_indev.c ****     /*Release happened*/
 670:lvgl/src/core/lv_indev.c ****     else if(data->state == LV_INDEV_STATE_RELEASED && last_state == LV_INDEV_STATE_PRESSED) {
 671:lvgl/src/core/lv_indev.c ****         LV_LOG_INFO("released");
 672:lvgl/src/core/lv_indev.c **** 
 673:lvgl/src/core/lv_indev.c ****         if(data->key == LV_KEY_ENTER) {
 674:lvgl/src/core/lv_indev.c ****             bool editable_or_scrollable = lv_obj_is_editable(indev_obj_act) ||
 675:lvgl/src/core/lv_indev.c ****                                           lv_obj_has_flag(indev_obj_act, LV_OBJ_FLAG_SCROLLABLE);
 676:lvgl/src/core/lv_indev.c **** 
 677:lvgl/src/core/lv_indev.c ****             /*The button was released on a non-editable object. Just send enter*/
 678:lvgl/src/core/lv_indev.c ****             if(editable_or_scrollable == false) {
 679:lvgl/src/core/lv_indev.c ****                 lv_event_send(indev_obj_act, LV_EVENT_RELEASED, indev_act);
 680:lvgl/src/core/lv_indev.c ****                 if(indev_reset_check(&i->proc)) return;
 681:lvgl/src/core/lv_indev.c **** 
 682:lvgl/src/core/lv_indev.c ****                 if(i->proc.long_pr_sent == 0) lv_event_send(indev_obj_act, LV_EVENT_SHORT_CLICKED, 
 683:lvgl/src/core/lv_indev.c ****                 if(indev_reset_check(&i->proc)) return;
 684:lvgl/src/core/lv_indev.c **** 
 685:lvgl/src/core/lv_indev.c ****                 lv_event_send(indev_obj_act, LV_EVENT_CLICKED, indev_act);
 686:lvgl/src/core/lv_indev.c ****                 if(indev_reset_check(&i->proc)) return;
 687:lvgl/src/core/lv_indev.c **** 
 688:lvgl/src/core/lv_indev.c ****             }
 689:lvgl/src/core/lv_indev.c ****             /*An object is being edited and the button is released.*/
 690:lvgl/src/core/lv_indev.c ****             else if(lv_group_get_editing(g)) {
 691:lvgl/src/core/lv_indev.c ****                 /*Ignore long pressed enter release because it comes from mode switch*/
 692:lvgl/src/core/lv_indev.c ****                 if(!i->proc.long_pr_sent || lv_group_get_obj_count(g) <= 1) {
 693:lvgl/src/core/lv_indev.c ****                     lv_event_send(indev_obj_act, LV_EVENT_RELEASED, indev_act);
 694:lvgl/src/core/lv_indev.c ****                     if(indev_reset_check(&i->proc)) return;
 695:lvgl/src/core/lv_indev.c **** 
 696:lvgl/src/core/lv_indev.c ****                     lv_event_send(indev_obj_act, LV_EVENT_SHORT_CLICKED, indev_act);
 697:lvgl/src/core/lv_indev.c ****                     if(indev_reset_check(&i->proc)) return;
 698:lvgl/src/core/lv_indev.c **** 
 699:lvgl/src/core/lv_indev.c ****                     lv_event_send(indev_obj_act, LV_EVENT_CLICKED, indev_act);
 700:lvgl/src/core/lv_indev.c ****                     if(indev_reset_check(&i->proc)) return;
 701:lvgl/src/core/lv_indev.c **** 
 702:lvgl/src/core/lv_indev.c ****                     lv_group_send_data(g, LV_KEY_ENTER);
 703:lvgl/src/core/lv_indev.c ****                     if(indev_reset_check(&i->proc)) return;
 704:lvgl/src/core/lv_indev.c ****                 }
 705:lvgl/src/core/lv_indev.c ****                 else {
 706:lvgl/src/core/lv_indev.c ****                     lv_obj_clear_state(indev_obj_act, LV_STATE_PRESSED);    /*Remove the pressed st
 707:lvgl/src/core/lv_indev.c ****                 }
 708:lvgl/src/core/lv_indev.c ****             }
 709:lvgl/src/core/lv_indev.c ****             /*If the focused object is editable and now in navigate mode then on enter switch edit
 710:lvgl/src/core/lv_indev.c ****                mode*/
 711:lvgl/src/core/lv_indev.c ****             else if(!i->proc.long_pr_sent) {
 712:lvgl/src/core/lv_indev.c ****                 LV_LOG_INFO("entering edit mode");
 713:lvgl/src/core/lv_indev.c ****                 lv_group_set_editing(g, true); /*Set edit mode*/
 714:lvgl/src/core/lv_indev.c ****             }
 715:lvgl/src/core/lv_indev.c ****         }
ARM GAS  C:\Users\OSD\AppData\Local\Temp\ccrOx18j.s 			page 14


 716:lvgl/src/core/lv_indev.c **** 
 717:lvgl/src/core/lv_indev.c ****         i->proc.pr_timestamp = 0;
 718:lvgl/src/core/lv_indev.c ****         i->proc.long_pr_sent = 0;
 719:lvgl/src/core/lv_indev.c ****     }
 720:lvgl/src/core/lv_indev.c ****     indev_obj_act = NULL;
 721:lvgl/src/core/lv_indev.c **** 
 722:lvgl/src/core/lv_indev.c ****     /*if encoder steps or simulated steps via left/right keys*/
 723:lvgl/src/core/lv_indev.c ****     if(data->enc_diff != 0) {
 724:lvgl/src/core/lv_indev.c ****         /*In edit mode send LEFT/RIGHT keys*/
 725:lvgl/src/core/lv_indev.c ****         if(lv_group_get_editing(g)) {
 726:lvgl/src/core/lv_indev.c ****             LV_LOG_INFO("rotated by %+d (edit)", data->enc_diff);
 727:lvgl/src/core/lv_indev.c ****             int32_t s;
 728:lvgl/src/core/lv_indev.c ****             if(data->enc_diff < 0) {
 729:lvgl/src/core/lv_indev.c ****                 for(s = 0; s < -data->enc_diff; s++) {
 730:lvgl/src/core/lv_indev.c ****                     lv_group_send_data(g, LV_KEY_LEFT);
 731:lvgl/src/core/lv_indev.c ****                     if(indev_reset_check(&i->proc)) return;
 732:lvgl/src/core/lv_indev.c ****                 }
 733:lvgl/src/core/lv_indev.c ****             }
 734:lvgl/src/core/lv_indev.c ****             else if(data->enc_diff > 0) {
 735:lvgl/src/core/lv_indev.c ****                 for(s = 0; s < data->enc_diff; s++) {
 736:lvgl/src/core/lv_indev.c ****                     lv_group_send_data(g, LV_KEY_RIGHT);
 737:lvgl/src/core/lv_indev.c ****                     if(indev_reset_check(&i->proc)) return;
 738:lvgl/src/core/lv_indev.c ****                 }
 739:lvgl/src/core/lv_indev.c ****             }
 740:lvgl/src/core/lv_indev.c ****         }
 741:lvgl/src/core/lv_indev.c ****         /*In navigate mode focus on the next/prev objects*/
 742:lvgl/src/core/lv_indev.c ****         else {
 743:lvgl/src/core/lv_indev.c ****             LV_LOG_INFO("rotated by %+d (nav)", data->enc_diff);
 744:lvgl/src/core/lv_indev.c ****             int32_t s;
 745:lvgl/src/core/lv_indev.c ****             if(data->enc_diff < 0) {
 746:lvgl/src/core/lv_indev.c ****                 for(s = 0; s < -data->enc_diff; s++) {
 747:lvgl/src/core/lv_indev.c ****                     lv_group_focus_prev(g);
 748:lvgl/src/core/lv_indev.c ****                     if(indev_reset_check(&i->proc)) return;
 749:lvgl/src/core/lv_indev.c ****                 }
 750:lvgl/src/core/lv_indev.c ****             }
 751:lvgl/src/core/lv_indev.c ****             else if(data->enc_diff > 0) {
 752:lvgl/src/core/lv_indev.c ****                 for(s = 0; s < data->enc_diff; s++) {
 753:lvgl/src/core/lv_indev.c ****                     lv_group_focus_next(g);
 754:lvgl/src/core/lv_indev.c ****                     if(indev_reset_check(&i->proc)) return;
 755:lvgl/src/core/lv_indev.c ****                 }
 756:lvgl/src/core/lv_indev.c ****             }
 757:lvgl/src/core/lv_indev.c ****         }
 758:lvgl/src/core/lv_indev.c ****     }
 759:lvgl/src/core/lv_indev.c **** }
 760:lvgl/src/core/lv_indev.c **** 
 761:lvgl/src/core/lv_indev.c **** /**
 762:lvgl/src/core/lv_indev.c ****  * Process new points from an input device. indev->state.pressed has to be set
 763:lvgl/src/core/lv_indev.c ****  * @param indev pointer to an input device state
 764:lvgl/src/core/lv_indev.c ****  * @param x x coordinate of the next point
 765:lvgl/src/core/lv_indev.c ****  * @param y y coordinate of the next point
 766:lvgl/src/core/lv_indev.c ****  */
 767:lvgl/src/core/lv_indev.c **** static void indev_button_proc(lv_indev_t * i, lv_indev_data_t * data)
 768:lvgl/src/core/lv_indev.c **** {
 769:lvgl/src/core/lv_indev.c ****     /*Die gracefully if i->btn_points is NULL*/
 770:lvgl/src/core/lv_indev.c ****     if(i->btn_points == NULL) {
 771:lvgl/src/core/lv_indev.c ****         LV_LOG_WARN("btn_points is NULL");
 772:lvgl/src/core/lv_indev.c ****         return;
ARM GAS  C:\Users\OSD\AppData\Local\Temp\ccrOx18j.s 			page 15


 773:lvgl/src/core/lv_indev.c ****     }
 774:lvgl/src/core/lv_indev.c **** 
 775:lvgl/src/core/lv_indev.c ****     lv_coord_t x = i->btn_points[data->btn_id].x;
 776:lvgl/src/core/lv_indev.c ****     lv_coord_t y = i->btn_points[data->btn_id].y;
 777:lvgl/src/core/lv_indev.c **** 
 778:lvgl/src/core/lv_indev.c ****     static lv_indev_state_t prev_state = LV_INDEV_STATE_RELEASED;
 779:lvgl/src/core/lv_indev.c ****     if(prev_state != data->state) {
 780:lvgl/src/core/lv_indev.c ****         if(data->state == LV_INDEV_STATE_PRESSED) {
 781:lvgl/src/core/lv_indev.c ****             LV_LOG_INFO("button %" LV_PRIu32 " is pressed (x:%d y:%d)", data->btn_id, x, y);
 782:lvgl/src/core/lv_indev.c ****         }
 783:lvgl/src/core/lv_indev.c ****         else {
 784:lvgl/src/core/lv_indev.c ****             LV_LOG_INFO("button %" LV_PRIu32 " is released (x:%d y:%d)", data->btn_id, x, y);
 785:lvgl/src/core/lv_indev.c ****         }
 786:lvgl/src/core/lv_indev.c ****     }
 787:lvgl/src/core/lv_indev.c **** 
 788:lvgl/src/core/lv_indev.c ****     /*If a new point comes always make a release*/
 789:lvgl/src/core/lv_indev.c ****     if(data->state == LV_INDEV_STATE_PRESSED) {
 790:lvgl/src/core/lv_indev.c ****         if(i->proc.types.pointer.last_point.x != x ||
 791:lvgl/src/core/lv_indev.c ****            i->proc.types.pointer.last_point.y != y) {
 792:lvgl/src/core/lv_indev.c ****             indev_proc_release(&i->proc);
 793:lvgl/src/core/lv_indev.c ****         }
 794:lvgl/src/core/lv_indev.c ****     }
 795:lvgl/src/core/lv_indev.c **** 
 796:lvgl/src/core/lv_indev.c ****     if(indev_reset_check(&i->proc)) return;
 797:lvgl/src/core/lv_indev.c **** 
 798:lvgl/src/core/lv_indev.c ****     /*Save the new points*/
 799:lvgl/src/core/lv_indev.c ****     i->proc.types.pointer.act_point.x = x;
 800:lvgl/src/core/lv_indev.c ****     i->proc.types.pointer.act_point.y = y;
 801:lvgl/src/core/lv_indev.c **** 
 802:lvgl/src/core/lv_indev.c ****     if(data->state == LV_INDEV_STATE_PRESSED) indev_proc_press(&i->proc);
 803:lvgl/src/core/lv_indev.c ****     else indev_proc_release(&i->proc);
 804:lvgl/src/core/lv_indev.c **** 
 805:lvgl/src/core/lv_indev.c ****     if(indev_reset_check(&i->proc)) return;
 806:lvgl/src/core/lv_indev.c **** 
 807:lvgl/src/core/lv_indev.c ****     i->proc.types.pointer.last_point.x = i->proc.types.pointer.act_point.x;
 808:lvgl/src/core/lv_indev.c ****     i->proc.types.pointer.last_point.y = i->proc.types.pointer.act_point.y;
 809:lvgl/src/core/lv_indev.c **** }
 810:lvgl/src/core/lv_indev.c **** 
 811:lvgl/src/core/lv_indev.c **** /**
 812:lvgl/src/core/lv_indev.c ****  * Process the pressed state of LV_INDEV_TYPE_POINTER input devices
 813:lvgl/src/core/lv_indev.c ****  * @param indev pointer to an input device 'proc'
 814:lvgl/src/core/lv_indev.c ****  * @return LV_RES_OK: no indev reset required; LV_RES_INV: indev reset is required
 815:lvgl/src/core/lv_indev.c ****  */
 816:lvgl/src/core/lv_indev.c **** static void indev_proc_press(_lv_indev_proc_t * proc)
 817:lvgl/src/core/lv_indev.c **** {
 818:lvgl/src/core/lv_indev.c ****     LV_LOG_INFO("pressed at x:%d y:%d", proc->types.pointer.act_point.x, proc->types.pointer.act_po
 819:lvgl/src/core/lv_indev.c ****     indev_obj_act = proc->types.pointer.act_obj;
 820:lvgl/src/core/lv_indev.c **** 
 821:lvgl/src/core/lv_indev.c ****     if(proc->wait_until_release != 0) return;
 822:lvgl/src/core/lv_indev.c **** 
 823:lvgl/src/core/lv_indev.c ****     lv_disp_t * disp = indev_act->driver->disp;
 824:lvgl/src/core/lv_indev.c ****     bool new_obj_searched = false;
 825:lvgl/src/core/lv_indev.c **** 
 826:lvgl/src/core/lv_indev.c ****     /*If there is no last object then search*/
 827:lvgl/src/core/lv_indev.c ****     if(indev_obj_act == NULL) {
 828:lvgl/src/core/lv_indev.c ****         indev_obj_act = lv_indev_search_obj(lv_disp_get_layer_sys(disp), &proc->types.pointer.act_p
 829:lvgl/src/core/lv_indev.c ****         if(indev_obj_act == NULL) indev_obj_act = lv_indev_search_obj(lv_disp_get_layer_top(disp),
ARM GAS  C:\Users\OSD\AppData\Local\Temp\ccrOx18j.s 			page 16


 830:lvgl/src/core/lv_indev.c ****                                                                           &proc->types.pointer.act_
 831:lvgl/src/core/lv_indev.c ****         if(indev_obj_act == NULL) indev_obj_act = lv_indev_search_obj(lv_disp_get_scr_act(disp),
 832:lvgl/src/core/lv_indev.c ****                                                                           &proc->types.pointer.act_
 833:lvgl/src/core/lv_indev.c ****         new_obj_searched = true;
 834:lvgl/src/core/lv_indev.c ****     }
 835:lvgl/src/core/lv_indev.c ****     /*If there is last object but it is not scrolled and not protected also search*/
 836:lvgl/src/core/lv_indev.c ****     else if(proc->types.pointer.scroll_obj == NULL &&
 837:lvgl/src/core/lv_indev.c ****             lv_obj_has_flag(indev_obj_act, LV_OBJ_FLAG_PRESS_LOCK) == false) {
 838:lvgl/src/core/lv_indev.c ****         indev_obj_act = lv_indev_search_obj(lv_disp_get_layer_sys(disp), &proc->types.pointer.act_p
 839:lvgl/src/core/lv_indev.c ****         if(indev_obj_act == NULL) indev_obj_act = lv_indev_search_obj(lv_disp_get_layer_top(disp),
 840:lvgl/src/core/lv_indev.c ****                                                                           &proc->types.pointer.act_
 841:lvgl/src/core/lv_indev.c ****         if(indev_obj_act == NULL) indev_obj_act = lv_indev_search_obj(lv_disp_get_scr_act(disp),
 842:lvgl/src/core/lv_indev.c ****                                                                           &proc->types.pointer.act_
 843:lvgl/src/core/lv_indev.c ****         new_obj_searched = true;
 844:lvgl/src/core/lv_indev.c ****     }
 845:lvgl/src/core/lv_indev.c **** 
 846:lvgl/src/core/lv_indev.c ****     /*The last object might have scroll throw. Stop it manually*/
 847:lvgl/src/core/lv_indev.c ****     if(new_obj_searched && proc->types.pointer.last_obj) {
 848:lvgl/src/core/lv_indev.c ****         proc->types.pointer.scroll_throw_vect.x = 0;
 849:lvgl/src/core/lv_indev.c ****         proc->types.pointer.scroll_throw_vect.y = 0;
 850:lvgl/src/core/lv_indev.c ****         _lv_indev_scroll_throw_handler(proc);
 851:lvgl/src/core/lv_indev.c ****         if(indev_reset_check(proc)) return;
 852:lvgl/src/core/lv_indev.c ****     }
 853:lvgl/src/core/lv_indev.c **** 
 854:lvgl/src/core/lv_indev.c ****     /*If a new object was found reset some variables and send a pressed event handler*/
 855:lvgl/src/core/lv_indev.c ****     if(indev_obj_act != proc->types.pointer.act_obj) {
 856:lvgl/src/core/lv_indev.c ****         proc->types.pointer.last_point.x = proc->types.pointer.act_point.x;
 857:lvgl/src/core/lv_indev.c ****         proc->types.pointer.last_point.y = proc->types.pointer.act_point.y;
 858:lvgl/src/core/lv_indev.c **** 
 859:lvgl/src/core/lv_indev.c ****         /*If a new object found the previous was lost, so send a Call the ancestor's event handler*
 860:lvgl/src/core/lv_indev.c ****         if(proc->types.pointer.act_obj != NULL) {
 861:lvgl/src/core/lv_indev.c ****             /*Save the obj because in special cases `act_obj` can change in the Call the ancestor's
 862:lvgl/src/core/lv_indev.c ****             lv_obj_t * last_obj = proc->types.pointer.act_obj;
 863:lvgl/src/core/lv_indev.c **** 
 864:lvgl/src/core/lv_indev.c ****             lv_event_send(last_obj, LV_EVENT_PRESS_LOST, indev_act);
 865:lvgl/src/core/lv_indev.c ****             if(indev_reset_check(proc)) return;
 866:lvgl/src/core/lv_indev.c ****         }
 867:lvgl/src/core/lv_indev.c **** 
 868:lvgl/src/core/lv_indev.c ****         proc->types.pointer.act_obj  = indev_obj_act; /*Save the pressed object*/
 869:lvgl/src/core/lv_indev.c ****         proc->types.pointer.last_obj = indev_obj_act;
 870:lvgl/src/core/lv_indev.c **** 
 871:lvgl/src/core/lv_indev.c ****         if(indev_obj_act != NULL) {
 872:lvgl/src/core/lv_indev.c ****             /*Save the time when the obj pressed to count long press time.*/
 873:lvgl/src/core/lv_indev.c ****             proc->pr_timestamp                 = lv_tick_get();
 874:lvgl/src/core/lv_indev.c ****             proc->long_pr_sent                 = 0;
 875:lvgl/src/core/lv_indev.c ****             proc->types.pointer.scroll_sum.x     = 0;
 876:lvgl/src/core/lv_indev.c ****             proc->types.pointer.scroll_sum.y     = 0;
 877:lvgl/src/core/lv_indev.c ****             proc->types.pointer.scroll_dir = LV_DIR_NONE;
 878:lvgl/src/core/lv_indev.c ****             proc->types.pointer.gesture_dir = LV_DIR_NONE;
 879:lvgl/src/core/lv_indev.c ****             proc->types.pointer.gesture_sent   = 0;
 880:lvgl/src/core/lv_indev.c ****             proc->types.pointer.gesture_sum.x  = 0;
 881:lvgl/src/core/lv_indev.c ****             proc->types.pointer.gesture_sum.y  = 0;
 882:lvgl/src/core/lv_indev.c ****             proc->types.pointer.vect.x         = 0;
 883:lvgl/src/core/lv_indev.c ****             proc->types.pointer.vect.y         = 0;
 884:lvgl/src/core/lv_indev.c **** 
 885:lvgl/src/core/lv_indev.c ****             /*Call the ancestor's event handler about the press*/
 886:lvgl/src/core/lv_indev.c ****             lv_event_send(indev_obj_act, LV_EVENT_PRESSED, indev_act);
ARM GAS  C:\Users\OSD\AppData\Local\Temp\ccrOx18j.s 			page 17


 887:lvgl/src/core/lv_indev.c ****             if(indev_reset_check(proc)) return;
 888:lvgl/src/core/lv_indev.c **** 
 889:lvgl/src/core/lv_indev.c ****             if(indev_act->proc.wait_until_release) return;
 890:lvgl/src/core/lv_indev.c **** 
 891:lvgl/src/core/lv_indev.c ****             /*Handle focus*/
 892:lvgl/src/core/lv_indev.c ****             indev_click_focus(&indev_act->proc);
 893:lvgl/src/core/lv_indev.c ****             if(indev_reset_check(proc)) return;
 894:lvgl/src/core/lv_indev.c **** 
 895:lvgl/src/core/lv_indev.c ****         }
 896:lvgl/src/core/lv_indev.c ****     }
 897:lvgl/src/core/lv_indev.c **** 
 898:lvgl/src/core/lv_indev.c ****     /*Calculate the vector and apply a low pass filter: new value = 0.5 * old_value + 0.5 * new_val
 899:lvgl/src/core/lv_indev.c ****     proc->types.pointer.vect.x = proc->types.pointer.act_point.x - proc->types.pointer.last_point.x
 900:lvgl/src/core/lv_indev.c ****     proc->types.pointer.vect.y = proc->types.pointer.act_point.y - proc->types.pointer.last_point.y
 901:lvgl/src/core/lv_indev.c **** 
 902:lvgl/src/core/lv_indev.c ****     proc->types.pointer.scroll_throw_vect.x = (proc->types.pointer.scroll_throw_vect.x + proc->type
 903:lvgl/src/core/lv_indev.c ****     proc->types.pointer.scroll_throw_vect.y = (proc->types.pointer.scroll_throw_vect.y + proc->type
 904:lvgl/src/core/lv_indev.c **** 
 905:lvgl/src/core/lv_indev.c ****     proc->types.pointer.scroll_throw_vect_ori = proc->types.pointer.scroll_throw_vect;
 906:lvgl/src/core/lv_indev.c **** 
 907:lvgl/src/core/lv_indev.c ****     if(indev_obj_act) {
 908:lvgl/src/core/lv_indev.c ****         lv_event_send(indev_obj_act, LV_EVENT_PRESSING, indev_act);
 909:lvgl/src/core/lv_indev.c ****         if(indev_reset_check(proc)) return;
 910:lvgl/src/core/lv_indev.c **** 
 911:lvgl/src/core/lv_indev.c ****         if(indev_act->proc.wait_until_release) return;
 912:lvgl/src/core/lv_indev.c **** 
 913:lvgl/src/core/lv_indev.c ****         _lv_indev_scroll_handler(proc);
 914:lvgl/src/core/lv_indev.c ****         if(indev_reset_check(proc)) return;
 915:lvgl/src/core/lv_indev.c ****         indev_gesture(proc);
 916:lvgl/src/core/lv_indev.c ****         if(indev_reset_check(proc)) return;
 917:lvgl/src/core/lv_indev.c **** 
 918:lvgl/src/core/lv_indev.c ****         /*If there is no scrolling then check for long press time*/
 919:lvgl/src/core/lv_indev.c ****         if(proc->types.pointer.scroll_obj == NULL && proc->long_pr_sent == 0) {
 920:lvgl/src/core/lv_indev.c ****             /*Call the ancestor's event handler about the long press if enough time elapsed*/
 921:lvgl/src/core/lv_indev.c ****             if(lv_tick_elaps(proc->pr_timestamp) > indev_act->driver->long_press_time) {
 922:lvgl/src/core/lv_indev.c ****                 lv_event_send(indev_obj_act, LV_EVENT_LONG_PRESSED, indev_act);
 923:lvgl/src/core/lv_indev.c ****                 if(indev_reset_check(proc)) return;
 924:lvgl/src/core/lv_indev.c **** 
 925:lvgl/src/core/lv_indev.c ****                 /*Mark the Call the ancestor's event handler sending to do not send it again*/
 926:lvgl/src/core/lv_indev.c ****                 proc->long_pr_sent = 1;
 927:lvgl/src/core/lv_indev.c **** 
 928:lvgl/src/core/lv_indev.c ****                 /*Save the long press time stamp for the long press repeat handler*/
 929:lvgl/src/core/lv_indev.c ****                 proc->longpr_rep_timestamp = lv_tick_get();
 930:lvgl/src/core/lv_indev.c ****             }
 931:lvgl/src/core/lv_indev.c ****         }
 932:lvgl/src/core/lv_indev.c **** 
 933:lvgl/src/core/lv_indev.c ****         /*Send long press repeated Call the ancestor's event handler*/
 934:lvgl/src/core/lv_indev.c ****         if(proc->types.pointer.scroll_obj == NULL && proc->long_pr_sent == 1) {
 935:lvgl/src/core/lv_indev.c ****             /*Call the ancestor's event handler about the long press repeat if enough time elapsed*
 936:lvgl/src/core/lv_indev.c ****             if(lv_tick_elaps(proc->longpr_rep_timestamp) > indev_act->driver->long_press_repeat_tim
 937:lvgl/src/core/lv_indev.c ****                 lv_event_send(indev_obj_act, LV_EVENT_LONG_PRESSED_REPEAT, indev_act);
 938:lvgl/src/core/lv_indev.c ****                 if(indev_reset_check(proc)) return;
 939:lvgl/src/core/lv_indev.c ****                 proc->longpr_rep_timestamp = lv_tick_get();
 940:lvgl/src/core/lv_indev.c ****             }
 941:lvgl/src/core/lv_indev.c ****         }
 942:lvgl/src/core/lv_indev.c ****     }
 943:lvgl/src/core/lv_indev.c **** }
ARM GAS  C:\Users\OSD\AppData\Local\Temp\ccrOx18j.s 			page 18


 944:lvgl/src/core/lv_indev.c **** 
 945:lvgl/src/core/lv_indev.c **** /**
 946:lvgl/src/core/lv_indev.c ****  * Process the released state of LV_INDEV_TYPE_POINTER input devices
 947:lvgl/src/core/lv_indev.c ****  * @param proc pointer to an input device 'proc'
 948:lvgl/src/core/lv_indev.c ****  */
 949:lvgl/src/core/lv_indev.c **** static void indev_proc_release(_lv_indev_proc_t * proc)
 950:lvgl/src/core/lv_indev.c **** {
 951:lvgl/src/core/lv_indev.c ****     if(proc->wait_until_release != 0) {
 952:lvgl/src/core/lv_indev.c ****         lv_event_send(proc->types.pointer.act_obj, LV_EVENT_PRESS_LOST, indev_act);
 953:lvgl/src/core/lv_indev.c ****         if(indev_reset_check(proc)) return;
 954:lvgl/src/core/lv_indev.c **** 
 955:lvgl/src/core/lv_indev.c ****         proc->types.pointer.act_obj  = NULL;
 956:lvgl/src/core/lv_indev.c ****         proc->types.pointer.last_obj = NULL;
 957:lvgl/src/core/lv_indev.c ****         proc->pr_timestamp           = 0;
 958:lvgl/src/core/lv_indev.c ****         proc->longpr_rep_timestamp   = 0;
 959:lvgl/src/core/lv_indev.c ****         proc->wait_until_release     = 0;
 960:lvgl/src/core/lv_indev.c ****     }
 961:lvgl/src/core/lv_indev.c ****     indev_obj_act = proc->types.pointer.act_obj;
 962:lvgl/src/core/lv_indev.c ****     lv_obj_t * scroll_obj = proc->types.pointer.scroll_obj;
 963:lvgl/src/core/lv_indev.c **** 
 964:lvgl/src/core/lv_indev.c ****     /*Forget the act obj and send a released Call the ancestor's event handler*/
 965:lvgl/src/core/lv_indev.c ****     if(indev_obj_act) {
 966:lvgl/src/core/lv_indev.c ****         LV_LOG_INFO("released");
 967:lvgl/src/core/lv_indev.c **** 
 968:lvgl/src/core/lv_indev.c ****         /*Send RELEASE Call the ancestor's event handler and event*/
 969:lvgl/src/core/lv_indev.c ****         lv_event_send(indev_obj_act, LV_EVENT_RELEASED, indev_act);
 970:lvgl/src/core/lv_indev.c ****         if(indev_reset_check(proc)) return;
 971:lvgl/src/core/lv_indev.c **** 
 972:lvgl/src/core/lv_indev.c ****         /*Send CLICK if no scrolling*/
 973:lvgl/src/core/lv_indev.c ****         if(scroll_obj == NULL) {
 974:lvgl/src/core/lv_indev.c ****             if(proc->long_pr_sent == 0) {
 975:lvgl/src/core/lv_indev.c ****                 lv_event_send(indev_obj_act, LV_EVENT_SHORT_CLICKED, indev_act);
 976:lvgl/src/core/lv_indev.c ****                 if(indev_reset_check(proc)) return;
 977:lvgl/src/core/lv_indev.c ****             }
 978:lvgl/src/core/lv_indev.c **** 
 979:lvgl/src/core/lv_indev.c ****             lv_event_send(indev_obj_act, LV_EVENT_CLICKED, indev_act);
 980:lvgl/src/core/lv_indev.c ****             if(indev_reset_check(proc)) return;
 981:lvgl/src/core/lv_indev.c ****         }
 982:lvgl/src/core/lv_indev.c **** 
 983:lvgl/src/core/lv_indev.c ****         proc->types.pointer.act_obj = NULL;
 984:lvgl/src/core/lv_indev.c ****         proc->pr_timestamp          = 0;
 985:lvgl/src/core/lv_indev.c ****         proc->longpr_rep_timestamp  = 0;
 986:lvgl/src/core/lv_indev.c **** 
 987:lvgl/src/core/lv_indev.c ****         /*Get the transformed vector with this object*/
 988:lvgl/src/core/lv_indev.c ****         if(scroll_obj) {
 989:lvgl/src/core/lv_indev.c ****             int16_t angle = 0;
 990:lvgl/src/core/lv_indev.c ****             int16_t zoom = 256;
 991:lvgl/src/core/lv_indev.c ****             lv_point_t pivot = { 0, 0 };
 992:lvgl/src/core/lv_indev.c ****             lv_obj_t * parent = scroll_obj;
 993:lvgl/src/core/lv_indev.c ****             while(parent) {
 994:lvgl/src/core/lv_indev.c ****                 angle += lv_obj_get_style_transform_angle(parent, 0);
 995:lvgl/src/core/lv_indev.c ****                 zoom *= (lv_obj_get_style_transform_zoom(parent, 0) / 256);
 996:lvgl/src/core/lv_indev.c ****                 parent = lv_obj_get_parent(parent);
 997:lvgl/src/core/lv_indev.c ****             }
 998:lvgl/src/core/lv_indev.c **** 
 999:lvgl/src/core/lv_indev.c ****             if(angle != 0 || zoom != LV_IMG_ZOOM_NONE) {
1000:lvgl/src/core/lv_indev.c ****                 angle = -angle;
ARM GAS  C:\Users\OSD\AppData\Local\Temp\ccrOx18j.s 			page 19


1001:lvgl/src/core/lv_indev.c ****                 zoom = (256 * 256) / zoom;
1002:lvgl/src/core/lv_indev.c ****                 lv_point_transform(&proc->types.pointer.scroll_throw_vect, angle, zoom, &pivot);
1003:lvgl/src/core/lv_indev.c ****                 lv_point_transform(&proc->types.pointer.scroll_throw_vect_ori, angle, zoom, &pivot)
1004:lvgl/src/core/lv_indev.c ****             }
1005:lvgl/src/core/lv_indev.c ****         }
1006:lvgl/src/core/lv_indev.c **** 
1007:lvgl/src/core/lv_indev.c ****     }
1008:lvgl/src/core/lv_indev.c **** 
1009:lvgl/src/core/lv_indev.c ****     /*The reset can be set in the Call the ancestor's event handler function.
1010:lvgl/src/core/lv_indev.c ****      * In case of reset query ignore the remaining parts.*/
1011:lvgl/src/core/lv_indev.c ****     if(scroll_obj) {
1012:lvgl/src/core/lv_indev.c ****         _lv_indev_scroll_throw_handler(proc);
1013:lvgl/src/core/lv_indev.c ****         if(indev_reset_check(proc)) return;
1014:lvgl/src/core/lv_indev.c ****     }
1015:lvgl/src/core/lv_indev.c **** }
1016:lvgl/src/core/lv_indev.c **** 
1017:lvgl/src/core/lv_indev.c **** /**
1018:lvgl/src/core/lv_indev.c ****  * Process a new point from LV_INDEV_TYPE_BUTTON input device
1019:lvgl/src/core/lv_indev.c ****  * @param i pointer to an input device
1020:lvgl/src/core/lv_indev.c ****  * @param data pointer to the data read from the input device
1021:lvgl/src/core/lv_indev.c ****  * Reset input device if a reset query has been sent to it
1022:lvgl/src/core/lv_indev.c ****  * @param indev pointer to an input device
1023:lvgl/src/core/lv_indev.c ****  */
1024:lvgl/src/core/lv_indev.c **** static void indev_proc_reset_query_handler(lv_indev_t * indev)
1025:lvgl/src/core/lv_indev.c **** {
  28              		.loc 1 1025 1 view -0
  29              		.cfi_startproc
  30              		@ args = 0, pretend = 0, frame = 0
  31              		@ frame_needed = 0, uses_anonymous_args = 0
  32              		@ link register save eliminated.
1026:lvgl/src/core/lv_indev.c ****     if(indev->proc.reset_query) {
  33              		.loc 1 1026 5 view .LVU1
  34              		.loc 1 1026 8 is_stmt 0 view .LVU2
  35 0000 4379     		ldrb	r3, [r0, #5]	@ zero_extendqisi2
  36              		.loc 1 1026 7 view .LVU3
  37 0002 13F0020F 		tst	r3, #2
  38 0006 1DD0     		beq	.L1
1027:lvgl/src/core/lv_indev.c ****         indev->proc.types.pointer.act_obj           = NULL;
  39              		.loc 1 1027 9 is_stmt 1 view .LVU4
  40              		.loc 1 1027 53 is_stmt 0 view .LVU5
  41 0008 0023     		movs	r3, #0
  42 000a 8362     		str	r3, [r0, #40]
1028:lvgl/src/core/lv_indev.c ****         indev->proc.types.pointer.last_obj          = NULL;
  43              		.loc 1 1028 9 is_stmt 1 view .LVU6
  44              		.loc 1 1028 53 is_stmt 0 view .LVU7
  45 000c C362     		str	r3, [r0, #44]
1029:lvgl/src/core/lv_indev.c ****         indev->proc.types.pointer.scroll_obj          = NULL;
  46              		.loc 1 1029 9 is_stmt 1 view .LVU8
  47              		.loc 1 1029 55 is_stmt 0 view .LVU9
  48 000e 0363     		str	r3, [r0, #48]
1030:lvgl/src/core/lv_indev.c ****         indev->proc.long_pr_sent                    = 0;
  49              		.loc 1 1030 9 is_stmt 1 view .LVU10
  50              		.loc 1 1030 53 is_stmt 0 view .LVU11
  51 0010 4279     		ldrb	r2, [r0, #5]	@ zero_extendqisi2
  52 0012 63F30002 		bfi	r2, r3, #0, #1
  53 0016 4271     		strb	r2, [r0, #5]
1031:lvgl/src/core/lv_indev.c ****         indev->proc.pr_timestamp                    = 0;
ARM GAS  C:\Users\OSD\AppData\Local\Temp\ccrOx18j.s 			page 20


  54              		.loc 1 1031 9 is_stmt 1 view .LVU12
  55              		.loc 1 1031 53 is_stmt 0 view .LVU13
  56 0018 8364     		str	r3, [r0, #72]
1032:lvgl/src/core/lv_indev.c ****         indev->proc.longpr_rep_timestamp            = 0;
  57              		.loc 1 1032 9 is_stmt 1 view .LVU14
  58              		.loc 1 1032 53 is_stmt 0 view .LVU15
  59 001a C364     		str	r3, [r0, #76]
1033:lvgl/src/core/lv_indev.c ****         indev->proc.types.pointer.scroll_sum.x        = 0;
  60              		.loc 1 1033 9 is_stmt 1 view .LVU16
  61              		.loc 1 1033 55 is_stmt 0 view .LVU17
  62 001c 8383     		strh	r3, [r0, #28]	@ movhi
1034:lvgl/src/core/lv_indev.c ****         indev->proc.types.pointer.scroll_sum.y        = 0;
  63              		.loc 1 1034 9 is_stmt 1 view .LVU18
  64              		.loc 1 1034 55 is_stmt 0 view .LVU19
  65 001e C383     		strh	r3, [r0, #30]	@ movhi
1035:lvgl/src/core/lv_indev.c ****         indev->proc.types.pointer.scroll_dir = LV_DIR_NONE;
  66              		.loc 1 1035 9 is_stmt 1 view .LVU20
  67              		.loc 1 1035 46 is_stmt 0 view .LVU21
  68 0020 90F84420 		ldrb	r2, [r0, #68]	@ zero_extendqisi2
  69 0024 63F30302 		bfi	r2, r3, #0, #4
  70 0028 80F84420 		strb	r2, [r0, #68]
1036:lvgl/src/core/lv_indev.c ****         indev->proc.types.pointer.scroll_throw_vect.x = 0;
  71              		.loc 1 1036 9 is_stmt 1 view .LVU22
  72              		.loc 1 1036 55 is_stmt 0 view .LVU23
  73 002c 0384     		strh	r3, [r0, #32]	@ movhi
1037:lvgl/src/core/lv_indev.c ****         indev->proc.types.pointer.scroll_throw_vect.y = 0;
  74              		.loc 1 1037 9 is_stmt 1 view .LVU24
  75              		.loc 1 1037 55 is_stmt 0 view .LVU25
  76 002e 4384     		strh	r3, [r0, #34]	@ movhi
1038:lvgl/src/core/lv_indev.c ****         indev->proc.types.pointer.gesture_sum.x     = 0;
  77              		.loc 1 1038 9 is_stmt 1 view .LVU26
  78              		.loc 1 1038 53 is_stmt 0 view .LVU27
  79 0030 A0F84030 		strh	r3, [r0, #64]	@ movhi
1039:lvgl/src/core/lv_indev.c ****         indev->proc.types.pointer.gesture_sum.y     = 0;
  80              		.loc 1 1039 9 is_stmt 1 view .LVU28
  81              		.loc 1 1039 53 is_stmt 0 view .LVU29
  82 0034 A0F84230 		strh	r3, [r0, #66]	@ movhi
1040:lvgl/src/core/lv_indev.c ****         indev->proc.reset_query                     = 0;
  83              		.loc 1 1040 9 is_stmt 1 view .LVU30
  84              		.loc 1 1040 53 is_stmt 0 view .LVU31
  85 0038 4279     		ldrb	r2, [r0, #5]	@ zero_extendqisi2
  86 003a 63F34102 		bfi	r2, r3, #1, #1
  87 003e 4271     		strb	r2, [r0, #5]
1041:lvgl/src/core/lv_indev.c ****         indev_obj_act                               = NULL;
  88              		.loc 1 1041 9 is_stmt 1 view .LVU32
  89              		.loc 1 1041 53 is_stmt 0 view .LVU33
  90 0040 014A     		ldr	r2, .L3
  91 0042 1360     		str	r3, [r2]
  92              	.L1:
1042:lvgl/src/core/lv_indev.c ****     }
1043:lvgl/src/core/lv_indev.c **** }
  93              		.loc 1 1043 1 view .LVU34
  94 0044 7047     		bx	lr
  95              	.L4:
  96 0046 00BF     		.align	2
  97              	.L3:
  98 0048 00000000 		.word	.LANCHOR0
ARM GAS  C:\Users\OSD\AppData\Local\Temp\ccrOx18j.s 			page 21


  99              		.cfi_endproc
 100              	.LFE192:
 102              		.section	.text.indev_reset_check,"ax",%progbits
 103              		.align	1
 104              		.syntax unified
 105              		.thumb
 106              		.thumb_func
 108              	indev_reset_check:
 109              	.LVL1:
 110              	.LFB195:
1044:lvgl/src/core/lv_indev.c **** 
1045:lvgl/src/core/lv_indev.c **** /**
1046:lvgl/src/core/lv_indev.c ****  * Handle focus/defocus on click for POINTER input devices
1047:lvgl/src/core/lv_indev.c ****  * @param proc pointer to the state of the indev
1048:lvgl/src/core/lv_indev.c ****  */
1049:lvgl/src/core/lv_indev.c **** static void indev_click_focus(_lv_indev_proc_t * proc)
1050:lvgl/src/core/lv_indev.c **** {
1051:lvgl/src/core/lv_indev.c ****     /*Handle click focus*/
1052:lvgl/src/core/lv_indev.c ****     if(lv_obj_has_flag(indev_obj_act, LV_OBJ_FLAG_CLICK_FOCUSABLE) == false ||
1053:lvgl/src/core/lv_indev.c ****        proc->types.pointer.last_pressed == indev_obj_act) {
1054:lvgl/src/core/lv_indev.c ****         return;
1055:lvgl/src/core/lv_indev.c ****     }
1056:lvgl/src/core/lv_indev.c **** 
1057:lvgl/src/core/lv_indev.c ****     lv_group_t * g_act = lv_obj_get_group(indev_obj_act);
1058:lvgl/src/core/lv_indev.c ****     lv_group_t * g_prev = proc->types.pointer.last_pressed ? lv_obj_get_group(proc->types.pointer.l
1059:lvgl/src/core/lv_indev.c **** 
1060:lvgl/src/core/lv_indev.c ****     /*If both the last and act. obj. are in the same group (or have no group)*/
1061:lvgl/src/core/lv_indev.c ****     if(g_act == g_prev) {
1062:lvgl/src/core/lv_indev.c ****         /*The objects are in a group*/
1063:lvgl/src/core/lv_indev.c ****         if(g_act) {
1064:lvgl/src/core/lv_indev.c ****             lv_group_focus_obj(indev_obj_act);
1065:lvgl/src/core/lv_indev.c ****             if(indev_reset_check(proc)) return;
1066:lvgl/src/core/lv_indev.c ****         }
1067:lvgl/src/core/lv_indev.c ****         /*The object are not in group*/
1068:lvgl/src/core/lv_indev.c ****         else {
1069:lvgl/src/core/lv_indev.c ****             if(proc->types.pointer.last_pressed) {
1070:lvgl/src/core/lv_indev.c ****                 lv_event_send(proc->types.pointer.last_pressed, LV_EVENT_DEFOCUSED, indev_act);
1071:lvgl/src/core/lv_indev.c ****                 if(indev_reset_check(proc)) return;
1072:lvgl/src/core/lv_indev.c ****             }
1073:lvgl/src/core/lv_indev.c **** 
1074:lvgl/src/core/lv_indev.c ****             lv_event_send(indev_obj_act, LV_EVENT_FOCUSED, indev_act);
1075:lvgl/src/core/lv_indev.c ****             if(indev_reset_check(proc)) return;
1076:lvgl/src/core/lv_indev.c ****         }
1077:lvgl/src/core/lv_indev.c ****     }
1078:lvgl/src/core/lv_indev.c ****     /*The object are not in the same group (in different groups or one has no group)*/
1079:lvgl/src/core/lv_indev.c ****     else {
1080:lvgl/src/core/lv_indev.c ****         /*If the prev. obj. is not in a group then defocus it.*/
1081:lvgl/src/core/lv_indev.c ****         if(g_prev == NULL && proc->types.pointer.last_pressed) {
1082:lvgl/src/core/lv_indev.c ****             lv_event_send(proc->types.pointer.last_pressed, LV_EVENT_DEFOCUSED, indev_act);
1083:lvgl/src/core/lv_indev.c ****             if(indev_reset_check(proc)) return;
1084:lvgl/src/core/lv_indev.c ****         }
1085:lvgl/src/core/lv_indev.c ****         /*Focus on a non-group object*/
1086:lvgl/src/core/lv_indev.c ****         else {
1087:lvgl/src/core/lv_indev.c ****             if(proc->types.pointer.last_pressed) {
1088:lvgl/src/core/lv_indev.c ****                 /*If the prev. object also wasn't in a group defocus it*/
1089:lvgl/src/core/lv_indev.c ****                 if(g_prev == NULL) {
1090:lvgl/src/core/lv_indev.c ****                     lv_event_send(proc->types.pointer.last_pressed, LV_EVENT_DEFOCUSED, indev_act);
ARM GAS  C:\Users\OSD\AppData\Local\Temp\ccrOx18j.s 			page 22


1091:lvgl/src/core/lv_indev.c ****                     if(indev_reset_check(proc)) return;
1092:lvgl/src/core/lv_indev.c ****                 }
1093:lvgl/src/core/lv_indev.c ****                 /*If the prev. object also was in a group at least "LEAVE" it instead of defocus*/
1094:lvgl/src/core/lv_indev.c ****                 else {
1095:lvgl/src/core/lv_indev.c ****                     lv_event_send(proc->types.pointer.last_pressed, LV_EVENT_LEAVE, indev_act);
1096:lvgl/src/core/lv_indev.c ****                     if(indev_reset_check(proc)) return;
1097:lvgl/src/core/lv_indev.c ****                 }
1098:lvgl/src/core/lv_indev.c ****             }
1099:lvgl/src/core/lv_indev.c ****         }
1100:lvgl/src/core/lv_indev.c **** 
1101:lvgl/src/core/lv_indev.c ****         /*Focus to the act. in its group*/
1102:lvgl/src/core/lv_indev.c ****         if(g_act) {
1103:lvgl/src/core/lv_indev.c ****             lv_group_focus_obj(indev_obj_act);
1104:lvgl/src/core/lv_indev.c ****             if(indev_reset_check(proc)) return;
1105:lvgl/src/core/lv_indev.c ****         }
1106:lvgl/src/core/lv_indev.c ****         else {
1107:lvgl/src/core/lv_indev.c ****             lv_event_send(indev_obj_act, LV_EVENT_FOCUSED, indev_act);
1108:lvgl/src/core/lv_indev.c ****             if(indev_reset_check(proc)) return;
1109:lvgl/src/core/lv_indev.c ****         }
1110:lvgl/src/core/lv_indev.c ****     }
1111:lvgl/src/core/lv_indev.c ****     proc->types.pointer.last_pressed = indev_obj_act;
1112:lvgl/src/core/lv_indev.c **** }
1113:lvgl/src/core/lv_indev.c **** 
1114:lvgl/src/core/lv_indev.c **** /**
1115:lvgl/src/core/lv_indev.c **** * Handle the gesture of indev_proc_p->types.pointer.act_obj
1116:lvgl/src/core/lv_indev.c **** * @param indev pointer to an input device state
1117:lvgl/src/core/lv_indev.c **** */
1118:lvgl/src/core/lv_indev.c **** void indev_gesture(_lv_indev_proc_t * proc)
1119:lvgl/src/core/lv_indev.c **** {
1120:lvgl/src/core/lv_indev.c **** 
1121:lvgl/src/core/lv_indev.c ****     if(proc->types.pointer.scroll_obj) return;
1122:lvgl/src/core/lv_indev.c ****     if(proc->types.pointer.gesture_sent) return;
1123:lvgl/src/core/lv_indev.c **** 
1124:lvgl/src/core/lv_indev.c ****     lv_obj_t * gesture_obj = proc->types.pointer.act_obj;
1125:lvgl/src/core/lv_indev.c **** 
1126:lvgl/src/core/lv_indev.c ****     /*If gesture parent is active check recursively the gesture attribute*/
1127:lvgl/src/core/lv_indev.c ****     while(gesture_obj && lv_obj_has_flag(gesture_obj, LV_OBJ_FLAG_GESTURE_BUBBLE)) {
1128:lvgl/src/core/lv_indev.c ****         gesture_obj = lv_obj_get_parent(gesture_obj);
1129:lvgl/src/core/lv_indev.c ****     }
1130:lvgl/src/core/lv_indev.c **** 
1131:lvgl/src/core/lv_indev.c ****     if(gesture_obj == NULL) return;
1132:lvgl/src/core/lv_indev.c **** 
1133:lvgl/src/core/lv_indev.c ****     if((LV_ABS(proc->types.pointer.vect.x) < indev_act->driver->gesture_min_velocity) &&
1134:lvgl/src/core/lv_indev.c ****        (LV_ABS(proc->types.pointer.vect.y) < indev_act->driver->gesture_min_velocity)) {
1135:lvgl/src/core/lv_indev.c ****         proc->types.pointer.gesture_sum.x = 0;
1136:lvgl/src/core/lv_indev.c ****         proc->types.pointer.gesture_sum.y = 0;
1137:lvgl/src/core/lv_indev.c ****     }
1138:lvgl/src/core/lv_indev.c **** 
1139:lvgl/src/core/lv_indev.c ****     /*Count the movement by gesture*/
1140:lvgl/src/core/lv_indev.c ****     proc->types.pointer.gesture_sum.x += proc->types.pointer.vect.x;
1141:lvgl/src/core/lv_indev.c ****     proc->types.pointer.gesture_sum.y += proc->types.pointer.vect.y;
1142:lvgl/src/core/lv_indev.c **** 
1143:lvgl/src/core/lv_indev.c ****     if((LV_ABS(proc->types.pointer.gesture_sum.x) > indev_act->driver->gesture_limit) ||
1144:lvgl/src/core/lv_indev.c ****        (LV_ABS(proc->types.pointer.gesture_sum.y) > indev_act->driver->gesture_limit)) {
1145:lvgl/src/core/lv_indev.c **** 
1146:lvgl/src/core/lv_indev.c ****         proc->types.pointer.gesture_sent = 1;
1147:lvgl/src/core/lv_indev.c **** 
ARM GAS  C:\Users\OSD\AppData\Local\Temp\ccrOx18j.s 			page 23


1148:lvgl/src/core/lv_indev.c ****         if(LV_ABS(proc->types.pointer.gesture_sum.x) > LV_ABS(proc->types.pointer.gesture_sum.y)) {
1149:lvgl/src/core/lv_indev.c ****             if(proc->types.pointer.gesture_sum.x > 0)
1150:lvgl/src/core/lv_indev.c ****                 proc->types.pointer.gesture_dir = LV_DIR_RIGHT;
1151:lvgl/src/core/lv_indev.c ****             else
1152:lvgl/src/core/lv_indev.c ****                 proc->types.pointer.gesture_dir = LV_DIR_LEFT;
1153:lvgl/src/core/lv_indev.c ****         }
1154:lvgl/src/core/lv_indev.c ****         else {
1155:lvgl/src/core/lv_indev.c ****             if(proc->types.pointer.gesture_sum.y > 0)
1156:lvgl/src/core/lv_indev.c ****                 proc->types.pointer.gesture_dir = LV_DIR_BOTTOM;
1157:lvgl/src/core/lv_indev.c ****             else
1158:lvgl/src/core/lv_indev.c ****                 proc->types.pointer.gesture_dir = LV_DIR_TOP;
1159:lvgl/src/core/lv_indev.c ****         }
1160:lvgl/src/core/lv_indev.c **** 
1161:lvgl/src/core/lv_indev.c ****         lv_event_send(gesture_obj, LV_EVENT_GESTURE, indev_act);
1162:lvgl/src/core/lv_indev.c ****         if(indev_reset_check(proc)) return;
1163:lvgl/src/core/lv_indev.c ****     }
1164:lvgl/src/core/lv_indev.c **** }
1165:lvgl/src/core/lv_indev.c **** 
1166:lvgl/src/core/lv_indev.c **** /**
1167:lvgl/src/core/lv_indev.c ****  * Checks if the reset_query flag has been set. If so, perform necessary global indev cleanup actio
1168:lvgl/src/core/lv_indev.c ****  * @param proc pointer to an input device 'proc'
1169:lvgl/src/core/lv_indev.c ****  * @return true if indev query should be immediately truncated.
1170:lvgl/src/core/lv_indev.c ****  */
1171:lvgl/src/core/lv_indev.c **** static bool indev_reset_check(_lv_indev_proc_t * proc)
1172:lvgl/src/core/lv_indev.c **** {
 111              		.loc 1 1172 1 is_stmt 1 view -0
 112              		.cfi_startproc
 113              		@ args = 0, pretend = 0, frame = 0
 114              		@ frame_needed = 0, uses_anonymous_args = 0
 115              		@ link register save eliminated.
1173:lvgl/src/core/lv_indev.c ****     if(proc->reset_query) {
 116              		.loc 1 1173 5 view .LVU36
 117              		.loc 1 1173 8 is_stmt 0 view .LVU37
 118 0000 4078     		ldrb	r0, [r0, #1]	@ zero_extendqisi2
 119              	.LVL2:
 120              		.loc 1 1173 7 view .LVU38
 121 0002 10F0020F 		tst	r0, #2
 122 0006 02D0     		beq	.L6
1174:lvgl/src/core/lv_indev.c ****         indev_obj_act = NULL;
 123              		.loc 1 1174 9 is_stmt 1 view .LVU39
 124              		.loc 1 1174 23 is_stmt 0 view .LVU40
 125 0008 024B     		ldr	r3, .L7
 126 000a 0022     		movs	r2, #0
 127 000c 1A60     		str	r2, [r3]
 128              	.L6:
1175:lvgl/src/core/lv_indev.c ****     }
1176:lvgl/src/core/lv_indev.c **** 
1177:lvgl/src/core/lv_indev.c ****     return proc->reset_query ? true : false;
 129              		.loc 1 1177 5 is_stmt 1 view .LVU41
1178:lvgl/src/core/lv_indev.c **** }
 130              		.loc 1 1178 1 is_stmt 0 view .LVU42
 131 000e C0F34000 		ubfx	r0, r0, #1, #1
 132 0012 7047     		bx	lr
 133              	.L8:
 134              		.align	2
 135              	.L7:
 136 0014 00000000 		.word	.LANCHOR0
ARM GAS  C:\Users\OSD\AppData\Local\Temp\ccrOx18j.s 			page 24


 137              		.cfi_endproc
 138              	.LFE195:
 140              		.section	.text.indev_click_focus,"ax",%progbits
 141              		.align	1
 142              		.syntax unified
 143              		.thumb
 144              		.thumb_func
 146              	indev_click_focus:
 147              	.LVL3:
 148              	.LFB193:
1050:lvgl/src/core/lv_indev.c ****     /*Handle click focus*/
 149              		.loc 1 1050 1 is_stmt 1 view -0
 150              		.cfi_startproc
 151              		@ args = 0, pretend = 0, frame = 0
 152              		@ frame_needed = 0, uses_anonymous_args = 0
1050:lvgl/src/core/lv_indev.c ****     /*Handle click focus*/
 153              		.loc 1 1050 1 is_stmt 0 view .LVU44
 154 0000 38B5     		push	{r3, r4, r5, lr}
 155              		.cfi_def_cfa_offset 16
 156              		.cfi_offset 3, -16
 157              		.cfi_offset 4, -12
 158              		.cfi_offset 5, -8
 159              		.cfi_offset 14, -4
 160 0002 0446     		mov	r4, r0
1052:lvgl/src/core/lv_indev.c ****        proc->types.pointer.last_pressed == indev_obj_act) {
 161              		.loc 1 1052 5 is_stmt 1 view .LVU45
1052:lvgl/src/core/lv_indev.c ****        proc->types.pointer.last_pressed == indev_obj_act) {
 162              		.loc 1 1052 8 is_stmt 0 view .LVU46
 163 0004 0421     		movs	r1, #4
 164 0006 3E4B     		ldr	r3, .L24
 165 0008 1868     		ldr	r0, [r3]
 166              	.LVL4:
1052:lvgl/src/core/lv_indev.c ****        proc->types.pointer.last_pressed == indev_obj_act) {
 167              		.loc 1 1052 8 view .LVU47
 168 000a FFF7FEFF 		bl	lv_obj_has_flag
 169              	.LVL5:
1052:lvgl/src/core/lv_indev.c ****        proc->types.pointer.last_pressed == indev_obj_act) {
 170              		.loc 1 1052 7 view .LVU48
 171 000e 50B3     		cbz	r0, .L9
1053:lvgl/src/core/lv_indev.c ****         return;
 172              		.loc 1 1053 27 discriminator 1 view .LVU49
 173 0010 236B     		ldr	r3, [r4, #48]
1053:lvgl/src/core/lv_indev.c ****         return;
 174              		.loc 1 1053 41 discriminator 1 view .LVU50
 175 0012 3B4A     		ldr	r2, .L24
 176 0014 1068     		ldr	r0, [r2]
1052:lvgl/src/core/lv_indev.c ****        proc->types.pointer.last_pressed == indev_obj_act) {
 177              		.loc 1 1052 77 discriminator 1 view .LVU51
 178 0016 8342     		cmp	r3, r0
 179 0018 25D0     		beq	.L9
1057:lvgl/src/core/lv_indev.c ****     lv_group_t * g_prev = proc->types.pointer.last_pressed ? lv_obj_get_group(proc->types.pointer.l
 180              		.loc 1 1057 5 is_stmt 1 view .LVU52
1057:lvgl/src/core/lv_indev.c ****     lv_group_t * g_prev = proc->types.pointer.last_pressed ? lv_obj_get_group(proc->types.pointer.l
 181              		.loc 1 1057 26 is_stmt 0 view .LVU53
 182 001a FFF7FEFF 		bl	lv_obj_get_group
 183              	.LVL6:
 184 001e 0546     		mov	r5, r0
ARM GAS  C:\Users\OSD\AppData\Local\Temp\ccrOx18j.s 			page 25


 185              	.LVL7:
1058:lvgl/src/core/lv_indev.c **** 
 186              		.loc 1 1058 5 is_stmt 1 view .LVU54
1058:lvgl/src/core/lv_indev.c **** 
 187              		.loc 1 1058 46 is_stmt 0 view .LVU55
 188 0020 206B     		ldr	r0, [r4, #48]
 189              	.LVL8:
1058:lvgl/src/core/lv_indev.c **** 
 190              		.loc 1 1058 113 view .LVU56
 191 0022 08B1     		cbz	r0, .L11
1058:lvgl/src/core/lv_indev.c **** 
 192              		.loc 1 1058 62 discriminator 1 view .LVU57
 193 0024 FFF7FEFF 		bl	lv_obj_get_group
 194              	.LVL9:
 195              	.L11:
1061:lvgl/src/core/lv_indev.c ****         /*The objects are in a group*/
 196              		.loc 1 1061 5 is_stmt 1 discriminator 4 view .LVU58
1061:lvgl/src/core/lv_indev.c ****         /*The objects are in a group*/
 197              		.loc 1 1061 7 is_stmt 0 discriminator 4 view .LVU59
 198 0028 A842     		cmp	r0, r5
 199 002a 1DD0     		beq	.L21
1081:lvgl/src/core/lv_indev.c ****             lv_event_send(proc->types.pointer.last_pressed, LV_EVENT_DEFOCUSED, indev_act);
 200              		.loc 1 1081 9 is_stmt 1 view .LVU60
1081:lvgl/src/core/lv_indev.c ****             lv_event_send(proc->types.pointer.last_pressed, LV_EVENT_DEFOCUSED, indev_act);
 201              		.loc 1 1081 11 is_stmt 0 view .LVU61
 202 002c 0028     		cmp	r0, #0
 203 002e 3FD0     		beq	.L22
 204              	.L16:
1087:lvgl/src/core/lv_indev.c ****                 /*If the prev. object also wasn't in a group defocus it*/
 205              		.loc 1 1087 13 is_stmt 1 view .LVU62
1087:lvgl/src/core/lv_indev.c ****                 /*If the prev. object also wasn't in a group defocus it*/
 206              		.loc 1 1087 35 is_stmt 0 view .LVU63
 207 0030 236B     		ldr	r3, [r4, #48]
1087:lvgl/src/core/lv_indev.c ****                 /*If the prev. object also wasn't in a group defocus it*/
 208              		.loc 1 1087 15 view .LVU64
 209 0032 5BB1     		cbz	r3, .L17
1089:lvgl/src/core/lv_indev.c ****                     lv_event_send(proc->types.pointer.last_pressed, LV_EVENT_DEFOCUSED, indev_act);
 210              		.loc 1 1089 17 is_stmt 1 view .LVU65
1089:lvgl/src/core/lv_indev.c ****                     lv_event_send(proc->types.pointer.last_pressed, LV_EVENT_DEFOCUSED, indev_act);
 211              		.loc 1 1089 19 is_stmt 0 view .LVU66
 212 0034 0028     		cmp	r0, #0
 213 0036 4AD0     		beq	.L23
1095:lvgl/src/core/lv_indev.c ****                     if(indev_reset_check(proc)) return;
 214              		.loc 1 1095 21 is_stmt 1 view .LVU67
 215 0038 324A     		ldr	r2, .L24+4
 216 003a 1268     		ldr	r2, [r2]
 217 003c 1021     		movs	r1, #16
 218 003e 1846     		mov	r0, r3
 219              	.LVL10:
1095:lvgl/src/core/lv_indev.c ****                     if(indev_reset_check(proc)) return;
 220              		.loc 1 1095 21 is_stmt 0 view .LVU68
 221 0040 FFF7FEFF 		bl	lv_event_send
 222              	.LVL11:
1096:lvgl/src/core/lv_indev.c ****                 }
 223              		.loc 1 1096 21 is_stmt 1 view .LVU69
1096:lvgl/src/core/lv_indev.c ****                 }
 224              		.loc 1 1096 24 is_stmt 0 view .LVU70
ARM GAS  C:\Users\OSD\AppData\Local\Temp\ccrOx18j.s 			page 26


 225 0044 2046     		mov	r0, r4
 226 0046 FFF7FEFF 		bl	indev_reset_check
 227              	.LVL12:
1096:lvgl/src/core/lv_indev.c ****                 }
 228              		.loc 1 1096 23 view .LVU71
 229 004a 60B9     		cbnz	r0, .L9
 230              	.L17:
1102:lvgl/src/core/lv_indev.c ****             lv_group_focus_obj(indev_obj_act);
 231              		.loc 1 1102 9 is_stmt 1 view .LVU72
1102:lvgl/src/core/lv_indev.c ****             lv_group_focus_obj(indev_obj_act);
 232              		.loc 1 1102 11 is_stmt 0 view .LVU73
 233 004c 002D     		cmp	r5, #0
 234 004e 4AD0     		beq	.L19
1103:lvgl/src/core/lv_indev.c ****             if(indev_reset_check(proc)) return;
 235              		.loc 1 1103 13 is_stmt 1 view .LVU74
 236 0050 2B4B     		ldr	r3, .L24
 237 0052 1868     		ldr	r0, [r3]
 238 0054 FFF7FEFF 		bl	lv_group_focus_obj
 239              	.LVL13:
1104:lvgl/src/core/lv_indev.c ****         }
 240              		.loc 1 1104 13 view .LVU75
1104:lvgl/src/core/lv_indev.c ****         }
 241              		.loc 1 1104 16 is_stmt 0 view .LVU76
 242 0058 2046     		mov	r0, r4
 243 005a FFF7FEFF 		bl	indev_reset_check
 244              	.LVL14:
1104:lvgl/src/core/lv_indev.c ****         }
 245              		.loc 1 1104 15 view .LVU77
 246 005e 10B9     		cbnz	r0, .L9
 247              	.L14:
1111:lvgl/src/core/lv_indev.c **** }
 248              		.loc 1 1111 5 is_stmt 1 view .LVU78
1111:lvgl/src/core/lv_indev.c **** }
 249              		.loc 1 1111 38 is_stmt 0 view .LVU79
 250 0060 274B     		ldr	r3, .L24
 251 0062 1B68     		ldr	r3, [r3]
 252 0064 2363     		str	r3, [r4, #48]
 253              	.LVL15:
 254              	.L9:
1112:lvgl/src/core/lv_indev.c **** 
 255              		.loc 1 1112 1 view .LVU80
 256 0066 38BD     		pop	{r3, r4, r5, pc}
 257              	.LVL16:
 258              	.L21:
1063:lvgl/src/core/lv_indev.c ****             lv_group_focus_obj(indev_obj_act);
 259              		.loc 1 1063 9 is_stmt 1 view .LVU81
1063:lvgl/src/core/lv_indev.c ****             lv_group_focus_obj(indev_obj_act);
 260              		.loc 1 1063 11 is_stmt 0 view .LVU82
 261 0068 4DB1     		cbz	r5, .L13
1064:lvgl/src/core/lv_indev.c ****             if(indev_reset_check(proc)) return;
 262              		.loc 1 1064 13 is_stmt 1 view .LVU83
 263 006a 254B     		ldr	r3, .L24
 264 006c 1868     		ldr	r0, [r3]
 265              	.LVL17:
1064:lvgl/src/core/lv_indev.c ****             if(indev_reset_check(proc)) return;
 266              		.loc 1 1064 13 is_stmt 0 view .LVU84
 267 006e FFF7FEFF 		bl	lv_group_focus_obj
ARM GAS  C:\Users\OSD\AppData\Local\Temp\ccrOx18j.s 			page 27


 268              	.LVL18:
1065:lvgl/src/core/lv_indev.c ****         }
 269              		.loc 1 1065 13 is_stmt 1 view .LVU85
1065:lvgl/src/core/lv_indev.c ****         }
 270              		.loc 1 1065 16 is_stmt 0 view .LVU86
 271 0072 2046     		mov	r0, r4
 272 0074 FFF7FEFF 		bl	indev_reset_check
 273              	.LVL19:
1065:lvgl/src/core/lv_indev.c ****         }
 274              		.loc 1 1065 15 view .LVU87
 275 0078 0028     		cmp	r0, #0
 276 007a F1D0     		beq	.L14
 277 007c F3E7     		b	.L9
 278              	.LVL20:
 279              	.L13:
1069:lvgl/src/core/lv_indev.c ****                 lv_event_send(proc->types.pointer.last_pressed, LV_EVENT_DEFOCUSED, indev_act);
 280              		.loc 1 1069 13 is_stmt 1 view .LVU88
1069:lvgl/src/core/lv_indev.c ****                 lv_event_send(proc->types.pointer.last_pressed, LV_EVENT_DEFOCUSED, indev_act);
 281              		.loc 1 1069 35 is_stmt 0 view .LVU89
 282 007e 206B     		ldr	r0, [r4, #48]
 283              	.LVL21:
1069:lvgl/src/core/lv_indev.c ****                 lv_event_send(proc->types.pointer.last_pressed, LV_EVENT_DEFOCUSED, indev_act);
 284              		.loc 1 1069 15 view .LVU90
 285 0080 48B1     		cbz	r0, .L15
1070:lvgl/src/core/lv_indev.c ****                 if(indev_reset_check(proc)) return;
 286              		.loc 1 1070 17 is_stmt 1 view .LVU91
 287 0082 204B     		ldr	r3, .L24+4
 288 0084 1A68     		ldr	r2, [r3]
 289 0086 0F21     		movs	r1, #15
 290 0088 FFF7FEFF 		bl	lv_event_send
 291              	.LVL22:
1071:lvgl/src/core/lv_indev.c ****             }
 292              		.loc 1 1071 17 view .LVU92
1071:lvgl/src/core/lv_indev.c ****             }
 293              		.loc 1 1071 20 is_stmt 0 view .LVU93
 294 008c 2046     		mov	r0, r4
 295 008e FFF7FEFF 		bl	indev_reset_check
 296              	.LVL23:
1071:lvgl/src/core/lv_indev.c ****             }
 297              		.loc 1 1071 19 view .LVU94
 298 0092 0028     		cmp	r0, #0
 299 0094 E7D1     		bne	.L9
 300              	.L15:
1074:lvgl/src/core/lv_indev.c ****             if(indev_reset_check(proc)) return;
 301              		.loc 1 1074 13 is_stmt 1 view .LVU95
 302 0096 1B4B     		ldr	r3, .L24+4
 303 0098 1A68     		ldr	r2, [r3]
 304 009a 0E21     		movs	r1, #14
 305 009c 184B     		ldr	r3, .L24
 306 009e 1868     		ldr	r0, [r3]
 307 00a0 FFF7FEFF 		bl	lv_event_send
 308              	.LVL24:
1075:lvgl/src/core/lv_indev.c ****         }
 309              		.loc 1 1075 13 view .LVU96
1075:lvgl/src/core/lv_indev.c ****         }
 310              		.loc 1 1075 16 is_stmt 0 view .LVU97
 311 00a4 2046     		mov	r0, r4
ARM GAS  C:\Users\OSD\AppData\Local\Temp\ccrOx18j.s 			page 28


 312 00a6 FFF7FEFF 		bl	indev_reset_check
 313              	.LVL25:
1075:lvgl/src/core/lv_indev.c ****         }
 314              		.loc 1 1075 15 view .LVU98
 315 00aa 0028     		cmp	r0, #0
 316 00ac D8D0     		beq	.L14
 317 00ae DAE7     		b	.L9
 318              	.LVL26:
 319              	.L22:
1081:lvgl/src/core/lv_indev.c ****             lv_event_send(proc->types.pointer.last_pressed, LV_EVENT_DEFOCUSED, indev_act);
 320              		.loc 1 1081 49 discriminator 1 view .LVU99
 321 00b0 236B     		ldr	r3, [r4, #48]
1081:lvgl/src/core/lv_indev.c ****             lv_event_send(proc->types.pointer.last_pressed, LV_EVENT_DEFOCUSED, indev_act);
 322              		.loc 1 1081 27 discriminator 1 view .LVU100
 323 00b2 002B     		cmp	r3, #0
 324 00b4 BCD0     		beq	.L16
1082:lvgl/src/core/lv_indev.c ****             if(indev_reset_check(proc)) return;
 325              		.loc 1 1082 13 is_stmt 1 view .LVU101
 326 00b6 134A     		ldr	r2, .L24+4
 327 00b8 1268     		ldr	r2, [r2]
 328 00ba 0F21     		movs	r1, #15
 329 00bc 1846     		mov	r0, r3
 330              	.LVL27:
1082:lvgl/src/core/lv_indev.c ****             if(indev_reset_check(proc)) return;
 331              		.loc 1 1082 13 is_stmt 0 view .LVU102
 332 00be FFF7FEFF 		bl	lv_event_send
 333              	.LVL28:
1083:lvgl/src/core/lv_indev.c ****         }
 334              		.loc 1 1083 13 is_stmt 1 view .LVU103
1083:lvgl/src/core/lv_indev.c ****         }
 335              		.loc 1 1083 16 is_stmt 0 view .LVU104
 336 00c2 2046     		mov	r0, r4
 337 00c4 FFF7FEFF 		bl	indev_reset_check
 338              	.LVL29:
1083:lvgl/src/core/lv_indev.c ****         }
 339              		.loc 1 1083 15 view .LVU105
 340 00c8 0028     		cmp	r0, #0
 341 00ca BFD0     		beq	.L17
 342 00cc CBE7     		b	.L9
 343              	.LVL30:
 344              	.L23:
1090:lvgl/src/core/lv_indev.c ****                     if(indev_reset_check(proc)) return;
 345              		.loc 1 1090 21 is_stmt 1 view .LVU106
 346 00ce 0D4A     		ldr	r2, .L24+4
 347 00d0 1268     		ldr	r2, [r2]
 348 00d2 0F21     		movs	r1, #15
 349 00d4 1846     		mov	r0, r3
 350              	.LVL31:
1090:lvgl/src/core/lv_indev.c ****                     if(indev_reset_check(proc)) return;
 351              		.loc 1 1090 21 is_stmt 0 view .LVU107
 352 00d6 FFF7FEFF 		bl	lv_event_send
 353              	.LVL32:
1091:lvgl/src/core/lv_indev.c ****                 }
 354              		.loc 1 1091 21 is_stmt 1 view .LVU108
1091:lvgl/src/core/lv_indev.c ****                 }
 355              		.loc 1 1091 24 is_stmt 0 view .LVU109
 356 00da 2046     		mov	r0, r4
ARM GAS  C:\Users\OSD\AppData\Local\Temp\ccrOx18j.s 			page 29


 357 00dc FFF7FEFF 		bl	indev_reset_check
 358              	.LVL33:
1091:lvgl/src/core/lv_indev.c ****                 }
 359              		.loc 1 1091 23 view .LVU110
 360 00e0 0028     		cmp	r0, #0
 361 00e2 B3D0     		beq	.L17
 362 00e4 BFE7     		b	.L9
 363              	.L19:
1107:lvgl/src/core/lv_indev.c ****             if(indev_reset_check(proc)) return;
 364              		.loc 1 1107 13 is_stmt 1 view .LVU111
 365 00e6 074B     		ldr	r3, .L24+4
 366 00e8 1A68     		ldr	r2, [r3]
 367 00ea 0E21     		movs	r1, #14
 368 00ec 044B     		ldr	r3, .L24
 369 00ee 1868     		ldr	r0, [r3]
 370 00f0 FFF7FEFF 		bl	lv_event_send
 371              	.LVL34:
1108:lvgl/src/core/lv_indev.c ****         }
 372              		.loc 1 1108 13 view .LVU112
1108:lvgl/src/core/lv_indev.c ****         }
 373              		.loc 1 1108 16 is_stmt 0 view .LVU113
 374 00f4 2046     		mov	r0, r4
 375 00f6 FFF7FEFF 		bl	indev_reset_check
 376              	.LVL35:
1108:lvgl/src/core/lv_indev.c ****         }
 377              		.loc 1 1108 15 view .LVU114
 378 00fa 0028     		cmp	r0, #0
 379 00fc B0D0     		beq	.L14
 380 00fe B2E7     		b	.L9
 381              	.L25:
 382              		.align	2
 383              	.L24:
 384 0100 00000000 		.word	.LANCHOR0
 385 0104 00000000 		.word	.LANCHOR1
 386              		.cfi_endproc
 387              	.LFE193:
 389              		.section	.text.indev_gesture,"ax",%progbits
 390              		.align	1
 391              		.syntax unified
 392              		.thumb
 393              		.thumb_func
 395              	indev_gesture:
 396              	.LVL36:
 397              	.LFB194:
1119:lvgl/src/core/lv_indev.c **** 
 398              		.loc 1 1119 1 is_stmt 1 view -0
 399              		.cfi_startproc
 400              		@ args = 0, pretend = 0, frame = 0
 401              		@ frame_needed = 0, uses_anonymous_args = 0
1121:lvgl/src/core/lv_indev.c ****     if(proc->types.pointer.gesture_sent) return;
 402              		.loc 1 1121 5 view .LVU116
1121:lvgl/src/core/lv_indev.c ****     if(proc->types.pointer.gesture_sent) return;
 403              		.loc 1 1121 27 is_stmt 0 view .LVU117
 404 0000 C36A     		ldr	r3, [r0, #44]
1121:lvgl/src/core/lv_indev.c ****     if(proc->types.pointer.gesture_sent) return;
 405              		.loc 1 1121 7 view .LVU118
 406 0002 03B1     		cbz	r3, .L41
ARM GAS  C:\Users\OSD\AppData\Local\Temp\ccrOx18j.s 			page 30


 407 0004 7047     		bx	lr
 408              	.L41:
1119:lvgl/src/core/lv_indev.c **** 
 409              		.loc 1 1119 1 view .LVU119
 410 0006 70B5     		push	{r4, r5, r6, lr}
 411              		.cfi_def_cfa_offset 16
 412              		.cfi_offset 4, -16
 413              		.cfi_offset 5, -12
 414              		.cfi_offset 6, -8
 415              		.cfi_offset 14, -4
 416 0008 0546     		mov	r5, r0
1122:lvgl/src/core/lv_indev.c **** 
 417              		.loc 1 1122 5 is_stmt 1 view .LVU120
1122:lvgl/src/core/lv_indev.c **** 
 418              		.loc 1 1122 8 is_stmt 0 view .LVU121
 419 000a 90F84130 		ldrb	r3, [r0, #65]	@ zero_extendqisi2
1122:lvgl/src/core/lv_indev.c **** 
 420              		.loc 1 1122 7 view .LVU122
 421 000e 13F0010F 		tst	r3, #1
 422 0012 61D1     		bne	.L26
1124:lvgl/src/core/lv_indev.c **** 
 423              		.loc 1 1124 5 is_stmt 1 view .LVU123
1124:lvgl/src/core/lv_indev.c **** 
 424              		.loc 1 1124 16 is_stmt 0 view .LVU124
 425 0014 446A     		ldr	r4, [r0, #36]
 426              	.LVL37:
1127:lvgl/src/core/lv_indev.c ****         gesture_obj = lv_obj_get_parent(gesture_obj);
 427              		.loc 1 1127 5 is_stmt 1 view .LVU125
1127:lvgl/src/core/lv_indev.c ****         gesture_obj = lv_obj_get_parent(gesture_obj);
 428              		.loc 1 1127 10 is_stmt 0 view .LVU126
 429 0016 03E0     		b	.L28
 430              	.LVL38:
 431              	.L30:
1128:lvgl/src/core/lv_indev.c ****     }
 432              		.loc 1 1128 9 is_stmt 1 view .LVU127
1128:lvgl/src/core/lv_indev.c ****     }
 433              		.loc 1 1128 23 is_stmt 0 view .LVU128
 434 0018 2046     		mov	r0, r4
 435 001a FFF7FEFF 		bl	lv_obj_get_parent
 436              	.LVL39:
 437 001e 0446     		mov	r4, r0
 438              	.LVL40:
 439              	.L28:
1127:lvgl/src/core/lv_indev.c ****         gesture_obj = lv_obj_get_parent(gesture_obj);
 440              		.loc 1 1127 10 is_stmt 1 view .LVU129
 441 0020 34B1     		cbz	r4, .L29
1127:lvgl/src/core/lv_indev.c ****         gesture_obj = lv_obj_get_parent(gesture_obj);
 442              		.loc 1 1127 26 is_stmt 0 discriminator 1 view .LVU130
 443 0022 4FF40041 		mov	r1, #32768
 444 0026 2046     		mov	r0, r4
 445 0028 FFF7FEFF 		bl	lv_obj_has_flag
 446              	.LVL41:
1127:lvgl/src/core/lv_indev.c ****         gesture_obj = lv_obj_get_parent(gesture_obj);
 447              		.loc 1 1127 23 discriminator 1 view .LVU131
 448 002c 0028     		cmp	r0, #0
 449 002e F3D1     		bne	.L30
 450              	.L29:
ARM GAS  C:\Users\OSD\AppData\Local\Temp\ccrOx18j.s 			page 31


1131:lvgl/src/core/lv_indev.c **** 
 451              		.loc 1 1131 5 is_stmt 1 view .LVU132
1131:lvgl/src/core/lv_indev.c **** 
 452              		.loc 1 1131 7 is_stmt 0 view .LVU133
 453 0030 002C     		cmp	r4, #0
 454 0032 51D0     		beq	.L26
1133:lvgl/src/core/lv_indev.c ****        (LV_ABS(proc->types.pointer.vect.y) < indev_act->driver->gesture_min_velocity)) {
 455              		.loc 1 1133 5 is_stmt 1 view .LVU134
1133:lvgl/src/core/lv_indev.c ****        (LV_ABS(proc->types.pointer.vect.y) < indev_act->driver->gesture_min_velocity)) {
 456              		.loc 1 1133 9 is_stmt 0 view .LVU135
 457 0034 B5F91430 		ldrsh	r3, [r5, #20]
 458 0038 83EAE371 		eor	r1, r3, r3, asr #31
 459 003c A1EBE371 		sub	r1, r1, r3, asr #31
 460 0040 89B2     		uxth	r1, r1
1133:lvgl/src/core/lv_indev.c ****        (LV_ABS(proc->types.pointer.vect.y) < indev_act->driver->gesture_min_velocity)) {
 461              		.loc 1 1133 55 view .LVU136
 462 0042 334A     		ldr	r2, .L42
 463 0044 1268     		ldr	r2, [r2]
 464 0046 1068     		ldr	r0, [r2]
1133:lvgl/src/core/lv_indev.c ****        (LV_ABS(proc->types.pointer.vect.y) < indev_act->driver->gesture_min_velocity)) {
 465              		.loc 1 1133 44 view .LVU137
 466 0048 807E     		ldrb	r0, [r0, #26]	@ zero_extendqisi2
1133:lvgl/src/core/lv_indev.c ****        (LV_ABS(proc->types.pointer.vect.y) < indev_act->driver->gesture_min_velocity)) {
 467              		.loc 1 1133 7 view .LVU138
 468 004a 8142     		cmp	r1, r0
 469 004c 0AD2     		bcs	.L31
1134:lvgl/src/core/lv_indev.c ****         proc->types.pointer.gesture_sum.x = 0;
 470              		.loc 1 1134 9 discriminator 1 view .LVU139
 471 004e B5F91610 		ldrsh	r1, [r5, #22]
 472 0052 0029     		cmp	r1, #0
 473 0054 B8BF     		it	lt
 474 0056 4942     		rsblt	r1, r1, #0
 475 0058 89B2     		uxth	r1, r1
1133:lvgl/src/core/lv_indev.c ****        (LV_ABS(proc->types.pointer.vect.y) < indev_act->driver->gesture_min_velocity)) {
 476              		.loc 1 1133 87 discriminator 1 view .LVU140
 477 005a 8842     		cmp	r0, r1
 478 005c 02D9     		bls	.L31
1135:lvgl/src/core/lv_indev.c ****         proc->types.pointer.gesture_sum.y = 0;
 479              		.loc 1 1135 9 is_stmt 1 view .LVU141
1135:lvgl/src/core/lv_indev.c ****         proc->types.pointer.gesture_sum.y = 0;
 480              		.loc 1 1135 43 is_stmt 0 view .LVU142
 481 005e 0021     		movs	r1, #0
 482 0060 A987     		strh	r1, [r5, #60]	@ movhi
1136:lvgl/src/core/lv_indev.c ****     }
 483              		.loc 1 1136 9 is_stmt 1 view .LVU143
1136:lvgl/src/core/lv_indev.c ****     }
 484              		.loc 1 1136 43 is_stmt 0 view .LVU144
 485 0062 E987     		strh	r1, [r5, #62]	@ movhi
 486              	.L31:
1140:lvgl/src/core/lv_indev.c ****     proc->types.pointer.gesture_sum.y += proc->types.pointer.vect.y;
 487              		.loc 1 1140 5 is_stmt 1 view .LVU145
1140:lvgl/src/core/lv_indev.c ****     proc->types.pointer.gesture_sum.y += proc->types.pointer.vect.y;
 488              		.loc 1 1140 39 is_stmt 0 view .LVU146
 489 0064 A98F     		ldrh	r1, [r5, #60]
 490 0066 11FA83F3 		uxtah	r3, r1, r3
 491 006a 1BB2     		sxth	r3, r3
 492 006c AB87     		strh	r3, [r5, #60]	@ movhi
ARM GAS  C:\Users\OSD\AppData\Local\Temp\ccrOx18j.s 			page 32


1141:lvgl/src/core/lv_indev.c **** 
 493              		.loc 1 1141 5 is_stmt 1 view .LVU147
1141:lvgl/src/core/lv_indev.c **** 
 494              		.loc 1 1141 66 is_stmt 0 view .LVU148
 495 006e E98A     		ldrh	r1, [r5, #22]
1141:lvgl/src/core/lv_indev.c **** 
 496              		.loc 1 1141 39 view .LVU149
 497 0070 E88F     		ldrh	r0, [r5, #62]
 498 0072 0144     		add	r1, r1, r0
 499 0074 09B2     		sxth	r1, r1
 500 0076 E987     		strh	r1, [r5, #62]	@ movhi
1143:lvgl/src/core/lv_indev.c ****        (LV_ABS(proc->types.pointer.gesture_sum.y) > indev_act->driver->gesture_limit)) {
 501              		.loc 1 1143 5 is_stmt 1 view .LVU150
1143:lvgl/src/core/lv_indev.c ****        (LV_ABS(proc->types.pointer.gesture_sum.y) > indev_act->driver->gesture_limit)) {
 502              		.loc 1 1143 9 is_stmt 0 view .LVU151
 503 0078 83EAE370 		eor	r0, r3, r3, asr #31
 504 007c A0EBE370 		sub	r0, r0, r3, asr #31
 505 0080 80B2     		uxth	r0, r0
1143:lvgl/src/core/lv_indev.c ****        (LV_ABS(proc->types.pointer.gesture_sum.y) > indev_act->driver->gesture_limit)) {
 506              		.loc 1 1143 51 view .LVU152
 507 0082 1668     		ldr	r6, [r2]
 508 0084 96F81BC0 		ldrb	ip, [r6, #27]	@ zero_extendqisi2
1143:lvgl/src/core/lv_indev.c ****        (LV_ABS(proc->types.pointer.gesture_sum.y) > indev_act->driver->gesture_limit)) {
 509              		.loc 1 1143 7 view .LVU153
 510 0088 6045     		cmp	r0, ip
 511 008a 07D8     		bhi	.L32
1144:lvgl/src/core/lv_indev.c **** 
 512              		.loc 1 1144 9 discriminator 1 view .LVU154
 513 008c 81EAE17E 		eor	lr, r1, r1, asr #31
 514 0090 AEEBE17E 		sub	lr, lr, r1, asr #31
 515 0094 1FFA8EFE 		uxth	lr, lr
1143:lvgl/src/core/lv_indev.c ****        (LV_ABS(proc->types.pointer.gesture_sum.y) > indev_act->driver->gesture_limit)) {
 516              		.loc 1 1143 87 discriminator 1 view .LVU155
 517 0098 F445     		cmp	ip, lr
 518 009a 1DD2     		bcs	.L26
 519              	.L32:
1146:lvgl/src/core/lv_indev.c **** 
 520              		.loc 1 1146 9 is_stmt 1 view .LVU156
1146:lvgl/src/core/lv_indev.c **** 
 521              		.loc 1 1146 42 is_stmt 0 view .LVU157
 522 009c 95F841C0 		ldrb	ip, [r5, #65]	@ zero_extendqisi2
 523 00a0 4CF0010C 		orr	ip, ip, #1
 524 00a4 85F841C0 		strb	ip, [r5, #65]
1148:lvgl/src/core/lv_indev.c ****             if(proc->types.pointer.gesture_sum.x > 0)
 525              		.loc 1 1148 9 is_stmt 1 view .LVU158
1148:lvgl/src/core/lv_indev.c ****             if(proc->types.pointer.gesture_sum.x > 0)
 526              		.loc 1 1148 56 is_stmt 0 view .LVU159
 527 00a8 81EAE17C 		eor	ip, r1, r1, asr #31
 528 00ac ACEBE17C 		sub	ip, ip, r1, asr #31
 529 00b0 1FFA8CFC 		uxth	ip, ip
1148:lvgl/src/core/lv_indev.c ****             if(proc->types.pointer.gesture_sum.x > 0)
 530              		.loc 1 1148 11 view .LVU160
 531 00b4 6045     		cmp	r0, ip
 532 00b6 18D9     		bls	.L33
1149:lvgl/src/core/lv_indev.c ****                 proc->types.pointer.gesture_dir = LV_DIR_RIGHT;
 533              		.loc 1 1149 13 is_stmt 1 view .LVU161
1149:lvgl/src/core/lv_indev.c ****                 proc->types.pointer.gesture_dir = LV_DIR_RIGHT;
ARM GAS  C:\Users\OSD\AppData\Local\Temp\ccrOx18j.s 			page 33


 534              		.loc 1 1149 15 is_stmt 0 view .LVU162
 535 00b8 002B     		cmp	r3, #0
 536 00ba 0EDD     		ble	.L34
1150:lvgl/src/core/lv_indev.c ****             else
 537              		.loc 1 1150 17 is_stmt 1 view .LVU163
1150:lvgl/src/core/lv_indev.c ****             else
 538              		.loc 1 1150 49 is_stmt 0 view .LVU164
 539 00bc 95F84030 		ldrb	r3, [r5, #64]	@ zero_extendqisi2
 540 00c0 0221     		movs	r1, #2
 541 00c2 61F30713 		bfi	r3, r1, #4, #4
 542 00c6 85F84030 		strb	r3, [r5, #64]
 543              	.L35:
1161:lvgl/src/core/lv_indev.c ****         if(indev_reset_check(proc)) return;
 544              		.loc 1 1161 9 is_stmt 1 view .LVU165
 545 00ca 0C21     		movs	r1, #12
 546 00cc 2046     		mov	r0, r4
 547 00ce FFF7FEFF 		bl	lv_event_send
 548              	.LVL42:
1162:lvgl/src/core/lv_indev.c ****     }
 549              		.loc 1 1162 9 view .LVU166
1162:lvgl/src/core/lv_indev.c ****     }
 550              		.loc 1 1162 12 is_stmt 0 view .LVU167
 551 00d2 2846     		mov	r0, r5
 552 00d4 FFF7FEFF 		bl	indev_reset_check
 553              	.LVL43:
 554              	.L26:
1164:lvgl/src/core/lv_indev.c **** 
 555              		.loc 1 1164 1 view .LVU168
 556 00d8 70BD     		pop	{r4, r5, r6, pc}
 557              	.LVL44:
 558              	.L34:
1152:lvgl/src/core/lv_indev.c ****         }
 559              		.loc 1 1152 17 is_stmt 1 view .LVU169
1152:lvgl/src/core/lv_indev.c ****         }
 560              		.loc 1 1152 49 is_stmt 0 view .LVU170
 561 00da 95F84030 		ldrb	r3, [r5, #64]	@ zero_extendqisi2
 562 00de 0121     		movs	r1, #1
 563 00e0 61F30713 		bfi	r3, r1, #4, #4
 564 00e4 85F84030 		strb	r3, [r5, #64]
 565 00e8 EFE7     		b	.L35
 566              	.L33:
1155:lvgl/src/core/lv_indev.c ****                 proc->types.pointer.gesture_dir = LV_DIR_BOTTOM;
 567              		.loc 1 1155 13 is_stmt 1 view .LVU171
1155:lvgl/src/core/lv_indev.c ****                 proc->types.pointer.gesture_dir = LV_DIR_BOTTOM;
 568              		.loc 1 1155 15 is_stmt 0 view .LVU172
 569 00ea 0029     		cmp	r1, #0
 570 00ec 07DD     		ble	.L36
1156:lvgl/src/core/lv_indev.c ****             else
 571              		.loc 1 1156 17 is_stmt 1 view .LVU173
1156:lvgl/src/core/lv_indev.c ****             else
 572              		.loc 1 1156 49 is_stmt 0 view .LVU174
 573 00ee 95F84030 		ldrb	r3, [r5, #64]	@ zero_extendqisi2
 574 00f2 0821     		movs	r1, #8
 575 00f4 61F30713 		bfi	r3, r1, #4, #4
 576 00f8 85F84030 		strb	r3, [r5, #64]
 577 00fc E5E7     		b	.L35
 578              	.L36:
ARM GAS  C:\Users\OSD\AppData\Local\Temp\ccrOx18j.s 			page 34


1158:lvgl/src/core/lv_indev.c ****         }
 579              		.loc 1 1158 17 is_stmt 1 view .LVU175
1158:lvgl/src/core/lv_indev.c ****         }
 580              		.loc 1 1158 49 is_stmt 0 view .LVU176
 581 00fe 95F84030 		ldrb	r3, [r5, #64]	@ zero_extendqisi2
 582 0102 0421     		movs	r1, #4
 583 0104 61F30713 		bfi	r3, r1, #4, #4
 584 0108 85F84030 		strb	r3, [r5, #64]
 585 010c DDE7     		b	.L35
 586              	.L43:
 587 010e 00BF     		.align	2
 588              	.L42:
 589 0110 00000000 		.word	.LANCHOR1
 590              		.cfi_endproc
 591              	.LFE194:
 593              		.section	.text.indev_proc_release,"ax",%progbits
 594              		.align	1
 595              		.syntax unified
 596              		.thumb
 597              		.thumb_func
 599              	indev_proc_release:
 600              	.LVL45:
 601              	.LFB191:
 950:lvgl/src/core/lv_indev.c ****     if(proc->wait_until_release != 0) {
 602              		.loc 1 950 1 is_stmt 1 view -0
 603              		.cfi_startproc
 604              		@ args = 0, pretend = 0, frame = 8
 605              		@ frame_needed = 0, uses_anonymous_args = 0
 950:lvgl/src/core/lv_indev.c ****     if(proc->wait_until_release != 0) {
 606              		.loc 1 950 1 is_stmt 0 view .LVU178
 607 0000 2DE9F041 		push	{r4, r5, r6, r7, r8, lr}
 608              		.cfi_def_cfa_offset 24
 609              		.cfi_offset 4, -24
 610              		.cfi_offset 5, -20
 611              		.cfi_offset 6, -16
 612              		.cfi_offset 7, -12
 613              		.cfi_offset 8, -8
 614              		.cfi_offset 14, -4
 615 0004 82B0     		sub	sp, sp, #8
 616              		.cfi_def_cfa_offset 32
 617 0006 0546     		mov	r5, r0
 951:lvgl/src/core/lv_indev.c ****         lv_event_send(proc->types.pointer.act_obj, LV_EVENT_PRESS_LOST, indev_act);
 618              		.loc 1 951 5 is_stmt 1 view .LVU179
 951:lvgl/src/core/lv_indev.c ****         lv_event_send(proc->types.pointer.act_obj, LV_EVENT_PRESS_LOST, indev_act);
 619              		.loc 1 951 33 is_stmt 0 view .LVU180
 620 0008 4378     		ldrb	r3, [r0, #1]	@ zero_extendqisi2
 951:lvgl/src/core/lv_indev.c ****         lv_event_send(proc->types.pointer.act_obj, LV_EVENT_PRESS_LOST, indev_act);
 621              		.loc 1 951 7 view .LVU181
 622 000a 13F0080F 		tst	r3, #8
 623 000e 1FD1     		bne	.L55
 624              	.LVL46:
 625              	.L45:
 961:lvgl/src/core/lv_indev.c ****     lv_obj_t * scroll_obj = proc->types.pointer.scroll_obj;
 626              		.loc 1 961 5 is_stmt 1 view .LVU182
 961:lvgl/src/core/lv_indev.c ****     lv_obj_t * scroll_obj = proc->types.pointer.scroll_obj;
 627              		.loc 1 961 40 is_stmt 0 view .LVU183
 628 0010 686A     		ldr	r0, [r5, #36]
ARM GAS  C:\Users\OSD\AppData\Local\Temp\ccrOx18j.s 			page 35


 961:lvgl/src/core/lv_indev.c ****     lv_obj_t * scroll_obj = proc->types.pointer.scroll_obj;
 629              		.loc 1 961 19 view .LVU184
 630 0012 494B     		ldr	r3, .L59
 631 0014 1860     		str	r0, [r3]
 962:lvgl/src/core/lv_indev.c **** 
 632              		.loc 1 962 5 is_stmt 1 view .LVU185
 962:lvgl/src/core/lv_indev.c **** 
 633              		.loc 1 962 16 is_stmt 0 view .LVU186
 634 0016 EF6A     		ldr	r7, [r5, #44]
 635              	.LVL47:
 965:lvgl/src/core/lv_indev.c ****         LV_LOG_INFO("released");
 636              		.loc 1 965 5 is_stmt 1 view .LVU187
 965:lvgl/src/core/lv_indev.c ****         LV_LOG_INFO("released");
 637              		.loc 1 965 7 is_stmt 0 view .LVU188
 638 0018 0028     		cmp	r0, #0
 639 001a 6BD0     		beq	.L47
 966:lvgl/src/core/lv_indev.c **** 
 640              		.loc 1 966 9 is_stmt 1 view .LVU189
 966:lvgl/src/core/lv_indev.c **** 
 641              		.loc 1 966 9 view .LVU190
 966:lvgl/src/core/lv_indev.c **** 
 642              		.loc 1 966 9 view .LVU191
 969:lvgl/src/core/lv_indev.c ****         if(indev_reset_check(proc)) return;
 643              		.loc 1 969 9 view .LVU192
 644 001c 474B     		ldr	r3, .L59+4
 645 001e 1A68     		ldr	r2, [r3]
 646 0020 0821     		movs	r1, #8
 647 0022 FFF7FEFF 		bl	lv_event_send
 648              	.LVL48:
 970:lvgl/src/core/lv_indev.c **** 
 649              		.loc 1 970 9 view .LVU193
 970:lvgl/src/core/lv_indev.c **** 
 650              		.loc 1 970 12 is_stmt 0 view .LVU194
 651 0026 2846     		mov	r0, r5
 652 0028 FFF7FEFF 		bl	indev_reset_check
 653              	.LVL49:
 970:lvgl/src/core/lv_indev.c **** 
 654              		.loc 1 970 11 view .LVU195
 655 002c 0028     		cmp	r0, #0
 656 002e 68D1     		bne	.L44
 973:lvgl/src/core/lv_indev.c ****             if(proc->long_pr_sent == 0) {
 657              		.loc 1 973 9 is_stmt 1 view .LVU196
 973:lvgl/src/core/lv_indev.c ****             if(proc->long_pr_sent == 0) {
 658              		.loc 1 973 11 is_stmt 0 view .LVU197
 659 0030 1FB3     		cbz	r7, .L56
 660              	.L48:
 983:lvgl/src/core/lv_indev.c ****         proc->pr_timestamp          = 0;
 661              		.loc 1 983 9 is_stmt 1 view .LVU198
 983:lvgl/src/core/lv_indev.c ****         proc->pr_timestamp          = 0;
 662              		.loc 1 983 37 is_stmt 0 view .LVU199
 663 0032 0023     		movs	r3, #0
 664 0034 6B62     		str	r3, [r5, #36]
 984:lvgl/src/core/lv_indev.c ****         proc->longpr_rep_timestamp  = 0;
 665              		.loc 1 984 9 is_stmt 1 view .LVU200
 984:lvgl/src/core/lv_indev.c ****         proc->longpr_rep_timestamp  = 0;
 666              		.loc 1 984 37 is_stmt 0 view .LVU201
 667 0036 6B64     		str	r3, [r5, #68]
ARM GAS  C:\Users\OSD\AppData\Local\Temp\ccrOx18j.s 			page 36


 985:lvgl/src/core/lv_indev.c **** 
 668              		.loc 1 985 9 is_stmt 1 view .LVU202
 985:lvgl/src/core/lv_indev.c **** 
 669              		.loc 1 985 37 is_stmt 0 view .LVU203
 670 0038 AB64     		str	r3, [r5, #72]
 988:lvgl/src/core/lv_indev.c ****             int16_t angle = 0;
 671              		.loc 1 988 9 is_stmt 1 view .LVU204
 988:lvgl/src/core/lv_indev.c ****             int16_t angle = 0;
 672              		.loc 1 988 11 is_stmt 0 view .LVU205
 673 003a 002F     		cmp	r7, #0
 674 003c 5AD0     		beq	.L47
 675              	.LBB7:
 989:lvgl/src/core/lv_indev.c ****             int16_t zoom = 256;
 676              		.loc 1 989 13 is_stmt 1 view .LVU206
 677              	.LVL50:
 990:lvgl/src/core/lv_indev.c ****             lv_point_t pivot = { 0, 0 };
 678              		.loc 1 990 13 view .LVU207
 991:lvgl/src/core/lv_indev.c ****             lv_obj_t * parent = scroll_obj;
 679              		.loc 1 991 13 view .LVU208
 991:lvgl/src/core/lv_indev.c ****             lv_obj_t * parent = scroll_obj;
 680              		.loc 1 991 24 is_stmt 0 view .LVU209
 681 003e 1E46     		mov	r6, r3
 682 0040 ADF80430 		strh	r3, [sp, #4]	@ movhi
 683 0044 ADF80630 		strh	r3, [sp, #6]	@ movhi
 992:lvgl/src/core/lv_indev.c ****             while(parent) {
 684              		.loc 1 992 13 is_stmt 1 view .LVU210
 685              	.LVL51:
 993:lvgl/src/core/lv_indev.c ****                 angle += lv_obj_get_style_transform_angle(parent, 0);
 686              		.loc 1 993 13 view .LVU211
 992:lvgl/src/core/lv_indev.c ****             while(parent) {
 687              		.loc 1 992 24 is_stmt 0 view .LVU212
 688 0048 3C46     		mov	r4, r7
 990:lvgl/src/core/lv_indev.c ****             lv_point_t pivot = { 0, 0 };
 689              		.loc 1 990 21 view .LVU213
 690 004a 4FF48078 		mov	r8, #256
 993:lvgl/src/core/lv_indev.c ****                 angle += lv_obj_get_style_transform_angle(parent, 0);
 691              		.loc 1 993 18 view .LVU214
 692 004e 39E0     		b	.L50
 693              	.LVL52:
 694              	.L55:
 993:lvgl/src/core/lv_indev.c ****                 angle += lv_obj_get_style_transform_angle(parent, 0);
 695              		.loc 1 993 18 view .LVU215
 696              	.LBE7:
 952:lvgl/src/core/lv_indev.c ****         if(indev_reset_check(proc)) return;
 697              		.loc 1 952 9 is_stmt 1 view .LVU216
 698 0050 3A4B     		ldr	r3, .L59+4
 699 0052 1A68     		ldr	r2, [r3]
 700 0054 0321     		movs	r1, #3
 701 0056 406A     		ldr	r0, [r0, #36]
 702              	.LVL53:
 952:lvgl/src/core/lv_indev.c ****         if(indev_reset_check(proc)) return;
 703              		.loc 1 952 9 is_stmt 0 view .LVU217
 704 0058 FFF7FEFF 		bl	lv_event_send
 705              	.LVL54:
 953:lvgl/src/core/lv_indev.c **** 
 706              		.loc 1 953 9 is_stmt 1 view .LVU218
 953:lvgl/src/core/lv_indev.c **** 
ARM GAS  C:\Users\OSD\AppData\Local\Temp\ccrOx18j.s 			page 37


 707              		.loc 1 953 12 is_stmt 0 view .LVU219
 708 005c 2846     		mov	r0, r5
 709 005e FFF7FEFF 		bl	indev_reset_check
 710              	.LVL55:
 953:lvgl/src/core/lv_indev.c **** 
 711              		.loc 1 953 11 view .LVU220
 712 0062 0028     		cmp	r0, #0
 713 0064 4DD1     		bne	.L44
 955:lvgl/src/core/lv_indev.c ****         proc->types.pointer.last_obj = NULL;
 714              		.loc 1 955 9 is_stmt 1 view .LVU221
 955:lvgl/src/core/lv_indev.c ****         proc->types.pointer.last_obj = NULL;
 715              		.loc 1 955 38 is_stmt 0 view .LVU222
 716 0066 0023     		movs	r3, #0
 717 0068 6B62     		str	r3, [r5, #36]
 956:lvgl/src/core/lv_indev.c ****         proc->pr_timestamp           = 0;
 718              		.loc 1 956 9 is_stmt 1 view .LVU223
 956:lvgl/src/core/lv_indev.c ****         proc->pr_timestamp           = 0;
 719              		.loc 1 956 38 is_stmt 0 view .LVU224
 720 006a AB62     		str	r3, [r5, #40]
 957:lvgl/src/core/lv_indev.c ****         proc->longpr_rep_timestamp   = 0;
 721              		.loc 1 957 9 is_stmt 1 view .LVU225
 957:lvgl/src/core/lv_indev.c ****         proc->longpr_rep_timestamp   = 0;
 722              		.loc 1 957 38 is_stmt 0 view .LVU226
 723 006c 6B64     		str	r3, [r5, #68]
 958:lvgl/src/core/lv_indev.c ****         proc->wait_until_release     = 0;
 724              		.loc 1 958 9 is_stmt 1 view .LVU227
 958:lvgl/src/core/lv_indev.c ****         proc->wait_until_release     = 0;
 725              		.loc 1 958 38 is_stmt 0 view .LVU228
 726 006e AB64     		str	r3, [r5, #72]
 959:lvgl/src/core/lv_indev.c ****     }
 727              		.loc 1 959 9 is_stmt 1 view .LVU229
 959:lvgl/src/core/lv_indev.c ****     }
 728              		.loc 1 959 38 is_stmt 0 view .LVU230
 729 0070 6A78     		ldrb	r2, [r5, #1]	@ zero_extendqisi2
 730 0072 63F3C302 		bfi	r2, r3, #3, #1
 731 0076 6A70     		strb	r2, [r5, #1]
 732 0078 CAE7     		b	.L45
 733              	.LVL56:
 734              	.L56:
 974:lvgl/src/core/lv_indev.c ****                 lv_event_send(indev_obj_act, LV_EVENT_SHORT_CLICKED, indev_act);
 735              		.loc 1 974 13 is_stmt 1 view .LVU231
 974:lvgl/src/core/lv_indev.c ****                 lv_event_send(indev_obj_act, LV_EVENT_SHORT_CLICKED, indev_act);
 736              		.loc 1 974 35 is_stmt 0 view .LVU232
 737 007a 6B78     		ldrb	r3, [r5, #1]	@ zero_extendqisi2
 974:lvgl/src/core/lv_indev.c ****                 lv_event_send(indev_obj_act, LV_EVENT_SHORT_CLICKED, indev_act);
 738              		.loc 1 974 15 view .LVU233
 739 007c 13F0010F 		tst	r3, #1
 740 0080 0AD1     		bne	.L49
 975:lvgl/src/core/lv_indev.c ****                 if(indev_reset_check(proc)) return;
 741              		.loc 1 975 17 is_stmt 1 view .LVU234
 742 0082 2E4B     		ldr	r3, .L59+4
 743 0084 1A68     		ldr	r2, [r3]
 744 0086 0421     		movs	r1, #4
 745 0088 2B4B     		ldr	r3, .L59
 746 008a 1868     		ldr	r0, [r3]
 747 008c FFF7FEFF 		bl	lv_event_send
 748              	.LVL57:
ARM GAS  C:\Users\OSD\AppData\Local\Temp\ccrOx18j.s 			page 38


 976:lvgl/src/core/lv_indev.c ****             }
 749              		.loc 1 976 17 view .LVU235
 976:lvgl/src/core/lv_indev.c ****             }
 750              		.loc 1 976 20 is_stmt 0 view .LVU236
 751 0090 2846     		mov	r0, r5
 752 0092 FFF7FEFF 		bl	indev_reset_check
 753              	.LVL58:
 976:lvgl/src/core/lv_indev.c ****             }
 754              		.loc 1 976 19 view .LVU237
 755 0096 A0BB     		cbnz	r0, .L44
 756              	.L49:
 979:lvgl/src/core/lv_indev.c ****             if(indev_reset_check(proc)) return;
 757              		.loc 1 979 13 is_stmt 1 view .LVU238
 758 0098 284B     		ldr	r3, .L59+4
 759 009a 1A68     		ldr	r2, [r3]
 760 009c 0721     		movs	r1, #7
 761 009e 264B     		ldr	r3, .L59
 762 00a0 1868     		ldr	r0, [r3]
 763 00a2 FFF7FEFF 		bl	lv_event_send
 764              	.LVL59:
 980:lvgl/src/core/lv_indev.c ****         }
 765              		.loc 1 980 13 view .LVU239
 980:lvgl/src/core/lv_indev.c ****         }
 766              		.loc 1 980 16 is_stmt 0 view .LVU240
 767 00a6 2846     		mov	r0, r5
 768 00a8 FFF7FEFF 		bl	indev_reset_check
 769              	.LVL60:
 980:lvgl/src/core/lv_indev.c ****         }
 770              		.loc 1 980 15 view .LVU241
 771 00ac 0028     		cmp	r0, #0
 772 00ae C0D0     		beq	.L48
 773 00b0 27E0     		b	.L44
 774              	.LVL61:
 775              	.L51:
 776              	.LBB12:
 995:lvgl/src/core/lv_indev.c ****                 parent = lv_obj_get_parent(parent);
 777              		.loc 1 995 69 view .LVU242
 778 00b2 1B12     		asrs	r3, r3, #8
 995:lvgl/src/core/lv_indev.c ****                 parent = lv_obj_get_parent(parent);
 779              		.loc 1 995 22 view .LVU243
 780 00b4 13FB08F3 		smulbb	r3, r3, r8
 781 00b8 0FFA83F8 		sxth	r8, r3
 782              	.LVL62:
 996:lvgl/src/core/lv_indev.c ****             }
 783              		.loc 1 996 17 is_stmt 1 view .LVU244
 996:lvgl/src/core/lv_indev.c ****             }
 784              		.loc 1 996 26 is_stmt 0 view .LVU245
 785 00bc 2046     		mov	r0, r4
 786 00be FFF7FEFF 		bl	lv_obj_get_parent
 787              	.LVL63:
 788 00c2 0446     		mov	r4, r0
 789              	.LVL64:
 790              	.L50:
 993:lvgl/src/core/lv_indev.c ****                 angle += lv_obj_get_style_transform_angle(parent, 0);
 791              		.loc 1 993 18 is_stmt 1 view .LVU246
 792 00c4 8CB1     		cbz	r4, .L57
 994:lvgl/src/core/lv_indev.c ****                 zoom *= (lv_obj_get_style_transform_zoom(parent, 0) / 256);
ARM GAS  C:\Users\OSD\AppData\Local\Temp\ccrOx18j.s 			page 39


 793              		.loc 1 994 17 view .LVU247
 794              	.LVL65:
 795              	.LBB8:
 796              	.LBI8:
 797              		.file 2 "lvgl/src/core/lv_obj_style_gen.h"
   1:lvgl/src/core/lv_obj_style_gen.h **** static inline lv_coord_t lv_obj_get_style_width(const struct _lv_obj_t * obj, uint32_t part)
   2:lvgl/src/core/lv_obj_style_gen.h **** {
   3:lvgl/src/core/lv_obj_style_gen.h ****     lv_style_value_t v = lv_obj_get_style_prop(obj, part, LV_STYLE_WIDTH);
   4:lvgl/src/core/lv_obj_style_gen.h ****     return (lv_coord_t)v.num;
   5:lvgl/src/core/lv_obj_style_gen.h **** }
   6:lvgl/src/core/lv_obj_style_gen.h **** 
   7:lvgl/src/core/lv_obj_style_gen.h **** static inline lv_coord_t lv_obj_get_style_min_width(const struct _lv_obj_t * obj, uint32_t part)
   8:lvgl/src/core/lv_obj_style_gen.h **** {
   9:lvgl/src/core/lv_obj_style_gen.h ****     lv_style_value_t v = lv_obj_get_style_prop(obj, part, LV_STYLE_MIN_WIDTH);
  10:lvgl/src/core/lv_obj_style_gen.h ****     return (lv_coord_t)v.num;
  11:lvgl/src/core/lv_obj_style_gen.h **** }
  12:lvgl/src/core/lv_obj_style_gen.h **** 
  13:lvgl/src/core/lv_obj_style_gen.h **** static inline lv_coord_t lv_obj_get_style_max_width(const struct _lv_obj_t * obj, uint32_t part)
  14:lvgl/src/core/lv_obj_style_gen.h **** {
  15:lvgl/src/core/lv_obj_style_gen.h ****     lv_style_value_t v = lv_obj_get_style_prop(obj, part, LV_STYLE_MAX_WIDTH);
  16:lvgl/src/core/lv_obj_style_gen.h ****     return (lv_coord_t)v.num;
  17:lvgl/src/core/lv_obj_style_gen.h **** }
  18:lvgl/src/core/lv_obj_style_gen.h **** 
  19:lvgl/src/core/lv_obj_style_gen.h **** static inline lv_coord_t lv_obj_get_style_height(const struct _lv_obj_t * obj, uint32_t part)
  20:lvgl/src/core/lv_obj_style_gen.h **** {
  21:lvgl/src/core/lv_obj_style_gen.h ****     lv_style_value_t v = lv_obj_get_style_prop(obj, part, LV_STYLE_HEIGHT);
  22:lvgl/src/core/lv_obj_style_gen.h ****     return (lv_coord_t)v.num;
  23:lvgl/src/core/lv_obj_style_gen.h **** }
  24:lvgl/src/core/lv_obj_style_gen.h **** 
  25:lvgl/src/core/lv_obj_style_gen.h **** static inline lv_coord_t lv_obj_get_style_min_height(const struct _lv_obj_t * obj, uint32_t part)
  26:lvgl/src/core/lv_obj_style_gen.h **** {
  27:lvgl/src/core/lv_obj_style_gen.h ****     lv_style_value_t v = lv_obj_get_style_prop(obj, part, LV_STYLE_MIN_HEIGHT);
  28:lvgl/src/core/lv_obj_style_gen.h ****     return (lv_coord_t)v.num;
  29:lvgl/src/core/lv_obj_style_gen.h **** }
  30:lvgl/src/core/lv_obj_style_gen.h **** 
  31:lvgl/src/core/lv_obj_style_gen.h **** static inline lv_coord_t lv_obj_get_style_max_height(const struct _lv_obj_t * obj, uint32_t part)
  32:lvgl/src/core/lv_obj_style_gen.h **** {
  33:lvgl/src/core/lv_obj_style_gen.h ****     lv_style_value_t v = lv_obj_get_style_prop(obj, part, LV_STYLE_MAX_HEIGHT);
  34:lvgl/src/core/lv_obj_style_gen.h ****     return (lv_coord_t)v.num;
  35:lvgl/src/core/lv_obj_style_gen.h **** }
  36:lvgl/src/core/lv_obj_style_gen.h **** 
  37:lvgl/src/core/lv_obj_style_gen.h **** static inline lv_coord_t lv_obj_get_style_x(const struct _lv_obj_t * obj, uint32_t part)
  38:lvgl/src/core/lv_obj_style_gen.h **** {
  39:lvgl/src/core/lv_obj_style_gen.h ****     lv_style_value_t v = lv_obj_get_style_prop(obj, part, LV_STYLE_X);
  40:lvgl/src/core/lv_obj_style_gen.h ****     return (lv_coord_t)v.num;
  41:lvgl/src/core/lv_obj_style_gen.h **** }
  42:lvgl/src/core/lv_obj_style_gen.h **** 
  43:lvgl/src/core/lv_obj_style_gen.h **** static inline lv_coord_t lv_obj_get_style_y(const struct _lv_obj_t * obj, uint32_t part)
  44:lvgl/src/core/lv_obj_style_gen.h **** {
  45:lvgl/src/core/lv_obj_style_gen.h ****     lv_style_value_t v = lv_obj_get_style_prop(obj, part, LV_STYLE_Y);
  46:lvgl/src/core/lv_obj_style_gen.h ****     return (lv_coord_t)v.num;
  47:lvgl/src/core/lv_obj_style_gen.h **** }
  48:lvgl/src/core/lv_obj_style_gen.h **** 
  49:lvgl/src/core/lv_obj_style_gen.h **** static inline lv_align_t lv_obj_get_style_align(const struct _lv_obj_t * obj, uint32_t part)
  50:lvgl/src/core/lv_obj_style_gen.h **** {
  51:lvgl/src/core/lv_obj_style_gen.h ****     lv_style_value_t v = lv_obj_get_style_prop(obj, part, LV_STYLE_ALIGN);
  52:lvgl/src/core/lv_obj_style_gen.h ****     return (lv_align_t)v.num;
ARM GAS  C:\Users\OSD\AppData\Local\Temp\ccrOx18j.s 			page 40


  53:lvgl/src/core/lv_obj_style_gen.h **** }
  54:lvgl/src/core/lv_obj_style_gen.h **** 
  55:lvgl/src/core/lv_obj_style_gen.h **** static inline lv_coord_t lv_obj_get_style_transform_width(const struct _lv_obj_t * obj, uint32_t pa
  56:lvgl/src/core/lv_obj_style_gen.h **** {
  57:lvgl/src/core/lv_obj_style_gen.h ****     lv_style_value_t v = lv_obj_get_style_prop(obj, part, LV_STYLE_TRANSFORM_WIDTH);
  58:lvgl/src/core/lv_obj_style_gen.h ****     return (lv_coord_t)v.num;
  59:lvgl/src/core/lv_obj_style_gen.h **** }
  60:lvgl/src/core/lv_obj_style_gen.h **** 
  61:lvgl/src/core/lv_obj_style_gen.h **** static inline lv_coord_t lv_obj_get_style_transform_height(const struct _lv_obj_t * obj, uint32_t p
  62:lvgl/src/core/lv_obj_style_gen.h **** {
  63:lvgl/src/core/lv_obj_style_gen.h ****     lv_style_value_t v = lv_obj_get_style_prop(obj, part, LV_STYLE_TRANSFORM_HEIGHT);
  64:lvgl/src/core/lv_obj_style_gen.h ****     return (lv_coord_t)v.num;
  65:lvgl/src/core/lv_obj_style_gen.h **** }
  66:lvgl/src/core/lv_obj_style_gen.h **** 
  67:lvgl/src/core/lv_obj_style_gen.h **** static inline lv_coord_t lv_obj_get_style_translate_x(const struct _lv_obj_t * obj, uint32_t part)
  68:lvgl/src/core/lv_obj_style_gen.h **** {
  69:lvgl/src/core/lv_obj_style_gen.h ****     lv_style_value_t v = lv_obj_get_style_prop(obj, part, LV_STYLE_TRANSLATE_X);
  70:lvgl/src/core/lv_obj_style_gen.h ****     return (lv_coord_t)v.num;
  71:lvgl/src/core/lv_obj_style_gen.h **** }
  72:lvgl/src/core/lv_obj_style_gen.h **** 
  73:lvgl/src/core/lv_obj_style_gen.h **** static inline lv_coord_t lv_obj_get_style_translate_y(const struct _lv_obj_t * obj, uint32_t part)
  74:lvgl/src/core/lv_obj_style_gen.h **** {
  75:lvgl/src/core/lv_obj_style_gen.h ****     lv_style_value_t v = lv_obj_get_style_prop(obj, part, LV_STYLE_TRANSLATE_Y);
  76:lvgl/src/core/lv_obj_style_gen.h ****     return (lv_coord_t)v.num;
  77:lvgl/src/core/lv_obj_style_gen.h **** }
  78:lvgl/src/core/lv_obj_style_gen.h **** 
  79:lvgl/src/core/lv_obj_style_gen.h **** static inline lv_coord_t lv_obj_get_style_transform_zoom(const struct _lv_obj_t * obj, uint32_t par
  80:lvgl/src/core/lv_obj_style_gen.h **** {
  81:lvgl/src/core/lv_obj_style_gen.h ****     lv_style_value_t v = lv_obj_get_style_prop(obj, part, LV_STYLE_TRANSFORM_ZOOM);
  82:lvgl/src/core/lv_obj_style_gen.h ****     return (lv_coord_t)v.num;
  83:lvgl/src/core/lv_obj_style_gen.h **** }
  84:lvgl/src/core/lv_obj_style_gen.h **** 
  85:lvgl/src/core/lv_obj_style_gen.h **** static inline lv_coord_t lv_obj_get_style_transform_angle(const struct _lv_obj_t * obj, uint32_t pa
 798              		.loc 2 85 26 view .LVU248
 799              	.LBB9:
  86:lvgl/src/core/lv_obj_style_gen.h **** {
  87:lvgl/src/core/lv_obj_style_gen.h ****     lv_style_value_t v = lv_obj_get_style_prop(obj, part, LV_STYLE_TRANSFORM_ANGLE);
 800              		.loc 2 87 5 view .LVU249
 801              		.loc 2 87 26 is_stmt 0 view .LVU250
 802 00c6 6E22     		movs	r2, #110
 803 00c8 0021     		movs	r1, #0
 804 00ca 2046     		mov	r0, r4
 805 00cc FFF7FEFF 		bl	lv_obj_get_style_prop
 806              	.LVL66:
  88:lvgl/src/core/lv_obj_style_gen.h ****     return (lv_coord_t)v.num;
 807              		.loc 2 88 5 is_stmt 1 view .LVU251
 808              		.loc 2 88 5 is_stmt 0 view .LVU252
 809              	.LBE9:
 810              	.LBE8:
 994:lvgl/src/core/lv_indev.c ****                 zoom *= (lv_obj_get_style_transform_zoom(parent, 0) / 256);
 811              		.loc 1 994 23 view .LVU253
 812 00d0 16FA80F6 		uxtah	r6, r6, r0
 813              	.LVL67:
 994:lvgl/src/core/lv_indev.c ****                 zoom *= (lv_obj_get_style_transform_zoom(parent, 0) / 256);
 814              		.loc 1 994 23 view .LVU254
 815 00d4 36B2     		sxth	r6, r6
 816              	.LVL68:
ARM GAS  C:\Users\OSD\AppData\Local\Temp\ccrOx18j.s 			page 41


 995:lvgl/src/core/lv_indev.c ****                 parent = lv_obj_get_parent(parent);
 817              		.loc 1 995 17 is_stmt 1 view .LVU255
 818              	.LBB10:
 819              	.LBI10:
  79:lvgl/src/core/lv_obj_style_gen.h **** {
 820              		.loc 2 79 26 view .LVU256
 821              	.LBB11:
  81:lvgl/src/core/lv_obj_style_gen.h ****     return (lv_coord_t)v.num;
 822              		.loc 2 81 5 view .LVU257
  81:lvgl/src/core/lv_obj_style_gen.h ****     return (lv_coord_t)v.num;
 823              		.loc 2 81 26 is_stmt 0 view .LVU258
 824 00d6 6D22     		movs	r2, #109
 825 00d8 0021     		movs	r1, #0
 826 00da 2046     		mov	r0, r4
 827 00dc FFF7FEFF 		bl	lv_obj_get_style_prop
 828              	.LVL69:
  82:lvgl/src/core/lv_obj_style_gen.h **** }
 829              		.loc 2 82 5 is_stmt 1 view .LVU259
  82:lvgl/src/core/lv_obj_style_gen.h **** }
 830              		.loc 2 82 12 is_stmt 0 view .LVU260
 831 00e0 03B2     		sxth	r3, r0
 832              	.LVL70:
  82:lvgl/src/core/lv_obj_style_gen.h **** }
 833              		.loc 2 82 12 view .LVU261
 834              	.LBE11:
 835              	.LBE10:
 995:lvgl/src/core/lv_indev.c ****                 parent = lv_obj_get_parent(parent);
 836              		.loc 1 995 69 view .LVU262
 837 00e2 002B     		cmp	r3, #0
 838 00e4 E5DA     		bge	.L51
 839 00e6 FF33     		adds	r3, r3, #255
 840 00e8 E3E7     		b	.L51
 841              	.L57:
 999:lvgl/src/core/lv_indev.c ****                 angle = -angle;
 842              		.loc 1 999 13 is_stmt 1 view .LVU263
 999:lvgl/src/core/lv_indev.c ****                 angle = -angle;
 843              		.loc 1 999 15 is_stmt 0 view .LVU264
 844 00ea B8F5807F 		cmp	r8, #256
 845 00ee 08BF     		it	eq
 846 00f0 002E     		cmpeq	r6, #0
 847 00f2 09D1     		bne	.L58
 848              	.LVL71:
 849              	.L47:
 999:lvgl/src/core/lv_indev.c ****                 angle = -angle;
 850              		.loc 1 999 15 view .LVU265
 851              	.LBE12:
1011:lvgl/src/core/lv_indev.c ****         _lv_indev_scroll_throw_handler(proc);
 852              		.loc 1 1011 5 is_stmt 1 view .LVU266
1011:lvgl/src/core/lv_indev.c ****         _lv_indev_scroll_throw_handler(proc);
 853              		.loc 1 1011 7 is_stmt 0 view .LVU267
 854 00f4 2FB1     		cbz	r7, .L44
1012:lvgl/src/core/lv_indev.c ****         if(indev_reset_check(proc)) return;
 855              		.loc 1 1012 9 is_stmt 1 view .LVU268
 856 00f6 2846     		mov	r0, r5
 857 00f8 FFF7FEFF 		bl	_lv_indev_scroll_throw_handler
 858              	.LVL72:
1013:lvgl/src/core/lv_indev.c ****     }
ARM GAS  C:\Users\OSD\AppData\Local\Temp\ccrOx18j.s 			page 42


 859              		.loc 1 1013 9 view .LVU269
1013:lvgl/src/core/lv_indev.c ****     }
 860              		.loc 1 1013 12 is_stmt 0 view .LVU270
 861 00fc 2846     		mov	r0, r5
 862 00fe FFF7FEFF 		bl	indev_reset_check
 863              	.LVL73:
 864              	.L44:
1015:lvgl/src/core/lv_indev.c **** 
 865              		.loc 1 1015 1 view .LVU271
 866 0102 02B0     		add	sp, sp, #8
 867              		.cfi_remember_state
 868              		.cfi_def_cfa_offset 24
 869              		@ sp needed
 870 0104 BDE8F081 		pop	{r4, r5, r6, r7, r8, pc}
 871              	.LVL74:
 872              	.L58:
 873              		.cfi_restore_state
 874              	.LBB13:
1000:lvgl/src/core/lv_indev.c ****                 zoom = (256 * 256) / zoom;
 875              		.loc 1 1000 17 is_stmt 1 view .LVU272
1000:lvgl/src/core/lv_indev.c ****                 zoom = (256 * 256) / zoom;
 876              		.loc 1 1000 23 is_stmt 0 view .LVU273
 877 0108 7642     		rsbs	r6, r6, #0
 878              	.LVL75:
1000:lvgl/src/core/lv_indev.c ****                 zoom = (256 * 256) / zoom;
 879              		.loc 1 1000 23 view .LVU274
 880 010a 36B2     		sxth	r6, r6
 881              	.LVL76:
1001:lvgl/src/core/lv_indev.c ****                 lv_point_transform(&proc->types.pointer.scroll_throw_vect, angle, zoom, &pivot);
 882              		.loc 1 1001 17 is_stmt 1 view .LVU275
1001:lvgl/src/core/lv_indev.c ****                 lv_point_transform(&proc->types.pointer.scroll_throw_vect, angle, zoom, &pivot);
 883              		.loc 1 1001 36 is_stmt 0 view .LVU276
 884 010c 4FF48033 		mov	r3, #65536
 885 0110 93FBF8F8 		sdiv	r8, r3, r8
 886              	.LVL77:
1001:lvgl/src/core/lv_indev.c ****                 lv_point_transform(&proc->types.pointer.scroll_throw_vect, angle, zoom, &pivot);
 887              		.loc 1 1001 22 view .LVU277
 888 0114 0FFA88F8 		sxth	r8, r8
 889              	.LVL78:
1002:lvgl/src/core/lv_indev.c ****                 lv_point_transform(&proc->types.pointer.scroll_throw_vect_ori, angle, zoom, &pivot)
 890              		.loc 1 1002 17 is_stmt 1 view .LVU278
 891 0118 01AB     		add	r3, sp, #4
 892 011a 4246     		mov	r2, r8
 893 011c 3146     		mov	r1, r6
 894 011e 05F11C00 		add	r0, r5, #28
 895 0122 FFF7FEFF 		bl	lv_point_transform
 896              	.LVL79:
1003:lvgl/src/core/lv_indev.c ****             }
 897              		.loc 1 1003 17 view .LVU279
 898 0126 01AB     		add	r3, sp, #4
 899 0128 4246     		mov	r2, r8
 900 012a 3146     		mov	r1, r6
 901 012c 05F12000 		add	r0, r5, #32
 902 0130 FFF7FEFF 		bl	lv_point_transform
 903              	.LVL80:
 904 0134 DEE7     		b	.L47
 905              	.L60:
ARM GAS  C:\Users\OSD\AppData\Local\Temp\ccrOx18j.s 			page 43


 906 0136 00BF     		.align	2
 907              	.L59:
 908 0138 00000000 		.word	.LANCHOR0
 909 013c 00000000 		.word	.LANCHOR1
 910              	.LBE13:
 911              		.cfi_endproc
 912              	.LFE191:
 914              		.section	.text.indev_keypad_proc,"ax",%progbits
 915              		.align	1
 916              		.syntax unified
 917              		.thumb
 918              		.thumb_func
 920              	indev_keypad_proc:
 921              	.LVL81:
 922              	.LFB187:
 396:lvgl/src/core/lv_indev.c ****     if(data->state == LV_INDEV_STATE_PRESSED && i->proc.wait_until_release) return;
 923              		.loc 1 396 1 view -0
 924              		.cfi_startproc
 925              		@ args = 0, pretend = 0, frame = 0
 926              		@ frame_needed = 0, uses_anonymous_args = 0
 396:lvgl/src/core/lv_indev.c ****     if(data->state == LV_INDEV_STATE_PRESSED && i->proc.wait_until_release) return;
 927              		.loc 1 396 1 is_stmt 0 view .LVU281
 928 0000 F8B5     		push	{r3, r4, r5, r6, r7, lr}
 929              		.cfi_def_cfa_offset 24
 930              		.cfi_offset 3, -24
 931              		.cfi_offset 4, -20
 932              		.cfi_offset 5, -16
 933              		.cfi_offset 6, -12
 934              		.cfi_offset 7, -8
 935              		.cfi_offset 14, -4
 936 0002 0446     		mov	r4, r0
 937 0004 0D46     		mov	r5, r1
 397:lvgl/src/core/lv_indev.c **** 
 938              		.loc 1 397 5 is_stmt 1 view .LVU282
 397:lvgl/src/core/lv_indev.c **** 
 939              		.loc 1 397 12 is_stmt 0 view .LVU283
 940 0006 8B7B     		ldrb	r3, [r1, #14]	@ zero_extendqisi2
 397:lvgl/src/core/lv_indev.c **** 
 941              		.loc 1 397 7 view .LVU284
 942 0008 012B     		cmp	r3, #1
 943 000a 2ED0     		beq	.L80
 944              	.L62:
 399:lvgl/src/core/lv_indev.c ****         i->proc.wait_until_release      = 0;
 945              		.loc 1 399 5 is_stmt 1 view .LVU285
 399:lvgl/src/core/lv_indev.c ****         i->proc.wait_until_release      = 0;
 946              		.loc 1 399 8 is_stmt 0 view .LVU286
 947 000c 6379     		ldrb	r3, [r4, #5]	@ zero_extendqisi2
 399:lvgl/src/core/lv_indev.c ****         i->proc.wait_until_release      = 0;
 948              		.loc 1 399 7 view .LVU287
 949 000e 13F0080F 		tst	r3, #8
 950 0012 0AD0     		beq	.L64
 400:lvgl/src/core/lv_indev.c ****         i->proc.pr_timestamp            = 0;
 951              		.loc 1 400 9 is_stmt 1 view .LVU288
 400:lvgl/src/core/lv_indev.c ****         i->proc.pr_timestamp            = 0;
 952              		.loc 1 400 41 is_stmt 0 view .LVU289
 953 0014 6379     		ldrb	r3, [r4, #5]	@ zero_extendqisi2
 954 0016 6FF3C303 		bfc	r3, #3, #1
ARM GAS  C:\Users\OSD\AppData\Local\Temp\ccrOx18j.s 			page 44


 955 001a 6371     		strb	r3, [r4, #5]
 401:lvgl/src/core/lv_indev.c ****         i->proc.long_pr_sent            = 0;
 956              		.loc 1 401 9 is_stmt 1 view .LVU290
 401:lvgl/src/core/lv_indev.c ****         i->proc.long_pr_sent            = 0;
 957              		.loc 1 401 41 is_stmt 0 view .LVU291
 958 001c 0023     		movs	r3, #0
 959 001e A364     		str	r3, [r4, #72]
 402:lvgl/src/core/lv_indev.c ****         i->proc.types.keypad.last_state = LV_INDEV_STATE_RELEASED; /*To skip the processing of rele
 960              		.loc 1 402 9 is_stmt 1 view .LVU292
 402:lvgl/src/core/lv_indev.c ****         i->proc.types.keypad.last_state = LV_INDEV_STATE_RELEASED; /*To skip the processing of rele
 961              		.loc 1 402 41 is_stmt 0 view .LVU293
 962 0020 6279     		ldrb	r2, [r4, #5]	@ zero_extendqisi2
 963 0022 63F30002 		bfi	r2, r3, #0, #1
 964 0026 6271     		strb	r2, [r4, #5]
 403:lvgl/src/core/lv_indev.c ****     }
 965              		.loc 1 403 9 is_stmt 1 view .LVU294
 403:lvgl/src/core/lv_indev.c ****     }
 966              		.loc 1 403 41 is_stmt 0 view .LVU295
 967 0028 2372     		strb	r3, [r4, #8]
 968              	.L64:
 406:lvgl/src/core/lv_indev.c ****     if(g == NULL) return;
 969              		.loc 1 406 5 is_stmt 1 view .LVU296
 406:lvgl/src/core/lv_indev.c ****     if(g == NULL) return;
 970              		.loc 1 406 18 is_stmt 0 view .LVU297
 971 002a 666D     		ldr	r6, [r4, #84]
 972              	.LVL82:
 407:lvgl/src/core/lv_indev.c **** 
 973              		.loc 1 407 5 is_stmt 1 view .LVU298
 407:lvgl/src/core/lv_indev.c **** 
 974              		.loc 1 407 7 is_stmt 0 view .LVU299
 975 002c E6B1     		cbz	r6, .L61
 409:lvgl/src/core/lv_indev.c ****     if(indev_obj_act == NULL) return;
 976              		.loc 1 409 5 is_stmt 1 view .LVU300
 409:lvgl/src/core/lv_indev.c ****     if(indev_obj_act == NULL) return;
 977              		.loc 1 409 21 is_stmt 0 view .LVU301
 978 002e 3046     		mov	r0, r6
 979              	.LVL83:
 409:lvgl/src/core/lv_indev.c ****     if(indev_obj_act == NULL) return;
 980              		.loc 1 409 21 view .LVU302
 981 0030 FFF7FEFF 		bl	lv_group_get_focused
 982              	.LVL84:
 409:lvgl/src/core/lv_indev.c ****     if(indev_obj_act == NULL) return;
 983              		.loc 1 409 19 view .LVU303
 984 0034 994B     		ldr	r3, .L94
 985 0036 1860     		str	r0, [r3]
 410:lvgl/src/core/lv_indev.c **** 
 986              		.loc 1 410 5 is_stmt 1 view .LVU304
 410:lvgl/src/core/lv_indev.c **** 
 987              		.loc 1 410 7 is_stmt 0 view .LVU305
 988 0038 B0B1     		cbz	r0, .L61
 412:lvgl/src/core/lv_indev.c **** 
 989              		.loc 1 412 5 is_stmt 1 view .LVU306
 412:lvgl/src/core/lv_indev.c **** 
 990              		.loc 1 412 16 is_stmt 0 view .LVU307
 991 003a 8021     		movs	r1, #128
 992 003c FFF7FEFF 		bl	lv_obj_has_state
 993              	.LVL85:
ARM GAS  C:\Users\OSD\AppData\Local\Temp\ccrOx18j.s 			page 45


 994 0040 0746     		mov	r7, r0
 995              	.LVL86:
 415:lvgl/src/core/lv_indev.c **** 
 996              		.loc 1 415 5 is_stmt 1 view .LVU308
 415:lvgl/src/core/lv_indev.c **** 
 997              		.loc 1 415 14 is_stmt 0 view .LVU309
 998 0042 E168     		ldr	r1, [r4, #12]
 999              	.LVL87:
 419:lvgl/src/core/lv_indev.c **** 
 1000              		.loc 1 419 5 is_stmt 1 view .LVU310
 419:lvgl/src/core/lv_indev.c **** 
 1001              		.loc 1 419 41 is_stmt 0 view .LVU311
 1002 0044 6B68     		ldr	r3, [r5, #4]
 419:lvgl/src/core/lv_indev.c **** 
 1003              		.loc 1 419 35 view .LVU312
 1004 0046 E360     		str	r3, [r4, #12]
 424:lvgl/src/core/lv_indev.c ****     i->proc.types.keypad.last_state = data->state;
 1005              		.loc 1 424 5 is_stmt 1 view .LVU313
 424:lvgl/src/core/lv_indev.c ****     i->proc.types.keypad.last_state = data->state;
 1006              		.loc 1 424 59 is_stmt 0 view .LVU314
 1007 0048 227A     		ldrb	r2, [r4, #8]	@ zero_extendqisi2
 1008              	.LVL88:
 425:lvgl/src/core/lv_indev.c **** 
 1009              		.loc 1 425 5 is_stmt 1 view .LVU315
 425:lvgl/src/core/lv_indev.c **** 
 1010              		.loc 1 425 43 is_stmt 0 view .LVU316
 1011 004a AB7B     		ldrb	r3, [r5, #14]	@ zero_extendqisi2
 425:lvgl/src/core/lv_indev.c **** 
 1012              		.loc 1 425 37 view .LVU317
 1013 004c 2372     		strb	r3, [r4, #8]
 428:lvgl/src/core/lv_indev.c ****         LV_LOG_INFO("%" LV_PRIu32 " key is pressed", data->key);
 1014              		.loc 1 428 5 is_stmt 1 view .LVU318
 428:lvgl/src/core/lv_indev.c ****         LV_LOG_INFO("%" LV_PRIu32 " key is pressed", data->key);
 1015              		.loc 1 428 7 is_stmt 0 view .LVU319
 1016 004e 012B     		cmp	r3, #1
 1017 0050 10D0     		beq	.L81
 1018              	.L65:
 470:lvgl/src/core/lv_indev.c **** 
 1019              		.loc 1 470 10 is_stmt 1 view .LVU320
 470:lvgl/src/core/lv_indev.c **** 
 1020              		.loc 1 470 12 is_stmt 0 view .LVU321
 1021 0052 0FB9     		cbnz	r7, .L71
 470:lvgl/src/core/lv_indev.c **** 
 1022              		.loc 1 470 18 discriminator 1 view .LVU322
 1023 0054 012B     		cmp	r3, #1
 1024 0056 6CD0     		beq	.L82
 1025              	.L71:
 517:lvgl/src/core/lv_indev.c ****         LV_LOG_INFO("%" LV_PRIu32 " key is released", data->key);
 1026              		.loc 1 517 10 is_stmt 1 view .LVU323
 517:lvgl/src/core/lv_indev.c ****         LV_LOG_INFO("%" LV_PRIu32 " key is released", data->key);
 1027              		.loc 1 517 12 is_stmt 0 view .LVU324
 1028 0058 1FB9     		cbnz	r7, .L67
 517:lvgl/src/core/lv_indev.c ****         LV_LOG_INFO("%" LV_PRIu32 " key is released", data->key);
 1029              		.loc 1 517 18 discriminator 1 view .LVU325
 1030 005a 13B9     		cbnz	r3, .L67
 517:lvgl/src/core/lv_indev.c ****         LV_LOG_INFO("%" LV_PRIu32 " key is released", data->key);
 1031              		.loc 1 517 60 discriminator 2 view .LVU326
ARM GAS  C:\Users\OSD\AppData\Local\Temp\ccrOx18j.s 			page 46


 1032 005c 012A     		cmp	r2, #1
 1033 005e 00F0E780 		beq	.L83
 1034              	.LVL89:
 1035              	.L67:
 538:lvgl/src/core/lv_indev.c **** }
 1036              		.loc 1 538 5 is_stmt 1 view .LVU327
 538:lvgl/src/core/lv_indev.c **** }
 1037              		.loc 1 538 19 is_stmt 0 view .LVU328
 1038 0062 8E4B     		ldr	r3, .L94
 1039 0064 0022     		movs	r2, #0
 1040 0066 1A60     		str	r2, [r3]
 1041              	.LVL90:
 1042              	.L61:
 539:lvgl/src/core/lv_indev.c **** 
 1043              		.loc 1 539 1 view .LVU329
 1044 0068 F8BD     		pop	{r3, r4, r5, r6, r7, pc}
 1045              	.LVL91:
 1046              	.L80:
 397:lvgl/src/core/lv_indev.c **** 
 1047              		.loc 1 397 46 discriminator 1 view .LVU330
 1048 006a 4379     		ldrb	r3, [r0, #5]	@ zero_extendqisi2
 1049 006c 13F0080F 		tst	r3, #8
 1050 0070 CCD0     		beq	.L62
 1051 0072 F9E7     		b	.L61
 1052              	.LVL92:
 1053              	.L81:
 428:lvgl/src/core/lv_indev.c ****         LV_LOG_INFO("%" LV_PRIu32 " key is pressed", data->key);
 1054              		.loc 1 428 46 discriminator 1 view .LVU331
 1055 0074 002A     		cmp	r2, #0
 1056 0076 ECD1     		bne	.L65
 429:lvgl/src/core/lv_indev.c ****         i->proc.pr_timestamp = lv_tick_get();
 1057              		.loc 1 429 9 is_stmt 1 view .LVU332
 429:lvgl/src/core/lv_indev.c ****         i->proc.pr_timestamp = lv_tick_get();
 1058              		.loc 1 429 9 view .LVU333
 429:lvgl/src/core/lv_indev.c ****         i->proc.pr_timestamp = lv_tick_get();
 1059              		.loc 1 429 9 view .LVU334
 430:lvgl/src/core/lv_indev.c **** 
 1060              		.loc 1 430 9 view .LVU335
 430:lvgl/src/core/lv_indev.c **** 
 1061              		.loc 1 430 32 is_stmt 0 view .LVU336
 1062 0078 FFF7FEFF 		bl	lv_tick_get
 1063              	.LVL93:
 430:lvgl/src/core/lv_indev.c **** 
 1064              		.loc 1 430 30 view .LVU337
 1065 007c A064     		str	r0, [r4, #72]
 433:lvgl/src/core/lv_indev.c ****             lv_group_set_editing(g, false); /*Editing is not used by KEYPAD is be sure it is disabl
 1066              		.loc 1 433 9 is_stmt 1 view .LVU338
 433:lvgl/src/core/lv_indev.c ****             lv_group_set_editing(g, false); /*Editing is not used by KEYPAD is be sure it is disabl
 1067              		.loc 1 433 16 is_stmt 0 view .LVU339
 1068 007e 6968     		ldr	r1, [r5, #4]
 433:lvgl/src/core/lv_indev.c ****             lv_group_set_editing(g, false); /*Editing is not used by KEYPAD is be sure it is disabl
 1069              		.loc 1 433 11 view .LVU340
 1070 0080 0929     		cmp	r1, #9
 1071 0082 10D0     		beq	.L84
 439:lvgl/src/core/lv_indev.c ****             lv_group_set_editing(g, false); /*Editing is not used by KEYPAD is be sure it is disabl
 1072              		.loc 1 439 14 is_stmt 1 view .LVU341
 439:lvgl/src/core/lv_indev.c ****             lv_group_set_editing(g, false); /*Editing is not used by KEYPAD is be sure it is disabl
ARM GAS  C:\Users\OSD\AppData\Local\Temp\ccrOx18j.s 			page 47


 1073              		.loc 1 439 16 is_stmt 0 view .LVU342
 1074 0084 0B29     		cmp	r1, #11
 1075 0086 1BD0     		beq	.L85
 444:lvgl/src/core/lv_indev.c ****             /*Simulate a press on the object if ENTER was pressed*/
 1076              		.loc 1 444 14 is_stmt 1 view .LVU343
 444:lvgl/src/core/lv_indev.c ****             /*Simulate a press on the object if ENTER was pressed*/
 1077              		.loc 1 444 16 is_stmt 0 view .LVU344
 1078 0088 002F     		cmp	r7, #0
 1079 008a EAD1     		bne	.L67
 446:lvgl/src/core/lv_indev.c ****                 /*Send the ENTER as a normal KEY*/
 1080              		.loc 1 446 13 is_stmt 1 view .LVU345
 446:lvgl/src/core/lv_indev.c ****                 /*Send the ENTER as a normal KEY*/
 1081              		.loc 1 446 15 is_stmt 0 view .LVU346
 1082 008c 0A29     		cmp	r1, #10
 1083 008e 24D0     		beq	.L86
 454:lvgl/src/core/lv_indev.c ****                 /*Send the ESC as a normal KEY*/
 1084              		.loc 1 454 18 is_stmt 1 view .LVU347
 454:lvgl/src/core/lv_indev.c ****                 /*Send the ESC as a normal KEY*/
 1085              		.loc 1 454 20 is_stmt 0 view .LVU348
 1086 0090 1B29     		cmp	r1, #27
 1087 0092 38D0     		beq	.L87
 464:lvgl/src/core/lv_indev.c ****                 if(indev_reset_check(&i->proc)) return;
 1088              		.loc 1 464 17 is_stmt 1 view .LVU349
 1089 0094 3046     		mov	r0, r6
 1090 0096 FFF7FEFF 		bl	lv_group_send_data
 1091              	.LVL94:
 465:lvgl/src/core/lv_indev.c ****             }
 1092              		.loc 1 465 17 view .LVU350
 465:lvgl/src/core/lv_indev.c ****             }
 1093              		.loc 1 465 20 is_stmt 0 view .LVU351
 1094 009a 201D     		adds	r0, r4, #4
 1095 009c FFF7FEFF 		bl	indev_reset_check
 1096              	.LVL95:
 465:lvgl/src/core/lv_indev.c ****             }
 1097              		.loc 1 465 19 view .LVU352
 1098 00a0 0028     		cmp	r0, #0
 1099 00a2 DED0     		beq	.L67
 1100 00a4 E0E7     		b	.L61
 1101              	.L84:
 434:lvgl/src/core/lv_indev.c ****             lv_group_focus_next(g);
 1102              		.loc 1 434 13 is_stmt 1 view .LVU353
 1103 00a6 0021     		movs	r1, #0
 1104 00a8 3046     		mov	r0, r6
 1105 00aa FFF7FEFF 		bl	lv_group_set_editing
 1106              	.LVL96:
 435:lvgl/src/core/lv_indev.c ****             if(indev_reset_check(&i->proc)) return;
 1107              		.loc 1 435 13 view .LVU354
 1108 00ae 3046     		mov	r0, r6
 1109 00b0 FFF7FEFF 		bl	lv_group_focus_next
 1110              	.LVL97:
 436:lvgl/src/core/lv_indev.c ****         }
 1111              		.loc 1 436 13 view .LVU355
 436:lvgl/src/core/lv_indev.c ****         }
 1112              		.loc 1 436 16 is_stmt 0 view .LVU356
 1113 00b4 201D     		adds	r0, r4, #4
 1114 00b6 FFF7FEFF 		bl	indev_reset_check
 1115              	.LVL98:
ARM GAS  C:\Users\OSD\AppData\Local\Temp\ccrOx18j.s 			page 48


 436:lvgl/src/core/lv_indev.c ****         }
 1116              		.loc 1 436 15 view .LVU357
 1117 00ba 0028     		cmp	r0, #0
 1118 00bc D1D0     		beq	.L67
 1119 00be D3E7     		b	.L61
 1120              	.L85:
 440:lvgl/src/core/lv_indev.c ****             lv_group_focus_prev(g);
 1121              		.loc 1 440 13 is_stmt 1 view .LVU358
 1122 00c0 0021     		movs	r1, #0
 1123 00c2 3046     		mov	r0, r6
 1124 00c4 FFF7FEFF 		bl	lv_group_set_editing
 1125              	.LVL99:
 441:lvgl/src/core/lv_indev.c ****             if(indev_reset_check(&i->proc)) return;
 1126              		.loc 1 441 13 view .LVU359
 1127 00c8 3046     		mov	r0, r6
 1128 00ca FFF7FEFF 		bl	lv_group_focus_prev
 1129              	.LVL100:
 442:lvgl/src/core/lv_indev.c ****         }
 1130              		.loc 1 442 13 view .LVU360
 442:lvgl/src/core/lv_indev.c ****         }
 1131              		.loc 1 442 16 is_stmt 0 view .LVU361
 1132 00ce 201D     		adds	r0, r4, #4
 1133 00d0 FFF7FEFF 		bl	indev_reset_check
 1134              	.LVL101:
 442:lvgl/src/core/lv_indev.c ****         }
 1135              		.loc 1 442 15 view .LVU362
 1136 00d4 0028     		cmp	r0, #0
 1137 00d6 C4D0     		beq	.L67
 1138 00d8 C6E7     		b	.L61
 1139              	.L86:
 448:lvgl/src/core/lv_indev.c ****                 if(indev_reset_check(&i->proc)) return;
 1140              		.loc 1 448 17 is_stmt 1 view .LVU363
 1141 00da 3046     		mov	r0, r6
 1142 00dc FFF7FEFF 		bl	lv_group_send_data
 1143              	.LVL102:
 449:lvgl/src/core/lv_indev.c **** 
 1144              		.loc 1 449 17 view .LVU364
 449:lvgl/src/core/lv_indev.c **** 
 1145              		.loc 1 449 20 is_stmt 0 view .LVU365
 1146 00e0 0434     		adds	r4, r4, #4
 1147              	.LVL103:
 449:lvgl/src/core/lv_indev.c **** 
 1148              		.loc 1 449 20 view .LVU366
 1149 00e2 2046     		mov	r0, r4
 1150 00e4 FFF7FEFF 		bl	indev_reset_check
 1151              	.LVL104:
 449:lvgl/src/core/lv_indev.c **** 
 1152              		.loc 1 449 19 view .LVU367
 1153 00e8 0028     		cmp	r0, #0
 1154 00ea BDD1     		bne	.L61
 451:lvgl/src/core/lv_indev.c ****                 if(indev_reset_check(&i->proc)) return;
 1155              		.loc 1 451 17 is_stmt 1 discriminator 1 view .LVU368
 451:lvgl/src/core/lv_indev.c ****                 if(indev_reset_check(&i->proc)) return;
 1156              		.loc 1 451 26 discriminator 1 view .LVU369
 1157 00ec 6C4B     		ldr	r3, .L94+4
 1158 00ee 1A68     		ldr	r2, [r3]
 1159 00f0 0121     		movs	r1, #1
ARM GAS  C:\Users\OSD\AppData\Local\Temp\ccrOx18j.s 			page 49


 1160 00f2 6A4B     		ldr	r3, .L94
 1161 00f4 1868     		ldr	r0, [r3]
 1162 00f6 FFF7FEFF 		bl	lv_event_send
 1163              	.LVL105:
 452:lvgl/src/core/lv_indev.c ****             }
 1164              		.loc 1 452 17 discriminator 1 view .LVU370
 452:lvgl/src/core/lv_indev.c ****             }
 1165              		.loc 1 452 20 is_stmt 0 discriminator 1 view .LVU371
 1166 00fa 2046     		mov	r0, r4
 1167 00fc FFF7FEFF 		bl	indev_reset_check
 1168              	.LVL106:
 452:lvgl/src/core/lv_indev.c ****             }
 1169              		.loc 1 452 19 discriminator 1 view .LVU372
 1170 0100 0028     		cmp	r0, #0
 1171 0102 AED0     		beq	.L67
 1172 0104 B0E7     		b	.L61
 1173              	.LVL107:
 1174              	.L87:
 456:lvgl/src/core/lv_indev.c ****                 if(indev_reset_check(&i->proc)) return;
 1175              		.loc 1 456 17 is_stmt 1 view .LVU373
 1176 0106 3046     		mov	r0, r6
 1177 0108 FFF7FEFF 		bl	lv_group_send_data
 1178              	.LVL108:
 457:lvgl/src/core/lv_indev.c **** 
 1179              		.loc 1 457 17 view .LVU374
 457:lvgl/src/core/lv_indev.c **** 
 1180              		.loc 1 457 20 is_stmt 0 view .LVU375
 1181 010c 0434     		adds	r4, r4, #4
 1182              	.LVL109:
 457:lvgl/src/core/lv_indev.c **** 
 1183              		.loc 1 457 20 view .LVU376
 1184 010e 2046     		mov	r0, r4
 1185 0110 FFF7FEFF 		bl	indev_reset_check
 1186              	.LVL110:
 457:lvgl/src/core/lv_indev.c **** 
 1187              		.loc 1 457 19 view .LVU377
 1188 0114 0028     		cmp	r0, #0
 1189 0116 A7D1     		bne	.L61
 459:lvgl/src/core/lv_indev.c ****                 if(indev_reset_check(&i->proc)) return;
 1190              		.loc 1 459 17 is_stmt 1 view .LVU378
 1191 0118 614B     		ldr	r3, .L94+4
 1192 011a 1A68     		ldr	r2, [r3]
 1193 011c 2021     		movs	r1, #32
 1194 011e 5F4B     		ldr	r3, .L94
 1195 0120 1868     		ldr	r0, [r3]
 1196 0122 FFF7FEFF 		bl	lv_event_send
 1197              	.LVL111:
 460:lvgl/src/core/lv_indev.c ****             }
 1198              		.loc 1 460 17 view .LVU379
 460:lvgl/src/core/lv_indev.c ****             }
 1199              		.loc 1 460 20 is_stmt 0 view .LVU380
 1200 0126 2046     		mov	r0, r4
 1201 0128 FFF7FEFF 		bl	indev_reset_check
 1202              	.LVL112:
 460:lvgl/src/core/lv_indev.c ****             }
 1203              		.loc 1 460 19 view .LVU381
 1204 012c 0028     		cmp	r0, #0
ARM GAS  C:\Users\OSD\AppData\Local\Temp\ccrOx18j.s 			page 50


 1205 012e 98D0     		beq	.L67
 1206 0130 9AE7     		b	.L61
 1207              	.LVL113:
 1208              	.L82:
 470:lvgl/src/core/lv_indev.c **** 
 1209              		.loc 1 470 59 discriminator 2 view .LVU382
 1210 0132 012A     		cmp	r2, #1
 1211 0134 90D1     		bne	.L71
 472:lvgl/src/core/lv_indev.c ****             lv_event_send(indev_obj_act, LV_EVENT_PRESSING, indev_act);
 1212              		.loc 1 472 9 is_stmt 1 view .LVU383
 472:lvgl/src/core/lv_indev.c ****             lv_event_send(indev_obj_act, LV_EVENT_PRESSING, indev_act);
 1213              		.loc 1 472 16 is_stmt 0 view .LVU384
 1214 0136 6B68     		ldr	r3, [r5, #4]
 472:lvgl/src/core/lv_indev.c ****             lv_event_send(indev_obj_act, LV_EVENT_PRESSING, indev_act);
 1215              		.loc 1 472 11 view .LVU385
 1216 0138 0A2B     		cmp	r3, #10
 1217 013a 22D0     		beq	.L88
 1218              	.LVL114:
 1219              	.L72:
 478:lvgl/src/core/lv_indev.c ****             i->proc.long_pr_sent = 1;
 1220              		.loc 1 478 9 is_stmt 1 view .LVU386
 478:lvgl/src/core/lv_indev.c ****             i->proc.long_pr_sent = 1;
 1221              		.loc 1 478 33 is_stmt 0 view .LVU387
 1222 013c 6379     		ldrb	r3, [r4, #5]	@ zero_extendqisi2
 478:lvgl/src/core/lv_indev.c ****             i->proc.long_pr_sent = 1;
 1223              		.loc 1 478 11 view .LVU388
 1224 013e 13F0010F 		tst	r3, #1
 1225 0142 2BD0     		beq	.L89
 1226              	.L73:
 487:lvgl/src/core/lv_indev.c ****                 lv_tick_elaps(i->proc.longpr_rep_timestamp) > i->driver->long_press_repeat_time) {
 1227              		.loc 1 487 14 is_stmt 1 view .LVU389
 487:lvgl/src/core/lv_indev.c ****                 lv_tick_elaps(i->proc.longpr_rep_timestamp) > i->driver->long_press_repeat_time) {
 1228              		.loc 1 487 38 is_stmt 0 view .LVU390
 1229 0144 6379     		ldrb	r3, [r4, #5]	@ zero_extendqisi2
 487:lvgl/src/core/lv_indev.c ****                 lv_tick_elaps(i->proc.longpr_rep_timestamp) > i->driver->long_press_repeat_time) {
 1230              		.loc 1 487 16 view .LVU391
 1231 0146 13F0010F 		tst	r3, #1
 1232 014a 8AD0     		beq	.L67
 488:lvgl/src/core/lv_indev.c **** 
 1233              		.loc 1 488 17 discriminator 1 view .LVU392
 1234 014c E06C     		ldr	r0, [r4, #76]
 1235 014e FFF7FEFF 		bl	lv_tick_elaps
 1236              	.LVL115:
 488:lvgl/src/core/lv_indev.c **** 
 1237              		.loc 1 488 64 discriminator 1 view .LVU393
 1238 0152 2368     		ldr	r3, [r4]
 488:lvgl/src/core/lv_indev.c **** 
 1239              		.loc 1 488 72 discriminator 1 view .LVU394
 1240 0154 DB8B     		ldrh	r3, [r3, #30]
 487:lvgl/src/core/lv_indev.c ****                 lv_tick_elaps(i->proc.longpr_rep_timestamp) > i->driver->long_press_repeat_time) {
 1241              		.loc 1 487 43 discriminator 1 view .LVU395
 1242 0156 9842     		cmp	r0, r3
 1243 0158 83D9     		bls	.L67
 490:lvgl/src/core/lv_indev.c **** 
 1244              		.loc 1 490 13 is_stmt 1 view .LVU396
 490:lvgl/src/core/lv_indev.c **** 
 1245              		.loc 1 490 44 is_stmt 0 view .LVU397
ARM GAS  C:\Users\OSD\AppData\Local\Temp\ccrOx18j.s 			page 51


 1246 015a FFF7FEFF 		bl	lv_tick_get
 1247              	.LVL116:
 490:lvgl/src/core/lv_indev.c **** 
 1248              		.loc 1 490 42 view .LVU398
 1249 015e E064     		str	r0, [r4, #76]
 493:lvgl/src/core/lv_indev.c ****                 lv_event_send(indev_obj_act, LV_EVENT_LONG_PRESSED_REPEAT, indev_act);
 1250              		.loc 1 493 13 is_stmt 1 view .LVU399
 493:lvgl/src/core/lv_indev.c ****                 lv_event_send(indev_obj_act, LV_EVENT_LONG_PRESSED_REPEAT, indev_act);
 1251              		.loc 1 493 20 is_stmt 0 view .LVU400
 1252 0160 6968     		ldr	r1, [r5, #4]
 493:lvgl/src/core/lv_indev.c ****                 lv_event_send(indev_obj_act, LV_EVENT_LONG_PRESSED_REPEAT, indev_act);
 1253              		.loc 1 493 15 view .LVU401
 1254 0162 0A29     		cmp	r1, #10
 1255 0164 3AD0     		beq	.L90
 498:lvgl/src/core/lv_indev.c ****                 lv_group_set_editing(g, false); /*Editing is not used by KEYPAD is be sure it is di
 1256              		.loc 1 498 18 is_stmt 1 view .LVU402
 498:lvgl/src/core/lv_indev.c ****                 lv_group_set_editing(g, false); /*Editing is not used by KEYPAD is be sure it is di
 1257              		.loc 1 498 20 is_stmt 0 view .LVU403
 1258 0166 0929     		cmp	r1, #9
 1259 0168 46D0     		beq	.L91
 504:lvgl/src/core/lv_indev.c ****                 lv_group_set_editing(g, false); /*Editing is not used by KEYPAD is be sure it is di
 1260              		.loc 1 504 18 is_stmt 1 view .LVU404
 504:lvgl/src/core/lv_indev.c ****                 lv_group_set_editing(g, false); /*Editing is not used by KEYPAD is be sure it is di
 1261              		.loc 1 504 20 is_stmt 0 view .LVU405
 1262 016a 0B29     		cmp	r1, #11
 1263 016c 52D0     		beq	.L92
 511:lvgl/src/core/lv_indev.c ****                 if(indev_reset_check(&i->proc)) return;
 1264              		.loc 1 511 17 is_stmt 1 view .LVU406
 1265 016e 3046     		mov	r0, r6
 1266 0170 FFF7FEFF 		bl	lv_group_send_data
 1267              	.LVL117:
 512:lvgl/src/core/lv_indev.c ****             }
 1268              		.loc 1 512 17 view .LVU407
 512:lvgl/src/core/lv_indev.c ****             }
 1269              		.loc 1 512 20 is_stmt 0 view .LVU408
 1270 0174 201D     		adds	r0, r4, #4
 1271 0176 FFF7FEFF 		bl	indev_reset_check
 1272              	.LVL118:
 512:lvgl/src/core/lv_indev.c ****             }
 1273              		.loc 1 512 19 view .LVU409
 1274 017a 0028     		cmp	r0, #0
 1275 017c 3FF471AF 		beq	.L67
 1276 0180 72E7     		b	.L61
 1277              	.LVL119:
 1278              	.L88:
 473:lvgl/src/core/lv_indev.c ****             if(indev_reset_check(&i->proc)) return;
 1279              		.loc 1 473 13 is_stmt 1 view .LVU410
 1280 0182 474B     		ldr	r3, .L94+4
 1281 0184 1A68     		ldr	r2, [r3]
 1282              	.LVL120:
 473:lvgl/src/core/lv_indev.c ****             if(indev_reset_check(&i->proc)) return;
 1283              		.loc 1 473 13 is_stmt 0 view .LVU411
 1284 0186 0221     		movs	r1, #2
 1285              	.LVL121:
 473:lvgl/src/core/lv_indev.c ****             if(indev_reset_check(&i->proc)) return;
 1286              		.loc 1 473 13 view .LVU412
 1287 0188 444B     		ldr	r3, .L94
ARM GAS  C:\Users\OSD\AppData\Local\Temp\ccrOx18j.s 			page 52


 1288 018a 1868     		ldr	r0, [r3]
 1289 018c FFF7FEFF 		bl	lv_event_send
 1290              	.LVL122:
 474:lvgl/src/core/lv_indev.c ****         }
 1291              		.loc 1 474 13 is_stmt 1 view .LVU413
 474:lvgl/src/core/lv_indev.c ****         }
 1292              		.loc 1 474 16 is_stmt 0 view .LVU414
 1293 0190 201D     		adds	r0, r4, #4
 1294 0192 FFF7FEFF 		bl	indev_reset_check
 1295              	.LVL123:
 474:lvgl/src/core/lv_indev.c ****         }
 1296              		.loc 1 474 15 view .LVU415
 1297 0196 0028     		cmp	r0, #0
 1298 0198 D0D0     		beq	.L72
 1299 019a 65E7     		b	.L61
 1300              	.L89:
 478:lvgl/src/core/lv_indev.c ****             i->proc.long_pr_sent = 1;
 1301              		.loc 1 478 41 discriminator 1 view .LVU416
 1302 019c A06C     		ldr	r0, [r4, #72]
 1303 019e FFF7FEFF 		bl	lv_tick_elaps
 1304              	.LVL124:
 478:lvgl/src/core/lv_indev.c ****             i->proc.long_pr_sent = 1;
 1305              		.loc 1 478 80 discriminator 1 view .LVU417
 1306 01a2 2368     		ldr	r3, [r4]
 478:lvgl/src/core/lv_indev.c ****             i->proc.long_pr_sent = 1;
 1307              		.loc 1 478 88 discriminator 1 view .LVU418
 1308 01a4 9B8B     		ldrh	r3, [r3, #28]
 478:lvgl/src/core/lv_indev.c ****             i->proc.long_pr_sent = 1;
 1309              		.loc 1 478 38 discriminator 1 view .LVU419
 1310 01a6 9842     		cmp	r0, r3
 1311 01a8 CCD9     		bls	.L73
 479:lvgl/src/core/lv_indev.c ****             if(data->key == LV_KEY_ENTER) {
 1312              		.loc 1 479 13 is_stmt 1 view .LVU420
 479:lvgl/src/core/lv_indev.c ****             if(data->key == LV_KEY_ENTER) {
 1313              		.loc 1 479 34 is_stmt 0 view .LVU421
 1314 01aa 6379     		ldrb	r3, [r4, #5]	@ zero_extendqisi2
 1315 01ac 43F00103 		orr	r3, r3, #1
 1316 01b0 6371     		strb	r3, [r4, #5]
 480:lvgl/src/core/lv_indev.c ****                 i->proc.longpr_rep_timestamp = lv_tick_get();
 1317              		.loc 1 480 13 is_stmt 1 view .LVU422
 480:lvgl/src/core/lv_indev.c ****                 i->proc.longpr_rep_timestamp = lv_tick_get();
 1318              		.loc 1 480 20 is_stmt 0 view .LVU423
 1319 01b2 6B68     		ldr	r3, [r5, #4]
 480:lvgl/src/core/lv_indev.c ****                 i->proc.longpr_rep_timestamp = lv_tick_get();
 1320              		.loc 1 480 15 view .LVU424
 1321 01b4 0A2B     		cmp	r3, #10
 1322 01b6 7FF454AF 		bne	.L67
 481:lvgl/src/core/lv_indev.c ****                 lv_event_send(indev_obj_act, LV_EVENT_LONG_PRESSED, indev_act);
 1323              		.loc 1 481 17 is_stmt 1 view .LVU425
 481:lvgl/src/core/lv_indev.c ****                 lv_event_send(indev_obj_act, LV_EVENT_LONG_PRESSED, indev_act);
 1324              		.loc 1 481 48 is_stmt 0 view .LVU426
 1325 01ba FFF7FEFF 		bl	lv_tick_get
 1326              	.LVL125:
 481:lvgl/src/core/lv_indev.c ****                 lv_event_send(indev_obj_act, LV_EVENT_LONG_PRESSED, indev_act);
 1327              		.loc 1 481 46 view .LVU427
 1328 01be E064     		str	r0, [r4, #76]
 482:lvgl/src/core/lv_indev.c ****                 if(indev_reset_check(&i->proc)) return;
ARM GAS  C:\Users\OSD\AppData\Local\Temp\ccrOx18j.s 			page 53


 1329              		.loc 1 482 17 is_stmt 1 view .LVU428
 1330 01c0 374B     		ldr	r3, .L94+4
 1331 01c2 1A68     		ldr	r2, [r3]
 1332 01c4 0521     		movs	r1, #5
 1333 01c6 354B     		ldr	r3, .L94
 1334 01c8 1868     		ldr	r0, [r3]
 1335 01ca FFF7FEFF 		bl	lv_event_send
 1336              	.LVL126:
 483:lvgl/src/core/lv_indev.c ****             }
 1337              		.loc 1 483 17 view .LVU429
 483:lvgl/src/core/lv_indev.c ****             }
 1338              		.loc 1 483 20 is_stmt 0 view .LVU430
 1339 01ce 201D     		adds	r0, r4, #4
 1340 01d0 FFF7FEFF 		bl	indev_reset_check
 1341              	.LVL127:
 483:lvgl/src/core/lv_indev.c ****             }
 1342              		.loc 1 483 19 view .LVU431
 1343 01d4 0028     		cmp	r0, #0
 1344 01d6 3FF444AF 		beq	.L67
 1345 01da 45E7     		b	.L61
 1346              	.L90:
 494:lvgl/src/core/lv_indev.c ****                 if(indev_reset_check(&i->proc)) return;
 1347              		.loc 1 494 17 is_stmt 1 view .LVU432
 1348 01dc 304B     		ldr	r3, .L94+4
 1349 01de 1A68     		ldr	r2, [r3]
 1350 01e0 0621     		movs	r1, #6
 1351 01e2 2E4B     		ldr	r3, .L94
 1352 01e4 1868     		ldr	r0, [r3]
 1353 01e6 FFF7FEFF 		bl	lv_event_send
 1354              	.LVL128:
 495:lvgl/src/core/lv_indev.c ****             }
 1355              		.loc 1 495 17 view .LVU433
 495:lvgl/src/core/lv_indev.c ****             }
 1356              		.loc 1 495 20 is_stmt 0 view .LVU434
 1357 01ea 201D     		adds	r0, r4, #4
 1358 01ec FFF7FEFF 		bl	indev_reset_check
 1359              	.LVL129:
 495:lvgl/src/core/lv_indev.c ****             }
 1360              		.loc 1 495 19 view .LVU435
 1361 01f0 0028     		cmp	r0, #0
 1362 01f2 3FF436AF 		beq	.L67
 1363 01f6 37E7     		b	.L61
 1364              	.L91:
 499:lvgl/src/core/lv_indev.c ****                 lv_group_focus_next(g);
 1365              		.loc 1 499 17 is_stmt 1 view .LVU436
 1366 01f8 0021     		movs	r1, #0
 1367 01fa 3046     		mov	r0, r6
 1368 01fc FFF7FEFF 		bl	lv_group_set_editing
 1369              	.LVL130:
 500:lvgl/src/core/lv_indev.c ****                 if(indev_reset_check(&i->proc)) return;
 1370              		.loc 1 500 17 view .LVU437
 1371 0200 3046     		mov	r0, r6
 1372 0202 FFF7FEFF 		bl	lv_group_focus_next
 1373              	.LVL131:
 501:lvgl/src/core/lv_indev.c ****             }
 1374              		.loc 1 501 17 view .LVU438
 501:lvgl/src/core/lv_indev.c ****             }
ARM GAS  C:\Users\OSD\AppData\Local\Temp\ccrOx18j.s 			page 54


 1375              		.loc 1 501 20 is_stmt 0 view .LVU439
 1376 0206 201D     		adds	r0, r4, #4
 1377 0208 FFF7FEFF 		bl	indev_reset_check
 1378              	.LVL132:
 501:lvgl/src/core/lv_indev.c ****             }
 1379              		.loc 1 501 19 view .LVU440
 1380 020c 0028     		cmp	r0, #0
 1381 020e 3FF428AF 		beq	.L67
 1382 0212 29E7     		b	.L61
 1383              	.L92:
 505:lvgl/src/core/lv_indev.c ****                 lv_group_focus_prev(g);
 1384              		.loc 1 505 17 is_stmt 1 view .LVU441
 1385 0214 0021     		movs	r1, #0
 1386 0216 3046     		mov	r0, r6
 1387 0218 FFF7FEFF 		bl	lv_group_set_editing
 1388              	.LVL133:
 506:lvgl/src/core/lv_indev.c ****                 if(indev_reset_check(&i->proc)) return;
 1389              		.loc 1 506 17 view .LVU442
 1390 021c 3046     		mov	r0, r6
 1391 021e FFF7FEFF 		bl	lv_group_focus_prev
 1392              	.LVL134:
 507:lvgl/src/core/lv_indev.c ****             }
 1393              		.loc 1 507 17 view .LVU443
 507:lvgl/src/core/lv_indev.c ****             }
 1394              		.loc 1 507 20 is_stmt 0 view .LVU444
 1395 0222 201D     		adds	r0, r4, #4
 1396 0224 FFF7FEFF 		bl	indev_reset_check
 1397              	.LVL135:
 507:lvgl/src/core/lv_indev.c ****             }
 1398              		.loc 1 507 19 view .LVU445
 1399 0228 0028     		cmp	r0, #0
 1400 022a 3FF41AAF 		beq	.L67
 1401 022e 1BE7     		b	.L61
 1402              	.LVL136:
 1403              	.L83:
 518:lvgl/src/core/lv_indev.c ****         /*The user might clear the key when it was released. Always release the pressed key*/
 1404              		.loc 1 518 9 is_stmt 1 view .LVU446
 518:lvgl/src/core/lv_indev.c ****         /*The user might clear the key when it was released. Always release the pressed key*/
 1405              		.loc 1 518 9 view .LVU447
 518:lvgl/src/core/lv_indev.c ****         /*The user might clear the key when it was released. Always release the pressed key*/
 1406              		.loc 1 518 9 view .LVU448
 520:lvgl/src/core/lv_indev.c ****         if(data->key == LV_KEY_ENTER) {
 1407              		.loc 1 520 9 view .LVU449
 520:lvgl/src/core/lv_indev.c ****         if(data->key == LV_KEY_ENTER) {
 1408              		.loc 1 520 19 is_stmt 0 view .LVU450
 1409 0230 6960     		str	r1, [r5, #4]
 521:lvgl/src/core/lv_indev.c **** 
 1410              		.loc 1 521 9 is_stmt 1 view .LVU451
 521:lvgl/src/core/lv_indev.c **** 
 1411              		.loc 1 521 11 is_stmt 0 view .LVU452
 1412 0232 0A29     		cmp	r1, #10
 1413 0234 06D0     		beq	.L93
 1414              	.LVL137:
 1415              	.L77:
 535:lvgl/src/core/lv_indev.c ****         i->proc.long_pr_sent = 0;
 1416              		.loc 1 535 9 is_stmt 1 view .LVU453
 535:lvgl/src/core/lv_indev.c ****         i->proc.long_pr_sent = 0;
ARM GAS  C:\Users\OSD\AppData\Local\Temp\ccrOx18j.s 			page 55


 1417              		.loc 1 535 30 is_stmt 0 view .LVU454
 1418 0236 0022     		movs	r2, #0
 1419 0238 A264     		str	r2, [r4, #72]
 536:lvgl/src/core/lv_indev.c ****     }
 1420              		.loc 1 536 9 is_stmt 1 view .LVU455
 536:lvgl/src/core/lv_indev.c ****     }
 1421              		.loc 1 536 30 is_stmt 0 view .LVU456
 1422 023a 6379     		ldrb	r3, [r4, #5]	@ zero_extendqisi2
 1423 023c 62F30003 		bfi	r3, r2, #0, #1
 1424 0240 6371     		strb	r3, [r4, #5]
 1425 0242 0EE7     		b	.L67
 1426              	.LVL138:
 1427              	.L93:
 523:lvgl/src/core/lv_indev.c ****             if(indev_reset_check(&i->proc)) return;
 1428              		.loc 1 523 13 is_stmt 1 view .LVU457
 1429 0244 164B     		ldr	r3, .L94+4
 1430 0246 1A68     		ldr	r2, [r3]
 1431              	.LVL139:
 523:lvgl/src/core/lv_indev.c ****             if(indev_reset_check(&i->proc)) return;
 1432              		.loc 1 523 13 is_stmt 0 view .LVU458
 1433 0248 0821     		movs	r1, #8
 1434              	.LVL140:
 523:lvgl/src/core/lv_indev.c ****             if(indev_reset_check(&i->proc)) return;
 1435              		.loc 1 523 13 view .LVU459
 1436 024a 144B     		ldr	r3, .L94
 1437 024c 1868     		ldr	r0, [r3]
 1438 024e FFF7FEFF 		bl	lv_event_send
 1439              	.LVL141:
 524:lvgl/src/core/lv_indev.c **** 
 1440              		.loc 1 524 13 is_stmt 1 view .LVU460
 524:lvgl/src/core/lv_indev.c **** 
 1441              		.loc 1 524 16 is_stmt 0 view .LVU461
 1442 0252 251D     		adds	r5, r4, #4
 1443              	.LVL142:
 524:lvgl/src/core/lv_indev.c **** 
 1444              		.loc 1 524 16 view .LVU462
 1445 0254 2846     		mov	r0, r5
 1446 0256 FFF7FEFF 		bl	indev_reset_check
 1447              	.LVL143:
 524:lvgl/src/core/lv_indev.c **** 
 1448              		.loc 1 524 15 view .LVU463
 1449 025a 0028     		cmp	r0, #0
 1450 025c 7FF404AF 		bne	.L61
 526:lvgl/src/core/lv_indev.c ****                 lv_event_send(indev_obj_act, LV_EVENT_SHORT_CLICKED, indev_act);
 1451              		.loc 1 526 13 is_stmt 1 view .LVU464
 526:lvgl/src/core/lv_indev.c ****                 lv_event_send(indev_obj_act, LV_EVENT_SHORT_CLICKED, indev_act);
 1452              		.loc 1 526 37 is_stmt 0 view .LVU465
 1453 0260 6379     		ldrb	r3, [r4, #5]	@ zero_extendqisi2
 526:lvgl/src/core/lv_indev.c ****                 lv_event_send(indev_obj_act, LV_EVENT_SHORT_CLICKED, indev_act);
 1454              		.loc 1 526 15 view .LVU466
 1455 0262 13F0010F 		tst	r3, #1
 1456 0266 0CD1     		bne	.L78
 527:lvgl/src/core/lv_indev.c ****                 if(indev_reset_check(&i->proc)) return;
 1457              		.loc 1 527 17 is_stmt 1 view .LVU467
 1458 0268 0D4B     		ldr	r3, .L94+4
 1459 026a 1A68     		ldr	r2, [r3]
 1460 026c 0421     		movs	r1, #4
ARM GAS  C:\Users\OSD\AppData\Local\Temp\ccrOx18j.s 			page 56


 1461 026e 0B4B     		ldr	r3, .L94
 1462 0270 1868     		ldr	r0, [r3]
 1463 0272 FFF7FEFF 		bl	lv_event_send
 1464              	.LVL144:
 528:lvgl/src/core/lv_indev.c ****             }
 1465              		.loc 1 528 17 view .LVU468
 528:lvgl/src/core/lv_indev.c ****             }
 1466              		.loc 1 528 20 is_stmt 0 view .LVU469
 1467 0276 2846     		mov	r0, r5
 1468 0278 FFF7FEFF 		bl	indev_reset_check
 1469              	.LVL145:
 528:lvgl/src/core/lv_indev.c ****             }
 1470              		.loc 1 528 19 view .LVU470
 1471 027c 0028     		cmp	r0, #0
 1472 027e 7FF4F3AE 		bne	.L61
 1473              	.L78:
 531:lvgl/src/core/lv_indev.c ****             if(indev_reset_check(&i->proc)) return;
 1474              		.loc 1 531 13 is_stmt 1 view .LVU471
 1475 0282 074B     		ldr	r3, .L94+4
 1476 0284 1A68     		ldr	r2, [r3]
 1477 0286 0721     		movs	r1, #7
 1478 0288 044B     		ldr	r3, .L94
 1479 028a 1868     		ldr	r0, [r3]
 1480 028c FFF7FEFF 		bl	lv_event_send
 1481              	.LVL146:
 532:lvgl/src/core/lv_indev.c **** 
 1482              		.loc 1 532 13 view .LVU472
 532:lvgl/src/core/lv_indev.c **** 
 1483              		.loc 1 532 16 is_stmt 0 view .LVU473
 1484 0290 2846     		mov	r0, r5
 1485 0292 FFF7FEFF 		bl	indev_reset_check
 1486              	.LVL147:
 532:lvgl/src/core/lv_indev.c **** 
 1487              		.loc 1 532 15 view .LVU474
 1488 0296 0028     		cmp	r0, #0
 1489 0298 CDD0     		beq	.L77
 1490 029a E5E6     		b	.L61
 1491              	.L95:
 1492              		.align	2
 1493              	.L94:
 1494 029c 00000000 		.word	.LANCHOR0
 1495 02a0 00000000 		.word	.LANCHOR1
 1496              		.cfi_endproc
 1497              	.LFE187:
 1499              		.section	.text.indev_encoder_proc,"ax",%progbits
 1500              		.align	1
 1501              		.syntax unified
 1502              		.thumb
 1503              		.thumb_func
 1505              	indev_encoder_proc:
 1506              	.LVL148:
 1507              	.LFB188:
 547:lvgl/src/core/lv_indev.c ****     if(data->state == LV_INDEV_STATE_PRESSED && i->proc.wait_until_release) return;
 1508              		.loc 1 547 1 is_stmt 1 view -0
 1509              		.cfi_startproc
 1510              		@ args = 0, pretend = 0, frame = 0
 1511              		@ frame_needed = 0, uses_anonymous_args = 0
ARM GAS  C:\Users\OSD\AppData\Local\Temp\ccrOx18j.s 			page 57


 547:lvgl/src/core/lv_indev.c ****     if(data->state == LV_INDEV_STATE_PRESSED && i->proc.wait_until_release) return;
 1512              		.loc 1 547 1 is_stmt 0 view .LVU476
 1513 0000 F8B5     		push	{r3, r4, r5, r6, r7, lr}
 1514              		.cfi_def_cfa_offset 24
 1515              		.cfi_offset 3, -24
 1516              		.cfi_offset 4, -20
 1517              		.cfi_offset 5, -16
 1518              		.cfi_offset 6, -12
 1519              		.cfi_offset 7, -8
 1520              		.cfi_offset 14, -4
 1521 0002 0446     		mov	r4, r0
 1522 0004 0D46     		mov	r5, r1
 548:lvgl/src/core/lv_indev.c **** 
 1523              		.loc 1 548 5 is_stmt 1 view .LVU477
 548:lvgl/src/core/lv_indev.c **** 
 1524              		.loc 1 548 12 is_stmt 0 view .LVU478
 1525 0006 8B7B     		ldrb	r3, [r1, #14]	@ zero_extendqisi2
 548:lvgl/src/core/lv_indev.c **** 
 1526              		.loc 1 548 7 view .LVU479
 1527 0008 012B     		cmp	r3, #1
 1528 000a 37D0     		beq	.L148
 1529              	.L97:
 550:lvgl/src/core/lv_indev.c ****         i->proc.wait_until_release      = 0;
 1530              		.loc 1 550 5 is_stmt 1 view .LVU480
 550:lvgl/src/core/lv_indev.c ****         i->proc.wait_until_release      = 0;
 1531              		.loc 1 550 8 is_stmt 0 view .LVU481
 1532 000c 6379     		ldrb	r3, [r4, #5]	@ zero_extendqisi2
 550:lvgl/src/core/lv_indev.c ****         i->proc.wait_until_release      = 0;
 1533              		.loc 1 550 7 view .LVU482
 1534 000e 13F0080F 		tst	r3, #8
 1535 0012 0AD0     		beq	.L99
 551:lvgl/src/core/lv_indev.c ****         i->proc.pr_timestamp            = 0;
 1536              		.loc 1 551 9 is_stmt 1 view .LVU483
 551:lvgl/src/core/lv_indev.c ****         i->proc.pr_timestamp            = 0;
 1537              		.loc 1 551 41 is_stmt 0 view .LVU484
 1538 0014 6379     		ldrb	r3, [r4, #5]	@ zero_extendqisi2
 1539 0016 6FF3C303 		bfc	r3, #3, #1
 1540 001a 6371     		strb	r3, [r4, #5]
 552:lvgl/src/core/lv_indev.c ****         i->proc.long_pr_sent            = 0;
 1541              		.loc 1 552 9 is_stmt 1 view .LVU485
 552:lvgl/src/core/lv_indev.c ****         i->proc.long_pr_sent            = 0;
 1542              		.loc 1 552 41 is_stmt 0 view .LVU486
 1543 001c 0023     		movs	r3, #0
 1544 001e A364     		str	r3, [r4, #72]
 553:lvgl/src/core/lv_indev.c ****         i->proc.types.keypad.last_state = LV_INDEV_STATE_RELEASED; /*To skip the processing of rele
 1545              		.loc 1 553 9 is_stmt 1 view .LVU487
 553:lvgl/src/core/lv_indev.c ****         i->proc.types.keypad.last_state = LV_INDEV_STATE_RELEASED; /*To skip the processing of rele
 1546              		.loc 1 553 41 is_stmt 0 view .LVU488
 1547 0020 6279     		ldrb	r2, [r4, #5]	@ zero_extendqisi2
 1548 0022 63F30002 		bfi	r2, r3, #0, #1
 1549 0026 6271     		strb	r2, [r4, #5]
 554:lvgl/src/core/lv_indev.c ****     }
 1550              		.loc 1 554 9 is_stmt 1 view .LVU489
 554:lvgl/src/core/lv_indev.c ****     }
 1551              		.loc 1 554 41 is_stmt 0 view .LVU490
 1552 0028 2372     		strb	r3, [r4, #8]
 1553              	.L99:
ARM GAS  C:\Users\OSD\AppData\Local\Temp\ccrOx18j.s 			page 58


 559:lvgl/src/core/lv_indev.c ****     i->proc.types.keypad.last_state = data->state;
 1554              		.loc 1 559 5 is_stmt 1 view .LVU491
 559:lvgl/src/core/lv_indev.c ****     i->proc.types.keypad.last_state = data->state;
 1555              		.loc 1 559 22 is_stmt 0 view .LVU492
 1556 002a 277A     		ldrb	r7, [r4, #8]	@ zero_extendqisi2
 1557              	.LVL149:
 560:lvgl/src/core/lv_indev.c ****     i->proc.types.keypad.last_key   = data->key;
 1558              		.loc 1 560 5 is_stmt 1 view .LVU493
 560:lvgl/src/core/lv_indev.c ****     i->proc.types.keypad.last_key   = data->key;
 1559              		.loc 1 560 43 is_stmt 0 view .LVU494
 1560 002c AB7B     		ldrb	r3, [r5, #14]	@ zero_extendqisi2
 560:lvgl/src/core/lv_indev.c ****     i->proc.types.keypad.last_key   = data->key;
 1561              		.loc 1 560 37 view .LVU495
 1562 002e 2372     		strb	r3, [r4, #8]
 561:lvgl/src/core/lv_indev.c **** 
 1563              		.loc 1 561 5 is_stmt 1 view .LVU496
 561:lvgl/src/core/lv_indev.c **** 
 1564              		.loc 1 561 43 is_stmt 0 view .LVU497
 1565 0030 6B68     		ldr	r3, [r5, #4]
 561:lvgl/src/core/lv_indev.c **** 
 1566              		.loc 1 561 37 view .LVU498
 1567 0032 E360     		str	r3, [r4, #12]
 563:lvgl/src/core/lv_indev.c ****     if(g == NULL) return;
 1568              		.loc 1 563 5 is_stmt 1 view .LVU499
 563:lvgl/src/core/lv_indev.c ****     if(g == NULL) return;
 1569              		.loc 1 563 18 is_stmt 0 view .LVU500
 1570 0034 666D     		ldr	r6, [r4, #84]
 1571              	.LVL150:
 564:lvgl/src/core/lv_indev.c **** 
 1572              		.loc 1 564 5 is_stmt 1 view .LVU501
 564:lvgl/src/core/lv_indev.c **** 
 1573              		.loc 1 564 7 is_stmt 0 view .LVU502
 1574 0036 06B3     		cbz	r6, .L96
 566:lvgl/src/core/lv_indev.c ****     if(indev_obj_act == NULL) return;
 1575              		.loc 1 566 5 is_stmt 1 view .LVU503
 566:lvgl/src/core/lv_indev.c ****     if(indev_obj_act == NULL) return;
 1576              		.loc 1 566 21 is_stmt 0 view .LVU504
 1577 0038 3046     		mov	r0, r6
 1578              	.LVL151:
 566:lvgl/src/core/lv_indev.c ****     if(indev_obj_act == NULL) return;
 1579              		.loc 1 566 21 view .LVU505
 1580 003a FFF7FEFF 		bl	lv_group_get_focused
 1581              	.LVL152:
 566:lvgl/src/core/lv_indev.c ****     if(indev_obj_act == NULL) return;
 1582              		.loc 1 566 19 view .LVU506
 1583 003e 9C4B     		ldr	r3, .L168
 1584 0040 1860     		str	r0, [r3]
 567:lvgl/src/core/lv_indev.c **** 
 1585              		.loc 1 567 5 is_stmt 1 view .LVU507
 567:lvgl/src/core/lv_indev.c **** 
 1586              		.loc 1 567 7 is_stmt 0 view .LVU508
 1587 0042 D0B1     		cbz	r0, .L96
 570:lvgl/src/core/lv_indev.c ****         data->enc_diff = 0;
 1588              		.loc 1 570 5 is_stmt 1 view .LVU509
 570:lvgl/src/core/lv_indev.c ****         data->enc_diff = 0;
 1589              		.loc 1 570 12 is_stmt 0 view .LVU510
 1590 0044 AB7B     		ldrb	r3, [r5, #14]	@ zero_extendqisi2
ARM GAS  C:\Users\OSD\AppData\Local\Temp\ccrOx18j.s 			page 59


 570:lvgl/src/core/lv_indev.c ****         data->enc_diff = 0;
 1591              		.loc 1 570 7 view .LVU511
 1592 0046 0BB1     		cbz	r3, .L100
 571:lvgl/src/core/lv_indev.c ****     }
 1593              		.loc 1 571 9 is_stmt 1 view .LVU512
 571:lvgl/src/core/lv_indev.c ****     }
 1594              		.loc 1 571 24 is_stmt 0 view .LVU513
 1595 0048 0023     		movs	r3, #0
 1596 004a AB81     		strh	r3, [r5, #12]	@ movhi
 1597              	.L100:
 575:lvgl/src/core/lv_indev.c ****     if(indev_obj_act == NULL) return;
 1598              		.loc 1 575 5 is_stmt 1 view .LVU514
 575:lvgl/src/core/lv_indev.c ****     if(indev_obj_act == NULL) return;
 1599              		.loc 1 575 21 is_stmt 0 view .LVU515
 1600 004c 3046     		mov	r0, r6
 1601 004e FFF7FEFF 		bl	lv_group_get_focused
 1602              	.LVL153:
 575:lvgl/src/core/lv_indev.c ****     if(indev_obj_act == NULL) return;
 1603              		.loc 1 575 19 view .LVU516
 1604 0052 974B     		ldr	r3, .L168
 1605 0054 1860     		str	r0, [r3]
 576:lvgl/src/core/lv_indev.c **** 
 1606              		.loc 1 576 5 is_stmt 1 view .LVU517
 576:lvgl/src/core/lv_indev.c **** 
 1607              		.loc 1 576 7 is_stmt 0 view .LVU518
 1608 0056 80B1     		cbz	r0, .L96
 579:lvgl/src/core/lv_indev.c ****         LV_LOG_INFO("pressed");
 1609              		.loc 1 579 5 is_stmt 1 view .LVU519
 579:lvgl/src/core/lv_indev.c ****         LV_LOG_INFO("pressed");
 1610              		.loc 1 579 12 is_stmt 0 view .LVU520
 1611 0058 AB7B     		ldrb	r3, [r5, #14]	@ zero_extendqisi2
 579:lvgl/src/core/lv_indev.c ****         LV_LOG_INFO("pressed");
 1612              		.loc 1 579 7 view .LVU521
 1613 005a 012B     		cmp	r3, #1
 1614 005c 13D0     		beq	.L149
 1615              	.L101:
 615:lvgl/src/core/lv_indev.c ****         /*Long press*/
 1616              		.loc 1 615 10 is_stmt 1 view .LVU522
 615:lvgl/src/core/lv_indev.c ****         /*Long press*/
 1617              		.loc 1 615 12 is_stmt 0 view .LVU523
 1618 005e 012B     		cmp	r3, #1
 1619 0060 6CD0     		beq	.L150
 1620              	.L109:
 670:lvgl/src/core/lv_indev.c ****         LV_LOG_INFO("released");
 1621              		.loc 1 670 10 is_stmt 1 view .LVU524
 670:lvgl/src/core/lv_indev.c ****         LV_LOG_INFO("released");
 1622              		.loc 1 670 12 is_stmt 0 view .LVU525
 1623 0062 13B9     		cbnz	r3, .L105
 670:lvgl/src/core/lv_indev.c ****         LV_LOG_INFO("released");
 1624              		.loc 1 670 52 discriminator 1 view .LVU526
 1625 0064 012F     		cmp	r7, #1
 1626 0066 00F0EE80 		beq	.L151
 1627              	.LVL154:
 1628              	.L105:
 720:lvgl/src/core/lv_indev.c **** 
 1629              		.loc 1 720 5 is_stmt 1 view .LVU527
 720:lvgl/src/core/lv_indev.c **** 
ARM GAS  C:\Users\OSD\AppData\Local\Temp\ccrOx18j.s 			page 60


 1630              		.loc 1 720 19 is_stmt 0 view .LVU528
 1631 006a 914B     		ldr	r3, .L168
 1632 006c 0022     		movs	r2, #0
 1633 006e 1A60     		str	r2, [r3]
 723:lvgl/src/core/lv_indev.c ****         /*In edit mode send LEFT/RIGHT keys*/
 1634              		.loc 1 723 5 is_stmt 1 view .LVU529
 723:lvgl/src/core/lv_indev.c ****         /*In edit mode send LEFT/RIGHT keys*/
 1635              		.loc 1 723 12 is_stmt 0 view .LVU530
 1636 0070 B5F90C30 		ldrsh	r3, [r5, #12]
 723:lvgl/src/core/lv_indev.c ****         /*In edit mode send LEFT/RIGHT keys*/
 1637              		.loc 1 723 7 view .LVU531
 1638 0074 002B     		cmp	r3, #0
 1639 0076 40F08281 		bne	.L152
 1640              	.LVL155:
 1641              	.L96:
 759:lvgl/src/core/lv_indev.c **** 
 1642              		.loc 1 759 1 view .LVU532
 1643 007a F8BD     		pop	{r3, r4, r5, r6, r7, pc}
 1644              	.LVL156:
 1645              	.L148:
 548:lvgl/src/core/lv_indev.c **** 
 1646              		.loc 1 548 46 discriminator 1 view .LVU533
 1647 007c 4379     		ldrb	r3, [r0, #5]	@ zero_extendqisi2
 1648 007e 13F0080F 		tst	r3, #8
 1649 0082 C3D0     		beq	.L97
 1650 0084 F9E7     		b	.L96
 1651              	.LVL157:
 1652              	.L149:
 579:lvgl/src/core/lv_indev.c ****         LV_LOG_INFO("pressed");
 1653              		.loc 1 579 46 discriminator 1 view .LVU534
 1654 0086 002F     		cmp	r7, #0
 1655 0088 E9D1     		bne	.L101
 580:lvgl/src/core/lv_indev.c **** 
 1656              		.loc 1 580 9 is_stmt 1 view .LVU535
 580:lvgl/src/core/lv_indev.c **** 
 1657              		.loc 1 580 9 view .LVU536
 580:lvgl/src/core/lv_indev.c **** 
 1658              		.loc 1 580 9 view .LVU537
 582:lvgl/src/core/lv_indev.c **** 
 1659              		.loc 1 582 9 view .LVU538
 582:lvgl/src/core/lv_indev.c **** 
 1660              		.loc 1 582 32 is_stmt 0 view .LVU539
 1661 008a FFF7FEFF 		bl	lv_tick_get
 1662              	.LVL158:
 582:lvgl/src/core/lv_indev.c **** 
 1663              		.loc 1 582 30 view .LVU540
 1664 008e A064     		str	r0, [r4, #72]
 584:lvgl/src/core/lv_indev.c ****             bool editable_or_scrollable = lv_obj_is_editable(indev_obj_act) ||
 1665              		.loc 1 584 9 is_stmt 1 view .LVU541
 584:lvgl/src/core/lv_indev.c ****             bool editable_or_scrollable = lv_obj_is_editable(indev_obj_act) ||
 1666              		.loc 1 584 16 is_stmt 0 view .LVU542
 1667 0090 6968     		ldr	r1, [r5, #4]
 584:lvgl/src/core/lv_indev.c ****             bool editable_or_scrollable = lv_obj_is_editable(indev_obj_act) ||
 1668              		.loc 1 584 11 view .LVU543
 1669 0092 0A29     		cmp	r1, #10
 1670 0094 0ED0     		beq	.L153
 592:lvgl/src/core/lv_indev.c ****             /*emulate encoder left*/
ARM GAS  C:\Users\OSD\AppData\Local\Temp\ccrOx18j.s 			page 61


 1671              		.loc 1 592 14 is_stmt 1 view .LVU544
 592:lvgl/src/core/lv_indev.c ****             /*emulate encoder left*/
 1672              		.loc 1 592 16 is_stmt 0 view .LVU545
 1673 0096 1429     		cmp	r1, #20
 1674 0098 30D0     		beq	.L154
 596:lvgl/src/core/lv_indev.c ****             /*emulate encoder right*/
 1675              		.loc 1 596 14 is_stmt 1 view .LVU546
 596:lvgl/src/core/lv_indev.c ****             /*emulate encoder right*/
 1676              		.loc 1 596 16 is_stmt 0 view .LVU547
 1677 009a 1329     		cmp	r1, #19
 1678 009c 33D0     		beq	.L155
 600:lvgl/src/core/lv_indev.c ****             /*Send the ESC as a normal KEY*/
 1679              		.loc 1 600 14 is_stmt 1 view .LVU548
 600:lvgl/src/core/lv_indev.c ****             /*Send the ESC as a normal KEY*/
 1680              		.loc 1 600 16 is_stmt 0 view .LVU549
 1681 009e 1B29     		cmp	r1, #27
 1682 00a0 36D0     		beq	.L156
 610:lvgl/src/core/lv_indev.c ****             if(indev_reset_check(&i->proc)) return;
 1683              		.loc 1 610 13 is_stmt 1 view .LVU550
 1684 00a2 3046     		mov	r0, r6
 1685 00a4 FFF7FEFF 		bl	lv_group_send_data
 1686              	.LVL159:
 611:lvgl/src/core/lv_indev.c ****         }
 1687              		.loc 1 611 13 view .LVU551
 611:lvgl/src/core/lv_indev.c ****         }
 1688              		.loc 1 611 16 is_stmt 0 view .LVU552
 1689 00a8 201D     		adds	r0, r4, #4
 1690 00aa FFF7FEFF 		bl	indev_reset_check
 1691              	.LVL160:
 611:lvgl/src/core/lv_indev.c ****         }
 1692              		.loc 1 611 15 view .LVU553
 1693 00ae 0028     		cmp	r0, #0
 1694 00b0 DBD0     		beq	.L105
 1695 00b2 E2E7     		b	.L96
 1696              	.L153:
 1697              	.LBB14:
 585:lvgl/src/core/lv_indev.c ****                                           lv_obj_has_flag(indev_obj_act, LV_OBJ_FLAG_SCROLLABLE);
 1698              		.loc 1 585 13 is_stmt 1 view .LVU554
 585:lvgl/src/core/lv_indev.c ****                                           lv_obj_has_flag(indev_obj_act, LV_OBJ_FLAG_SCROLLABLE);
 1699              		.loc 1 585 43 is_stmt 0 view .LVU555
 1700 00b4 7E4B     		ldr	r3, .L168
 1701 00b6 1868     		ldr	r0, [r3]
 1702 00b8 FFF7FEFF 		bl	lv_obj_is_editable
 1703              	.LVL161:
 585:lvgl/src/core/lv_indev.c ****                                           lv_obj_has_flag(indev_obj_act, LV_OBJ_FLAG_SCROLLABLE);
 1704              		.loc 1 585 77 view .LVU556
 1705 00bc A0B1     		cbz	r0, .L157
 1706 00be 0123     		movs	r3, #1
 1707              	.L103:
 585:lvgl/src/core/lv_indev.c ****                                           lv_obj_has_flag(indev_obj_act, LV_OBJ_FLAG_SCROLLABLE);
 1708              		.loc 1 585 18 discriminator 6 view .LVU557
 1709 00c0 1F46     		mov	r7, r3
 1710              	.LVL162:
 587:lvgl/src/core/lv_indev.c ****                 lv_event_send(indev_obj_act, LV_EVENT_PRESSED, indev_act);
 1711              		.loc 1 587 13 is_stmt 1 discriminator 6 view .LVU558
 587:lvgl/src/core/lv_indev.c ****                 lv_event_send(indev_obj_act, LV_EVENT_PRESSED, indev_act);
 1712              		.loc 1 587 16 is_stmt 0 discriminator 6 view .LVU559
ARM GAS  C:\Users\OSD\AppData\Local\Temp\ccrOx18j.s 			page 62


 1713 00c2 3046     		mov	r0, r6
 1714 00c4 FFF7FEFF 		bl	lv_group_get_editing
 1715              	.LVL163:
 587:lvgl/src/core/lv_indev.c ****                 lv_event_send(indev_obj_act, LV_EVENT_PRESSED, indev_act);
 1716              		.loc 1 587 15 discriminator 6 view .LVU560
 1717 00c8 08B9     		cbnz	r0, .L104
 587:lvgl/src/core/lv_indev.c ****                 lv_event_send(indev_obj_act, LV_EVENT_PRESSED, indev_act);
 1718              		.loc 1 587 48 discriminator 1 view .LVU561
 1719 00ca 002F     		cmp	r7, #0
 1720 00cc CDD1     		bne	.L105
 1721              	.L104:
 588:lvgl/src/core/lv_indev.c ****                 if(indev_reset_check(&i->proc)) return;
 1722              		.loc 1 588 17 is_stmt 1 view .LVU562
 1723 00ce 794B     		ldr	r3, .L168+4
 1724 00d0 1A68     		ldr	r2, [r3]
 1725 00d2 0121     		movs	r1, #1
 1726 00d4 764B     		ldr	r3, .L168
 1727 00d6 1868     		ldr	r0, [r3]
 1728 00d8 FFF7FEFF 		bl	lv_event_send
 1729              	.LVL164:
 589:lvgl/src/core/lv_indev.c ****             }
 1730              		.loc 1 589 17 view .LVU563
 589:lvgl/src/core/lv_indev.c ****             }
 1731              		.loc 1 589 20 is_stmt 0 view .LVU564
 1732 00dc 201D     		adds	r0, r4, #4
 1733 00de FFF7FEFF 		bl	indev_reset_check
 1734              	.LVL165:
 589:lvgl/src/core/lv_indev.c ****             }
 1735              		.loc 1 589 19 view .LVU565
 1736 00e2 0028     		cmp	r0, #0
 1737 00e4 C1D0     		beq	.L105
 1738 00e6 C8E7     		b	.L96
 1739              	.LVL166:
 1740              	.L157:
 586:lvgl/src/core/lv_indev.c ****             if(lv_group_get_editing(g) == true || editable_or_scrollable == false) {
 1741              		.loc 1 586 43 discriminator 2 view .LVU566
 1742 00e8 1021     		movs	r1, #16
 1743 00ea 714B     		ldr	r3, .L168
 1744 00ec 1868     		ldr	r0, [r3]
 1745 00ee FFF7FEFF 		bl	lv_obj_has_flag
 1746              	.LVL167:
 585:lvgl/src/core/lv_indev.c ****                                           lv_obj_has_flag(indev_obj_act, LV_OBJ_FLAG_SCROLLABLE);
 1747              		.loc 1 585 77 discriminator 2 view .LVU567
 1748 00f2 08B9     		cbnz	r0, .L136
 585:lvgl/src/core/lv_indev.c ****                                           lv_obj_has_flag(indev_obj_act, LV_OBJ_FLAG_SCROLLABLE);
 1749              		.loc 1 585 77 view .LVU568
 1750 00f4 0023     		movs	r3, #0
 1751 00f6 E3E7     		b	.L103
 1752              	.L136:
 1753 00f8 0123     		movs	r3, #1
 1754 00fa E1E7     		b	.L103
 1755              	.L154:
 1756              	.LBE14:
 594:lvgl/src/core/lv_indev.c ****         }
 1757              		.loc 1 594 13 is_stmt 1 view .LVU569
 594:lvgl/src/core/lv_indev.c ****         }
 1758              		.loc 1 594 17 is_stmt 0 view .LVU570
ARM GAS  C:\Users\OSD\AppData\Local\Temp\ccrOx18j.s 			page 63


 1759 00fc B5F90C30 		ldrsh	r3, [r5, #12]
 594:lvgl/src/core/lv_indev.c ****         }
 1760              		.loc 1 594 27 view .LVU571
 1761 0100 013B     		subs	r3, r3, #1
 1762 0102 AB81     		strh	r3, [r5, #12]	@ movhi
 1763 0104 B1E7     		b	.L105
 1764              	.L155:
 598:lvgl/src/core/lv_indev.c ****         }
 1765              		.loc 1 598 13 is_stmt 1 view .LVU572
 598:lvgl/src/core/lv_indev.c ****         }
 1766              		.loc 1 598 17 is_stmt 0 view .LVU573
 1767 0106 B5F90C30 		ldrsh	r3, [r5, #12]
 598:lvgl/src/core/lv_indev.c ****         }
 1768              		.loc 1 598 27 view .LVU574
 1769 010a 0133     		adds	r3, r3, #1
 1770 010c AB81     		strh	r3, [r5, #12]	@ movhi
 1771 010e ACE7     		b	.L105
 1772              	.L156:
 602:lvgl/src/core/lv_indev.c ****             if(indev_reset_check(&i->proc)) return;
 1773              		.loc 1 602 13 is_stmt 1 view .LVU575
 1774 0110 3046     		mov	r0, r6
 1775 0112 FFF7FEFF 		bl	lv_group_send_data
 1776              	.LVL168:
 603:lvgl/src/core/lv_indev.c **** 
 1777              		.loc 1 603 13 view .LVU576
 603:lvgl/src/core/lv_indev.c **** 
 1778              		.loc 1 603 16 is_stmt 0 view .LVU577
 1779 0116 271D     		adds	r7, r4, #4
 1780              	.LVL169:
 603:lvgl/src/core/lv_indev.c **** 
 1781              		.loc 1 603 16 view .LVU578
 1782 0118 3846     		mov	r0, r7
 1783 011a FFF7FEFF 		bl	indev_reset_check
 1784              	.LVL170:
 603:lvgl/src/core/lv_indev.c **** 
 1785              		.loc 1 603 15 view .LVU579
 1786 011e 0028     		cmp	r0, #0
 1787 0120 ABD1     		bne	.L96
 605:lvgl/src/core/lv_indev.c ****             if(indev_reset_check(&i->proc)) return;
 1788              		.loc 1 605 13 is_stmt 1 view .LVU580
 1789 0122 644B     		ldr	r3, .L168+4
 1790 0124 1A68     		ldr	r2, [r3]
 1791 0126 2021     		movs	r1, #32
 1792 0128 614B     		ldr	r3, .L168
 1793 012a 1868     		ldr	r0, [r3]
 1794 012c FFF7FEFF 		bl	lv_event_send
 1795              	.LVL171:
 606:lvgl/src/core/lv_indev.c ****         }
 1796              		.loc 1 606 13 view .LVU581
 606:lvgl/src/core/lv_indev.c ****         }
 1797              		.loc 1 606 16 is_stmt 0 view .LVU582
 1798 0130 3846     		mov	r0, r7
 1799 0132 FFF7FEFF 		bl	indev_reset_check
 1800              	.LVL172:
 606:lvgl/src/core/lv_indev.c ****         }
 1801              		.loc 1 606 15 view .LVU583
 1802 0136 0028     		cmp	r0, #0
ARM GAS  C:\Users\OSD\AppData\Local\Temp\ccrOx18j.s 			page 64


 1803 0138 97D0     		beq	.L105
 1804 013a 9EE7     		b	.L96
 1805              	.LVL173:
 1806              	.L150:
 615:lvgl/src/core/lv_indev.c ****         /*Long press*/
 1807              		.loc 1 615 51 discriminator 1 view .LVU584
 1808 013c 012F     		cmp	r7, #1
 1809 013e 90D1     		bne	.L109
 617:lvgl/src/core/lv_indev.c **** 
 1810              		.loc 1 617 9 is_stmt 1 view .LVU585
 617:lvgl/src/core/lv_indev.c **** 
 1811              		.loc 1 617 33 is_stmt 0 view .LVU586
 1812 0140 6379     		ldrb	r3, [r4, #5]	@ zero_extendqisi2
 617:lvgl/src/core/lv_indev.c **** 
 1813              		.loc 1 617 11 view .LVU587
 1814 0142 13F0010F 		tst	r3, #1
 1815 0146 19D0     		beq	.L158
 1816              	.L110:
 645:lvgl/src/core/lv_indev.c **** 
 1817              		.loc 1 645 14 is_stmt 1 view .LVU588
 645:lvgl/src/core/lv_indev.c **** 
 1818              		.loc 1 645 38 is_stmt 0 view .LVU589
 1819 0148 6379     		ldrb	r3, [r4, #5]	@ zero_extendqisi2
 645:lvgl/src/core/lv_indev.c **** 
 1820              		.loc 1 645 16 view .LVU590
 1821 014a 13F0010F 		tst	r3, #1
 1822 014e 8CD0     		beq	.L105
 645:lvgl/src/core/lv_indev.c **** 
 1823              		.loc 1 645 46 discriminator 1 view .LVU591
 1824 0150 E06C     		ldr	r0, [r4, #76]
 1825 0152 FFF7FEFF 		bl	lv_tick_elaps
 1826              	.LVL174:
 645:lvgl/src/core/lv_indev.c **** 
 1827              		.loc 1 645 93 discriminator 1 view .LVU592
 1828 0156 2368     		ldr	r3, [r4]
 645:lvgl/src/core/lv_indev.c **** 
 1829              		.loc 1 645 101 discriminator 1 view .LVU593
 1830 0158 DB8B     		ldrh	r3, [r3, #30]
 645:lvgl/src/core/lv_indev.c **** 
 1831              		.loc 1 645 43 discriminator 1 view .LVU594
 1832 015a 9842     		cmp	r0, r3
 1833 015c 85D9     		bls	.L105
 647:lvgl/src/core/lv_indev.c **** 
 1834              		.loc 1 647 13 is_stmt 1 view .LVU595
 647:lvgl/src/core/lv_indev.c **** 
 1835              		.loc 1 647 44 is_stmt 0 view .LVU596
 1836 015e FFF7FEFF 		bl	lv_tick_get
 1837              	.LVL175:
 647:lvgl/src/core/lv_indev.c **** 
 1838              		.loc 1 647 42 view .LVU597
 1839 0162 E064     		str	r0, [r4, #76]
 649:lvgl/src/core/lv_indev.c ****                 lv_event_send(indev_obj_act, LV_EVENT_LONG_PRESSED_REPEAT, indev_act);
 1840              		.loc 1 649 13 is_stmt 1 view .LVU598
 649:lvgl/src/core/lv_indev.c ****                 lv_event_send(indev_obj_act, LV_EVENT_LONG_PRESSED_REPEAT, indev_act);
 1841              		.loc 1 649 20 is_stmt 0 view .LVU599
 1842 0164 6968     		ldr	r1, [r5, #4]
 649:lvgl/src/core/lv_indev.c ****                 lv_event_send(indev_obj_act, LV_EVENT_LONG_PRESSED_REPEAT, indev_act);
ARM GAS  C:\Users\OSD\AppData\Local\Temp\ccrOx18j.s 			page 65


 1843              		.loc 1 649 15 view .LVU600
 1844 0166 0A29     		cmp	r1, #10
 1845 0168 50D0     		beq	.L159
 653:lvgl/src/core/lv_indev.c ****                 /*emulate encoder left*/
 1846              		.loc 1 653 18 is_stmt 1 view .LVU601
 653:lvgl/src/core/lv_indev.c ****                 /*emulate encoder left*/
 1847              		.loc 1 653 20 is_stmt 0 view .LVU602
 1848 016a 1429     		cmp	r1, #20
 1849 016c 5CD0     		beq	.L160
 657:lvgl/src/core/lv_indev.c ****                 /*emulate encoder right*/
 1850              		.loc 1 657 18 is_stmt 1 view .LVU603
 657:lvgl/src/core/lv_indev.c ****                 /*emulate encoder right*/
 1851              		.loc 1 657 20 is_stmt 0 view .LVU604
 1852 016e 1329     		cmp	r1, #19
 1853 0170 5FD1     		bne	.L116
 659:lvgl/src/core/lv_indev.c ****             }
 1854              		.loc 1 659 17 is_stmt 1 view .LVU605
 659:lvgl/src/core/lv_indev.c ****             }
 1855              		.loc 1 659 21 is_stmt 0 view .LVU606
 1856 0172 B5F90C30 		ldrsh	r3, [r5, #12]
 659:lvgl/src/core/lv_indev.c ****             }
 1857              		.loc 1 659 31 view .LVU607
 1858 0176 0133     		adds	r3, r3, #1
 1859 0178 AB81     		strh	r3, [r5, #12]	@ movhi
 1860 017a 76E7     		b	.L105
 1861              	.L158:
 617:lvgl/src/core/lv_indev.c **** 
 1862              		.loc 1 617 41 discriminator 1 view .LVU608
 1863 017c A06C     		ldr	r0, [r4, #72]
 1864 017e FFF7FEFF 		bl	lv_tick_elaps
 1865              	.LVL176:
 617:lvgl/src/core/lv_indev.c **** 
 1866              		.loc 1 617 80 discriminator 1 view .LVU609
 1867 0182 2368     		ldr	r3, [r4]
 617:lvgl/src/core/lv_indev.c **** 
 1868              		.loc 1 617 88 discriminator 1 view .LVU610
 1869 0184 9B8B     		ldrh	r3, [r3, #28]
 617:lvgl/src/core/lv_indev.c **** 
 1870              		.loc 1 617 38 discriminator 1 view .LVU611
 1871 0186 9842     		cmp	r0, r3
 1872 0188 DED9     		bls	.L110
 619:lvgl/src/core/lv_indev.c ****             i->proc.longpr_rep_timestamp = lv_tick_get();
 1873              		.loc 1 619 13 is_stmt 1 view .LVU612
 619:lvgl/src/core/lv_indev.c ****             i->proc.longpr_rep_timestamp = lv_tick_get();
 1874              		.loc 1 619 34 is_stmt 0 view .LVU613
 1875 018a 6379     		ldrb	r3, [r4, #5]	@ zero_extendqisi2
 1876 018c 43F00103 		orr	r3, r3, #1
 1877 0190 6371     		strb	r3, [r4, #5]
 620:lvgl/src/core/lv_indev.c **** 
 1878              		.loc 1 620 13 is_stmt 1 view .LVU614
 620:lvgl/src/core/lv_indev.c **** 
 1879              		.loc 1 620 44 is_stmt 0 view .LVU615
 1880 0192 FFF7FEFF 		bl	lv_tick_get
 1881              	.LVL177:
 620:lvgl/src/core/lv_indev.c **** 
 1882              		.loc 1 620 42 view .LVU616
 1883 0196 E064     		str	r0, [r4, #76]
ARM GAS  C:\Users\OSD\AppData\Local\Temp\ccrOx18j.s 			page 66


 622:lvgl/src/core/lv_indev.c ****                 bool editable_or_scrollable = lv_obj_is_editable(indev_obj_act) ||
 1884              		.loc 1 622 13 is_stmt 1 view .LVU617
 622:lvgl/src/core/lv_indev.c ****                 bool editable_or_scrollable = lv_obj_is_editable(indev_obj_act) ||
 1885              		.loc 1 622 20 is_stmt 0 view .LVU618
 1886 0198 6B68     		ldr	r3, [r5, #4]
 622:lvgl/src/core/lv_indev.c ****                 bool editable_or_scrollable = lv_obj_is_editable(indev_obj_act) ||
 1887              		.loc 1 622 15 view .LVU619
 1888 019a 0A2B     		cmp	r3, #10
 1889 019c 04D0     		beq	.L161
 1890              	.L111:
 642:lvgl/src/core/lv_indev.c ****         }
 1891              		.loc 1 642 13 is_stmt 1 view .LVU620
 642:lvgl/src/core/lv_indev.c ****         }
 1892              		.loc 1 642 34 is_stmt 0 view .LVU621
 1893 019e 6379     		ldrb	r3, [r4, #5]	@ zero_extendqisi2
 1894 01a0 43F00103 		orr	r3, r3, #1
 1895 01a4 6371     		strb	r3, [r4, #5]
 1896 01a6 60E7     		b	.L105
 1897              	.L161:
 1898              	.LBB15:
 623:lvgl/src/core/lv_indev.c ****                                               lv_obj_has_flag(indev_obj_act, LV_OBJ_FLAG_SCROLLABLE
 1899              		.loc 1 623 17 is_stmt 1 view .LVU622
 623:lvgl/src/core/lv_indev.c ****                                               lv_obj_has_flag(indev_obj_act, LV_OBJ_FLAG_SCROLLABLE
 1900              		.loc 1 623 47 is_stmt 0 view .LVU623
 1901 01a8 414B     		ldr	r3, .L168
 1902 01aa 1868     		ldr	r0, [r3]
 1903 01ac FFF7FEFF 		bl	lv_obj_is_editable
 1904              	.LVL178:
 623:lvgl/src/core/lv_indev.c ****                                               lv_obj_has_flag(indev_obj_act, LV_OBJ_FLAG_SCROLLABLE
 1905              		.loc 1 623 81 view .LVU624
 1906 01b0 A8B1     		cbz	r0, .L162
 1907 01b2 0123     		movs	r3, #1
 1908              	.L112:
 1909              	.LVL179:
 627:lvgl/src/core/lv_indev.c ****                     /*Don't leave edit mode if there is only one object (nowhere to navigate)*/
 1910              		.loc 1 627 17 is_stmt 1 discriminator 6 view .LVU625
 627:lvgl/src/core/lv_indev.c ****                     /*Don't leave edit mode if there is only one object (nowhere to navigate)*/
 1911              		.loc 1 627 19 is_stmt 0 discriminator 6 view .LVU626
 1912 01b4 EBB1     		cbz	r3, .L113
 629:lvgl/src/core/lv_indev.c ****                         LV_LOG_INFO("toggling edit mode");
 1913              		.loc 1 629 21 is_stmt 1 view .LVU627
 629:lvgl/src/core/lv_indev.c ****                         LV_LOG_INFO("toggling edit mode");
 1914              		.loc 1 629 24 is_stmt 0 view .LVU628
 1915 01b6 3046     		mov	r0, r6
 1916 01b8 FFF7FEFF 		bl	lv_group_get_obj_count
 1917              	.LVL180:
 629:lvgl/src/core/lv_indev.c ****                         LV_LOG_INFO("toggling edit mode");
 1918              		.loc 1 629 23 view .LVU629
 1919 01bc 0128     		cmp	r0, #1
 1920 01be EED9     		bls	.L111
 630:lvgl/src/core/lv_indev.c ****                         lv_group_set_editing(g, lv_group_get_editing(g) ? false : true); /*Toggle e
 1921              		.loc 1 630 25 is_stmt 1 view .LVU630
 630:lvgl/src/core/lv_indev.c ****                         lv_group_set_editing(g, lv_group_get_editing(g) ? false : true); /*Toggle e
 1922              		.loc 1 630 25 view .LVU631
 630:lvgl/src/core/lv_indev.c ****                         lv_group_set_editing(g, lv_group_get_editing(g) ? false : true); /*Toggle e
 1923              		.loc 1 630 25 view .LVU632
 631:lvgl/src/core/lv_indev.c ****                         lv_obj_clear_state(indev_obj_act, LV_STATE_PRESSED);    /*Remove the presse
ARM GAS  C:\Users\OSD\AppData\Local\Temp\ccrOx18j.s 			page 67


 1924              		.loc 1 631 25 view .LVU633
 631:lvgl/src/core/lv_indev.c ****                         lv_obj_clear_state(indev_obj_act, LV_STATE_PRESSED);    /*Remove the presse
 1925              		.loc 1 631 49 is_stmt 0 view .LVU634
 1926 01c0 3046     		mov	r0, r6
 1927 01c2 FFF7FEFF 		bl	lv_group_get_editing
 1928              	.LVL181:
 631:lvgl/src/core/lv_indev.c ****                         lv_obj_clear_state(indev_obj_act, LV_STATE_PRESSED);    /*Remove the presse
 1929              		.loc 1 631 25 view .LVU635
 1930 01c6 80F00101 		eor	r1, r0, #1
 1931 01ca C9B2     		uxtb	r1, r1
 1932 01cc 3046     		mov	r0, r6
 1933 01ce FFF7FEFF 		bl	lv_group_set_editing
 1934              	.LVL182:
 632:lvgl/src/core/lv_indev.c ****                     }
 1935              		.loc 1 632 25 is_stmt 1 view .LVU636
 1936 01d2 2021     		movs	r1, #32
 1937 01d4 364B     		ldr	r3, .L168
 1938 01d6 1868     		ldr	r0, [r3]
 1939 01d8 FFF7FEFF 		bl	lv_obj_clear_state
 1940              	.LVL183:
 1941 01dc DFE7     		b	.L111
 1942              	.L162:
 624:lvgl/src/core/lv_indev.c **** 
 1943              		.loc 1 624 47 is_stmt 0 discriminator 2 view .LVU637
 1944 01de 1021     		movs	r1, #16
 1945 01e0 334B     		ldr	r3, .L168
 1946 01e2 1868     		ldr	r0, [r3]
 1947 01e4 FFF7FEFF 		bl	lv_obj_has_flag
 1948              	.LVL184:
 623:lvgl/src/core/lv_indev.c ****                                               lv_obj_has_flag(indev_obj_act, LV_OBJ_FLAG_SCROLLABLE
 1949              		.loc 1 623 81 discriminator 2 view .LVU638
 1950 01e8 08B9     		cbnz	r0, .L138
 623:lvgl/src/core/lv_indev.c ****                                               lv_obj_has_flag(indev_obj_act, LV_OBJ_FLAG_SCROLLABLE
 1951              		.loc 1 623 81 view .LVU639
 1952 01ea 0023     		movs	r3, #0
 1953 01ec E2E7     		b	.L112
 1954              	.L138:
 1955 01ee 0123     		movs	r3, #1
 1956 01f0 E0E7     		b	.L112
 1957              	.LVL185:
 1958              	.L113:
 637:lvgl/src/core/lv_indev.c ****                     if(indev_reset_check(&i->proc)) return;
 1959              		.loc 1 637 21 is_stmt 1 view .LVU640
 1960 01f2 304B     		ldr	r3, .L168+4
 1961              	.LVL186:
 637:lvgl/src/core/lv_indev.c ****                     if(indev_reset_check(&i->proc)) return;
 1962              		.loc 1 637 21 is_stmt 0 view .LVU641
 1963 01f4 1A68     		ldr	r2, [r3]
 1964 01f6 0521     		movs	r1, #5
 1965 01f8 2D4B     		ldr	r3, .L168
 1966 01fa 1868     		ldr	r0, [r3]
 1967 01fc FFF7FEFF 		bl	lv_event_send
 1968              	.LVL187:
 638:lvgl/src/core/lv_indev.c ****                 }
 1969              		.loc 1 638 21 is_stmt 1 view .LVU642
 638:lvgl/src/core/lv_indev.c ****                 }
 1970              		.loc 1 638 24 is_stmt 0 view .LVU643
ARM GAS  C:\Users\OSD\AppData\Local\Temp\ccrOx18j.s 			page 68


 1971 0200 201D     		adds	r0, r4, #4
 1972 0202 FFF7FEFF 		bl	indev_reset_check
 1973              	.LVL188:
 638:lvgl/src/core/lv_indev.c ****                 }
 1974              		.loc 1 638 23 view .LVU644
 1975 0206 0028     		cmp	r0, #0
 1976 0208 C9D0     		beq	.L111
 1977 020a 36E7     		b	.L96
 1978              	.L159:
 638:lvgl/src/core/lv_indev.c ****                 }
 1979              		.loc 1 638 23 view .LVU645
 1980              	.LBE15:
 650:lvgl/src/core/lv_indev.c ****                 if(indev_reset_check(&i->proc)) return;
 1981              		.loc 1 650 17 is_stmt 1 view .LVU646
 1982 020c 294B     		ldr	r3, .L168+4
 1983 020e 1A68     		ldr	r2, [r3]
 1984 0210 0621     		movs	r1, #6
 1985 0212 274B     		ldr	r3, .L168
 1986 0214 1868     		ldr	r0, [r3]
 1987 0216 FFF7FEFF 		bl	lv_event_send
 1988              	.LVL189:
 651:lvgl/src/core/lv_indev.c ****             }
 1989              		.loc 1 651 17 view .LVU647
 651:lvgl/src/core/lv_indev.c ****             }
 1990              		.loc 1 651 20 is_stmt 0 view .LVU648
 1991 021a 201D     		adds	r0, r4, #4
 1992 021c FFF7FEFF 		bl	indev_reset_check
 1993              	.LVL190:
 651:lvgl/src/core/lv_indev.c ****             }
 1994              		.loc 1 651 19 view .LVU649
 1995 0220 0028     		cmp	r0, #0
 1996 0222 3FF422AF 		beq	.L105
 1997 0226 28E7     		b	.L96
 1998              	.L160:
 655:lvgl/src/core/lv_indev.c ****             }
 1999              		.loc 1 655 17 is_stmt 1 view .LVU650
 655:lvgl/src/core/lv_indev.c ****             }
 2000              		.loc 1 655 21 is_stmt 0 view .LVU651
 2001 0228 B5F90C30 		ldrsh	r3, [r5, #12]
 655:lvgl/src/core/lv_indev.c ****             }
 2002              		.loc 1 655 31 view .LVU652
 2003 022c 013B     		subs	r3, r3, #1
 2004 022e AB81     		strh	r3, [r5, #12]	@ movhi
 2005 0230 1BE7     		b	.L105
 2006              	.L116:
 662:lvgl/src/core/lv_indev.c ****                 if(indev_reset_check(&i->proc)) return;
 2007              		.loc 1 662 17 is_stmt 1 view .LVU653
 2008 0232 3046     		mov	r0, r6
 2009 0234 FFF7FEFF 		bl	lv_group_send_data
 2010              	.LVL191:
 663:lvgl/src/core/lv_indev.c ****             }
 2011              		.loc 1 663 17 view .LVU654
 663:lvgl/src/core/lv_indev.c ****             }
 2012              		.loc 1 663 20 is_stmt 0 view .LVU655
 2013 0238 201D     		adds	r0, r4, #4
 2014 023a FFF7FEFF 		bl	indev_reset_check
 2015              	.LVL192:
ARM GAS  C:\Users\OSD\AppData\Local\Temp\ccrOx18j.s 			page 69


 663:lvgl/src/core/lv_indev.c ****             }
 2016              		.loc 1 663 19 view .LVU656
 2017 023e 0028     		cmp	r0, #0
 2018 0240 3FF413AF 		beq	.L105
 2019 0244 19E7     		b	.L96
 2020              	.L151:
 671:lvgl/src/core/lv_indev.c **** 
 2021              		.loc 1 671 9 is_stmt 1 view .LVU657
 671:lvgl/src/core/lv_indev.c **** 
 2022              		.loc 1 671 9 view .LVU658
 671:lvgl/src/core/lv_indev.c **** 
 2023              		.loc 1 671 9 view .LVU659
 673:lvgl/src/core/lv_indev.c ****             bool editable_or_scrollable = lv_obj_is_editable(indev_obj_act) ||
 2024              		.loc 1 673 9 view .LVU660
 673:lvgl/src/core/lv_indev.c ****             bool editable_or_scrollable = lv_obj_is_editable(indev_obj_act) ||
 2025              		.loc 1 673 16 is_stmt 0 view .LVU661
 2026 0246 6B68     		ldr	r3, [r5, #4]
 673:lvgl/src/core/lv_indev.c ****             bool editable_or_scrollable = lv_obj_is_editable(indev_obj_act) ||
 2027              		.loc 1 673 11 view .LVU662
 2028 0248 0A2B     		cmp	r3, #10
 2029 024a 06D0     		beq	.L163
 2030              	.LVL193:
 2031              	.L117:
 717:lvgl/src/core/lv_indev.c ****         i->proc.long_pr_sent = 0;
 2032              		.loc 1 717 9 is_stmt 1 view .LVU663
 717:lvgl/src/core/lv_indev.c ****         i->proc.long_pr_sent = 0;
 2033              		.loc 1 717 30 is_stmt 0 view .LVU664
 2034 024c 0022     		movs	r2, #0
 2035 024e A264     		str	r2, [r4, #72]
 718:lvgl/src/core/lv_indev.c ****     }
 2036              		.loc 1 718 9 is_stmt 1 view .LVU665
 718:lvgl/src/core/lv_indev.c ****     }
 2037              		.loc 1 718 30 is_stmt 0 view .LVU666
 2038 0250 6379     		ldrb	r3, [r4, #5]	@ zero_extendqisi2
 2039 0252 62F30003 		bfi	r3, r2, #0, #1
 2040 0256 6371     		strb	r3, [r4, #5]
 2041 0258 07E7     		b	.L105
 2042              	.LVL194:
 2043              	.L163:
 2044              	.LBB16:
 674:lvgl/src/core/lv_indev.c ****                                           lv_obj_has_flag(indev_obj_act, LV_OBJ_FLAG_SCROLLABLE);
 2045              		.loc 1 674 13 is_stmt 1 view .LVU667
 674:lvgl/src/core/lv_indev.c ****                                           lv_obj_has_flag(indev_obj_act, LV_OBJ_FLAG_SCROLLABLE);
 2046              		.loc 1 674 43 is_stmt 0 view .LVU668
 2047 025a FFF7FEFF 		bl	lv_obj_is_editable
 2048              	.LVL195:
 674:lvgl/src/core/lv_indev.c ****                                           lv_obj_has_flag(indev_obj_act, LV_OBJ_FLAG_SCROLLABLE);
 2049              		.loc 1 674 77 view .LVU669
 2050 025e 58B3     		cbz	r0, .L164
 2051 0260 0123     		movs	r3, #1
 2052              	.L118:
 2053              	.LVL196:
 678:lvgl/src/core/lv_indev.c ****                 lv_event_send(indev_obj_act, LV_EVENT_RELEASED, indev_act);
 2054              		.loc 1 678 13 is_stmt 1 discriminator 6 view .LVU670
 678:lvgl/src/core/lv_indev.c ****                 lv_event_send(indev_obj_act, LV_EVENT_RELEASED, indev_act);
 2055              		.loc 1 678 15 is_stmt 0 discriminator 6 view .LVU671
 2056 0262 002B     		cmp	r3, #0
ARM GAS  C:\Users\OSD\AppData\Local\Temp\ccrOx18j.s 			page 70


 2057 0264 3AD1     		bne	.L119
 679:lvgl/src/core/lv_indev.c ****                 if(indev_reset_check(&i->proc)) return;
 2058              		.loc 1 679 17 is_stmt 1 view .LVU672
 2059 0266 134B     		ldr	r3, .L168+4
 2060              	.LVL197:
 679:lvgl/src/core/lv_indev.c ****                 if(indev_reset_check(&i->proc)) return;
 2061              		.loc 1 679 17 is_stmt 0 view .LVU673
 2062 0268 1A68     		ldr	r2, [r3]
 2063 026a 0821     		movs	r1, #8
 2064 026c 104B     		ldr	r3, .L168
 2065 026e 1868     		ldr	r0, [r3]
 2066 0270 FFF7FEFF 		bl	lv_event_send
 2067              	.LVL198:
 680:lvgl/src/core/lv_indev.c **** 
 2068              		.loc 1 680 17 is_stmt 1 view .LVU674
 680:lvgl/src/core/lv_indev.c **** 
 2069              		.loc 1 680 20 is_stmt 0 view .LVU675
 2070 0274 271D     		adds	r7, r4, #4
 2071              	.LVL199:
 680:lvgl/src/core/lv_indev.c **** 
 2072              		.loc 1 680 20 view .LVU676
 2073 0276 3846     		mov	r0, r7
 2074 0278 FFF7FEFF 		bl	indev_reset_check
 2075              	.LVL200:
 680:lvgl/src/core/lv_indev.c **** 
 2076              		.loc 1 680 19 view .LVU677
 2077 027c 0028     		cmp	r0, #0
 2078 027e 7FF4FCAE 		bne	.L96
 682:lvgl/src/core/lv_indev.c ****                 if(indev_reset_check(&i->proc)) return;
 2079              		.loc 1 682 17 is_stmt 1 view .LVU678
 682:lvgl/src/core/lv_indev.c ****                 if(indev_reset_check(&i->proc)) return;
 2080              		.loc 1 682 41 is_stmt 0 view .LVU679
 2081 0282 6379     		ldrb	r3, [r4, #5]	@ zero_extendqisi2
 682:lvgl/src/core/lv_indev.c ****                 if(indev_reset_check(&i->proc)) return;
 2082              		.loc 1 682 19 view .LVU680
 2083 0284 13F0010F 		tst	r3, #1
 2084 0288 20D0     		beq	.L165
 2085              	.L120:
 683:lvgl/src/core/lv_indev.c **** 
 2086              		.loc 1 683 17 is_stmt 1 view .LVU681
 683:lvgl/src/core/lv_indev.c **** 
 2087              		.loc 1 683 20 is_stmt 0 view .LVU682
 2088 028a 3846     		mov	r0, r7
 2089 028c FFF7FEFF 		bl	indev_reset_check
 2090              	.LVL201:
 683:lvgl/src/core/lv_indev.c **** 
 2091              		.loc 1 683 19 view .LVU683
 2092 0290 0028     		cmp	r0, #0
 2093 0292 7FF4F2AE 		bne	.L96
 685:lvgl/src/core/lv_indev.c ****                 if(indev_reset_check(&i->proc)) return;
 2094              		.loc 1 685 17 is_stmt 1 view .LVU684
 2095 0296 074B     		ldr	r3, .L168+4
 2096 0298 1A68     		ldr	r2, [r3]
 2097 029a 0721     		movs	r1, #7
 2098 029c 044B     		ldr	r3, .L168
 2099 029e 1868     		ldr	r0, [r3]
 2100 02a0 FFF7FEFF 		bl	lv_event_send
ARM GAS  C:\Users\OSD\AppData\Local\Temp\ccrOx18j.s 			page 71


 2101              	.LVL202:
 686:lvgl/src/core/lv_indev.c **** 
 2102              		.loc 1 686 17 view .LVU685
 686:lvgl/src/core/lv_indev.c **** 
 2103              		.loc 1 686 20 is_stmt 0 view .LVU686
 2104 02a4 3846     		mov	r0, r7
 2105 02a6 FFF7FEFF 		bl	indev_reset_check
 2106              	.LVL203:
 686:lvgl/src/core/lv_indev.c **** 
 2107              		.loc 1 686 19 view .LVU687
 2108 02aa 0028     		cmp	r0, #0
 2109 02ac CED0     		beq	.L117
 2110 02ae E4E6     		b	.L96
 2111              	.L169:
 2112              		.align	2
 2113              	.L168:
 2114 02b0 00000000 		.word	.LANCHOR0
 2115 02b4 00000000 		.word	.LANCHOR1
 2116              	.LVL204:
 2117              	.L164:
 675:lvgl/src/core/lv_indev.c **** 
 2118              		.loc 1 675 43 discriminator 2 view .LVU688
 2119 02b8 1021     		movs	r1, #16
 2120 02ba 5E4B     		ldr	r3, .L170
 2121 02bc 1868     		ldr	r0, [r3]
 2122 02be FFF7FEFF 		bl	lv_obj_has_flag
 2123              	.LVL205:
 674:lvgl/src/core/lv_indev.c ****                                           lv_obj_has_flag(indev_obj_act, LV_OBJ_FLAG_SCROLLABLE);
 2124              		.loc 1 674 77 discriminator 2 view .LVU689
 2125 02c2 08B9     		cbnz	r0, .L140
 674:lvgl/src/core/lv_indev.c ****                                           lv_obj_has_flag(indev_obj_act, LV_OBJ_FLAG_SCROLLABLE);
 2126              		.loc 1 674 77 view .LVU690
 2127 02c4 0023     		movs	r3, #0
 2128 02c6 CCE7     		b	.L118
 2129              	.L140:
 2130 02c8 0123     		movs	r3, #1
 2131 02ca CAE7     		b	.L118
 2132              	.LVL206:
 2133              	.L165:
 682:lvgl/src/core/lv_indev.c ****                 if(indev_reset_check(&i->proc)) return;
 2134              		.loc 1 682 47 is_stmt 1 discriminator 1 view .LVU691
 2135 02cc 5A4B     		ldr	r3, .L170+4
 2136 02ce 1A68     		ldr	r2, [r3]
 2137 02d0 0421     		movs	r1, #4
 2138 02d2 584B     		ldr	r3, .L170
 2139 02d4 1868     		ldr	r0, [r3]
 2140 02d6 FFF7FEFF 		bl	lv_event_send
 2141              	.LVL207:
 2142 02da D6E7     		b	.L120
 2143              	.LVL208:
 2144              	.L119:
 690:lvgl/src/core/lv_indev.c ****                 /*Ignore long pressed enter release because it comes from mode switch*/
 2145              		.loc 1 690 18 view .LVU692
 690:lvgl/src/core/lv_indev.c ****                 /*Ignore long pressed enter release because it comes from mode switch*/
 2146              		.loc 1 690 21 is_stmt 0 view .LVU693
 2147 02dc 3046     		mov	r0, r6
 2148 02de FFF7FEFF 		bl	lv_group_get_editing
ARM GAS  C:\Users\OSD\AppData\Local\Temp\ccrOx18j.s 			page 72


 2149              	.LVL209:
 690:lvgl/src/core/lv_indev.c ****                 /*Ignore long pressed enter release because it comes from mode switch*/
 2150              		.loc 1 690 20 view .LVU694
 2151 02e2 0028     		cmp	r0, #0
 2152 02e4 41D0     		beq	.L121
 692:lvgl/src/core/lv_indev.c ****                     lv_event_send(indev_obj_act, LV_EVENT_RELEASED, indev_act);
 2153              		.loc 1 692 17 is_stmt 1 view .LVU695
 692:lvgl/src/core/lv_indev.c ****                     lv_event_send(indev_obj_act, LV_EVENT_RELEASED, indev_act);
 2154              		.loc 1 692 20 is_stmt 0 view .LVU696
 2155 02e6 6379     		ldrb	r3, [r4, #5]	@ zero_extendqisi2
 692:lvgl/src/core/lv_indev.c ****                     lv_event_send(indev_obj_act, LV_EVENT_RELEASED, indev_act);
 2156              		.loc 1 692 19 view .LVU697
 2157 02e8 13F0010F 		tst	r3, #1
 2158 02ec 04D0     		beq	.L122
 692:lvgl/src/core/lv_indev.c ****                     lv_event_send(indev_obj_act, LV_EVENT_RELEASED, indev_act);
 2159              		.loc 1 692 45 discriminator 1 view .LVU698
 2160 02ee 3046     		mov	r0, r6
 2161 02f0 FFF7FEFF 		bl	lv_group_get_obj_count
 2162              	.LVL210:
 692:lvgl/src/core/lv_indev.c ****                     lv_event_send(indev_obj_act, LV_EVENT_RELEASED, indev_act);
 2163              		.loc 1 692 42 discriminator 1 view .LVU699
 2164 02f4 0128     		cmp	r0, #1
 2165 02f6 32D8     		bhi	.L123
 2166              	.L122:
 693:lvgl/src/core/lv_indev.c ****                     if(indev_reset_check(&i->proc)) return;
 2167              		.loc 1 693 21 is_stmt 1 view .LVU700
 2168 02f8 4F4B     		ldr	r3, .L170+4
 2169 02fa 1A68     		ldr	r2, [r3]
 2170 02fc 0821     		movs	r1, #8
 2171 02fe 4D4B     		ldr	r3, .L170
 2172 0300 1868     		ldr	r0, [r3]
 2173 0302 FFF7FEFF 		bl	lv_event_send
 2174              	.LVL211:
 694:lvgl/src/core/lv_indev.c **** 
 2175              		.loc 1 694 21 view .LVU701
 694:lvgl/src/core/lv_indev.c **** 
 2176              		.loc 1 694 24 is_stmt 0 view .LVU702
 2177 0306 271D     		adds	r7, r4, #4
 2178              	.LVL212:
 694:lvgl/src/core/lv_indev.c **** 
 2179              		.loc 1 694 24 view .LVU703
 2180 0308 3846     		mov	r0, r7
 2181 030a FFF7FEFF 		bl	indev_reset_check
 2182              	.LVL213:
 694:lvgl/src/core/lv_indev.c **** 
 2183              		.loc 1 694 23 view .LVU704
 2184 030e 0028     		cmp	r0, #0
 2185 0310 7FF4B3AE 		bne	.L96
 696:lvgl/src/core/lv_indev.c ****                     if(indev_reset_check(&i->proc)) return;
 2186              		.loc 1 696 21 is_stmt 1 view .LVU705
 2187 0314 484B     		ldr	r3, .L170+4
 2188 0316 1A68     		ldr	r2, [r3]
 2189 0318 0421     		movs	r1, #4
 2190 031a 464B     		ldr	r3, .L170
 2191 031c 1868     		ldr	r0, [r3]
 2192 031e FFF7FEFF 		bl	lv_event_send
 2193              	.LVL214:
ARM GAS  C:\Users\OSD\AppData\Local\Temp\ccrOx18j.s 			page 73


 697:lvgl/src/core/lv_indev.c **** 
 2194              		.loc 1 697 21 view .LVU706
 697:lvgl/src/core/lv_indev.c **** 
 2195              		.loc 1 697 24 is_stmt 0 view .LVU707
 2196 0322 3846     		mov	r0, r7
 2197 0324 FFF7FEFF 		bl	indev_reset_check
 2198              	.LVL215:
 697:lvgl/src/core/lv_indev.c **** 
 2199              		.loc 1 697 23 view .LVU708
 2200 0328 0028     		cmp	r0, #0
 2201 032a 7FF4A6AE 		bne	.L96
 699:lvgl/src/core/lv_indev.c ****                     if(indev_reset_check(&i->proc)) return;
 2202              		.loc 1 699 21 is_stmt 1 view .LVU709
 2203 032e 424B     		ldr	r3, .L170+4
 2204 0330 1A68     		ldr	r2, [r3]
 2205 0332 0721     		movs	r1, #7
 2206 0334 3F4B     		ldr	r3, .L170
 2207 0336 1868     		ldr	r0, [r3]
 2208 0338 FFF7FEFF 		bl	lv_event_send
 2209              	.LVL216:
 700:lvgl/src/core/lv_indev.c **** 
 2210              		.loc 1 700 21 view .LVU710
 700:lvgl/src/core/lv_indev.c **** 
 2211              		.loc 1 700 24 is_stmt 0 view .LVU711
 2212 033c 3846     		mov	r0, r7
 2213 033e FFF7FEFF 		bl	indev_reset_check
 2214              	.LVL217:
 700:lvgl/src/core/lv_indev.c **** 
 2215              		.loc 1 700 23 view .LVU712
 2216 0342 0028     		cmp	r0, #0
 2217 0344 7FF499AE 		bne	.L96
 702:lvgl/src/core/lv_indev.c ****                     if(indev_reset_check(&i->proc)) return;
 2218              		.loc 1 702 21 is_stmt 1 view .LVU713
 2219 0348 0A21     		movs	r1, #10
 2220 034a 3046     		mov	r0, r6
 2221 034c FFF7FEFF 		bl	lv_group_send_data
 2222              	.LVL218:
 703:lvgl/src/core/lv_indev.c ****                 }
 2223              		.loc 1 703 21 view .LVU714
 703:lvgl/src/core/lv_indev.c ****                 }
 2224              		.loc 1 703 24 is_stmt 0 view .LVU715
 2225 0350 3846     		mov	r0, r7
 2226 0352 FFF7FEFF 		bl	indev_reset_check
 2227              	.LVL219:
 703:lvgl/src/core/lv_indev.c ****                 }
 2228              		.loc 1 703 23 view .LVU716
 2229 0356 0028     		cmp	r0, #0
 2230 0358 3FF478AF 		beq	.L117
 2231 035c 8DE6     		b	.L96
 2232              	.LVL220:
 2233              	.L123:
 706:lvgl/src/core/lv_indev.c ****                 }
 2234              		.loc 1 706 21 is_stmt 1 view .LVU717
 2235 035e 2021     		movs	r1, #32
 2236 0360 344B     		ldr	r3, .L170
 2237 0362 1868     		ldr	r0, [r3]
 2238 0364 FFF7FEFF 		bl	lv_obj_clear_state
ARM GAS  C:\Users\OSD\AppData\Local\Temp\ccrOx18j.s 			page 74


 2239              	.LVL221:
 2240 0368 70E7     		b	.L117
 2241              	.L121:
 711:lvgl/src/core/lv_indev.c ****                 LV_LOG_INFO("entering edit mode");
 2242              		.loc 1 711 18 view .LVU718
 711:lvgl/src/core/lv_indev.c ****                 LV_LOG_INFO("entering edit mode");
 2243              		.loc 1 711 21 is_stmt 0 view .LVU719
 2244 036a 6379     		ldrb	r3, [r4, #5]	@ zero_extendqisi2
 711:lvgl/src/core/lv_indev.c ****                 LV_LOG_INFO("entering edit mode");
 2245              		.loc 1 711 20 view .LVU720
 2246 036c 13F0010F 		tst	r3, #1
 2247 0370 7FF46CAF 		bne	.L117
 712:lvgl/src/core/lv_indev.c ****                 lv_group_set_editing(g, true); /*Set edit mode*/
 2248              		.loc 1 712 17 is_stmt 1 view .LVU721
 712:lvgl/src/core/lv_indev.c ****                 lv_group_set_editing(g, true); /*Set edit mode*/
 2249              		.loc 1 712 17 view .LVU722
 712:lvgl/src/core/lv_indev.c ****                 lv_group_set_editing(g, true); /*Set edit mode*/
 2250              		.loc 1 712 17 view .LVU723
 713:lvgl/src/core/lv_indev.c ****             }
 2251              		.loc 1 713 17 view .LVU724
 2252 0374 0121     		movs	r1, #1
 2253 0376 3046     		mov	r0, r6
 2254 0378 FFF7FEFF 		bl	lv_group_set_editing
 2255              	.LVL222:
 2256 037c 66E7     		b	.L117
 2257              	.LVL223:
 2258              	.L152:
 713:lvgl/src/core/lv_indev.c ****             }
 2259              		.loc 1 713 17 is_stmt 0 view .LVU725
 2260              	.LBE16:
 725:lvgl/src/core/lv_indev.c ****             LV_LOG_INFO("rotated by %+d (edit)", data->enc_diff);
 2261              		.loc 1 725 9 is_stmt 1 view .LVU726
 725:lvgl/src/core/lv_indev.c ****             LV_LOG_INFO("rotated by %+d (edit)", data->enc_diff);
 2262              		.loc 1 725 12 is_stmt 0 view .LVU727
 2263 037e 3046     		mov	r0, r6
 2264 0380 FFF7FEFF 		bl	lv_group_get_editing
 2265              	.LVL224:
 725:lvgl/src/core/lv_indev.c ****             LV_LOG_INFO("rotated by %+d (edit)", data->enc_diff);
 2266              		.loc 1 725 11 view .LVU728
 2267 0384 58B3     		cbz	r0, .L124
 2268              	.LBB17:
 726:lvgl/src/core/lv_indev.c ****             int32_t s;
 2269              		.loc 1 726 13 is_stmt 1 view .LVU729
 726:lvgl/src/core/lv_indev.c ****             int32_t s;
 2270              		.loc 1 726 13 view .LVU730
 726:lvgl/src/core/lv_indev.c ****             int32_t s;
 2271              		.loc 1 726 13 view .LVU731
 727:lvgl/src/core/lv_indev.c ****             if(data->enc_diff < 0) {
 2272              		.loc 1 727 13 view .LVU732
 728:lvgl/src/core/lv_indev.c ****                 for(s = 0; s < -data->enc_diff; s++) {
 2273              		.loc 1 728 13 view .LVU733
 728:lvgl/src/core/lv_indev.c ****                 for(s = 0; s < -data->enc_diff; s++) {
 2274              		.loc 1 728 20 is_stmt 0 view .LVU734
 2275 0386 B5F90C30 		ldrsh	r3, [r5, #12]
 728:lvgl/src/core/lv_indev.c ****                 for(s = 0; s < -data->enc_diff; s++) {
 2276              		.loc 1 728 15 view .LVU735
 2277 038a 002B     		cmp	r3, #0
ARM GAS  C:\Users\OSD\AppData\Local\Temp\ccrOx18j.s 			page 75


 2278 038c 14DB     		blt	.L166
 734:lvgl/src/core/lv_indev.c ****                 for(s = 0; s < data->enc_diff; s++) {
 2279              		.loc 1 734 18 is_stmt 1 view .LVU736
 734:lvgl/src/core/lv_indev.c ****                 for(s = 0; s < data->enc_diff; s++) {
 2280              		.loc 1 734 20 is_stmt 0 view .LVU737
 2281 038e 002B     		cmp	r3, #0
 2282 0390 7FF773AE 		ble	.L96
 735:lvgl/src/core/lv_indev.c ****                     lv_group_send_data(g, LV_KEY_RIGHT);
 2283              		.loc 1 735 23 view .LVU738
 2284 0394 0027     		movs	r7, #0
 2285              	.L128:
 2286              	.LVL225:
 735:lvgl/src/core/lv_indev.c ****                     lv_group_send_data(g, LV_KEY_RIGHT);
 2287              		.loc 1 735 28 is_stmt 1 discriminator 1 view .LVU739
 735:lvgl/src/core/lv_indev.c ****                     lv_group_send_data(g, LV_KEY_RIGHT);
 2288              		.loc 1 735 36 is_stmt 0 discriminator 1 view .LVU740
 2289 0396 B5F90C30 		ldrsh	r3, [r5, #12]
 735:lvgl/src/core/lv_indev.c ****                     lv_group_send_data(g, LV_KEY_RIGHT);
 2290              		.loc 1 735 17 discriminator 1 view .LVU741
 2291 039a BB42     		cmp	r3, r7
 2292 039c 7FF76DAE 		ble	.L96
 736:lvgl/src/core/lv_indev.c ****                     if(indev_reset_check(&i->proc)) return;
 2293              		.loc 1 736 21 is_stmt 1 view .LVU742
 2294 03a0 1321     		movs	r1, #19
 2295 03a2 3046     		mov	r0, r6
 2296 03a4 FFF7FEFF 		bl	lv_group_send_data
 2297              	.LVL226:
 737:lvgl/src/core/lv_indev.c ****                 }
 2298              		.loc 1 737 21 view .LVU743
 737:lvgl/src/core/lv_indev.c ****                 }
 2299              		.loc 1 737 24 is_stmt 0 view .LVU744
 2300 03a8 201D     		adds	r0, r4, #4
 2301 03aa FFF7FEFF 		bl	indev_reset_check
 2302              	.LVL227:
 737:lvgl/src/core/lv_indev.c ****                 }
 2303              		.loc 1 737 23 view .LVU745
 2304 03ae 0028     		cmp	r0, #0
 2305 03b0 7FF463AE 		bne	.L96
 735:lvgl/src/core/lv_indev.c ****                     lv_group_send_data(g, LV_KEY_RIGHT);
 2306              		.loc 1 735 48 is_stmt 1 discriminator 2 view .LVU746
 735:lvgl/src/core/lv_indev.c ****                     lv_group_send_data(g, LV_KEY_RIGHT);
 2307              		.loc 1 735 49 is_stmt 0 discriminator 2 view .LVU747
 2308 03b4 0137     		adds	r7, r7, #1
 2309              	.LVL228:
 735:lvgl/src/core/lv_indev.c ****                     lv_group_send_data(g, LV_KEY_RIGHT);
 2310              		.loc 1 735 49 discriminator 2 view .LVU748
 2311 03b6 EEE7     		b	.L128
 2312              	.LVL229:
 2313              	.L166:
 729:lvgl/src/core/lv_indev.c ****                     lv_group_send_data(g, LV_KEY_LEFT);
 2314              		.loc 1 729 23 view .LVU749
 2315 03b8 0027     		movs	r7, #0
 2316              	.L125:
 2317              	.LVL230:
 729:lvgl/src/core/lv_indev.c ****                     lv_group_send_data(g, LV_KEY_LEFT);
 2318              		.loc 1 729 28 is_stmt 1 discriminator 1 view .LVU750
 729:lvgl/src/core/lv_indev.c ****                     lv_group_send_data(g, LV_KEY_LEFT);
ARM GAS  C:\Users\OSD\AppData\Local\Temp\ccrOx18j.s 			page 76


 2319              		.loc 1 729 37 is_stmt 0 discriminator 1 view .LVU751
 2320 03ba B5F90C30 		ldrsh	r3, [r5, #12]
 729:lvgl/src/core/lv_indev.c ****                     lv_group_send_data(g, LV_KEY_LEFT);
 2321              		.loc 1 729 32 discriminator 1 view .LVU752
 2322 03be 5B42     		rsbs	r3, r3, #0
 729:lvgl/src/core/lv_indev.c ****                     lv_group_send_data(g, LV_KEY_LEFT);
 2323              		.loc 1 729 17 discriminator 1 view .LVU753
 2324 03c0 BB42     		cmp	r3, r7
 2325 03c2 7FF75AAE 		ble	.L96
 730:lvgl/src/core/lv_indev.c ****                     if(indev_reset_check(&i->proc)) return;
 2326              		.loc 1 730 21 is_stmt 1 view .LVU754
 2327 03c6 1421     		movs	r1, #20
 2328 03c8 3046     		mov	r0, r6
 2329 03ca FFF7FEFF 		bl	lv_group_send_data
 2330              	.LVL231:
 731:lvgl/src/core/lv_indev.c ****                 }
 2331              		.loc 1 731 21 view .LVU755
 731:lvgl/src/core/lv_indev.c ****                 }
 2332              		.loc 1 731 24 is_stmt 0 view .LVU756
 2333 03ce 201D     		adds	r0, r4, #4
 2334 03d0 FFF7FEFF 		bl	indev_reset_check
 2335              	.LVL232:
 731:lvgl/src/core/lv_indev.c ****                 }
 2336              		.loc 1 731 23 view .LVU757
 2337 03d4 0028     		cmp	r0, #0
 2338 03d6 7FF450AE 		bne	.L96
 729:lvgl/src/core/lv_indev.c ****                     lv_group_send_data(g, LV_KEY_LEFT);
 2339              		.loc 1 729 49 is_stmt 1 discriminator 2 view .LVU758
 729:lvgl/src/core/lv_indev.c ****                     lv_group_send_data(g, LV_KEY_LEFT);
 2340              		.loc 1 729 50 is_stmt 0 discriminator 2 view .LVU759
 2341 03da 0137     		adds	r7, r7, #1
 2342              	.LVL233:
 729:lvgl/src/core/lv_indev.c ****                     lv_group_send_data(g, LV_KEY_LEFT);
 2343              		.loc 1 729 50 discriminator 2 view .LVU760
 2344 03dc EDE7     		b	.L125
 2345              	.LVL234:
 2346              	.L124:
 729:lvgl/src/core/lv_indev.c ****                     lv_group_send_data(g, LV_KEY_LEFT);
 2347              		.loc 1 729 50 discriminator 2 view .LVU761
 2348              	.LBE17:
 2349              	.LBB18:
 743:lvgl/src/core/lv_indev.c ****             int32_t s;
 2350              		.loc 1 743 13 is_stmt 1 view .LVU762
 743:lvgl/src/core/lv_indev.c ****             int32_t s;
 2351              		.loc 1 743 13 view .LVU763
 743:lvgl/src/core/lv_indev.c ****             int32_t s;
 2352              		.loc 1 743 13 view .LVU764
 744:lvgl/src/core/lv_indev.c ****             if(data->enc_diff < 0) {
 2353              		.loc 1 744 13 view .LVU765
 745:lvgl/src/core/lv_indev.c ****                 for(s = 0; s < -data->enc_diff; s++) {
 2354              		.loc 1 745 13 view .LVU766
 745:lvgl/src/core/lv_indev.c ****                 for(s = 0; s < -data->enc_diff; s++) {
 2355              		.loc 1 745 20 is_stmt 0 view .LVU767
 2356 03de B5F90C30 		ldrsh	r3, [r5, #12]
 745:lvgl/src/core/lv_indev.c ****                 for(s = 0; s < -data->enc_diff; s++) {
 2357              		.loc 1 745 15 view .LVU768
 2358 03e2 002B     		cmp	r3, #0
ARM GAS  C:\Users\OSD\AppData\Local\Temp\ccrOx18j.s 			page 77


 2359 03e4 13DB     		blt	.L167
 751:lvgl/src/core/lv_indev.c ****                 for(s = 0; s < data->enc_diff; s++) {
 2360              		.loc 1 751 18 is_stmt 1 view .LVU769
 751:lvgl/src/core/lv_indev.c ****                 for(s = 0; s < data->enc_diff; s++) {
 2361              		.loc 1 751 20 is_stmt 0 view .LVU770
 2362 03e6 002B     		cmp	r3, #0
 2363 03e8 7FF747AE 		ble	.L96
 752:lvgl/src/core/lv_indev.c ****                     lv_group_focus_next(g);
 2364              		.loc 1 752 23 view .LVU771
 2365 03ec 0027     		movs	r7, #0
 2366              	.L133:
 2367              	.LVL235:
 752:lvgl/src/core/lv_indev.c ****                     lv_group_focus_next(g);
 2368              		.loc 1 752 28 is_stmt 1 discriminator 1 view .LVU772
 752:lvgl/src/core/lv_indev.c ****                     lv_group_focus_next(g);
 2369              		.loc 1 752 36 is_stmt 0 discriminator 1 view .LVU773
 2370 03ee B5F90C30 		ldrsh	r3, [r5, #12]
 752:lvgl/src/core/lv_indev.c ****                     lv_group_focus_next(g);
 2371              		.loc 1 752 17 discriminator 1 view .LVU774
 2372 03f2 BB42     		cmp	r3, r7
 2373 03f4 7FF741AE 		ble	.L96
 753:lvgl/src/core/lv_indev.c ****                     if(indev_reset_check(&i->proc)) return;
 2374              		.loc 1 753 21 is_stmt 1 view .LVU775
 2375 03f8 3046     		mov	r0, r6
 2376 03fa FFF7FEFF 		bl	lv_group_focus_next
 2377              	.LVL236:
 754:lvgl/src/core/lv_indev.c ****                 }
 2378              		.loc 1 754 21 view .LVU776
 754:lvgl/src/core/lv_indev.c ****                 }
 2379              		.loc 1 754 24 is_stmt 0 view .LVU777
 2380 03fe 201D     		adds	r0, r4, #4
 2381 0400 FFF7FEFF 		bl	indev_reset_check
 2382              	.LVL237:
 754:lvgl/src/core/lv_indev.c ****                 }
 2383              		.loc 1 754 23 view .LVU778
 2384 0404 0028     		cmp	r0, #0
 2385 0406 7FF438AE 		bne	.L96
 752:lvgl/src/core/lv_indev.c ****                     lv_group_focus_next(g);
 2386              		.loc 1 752 48 is_stmt 1 discriminator 2 view .LVU779
 752:lvgl/src/core/lv_indev.c ****                     lv_group_focus_next(g);
 2387              		.loc 1 752 49 is_stmt 0 discriminator 2 view .LVU780
 2388 040a 0137     		adds	r7, r7, #1
 2389              	.LVL238:
 752:lvgl/src/core/lv_indev.c ****                     lv_group_focus_next(g);
 2390              		.loc 1 752 49 discriminator 2 view .LVU781
 2391 040c EFE7     		b	.L133
 2392              	.LVL239:
 2393              	.L167:
 746:lvgl/src/core/lv_indev.c ****                     lv_group_focus_prev(g);
 2394              		.loc 1 746 23 view .LVU782
 2395 040e 0027     		movs	r7, #0
 2396              	.L130:
 2397              	.LVL240:
 746:lvgl/src/core/lv_indev.c ****                     lv_group_focus_prev(g);
 2398              		.loc 1 746 28 is_stmt 1 discriminator 1 view .LVU783
 746:lvgl/src/core/lv_indev.c ****                     lv_group_focus_prev(g);
 2399              		.loc 1 746 37 is_stmt 0 discriminator 1 view .LVU784
ARM GAS  C:\Users\OSD\AppData\Local\Temp\ccrOx18j.s 			page 78


 2400 0410 B5F90C30 		ldrsh	r3, [r5, #12]
 746:lvgl/src/core/lv_indev.c ****                     lv_group_focus_prev(g);
 2401              		.loc 1 746 32 discriminator 1 view .LVU785
 2402 0414 5B42     		rsbs	r3, r3, #0
 746:lvgl/src/core/lv_indev.c ****                     lv_group_focus_prev(g);
 2403              		.loc 1 746 17 discriminator 1 view .LVU786
 2404 0416 BB42     		cmp	r3, r7
 2405 0418 7FF72FAE 		ble	.L96
 747:lvgl/src/core/lv_indev.c ****                     if(indev_reset_check(&i->proc)) return;
 2406              		.loc 1 747 21 is_stmt 1 view .LVU787
 2407 041c 3046     		mov	r0, r6
 2408 041e FFF7FEFF 		bl	lv_group_focus_prev
 2409              	.LVL241:
 748:lvgl/src/core/lv_indev.c ****                 }
 2410              		.loc 1 748 21 view .LVU788
 748:lvgl/src/core/lv_indev.c ****                 }
 2411              		.loc 1 748 24 is_stmt 0 view .LVU789
 2412 0422 201D     		adds	r0, r4, #4
 2413 0424 FFF7FEFF 		bl	indev_reset_check
 2414              	.LVL242:
 748:lvgl/src/core/lv_indev.c ****                 }
 2415              		.loc 1 748 23 view .LVU790
 2416 0428 0028     		cmp	r0, #0
 2417 042a 7FF426AE 		bne	.L96
 746:lvgl/src/core/lv_indev.c ****                     lv_group_focus_prev(g);
 2418              		.loc 1 746 49 is_stmt 1 discriminator 2 view .LVU791
 746:lvgl/src/core/lv_indev.c ****                     lv_group_focus_prev(g);
 2419              		.loc 1 746 50 is_stmt 0 discriminator 2 view .LVU792
 2420 042e 0137     		adds	r7, r7, #1
 2421              	.LVL243:
 746:lvgl/src/core/lv_indev.c ****                     lv_group_focus_prev(g);
 2422              		.loc 1 746 50 discriminator 2 view .LVU793
 2423 0430 EEE7     		b	.L130
 2424              	.L171:
 2425 0432 00BF     		.align	2
 2426              	.L170:
 2427 0434 00000000 		.word	.LANCHOR0
 2428 0438 00000000 		.word	.LANCHOR1
 2429              	.LBE18:
 2430              		.cfi_endproc
 2431              	.LFE188:
 2433              		.section	.text.lv_indev_enable,"ax",%progbits
 2434              		.align	1
 2435              		.global	lv_indev_enable
 2436              		.syntax unified
 2437              		.thumb
 2438              		.thumb_func
 2440              	lv_indev_enable:
 2441              	.LVL244:
 2442              	.LFB168:
 124:lvgl/src/core/lv_indev.c ****     uint8_t enable = en ? 0 : 1;
 2443              		.loc 1 124 1 is_stmt 1 view -0
 2444              		.cfi_startproc
 2445              		@ args = 0, pretend = 0, frame = 0
 2446              		@ frame_needed = 0, uses_anonymous_args = 0
 124:lvgl/src/core/lv_indev.c ****     uint8_t enable = en ? 0 : 1;
 2447              		.loc 1 124 1 is_stmt 0 view .LVU795
ARM GAS  C:\Users\OSD\AppData\Local\Temp\ccrOx18j.s 			page 79


 2448 0000 10B5     		push	{r4, lr}
 2449              		.cfi_def_cfa_offset 8
 2450              		.cfi_offset 4, -8
 2451              		.cfi_offset 14, -4
 125:lvgl/src/core/lv_indev.c **** 
 2452              		.loc 1 125 5 is_stmt 1 view .LVU796
 125:lvgl/src/core/lv_indev.c **** 
 2453              		.loc 1 125 29 is_stmt 0 view .LVU797
 2454 0002 81F00104 		eor	r4, r1, #1
 2455              	.LVL245:
 127:lvgl/src/core/lv_indev.c ****         indev->proc.disabled = enable;
 2456              		.loc 1 127 5 is_stmt 1 view .LVU798
 127:lvgl/src/core/lv_indev.c ****         indev->proc.disabled = enable;
 2457              		.loc 1 127 7 is_stmt 0 view .LVU799
 2458 0006 20B1     		cbz	r0, .L173
 128:lvgl/src/core/lv_indev.c ****     }
 2459              		.loc 1 128 9 is_stmt 1 view .LVU800
 128:lvgl/src/core/lv_indev.c ****     }
 2460              		.loc 1 128 30 is_stmt 0 view .LVU801
 2461 0008 4279     		ldrb	r2, [r0, #5]	@ zero_extendqisi2
 2462 000a 64F38202 		bfi	r2, r4, #2, #1
 2463 000e 4271     		strb	r2, [r0, #5]
 2464              	.LVL246:
 2465              	.L172:
 137:lvgl/src/core/lv_indev.c **** 
 2466              		.loc 1 137 1 view .LVU802
 2467 0010 10BD     		pop	{r4, pc}
 2468              	.LVL247:
 2469              	.L173:
 2470              	.LBB19:
 131:lvgl/src/core/lv_indev.c ****         while(i) {
 2471              		.loc 1 131 9 is_stmt 1 view .LVU803
 131:lvgl/src/core/lv_indev.c ****         while(i) {
 2472              		.loc 1 131 26 is_stmt 0 view .LVU804
 2473 0012 0020     		movs	r0, #0
 2474              	.LVL248:
 131:lvgl/src/core/lv_indev.c ****         while(i) {
 2475              		.loc 1 131 26 view .LVU805
 2476 0014 FFF7FEFF 		bl	lv_indev_get_next
 2477              	.LVL249:
 132:lvgl/src/core/lv_indev.c ****             i->proc.disabled = enable;
 2478              		.loc 1 132 9 is_stmt 1 view .LVU806
 132:lvgl/src/core/lv_indev.c ****             i->proc.disabled = enable;
 2479              		.loc 1 132 14 is_stmt 0 view .LVU807
 2480 0018 05E0     		b	.L175
 2481              	.L176:
 133:lvgl/src/core/lv_indev.c ****             i = lv_indev_get_next(i);
 2482              		.loc 1 133 13 is_stmt 1 view .LVU808
 133:lvgl/src/core/lv_indev.c ****             i = lv_indev_get_next(i);
 2483              		.loc 1 133 30 is_stmt 0 view .LVU809
 2484 001a 4379     		ldrb	r3, [r0, #5]	@ zero_extendqisi2
 2485 001c 64F38203 		bfi	r3, r4, #2, #1
 2486 0020 4371     		strb	r3, [r0, #5]
 134:lvgl/src/core/lv_indev.c ****         }
 2487              		.loc 1 134 13 is_stmt 1 view .LVU810
 134:lvgl/src/core/lv_indev.c ****         }
 2488              		.loc 1 134 17 is_stmt 0 view .LVU811
ARM GAS  C:\Users\OSD\AppData\Local\Temp\ccrOx18j.s 			page 80


 2489 0022 FFF7FEFF 		bl	lv_indev_get_next
 2490              	.LVL250:
 2491              	.L175:
 132:lvgl/src/core/lv_indev.c ****             i->proc.disabled = enable;
 2492              		.loc 1 132 14 is_stmt 1 view .LVU812
 2493 0026 0028     		cmp	r0, #0
 2494 0028 F7D1     		bne	.L176
 132:lvgl/src/core/lv_indev.c ****             i->proc.disabled = enable;
 2495              		.loc 1 132 14 is_stmt 0 view .LVU813
 2496 002a F1E7     		b	.L172
 2497              	.LBE19:
 2498              		.cfi_endproc
 2499              	.LFE168:
 2501              		.section	.text.lv_indev_get_act,"ax",%progbits
 2502              		.align	1
 2503              		.global	lv_indev_get_act
 2504              		.syntax unified
 2505              		.thumb
 2506              		.thumb_func
 2508              	lv_indev_get_act:
 2509              	.LFB169:
 140:lvgl/src/core/lv_indev.c ****     return indev_act;
 2510              		.loc 1 140 1 is_stmt 1 view -0
 2511              		.cfi_startproc
 2512              		@ args = 0, pretend = 0, frame = 0
 2513              		@ frame_needed = 0, uses_anonymous_args = 0
 2514              		@ link register save eliminated.
 141:lvgl/src/core/lv_indev.c **** }
 2515              		.loc 1 141 5 view .LVU815
 142:lvgl/src/core/lv_indev.c **** 
 2516              		.loc 1 142 1 is_stmt 0 view .LVU816
 2517 0000 014B     		ldr	r3, .L179
 2518 0002 1868     		ldr	r0, [r3]
 2519 0004 7047     		bx	lr
 2520              	.L180:
 2521 0006 00BF     		.align	2
 2522              	.L179:
 2523 0008 00000000 		.word	.LANCHOR1
 2524              		.cfi_endproc
 2525              	.LFE169:
 2527              		.section	.text.lv_indev_get_type,"ax",%progbits
 2528              		.align	1
 2529              		.global	lv_indev_get_type
 2530              		.syntax unified
 2531              		.thumb
 2532              		.thumb_func
 2534              	lv_indev_get_type:
 2535              	.LVL251:
 2536              	.LFB170:
 145:lvgl/src/core/lv_indev.c ****     if(indev == NULL) return LV_INDEV_TYPE_NONE;
 2537              		.loc 1 145 1 is_stmt 1 view -0
 2538              		.cfi_startproc
 2539              		@ args = 0, pretend = 0, frame = 0
 2540              		@ frame_needed = 0, uses_anonymous_args = 0
 2541              		@ link register save eliminated.
 146:lvgl/src/core/lv_indev.c **** 
 2542              		.loc 1 146 5 view .LVU818
ARM GAS  C:\Users\OSD\AppData\Local\Temp\ccrOx18j.s 			page 81


 146:lvgl/src/core/lv_indev.c **** 
 2543              		.loc 1 146 7 is_stmt 0 view .LVU819
 2544 0000 10B1     		cbz	r0, .L183
 148:lvgl/src/core/lv_indev.c **** }
 2545              		.loc 1 148 5 is_stmt 1 view .LVU820
 148:lvgl/src/core/lv_indev.c **** }
 2546              		.loc 1 148 17 is_stmt 0 view .LVU821
 2547 0002 0368     		ldr	r3, [r0]
 148:lvgl/src/core/lv_indev.c **** }
 2548              		.loc 1 148 25 view .LVU822
 2549 0004 1878     		ldrb	r0, [r3]	@ zero_extendqisi2
 2550              	.LVL252:
 148:lvgl/src/core/lv_indev.c **** }
 2551              		.loc 1 148 25 view .LVU823
 2552 0006 7047     		bx	lr
 2553              	.LVL253:
 2554              	.L183:
 146:lvgl/src/core/lv_indev.c **** 
 2555              		.loc 1 146 30 view .LVU824
 2556 0008 0020     		movs	r0, #0
 2557              	.LVL254:
 149:lvgl/src/core/lv_indev.c **** 
 2558              		.loc 1 149 1 view .LVU825
 2559 000a 7047     		bx	lr
 2560              		.cfi_endproc
 2561              	.LFE170:
 2563              		.section	.text.lv_indev_reset,"ax",%progbits
 2564              		.align	1
 2565              		.global	lv_indev_reset
 2566              		.syntax unified
 2567              		.thumb
 2568              		.thumb_func
 2570              	lv_indev_reset:
 2571              	.LVL255:
 2572              	.LFB171:
 152:lvgl/src/core/lv_indev.c ****     if(indev) {
 2573              		.loc 1 152 1 is_stmt 1 view -0
 2574              		.cfi_startproc
 2575              		@ args = 0, pretend = 0, frame = 0
 2576              		@ frame_needed = 0, uses_anonymous_args = 0
 152:lvgl/src/core/lv_indev.c ****     if(indev) {
 2577              		.loc 1 152 1 is_stmt 0 view .LVU827
 2578 0000 10B5     		push	{r4, lr}
 2579              		.cfi_def_cfa_offset 8
 2580              		.cfi_offset 4, -8
 2581              		.cfi_offset 14, -4
 2582 0002 0C46     		mov	r4, r1
 153:lvgl/src/core/lv_indev.c ****         indev->proc.reset_query = 1;
 2583              		.loc 1 153 5 is_stmt 1 view .LVU828
 153:lvgl/src/core/lv_indev.c ****         indev->proc.reset_query = 1;
 2584              		.loc 1 153 7 is_stmt 0 view .LVU829
 2585 0004 30B3     		cbz	r0, .L185
 2586 0006 0346     		mov	r3, r0
 154:lvgl/src/core/lv_indev.c ****         if(indev_act == indev) indev_obj_act = NULL;
 2587              		.loc 1 154 9 is_stmt 1 view .LVU830
 154:lvgl/src/core/lv_indev.c ****         if(indev_act == indev) indev_obj_act = NULL;
 2588              		.loc 1 154 33 is_stmt 0 view .LVU831
ARM GAS  C:\Users\OSD\AppData\Local\Temp\ccrOx18j.s 			page 82


 2589 0008 4279     		ldrb	r2, [r0, #5]	@ zero_extendqisi2
 2590 000a 42F00202 		orr	r2, r2, #2
 2591 000e 4271     		strb	r2, [r0, #5]
 155:lvgl/src/core/lv_indev.c ****         if(indev->driver->type == LV_INDEV_TYPE_POINTER || indev->driver->type == LV_INDEV_TYPE_KEY
 2592              		.loc 1 155 9 is_stmt 1 view .LVU832
 155:lvgl/src/core/lv_indev.c ****         if(indev->driver->type == LV_INDEV_TYPE_POINTER || indev->driver->type == LV_INDEV_TYPE_KEY
 2593              		.loc 1 155 22 is_stmt 0 view .LVU833
 2594 0010 254A     		ldr	r2, .L205
 2595 0012 1268     		ldr	r2, [r2]
 155:lvgl/src/core/lv_indev.c ****         if(indev->driver->type == LV_INDEV_TYPE_POINTER || indev->driver->type == LV_INDEV_TYPE_KEY
 2596              		.loc 1 155 11 view .LVU834
 2597 0014 8242     		cmp	r2, r0
 2598 0016 06D0     		beq	.L202
 2599              	.LVL256:
 2600              	.L186:
 156:lvgl/src/core/lv_indev.c ****             if(obj == NULL || indev->proc.types.pointer.last_pressed == obj) {
 2601              		.loc 1 156 9 is_stmt 1 view .LVU835
 156:lvgl/src/core/lv_indev.c ****             if(obj == NULL || indev->proc.types.pointer.last_pressed == obj) {
 2602              		.loc 1 156 17 is_stmt 0 view .LVU836
 2603 0018 1A68     		ldr	r2, [r3]
 156:lvgl/src/core/lv_indev.c ****             if(obj == NULL || indev->proc.types.pointer.last_pressed == obj) {
 2604              		.loc 1 156 25 view .LVU837
 2605 001a 1278     		ldrb	r2, [r2]	@ zero_extendqisi2
 156:lvgl/src/core/lv_indev.c ****             if(obj == NULL || indev->proc.types.pointer.last_pressed == obj) {
 2606              		.loc 1 156 57 view .LVU838
 2607 001c 013A     		subs	r2, r2, #1
 2608 001e D2B2     		uxtb	r2, r2
 156:lvgl/src/core/lv_indev.c ****             if(obj == NULL || indev->proc.types.pointer.last_pressed == obj) {
 2609              		.loc 1 156 11 view .LVU839
 2610 0020 012A     		cmp	r2, #1
 2611 0022 04D9     		bls	.L203
 2612              	.LVL257:
 2613              	.L184:
 187:lvgl/src/core/lv_indev.c **** 
 2614              		.loc 1 187 1 view .LVU840
 2615 0024 10BD     		pop	{r4, pc}
 2616              	.LVL258:
 2617              	.L202:
 155:lvgl/src/core/lv_indev.c ****         if(indev->driver->type == LV_INDEV_TYPE_POINTER || indev->driver->type == LV_INDEV_TYPE_KEY
 2618              		.loc 1 155 32 is_stmt 1 discriminator 1 view .LVU841
 155:lvgl/src/core/lv_indev.c ****         if(indev->driver->type == LV_INDEV_TYPE_POINTER || indev->driver->type == LV_INDEV_TYPE_KEY
 2619              		.loc 1 155 46 is_stmt 0 discriminator 1 view .LVU842
 2620 0026 214A     		ldr	r2, .L205+4
 2621 0028 0021     		movs	r1, #0
 2622              	.LVL259:
 155:lvgl/src/core/lv_indev.c ****         if(indev->driver->type == LV_INDEV_TYPE_POINTER || indev->driver->type == LV_INDEV_TYPE_KEY
 2623              		.loc 1 155 46 discriminator 1 view .LVU843
 2624 002a 1160     		str	r1, [r2]
 2625 002c F4E7     		b	.L186
 2626              	.L203:
 157:lvgl/src/core/lv_indev.c ****                 indev->proc.types.pointer.last_pressed = NULL;
 2627              		.loc 1 157 13 is_stmt 1 view .LVU844
 157:lvgl/src/core/lv_indev.c ****                 indev->proc.types.pointer.last_pressed = NULL;
 2628              		.loc 1 157 15 is_stmt 0 view .LVU845
 2629 002e 14B1     		cbz	r4, .L188
 157:lvgl/src/core/lv_indev.c ****                 indev->proc.types.pointer.last_pressed = NULL;
 2630              		.loc 1 157 56 discriminator 1 view .LVU846
ARM GAS  C:\Users\OSD\AppData\Local\Temp\ccrOx18j.s 			page 83


 2631 0030 5A6B     		ldr	r2, [r3, #52]
 157:lvgl/src/core/lv_indev.c ****                 indev->proc.types.pointer.last_pressed = NULL;
 2632              		.loc 1 157 28 discriminator 1 view .LVU847
 2633 0032 A242     		cmp	r2, r4
 2634 0034 01D1     		bne	.L189
 2635              	.L188:
 158:lvgl/src/core/lv_indev.c ****             }
 2636              		.loc 1 158 17 is_stmt 1 view .LVU848
 158:lvgl/src/core/lv_indev.c ****             }
 2637              		.loc 1 158 56 is_stmt 0 view .LVU849
 2638 0036 0022     		movs	r2, #0
 2639 0038 5A63     		str	r2, [r3, #52]
 2640              	.L189:
 160:lvgl/src/core/lv_indev.c ****                 indev->proc.types.pointer.act_obj = NULL;
 2641              		.loc 1 160 13 is_stmt 1 view .LVU850
 160:lvgl/src/core/lv_indev.c ****                 indev->proc.types.pointer.act_obj = NULL;
 2642              		.loc 1 160 15 is_stmt 0 view .LVU851
 2643 003a 14B1     		cbz	r4, .L190
 160:lvgl/src/core/lv_indev.c ****                 indev->proc.types.pointer.act_obj = NULL;
 2644              		.loc 1 160 56 discriminator 1 view .LVU852
 2645 003c 9A6A     		ldr	r2, [r3, #40]
 160:lvgl/src/core/lv_indev.c ****                 indev->proc.types.pointer.act_obj = NULL;
 2646              		.loc 1 160 28 discriminator 1 view .LVU853
 2647 003e A242     		cmp	r2, r4
 2648 0040 01D1     		bne	.L191
 2649              	.L190:
 161:lvgl/src/core/lv_indev.c ****             }
 2650              		.loc 1 161 17 is_stmt 1 view .LVU854
 161:lvgl/src/core/lv_indev.c ****             }
 2651              		.loc 1 161 51 is_stmt 0 view .LVU855
 2652 0042 0022     		movs	r2, #0
 2653 0044 9A62     		str	r2, [r3, #40]
 2654              	.L191:
 163:lvgl/src/core/lv_indev.c ****                 indev->proc.types.pointer.last_obj = NULL;
 2655              		.loc 1 163 13 is_stmt 1 view .LVU856
 163:lvgl/src/core/lv_indev.c ****                 indev->proc.types.pointer.last_obj = NULL;
 2656              		.loc 1 163 15 is_stmt 0 view .LVU857
 2657 0046 14B1     		cbz	r4, .L192
 163:lvgl/src/core/lv_indev.c ****                 indev->proc.types.pointer.last_obj = NULL;
 2658              		.loc 1 163 56 discriminator 1 view .LVU858
 2659 0048 DA6A     		ldr	r2, [r3, #44]
 163:lvgl/src/core/lv_indev.c ****                 indev->proc.types.pointer.last_obj = NULL;
 2660              		.loc 1 163 28 discriminator 1 view .LVU859
 2661 004a A242     		cmp	r2, r4
 2662 004c EAD1     		bne	.L184
 2663              	.L192:
 164:lvgl/src/core/lv_indev.c ****             }
 2664              		.loc 1 164 17 is_stmt 1 view .LVU860
 164:lvgl/src/core/lv_indev.c ****             }
 2665              		.loc 1 164 52 is_stmt 0 view .LVU861
 2666 004e 0022     		movs	r2, #0
 2667 0050 DA62     		str	r2, [r3, #44]
 2668 0052 E7E7     		b	.L184
 2669              	.LVL260:
 2670              	.L185:
 2671              	.LBB20:
 169:lvgl/src/core/lv_indev.c ****         while(i) {
ARM GAS  C:\Users\OSD\AppData\Local\Temp\ccrOx18j.s 			page 84


 2672              		.loc 1 169 9 is_stmt 1 view .LVU862
 169:lvgl/src/core/lv_indev.c ****         while(i) {
 2673              		.loc 1 169 26 is_stmt 0 view .LVU863
 2674 0054 0020     		movs	r0, #0
 2675              	.LVL261:
 169:lvgl/src/core/lv_indev.c ****         while(i) {
 2676              		.loc 1 169 26 view .LVU864
 2677 0056 FFF7FEFF 		bl	lv_indev_get_next
 2678              	.LVL262:
 170:lvgl/src/core/lv_indev.c ****             i->proc.reset_query = 1;
 2679              		.loc 1 170 9 is_stmt 1 view .LVU865
 170:lvgl/src/core/lv_indev.c ****             i->proc.reset_query = 1;
 2680              		.loc 1 170 14 is_stmt 0 view .LVU866
 2681 005a 03E0     		b	.L193
 2682              	.L199:
 180:lvgl/src/core/lv_indev.c ****                 }
 2683              		.loc 1 180 21 is_stmt 1 view .LVU867
 180:lvgl/src/core/lv_indev.c ****                 }
 2684              		.loc 1 180 52 is_stmt 0 view .LVU868
 2685 005c 0023     		movs	r3, #0
 2686 005e C362     		str	r3, [r0, #44]
 2687              	.L194:
 183:lvgl/src/core/lv_indev.c ****         }
 2688              		.loc 1 183 13 is_stmt 1 view .LVU869
 183:lvgl/src/core/lv_indev.c ****         }
 2689              		.loc 1 183 17 is_stmt 0 view .LVU870
 2690 0060 FFF7FEFF 		bl	lv_indev_get_next
 2691              	.LVL263:
 2692              	.L193:
 170:lvgl/src/core/lv_indev.c ****             i->proc.reset_query = 1;
 2693              		.loc 1 170 14 is_stmt 1 view .LVU871
 2694 0064 D8B1     		cbz	r0, .L204
 171:lvgl/src/core/lv_indev.c ****             if(i->driver->type == LV_INDEV_TYPE_POINTER || i->driver->type == LV_INDEV_TYPE_KEYPAD)
 2695              		.loc 1 171 13 view .LVU872
 171:lvgl/src/core/lv_indev.c ****             if(i->driver->type == LV_INDEV_TYPE_POINTER || i->driver->type == LV_INDEV_TYPE_KEYPAD)
 2696              		.loc 1 171 33 is_stmt 0 view .LVU873
 2697 0066 4379     		ldrb	r3, [r0, #5]	@ zero_extendqisi2
 2698 0068 43F00203 		orr	r3, r3, #2
 2699 006c 4371     		strb	r3, [r0, #5]
 172:lvgl/src/core/lv_indev.c ****                 if(obj == NULL || i->proc.types.pointer.last_pressed == obj) {
 2700              		.loc 1 172 13 is_stmt 1 view .LVU874
 172:lvgl/src/core/lv_indev.c ****                 if(obj == NULL || i->proc.types.pointer.last_pressed == obj) {
 2701              		.loc 1 172 17 is_stmt 0 view .LVU875
 2702 006e 0368     		ldr	r3, [r0]
 172:lvgl/src/core/lv_indev.c ****                 if(obj == NULL || i->proc.types.pointer.last_pressed == obj) {
 2703              		.loc 1 172 25 view .LVU876
 2704 0070 1B78     		ldrb	r3, [r3]	@ zero_extendqisi2
 172:lvgl/src/core/lv_indev.c ****                 if(obj == NULL || i->proc.types.pointer.last_pressed == obj) {
 2705              		.loc 1 172 57 view .LVU877
 2706 0072 013B     		subs	r3, r3, #1
 2707 0074 DBB2     		uxtb	r3, r3
 172:lvgl/src/core/lv_indev.c ****                 if(obj == NULL || i->proc.types.pointer.last_pressed == obj) {
 2708              		.loc 1 172 15 view .LVU878
 2709 0076 012B     		cmp	r3, #1
 2710 0078 F2D8     		bhi	.L194
 173:lvgl/src/core/lv_indev.c ****                     i->proc.types.pointer.last_pressed = NULL;
 2711              		.loc 1 173 17 is_stmt 1 view .LVU879
ARM GAS  C:\Users\OSD\AppData\Local\Temp\ccrOx18j.s 			page 85


 173:lvgl/src/core/lv_indev.c ****                     i->proc.types.pointer.last_pressed = NULL;
 2712              		.loc 1 173 19 is_stmt 0 view .LVU880
 2713 007a 14B1     		cbz	r4, .L195
 173:lvgl/src/core/lv_indev.c ****                     i->proc.types.pointer.last_pressed = NULL;
 2714              		.loc 1 173 56 discriminator 1 view .LVU881
 2715 007c 436B     		ldr	r3, [r0, #52]
 173:lvgl/src/core/lv_indev.c ****                     i->proc.types.pointer.last_pressed = NULL;
 2716              		.loc 1 173 32 discriminator 1 view .LVU882
 2717 007e A342     		cmp	r3, r4
 2718 0080 01D1     		bne	.L196
 2719              	.L195:
 174:lvgl/src/core/lv_indev.c ****                 }
 2720              		.loc 1 174 21 is_stmt 1 view .LVU883
 174:lvgl/src/core/lv_indev.c ****                 }
 2721              		.loc 1 174 56 is_stmt 0 view .LVU884
 2722 0082 0023     		movs	r3, #0
 2723 0084 4363     		str	r3, [r0, #52]
 2724              	.L196:
 176:lvgl/src/core/lv_indev.c ****                     i->proc.types.pointer.act_obj = NULL;
 2725              		.loc 1 176 17 is_stmt 1 view .LVU885
 176:lvgl/src/core/lv_indev.c ****                     i->proc.types.pointer.act_obj = NULL;
 2726              		.loc 1 176 19 is_stmt 0 view .LVU886
 2727 0086 14B1     		cbz	r4, .L197
 176:lvgl/src/core/lv_indev.c ****                     i->proc.types.pointer.act_obj = NULL;
 2728              		.loc 1 176 56 discriminator 1 view .LVU887
 2729 0088 836A     		ldr	r3, [r0, #40]
 176:lvgl/src/core/lv_indev.c ****                     i->proc.types.pointer.act_obj = NULL;
 2730              		.loc 1 176 32 discriminator 1 view .LVU888
 2731 008a A342     		cmp	r3, r4
 2732 008c 01D1     		bne	.L198
 2733              	.L197:
 177:lvgl/src/core/lv_indev.c ****                 }
 2734              		.loc 1 177 21 is_stmt 1 view .LVU889
 177:lvgl/src/core/lv_indev.c ****                 }
 2735              		.loc 1 177 51 is_stmt 0 view .LVU890
 2736 008e 0023     		movs	r3, #0
 2737 0090 8362     		str	r3, [r0, #40]
 2738              	.L198:
 179:lvgl/src/core/lv_indev.c ****                     i->proc.types.pointer.last_obj = NULL;
 2739              		.loc 1 179 17 is_stmt 1 view .LVU891
 179:lvgl/src/core/lv_indev.c ****                     i->proc.types.pointer.last_obj = NULL;
 2740              		.loc 1 179 19 is_stmt 0 view .LVU892
 2741 0092 002C     		cmp	r4, #0
 2742 0094 E2D0     		beq	.L199
 179:lvgl/src/core/lv_indev.c ****                     i->proc.types.pointer.last_obj = NULL;
 2743              		.loc 1 179 56 discriminator 1 view .LVU893
 2744 0096 C36A     		ldr	r3, [r0, #44]
 179:lvgl/src/core/lv_indev.c ****                     i->proc.types.pointer.last_obj = NULL;
 2745              		.loc 1 179 32 discriminator 1 view .LVU894
 2746 0098 A342     		cmp	r3, r4
 2747 009a E1D1     		bne	.L194
 2748 009c DEE7     		b	.L199
 2749              	.L204:
 185:lvgl/src/core/lv_indev.c ****     }
 2750              		.loc 1 185 9 is_stmt 1 view .LVU895
 185:lvgl/src/core/lv_indev.c ****     }
 2751              		.loc 1 185 23 is_stmt 0 view .LVU896
ARM GAS  C:\Users\OSD\AppData\Local\Temp\ccrOx18j.s 			page 86


 2752 009e 034B     		ldr	r3, .L205+4
 2753 00a0 0022     		movs	r2, #0
 2754 00a2 1A60     		str	r2, [r3]
 2755              	.LBE20:
 187:lvgl/src/core/lv_indev.c **** 
 2756              		.loc 1 187 1 view .LVU897
 2757 00a4 BEE7     		b	.L184
 2758              	.L206:
 2759 00a6 00BF     		.align	2
 2760              	.L205:
 2761 00a8 00000000 		.word	.LANCHOR1
 2762 00ac 00000000 		.word	.LANCHOR0
 2763              		.cfi_endproc
 2764              	.LFE171:
 2766              		.section	.text.lv_indev_reset_long_press,"ax",%progbits
 2767              		.align	1
 2768              		.global	lv_indev_reset_long_press
 2769              		.syntax unified
 2770              		.thumb
 2771              		.thumb_func
 2773              	lv_indev_reset_long_press:
 2774              	.LVL264:
 2775              	.LFB172:
 190:lvgl/src/core/lv_indev.c ****     indev->proc.long_pr_sent         = 0;
 2776              		.loc 1 190 1 is_stmt 1 view -0
 2777              		.cfi_startproc
 2778              		@ args = 0, pretend = 0, frame = 0
 2779              		@ frame_needed = 0, uses_anonymous_args = 0
 190:lvgl/src/core/lv_indev.c ****     indev->proc.long_pr_sent         = 0;
 2780              		.loc 1 190 1 is_stmt 0 view .LVU899
 2781 0000 10B5     		push	{r4, lr}
 2782              		.cfi_def_cfa_offset 8
 2783              		.cfi_offset 4, -8
 2784              		.cfi_offset 14, -4
 2785 0002 0446     		mov	r4, r0
 191:lvgl/src/core/lv_indev.c ****     indev->proc.longpr_rep_timestamp = lv_tick_get();
 2786              		.loc 1 191 5 is_stmt 1 view .LVU900
 191:lvgl/src/core/lv_indev.c ****     indev->proc.longpr_rep_timestamp = lv_tick_get();
 2787              		.loc 1 191 38 is_stmt 0 view .LVU901
 2788 0004 4379     		ldrb	r3, [r0, #5]	@ zero_extendqisi2
 2789 0006 6FF30003 		bfc	r3, #0, #1
 2790 000a 4371     		strb	r3, [r0, #5]
 192:lvgl/src/core/lv_indev.c ****     indev->proc.pr_timestamp         = lv_tick_get();
 2791              		.loc 1 192 5 is_stmt 1 view .LVU902
 192:lvgl/src/core/lv_indev.c ****     indev->proc.pr_timestamp         = lv_tick_get();
 2792              		.loc 1 192 40 is_stmt 0 view .LVU903
 2793 000c FFF7FEFF 		bl	lv_tick_get
 2794              	.LVL265:
 192:lvgl/src/core/lv_indev.c ****     indev->proc.pr_timestamp         = lv_tick_get();
 2795              		.loc 1 192 38 view .LVU904
 2796 0010 E064     		str	r0, [r4, #76]
 193:lvgl/src/core/lv_indev.c **** }
 2797              		.loc 1 193 5 is_stmt 1 view .LVU905
 193:lvgl/src/core/lv_indev.c **** }
 2798              		.loc 1 193 40 is_stmt 0 view .LVU906
 2799 0012 FFF7FEFF 		bl	lv_tick_get
 2800              	.LVL266:
ARM GAS  C:\Users\OSD\AppData\Local\Temp\ccrOx18j.s 			page 87


 193:lvgl/src/core/lv_indev.c **** }
 2801              		.loc 1 193 38 view .LVU907
 2802 0016 A064     		str	r0, [r4, #72]
 194:lvgl/src/core/lv_indev.c **** 
 2803              		.loc 1 194 1 view .LVU908
 2804 0018 10BD     		pop	{r4, pc}
 194:lvgl/src/core/lv_indev.c **** 
 2805              		.loc 1 194 1 view .LVU909
 2806              		.cfi_endproc
 2807              	.LFE172:
 2809              		.section	.text.lv_indev_set_cursor,"ax",%progbits
 2810              		.align	1
 2811              		.global	lv_indev_set_cursor
 2812              		.syntax unified
 2813              		.thumb
 2814              		.thumb_func
 2816              	lv_indev_set_cursor:
 2817              	.LVL267:
 2818              	.LFB173:
 197:lvgl/src/core/lv_indev.c ****     if(indev->driver->type != LV_INDEV_TYPE_POINTER) return;
 2819              		.loc 1 197 1 is_stmt 1 view -0
 2820              		.cfi_startproc
 2821              		@ args = 0, pretend = 0, frame = 0
 2822              		@ frame_needed = 0, uses_anonymous_args = 0
 197:lvgl/src/core/lv_indev.c ****     if(indev->driver->type != LV_INDEV_TYPE_POINTER) return;
 2823              		.loc 1 197 1 is_stmt 0 view .LVU911
 2824 0000 38B5     		push	{r3, r4, r5, lr}
 2825              		.cfi_def_cfa_offset 16
 2826              		.cfi_offset 3, -16
 2827              		.cfi_offset 4, -12
 2828              		.cfi_offset 5, -8
 2829              		.cfi_offset 14, -4
 198:lvgl/src/core/lv_indev.c **** 
 2830              		.loc 1 198 5 is_stmt 1 view .LVU912
 198:lvgl/src/core/lv_indev.c **** 
 2831              		.loc 1 198 13 is_stmt 0 view .LVU913
 2832 0002 0368     		ldr	r3, [r0]
 198:lvgl/src/core/lv_indev.c **** 
 2833              		.loc 1 198 21 view .LVU914
 2834 0004 1A78     		ldrb	r2, [r3]	@ zero_extendqisi2
 198:lvgl/src/core/lv_indev.c **** 
 2835              		.loc 1 198 7 view .LVU915
 2836 0006 012A     		cmp	r2, #1
 2837 0008 00D0     		beq	.L212
 2838              	.LVL268:
 2839              	.L209:
 205:lvgl/src/core/lv_indev.c **** 
 2840              		.loc 1 205 1 view .LVU916
 2841 000a 38BD     		pop	{r3, r4, r5, pc}
 2842              	.LVL269:
 2843              	.L212:
 205:lvgl/src/core/lv_indev.c **** 
 2844              		.loc 1 205 1 view .LVU917
 2845 000c 0446     		mov	r4, r0
 2846 000e 0D46     		mov	r5, r1
 200:lvgl/src/core/lv_indev.c ****     lv_obj_set_parent(indev->cursor, lv_disp_get_layer_sys(indev->driver->disp));
 2847              		.loc 1 200 5 is_stmt 1 view .LVU918
ARM GAS  C:\Users\OSD\AppData\Local\Temp\ccrOx18j.s 			page 88


 200:lvgl/src/core/lv_indev.c ****     lv_obj_set_parent(indev->cursor, lv_disp_get_layer_sys(indev->driver->disp));
 2848              		.loc 1 200 19 is_stmt 0 view .LVU919
 2849 0010 0165     		str	r1, [r0, #80]
 201:lvgl/src/core/lv_indev.c ****     lv_obj_set_pos(indev->cursor, indev->proc.types.pointer.act_point.x, indev->proc.types.pointer.
 2850              		.loc 1 201 5 is_stmt 1 view .LVU920
 201:lvgl/src/core/lv_indev.c ****     lv_obj_set_pos(indev->cursor, indev->proc.types.pointer.act_point.x, indev->proc.types.pointer.
 2851              		.loc 1 201 38 is_stmt 0 view .LVU921
 2852 0012 1869     		ldr	r0, [r3, #16]
 2853              	.LVL270:
 201:lvgl/src/core/lv_indev.c ****     lv_obj_set_pos(indev->cursor, indev->proc.types.pointer.act_point.x, indev->proc.types.pointer.
 2854              		.loc 1 201 38 view .LVU922
 2855 0014 FFF7FEFF 		bl	lv_disp_get_layer_sys
 2856              	.LVL271:
 201:lvgl/src/core/lv_indev.c ****     lv_obj_set_pos(indev->cursor, indev->proc.types.pointer.act_point.x, indev->proc.types.pointer.
 2857              		.loc 1 201 38 view .LVU923
 2858 0018 0146     		mov	r1, r0
 201:lvgl/src/core/lv_indev.c ****     lv_obj_set_pos(indev->cursor, indev->proc.types.pointer.act_point.x, indev->proc.types.pointer.
 2859              		.loc 1 201 5 view .LVU924
 2860 001a 2846     		mov	r0, r5
 2861 001c FFF7FEFF 		bl	lv_obj_set_parent
 2862              	.LVL272:
 202:lvgl/src/core/lv_indev.c ****     lv_obj_clear_flag(indev->cursor, LV_OBJ_FLAG_CLICKABLE);
 2863              		.loc 1 202 5 is_stmt 1 view .LVU925
 2864 0020 B4F90A20 		ldrsh	r2, [r4, #10]
 2865 0024 B4F90810 		ldrsh	r1, [r4, #8]
 2866 0028 206D     		ldr	r0, [r4, #80]
 2867 002a FFF7FEFF 		bl	lv_obj_set_pos
 2868              	.LVL273:
 203:lvgl/src/core/lv_indev.c ****     lv_obj_add_flag(indev->cursor, LV_OBJ_FLAG_IGNORE_LAYOUT | LV_OBJ_FLAG_FLOATING);
 2869              		.loc 1 203 5 view .LVU926
 2870 002e 0221     		movs	r1, #2
 2871 0030 206D     		ldr	r0, [r4, #80]
 2872 0032 FFF7FEFF 		bl	lv_obj_clear_flag
 2873              	.LVL274:
 204:lvgl/src/core/lv_indev.c **** }
 2874              		.loc 1 204 5 view .LVU927
 2875 0036 4FF4C021 		mov	r1, #393216
 2876 003a 206D     		ldr	r0, [r4, #80]
 2877 003c FFF7FEFF 		bl	lv_obj_add_flag
 2878              	.LVL275:
 2879 0040 E3E7     		b	.L209
 2880              		.cfi_endproc
 2881              	.LFE173:
 2883              		.section	.text.lv_indev_set_group,"ax",%progbits
 2884              		.align	1
 2885              		.global	lv_indev_set_group
 2886              		.syntax unified
 2887              		.thumb
 2888              		.thumb_func
 2890              	lv_indev_set_group:
 2891              	.LVL276:
 2892              	.LFB174:
 208:lvgl/src/core/lv_indev.c ****     if(indev->driver->type == LV_INDEV_TYPE_KEYPAD || indev->driver->type == LV_INDEV_TYPE_ENCODER)
 2893              		.loc 1 208 1 view -0
 2894              		.cfi_startproc
 2895              		@ args = 0, pretend = 0, frame = 0
 2896              		@ frame_needed = 0, uses_anonymous_args = 0
ARM GAS  C:\Users\OSD\AppData\Local\Temp\ccrOx18j.s 			page 89


 2897              		@ link register save eliminated.
 209:lvgl/src/core/lv_indev.c ****         indev->group = group;
 2898              		.loc 1 209 5 view .LVU929
 209:lvgl/src/core/lv_indev.c ****         indev->group = group;
 2899              		.loc 1 209 13 is_stmt 0 view .LVU930
 2900 0000 0368     		ldr	r3, [r0]
 209:lvgl/src/core/lv_indev.c ****         indev->group = group;
 2901              		.loc 1 209 21 view .LVU931
 2902 0002 1B78     		ldrb	r3, [r3]	@ zero_extendqisi2
 209:lvgl/src/core/lv_indev.c ****         indev->group = group;
 2903              		.loc 1 209 7 view .LVU932
 2904 0004 042B     		cmp	r3, #4
 2905 0006 18BF     		it	ne
 2906 0008 022B     		cmpne	r3, #2
 2907 000a 00D1     		bne	.L213
 210:lvgl/src/core/lv_indev.c ****     }
 2908              		.loc 1 210 9 is_stmt 1 view .LVU933
 210:lvgl/src/core/lv_indev.c ****     }
 2909              		.loc 1 210 22 is_stmt 0 view .LVU934
 2910 000c 4165     		str	r1, [r0, #84]
 2911              	.L213:
 212:lvgl/src/core/lv_indev.c **** 
 2912              		.loc 1 212 1 view .LVU935
 2913 000e 7047     		bx	lr
 2914              		.cfi_endproc
 2915              	.LFE174:
 2917              		.section	.text.lv_indev_set_button_points,"ax",%progbits
 2918              		.align	1
 2919              		.global	lv_indev_set_button_points
 2920              		.syntax unified
 2921              		.thumb
 2922              		.thumb_func
 2924              	lv_indev_set_button_points:
 2925              	.LVL277:
 2926              	.LFB175:
 215:lvgl/src/core/lv_indev.c ****     if(indev->driver->type == LV_INDEV_TYPE_BUTTON) {
 2927              		.loc 1 215 1 is_stmt 1 view -0
 2928              		.cfi_startproc
 2929              		@ args = 0, pretend = 0, frame = 0
 2930              		@ frame_needed = 0, uses_anonymous_args = 0
 2931              		@ link register save eliminated.
 216:lvgl/src/core/lv_indev.c ****         indev->btn_points = points;
 2932              		.loc 1 216 5 view .LVU937
 216:lvgl/src/core/lv_indev.c ****         indev->btn_points = points;
 2933              		.loc 1 216 13 is_stmt 0 view .LVU938
 2934 0000 0368     		ldr	r3, [r0]
 216:lvgl/src/core/lv_indev.c ****         indev->btn_points = points;
 2935              		.loc 1 216 21 view .LVU939
 2936 0002 1B78     		ldrb	r3, [r3]	@ zero_extendqisi2
 216:lvgl/src/core/lv_indev.c ****         indev->btn_points = points;
 2937              		.loc 1 216 7 view .LVU940
 2938 0004 032B     		cmp	r3, #3
 2939 0006 00D0     		beq	.L217
 2940              	.L215:
 219:lvgl/src/core/lv_indev.c **** 
 2941              		.loc 1 219 1 view .LVU941
 2942 0008 7047     		bx	lr
ARM GAS  C:\Users\OSD\AppData\Local\Temp\ccrOx18j.s 			page 90


 2943              	.L217:
 217:lvgl/src/core/lv_indev.c ****     }
 2944              		.loc 1 217 9 is_stmt 1 view .LVU942
 217:lvgl/src/core/lv_indev.c ****     }
 2945              		.loc 1 217 27 is_stmt 0 view .LVU943
 2946 000a 8165     		str	r1, [r0, #88]
 219:lvgl/src/core/lv_indev.c **** 
 2947              		.loc 1 219 1 view .LVU944
 2948 000c FCE7     		b	.L215
 2949              		.cfi_endproc
 2950              	.LFE175:
 2952              		.section	.text.lv_indev_get_point,"ax",%progbits
 2953              		.align	1
 2954              		.global	lv_indev_get_point
 2955              		.syntax unified
 2956              		.thumb
 2957              		.thumb_func
 2959              	lv_indev_get_point:
 2960              	.LVL278:
 2961              	.LFB176:
 222:lvgl/src/core/lv_indev.c ****     if(indev == NULL) {
 2962              		.loc 1 222 1 is_stmt 1 view -0
 2963              		.cfi_startproc
 2964              		@ args = 0, pretend = 0, frame = 0
 2965              		@ frame_needed = 0, uses_anonymous_args = 0
 2966              		@ link register save eliminated.
 223:lvgl/src/core/lv_indev.c ****         point->x = 0;
 2967              		.loc 1 223 5 view .LVU946
 223:lvgl/src/core/lv_indev.c ****         point->x = 0;
 2968              		.loc 1 223 7 is_stmt 0 view .LVU947
 2969 0000 50B1     		cbz	r0, .L222
 228:lvgl/src/core/lv_indev.c ****         point->x = -1;
 2970              		.loc 1 228 5 is_stmt 1 view .LVU948
 228:lvgl/src/core/lv_indev.c ****         point->x = -1;
 2971              		.loc 1 228 13 is_stmt 0 view .LVU949
 2972 0002 0268     		ldr	r2, [r0]
 228:lvgl/src/core/lv_indev.c ****         point->x = -1;
 2973              		.loc 1 228 21 view .LVU950
 2974 0004 1278     		ldrb	r2, [r2]	@ zero_extendqisi2
 228:lvgl/src/core/lv_indev.c ****         point->x = -1;
 2975              		.loc 1 228 7 view .LVU951
 2976 0006 012A     		cmp	r2, #1
 2977 0008 18BF     		it	ne
 2978 000a 032A     		cmpne	r2, #3
 2979 000c 08D0     		beq	.L221
 229:lvgl/src/core/lv_indev.c ****         point->y = -1;
 2980              		.loc 1 229 9 is_stmt 1 view .LVU952
 229:lvgl/src/core/lv_indev.c ****         point->y = -1;
 2981              		.loc 1 229 18 is_stmt 0 view .LVU953
 2982 000e 4FF6FF73 		movw	r3, #65535
 2983 0012 0B80     		strh	r3, [r1]	@ movhi
 230:lvgl/src/core/lv_indev.c ****     }
 2984              		.loc 1 230 9 is_stmt 1 view .LVU954
 230:lvgl/src/core/lv_indev.c ****     }
 2985              		.loc 1 230 18 is_stmt 0 view .LVU955
 2986 0014 4B80     		strh	r3, [r1, #2]	@ movhi
 2987 0016 7047     		bx	lr
ARM GAS  C:\Users\OSD\AppData\Local\Temp\ccrOx18j.s 			page 91


 2988              	.L222:
 224:lvgl/src/core/lv_indev.c ****         point->y = 0;
 2989              		.loc 1 224 9 is_stmt 1 view .LVU956
 224:lvgl/src/core/lv_indev.c ****         point->y = 0;
 2990              		.loc 1 224 18 is_stmt 0 view .LVU957
 2991 0018 0023     		movs	r3, #0
 2992 001a 0B80     		strh	r3, [r1]	@ movhi
 225:lvgl/src/core/lv_indev.c ****         return;
 2993              		.loc 1 225 9 is_stmt 1 view .LVU958
 225:lvgl/src/core/lv_indev.c ****         return;
 2994              		.loc 1 225 18 is_stmt 0 view .LVU959
 2995 001c 4B80     		strh	r3, [r1, #2]	@ movhi
 226:lvgl/src/core/lv_indev.c ****     }
 2996              		.loc 1 226 9 is_stmt 1 view .LVU960
 2997 001e 7047     		bx	lr
 2998              	.L221:
 233:lvgl/src/core/lv_indev.c ****         point->y = indev->proc.types.pointer.act_point.y;
 2999              		.loc 1 233 9 view .LVU961
 233:lvgl/src/core/lv_indev.c ****         point->y = indev->proc.types.pointer.act_point.y;
 3000              		.loc 1 233 55 is_stmt 0 view .LVU962
 3001 0020 B0F90820 		ldrsh	r2, [r0, #8]
 233:lvgl/src/core/lv_indev.c ****         point->y = indev->proc.types.pointer.act_point.y;
 3002              		.loc 1 233 18 view .LVU963
 3003 0024 0A80     		strh	r2, [r1]	@ movhi
 234:lvgl/src/core/lv_indev.c ****     }
 3004              		.loc 1 234 9 is_stmt 1 view .LVU964
 234:lvgl/src/core/lv_indev.c ****     }
 3005              		.loc 1 234 55 is_stmt 0 view .LVU965
 3006 0026 B0F90A30 		ldrsh	r3, [r0, #10]
 234:lvgl/src/core/lv_indev.c ****     }
 3007              		.loc 1 234 18 view .LVU966
 3008 002a 4B80     		strh	r3, [r1, #2]	@ movhi
 236:lvgl/src/core/lv_indev.c **** 
 3009              		.loc 1 236 1 view .LVU967
 3010 002c 7047     		bx	lr
 3011              		.cfi_endproc
 3012              	.LFE176:
 3014              		.section	.text.lv_indev_get_gesture_dir,"ax",%progbits
 3015              		.align	1
 3016              		.global	lv_indev_get_gesture_dir
 3017              		.syntax unified
 3018              		.thumb
 3019              		.thumb_func
 3021              	lv_indev_get_gesture_dir:
 3022              	.LVL279:
 3023              	.LFB177:
 239:lvgl/src/core/lv_indev.c ****     return indev->proc.types.pointer.gesture_dir;
 3024              		.loc 1 239 1 is_stmt 1 view -0
 3025              		.cfi_startproc
 3026              		@ args = 0, pretend = 0, frame = 0
 3027              		@ frame_needed = 0, uses_anonymous_args = 0
 3028              		@ link register save eliminated.
 240:lvgl/src/core/lv_indev.c **** }
 3029              		.loc 1 240 5 view .LVU969
 240:lvgl/src/core/lv_indev.c **** }
 3030              		.loc 1 240 37 is_stmt 0 view .LVU970
 3031 0000 90F84400 		ldrb	r0, [r0, #68]	@ zero_extendqisi2
ARM GAS  C:\Users\OSD\AppData\Local\Temp\ccrOx18j.s 			page 92


 3032              	.LVL280:
 241:lvgl/src/core/lv_indev.c **** 
 3033              		.loc 1 241 1 view .LVU971
 3034 0004 0009     		lsrs	r0, r0, #4
 3035 0006 7047     		bx	lr
 3036              		.cfi_endproc
 3037              	.LFE177:
 3039              		.section	.text.lv_indev_get_key,"ax",%progbits
 3040              		.align	1
 3041              		.global	lv_indev_get_key
 3042              		.syntax unified
 3043              		.thumb
 3044              		.thumb_func
 3046              	lv_indev_get_key:
 3047              	.LVL281:
 3048              	.LFB178:
 244:lvgl/src/core/lv_indev.c ****     if(indev->driver->type != LV_INDEV_TYPE_KEYPAD)
 3049              		.loc 1 244 1 is_stmt 1 view -0
 3050              		.cfi_startproc
 3051              		@ args = 0, pretend = 0, frame = 0
 3052              		@ frame_needed = 0, uses_anonymous_args = 0
 3053              		@ link register save eliminated.
 245:lvgl/src/core/lv_indev.c ****         return 0;
 3054              		.loc 1 245 5 view .LVU973
 245:lvgl/src/core/lv_indev.c ****         return 0;
 3055              		.loc 1 245 13 is_stmt 0 view .LVU974
 3056 0000 0368     		ldr	r3, [r0]
 245:lvgl/src/core/lv_indev.c ****         return 0;
 3057              		.loc 1 245 21 view .LVU975
 3058 0002 1B78     		ldrb	r3, [r3]	@ zero_extendqisi2
 245:lvgl/src/core/lv_indev.c ****         return 0;
 3059              		.loc 1 245 7 view .LVU976
 3060 0004 022B     		cmp	r3, #2
 3061 0006 01D0     		beq	.L227
 246:lvgl/src/core/lv_indev.c ****     else
 3062              		.loc 1 246 16 view .LVU977
 3063 0008 0020     		movs	r0, #0
 3064              	.LVL282:
 249:lvgl/src/core/lv_indev.c **** 
 3065              		.loc 1 249 1 view .LVU978
 3066 000a 7047     		bx	lr
 3067              	.LVL283:
 3068              	.L227:
 248:lvgl/src/core/lv_indev.c **** }
 3069              		.loc 1 248 9 is_stmt 1 view .LVU979
 248:lvgl/src/core/lv_indev.c **** }
 3070              		.loc 1 248 40 is_stmt 0 view .LVU980
 3071 000c C068     		ldr	r0, [r0, #12]
 3072              	.LVL284:
 248:lvgl/src/core/lv_indev.c **** }
 3073              		.loc 1 248 40 view .LVU981
 3074 000e 7047     		bx	lr
 3075              		.cfi_endproc
 3076              	.LFE178:
 3078              		.section	.text.lv_indev_get_scroll_dir,"ax",%progbits
 3079              		.align	1
 3080              		.global	lv_indev_get_scroll_dir
ARM GAS  C:\Users\OSD\AppData\Local\Temp\ccrOx18j.s 			page 93


 3081              		.syntax unified
 3082              		.thumb
 3083              		.thumb_func
 3085              	lv_indev_get_scroll_dir:
 3086              	.LVL285:
 3087              	.LFB179:
 252:lvgl/src/core/lv_indev.c ****     if(indev == NULL) return false;
 3088              		.loc 1 252 1 is_stmt 1 view -0
 3089              		.cfi_startproc
 3090              		@ args = 0, pretend = 0, frame = 0
 3091              		@ frame_needed = 0, uses_anonymous_args = 0
 3092              		@ link register save eliminated.
 253:lvgl/src/core/lv_indev.c ****     if(indev->driver->type != LV_INDEV_TYPE_POINTER && indev->driver->type != LV_INDEV_TYPE_BUTTON)
 3093              		.loc 1 253 5 view .LVU983
 253:lvgl/src/core/lv_indev.c ****     if(indev->driver->type != LV_INDEV_TYPE_POINTER && indev->driver->type != LV_INDEV_TYPE_BUTTON)
 3094              		.loc 1 253 7 is_stmt 0 view .LVU984
 3095 0000 50B1     		cbz	r0, .L230
 254:lvgl/src/core/lv_indev.c ****     return indev->proc.types.pointer.scroll_dir;
 3096              		.loc 1 254 5 is_stmt 1 view .LVU985
 254:lvgl/src/core/lv_indev.c ****     return indev->proc.types.pointer.scroll_dir;
 3097              		.loc 1 254 13 is_stmt 0 view .LVU986
 3098 0002 0368     		ldr	r3, [r0]
 254:lvgl/src/core/lv_indev.c ****     return indev->proc.types.pointer.scroll_dir;
 3099              		.loc 1 254 21 view .LVU987
 3100 0004 1B78     		ldrb	r3, [r3]	@ zero_extendqisi2
 254:lvgl/src/core/lv_indev.c ****     return indev->proc.types.pointer.scroll_dir;
 3101              		.loc 1 254 7 view .LVU988
 3102 0006 012B     		cmp	r3, #1
 3103 0008 18BF     		it	ne
 3104 000a 032B     		cmpne	r3, #3
 3105 000c 06D1     		bne	.L231
 255:lvgl/src/core/lv_indev.c **** }
 3106              		.loc 1 255 5 is_stmt 1 view .LVU989
 255:lvgl/src/core/lv_indev.c **** }
 3107              		.loc 1 255 37 is_stmt 0 view .LVU990
 3108 000e 90F84400 		ldrb	r0, [r0, #68]	@ zero_extendqisi2
 3109              	.LVL286:
 255:lvgl/src/core/lv_indev.c **** }
 3110              		.loc 1 255 37 view .LVU991
 3111 0012 00F00F00 		and	r0, r0, #15
 3112 0016 7047     		bx	lr
 3113              	.LVL287:
 3114              	.L230:
 253:lvgl/src/core/lv_indev.c ****     if(indev->driver->type != LV_INDEV_TYPE_POINTER && indev->driver->type != LV_INDEV_TYPE_BUTTON)
 3115              		.loc 1 253 30 view .LVU992
 3116 0018 0020     		movs	r0, #0
 3117              	.LVL288:
 253:lvgl/src/core/lv_indev.c ****     if(indev->driver->type != LV_INDEV_TYPE_POINTER && indev->driver->type != LV_INDEV_TYPE_BUTTON)
 3118              		.loc 1 253 30 view .LVU993
 3119 001a 7047     		bx	lr
 3120              	.LVL289:
 3121              	.L231:
 254:lvgl/src/core/lv_indev.c ****     return indev->proc.types.pointer.scroll_dir;
 3122              		.loc 1 254 108 view .LVU994
 3123 001c 0020     		movs	r0, #0
 3124              	.LVL290:
 256:lvgl/src/core/lv_indev.c **** 
ARM GAS  C:\Users\OSD\AppData\Local\Temp\ccrOx18j.s 			page 94


 3125              		.loc 1 256 1 view .LVU995
 3126 001e 7047     		bx	lr
 3127              		.cfi_endproc
 3128              	.LFE179:
 3130              		.section	.text.lv_indev_get_scroll_obj,"ax",%progbits
 3131              		.align	1
 3132              		.global	lv_indev_get_scroll_obj
 3133              		.syntax unified
 3134              		.thumb
 3135              		.thumb_func
 3137              	lv_indev_get_scroll_obj:
 3138              	.LVL291:
 3139              	.LFB180:
 259:lvgl/src/core/lv_indev.c ****     if(indev == NULL) return NULL;
 3140              		.loc 1 259 1 is_stmt 1 view -0
 3141              		.cfi_startproc
 3142              		@ args = 0, pretend = 0, frame = 0
 3143              		@ frame_needed = 0, uses_anonymous_args = 0
 3144              		@ link register save eliminated.
 260:lvgl/src/core/lv_indev.c ****     if(indev->driver->type != LV_INDEV_TYPE_POINTER && indev->driver->type != LV_INDEV_TYPE_BUTTON)
 3145              		.loc 1 260 5 view .LVU997
 260:lvgl/src/core/lv_indev.c ****     if(indev->driver->type != LV_INDEV_TYPE_POINTER && indev->driver->type != LV_INDEV_TYPE_BUTTON)
 3146              		.loc 1 260 7 is_stmt 0 view .LVU998
 3147 0000 38B1     		cbz	r0, .L234
 261:lvgl/src/core/lv_indev.c ****     return indev->proc.types.pointer.scroll_obj;
 3148              		.loc 1 261 5 is_stmt 1 view .LVU999
 261:lvgl/src/core/lv_indev.c ****     return indev->proc.types.pointer.scroll_obj;
 3149              		.loc 1 261 13 is_stmt 0 view .LVU1000
 3150 0002 0268     		ldr	r2, [r0]
 261:lvgl/src/core/lv_indev.c ****     return indev->proc.types.pointer.scroll_obj;
 3151              		.loc 1 261 21 view .LVU1001
 3152 0004 1278     		ldrb	r2, [r2]	@ zero_extendqisi2
 261:lvgl/src/core/lv_indev.c ****     return indev->proc.types.pointer.scroll_obj;
 3153              		.loc 1 261 7 view .LVU1002
 3154 0006 012A     		cmp	r2, #1
 3155 0008 18BF     		it	ne
 3156 000a 032A     		cmpne	r2, #3
 3157 000c 02D1     		bne	.L235
 262:lvgl/src/core/lv_indev.c **** }
 3158              		.loc 1 262 5 is_stmt 1 view .LVU1003
 262:lvgl/src/core/lv_indev.c **** }
 3159              		.loc 1 262 37 is_stmt 0 view .LVU1004
 3160 000e 006B     		ldr	r0, [r0, #48]
 3161              	.LVL292:
 262:lvgl/src/core/lv_indev.c **** }
 3162              		.loc 1 262 37 view .LVU1005
 3163 0010 7047     		bx	lr
 3164              	.LVL293:
 3165              	.L234:
 262:lvgl/src/core/lv_indev.c **** }
 3166              		.loc 1 262 37 view .LVU1006
 3167 0012 7047     		bx	lr
 3168              	.L235:
 261:lvgl/src/core/lv_indev.c ****     return indev->proc.types.pointer.scroll_obj;
 3169              		.loc 1 261 108 view .LVU1007
 3170 0014 0020     		movs	r0, #0
 3171              	.LVL294:
ARM GAS  C:\Users\OSD\AppData\Local\Temp\ccrOx18j.s 			page 95


 263:lvgl/src/core/lv_indev.c **** 
 3172              		.loc 1 263 1 view .LVU1008
 3173 0016 7047     		bx	lr
 3174              		.cfi_endproc
 3175              	.LFE180:
 3177              		.section	.text.lv_indev_get_vect,"ax",%progbits
 3178              		.align	1
 3179              		.global	lv_indev_get_vect
 3180              		.syntax unified
 3181              		.thumb
 3182              		.thumb_func
 3184              	lv_indev_get_vect:
 3185              	.LVL295:
 3186              	.LFB181:
 266:lvgl/src/core/lv_indev.c ****     point->x = 0;
 3187              		.loc 1 266 1 is_stmt 1 view -0
 3188              		.cfi_startproc
 3189              		@ args = 0, pretend = 0, frame = 0
 3190              		@ frame_needed = 0, uses_anonymous_args = 0
 3191              		@ link register save eliminated.
 267:lvgl/src/core/lv_indev.c ****     point->y = 0;
 3192              		.loc 1 267 5 view .LVU1010
 267:lvgl/src/core/lv_indev.c ****     point->y = 0;
 3193              		.loc 1 267 14 is_stmt 0 view .LVU1011
 3194 0000 0023     		movs	r3, #0
 3195 0002 0B80     		strh	r3, [r1]	@ movhi
 268:lvgl/src/core/lv_indev.c **** 
 3196              		.loc 1 268 5 is_stmt 1 view .LVU1012
 268:lvgl/src/core/lv_indev.c **** 
 3197              		.loc 1 268 14 is_stmt 0 view .LVU1013
 3198 0004 4B80     		strh	r3, [r1, #2]	@ movhi
 270:lvgl/src/core/lv_indev.c **** 
 3199              		.loc 1 270 5 is_stmt 1 view .LVU1014
 270:lvgl/src/core/lv_indev.c **** 
 3200              		.loc 1 270 7 is_stmt 0 view .LVU1015
 3201 0006 58B1     		cbz	r0, .L236
 272:lvgl/src/core/lv_indev.c ****         point->x = indev->proc.types.pointer.vect.x;
 3202              		.loc 1 272 5 is_stmt 1 view .LVU1016
 272:lvgl/src/core/lv_indev.c ****         point->x = indev->proc.types.pointer.vect.x;
 3203              		.loc 1 272 13 is_stmt 0 view .LVU1017
 3204 0008 0268     		ldr	r2, [r0]
 272:lvgl/src/core/lv_indev.c ****         point->x = indev->proc.types.pointer.vect.x;
 3205              		.loc 1 272 21 view .LVU1018
 3206 000a 1278     		ldrb	r2, [r2]	@ zero_extendqisi2
 272:lvgl/src/core/lv_indev.c ****         point->x = indev->proc.types.pointer.vect.x;
 3207              		.loc 1 272 7 view .LVU1019
 3208 000c 032A     		cmp	r2, #3
 3209 000e 18BF     		it	ne
 3210 0010 012A     		cmpne	r2, #1
 3211 0012 05D1     		bne	.L236
 273:lvgl/src/core/lv_indev.c ****         point->y = indev->proc.types.pointer.vect.y;
 3212              		.loc 1 273 9 is_stmt 1 view .LVU1020
 273:lvgl/src/core/lv_indev.c ****         point->y = indev->proc.types.pointer.vect.y;
 3213              		.loc 1 273 50 is_stmt 0 view .LVU1021
 3214 0014 B0F91820 		ldrsh	r2, [r0, #24]
 273:lvgl/src/core/lv_indev.c ****         point->y = indev->proc.types.pointer.vect.y;
 3215              		.loc 1 273 18 view .LVU1022
ARM GAS  C:\Users\OSD\AppData\Local\Temp\ccrOx18j.s 			page 96


 3216 0018 0A80     		strh	r2, [r1]	@ movhi
 274:lvgl/src/core/lv_indev.c ****     }
 3217              		.loc 1 274 9 is_stmt 1 view .LVU1023
 274:lvgl/src/core/lv_indev.c ****     }
 3218              		.loc 1 274 50 is_stmt 0 view .LVU1024
 3219 001a B0F91A30 		ldrsh	r3, [r0, #26]
 274:lvgl/src/core/lv_indev.c ****     }
 3220              		.loc 1 274 18 view .LVU1025
 3221 001e 4B80     		strh	r3, [r1, #2]	@ movhi
 3222              	.L236:
 276:lvgl/src/core/lv_indev.c **** 
 3223              		.loc 1 276 1 view .LVU1026
 3224 0020 7047     		bx	lr
 3225              		.cfi_endproc
 3226              	.LFE181:
 3228              		.section	.text.lv_indev_wait_release,"ax",%progbits
 3229              		.align	1
 3230              		.global	lv_indev_wait_release
 3231              		.syntax unified
 3232              		.thumb
 3233              		.thumb_func
 3235              	lv_indev_wait_release:
 3236              	.LVL296:
 3237              	.LFB182:
 279:lvgl/src/core/lv_indev.c ****     if(indev == NULL)return;
 3238              		.loc 1 279 1 is_stmt 1 view -0
 3239              		.cfi_startproc
 3240              		@ args = 0, pretend = 0, frame = 0
 3241              		@ frame_needed = 0, uses_anonymous_args = 0
 3242              		@ link register save eliminated.
 280:lvgl/src/core/lv_indev.c ****     indev->proc.wait_until_release = 1;
 3243              		.loc 1 280 5 view .LVU1028
 280:lvgl/src/core/lv_indev.c ****     indev->proc.wait_until_release = 1;
 3244              		.loc 1 280 7 is_stmt 0 view .LVU1029
 3245 0000 18B1     		cbz	r0, .L238
 281:lvgl/src/core/lv_indev.c **** }
 3246              		.loc 1 281 5 is_stmt 1 view .LVU1030
 281:lvgl/src/core/lv_indev.c **** }
 3247              		.loc 1 281 36 is_stmt 0 view .LVU1031
 3248 0002 4379     		ldrb	r3, [r0, #5]	@ zero_extendqisi2
 3249 0004 43F00803 		orr	r3, r3, #8
 3250 0008 4371     		strb	r3, [r0, #5]
 3251              	.L238:
 282:lvgl/src/core/lv_indev.c **** 
 3252              		.loc 1 282 1 view .LVU1032
 3253 000a 7047     		bx	lr
 3254              		.cfi_endproc
 3255              	.LFE182:
 3257              		.section	.text.lv_indev_get_obj_act,"ax",%progbits
 3258              		.align	1
 3259              		.global	lv_indev_get_obj_act
 3260              		.syntax unified
 3261              		.thumb
 3262              		.thumb_func
 3264              	lv_indev_get_obj_act:
 3265              	.LFB183:
 285:lvgl/src/core/lv_indev.c ****     return indev_obj_act;
ARM GAS  C:\Users\OSD\AppData\Local\Temp\ccrOx18j.s 			page 97


 3266              		.loc 1 285 1 is_stmt 1 view -0
 3267              		.cfi_startproc
 3268              		@ args = 0, pretend = 0, frame = 0
 3269              		@ frame_needed = 0, uses_anonymous_args = 0
 3270              		@ link register save eliminated.
 286:lvgl/src/core/lv_indev.c **** }
 3271              		.loc 1 286 5 view .LVU1034
 287:lvgl/src/core/lv_indev.c **** 
 3272              		.loc 1 287 1 is_stmt 0 view .LVU1035
 3273 0000 014B     		ldr	r3, .L241
 3274 0002 1868     		ldr	r0, [r3]
 3275 0004 7047     		bx	lr
 3276              	.L242:
 3277 0006 00BF     		.align	2
 3278              	.L241:
 3279 0008 00000000 		.word	.LANCHOR0
 3280              		.cfi_endproc
 3281              	.LFE183:
 3283              		.section	.text.lv_indev_get_read_timer,"ax",%progbits
 3284              		.align	1
 3285              		.global	lv_indev_get_read_timer
 3286              		.syntax unified
 3287              		.thumb
 3288              		.thumb_func
 3290              	lv_indev_get_read_timer:
 3291              	.LVL297:
 3292              	.LFB184:
 290:lvgl/src/core/lv_indev.c ****     if(!indev) {
 3293              		.loc 1 290 1 is_stmt 1 view -0
 3294              		.cfi_startproc
 3295              		@ args = 0, pretend = 0, frame = 0
 3296              		@ frame_needed = 0, uses_anonymous_args = 0
 3297              		@ link register save eliminated.
 291:lvgl/src/core/lv_indev.c ****         LV_LOG_WARN("lv_indev_get_read_timer: indev was NULL");
 3298              		.loc 1 291 5 view .LVU1037
 291:lvgl/src/core/lv_indev.c ****         LV_LOG_WARN("lv_indev_get_read_timer: indev was NULL");
 3299              		.loc 1 291 7 is_stmt 0 view .LVU1038
 3300 0000 08B1     		cbz	r0, .L245
 296:lvgl/src/core/lv_indev.c **** }
 3301              		.loc 1 296 5 is_stmt 1 view .LVU1039
 296:lvgl/src/core/lv_indev.c **** }
 3302              		.loc 1 296 17 is_stmt 0 view .LVU1040
 3303 0002 4068     		ldr	r0, [r0, #4]
 3304              	.LVL298:
 296:lvgl/src/core/lv_indev.c **** }
 3305              		.loc 1 296 17 view .LVU1041
 3306 0004 7047     		bx	lr
 3307              	.LVL299:
 3308              	.L245:
 297:lvgl/src/core/lv_indev.c **** 
 3309              		.loc 1 297 1 view .LVU1042
 3310 0006 7047     		bx	lr
 3311              		.cfi_endproc
 3312              	.LFE184:
 3314              		.section	.text.lv_indev_search_obj,"ax",%progbits
 3315              		.align	1
 3316              		.global	lv_indev_search_obj
ARM GAS  C:\Users\OSD\AppData\Local\Temp\ccrOx18j.s 			page 98


 3317              		.syntax unified
 3318              		.thumb
 3319              		.thumb_func
 3321              	lv_indev_search_obj:
 3322              	.LVL300:
 3323              	.LFB185:
 300:lvgl/src/core/lv_indev.c ****     lv_obj_t * found_p = NULL;
 3324              		.loc 1 300 1 is_stmt 1 view -0
 3325              		.cfi_startproc
 3326              		@ args = 0, pretend = 0, frame = 8
 3327              		@ frame_needed = 0, uses_anonymous_args = 0
 300:lvgl/src/core/lv_indev.c ****     lv_obj_t * found_p = NULL;
 3328              		.loc 1 300 1 is_stmt 0 view .LVU1044
 3329 0000 70B5     		push	{r4, r5, r6, lr}
 3330              		.cfi_def_cfa_offset 16
 3331              		.cfi_offset 4, -16
 3332              		.cfi_offset 5, -12
 3333              		.cfi_offset 6, -8
 3334              		.cfi_offset 14, -4
 3335 0002 82B0     		sub	sp, sp, #8
 3336              		.cfi_def_cfa_offset 24
 3337 0004 0546     		mov	r5, r0
 3338 0006 0C46     		mov	r4, r1
 301:lvgl/src/core/lv_indev.c **** 
 3339              		.loc 1 301 5 is_stmt 1 view .LVU1045
 3340              	.LVL301:
 304:lvgl/src/core/lv_indev.c **** 
 3341              		.loc 1 304 5 view .LVU1046
 304:lvgl/src/core/lv_indev.c **** 
 3342              		.loc 1 304 8 is_stmt 0 view .LVU1047
 3343 0008 0121     		movs	r1, #1
 3344              	.LVL302:
 304:lvgl/src/core/lv_indev.c **** 
 3345              		.loc 1 304 8 view .LVU1048
 3346 000a FFF7FEFF 		bl	lv_obj_has_flag
 3347              	.LVL303:
 304:lvgl/src/core/lv_indev.c **** 
 3348              		.loc 1 304 7 view .LVU1049
 3349 000e 78BB     		cbnz	r0, .L252
 306:lvgl/src/core/lv_indev.c ****     lv_obj_transform_point(obj, &p_trans, false, true);
 3350              		.loc 1 306 5 is_stmt 1 view .LVU1050
 306:lvgl/src/core/lv_indev.c ****     lv_obj_transform_point(obj, &p_trans, false, true);
 3351              		.loc 1 306 16 is_stmt 0 view .LVU1051
 3352 0010 2068     		ldr	r0, [r4]	@ unaligned
 3353 0012 0190     		str	r0, [sp, #4]
 307:lvgl/src/core/lv_indev.c **** 
 3354              		.loc 1 307 5 is_stmt 1 view .LVU1052
 3355 0014 0123     		movs	r3, #1
 3356 0016 0022     		movs	r2, #0
 3357 0018 01A9     		add	r1, sp, #4
 3358 001a 2846     		mov	r0, r5
 3359 001c FFF7FEFF 		bl	lv_obj_transform_point
 3360              	.LVL304:
 309:lvgl/src/core/lv_indev.c **** 
 3361              		.loc 1 309 5 view .LVU1053
 309:lvgl/src/core/lv_indev.c **** 
 3362              		.loc 1 309 24 is_stmt 0 view .LVU1054
ARM GAS  C:\Users\OSD\AppData\Local\Temp\ccrOx18j.s 			page 99


 3363 0020 01A9     		add	r1, sp, #4
 3364 0022 2846     		mov	r0, r5
 3365 0024 FFF7FEFF 		bl	lv_obj_hit_test
 3366              	.LVL305:
 3367 0028 0646     		mov	r6, r0
 3368              	.LVL306:
 312:lvgl/src/core/lv_indev.c ****         int32_t i;
 3369              		.loc 1 312 5 is_stmt 1 view .LVU1055
 312:lvgl/src/core/lv_indev.c ****         int32_t i;
 3370              		.loc 1 312 8 is_stmt 0 view .LVU1056
 3371 002a 0022     		movs	r2, #0
 3372 002c 01A9     		add	r1, sp, #4
 3373 002e 05F11400 		add	r0, r5, #20
 3374 0032 FFF7FEFF 		bl	_lv_area_is_point_on
 3375              	.LVL307:
 312:lvgl/src/core/lv_indev.c ****         int32_t i;
 3376              		.loc 1 312 7 view .LVU1057
 3377 0036 28B9     		cbnz	r0, .L248
 312:lvgl/src/core/lv_indev.c ****         int32_t i;
 3378              		.loc 1 312 59 discriminator 1 view .LVU1058
 3379 0038 4FF40021 		mov	r1, #524288
 3380 003c 2846     		mov	r0, r5
 3381 003e FFF7FEFF 		bl	lv_obj_has_flag
 3382              	.LVL308:
 312:lvgl/src/core/lv_indev.c ****         int32_t i;
 3383              		.loc 1 312 56 discriminator 1 view .LVU1059
 3384 0042 80B1     		cbz	r0, .L249
 3385              	.L248:
 3386              	.LBB21:
 313:lvgl/src/core/lv_indev.c ****         uint32_t child_cnt = lv_obj_get_child_cnt(obj);
 3387              		.loc 1 313 9 is_stmt 1 view .LVU1060
 314:lvgl/src/core/lv_indev.c **** 
 3388              		.loc 1 314 9 view .LVU1061
 314:lvgl/src/core/lv_indev.c **** 
 3389              		.loc 1 314 30 is_stmt 0 view .LVU1062
 3390 0044 2846     		mov	r0, r5
 3391 0046 FFF7FEFF 		bl	lv_obj_get_child_cnt
 3392              	.LVL309:
 317:lvgl/src/core/lv_indev.c ****             lv_obj_t * child = obj->spec_attr->children[i];
 3393              		.loc 1 317 9 is_stmt 1 view .LVU1063
 317:lvgl/src/core/lv_indev.c ****             lv_obj_t * child = obj->spec_attr->children[i];
 3394              		.loc 1 317 27 is_stmt 0 view .LVU1064
 3395 004a 441E     		subs	r4, r0, #1
 3396              	.LVL310:
 3397              	.L250:
 317:lvgl/src/core/lv_indev.c ****             lv_obj_t * child = obj->spec_attr->children[i];
 3398              		.loc 1 317 32 is_stmt 1 discriminator 1 view .LVU1065
 317:lvgl/src/core/lv_indev.c ****             lv_obj_t * child = obj->spec_attr->children[i];
 3399              		.loc 1 317 9 is_stmt 0 discriminator 1 view .LVU1066
 3400 004c 002C     		cmp	r4, #0
 3401 004e 0ADB     		blt	.L249
 3402              	.LBB22:
 318:lvgl/src/core/lv_indev.c ****             found_p = lv_indev_search_obj(child, &p_trans);
 3403              		.loc 1 318 13 is_stmt 1 view .LVU1067
 318:lvgl/src/core/lv_indev.c ****             found_p = lv_indev_search_obj(child, &p_trans);
 3404              		.loc 1 318 35 is_stmt 0 view .LVU1068
 3405 0050 AB68     		ldr	r3, [r5, #8]
ARM GAS  C:\Users\OSD\AppData\Local\Temp\ccrOx18j.s 			page 100


 318:lvgl/src/core/lv_indev.c ****             found_p = lv_indev_search_obj(child, &p_trans);
 3406              		.loc 1 318 46 view .LVU1069
 3407 0052 1B68     		ldr	r3, [r3]
 3408              	.LVL311:
 319:lvgl/src/core/lv_indev.c ****             if(found_p) return found_p;
 3409              		.loc 1 319 13 is_stmt 1 view .LVU1070
 319:lvgl/src/core/lv_indev.c ****             if(found_p) return found_p;
 3410              		.loc 1 319 23 is_stmt 0 view .LVU1071
 3411 0054 01A9     		add	r1, sp, #4
 3412 0056 53F82400 		ldr	r0, [r3, r4, lsl #2]
 3413 005a FFF7FEFF 		bl	lv_indev_search_obj
 3414              	.LVL312:
 320:lvgl/src/core/lv_indev.c ****         }
 3415              		.loc 1 320 13 is_stmt 1 view .LVU1072
 320:lvgl/src/core/lv_indev.c ****         }
 3416              		.loc 1 320 15 is_stmt 0 view .LVU1073
 3417 005e 0346     		mov	r3, r0
 3418 0060 18B9     		cbnz	r0, .L246
 3419              	.LBE22:
 317:lvgl/src/core/lv_indev.c ****             lv_obj_t * child = obj->spec_attr->children[i];
 3420              		.loc 1 317 40 is_stmt 1 discriminator 2 view .LVU1074
 317:lvgl/src/core/lv_indev.c ****             lv_obj_t * child = obj->spec_attr->children[i];
 3421              		.loc 1 317 41 is_stmt 0 discriminator 2 view .LVU1075
 3422 0062 013C     		subs	r4, r4, #1
 3423              	.LVL313:
 317:lvgl/src/core/lv_indev.c ****             lv_obj_t * child = obj->spec_attr->children[i];
 3424              		.loc 1 317 41 discriminator 2 view .LVU1076
 3425 0064 F2E7     		b	.L250
 3426              	.LVL314:
 3427              	.L249:
 317:lvgl/src/core/lv_indev.c ****             lv_obj_t * child = obj->spec_attr->children[i];
 3428              		.loc 1 317 41 discriminator 2 view .LVU1077
 3429              	.LBE21:
 326:lvgl/src/core/lv_indev.c ****     else return NULL;
 3430              		.loc 1 326 5 is_stmt 1 view .LVU1078
 326:lvgl/src/core/lv_indev.c ****     else return NULL;
 3431              		.loc 1 326 7 is_stmt 0 view .LVU1079
 3432 0066 2EB1     		cbz	r6, .L253
 326:lvgl/src/core/lv_indev.c ****     else return NULL;
 3433              		.loc 1 326 28 view .LVU1080
 3434 0068 2B46     		mov	r3, r5
 3435              	.LVL315:
 3436              	.L246:
 328:lvgl/src/core/lv_indev.c **** 
 3437              		.loc 1 328 1 view .LVU1081
 3438 006a 1846     		mov	r0, r3
 3439 006c 02B0     		add	sp, sp, #8
 3440              		.cfi_remember_state
 3441              		.cfi_def_cfa_offset 16
 3442              		@ sp needed
 3443 006e 70BD     		pop	{r4, r5, r6, pc}
 3444              	.LVL316:
 3445              	.L252:
 3446              		.cfi_restore_state
 304:lvgl/src/core/lv_indev.c **** 
 3447              		.loc 1 304 57 view .LVU1082
 3448 0070 0023     		movs	r3, #0
ARM GAS  C:\Users\OSD\AppData\Local\Temp\ccrOx18j.s 			page 101


 3449 0072 FAE7     		b	.L246
 3450              	.LVL317:
 3451              	.L253:
 327:lvgl/src/core/lv_indev.c **** }
 3452              		.loc 1 327 17 view .LVU1083
 3453 0074 0023     		movs	r3, #0
 3454 0076 F8E7     		b	.L246
 3455              		.cfi_endproc
 3456              	.LFE185:
 3458              		.section	.text.indev_proc_press,"ax",%progbits
 3459              		.align	1
 3460              		.syntax unified
 3461              		.thumb
 3462              		.thumb_func
 3464              	indev_proc_press:
 3465              	.LVL318:
 3466              	.LFB190:
 817:lvgl/src/core/lv_indev.c ****     LV_LOG_INFO("pressed at x:%d y:%d", proc->types.pointer.act_point.x, proc->types.pointer.act_po
 3467              		.loc 1 817 1 is_stmt 1 view -0
 3468              		.cfi_startproc
 3469              		@ args = 0, pretend = 0, frame = 0
 3470              		@ frame_needed = 0, uses_anonymous_args = 0
 817:lvgl/src/core/lv_indev.c ****     LV_LOG_INFO("pressed at x:%d y:%d", proc->types.pointer.act_point.x, proc->types.pointer.act_po
 3471              		.loc 1 817 1 is_stmt 0 view .LVU1085
 3472 0000 70B5     		push	{r4, r5, r6, lr}
 3473              		.cfi_def_cfa_offset 16
 3474              		.cfi_offset 4, -16
 3475              		.cfi_offset 5, -12
 3476              		.cfi_offset 6, -8
 3477              		.cfi_offset 14, -4
 3478 0002 0446     		mov	r4, r0
 818:lvgl/src/core/lv_indev.c ****     indev_obj_act = proc->types.pointer.act_obj;
 3479              		.loc 1 818 5 is_stmt 1 view .LVU1086
 818:lvgl/src/core/lv_indev.c ****     indev_obj_act = proc->types.pointer.act_obj;
 3480              		.loc 1 818 5 view .LVU1087
 818:lvgl/src/core/lv_indev.c ****     indev_obj_act = proc->types.pointer.act_obj;
 3481              		.loc 1 818 5 view .LVU1088
 819:lvgl/src/core/lv_indev.c **** 
 3482              		.loc 1 819 5 view .LVU1089
 819:lvgl/src/core/lv_indev.c **** 
 3483              		.loc 1 819 40 is_stmt 0 view .LVU1090
 3484 0004 406A     		ldr	r0, [r0, #36]
 3485              	.LVL319:
 819:lvgl/src/core/lv_indev.c **** 
 3486              		.loc 1 819 19 view .LVU1091
 3487 0006 9E4B     		ldr	r3, .L277
 3488 0008 1860     		str	r0, [r3]
 821:lvgl/src/core/lv_indev.c **** 
 3489              		.loc 1 821 5 is_stmt 1 view .LVU1092
 821:lvgl/src/core/lv_indev.c **** 
 3490              		.loc 1 821 33 is_stmt 0 view .LVU1093
 3491 000a 6378     		ldrb	r3, [r4, #1]	@ zero_extendqisi2
 821:lvgl/src/core/lv_indev.c **** 
 3492              		.loc 1 821 7 view .LVU1094
 3493 000c 13F0080F 		tst	r3, #8
 3494 0010 40F08980 		bne	.L255
 823:lvgl/src/core/lv_indev.c ****     bool new_obj_searched = false;
ARM GAS  C:\Users\OSD\AppData\Local\Temp\ccrOx18j.s 			page 102


 3495              		.loc 1 823 5 is_stmt 1 view .LVU1095
 823:lvgl/src/core/lv_indev.c ****     bool new_obj_searched = false;
 3496              		.loc 1 823 33 is_stmt 0 view .LVU1096
 3497 0014 9B4B     		ldr	r3, .L277+4
 3498 0016 1B68     		ldr	r3, [r3]
 3499 0018 1B68     		ldr	r3, [r3]
 823:lvgl/src/core/lv_indev.c ****     bool new_obj_searched = false;
 3500              		.loc 1 823 17 view .LVU1097
 3501 001a 1D69     		ldr	r5, [r3, #16]
 3502              	.LVL320:
 824:lvgl/src/core/lv_indev.c **** 
 3503              		.loc 1 824 5 is_stmt 1 view .LVU1098
 827:lvgl/src/core/lv_indev.c ****         indev_obj_act = lv_indev_search_obj(lv_disp_get_layer_sys(disp), &proc->types.pointer.act_p
 3504              		.loc 1 827 5 view .LVU1099
 827:lvgl/src/core/lv_indev.c ****         indev_obj_act = lv_indev_search_obj(lv_disp_get_layer_sys(disp), &proc->types.pointer.act_p
 3505              		.loc 1 827 7 is_stmt 0 view .LVU1100
 3506 001c 0028     		cmp	r0, #0
 3507 001e 00F08380 		beq	.L268
 836:lvgl/src/core/lv_indev.c ****             lv_obj_has_flag(indev_obj_act, LV_OBJ_FLAG_PRESS_LOCK) == false) {
 3508              		.loc 1 836 10 is_stmt 1 view .LVU1101
 836:lvgl/src/core/lv_indev.c ****             lv_obj_has_flag(indev_obj_act, LV_OBJ_FLAG_PRESS_LOCK) == false) {
 3509              		.loc 1 836 32 is_stmt 0 view .LVU1102
 3510 0022 E36A     		ldr	r3, [r4, #44]
 836:lvgl/src/core/lv_indev.c ****             lv_obj_has_flag(indev_obj_act, LV_OBJ_FLAG_PRESS_LOCK) == false) {
 3511              		.loc 1 836 12 view .LVU1103
 3512 0024 002B     		cmp	r3, #0
 3513 0026 00F0AF80 		beq	.L269
 3514              	.LVL321:
 3515              	.L260:
 855:lvgl/src/core/lv_indev.c ****         proc->types.pointer.last_point.x = proc->types.pointer.act_point.x;
 3516              		.loc 1 855 5 is_stmt 1 view .LVU1104
 855:lvgl/src/core/lv_indev.c ****         proc->types.pointer.last_point.x = proc->types.pointer.act_point.x;
 3517              		.loc 1 855 44 is_stmt 0 view .LVU1105
 3518 002a 606A     		ldr	r0, [r4, #36]
 855:lvgl/src/core/lv_indev.c ****         proc->types.pointer.last_point.x = proc->types.pointer.act_point.x;
 3519              		.loc 1 855 22 view .LVU1106
 3520 002c 944B     		ldr	r3, .L277
 3521 002e 1B68     		ldr	r3, [r3]
 855:lvgl/src/core/lv_indev.c ****         proc->types.pointer.last_point.x = proc->types.pointer.act_point.x;
 3522              		.loc 1 855 7 view .LVU1107
 3523 0030 9842     		cmp	r0, r3
 3524 0032 4ED0     		beq	.L262
 856:lvgl/src/core/lv_indev.c ****         proc->types.pointer.last_point.y = proc->types.pointer.act_point.y;
 3525              		.loc 1 856 9 is_stmt 1 view .LVU1108
 856:lvgl/src/core/lv_indev.c ****         proc->types.pointer.last_point.y = proc->types.pointer.act_point.y;
 3526              		.loc 1 856 73 is_stmt 0 view .LVU1109
 3527 0034 B4F90430 		ldrsh	r3, [r4, #4]
 856:lvgl/src/core/lv_indev.c ****         proc->types.pointer.last_point.y = proc->types.pointer.act_point.y;
 3528              		.loc 1 856 42 view .LVU1110
 3529 0038 A381     		strh	r3, [r4, #12]	@ movhi
 857:lvgl/src/core/lv_indev.c **** 
 3530              		.loc 1 857 9 is_stmt 1 view .LVU1111
 857:lvgl/src/core/lv_indev.c **** 
 3531              		.loc 1 857 73 is_stmt 0 view .LVU1112
 3532 003a B4F90630 		ldrsh	r3, [r4, #6]
 857:lvgl/src/core/lv_indev.c **** 
 3533              		.loc 1 857 42 view .LVU1113
ARM GAS  C:\Users\OSD\AppData\Local\Temp\ccrOx18j.s 			page 103


 3534 003e E381     		strh	r3, [r4, #14]	@ movhi
 860:lvgl/src/core/lv_indev.c ****             /*Save the obj because in special cases `act_obj` can change in the Call the ancestor's
 3535              		.loc 1 860 9 is_stmt 1 view .LVU1114
 860:lvgl/src/core/lv_indev.c ****             /*Save the obj because in special cases `act_obj` can change in the Call the ancestor's
 3536              		.loc 1 860 11 is_stmt 0 view .LVU1115
 3537 0040 48B1     		cbz	r0, .L263
 3538              	.LBB23:
 862:lvgl/src/core/lv_indev.c **** 
 3539              		.loc 1 862 13 is_stmt 1 view .LVU1116
 3540              	.LVL322:
 864:lvgl/src/core/lv_indev.c ****             if(indev_reset_check(proc)) return;
 3541              		.loc 1 864 13 view .LVU1117
 3542 0042 904B     		ldr	r3, .L277+4
 3543 0044 1A68     		ldr	r2, [r3]
 3544 0046 0321     		movs	r1, #3
 3545 0048 FFF7FEFF 		bl	lv_event_send
 3546              	.LVL323:
 865:lvgl/src/core/lv_indev.c ****         }
 3547              		.loc 1 865 13 view .LVU1118
 865:lvgl/src/core/lv_indev.c ****         }
 3548              		.loc 1 865 16 is_stmt 0 view .LVU1119
 3549 004c 2046     		mov	r0, r4
 3550 004e FFF7FEFF 		bl	indev_reset_check
 3551              	.LVL324:
 865:lvgl/src/core/lv_indev.c ****         }
 3552              		.loc 1 865 15 view .LVU1120
 3553 0052 0028     		cmp	r0, #0
 3554 0054 67D1     		bne	.L255
 3555              	.L263:
 865:lvgl/src/core/lv_indev.c ****         }
 3556              		.loc 1 865 15 view .LVU1121
 3557              	.LBE23:
 868:lvgl/src/core/lv_indev.c ****         proc->types.pointer.last_obj = indev_obj_act;
 3558              		.loc 1 868 9 is_stmt 1 view .LVU1122
 868:lvgl/src/core/lv_indev.c ****         proc->types.pointer.last_obj = indev_obj_act;
 3559              		.loc 1 868 38 is_stmt 0 view .LVU1123
 3560 0056 8A4B     		ldr	r3, .L277
 3561 0058 1B68     		ldr	r3, [r3]
 3562 005a 6362     		str	r3, [r4, #36]
 869:lvgl/src/core/lv_indev.c **** 
 3563              		.loc 1 869 9 is_stmt 1 view .LVU1124
 869:lvgl/src/core/lv_indev.c **** 
 3564              		.loc 1 869 38 is_stmt 0 view .LVU1125
 3565 005c A362     		str	r3, [r4, #40]
 871:lvgl/src/core/lv_indev.c ****             /*Save the time when the obj pressed to count long press time.*/
 3566              		.loc 1 871 9 is_stmt 1 view .LVU1126
 871:lvgl/src/core/lv_indev.c ****             /*Save the time when the obj pressed to count long press time.*/
 3567              		.loc 1 871 11 is_stmt 0 view .LVU1127
 3568 005e 002B     		cmp	r3, #0
 3569 0060 37D0     		beq	.L262
 873:lvgl/src/core/lv_indev.c ****             proc->long_pr_sent                 = 0;
 3570              		.loc 1 873 13 is_stmt 1 view .LVU1128
 873:lvgl/src/core/lv_indev.c ****             proc->long_pr_sent                 = 0;
 3571              		.loc 1 873 50 is_stmt 0 view .LVU1129
 3572 0062 FFF7FEFF 		bl	lv_tick_get
 3573              	.LVL325:
 873:lvgl/src/core/lv_indev.c ****             proc->long_pr_sent                 = 0;
ARM GAS  C:\Users\OSD\AppData\Local\Temp\ccrOx18j.s 			page 104


 3574              		.loc 1 873 48 view .LVU1130
 3575 0066 6064     		str	r0, [r4, #68]
 874:lvgl/src/core/lv_indev.c ****             proc->types.pointer.scroll_sum.x     = 0;
 3576              		.loc 1 874 13 is_stmt 1 view .LVU1131
 874:lvgl/src/core/lv_indev.c ****             proc->types.pointer.scroll_sum.x     = 0;
 3577              		.loc 1 874 48 is_stmt 0 view .LVU1132
 3578 0068 6378     		ldrb	r3, [r4, #1]	@ zero_extendqisi2
 3579 006a 6FF30003 		bfc	r3, #0, #1
 3580 006e 6370     		strb	r3, [r4, #1]
 875:lvgl/src/core/lv_indev.c ****             proc->types.pointer.scroll_sum.y     = 0;
 3581              		.loc 1 875 13 is_stmt 1 view .LVU1133
 875:lvgl/src/core/lv_indev.c ****             proc->types.pointer.scroll_sum.y     = 0;
 3582              		.loc 1 875 50 is_stmt 0 view .LVU1134
 3583 0070 0023     		movs	r3, #0
 3584 0072 2383     		strh	r3, [r4, #24]	@ movhi
 876:lvgl/src/core/lv_indev.c ****             proc->types.pointer.scroll_dir = LV_DIR_NONE;
 3585              		.loc 1 876 13 is_stmt 1 view .LVU1135
 876:lvgl/src/core/lv_indev.c ****             proc->types.pointer.scroll_dir = LV_DIR_NONE;
 3586              		.loc 1 876 50 is_stmt 0 view .LVU1136
 3587 0074 6383     		strh	r3, [r4, #26]	@ movhi
 877:lvgl/src/core/lv_indev.c ****             proc->types.pointer.gesture_dir = LV_DIR_NONE;
 3588              		.loc 1 877 13 is_stmt 1 view .LVU1137
 877:lvgl/src/core/lv_indev.c ****             proc->types.pointer.gesture_dir = LV_DIR_NONE;
 3589              		.loc 1 877 44 is_stmt 0 view .LVU1138
 3590 0076 94F84020 		ldrb	r2, [r4, #64]	@ zero_extendqisi2
 3591 007a 63F30302 		bfi	r2, r3, #0, #4
 3592 007e 84F84020 		strb	r2, [r4, #64]
 878:lvgl/src/core/lv_indev.c ****             proc->types.pointer.gesture_sent   = 0;
 3593              		.loc 1 878 13 is_stmt 1 view .LVU1139
 878:lvgl/src/core/lv_indev.c ****             proc->types.pointer.gesture_sent   = 0;
 3594              		.loc 1 878 45 is_stmt 0 view .LVU1140
 3595 0082 D2B2     		uxtb	r2, r2
 3596 0084 63F30712 		bfi	r2, r3, #4, #4
 3597 0088 84F84020 		strb	r2, [r4, #64]
 879:lvgl/src/core/lv_indev.c ****             proc->types.pointer.gesture_sum.x  = 0;
 3598              		.loc 1 879 13 is_stmt 1 view .LVU1141
 879:lvgl/src/core/lv_indev.c ****             proc->types.pointer.gesture_sum.x  = 0;
 3599              		.loc 1 879 48 is_stmt 0 view .LVU1142
 3600 008c 94F84120 		ldrb	r2, [r4, #65]	@ zero_extendqisi2
 3601 0090 63F30002 		bfi	r2, r3, #0, #1
 3602 0094 84F84120 		strb	r2, [r4, #65]
 880:lvgl/src/core/lv_indev.c ****             proc->types.pointer.gesture_sum.y  = 0;
 3603              		.loc 1 880 13 is_stmt 1 view .LVU1143
 880:lvgl/src/core/lv_indev.c ****             proc->types.pointer.gesture_sum.y  = 0;
 3604              		.loc 1 880 48 is_stmt 0 view .LVU1144
 3605 0098 A387     		strh	r3, [r4, #60]	@ movhi
 881:lvgl/src/core/lv_indev.c ****             proc->types.pointer.vect.x         = 0;
 3606              		.loc 1 881 13 is_stmt 1 view .LVU1145
 881:lvgl/src/core/lv_indev.c ****             proc->types.pointer.vect.x         = 0;
 3607              		.loc 1 881 48 is_stmt 0 view .LVU1146
 3608 009a E387     		strh	r3, [r4, #62]	@ movhi
 882:lvgl/src/core/lv_indev.c ****             proc->types.pointer.vect.y         = 0;
 3609              		.loc 1 882 13 is_stmt 1 view .LVU1147
 882:lvgl/src/core/lv_indev.c ****             proc->types.pointer.vect.y         = 0;
 3610              		.loc 1 882 48 is_stmt 0 view .LVU1148
 3611 009c A382     		strh	r3, [r4, #20]	@ movhi
 883:lvgl/src/core/lv_indev.c **** 
ARM GAS  C:\Users\OSD\AppData\Local\Temp\ccrOx18j.s 			page 105


 3612              		.loc 1 883 13 is_stmt 1 view .LVU1149
 883:lvgl/src/core/lv_indev.c **** 
 3613              		.loc 1 883 48 is_stmt 0 view .LVU1150
 3614 009e E382     		strh	r3, [r4, #22]	@ movhi
 886:lvgl/src/core/lv_indev.c ****             if(indev_reset_check(proc)) return;
 3615              		.loc 1 886 13 is_stmt 1 view .LVU1151
 3616 00a0 784B     		ldr	r3, .L277+4
 3617 00a2 1A68     		ldr	r2, [r3]
 3618 00a4 0121     		movs	r1, #1
 3619 00a6 764B     		ldr	r3, .L277
 3620 00a8 1868     		ldr	r0, [r3]
 3621 00aa FFF7FEFF 		bl	lv_event_send
 3622              	.LVL326:
 887:lvgl/src/core/lv_indev.c **** 
 3623              		.loc 1 887 13 view .LVU1152
 887:lvgl/src/core/lv_indev.c **** 
 3624              		.loc 1 887 16 is_stmt 0 view .LVU1153
 3625 00ae 2046     		mov	r0, r4
 3626 00b0 FFF7FEFF 		bl	indev_reset_check
 3627              	.LVL327:
 887:lvgl/src/core/lv_indev.c **** 
 3628              		.loc 1 887 15 view .LVU1154
 3629 00b4 0028     		cmp	r0, #0
 3630 00b6 36D1     		bne	.L255
 889:lvgl/src/core/lv_indev.c **** 
 3631              		.loc 1 889 13 is_stmt 1 view .LVU1155
 889:lvgl/src/core/lv_indev.c **** 
 3632              		.loc 1 889 25 is_stmt 0 view .LVU1156
 3633 00b8 724B     		ldr	r3, .L277+4
 3634 00ba 1868     		ldr	r0, [r3]
 889:lvgl/src/core/lv_indev.c **** 
 3635              		.loc 1 889 16 view .LVU1157
 3636 00bc 4379     		ldrb	r3, [r0, #5]	@ zero_extendqisi2
 889:lvgl/src/core/lv_indev.c **** 
 3637              		.loc 1 889 15 view .LVU1158
 3638 00be 13F0080F 		tst	r3, #8
 3639 00c2 30D1     		bne	.L255
 892:lvgl/src/core/lv_indev.c ****             if(indev_reset_check(proc)) return;
 3640              		.loc 1 892 13 is_stmt 1 view .LVU1159
 3641 00c4 0430     		adds	r0, r0, #4
 3642 00c6 FFF7FEFF 		bl	indev_click_focus
 3643              	.LVL328:
 893:lvgl/src/core/lv_indev.c **** 
 3644              		.loc 1 893 13 view .LVU1160
 893:lvgl/src/core/lv_indev.c **** 
 3645              		.loc 1 893 16 is_stmt 0 view .LVU1161
 3646 00ca 2046     		mov	r0, r4
 3647 00cc FFF7FEFF 		bl	indev_reset_check
 3648              	.LVL329:
 893:lvgl/src/core/lv_indev.c **** 
 3649              		.loc 1 893 15 view .LVU1162
 3650 00d0 48BB     		cbnz	r0, .L255
 3651              	.L262:
 899:lvgl/src/core/lv_indev.c ****     proc->types.pointer.vect.y = proc->types.pointer.act_point.y - proc->types.pointer.last_point.y
 3652              		.loc 1 899 5 is_stmt 1 view .LVU1163
 899:lvgl/src/core/lv_indev.c ****     proc->types.pointer.vect.y = proc->types.pointer.act_point.y - proc->types.pointer.last_point.y
 3653              		.loc 1 899 63 is_stmt 0 view .LVU1164
ARM GAS  C:\Users\OSD\AppData\Local\Temp\ccrOx18j.s 			page 106


 3654 00d2 A288     		ldrh	r2, [r4, #4]
 899:lvgl/src/core/lv_indev.c ****     proc->types.pointer.vect.y = proc->types.pointer.act_point.y - proc->types.pointer.last_point.y
 3655              		.loc 1 899 98 view .LVU1165
 3656 00d4 A389     		ldrh	r3, [r4, #12]
 899:lvgl/src/core/lv_indev.c ****     proc->types.pointer.vect.y = proc->types.pointer.act_point.y - proc->types.pointer.last_point.y
 3657              		.loc 1 899 66 view .LVU1166
 3658 00d6 D21A     		subs	r2, r2, r3
 3659 00d8 12B2     		sxth	r2, r2
 899:lvgl/src/core/lv_indev.c ****     proc->types.pointer.vect.y = proc->types.pointer.act_point.y - proc->types.pointer.last_point.y
 3660              		.loc 1 899 32 view .LVU1167
 3661 00da A282     		strh	r2, [r4, #20]	@ movhi
 900:lvgl/src/core/lv_indev.c **** 
 3662              		.loc 1 900 5 is_stmt 1 view .LVU1168
 900:lvgl/src/core/lv_indev.c **** 
 3663              		.loc 1 900 63 is_stmt 0 view .LVU1169
 3664 00dc E388     		ldrh	r3, [r4, #6]
 900:lvgl/src/core/lv_indev.c **** 
 3665              		.loc 1 900 98 view .LVU1170
 3666 00de E189     		ldrh	r1, [r4, #14]
 900:lvgl/src/core/lv_indev.c **** 
 3667              		.loc 1 900 66 view .LVU1171
 3668 00e0 5B1A     		subs	r3, r3, r1
 3669 00e2 1BB2     		sxth	r3, r3
 900:lvgl/src/core/lv_indev.c **** 
 3670              		.loc 1 900 32 view .LVU1172
 3671 00e4 E382     		strh	r3, [r4, #22]	@ movhi
 902:lvgl/src/core/lv_indev.c ****     proc->types.pointer.scroll_throw_vect.y = (proc->types.pointer.scroll_throw_vect.y + proc->type
 3672              		.loc 1 902 5 is_stmt 1 view .LVU1173
 902:lvgl/src/core/lv_indev.c ****     proc->types.pointer.scroll_throw_vect.y = (proc->types.pointer.scroll_throw_vect.y + proc->type
 3673              		.loc 1 902 85 is_stmt 0 view .LVU1174
 3674 00e6 B4F91C10 		ldrsh	r1, [r4, #28]
 902:lvgl/src/core/lv_indev.c ****     proc->types.pointer.scroll_throw_vect.y = (proc->types.pointer.scroll_throw_vect.y + proc->type
 3675              		.loc 1 902 118 view .LVU1175
 3676 00ea 8A18     		adds	r2, r1, r2
 3677 00ec 73D4     		bmi	.L270
 3678              	.L264:
 3679 00ee 5210     		asrs	r2, r2, #1
 902:lvgl/src/core/lv_indev.c ****     proc->types.pointer.scroll_throw_vect.y = (proc->types.pointer.scroll_throw_vect.y + proc->type
 3680              		.loc 1 902 45 view .LVU1176
 3681 00f0 A283     		strh	r2, [r4, #28]	@ movhi
 903:lvgl/src/core/lv_indev.c **** 
 3682              		.loc 1 903 5 is_stmt 1 view .LVU1177
 903:lvgl/src/core/lv_indev.c **** 
 3683              		.loc 1 903 85 is_stmt 0 view .LVU1178
 3684 00f2 B4F91E20 		ldrsh	r2, [r4, #30]
 903:lvgl/src/core/lv_indev.c **** 
 3685              		.loc 1 903 118 view .LVU1179
 3686 00f6 D318     		adds	r3, r2, r3
 3687 00f8 6FD4     		bmi	.L271
 3688              	.L265:
 3689 00fa 5B10     		asrs	r3, r3, #1
 903:lvgl/src/core/lv_indev.c **** 
 3690              		.loc 1 903 45 view .LVU1180
 3691 00fc E383     		strh	r3, [r4, #30]	@ movhi
 905:lvgl/src/core/lv_indev.c **** 
 3692              		.loc 1 905 5 is_stmt 1 view .LVU1181
 905:lvgl/src/core/lv_indev.c **** 
ARM GAS  C:\Users\OSD\AppData\Local\Temp\ccrOx18j.s 			page 107


 3693              		.loc 1 905 47 is_stmt 0 view .LVU1182
 3694 00fe E369     		ldr	r3, [r4, #28]
 3695 0100 2362     		str	r3, [r4, #32]
 907:lvgl/src/core/lv_indev.c ****         lv_event_send(indev_obj_act, LV_EVENT_PRESSING, indev_act);
 3696              		.loc 1 907 5 is_stmt 1 view .LVU1183
 907:lvgl/src/core/lv_indev.c ****         lv_event_send(indev_obj_act, LV_EVENT_PRESSING, indev_act);
 3697              		.loc 1 907 8 is_stmt 0 view .LVU1184
 3698 0102 5F4B     		ldr	r3, .L277
 3699 0104 1868     		ldr	r0, [r3]
 907:lvgl/src/core/lv_indev.c ****         lv_event_send(indev_obj_act, LV_EVENT_PRESSING, indev_act);
 3700              		.loc 1 907 7 view .LVU1185
 3701 0106 70B1     		cbz	r0, .L255
 908:lvgl/src/core/lv_indev.c ****         if(indev_reset_check(proc)) return;
 3702              		.loc 1 908 9 is_stmt 1 view .LVU1186
 3703 0108 5E4B     		ldr	r3, .L277+4
 3704 010a 1A68     		ldr	r2, [r3]
 3705 010c 0221     		movs	r1, #2
 3706 010e FFF7FEFF 		bl	lv_event_send
 3707              	.LVL330:
 909:lvgl/src/core/lv_indev.c **** 
 3708              		.loc 1 909 9 view .LVU1187
 909:lvgl/src/core/lv_indev.c **** 
 3709              		.loc 1 909 12 is_stmt 0 view .LVU1188
 3710 0112 2046     		mov	r0, r4
 3711 0114 FFF7FEFF 		bl	indev_reset_check
 3712              	.LVL331:
 909:lvgl/src/core/lv_indev.c **** 
 3713              		.loc 1 909 11 view .LVU1189
 3714 0118 28B9     		cbnz	r0, .L255
 911:lvgl/src/core/lv_indev.c **** 
 3715              		.loc 1 911 9 is_stmt 1 view .LVU1190
 911:lvgl/src/core/lv_indev.c **** 
 3716              		.loc 1 911 21 is_stmt 0 view .LVU1191
 3717 011a 5A4B     		ldr	r3, .L277+4
 3718 011c 1B68     		ldr	r3, [r3]
 911:lvgl/src/core/lv_indev.c **** 
 3719              		.loc 1 911 12 view .LVU1192
 3720 011e 5B79     		ldrb	r3, [r3, #5]	@ zero_extendqisi2
 911:lvgl/src/core/lv_indev.c **** 
 3721              		.loc 1 911 11 view .LVU1193
 3722 0120 13F0080F 		tst	r3, #8
 3723 0124 5BD0     		beq	.L272
 3724              	.LVL332:
 3725              	.L255:
 943:lvgl/src/core/lv_indev.c **** 
 3726              		.loc 1 943 1 view .LVU1194
 3727 0126 70BD     		pop	{r4, r5, r6, pc}
 3728              	.LVL333:
 3729              	.L268:
 828:lvgl/src/core/lv_indev.c ****         if(indev_obj_act == NULL) indev_obj_act = lv_indev_search_obj(lv_disp_get_layer_top(disp),
 3730              		.loc 1 828 9 is_stmt 1 view .LVU1195
 828:lvgl/src/core/lv_indev.c ****         if(indev_obj_act == NULL) indev_obj_act = lv_indev_search_obj(lv_disp_get_layer_top(disp),
 3731              		.loc 1 828 25 is_stmt 0 view .LVU1196
 3732 0128 2846     		mov	r0, r5
 3733 012a FFF7FEFF 		bl	lv_disp_get_layer_sys
 3734              	.LVL334:
 3735 012e 261D     		adds	r6, r4, #4
ARM GAS  C:\Users\OSD\AppData\Local\Temp\ccrOx18j.s 			page 108


 3736 0130 3146     		mov	r1, r6
 3737 0132 FFF7FEFF 		bl	lv_indev_search_obj
 3738              	.LVL335:
 828:lvgl/src/core/lv_indev.c ****         if(indev_obj_act == NULL) indev_obj_act = lv_indev_search_obj(lv_disp_get_layer_top(disp),
 3739              		.loc 1 828 23 view .LVU1197
 3740 0136 524B     		ldr	r3, .L277
 3741 0138 1860     		str	r0, [r3]
 829:lvgl/src/core/lv_indev.c ****                                                                           &proc->types.pointer.act_
 3742              		.loc 1 829 9 is_stmt 1 view .LVU1198
 829:lvgl/src/core/lv_indev.c ****                                                                           &proc->types.pointer.act_
 3743              		.loc 1 829 11 is_stmt 0 view .LVU1199
 3744 013a 98B1     		cbz	r0, .L273
 3745              	.L258:
 831:lvgl/src/core/lv_indev.c ****                                                                           &proc->types.pointer.act_
 3746              		.loc 1 831 9 is_stmt 1 view .LVU1200
 831:lvgl/src/core/lv_indev.c ****                                                                           &proc->types.pointer.act_
 3747              		.loc 1 831 26 is_stmt 0 view .LVU1201
 3748 013c 504B     		ldr	r3, .L277
 3749 013e 1B68     		ldr	r3, [r3]
 831:lvgl/src/core/lv_indev.c ****                                                                           &proc->types.pointer.act_
 3750              		.loc 1 831 11 view .LVU1202
 3751 0140 CBB1     		cbz	r3, .L274
 3752              	.L259:
 3753              	.LVL336:
 847:lvgl/src/core/lv_indev.c ****         proc->types.pointer.scroll_throw_vect.x = 0;
 3754              		.loc 1 847 47 discriminator 1 view .LVU1203
 3755 0142 A36A     		ldr	r3, [r4, #40]
 847:lvgl/src/core/lv_indev.c ****         proc->types.pointer.scroll_throw_vect.x = 0;
 3756              		.loc 1 847 25 discriminator 1 view .LVU1204
 3757 0144 002B     		cmp	r3, #0
 3758 0146 3FF470AF 		beq	.L260
 848:lvgl/src/core/lv_indev.c ****         proc->types.pointer.scroll_throw_vect.y = 0;
 3759              		.loc 1 848 9 is_stmt 1 view .LVU1205
 848:lvgl/src/core/lv_indev.c ****         proc->types.pointer.scroll_throw_vect.y = 0;
 3760              		.loc 1 848 49 is_stmt 0 view .LVU1206
 3761 014a 0023     		movs	r3, #0
 3762 014c A383     		strh	r3, [r4, #28]	@ movhi
 849:lvgl/src/core/lv_indev.c ****         _lv_indev_scroll_throw_handler(proc);
 3763              		.loc 1 849 9 is_stmt 1 view .LVU1207
 849:lvgl/src/core/lv_indev.c ****         _lv_indev_scroll_throw_handler(proc);
 3764              		.loc 1 849 49 is_stmt 0 view .LVU1208
 3765 014e E383     		strh	r3, [r4, #30]	@ movhi
 850:lvgl/src/core/lv_indev.c ****         if(indev_reset_check(proc)) return;
 3766              		.loc 1 850 9 is_stmt 1 view .LVU1209
 3767 0150 2046     		mov	r0, r4
 3768 0152 FFF7FEFF 		bl	_lv_indev_scroll_throw_handler
 3769              	.LVL337:
 851:lvgl/src/core/lv_indev.c ****     }
 3770              		.loc 1 851 9 view .LVU1210
 851:lvgl/src/core/lv_indev.c ****     }
 3771              		.loc 1 851 12 is_stmt 0 view .LVU1211
 3772 0156 2046     		mov	r0, r4
 3773 0158 FFF7FEFF 		bl	indev_reset_check
 3774              	.LVL338:
 851:lvgl/src/core/lv_indev.c ****     }
 3775              		.loc 1 851 11 view .LVU1212
 3776 015c 0028     		cmp	r0, #0
ARM GAS  C:\Users\OSD\AppData\Local\Temp\ccrOx18j.s 			page 109


 3777 015e 3FF464AF 		beq	.L260
 3778 0162 E0E7     		b	.L255
 3779              	.LVL339:
 3780              	.L273:
 829:lvgl/src/core/lv_indev.c ****                                                                           &proc->types.pointer.act_
 3781              		.loc 1 829 35 is_stmt 1 discriminator 1 view .LVU1213
 829:lvgl/src/core/lv_indev.c ****                                                                           &proc->types.pointer.act_
 3782              		.loc 1 829 51 is_stmt 0 discriminator 1 view .LVU1214
 3783 0164 2846     		mov	r0, r5
 3784 0166 FFF7FEFF 		bl	lv_disp_get_layer_top
 3785              	.LVL340:
 3786 016a 3146     		mov	r1, r6
 3787 016c FFF7FEFF 		bl	lv_indev_search_obj
 3788              	.LVL341:
 829:lvgl/src/core/lv_indev.c ****                                                                           &proc->types.pointer.act_
 3789              		.loc 1 829 49 discriminator 1 view .LVU1215
 3790 0170 434B     		ldr	r3, .L277
 3791 0172 1860     		str	r0, [r3]
 3792 0174 E2E7     		b	.L258
 3793              	.L274:
 831:lvgl/src/core/lv_indev.c ****                                                                           &proc->types.pointer.act_
 3794              		.loc 1 831 35 is_stmt 1 discriminator 1 view .LVU1216
 831:lvgl/src/core/lv_indev.c ****                                                                           &proc->types.pointer.act_
 3795              		.loc 1 831 51 is_stmt 0 discriminator 1 view .LVU1217
 3796 0176 2846     		mov	r0, r5
 3797 0178 FFF7FEFF 		bl	lv_disp_get_scr_act
 3798              	.LVL342:
 3799 017c 3146     		mov	r1, r6
 3800 017e FFF7FEFF 		bl	lv_indev_search_obj
 3801              	.LVL343:
 831:lvgl/src/core/lv_indev.c ****                                                                           &proc->types.pointer.act_
 3802              		.loc 1 831 49 discriminator 1 view .LVU1218
 3803 0182 3F4B     		ldr	r3, .L277
 3804 0184 1860     		str	r0, [r3]
 3805 0186 DCE7     		b	.L259
 3806              	.L269:
 837:lvgl/src/core/lv_indev.c ****         indev_obj_act = lv_indev_search_obj(lv_disp_get_layer_sys(disp), &proc->types.pointer.act_p
 3807              		.loc 1 837 13 discriminator 1 view .LVU1219
 3808 0188 4FF40051 		mov	r1, #8192
 3809 018c FFF7FEFF 		bl	lv_obj_has_flag
 3810              	.LVL344:
 836:lvgl/src/core/lv_indev.c ****             lv_obj_has_flag(indev_obj_act, LV_OBJ_FLAG_PRESS_LOCK) == false) {
 3811              		.loc 1 836 52 discriminator 1 view .LVU1220
 3812 0190 0028     		cmp	r0, #0
 3813 0192 7FF44AAF 		bne	.L260
 838:lvgl/src/core/lv_indev.c ****         if(indev_obj_act == NULL) indev_obj_act = lv_indev_search_obj(lv_disp_get_layer_top(disp),
 3814              		.loc 1 838 9 is_stmt 1 view .LVU1221
 838:lvgl/src/core/lv_indev.c ****         if(indev_obj_act == NULL) indev_obj_act = lv_indev_search_obj(lv_disp_get_layer_top(disp),
 3815              		.loc 1 838 25 is_stmt 0 view .LVU1222
 3816 0196 2846     		mov	r0, r5
 3817 0198 FFF7FEFF 		bl	lv_disp_get_layer_sys
 3818              	.LVL345:
 3819 019c 261D     		adds	r6, r4, #4
 3820 019e 3146     		mov	r1, r6
 3821 01a0 FFF7FEFF 		bl	lv_indev_search_obj
 3822              	.LVL346:
 838:lvgl/src/core/lv_indev.c ****         if(indev_obj_act == NULL) indev_obj_act = lv_indev_search_obj(lv_disp_get_layer_top(disp),
ARM GAS  C:\Users\OSD\AppData\Local\Temp\ccrOx18j.s 			page 110


 3823              		.loc 1 838 23 view .LVU1223
 3824 01a4 364B     		ldr	r3, .L277
 3825 01a6 1860     		str	r0, [r3]
 839:lvgl/src/core/lv_indev.c ****                                                                           &proc->types.pointer.act_
 3826              		.loc 1 839 9 is_stmt 1 view .LVU1224
 839:lvgl/src/core/lv_indev.c ****                                                                           &proc->types.pointer.act_
 3827              		.loc 1 839 11 is_stmt 0 view .LVU1225
 3828 01a8 60B1     		cbz	r0, .L275
 3829              	.L261:
 841:lvgl/src/core/lv_indev.c ****                                                                           &proc->types.pointer.act_
 3830              		.loc 1 841 9 is_stmt 1 view .LVU1226
 841:lvgl/src/core/lv_indev.c ****                                                                           &proc->types.pointer.act_
 3831              		.loc 1 841 26 is_stmt 0 view .LVU1227
 3832 01aa 354B     		ldr	r3, .L277
 3833 01ac 1B68     		ldr	r3, [r3]
 841:lvgl/src/core/lv_indev.c ****                                                                           &proc->types.pointer.act_
 3834              		.loc 1 841 11 view .LVU1228
 3835 01ae 002B     		cmp	r3, #0
 3836 01b0 C7D1     		bne	.L259
 841:lvgl/src/core/lv_indev.c ****                                                                           &proc->types.pointer.act_
 3837              		.loc 1 841 35 is_stmt 1 discriminator 1 view .LVU1229
 841:lvgl/src/core/lv_indev.c ****                                                                           &proc->types.pointer.act_
 3838              		.loc 1 841 51 is_stmt 0 discriminator 1 view .LVU1230
 3839 01b2 2846     		mov	r0, r5
 3840 01b4 FFF7FEFF 		bl	lv_disp_get_scr_act
 3841              	.LVL347:
 3842 01b8 3146     		mov	r1, r6
 3843 01ba FFF7FEFF 		bl	lv_indev_search_obj
 3844              	.LVL348:
 841:lvgl/src/core/lv_indev.c ****                                                                           &proc->types.pointer.act_
 3845              		.loc 1 841 49 discriminator 1 view .LVU1231
 3846 01be 304B     		ldr	r3, .L277
 3847 01c0 1860     		str	r0, [r3]
 3848 01c2 BEE7     		b	.L259
 3849              	.L275:
 839:lvgl/src/core/lv_indev.c ****                                                                           &proc->types.pointer.act_
 3850              		.loc 1 839 35 is_stmt 1 discriminator 1 view .LVU1232
 839:lvgl/src/core/lv_indev.c ****                                                                           &proc->types.pointer.act_
 3851              		.loc 1 839 51 is_stmt 0 discriminator 1 view .LVU1233
 3852 01c4 2846     		mov	r0, r5
 3853 01c6 FFF7FEFF 		bl	lv_disp_get_layer_top
 3854              	.LVL349:
 3855 01ca 3146     		mov	r1, r6
 3856 01cc FFF7FEFF 		bl	lv_indev_search_obj
 3857              	.LVL350:
 839:lvgl/src/core/lv_indev.c ****                                                                           &proc->types.pointer.act_
 3858              		.loc 1 839 49 discriminator 1 view .LVU1234
 3859 01d0 2B4B     		ldr	r3, .L277
 3860 01d2 1860     		str	r0, [r3]
 3861 01d4 E9E7     		b	.L261
 3862              	.LVL351:
 3863              	.L270:
 902:lvgl/src/core/lv_indev.c ****     proc->types.pointer.scroll_throw_vect.y = (proc->types.pointer.scroll_throw_vect.y + proc->type
 3864              		.loc 1 902 118 view .LVU1235
 3865 01d6 0132     		adds	r2, r2, #1
 3866 01d8 89E7     		b	.L264
 3867              	.L271:
ARM GAS  C:\Users\OSD\AppData\Local\Temp\ccrOx18j.s 			page 111


 903:lvgl/src/core/lv_indev.c **** 
 3868              		.loc 1 903 118 view .LVU1236
 3869 01da 0133     		adds	r3, r3, #1
 3870 01dc 8DE7     		b	.L265
 3871              	.L272:
 913:lvgl/src/core/lv_indev.c ****         if(indev_reset_check(proc)) return;
 3872              		.loc 1 913 9 is_stmt 1 view .LVU1237
 3873 01de 2046     		mov	r0, r4
 3874 01e0 FFF7FEFF 		bl	_lv_indev_scroll_handler
 3875              	.LVL352:
 914:lvgl/src/core/lv_indev.c ****         indev_gesture(proc);
 3876              		.loc 1 914 9 view .LVU1238
 914:lvgl/src/core/lv_indev.c ****         indev_gesture(proc);
 3877              		.loc 1 914 12 is_stmt 0 view .LVU1239
 3878 01e4 2046     		mov	r0, r4
 3879 01e6 FFF7FEFF 		bl	indev_reset_check
 3880              	.LVL353:
 914:lvgl/src/core/lv_indev.c ****         indev_gesture(proc);
 3881              		.loc 1 914 11 view .LVU1240
 3882 01ea 0028     		cmp	r0, #0
 3883 01ec 9BD1     		bne	.L255
 915:lvgl/src/core/lv_indev.c ****         if(indev_reset_check(proc)) return;
 3884              		.loc 1 915 9 is_stmt 1 view .LVU1241
 3885 01ee 2046     		mov	r0, r4
 3886 01f0 FFF7FEFF 		bl	indev_gesture
 3887              	.LVL354:
 916:lvgl/src/core/lv_indev.c **** 
 3888              		.loc 1 916 9 view .LVU1242
 916:lvgl/src/core/lv_indev.c **** 
 3889              		.loc 1 916 12 is_stmt 0 view .LVU1243
 3890 01f4 2046     		mov	r0, r4
 3891 01f6 FFF7FEFF 		bl	indev_reset_check
 3892              	.LVL355:
 916:lvgl/src/core/lv_indev.c **** 
 3893              		.loc 1 916 11 view .LVU1244
 3894 01fa 0028     		cmp	r0, #0
 3895 01fc 93D1     		bne	.L255
 919:lvgl/src/core/lv_indev.c ****             /*Call the ancestor's event handler about the long press if enough time elapsed*/
 3896              		.loc 1 919 9 is_stmt 1 view .LVU1245
 919:lvgl/src/core/lv_indev.c ****             /*Call the ancestor's event handler about the long press if enough time elapsed*/
 3897              		.loc 1 919 31 is_stmt 0 view .LVU1246
 3898 01fe E36A     		ldr	r3, [r4, #44]
 919:lvgl/src/core/lv_indev.c ****             /*Call the ancestor's event handler about the long press if enough time elapsed*/
 3899              		.loc 1 919 11 view .LVU1247
 3900 0200 F3B1     		cbz	r3, .L276
 3901              	.L266:
 934:lvgl/src/core/lv_indev.c ****             /*Call the ancestor's event handler about the long press repeat if enough time elapsed*
 3902              		.loc 1 934 9 is_stmt 1 view .LVU1248
 934:lvgl/src/core/lv_indev.c ****             /*Call the ancestor's event handler about the long press repeat if enough time elapsed*
 3903              		.loc 1 934 31 is_stmt 0 view .LVU1249
 3904 0202 E36A     		ldr	r3, [r4, #44]
 934:lvgl/src/core/lv_indev.c ****             /*Call the ancestor's event handler about the long press repeat if enough time elapsed*
 3905              		.loc 1 934 11 view .LVU1250
 3906 0204 002B     		cmp	r3, #0
 3907 0206 8ED1     		bne	.L255
 934:lvgl/src/core/lv_indev.c ****             /*Call the ancestor's event handler about the long press repeat if enough time elapsed*
 3908              		.loc 1 934 73 discriminator 1 view .LVU1251
ARM GAS  C:\Users\OSD\AppData\Local\Temp\ccrOx18j.s 			page 112


 3909 0208 6378     		ldrb	r3, [r4, #1]	@ zero_extendqisi2
 934:lvgl/src/core/lv_indev.c ****             /*Call the ancestor's event handler about the long press repeat if enough time elapsed*
 3910              		.loc 1 934 51 discriminator 1 view .LVU1252
 3911 020a 13F0010F 		tst	r3, #1
 3912 020e 8AD0     		beq	.L255
 936:lvgl/src/core/lv_indev.c ****                 lv_event_send(indev_obj_act, LV_EVENT_LONG_PRESSED_REPEAT, indev_act);
 3913              		.loc 1 936 13 is_stmt 1 view .LVU1253
 936:lvgl/src/core/lv_indev.c ****                 lv_event_send(indev_obj_act, LV_EVENT_LONG_PRESSED_REPEAT, indev_act);
 3914              		.loc 1 936 16 is_stmt 0 view .LVU1254
 3915 0210 A06C     		ldr	r0, [r4, #72]
 3916 0212 FFF7FEFF 		bl	lv_tick_elaps
 3917              	.LVL356:
 936:lvgl/src/core/lv_indev.c ****                 lv_event_send(indev_obj_act, LV_EVENT_LONG_PRESSED_REPEAT, indev_act);
 3918              		.loc 1 936 69 view .LVU1255
 3919 0216 1B4B     		ldr	r3, .L277+4
 3920 0218 1A68     		ldr	r2, [r3]
 3921 021a 1368     		ldr	r3, [r2]
 936:lvgl/src/core/lv_indev.c ****                 lv_event_send(indev_obj_act, LV_EVENT_LONG_PRESSED_REPEAT, indev_act);
 3922              		.loc 1 936 77 view .LVU1256
 3923 021c DB8B     		ldrh	r3, [r3, #30]
 936:lvgl/src/core/lv_indev.c ****                 lv_event_send(indev_obj_act, LV_EVENT_LONG_PRESSED_REPEAT, indev_act);
 3924              		.loc 1 936 15 view .LVU1257
 3925 021e 9842     		cmp	r0, r3
 3926 0220 81D9     		bls	.L255
 937:lvgl/src/core/lv_indev.c ****                 if(indev_reset_check(proc)) return;
 3927              		.loc 1 937 17 is_stmt 1 view .LVU1258
 3928 0222 0621     		movs	r1, #6
 3929 0224 164B     		ldr	r3, .L277
 3930 0226 1868     		ldr	r0, [r3]
 3931 0228 FFF7FEFF 		bl	lv_event_send
 3932              	.LVL357:
 938:lvgl/src/core/lv_indev.c ****                 proc->longpr_rep_timestamp = lv_tick_get();
 3933              		.loc 1 938 17 view .LVU1259
 938:lvgl/src/core/lv_indev.c ****                 proc->longpr_rep_timestamp = lv_tick_get();
 3934              		.loc 1 938 20 is_stmt 0 view .LVU1260
 3935 022c 2046     		mov	r0, r4
 3936 022e FFF7FEFF 		bl	indev_reset_check
 3937              	.LVL358:
 938:lvgl/src/core/lv_indev.c ****                 proc->longpr_rep_timestamp = lv_tick_get();
 3938              		.loc 1 938 19 view .LVU1261
 3939 0232 0028     		cmp	r0, #0
 3940 0234 7FF477AF 		bne	.L255
 939:lvgl/src/core/lv_indev.c ****             }
 3941              		.loc 1 939 17 is_stmt 1 view .LVU1262
 939:lvgl/src/core/lv_indev.c ****             }
 3942              		.loc 1 939 46 is_stmt 0 view .LVU1263
 3943 0238 FFF7FEFF 		bl	lv_tick_get
 3944              	.LVL359:
 939:lvgl/src/core/lv_indev.c ****             }
 3945              		.loc 1 939 44 view .LVU1264
 3946 023c A064     		str	r0, [r4, #72]
 3947 023e 72E7     		b	.L255
 3948              	.L276:
 919:lvgl/src/core/lv_indev.c ****             /*Call the ancestor's event handler about the long press if enough time elapsed*/
 3949              		.loc 1 919 73 discriminator 1 view .LVU1265
 3950 0240 6378     		ldrb	r3, [r4, #1]	@ zero_extendqisi2
 919:lvgl/src/core/lv_indev.c ****             /*Call the ancestor's event handler about the long press if enough time elapsed*/
ARM GAS  C:\Users\OSD\AppData\Local\Temp\ccrOx18j.s 			page 113


 3951              		.loc 1 919 51 discriminator 1 view .LVU1266
 3952 0242 13F0010F 		tst	r3, #1
 3953 0246 DCD1     		bne	.L266
 921:lvgl/src/core/lv_indev.c ****                 lv_event_send(indev_obj_act, LV_EVENT_LONG_PRESSED, indev_act);
 3954              		.loc 1 921 13 is_stmt 1 view .LVU1267
 921:lvgl/src/core/lv_indev.c ****                 lv_event_send(indev_obj_act, LV_EVENT_LONG_PRESSED, indev_act);
 3955              		.loc 1 921 16 is_stmt 0 view .LVU1268
 3956 0248 606C     		ldr	r0, [r4, #68]
 3957 024a FFF7FEFF 		bl	lv_tick_elaps
 3958              	.LVL360:
 921:lvgl/src/core/lv_indev.c ****                 lv_event_send(indev_obj_act, LV_EVENT_LONG_PRESSED, indev_act);
 3959              		.loc 1 921 61 view .LVU1269
 3960 024e 0D4B     		ldr	r3, .L277+4
 3961 0250 1A68     		ldr	r2, [r3]
 3962 0252 1368     		ldr	r3, [r2]
 921:lvgl/src/core/lv_indev.c ****                 lv_event_send(indev_obj_act, LV_EVENT_LONG_PRESSED, indev_act);
 3963              		.loc 1 921 69 view .LVU1270
 3964 0254 9B8B     		ldrh	r3, [r3, #28]
 921:lvgl/src/core/lv_indev.c ****                 lv_event_send(indev_obj_act, LV_EVENT_LONG_PRESSED, indev_act);
 3965              		.loc 1 921 15 view .LVU1271
 3966 0256 9842     		cmp	r0, r3
 3967 0258 D3D9     		bls	.L266
 922:lvgl/src/core/lv_indev.c ****                 if(indev_reset_check(proc)) return;
 3968              		.loc 1 922 17 is_stmt 1 view .LVU1272
 3969 025a 0521     		movs	r1, #5
 3970 025c 084B     		ldr	r3, .L277
 3971 025e 1868     		ldr	r0, [r3]
 3972 0260 FFF7FEFF 		bl	lv_event_send
 3973              	.LVL361:
 923:lvgl/src/core/lv_indev.c **** 
 3974              		.loc 1 923 17 view .LVU1273
 923:lvgl/src/core/lv_indev.c **** 
 3975              		.loc 1 923 20 is_stmt 0 view .LVU1274
 3976 0264 2046     		mov	r0, r4
 3977 0266 FFF7FEFF 		bl	indev_reset_check
 3978              	.LVL362:
 923:lvgl/src/core/lv_indev.c **** 
 3979              		.loc 1 923 19 view .LVU1275
 3980 026a 0028     		cmp	r0, #0
 3981 026c 7FF45BAF 		bne	.L255
 926:lvgl/src/core/lv_indev.c **** 
 3982              		.loc 1 926 17 is_stmt 1 view .LVU1276
 926:lvgl/src/core/lv_indev.c **** 
 3983              		.loc 1 926 36 is_stmt 0 view .LVU1277
 3984 0270 6378     		ldrb	r3, [r4, #1]	@ zero_extendqisi2
 3985 0272 43F00103 		orr	r3, r3, #1
 3986 0276 6370     		strb	r3, [r4, #1]
 929:lvgl/src/core/lv_indev.c ****             }
 3987              		.loc 1 929 17 is_stmt 1 view .LVU1278
 929:lvgl/src/core/lv_indev.c ****             }
 3988              		.loc 1 929 46 is_stmt 0 view .LVU1279
 3989 0278 FFF7FEFF 		bl	lv_tick_get
 3990              	.LVL363:
 929:lvgl/src/core/lv_indev.c ****             }
 3991              		.loc 1 929 44 view .LVU1280
 3992 027c A064     		str	r0, [r4, #72]
 3993 027e C0E7     		b	.L266
ARM GAS  C:\Users\OSD\AppData\Local\Temp\ccrOx18j.s 			page 114


 3994              	.L278:
 3995              		.align	2
 3996              	.L277:
 3997 0280 00000000 		.word	.LANCHOR0
 3998 0284 00000000 		.word	.LANCHOR1
 3999              		.cfi_endproc
 4000              	.LFE190:
 4002              		.section	.text.indev_pointer_proc,"ax",%progbits
 4003              		.align	1
 4004              		.syntax unified
 4005              		.thumb
 4006              		.thumb_func
 4008              	indev_pointer_proc:
 4009              	.LVL364:
 4010              	.LFB186:
 340:lvgl/src/core/lv_indev.c ****     lv_disp_t * disp = i->driver->disp;
 4011              		.loc 1 340 1 is_stmt 1 view -0
 4012              		.cfi_startproc
 4013              		@ args = 0, pretend = 0, frame = 0
 4014              		@ frame_needed = 0, uses_anonymous_args = 0
 340:lvgl/src/core/lv_indev.c ****     lv_disp_t * disp = i->driver->disp;
 4015              		.loc 1 340 1 is_stmt 0 view .LVU1282
 4016 0000 38B5     		push	{r3, r4, r5, lr}
 4017              		.cfi_def_cfa_offset 16
 4018              		.cfi_offset 3, -16
 4019              		.cfi_offset 4, -12
 4020              		.cfi_offset 5, -8
 4021              		.cfi_offset 14, -4
 4022 0002 0446     		mov	r4, r0
 4023 0004 0D46     		mov	r5, r1
 341:lvgl/src/core/lv_indev.c ****     /*Save the raw points so they can be used again in _lv_indev_read*/
 4024              		.loc 1 341 5 is_stmt 1 view .LVU1283
 341:lvgl/src/core/lv_indev.c ****     /*Save the raw points so they can be used again in _lv_indev_read*/
 4025              		.loc 1 341 25 is_stmt 0 view .LVU1284
 4026 0006 0368     		ldr	r3, [r0]
 341:lvgl/src/core/lv_indev.c ****     /*Save the raw points so they can be used again in _lv_indev_read*/
 4027              		.loc 1 341 17 view .LVU1285
 4028 0008 1A69     		ldr	r2, [r3, #16]
 4029              	.LVL365:
 343:lvgl/src/core/lv_indev.c ****     i->proc.types.pointer.last_raw_point.y = data->point.y;
 4030              		.loc 1 343 5 is_stmt 1 view .LVU1286
 343:lvgl/src/core/lv_indev.c ****     i->proc.types.pointer.last_raw_point.y = data->point.y;
 4031              		.loc 1 343 57 is_stmt 0 view .LVU1287
 4032 000a B1F90030 		ldrsh	r3, [r1]
 343:lvgl/src/core/lv_indev.c ****     i->proc.types.pointer.last_raw_point.y = data->point.y;
 4033              		.loc 1 343 44 view .LVU1288
 4034 000e 8382     		strh	r3, [r0, #20]	@ movhi
 344:lvgl/src/core/lv_indev.c **** 
 4035              		.loc 1 344 5 is_stmt 1 view .LVU1289
 344:lvgl/src/core/lv_indev.c **** 
 4036              		.loc 1 344 57 is_stmt 0 view .LVU1290
 4037 0010 B1F90200 		ldrsh	r0, [r1, #2]
 4038              	.LVL366:
 344:lvgl/src/core/lv_indev.c **** 
 4039              		.loc 1 344 44 view .LVU1291
 4040 0014 E082     		strh	r0, [r4, #22]	@ movhi
 346:lvgl/src/core/lv_indev.c ****         data->point.x = disp->driver->hor_res - data->point.x - 1;
ARM GAS  C:\Users\OSD\AppData\Local\Temp\ccrOx18j.s 			page 115


 4041              		.loc 1 346 5 is_stmt 1 view .LVU1292
 346:lvgl/src/core/lv_indev.c ****         data->point.x = disp->driver->hor_res - data->point.x - 1;
 4042              		.loc 1 346 12 is_stmt 0 view .LVU1293
 4043 0016 1168     		ldr	r1, [r2]
 4044              	.LVL367:
 346:lvgl/src/core/lv_indev.c ****         data->point.x = disp->driver->hor_res - data->point.x - 1;
 4045              		.loc 1 346 30 view .LVU1294
 4046 0018 0B7C     		ldrb	r3, [r1, #16]	@ zero_extendqisi2
 346:lvgl/src/core/lv_indev.c ****         data->point.x = disp->driver->hor_res - data->point.x - 1;
 4047              		.loc 1 346 49 view .LVU1295
 4048 001a 03F03003 		and	r3, r3, #48
 346:lvgl/src/core/lv_indev.c ****         data->point.x = disp->driver->hor_res - data->point.x - 1;
 4049              		.loc 1 346 7 view .LVU1296
 4050 001e 302B     		cmp	r3, #48
 4051 0020 18BF     		it	ne
 4052 0022 202B     		cmpne	r3, #32
 4053 0024 0CD1     		bne	.L280
 347:lvgl/src/core/lv_indev.c ****         data->point.y = disp->driver->ver_res - data->point.y - 1;
 4054              		.loc 1 347 9 is_stmt 1 view .LVU1297
 347:lvgl/src/core/lv_indev.c ****         data->point.y = disp->driver->ver_res - data->point.y - 1;
 4055              		.loc 1 347 37 is_stmt 0 view .LVU1298
 4056 0026 0988     		ldrh	r1, [r1]
 347:lvgl/src/core/lv_indev.c ****         data->point.y = disp->driver->ver_res - data->point.y - 1;
 4057              		.loc 1 347 60 view .LVU1299
 4058 0028 2B88     		ldrh	r3, [r5]
 347:lvgl/src/core/lv_indev.c ****         data->point.y = disp->driver->ver_res - data->point.y - 1;
 4059              		.loc 1 347 47 view .LVU1300
 4060 002a C91A     		subs	r1, r1, r3
 4061 002c 89B2     		uxth	r1, r1
 347:lvgl/src/core/lv_indev.c ****         data->point.y = disp->driver->ver_res - data->point.y - 1;
 4062              		.loc 1 347 63 view .LVU1301
 4063 002e 0139     		subs	r1, r1, #1
 347:lvgl/src/core/lv_indev.c ****         data->point.y = disp->driver->ver_res - data->point.y - 1;
 4064              		.loc 1 347 23 view .LVU1302
 4065 0030 2980     		strh	r1, [r5]	@ movhi
 348:lvgl/src/core/lv_indev.c ****     }
 4066              		.loc 1 348 9 is_stmt 1 view .LVU1303
 348:lvgl/src/core/lv_indev.c ****     }
 4067              		.loc 1 348 29 is_stmt 0 view .LVU1304
 4068 0032 1368     		ldr	r3, [r2]
 348:lvgl/src/core/lv_indev.c ****     }
 4069              		.loc 1 348 37 view .LVU1305
 4070 0034 5B88     		ldrh	r3, [r3, #2]
 348:lvgl/src/core/lv_indev.c ****     }
 4071              		.loc 1 348 60 view .LVU1306
 4072 0036 80B2     		uxth	r0, r0
 348:lvgl/src/core/lv_indev.c ****     }
 4073              		.loc 1 348 47 view .LVU1307
 4074 0038 1B1A     		subs	r3, r3, r0
 4075 003a 9BB2     		uxth	r3, r3
 348:lvgl/src/core/lv_indev.c ****     }
 4076              		.loc 1 348 63 view .LVU1308
 4077 003c 013B     		subs	r3, r3, #1
 348:lvgl/src/core/lv_indev.c ****     }
 4078              		.loc 1 348 23 view .LVU1309
 4079 003e 6B80     		strh	r3, [r5, #2]	@ movhi
 4080              	.L280:
ARM GAS  C:\Users\OSD\AppData\Local\Temp\ccrOx18j.s 			page 116


 350:lvgl/src/core/lv_indev.c ****         lv_coord_t tmp = data->point.y;
 4081              		.loc 1 350 5 is_stmt 1 view .LVU1310
 350:lvgl/src/core/lv_indev.c ****         lv_coord_t tmp = data->point.y;
 4082              		.loc 1 350 12 is_stmt 0 view .LVU1311
 4083 0040 1368     		ldr	r3, [r2]
 350:lvgl/src/core/lv_indev.c ****         lv_coord_t tmp = data->point.y;
 4084              		.loc 1 350 30 view .LVU1312
 4085 0042 1B7C     		ldrb	r3, [r3, #16]	@ zero_extendqisi2
 350:lvgl/src/core/lv_indev.c ****         lv_coord_t tmp = data->point.y;
 4086              		.loc 1 350 48 view .LVU1313
 4087 0044 03F03003 		and	r3, r3, #48
 350:lvgl/src/core/lv_indev.c ****         lv_coord_t tmp = data->point.y;
 4088              		.loc 1 350 7 view .LVU1314
 4089 0048 302B     		cmp	r3, #48
 4090 004a 18BF     		it	ne
 4091 004c 102B     		cmpne	r3, #16
 4092 004e 0AD1     		bne	.L281
 4093              	.LBB24:
 351:lvgl/src/core/lv_indev.c ****         data->point.y = data->point.x;
 4094              		.loc 1 351 9 is_stmt 1 view .LVU1315
 351:lvgl/src/core/lv_indev.c ****         data->point.y = data->point.x;
 4095              		.loc 1 351 20 is_stmt 0 view .LVU1316
 4096 0050 B5F90210 		ldrsh	r1, [r5, #2]
 4097              	.LVL368:
 352:lvgl/src/core/lv_indev.c ****         data->point.x = disp->driver->ver_res - tmp - 1;
 4098              		.loc 1 352 9 is_stmt 1 view .LVU1317
 352:lvgl/src/core/lv_indev.c ****         data->point.x = disp->driver->ver_res - tmp - 1;
 4099              		.loc 1 352 36 is_stmt 0 view .LVU1318
 4100 0054 B5F90030 		ldrsh	r3, [r5]
 352:lvgl/src/core/lv_indev.c ****         data->point.x = disp->driver->ver_res - tmp - 1;
 4101              		.loc 1 352 23 view .LVU1319
 4102 0058 6B80     		strh	r3, [r5, #2]	@ movhi
 353:lvgl/src/core/lv_indev.c ****     }
 4103              		.loc 1 353 9 is_stmt 1 view .LVU1320
 353:lvgl/src/core/lv_indev.c ****     }
 4104              		.loc 1 353 29 is_stmt 0 view .LVU1321
 4105 005a 1368     		ldr	r3, [r2]
 353:lvgl/src/core/lv_indev.c ****     }
 4106              		.loc 1 353 37 view .LVU1322
 4107 005c 5B88     		ldrh	r3, [r3, #2]
 353:lvgl/src/core/lv_indev.c ****     }
 4108              		.loc 1 353 47 view .LVU1323
 4109 005e 5B1A     		subs	r3, r3, r1
 4110 0060 9BB2     		uxth	r3, r3
 353:lvgl/src/core/lv_indev.c ****     }
 4111              		.loc 1 353 53 view .LVU1324
 4112 0062 013B     		subs	r3, r3, #1
 353:lvgl/src/core/lv_indev.c ****     }
 4113              		.loc 1 353 23 view .LVU1325
 4114 0064 2B80     		strh	r3, [r5]	@ movhi
 4115              	.LVL369:
 4116              	.L281:
 353:lvgl/src/core/lv_indev.c ****     }
 4117              		.loc 1 353 23 view .LVU1326
 4118              	.LBE24:
 357:lvgl/src/core/lv_indev.c ****         LV_LOG_WARN("X is %d which is smaller than zero", (int)data->point.x);
 4119              		.loc 1 357 5 is_stmt 1 view .LVU1327
ARM GAS  C:\Users\OSD\AppData\Local\Temp\ccrOx18j.s 			page 117


 358:lvgl/src/core/lv_indev.c ****     }
 4120              		.loc 1 358 9 view .LVU1328
 358:lvgl/src/core/lv_indev.c ****     }
 4121              		.loc 1 358 9 view .LVU1329
 358:lvgl/src/core/lv_indev.c ****     }
 4122              		.loc 1 358 9 view .LVU1330
 360:lvgl/src/core/lv_indev.c ****         LV_LOG_WARN("X is %d which is greater than hor. res", (int)data->point.x);
 4123              		.loc 1 360 5 view .LVU1331
 360:lvgl/src/core/lv_indev.c ****         LV_LOG_WARN("X is %d which is greater than hor. res", (int)data->point.x);
 4124              		.loc 1 360 46 is_stmt 0 view .LVU1332
 4125 0066 2368     		ldr	r3, [r4]
 360:lvgl/src/core/lv_indev.c ****         LV_LOG_WARN("X is %d which is greater than hor. res", (int)data->point.x);
 4126              		.loc 1 360 25 view .LVU1333
 4127 0068 1869     		ldr	r0, [r3, #16]
 4128 006a FFF7FEFF 		bl	lv_disp_get_hor_res
 4129              	.LVL370:
 361:lvgl/src/core/lv_indev.c ****     }
 4130              		.loc 1 361 9 is_stmt 1 view .LVU1334
 361:lvgl/src/core/lv_indev.c ****     }
 4131              		.loc 1 361 9 view .LVU1335
 361:lvgl/src/core/lv_indev.c ****     }
 4132              		.loc 1 361 9 view .LVU1336
 363:lvgl/src/core/lv_indev.c ****         LV_LOG_WARN("Y is %d which is smaller than zero", (int)data->point.y);
 4133              		.loc 1 363 5 view .LVU1337
 364:lvgl/src/core/lv_indev.c ****     }
 4134              		.loc 1 364 9 view .LVU1338
 364:lvgl/src/core/lv_indev.c ****     }
 4135              		.loc 1 364 9 view .LVU1339
 364:lvgl/src/core/lv_indev.c ****     }
 4136              		.loc 1 364 9 view .LVU1340
 366:lvgl/src/core/lv_indev.c ****         LV_LOG_WARN("Y is %d which is greater than ver. res", (int)data->point.y);
 4137              		.loc 1 366 5 view .LVU1341
 366:lvgl/src/core/lv_indev.c ****         LV_LOG_WARN("Y is %d which is greater than ver. res", (int)data->point.y);
 4138              		.loc 1 366 46 is_stmt 0 view .LVU1342
 4139 006e 2368     		ldr	r3, [r4]
 366:lvgl/src/core/lv_indev.c ****         LV_LOG_WARN("Y is %d which is greater than ver. res", (int)data->point.y);
 4140              		.loc 1 366 25 view .LVU1343
 4141 0070 1869     		ldr	r0, [r3, #16]
 4142 0072 FFF7FEFF 		bl	lv_disp_get_ver_res
 4143              	.LVL371:
 367:lvgl/src/core/lv_indev.c ****     }
 4144              		.loc 1 367 9 is_stmt 1 view .LVU1344
 367:lvgl/src/core/lv_indev.c ****     }
 4145              		.loc 1 367 9 view .LVU1345
 367:lvgl/src/core/lv_indev.c ****     }
 4146              		.loc 1 367 9 view .LVU1346
 371:lvgl/src/core/lv_indev.c ****        (i->proc.types.pointer.last_point.x != data->point.x || i->proc.types.pointer.last_point.y !
 4147              		.loc 1 371 5 view .LVU1347
 371:lvgl/src/core/lv_indev.c ****        (i->proc.types.pointer.last_point.x != data->point.x || i->proc.types.pointer.last_point.y !
 4148              		.loc 1 371 9 is_stmt 0 view .LVU1348
 4149 0076 206D     		ldr	r0, [r4, #80]
 371:lvgl/src/core/lv_indev.c ****        (i->proc.types.pointer.last_point.x != data->point.x || i->proc.types.pointer.last_point.y !
 4150              		.loc 1 371 7 view .LVU1349
 4151 0078 18B1     		cbz	r0, .L282
 372:lvgl/src/core/lv_indev.c ****         lv_obj_set_pos(i->cursor, data->point.x, data->point.y);
 4152              		.loc 1 372 61 discriminator 1 view .LVU1350
 4153 007a 2269     		ldr	r2, [r4, #16]
ARM GAS  C:\Users\OSD\AppData\Local\Temp\ccrOx18j.s 			page 118


 4154 007c 2B68     		ldr	r3, [r5]
 371:lvgl/src/core/lv_indev.c ****        (i->proc.types.pointer.last_point.x != data->point.x || i->proc.types.pointer.last_point.y !
 4155              		.loc 1 371 26 discriminator 1 view .LVU1351
 4156 007e 9A42     		cmp	r2, r3
 4157 0080 12D1     		bne	.L286
 4158              	.L282:
 376:lvgl/src/core/lv_indev.c ****     i->proc.types.pointer.act_point.y = data->point.y;
 4159              		.loc 1 376 5 is_stmt 1 view .LVU1352
 376:lvgl/src/core/lv_indev.c ****     i->proc.types.pointer.act_point.y = data->point.y;
 4160              		.loc 1 376 52 is_stmt 0 view .LVU1353
 4161 0082 B5F90030 		ldrsh	r3, [r5]
 376:lvgl/src/core/lv_indev.c ****     i->proc.types.pointer.act_point.y = data->point.y;
 4162              		.loc 1 376 39 view .LVU1354
 4163 0086 2381     		strh	r3, [r4, #8]	@ movhi
 377:lvgl/src/core/lv_indev.c **** 
 4164              		.loc 1 377 5 is_stmt 1 view .LVU1355
 377:lvgl/src/core/lv_indev.c **** 
 4165              		.loc 1 377 52 is_stmt 0 view .LVU1356
 4166 0088 B5F90230 		ldrsh	r3, [r5, #2]
 377:lvgl/src/core/lv_indev.c **** 
 4167              		.loc 1 377 39 view .LVU1357
 4168 008c 6381     		strh	r3, [r4, #10]	@ movhi
 379:lvgl/src/core/lv_indev.c ****         indev_proc_press(&i->proc);
 4169              		.loc 1 379 5 is_stmt 1 view .LVU1358
 379:lvgl/src/core/lv_indev.c ****         indev_proc_press(&i->proc);
 4170              		.loc 1 379 15 is_stmt 0 view .LVU1359
 4171 008e 2379     		ldrb	r3, [r4, #4]	@ zero_extendqisi2
 379:lvgl/src/core/lv_indev.c ****         indev_proc_press(&i->proc);
 4172              		.loc 1 379 7 view .LVU1360
 4173 0090 012B     		cmp	r3, #1
 4174 0092 10D0     		beq	.L287
 383:lvgl/src/core/lv_indev.c ****     }
 4175              		.loc 1 383 9 is_stmt 1 view .LVU1361
 4176 0094 201D     		adds	r0, r4, #4
 4177 0096 FFF7FEFF 		bl	indev_proc_release
 4178              	.LVL372:
 4179              	.L284:
 386:lvgl/src/core/lv_indev.c ****     i->proc.types.pointer.last_point.y = i->proc.types.pointer.act_point.y;
 4180              		.loc 1 386 5 view .LVU1362
 386:lvgl/src/core/lv_indev.c ****     i->proc.types.pointer.last_point.y = i->proc.types.pointer.act_point.y;
 4181              		.loc 1 386 73 is_stmt 0 view .LVU1363
 4182 009a B4F90830 		ldrsh	r3, [r4, #8]
 386:lvgl/src/core/lv_indev.c ****     i->proc.types.pointer.last_point.y = i->proc.types.pointer.act_point.y;
 4183              		.loc 1 386 40 view .LVU1364
 4184 009e 2382     		strh	r3, [r4, #16]	@ movhi
 387:lvgl/src/core/lv_indev.c **** }
 4185              		.loc 1 387 5 is_stmt 1 view .LVU1365
 387:lvgl/src/core/lv_indev.c **** }
 4186              		.loc 1 387 73 is_stmt 0 view .LVU1366
 4187 00a0 B4F90A30 		ldrsh	r3, [r4, #10]
 387:lvgl/src/core/lv_indev.c **** }
 4188              		.loc 1 387 40 view .LVU1367
 4189 00a4 6382     		strh	r3, [r4, #18]	@ movhi
 388:lvgl/src/core/lv_indev.c **** 
 4190              		.loc 1 388 1 view .LVU1368
 4191 00a6 38BD     		pop	{r3, r4, r5, pc}
 4192              	.LVL373:
ARM GAS  C:\Users\OSD\AppData\Local\Temp\ccrOx18j.s 			page 119


 4193              	.L286:
 373:lvgl/src/core/lv_indev.c ****     }
 4194              		.loc 1 373 9 is_stmt 1 view .LVU1369
 4195 00a8 B5F90220 		ldrsh	r2, [r5, #2]
 4196 00ac B5F90010 		ldrsh	r1, [r5]
 4197 00b0 FFF7FEFF 		bl	lv_obj_set_pos
 4198              	.LVL374:
 4199 00b4 E5E7     		b	.L282
 4200              	.L287:
 380:lvgl/src/core/lv_indev.c ****     }
 4201              		.loc 1 380 9 view .LVU1370
 4202 00b6 201D     		adds	r0, r4, #4
 4203 00b8 FFF7FEFF 		bl	indev_proc_press
 4204              	.LVL375:
 4205 00bc EDE7     		b	.L284
 4206              		.cfi_endproc
 4207              	.LFE186:
 4209              		.section	.text.indev_button_proc,"ax",%progbits
 4210              		.align	1
 4211              		.syntax unified
 4212              		.thumb
 4213              		.thumb_func
 4215              	indev_button_proc:
 4216              	.LVL376:
 4217              	.LFB189:
 768:lvgl/src/core/lv_indev.c ****     /*Die gracefully if i->btn_points is NULL*/
 4218              		.loc 1 768 1 view -0
 4219              		.cfi_startproc
 4220              		@ args = 0, pretend = 0, frame = 0
 4221              		@ frame_needed = 0, uses_anonymous_args = 0
 770:lvgl/src/core/lv_indev.c ****         LV_LOG_WARN("btn_points is NULL");
 4222              		.loc 1 770 5 view .LVU1372
 770:lvgl/src/core/lv_indev.c ****         LV_LOG_WARN("btn_points is NULL");
 4223              		.loc 1 770 9 is_stmt 0 view .LVU1373
 4224 0000 836D     		ldr	r3, [r0, #88]
 770:lvgl/src/core/lv_indev.c ****         LV_LOG_WARN("btn_points is NULL");
 4225              		.loc 1 770 7 view .LVU1374
 4226 0002 BBB3     		cbz	r3, .L295
 768:lvgl/src/core/lv_indev.c ****     /*Die gracefully if i->btn_points is NULL*/
 4227              		.loc 1 768 1 view .LVU1375
 4228 0004 2DE9F041 		push	{r4, r5, r6, r7, r8, lr}
 4229              		.cfi_def_cfa_offset 24
 4230              		.cfi_offset 4, -24
 4231              		.cfi_offset 5, -20
 4232              		.cfi_offset 6, -16
 4233              		.cfi_offset 7, -12
 4234              		.cfi_offset 8, -8
 4235              		.cfi_offset 14, -4
 4236 0008 0446     		mov	r4, r0
 4237 000a 0D46     		mov	r5, r1
 775:lvgl/src/core/lv_indev.c ****     lv_coord_t y = i->btn_points[data->btn_id].y;
 4238              		.loc 1 775 5 is_stmt 1 view .LVU1376
 775:lvgl/src/core/lv_indev.c ****     lv_coord_t y = i->btn_points[data->btn_id].y;
 4239              		.loc 1 775 38 is_stmt 0 view .LVU1377
 4240 000c 8A68     		ldr	r2, [r1, #8]
 775:lvgl/src/core/lv_indev.c ****     lv_coord_t y = i->btn_points[data->btn_id].y;
 4241              		.loc 1 775 33 view .LVU1378
ARM GAS  C:\Users\OSD\AppData\Local\Temp\ccrOx18j.s 			page 120


 4242 000e 03EB8201 		add	r1, r3, r2, lsl #2
 4243              	.LVL377:
 775:lvgl/src/core/lv_indev.c ****     lv_coord_t y = i->btn_points[data->btn_id].y;
 4244              		.loc 1 775 16 view .LVU1379
 4245 0012 33F92270 		ldrsh	r7, [r3, r2, lsl #2]
 4246              	.LVL378:
 776:lvgl/src/core/lv_indev.c **** 
 4247              		.loc 1 776 5 is_stmt 1 view .LVU1380
 776:lvgl/src/core/lv_indev.c **** 
 4248              		.loc 1 776 16 is_stmt 0 view .LVU1381
 4249 0016 B1F90280 		ldrsh	r8, [r1, #2]
 4250              	.LVL379:
 778:lvgl/src/core/lv_indev.c ****     if(prev_state != data->state) {
 4251              		.loc 1 778 5 is_stmt 1 view .LVU1382
 779:lvgl/src/core/lv_indev.c ****         if(data->state == LV_INDEV_STATE_PRESSED) {
 4252              		.loc 1 779 5 view .LVU1383
 779:lvgl/src/core/lv_indev.c ****         if(data->state == LV_INDEV_STATE_PRESSED) {
 4253              		.loc 1 779 26 is_stmt 0 view .LVU1384
 4254 001a AB7B     		ldrb	r3, [r5, #14]	@ zero_extendqisi2
 784:lvgl/src/core/lv_indev.c ****         }
 4255              		.loc 1 784 13 is_stmt 1 view .LVU1385
 784:lvgl/src/core/lv_indev.c ****         }
 4256              		.loc 1 784 13 view .LVU1386
 784:lvgl/src/core/lv_indev.c ****         }
 4257              		.loc 1 784 13 view .LVU1387
 789:lvgl/src/core/lv_indev.c ****         if(i->proc.types.pointer.last_point.x != x ||
 4258              		.loc 1 789 5 view .LVU1388
 789:lvgl/src/core/lv_indev.c ****         if(i->proc.types.pointer.last_point.x != x ||
 4259              		.loc 1 789 7 is_stmt 0 view .LVU1389
 4260 001c 012B     		cmp	r3, #1
 4261 001e 19D0     		beq	.L298
 4262              	.LVL380:
 4263              	.L290:
 796:lvgl/src/core/lv_indev.c **** 
 4264              		.loc 1 796 5 is_stmt 1 view .LVU1390
 796:lvgl/src/core/lv_indev.c **** 
 4265              		.loc 1 796 8 is_stmt 0 view .LVU1391
 4266 0020 261D     		adds	r6, r4, #4
 4267 0022 3046     		mov	r0, r6
 4268 0024 FFF7FEFF 		bl	indev_reset_check
 4269              	.LVL381:
 796:lvgl/src/core/lv_indev.c **** 
 4270              		.loc 1 796 7 view .LVU1392
 4271 0028 90B9     		cbnz	r0, .L288
 799:lvgl/src/core/lv_indev.c ****     i->proc.types.pointer.act_point.y = y;
 4272              		.loc 1 799 5 is_stmt 1 view .LVU1393
 799:lvgl/src/core/lv_indev.c ****     i->proc.types.pointer.act_point.y = y;
 4273              		.loc 1 799 39 is_stmt 0 view .LVU1394
 4274 002a 2781     		strh	r7, [r4, #8]	@ movhi
 800:lvgl/src/core/lv_indev.c **** 
 4275              		.loc 1 800 5 is_stmt 1 view .LVU1395
 800:lvgl/src/core/lv_indev.c **** 
 4276              		.loc 1 800 39 is_stmt 0 view .LVU1396
 4277 002c A4F80A80 		strh	r8, [r4, #10]	@ movhi
 802:lvgl/src/core/lv_indev.c ****     else indev_proc_release(&i->proc);
 4278              		.loc 1 802 5 is_stmt 1 view .LVU1397
 802:lvgl/src/core/lv_indev.c ****     else indev_proc_release(&i->proc);
ARM GAS  C:\Users\OSD\AppData\Local\Temp\ccrOx18j.s 			page 121


 4279              		.loc 1 802 12 is_stmt 0 view .LVU1398
 4280 0030 AB7B     		ldrb	r3, [r5, #14]	@ zero_extendqisi2
 802:lvgl/src/core/lv_indev.c ****     else indev_proc_release(&i->proc);
 4281              		.loc 1 802 7 view .LVU1399
 4282 0032 012B     		cmp	r3, #1
 4283 0034 1AD0     		beq	.L299
 803:lvgl/src/core/lv_indev.c **** 
 4284              		.loc 1 803 10 is_stmt 1 view .LVU1400
 4285 0036 3046     		mov	r0, r6
 4286 0038 FFF7FEFF 		bl	indev_proc_release
 4287              	.LVL382:
 4288              	.L293:
 805:lvgl/src/core/lv_indev.c **** 
 4289              		.loc 1 805 5 view .LVU1401
 805:lvgl/src/core/lv_indev.c **** 
 4290              		.loc 1 805 8 is_stmt 0 view .LVU1402
 4291 003c 3046     		mov	r0, r6
 4292 003e FFF7FEFF 		bl	indev_reset_check
 4293              	.LVL383:
 805:lvgl/src/core/lv_indev.c **** 
 4294              		.loc 1 805 7 view .LVU1403
 4295 0042 28B9     		cbnz	r0, .L288
 807:lvgl/src/core/lv_indev.c ****     i->proc.types.pointer.last_point.y = i->proc.types.pointer.act_point.y;
 4296              		.loc 1 807 5 is_stmt 1 view .LVU1404
 807:lvgl/src/core/lv_indev.c ****     i->proc.types.pointer.last_point.y = i->proc.types.pointer.act_point.y;
 4297              		.loc 1 807 73 is_stmt 0 view .LVU1405
 4298 0044 B4F90830 		ldrsh	r3, [r4, #8]
 807:lvgl/src/core/lv_indev.c ****     i->proc.types.pointer.last_point.y = i->proc.types.pointer.act_point.y;
 4299              		.loc 1 807 40 view .LVU1406
 4300 0048 2382     		strh	r3, [r4, #16]	@ movhi
 808:lvgl/src/core/lv_indev.c **** }
 4301              		.loc 1 808 5 is_stmt 1 view .LVU1407
 808:lvgl/src/core/lv_indev.c **** }
 4302              		.loc 1 808 73 is_stmt 0 view .LVU1408
 4303 004a B4F90A30 		ldrsh	r3, [r4, #10]
 808:lvgl/src/core/lv_indev.c **** }
 4304              		.loc 1 808 40 view .LVU1409
 4305 004e 6382     		strh	r3, [r4, #18]	@ movhi
 4306              	.L288:
 809:lvgl/src/core/lv_indev.c **** 
 4307              		.loc 1 809 1 view .LVU1410
 4308 0050 BDE8F081 		pop	{r4, r5, r6, r7, r8, pc}
 4309              	.LVL384:
 4310              	.L298:
 790:lvgl/src/core/lv_indev.c ****            i->proc.types.pointer.last_point.y != y) {
 4311              		.loc 1 790 9 is_stmt 1 view .LVU1411
 790:lvgl/src/core/lv_indev.c ****            i->proc.types.pointer.last_point.y != y) {
 4312              		.loc 1 790 44 is_stmt 0 view .LVU1412
 4313 0054 B0F91030 		ldrsh	r3, [r0, #16]
 790:lvgl/src/core/lv_indev.c ****            i->proc.types.pointer.last_point.y != y) {
 4314              		.loc 1 790 11 view .LVU1413
 4315 0058 BB42     		cmp	r3, r7
 4316 005a 03D1     		bne	.L291
 791:lvgl/src/core/lv_indev.c ****             indev_proc_release(&i->proc);
 4317              		.loc 1 791 44 discriminator 1 view .LVU1414
 4318 005c B0F91230 		ldrsh	r3, [r0, #18]
 790:lvgl/src/core/lv_indev.c ****            i->proc.types.pointer.last_point.y != y) {
ARM GAS  C:\Users\OSD\AppData\Local\Temp\ccrOx18j.s 			page 122


 4319              		.loc 1 790 52 discriminator 1 view .LVU1415
 4320 0060 4345     		cmp	r3, r8
 4321 0062 DDD0     		beq	.L290
 4322              	.L291:
 792:lvgl/src/core/lv_indev.c ****         }
 4323              		.loc 1 792 13 is_stmt 1 view .LVU1416
 4324 0064 201D     		adds	r0, r4, #4
 4325              	.LVL385:
 792:lvgl/src/core/lv_indev.c ****         }
 4326              		.loc 1 792 13 is_stmt 0 view .LVU1417
 4327 0066 FFF7FEFF 		bl	indev_proc_release
 4328              	.LVL386:
 4329 006a D9E7     		b	.L290
 4330              	.L299:
 802:lvgl/src/core/lv_indev.c ****     else indev_proc_release(&i->proc);
 4331              		.loc 1 802 47 is_stmt 1 discriminator 1 view .LVU1418
 4332 006c 3046     		mov	r0, r6
 4333 006e FFF7FEFF 		bl	indev_proc_press
 4334              	.LVL387:
 4335 0072 E3E7     		b	.L293
 4336              	.LVL388:
 4337              	.L295:
 4338              		.cfi_def_cfa_offset 0
 4339              		.cfi_restore 4
 4340              		.cfi_restore 5
 4341              		.cfi_restore 6
 4342              		.cfi_restore 7
 4343              		.cfi_restore 8
 4344              		.cfi_restore 14
 802:lvgl/src/core/lv_indev.c ****     else indev_proc_release(&i->proc);
 4345              		.loc 1 802 47 is_stmt 0 discriminator 1 view .LVU1419
 4346 0074 7047     		bx	lr
 4347              		.cfi_endproc
 4348              	.LFE189:
 4350              		.section	.text.lv_indev_read_timer_cb,"ax",%progbits
 4351              		.align	1
 4352              		.global	lv_indev_read_timer_cb
 4353              		.syntax unified
 4354              		.thumb
 4355              		.thumb_func
 4357              	lv_indev_read_timer_cb:
 4358              	.LVL389:
 4359              	.LFB167:
  65:lvgl/src/core/lv_indev.c ****     INDEV_TRACE("begin");
 4360              		.loc 1 65 1 is_stmt 1 view -0
 4361              		.cfi_startproc
 4362              		@ args = 0, pretend = 0, frame = 16
 4363              		@ frame_needed = 0, uses_anonymous_args = 0
  66:lvgl/src/core/lv_indev.c **** 
 4364              		.loc 1 66 25 view .LVU1421
  68:lvgl/src/core/lv_indev.c **** 
 4365              		.loc 1 68 5 view .LVU1422
  70:lvgl/src/core/lv_indev.c **** 
 4366              		.loc 1 70 5 view .LVU1423
  70:lvgl/src/core/lv_indev.c **** 
 4367              		.loc 1 70 22 is_stmt 0 view .LVU1424
 4368 0000 C068     		ldr	r0, [r0, #12]
ARM GAS  C:\Users\OSD\AppData\Local\Temp\ccrOx18j.s 			page 123


 4369              	.LVL390:
  70:lvgl/src/core/lv_indev.c **** 
 4370              		.loc 1 70 15 view .LVU1425
 4371 0002 324B     		ldr	r3, .L320
 4372 0004 1860     		str	r0, [r3]
  73:lvgl/src/core/lv_indev.c **** 
 4373              		.loc 1 73 5 is_stmt 1 view .LVU1426
  73:lvgl/src/core/lv_indev.c **** 
 4374              		.loc 1 73 17 is_stmt 0 view .LVU1427
 4375 0006 0368     		ldr	r3, [r0]
  73:lvgl/src/core/lv_indev.c **** 
 4376              		.loc 1 73 25 view .LVU1428
 4377 0008 1B69     		ldr	r3, [r3, #16]
  73:lvgl/src/core/lv_indev.c **** 
 4378              		.loc 1 73 7 view .LVU1429
 4379 000a 002B     		cmp	r3, #0
 4380 000c 5CD0     		beq	.L311
  65:lvgl/src/core/lv_indev.c ****     INDEV_TRACE("begin");
 4381              		.loc 1 65 1 view .LVU1430
 4382 000e 30B5     		push	{r4, r5, lr}
 4383              		.cfi_def_cfa_offset 12
 4384              		.cfi_offset 4, -12
 4385              		.cfi_offset 5, -8
 4386              		.cfi_offset 14, -4
 4387 0010 85B0     		sub	sp, sp, #20
 4388              		.cfi_def_cfa_offset 32
  76:lvgl/src/core/lv_indev.c **** 
 4389              		.loc 1 76 5 is_stmt 1 view .LVU1431
 4390 0012 FFF7FEFF 		bl	indev_proc_reset_query_handler
 4391              	.LVL391:
  78:lvgl/src/core/lv_indev.c ****        indev_act->driver->disp->prev_scr != NULL) return; /*Input disabled or screen animation acti
 4392              		.loc 1 78 5 view .LVU1432
  78:lvgl/src/core/lv_indev.c ****        indev_act->driver->disp->prev_scr != NULL) return; /*Input disabled or screen animation acti
 4393              		.loc 1 78 17 is_stmt 0 view .LVU1433
 4394 0016 2D4B     		ldr	r3, .L320
 4395 0018 1B68     		ldr	r3, [r3]
  78:lvgl/src/core/lv_indev.c ****        indev_act->driver->disp->prev_scr != NULL) return; /*Input disabled or screen animation acti
 4396              		.loc 1 78 8 view .LVU1434
 4397 001a 5A79     		ldrb	r2, [r3, #5]	@ zero_extendqisi2
  78:lvgl/src/core/lv_indev.c ****        indev_act->driver->disp->prev_scr != NULL) return; /*Input disabled or screen animation acti
 4398              		.loc 1 78 7 view .LVU1435
 4399 001c 12F0040F 		tst	r2, #4
 4400 0020 03D1     		bne	.L300
  79:lvgl/src/core/lv_indev.c ****     bool continue_reading;
 4401              		.loc 1 79 17 discriminator 1 view .LVU1436
 4402 0022 1B68     		ldr	r3, [r3]
  79:lvgl/src/core/lv_indev.c ****     bool continue_reading;
 4403              		.loc 1 79 25 discriminator 1 view .LVU1437
 4404 0024 1B69     		ldr	r3, [r3, #16]
  79:lvgl/src/core/lv_indev.c ****     bool continue_reading;
 4405              		.loc 1 79 31 discriminator 1 view .LVU1438
 4406 0026 5B69     		ldr	r3, [r3, #20]
  78:lvgl/src/core/lv_indev.c ****        indev_act->driver->disp->prev_scr != NULL) return; /*Input disabled or screen animation acti
 4407              		.loc 1 78 33 discriminator 1 view .LVU1439
 4408 0028 CBB1     		cbz	r3, .L308
 4409              	.L300:
 121:lvgl/src/core/lv_indev.c **** 
ARM GAS  C:\Users\OSD\AppData\Local\Temp\ccrOx18j.s 			page 124


 4410              		.loc 1 121 1 view .LVU1440
 4411 002a 05B0     		add	sp, sp, #20
 4412              		.cfi_remember_state
 4413              		.cfi_def_cfa_offset 12
 4414              		@ sp needed
 4415 002c 30BD     		pop	{r4, r5, pc}
 4416              	.LVL392:
 4417              	.L315:
 4418              		.cfi_restore_state
  94:lvgl/src/core/lv_indev.c ****         }
 4419              		.loc 1 94 13 is_stmt 1 view .LVU1441
  94:lvgl/src/core/lv_indev.c ****         }
 4420              		.loc 1 94 22 is_stmt 0 view .LVU1442
 4421 002e 1368     		ldr	r3, [r2]
  94:lvgl/src/core/lv_indev.c ****         }
 4422              		.loc 1 94 30 view .LVU1443
 4423 0030 1C69     		ldr	r4, [r3, #16]
  94:lvgl/src/core/lv_indev.c ****         }
 4424              		.loc 1 94 59 view .LVU1444
 4425 0032 FFF7FEFF 		bl	lv_tick_get
 4426              	.LVL393:
  94:lvgl/src/core/lv_indev.c ****         }
 4427              		.loc 1 94 57 view .LVU1445
 4428 0036 C4F86801 		str	r0, [r4, #360]
 4429 003a 27E0     		b	.L303
 4430              	.L316:
  96:lvgl/src/core/lv_indev.c ****             indev_act->driver->disp->last_activity_time = lv_tick_get();
 4431              		.loc 1 96 73 discriminator 1 view .LVU1446
 4432 003c BDF90C20 		ldrsh	r2, [sp, #12]
  96:lvgl/src/core/lv_indev.c ****             indev_act->driver->disp->last_activity_time = lv_tick_get();
 4433              		.loc 1 96 66 discriminator 1 view .LVU1447
 4434 0040 22B3     		cbz	r2, .L303
  97:lvgl/src/core/lv_indev.c ****         }
 4435              		.loc 1 97 13 is_stmt 1 view .LVU1448
  97:lvgl/src/core/lv_indev.c ****         }
 4436              		.loc 1 97 30 is_stmt 0 view .LVU1449
 4437 0042 1C69     		ldr	r4, [r3, #16]
  97:lvgl/src/core/lv_indev.c ****         }
 4438              		.loc 1 97 59 view .LVU1450
 4439 0044 FFF7FEFF 		bl	lv_tick_get
 4440              	.LVL394:
  97:lvgl/src/core/lv_indev.c ****         }
 4441              		.loc 1 97 57 view .LVU1451
 4442 0048 C4F86801 		str	r0, [r4, #360]
 4443 004c 1EE0     		b	.L303
 4444              	.L317:
 101:lvgl/src/core/lv_indev.c ****         }
 4445              		.loc 1 101 13 is_stmt 1 view .LVU1452
 4446 004e 6946     		mov	r1, sp
 4447 0050 FFF7FEFF 		bl	indev_pointer_proc
 4448              	.LVL395:
 4449              	.L305:
 113:lvgl/src/core/lv_indev.c ****     } while(continue_reading);
 4450              		.loc 1 113 9 view .LVU1453
 4451 0054 1D4B     		ldr	r3, .L320
 4452 0056 1868     		ldr	r0, [r3]
 4453 0058 FFF7FEFF 		bl	indev_proc_reset_query_handler
ARM GAS  C:\Users\OSD\AppData\Local\Temp\ccrOx18j.s 			page 125


 4454              	.LVL396:
 114:lvgl/src/core/lv_indev.c **** 
 4455              		.loc 1 114 12 view .LVU1454
 114:lvgl/src/core/lv_indev.c **** 
 4456              		.loc 1 114 5 is_stmt 0 view .LVU1455
 4457 005c 75B3     		cbz	r5, .L314
 4458              	.LVL397:
 4459              	.L308:
  80:lvgl/src/core/lv_indev.c ****     do {
 4460              		.loc 1 80 5 is_stmt 1 view .LVU1456
  81:lvgl/src/core/lv_indev.c ****         /*Read the data*/
 4461              		.loc 1 81 5 view .LVU1457
  83:lvgl/src/core/lv_indev.c ****         continue_reading = data.continue_reading;
 4462              		.loc 1 83 9 view .LVU1458
 4463 005e 1B4C     		ldr	r4, .L320
 4464 0060 6946     		mov	r1, sp
 4465 0062 2068     		ldr	r0, [r4]
 4466 0064 FFF7FEFF 		bl	_lv_indev_read
 4467              	.LVL398:
  84:lvgl/src/core/lv_indev.c **** 
 4468              		.loc 1 84 9 view .LVU1459
  84:lvgl/src/core/lv_indev.c **** 
 4469              		.loc 1 84 26 is_stmt 0 view .LVU1460
 4470 0068 9DF80F50 		ldrb	r5, [sp, #15]	@ zero_extendqisi2
 4471              	.LVL399:
  87:lvgl/src/core/lv_indev.c ****         indev_obj_act = NULL;
 4472              		.loc 1 87 9 is_stmt 1 view .LVU1461
 4473 006c 2068     		ldr	r0, [r4]
 4474 006e FFF7FEFF 		bl	indev_proc_reset_query_handler
 4475              	.LVL400:
  88:lvgl/src/core/lv_indev.c **** 
 4476              		.loc 1 88 9 view .LVU1462
  88:lvgl/src/core/lv_indev.c **** 
 4477              		.loc 1 88 23 is_stmt 0 view .LVU1463
 4478 0072 174B     		ldr	r3, .L320+4
 4479 0074 0022     		movs	r2, #0
 4480 0076 1A60     		str	r2, [r3]
  90:lvgl/src/core/lv_indev.c **** 
 4481              		.loc 1 90 9 is_stmt 1 view .LVU1464
  90:lvgl/src/core/lv_indev.c **** 
 4482              		.loc 1 90 18 is_stmt 0 view .LVU1465
 4483 0078 2268     		ldr	r2, [r4]
  90:lvgl/src/core/lv_indev.c **** 
 4484              		.loc 1 90 37 view .LVU1466
 4485 007a 9DF80E30 		ldrb	r3, [sp, #14]	@ zero_extendqisi2
  90:lvgl/src/core/lv_indev.c **** 
 4486              		.loc 1 90 31 view .LVU1467
 4487 007e 1371     		strb	r3, [r2, #4]
  93:lvgl/src/core/lv_indev.c ****             indev_act->driver->disp->last_activity_time = lv_tick_get();
 4488              		.loc 1 93 9 is_stmt 1 view .LVU1468
  93:lvgl/src/core/lv_indev.c ****             indev_act->driver->disp->last_activity_time = lv_tick_get();
 4489              		.loc 1 93 11 is_stmt 0 view .LVU1469
 4490 0080 012B     		cmp	r3, #1
 4491 0082 D4D0     		beq	.L315
  96:lvgl/src/core/lv_indev.c ****             indev_act->driver->disp->last_activity_time = lv_tick_get();
 4492              		.loc 1 96 14 is_stmt 1 view .LVU1470
  96:lvgl/src/core/lv_indev.c ****             indev_act->driver->disp->last_activity_time = lv_tick_get();
ARM GAS  C:\Users\OSD\AppData\Local\Temp\ccrOx18j.s 			page 126


 4493              		.loc 1 96 26 is_stmt 0 view .LVU1471
 4494 0084 1368     		ldr	r3, [r2]
  96:lvgl/src/core/lv_indev.c ****             indev_act->driver->disp->last_activity_time = lv_tick_get();
 4495              		.loc 1 96 34 view .LVU1472
 4496 0086 1A78     		ldrb	r2, [r3]	@ zero_extendqisi2
  96:lvgl/src/core/lv_indev.c ****             indev_act->driver->disp->last_activity_time = lv_tick_get();
 4497              		.loc 1 96 16 view .LVU1473
 4498 0088 042A     		cmp	r2, #4
 4499 008a D7D0     		beq	.L316
 4500              	.L303:
 100:lvgl/src/core/lv_indev.c ****             indev_pointer_proc(indev_act, &data);
 4501              		.loc 1 100 9 is_stmt 1 view .LVU1474
 100:lvgl/src/core/lv_indev.c ****             indev_pointer_proc(indev_act, &data);
 4502              		.loc 1 100 21 is_stmt 0 view .LVU1475
 4503 008c 0F4B     		ldr	r3, .L320
 4504 008e 1868     		ldr	r0, [r3]
 4505 0090 0368     		ldr	r3, [r0]
 100:lvgl/src/core/lv_indev.c ****             indev_pointer_proc(indev_act, &data);
 4506              		.loc 1 100 29 view .LVU1476
 4507 0092 1B78     		ldrb	r3, [r3]	@ zero_extendqisi2
 100:lvgl/src/core/lv_indev.c ****             indev_pointer_proc(indev_act, &data);
 4508              		.loc 1 100 11 view .LVU1477
 4509 0094 012B     		cmp	r3, #1
 4510 0096 DAD0     		beq	.L317
 103:lvgl/src/core/lv_indev.c ****             indev_keypad_proc(indev_act, &data);
 4511              		.loc 1 103 14 is_stmt 1 view .LVU1478
 103:lvgl/src/core/lv_indev.c ****             indev_keypad_proc(indev_act, &data);
 4512              		.loc 1 103 16 is_stmt 0 view .LVU1479
 4513 0098 022B     		cmp	r3, #2
 4514 009a 07D0     		beq	.L318
 106:lvgl/src/core/lv_indev.c ****             indev_encoder_proc(indev_act, &data);
 4515              		.loc 1 106 14 is_stmt 1 view .LVU1480
 106:lvgl/src/core/lv_indev.c ****             indev_encoder_proc(indev_act, &data);
 4516              		.loc 1 106 16 is_stmt 0 view .LVU1481
 4517 009c 042B     		cmp	r3, #4
 4518 009e 09D0     		beq	.L319
 109:lvgl/src/core/lv_indev.c ****             indev_button_proc(indev_act, &data);
 4519              		.loc 1 109 14 is_stmt 1 view .LVU1482
 109:lvgl/src/core/lv_indev.c ****             indev_button_proc(indev_act, &data);
 4520              		.loc 1 109 16 is_stmt 0 view .LVU1483
 4521 00a0 032B     		cmp	r3, #3
 4522 00a2 D7D1     		bne	.L305
 110:lvgl/src/core/lv_indev.c ****         }
 4523              		.loc 1 110 13 is_stmt 1 view .LVU1484
 4524 00a4 6946     		mov	r1, sp
 4525 00a6 FFF7FEFF 		bl	indev_button_proc
 4526              	.LVL401:
 4527 00aa D3E7     		b	.L305
 4528              	.L318:
 104:lvgl/src/core/lv_indev.c ****         }
 4529              		.loc 1 104 13 view .LVU1485
 4530 00ac 6946     		mov	r1, sp
 4531 00ae FFF7FEFF 		bl	indev_keypad_proc
 4532              	.LVL402:
 4533 00b2 CFE7     		b	.L305
 4534              	.L319:
 107:lvgl/src/core/lv_indev.c ****         }
ARM GAS  C:\Users\OSD\AppData\Local\Temp\ccrOx18j.s 			page 127


 4535              		.loc 1 107 13 view .LVU1486
 4536 00b4 6946     		mov	r1, sp
 4537 00b6 FFF7FEFF 		bl	indev_encoder_proc
 4538              	.LVL403:
 4539 00ba CBE7     		b	.L305
 4540              	.L314:
 117:lvgl/src/core/lv_indev.c ****     indev_obj_act = NULL;
 4541              		.loc 1 117 5 view .LVU1487
 117:lvgl/src/core/lv_indev.c ****     indev_obj_act = NULL;
 4542              		.loc 1 117 19 is_stmt 0 view .LVU1488
 4543 00bc 0023     		movs	r3, #0
 4544 00be 034A     		ldr	r2, .L320
 4545 00c0 1360     		str	r3, [r2]
 118:lvgl/src/core/lv_indev.c **** 
 4546              		.loc 1 118 5 is_stmt 1 view .LVU1489
 118:lvgl/src/core/lv_indev.c **** 
 4547              		.loc 1 118 19 is_stmt 0 view .LVU1490
 4548 00c2 034A     		ldr	r2, .L320+4
 4549 00c4 1360     		str	r3, [r2]
 120:lvgl/src/core/lv_indev.c **** }
 4550              		.loc 1 120 28 is_stmt 1 view .LVU1491
 4551 00c6 B0E7     		b	.L300
 4552              	.LVL404:
 4553              	.L311:
 4554              		.cfi_def_cfa_offset 0
 4555              		.cfi_restore 4
 4556              		.cfi_restore 5
 4557              		.cfi_restore 14
 120:lvgl/src/core/lv_indev.c **** }
 4558              		.loc 1 120 28 is_stmt 0 view .LVU1492
 4559 00c8 7047     		bx	lr
 4560              	.L321:
 4561 00ca 00BF     		.align	2
 4562              	.L320:
 4563 00cc 00000000 		.word	.LANCHOR1
 4564 00d0 00000000 		.word	.LANCHOR0
 4565              		.cfi_endproc
 4566              	.LFE167:
 4568              		.section	.bss.indev_act,"aw",%nobits
 4569              		.align	2
 4570              		.set	.LANCHOR1,. + 0
 4573              	indev_act:
 4574 0000 00000000 		.space	4
 4575              		.section	.bss.indev_obj_act,"aw",%nobits
 4576              		.align	2
 4577              		.set	.LANCHOR0,. + 0
 4580              	indev_obj_act:
 4581 0000 00000000 		.space	4
 4582              		.text
 4583              	.Letext0:
 4584              		.file 3 "c:\\tools\\gcc-arm-none-eabi\\arm-none-eabi\\include\\machine\\_default_types.h"
 4585              		.file 4 "c:\\tools\\gcc-arm-none-eabi\\arm-none-eabi\\include\\sys\\_stdint.h"
 4586              		.file 5 "c:\\tools\\gcc-arm-none-eabi\\lib\\gcc\\arm-none-eabi\\10.3.1\\include\\stddef.h"
 4587              		.file 6 "lvgl/src/core/../misc/../font/../misc/lv_area.h"
 4588              		.file 7 "lvgl/src/core/../misc/../font/lv_font.h"
 4589              		.file 8 "lvgl/src/core/../misc/lv_types.h"
 4590              		.file 9 "lvgl/src/core/../misc/lv_color.h"
ARM GAS  C:\Users\OSD\AppData\Local\Temp\ccrOx18j.s 			page 128


 4591              		.file 10 "lvgl/src/core/../misc/lv_txt.h"
 4592              		.file 11 "lvgl/src/core/../misc/lv_bidi.h"
 4593              		.file 12 "lvgl/src/core/../misc/lv_style.h"
 4594              		.file 13 "lvgl/src/core/../hal/../draw/lv_img_buf.h"
 4595              		.file 14 "lvgl/src/core/lv_obj.h"
 4596              		.file 15 "lvgl/src/core/../hal/../draw/lv_draw_rect.h"
 4597              		.file 16 "lvgl/src/core/../hal/../draw/lv_draw_label.h"
 4598              		.file 17 "lvgl/src/core/../hal/../draw/lv_draw_img.h"
 4599              		.file 18 "lvgl/src/core/../hal/../draw/lv_draw_line.h"
 4600              		.file 19 "lvgl/src/core/../hal/../draw/lv_draw_arc.h"
 4601              		.file 20 "lvgl/src/core/../hal/../draw/lv_draw_layer.h"
 4602              		.file 21 "lvgl/src/core/../hal/../draw/lv_draw.h"
 4603              		.file 22 "lvgl/src/core/../hal/../misc/lv_ll.h"
 4604              		.file 23 "lvgl/src/core/../hal/../misc/lv_timer.h"
 4605              		.file 24 "lvgl/src/core/../hal/lv_hal_disp.h"
 4606              		.file 25 "lvgl/src/core/lv_theme.h"
 4607              		.file 26 "lvgl/src/core/../hal/lv_hal_indev.h"
 4608              		.file 27 "lvgl/src/core/lv_group.h"
 4609              		.file 28 "lvgl/src/core/lv_obj_scroll.h"
 4610              		.file 29 "lvgl/src/core/lv_obj_style.h"
 4611              		.file 30 "lvgl/src/core/lv_obj_class.h"
 4612              		.file 31 "lvgl/src/core/lv_event.h"
 4613              		.file 32 "lvgl/src/core/lv_obj_tree.h"
 4614              		.file 33 "lvgl/src/core/lv_indev_scroll.h"
 4615              		.file 34 "lvgl/src/core/../hal/../misc/../hal/lv_hal_tick.h"
 4616              		.file 35 "lvgl/src/core/lv_disp.h"
 4617              		.file 36 "d:\\kzc\\stm32\\h743ii_lcd\\lvgl\\src\\core\\lv_obj_pos.h"
ARM GAS  C:\Users\OSD\AppData\Local\Temp\ccrOx18j.s 			page 129


DEFINED SYMBOLS
                            *ABS*:00000000 lv_indev.c
C:\Users\OSD\AppData\Local\Temp\ccrOx18j.s:19     .text.indev_proc_reset_query_handler:00000000 $t
C:\Users\OSD\AppData\Local\Temp\ccrOx18j.s:24     .text.indev_proc_reset_query_handler:00000000 indev_proc_reset_query_handler
C:\Users\OSD\AppData\Local\Temp\ccrOx18j.s:98     .text.indev_proc_reset_query_handler:00000048 $d
C:\Users\OSD\AppData\Local\Temp\ccrOx18j.s:103    .text.indev_reset_check:00000000 $t
C:\Users\OSD\AppData\Local\Temp\ccrOx18j.s:108    .text.indev_reset_check:00000000 indev_reset_check
C:\Users\OSD\AppData\Local\Temp\ccrOx18j.s:136    .text.indev_reset_check:00000014 $d
C:\Users\OSD\AppData\Local\Temp\ccrOx18j.s:141    .text.indev_click_focus:00000000 $t
C:\Users\OSD\AppData\Local\Temp\ccrOx18j.s:146    .text.indev_click_focus:00000000 indev_click_focus
C:\Users\OSD\AppData\Local\Temp\ccrOx18j.s:384    .text.indev_click_focus:00000100 $d
C:\Users\OSD\AppData\Local\Temp\ccrOx18j.s:390    .text.indev_gesture:00000000 $t
C:\Users\OSD\AppData\Local\Temp\ccrOx18j.s:395    .text.indev_gesture:00000000 indev_gesture
C:\Users\OSD\AppData\Local\Temp\ccrOx18j.s:589    .text.indev_gesture:00000110 $d
C:\Users\OSD\AppData\Local\Temp\ccrOx18j.s:594    .text.indev_proc_release:00000000 $t
C:\Users\OSD\AppData\Local\Temp\ccrOx18j.s:599    .text.indev_proc_release:00000000 indev_proc_release
C:\Users\OSD\AppData\Local\Temp\ccrOx18j.s:908    .text.indev_proc_release:00000138 $d
C:\Users\OSD\AppData\Local\Temp\ccrOx18j.s:915    .text.indev_keypad_proc:00000000 $t
C:\Users\OSD\AppData\Local\Temp\ccrOx18j.s:920    .text.indev_keypad_proc:00000000 indev_keypad_proc
C:\Users\OSD\AppData\Local\Temp\ccrOx18j.s:1494   .text.indev_keypad_proc:0000029c $d
C:\Users\OSD\AppData\Local\Temp\ccrOx18j.s:1500   .text.indev_encoder_proc:00000000 $t
C:\Users\OSD\AppData\Local\Temp\ccrOx18j.s:1505   .text.indev_encoder_proc:00000000 indev_encoder_proc
C:\Users\OSD\AppData\Local\Temp\ccrOx18j.s:2114   .text.indev_encoder_proc:000002b0 $d
C:\Users\OSD\AppData\Local\Temp\ccrOx18j.s:2119   .text.indev_encoder_proc:000002b8 $t
C:\Users\OSD\AppData\Local\Temp\ccrOx18j.s:2427   .text.indev_encoder_proc:00000434 $d
C:\Users\OSD\AppData\Local\Temp\ccrOx18j.s:2434   .text.lv_indev_enable:00000000 $t
C:\Users\OSD\AppData\Local\Temp\ccrOx18j.s:2440   .text.lv_indev_enable:00000000 lv_indev_enable
C:\Users\OSD\AppData\Local\Temp\ccrOx18j.s:2502   .text.lv_indev_get_act:00000000 $t
C:\Users\OSD\AppData\Local\Temp\ccrOx18j.s:2508   .text.lv_indev_get_act:00000000 lv_indev_get_act
C:\Users\OSD\AppData\Local\Temp\ccrOx18j.s:2523   .text.lv_indev_get_act:00000008 $d
C:\Users\OSD\AppData\Local\Temp\ccrOx18j.s:2528   .text.lv_indev_get_type:00000000 $t
C:\Users\OSD\AppData\Local\Temp\ccrOx18j.s:2534   .text.lv_indev_get_type:00000000 lv_indev_get_type
C:\Users\OSD\AppData\Local\Temp\ccrOx18j.s:2564   .text.lv_indev_reset:00000000 $t
C:\Users\OSD\AppData\Local\Temp\ccrOx18j.s:2570   .text.lv_indev_reset:00000000 lv_indev_reset
C:\Users\OSD\AppData\Local\Temp\ccrOx18j.s:2761   .text.lv_indev_reset:000000a8 $d
C:\Users\OSD\AppData\Local\Temp\ccrOx18j.s:2767   .text.lv_indev_reset_long_press:00000000 $t
C:\Users\OSD\AppData\Local\Temp\ccrOx18j.s:2773   .text.lv_indev_reset_long_press:00000000 lv_indev_reset_long_press
C:\Users\OSD\AppData\Local\Temp\ccrOx18j.s:2810   .text.lv_indev_set_cursor:00000000 $t
C:\Users\OSD\AppData\Local\Temp\ccrOx18j.s:2816   .text.lv_indev_set_cursor:00000000 lv_indev_set_cursor
C:\Users\OSD\AppData\Local\Temp\ccrOx18j.s:2884   .text.lv_indev_set_group:00000000 $t
C:\Users\OSD\AppData\Local\Temp\ccrOx18j.s:2890   .text.lv_indev_set_group:00000000 lv_indev_set_group
C:\Users\OSD\AppData\Local\Temp\ccrOx18j.s:2918   .text.lv_indev_set_button_points:00000000 $t
C:\Users\OSD\AppData\Local\Temp\ccrOx18j.s:2924   .text.lv_indev_set_button_points:00000000 lv_indev_set_button_points
C:\Users\OSD\AppData\Local\Temp\ccrOx18j.s:2953   .text.lv_indev_get_point:00000000 $t
C:\Users\OSD\AppData\Local\Temp\ccrOx18j.s:2959   .text.lv_indev_get_point:00000000 lv_indev_get_point
C:\Users\OSD\AppData\Local\Temp\ccrOx18j.s:3015   .text.lv_indev_get_gesture_dir:00000000 $t
C:\Users\OSD\AppData\Local\Temp\ccrOx18j.s:3021   .text.lv_indev_get_gesture_dir:00000000 lv_indev_get_gesture_dir
C:\Users\OSD\AppData\Local\Temp\ccrOx18j.s:3040   .text.lv_indev_get_key:00000000 $t
C:\Users\OSD\AppData\Local\Temp\ccrOx18j.s:3046   .text.lv_indev_get_key:00000000 lv_indev_get_key
C:\Users\OSD\AppData\Local\Temp\ccrOx18j.s:3079   .text.lv_indev_get_scroll_dir:00000000 $t
C:\Users\OSD\AppData\Local\Temp\ccrOx18j.s:3085   .text.lv_indev_get_scroll_dir:00000000 lv_indev_get_scroll_dir
C:\Users\OSD\AppData\Local\Temp\ccrOx18j.s:3131   .text.lv_indev_get_scroll_obj:00000000 $t
C:\Users\OSD\AppData\Local\Temp\ccrOx18j.s:3137   .text.lv_indev_get_scroll_obj:00000000 lv_indev_get_scroll_obj
C:\Users\OSD\AppData\Local\Temp\ccrOx18j.s:3178   .text.lv_indev_get_vect:00000000 $t
C:\Users\OSD\AppData\Local\Temp\ccrOx18j.s:3184   .text.lv_indev_get_vect:00000000 lv_indev_get_vect
C:\Users\OSD\AppData\Local\Temp\ccrOx18j.s:3229   .text.lv_indev_wait_release:00000000 $t
C:\Users\OSD\AppData\Local\Temp\ccrOx18j.s:3235   .text.lv_indev_wait_release:00000000 lv_indev_wait_release
ARM GAS  C:\Users\OSD\AppData\Local\Temp\ccrOx18j.s 			page 130


C:\Users\OSD\AppData\Local\Temp\ccrOx18j.s:3258   .text.lv_indev_get_obj_act:00000000 $t
C:\Users\OSD\AppData\Local\Temp\ccrOx18j.s:3264   .text.lv_indev_get_obj_act:00000000 lv_indev_get_obj_act
C:\Users\OSD\AppData\Local\Temp\ccrOx18j.s:3279   .text.lv_indev_get_obj_act:00000008 $d
C:\Users\OSD\AppData\Local\Temp\ccrOx18j.s:3284   .text.lv_indev_get_read_timer:00000000 $t
C:\Users\OSD\AppData\Local\Temp\ccrOx18j.s:3290   .text.lv_indev_get_read_timer:00000000 lv_indev_get_read_timer
C:\Users\OSD\AppData\Local\Temp\ccrOx18j.s:3315   .text.lv_indev_search_obj:00000000 $t
C:\Users\OSD\AppData\Local\Temp\ccrOx18j.s:3321   .text.lv_indev_search_obj:00000000 lv_indev_search_obj
C:\Users\OSD\AppData\Local\Temp\ccrOx18j.s:3459   .text.indev_proc_press:00000000 $t
C:\Users\OSD\AppData\Local\Temp\ccrOx18j.s:3464   .text.indev_proc_press:00000000 indev_proc_press
C:\Users\OSD\AppData\Local\Temp\ccrOx18j.s:3997   .text.indev_proc_press:00000280 $d
C:\Users\OSD\AppData\Local\Temp\ccrOx18j.s:4003   .text.indev_pointer_proc:00000000 $t
C:\Users\OSD\AppData\Local\Temp\ccrOx18j.s:4008   .text.indev_pointer_proc:00000000 indev_pointer_proc
C:\Users\OSD\AppData\Local\Temp\ccrOx18j.s:4210   .text.indev_button_proc:00000000 $t
C:\Users\OSD\AppData\Local\Temp\ccrOx18j.s:4215   .text.indev_button_proc:00000000 indev_button_proc
C:\Users\OSD\AppData\Local\Temp\ccrOx18j.s:4351   .text.lv_indev_read_timer_cb:00000000 $t
C:\Users\OSD\AppData\Local\Temp\ccrOx18j.s:4357   .text.lv_indev_read_timer_cb:00000000 lv_indev_read_timer_cb
C:\Users\OSD\AppData\Local\Temp\ccrOx18j.s:4563   .text.lv_indev_read_timer_cb:000000cc $d
C:\Users\OSD\AppData\Local\Temp\ccrOx18j.s:4569   .bss.indev_act:00000000 $d
C:\Users\OSD\AppData\Local\Temp\ccrOx18j.s:4573   .bss.indev_act:00000000 indev_act
C:\Users\OSD\AppData\Local\Temp\ccrOx18j.s:4576   .bss.indev_obj_act:00000000 $d
C:\Users\OSD\AppData\Local\Temp\ccrOx18j.s:4580   .bss.indev_obj_act:00000000 indev_obj_act

UNDEFINED SYMBOLS
lv_obj_has_flag
lv_obj_get_group
lv_event_send
lv_group_focus_obj
lv_obj_get_parent
lv_obj_get_style_prop
_lv_indev_scroll_throw_handler
lv_point_transform
lv_group_get_focused
lv_obj_has_state
lv_tick_get
lv_group_send_data
lv_group_set_editing
lv_group_focus_next
lv_group_focus_prev
lv_tick_elaps
lv_obj_is_editable
lv_group_get_editing
lv_group_get_obj_count
lv_obj_clear_state
lv_indev_get_next
lv_disp_get_layer_sys
lv_obj_set_parent
lv_obj_set_pos
lv_obj_clear_flag
lv_obj_add_flag
lv_obj_transform_point
lv_obj_hit_test
_lv_area_is_point_on
lv_obj_get_child_cnt
lv_disp_get_layer_top
lv_disp_get_scr_act
_lv_indev_scroll_handler
lv_disp_get_hor_res
ARM GAS  C:\Users\OSD\AppData\Local\Temp\ccrOx18j.s 			page 131


lv_disp_get_ver_res
_lv_indev_read
