ARM GAS  C:\Users\OSD\AppData\Local\Temp\ccYTBKz7.s 			page 1


   1              		.cpu cortex-m7
   2              		.arch armv7e-m
   3              		.fpu fpv5-d16
   4              		.eabi_attribute 28, 1
   5              		.eabi_attribute 20, 1
   6              		.eabi_attribute 21, 1
   7              		.eabi_attribute 23, 3
   8              		.eabi_attribute 24, 1
   9              		.eabi_attribute 25, 1
  10              		.eabi_attribute 26, 1
  11              		.eabi_attribute 30, 1
  12              		.eabi_attribute 34, 1
  13              		.eabi_attribute 18, 4
  14              		.file	"lv_img_decoder.c"
  15              		.text
  16              	.Ltext0:
  17              		.cfi_sections	.debug_frame
  18              		.section	.rodata.lv_img_decoder_built_in_info.str1.4,"aMS",%progbits,1
  19              		.align	2
  20              	.LC0:
  21 0000 62696E00 		.ascii	"bin\000"
  22              		.section	.text.lv_img_decoder_built_in_info,"ax",%progbits
  23              		.align	1
  24              		.global	lv_img_decoder_built_in_info
  25              		.syntax unified
  26              		.thumb
  27              		.thumb_func
  29              	lv_img_decoder_built_in_info:
  30              	.LVL0:
  31              	.LFB67:
  32              		.file 1 "lvgl/src/draw/lv_img_decoder.c"
   1:lvgl/src/draw/lv_img_decoder.c **** /**
   2:lvgl/src/draw/lv_img_decoder.c ****  * @file lv_img_decoder.c
   3:lvgl/src/draw/lv_img_decoder.c ****  *
   4:lvgl/src/draw/lv_img_decoder.c ****  */
   5:lvgl/src/draw/lv_img_decoder.c **** 
   6:lvgl/src/draw/lv_img_decoder.c **** /*********************
   7:lvgl/src/draw/lv_img_decoder.c ****  *      INCLUDES
   8:lvgl/src/draw/lv_img_decoder.c ****  *********************/
   9:lvgl/src/draw/lv_img_decoder.c **** #include "lv_img_decoder.h"
  10:lvgl/src/draw/lv_img_decoder.c **** #include "../misc/lv_assert.h"
  11:lvgl/src/draw/lv_img_decoder.c **** #include "../draw/lv_draw_img.h"
  12:lvgl/src/draw/lv_img_decoder.c **** #include "../misc/lv_ll.h"
  13:lvgl/src/draw/lv_img_decoder.c **** #include "../misc/lv_gc.h"
  14:lvgl/src/draw/lv_img_decoder.c **** 
  15:lvgl/src/draw/lv_img_decoder.c **** /*********************
  16:lvgl/src/draw/lv_img_decoder.c ****  *      DEFINES
  17:lvgl/src/draw/lv_img_decoder.c ****  *********************/
  18:lvgl/src/draw/lv_img_decoder.c **** #define CF_BUILT_IN_FIRST   LV_IMG_CF_TRUE_COLOR
  19:lvgl/src/draw/lv_img_decoder.c **** #define CF_BUILT_IN_LAST    LV_IMG_CF_RGB565A8
  20:lvgl/src/draw/lv_img_decoder.c **** 
  21:lvgl/src/draw/lv_img_decoder.c **** /**********************
  22:lvgl/src/draw/lv_img_decoder.c ****  *      TYPEDEFS
  23:lvgl/src/draw/lv_img_decoder.c ****  **********************/
  24:lvgl/src/draw/lv_img_decoder.c **** 
  25:lvgl/src/draw/lv_img_decoder.c **** typedef struct {
  26:lvgl/src/draw/lv_img_decoder.c ****     lv_fs_file_t f;
ARM GAS  C:\Users\OSD\AppData\Local\Temp\ccYTBKz7.s 			page 2


  27:lvgl/src/draw/lv_img_decoder.c ****     lv_color_t * palette;
  28:lvgl/src/draw/lv_img_decoder.c ****     lv_opa_t * opa;
  29:lvgl/src/draw/lv_img_decoder.c **** } lv_img_decoder_built_in_data_t;
  30:lvgl/src/draw/lv_img_decoder.c **** 
  31:lvgl/src/draw/lv_img_decoder.c **** /**********************
  32:lvgl/src/draw/lv_img_decoder.c ****  *  STATIC PROTOTYPES
  33:lvgl/src/draw/lv_img_decoder.c ****  **********************/
  34:lvgl/src/draw/lv_img_decoder.c **** static lv_res_t lv_img_decoder_built_in_line_true_color(lv_img_decoder_dsc_t * dsc, lv_coord_t x, l
  35:lvgl/src/draw/lv_img_decoder.c ****                                                         lv_coord_t len, uint8_t * buf);
  36:lvgl/src/draw/lv_img_decoder.c **** static lv_res_t lv_img_decoder_built_in_line_alpha(lv_img_decoder_dsc_t * dsc, lv_coord_t x, lv_coo
  37:lvgl/src/draw/lv_img_decoder.c ****                                                    lv_coord_t len, uint8_t * buf);
  38:lvgl/src/draw/lv_img_decoder.c **** static lv_res_t lv_img_decoder_built_in_line_indexed(lv_img_decoder_dsc_t * dsc, lv_coord_t x, lv_c
  39:lvgl/src/draw/lv_img_decoder.c ****                                                      lv_coord_t len, uint8_t * buf);
  40:lvgl/src/draw/lv_img_decoder.c **** 
  41:lvgl/src/draw/lv_img_decoder.c **** /**********************
  42:lvgl/src/draw/lv_img_decoder.c ****  *  STATIC VARIABLES
  43:lvgl/src/draw/lv_img_decoder.c ****  **********************/
  44:lvgl/src/draw/lv_img_decoder.c **** 
  45:lvgl/src/draw/lv_img_decoder.c **** /**********************
  46:lvgl/src/draw/lv_img_decoder.c ****  *      MACROS
  47:lvgl/src/draw/lv_img_decoder.c ****  **********************/
  48:lvgl/src/draw/lv_img_decoder.c **** 
  49:lvgl/src/draw/lv_img_decoder.c **** /**********************
  50:lvgl/src/draw/lv_img_decoder.c ****  *   GLOBAL FUNCTIONS
  51:lvgl/src/draw/lv_img_decoder.c ****  **********************/
  52:lvgl/src/draw/lv_img_decoder.c **** 
  53:lvgl/src/draw/lv_img_decoder.c **** /**
  54:lvgl/src/draw/lv_img_decoder.c ****  * Initialize the image decoder module
  55:lvgl/src/draw/lv_img_decoder.c ****  */
  56:lvgl/src/draw/lv_img_decoder.c **** void _lv_img_decoder_init(void)
  57:lvgl/src/draw/lv_img_decoder.c **** {
  58:lvgl/src/draw/lv_img_decoder.c ****     _lv_ll_init(&LV_GC_ROOT(_lv_img_decoder_ll), sizeof(lv_img_decoder_t));
  59:lvgl/src/draw/lv_img_decoder.c **** 
  60:lvgl/src/draw/lv_img_decoder.c ****     lv_img_decoder_t * decoder;
  61:lvgl/src/draw/lv_img_decoder.c **** 
  62:lvgl/src/draw/lv_img_decoder.c ****     /*Create a decoder for the built in color format*/
  63:lvgl/src/draw/lv_img_decoder.c ****     decoder = lv_img_decoder_create();
  64:lvgl/src/draw/lv_img_decoder.c ****     LV_ASSERT_MALLOC(decoder);
  65:lvgl/src/draw/lv_img_decoder.c ****     if(decoder == NULL) {
  66:lvgl/src/draw/lv_img_decoder.c ****         LV_LOG_WARN("lv_img_decoder_init: out of memory");
  67:lvgl/src/draw/lv_img_decoder.c ****         return;
  68:lvgl/src/draw/lv_img_decoder.c ****     }
  69:lvgl/src/draw/lv_img_decoder.c **** 
  70:lvgl/src/draw/lv_img_decoder.c ****     lv_img_decoder_set_info_cb(decoder, lv_img_decoder_built_in_info);
  71:lvgl/src/draw/lv_img_decoder.c ****     lv_img_decoder_set_open_cb(decoder, lv_img_decoder_built_in_open);
  72:lvgl/src/draw/lv_img_decoder.c ****     lv_img_decoder_set_read_line_cb(decoder, lv_img_decoder_built_in_read_line);
  73:lvgl/src/draw/lv_img_decoder.c ****     lv_img_decoder_set_close_cb(decoder, lv_img_decoder_built_in_close);
  74:lvgl/src/draw/lv_img_decoder.c **** }
  75:lvgl/src/draw/lv_img_decoder.c **** 
  76:lvgl/src/draw/lv_img_decoder.c **** /**
  77:lvgl/src/draw/lv_img_decoder.c ****  * Get information about an image.
  78:lvgl/src/draw/lv_img_decoder.c ****  * Try the created image decoder one by one. Once one is able to get info that info will be used.
  79:lvgl/src/draw/lv_img_decoder.c ****  * @param src the image source. E.g. file name or variable.
  80:lvgl/src/draw/lv_img_decoder.c ****  * @param header the image info will be stored here
  81:lvgl/src/draw/lv_img_decoder.c ****  * @return LV_RES_OK: success; LV_RES_INV: wasn't able to get info about the image
  82:lvgl/src/draw/lv_img_decoder.c ****  */
  83:lvgl/src/draw/lv_img_decoder.c **** lv_res_t lv_img_decoder_get_info(const void * src, lv_img_header_t * header)
ARM GAS  C:\Users\OSD\AppData\Local\Temp\ccYTBKz7.s 			page 3


  84:lvgl/src/draw/lv_img_decoder.c **** {
  85:lvgl/src/draw/lv_img_decoder.c ****     lv_memset_00(header, sizeof(lv_img_header_t));
  86:lvgl/src/draw/lv_img_decoder.c **** 
  87:lvgl/src/draw/lv_img_decoder.c ****     if(src == NULL) return LV_RES_INV;
  88:lvgl/src/draw/lv_img_decoder.c **** 
  89:lvgl/src/draw/lv_img_decoder.c ****     lv_img_src_t src_type = lv_img_src_get_type(src);
  90:lvgl/src/draw/lv_img_decoder.c ****     if(src_type == LV_IMG_SRC_VARIABLE) {
  91:lvgl/src/draw/lv_img_decoder.c ****         const lv_img_dsc_t * img_dsc = src;
  92:lvgl/src/draw/lv_img_decoder.c ****         if(img_dsc->data == NULL) return LV_RES_INV;
  93:lvgl/src/draw/lv_img_decoder.c ****     }
  94:lvgl/src/draw/lv_img_decoder.c **** 
  95:lvgl/src/draw/lv_img_decoder.c ****     lv_res_t res = LV_RES_INV;
  96:lvgl/src/draw/lv_img_decoder.c ****     lv_img_decoder_t * d;
  97:lvgl/src/draw/lv_img_decoder.c ****     _LV_LL_READ(&LV_GC_ROOT(_lv_img_decoder_ll), d) {
  98:lvgl/src/draw/lv_img_decoder.c ****         if(d->info_cb) {
  99:lvgl/src/draw/lv_img_decoder.c ****             res = d->info_cb(d, src, header);
 100:lvgl/src/draw/lv_img_decoder.c ****             if(res == LV_RES_OK) break;
 101:lvgl/src/draw/lv_img_decoder.c ****         }
 102:lvgl/src/draw/lv_img_decoder.c ****     }
 103:lvgl/src/draw/lv_img_decoder.c **** 
 104:lvgl/src/draw/lv_img_decoder.c ****     return res;
 105:lvgl/src/draw/lv_img_decoder.c **** }
 106:lvgl/src/draw/lv_img_decoder.c **** 
 107:lvgl/src/draw/lv_img_decoder.c **** lv_res_t lv_img_decoder_open(lv_img_decoder_dsc_t * dsc, const void * src, lv_color_t color, int32_
 108:lvgl/src/draw/lv_img_decoder.c **** {
 109:lvgl/src/draw/lv_img_decoder.c ****     lv_memset_00(dsc, sizeof(lv_img_decoder_dsc_t));
 110:lvgl/src/draw/lv_img_decoder.c **** 
 111:lvgl/src/draw/lv_img_decoder.c ****     if(src == NULL) return LV_RES_INV;
 112:lvgl/src/draw/lv_img_decoder.c ****     lv_img_src_t src_type = lv_img_src_get_type(src);
 113:lvgl/src/draw/lv_img_decoder.c ****     if(src_type == LV_IMG_SRC_VARIABLE) {
 114:lvgl/src/draw/lv_img_decoder.c ****         const lv_img_dsc_t * img_dsc = src;
 115:lvgl/src/draw/lv_img_decoder.c ****         if(img_dsc->data == NULL) return LV_RES_INV;
 116:lvgl/src/draw/lv_img_decoder.c ****     }
 117:lvgl/src/draw/lv_img_decoder.c **** 
 118:lvgl/src/draw/lv_img_decoder.c ****     dsc->color    = color;
 119:lvgl/src/draw/lv_img_decoder.c ****     dsc->src_type = src_type;
 120:lvgl/src/draw/lv_img_decoder.c ****     dsc->frame_id = frame_id;
 121:lvgl/src/draw/lv_img_decoder.c **** 
 122:lvgl/src/draw/lv_img_decoder.c ****     if(dsc->src_type == LV_IMG_SRC_FILE) {
 123:lvgl/src/draw/lv_img_decoder.c ****         size_t fnlen = strlen(src);
 124:lvgl/src/draw/lv_img_decoder.c ****         dsc->src = lv_mem_alloc(fnlen + 1);
 125:lvgl/src/draw/lv_img_decoder.c ****         LV_ASSERT_MALLOC(dsc->src);
 126:lvgl/src/draw/lv_img_decoder.c ****         if(dsc->src == NULL) {
 127:lvgl/src/draw/lv_img_decoder.c ****             LV_LOG_WARN("lv_img_decoder_open: out of memory");
 128:lvgl/src/draw/lv_img_decoder.c ****             return LV_RES_INV;
 129:lvgl/src/draw/lv_img_decoder.c ****         }
 130:lvgl/src/draw/lv_img_decoder.c ****         strcpy((char *)dsc->src, src);
 131:lvgl/src/draw/lv_img_decoder.c ****     }
 132:lvgl/src/draw/lv_img_decoder.c ****     else {
 133:lvgl/src/draw/lv_img_decoder.c ****         dsc->src = src;
 134:lvgl/src/draw/lv_img_decoder.c ****     }
 135:lvgl/src/draw/lv_img_decoder.c **** 
 136:lvgl/src/draw/lv_img_decoder.c ****     lv_res_t res = LV_RES_INV;
 137:lvgl/src/draw/lv_img_decoder.c **** 
 138:lvgl/src/draw/lv_img_decoder.c ****     lv_img_decoder_t * decoder;
 139:lvgl/src/draw/lv_img_decoder.c ****     _LV_LL_READ(&LV_GC_ROOT(_lv_img_decoder_ll), decoder) {
 140:lvgl/src/draw/lv_img_decoder.c ****         /*Info and Open callbacks are required*/
ARM GAS  C:\Users\OSD\AppData\Local\Temp\ccYTBKz7.s 			page 4


 141:lvgl/src/draw/lv_img_decoder.c ****         if(decoder->info_cb == NULL || decoder->open_cb == NULL) continue;
 142:lvgl/src/draw/lv_img_decoder.c **** 
 143:lvgl/src/draw/lv_img_decoder.c ****         res = decoder->info_cb(decoder, src, &dsc->header);
 144:lvgl/src/draw/lv_img_decoder.c ****         if(res != LV_RES_OK) continue;
 145:lvgl/src/draw/lv_img_decoder.c **** 
 146:lvgl/src/draw/lv_img_decoder.c ****         dsc->decoder = decoder;
 147:lvgl/src/draw/lv_img_decoder.c ****         res = decoder->open_cb(decoder, dsc);
 148:lvgl/src/draw/lv_img_decoder.c **** 
 149:lvgl/src/draw/lv_img_decoder.c ****         /*Opened successfully. It is a good decoder for this image source*/
 150:lvgl/src/draw/lv_img_decoder.c ****         if(res == LV_RES_OK) return res;
 151:lvgl/src/draw/lv_img_decoder.c **** 
 152:lvgl/src/draw/lv_img_decoder.c ****         /*Prepare for the next loop*/
 153:lvgl/src/draw/lv_img_decoder.c ****         lv_memset_00(&dsc->header, sizeof(lv_img_header_t));
 154:lvgl/src/draw/lv_img_decoder.c **** 
 155:lvgl/src/draw/lv_img_decoder.c ****         dsc->error_msg = NULL;
 156:lvgl/src/draw/lv_img_decoder.c ****         dsc->img_data  = NULL;
 157:lvgl/src/draw/lv_img_decoder.c ****         dsc->user_data = NULL;
 158:lvgl/src/draw/lv_img_decoder.c ****         dsc->time_to_open = 0;
 159:lvgl/src/draw/lv_img_decoder.c ****     }
 160:lvgl/src/draw/lv_img_decoder.c **** 
 161:lvgl/src/draw/lv_img_decoder.c ****     if(dsc->src_type == LV_IMG_SRC_FILE)
 162:lvgl/src/draw/lv_img_decoder.c ****         lv_mem_free((void *)dsc->src);
 163:lvgl/src/draw/lv_img_decoder.c **** 
 164:lvgl/src/draw/lv_img_decoder.c ****     return res;
 165:lvgl/src/draw/lv_img_decoder.c **** }
 166:lvgl/src/draw/lv_img_decoder.c **** 
 167:lvgl/src/draw/lv_img_decoder.c **** /**
 168:lvgl/src/draw/lv_img_decoder.c ****  * Read a line from an opened image
 169:lvgl/src/draw/lv_img_decoder.c ****  * @param dsc pointer to `lv_img_decoder_dsc_t` used in `lv_img_decoder_open`
 170:lvgl/src/draw/lv_img_decoder.c ****  * @param x start X coordinate (from left)
 171:lvgl/src/draw/lv_img_decoder.c ****  * @param y start Y coordinate (from top)
 172:lvgl/src/draw/lv_img_decoder.c ****  * @param len number of pixels to read
 173:lvgl/src/draw/lv_img_decoder.c ****  * @param buf store the data here
 174:lvgl/src/draw/lv_img_decoder.c ****  * @return LV_RES_OK: success; LV_RES_INV: an error occurred
 175:lvgl/src/draw/lv_img_decoder.c ****  */
 176:lvgl/src/draw/lv_img_decoder.c **** lv_res_t lv_img_decoder_read_line(lv_img_decoder_dsc_t * dsc, lv_coord_t x, lv_coord_t y, lv_coord_
 177:lvgl/src/draw/lv_img_decoder.c **** {
 178:lvgl/src/draw/lv_img_decoder.c ****     lv_res_t res = LV_RES_INV;
 179:lvgl/src/draw/lv_img_decoder.c ****     if(dsc->decoder->read_line_cb) res = dsc->decoder->read_line_cb(dsc->decoder, dsc, x, y, len, b
 180:lvgl/src/draw/lv_img_decoder.c **** 
 181:lvgl/src/draw/lv_img_decoder.c ****     return res;
 182:lvgl/src/draw/lv_img_decoder.c **** }
 183:lvgl/src/draw/lv_img_decoder.c **** 
 184:lvgl/src/draw/lv_img_decoder.c **** /**
 185:lvgl/src/draw/lv_img_decoder.c ****  * Close a decoding session
 186:lvgl/src/draw/lv_img_decoder.c ****  * @param dsc pointer to `lv_img_decoder_dsc_t` used in `lv_img_decoder_open`
 187:lvgl/src/draw/lv_img_decoder.c ****  */
 188:lvgl/src/draw/lv_img_decoder.c **** void lv_img_decoder_close(lv_img_decoder_dsc_t * dsc)
 189:lvgl/src/draw/lv_img_decoder.c **** {
 190:lvgl/src/draw/lv_img_decoder.c ****     if(dsc->decoder) {
 191:lvgl/src/draw/lv_img_decoder.c ****         if(dsc->decoder->close_cb) dsc->decoder->close_cb(dsc->decoder, dsc);
 192:lvgl/src/draw/lv_img_decoder.c **** 
 193:lvgl/src/draw/lv_img_decoder.c ****         if(dsc->src_type == LV_IMG_SRC_FILE) {
 194:lvgl/src/draw/lv_img_decoder.c ****             lv_mem_free((void *)dsc->src);
 195:lvgl/src/draw/lv_img_decoder.c ****             dsc->src = NULL;
 196:lvgl/src/draw/lv_img_decoder.c ****         }
 197:lvgl/src/draw/lv_img_decoder.c ****     }
ARM GAS  C:\Users\OSD\AppData\Local\Temp\ccYTBKz7.s 			page 5


 198:lvgl/src/draw/lv_img_decoder.c **** }
 199:lvgl/src/draw/lv_img_decoder.c **** 
 200:lvgl/src/draw/lv_img_decoder.c **** /**
 201:lvgl/src/draw/lv_img_decoder.c ****  * Create a new image decoder
 202:lvgl/src/draw/lv_img_decoder.c ****  * @return pointer to the new image decoder
 203:lvgl/src/draw/lv_img_decoder.c ****  */
 204:lvgl/src/draw/lv_img_decoder.c **** lv_img_decoder_t * lv_img_decoder_create(void)
 205:lvgl/src/draw/lv_img_decoder.c **** {
 206:lvgl/src/draw/lv_img_decoder.c ****     lv_img_decoder_t * decoder;
 207:lvgl/src/draw/lv_img_decoder.c ****     decoder = _lv_ll_ins_head(&LV_GC_ROOT(_lv_img_decoder_ll));
 208:lvgl/src/draw/lv_img_decoder.c ****     LV_ASSERT_MALLOC(decoder);
 209:lvgl/src/draw/lv_img_decoder.c ****     if(decoder == NULL) return NULL;
 210:lvgl/src/draw/lv_img_decoder.c **** 
 211:lvgl/src/draw/lv_img_decoder.c ****     lv_memset_00(decoder, sizeof(lv_img_decoder_t));
 212:lvgl/src/draw/lv_img_decoder.c **** 
 213:lvgl/src/draw/lv_img_decoder.c ****     return decoder;
 214:lvgl/src/draw/lv_img_decoder.c **** }
 215:lvgl/src/draw/lv_img_decoder.c **** 
 216:lvgl/src/draw/lv_img_decoder.c **** /**
 217:lvgl/src/draw/lv_img_decoder.c ****  * Delete an image decoder
 218:lvgl/src/draw/lv_img_decoder.c ****  * @param decoder pointer to an image decoder
 219:lvgl/src/draw/lv_img_decoder.c ****  */
 220:lvgl/src/draw/lv_img_decoder.c **** void lv_img_decoder_delete(lv_img_decoder_t * decoder)
 221:lvgl/src/draw/lv_img_decoder.c **** {
 222:lvgl/src/draw/lv_img_decoder.c ****     _lv_ll_remove(&LV_GC_ROOT(_lv_img_decoder_ll), decoder);
 223:lvgl/src/draw/lv_img_decoder.c ****     lv_mem_free(decoder);
 224:lvgl/src/draw/lv_img_decoder.c **** }
 225:lvgl/src/draw/lv_img_decoder.c **** 
 226:lvgl/src/draw/lv_img_decoder.c **** /**
 227:lvgl/src/draw/lv_img_decoder.c ****  * Set a callback to get information about the image
 228:lvgl/src/draw/lv_img_decoder.c ****  * @param decoder pointer to an image decoder
 229:lvgl/src/draw/lv_img_decoder.c ****  * @param info_cb a function to collect info about an image (fill an `lv_img_header_t` struct)
 230:lvgl/src/draw/lv_img_decoder.c ****  */
 231:lvgl/src/draw/lv_img_decoder.c **** void lv_img_decoder_set_info_cb(lv_img_decoder_t * decoder, lv_img_decoder_info_f_t info_cb)
 232:lvgl/src/draw/lv_img_decoder.c **** {
 233:lvgl/src/draw/lv_img_decoder.c ****     decoder->info_cb = info_cb;
 234:lvgl/src/draw/lv_img_decoder.c **** }
 235:lvgl/src/draw/lv_img_decoder.c **** 
 236:lvgl/src/draw/lv_img_decoder.c **** /**
 237:lvgl/src/draw/lv_img_decoder.c ****  * Set a callback to open an image
 238:lvgl/src/draw/lv_img_decoder.c ****  * @param decoder pointer to an image decoder
 239:lvgl/src/draw/lv_img_decoder.c ****  * @param open_cb a function to open an image
 240:lvgl/src/draw/lv_img_decoder.c ****  */
 241:lvgl/src/draw/lv_img_decoder.c **** void lv_img_decoder_set_open_cb(lv_img_decoder_t * decoder, lv_img_decoder_open_f_t open_cb)
 242:lvgl/src/draw/lv_img_decoder.c **** {
 243:lvgl/src/draw/lv_img_decoder.c ****     decoder->open_cb = open_cb;
 244:lvgl/src/draw/lv_img_decoder.c **** }
 245:lvgl/src/draw/lv_img_decoder.c **** 
 246:lvgl/src/draw/lv_img_decoder.c **** /**
 247:lvgl/src/draw/lv_img_decoder.c ****  * Set a callback to a decoded line of an image
 248:lvgl/src/draw/lv_img_decoder.c ****  * @param decoder pointer to an image decoder
 249:lvgl/src/draw/lv_img_decoder.c ****  * @param read_line_cb a function to read a line of an image
 250:lvgl/src/draw/lv_img_decoder.c ****  */
 251:lvgl/src/draw/lv_img_decoder.c **** void lv_img_decoder_set_read_line_cb(lv_img_decoder_t * decoder, lv_img_decoder_read_line_f_t read_
 252:lvgl/src/draw/lv_img_decoder.c **** {
 253:lvgl/src/draw/lv_img_decoder.c ****     decoder->read_line_cb = read_line_cb;
 254:lvgl/src/draw/lv_img_decoder.c **** }
ARM GAS  C:\Users\OSD\AppData\Local\Temp\ccYTBKz7.s 			page 6


 255:lvgl/src/draw/lv_img_decoder.c **** 
 256:lvgl/src/draw/lv_img_decoder.c **** /**
 257:lvgl/src/draw/lv_img_decoder.c ****  * Set a callback to close a decoding session. E.g. close files and free other resources.
 258:lvgl/src/draw/lv_img_decoder.c ****  * @param decoder pointer to an image decoder
 259:lvgl/src/draw/lv_img_decoder.c ****  * @param close_cb a function to close a decoding session
 260:lvgl/src/draw/lv_img_decoder.c ****  */
 261:lvgl/src/draw/lv_img_decoder.c **** void lv_img_decoder_set_close_cb(lv_img_decoder_t * decoder, lv_img_decoder_close_f_t close_cb)
 262:lvgl/src/draw/lv_img_decoder.c **** {
 263:lvgl/src/draw/lv_img_decoder.c ****     decoder->close_cb = close_cb;
 264:lvgl/src/draw/lv_img_decoder.c **** }
 265:lvgl/src/draw/lv_img_decoder.c **** 
 266:lvgl/src/draw/lv_img_decoder.c **** /**
 267:lvgl/src/draw/lv_img_decoder.c ****  * Get info about a built-in image
 268:lvgl/src/draw/lv_img_decoder.c ****  * @param decoder the decoder where this function belongs
 269:lvgl/src/draw/lv_img_decoder.c ****  * @param src the image source: pointer to an `lv_img_dsc_t` variable, a file path or a symbol
 270:lvgl/src/draw/lv_img_decoder.c ****  * @param header store the image data here
 271:lvgl/src/draw/lv_img_decoder.c ****  * @return LV_RES_OK: the info is successfully stored in `header`; LV_RES_INV: unknown format or ot
 272:lvgl/src/draw/lv_img_decoder.c ****  */
 273:lvgl/src/draw/lv_img_decoder.c **** lv_res_t lv_img_decoder_built_in_info(lv_img_decoder_t * decoder, const void * src, lv_img_header_t
 274:lvgl/src/draw/lv_img_decoder.c **** {
  33              		.loc 1 274 1 view -0
  34              		.cfi_startproc
  35              		@ args = 0, pretend = 0, frame = 16
  36              		@ frame_needed = 0, uses_anonymous_args = 0
  37              		.loc 1 274 1 is_stmt 0 view .LVU1
  38 0000 70B5     		push	{r4, r5, r6, lr}
  39              		.cfi_def_cfa_offset 16
  40              		.cfi_offset 4, -16
  41              		.cfi_offset 5, -12
  42              		.cfi_offset 6, -8
  43              		.cfi_offset 14, -4
  44 0002 84B0     		sub	sp, sp, #16
  45              		.cfi_def_cfa_offset 32
  46 0004 0D46     		mov	r5, r1
  47 0006 1446     		mov	r4, r2
 275:lvgl/src/draw/lv_img_decoder.c ****     LV_UNUSED(decoder); /*Unused*/
  48              		.loc 1 275 5 is_stmt 1 view .LVU2
 276:lvgl/src/draw/lv_img_decoder.c **** 
 277:lvgl/src/draw/lv_img_decoder.c ****     lv_img_src_t src_type = lv_img_src_get_type(src);
  49              		.loc 1 277 5 view .LVU3
  50              		.loc 1 277 29 is_stmt 0 view .LVU4
  51 0008 0846     		mov	r0, r1
  52              	.LVL1:
  53              		.loc 1 277 29 view .LVU5
  54 000a FFF7FEFF 		bl	lv_img_src_get_type
  55              	.LVL2:
 278:lvgl/src/draw/lv_img_decoder.c ****     if(src_type == LV_IMG_SRC_VARIABLE) {
  56              		.loc 1 278 5 is_stmt 1 view .LVU6
  57              		.loc 1 278 7 is_stmt 0 view .LVU7
  58 000e 0646     		mov	r6, r0
  59 0010 E8B9     		cbnz	r0, .L2
  60              	.LBB13:
 279:lvgl/src/draw/lv_img_decoder.c ****         lv_img_cf_t cf = ((lv_img_dsc_t *)src)->header.cf;
  61              		.loc 1 279 9 is_stmt 1 view .LVU8
  62              		.loc 1 279 55 is_stmt 0 view .LVU9
  63 0012 2B78     		ldrb	r3, [r5]	@ zero_extendqisi2
  64 0014 03F01F03 		and	r3, r3, #31
ARM GAS  C:\Users\OSD\AppData\Local\Temp\ccYTBKz7.s 			page 7


  65              	.LVL3:
 280:lvgl/src/draw/lv_img_decoder.c ****         if(cf < CF_BUILT_IN_FIRST || cf > CF_BUILT_IN_LAST) return LV_RES_INV;
  66              		.loc 1 280 9 is_stmt 1 view .LVU10
  67              		.loc 1 280 35 is_stmt 0 view .LVU11
  68 0018 043B     		subs	r3, r3, #4
  69 001a DBB2     		uxtb	r3, r3
  70              		.loc 1 280 11 view .LVU12
  71 001c 102B     		cmp	r3, #16
  72 001e 13D8     		bhi	.L3
 281:lvgl/src/draw/lv_img_decoder.c **** 
 282:lvgl/src/draw/lv_img_decoder.c ****         header->w  = ((lv_img_dsc_t *)src)->header.w;
  73              		.loc 1 282 9 is_stmt 1 view .LVU13
  74              		.loc 1 282 51 is_stmt 0 view .LVU14
  75 0020 2B68     		ldr	r3, [r5]
  76 0022 C3F38A23 		ubfx	r3, r3, #10, #11
  77              		.loc 1 282 20 view .LVU15
  78 0026 2268     		ldr	r2, [r4]
  79 0028 63F39422 		bfi	r2, r3, #10, #11
  80 002c 2260     		str	r2, [r4]
  81              	.LVL4:
 283:lvgl/src/draw/lv_img_decoder.c ****         header->h  = ((lv_img_dsc_t *)src)->header.h;
  82              		.loc 1 283 9 is_stmt 1 view .LVU16
  83              		.loc 1 283 51 is_stmt 0 view .LVU17
  84 002e 6B88     		ldrh	r3, [r5, #2]
  85 0030 C3F34A13 		ubfx	r3, r3, #5, #11
  86              		.loc 1 283 20 view .LVU18
  87 0034 6288     		ldrh	r2, [r4, #2]
  88 0036 63F34F12 		bfi	r2, r3, #5, #11
  89 003a 6280     		strh	r2, [r4, #2]	@ movhi
 284:lvgl/src/draw/lv_img_decoder.c ****         header->cf = ((lv_img_dsc_t *)src)->header.cf;
  90              		.loc 1 284 9 is_stmt 1 view .LVU19
  91              		.loc 1 284 51 is_stmt 0 view .LVU20
  92 003c 2A78     		ldrb	r2, [r5]	@ zero_extendqisi2
  93              		.loc 1 284 20 view .LVU21
  94 003e 2378     		ldrb	r3, [r4]	@ zero_extendqisi2
  95 0040 62F30403 		bfi	r3, r2, #0, #5
  96 0044 2370     		strb	r3, [r4]
  97              	.LBE13:
 285:lvgl/src/draw/lv_img_decoder.c ****     }
 286:lvgl/src/draw/lv_img_decoder.c ****     else if(src_type == LV_IMG_SRC_FILE) {
 287:lvgl/src/draw/lv_img_decoder.c ****         /*Support only "*.bin" files*/
 288:lvgl/src/draw/lv_img_decoder.c ****         if(strcmp(lv_fs_get_ext(src), "bin")) return LV_RES_INV;
 289:lvgl/src/draw/lv_img_decoder.c **** 
 290:lvgl/src/draw/lv_img_decoder.c ****         lv_fs_file_t f;
 291:lvgl/src/draw/lv_img_decoder.c ****         lv_fs_res_t res = lv_fs_open(&f, src, LV_FS_MODE_RD);
 292:lvgl/src/draw/lv_img_decoder.c ****         if(res == LV_FS_RES_OK) {
 293:lvgl/src/draw/lv_img_decoder.c ****             uint32_t rn;
 294:lvgl/src/draw/lv_img_decoder.c ****             res = lv_fs_read(&f, header, sizeof(lv_img_header_t), &rn);
 295:lvgl/src/draw/lv_img_decoder.c ****             lv_fs_close(&f);
 296:lvgl/src/draw/lv_img_decoder.c ****             if(res != LV_FS_RES_OK || rn != sizeof(lv_img_header_t)) {
 297:lvgl/src/draw/lv_img_decoder.c ****                 LV_LOG_WARN("Image get info get read file header");
 298:lvgl/src/draw/lv_img_decoder.c ****                 return LV_RES_INV;
 299:lvgl/src/draw/lv_img_decoder.c ****             }
 300:lvgl/src/draw/lv_img_decoder.c ****         }
 301:lvgl/src/draw/lv_img_decoder.c **** 
 302:lvgl/src/draw/lv_img_decoder.c ****         if(header->cf < CF_BUILT_IN_FIRST || header->cf > CF_BUILT_IN_LAST) return LV_RES_INV;
 303:lvgl/src/draw/lv_img_decoder.c ****     }
ARM GAS  C:\Users\OSD\AppData\Local\Temp\ccYTBKz7.s 			page 8


 304:lvgl/src/draw/lv_img_decoder.c ****     else if(src_type == LV_IMG_SRC_SYMBOL) {
 305:lvgl/src/draw/lv_img_decoder.c ****         /*The size depend on the font but it is unknown here. It should be handled outside of the
 306:lvgl/src/draw/lv_img_decoder.c ****          *function*/
 307:lvgl/src/draw/lv_img_decoder.c ****         header->w = 1;
 308:lvgl/src/draw/lv_img_decoder.c ****         header->h = 1;
 309:lvgl/src/draw/lv_img_decoder.c ****         /*Symbols always have transparent parts. Important because of cover check in the draw
 310:lvgl/src/draw/lv_img_decoder.c ****          *function. The actual value doesn't matter because lv_draw_label will draw it*/
 311:lvgl/src/draw/lv_img_decoder.c ****         header->cf = LV_IMG_CF_ALPHA_1BIT;
 312:lvgl/src/draw/lv_img_decoder.c ****     }
 313:lvgl/src/draw/lv_img_decoder.c ****     else {
 314:lvgl/src/draw/lv_img_decoder.c ****         LV_LOG_WARN("Image get info found unknown src type");
 315:lvgl/src/draw/lv_img_decoder.c ****         return LV_RES_INV;
 316:lvgl/src/draw/lv_img_decoder.c ****     }
 317:lvgl/src/draw/lv_img_decoder.c ****     return LV_RES_OK;
  98              		.loc 1 317 12 view .LVU22
  99 0046 0126     		movs	r6, #1
 100              	.LVL5:
 101              	.L3:
 318:lvgl/src/draw/lv_img_decoder.c **** }
 102              		.loc 1 318 1 view .LVU23
 103 0048 3046     		mov	r0, r6
 104 004a 04B0     		add	sp, sp, #16
 105              		.cfi_remember_state
 106              		.cfi_def_cfa_offset 16
 107              		@ sp needed
 108 004c 70BD     		pop	{r4, r5, r6, pc}
 109              	.LVL6:
 110              	.L2:
 111              		.cfi_restore_state
 286:lvgl/src/draw/lv_img_decoder.c ****         /*Support only "*.bin" files*/
 112              		.loc 1 286 10 is_stmt 1 view .LVU24
 286:lvgl/src/draw/lv_img_decoder.c ****         /*Support only "*.bin" files*/
 113              		.loc 1 286 12 is_stmt 0 view .LVU25
 114 004e 0128     		cmp	r0, #1
 115 0050 10D0     		beq	.L11
 304:lvgl/src/draw/lv_img_decoder.c ****         /*The size depend on the font but it is unknown here. It should be handled outside of the
 116              		.loc 1 304 10 is_stmt 1 view .LVU26
 304:lvgl/src/draw/lv_img_decoder.c ****         /*The size depend on the font but it is unknown here. It should be handled outside of the
 117              		.loc 1 304 12 is_stmt 0 view .LVU27
 118 0052 0228     		cmp	r0, #2
 119 0054 37D1     		bne	.L9
 307:lvgl/src/draw/lv_img_decoder.c ****         header->h = 1;
 120              		.loc 1 307 9 is_stmt 1 view .LVU28
 307:lvgl/src/draw/lv_img_decoder.c ****         header->h = 1;
 121              		.loc 1 307 19 is_stmt 0 view .LVU29
 122 0056 2368     		ldr	r3, [r4]
 123 0058 0126     		movs	r6, #1
 124 005a 66F39423 		bfi	r3, r6, #10, #11
 125 005e 2360     		str	r3, [r4]
 308:lvgl/src/draw/lv_img_decoder.c ****         /*Symbols always have transparent parts. Important because of cover check in the draw
 126              		.loc 1 308 9 is_stmt 1 view .LVU30
 308:lvgl/src/draw/lv_img_decoder.c ****         /*Symbols always have transparent parts. Important because of cover check in the draw
 127              		.loc 1 308 19 is_stmt 0 view .LVU31
 128 0060 6388     		ldrh	r3, [r4, #2]
 129 0062 66F34F13 		bfi	r3, r6, #5, #11
 130 0066 6380     		strh	r3, [r4, #2]	@ movhi
 311:lvgl/src/draw/lv_img_decoder.c ****     }
ARM GAS  C:\Users\OSD\AppData\Local\Temp\ccYTBKz7.s 			page 9


 131              		.loc 1 311 9 is_stmt 1 view .LVU32
 311:lvgl/src/draw/lv_img_decoder.c ****     }
 132              		.loc 1 311 20 is_stmt 0 view .LVU33
 133 0068 2378     		ldrb	r3, [r4]	@ zero_extendqisi2
 134 006a 0B22     		movs	r2, #11
 135 006c 62F30403 		bfi	r3, r2, #0, #5
 136 0070 2370     		strb	r3, [r4]
 137 0072 E9E7     		b	.L3
 138              	.L11:
 139              	.LBB14:
 288:lvgl/src/draw/lv_img_decoder.c **** 
 140              		.loc 1 288 9 is_stmt 1 view .LVU34
 288:lvgl/src/draw/lv_img_decoder.c **** 
 141              		.loc 1 288 12 is_stmt 0 view .LVU35
 142 0074 2846     		mov	r0, r5
 143              	.LVL7:
 288:lvgl/src/draw/lv_img_decoder.c **** 
 144              		.loc 1 288 12 view .LVU36
 145 0076 FFF7FEFF 		bl	lv_fs_get_ext
 146              	.LVL8:
 147 007a 1449     		ldr	r1, .L14
 148 007c FFF7FEFF 		bl	strcmp
 149              	.LVL9:
 288:lvgl/src/draw/lv_img_decoder.c **** 
 150              		.loc 1 288 11 view .LVU37
 151 0080 08B1     		cbz	r0, .L12
 152              	.LVL10:
 153              	.L5:
 288:lvgl/src/draw/lv_img_decoder.c **** 
 154              		.loc 1 288 54 discriminator 2 view .LVU38
 155 0082 0026     		movs	r6, #0
 156 0084 E0E7     		b	.L3
 157              	.LVL11:
 158              	.L12:
 290:lvgl/src/draw/lv_img_decoder.c ****         lv_fs_res_t res = lv_fs_open(&f, src, LV_FS_MODE_RD);
 159              		.loc 1 290 9 is_stmt 1 view .LVU39
 291:lvgl/src/draw/lv_img_decoder.c ****         if(res == LV_FS_RES_OK) {
 160              		.loc 1 291 9 view .LVU40
 291:lvgl/src/draw/lv_img_decoder.c ****         if(res == LV_FS_RES_OK) {
 161              		.loc 1 291 27 is_stmt 0 view .LVU41
 162 0086 0222     		movs	r2, #2
 163 0088 2946     		mov	r1, r5
 164 008a 01A8     		add	r0, sp, #4
 165 008c FFF7FEFF 		bl	lv_fs_open
 166              	.LVL12:
 292:lvgl/src/draw/lv_img_decoder.c ****             uint32_t rn;
 167              		.loc 1 292 9 is_stmt 1 view .LVU42
 292:lvgl/src/draw/lv_img_decoder.c ****             uint32_t rn;
 168              		.loc 1 292 11 is_stmt 0 view .LVU43
 169 0090 40B1     		cbz	r0, .L13
 170              	.LVL13:
 171              	.L6:
 302:lvgl/src/draw/lv_img_decoder.c ****     }
 172              		.loc 1 302 9 is_stmt 1 view .LVU44
 302:lvgl/src/draw/lv_img_decoder.c ****     }
 173              		.loc 1 302 18 is_stmt 0 view .LVU45
 174 0092 2378     		ldrb	r3, [r4]	@ zero_extendqisi2
ARM GAS  C:\Users\OSD\AppData\Local\Temp\ccYTBKz7.s 			page 10


 175 0094 03F01F03 		and	r3, r3, #31
 302:lvgl/src/draw/lv_img_decoder.c ****     }
 176              		.loc 1 302 43 view .LVU46
 177 0098 1C33     		adds	r3, r3, #28
 178 009a 03F01F03 		and	r3, r3, #31
 302:lvgl/src/draw/lv_img_decoder.c ****     }
 179              		.loc 1 302 11 view .LVU47
 180 009e 102B     		cmp	r3, #16
 181 00a0 D2D9     		bls	.L3
 182 00a2 EEE7     		b	.L5
 183              	.LVL14:
 184              	.L13:
 185              	.LBB15:
 293:lvgl/src/draw/lv_img_decoder.c ****             res = lv_fs_read(&f, header, sizeof(lv_img_header_t), &rn);
 186              		.loc 1 293 13 is_stmt 1 view .LVU48
 294:lvgl/src/draw/lv_img_decoder.c ****             lv_fs_close(&f);
 187              		.loc 1 294 13 view .LVU49
 294:lvgl/src/draw/lv_img_decoder.c ****             lv_fs_close(&f);
 188              		.loc 1 294 19 is_stmt 0 view .LVU50
 189 00a4 6B46     		mov	r3, sp
 190 00a6 0422     		movs	r2, #4
 191 00a8 2146     		mov	r1, r4
 192 00aa 0DEB0200 		add	r0, sp, r2
 193              	.LVL15:
 294:lvgl/src/draw/lv_img_decoder.c ****             lv_fs_close(&f);
 194              		.loc 1 294 19 view .LVU51
 195 00ae FFF7FEFF 		bl	lv_fs_read
 196              	.LVL16:
 197 00b2 0546     		mov	r5, r0
 198              	.LVL17:
 295:lvgl/src/draw/lv_img_decoder.c ****             if(res != LV_FS_RES_OK || rn != sizeof(lv_img_header_t)) {
 199              		.loc 1 295 13 is_stmt 1 view .LVU52
 200 00b4 01A8     		add	r0, sp, #4
 201 00b6 FFF7FEFF 		bl	lv_fs_close
 202              	.LVL18:
 296:lvgl/src/draw/lv_img_decoder.c ****                 LV_LOG_WARN("Image get info get read file header");
 203              		.loc 1 296 13 view .LVU53
 296:lvgl/src/draw/lv_img_decoder.c ****                 LV_LOG_WARN("Image get info get read file header");
 204              		.loc 1 296 15 is_stmt 0 view .LVU54
 205 00ba 002D     		cmp	r5, #0
 206 00bc E1D1     		bne	.L5
 296:lvgl/src/draw/lv_img_decoder.c ****                 LV_LOG_WARN("Image get info get read file header");
 207              		.loc 1 296 42 discriminator 1 view .LVU55
 208 00be 009B     		ldr	r3, [sp]
 296:lvgl/src/draw/lv_img_decoder.c ****                 LV_LOG_WARN("Image get info get read file header");
 209              		.loc 1 296 36 discriminator 1 view .LVU56
 210 00c0 042B     		cmp	r3, #4
 211 00c2 DED1     		bne	.L5
 212 00c4 E5E7     		b	.L6
 213              	.LVL19:
 214              	.L9:
 296:lvgl/src/draw/lv_img_decoder.c ****                 LV_LOG_WARN("Image get info get read file header");
 215              		.loc 1 296 36 discriminator 1 view .LVU57
 216              	.LBE15:
 217              	.LBE14:
 315:lvgl/src/draw/lv_img_decoder.c ****     }
 218              		.loc 1 315 16 view .LVU58
ARM GAS  C:\Users\OSD\AppData\Local\Temp\ccYTBKz7.s 			page 11


 219 00c6 0026     		movs	r6, #0
 220 00c8 BEE7     		b	.L3
 221              	.L15:
 222 00ca 00BF     		.align	2
 223              	.L14:
 224 00cc 00000000 		.word	.LC0
 225              		.cfi_endproc
 226              	.LFE67:
 228              		.section	.text.lv_img_decoder_built_in_close,"ax",%progbits
 229              		.align	1
 230              		.global	lv_img_decoder_built_in_close
 231              		.syntax unified
 232              		.thumb
 233              		.thumb_func
 235              	lv_img_decoder_built_in_close:
 236              	.LVL20:
 237              	.LFB70:
 319:lvgl/src/draw/lv_img_decoder.c **** 
 320:lvgl/src/draw/lv_img_decoder.c **** /**
 321:lvgl/src/draw/lv_img_decoder.c ****  * Open a built in image
 322:lvgl/src/draw/lv_img_decoder.c ****  * @param decoder the decoder where this function belongs
 323:lvgl/src/draw/lv_img_decoder.c ****  * @param dsc pointer to decoder descriptor. `src`, `color` are already initialized in it.
 324:lvgl/src/draw/lv_img_decoder.c ****  * @return LV_RES_OK: the info is successfully stored in `header`; LV_RES_INV: unknown format or ot
 325:lvgl/src/draw/lv_img_decoder.c ****  */
 326:lvgl/src/draw/lv_img_decoder.c **** lv_res_t lv_img_decoder_built_in_open(lv_img_decoder_t * decoder, lv_img_decoder_dsc_t * dsc)
 327:lvgl/src/draw/lv_img_decoder.c **** {
 328:lvgl/src/draw/lv_img_decoder.c ****     /*Open the file if it's a file*/
 329:lvgl/src/draw/lv_img_decoder.c ****     if(dsc->src_type == LV_IMG_SRC_FILE) {
 330:lvgl/src/draw/lv_img_decoder.c ****         /*Support only "*.bin" files*/
 331:lvgl/src/draw/lv_img_decoder.c ****         if(strcmp(lv_fs_get_ext(dsc->src), "bin")) return LV_RES_INV;
 332:lvgl/src/draw/lv_img_decoder.c **** 
 333:lvgl/src/draw/lv_img_decoder.c ****         lv_fs_file_t f;
 334:lvgl/src/draw/lv_img_decoder.c ****         lv_fs_res_t res = lv_fs_open(&f, dsc->src, LV_FS_MODE_RD);
 335:lvgl/src/draw/lv_img_decoder.c ****         if(res != LV_FS_RES_OK) {
 336:lvgl/src/draw/lv_img_decoder.c ****             LV_LOG_WARN("Built-in image decoder can't open the file");
 337:lvgl/src/draw/lv_img_decoder.c ****             return LV_RES_INV;
 338:lvgl/src/draw/lv_img_decoder.c ****         }
 339:lvgl/src/draw/lv_img_decoder.c **** 
 340:lvgl/src/draw/lv_img_decoder.c ****         /*If the file was open successfully save the file descriptor*/
 341:lvgl/src/draw/lv_img_decoder.c ****         if(dsc->user_data == NULL) {
 342:lvgl/src/draw/lv_img_decoder.c ****             dsc->user_data = lv_mem_alloc(sizeof(lv_img_decoder_built_in_data_t));
 343:lvgl/src/draw/lv_img_decoder.c ****             LV_ASSERT_MALLOC(dsc->user_data);
 344:lvgl/src/draw/lv_img_decoder.c ****             if(dsc->user_data == NULL) {
 345:lvgl/src/draw/lv_img_decoder.c ****                 LV_LOG_ERROR("img_decoder_built_in_open: out of memory");
 346:lvgl/src/draw/lv_img_decoder.c ****                 lv_fs_close(&f);
 347:lvgl/src/draw/lv_img_decoder.c ****                 return LV_RES_INV;
 348:lvgl/src/draw/lv_img_decoder.c ****             }
 349:lvgl/src/draw/lv_img_decoder.c ****             lv_memset_00(dsc->user_data, sizeof(lv_img_decoder_built_in_data_t));
 350:lvgl/src/draw/lv_img_decoder.c ****         }
 351:lvgl/src/draw/lv_img_decoder.c **** 
 352:lvgl/src/draw/lv_img_decoder.c ****         lv_img_decoder_built_in_data_t * user_data = dsc->user_data;
 353:lvgl/src/draw/lv_img_decoder.c ****         lv_memcpy_small(&user_data->f, &f, sizeof(f));
 354:lvgl/src/draw/lv_img_decoder.c ****     }
 355:lvgl/src/draw/lv_img_decoder.c ****     else if(dsc->src_type == LV_IMG_SRC_VARIABLE) {
 356:lvgl/src/draw/lv_img_decoder.c ****         /*The variables should have valid data*/
 357:lvgl/src/draw/lv_img_decoder.c ****         if(((lv_img_dsc_t *)dsc->src)->data == NULL) {
 358:lvgl/src/draw/lv_img_decoder.c ****             return LV_RES_INV;
ARM GAS  C:\Users\OSD\AppData\Local\Temp\ccYTBKz7.s 			page 12


 359:lvgl/src/draw/lv_img_decoder.c ****         }
 360:lvgl/src/draw/lv_img_decoder.c ****     }
 361:lvgl/src/draw/lv_img_decoder.c **** 
 362:lvgl/src/draw/lv_img_decoder.c ****     lv_img_cf_t cf = dsc->header.cf;
 363:lvgl/src/draw/lv_img_decoder.c ****     /*Process A8,  RGB565A8, need load file to ram after https://github.com/lvgl/lvgl/pull/3337*/
 364:lvgl/src/draw/lv_img_decoder.c ****     if(cf == LV_IMG_CF_ALPHA_8BIT || cf == LV_IMG_CF_RGB565A8) {
 365:lvgl/src/draw/lv_img_decoder.c ****         if(dsc->src_type == LV_IMG_SRC_VARIABLE) {
 366:lvgl/src/draw/lv_img_decoder.c ****             /*In case of uncompressed formats the image stored in the ROM/RAM.
 367:lvgl/src/draw/lv_img_decoder.c ****              *So simply give its pointer*/
 368:lvgl/src/draw/lv_img_decoder.c ****             dsc->img_data = ((lv_img_dsc_t *)dsc->src)->data;
 369:lvgl/src/draw/lv_img_decoder.c ****             return LV_RES_OK;
 370:lvgl/src/draw/lv_img_decoder.c ****         }
 371:lvgl/src/draw/lv_img_decoder.c ****         else {
 372:lvgl/src/draw/lv_img_decoder.c ****             /*If it's a file, read all to memory*/
 373:lvgl/src/draw/lv_img_decoder.c ****             uint32_t len = dsc->header.w * dsc->header.h;
 374:lvgl/src/draw/lv_img_decoder.c ****             len *= cf == LV_IMG_CF_RGB565A8 ? 3 : 1;
 375:lvgl/src/draw/lv_img_decoder.c ****             uint8_t * fs_buf = lv_mem_alloc(len);
 376:lvgl/src/draw/lv_img_decoder.c ****             if(fs_buf == NULL) return LV_RES_INV;
 377:lvgl/src/draw/lv_img_decoder.c **** 
 378:lvgl/src/draw/lv_img_decoder.c ****             lv_img_decoder_built_in_data_t * user_data = dsc->user_data;
 379:lvgl/src/draw/lv_img_decoder.c ****             lv_fs_seek(&user_data->f, 4, LV_FS_SEEK_SET); /*+4 to skip the header*/
 380:lvgl/src/draw/lv_img_decoder.c ****             lv_fs_res_t res = lv_fs_read(&user_data->f, fs_buf, len, NULL);
 381:lvgl/src/draw/lv_img_decoder.c ****             if(res != LV_FS_RES_OK) {
 382:lvgl/src/draw/lv_img_decoder.c ****                 lv_mem_free(fs_buf);
 383:lvgl/src/draw/lv_img_decoder.c ****                 return LV_RES_INV;
 384:lvgl/src/draw/lv_img_decoder.c ****             }
 385:lvgl/src/draw/lv_img_decoder.c ****             dsc->img_data = fs_buf;
 386:lvgl/src/draw/lv_img_decoder.c ****             return LV_RES_OK;
 387:lvgl/src/draw/lv_img_decoder.c ****         }
 388:lvgl/src/draw/lv_img_decoder.c ****     }
 389:lvgl/src/draw/lv_img_decoder.c ****     /*Process true color formats*/
 390:lvgl/src/draw/lv_img_decoder.c ****     else if(cf == LV_IMG_CF_TRUE_COLOR || cf == LV_IMG_CF_TRUE_COLOR_ALPHA ||
 391:lvgl/src/draw/lv_img_decoder.c ****             cf == LV_IMG_CF_TRUE_COLOR_CHROMA_KEYED) {
 392:lvgl/src/draw/lv_img_decoder.c ****         if(dsc->src_type == LV_IMG_SRC_VARIABLE) {
 393:lvgl/src/draw/lv_img_decoder.c ****             /*In case of uncompressed formats the image stored in the ROM/RAM.
 394:lvgl/src/draw/lv_img_decoder.c ****              *So simply give its pointer*/
 395:lvgl/src/draw/lv_img_decoder.c ****             dsc->img_data = ((lv_img_dsc_t *)dsc->src)->data;
 396:lvgl/src/draw/lv_img_decoder.c ****             return LV_RES_OK;
 397:lvgl/src/draw/lv_img_decoder.c ****         }
 398:lvgl/src/draw/lv_img_decoder.c ****         else {
 399:lvgl/src/draw/lv_img_decoder.c ****             /*If it's a file it need to be read line by line later*/
 400:lvgl/src/draw/lv_img_decoder.c ****             return LV_RES_OK;
 401:lvgl/src/draw/lv_img_decoder.c ****         }
 402:lvgl/src/draw/lv_img_decoder.c ****     }
 403:lvgl/src/draw/lv_img_decoder.c ****     /*Process indexed images. Build a palette*/
 404:lvgl/src/draw/lv_img_decoder.c ****     else if(cf == LV_IMG_CF_INDEXED_1BIT || cf == LV_IMG_CF_INDEXED_2BIT || cf == LV_IMG_CF_INDEXED
 405:lvgl/src/draw/lv_img_decoder.c ****             cf == LV_IMG_CF_INDEXED_8BIT) {
 406:lvgl/src/draw/lv_img_decoder.c ****         uint8_t px_size       = lv_img_cf_get_px_size(cf);
 407:lvgl/src/draw/lv_img_decoder.c ****         uint32_t palette_size = 1 << px_size;
 408:lvgl/src/draw/lv_img_decoder.c **** 
 409:lvgl/src/draw/lv_img_decoder.c ****         /*Allocate the palette*/
 410:lvgl/src/draw/lv_img_decoder.c ****         if(dsc->user_data == NULL) {
 411:lvgl/src/draw/lv_img_decoder.c ****             dsc->user_data = lv_mem_alloc(sizeof(lv_img_decoder_built_in_data_t));
 412:lvgl/src/draw/lv_img_decoder.c ****             LV_ASSERT_MALLOC(dsc->user_data);
 413:lvgl/src/draw/lv_img_decoder.c ****             if(dsc->user_data == NULL) {
 414:lvgl/src/draw/lv_img_decoder.c ****                 LV_LOG_ERROR("img_decoder_built_in_open: out of memory");
 415:lvgl/src/draw/lv_img_decoder.c ****                 return LV_RES_INV;
ARM GAS  C:\Users\OSD\AppData\Local\Temp\ccYTBKz7.s 			page 13


 416:lvgl/src/draw/lv_img_decoder.c ****             }
 417:lvgl/src/draw/lv_img_decoder.c ****             lv_memset_00(dsc->user_data, sizeof(lv_img_decoder_built_in_data_t));
 418:lvgl/src/draw/lv_img_decoder.c ****         }
 419:lvgl/src/draw/lv_img_decoder.c **** 
 420:lvgl/src/draw/lv_img_decoder.c ****         lv_img_decoder_built_in_data_t * user_data = dsc->user_data;
 421:lvgl/src/draw/lv_img_decoder.c ****         user_data->palette                         = lv_mem_alloc(palette_size * sizeof(lv_color_t)
 422:lvgl/src/draw/lv_img_decoder.c ****         LV_ASSERT_MALLOC(user_data->palette);
 423:lvgl/src/draw/lv_img_decoder.c ****         user_data->opa                             = lv_mem_alloc(palette_size * sizeof(lv_opa_t));
 424:lvgl/src/draw/lv_img_decoder.c ****         LV_ASSERT_MALLOC(user_data->opa);
 425:lvgl/src/draw/lv_img_decoder.c ****         if(user_data->palette == NULL || user_data->opa == NULL) {
 426:lvgl/src/draw/lv_img_decoder.c ****             LV_LOG_ERROR("img_decoder_built_in_open: out of memory");
 427:lvgl/src/draw/lv_img_decoder.c ****             lv_img_decoder_built_in_close(decoder, dsc);
 428:lvgl/src/draw/lv_img_decoder.c ****             return LV_RES_INV;
 429:lvgl/src/draw/lv_img_decoder.c ****         }
 430:lvgl/src/draw/lv_img_decoder.c **** 
 431:lvgl/src/draw/lv_img_decoder.c ****         if(dsc->src_type == LV_IMG_SRC_FILE) {
 432:lvgl/src/draw/lv_img_decoder.c ****             /*Read the palette from file*/
 433:lvgl/src/draw/lv_img_decoder.c ****             lv_fs_seek(&user_data->f, 4, LV_FS_SEEK_SET); /*Skip the header*/
 434:lvgl/src/draw/lv_img_decoder.c ****             lv_color32_t cur_color;
 435:lvgl/src/draw/lv_img_decoder.c ****             uint32_t i;
 436:lvgl/src/draw/lv_img_decoder.c ****             for(i = 0; i < palette_size; i++) {
 437:lvgl/src/draw/lv_img_decoder.c ****                 lv_fs_read(&user_data->f, &cur_color, sizeof(lv_color32_t), NULL);
 438:lvgl/src/draw/lv_img_decoder.c ****                 user_data->palette[i] = lv_color_make(cur_color.ch.red, cur_color.ch.green, cur_col
 439:lvgl/src/draw/lv_img_decoder.c ****                 user_data->opa[i]     = cur_color.ch.alpha;
 440:lvgl/src/draw/lv_img_decoder.c ****             }
 441:lvgl/src/draw/lv_img_decoder.c ****         }
 442:lvgl/src/draw/lv_img_decoder.c ****         else {
 443:lvgl/src/draw/lv_img_decoder.c ****             /*The palette begins in the beginning of the image data. Just point to it.*/
 444:lvgl/src/draw/lv_img_decoder.c ****             lv_color32_t * palette_p = (lv_color32_t *)((lv_img_dsc_t *)dsc->src)->data;
 445:lvgl/src/draw/lv_img_decoder.c **** 
 446:lvgl/src/draw/lv_img_decoder.c ****             uint32_t i;
 447:lvgl/src/draw/lv_img_decoder.c ****             for(i = 0; i < palette_size; i++) {
 448:lvgl/src/draw/lv_img_decoder.c ****                 user_data->palette[i] = lv_color_make(palette_p[i].ch.red, palette_p[i].ch.green, p
 449:lvgl/src/draw/lv_img_decoder.c ****                 user_data->opa[i]     = palette_p[i].ch.alpha;
 450:lvgl/src/draw/lv_img_decoder.c ****             }
 451:lvgl/src/draw/lv_img_decoder.c ****         }
 452:lvgl/src/draw/lv_img_decoder.c **** 
 453:lvgl/src/draw/lv_img_decoder.c ****         return LV_RES_OK;
 454:lvgl/src/draw/lv_img_decoder.c ****     }
 455:lvgl/src/draw/lv_img_decoder.c ****     /*Alpha indexed images.*/
 456:lvgl/src/draw/lv_img_decoder.c ****     else if(cf == LV_IMG_CF_ALPHA_1BIT || cf == LV_IMG_CF_ALPHA_2BIT || cf == LV_IMG_CF_ALPHA_4BIT)
 457:lvgl/src/draw/lv_img_decoder.c ****         return LV_RES_OK; /*Nothing to process*/
 458:lvgl/src/draw/lv_img_decoder.c ****     }
 459:lvgl/src/draw/lv_img_decoder.c ****     /*Unknown format. Can't decode it.*/
 460:lvgl/src/draw/lv_img_decoder.c ****     else {
 461:lvgl/src/draw/lv_img_decoder.c ****         /*Free the potentially allocated memories*/
 462:lvgl/src/draw/lv_img_decoder.c ****         lv_img_decoder_built_in_close(decoder, dsc);
 463:lvgl/src/draw/lv_img_decoder.c **** 
 464:lvgl/src/draw/lv_img_decoder.c ****         LV_LOG_WARN("Image decoder open: unknown color format");
 465:lvgl/src/draw/lv_img_decoder.c ****         return LV_RES_INV;
 466:lvgl/src/draw/lv_img_decoder.c ****     }
 467:lvgl/src/draw/lv_img_decoder.c **** }
 468:lvgl/src/draw/lv_img_decoder.c **** 
 469:lvgl/src/draw/lv_img_decoder.c **** /**
 470:lvgl/src/draw/lv_img_decoder.c ****  * Decode `len` pixels starting from the given `x`, `y` coordinates and store them in `buf`.
 471:lvgl/src/draw/lv_img_decoder.c ****  * Required only if the "open" function can't return with the whole decoded pixel array.
 472:lvgl/src/draw/lv_img_decoder.c ****  * @param decoder pointer to the decoder the function associated with
ARM GAS  C:\Users\OSD\AppData\Local\Temp\ccYTBKz7.s 			page 14


 473:lvgl/src/draw/lv_img_decoder.c ****  * @param dsc pointer to decoder descriptor
 474:lvgl/src/draw/lv_img_decoder.c ****  * @param x start x coordinate
 475:lvgl/src/draw/lv_img_decoder.c ****  * @param y start y coordinate
 476:lvgl/src/draw/lv_img_decoder.c ****  * @param len number of pixels to decode
 477:lvgl/src/draw/lv_img_decoder.c ****  * @param buf a buffer to store the decoded pixels
 478:lvgl/src/draw/lv_img_decoder.c ****  * @return LV_RES_OK: ok; LV_RES_INV: failed
 479:lvgl/src/draw/lv_img_decoder.c ****  */
 480:lvgl/src/draw/lv_img_decoder.c **** lv_res_t lv_img_decoder_built_in_read_line(lv_img_decoder_t * decoder, lv_img_decoder_dsc_t * dsc, 
 481:lvgl/src/draw/lv_img_decoder.c ****                                            lv_coord_t y, lv_coord_t len, uint8_t * buf)
 482:lvgl/src/draw/lv_img_decoder.c **** {
 483:lvgl/src/draw/lv_img_decoder.c ****     LV_UNUSED(decoder); /*Unused*/
 484:lvgl/src/draw/lv_img_decoder.c **** 
 485:lvgl/src/draw/lv_img_decoder.c ****     lv_res_t res = LV_RES_INV;
 486:lvgl/src/draw/lv_img_decoder.c **** 
 487:lvgl/src/draw/lv_img_decoder.c ****     if(dsc->header.cf == LV_IMG_CF_TRUE_COLOR || dsc->header.cf == LV_IMG_CF_TRUE_COLOR_ALPHA ||
 488:lvgl/src/draw/lv_img_decoder.c ****        dsc->header.cf == LV_IMG_CF_TRUE_COLOR_CHROMA_KEYED) {
 489:lvgl/src/draw/lv_img_decoder.c ****         /*For TRUE_COLOR images read line required only for files.
 490:lvgl/src/draw/lv_img_decoder.c ****          *For variables the image data was returned in `open`*/
 491:lvgl/src/draw/lv_img_decoder.c ****         if(dsc->src_type == LV_IMG_SRC_FILE) {
 492:lvgl/src/draw/lv_img_decoder.c ****             res = lv_img_decoder_built_in_line_true_color(dsc, x, y, len, buf);
 493:lvgl/src/draw/lv_img_decoder.c ****         }
 494:lvgl/src/draw/lv_img_decoder.c ****     }
 495:lvgl/src/draw/lv_img_decoder.c ****     else if(dsc->header.cf == LV_IMG_CF_ALPHA_1BIT || dsc->header.cf == LV_IMG_CF_ALPHA_2BIT ||
 496:lvgl/src/draw/lv_img_decoder.c ****             dsc->header.cf == LV_IMG_CF_ALPHA_4BIT || dsc->header.cf == LV_IMG_CF_ALPHA_8BIT) {
 497:lvgl/src/draw/lv_img_decoder.c ****         res = lv_img_decoder_built_in_line_alpha(dsc, x, y, len, buf);
 498:lvgl/src/draw/lv_img_decoder.c ****     }
 499:lvgl/src/draw/lv_img_decoder.c ****     else if(dsc->header.cf == LV_IMG_CF_INDEXED_1BIT || dsc->header.cf == LV_IMG_CF_INDEXED_2BIT ||
 500:lvgl/src/draw/lv_img_decoder.c ****             dsc->header.cf == LV_IMG_CF_INDEXED_4BIT || dsc->header.cf == LV_IMG_CF_INDEXED_8BIT) {
 501:lvgl/src/draw/lv_img_decoder.c ****         res = lv_img_decoder_built_in_line_indexed(dsc, x, y, len, buf);
 502:lvgl/src/draw/lv_img_decoder.c ****     }
 503:lvgl/src/draw/lv_img_decoder.c ****     else {
 504:lvgl/src/draw/lv_img_decoder.c ****         LV_LOG_WARN("Built-in image decoder read not supports the color format");
 505:lvgl/src/draw/lv_img_decoder.c ****         return LV_RES_INV;
 506:lvgl/src/draw/lv_img_decoder.c ****     }
 507:lvgl/src/draw/lv_img_decoder.c **** 
 508:lvgl/src/draw/lv_img_decoder.c ****     return res;
 509:lvgl/src/draw/lv_img_decoder.c **** }
 510:lvgl/src/draw/lv_img_decoder.c **** 
 511:lvgl/src/draw/lv_img_decoder.c **** /**
 512:lvgl/src/draw/lv_img_decoder.c ****  * Close the pending decoding. Free resources etc.
 513:lvgl/src/draw/lv_img_decoder.c ****  * @param decoder pointer to the decoder the function associated with
 514:lvgl/src/draw/lv_img_decoder.c ****  * @param dsc pointer to decoder descriptor
 515:lvgl/src/draw/lv_img_decoder.c ****  */
 516:lvgl/src/draw/lv_img_decoder.c **** void lv_img_decoder_built_in_close(lv_img_decoder_t * decoder, lv_img_decoder_dsc_t * dsc)
 517:lvgl/src/draw/lv_img_decoder.c **** {
 238              		.loc 1 517 1 is_stmt 1 view -0
 239              		.cfi_startproc
 240              		@ args = 0, pretend = 0, frame = 0
 241              		@ frame_needed = 0, uses_anonymous_args = 0
 242              		.loc 1 517 1 is_stmt 0 view .LVU60
 243 0000 38B5     		push	{r3, r4, r5, lr}
 244              		.cfi_def_cfa_offset 16
 245              		.cfi_offset 3, -16
 246              		.cfi_offset 4, -12
 247              		.cfi_offset 5, -8
 248              		.cfi_offset 14, -4
 518:lvgl/src/draw/lv_img_decoder.c ****     LV_UNUSED(decoder); /*Unused*/
ARM GAS  C:\Users\OSD\AppData\Local\Temp\ccYTBKz7.s 			page 15


 249              		.loc 1 518 5 is_stmt 1 view .LVU61
 519:lvgl/src/draw/lv_img_decoder.c **** 
 520:lvgl/src/draw/lv_img_decoder.c ****     lv_img_decoder_built_in_data_t * user_data = dsc->user_data;
 250              		.loc 1 520 5 view .LVU62
 251              		.loc 1 520 38 is_stmt 0 view .LVU63
 252 0002 4D6A     		ldr	r5, [r1, #36]
 253              	.LVL21:
 521:lvgl/src/draw/lv_img_decoder.c ****     if(user_data) {
 254              		.loc 1 521 5 is_stmt 1 view .LVU64
 255              		.loc 1 521 7 is_stmt 0 view .LVU65
 256 0004 85B1     		cbz	r5, .L16
 257 0006 0C46     		mov	r4, r1
 522:lvgl/src/draw/lv_img_decoder.c ****         if(dsc->src_type == LV_IMG_SRC_FILE) {
 258              		.loc 1 522 9 is_stmt 1 view .LVU66
 259              		.loc 1 522 15 is_stmt 0 view .LVU67
 260 0008 0B7C     		ldrb	r3, [r1, #16]	@ zero_extendqisi2
 261              		.loc 1 522 11 view .LVU68
 262 000a 012B     		cmp	r3, #1
 263 000c 0DD0     		beq	.L22
 264              	.LVL22:
 265              	.L18:
 523:lvgl/src/draw/lv_img_decoder.c ****             lv_fs_close(&user_data->f);
 524:lvgl/src/draw/lv_img_decoder.c ****         }
 525:lvgl/src/draw/lv_img_decoder.c ****         if(user_data->palette) lv_mem_free(user_data->palette);
 266              		.loc 1 525 9 is_stmt 1 view .LVU69
 267              		.loc 1 525 21 is_stmt 0 view .LVU70
 268 000e E868     		ldr	r0, [r5, #12]
 269              		.loc 1 525 11 view .LVU71
 270 0010 08B1     		cbz	r0, .L19
 271              		.loc 1 525 32 is_stmt 1 discriminator 1 view .LVU72
 272 0012 FFF7FEFF 		bl	lv_mem_free
 273              	.LVL23:
 274              	.L19:
 526:lvgl/src/draw/lv_img_decoder.c ****         if(user_data->opa) lv_mem_free(user_data->opa);
 275              		.loc 1 526 9 view .LVU73
 276              		.loc 1 526 21 is_stmt 0 view .LVU74
 277 0016 2869     		ldr	r0, [r5, #16]
 278              		.loc 1 526 11 view .LVU75
 279 0018 08B1     		cbz	r0, .L20
 280              		.loc 1 526 28 is_stmt 1 discriminator 1 view .LVU76
 281 001a FFF7FEFF 		bl	lv_mem_free
 282              	.LVL24:
 283              	.L20:
 527:lvgl/src/draw/lv_img_decoder.c **** 
 528:lvgl/src/draw/lv_img_decoder.c ****         lv_mem_free(user_data);
 284              		.loc 1 528 9 view .LVU77
 285 001e 2846     		mov	r0, r5
 286 0020 FFF7FEFF 		bl	lv_mem_free
 287              	.LVL25:
 529:lvgl/src/draw/lv_img_decoder.c ****         dsc->user_data = NULL;
 288              		.loc 1 529 9 view .LVU78
 289              		.loc 1 529 24 is_stmt 0 view .LVU79
 290 0024 0023     		movs	r3, #0
 291 0026 6362     		str	r3, [r4, #36]
 292              	.LVL26:
 293              	.L16:
 530:lvgl/src/draw/lv_img_decoder.c ****     }
ARM GAS  C:\Users\OSD\AppData\Local\Temp\ccYTBKz7.s 			page 16


 531:lvgl/src/draw/lv_img_decoder.c **** }
 294              		.loc 1 531 1 view .LVU80
 295 0028 38BD     		pop	{r3, r4, r5, pc}
 296              	.LVL27:
 297              	.L22:
 523:lvgl/src/draw/lv_img_decoder.c ****         }
 298              		.loc 1 523 13 is_stmt 1 view .LVU81
 299 002a 2846     		mov	r0, r5
 300              	.LVL28:
 523:lvgl/src/draw/lv_img_decoder.c ****         }
 301              		.loc 1 523 13 is_stmt 0 view .LVU82
 302 002c FFF7FEFF 		bl	lv_fs_close
 303              	.LVL29:
 523:lvgl/src/draw/lv_img_decoder.c ****         }
 304              		.loc 1 523 13 view .LVU83
 305 0030 EDE7     		b	.L18
 306              		.cfi_endproc
 307              	.LFE70:
 309              		.section	.text.lv_img_decoder_built_in_open,"ax",%progbits
 310              		.align	1
 311              		.global	lv_img_decoder_built_in_open
 312              		.syntax unified
 313              		.thumb
 314              		.thumb_func
 316              	lv_img_decoder_built_in_open:
 317              	.LVL30:
 318              	.LFB68:
 327:lvgl/src/draw/lv_img_decoder.c ****     /*Open the file if it's a file*/
 319              		.loc 1 327 1 is_stmt 1 view -0
 320              		.cfi_startproc
 321              		@ args = 0, pretend = 0, frame = 16
 322              		@ frame_needed = 0, uses_anonymous_args = 0
 327:lvgl/src/draw/lv_img_decoder.c ****     /*Open the file if it's a file*/
 323              		.loc 1 327 1 is_stmt 0 view .LVU85
 324 0000 2DE9F047 		push	{r4, r5, r6, r7, r8, r9, r10, lr}
 325              		.cfi_def_cfa_offset 32
 326              		.cfi_offset 4, -32
 327              		.cfi_offset 5, -28
 328              		.cfi_offset 6, -24
 329              		.cfi_offset 7, -20
 330              		.cfi_offset 8, -16
 331              		.cfi_offset 9, -12
 332              		.cfi_offset 10, -8
 333              		.cfi_offset 14, -4
 334 0004 84B0     		sub	sp, sp, #16
 335              		.cfi_def_cfa_offset 48
 336 0006 0546     		mov	r5, r0
 337 0008 0C46     		mov	r4, r1
 329:lvgl/src/draw/lv_img_decoder.c ****         /*Support only "*.bin" files*/
 338              		.loc 1 329 5 is_stmt 1 view .LVU86
 329:lvgl/src/draw/lv_img_decoder.c ****         /*Support only "*.bin" files*/
 339              		.loc 1 329 11 is_stmt 0 view .LVU87
 340 000a 087C     		ldrb	r0, [r1, #16]	@ zero_extendqisi2
 341              	.LVL31:
 329:lvgl/src/draw/lv_img_decoder.c ****         /*Support only "*.bin" files*/
 342              		.loc 1 329 7 view .LVU88
 343 000c 0128     		cmp	r0, #1
ARM GAS  C:\Users\OSD\AppData\Local\Temp\ccYTBKz7.s 			page 17


 344 000e 33D0     		beq	.L58
 355:lvgl/src/draw/lv_img_decoder.c ****         /*The variables should have valid data*/
 345              		.loc 1 355 10 is_stmt 1 view .LVU89
 355:lvgl/src/draw/lv_img_decoder.c ****         /*The variables should have valid data*/
 346              		.loc 1 355 12 is_stmt 0 view .LVU90
 347 0010 18B9     		cbnz	r0, .L31
 357:lvgl/src/draw/lv_img_decoder.c ****             return LV_RES_INV;
 348              		.loc 1 357 9 is_stmt 1 view .LVU91
 357:lvgl/src/draw/lv_img_decoder.c ****             return LV_RES_INV;
 349              		.loc 1 357 32 is_stmt 0 view .LVU92
 350 0012 4B68     		ldr	r3, [r1, #4]
 357:lvgl/src/draw/lv_img_decoder.c ****             return LV_RES_INV;
 351              		.loc 1 357 38 view .LVU93
 352 0014 9B68     		ldr	r3, [r3, #8]
 357:lvgl/src/draw/lv_img_decoder.c ****             return LV_RES_INV;
 353              		.loc 1 357 11 view .LVU94
 354 0016 002B     		cmp	r3, #0
 355 0018 36D0     		beq	.L32
 356              	.LVL32:
 357              	.L31:
 362:lvgl/src/draw/lv_img_decoder.c ****     /*Process A8,  RGB565A8, need load file to ram after https://github.com/lvgl/lvgl/pull/3337*/
 358              		.loc 1 362 5 is_stmt 1 view .LVU95
 362:lvgl/src/draw/lv_img_decoder.c ****     /*Process A8,  RGB565A8, need load file to ram after https://github.com/lvgl/lvgl/pull/3337*/
 359              		.loc 1 362 33 is_stmt 0 view .LVU96
 360 001a 237D     		ldrb	r3, [r4, #20]	@ zero_extendqisi2
 361 001c 03F01F00 		and	r0, r3, #31
 362              	.LVL33:
 364:lvgl/src/draw/lv_img_decoder.c ****         if(dsc->src_type == LV_IMG_SRC_VARIABLE) {
 363              		.loc 1 364 5 is_stmt 1 view .LVU97
 364:lvgl/src/draw/lv_img_decoder.c ****         if(dsc->src_type == LV_IMG_SRC_VARIABLE) {
 364              		.loc 1 364 7 is_stmt 0 view .LVU98
 365 0020 1428     		cmp	r0, #20
 366 0022 18BF     		it	ne
 367 0024 0E28     		cmpne	r0, #14
 368 0026 5DD1     		bne	.L33
 365:lvgl/src/draw/lv_img_decoder.c ****             /*In case of uncompressed formats the image stored in the ROM/RAM.
 369              		.loc 1 365 9 is_stmt 1 view .LVU99
 365:lvgl/src/draw/lv_img_decoder.c ****             /*In case of uncompressed formats the image stored in the ROM/RAM.
 370              		.loc 1 365 15 is_stmt 0 view .LVU100
 371 0028 227C     		ldrb	r2, [r4, #16]	@ zero_extendqisi2
 365:lvgl/src/draw/lv_img_decoder.c ****             /*In case of uncompressed formats the image stored in the ROM/RAM.
 372              		.loc 1 365 11 view .LVU101
 373 002a 002A     		cmp	r2, #0
 374 002c 4ED0     		beq	.L59
 375              	.LBB16:
 373:lvgl/src/draw/lv_img_decoder.c ****             len *= cf == LV_IMG_CF_RGB565A8 ? 3 : 1;
 376              		.loc 1 373 13 is_stmt 1 view .LVU102
 373:lvgl/src/draw/lv_img_decoder.c ****             len *= cf == LV_IMG_CF_RGB565A8 ? 3 : 1;
 377              		.loc 1 373 39 is_stmt 0 view .LVU103
 378 002e 6269     		ldr	r2, [r4, #20]
 379 0030 C2F38A22 		ubfx	r2, r2, #10, #11
 373:lvgl/src/draw/lv_img_decoder.c ****             len *= cf == LV_IMG_CF_RGB565A8 ? 3 : 1;
 380              		.loc 1 373 55 view .LVU104
 381 0034 E18A     		ldrh	r1, [r4, #22]
 382 0036 C1F34A11 		ubfx	r1, r1, #5, #11
 373:lvgl/src/draw/lv_img_decoder.c ****             len *= cf == LV_IMG_CF_RGB565A8 ? 3 : 1;
 383              		.loc 1 373 42 view .LVU105
ARM GAS  C:\Users\OSD\AppData\Local\Temp\ccYTBKz7.s 			page 18


 384 003a 01FB02F2 		mul	r2, r1, r2
 385              	.LVL34:
 374:lvgl/src/draw/lv_img_decoder.c ****             uint8_t * fs_buf = lv_mem_alloc(len);
 386              		.loc 1 374 13 is_stmt 1 view .LVU106
 374:lvgl/src/draw/lv_img_decoder.c ****             uint8_t * fs_buf = lv_mem_alloc(len);
 387              		.loc 1 374 49 is_stmt 0 view .LVU107
 388 003e 1428     		cmp	r0, #20
 389 0040 49D0     		beq	.L60
 390 0042 0125     		movs	r5, #1
 391              	.LVL35:
 392              	.L35:
 374:lvgl/src/draw/lv_img_decoder.c ****             uint8_t * fs_buf = lv_mem_alloc(len);
 393              		.loc 1 374 17 discriminator 4 view .LVU108
 394 0044 02FB05F5 		mul	r5, r2, r5
 395              	.LVL36:
 375:lvgl/src/draw/lv_img_decoder.c ****             if(fs_buf == NULL) return LV_RES_INV;
 396              		.loc 1 375 13 is_stmt 1 discriminator 4 view .LVU109
 375:lvgl/src/draw/lv_img_decoder.c ****             if(fs_buf == NULL) return LV_RES_INV;
 397              		.loc 1 375 32 is_stmt 0 discriminator 4 view .LVU110
 398 0048 2846     		mov	r0, r5
 399 004a FFF7FEFF 		bl	lv_mem_alloc
 400              	.LVL37:
 376:lvgl/src/draw/lv_img_decoder.c **** 
 401              		.loc 1 376 13 is_stmt 1 discriminator 4 view .LVU111
 376:lvgl/src/draw/lv_img_decoder.c **** 
 402              		.loc 1 376 15 is_stmt 0 discriminator 4 view .LVU112
 403 004e 0646     		mov	r6, r0
 404 0050 0028     		cmp	r0, #0
 405 0052 00F0DD80 		beq	.L54
 378:lvgl/src/draw/lv_img_decoder.c ****             lv_fs_seek(&user_data->f, 4, LV_FS_SEEK_SET); /*+4 to skip the header*/
 406              		.loc 1 378 13 is_stmt 1 view .LVU113
 378:lvgl/src/draw/lv_img_decoder.c ****             lv_fs_seek(&user_data->f, 4, LV_FS_SEEK_SET); /*+4 to skip the header*/
 407              		.loc 1 378 46 is_stmt 0 view .LVU114
 408 0056 676A     		ldr	r7, [r4, #36]
 409              	.LVL38:
 379:lvgl/src/draw/lv_img_decoder.c ****             lv_fs_res_t res = lv_fs_read(&user_data->f, fs_buf, len, NULL);
 410              		.loc 1 379 13 is_stmt 1 view .LVU115
 411 0058 0022     		movs	r2, #0
 412 005a 0421     		movs	r1, #4
 413 005c 3846     		mov	r0, r7
 414              	.LVL39:
 379:lvgl/src/draw/lv_img_decoder.c ****             lv_fs_res_t res = lv_fs_read(&user_data->f, fs_buf, len, NULL);
 415              		.loc 1 379 13 is_stmt 0 view .LVU116
 416 005e FFF7FEFF 		bl	lv_fs_seek
 417              	.LVL40:
 380:lvgl/src/draw/lv_img_decoder.c ****             if(res != LV_FS_RES_OK) {
 418              		.loc 1 380 13 is_stmt 1 view .LVU117
 380:lvgl/src/draw/lv_img_decoder.c ****             if(res != LV_FS_RES_OK) {
 419              		.loc 1 380 31 is_stmt 0 view .LVU118
 420 0062 0023     		movs	r3, #0
 421 0064 2A46     		mov	r2, r5
 422 0066 3146     		mov	r1, r6
 423 0068 3846     		mov	r0, r7
 424 006a FFF7FEFF 		bl	lv_fs_read
 425              	.LVL41:
 381:lvgl/src/draw/lv_img_decoder.c ****                 lv_mem_free(fs_buf);
 426              		.loc 1 381 13 is_stmt 1 view .LVU119
ARM GAS  C:\Users\OSD\AppData\Local\Temp\ccYTBKz7.s 			page 19


 381:lvgl/src/draw/lv_img_decoder.c ****                 lv_mem_free(fs_buf);
 427              		.loc 1 381 15 is_stmt 0 view .LVU120
 428 006e 0028     		cmp	r0, #0
 429 0070 33D1     		bne	.L61
 385:lvgl/src/draw/lv_img_decoder.c ****             return LV_RES_OK;
 430              		.loc 1 385 13 is_stmt 1 view .LVU121
 385:lvgl/src/draw/lv_img_decoder.c ****             return LV_RES_OK;
 431              		.loc 1 385 27 is_stmt 0 view .LVU122
 432 0072 A661     		str	r6, [r4, #24]
 386:lvgl/src/draw/lv_img_decoder.c ****         }
 433              		.loc 1 386 13 is_stmt 1 view .LVU123
 386:lvgl/src/draw/lv_img_decoder.c ****         }
 434              		.loc 1 386 20 is_stmt 0 view .LVU124
 435 0074 0120     		movs	r0, #1
 436              	.LVL42:
 386:lvgl/src/draw/lv_img_decoder.c ****         }
 437              		.loc 1 386 20 view .LVU125
 438 0076 07E0     		b	.L32
 439              	.LVL43:
 440              	.L58:
 386:lvgl/src/draw/lv_img_decoder.c ****         }
 441              		.loc 1 386 20 view .LVU126
 442              	.LBE16:
 443              	.LBB17:
 331:lvgl/src/draw/lv_img_decoder.c **** 
 444              		.loc 1 331 9 is_stmt 1 view .LVU127
 331:lvgl/src/draw/lv_img_decoder.c **** 
 445              		.loc 1 331 12 is_stmt 0 view .LVU128
 446 0078 4868     		ldr	r0, [r1, #4]
 447 007a FFF7FEFF 		bl	lv_fs_get_ext
 448              	.LVL44:
 331:lvgl/src/draw/lv_img_decoder.c **** 
 449              		.loc 1 331 12 view .LVU129
 450 007e 6649     		ldr	r1, .L69
 451 0080 FFF7FEFF 		bl	strcmp
 452              	.LVL45:
 331:lvgl/src/draw/lv_img_decoder.c **** 
 453              		.loc 1 331 11 view .LVU130
 454 0084 18B1     		cbz	r0, .L62
 455              	.L25:
 331:lvgl/src/draw/lv_img_decoder.c **** 
 456              		.loc 1 331 59 discriminator 2 view .LVU131
 457 0086 0020     		movs	r0, #0
 458              	.LVL46:
 459              	.L32:
 331:lvgl/src/draw/lv_img_decoder.c **** 
 460              		.loc 1 331 59 discriminator 2 view .LVU132
 461              	.LBE17:
 467:lvgl/src/draw/lv_img_decoder.c **** 
 462              		.loc 1 467 1 view .LVU133
 463 0088 04B0     		add	sp, sp, #16
 464              		.cfi_remember_state
 465              		.cfi_def_cfa_offset 32
 466              		@ sp needed
 467 008a BDE8F087 		pop	{r4, r5, r6, r7, r8, r9, r10, pc}
 468              	.LVL47:
 469              	.L62:
ARM GAS  C:\Users\OSD\AppData\Local\Temp\ccYTBKz7.s 			page 20


 470              		.cfi_restore_state
 471              	.LBB22:
 333:lvgl/src/draw/lv_img_decoder.c ****         lv_fs_res_t res = lv_fs_open(&f, dsc->src, LV_FS_MODE_RD);
 472              		.loc 1 333 9 is_stmt 1 view .LVU134
 334:lvgl/src/draw/lv_img_decoder.c ****         if(res != LV_FS_RES_OK) {
 473              		.loc 1 334 9 view .LVU135
 334:lvgl/src/draw/lv_img_decoder.c ****         if(res != LV_FS_RES_OK) {
 474              		.loc 1 334 27 is_stmt 0 view .LVU136
 475 008e 0222     		movs	r2, #2
 476 0090 6168     		ldr	r1, [r4, #4]
 477 0092 01A8     		add	r0, sp, #4
 478 0094 FFF7FEFF 		bl	lv_fs_open
 479              	.LVL48:
 335:lvgl/src/draw/lv_img_decoder.c ****             LV_LOG_WARN("Built-in image decoder can't open the file");
 480              		.loc 1 335 9 is_stmt 1 view .LVU137
 335:lvgl/src/draw/lv_img_decoder.c ****             LV_LOG_WARN("Built-in image decoder can't open the file");
 481              		.loc 1 335 11 is_stmt 0 view .LVU138
 482 0098 0028     		cmp	r0, #0
 483 009a F4D1     		bne	.L25
 341:lvgl/src/draw/lv_img_decoder.c ****             dsc->user_data = lv_mem_alloc(sizeof(lv_img_decoder_built_in_data_t));
 484              		.loc 1 341 9 is_stmt 1 view .LVU139
 341:lvgl/src/draw/lv_img_decoder.c ****             dsc->user_data = lv_mem_alloc(sizeof(lv_img_decoder_built_in_data_t));
 485              		.loc 1 341 15 is_stmt 0 view .LVU140
 486 009c 636A     		ldr	r3, [r4, #36]
 341:lvgl/src/draw/lv_img_decoder.c ****             dsc->user_data = lv_mem_alloc(sizeof(lv_img_decoder_built_in_data_t));
 487              		.loc 1 341 11 view .LVU141
 488 009e 1BB1     		cbz	r3, .L63
 489              	.LVL49:
 490              	.L26:
 352:lvgl/src/draw/lv_img_decoder.c ****         lv_memcpy_small(&user_data->f, &f, sizeof(f));
 491              		.loc 1 352 9 is_stmt 1 view .LVU142
 352:lvgl/src/draw/lv_img_decoder.c ****         lv_memcpy_small(&user_data->f, &f, sizeof(f));
 492              		.loc 1 352 42 is_stmt 0 view .LVU143
 493 00a0 616A     		ldr	r1, [r4, #36]
 353:lvgl/src/draw/lv_img_decoder.c ****     }
 494              		.loc 1 353 9 is_stmt 1 view .LVU144
 495              	.LVL50:
 496              	.LBB18:
 497              	.LBI18:
 498              		.file 2 "lvgl/src/draw/../misc/lv_mem.h"
   1:lvgl/src/draw/../misc/lv_mem.h **** /**
   2:lvgl/src/draw/../misc/lv_mem.h ****  * @file lv_mem.h
   3:lvgl/src/draw/../misc/lv_mem.h ****  *
   4:lvgl/src/draw/../misc/lv_mem.h ****  */
   5:lvgl/src/draw/../misc/lv_mem.h **** 
   6:lvgl/src/draw/../misc/lv_mem.h **** #ifndef LV_MEM_H
   7:lvgl/src/draw/../misc/lv_mem.h **** #define LV_MEM_H
   8:lvgl/src/draw/../misc/lv_mem.h **** 
   9:lvgl/src/draw/../misc/lv_mem.h **** #ifdef __cplusplus
  10:lvgl/src/draw/../misc/lv_mem.h **** extern "C" {
  11:lvgl/src/draw/../misc/lv_mem.h **** #endif
  12:lvgl/src/draw/../misc/lv_mem.h **** 
  13:lvgl/src/draw/../misc/lv_mem.h **** /*********************
  14:lvgl/src/draw/../misc/lv_mem.h ****  *      INCLUDES
  15:lvgl/src/draw/../misc/lv_mem.h ****  *********************/
  16:lvgl/src/draw/../misc/lv_mem.h **** #include "../lv_conf_internal.h"
  17:lvgl/src/draw/../misc/lv_mem.h **** 
ARM GAS  C:\Users\OSD\AppData\Local\Temp\ccYTBKz7.s 			page 21


  18:lvgl/src/draw/../misc/lv_mem.h **** #include <stdint.h>
  19:lvgl/src/draw/../misc/lv_mem.h **** #include <stddef.h>
  20:lvgl/src/draw/../misc/lv_mem.h **** #include <string.h>
  21:lvgl/src/draw/../misc/lv_mem.h **** 
  22:lvgl/src/draw/../misc/lv_mem.h **** #include "lv_types.h"
  23:lvgl/src/draw/../misc/lv_mem.h **** 
  24:lvgl/src/draw/../misc/lv_mem.h **** /*********************
  25:lvgl/src/draw/../misc/lv_mem.h ****  *      DEFINES
  26:lvgl/src/draw/../misc/lv_mem.h ****  *********************/
  27:lvgl/src/draw/../misc/lv_mem.h **** 
  28:lvgl/src/draw/../misc/lv_mem.h **** /**********************
  29:lvgl/src/draw/../misc/lv_mem.h ****  *      TYPEDEFS
  30:lvgl/src/draw/../misc/lv_mem.h ****  **********************/
  31:lvgl/src/draw/../misc/lv_mem.h **** 
  32:lvgl/src/draw/../misc/lv_mem.h **** /**
  33:lvgl/src/draw/../misc/lv_mem.h ****  * Heap information structure.
  34:lvgl/src/draw/../misc/lv_mem.h ****  */
  35:lvgl/src/draw/../misc/lv_mem.h **** typedef struct {
  36:lvgl/src/draw/../misc/lv_mem.h ****     uint32_t total_size; /**< Total heap size*/
  37:lvgl/src/draw/../misc/lv_mem.h ****     uint32_t free_cnt;
  38:lvgl/src/draw/../misc/lv_mem.h ****     uint32_t free_size; /**< Size of available memory*/
  39:lvgl/src/draw/../misc/lv_mem.h ****     uint32_t free_biggest_size;
  40:lvgl/src/draw/../misc/lv_mem.h ****     uint32_t used_cnt;
  41:lvgl/src/draw/../misc/lv_mem.h ****     uint32_t max_used; /**< Max size of Heap memory used*/
  42:lvgl/src/draw/../misc/lv_mem.h ****     uint8_t used_pct; /**< Percentage used*/
  43:lvgl/src/draw/../misc/lv_mem.h ****     uint8_t frag_pct; /**< Amount of fragmentation*/
  44:lvgl/src/draw/../misc/lv_mem.h **** } lv_mem_monitor_t;
  45:lvgl/src/draw/../misc/lv_mem.h **** 
  46:lvgl/src/draw/../misc/lv_mem.h **** typedef struct {
  47:lvgl/src/draw/../misc/lv_mem.h ****     void * p;
  48:lvgl/src/draw/../misc/lv_mem.h ****     uint16_t size;
  49:lvgl/src/draw/../misc/lv_mem.h ****     uint8_t used : 1;
  50:lvgl/src/draw/../misc/lv_mem.h **** } lv_mem_buf_t;
  51:lvgl/src/draw/../misc/lv_mem.h **** 
  52:lvgl/src/draw/../misc/lv_mem.h **** typedef lv_mem_buf_t lv_mem_buf_arr_t[LV_MEM_BUF_MAX_NUM];
  53:lvgl/src/draw/../misc/lv_mem.h **** 
  54:lvgl/src/draw/../misc/lv_mem.h **** /**********************
  55:lvgl/src/draw/../misc/lv_mem.h ****  * GLOBAL PROTOTYPES
  56:lvgl/src/draw/../misc/lv_mem.h ****  **********************/
  57:lvgl/src/draw/../misc/lv_mem.h **** 
  58:lvgl/src/draw/../misc/lv_mem.h **** /**
  59:lvgl/src/draw/../misc/lv_mem.h ****  * Initialize the dyn_mem module (work memory and other variables)
  60:lvgl/src/draw/../misc/lv_mem.h ****  */
  61:lvgl/src/draw/../misc/lv_mem.h **** void lv_mem_init(void);
  62:lvgl/src/draw/../misc/lv_mem.h **** 
  63:lvgl/src/draw/../misc/lv_mem.h **** /**
  64:lvgl/src/draw/../misc/lv_mem.h ****  * Clean up the memory buffer which frees all the allocated memories.
  65:lvgl/src/draw/../misc/lv_mem.h ****  * @note It work only if `LV_MEM_CUSTOM == 0`
  66:lvgl/src/draw/../misc/lv_mem.h ****  */
  67:lvgl/src/draw/../misc/lv_mem.h **** void lv_mem_deinit(void);
  68:lvgl/src/draw/../misc/lv_mem.h **** 
  69:lvgl/src/draw/../misc/lv_mem.h **** /**
  70:lvgl/src/draw/../misc/lv_mem.h ****  * Allocate a memory dynamically
  71:lvgl/src/draw/../misc/lv_mem.h ****  * @param size size of the memory to allocate in bytes
  72:lvgl/src/draw/../misc/lv_mem.h ****  * @return pointer to the allocated memory
  73:lvgl/src/draw/../misc/lv_mem.h ****  */
  74:lvgl/src/draw/../misc/lv_mem.h **** void * lv_mem_alloc(size_t size);
ARM GAS  C:\Users\OSD\AppData\Local\Temp\ccYTBKz7.s 			page 22


  75:lvgl/src/draw/../misc/lv_mem.h **** 
  76:lvgl/src/draw/../misc/lv_mem.h **** /**
  77:lvgl/src/draw/../misc/lv_mem.h ****  * Free an allocated data
  78:lvgl/src/draw/../misc/lv_mem.h ****  * @param data pointer to an allocated memory
  79:lvgl/src/draw/../misc/lv_mem.h ****  */
  80:lvgl/src/draw/../misc/lv_mem.h **** void lv_mem_free(void * data);
  81:lvgl/src/draw/../misc/lv_mem.h **** 
  82:lvgl/src/draw/../misc/lv_mem.h **** /**
  83:lvgl/src/draw/../misc/lv_mem.h ****  * Reallocate a memory with a new size. The old content will be kept.
  84:lvgl/src/draw/../misc/lv_mem.h ****  * @param data pointer to an allocated memory.
  85:lvgl/src/draw/../misc/lv_mem.h ****  * Its content will be copied to the new memory block and freed
  86:lvgl/src/draw/../misc/lv_mem.h ****  * @param new_size the desired new size in byte
  87:lvgl/src/draw/../misc/lv_mem.h ****  * @return pointer to the new memory, NULL on failure
  88:lvgl/src/draw/../misc/lv_mem.h ****  */
  89:lvgl/src/draw/../misc/lv_mem.h **** void * lv_mem_realloc(void * data_p, size_t new_size);
  90:lvgl/src/draw/../misc/lv_mem.h **** 
  91:lvgl/src/draw/../misc/lv_mem.h **** /**
  92:lvgl/src/draw/../misc/lv_mem.h ****  *
  93:lvgl/src/draw/../misc/lv_mem.h ****  * @return
  94:lvgl/src/draw/../misc/lv_mem.h ****  */
  95:lvgl/src/draw/../misc/lv_mem.h **** lv_res_t lv_mem_test(void);
  96:lvgl/src/draw/../misc/lv_mem.h **** 
  97:lvgl/src/draw/../misc/lv_mem.h **** /**
  98:lvgl/src/draw/../misc/lv_mem.h ****  * Give information about the work memory of dynamic allocation
  99:lvgl/src/draw/../misc/lv_mem.h ****  * @param mon_p pointer to a lv_mem_monitor_t variable,
 100:lvgl/src/draw/../misc/lv_mem.h ****  *              the result of the analysis will be stored here
 101:lvgl/src/draw/../misc/lv_mem.h ****  */
 102:lvgl/src/draw/../misc/lv_mem.h **** void lv_mem_monitor(lv_mem_monitor_t * mon_p);
 103:lvgl/src/draw/../misc/lv_mem.h **** 
 104:lvgl/src/draw/../misc/lv_mem.h **** /**
 105:lvgl/src/draw/../misc/lv_mem.h ****  * Get a temporal buffer with the given size.
 106:lvgl/src/draw/../misc/lv_mem.h ****  * @param size the required size
 107:lvgl/src/draw/../misc/lv_mem.h ****  */
 108:lvgl/src/draw/../misc/lv_mem.h **** void * lv_mem_buf_get(uint32_t size);
 109:lvgl/src/draw/../misc/lv_mem.h **** 
 110:lvgl/src/draw/../misc/lv_mem.h **** /**
 111:lvgl/src/draw/../misc/lv_mem.h ****  * Release a memory buffer
 112:lvgl/src/draw/../misc/lv_mem.h ****  * @param p buffer to release
 113:lvgl/src/draw/../misc/lv_mem.h ****  */
 114:lvgl/src/draw/../misc/lv_mem.h **** void lv_mem_buf_release(void * p);
 115:lvgl/src/draw/../misc/lv_mem.h **** 
 116:lvgl/src/draw/../misc/lv_mem.h **** /**
 117:lvgl/src/draw/../misc/lv_mem.h ****  * Free all memory buffers
 118:lvgl/src/draw/../misc/lv_mem.h ****  */
 119:lvgl/src/draw/../misc/lv_mem.h **** void lv_mem_buf_free_all(void);
 120:lvgl/src/draw/../misc/lv_mem.h **** 
 121:lvgl/src/draw/../misc/lv_mem.h **** //! @cond Doxygen_Suppress
 122:lvgl/src/draw/../misc/lv_mem.h **** 
 123:lvgl/src/draw/../misc/lv_mem.h **** #if LV_MEMCPY_MEMSET_STD
 124:lvgl/src/draw/../misc/lv_mem.h **** 
 125:lvgl/src/draw/../misc/lv_mem.h **** /**
 126:lvgl/src/draw/../misc/lv_mem.h ****  * Wrapper for the standard memcpy
 127:lvgl/src/draw/../misc/lv_mem.h ****  * @param dst pointer to the destination buffer
 128:lvgl/src/draw/../misc/lv_mem.h ****  * @param src pointer to the source buffer
 129:lvgl/src/draw/../misc/lv_mem.h ****  * @param len number of byte to copy
 130:lvgl/src/draw/../misc/lv_mem.h ****  */
 131:lvgl/src/draw/../misc/lv_mem.h **** static inline void * lv_memcpy(void * dst, const void * src, size_t len)
ARM GAS  C:\Users\OSD\AppData\Local\Temp\ccYTBKz7.s 			page 23


 132:lvgl/src/draw/../misc/lv_mem.h **** {
 133:lvgl/src/draw/../misc/lv_mem.h ****     return memcpy(dst, src, len);
 134:lvgl/src/draw/../misc/lv_mem.h **** }
 135:lvgl/src/draw/../misc/lv_mem.h **** 
 136:lvgl/src/draw/../misc/lv_mem.h **** /**
 137:lvgl/src/draw/../misc/lv_mem.h ****  * Wrapper for the standard memcpy
 138:lvgl/src/draw/../misc/lv_mem.h ****  * @param dst pointer to the destination buffer
 139:lvgl/src/draw/../misc/lv_mem.h ****  * @param src pointer to the source buffer
 140:lvgl/src/draw/../misc/lv_mem.h ****  * @param len number of byte to copy
 141:lvgl/src/draw/../misc/lv_mem.h ****  */
 142:lvgl/src/draw/../misc/lv_mem.h **** static inline void * lv_memcpy_small(void * dst, const void * src, size_t len)
 143:lvgl/src/draw/../misc/lv_mem.h **** {
 144:lvgl/src/draw/../misc/lv_mem.h ****     return memcpy(dst, src, len);
 145:lvgl/src/draw/../misc/lv_mem.h **** }
 146:lvgl/src/draw/../misc/lv_mem.h **** 
 147:lvgl/src/draw/../misc/lv_mem.h **** /**
 148:lvgl/src/draw/../misc/lv_mem.h ****  * Wrapper for the standard memset
 149:lvgl/src/draw/../misc/lv_mem.h ****  * @param dst pointer to the destination buffer
 150:lvgl/src/draw/../misc/lv_mem.h ****  * @param v value to set [0..255]
 151:lvgl/src/draw/../misc/lv_mem.h ****  * @param len number of byte to set
 152:lvgl/src/draw/../misc/lv_mem.h ****  */
 153:lvgl/src/draw/../misc/lv_mem.h **** static inline void lv_memset(void * dst, uint8_t v, size_t len)
 154:lvgl/src/draw/../misc/lv_mem.h **** {
 155:lvgl/src/draw/../misc/lv_mem.h ****     memset(dst, v, len);
 156:lvgl/src/draw/../misc/lv_mem.h **** }
 157:lvgl/src/draw/../misc/lv_mem.h **** 
 158:lvgl/src/draw/../misc/lv_mem.h **** /**
 159:lvgl/src/draw/../misc/lv_mem.h ****  * Wrapper for the standard memset with fixed 0x00 value
 160:lvgl/src/draw/../misc/lv_mem.h ****  * @param dst pointer to the destination buffer
 161:lvgl/src/draw/../misc/lv_mem.h ****  * @param len number of byte to set
 162:lvgl/src/draw/../misc/lv_mem.h ****  */
 163:lvgl/src/draw/../misc/lv_mem.h **** static inline void lv_memset_00(void * dst, size_t len)
 164:lvgl/src/draw/../misc/lv_mem.h **** {
 165:lvgl/src/draw/../misc/lv_mem.h ****     memset(dst, 0x00, len);
 166:lvgl/src/draw/../misc/lv_mem.h **** }
 167:lvgl/src/draw/../misc/lv_mem.h **** 
 168:lvgl/src/draw/../misc/lv_mem.h **** /**
 169:lvgl/src/draw/../misc/lv_mem.h ****  * Wrapper for the standard memset with fixed 0xFF value
 170:lvgl/src/draw/../misc/lv_mem.h ****  * @param dst pointer to the destination buffer
 171:lvgl/src/draw/../misc/lv_mem.h ****  * @param len number of byte to set
 172:lvgl/src/draw/../misc/lv_mem.h ****  */
 173:lvgl/src/draw/../misc/lv_mem.h **** static inline void lv_memset_ff(void * dst, size_t len)
 174:lvgl/src/draw/../misc/lv_mem.h **** {
 175:lvgl/src/draw/../misc/lv_mem.h ****     memset(dst, 0xFF, len);
 176:lvgl/src/draw/../misc/lv_mem.h **** }
 177:lvgl/src/draw/../misc/lv_mem.h **** 
 178:lvgl/src/draw/../misc/lv_mem.h **** #else
 179:lvgl/src/draw/../misc/lv_mem.h **** /**
 180:lvgl/src/draw/../misc/lv_mem.h ****  * Same as `memcpy` but optimized for 4 byte operation.
 181:lvgl/src/draw/../misc/lv_mem.h ****  * @param dst pointer to the destination buffer
 182:lvgl/src/draw/../misc/lv_mem.h ****  * @param src pointer to the source buffer
 183:lvgl/src/draw/../misc/lv_mem.h ****  * @param len number of byte to copy
 184:lvgl/src/draw/../misc/lv_mem.h ****  */
 185:lvgl/src/draw/../misc/lv_mem.h **** void * /* LV_ATTRIBUTE_FAST_MEM */ lv_memcpy(void * dst, const void * src, size_t len);
 186:lvgl/src/draw/../misc/lv_mem.h **** 
 187:lvgl/src/draw/../misc/lv_mem.h **** /**
 188:lvgl/src/draw/../misc/lv_mem.h ****  * Same as `memcpy` but optimized to copy only a few bytes.
ARM GAS  C:\Users\OSD\AppData\Local\Temp\ccYTBKz7.s 			page 24


 189:lvgl/src/draw/../misc/lv_mem.h ****  * @param dst pointer to the destination buffer
 190:lvgl/src/draw/../misc/lv_mem.h ****  * @param src pointer to the source buffer
 191:lvgl/src/draw/../misc/lv_mem.h ****  * @param len number of byte to copy
 192:lvgl/src/draw/../misc/lv_mem.h ****  */
 193:lvgl/src/draw/../misc/lv_mem.h **** static inline void * LV_ATTRIBUTE_FAST_MEM lv_memcpy_small(void * dst, const void * src, size_t len
 499              		.loc 2 193 44 view .LVU145
 500              	.LBB19:
 194:lvgl/src/draw/../misc/lv_mem.h **** {
 195:lvgl/src/draw/../misc/lv_mem.h ****     uint8_t * d8 = (uint8_t *)dst;
 501              		.loc 2 195 5 view .LVU146
 196:lvgl/src/draw/../misc/lv_mem.h ****     const uint8_t * s8 = (const uint8_t *)src;
 502              		.loc 2 196 5 view .LVU147
 197:lvgl/src/draw/../misc/lv_mem.h **** 
 198:lvgl/src/draw/../misc/lv_mem.h ****     while(len) {
 503              		.loc 2 198 5 view .LVU148
 196:lvgl/src/draw/../misc/lv_mem.h ****     const uint8_t * s8 = (const uint8_t *)src;
 504              		.loc 2 196 21 is_stmt 0 view .LVU149
 505 00a2 01AA     		add	r2, sp, #4
 506              	.LVL51:
 507              		.loc 2 198 10 view .LVU150
 508 00a4 0C23     		movs	r3, #12
 509 00a6 0EE0     		b	.L29
 510              	.LVL52:
 511              	.L63:
 512              		.loc 2 198 10 view .LVU151
 513              	.LBE19:
 514              	.LBE18:
 342:lvgl/src/draw/lv_img_decoder.c ****             LV_ASSERT_MALLOC(dsc->user_data);
 515              		.loc 1 342 13 is_stmt 1 view .LVU152
 342:lvgl/src/draw/lv_img_decoder.c ****             LV_ASSERT_MALLOC(dsc->user_data);
 516              		.loc 1 342 30 is_stmt 0 view .LVU153
 517 00a8 1420     		movs	r0, #20
 518              	.LVL53:
 342:lvgl/src/draw/lv_img_decoder.c ****             LV_ASSERT_MALLOC(dsc->user_data);
 519              		.loc 1 342 30 view .LVU154
 520 00aa FFF7FEFF 		bl	lv_mem_alloc
 521              	.LVL54:
 342:lvgl/src/draw/lv_img_decoder.c ****             LV_ASSERT_MALLOC(dsc->user_data);
 522              		.loc 1 342 28 view .LVU155
 523 00ae 6062     		str	r0, [r4, #36]
 343:lvgl/src/draw/lv_img_decoder.c ****             if(dsc->user_data == NULL) {
 524              		.loc 1 343 13 is_stmt 1 view .LVU156
 343:lvgl/src/draw/lv_img_decoder.c ****             if(dsc->user_data == NULL) {
 525              		.loc 1 343 13 view .LVU157
 526 00b0 18B1     		cbz	r0, .L28
 343:lvgl/src/draw/lv_img_decoder.c ****             if(dsc->user_data == NULL) {
 527              		.loc 1 343 13 view .LVU158
 343:lvgl/src/draw/lv_img_decoder.c ****             if(dsc->user_data == NULL) {
 528              		.loc 1 343 45 view .LVU159
 344:lvgl/src/draw/lv_img_decoder.c ****                 LV_LOG_ERROR("img_decoder_built_in_open: out of memory");
 529              		.loc 1 344 13 view .LVU160
 349:lvgl/src/draw/lv_img_decoder.c ****         }
 530              		.loc 1 349 13 view .LVU161
 531 00b2 1421     		movs	r1, #20
 532 00b4 FFF7FEFF 		bl	lv_memset_00
 533              	.LVL55:
 534 00b8 F2E7     		b	.L26
ARM GAS  C:\Users\OSD\AppData\Local\Temp\ccYTBKz7.s 			page 25


 535              	.L28:
 343:lvgl/src/draw/lv_img_decoder.c ****             if(dsc->user_data == NULL) {
 536              		.loc 1 343 13 discriminator 1 view .LVU162
 343:lvgl/src/draw/lv_img_decoder.c ****             if(dsc->user_data == NULL) {
 537              		.loc 1 343 13 discriminator 1 view .LVU163
 343:lvgl/src/draw/lv_img_decoder.c ****             if(dsc->user_data == NULL) {
 538              		.loc 1 343 13 discriminator 1 view .LVU164
 343:lvgl/src/draw/lv_img_decoder.c ****             if(dsc->user_data == NULL) {
 539              		.loc 1 343 13 discriminator 1 view .LVU165
 343:lvgl/src/draw/lv_img_decoder.c ****             if(dsc->user_data == NULL) {
 540              		.loc 1 343 13 discriminator 1 view .LVU166
 343:lvgl/src/draw/lv_img_decoder.c ****             if(dsc->user_data == NULL) {
 541              		.loc 1 343 13 discriminator 1 view .LVU167
 542 00ba FEE7     		b	.L28
 543              	.LVL56:
 544              	.L30:
 545              	.LBB21:
 546              	.LBB20:
 199:lvgl/src/draw/../misc/lv_mem.h ****         *d8 = *s8;
 547              		.loc 2 199 9 view .LVU168
 548              		.loc 2 199 15 is_stmt 0 view .LVU169
 549 00bc 12F8010B 		ldrb	r0, [r2], #1	@ zero_extendqisi2
 550              	.LVL57:
 551              		.loc 2 199 13 view .LVU170
 552 00c0 01F8010B 		strb	r0, [r1], #1
 553              	.LVL58:
 200:lvgl/src/draw/../misc/lv_mem.h ****         d8++;
 554              		.loc 2 200 9 is_stmt 1 view .LVU171
 201:lvgl/src/draw/../misc/lv_mem.h ****         s8++;
 555              		.loc 2 201 9 view .LVU172
 202:lvgl/src/draw/../misc/lv_mem.h ****         len--;
 556              		.loc 2 202 9 view .LVU173
 557              		.loc 2 202 12 is_stmt 0 view .LVU174
 558 00c4 013B     		subs	r3, r3, #1
 559              	.LVL59:
 560              	.L29:
 198:lvgl/src/draw/../misc/lv_mem.h ****         *d8 = *s8;
 561              		.loc 2 198 10 is_stmt 1 view .LVU175
 562 00c6 002B     		cmp	r3, #0
 563 00c8 F8D1     		bne	.L30
 198:lvgl/src/draw/../misc/lv_mem.h ****         *d8 = *s8;
 564              		.loc 2 198 10 is_stmt 0 view .LVU176
 565 00ca A6E7     		b	.L31
 566              	.LVL60:
 567              	.L59:
 198:lvgl/src/draw/../misc/lv_mem.h ****         *d8 = *s8;
 568              		.loc 2 198 10 view .LVU177
 569              	.LBE20:
 570              	.LBE21:
 571              	.LBE22:
 368:lvgl/src/draw/lv_img_decoder.c ****             return LV_RES_OK;
 572              		.loc 1 368 13 is_stmt 1 view .LVU178
 368:lvgl/src/draw/lv_img_decoder.c ****             return LV_RES_OK;
 573              		.loc 1 368 49 is_stmt 0 view .LVU179
 574 00cc 6368     		ldr	r3, [r4, #4]
 575              	.LVL61:
 368:lvgl/src/draw/lv_img_decoder.c ****             return LV_RES_OK;
ARM GAS  C:\Users\OSD\AppData\Local\Temp\ccYTBKz7.s 			page 26


 576              		.loc 1 368 55 view .LVU180
 577 00ce 9B68     		ldr	r3, [r3, #8]
 368:lvgl/src/draw/lv_img_decoder.c ****             return LV_RES_OK;
 578              		.loc 1 368 27 view .LVU181
 579 00d0 A361     		str	r3, [r4, #24]
 369:lvgl/src/draw/lv_img_decoder.c ****         }
 580              		.loc 1 369 13 is_stmt 1 view .LVU182
 369:lvgl/src/draw/lv_img_decoder.c ****         }
 581              		.loc 1 369 20 is_stmt 0 view .LVU183
 582 00d2 0120     		movs	r0, #1
 583 00d4 D8E7     		b	.L32
 584              	.LVL62:
 585              	.L60:
 586              	.LBB23:
 374:lvgl/src/draw/lv_img_decoder.c ****             uint8_t * fs_buf = lv_mem_alloc(len);
 587              		.loc 1 374 49 view .LVU184
 588 00d6 0325     		movs	r5, #3
 589              	.LVL63:
 374:lvgl/src/draw/lv_img_decoder.c ****             uint8_t * fs_buf = lv_mem_alloc(len);
 590              		.loc 1 374 49 view .LVU185
 591 00d8 B4E7     		b	.L35
 592              	.LVL64:
 593              	.L61:
 382:lvgl/src/draw/lv_img_decoder.c ****                 return LV_RES_INV;
 594              		.loc 1 382 17 is_stmt 1 view .LVU186
 595 00da 3046     		mov	r0, r6
 596              	.LVL65:
 382:lvgl/src/draw/lv_img_decoder.c ****                 return LV_RES_INV;
 597              		.loc 1 382 17 is_stmt 0 view .LVU187
 598 00dc FFF7FEFF 		bl	lv_mem_free
 599              	.LVL66:
 383:lvgl/src/draw/lv_img_decoder.c ****             }
 600              		.loc 1 383 17 is_stmt 1 view .LVU188
 383:lvgl/src/draw/lv_img_decoder.c ****             }
 601              		.loc 1 383 24 is_stmt 0 view .LVU189
 602 00e0 0020     		movs	r0, #0
 603 00e2 D1E7     		b	.L32
 604              	.LVL67:
 605              	.L33:
 383:lvgl/src/draw/lv_img_decoder.c ****             }
 606              		.loc 1 383 24 view .LVU190
 607              	.LBE23:
 390:lvgl/src/draw/lv_img_decoder.c ****             cf == LV_IMG_CF_TRUE_COLOR_CHROMA_KEYED) {
 608              		.loc 1 390 10 is_stmt 1 view .LVU191
 390:lvgl/src/draw/lv_img_decoder.c ****             cf == LV_IMG_CF_TRUE_COLOR_CHROMA_KEYED) {
 609              		.loc 1 390 76 is_stmt 0 view .LVU192
 610 00e4 021F     		subs	r2, r0, #4
 611 00e6 D2B2     		uxtb	r2, r2
 390:lvgl/src/draw/lv_img_decoder.c ****             cf == LV_IMG_CF_TRUE_COLOR_CHROMA_KEYED) {
 612              		.loc 1 390 12 view .LVU193
 613 00e8 022A     		cmp	r2, #2
 614 00ea 08D8     		bhi	.L37
 392:lvgl/src/draw/lv_img_decoder.c ****             /*In case of uncompressed formats the image stored in the ROM/RAM.
 615              		.loc 1 392 9 is_stmt 1 view .LVU194
 392:lvgl/src/draw/lv_img_decoder.c ****             /*In case of uncompressed formats the image stored in the ROM/RAM.
 616              		.loc 1 392 15 is_stmt 0 view .LVU195
 617 00ec 237C     		ldrb	r3, [r4, #16]	@ zero_extendqisi2
ARM GAS  C:\Users\OSD\AppData\Local\Temp\ccYTBKz7.s 			page 27


 618              	.LVL68:
 392:lvgl/src/draw/lv_img_decoder.c ****             /*In case of uncompressed formats the image stored in the ROM/RAM.
 619              		.loc 1 392 11 view .LVU196
 620 00ee 002B     		cmp	r3, #0
 621 00f0 40F09080 		bne	.L55
 395:lvgl/src/draw/lv_img_decoder.c ****             return LV_RES_OK;
 622              		.loc 1 395 13 is_stmt 1 view .LVU197
 395:lvgl/src/draw/lv_img_decoder.c ****             return LV_RES_OK;
 623              		.loc 1 395 49 is_stmt 0 view .LVU198
 624 00f4 6368     		ldr	r3, [r4, #4]
 395:lvgl/src/draw/lv_img_decoder.c ****             return LV_RES_OK;
 625              		.loc 1 395 55 view .LVU199
 626 00f6 9B68     		ldr	r3, [r3, #8]
 395:lvgl/src/draw/lv_img_decoder.c ****             return LV_RES_OK;
 627              		.loc 1 395 27 view .LVU200
 628 00f8 A361     		str	r3, [r4, #24]
 396:lvgl/src/draw/lv_img_decoder.c ****         }
 629              		.loc 1 396 13 is_stmt 1 view .LVU201
 396:lvgl/src/draw/lv_img_decoder.c ****         }
 630              		.loc 1 396 20 is_stmt 0 view .LVU202
 631 00fa 0120     		movs	r0, #1
 632 00fc C4E7     		b	.L32
 633              	.LVL69:
 634              	.L37:
 404:lvgl/src/draw/lv_img_decoder.c ****             cf == LV_IMG_CF_INDEXED_8BIT) {
 635              		.loc 1 404 10 is_stmt 1 view .LVU203
 404:lvgl/src/draw/lv_img_decoder.c ****             cf == LV_IMG_CF_INDEXED_8BIT) {
 636              		.loc 1 404 106 is_stmt 0 view .LVU204
 637 00fe C21F     		subs	r2, r0, #7
 638 0100 D2B2     		uxtb	r2, r2
 404:lvgl/src/draw/lv_img_decoder.c ****             cf == LV_IMG_CF_INDEXED_8BIT) {
 639              		.loc 1 404 12 view .LVU205
 640 0102 032A     		cmp	r2, #3
 641 0104 06D9     		bls	.L64
 456:lvgl/src/draw/lv_img_decoder.c ****         return LV_RES_OK; /*Nothing to process*/
 642              		.loc 1 456 10 is_stmt 1 view .LVU206
 456:lvgl/src/draw/lv_img_decoder.c ****         return LV_RES_OK; /*Nothing to process*/
 643              		.loc 1 456 70 is_stmt 0 view .LVU207
 644 0106 A0F10B03 		sub	r3, r0, #11
 645              	.LVL70:
 456:lvgl/src/draw/lv_img_decoder.c ****         return LV_RES_OK; /*Nothing to process*/
 646              		.loc 1 456 70 view .LVU208
 647 010a DBB2     		uxtb	r3, r3
 456:lvgl/src/draw/lv_img_decoder.c ****         return LV_RES_OK; /*Nothing to process*/
 648              		.loc 1 456 12 view .LVU209
 649 010c 022B     		cmp	r3, #2
 650 010e 79D8     		bhi	.L65
 457:lvgl/src/draw/lv_img_decoder.c ****     }
 651              		.loc 1 457 16 view .LVU210
 652 0110 0120     		movs	r0, #1
 653 0112 B9E7     		b	.L32
 654              	.LVL71:
 655              	.L64:
 656              	.LBB24:
 406:lvgl/src/draw/lv_img_decoder.c ****         uint32_t palette_size = 1 << px_size;
 657              		.loc 1 406 9 is_stmt 1 view .LVU211
 406:lvgl/src/draw/lv_img_decoder.c ****         uint32_t palette_size = 1 << px_size;
ARM GAS  C:\Users\OSD\AppData\Local\Temp\ccYTBKz7.s 			page 28


 658              		.loc 1 406 33 is_stmt 0 view .LVU212
 659 0114 FFF7FEFF 		bl	lv_img_cf_get_px_size
 660              	.LVL72:
 406:lvgl/src/draw/lv_img_decoder.c ****         uint32_t palette_size = 1 << px_size;
 661              		.loc 1 406 33 view .LVU213
 662 0118 8246     		mov	r10, r0
 663              	.LVL73:
 407:lvgl/src/draw/lv_img_decoder.c **** 
 664              		.loc 1 407 9 is_stmt 1 view .LVU214
 407:lvgl/src/draw/lv_img_decoder.c **** 
 665              		.loc 1 407 35 is_stmt 0 view .LVU215
 666 011a 4FF00109 		mov	r9, #1
 667 011e 09FA00F9 		lsl	r9, r9, r0
 668              	.LVL74:
 410:lvgl/src/draw/lv_img_decoder.c ****             dsc->user_data = lv_mem_alloc(sizeof(lv_img_decoder_built_in_data_t));
 669              		.loc 1 410 9 is_stmt 1 view .LVU216
 410:lvgl/src/draw/lv_img_decoder.c ****             dsc->user_data = lv_mem_alloc(sizeof(lv_img_decoder_built_in_data_t));
 670              		.loc 1 410 15 is_stmt 0 view .LVU217
 671 0122 636A     		ldr	r3, [r4, #36]
 410:lvgl/src/draw/lv_img_decoder.c ****             dsc->user_data = lv_mem_alloc(sizeof(lv_img_decoder_built_in_data_t));
 672              		.loc 1 410 11 view .LVU218
 673 0124 93B3     		cbz	r3, .L66
 674              	.LVL75:
 675              	.L39:
 420:lvgl/src/draw/lv_img_decoder.c ****         user_data->palette                         = lv_mem_alloc(palette_size * sizeof(lv_color_t)
 676              		.loc 1 420 9 is_stmt 1 view .LVU219
 420:lvgl/src/draw/lv_img_decoder.c ****         user_data->palette                         = lv_mem_alloc(palette_size * sizeof(lv_color_t)
 677              		.loc 1 420 42 is_stmt 0 view .LVU220
 678 0126 D4F82480 		ldr	r8, [r4, #36]
 679              	.LVL76:
 421:lvgl/src/draw/lv_img_decoder.c ****         LV_ASSERT_MALLOC(user_data->palette);
 680              		.loc 1 421 9 is_stmt 1 view .LVU221
 421:lvgl/src/draw/lv_img_decoder.c ****         LV_ASSERT_MALLOC(user_data->palette);
 681              		.loc 1 421 54 is_stmt 0 view .LVU222
 682 012a 0420     		movs	r0, #4
 683 012c 00FA0AF0 		lsl	r0, r0, r10
 684 0130 FFF7FEFF 		bl	lv_mem_alloc
 685              	.LVL77:
 421:lvgl/src/draw/lv_img_decoder.c ****         LV_ASSERT_MALLOC(user_data->palette);
 686              		.loc 1 421 52 view .LVU223
 687 0134 C8F80C00 		str	r0, [r8, #12]
 422:lvgl/src/draw/lv_img_decoder.c ****         user_data->opa                             = lv_mem_alloc(palette_size * sizeof(lv_opa_t));
 688              		.loc 1 422 9 is_stmt 1 view .LVU224
 422:lvgl/src/draw/lv_img_decoder.c ****         user_data->opa                             = lv_mem_alloc(palette_size * sizeof(lv_opa_t));
 689              		.loc 1 422 9 view .LVU225
 690 0138 90B3     		cbz	r0, .L43
 422:lvgl/src/draw/lv_img_decoder.c ****         user_data->opa                             = lv_mem_alloc(palette_size * sizeof(lv_opa_t));
 691              		.loc 1 422 9 discriminator 2 view .LVU226
 422:lvgl/src/draw/lv_img_decoder.c ****         user_data->opa                             = lv_mem_alloc(palette_size * sizeof(lv_opa_t));
 692              		.loc 1 422 45 discriminator 2 view .LVU227
 423:lvgl/src/draw/lv_img_decoder.c ****         LV_ASSERT_MALLOC(user_data->opa);
 693              		.loc 1 423 9 discriminator 2 view .LVU228
 423:lvgl/src/draw/lv_img_decoder.c ****         LV_ASSERT_MALLOC(user_data->opa);
 694              		.loc 1 423 54 is_stmt 0 discriminator 2 view .LVU229
 695 013a 4846     		mov	r0, r9
 696 013c FFF7FEFF 		bl	lv_mem_alloc
 697              	.LVL78:
ARM GAS  C:\Users\OSD\AppData\Local\Temp\ccYTBKz7.s 			page 29


 423:lvgl/src/draw/lv_img_decoder.c ****         LV_ASSERT_MALLOC(user_data->opa);
 698              		.loc 1 423 52 discriminator 2 view .LVU230
 699 0140 C8F81000 		str	r0, [r8, #16]
 424:lvgl/src/draw/lv_img_decoder.c ****         if(user_data->palette == NULL || user_data->opa == NULL) {
 700              		.loc 1 424 9 is_stmt 1 discriminator 2 view .LVU231
 424:lvgl/src/draw/lv_img_decoder.c ****         if(user_data->palette == NULL || user_data->opa == NULL) {
 701              		.loc 1 424 9 discriminator 2 view .LVU232
 702 0144 68B3     		cbz	r0, .L45
 424:lvgl/src/draw/lv_img_decoder.c ****         if(user_data->palette == NULL || user_data->opa == NULL) {
 703              		.loc 1 424 9 discriminator 2 view .LVU233
 424:lvgl/src/draw/lv_img_decoder.c ****         if(user_data->palette == NULL || user_data->opa == NULL) {
 704              		.loc 1 424 41 discriminator 2 view .LVU234
 425:lvgl/src/draw/lv_img_decoder.c ****             LV_LOG_ERROR("img_decoder_built_in_open: out of memory");
 705              		.loc 1 425 9 discriminator 2 view .LVU235
 425:lvgl/src/draw/lv_img_decoder.c ****             LV_LOG_ERROR("img_decoder_built_in_open: out of memory");
 706              		.loc 1 425 21 is_stmt 0 discriminator 2 view .LVU236
 707 0146 D8F80C30 		ldr	r3, [r8, #12]
 425:lvgl/src/draw/lv_img_decoder.c ****             LV_LOG_ERROR("img_decoder_built_in_open: out of memory");
 708              		.loc 1 425 11 discriminator 2 view .LVU237
 709 014a 5BB3     		cbz	r3, .L67
 431:lvgl/src/draw/lv_img_decoder.c ****             /*Read the palette from file*/
 710              		.loc 1 431 9 is_stmt 1 view .LVU238
 431:lvgl/src/draw/lv_img_decoder.c ****             /*Read the palette from file*/
 711              		.loc 1 431 15 is_stmt 0 view .LVU239
 712 014c 237C     		ldrb	r3, [r4, #16]	@ zero_extendqisi2
 431:lvgl/src/draw/lv_img_decoder.c ****             /*Read the palette from file*/
 713              		.loc 1 431 11 view .LVU240
 714 014e 012B     		cmp	r3, #1
 715 0150 2ED0     		beq	.L68
 716              	.LBB25:
 444:lvgl/src/draw/lv_img_decoder.c **** 
 717              		.loc 1 444 13 is_stmt 1 view .LVU241
 444:lvgl/src/draw/lv_img_decoder.c **** 
 718              		.loc 1 444 76 is_stmt 0 view .LVU242
 719 0152 6368     		ldr	r3, [r4, #4]
 444:lvgl/src/draw/lv_img_decoder.c **** 
 720              		.loc 1 444 28 view .LVU243
 721 0154 9968     		ldr	r1, [r3, #8]
 722              	.LVL79:
 446:lvgl/src/draw/lv_img_decoder.c ****             for(i = 0; i < palette_size; i++) {
 723              		.loc 1 446 13 is_stmt 1 view .LVU244
 447:lvgl/src/draw/lv_img_decoder.c ****                 user_data->palette[i] = lv_color_make(palette_p[i].ch.red, palette_p[i].ch.green, p
 724              		.loc 1 447 13 view .LVU245
 447:lvgl/src/draw/lv_img_decoder.c ****                 user_data->palette[i] = lv_color_make(palette_p[i].ch.red, palette_p[i].ch.green, p
 725              		.loc 1 447 19 is_stmt 0 view .LVU246
 726 0156 0023     		movs	r3, #0
 727              	.LVL80:
 728              	.L51:
 447:lvgl/src/draw/lv_img_decoder.c ****                 user_data->palette[i] = lv_color_make(palette_p[i].ch.red, palette_p[i].ch.green, p
 729              		.loc 1 447 24 is_stmt 1 discriminator 1 view .LVU247
 447:lvgl/src/draw/lv_img_decoder.c ****                 user_data->palette[i] = lv_color_make(palette_p[i].ch.red, palette_p[i].ch.green, p
 730              		.loc 1 447 13 is_stmt 0 discriminator 1 view .LVU248
 731 0158 4B45     		cmp	r3, r9
 732 015a 51D2     		bcs	.L50
 448:lvgl/src/draw/lv_img_decoder.c ****                 user_data->opa[i]     = palette_p[i].ch.alpha;
 733              		.loc 1 448 17 is_stmt 1 discriminator 3 view .LVU249
 448:lvgl/src/draw/lv_img_decoder.c ****                 user_data->opa[i]     = palette_p[i].ch.alpha;
ARM GAS  C:\Users\OSD\AppData\Local\Temp\ccYTBKz7.s 			page 30


 734              		.loc 1 448 64 is_stmt 0 discriminator 3 view .LVU250
 735 015c 01EB8302 		add	r2, r1, r3, lsl #2
 448:lvgl/src/draw/lv_img_decoder.c ****                 user_data->opa[i]     = palette_p[i].ch.alpha;
 736              		.loc 1 448 41 discriminator 3 view .LVU251
 737 0160 9478     		ldrb	r4, [r2, #2]	@ zero_extendqisi2
 738 0162 5578     		ldrb	r5, [r2, #1]	@ zero_extendqisi2
 739 0164 11F82370 		ldrb	r7, [r1, r3, lsl #2]	@ zero_extendqisi2
 448:lvgl/src/draw/lv_img_decoder.c ****                 user_data->opa[i]     = palette_p[i].ch.alpha;
 740              		.loc 1 448 26 discriminator 3 view .LVU252
 741 0168 D8F80C00 		ldr	r0, [r8, #12]
 742              	.LVL81:
 743              	.LBB26:
 744              	.LBI26:
 745              		.file 3 "lvgl/src/draw/../misc/lv_color.h"
   1:lvgl/src/draw/../misc/lv_color.h **** /**
   2:lvgl/src/draw/../misc/lv_color.h ****  * @file lv_color.h
   3:lvgl/src/draw/../misc/lv_color.h ****  *
   4:lvgl/src/draw/../misc/lv_color.h ****  */
   5:lvgl/src/draw/../misc/lv_color.h **** 
   6:lvgl/src/draw/../misc/lv_color.h **** #ifndef LV_COLOR_H
   7:lvgl/src/draw/../misc/lv_color.h **** #define LV_COLOR_H
   8:lvgl/src/draw/../misc/lv_color.h **** 
   9:lvgl/src/draw/../misc/lv_color.h **** #ifdef __cplusplus
  10:lvgl/src/draw/../misc/lv_color.h **** extern "C" {
  11:lvgl/src/draw/../misc/lv_color.h **** #endif
  12:lvgl/src/draw/../misc/lv_color.h **** 
  13:lvgl/src/draw/../misc/lv_color.h **** /*********************
  14:lvgl/src/draw/../misc/lv_color.h ****  *      INCLUDES
  15:lvgl/src/draw/../misc/lv_color.h ****  *********************/
  16:lvgl/src/draw/../misc/lv_color.h **** #include "../lv_conf_internal.h"
  17:lvgl/src/draw/../misc/lv_color.h **** #include "lv_assert.h"
  18:lvgl/src/draw/../misc/lv_color.h **** #include "lv_math.h"
  19:lvgl/src/draw/../misc/lv_color.h **** #include "lv_types.h"
  20:lvgl/src/draw/../misc/lv_color.h **** 
  21:lvgl/src/draw/../misc/lv_color.h **** /*Error checking*/
  22:lvgl/src/draw/../misc/lv_color.h **** #if LV_COLOR_DEPTH == 24
  23:lvgl/src/draw/../misc/lv_color.h **** #error "LV_COLOR_DEPTH 24 is deprecated. Use LV_COLOR_DEPTH 32 instead (lv_conf.h)"
  24:lvgl/src/draw/../misc/lv_color.h **** #endif
  25:lvgl/src/draw/../misc/lv_color.h **** 
  26:lvgl/src/draw/../misc/lv_color.h **** #if LV_COLOR_DEPTH != 16 && LV_COLOR_16_SWAP != 0
  27:lvgl/src/draw/../misc/lv_color.h **** #error "LV_COLOR_16_SWAP requires LV_COLOR_DEPTH == 16. Set it in lv_conf.h"
  28:lvgl/src/draw/../misc/lv_color.h **** #endif
  29:lvgl/src/draw/../misc/lv_color.h **** 
  30:lvgl/src/draw/../misc/lv_color.h **** #include <stdint.h>
  31:lvgl/src/draw/../misc/lv_color.h **** 
  32:lvgl/src/draw/../misc/lv_color.h **** /*********************
  33:lvgl/src/draw/../misc/lv_color.h ****  *      DEFINES
  34:lvgl/src/draw/../misc/lv_color.h ****  *********************/
  35:lvgl/src/draw/../misc/lv_color.h **** LV_EXPORT_CONST_INT(LV_COLOR_DEPTH);
  36:lvgl/src/draw/../misc/lv_color.h **** LV_EXPORT_CONST_INT(LV_COLOR_16_SWAP);
  37:lvgl/src/draw/../misc/lv_color.h **** 
  38:lvgl/src/draw/../misc/lv_color.h **** /**
  39:lvgl/src/draw/../misc/lv_color.h ****  * Opacity percentages.
  40:lvgl/src/draw/../misc/lv_color.h ****  */
  41:lvgl/src/draw/../misc/lv_color.h **** enum {
  42:lvgl/src/draw/../misc/lv_color.h ****     LV_OPA_TRANSP = 0,
  43:lvgl/src/draw/../misc/lv_color.h ****     LV_OPA_0      = 0,
ARM GAS  C:\Users\OSD\AppData\Local\Temp\ccYTBKz7.s 			page 31


  44:lvgl/src/draw/../misc/lv_color.h ****     LV_OPA_10     = 25,
  45:lvgl/src/draw/../misc/lv_color.h ****     LV_OPA_20     = 51,
  46:lvgl/src/draw/../misc/lv_color.h ****     LV_OPA_30     = 76,
  47:lvgl/src/draw/../misc/lv_color.h ****     LV_OPA_40     = 102,
  48:lvgl/src/draw/../misc/lv_color.h ****     LV_OPA_50     = 127,
  49:lvgl/src/draw/../misc/lv_color.h ****     LV_OPA_60     = 153,
  50:lvgl/src/draw/../misc/lv_color.h ****     LV_OPA_70     = 178,
  51:lvgl/src/draw/../misc/lv_color.h ****     LV_OPA_80     = 204,
  52:lvgl/src/draw/../misc/lv_color.h ****     LV_OPA_90     = 229,
  53:lvgl/src/draw/../misc/lv_color.h ****     LV_OPA_100    = 255,
  54:lvgl/src/draw/../misc/lv_color.h ****     LV_OPA_COVER  = 255,
  55:lvgl/src/draw/../misc/lv_color.h **** };
  56:lvgl/src/draw/../misc/lv_color.h **** 
  57:lvgl/src/draw/../misc/lv_color.h **** #define LV_OPA_MIN 2    /*Opacities below this will be transparent*/
  58:lvgl/src/draw/../misc/lv_color.h **** #define LV_OPA_MAX 253  /*Opacities above this will fully cover*/
  59:lvgl/src/draw/../misc/lv_color.h **** 
  60:lvgl/src/draw/../misc/lv_color.h **** #if LV_COLOR_DEPTH == 1
  61:lvgl/src/draw/../misc/lv_color.h **** #define LV_COLOR_SIZE 8
  62:lvgl/src/draw/../misc/lv_color.h **** #elif LV_COLOR_DEPTH == 8
  63:lvgl/src/draw/../misc/lv_color.h **** #define LV_COLOR_SIZE 8
  64:lvgl/src/draw/../misc/lv_color.h **** #elif LV_COLOR_DEPTH == 16
  65:lvgl/src/draw/../misc/lv_color.h **** #define LV_COLOR_SIZE 16
  66:lvgl/src/draw/../misc/lv_color.h **** #elif LV_COLOR_DEPTH == 32
  67:lvgl/src/draw/../misc/lv_color.h **** #define LV_COLOR_SIZE 32
  68:lvgl/src/draw/../misc/lv_color.h **** #else
  69:lvgl/src/draw/../misc/lv_color.h **** #error "Invalid LV_COLOR_DEPTH in lv_conf.h! Set it to 1, 8, 16 or 32!"
  70:lvgl/src/draw/../misc/lv_color.h **** #endif
  71:lvgl/src/draw/../misc/lv_color.h **** 
  72:lvgl/src/draw/../misc/lv_color.h **** #if defined(__cplusplus) && !defined(_LV_COLOR_HAS_MODERN_CPP)
  73:lvgl/src/draw/../misc/lv_color.h **** /**
  74:lvgl/src/draw/../misc/lv_color.h **** * MSVC compiler's definition of the __cplusplus indicating 199711L regardless to C++ standard versi
  75:lvgl/src/draw/../misc/lv_color.h **** * see https://devblogs.microsoft.com/cppblog/msvc-now-correctly-reports-cplusplus
  76:lvgl/src/draw/../misc/lv_color.h **** * so we use _MSC_VER macro instead of __cplusplus
  77:lvgl/src/draw/../misc/lv_color.h **** */
  78:lvgl/src/draw/../misc/lv_color.h **** #ifdef _MSC_VER
  79:lvgl/src/draw/../misc/lv_color.h **** #if _MSC_VER >= 1900 /*Visual Studio 2015*/
  80:lvgl/src/draw/../misc/lv_color.h **** #define _LV_COLOR_HAS_MODERN_CPP 1
  81:lvgl/src/draw/../misc/lv_color.h **** #endif
  82:lvgl/src/draw/../misc/lv_color.h **** #else
  83:lvgl/src/draw/../misc/lv_color.h **** #if __cplusplus >= 201103L
  84:lvgl/src/draw/../misc/lv_color.h **** #define _LV_COLOR_HAS_MODERN_CPP 1
  85:lvgl/src/draw/../misc/lv_color.h **** #endif
  86:lvgl/src/draw/../misc/lv_color.h **** #endif
  87:lvgl/src/draw/../misc/lv_color.h **** #endif /*__cplusplus*/
  88:lvgl/src/draw/../misc/lv_color.h **** 
  89:lvgl/src/draw/../misc/lv_color.h **** #ifndef _LV_COLOR_HAS_MODERN_CPP
  90:lvgl/src/draw/../misc/lv_color.h **** #define _LV_COLOR_HAS_MODERN_CPP 0
  91:lvgl/src/draw/../misc/lv_color.h **** #endif
  92:lvgl/src/draw/../misc/lv_color.h **** 
  93:lvgl/src/draw/../misc/lv_color.h **** #if _LV_COLOR_HAS_MODERN_CPP
  94:lvgl/src/draw/../misc/lv_color.h **** /*Fix msvc compiler error C4576 inside C++ code*/
  95:lvgl/src/draw/../misc/lv_color.h **** #define _LV_COLOR_MAKE_TYPE_HELPER lv_color_t
  96:lvgl/src/draw/../misc/lv_color.h **** #else
  97:lvgl/src/draw/../misc/lv_color.h **** #define _LV_COLOR_MAKE_TYPE_HELPER (lv_color_t)
  98:lvgl/src/draw/../misc/lv_color.h **** #endif
  99:lvgl/src/draw/../misc/lv_color.h **** 
 100:lvgl/src/draw/../misc/lv_color.h **** /*---------------------------------------
ARM GAS  C:\Users\OSD\AppData\Local\Temp\ccYTBKz7.s 			page 32


 101:lvgl/src/draw/../misc/lv_color.h ****  * Macros for all existing color depths
 102:lvgl/src/draw/../misc/lv_color.h ****  * to set/get values of the color channels
 103:lvgl/src/draw/../misc/lv_color.h ****  *------------------------------------------*/
 104:lvgl/src/draw/../misc/lv_color.h **** # define LV_COLOR_SET_R1(c, v) (c).ch.red = (uint8_t)((v) & 0x1)
 105:lvgl/src/draw/../misc/lv_color.h **** # define LV_COLOR_SET_G1(c, v) (c).ch.green = (uint8_t)((v) & 0x1)
 106:lvgl/src/draw/../misc/lv_color.h **** # define LV_COLOR_SET_B1(c, v) (c).ch.blue = (uint8_t)((v) & 0x1)
 107:lvgl/src/draw/../misc/lv_color.h **** # define LV_COLOR_SET_A1(c, v) do {} while(0)
 108:lvgl/src/draw/../misc/lv_color.h **** 
 109:lvgl/src/draw/../misc/lv_color.h **** # define LV_COLOR_GET_R1(c) (c).ch.red
 110:lvgl/src/draw/../misc/lv_color.h **** # define LV_COLOR_GET_G1(c) (c).ch.green
 111:lvgl/src/draw/../misc/lv_color.h **** # define LV_COLOR_GET_B1(c) (c).ch.blue
 112:lvgl/src/draw/../misc/lv_color.h **** # define LV_COLOR_GET_A1(c) 0xFF
 113:lvgl/src/draw/../misc/lv_color.h **** 
 114:lvgl/src/draw/../misc/lv_color.h **** # define _LV_COLOR_ZERO_INITIALIZER1 {0x00}
 115:lvgl/src/draw/../misc/lv_color.h **** # define LV_COLOR_MAKE1(r8, g8, b8)  {(uint8_t)((b8 >> 7) | (g8 >> 7) | (r8 >> 7))}
 116:lvgl/src/draw/../misc/lv_color.h **** 
 117:lvgl/src/draw/../misc/lv_color.h **** # define LV_COLOR_SET_R8(c, v) (c).ch.red = (uint8_t)((v) & 0x7U)
 118:lvgl/src/draw/../misc/lv_color.h **** # define LV_COLOR_SET_G8(c, v) (c).ch.green = (uint8_t)((v) & 0x7U)
 119:lvgl/src/draw/../misc/lv_color.h **** # define LV_COLOR_SET_B8(c, v) (c).ch.blue = (uint8_t)((v) & 0x3U)
 120:lvgl/src/draw/../misc/lv_color.h **** # define LV_COLOR_SET_A8(c, v) do {} while(0)
 121:lvgl/src/draw/../misc/lv_color.h **** 
 122:lvgl/src/draw/../misc/lv_color.h **** # define LV_COLOR_GET_R8(c) (c).ch.red
 123:lvgl/src/draw/../misc/lv_color.h **** # define LV_COLOR_GET_G8(c) (c).ch.green
 124:lvgl/src/draw/../misc/lv_color.h **** # define LV_COLOR_GET_B8(c) (c).ch.blue
 125:lvgl/src/draw/../misc/lv_color.h **** # define LV_COLOR_GET_A8(c) 0xFF
 126:lvgl/src/draw/../misc/lv_color.h **** 
 127:lvgl/src/draw/../misc/lv_color.h **** # define _LV_COLOR_ZERO_INITIALIZER8 {{0x00, 0x00, 0x00}}
 128:lvgl/src/draw/../misc/lv_color.h **** # define LV_COLOR_MAKE8(r8, g8, b8) {{(uint8_t)((b8 >> 6) & 0x3U), (uint8_t)((g8 >> 5) & 0x7U), (ui
 129:lvgl/src/draw/../misc/lv_color.h **** 
 130:lvgl/src/draw/../misc/lv_color.h **** # define LV_COLOR_SET_R16(c, v) (c).ch.red = (uint8_t)((v) & 0x1FU)
 131:lvgl/src/draw/../misc/lv_color.h **** #if LV_COLOR_16_SWAP == 0
 132:lvgl/src/draw/../misc/lv_color.h **** # define LV_COLOR_SET_G16(c, v) (c).ch.green = (uint8_t)((v) & 0x3FU)
 133:lvgl/src/draw/../misc/lv_color.h **** #else
 134:lvgl/src/draw/../misc/lv_color.h **** # define LV_COLOR_SET_G16(c, v) {(c).ch.green_h = (uint8_t)(((v) >> 3) & 0x7); (c).ch.green_l = (ui
 135:lvgl/src/draw/../misc/lv_color.h **** #endif
 136:lvgl/src/draw/../misc/lv_color.h **** # define LV_COLOR_SET_B16(c, v) (c).ch.blue = (uint8_t)((v) & 0x1FU)
 137:lvgl/src/draw/../misc/lv_color.h **** # define LV_COLOR_SET_A16(c, v) do {} while(0)
 138:lvgl/src/draw/../misc/lv_color.h **** 
 139:lvgl/src/draw/../misc/lv_color.h **** # define LV_COLOR_GET_R16(c) (c).ch.red
 140:lvgl/src/draw/../misc/lv_color.h **** #if LV_COLOR_16_SWAP == 0
 141:lvgl/src/draw/../misc/lv_color.h **** # define LV_COLOR_GET_G16(c) (c).ch.green
 142:lvgl/src/draw/../misc/lv_color.h **** #else
 143:lvgl/src/draw/../misc/lv_color.h **** # define LV_COLOR_GET_G16(c) (((c).ch.green_h << 3) + (c).ch.green_l)
 144:lvgl/src/draw/../misc/lv_color.h **** #endif
 145:lvgl/src/draw/../misc/lv_color.h **** # define LV_COLOR_GET_B16(c) (c).ch.blue
 146:lvgl/src/draw/../misc/lv_color.h **** # define LV_COLOR_GET_A16(c) 0xFF
 147:lvgl/src/draw/../misc/lv_color.h **** 
 148:lvgl/src/draw/../misc/lv_color.h **** #if LV_COLOR_16_SWAP == 0
 149:lvgl/src/draw/../misc/lv_color.h **** # define _LV_COLOR_ZERO_INITIALIZER16  {{0x00, 0x00, 0x00}}
 150:lvgl/src/draw/../misc/lv_color.h **** # define LV_COLOR_MAKE16(r8, g8, b8) {{(uint8_t)((b8 >> 3) & 0x1FU), (uint8_t)((g8 >> 2) & 0x3FU), 
 151:lvgl/src/draw/../misc/lv_color.h **** #else
 152:lvgl/src/draw/../misc/lv_color.h **** # define _LV_COLOR_ZERO_INITIALIZER16 {{0x00, 0x00, 0x00, 0x00}}
 153:lvgl/src/draw/../misc/lv_color.h **** # define LV_COLOR_MAKE16(r8, g8, b8) {{(uint8_t)((g8 >> 5) & 0x7U), (uint8_t)((r8 >> 3) & 0x1FU), (
 154:lvgl/src/draw/../misc/lv_color.h **** #endif
 155:lvgl/src/draw/../misc/lv_color.h **** 
 156:lvgl/src/draw/../misc/lv_color.h **** # define LV_COLOR_SET_R32(c, v) (c).ch.red = (uint8_t)((v) & 0xFF)
 157:lvgl/src/draw/../misc/lv_color.h **** # define LV_COLOR_SET_G32(c, v) (c).ch.green = (uint8_t)((v) & 0xFF)
ARM GAS  C:\Users\OSD\AppData\Local\Temp\ccYTBKz7.s 			page 33


 158:lvgl/src/draw/../misc/lv_color.h **** # define LV_COLOR_SET_B32(c, v) (c).ch.blue = (uint8_t)((v) & 0xFF)
 159:lvgl/src/draw/../misc/lv_color.h **** # define LV_COLOR_SET_A32(c, v) (c).ch.alpha = (uint8_t)((v) & 0xFF)
 160:lvgl/src/draw/../misc/lv_color.h **** 
 161:lvgl/src/draw/../misc/lv_color.h **** # define LV_COLOR_GET_R32(c) (c).ch.red
 162:lvgl/src/draw/../misc/lv_color.h **** # define LV_COLOR_GET_G32(c) (c).ch.green
 163:lvgl/src/draw/../misc/lv_color.h **** # define LV_COLOR_GET_B32(c) (c).ch.blue
 164:lvgl/src/draw/../misc/lv_color.h **** # define LV_COLOR_GET_A32(c) (c).ch.alpha
 165:lvgl/src/draw/../misc/lv_color.h **** 
 166:lvgl/src/draw/../misc/lv_color.h **** # define _LV_COLOR_ZERO_INITIALIZER32  {{0x00, 0x00, 0x00, 0x00}}
 167:lvgl/src/draw/../misc/lv_color.h **** # define LV_COLOR_MAKE32(r8, g8, b8) {{b8, g8, r8, 0xff}} /*Fix 0xff alpha*/
 168:lvgl/src/draw/../misc/lv_color.h **** 
 169:lvgl/src/draw/../misc/lv_color.h **** /*---------------------------------------
 170:lvgl/src/draw/../misc/lv_color.h ****  * Macros for the current color depth
 171:lvgl/src/draw/../misc/lv_color.h ****  * to set/get values of the color channels
 172:lvgl/src/draw/../misc/lv_color.h ****  *------------------------------------------*/
 173:lvgl/src/draw/../misc/lv_color.h **** #define LV_COLOR_SET_R(c, v) LV_CONCAT(LV_COLOR_SET_R, LV_COLOR_DEPTH)(c, v)
 174:lvgl/src/draw/../misc/lv_color.h **** #define LV_COLOR_SET_G(c, v) LV_CONCAT(LV_COLOR_SET_G, LV_COLOR_DEPTH)(c, v)
 175:lvgl/src/draw/../misc/lv_color.h **** #define LV_COLOR_SET_B(c, v) LV_CONCAT(LV_COLOR_SET_B, LV_COLOR_DEPTH)(c, v)
 176:lvgl/src/draw/../misc/lv_color.h **** #define LV_COLOR_SET_A(c, v) LV_CONCAT(LV_COLOR_SET_A, LV_COLOR_DEPTH)(c, v)
 177:lvgl/src/draw/../misc/lv_color.h **** 
 178:lvgl/src/draw/../misc/lv_color.h **** #define LV_COLOR_GET_R(c) LV_CONCAT(LV_COLOR_GET_R, LV_COLOR_DEPTH)(c)
 179:lvgl/src/draw/../misc/lv_color.h **** #define LV_COLOR_GET_G(c) LV_CONCAT(LV_COLOR_GET_G, LV_COLOR_DEPTH)(c)
 180:lvgl/src/draw/../misc/lv_color.h **** #define LV_COLOR_GET_B(c) LV_CONCAT(LV_COLOR_GET_B, LV_COLOR_DEPTH)(c)
 181:lvgl/src/draw/../misc/lv_color.h **** #define LV_COLOR_GET_A(c) LV_CONCAT(LV_COLOR_GET_A, LV_COLOR_DEPTH)(c)
 182:lvgl/src/draw/../misc/lv_color.h **** 
 183:lvgl/src/draw/../misc/lv_color.h **** #define _LV_COLOR_ZERO_INITIALIZER LV_CONCAT(_LV_COLOR_ZERO_INITIALIZER, LV_COLOR_DEPTH)
 184:lvgl/src/draw/../misc/lv_color.h **** #define LV_COLOR_MAKE(r8, g8, b8) LV_CONCAT(LV_COLOR_MAKE, LV_COLOR_DEPTH)(r8, g8, b8)
 185:lvgl/src/draw/../misc/lv_color.h **** 
 186:lvgl/src/draw/../misc/lv_color.h **** /**********************
 187:lvgl/src/draw/../misc/lv_color.h ****  *      TYPEDEFS
 188:lvgl/src/draw/../misc/lv_color.h ****  **********************/
 189:lvgl/src/draw/../misc/lv_color.h **** 
 190:lvgl/src/draw/../misc/lv_color.h **** typedef union {
 191:lvgl/src/draw/../misc/lv_color.h ****     uint8_t full; /*must be declared first to set all bits of byte via initializer list*/
 192:lvgl/src/draw/../misc/lv_color.h ****     union {
 193:lvgl/src/draw/../misc/lv_color.h ****         uint8_t blue : 1;
 194:lvgl/src/draw/../misc/lv_color.h ****         uint8_t green : 1;
 195:lvgl/src/draw/../misc/lv_color.h ****         uint8_t red : 1;
 196:lvgl/src/draw/../misc/lv_color.h ****     } ch;
 197:lvgl/src/draw/../misc/lv_color.h **** } lv_color1_t;
 198:lvgl/src/draw/../misc/lv_color.h **** 
 199:lvgl/src/draw/../misc/lv_color.h **** typedef union {
 200:lvgl/src/draw/../misc/lv_color.h ****     struct {
 201:lvgl/src/draw/../misc/lv_color.h ****         uint8_t blue : 2;
 202:lvgl/src/draw/../misc/lv_color.h ****         uint8_t green : 3;
 203:lvgl/src/draw/../misc/lv_color.h ****         uint8_t red : 3;
 204:lvgl/src/draw/../misc/lv_color.h ****     } ch;
 205:lvgl/src/draw/../misc/lv_color.h ****     uint8_t full;
 206:lvgl/src/draw/../misc/lv_color.h **** } lv_color8_t;
 207:lvgl/src/draw/../misc/lv_color.h **** 
 208:lvgl/src/draw/../misc/lv_color.h **** typedef union {
 209:lvgl/src/draw/../misc/lv_color.h ****     struct {
 210:lvgl/src/draw/../misc/lv_color.h **** #if LV_COLOR_16_SWAP == 0
 211:lvgl/src/draw/../misc/lv_color.h ****         uint16_t blue : 5;
 212:lvgl/src/draw/../misc/lv_color.h ****         uint16_t green : 6;
 213:lvgl/src/draw/../misc/lv_color.h ****         uint16_t red : 5;
 214:lvgl/src/draw/../misc/lv_color.h **** #else
ARM GAS  C:\Users\OSD\AppData\Local\Temp\ccYTBKz7.s 			page 34


 215:lvgl/src/draw/../misc/lv_color.h ****         uint16_t green_h : 3;
 216:lvgl/src/draw/../misc/lv_color.h ****         uint16_t red : 5;
 217:lvgl/src/draw/../misc/lv_color.h ****         uint16_t blue : 5;
 218:lvgl/src/draw/../misc/lv_color.h ****         uint16_t green_l : 3;
 219:lvgl/src/draw/../misc/lv_color.h **** #endif
 220:lvgl/src/draw/../misc/lv_color.h ****     } ch;
 221:lvgl/src/draw/../misc/lv_color.h ****     uint16_t full;
 222:lvgl/src/draw/../misc/lv_color.h **** } lv_color16_t;
 223:lvgl/src/draw/../misc/lv_color.h **** 
 224:lvgl/src/draw/../misc/lv_color.h **** typedef union {
 225:lvgl/src/draw/../misc/lv_color.h ****     struct {
 226:lvgl/src/draw/../misc/lv_color.h ****         uint8_t blue;
 227:lvgl/src/draw/../misc/lv_color.h ****         uint8_t green;
 228:lvgl/src/draw/../misc/lv_color.h ****         uint8_t red;
 229:lvgl/src/draw/../misc/lv_color.h ****         uint8_t alpha;
 230:lvgl/src/draw/../misc/lv_color.h ****     } ch;
 231:lvgl/src/draw/../misc/lv_color.h ****     uint32_t full;
 232:lvgl/src/draw/../misc/lv_color.h **** } lv_color32_t;
 233:lvgl/src/draw/../misc/lv_color.h **** 
 234:lvgl/src/draw/../misc/lv_color.h **** typedef LV_CONCAT3(uint, LV_COLOR_SIZE, _t) lv_color_int_t;
 235:lvgl/src/draw/../misc/lv_color.h **** typedef LV_CONCAT3(lv_color, LV_COLOR_DEPTH, _t) lv_color_t;
 236:lvgl/src/draw/../misc/lv_color.h **** 
 237:lvgl/src/draw/../misc/lv_color.h **** typedef struct {
 238:lvgl/src/draw/../misc/lv_color.h ****     uint16_t h;
 239:lvgl/src/draw/../misc/lv_color.h ****     uint8_t s;
 240:lvgl/src/draw/../misc/lv_color.h ****     uint8_t v;
 241:lvgl/src/draw/../misc/lv_color.h **** } lv_color_hsv_t;
 242:lvgl/src/draw/../misc/lv_color.h **** 
 243:lvgl/src/draw/../misc/lv_color.h **** //! @cond Doxygen_Suppress
 244:lvgl/src/draw/../misc/lv_color.h **** /*No idea where the guard is required but else throws warnings in the docs*/
 245:lvgl/src/draw/../misc/lv_color.h **** typedef uint8_t lv_opa_t;
 246:lvgl/src/draw/../misc/lv_color.h **** //! @endcond
 247:lvgl/src/draw/../misc/lv_color.h **** 
 248:lvgl/src/draw/../misc/lv_color.h **** struct _lv_color_filter_dsc_t;
 249:lvgl/src/draw/../misc/lv_color.h **** 
 250:lvgl/src/draw/../misc/lv_color.h **** typedef lv_color_t (*lv_color_filter_cb_t)(const struct _lv_color_filter_dsc_t *, lv_color_t, lv_op
 251:lvgl/src/draw/../misc/lv_color.h **** 
 252:lvgl/src/draw/../misc/lv_color.h **** typedef struct _lv_color_filter_dsc_t {
 253:lvgl/src/draw/../misc/lv_color.h ****     lv_color_filter_cb_t filter_cb;
 254:lvgl/src/draw/../misc/lv_color.h ****     void * user_data;
 255:lvgl/src/draw/../misc/lv_color.h **** } lv_color_filter_dsc_t;
 256:lvgl/src/draw/../misc/lv_color.h **** 
 257:lvgl/src/draw/../misc/lv_color.h **** typedef enum {
 258:lvgl/src/draw/../misc/lv_color.h ****     LV_PALETTE_RED,
 259:lvgl/src/draw/../misc/lv_color.h ****     LV_PALETTE_PINK,
 260:lvgl/src/draw/../misc/lv_color.h ****     LV_PALETTE_PURPLE,
 261:lvgl/src/draw/../misc/lv_color.h ****     LV_PALETTE_DEEP_PURPLE,
 262:lvgl/src/draw/../misc/lv_color.h ****     LV_PALETTE_INDIGO,
 263:lvgl/src/draw/../misc/lv_color.h ****     LV_PALETTE_BLUE,
 264:lvgl/src/draw/../misc/lv_color.h ****     LV_PALETTE_LIGHT_BLUE,
 265:lvgl/src/draw/../misc/lv_color.h ****     LV_PALETTE_CYAN,
 266:lvgl/src/draw/../misc/lv_color.h ****     LV_PALETTE_TEAL,
 267:lvgl/src/draw/../misc/lv_color.h ****     LV_PALETTE_GREEN,
 268:lvgl/src/draw/../misc/lv_color.h ****     LV_PALETTE_LIGHT_GREEN,
 269:lvgl/src/draw/../misc/lv_color.h ****     LV_PALETTE_LIME,
 270:lvgl/src/draw/../misc/lv_color.h ****     LV_PALETTE_YELLOW,
 271:lvgl/src/draw/../misc/lv_color.h ****     LV_PALETTE_AMBER,
ARM GAS  C:\Users\OSD\AppData\Local\Temp\ccYTBKz7.s 			page 35


 272:lvgl/src/draw/../misc/lv_color.h ****     LV_PALETTE_ORANGE,
 273:lvgl/src/draw/../misc/lv_color.h ****     LV_PALETTE_DEEP_ORANGE,
 274:lvgl/src/draw/../misc/lv_color.h ****     LV_PALETTE_BROWN,
 275:lvgl/src/draw/../misc/lv_color.h ****     LV_PALETTE_BLUE_GREY,
 276:lvgl/src/draw/../misc/lv_color.h ****     LV_PALETTE_GREY,
 277:lvgl/src/draw/../misc/lv_color.h ****     _LV_PALETTE_LAST,
 278:lvgl/src/draw/../misc/lv_color.h ****     LV_PALETTE_NONE = 0xff,
 279:lvgl/src/draw/../misc/lv_color.h **** } lv_palette_t;
 280:lvgl/src/draw/../misc/lv_color.h **** 
 281:lvgl/src/draw/../misc/lv_color.h **** /**********************
 282:lvgl/src/draw/../misc/lv_color.h ****  * GLOBAL PROTOTYPES
 283:lvgl/src/draw/../misc/lv_color.h ****  **********************/
 284:lvgl/src/draw/../misc/lv_color.h **** 
 285:lvgl/src/draw/../misc/lv_color.h **** /*In color conversations:
 286:lvgl/src/draw/../misc/lv_color.h ****  * - When converting to bigger color type the LSB weight of 1 LSB is calculated
 287:lvgl/src/draw/../misc/lv_color.h ****  *   E.g. 16 bit Red has 5 bits
 288:lvgl/src/draw/../misc/lv_color.h ****  *         8 bit Red has 3 bits
 289:lvgl/src/draw/../misc/lv_color.h ****  *        ----------------------
 290:lvgl/src/draw/../misc/lv_color.h ****  *        8 bit red LSB = (2^5 - 1) / (2^3 - 1) = 31 / 7 = 4
 291:lvgl/src/draw/../misc/lv_color.h ****  *
 292:lvgl/src/draw/../misc/lv_color.h ****  * - When calculating to smaller color type simply shift out the LSBs
 293:lvgl/src/draw/../misc/lv_color.h ****  *   E.g.  8 bit Red has 3 bits
 294:lvgl/src/draw/../misc/lv_color.h ****  *        16 bit Red has 5 bits
 295:lvgl/src/draw/../misc/lv_color.h ****  *        ----------------------
 296:lvgl/src/draw/../misc/lv_color.h ****  *         Shift right with 5 - 3 = 2
 297:lvgl/src/draw/../misc/lv_color.h ****  */
 298:lvgl/src/draw/../misc/lv_color.h **** static inline uint8_t lv_color_to1(lv_color_t color)
 299:lvgl/src/draw/../misc/lv_color.h **** {
 300:lvgl/src/draw/../misc/lv_color.h **** #if LV_COLOR_DEPTH == 1
 301:lvgl/src/draw/../misc/lv_color.h ****     return color.full;
 302:lvgl/src/draw/../misc/lv_color.h **** #elif LV_COLOR_DEPTH == 8
 303:lvgl/src/draw/../misc/lv_color.h ****     if((LV_COLOR_GET_R(color) & 0x4) || (LV_COLOR_GET_G(color) & 0x4) || (LV_COLOR_GET_B(color) & 0
 304:lvgl/src/draw/../misc/lv_color.h ****         return 1;
 305:lvgl/src/draw/../misc/lv_color.h ****     }
 306:lvgl/src/draw/../misc/lv_color.h ****     else {
 307:lvgl/src/draw/../misc/lv_color.h ****         return 0;
 308:lvgl/src/draw/../misc/lv_color.h ****     }
 309:lvgl/src/draw/../misc/lv_color.h **** #elif LV_COLOR_DEPTH == 16
 310:lvgl/src/draw/../misc/lv_color.h ****     if((LV_COLOR_GET_R(color) & 0x10) || (LV_COLOR_GET_G(color) & 0x20) || (LV_COLOR_GET_B(color) &
 311:lvgl/src/draw/../misc/lv_color.h ****         return 1;
 312:lvgl/src/draw/../misc/lv_color.h ****     }
 313:lvgl/src/draw/../misc/lv_color.h ****     else {
 314:lvgl/src/draw/../misc/lv_color.h ****         return 0;
 315:lvgl/src/draw/../misc/lv_color.h ****     }
 316:lvgl/src/draw/../misc/lv_color.h **** #elif LV_COLOR_DEPTH == 32
 317:lvgl/src/draw/../misc/lv_color.h ****     if((LV_COLOR_GET_R(color) & 0x80) || (LV_COLOR_GET_G(color) & 0x80) || (LV_COLOR_GET_B(color) &
 318:lvgl/src/draw/../misc/lv_color.h ****         return 1;
 319:lvgl/src/draw/../misc/lv_color.h ****     }
 320:lvgl/src/draw/../misc/lv_color.h ****     else {
 321:lvgl/src/draw/../misc/lv_color.h ****         return 0;
 322:lvgl/src/draw/../misc/lv_color.h ****     }
 323:lvgl/src/draw/../misc/lv_color.h **** #endif
 324:lvgl/src/draw/../misc/lv_color.h **** }
 325:lvgl/src/draw/../misc/lv_color.h **** 
 326:lvgl/src/draw/../misc/lv_color.h **** static inline uint8_t lv_color_to8(lv_color_t color)
 327:lvgl/src/draw/../misc/lv_color.h **** {
 328:lvgl/src/draw/../misc/lv_color.h **** #if LV_COLOR_DEPTH == 1
ARM GAS  C:\Users\OSD\AppData\Local\Temp\ccYTBKz7.s 			page 36


 329:lvgl/src/draw/../misc/lv_color.h ****     if(color.full == 0)
 330:lvgl/src/draw/../misc/lv_color.h ****         return 0;
 331:lvgl/src/draw/../misc/lv_color.h ****     else
 332:lvgl/src/draw/../misc/lv_color.h ****         return 0xFF;
 333:lvgl/src/draw/../misc/lv_color.h **** #elif LV_COLOR_DEPTH == 8
 334:lvgl/src/draw/../misc/lv_color.h ****     return color.full;
 335:lvgl/src/draw/../misc/lv_color.h **** #elif LV_COLOR_DEPTH == 16
 336:lvgl/src/draw/../misc/lv_color.h ****     lv_color8_t ret;
 337:lvgl/src/draw/../misc/lv_color.h ****     LV_COLOR_SET_R8(ret, LV_COLOR_GET_R(color) >> 2); /*5 - 3  = 2*/
 338:lvgl/src/draw/../misc/lv_color.h ****     LV_COLOR_SET_G8(ret, LV_COLOR_GET_G(color) >> 3); /*6 - 3  = 3*/
 339:lvgl/src/draw/../misc/lv_color.h ****     LV_COLOR_SET_B8(ret, LV_COLOR_GET_B(color) >> 3); /*5 - 2  = 3*/
 340:lvgl/src/draw/../misc/lv_color.h ****     return ret.full;
 341:lvgl/src/draw/../misc/lv_color.h **** #elif LV_COLOR_DEPTH == 32
 342:lvgl/src/draw/../misc/lv_color.h ****     lv_color8_t ret;
 343:lvgl/src/draw/../misc/lv_color.h ****     LV_COLOR_SET_R8(ret, LV_COLOR_GET_R(color) >> 5); /*8 - 3  = 5*/
 344:lvgl/src/draw/../misc/lv_color.h ****     LV_COLOR_SET_G8(ret, LV_COLOR_GET_G(color) >> 5); /*8 - 3  = 5*/
 345:lvgl/src/draw/../misc/lv_color.h ****     LV_COLOR_SET_B8(ret, LV_COLOR_GET_B(color) >> 6); /*8 - 2  = 6*/
 346:lvgl/src/draw/../misc/lv_color.h ****     return ret.full;
 347:lvgl/src/draw/../misc/lv_color.h **** #endif
 348:lvgl/src/draw/../misc/lv_color.h **** }
 349:lvgl/src/draw/../misc/lv_color.h **** 
 350:lvgl/src/draw/../misc/lv_color.h **** static inline uint16_t lv_color_to16(lv_color_t color)
 351:lvgl/src/draw/../misc/lv_color.h **** {
 352:lvgl/src/draw/../misc/lv_color.h **** #if LV_COLOR_DEPTH == 1
 353:lvgl/src/draw/../misc/lv_color.h ****     if(color.full == 0)
 354:lvgl/src/draw/../misc/lv_color.h ****         return 0;
 355:lvgl/src/draw/../misc/lv_color.h ****     else
 356:lvgl/src/draw/../misc/lv_color.h ****         return 0xFFFF;
 357:lvgl/src/draw/../misc/lv_color.h **** #elif LV_COLOR_DEPTH == 8
 358:lvgl/src/draw/../misc/lv_color.h ****     lv_color16_t ret;
 359:lvgl/src/draw/../misc/lv_color.h ****     LV_COLOR_SET_R16(ret, LV_COLOR_GET_R(color) * 4);  /*(2^5 - 1)/(2^3 - 1) = 31/7 = 4*/
 360:lvgl/src/draw/../misc/lv_color.h ****     LV_COLOR_SET_G16(ret, LV_COLOR_GET_G(color) * 9);  /*(2^6 - 1)/(2^3 - 1) = 63/7 = 9*/
 361:lvgl/src/draw/../misc/lv_color.h ****     LV_COLOR_SET_B16(ret, LV_COLOR_GET_B(color) * 10); /*(2^5 - 1)/(2^2 - 1) = 31/3 = 10*/
 362:lvgl/src/draw/../misc/lv_color.h ****     return ret.full;
 363:lvgl/src/draw/../misc/lv_color.h **** #elif LV_COLOR_DEPTH == 16
 364:lvgl/src/draw/../misc/lv_color.h ****     return color.full;
 365:lvgl/src/draw/../misc/lv_color.h **** #elif LV_COLOR_DEPTH == 32
 366:lvgl/src/draw/../misc/lv_color.h ****     lv_color16_t ret;
 367:lvgl/src/draw/../misc/lv_color.h ****     LV_COLOR_SET_R16(ret, LV_COLOR_GET_R(color) >> 3); /*8 - 5  = 3*/
 368:lvgl/src/draw/../misc/lv_color.h ****     LV_COLOR_SET_G16(ret, LV_COLOR_GET_G(color) >> 2); /*8 - 6  = 2*/
 369:lvgl/src/draw/../misc/lv_color.h ****     LV_COLOR_SET_B16(ret, LV_COLOR_GET_B(color) >> 3); /*8 - 5  = 3*/
 370:lvgl/src/draw/../misc/lv_color.h ****     return ret.full;
 371:lvgl/src/draw/../misc/lv_color.h **** #endif
 372:lvgl/src/draw/../misc/lv_color.h **** }
 373:lvgl/src/draw/../misc/lv_color.h **** 
 374:lvgl/src/draw/../misc/lv_color.h **** static inline uint32_t lv_color_to32(lv_color_t color)
 375:lvgl/src/draw/../misc/lv_color.h **** {
 376:lvgl/src/draw/../misc/lv_color.h **** #if LV_COLOR_DEPTH == 1
 377:lvgl/src/draw/../misc/lv_color.h ****     if(color.full == 0)
 378:lvgl/src/draw/../misc/lv_color.h ****         return 0xFF000000;
 379:lvgl/src/draw/../misc/lv_color.h ****     else
 380:lvgl/src/draw/../misc/lv_color.h ****         return 0xFFFFFFFF;
 381:lvgl/src/draw/../misc/lv_color.h **** #elif LV_COLOR_DEPTH == 8
 382:lvgl/src/draw/../misc/lv_color.h ****     lv_color32_t ret;
 383:lvgl/src/draw/../misc/lv_color.h ****     LV_COLOR_SET_R32(ret, LV_COLOR_GET_R(color) * 36); /*(2^8 - 1)/(2^3 - 1) = 255/7 = 36*/
 384:lvgl/src/draw/../misc/lv_color.h ****     LV_COLOR_SET_G32(ret, LV_COLOR_GET_G(color) * 36); /*(2^8 - 1)/(2^3 - 1) = 255/7 = 36*/
 385:lvgl/src/draw/../misc/lv_color.h ****     LV_COLOR_SET_B32(ret, LV_COLOR_GET_B(color) * 85); /*(2^8 - 1)/(2^2 - 1) = 255/3 = 85*/
ARM GAS  C:\Users\OSD\AppData\Local\Temp\ccYTBKz7.s 			page 37


 386:lvgl/src/draw/../misc/lv_color.h ****     LV_COLOR_SET_A32(ret, 0xFF);
 387:lvgl/src/draw/../misc/lv_color.h ****     return ret.full;
 388:lvgl/src/draw/../misc/lv_color.h **** #elif LV_COLOR_DEPTH == 16
 389:lvgl/src/draw/../misc/lv_color.h ****     /**
 390:lvgl/src/draw/../misc/lv_color.h ****      * The floating point math for conversion is:
 391:lvgl/src/draw/../misc/lv_color.h ****      *  valueto = valuefrom * ( (2^bitsto - 1) / (float)(2^bitsfrom - 1) )
 392:lvgl/src/draw/../misc/lv_color.h ****      * The faster integer math for conversion is:
 393:lvgl/src/draw/../misc/lv_color.h ****      *  valueto = ( valuefrom * multiplier + adder ) >> divisor
 394:lvgl/src/draw/../misc/lv_color.h ****      *   multiplier = FLOOR( ( (2^bitsto - 1) << divisor ) / (float)(2^bitsfrom - 1) )
 395:lvgl/src/draw/../misc/lv_color.h ****      *
 396:lvgl/src/draw/../misc/lv_color.h ****      * Find the first divisor where ( adder >> divisor ) <= 0
 397:lvgl/src/draw/../misc/lv_color.h ****      *
 398:lvgl/src/draw/../misc/lv_color.h ****      * 5-bit to 8-bit: ( 31 * multiplier + adder ) >> divisor = 255
 399:lvgl/src/draw/../misc/lv_color.h ****      * divisor  multiplier  adder  min (0)  max (31)
 400:lvgl/src/draw/../misc/lv_color.h ****      *       0           8      7        7       255
 401:lvgl/src/draw/../misc/lv_color.h ****      *       1          16     14        7       255
 402:lvgl/src/draw/../misc/lv_color.h ****      *       2          32     28        7       255
 403:lvgl/src/draw/../misc/lv_color.h ****      *       3          65     25        3       255
 404:lvgl/src/draw/../misc/lv_color.h ****      *       4         131     19        1       255
 405:lvgl/src/draw/../misc/lv_color.h ****      *       5         263      7        0       255
 406:lvgl/src/draw/../misc/lv_color.h ****      *
 407:lvgl/src/draw/../misc/lv_color.h ****      * 6-bit to 8-bit: 255 = ( 63 * multiplier + adder ) >> divisor
 408:lvgl/src/draw/../misc/lv_color.h ****      * divisor  multiplier  adder  min (0)  max (63)
 409:lvgl/src/draw/../misc/lv_color.h ****      *       0           4      3        3       255
 410:lvgl/src/draw/../misc/lv_color.h ****      *       1           8      6        3       255
 411:lvgl/src/draw/../misc/lv_color.h ****      *       2          16     12        3       255
 412:lvgl/src/draw/../misc/lv_color.h ****      *       3          32     24        3       255
 413:lvgl/src/draw/../misc/lv_color.h ****      *       4          64     48        3       255
 414:lvgl/src/draw/../misc/lv_color.h ****      *       5         129     33        1       255
 415:lvgl/src/draw/../misc/lv_color.h ****      *       6         259      3        0       255
 416:lvgl/src/draw/../misc/lv_color.h ****      */
 417:lvgl/src/draw/../misc/lv_color.h **** 
 418:lvgl/src/draw/../misc/lv_color.h ****     lv_color32_t ret;
 419:lvgl/src/draw/../misc/lv_color.h ****     LV_COLOR_SET_R32(ret, (LV_COLOR_GET_R(color) * 263 + 7) >> 5);
 420:lvgl/src/draw/../misc/lv_color.h ****     LV_COLOR_SET_G32(ret, (LV_COLOR_GET_G(color) * 259 + 3) >> 6);
 421:lvgl/src/draw/../misc/lv_color.h ****     LV_COLOR_SET_B32(ret, (LV_COLOR_GET_B(color) * 263 + 7) >> 5);
 422:lvgl/src/draw/../misc/lv_color.h ****     LV_COLOR_SET_A32(ret, 0xFF);
 423:lvgl/src/draw/../misc/lv_color.h ****     return ret.full;
 424:lvgl/src/draw/../misc/lv_color.h **** #elif LV_COLOR_DEPTH == 32
 425:lvgl/src/draw/../misc/lv_color.h ****     return color.full;
 426:lvgl/src/draw/../misc/lv_color.h **** #endif
 427:lvgl/src/draw/../misc/lv_color.h **** }
 428:lvgl/src/draw/../misc/lv_color.h **** 
 429:lvgl/src/draw/../misc/lv_color.h **** //! @cond Doxygen_Suppress
 430:lvgl/src/draw/../misc/lv_color.h **** 
 431:lvgl/src/draw/../misc/lv_color.h **** /**
 432:lvgl/src/draw/../misc/lv_color.h ****  * Mix two colors with a given ratio.
 433:lvgl/src/draw/../misc/lv_color.h ****  * @param c1 the first color to mix (usually the foreground)
 434:lvgl/src/draw/../misc/lv_color.h ****  * @param c2 the second color to mix (usually the background)
 435:lvgl/src/draw/../misc/lv_color.h ****  * @param mix The ratio of the colors. 0: full `c2`, 255: full `c1`, 127: half `c1` and half`c2`
 436:lvgl/src/draw/../misc/lv_color.h ****  * @return the mixed color
 437:lvgl/src/draw/../misc/lv_color.h ****  */
 438:lvgl/src/draw/../misc/lv_color.h **** static inline lv_color_t LV_ATTRIBUTE_FAST_MEM lv_color_mix(lv_color_t c1, lv_color_t c2, uint8_t m
 439:lvgl/src/draw/../misc/lv_color.h **** {
 440:lvgl/src/draw/../misc/lv_color.h ****     lv_color_t ret;
 441:lvgl/src/draw/../misc/lv_color.h **** 
 442:lvgl/src/draw/../misc/lv_color.h **** #if LV_COLOR_DEPTH == 16 && LV_COLOR_MIX_ROUND_OFS == 0
ARM GAS  C:\Users\OSD\AppData\Local\Temp\ccYTBKz7.s 			page 38


 443:lvgl/src/draw/../misc/lv_color.h **** #if LV_COLOR_16_SWAP == 1
 444:lvgl/src/draw/../misc/lv_color.h ****     c1.full = c1.full << 8 | c1.full >> 8;
 445:lvgl/src/draw/../misc/lv_color.h ****     c2.full = c2.full << 8 | c2.full >> 8;
 446:lvgl/src/draw/../misc/lv_color.h **** #endif
 447:lvgl/src/draw/../misc/lv_color.h ****     /*Source: https://stackoverflow.com/a/50012418/1999969*/
 448:lvgl/src/draw/../misc/lv_color.h ****     mix = (uint32_t)((uint32_t)mix + 4) >> 3;
 449:lvgl/src/draw/../misc/lv_color.h ****     uint32_t bg = (uint32_t)((uint32_t)c2.full | ((uint32_t)c2.full << 16)) &
 450:lvgl/src/draw/../misc/lv_color.h ****                   0x7E0F81F; /*0b00000111111000001111100000011111*/
 451:lvgl/src/draw/../misc/lv_color.h ****     uint32_t fg = (uint32_t)((uint32_t)c1.full | ((uint32_t)c1.full << 16)) & 0x7E0F81F;
 452:lvgl/src/draw/../misc/lv_color.h ****     uint32_t result = ((((fg - bg) * mix) >> 5) + bg) & 0x7E0F81F;
 453:lvgl/src/draw/../misc/lv_color.h ****     ret.full = (uint16_t)((result >> 16) | result);
 454:lvgl/src/draw/../misc/lv_color.h **** #if LV_COLOR_16_SWAP == 1
 455:lvgl/src/draw/../misc/lv_color.h ****     ret.full = ret.full << 8 | ret.full >> 8;
 456:lvgl/src/draw/../misc/lv_color.h **** #endif
 457:lvgl/src/draw/../misc/lv_color.h **** #elif LV_COLOR_DEPTH != 1
 458:lvgl/src/draw/../misc/lv_color.h ****     /*LV_COLOR_DEPTH == 8, 16 or 32*/
 459:lvgl/src/draw/../misc/lv_color.h ****     LV_COLOR_SET_R(ret, LV_UDIV255((uint16_t)LV_COLOR_GET_R(c1) * mix + LV_COLOR_GET_R(c2) *
 460:lvgl/src/draw/../misc/lv_color.h ****                                    (255 - mix) + LV_COLOR_MIX_ROUND_OFS));
 461:lvgl/src/draw/../misc/lv_color.h ****     LV_COLOR_SET_G(ret, LV_UDIV255((uint16_t)LV_COLOR_GET_G(c1) * mix + LV_COLOR_GET_G(c2) *
 462:lvgl/src/draw/../misc/lv_color.h ****                                    (255 - mix) + LV_COLOR_MIX_ROUND_OFS));
 463:lvgl/src/draw/../misc/lv_color.h ****     LV_COLOR_SET_B(ret, LV_UDIV255((uint16_t)LV_COLOR_GET_B(c1) * mix + LV_COLOR_GET_B(c2) *
 464:lvgl/src/draw/../misc/lv_color.h ****                                    (255 - mix) + LV_COLOR_MIX_ROUND_OFS));
 465:lvgl/src/draw/../misc/lv_color.h ****     LV_COLOR_SET_A(ret, 0xFF);
 466:lvgl/src/draw/../misc/lv_color.h **** #else
 467:lvgl/src/draw/../misc/lv_color.h ****     /*LV_COLOR_DEPTH == 1*/
 468:lvgl/src/draw/../misc/lv_color.h ****     ret.full = mix > LV_OPA_50 ? c1.full : c2.full;
 469:lvgl/src/draw/../misc/lv_color.h **** #endif
 470:lvgl/src/draw/../misc/lv_color.h **** 
 471:lvgl/src/draw/../misc/lv_color.h ****     return ret;
 472:lvgl/src/draw/../misc/lv_color.h **** }
 473:lvgl/src/draw/../misc/lv_color.h **** 
 474:lvgl/src/draw/../misc/lv_color.h **** static inline void LV_ATTRIBUTE_FAST_MEM lv_color_premult(lv_color_t c, uint8_t mix, uint16_t * out
 475:lvgl/src/draw/../misc/lv_color.h **** {
 476:lvgl/src/draw/../misc/lv_color.h **** #if LV_COLOR_DEPTH != 1
 477:lvgl/src/draw/../misc/lv_color.h ****     out[0] = (uint16_t)LV_COLOR_GET_R(c) * mix;
 478:lvgl/src/draw/../misc/lv_color.h ****     out[1] = (uint16_t)LV_COLOR_GET_G(c) * mix;
 479:lvgl/src/draw/../misc/lv_color.h ****     out[2] = (uint16_t)LV_COLOR_GET_B(c) * mix;
 480:lvgl/src/draw/../misc/lv_color.h **** #else
 481:lvgl/src/draw/../misc/lv_color.h ****     (void) mix;
 482:lvgl/src/draw/../misc/lv_color.h ****     /*Pre-multiplication can't be used with 1 bpp*/
 483:lvgl/src/draw/../misc/lv_color.h ****     out[0] = LV_COLOR_GET_R(c);
 484:lvgl/src/draw/../misc/lv_color.h ****     out[1] = LV_COLOR_GET_G(c);
 485:lvgl/src/draw/../misc/lv_color.h ****     out[2] = LV_COLOR_GET_B(c);
 486:lvgl/src/draw/../misc/lv_color.h **** #endif
 487:lvgl/src/draw/../misc/lv_color.h **** 
 488:lvgl/src/draw/../misc/lv_color.h **** }
 489:lvgl/src/draw/../misc/lv_color.h **** 
 490:lvgl/src/draw/../misc/lv_color.h **** /**
 491:lvgl/src/draw/../misc/lv_color.h ****  * Mix two colors with a given ratio. It runs faster then `lv_color_mix` but requires some pre comp
 492:lvgl/src/draw/../misc/lv_color.h ****  * @param premult_c1 The first color. Should be preprocessed with `lv_color_premult(c1)`
 493:lvgl/src/draw/../misc/lv_color.h ****  * @param c2 The second color. As it is no pre computation required on it
 494:lvgl/src/draw/../misc/lv_color.h ****  * @param mix The ratio of the colors. 0: full `c1`, 255: full `c2`, 127: half `c1` and half `c2`.
 495:lvgl/src/draw/../misc/lv_color.h ****  *            Should be modified like mix = `255 - mix`
 496:lvgl/src/draw/../misc/lv_color.h ****  * @return the mixed color
 497:lvgl/src/draw/../misc/lv_color.h ****  * @note 255 won't give clearly `c1`.
 498:lvgl/src/draw/../misc/lv_color.h ****  */
 499:lvgl/src/draw/../misc/lv_color.h **** static inline lv_color_t LV_ATTRIBUTE_FAST_MEM lv_color_mix_premult(uint16_t * premult_c1, lv_color
ARM GAS  C:\Users\OSD\AppData\Local\Temp\ccYTBKz7.s 			page 39


 500:lvgl/src/draw/../misc/lv_color.h **** {
 501:lvgl/src/draw/../misc/lv_color.h ****     lv_color_t ret;
 502:lvgl/src/draw/../misc/lv_color.h **** #if LV_COLOR_DEPTH != 1
 503:lvgl/src/draw/../misc/lv_color.h ****     /*LV_COLOR_DEPTH == 8 or 32*/
 504:lvgl/src/draw/../misc/lv_color.h ****     LV_COLOR_SET_R(ret, LV_UDIV255(premult_c1[0] + LV_COLOR_GET_R(c2) * mix + LV_COLOR_MIX_ROUND_OF
 505:lvgl/src/draw/../misc/lv_color.h ****     LV_COLOR_SET_G(ret, LV_UDIV255(premult_c1[1] + LV_COLOR_GET_G(c2) * mix + LV_COLOR_MIX_ROUND_OF
 506:lvgl/src/draw/../misc/lv_color.h ****     LV_COLOR_SET_B(ret, LV_UDIV255(premult_c1[2] + LV_COLOR_GET_B(c2) * mix + LV_COLOR_MIX_ROUND_OF
 507:lvgl/src/draw/../misc/lv_color.h ****     LV_COLOR_SET_A(ret, 0xFF);
 508:lvgl/src/draw/../misc/lv_color.h **** #else
 509:lvgl/src/draw/../misc/lv_color.h ****     /*LV_COLOR_DEPTH == 1*/
 510:lvgl/src/draw/../misc/lv_color.h ****     /*Restore color1*/
 511:lvgl/src/draw/../misc/lv_color.h ****     lv_color_t c1;
 512:lvgl/src/draw/../misc/lv_color.h ****     LV_COLOR_SET_R(c1, premult_c1[0]);
 513:lvgl/src/draw/../misc/lv_color.h ****     LV_COLOR_SET_G(c1, premult_c1[1]);
 514:lvgl/src/draw/../misc/lv_color.h ****     LV_COLOR_SET_B(c1, premult_c1[2]);
 515:lvgl/src/draw/../misc/lv_color.h ****     ret.full = mix > LV_OPA_50 ? c2.full : c1.full;
 516:lvgl/src/draw/../misc/lv_color.h **** #endif
 517:lvgl/src/draw/../misc/lv_color.h **** 
 518:lvgl/src/draw/../misc/lv_color.h ****     return ret;
 519:lvgl/src/draw/../misc/lv_color.h **** }
 520:lvgl/src/draw/../misc/lv_color.h **** 
 521:lvgl/src/draw/../misc/lv_color.h **** /**
 522:lvgl/src/draw/../misc/lv_color.h ****  * Mix two colors. Both color can have alpha value.
 523:lvgl/src/draw/../misc/lv_color.h ****  * @param bg_color background color
 524:lvgl/src/draw/../misc/lv_color.h ****  * @param bg_opa alpha of the background color
 525:lvgl/src/draw/../misc/lv_color.h ****  * @param fg_color foreground color
 526:lvgl/src/draw/../misc/lv_color.h ****  * @param fg_opa alpha of the foreground color
 527:lvgl/src/draw/../misc/lv_color.h ****  * @param res_color the result color
 528:lvgl/src/draw/../misc/lv_color.h ****  * @param res_opa the result opacity
 529:lvgl/src/draw/../misc/lv_color.h ****  */
 530:lvgl/src/draw/../misc/lv_color.h **** static inline void LV_ATTRIBUTE_FAST_MEM lv_color_mix_with_alpha(lv_color_t bg_color, lv_opa_t bg_o
 531:lvgl/src/draw/../misc/lv_color.h ****                                                                  lv_color_t fg_color, lv_opa_t fg_o
 532:lvgl/src/draw/../misc/lv_color.h ****                                                                  lv_color_t * res_color, lv_opa_t *
 533:lvgl/src/draw/../misc/lv_color.h **** {
 534:lvgl/src/draw/../misc/lv_color.h ****     /*Pick the foreground if it's fully opaque or the Background is fully transparent*/
 535:lvgl/src/draw/../misc/lv_color.h ****     if(fg_opa >= LV_OPA_MAX || bg_opa <= LV_OPA_MIN) {
 536:lvgl/src/draw/../misc/lv_color.h ****         res_color->full = fg_color.full;
 537:lvgl/src/draw/../misc/lv_color.h ****         *res_opa = fg_opa;
 538:lvgl/src/draw/../misc/lv_color.h ****     }
 539:lvgl/src/draw/../misc/lv_color.h ****     /*Transparent foreground: use the Background*/
 540:lvgl/src/draw/../misc/lv_color.h ****     else if(fg_opa <= LV_OPA_MIN) {
 541:lvgl/src/draw/../misc/lv_color.h ****         res_color->full = bg_color.full;
 542:lvgl/src/draw/../misc/lv_color.h ****         *res_opa = bg_opa;
 543:lvgl/src/draw/../misc/lv_color.h ****     }
 544:lvgl/src/draw/../misc/lv_color.h ****     /*Opaque background: use simple mix*/
 545:lvgl/src/draw/../misc/lv_color.h ****     else if(bg_opa >= LV_OPA_MAX) {
 546:lvgl/src/draw/../misc/lv_color.h ****         *res_color = lv_color_mix(fg_color, bg_color, fg_opa);
 547:lvgl/src/draw/../misc/lv_color.h ****         *res_opa = LV_OPA_COVER;
 548:lvgl/src/draw/../misc/lv_color.h ****     }
 549:lvgl/src/draw/../misc/lv_color.h ****     /*Both colors have alpha. Expensive calculation need to be applied*/
 550:lvgl/src/draw/../misc/lv_color.h ****     else {
 551:lvgl/src/draw/../misc/lv_color.h ****         /*Save the parameters and the result. If they will be asked again don't compute again*/
 552:lvgl/src/draw/../misc/lv_color.h ****         static lv_opa_t fg_opa_save     = 0;
 553:lvgl/src/draw/../misc/lv_color.h ****         static lv_opa_t bg_opa_save     = 0;
 554:lvgl/src/draw/../misc/lv_color.h ****         static lv_color_t fg_color_save = _LV_COLOR_ZERO_INITIALIZER;
 555:lvgl/src/draw/../misc/lv_color.h ****         static lv_color_t bg_color_save = _LV_COLOR_ZERO_INITIALIZER;
 556:lvgl/src/draw/../misc/lv_color.h ****         static lv_color_t res_color_saved = _LV_COLOR_ZERO_INITIALIZER;
ARM GAS  C:\Users\OSD\AppData\Local\Temp\ccYTBKz7.s 			page 40


 557:lvgl/src/draw/../misc/lv_color.h ****         static lv_opa_t res_opa_saved = 0;
 558:lvgl/src/draw/../misc/lv_color.h **** 
 559:lvgl/src/draw/../misc/lv_color.h ****         if(fg_opa != fg_opa_save || bg_opa != bg_opa_save || fg_color.full != fg_color_save.full ||
 560:lvgl/src/draw/../misc/lv_color.h ****            bg_color.full != bg_color_save.full) {
 561:lvgl/src/draw/../misc/lv_color.h ****             fg_opa_save        = fg_opa;
 562:lvgl/src/draw/../misc/lv_color.h ****             bg_opa_save        = bg_opa;
 563:lvgl/src/draw/../misc/lv_color.h ****             fg_color_save.full = fg_color.full;
 564:lvgl/src/draw/../misc/lv_color.h ****             bg_color_save.full = bg_color.full;
 565:lvgl/src/draw/../misc/lv_color.h ****             /*Info:
 566:lvgl/src/draw/../misc/lv_color.h ****              * https://en.wikipedia.org/wiki/Alpha_compositing#Analytical_derivation_of_the_over_op
 567:lvgl/src/draw/../misc/lv_color.h ****             res_opa_saved = 255 - ((uint16_t)((uint16_t)(255 - fg_opa) * (255 - bg_opa)) >> 8);
 568:lvgl/src/draw/../misc/lv_color.h ****             LV_ASSERT(res_opa_saved != 0);
 569:lvgl/src/draw/../misc/lv_color.h ****             lv_opa_t ratio = (uint16_t)((uint16_t)fg_opa * 255) / res_opa_saved;
 570:lvgl/src/draw/../misc/lv_color.h ****             res_color_saved = lv_color_mix(fg_color, bg_color, ratio);
 571:lvgl/src/draw/../misc/lv_color.h **** 
 572:lvgl/src/draw/../misc/lv_color.h ****         }
 573:lvgl/src/draw/../misc/lv_color.h **** 
 574:lvgl/src/draw/../misc/lv_color.h ****         res_color->full = res_color_saved.full;
 575:lvgl/src/draw/../misc/lv_color.h ****         *res_opa = res_opa_saved;
 576:lvgl/src/draw/../misc/lv_color.h ****     }
 577:lvgl/src/draw/../misc/lv_color.h **** }
 578:lvgl/src/draw/../misc/lv_color.h **** 
 579:lvgl/src/draw/../misc/lv_color.h **** //! @endcond
 580:lvgl/src/draw/../misc/lv_color.h **** 
 581:lvgl/src/draw/../misc/lv_color.h **** /**
 582:lvgl/src/draw/../misc/lv_color.h ****  * Get the brightness of a color
 583:lvgl/src/draw/../misc/lv_color.h ****  * @param color a color
 584:lvgl/src/draw/../misc/lv_color.h ****  * @return the brightness [0..255]
 585:lvgl/src/draw/../misc/lv_color.h ****  */
 586:lvgl/src/draw/../misc/lv_color.h **** static inline uint8_t lv_color_brightness(lv_color_t color)
 587:lvgl/src/draw/../misc/lv_color.h **** {
 588:lvgl/src/draw/../misc/lv_color.h ****     lv_color32_t c32;
 589:lvgl/src/draw/../misc/lv_color.h ****     c32.full        = lv_color_to32(color);
 590:lvgl/src/draw/../misc/lv_color.h ****     uint16_t bright = (uint16_t)(3u * LV_COLOR_GET_R32(c32) + LV_COLOR_GET_B32(c32) + 4u * LV_COLOR
 591:lvgl/src/draw/../misc/lv_color.h ****     return (uint8_t)(bright >> 3);
 592:lvgl/src/draw/../misc/lv_color.h **** }
 593:lvgl/src/draw/../misc/lv_color.h **** 
 594:lvgl/src/draw/../misc/lv_color.h **** static inline lv_color_t lv_color_make(uint8_t r, uint8_t g, uint8_t b)
 746              		.loc 3 594 26 is_stmt 1 discriminator 3 view .LVU253
 747              	.LBB27:
 595:lvgl/src/draw/../misc/lv_color.h **** {
 596:lvgl/src/draw/../misc/lv_color.h ****     return _LV_COLOR_MAKE_TYPE_HELPER LV_COLOR_MAKE(r, g, b);
 748              		.loc 3 596 5 discriminator 3 view .LVU254
 749              		.loc 3 596 12 is_stmt 0 discriminator 3 view .LVU255
 750 016c 67F30706 		bfi	r6, r7, #0, #8
 751 0170 65F30F26 		bfi	r6, r5, #8, #8
 752 0174 64F31746 		bfi	r6, r4, #16, #8
 753 0178 46F07F46 		orr	r6, r6, #-16777216
 754              	.LVL82:
 755              		.loc 3 596 12 discriminator 3 view .LVU256
 756              	.LBE27:
 757              	.LBE26:
 448:lvgl/src/draw/lv_img_decoder.c ****                 user_data->opa[i]     = palette_p[i].ch.alpha;
 758              		.loc 1 448 41 discriminator 3 view .LVU257
 759 017c 40F82360 		str	r6, [r0, r3, lsl #2]
 449:lvgl/src/draw/lv_img_decoder.c ****             }
 760              		.loc 1 449 17 is_stmt 1 discriminator 3 view .LVU258
ARM GAS  C:\Users\OSD\AppData\Local\Temp\ccYTBKz7.s 			page 41


 449:lvgl/src/draw/lv_img_decoder.c ****             }
 761              		.loc 1 449 26 is_stmt 0 discriminator 3 view .LVU259
 762 0180 D8F81000 		ldr	r0, [r8, #16]
 449:lvgl/src/draw/lv_img_decoder.c ****             }
 763              		.loc 1 449 56 discriminator 3 view .LVU260
 764 0184 D278     		ldrb	r2, [r2, #3]	@ zero_extendqisi2
 449:lvgl/src/draw/lv_img_decoder.c ****             }
 765              		.loc 1 449 39 discriminator 3 view .LVU261
 766 0186 C254     		strb	r2, [r0, r3]
 447:lvgl/src/draw/lv_img_decoder.c ****                 user_data->palette[i] = lv_color_make(palette_p[i].ch.red, palette_p[i].ch.green, p
 767              		.loc 1 447 42 is_stmt 1 discriminator 3 view .LVU262
 447:lvgl/src/draw/lv_img_decoder.c ****                 user_data->palette[i] = lv_color_make(palette_p[i].ch.red, palette_p[i].ch.green, p
 768              		.loc 1 447 43 is_stmt 0 discriminator 3 view .LVU263
 769 0188 0133     		adds	r3, r3, #1
 770              	.LVL83:
 447:lvgl/src/draw/lv_img_decoder.c ****                 user_data->palette[i] = lv_color_make(palette_p[i].ch.red, palette_p[i].ch.green, p
 771              		.loc 1 447 43 discriminator 3 view .LVU264
 772 018a E5E7     		b	.L51
 773              	.LVL84:
 774              	.L66:
 447:lvgl/src/draw/lv_img_decoder.c ****                 user_data->palette[i] = lv_color_make(palette_p[i].ch.red, palette_p[i].ch.green, p
 775              		.loc 1 447 43 discriminator 3 view .LVU265
 776              	.LBE25:
 411:lvgl/src/draw/lv_img_decoder.c ****             LV_ASSERT_MALLOC(dsc->user_data);
 777              		.loc 1 411 13 is_stmt 1 view .LVU266
 411:lvgl/src/draw/lv_img_decoder.c ****             LV_ASSERT_MALLOC(dsc->user_data);
 778              		.loc 1 411 30 is_stmt 0 view .LVU267
 779 018c 1420     		movs	r0, #20
 780              	.LVL85:
 411:lvgl/src/draw/lv_img_decoder.c ****             LV_ASSERT_MALLOC(dsc->user_data);
 781              		.loc 1 411 30 view .LVU268
 782 018e FFF7FEFF 		bl	lv_mem_alloc
 783              	.LVL86:
 411:lvgl/src/draw/lv_img_decoder.c ****             LV_ASSERT_MALLOC(dsc->user_data);
 784              		.loc 1 411 28 view .LVU269
 785 0192 6062     		str	r0, [r4, #36]
 412:lvgl/src/draw/lv_img_decoder.c ****             if(dsc->user_data == NULL) {
 786              		.loc 1 412 13 is_stmt 1 view .LVU270
 412:lvgl/src/draw/lv_img_decoder.c ****             if(dsc->user_data == NULL) {
 787              		.loc 1 412 13 view .LVU271
 788 0194 18B1     		cbz	r0, .L41
 412:lvgl/src/draw/lv_img_decoder.c ****             if(dsc->user_data == NULL) {
 789              		.loc 1 412 13 view .LVU272
 412:lvgl/src/draw/lv_img_decoder.c ****             if(dsc->user_data == NULL) {
 790              		.loc 1 412 45 view .LVU273
 413:lvgl/src/draw/lv_img_decoder.c ****                 LV_LOG_ERROR("img_decoder_built_in_open: out of memory");
 791              		.loc 1 413 13 view .LVU274
 417:lvgl/src/draw/lv_img_decoder.c ****         }
 792              		.loc 1 417 13 view .LVU275
 793 0196 1421     		movs	r1, #20
 794 0198 FFF7FEFF 		bl	lv_memset_00
 795              	.LVL87:
 796 019c C3E7     		b	.L39
 797              	.L41:
 412:lvgl/src/draw/lv_img_decoder.c ****             if(dsc->user_data == NULL) {
 798              		.loc 1 412 13 discriminator 3 view .LVU276
 412:lvgl/src/draw/lv_img_decoder.c ****             if(dsc->user_data == NULL) {
ARM GAS  C:\Users\OSD\AppData\Local\Temp\ccYTBKz7.s 			page 42


 799              		.loc 1 412 13 discriminator 3 view .LVU277
 412:lvgl/src/draw/lv_img_decoder.c ****             if(dsc->user_data == NULL) {
 800              		.loc 1 412 13 discriminator 3 view .LVU278
 412:lvgl/src/draw/lv_img_decoder.c ****             if(dsc->user_data == NULL) {
 801              		.loc 1 412 13 discriminator 3 view .LVU279
 412:lvgl/src/draw/lv_img_decoder.c ****             if(dsc->user_data == NULL) {
 802              		.loc 1 412 13 discriminator 3 view .LVU280
 412:lvgl/src/draw/lv_img_decoder.c ****             if(dsc->user_data == NULL) {
 803              		.loc 1 412 13 discriminator 3 view .LVU281
 804 019e FEE7     		b	.L41
 805              	.LVL88:
 806              	.L43:
 422:lvgl/src/draw/lv_img_decoder.c ****         user_data->opa                             = lv_mem_alloc(palette_size * sizeof(lv_opa_t));
 807              		.loc 1 422 9 discriminator 4 view .LVU282
 422:lvgl/src/draw/lv_img_decoder.c ****         user_data->opa                             = lv_mem_alloc(palette_size * sizeof(lv_opa_t));
 808              		.loc 1 422 9 discriminator 4 view .LVU283
 422:lvgl/src/draw/lv_img_decoder.c ****         user_data->opa                             = lv_mem_alloc(palette_size * sizeof(lv_opa_t));
 809              		.loc 1 422 9 discriminator 4 view .LVU284
 422:lvgl/src/draw/lv_img_decoder.c ****         user_data->opa                             = lv_mem_alloc(palette_size * sizeof(lv_opa_t));
 810              		.loc 1 422 9 discriminator 4 view .LVU285
 422:lvgl/src/draw/lv_img_decoder.c ****         user_data->opa                             = lv_mem_alloc(palette_size * sizeof(lv_opa_t));
 811              		.loc 1 422 9 discriminator 4 view .LVU286
 422:lvgl/src/draw/lv_img_decoder.c ****         user_data->opa                             = lv_mem_alloc(palette_size * sizeof(lv_opa_t));
 812              		.loc 1 422 9 discriminator 4 view .LVU287
 813 01a0 FEE7     		b	.L43
 814              	.L45:
 424:lvgl/src/draw/lv_img_decoder.c ****         if(user_data->palette == NULL || user_data->opa == NULL) {
 815              		.loc 1 424 9 discriminator 5 view .LVU288
 424:lvgl/src/draw/lv_img_decoder.c ****         if(user_data->palette == NULL || user_data->opa == NULL) {
 816              		.loc 1 424 9 discriminator 5 view .LVU289
 424:lvgl/src/draw/lv_img_decoder.c ****         if(user_data->palette == NULL || user_data->opa == NULL) {
 817              		.loc 1 424 9 discriminator 5 view .LVU290
 424:lvgl/src/draw/lv_img_decoder.c ****         if(user_data->palette == NULL || user_data->opa == NULL) {
 818              		.loc 1 424 9 discriminator 5 view .LVU291
 424:lvgl/src/draw/lv_img_decoder.c ****         if(user_data->palette == NULL || user_data->opa == NULL) {
 819              		.loc 1 424 9 discriminator 5 view .LVU292
 424:lvgl/src/draw/lv_img_decoder.c ****         if(user_data->palette == NULL || user_data->opa == NULL) {
 820              		.loc 1 424 9 discriminator 5 view .LVU293
 821 01a2 FEE7     		b	.L45
 822              	.L67:
 426:lvgl/src/draw/lv_img_decoder.c ****             lv_img_decoder_built_in_close(decoder, dsc);
 823              		.loc 1 426 13 view .LVU294
 426:lvgl/src/draw/lv_img_decoder.c ****             lv_img_decoder_built_in_close(decoder, dsc);
 824              		.loc 1 426 13 view .LVU295
 426:lvgl/src/draw/lv_img_decoder.c ****             lv_img_decoder_built_in_close(decoder, dsc);
 825              		.loc 1 426 13 view .LVU296
 427:lvgl/src/draw/lv_img_decoder.c ****             return LV_RES_INV;
 826              		.loc 1 427 13 view .LVU297
 827 01a4 2146     		mov	r1, r4
 828 01a6 2846     		mov	r0, r5
 829 01a8 FFF7FEFF 		bl	lv_img_decoder_built_in_close
 830              	.LVL89:
 428:lvgl/src/draw/lv_img_decoder.c ****         }
 831              		.loc 1 428 13 view .LVU298
 428:lvgl/src/draw/lv_img_decoder.c ****         }
 832              		.loc 1 428 20 is_stmt 0 view .LVU299
 833 01ac 0020     		movs	r0, #0
ARM GAS  C:\Users\OSD\AppData\Local\Temp\ccYTBKz7.s 			page 43


 834 01ae 6BE7     		b	.L32
 835              	.L68:
 836              	.LBB28:
 433:lvgl/src/draw/lv_img_decoder.c ****             lv_color32_t cur_color;
 837              		.loc 1 433 13 is_stmt 1 view .LVU300
 838 01b0 0022     		movs	r2, #0
 839 01b2 0421     		movs	r1, #4
 840 01b4 4046     		mov	r0, r8
 841 01b6 FFF7FEFF 		bl	lv_fs_seek
 842              	.LVL90:
 434:lvgl/src/draw/lv_img_decoder.c ****             uint32_t i;
 843              		.loc 1 434 13 view .LVU301
 435:lvgl/src/draw/lv_img_decoder.c ****             for(i = 0; i < palette_size; i++) {
 844              		.loc 1 435 13 view .LVU302
 436:lvgl/src/draw/lv_img_decoder.c ****                 lv_fs_read(&user_data->f, &cur_color, sizeof(lv_color32_t), NULL);
 845              		.loc 1 436 13 view .LVU303
 436:lvgl/src/draw/lv_img_decoder.c ****                 lv_fs_read(&user_data->f, &cur_color, sizeof(lv_color32_t), NULL);
 846              		.loc 1 436 19 is_stmt 0 view .LVU304
 847 01ba 0024     		movs	r4, #0
 848              	.LVL91:
 436:lvgl/src/draw/lv_img_decoder.c ****                 lv_fs_read(&user_data->f, &cur_color, sizeof(lv_color32_t), NULL);
 849              		.loc 1 436 13 view .LVU305
 850 01bc 1EE0     		b	.L48
 851              	.LVL92:
 852              	.L49:
 437:lvgl/src/draw/lv_img_decoder.c ****                 user_data->palette[i] = lv_color_make(cur_color.ch.red, cur_color.ch.green, cur_col
 853              		.loc 1 437 17 is_stmt 1 discriminator 3 view .LVU306
 854 01be 0023     		movs	r3, #0
 855 01c0 0422     		movs	r2, #4
 856 01c2 0DEB0201 		add	r1, sp, r2
 857 01c6 4046     		mov	r0, r8
 858 01c8 FFF7FEFF 		bl	lv_fs_read
 859              	.LVL93:
 438:lvgl/src/draw/lv_img_decoder.c ****                 user_data->opa[i]     = cur_color.ch.alpha;
 860              		.loc 1 438 17 discriminator 3 view .LVU307
 438:lvgl/src/draw/lv_img_decoder.c ****                 user_data->opa[i]     = cur_color.ch.alpha;
 861              		.loc 1 438 41 is_stmt 0 discriminator 3 view .LVU308
 862 01cc 9DF80620 		ldrb	r2, [sp, #6]	@ zero_extendqisi2
 863 01d0 9DF80510 		ldrb	r1, [sp, #5]	@ zero_extendqisi2
 864 01d4 9DF80400 		ldrb	r0, [sp, #4]	@ zero_extendqisi2
 438:lvgl/src/draw/lv_img_decoder.c ****                 user_data->opa[i]     = cur_color.ch.alpha;
 865              		.loc 1 438 26 discriminator 3 view .LVU309
 866 01d8 D8F80C30 		ldr	r3, [r8, #12]
 867              	.LVL94:
 868              	.LBB29:
 869              	.LBI29:
 594:lvgl/src/draw/../misc/lv_color.h **** {
 870              		.loc 3 594 26 is_stmt 1 discriminator 3 view .LVU310
 871              	.LBB30:
 872              		.loc 3 596 5 discriminator 3 view .LVU311
 873              		.loc 3 596 12 is_stmt 0 discriminator 3 view .LVU312
 874 01dc 60F30707 		bfi	r7, r0, #0, #8
 875 01e0 61F30F27 		bfi	r7, r1, #8, #8
 876 01e4 62F31747 		bfi	r7, r2, #16, #8
 877 01e8 47F07F47 		orr	r7, r7, #-16777216
 878              	.LVL95:
 879              		.loc 3 596 12 discriminator 3 view .LVU313
ARM GAS  C:\Users\OSD\AppData\Local\Temp\ccYTBKz7.s 			page 44


 880              	.LBE30:
 881              	.LBE29:
 438:lvgl/src/draw/lv_img_decoder.c ****                 user_data->opa[i]     = cur_color.ch.alpha;
 882              		.loc 1 438 41 discriminator 3 view .LVU314
 883 01ec 43F82470 		str	r7, [r3, r4, lsl #2]
 439:lvgl/src/draw/lv_img_decoder.c ****             }
 884              		.loc 1 439 17 is_stmt 1 discriminator 3 view .LVU315
 439:lvgl/src/draw/lv_img_decoder.c ****             }
 885              		.loc 1 439 26 is_stmt 0 discriminator 3 view .LVU316
 886 01f0 D8F81030 		ldr	r3, [r8, #16]
 439:lvgl/src/draw/lv_img_decoder.c ****             }
 887              		.loc 1 439 53 discriminator 3 view .LVU317
 888 01f4 9DF80720 		ldrb	r2, [sp, #7]	@ zero_extendqisi2
 439:lvgl/src/draw/lv_img_decoder.c ****             }
 889              		.loc 1 439 39 discriminator 3 view .LVU318
 890 01f8 1A55     		strb	r2, [r3, r4]
 436:lvgl/src/draw/lv_img_decoder.c ****                 lv_fs_read(&user_data->f, &cur_color, sizeof(lv_color32_t), NULL);
 891              		.loc 1 436 42 is_stmt 1 discriminator 3 view .LVU319
 436:lvgl/src/draw/lv_img_decoder.c ****                 lv_fs_read(&user_data->f, &cur_color, sizeof(lv_color32_t), NULL);
 892              		.loc 1 436 43 is_stmt 0 discriminator 3 view .LVU320
 893 01fa 0134     		adds	r4, r4, #1
 894              	.LVL96:
 895              	.L48:
 436:lvgl/src/draw/lv_img_decoder.c ****                 lv_fs_read(&user_data->f, &cur_color, sizeof(lv_color32_t), NULL);
 896              		.loc 1 436 24 is_stmt 1 discriminator 1 view .LVU321
 436:lvgl/src/draw/lv_img_decoder.c ****                 lv_fs_read(&user_data->f, &cur_color, sizeof(lv_color32_t), NULL);
 897              		.loc 1 436 13 is_stmt 0 discriminator 1 view .LVU322
 898 01fc 4C45     		cmp	r4, r9
 899 01fe DED3     		bcc	.L49
 900              	.LVL97:
 901              	.L50:
 436:lvgl/src/draw/lv_img_decoder.c ****                 lv_fs_read(&user_data->f, &cur_color, sizeof(lv_color32_t), NULL);
 902              		.loc 1 436 13 discriminator 1 view .LVU323
 903              	.LBE28:
 453:lvgl/src/draw/lv_img_decoder.c ****     }
 904              		.loc 1 453 9 is_stmt 1 view .LVU324
 453:lvgl/src/draw/lv_img_decoder.c ****     }
 905              		.loc 1 453 16 is_stmt 0 view .LVU325
 906 0200 0120     		movs	r0, #1
 907 0202 41E7     		b	.L32
 908              	.LVL98:
 909              	.L65:
 453:lvgl/src/draw/lv_img_decoder.c ****     }
 910              		.loc 1 453 16 view .LVU326
 911              	.LBE24:
 462:lvgl/src/draw/lv_img_decoder.c **** 
 912              		.loc 1 462 9 is_stmt 1 view .LVU327
 913 0204 2146     		mov	r1, r4
 914 0206 2846     		mov	r0, r5
 915 0208 FFF7FEFF 		bl	lv_img_decoder_built_in_close
 916              	.LVL99:
 464:lvgl/src/draw/lv_img_decoder.c ****         return LV_RES_INV;
 917              		.loc 1 464 9 view .LVU328
 464:lvgl/src/draw/lv_img_decoder.c ****         return LV_RES_INV;
 918              		.loc 1 464 9 view .LVU329
 464:lvgl/src/draw/lv_img_decoder.c ****         return LV_RES_INV;
 919              		.loc 1 464 9 view .LVU330
ARM GAS  C:\Users\OSD\AppData\Local\Temp\ccYTBKz7.s 			page 45


 465:lvgl/src/draw/lv_img_decoder.c ****     }
 920              		.loc 1 465 9 view .LVU331
 465:lvgl/src/draw/lv_img_decoder.c ****     }
 921              		.loc 1 465 16 is_stmt 0 view .LVU332
 922 020c 0020     		movs	r0, #0
 923 020e 3BE7     		b	.L32
 924              	.LVL100:
 925              	.L54:
 926              	.LBB31:
 376:lvgl/src/draw/lv_img_decoder.c **** 
 927              		.loc 1 376 39 view .LVU333
 928 0210 0020     		movs	r0, #0
 929              	.LVL101:
 376:lvgl/src/draw/lv_img_decoder.c **** 
 930              		.loc 1 376 39 view .LVU334
 931 0212 39E7     		b	.L32
 932              	.LVL102:
 933              	.L55:
 376:lvgl/src/draw/lv_img_decoder.c **** 
 934              		.loc 1 376 39 view .LVU335
 935              	.LBE31:
 400:lvgl/src/draw/lv_img_decoder.c ****         }
 936              		.loc 1 400 20 view .LVU336
 937 0214 0120     		movs	r0, #1
 938 0216 37E7     		b	.L32
 939              	.L70:
 940              		.align	2
 941              	.L69:
 942 0218 00000000 		.word	.LC0
 943              		.cfi_endproc
 944              	.LFE68:
 946              		.section	.text.lv_img_decoder_built_in_line_true_color,"ax",%progbits
 947              		.align	1
 948              		.syntax unified
 949              		.thumb
 950              		.thumb_func
 952              	lv_img_decoder_built_in_line_true_color:
 953              	.LVL103:
 954              	.LFB71:
 532:lvgl/src/draw/lv_img_decoder.c **** 
 533:lvgl/src/draw/lv_img_decoder.c **** /**********************
 534:lvgl/src/draw/lv_img_decoder.c ****  *   STATIC FUNCTIONS
 535:lvgl/src/draw/lv_img_decoder.c ****  **********************/
 536:lvgl/src/draw/lv_img_decoder.c **** 
 537:lvgl/src/draw/lv_img_decoder.c **** static lv_res_t lv_img_decoder_built_in_line_true_color(lv_img_decoder_dsc_t * dsc, lv_coord_t x, l
 538:lvgl/src/draw/lv_img_decoder.c ****                                                         lv_coord_t len, uint8_t * buf)
 539:lvgl/src/draw/lv_img_decoder.c **** {
 955              		.loc 1 539 1 is_stmt 1 view -0
 956              		.cfi_startproc
 957              		@ args = 4, pretend = 0, frame = 8
 958              		@ frame_needed = 0, uses_anonymous_args = 0
 959              		.loc 1 539 1 is_stmt 0 view .LVU338
 960 0000 2DE9F043 		push	{r4, r5, r6, r7, r8, r9, lr}
 961              		.cfi_def_cfa_offset 28
 962              		.cfi_offset 4, -28
 963              		.cfi_offset 5, -24
 964              		.cfi_offset 6, -20
ARM GAS  C:\Users\OSD\AppData\Local\Temp\ccYTBKz7.s 			page 46


 965              		.cfi_offset 7, -16
 966              		.cfi_offset 8, -12
 967              		.cfi_offset 9, -8
 968              		.cfi_offset 14, -4
 969 0004 83B0     		sub	sp, sp, #12
 970              		.cfi_def_cfa_offset 40
 971 0006 0546     		mov	r5, r0
 972 0008 0C46     		mov	r4, r1
 973 000a 9146     		mov	r9, r2
 974 000c 1F46     		mov	r7, r3
 540:lvgl/src/draw/lv_img_decoder.c ****     lv_img_decoder_built_in_data_t * user_data = dsc->user_data;
 975              		.loc 1 540 5 is_stmt 1 view .LVU339
 976              		.loc 1 540 38 is_stmt 0 view .LVU340
 977 000e D0F82480 		ldr	r8, [r0, #36]
 978              	.LVL104:
 541:lvgl/src/draw/lv_img_decoder.c ****     lv_fs_res_t res;
 979              		.loc 1 541 5 is_stmt 1 view .LVU341
 542:lvgl/src/draw/lv_img_decoder.c ****     uint8_t px_size = lv_img_cf_get_px_size(dsc->header.cf);
 980              		.loc 1 542 5 view .LVU342
 981              		.loc 1 542 56 is_stmt 0 view .LVU343
 982 0012 007D     		ldrb	r0, [r0, #20]	@ zero_extendqisi2
 983              	.LVL105:
 984              		.loc 1 542 23 view .LVU344
 985 0014 00F01F00 		and	r0, r0, #31
 986 0018 FFF7FEFF 		bl	lv_img_cf_get_px_size
 987              	.LVL106:
 988              		.loc 1 542 23 view .LVU345
 989 001c 0646     		mov	r6, r0
 990              	.LVL107:
 543:lvgl/src/draw/lv_img_decoder.c **** 
 544:lvgl/src/draw/lv_img_decoder.c ****     uint32_t pos = ((y * dsc->header.w + x) * px_size) >> 3;
 991              		.loc 1 544 5 is_stmt 1 view .LVU346
 992              		.loc 1 544 37 is_stmt 0 view .LVU347
 993 001e 6969     		ldr	r1, [r5, #20]
 994 0020 C1F38A21 		ubfx	r1, r1, #10, #11
 995              		.loc 1 544 40 view .LVU348
 996 0024 01FB0941 		mla	r1, r1, r9, r4
 997              		.loc 1 544 45 view .LVU349
 998 0028 00FB01F1 		mul	r1, r0, r1
 999              		.loc 1 544 56 view .LVU350
 1000 002c C910     		asrs	r1, r1, #3
 1001              	.LVL108:
 545:lvgl/src/draw/lv_img_decoder.c ****     pos += 4; /*Skip the header*/
 1002              		.loc 1 545 5 is_stmt 1 view .LVU351
 546:lvgl/src/draw/lv_img_decoder.c ****     res = lv_fs_seek(&user_data->f, pos, LV_FS_SEEK_SET);
 1003              		.loc 1 546 5 view .LVU352
 1004              		.loc 1 546 11 is_stmt 0 view .LVU353
 1005 002e 0022     		movs	r2, #0
 1006 0030 0431     		adds	r1, r1, #4
 1007              	.LVL109:
 1008              		.loc 1 546 11 view .LVU354
 1009 0032 4046     		mov	r0, r8
 1010              	.LVL110:
 1011              		.loc 1 546 11 view .LVU355
 1012 0034 FFF7FEFF 		bl	lv_fs_seek
 1013              	.LVL111:
 547:lvgl/src/draw/lv_img_decoder.c ****     if(res != LV_FS_RES_OK) {
ARM GAS  C:\Users\OSD\AppData\Local\Temp\ccYTBKz7.s 			page 47


 1014              		.loc 1 547 5 is_stmt 1 view .LVU356
 1015              		.loc 1 547 7 is_stmt 0 view .LVU357
 1016 0038 20B1     		cbz	r0, .L75
 548:lvgl/src/draw/lv_img_decoder.c ****         LV_LOG_WARN("Built-in image decoder seek failed");
 549:lvgl/src/draw/lv_img_decoder.c ****         return LV_RES_INV;
 1017              		.loc 1 549 16 view .LVU358
 1018 003a 0024     		movs	r4, #0
 1019              	.L72:
 550:lvgl/src/draw/lv_img_decoder.c ****     }
 551:lvgl/src/draw/lv_img_decoder.c ****     uint32_t btr = len * (px_size >> 3);
 552:lvgl/src/draw/lv_img_decoder.c ****     uint32_t br  = 0;
 553:lvgl/src/draw/lv_img_decoder.c ****     res = lv_fs_read(&user_data->f, buf, btr, &br);
 554:lvgl/src/draw/lv_img_decoder.c ****     if(res != LV_FS_RES_OK || btr != br) {
 555:lvgl/src/draw/lv_img_decoder.c ****         LV_LOG_WARN("Built-in image decoder read failed");
 556:lvgl/src/draw/lv_img_decoder.c ****         return LV_RES_INV;
 557:lvgl/src/draw/lv_img_decoder.c ****     }
 558:lvgl/src/draw/lv_img_decoder.c **** 
 559:lvgl/src/draw/lv_img_decoder.c ****     return LV_RES_OK;
 560:lvgl/src/draw/lv_img_decoder.c **** }
 1020              		.loc 1 560 1 view .LVU359
 1021 003c 2046     		mov	r0, r4
 1022              	.LVL112:
 1023              		.loc 1 560 1 view .LVU360
 1024 003e 03B0     		add	sp, sp, #12
 1025              		.cfi_remember_state
 1026              		.cfi_def_cfa_offset 28
 1027              		@ sp needed
 1028 0040 BDE8F083 		pop	{r4, r5, r6, r7, r8, r9, pc}
 1029              	.LVL113:
 1030              	.L75:
 1031              		.cfi_restore_state
 1032              		.loc 1 560 1 view .LVU361
 1033 0044 0446     		mov	r4, r0
 551:lvgl/src/draw/lv_img_decoder.c ****     uint32_t br  = 0;
 1034              		.loc 1 551 5 is_stmt 1 view .LVU362
 551:lvgl/src/draw/lv_img_decoder.c ****     uint32_t br  = 0;
 1035              		.loc 1 551 35 is_stmt 0 view .LVU363
 1036 0046 C6F3C706 		ubfx	r6, r6, #3, #8
 551:lvgl/src/draw/lv_img_decoder.c ****     uint32_t br  = 0;
 1037              		.loc 1 551 24 view .LVU364
 1038 004a 07FB06F6 		mul	r6, r7, r6
 1039              	.LVL114:
 552:lvgl/src/draw/lv_img_decoder.c ****     res = lv_fs_read(&user_data->f, buf, btr, &br);
 1040              		.loc 1 552 5 is_stmt 1 view .LVU365
 552:lvgl/src/draw/lv_img_decoder.c ****     res = lv_fs_read(&user_data->f, buf, btr, &br);
 1041              		.loc 1 552 14 is_stmt 0 view .LVU366
 1042 004e 0023     		movs	r3, #0
 1043 0050 0193     		str	r3, [sp, #4]
 553:lvgl/src/draw/lv_img_decoder.c ****     if(res != LV_FS_RES_OK || btr != br) {
 1044              		.loc 1 553 5 is_stmt 1 view .LVU367
 553:lvgl/src/draw/lv_img_decoder.c ****     if(res != LV_FS_RES_OK || btr != br) {
 1045              		.loc 1 553 11 is_stmt 0 view .LVU368
 1046 0052 01AB     		add	r3, sp, #4
 1047 0054 3246     		mov	r2, r6
 1048 0056 0A99     		ldr	r1, [sp, #40]
 1049 0058 4046     		mov	r0, r8
 1050              	.LVL115:
ARM GAS  C:\Users\OSD\AppData\Local\Temp\ccYTBKz7.s 			page 48


 553:lvgl/src/draw/lv_img_decoder.c ****     if(res != LV_FS_RES_OK || btr != br) {
 1051              		.loc 1 553 11 view .LVU369
 1052 005a FFF7FEFF 		bl	lv_fs_read
 1053              	.LVL116:
 554:lvgl/src/draw/lv_img_decoder.c ****         LV_LOG_WARN("Built-in image decoder read failed");
 1054              		.loc 1 554 5 is_stmt 1 view .LVU370
 554:lvgl/src/draw/lv_img_decoder.c ****         LV_LOG_WARN("Built-in image decoder read failed");
 1055              		.loc 1 554 7 is_stmt 0 view .LVU371
 1056 005e 0028     		cmp	r0, #0
 1057 0060 ECD1     		bne	.L72
 554:lvgl/src/draw/lv_img_decoder.c ****         LV_LOG_WARN("Built-in image decoder read failed");
 1058              		.loc 1 554 35 discriminator 1 view .LVU372
 1059 0062 019B     		ldr	r3, [sp, #4]
 554:lvgl/src/draw/lv_img_decoder.c ****         LV_LOG_WARN("Built-in image decoder read failed");
 1060              		.loc 1 554 28 discriminator 1 view .LVU373
 1061 0064 B342     		cmp	r3, r6
 1062 0066 E9D1     		bne	.L72
 559:lvgl/src/draw/lv_img_decoder.c **** }
 1063              		.loc 1 559 12 view .LVU374
 1064 0068 0124     		movs	r4, #1
 1065 006a E7E7     		b	.L72
 1066              		.cfi_endproc
 1067              	.LFE71:
 1069              		.section	.text.lv_img_decoder_built_in_line_alpha,"ax",%progbits
 1070              		.align	1
 1071              		.syntax unified
 1072              		.thumb
 1073              		.thumb_func
 1075              	lv_img_decoder_built_in_line_alpha:
 1076              	.LVL117:
 1077              	.LFB72:
 561:lvgl/src/draw/lv_img_decoder.c **** 
 562:lvgl/src/draw/lv_img_decoder.c **** static lv_res_t lv_img_decoder_built_in_line_alpha(lv_img_decoder_dsc_t * dsc, lv_coord_t x, lv_coo
 563:lvgl/src/draw/lv_img_decoder.c ****                                                    lv_coord_t len, uint8_t * buf)
 564:lvgl/src/draw/lv_img_decoder.c **** {
 1078              		.loc 1 564 1 is_stmt 1 view -0
 1079              		.cfi_startproc
 1080              		@ args = 4, pretend = 0, frame = 40
 1081              		@ frame_needed = 0, uses_anonymous_args = 0
 1082              		.loc 1 564 1 is_stmt 0 view .LVU376
 1083 0000 2DE9F04F 		push	{r4, r5, r6, r7, r8, r9, r10, fp, lr}
 1084              		.cfi_def_cfa_offset 36
 1085              		.cfi_offset 4, -36
 1086              		.cfi_offset 5, -32
 1087              		.cfi_offset 6, -28
 1088              		.cfi_offset 7, -24
 1089              		.cfi_offset 8, -20
 1090              		.cfi_offset 9, -16
 1091              		.cfi_offset 10, -12
 1092              		.cfi_offset 11, -8
 1093              		.cfi_offset 14, -4
 1094 0004 8BB0     		sub	sp, sp, #44
 1095              		.cfi_def_cfa_offset 80
 1096 0006 0646     		mov	r6, r0
 1097 0008 0C46     		mov	r4, r1
 1098 000a 9246     		mov	r10, r2
 1099 000c 1D46     		mov	r5, r3
ARM GAS  C:\Users\OSD\AppData\Local\Temp\ccYTBKz7.s 			page 49


 1100 000e 149F     		ldr	r7, [sp, #80]
 565:lvgl/src/draw/lv_img_decoder.c ****     const lv_opa_t alpha1_opa_table[2]  = {0, 255};          /*Opacity mapping with bpp = 1 (Just f
 1101              		.loc 1 565 5 is_stmt 1 view .LVU377
 1102              		.loc 1 565 20 is_stmt 0 view .LVU378
 1103 0010 4FF47F43 		mov	r3, #65280
 1104              	.LVL118:
 1105              		.loc 1 565 20 view .LVU379
 1106 0014 ADF82430 		strh	r3, [sp, #36]	@ movhi
 566:lvgl/src/draw/lv_img_decoder.c ****     const lv_opa_t alpha2_opa_table[4]  = {0, 85, 170, 255}; /*Opacity mapping with bpp = 2*/
 1107              		.loc 1 566 5 is_stmt 1 view .LVU380
 1108              		.loc 1 566 20 is_stmt 0 view .LVU381
 1109 0018 A3F5AD03 		sub	r3, r3, #5668864
 1110 001c A3F52853 		sub	r3, r3, #10752
 1111 0020 0893     		str	r3, [sp, #32]
 567:lvgl/src/draw/lv_img_decoder.c ****     const lv_opa_t alpha4_opa_table[16] = {0,  17, 34,  51,  /*Opacity mapping with bpp = 4*/
 1112              		.loc 1 567 5 is_stmt 1 view .LVU382
 1113              		.loc 1 567 20 is_stmt 0 view .LVU383
 1114 0022 564B     		ldr	r3, .L97
 1115 0024 0DF1100C 		add	ip, sp, #16
 1116 0028 0FCB     		ldm	r3, {r0, r1, r2, r3}
 1117              	.LVL119:
 1118              		.loc 1 567 20 view .LVU384
 1119 002a 8CE80F00 		stm	ip, {r0, r1, r2, r3}
 568:lvgl/src/draw/lv_img_decoder.c ****                                            68, 85, 102, 119, 136, 153, 170, 187, 204, 221, 238, 255
 569:lvgl/src/draw/lv_img_decoder.c ****                                           };
 570:lvgl/src/draw/lv_img_decoder.c **** 
 571:lvgl/src/draw/lv_img_decoder.c ****     /*Simply fill the buffer with the color. Later only the alpha value will be modified.*/
 572:lvgl/src/draw/lv_img_decoder.c ****     lv_color_t bg_color = dsc->color;
 1120              		.loc 1 572 5 is_stmt 1 view .LVU385
 1121              		.loc 1 572 16 is_stmt 0 view .LVU386
 1122 002e B268     		ldr	r2, [r6, #8]
 1123              	.LVL120:
 573:lvgl/src/draw/lv_img_decoder.c ****     lv_coord_t i;
 1124              		.loc 1 573 5 is_stmt 1 view .LVU387
 574:lvgl/src/draw/lv_img_decoder.c ****     for(i = 0; i < len; i++) {
 1125              		.loc 1 574 5 view .LVU388
 1126              		.loc 1 574 11 is_stmt 0 view .LVU389
 1127 0030 0023     		movs	r3, #0
 1128              		.loc 1 574 5 view .LVU390
 1129 0032 03E0     		b	.L77
 1130              	.LVL121:
 1131              	.L78:
 575:lvgl/src/draw/lv_img_decoder.c **** #if LV_COLOR_DEPTH == 8 || LV_COLOR_DEPTH == 1
 576:lvgl/src/draw/lv_img_decoder.c ****         buf[i * LV_IMG_PX_SIZE_ALPHA_BYTE] = bg_color.full;
 577:lvgl/src/draw/lv_img_decoder.c **** #elif LV_COLOR_DEPTH == 16
 578:lvgl/src/draw/lv_img_decoder.c ****         /*Because of Alpha byte 16 bit color can start on odd address which can cause crash*/
 579:lvgl/src/draw/lv_img_decoder.c ****         buf[i * LV_IMG_PX_SIZE_ALPHA_BYTE] = bg_color.full & 0xFF;
 580:lvgl/src/draw/lv_img_decoder.c ****         buf[i * LV_IMG_PX_SIZE_ALPHA_BYTE + 1] = (bg_color.full >> 8) & 0xFF;
 581:lvgl/src/draw/lv_img_decoder.c **** #elif LV_COLOR_DEPTH == 32
 582:lvgl/src/draw/lv_img_decoder.c ****         *((uint32_t *)&buf[i * LV_IMG_PX_SIZE_ALPHA_BYTE]) = bg_color.full;
 1132              		.loc 1 582 9 is_stmt 1 discriminator 3 view .LVU391
 1133              		.loc 1 582 60 is_stmt 0 discriminator 3 view .LVU392
 1134 0034 47F82320 		str	r2, [r7, r3, lsl #2]
 574:lvgl/src/draw/lv_img_decoder.c ****     for(i = 0; i < len; i++) {
 1135              		.loc 1 574 25 is_stmt 1 discriminator 3 view .LVU393
 574:lvgl/src/draw/lv_img_decoder.c ****     for(i = 0; i < len; i++) {
 1136              		.loc 1 574 26 is_stmt 0 discriminator 3 view .LVU394
ARM GAS  C:\Users\OSD\AppData\Local\Temp\ccYTBKz7.s 			page 50


 1137 0038 0133     		adds	r3, r3, #1
 1138              	.LVL122:
 574:lvgl/src/draw/lv_img_decoder.c ****     for(i = 0; i < len; i++) {
 1139              		.loc 1 574 26 discriminator 3 view .LVU395
 1140 003a 1BB2     		sxth	r3, r3
 1141              	.LVL123:
 1142              	.L77:
 574:lvgl/src/draw/lv_img_decoder.c ****     for(i = 0; i < len; i++) {
 1143              		.loc 1 574 16 is_stmt 1 discriminator 1 view .LVU396
 574:lvgl/src/draw/lv_img_decoder.c ****     for(i = 0; i < len; i++) {
 1144              		.loc 1 574 5 is_stmt 0 discriminator 1 view .LVU397
 1145 003c AB42     		cmp	r3, r5
 1146 003e F9DB     		blt	.L78
 583:lvgl/src/draw/lv_img_decoder.c **** #else
 584:lvgl/src/draw/lv_img_decoder.c **** #error "Invalid LV_COLOR_DEPTH. Check it in lv_conf.h"
 585:lvgl/src/draw/lv_img_decoder.c **** #endif
 586:lvgl/src/draw/lv_img_decoder.c ****     }
 587:lvgl/src/draw/lv_img_decoder.c **** 
 588:lvgl/src/draw/lv_img_decoder.c ****     const lv_opa_t * opa_table = NULL;
 1147              		.loc 1 588 5 is_stmt 1 view .LVU398
 1148              	.LVL124:
 589:lvgl/src/draw/lv_img_decoder.c ****     uint8_t px_size            = lv_img_cf_get_px_size(dsc->header.cf);
 1149              		.loc 1 589 5 view .LVU399
 1150              		.loc 1 589 67 is_stmt 0 view .LVU400
 1151 0040 307D     		ldrb	r0, [r6, #20]	@ zero_extendqisi2
 1152              		.loc 1 589 34 view .LVU401
 1153 0042 00F01F00 		and	r0, r0, #31
 1154 0046 FFF7FEFF 		bl	lv_img_cf_get_px_size
 1155              	.LVL125:
 1156              		.loc 1 589 34 view .LVU402
 1157 004a 8146     		mov	r9, r0
 1158              	.LVL126:
 590:lvgl/src/draw/lv_img_decoder.c ****     uint16_t mask              = (1 << px_size) - 1; /*E.g. px_size = 2; mask = 0x03*/
 1159              		.loc 1 590 5 is_stmt 1 view .LVU403
 1160              		.loc 1 590 37 is_stmt 0 view .LVU404
 1161 004c 4FF00108 		mov	r8, #1
 1162 0050 08FA00F8 		lsl	r8, r8, r0
 1163              		.loc 1 590 49 view .LVU405
 1164 0054 1FFA88F8 		uxth	r8, r8
 1165              		.loc 1 590 14 view .LVU406
 1166 0058 08F1FF38 		add	r8, r8, #-1
 1167 005c 1FFA88F8 		uxth	r8, r8
 1168              	.LVL127:
 591:lvgl/src/draw/lv_img_decoder.c **** 
 592:lvgl/src/draw/lv_img_decoder.c ****     lv_coord_t w = 0;
 1169              		.loc 1 592 5 is_stmt 1 view .LVU407
 593:lvgl/src/draw/lv_img_decoder.c ****     uint32_t ofs = 0;
 1170              		.loc 1 593 5 view .LVU408
 594:lvgl/src/draw/lv_img_decoder.c ****     int8_t pos   = 0;
 1171              		.loc 1 594 5 view .LVU409
 595:lvgl/src/draw/lv_img_decoder.c ****     switch(dsc->header.cf) {
 1172              		.loc 1 595 5 view .LVU410
 1173              		.loc 1 595 23 is_stmt 0 view .LVU411
 1174 0060 337D     		ldrb	r3, [r6, #20]	@ zero_extendqisi2
 1175 0062 03F01F03 		and	r3, r3, #31
 1176              		.loc 1 595 5 view .LVU412
 1177 0066 0B3B     		subs	r3, r3, #11
ARM GAS  C:\Users\OSD\AppData\Local\Temp\ccYTBKz7.s 			page 51


 1178 0068 032B     		cmp	r3, #3
 1179 006a 47D8     		bhi	.L92
 1180 006c DFE803F0 		tbb	[pc, r3]
 1181              	.L81:
 1182 0070 02       		.byte	(.L84-.L81)/2
 1183 0071 1E       		.byte	(.L83-.L81)/2
 1184 0072 2E       		.byte	(.L82-.L81)/2
 1185 0073 3D       		.byte	(.L80-.L81)/2
 1186              		.p2align 1
 1187              	.L84:
 596:lvgl/src/draw/lv_img_decoder.c ****         case LV_IMG_CF_ALPHA_1BIT:
 597:lvgl/src/draw/lv_img_decoder.c ****             w = (dsc->header.w + 7) >> 3; /*E.g. w = 20 -> w = 2 + 1*/
 1188              		.loc 1 597 13 is_stmt 1 view .LVU413
 1189              		.loc 1 597 29 is_stmt 0 view .LVU414
 1190 0074 7369     		ldr	r3, [r6, #20]
 1191 0076 C3F38A20 		ubfx	r0, r3, #10, #11
 1192              	.LVL128:
 1193              		.loc 1 597 32 view .LVU415
 1194 007a 0730     		adds	r0, r0, #7
 1195              		.loc 1 597 15 view .LVU416
 1196 007c C010     		asrs	r0, r0, #3
 1197              	.LVL129:
 598:lvgl/src/draw/lv_img_decoder.c ****             ofs += w * y + (x >> 3); /*First pixel*/
 1198              		.loc 1 598 13 is_stmt 1 view .LVU417
 1199              		.loc 1 598 31 is_stmt 0 view .LVU418
 1200 007e E310     		asrs	r3, r4, #3
 1201              		.loc 1 598 26 view .LVU419
 1202 0080 0AFB003A 		mla	r10, r10, r0, r3
 1203              	.LVL130:
 599:lvgl/src/draw/lv_img_decoder.c ****             pos = 7 - (x & 0x7);
 1204              		.loc 1 599 13 is_stmt 1 view .LVU420
 1205              		.loc 1 599 21 is_stmt 0 view .LVU421
 1206 0084 E443     		mvns	r4, r4
 1207              		.loc 1 599 17 view .LVU422
 1208 0086 04F00704 		and	r4, r4, #7
 1209              	.LVL131:
 600:lvgl/src/draw/lv_img_decoder.c ****             opa_table = alpha1_opa_table;
 1210              		.loc 1 600 13 is_stmt 1 view .LVU423
 601:lvgl/src/draw/lv_img_decoder.c ****             break;
 1211              		.loc 1 601 13 view .LVU424
 600:lvgl/src/draw/lv_img_decoder.c ****             opa_table = alpha1_opa_table;
 1212              		.loc 1 600 23 is_stmt 0 view .LVU425
 1213 008a 0DF1240B 		add	fp, sp, #36
 1214              	.LVL132:
 1215              	.L79:
 602:lvgl/src/draw/lv_img_decoder.c ****         case LV_IMG_CF_ALPHA_2BIT:
 603:lvgl/src/draw/lv_img_decoder.c ****             w = (dsc->header.w + 3) >> 2; /*E.g. w = 13 -> w = 3 + 1 (bytes)*/
 604:lvgl/src/draw/lv_img_decoder.c ****             ofs += w * y + (x >> 2); /*First pixel*/
 605:lvgl/src/draw/lv_img_decoder.c ****             pos = 6 - (x & 0x3) * 2;
 606:lvgl/src/draw/lv_img_decoder.c ****             opa_table = alpha2_opa_table;
 607:lvgl/src/draw/lv_img_decoder.c ****             break;
 608:lvgl/src/draw/lv_img_decoder.c ****         case LV_IMG_CF_ALPHA_4BIT:
 609:lvgl/src/draw/lv_img_decoder.c ****             w = (dsc->header.w + 1) >> 1; /*E.g. w = 13 -> w = 6 + 1 (bytes)*/
 610:lvgl/src/draw/lv_img_decoder.c ****             ofs += w * y + (x >> 1); /*First pixel*/
 611:lvgl/src/draw/lv_img_decoder.c ****             pos = 4 - (x & 0x1) * 4;
 612:lvgl/src/draw/lv_img_decoder.c ****             opa_table = alpha4_opa_table;
 613:lvgl/src/draw/lv_img_decoder.c ****             break;
ARM GAS  C:\Users\OSD\AppData\Local\Temp\ccYTBKz7.s 			page 52


 614:lvgl/src/draw/lv_img_decoder.c ****         case LV_IMG_CF_ALPHA_8BIT:
 615:lvgl/src/draw/lv_img_decoder.c ****             w = dsc->header.w; /*E.g. x = 7 -> w = 7 (bytes)*/
 616:lvgl/src/draw/lv_img_decoder.c ****             ofs += w * y + x;  /*First pixel*/
 617:lvgl/src/draw/lv_img_decoder.c ****             pos = 0;
 618:lvgl/src/draw/lv_img_decoder.c ****             break;
 619:lvgl/src/draw/lv_img_decoder.c ****     }
 620:lvgl/src/draw/lv_img_decoder.c **** 
 621:lvgl/src/draw/lv_img_decoder.c ****     lv_img_decoder_built_in_data_t * user_data = dsc->user_data;
 1216              		.loc 1 621 5 is_stmt 1 view .LVU426
 1217              		.loc 1 621 38 is_stmt 0 view .LVU427
 1218 008e 736A     		ldr	r3, [r6, #36]
 1219 0090 0293     		str	r3, [sp, #8]
 1220              	.LVL133:
 622:lvgl/src/draw/lv_img_decoder.c ****     uint8_t * fs_buf = lv_mem_buf_get(w);
 1221              		.loc 1 622 5 is_stmt 1 view .LVU428
 1222              		.loc 1 622 24 is_stmt 0 view .LVU429
 1223 0092 0390     		str	r0, [sp, #12]
 1224 0094 FFF7FEFF 		bl	lv_mem_buf_get
 1225              	.LVL134:
 623:lvgl/src/draw/lv_img_decoder.c ****     if(fs_buf == NULL) return LV_RES_INV;
 1226              		.loc 1 623 5 is_stmt 1 view .LVU430
 1227              		.loc 1 623 7 is_stmt 0 view .LVU431
 1228 0098 0190     		str	r0, [sp, #4]
 1229 009a 0028     		cmp	r0, #0
 1230 009c 6CD0     		beq	.L94
 624:lvgl/src/draw/lv_img_decoder.c **** 
 625:lvgl/src/draw/lv_img_decoder.c ****     const uint8_t * data_tmp = NULL;
 1231              		.loc 1 625 5 is_stmt 1 view .LVU432
 1232              	.LVL135:
 626:lvgl/src/draw/lv_img_decoder.c ****     if(dsc->src_type == LV_IMG_SRC_VARIABLE) {
 1233              		.loc 1 626 5 view .LVU433
 1234              		.loc 1 626 11 is_stmt 0 view .LVU434
 1235 009e 337C     		ldrb	r3, [r6, #16]	@ zero_extendqisi2
 1236              		.loc 1 626 7 view .LVU435
 1237 00a0 ABBB     		cbnz	r3, .L86
 1238              	.LBB32:
 627:lvgl/src/draw/lv_img_decoder.c ****         const lv_img_dsc_t * img_dsc = dsc->src;
 1239              		.loc 1 627 9 is_stmt 1 view .LVU436
 1240              		.loc 1 627 30 is_stmt 0 view .LVU437
 1241 00a2 7368     		ldr	r3, [r6, #4]
 1242              	.LVL136:
 628:lvgl/src/draw/lv_img_decoder.c **** 
 629:lvgl/src/draw/lv_img_decoder.c ****         data_tmp = img_dsc->data + ofs;
 1243              		.loc 1 629 9 is_stmt 1 view .LVU438
 1244              		.loc 1 629 27 is_stmt 0 view .LVU439
 1245 00a4 9B68     		ldr	r3, [r3, #8]
 1246              	.LVL137:
 1247              		.loc 1 629 18 view .LVU440
 1248 00a6 9A44     		add	r10, r10, r3
 1249              	.LVL138:
 1250              	.L87:
 1251              		.loc 1 629 18 view .LVU441
 1252              	.LBE32:
 630:lvgl/src/draw/lv_img_decoder.c ****     }
 631:lvgl/src/draw/lv_img_decoder.c ****     else {
 632:lvgl/src/draw/lv_img_decoder.c ****         lv_fs_seek(&user_data->f, ofs + 4, LV_FS_SEEK_SET); /*+4 to skip the header*/
 633:lvgl/src/draw/lv_img_decoder.c ****         lv_fs_read(&user_data->f, fs_buf, w, NULL);
ARM GAS  C:\Users\OSD\AppData\Local\Temp\ccYTBKz7.s 			page 53


 634:lvgl/src/draw/lv_img_decoder.c ****         data_tmp = fs_buf;
 1253              		.loc 1 634 18 discriminator 1 view .LVU442
 1254 00a8 0022     		movs	r2, #0
 1255 00aa 41E0     		b	.L90
 1256              	.LVL139:
 1257              	.L83:
 603:lvgl/src/draw/lv_img_decoder.c ****             ofs += w * y + (x >> 2); /*First pixel*/
 1258              		.loc 1 603 13 is_stmt 1 view .LVU443
 603:lvgl/src/draw/lv_img_decoder.c ****             ofs += w * y + (x >> 2); /*First pixel*/
 1259              		.loc 1 603 29 is_stmt 0 view .LVU444
 1260 00ac 7369     		ldr	r3, [r6, #20]
 1261 00ae C3F38A20 		ubfx	r0, r3, #10, #11
 1262              	.LVL140:
 603:lvgl/src/draw/lv_img_decoder.c ****             ofs += w * y + (x >> 2); /*First pixel*/
 1263              		.loc 1 603 32 view .LVU445
 1264 00b2 0330     		adds	r0, r0, #3
 603:lvgl/src/draw/lv_img_decoder.c ****             ofs += w * y + (x >> 2); /*First pixel*/
 1265              		.loc 1 603 15 view .LVU446
 1266 00b4 8010     		asrs	r0, r0, #2
 1267              	.LVL141:
 604:lvgl/src/draw/lv_img_decoder.c ****             pos = 6 - (x & 0x3) * 2;
 1268              		.loc 1 604 13 is_stmt 1 view .LVU447
 604:lvgl/src/draw/lv_img_decoder.c ****             pos = 6 - (x & 0x3) * 2;
 1269              		.loc 1 604 31 is_stmt 0 view .LVU448
 1270 00b6 A310     		asrs	r3, r4, #2
 604:lvgl/src/draw/lv_img_decoder.c ****             pos = 6 - (x & 0x3) * 2;
 1271              		.loc 1 604 26 view .LVU449
 1272 00b8 0AFB003A 		mla	r10, r10, r0, r3
 1273              	.LVL142:
 605:lvgl/src/draw/lv_img_decoder.c ****             opa_table = alpha2_opa_table;
 1274              		.loc 1 605 13 is_stmt 1 view .LVU450
 605:lvgl/src/draw/lv_img_decoder.c ****             opa_table = alpha2_opa_table;
 1275              		.loc 1 605 21 is_stmt 0 view .LVU451
 1276 00bc A4B2     		uxth	r4, r4
 1277 00be E443     		mvns	r4, r4
 605:lvgl/src/draw/lv_img_decoder.c ****             opa_table = alpha2_opa_table;
 1278              		.loc 1 605 17 view .LVU452
 1279 00c0 04F00304 		and	r4, r4, #3
 1280 00c4 6400     		lsls	r4, r4, #1
 1281              	.LVL143:
 606:lvgl/src/draw/lv_img_decoder.c ****             break;
 1282              		.loc 1 606 13 is_stmt 1 view .LVU453
 607:lvgl/src/draw/lv_img_decoder.c ****         case LV_IMG_CF_ALPHA_4BIT:
 1283              		.loc 1 607 13 view .LVU454
 606:lvgl/src/draw/lv_img_decoder.c ****             break;
 1284              		.loc 1 606 23 is_stmt 0 view .LVU455
 1285 00c6 0DF1200B 		add	fp, sp, #32
 1286              	.LVL144:
 607:lvgl/src/draw/lv_img_decoder.c ****         case LV_IMG_CF_ALPHA_4BIT:
 1287              		.loc 1 607 13 view .LVU456
 1288 00ca E0E7     		b	.L79
 1289              	.LVL145:
 1290              	.L82:
 609:lvgl/src/draw/lv_img_decoder.c ****             ofs += w * y + (x >> 1); /*First pixel*/
 1291              		.loc 1 609 13 is_stmt 1 view .LVU457
 609:lvgl/src/draw/lv_img_decoder.c ****             ofs += w * y + (x >> 1); /*First pixel*/
 1292              		.loc 1 609 29 is_stmt 0 view .LVU458
ARM GAS  C:\Users\OSD\AppData\Local\Temp\ccYTBKz7.s 			page 54


 1293 00cc 7369     		ldr	r3, [r6, #20]
 1294 00ce C3F38A20 		ubfx	r0, r3, #10, #11
 1295              	.LVL146:
 609:lvgl/src/draw/lv_img_decoder.c ****             ofs += w * y + (x >> 1); /*First pixel*/
 1296              		.loc 1 609 32 view .LVU459
 1297 00d2 0130     		adds	r0, r0, #1
 609:lvgl/src/draw/lv_img_decoder.c ****             ofs += w * y + (x >> 1); /*First pixel*/
 1298              		.loc 1 609 15 view .LVU460
 1299 00d4 4010     		asrs	r0, r0, #1
 1300              	.LVL147:
 610:lvgl/src/draw/lv_img_decoder.c ****             pos = 4 - (x & 0x1) * 4;
 1301              		.loc 1 610 13 is_stmt 1 view .LVU461
 610:lvgl/src/draw/lv_img_decoder.c ****             pos = 4 - (x & 0x1) * 4;
 1302              		.loc 1 610 31 is_stmt 0 view .LVU462
 1303 00d6 6310     		asrs	r3, r4, #1
 610:lvgl/src/draw/lv_img_decoder.c ****             pos = 4 - (x & 0x1) * 4;
 1304              		.loc 1 610 26 view .LVU463
 1305 00d8 0AFB003A 		mla	r10, r10, r0, r3
 1306              	.LVL148:
 611:lvgl/src/draw/lv_img_decoder.c ****             opa_table = alpha4_opa_table;
 1307              		.loc 1 611 13 is_stmt 1 view .LVU464
 611:lvgl/src/draw/lv_img_decoder.c ****             opa_table = alpha4_opa_table;
 1308              		.loc 1 611 17 is_stmt 0 view .LVU465
 1309 00dc 14F0010F 		tst	r4, #1
 1310 00e0 11D1     		bne	.L93
 1311 00e2 0424     		movs	r4, #4
 612:lvgl/src/draw/lv_img_decoder.c ****             break;
 1312              		.loc 1 612 23 view .LVU466
 1313 00e4 0DF1100B 		add	fp, sp, #16
 1314 00e8 D1E7     		b	.L79
 1315              	.LVL149:
 1316              	.L80:
 615:lvgl/src/draw/lv_img_decoder.c ****             ofs += w * y + x;  /*First pixel*/
 1317              		.loc 1 615 13 is_stmt 1 view .LVU467
 615:lvgl/src/draw/lv_img_decoder.c ****             ofs += w * y + x;  /*First pixel*/
 1318              		.loc 1 615 28 is_stmt 0 view .LVU468
 1319 00ea 7069     		ldr	r0, [r6, #20]
 1320              	.LVL150:
 615:lvgl/src/draw/lv_img_decoder.c ****             ofs += w * y + x;  /*First pixel*/
 1321              		.loc 1 615 28 view .LVU469
 1322 00ec C0F38A23 		ubfx	r3, r0, #10, #11
 615:lvgl/src/draw/lv_img_decoder.c ****             ofs += w * y + x;  /*First pixel*/
 1323              		.loc 1 615 15 view .LVU470
 1324 00f0 1846     		mov	r0, r3
 1325              	.LVL151:
 616:lvgl/src/draw/lv_img_decoder.c ****             pos = 0;
 1326              		.loc 1 616 13 is_stmt 1 view .LVU471
 616:lvgl/src/draw/lv_img_decoder.c ****             pos = 0;
 1327              		.loc 1 616 26 is_stmt 0 view .LVU472
 1328 00f2 0AFB034A 		mla	r10, r10, r3, r4
 1329              	.LVL152:
 617:lvgl/src/draw/lv_img_decoder.c ****             break;
 1330              		.loc 1 617 13 is_stmt 1 view .LVU473
 618:lvgl/src/draw/lv_img_decoder.c ****     }
 1331              		.loc 1 618 13 view .LVU474
 617:lvgl/src/draw/lv_img_decoder.c ****             break;
 1332              		.loc 1 617 17 is_stmt 0 view .LVU475
ARM GAS  C:\Users\OSD\AppData\Local\Temp\ccYTBKz7.s 			page 55


 1333 00f6 0024     		movs	r4, #0
 588:lvgl/src/draw/lv_img_decoder.c ****     uint8_t px_size            = lv_img_cf_get_px_size(dsc->header.cf);
 1334              		.loc 1 588 22 view .LVU476
 1335 00f8 A346     		mov	fp, r4
 618:lvgl/src/draw/lv_img_decoder.c ****     }
 1336              		.loc 1 618 13 view .LVU477
 1337 00fa C8E7     		b	.L79
 1338              	.LVL153:
 1339              	.L92:
 595:lvgl/src/draw/lv_img_decoder.c ****         case LV_IMG_CF_ALPHA_1BIT:
 1340              		.loc 1 595 5 view .LVU478
 1341 00fc 0024     		movs	r4, #0
 1342 00fe A246     		mov	r10, r4
 1343 0100 2046     		mov	r0, r4
 1344              	.LVL154:
 595:lvgl/src/draw/lv_img_decoder.c ****         case LV_IMG_CF_ALPHA_1BIT:
 1345              		.loc 1 595 5 view .LVU479
 1346 0102 A346     		mov	fp, r4
 1347 0104 C3E7     		b	.L79
 1348              	.LVL155:
 1349              	.L93:
 611:lvgl/src/draw/lv_img_decoder.c ****             opa_table = alpha4_opa_table;
 1350              		.loc 1 611 17 view .LVU480
 1351 0106 0024     		movs	r4, #0
 612:lvgl/src/draw/lv_img_decoder.c ****             break;
 1352              		.loc 1 612 23 view .LVU481
 1353 0108 0DF1100B 		add	fp, sp, #16
 1354 010c BFE7     		b	.L79
 1355              	.LVL156:
 1356              	.L86:
 632:lvgl/src/draw/lv_img_decoder.c ****         lv_fs_read(&user_data->f, fs_buf, w, NULL);
 1357              		.loc 1 632 9 is_stmt 1 view .LVU482
 1358 010e 0022     		movs	r2, #0
 1359 0110 0AF10401 		add	r1, r10, #4
 1360 0114 0298     		ldr	r0, [sp, #8]
 1361              	.LVL157:
 632:lvgl/src/draw/lv_img_decoder.c ****         lv_fs_read(&user_data->f, fs_buf, w, NULL);
 1362              		.loc 1 632 9 is_stmt 0 view .LVU483
 1363 0116 FFF7FEFF 		bl	lv_fs_seek
 1364              	.LVL158:
 633:lvgl/src/draw/lv_img_decoder.c ****         data_tmp = fs_buf;
 1365              		.loc 1 633 9 is_stmt 1 view .LVU484
 1366 011a 0023     		movs	r3, #0
 1367 011c 039A     		ldr	r2, [sp, #12]
 1368 011e DDF804A0 		ldr	r10, [sp, #4]
 1369              	.LVL159:
 633:lvgl/src/draw/lv_img_decoder.c ****         data_tmp = fs_buf;
 1370              		.loc 1 633 9 is_stmt 0 view .LVU485
 1371 0122 5146     		mov	r1, r10
 1372 0124 0298     		ldr	r0, [sp, #8]
 1373 0126 FFF7FEFF 		bl	lv_fs_read
 1374              	.LVL160:
 1375              		.loc 1 634 9 is_stmt 1 view .LVU486
 1376              		.loc 1 634 9 is_stmt 0 view .LVU487
 1377 012a BDE7     		b	.L87
 1378              	.LVL161:
 1379              	.L89:
ARM GAS  C:\Users\OSD\AppData\Local\Temp\ccYTBKz7.s 			page 56


 635:lvgl/src/draw/lv_img_decoder.c ****     }
 636:lvgl/src/draw/lv_img_decoder.c **** 
 637:lvgl/src/draw/lv_img_decoder.c ****     for(i = 0; i < len; i++) {
 1380              		.loc 1 637 25 is_stmt 1 discriminator 2 view .LVU488
 1381              		.loc 1 637 26 is_stmt 0 discriminator 2 view .LVU489
 1382 012c 0132     		adds	r2, r2, #1
 1383              	.LVL162:
 1384              		.loc 1 637 26 discriminator 2 view .LVU490
 1385 012e 12B2     		sxth	r2, r2
 1386              	.LVL163:
 1387              	.L90:
 1388              		.loc 1 637 16 is_stmt 1 discriminator 1 view .LVU491
 1389              		.loc 1 637 5 is_stmt 0 discriminator 1 view .LVU492
 1390 0130 AA42     		cmp	r2, r5
 1391 0132 1ADA     		bge	.L96
 1392              	.LBB33:
 638:lvgl/src/draw/lv_img_decoder.c ****         uint8_t val_act = (*data_tmp >> pos) & mask;
 1393              		.loc 1 638 9 is_stmt 1 view .LVU493
 1394              		.loc 1 638 28 is_stmt 0 view .LVU494
 1395 0134 9AF80030 		ldrb	r3, [r10]	@ zero_extendqisi2
 1396              		.loc 1 638 38 view .LVU495
 1397 0138 2341     		asrs	r3, r3, r4
 1398              		.loc 1 638 46 view .LVU496
 1399 013a 03EA0803 		and	r3, r3, r8
 1400              		.loc 1 638 17 view .LVU497
 1401 013e DBB2     		uxtb	r3, r3
 1402              	.LVL164:
 639:lvgl/src/draw/lv_img_decoder.c **** 
 640:lvgl/src/draw/lv_img_decoder.c ****         buf[i * LV_IMG_PX_SIZE_ALPHA_BYTE + LV_IMG_PX_SIZE_ALPHA_BYTE - 1] =
 1403              		.loc 1 640 9 is_stmt 1 view .LVU498
 641:lvgl/src/draw/lv_img_decoder.c ****             dsc->header.cf == LV_IMG_CF_ALPHA_8BIT ? val_act : opa_table[val_act];
 1404              		.loc 1 641 28 is_stmt 0 view .LVU499
 1405 0140 317D     		ldrb	r1, [r6, #20]	@ zero_extendqisi2
 1406 0142 01F01F01 		and	r1, r1, #31
 640:lvgl/src/draw/lv_img_decoder.c ****             dsc->header.cf == LV_IMG_CF_ALPHA_8BIT ? val_act : opa_table[val_act];
 1407              		.loc 1 640 76 view .LVU500
 1408 0146 0E29     		cmp	r1, #14
 1409 0148 01D0     		beq	.L88
 640:lvgl/src/draw/lv_img_decoder.c ****             dsc->header.cf == LV_IMG_CF_ALPHA_8BIT ? val_act : opa_table[val_act];
 1410              		.loc 1 640 76 discriminator 1 view .LVU501
 1411 014a 1BF80330 		ldrb	r3, [fp, r3]	@ zero_extendqisi2
 1412              	.LVL165:
 1413              	.L88:
 640:lvgl/src/draw/lv_img_decoder.c ****             dsc->header.cf == LV_IMG_CF_ALPHA_8BIT ? val_act : opa_table[val_act];
 1414              		.loc 1 640 15 discriminator 4 view .LVU502
 1415 014e 9100     		lsls	r1, r2, #2
 640:lvgl/src/draw/lv_img_decoder.c ****             dsc->header.cf == LV_IMG_CF_ALPHA_8BIT ? val_act : opa_table[val_act];
 1416              		.loc 1 640 12 discriminator 4 view .LVU503
 1417 0150 0331     		adds	r1, r1, #3
 640:lvgl/src/draw/lv_img_decoder.c ****             dsc->header.cf == LV_IMG_CF_ALPHA_8BIT ? val_act : opa_table[val_act];
 1418              		.loc 1 640 76 discriminator 4 view .LVU504
 1419 0152 7B54     		strb	r3, [r7, r1]
 1420              	.LVL166:
 642:lvgl/src/draw/lv_img_decoder.c **** 
 643:lvgl/src/draw/lv_img_decoder.c ****         pos -= px_size;
 1421              		.loc 1 643 9 is_stmt 1 discriminator 4 view .LVU505
 1422              		.loc 1 643 13 is_stmt 0 discriminator 4 view .LVU506
ARM GAS  C:\Users\OSD\AppData\Local\Temp\ccYTBKz7.s 			page 57


 1423 0154 A4EB0904 		sub	r4, r4, r9
 1424              	.LVL167:
 1425              		.loc 1 643 13 discriminator 4 view .LVU507
 1426 0158 64B2     		sxtb	r4, r4
 1427              	.LVL168:
 644:lvgl/src/draw/lv_img_decoder.c ****         if(pos < 0) {
 1428              		.loc 1 644 9 is_stmt 1 discriminator 4 view .LVU508
 1429              		.loc 1 644 11 is_stmt 0 discriminator 4 view .LVU509
 1430 015a 002C     		cmp	r4, #0
 1431 015c E6DA     		bge	.L89
 645:lvgl/src/draw/lv_img_decoder.c ****             pos = 8 - px_size;
 1432              		.loc 1 645 13 is_stmt 1 view .LVU510
 1433              		.loc 1 645 21 is_stmt 0 view .LVU511
 1434 015e C9F10804 		rsb	r4, r9, #8
 1435              	.LVL169:
 1436              		.loc 1 645 17 view .LVU512
 1437 0162 64B2     		sxtb	r4, r4
 1438              	.LVL170:
 646:lvgl/src/draw/lv_img_decoder.c ****             data_tmp++;
 1439              		.loc 1 646 13 is_stmt 1 view .LVU513
 1440              		.loc 1 646 21 is_stmt 0 view .LVU514
 1441 0164 0AF1010A 		add	r10, r10, #1
 1442              	.LVL171:
 1443              		.loc 1 646 21 view .LVU515
 1444 0168 E0E7     		b	.L89
 1445              	.L96:
 1446              		.loc 1 646 21 view .LVU516
 1447              	.LBE33:
 647:lvgl/src/draw/lv_img_decoder.c ****         }
 648:lvgl/src/draw/lv_img_decoder.c ****     }
 649:lvgl/src/draw/lv_img_decoder.c ****     lv_mem_buf_release(fs_buf);
 1448              		.loc 1 649 5 is_stmt 1 view .LVU517
 1449 016a 0198     		ldr	r0, [sp, #4]
 1450 016c FFF7FEFF 		bl	lv_mem_buf_release
 1451              	.LVL172:
 650:lvgl/src/draw/lv_img_decoder.c ****     return LV_RES_OK;
 1452              		.loc 1 650 5 view .LVU518
 1453              		.loc 1 650 12 is_stmt 0 view .LVU519
 1454 0170 0120     		movs	r0, #1
 1455              	.LVL173:
 1456              	.L85:
 651:lvgl/src/draw/lv_img_decoder.c **** }
 1457              		.loc 1 651 1 view .LVU520
 1458 0172 0BB0     		add	sp, sp, #44
 1459              		.cfi_remember_state
 1460              		.cfi_def_cfa_offset 36
 1461              		@ sp needed
 1462 0174 BDE8F08F 		pop	{r4, r5, r6, r7, r8, r9, r10, fp, pc}
 1463              	.LVL174:
 1464              	.L94:
 1465              		.cfi_restore_state
 623:lvgl/src/draw/lv_img_decoder.c **** 
 1466              		.loc 1 623 31 view .LVU521
 1467 0178 0020     		movs	r0, #0
 1468              	.LVL175:
 623:lvgl/src/draw/lv_img_decoder.c **** 
 1469              		.loc 1 623 31 view .LVU522
ARM GAS  C:\Users\OSD\AppData\Local\Temp\ccYTBKz7.s 			page 58


 1470 017a FAE7     		b	.L85
 1471              	.L98:
 1472              		.align	2
 1473              	.L97:
 1474 017c 00000000 		.word	.LANCHOR0
 1475              		.cfi_endproc
 1476              	.LFE72:
 1478              		.section	.text.lv_img_decoder_built_in_line_indexed,"ax",%progbits
 1479              		.align	1
 1480              		.syntax unified
 1481              		.thumb
 1482              		.thumb_func
 1484              	lv_img_decoder_built_in_line_indexed:
 1485              	.LVL176:
 1486              	.LFB73:
 652:lvgl/src/draw/lv_img_decoder.c **** 
 653:lvgl/src/draw/lv_img_decoder.c **** static lv_res_t lv_img_decoder_built_in_line_indexed(lv_img_decoder_dsc_t * dsc, lv_coord_t x, lv_c
 654:lvgl/src/draw/lv_img_decoder.c ****                                                      lv_coord_t len, uint8_t * buf)
 655:lvgl/src/draw/lv_img_decoder.c **** {
 1487              		.loc 1 655 1 is_stmt 1 view -0
 1488              		.cfi_startproc
 1489              		@ args = 4, pretend = 0, frame = 8
 1490              		@ frame_needed = 0, uses_anonymous_args = 0
 1491              		.loc 1 655 1 is_stmt 0 view .LVU524
 1492 0000 2DE9F04F 		push	{r4, r5, r6, r7, r8, r9, r10, fp, lr}
 1493              		.cfi_def_cfa_offset 36
 1494              		.cfi_offset 4, -36
 1495              		.cfi_offset 5, -32
 1496              		.cfi_offset 6, -28
 1497              		.cfi_offset 7, -24
 1498              		.cfi_offset 8, -20
 1499              		.cfi_offset 9, -16
 1500              		.cfi_offset 10, -12
 1501              		.cfi_offset 11, -8
 1502              		.cfi_offset 14, -4
 1503 0004 83B0     		sub	sp, sp, #12
 1504              		.cfi_def_cfa_offset 48
 1505 0006 8246     		mov	r10, r0
 1506 0008 0C46     		mov	r4, r1
 1507 000a 9346     		mov	fp, r2
 1508 000c 9946     		mov	r9, r3
 1509 000e 0C9F     		ldr	r7, [sp, #48]
 656:lvgl/src/draw/lv_img_decoder.c ****     uint8_t px_size = lv_img_cf_get_px_size(dsc->header.cf);
 1510              		.loc 1 656 5 is_stmt 1 view .LVU525
 1511              		.loc 1 656 56 is_stmt 0 view .LVU526
 1512 0010 007D     		ldrb	r0, [r0, #20]	@ zero_extendqisi2
 1513              	.LVL177:
 1514              		.loc 1 656 23 view .LVU527
 1515 0012 00F01F00 		and	r0, r0, #31
 1516 0016 FFF7FEFF 		bl	lv_img_cf_get_px_size
 1517              	.LVL178:
 1518              		.loc 1 656 23 view .LVU528
 1519 001a 8046     		mov	r8, r0
 1520              	.LVL179:
 657:lvgl/src/draw/lv_img_decoder.c ****     uint16_t mask   = (1 << px_size) - 1; /*E.g. px_size = 2; mask = 0x03*/
 1521              		.loc 1 657 5 is_stmt 1 view .LVU529
 1522              		.loc 1 657 26 is_stmt 0 view .LVU530
ARM GAS  C:\Users\OSD\AppData\Local\Temp\ccYTBKz7.s 			page 59


 1523 001c 0125     		movs	r5, #1
 1524 001e 8540     		lsls	r5, r5, r0
 1525              		.loc 1 657 38 view .LVU531
 1526 0020 ADB2     		uxth	r5, r5
 1527              		.loc 1 657 14 view .LVU532
 1528 0022 013D     		subs	r5, r5, #1
 1529 0024 ADB2     		uxth	r5, r5
 1530              	.LVL180:
 658:lvgl/src/draw/lv_img_decoder.c **** 
 659:lvgl/src/draw/lv_img_decoder.c ****     lv_coord_t w = 0;
 1531              		.loc 1 659 5 is_stmt 1 view .LVU533
 660:lvgl/src/draw/lv_img_decoder.c ****     int8_t pos   = 0;
 1532              		.loc 1 660 5 view .LVU534
 661:lvgl/src/draw/lv_img_decoder.c ****     uint32_t ofs = 0;
 1533              		.loc 1 661 5 view .LVU535
 662:lvgl/src/draw/lv_img_decoder.c ****     switch(dsc->header.cf) {
 1534              		.loc 1 662 5 view .LVU536
 1535              		.loc 1 662 23 is_stmt 0 view .LVU537
 1536 0026 9AF81430 		ldrb	r3, [r10, #20]	@ zero_extendqisi2
 1537 002a 03F01F03 		and	r3, r3, #31
 1538              		.loc 1 662 5 view .LVU538
 1539 002e 073B     		subs	r3, r3, #7
 1540 0030 032B     		cmp	r3, #3
 1541 0032 4ED8     		bhi	.L112
 1542 0034 DFE803F0 		tbb	[pc, r3]
 1543              	.L102:
 1544 0038 02       		.byte	(.L105-.L102)/2
 1545 0039 21       		.byte	(.L104-.L102)/2
 1546 003a 32       		.byte	(.L103-.L102)/2
 1547 003b 42       		.byte	(.L101-.L102)/2
 1548              		.p2align 1
 1549              	.L105:
 663:lvgl/src/draw/lv_img_decoder.c ****         case LV_IMG_CF_INDEXED_1BIT:
 664:lvgl/src/draw/lv_img_decoder.c ****             w = (dsc->header.w + 7) >> 3; /*E.g. w = 20 -> w = 2 + 1*/
 1550              		.loc 1 664 13 is_stmt 1 view .LVU539
 1551              		.loc 1 664 29 is_stmt 0 view .LVU540
 1552 003c DAF81430 		ldr	r3, [r10, #20]
 1553 0040 C3F38A20 		ubfx	r0, r3, #10, #11
 1554              	.LVL181:
 1555              		.loc 1 664 32 view .LVU541
 1556 0044 0730     		adds	r0, r0, #7
 1557              		.loc 1 664 15 view .LVU542
 1558 0046 C010     		asrs	r0, r0, #3
 1559              	.LVL182:
 665:lvgl/src/draw/lv_img_decoder.c ****             ofs += w * y + (x >> 3); /*First pixel*/
 1560              		.loc 1 665 13 is_stmt 1 view .LVU543
 1561              		.loc 1 665 31 is_stmt 0 view .LVU544
 1562 0048 E310     		asrs	r3, r4, #3
 1563              		.loc 1 665 26 view .LVU545
 1564 004a 0BFB003B 		mla	fp, fp, r0, r3
 1565              	.LVL183:
 666:lvgl/src/draw/lv_img_decoder.c ****             ofs += 8;                /*Skip the palette*/
 1566              		.loc 1 666 13 is_stmt 1 view .LVU546
 1567              		.loc 1 666 17 is_stmt 0 view .LVU547
 1568 004e 0BF1080B 		add	fp, fp, #8
 1569              	.LVL184:
 667:lvgl/src/draw/lv_img_decoder.c ****             pos = 7 - (x & 0x7);
ARM GAS  C:\Users\OSD\AppData\Local\Temp\ccYTBKz7.s 			page 60


 1570              		.loc 1 667 13 is_stmt 1 view .LVU548
 1571              		.loc 1 667 21 is_stmt 0 view .LVU549
 1572 0052 E443     		mvns	r4, r4
 1573              		.loc 1 667 17 view .LVU550
 1574 0054 04F00704 		and	r4, r4, #7
 1575              	.LVL185:
 668:lvgl/src/draw/lv_img_decoder.c ****             break;
 1576              		.loc 1 668 13 is_stmt 1 view .LVU551
 1577              	.L100:
 669:lvgl/src/draw/lv_img_decoder.c ****         case LV_IMG_CF_INDEXED_2BIT:
 670:lvgl/src/draw/lv_img_decoder.c ****             w = (dsc->header.w + 3) >> 2; /*E.g. w = 13 -> w = 3 + 1 (bytes)*/
 671:lvgl/src/draw/lv_img_decoder.c ****             ofs += w * y + (x >> 2); /*First pixel*/
 672:lvgl/src/draw/lv_img_decoder.c ****             ofs += 16;               /*Skip the palette*/
 673:lvgl/src/draw/lv_img_decoder.c ****             pos = 6 - (x & 0x3) * 2;
 674:lvgl/src/draw/lv_img_decoder.c ****             break;
 675:lvgl/src/draw/lv_img_decoder.c ****         case LV_IMG_CF_INDEXED_4BIT:
 676:lvgl/src/draw/lv_img_decoder.c ****             w = (dsc->header.w + 1) >> 1; /*E.g. w = 13 -> w = 6 + 1 (bytes)*/
 677:lvgl/src/draw/lv_img_decoder.c ****             ofs += w * y + (x >> 1); /*First pixel*/
 678:lvgl/src/draw/lv_img_decoder.c ****             ofs += 64;               /*Skip the palette*/
 679:lvgl/src/draw/lv_img_decoder.c ****             pos = 4 - (x & 0x1) * 4;
 680:lvgl/src/draw/lv_img_decoder.c ****             break;
 681:lvgl/src/draw/lv_img_decoder.c ****         case LV_IMG_CF_INDEXED_8BIT:
 682:lvgl/src/draw/lv_img_decoder.c ****             w = dsc->header.w; /*E.g. x = 7 -> w = 7 (bytes)*/
 683:lvgl/src/draw/lv_img_decoder.c ****             ofs += w * y + x;  /*First pixel*/
 684:lvgl/src/draw/lv_img_decoder.c ****             ofs += 1024;       /*Skip the palette*/
 685:lvgl/src/draw/lv_img_decoder.c ****             pos = 0;
 686:lvgl/src/draw/lv_img_decoder.c ****             break;
 687:lvgl/src/draw/lv_img_decoder.c ****     }
 688:lvgl/src/draw/lv_img_decoder.c **** 
 689:lvgl/src/draw/lv_img_decoder.c ****     lv_img_decoder_built_in_data_t * user_data = dsc->user_data;
 1578              		.loc 1 689 5 view .LVU552
 1579              		.loc 1 689 38 is_stmt 0 view .LVU553
 1580 0058 DAF82460 		ldr	r6, [r10, #36]
 1581              	.LVL186:
 690:lvgl/src/draw/lv_img_decoder.c **** 
 691:lvgl/src/draw/lv_img_decoder.c ****     uint8_t * fs_buf = lv_mem_buf_get(w);
 1582              		.loc 1 691 5 is_stmt 1 view .LVU554
 1583              		.loc 1 691 24 is_stmt 0 view .LVU555
 1584 005c 0190     		str	r0, [sp, #4]
 1585 005e FFF7FEFF 		bl	lv_mem_buf_get
 1586              	.LVL187:
 692:lvgl/src/draw/lv_img_decoder.c ****     if(fs_buf == NULL) return LV_RES_INV;
 1587              		.loc 1 692 5 is_stmt 1 view .LVU556
 1588              		.loc 1 692 7 is_stmt 0 view .LVU557
 1589 0062 0090     		str	r0, [sp]
 1590 0064 0028     		cmp	r0, #0
 1591 0066 6FD0     		beq	.L114
 693:lvgl/src/draw/lv_img_decoder.c ****     const uint8_t * data_tmp = NULL;
 1592              		.loc 1 693 5 is_stmt 1 view .LVU558
 1593              	.LVL188:
 694:lvgl/src/draw/lv_img_decoder.c ****     if(dsc->src_type == LV_IMG_SRC_VARIABLE) {
 1594              		.loc 1 694 5 view .LVU559
 1595              		.loc 1 694 11 is_stmt 0 view .LVU560
 1596 0068 9AF81030 		ldrb	r3, [r10, #16]	@ zero_extendqisi2
 1597              		.loc 1 694 7 view .LVU561
 1598 006c C3BB     		cbnz	r3, .L107
 1599              	.LBB34:
ARM GAS  C:\Users\OSD\AppData\Local\Temp\ccYTBKz7.s 			page 61


 695:lvgl/src/draw/lv_img_decoder.c ****         const lv_img_dsc_t * img_dsc = dsc->src;
 1600              		.loc 1 695 9 is_stmt 1 view .LVU562
 1601              		.loc 1 695 30 is_stmt 0 view .LVU563
 1602 006e DAF80430 		ldr	r3, [r10, #4]
 1603              	.LVL189:
 696:lvgl/src/draw/lv_img_decoder.c ****         data_tmp                     = img_dsc->data + ofs;
 1604              		.loc 1 696 9 is_stmt 1 view .LVU564
 1605              		.loc 1 696 47 is_stmt 0 view .LVU565
 1606 0072 9B68     		ldr	r3, [r3, #8]
 1607              	.LVL190:
 1608              		.loc 1 696 38 view .LVU566
 1609 0074 9B44     		add	fp, fp, r3
 1610              	.LVL191:
 1611              	.L108:
 1612              		.loc 1 696 38 view .LVU567
 1613              	.LBE34:
 697:lvgl/src/draw/lv_img_decoder.c ****     }
 698:lvgl/src/draw/lv_img_decoder.c ****     else {
 699:lvgl/src/draw/lv_img_decoder.c ****         lv_fs_seek(&user_data->f, ofs + 4, LV_FS_SEEK_SET); /*+4 to skip the header*/
 700:lvgl/src/draw/lv_img_decoder.c ****         lv_fs_read(&user_data->f, fs_buf, w, NULL);
 701:lvgl/src/draw/lv_img_decoder.c ****         data_tmp = fs_buf;
 1614              		.loc 1 701 18 discriminator 1 view .LVU568
 1615 0076 0022     		movs	r2, #0
 1616 0078 43E0     		b	.L110
 1617              	.LVL192:
 1618              	.L104:
 670:lvgl/src/draw/lv_img_decoder.c ****             ofs += w * y + (x >> 2); /*First pixel*/
 1619              		.loc 1 670 13 is_stmt 1 view .LVU569
 670:lvgl/src/draw/lv_img_decoder.c ****             ofs += w * y + (x >> 2); /*First pixel*/
 1620              		.loc 1 670 29 is_stmt 0 view .LVU570
 1621 007a DAF81430 		ldr	r3, [r10, #20]
 1622 007e C3F38A20 		ubfx	r0, r3, #10, #11
 1623              	.LVL193:
 670:lvgl/src/draw/lv_img_decoder.c ****             ofs += w * y + (x >> 2); /*First pixel*/
 1624              		.loc 1 670 32 view .LVU571
 1625 0082 0330     		adds	r0, r0, #3
 670:lvgl/src/draw/lv_img_decoder.c ****             ofs += w * y + (x >> 2); /*First pixel*/
 1626              		.loc 1 670 15 view .LVU572
 1627 0084 8010     		asrs	r0, r0, #2
 1628              	.LVL194:
 671:lvgl/src/draw/lv_img_decoder.c ****             ofs += 16;               /*Skip the palette*/
 1629              		.loc 1 671 13 is_stmt 1 view .LVU573
 671:lvgl/src/draw/lv_img_decoder.c ****             ofs += 16;               /*Skip the palette*/
 1630              		.loc 1 671 31 is_stmt 0 view .LVU574
 1631 0086 A310     		asrs	r3, r4, #2
 671:lvgl/src/draw/lv_img_decoder.c ****             ofs += 16;               /*Skip the palette*/
 1632              		.loc 1 671 26 view .LVU575
 1633 0088 0BFB003B 		mla	fp, fp, r0, r3
 1634              	.LVL195:
 672:lvgl/src/draw/lv_img_decoder.c ****             pos = 6 - (x & 0x3) * 2;
 1635              		.loc 1 672 13 is_stmt 1 view .LVU576
 672:lvgl/src/draw/lv_img_decoder.c ****             pos = 6 - (x & 0x3) * 2;
 1636              		.loc 1 672 17 is_stmt 0 view .LVU577
 1637 008c 0BF1100B 		add	fp, fp, #16
 1638              	.LVL196:
 673:lvgl/src/draw/lv_img_decoder.c ****             break;
 1639              		.loc 1 673 13 is_stmt 1 view .LVU578
ARM GAS  C:\Users\OSD\AppData\Local\Temp\ccYTBKz7.s 			page 62


 673:lvgl/src/draw/lv_img_decoder.c ****             break;
 1640              		.loc 1 673 21 is_stmt 0 view .LVU579
 1641 0090 A4B2     		uxth	r4, r4
 1642 0092 E443     		mvns	r4, r4
 673:lvgl/src/draw/lv_img_decoder.c ****             break;
 1643              		.loc 1 673 17 view .LVU580
 1644 0094 04F00304 		and	r4, r4, #3
 1645 0098 6400     		lsls	r4, r4, #1
 1646              	.LVL197:
 674:lvgl/src/draw/lv_img_decoder.c ****         case LV_IMG_CF_INDEXED_4BIT:
 1647              		.loc 1 674 13 is_stmt 1 view .LVU581
 1648 009a DDE7     		b	.L100
 1649              	.LVL198:
 1650              	.L103:
 676:lvgl/src/draw/lv_img_decoder.c ****             ofs += w * y + (x >> 1); /*First pixel*/
 1651              		.loc 1 676 13 view .LVU582
 676:lvgl/src/draw/lv_img_decoder.c ****             ofs += w * y + (x >> 1); /*First pixel*/
 1652              		.loc 1 676 29 is_stmt 0 view .LVU583
 1653 009c DAF81430 		ldr	r3, [r10, #20]
 1654 00a0 C3F38A20 		ubfx	r0, r3, #10, #11
 1655              	.LVL199:
 676:lvgl/src/draw/lv_img_decoder.c ****             ofs += w * y + (x >> 1); /*First pixel*/
 1656              		.loc 1 676 32 view .LVU584
 1657 00a4 0130     		adds	r0, r0, #1
 676:lvgl/src/draw/lv_img_decoder.c ****             ofs += w * y + (x >> 1); /*First pixel*/
 1658              		.loc 1 676 15 view .LVU585
 1659 00a6 4010     		asrs	r0, r0, #1
 1660              	.LVL200:
 677:lvgl/src/draw/lv_img_decoder.c ****             ofs += 64;               /*Skip the palette*/
 1661              		.loc 1 677 13 is_stmt 1 view .LVU586
 677:lvgl/src/draw/lv_img_decoder.c ****             ofs += 64;               /*Skip the palette*/
 1662              		.loc 1 677 31 is_stmt 0 view .LVU587
 1663 00a8 6310     		asrs	r3, r4, #1
 677:lvgl/src/draw/lv_img_decoder.c ****             ofs += 64;               /*Skip the palette*/
 1664              		.loc 1 677 26 view .LVU588
 1665 00aa 0BFB003B 		mla	fp, fp, r0, r3
 1666              	.LVL201:
 678:lvgl/src/draw/lv_img_decoder.c ****             pos = 4 - (x & 0x1) * 4;
 1667              		.loc 1 678 13 is_stmt 1 view .LVU589
 678:lvgl/src/draw/lv_img_decoder.c ****             pos = 4 - (x & 0x1) * 4;
 1668              		.loc 1 678 17 is_stmt 0 view .LVU590
 1669 00ae 0BF1400B 		add	fp, fp, #64
 1670              	.LVL202:
 679:lvgl/src/draw/lv_img_decoder.c ****             break;
 1671              		.loc 1 679 13 is_stmt 1 view .LVU591
 679:lvgl/src/draw/lv_img_decoder.c ****             break;
 1672              		.loc 1 679 17 is_stmt 0 view .LVU592
 1673 00b2 14F0010F 		tst	r4, #1
 1674 00b6 11D1     		bne	.L113
 1675 00b8 0424     		movs	r4, #4
 1676 00ba CDE7     		b	.L100
 1677              	.LVL203:
 1678              	.L101:
 682:lvgl/src/draw/lv_img_decoder.c ****             ofs += w * y + x;  /*First pixel*/
 1679              		.loc 1 682 13 is_stmt 1 view .LVU593
 682:lvgl/src/draw/lv_img_decoder.c ****             ofs += w * y + x;  /*First pixel*/
 1680              		.loc 1 682 28 is_stmt 0 view .LVU594
ARM GAS  C:\Users\OSD\AppData\Local\Temp\ccYTBKz7.s 			page 63


 1681 00bc DAF81400 		ldr	r0, [r10, #20]
 1682              	.LVL204:
 682:lvgl/src/draw/lv_img_decoder.c ****             ofs += w * y + x;  /*First pixel*/
 1683              		.loc 1 682 28 view .LVU595
 1684 00c0 C0F38A23 		ubfx	r3, r0, #10, #11
 682:lvgl/src/draw/lv_img_decoder.c ****             ofs += w * y + x;  /*First pixel*/
 1685              		.loc 1 682 15 view .LVU596
 1686 00c4 1846     		mov	r0, r3
 1687              	.LVL205:
 683:lvgl/src/draw/lv_img_decoder.c ****             ofs += 1024;       /*Skip the palette*/
 1688              		.loc 1 683 13 is_stmt 1 view .LVU597
 683:lvgl/src/draw/lv_img_decoder.c ****             ofs += 1024;       /*Skip the palette*/
 1689              		.loc 1 683 26 is_stmt 0 view .LVU598
 1690 00c6 0BFB034B 		mla	fp, fp, r3, r4
 1691              	.LVL206:
 684:lvgl/src/draw/lv_img_decoder.c ****             pos = 0;
 1692              		.loc 1 684 13 is_stmt 1 view .LVU599
 684:lvgl/src/draw/lv_img_decoder.c ****             pos = 0;
 1693              		.loc 1 684 17 is_stmt 0 view .LVU600
 1694 00ca 0BF5806B 		add	fp, fp, #1024
 1695              	.LVL207:
 685:lvgl/src/draw/lv_img_decoder.c ****             break;
 1696              		.loc 1 685 13 is_stmt 1 view .LVU601
 686:lvgl/src/draw/lv_img_decoder.c ****     }
 1697              		.loc 1 686 13 view .LVU602
 685:lvgl/src/draw/lv_img_decoder.c ****             break;
 1698              		.loc 1 685 17 is_stmt 0 view .LVU603
 1699 00ce 0024     		movs	r4, #0
 686:lvgl/src/draw/lv_img_decoder.c ****     }
 1700              		.loc 1 686 13 view .LVU604
 1701 00d0 C2E7     		b	.L100
 1702              	.LVL208:
 1703              	.L112:
 662:lvgl/src/draw/lv_img_decoder.c ****         case LV_IMG_CF_INDEXED_1BIT:
 1704              		.loc 1 662 5 view .LVU605
 1705 00d2 4FF0000B 		mov	fp, #0
 1706 00d6 5C46     		mov	r4, fp
 1707 00d8 5846     		mov	r0, fp
 1708              	.LVL209:
 662:lvgl/src/draw/lv_img_decoder.c ****         case LV_IMG_CF_INDEXED_1BIT:
 1709              		.loc 1 662 5 view .LVU606
 1710 00da BDE7     		b	.L100
 1711              	.LVL210:
 1712              	.L113:
 679:lvgl/src/draw/lv_img_decoder.c ****             break;
 1713              		.loc 1 679 17 view .LVU607
 1714 00dc 0024     		movs	r4, #0
 1715 00de BBE7     		b	.L100
 1716              	.LVL211:
 1717              	.L107:
 699:lvgl/src/draw/lv_img_decoder.c ****         lv_fs_read(&user_data->f, fs_buf, w, NULL);
 1718              		.loc 1 699 9 is_stmt 1 view .LVU608
 1719 00e0 0022     		movs	r2, #0
 1720 00e2 0BF10401 		add	r1, fp, #4
 1721 00e6 3046     		mov	r0, r6
 1722              	.LVL212:
 699:lvgl/src/draw/lv_img_decoder.c ****         lv_fs_read(&user_data->f, fs_buf, w, NULL);
ARM GAS  C:\Users\OSD\AppData\Local\Temp\ccYTBKz7.s 			page 64


 1723              		.loc 1 699 9 is_stmt 0 view .LVU609
 1724 00e8 FFF7FEFF 		bl	lv_fs_seek
 1725              	.LVL213:
 700:lvgl/src/draw/lv_img_decoder.c ****         data_tmp = fs_buf;
 1726              		.loc 1 700 9 is_stmt 1 view .LVU610
 1727 00ec 0023     		movs	r3, #0
 1728 00ee 019A     		ldr	r2, [sp, #4]
 1729 00f0 DDF800B0 		ldr	fp, [sp]
 1730              	.LVL214:
 700:lvgl/src/draw/lv_img_decoder.c ****         data_tmp = fs_buf;
 1731              		.loc 1 700 9 is_stmt 0 view .LVU611
 1732 00f4 5946     		mov	r1, fp
 1733 00f6 3046     		mov	r0, r6
 1734 00f8 FFF7FEFF 		bl	lv_fs_read
 1735              	.LVL215:
 1736              		.loc 1 701 9 is_stmt 1 view .LVU612
 1737              		.loc 1 701 9 is_stmt 0 view .LVU613
 1738 00fc BBE7     		b	.L108
 1739              	.LVL216:
 1740              	.L109:
 702:lvgl/src/draw/lv_img_decoder.c ****     }
 703:lvgl/src/draw/lv_img_decoder.c **** 
 704:lvgl/src/draw/lv_img_decoder.c ****     lv_coord_t i;
 705:lvgl/src/draw/lv_img_decoder.c ****     for(i = 0; i < len; i++) {
 1741              		.loc 1 705 25 is_stmt 1 discriminator 2 view .LVU614
 1742              		.loc 1 705 26 is_stmt 0 discriminator 2 view .LVU615
 1743 00fe 0132     		adds	r2, r2, #1
 1744              	.LVL217:
 1745              		.loc 1 705 26 discriminator 2 view .LVU616
 1746 0100 12B2     		sxth	r2, r2
 1747              	.LVL218:
 1748              	.L110:
 1749              		.loc 1 705 16 is_stmt 1 discriminator 1 view .LVU617
 1750              		.loc 1 705 5 is_stmt 0 discriminator 1 view .LVU618
 1751 0102 4A45     		cmp	r2, r9
 1752 0104 19DA     		bge	.L116
 1753              	.LBB35:
 706:lvgl/src/draw/lv_img_decoder.c ****         uint8_t val_act = (*data_tmp >> pos) & mask;
 1754              		.loc 1 706 9 is_stmt 1 view .LVU619
 1755              		.loc 1 706 28 is_stmt 0 view .LVU620
 1756 0106 9BF80030 		ldrb	r3, [fp]	@ zero_extendqisi2
 1757              		.loc 1 706 38 view .LVU621
 1758 010a 2341     		asrs	r3, r3, r4
 1759              		.loc 1 706 46 view .LVU622
 1760 010c 2B40     		ands	r3, r3, r5
 1761              		.loc 1 706 17 view .LVU623
 1762 010e DBB2     		uxtb	r3, r3
 1763              	.LVL219:
 707:lvgl/src/draw/lv_img_decoder.c **** 
 708:lvgl/src/draw/lv_img_decoder.c ****         lv_color_t color = user_data->palette[val_act];
 1764              		.loc 1 708 9 is_stmt 1 view .LVU624
 1765              		.loc 1 708 37 is_stmt 0 view .LVU625
 1766 0110 F168     		ldr	r1, [r6, #12]
 1767              		.loc 1 708 20 view .LVU626
 1768 0112 51F82300 		ldr	r0, [r1, r3, lsl #2]
 1769              	.LVL220:
 709:lvgl/src/draw/lv_img_decoder.c **** #if LV_COLOR_DEPTH == 8 || LV_COLOR_DEPTH == 1
ARM GAS  C:\Users\OSD\AppData\Local\Temp\ccYTBKz7.s 			page 65


 710:lvgl/src/draw/lv_img_decoder.c ****         buf[i * LV_IMG_PX_SIZE_ALPHA_BYTE] = color.full;
 711:lvgl/src/draw/lv_img_decoder.c **** #elif LV_COLOR_DEPTH == 16
 712:lvgl/src/draw/lv_img_decoder.c ****         /*Because of Alpha byte 16 bit color can start on odd address which can cause crash*/
 713:lvgl/src/draw/lv_img_decoder.c ****         buf[i * LV_IMG_PX_SIZE_ALPHA_BYTE] = color.full & 0xFF;
 714:lvgl/src/draw/lv_img_decoder.c ****         buf[i * LV_IMG_PX_SIZE_ALPHA_BYTE + 1] = (color.full >> 8) & 0xFF;
 715:lvgl/src/draw/lv_img_decoder.c **** #elif LV_COLOR_DEPTH == 32
 716:lvgl/src/draw/lv_img_decoder.c ****         *((uint32_t *)&buf[i * LV_IMG_PX_SIZE_ALPHA_BYTE]) = color.full;
 1770              		.loc 1 716 9 is_stmt 1 view .LVU627
 1771              		.loc 1 716 30 is_stmt 0 view .LVU628
 1772 0116 9100     		lsls	r1, r2, #2
 1773              	.LVL221:
 1774              		.loc 1 716 60 view .LVU629
 1775 0118 47F82200 		str	r0, [r7, r2, lsl #2]
 717:lvgl/src/draw/lv_img_decoder.c **** #else
 718:lvgl/src/draw/lv_img_decoder.c **** #error "Invalid LV_COLOR_DEPTH. Check it in lv_conf.h"
 719:lvgl/src/draw/lv_img_decoder.c **** #endif
 720:lvgl/src/draw/lv_img_decoder.c ****         buf[i * LV_IMG_PX_SIZE_ALPHA_BYTE + LV_IMG_PX_SIZE_ALPHA_BYTE - 1] = user_data->opa[val_act
 1776              		.loc 1 720 9 is_stmt 1 view .LVU630
 1777              		.loc 1 720 87 is_stmt 0 view .LVU631
 1778 011c 3069     		ldr	r0, [r6, #16]
 1779              	.LVL222:
 1780              		.loc 1 720 12 view .LVU632
 1781 011e 0331     		adds	r1, r1, #3
 1782              		.loc 1 720 92 view .LVU633
 1783 0120 C35C     		ldrb	r3, [r0, r3]	@ zero_extendqisi2
 1784              	.LVL223:
 1785              		.loc 1 720 76 view .LVU634
 1786 0122 7B54     		strb	r3, [r7, r1]
 721:lvgl/src/draw/lv_img_decoder.c **** 
 722:lvgl/src/draw/lv_img_decoder.c ****         pos -= px_size;
 1787              		.loc 1 722 9 is_stmt 1 view .LVU635
 1788              		.loc 1 722 13 is_stmt 0 view .LVU636
 1789 0124 A4EB0804 		sub	r4, r4, r8
 1790              	.LVL224:
 1791              		.loc 1 722 13 view .LVU637
 1792 0128 64B2     		sxtb	r4, r4
 1793              	.LVL225:
 723:lvgl/src/draw/lv_img_decoder.c ****         if(pos < 0) {
 1794              		.loc 1 723 9 is_stmt 1 view .LVU638
 1795              		.loc 1 723 11 is_stmt 0 view .LVU639
 1796 012a 002C     		cmp	r4, #0
 1797 012c E7DA     		bge	.L109
 724:lvgl/src/draw/lv_img_decoder.c ****             pos = 8 - px_size;
 1798              		.loc 1 724 13 is_stmt 1 view .LVU640
 1799              		.loc 1 724 21 is_stmt 0 view .LVU641
 1800 012e C8F10804 		rsb	r4, r8, #8
 1801              	.LVL226:
 1802              		.loc 1 724 17 view .LVU642
 1803 0132 64B2     		sxtb	r4, r4
 1804              	.LVL227:
 725:lvgl/src/draw/lv_img_decoder.c ****             data_tmp++;
 1805              		.loc 1 725 13 is_stmt 1 view .LVU643
 1806              		.loc 1 725 21 is_stmt 0 view .LVU644
 1807 0134 0BF1010B 		add	fp, fp, #1
 1808              	.LVL228:
 1809              		.loc 1 725 21 view .LVU645
 1810 0138 E1E7     		b	.L109
ARM GAS  C:\Users\OSD\AppData\Local\Temp\ccYTBKz7.s 			page 66


 1811              	.L116:
 1812              		.loc 1 725 21 view .LVU646
 1813              	.LBE35:
 726:lvgl/src/draw/lv_img_decoder.c ****         }
 727:lvgl/src/draw/lv_img_decoder.c ****     }
 728:lvgl/src/draw/lv_img_decoder.c ****     lv_mem_buf_release(fs_buf);
 1814              		.loc 1 728 5 is_stmt 1 view .LVU647
 1815 013a 0098     		ldr	r0, [sp]
 1816 013c FFF7FEFF 		bl	lv_mem_buf_release
 1817              	.LVL229:
 729:lvgl/src/draw/lv_img_decoder.c ****     return LV_RES_OK;
 1818              		.loc 1 729 5 view .LVU648
 1819              		.loc 1 729 12 is_stmt 0 view .LVU649
 1820 0140 0120     		movs	r0, #1
 1821              	.LVL230:
 1822              	.L106:
 730:lvgl/src/draw/lv_img_decoder.c **** }
 1823              		.loc 1 730 1 view .LVU650
 1824 0142 03B0     		add	sp, sp, #12
 1825              		.cfi_remember_state
 1826              		.cfi_def_cfa_offset 36
 1827              	.LVL231:
 1828              		.loc 1 730 1 view .LVU651
 1829              		@ sp needed
 1830 0144 BDE8F08F 		pop	{r4, r5, r6, r7, r8, r9, r10, fp, pc}
 1831              	.LVL232:
 1832              	.L114:
 1833              		.cfi_restore_state
 692:lvgl/src/draw/lv_img_decoder.c ****     const uint8_t * data_tmp = NULL;
 1834              		.loc 1 692 31 view .LVU652
 1835 0148 0020     		movs	r0, #0
 1836              	.LVL233:
 692:lvgl/src/draw/lv_img_decoder.c ****     const uint8_t * data_tmp = NULL;
 1837              		.loc 1 692 31 view .LVU653
 1838 014a FAE7     		b	.L106
 1839              		.cfi_endproc
 1840              	.LFE73:
 1842              		.section	.text.lv_img_decoder_built_in_read_line,"ax",%progbits
 1843              		.align	1
 1844              		.global	lv_img_decoder_built_in_read_line
 1845              		.syntax unified
 1846              		.thumb
 1847              		.thumb_func
 1849              	lv_img_decoder_built_in_read_line:
 1850              	.LVL234:
 1851              	.LFB69:
 482:lvgl/src/draw/lv_img_decoder.c ****     LV_UNUSED(decoder); /*Unused*/
 1852              		.loc 1 482 1 is_stmt 1 view -0
 1853              		.cfi_startproc
 1854              		@ args = 8, pretend = 0, frame = 0
 1855              		@ frame_needed = 0, uses_anonymous_args = 0
 482:lvgl/src/draw/lv_img_decoder.c ****     LV_UNUSED(decoder); /*Unused*/
 1856              		.loc 1 482 1 is_stmt 0 view .LVU655
 1857 0000 10B5     		push	{r4, lr}
 1858              		.cfi_def_cfa_offset 8
 1859              		.cfi_offset 4, -8
 1860              		.cfi_offset 14, -4
ARM GAS  C:\Users\OSD\AppData\Local\Temp\ccYTBKz7.s 			page 67


 1861 0002 82B0     		sub	sp, sp, #8
 1862              		.cfi_def_cfa_offset 16
 1863 0004 0846     		mov	r0, r1
 1864              	.LVL235:
 482:lvgl/src/draw/lv_img_decoder.c ****     LV_UNUSED(decoder); /*Unused*/
 1865              		.loc 1 482 1 view .LVU656
 1866 0006 1146     		mov	r1, r2
 1867              	.LVL236:
 482:lvgl/src/draw/lv_img_decoder.c ****     LV_UNUSED(decoder); /*Unused*/
 1868              		.loc 1 482 1 view .LVU657
 1869 0008 1A46     		mov	r2, r3
 1870              	.LVL237:
 482:lvgl/src/draw/lv_img_decoder.c ****     LV_UNUSED(decoder); /*Unused*/
 1871              		.loc 1 482 1 view .LVU658
 1872 000a BDF91030 		ldrsh	r3, [sp, #16]
 1873              	.LVL238:
 483:lvgl/src/draw/lv_img_decoder.c **** 
 1874              		.loc 1 483 5 is_stmt 1 view .LVU659
 485:lvgl/src/draw/lv_img_decoder.c **** 
 1875              		.loc 1 485 5 view .LVU660
 487:lvgl/src/draw/lv_img_decoder.c ****        dsc->header.cf == LV_IMG_CF_TRUE_COLOR_CHROMA_KEYED) {
 1876              		.loc 1 487 5 view .LVU661
 487:lvgl/src/draw/lv_img_decoder.c ****        dsc->header.cf == LV_IMG_CF_TRUE_COLOR_CHROMA_KEYED) {
 1877              		.loc 1 487 23 is_stmt 0 view .LVU662
 1878 000e 90F814C0 		ldrb	ip, [r0, #20]	@ zero_extendqisi2
 487:lvgl/src/draw/lv_img_decoder.c ****        dsc->header.cf == LV_IMG_CF_TRUE_COLOR_CHROMA_KEYED) {
 1879              		.loc 1 487 47 view .LVU663
 1880 0012 0CF01E0E 		and	lr, ip, #30
 487:lvgl/src/draw/lv_img_decoder.c ****        dsc->header.cf == LV_IMG_CF_TRUE_COLOR_CHROMA_KEYED) {
 1881              		.loc 1 487 7 view .LVU664
 1882 0016 BEF1040F 		cmp	lr, #4
 1883 001a 14D0     		beq	.L118
 488:lvgl/src/draw/lv_img_decoder.c ****         /*For TRUE_COLOR images read line required only for files.
 1884              		.loc 1 488 23 discriminator 1 view .LVU665
 1885 001c 0CF01F0C 		and	ip, ip, #31
 487:lvgl/src/draw/lv_img_decoder.c ****        dsc->header.cf == LV_IMG_CF_TRUE_COLOR_CHROMA_KEYED) {
 1886              		.loc 1 487 95 discriminator 1 view .LVU666
 1887 0020 BCF1060F 		cmp	ip, #6
 1888 0024 0FD0     		beq	.L118
 495:lvgl/src/draw/lv_img_decoder.c ****             dsc->header.cf == LV_IMG_CF_ALPHA_4BIT || dsc->header.cf == LV_IMG_CF_ALPHA_8BIT) {
 1889              		.loc 1 495 10 is_stmt 1 view .LVU667
 496:lvgl/src/draw/lv_img_decoder.c ****         res = lv_img_decoder_built_in_line_alpha(dsc, x, y, len, buf);
 1890              		.loc 1 496 52 is_stmt 0 view .LVU668
 1891 0026 ACF10B0E 		sub	lr, ip, #11
 1892 002a 5FFA8EFE 		uxtb	lr, lr
 495:lvgl/src/draw/lv_img_decoder.c ****             dsc->header.cf == LV_IMG_CF_ALPHA_4BIT || dsc->header.cf == LV_IMG_CF_ALPHA_8BIT) {
 1893              		.loc 1 495 12 view .LVU669
 1894 002e BEF1030F 		cmp	lr, #3
 1895 0032 15D9     		bls	.L125
 499:lvgl/src/draw/lv_img_decoder.c ****             dsc->header.cf == LV_IMG_CF_INDEXED_4BIT || dsc->header.cf == LV_IMG_CF_INDEXED_8BIT) {
 1896              		.loc 1 499 10 is_stmt 1 view .LVU670
 500:lvgl/src/draw/lv_img_decoder.c ****         res = lv_img_decoder_built_in_line_indexed(dsc, x, y, len, buf);
 1897              		.loc 1 500 54 is_stmt 0 view .LVU671
 1898 0034 ACF1070C 		sub	ip, ip, #7
 1899 0038 5FFA8CFC 		uxtb	ip, ip
 499:lvgl/src/draw/lv_img_decoder.c ****             dsc->header.cf == LV_IMG_CF_INDEXED_4BIT || dsc->header.cf == LV_IMG_CF_INDEXED_8BIT) {
 1900              		.loc 1 499 12 view .LVU672
ARM GAS  C:\Users\OSD\AppData\Local\Temp\ccYTBKz7.s 			page 68


 1901 003c BCF1030F 		cmp	ip, #3
 1902 0040 13D9     		bls	.L126
 505:lvgl/src/draw/lv_img_decoder.c ****     }
 1903              		.loc 1 505 16 view .LVU673
 1904 0042 0020     		movs	r0, #0
 1905              	.LVL239:
 505:lvgl/src/draw/lv_img_decoder.c ****     }
 1906              		.loc 1 505 16 view .LVU674
 1907 0044 05E0     		b	.L120
 1908              	.LVL240:
 1909              	.L118:
 491:lvgl/src/draw/lv_img_decoder.c ****             res = lv_img_decoder_built_in_line_true_color(dsc, x, y, len, buf);
 1910              		.loc 1 491 9 is_stmt 1 view .LVU675
 491:lvgl/src/draw/lv_img_decoder.c ****             res = lv_img_decoder_built_in_line_true_color(dsc, x, y, len, buf);
 1911              		.loc 1 491 15 is_stmt 0 view .LVU676
 1912 0046 90F810C0 		ldrb	ip, [r0, #16]	@ zero_extendqisi2
 491:lvgl/src/draw/lv_img_decoder.c ****             res = lv_img_decoder_built_in_line_true_color(dsc, x, y, len, buf);
 1913              		.loc 1 491 11 view .LVU677
 1914 004a BCF1010F 		cmp	ip, #1
 1915 004e 02D0     		beq	.L127
 485:lvgl/src/draw/lv_img_decoder.c **** 
 1916              		.loc 1 485 14 view .LVU678
 1917 0050 0020     		movs	r0, #0
 1918              	.LVL241:
 1919              	.L120:
 509:lvgl/src/draw/lv_img_decoder.c **** 
 1920              		.loc 1 509 1 view .LVU679
 1921 0052 02B0     		add	sp, sp, #8
 1922              		.cfi_remember_state
 1923              		.cfi_def_cfa_offset 8
 1924              		@ sp needed
 1925 0054 10BD     		pop	{r4, pc}
 1926              	.LVL242:
 1927              	.L127:
 1928              		.cfi_restore_state
 492:lvgl/src/draw/lv_img_decoder.c ****         }
 1929              		.loc 1 492 13 is_stmt 1 view .LVU680
 492:lvgl/src/draw/lv_img_decoder.c ****         }
 1930              		.loc 1 492 19 is_stmt 0 view .LVU681
 1931 0056 059C     		ldr	r4, [sp, #20]
 1932 0058 0094     		str	r4, [sp]
 1933 005a FFF7FEFF 		bl	lv_img_decoder_built_in_line_true_color
 1934              	.LVL243:
 492:lvgl/src/draw/lv_img_decoder.c ****         }
 1935              		.loc 1 492 19 view .LVU682
 1936 005e F8E7     		b	.L120
 1937              	.LVL244:
 1938              	.L125:
 497:lvgl/src/draw/lv_img_decoder.c ****     }
 1939              		.loc 1 497 9 is_stmt 1 view .LVU683
 497:lvgl/src/draw/lv_img_decoder.c ****     }
 1940              		.loc 1 497 15 is_stmt 0 view .LVU684
 1941 0060 059C     		ldr	r4, [sp, #20]
 1942 0062 0094     		str	r4, [sp]
 1943 0064 FFF7FEFF 		bl	lv_img_decoder_built_in_line_alpha
 1944              	.LVL245:
 497:lvgl/src/draw/lv_img_decoder.c ****     }
ARM GAS  C:\Users\OSD\AppData\Local\Temp\ccYTBKz7.s 			page 69


 1945              		.loc 1 497 15 view .LVU685
 1946 0068 F3E7     		b	.L120
 1947              	.LVL246:
 1948              	.L126:
 501:lvgl/src/draw/lv_img_decoder.c ****     }
 1949              		.loc 1 501 9 is_stmt 1 view .LVU686
 501:lvgl/src/draw/lv_img_decoder.c ****     }
 1950              		.loc 1 501 15 is_stmt 0 view .LVU687
 1951 006a 059C     		ldr	r4, [sp, #20]
 1952 006c 0094     		str	r4, [sp]
 1953 006e FFF7FEFF 		bl	lv_img_decoder_built_in_line_indexed
 1954              	.LVL247:
 501:lvgl/src/draw/lv_img_decoder.c ****     }
 1955              		.loc 1 501 15 view .LVU688
 1956 0072 EEE7     		b	.L120
 1957              		.cfi_endproc
 1958              	.LFE69:
 1960              		.section	.text.lv_img_decoder_get_info,"ax",%progbits
 1961              		.align	1
 1962              		.global	lv_img_decoder_get_info
 1963              		.syntax unified
 1964              		.thumb
 1965              		.thumb_func
 1967              	lv_img_decoder_get_info:
 1968              	.LVL248:
 1969              	.LFB57:
  84:lvgl/src/draw/lv_img_decoder.c ****     lv_memset_00(header, sizeof(lv_img_header_t));
 1970              		.loc 1 84 1 is_stmt 1 view -0
 1971              		.cfi_startproc
 1972              		@ args = 0, pretend = 0, frame = 0
 1973              		@ frame_needed = 0, uses_anonymous_args = 0
  84:lvgl/src/draw/lv_img_decoder.c ****     lv_memset_00(header, sizeof(lv_img_header_t));
 1974              		.loc 1 84 1 is_stmt 0 view .LVU690
 1975 0000 F8B5     		push	{r3, r4, r5, r6, r7, lr}
 1976              		.cfi_def_cfa_offset 24
 1977              		.cfi_offset 3, -24
 1978              		.cfi_offset 4, -20
 1979              		.cfi_offset 5, -16
 1980              		.cfi_offset 6, -12
 1981              		.cfi_offset 7, -8
 1982              		.cfi_offset 14, -4
 1983 0002 0646     		mov	r6, r0
 1984 0004 0F46     		mov	r7, r1
  85:lvgl/src/draw/lv_img_decoder.c **** 
 1985              		.loc 1 85 5 is_stmt 1 view .LVU691
 1986 0006 0421     		movs	r1, #4
 1987              	.LVL249:
  85:lvgl/src/draw/lv_img_decoder.c **** 
 1988              		.loc 1 85 5 is_stmt 0 view .LVU692
 1989 0008 3846     		mov	r0, r7
 1990              	.LVL250:
  85:lvgl/src/draw/lv_img_decoder.c **** 
 1991              		.loc 1 85 5 view .LVU693
 1992 000a FFF7FEFF 		bl	lv_memset_00
 1993              	.LVL251:
  87:lvgl/src/draw/lv_img_decoder.c **** 
 1994              		.loc 1 87 5 is_stmt 1 view .LVU694
ARM GAS  C:\Users\OSD\AppData\Local\Temp\ccYTBKz7.s 			page 70


  87:lvgl/src/draw/lv_img_decoder.c **** 
 1995              		.loc 1 87 7 is_stmt 0 view .LVU695
 1996 000e EEB1     		cbz	r6, .L134
  89:lvgl/src/draw/lv_img_decoder.c ****     if(src_type == LV_IMG_SRC_VARIABLE) {
 1997              		.loc 1 89 5 is_stmt 1 view .LVU696
  89:lvgl/src/draw/lv_img_decoder.c ****     if(src_type == LV_IMG_SRC_VARIABLE) {
 1998              		.loc 1 89 29 is_stmt 0 view .LVU697
 1999 0010 3046     		mov	r0, r6
 2000 0012 FFF7FEFF 		bl	lv_img_src_get_type
 2001              	.LVL252:
  90:lvgl/src/draw/lv_img_decoder.c ****         const lv_img_dsc_t * img_dsc = src;
 2002              		.loc 1 90 5 is_stmt 1 view .LVU698
  90:lvgl/src/draw/lv_img_decoder.c ****         const lv_img_dsc_t * img_dsc = src;
 2003              		.loc 1 90 7 is_stmt 0 view .LVU699
 2004 0016 0546     		mov	r5, r0
 2005 0018 08B9     		cbnz	r0, .L130
 2006              	.LBB36:
  91:lvgl/src/draw/lv_img_decoder.c ****         if(img_dsc->data == NULL) return LV_RES_INV;
 2007              		.loc 1 91 9 is_stmt 1 view .LVU700
 2008              	.LVL253:
  92:lvgl/src/draw/lv_img_decoder.c ****     }
 2009              		.loc 1 92 9 view .LVU701
  92:lvgl/src/draw/lv_img_decoder.c ****     }
 2010              		.loc 1 92 19 is_stmt 0 view .LVU702
 2011 001a B368     		ldr	r3, [r6, #8]
  92:lvgl/src/draw/lv_img_decoder.c ****     }
 2012              		.loc 1 92 11 view .LVU703
 2013 001c BBB1     		cbz	r3, .L129
 2014              	.LVL254:
 2015              	.L130:
  92:lvgl/src/draw/lv_img_decoder.c ****     }
 2016              		.loc 1 92 11 view .LVU704
 2017              	.LBE36:
  95:lvgl/src/draw/lv_img_decoder.c ****     lv_img_decoder_t * d;
 2018              		.loc 1 95 5 is_stmt 1 view .LVU705
  96:lvgl/src/draw/lv_img_decoder.c ****     _LV_LL_READ(&LV_GC_ROOT(_lv_img_decoder_ll), d) {
 2019              		.loc 1 96 5 view .LVU706
  97:lvgl/src/draw/lv_img_decoder.c ****         if(d->info_cb) {
 2020              		.loc 1 97 5 view .LVU707
 2021 001e 0D48     		ldr	r0, .L136
 2022              	.LVL255:
  97:lvgl/src/draw/lv_img_decoder.c ****         if(d->info_cb) {
 2023              		.loc 1 97 5 is_stmt 0 view .LVU708
 2024 0020 FFF7FEFF 		bl	_lv_ll_get_head
 2025              	.LVL256:
 2026 0024 0446     		mov	r4, r0
 2027              	.LVL257:
  95:lvgl/src/draw/lv_img_decoder.c ****     lv_img_decoder_t * d;
 2028              		.loc 1 95 14 view .LVU709
 2029 0026 0025     		movs	r5, #0
  97:lvgl/src/draw/lv_img_decoder.c ****         if(d->info_cb) {
 2030              		.loc 1 97 5 view .LVU710
 2031 0028 04E0     		b	.L131
 2032              	.LVL258:
 2033              	.L132:
  97:lvgl/src/draw/lv_img_decoder.c ****         if(d->info_cb) {
 2034              		.loc 1 97 5 is_stmt 1 discriminator 2 view .LVU711
ARM GAS  C:\Users\OSD\AppData\Local\Temp\ccYTBKz7.s 			page 71


 2035 002a 2146     		mov	r1, r4
 2036 002c 0948     		ldr	r0, .L136
 2037 002e FFF7FEFF 		bl	_lv_ll_get_next
 2038              	.LVL259:
 2039 0032 0446     		mov	r4, r0
 2040              	.LVL260:
 2041              	.L131:
  97:lvgl/src/draw/lv_img_decoder.c ****         if(d->info_cb) {
 2042              		.loc 1 97 5 discriminator 1 view .LVU712
 2043 0034 5CB1     		cbz	r4, .L129
  98:lvgl/src/draw/lv_img_decoder.c ****             res = d->info_cb(d, src, header);
 2044              		.loc 1 98 9 view .LVU713
  98:lvgl/src/draw/lv_img_decoder.c ****             res = d->info_cb(d, src, header);
 2045              		.loc 1 98 13 is_stmt 0 view .LVU714
 2046 0036 2368     		ldr	r3, [r4]
  98:lvgl/src/draw/lv_img_decoder.c ****             res = d->info_cb(d, src, header);
 2047              		.loc 1 98 11 view .LVU715
 2048 0038 002B     		cmp	r3, #0
 2049 003a F6D0     		beq	.L132
  99:lvgl/src/draw/lv_img_decoder.c ****             if(res == LV_RES_OK) break;
 2050              		.loc 1 99 13 is_stmt 1 view .LVU716
  99:lvgl/src/draw/lv_img_decoder.c ****             if(res == LV_RES_OK) break;
 2051              		.loc 1 99 19 is_stmt 0 view .LVU717
 2052 003c 3A46     		mov	r2, r7
 2053 003e 3146     		mov	r1, r6
 2054 0040 2046     		mov	r0, r4
  99:lvgl/src/draw/lv_img_decoder.c ****             if(res == LV_RES_OK) break;
 2055              		.loc 1 99 19 view .LVU718
 2056 0042 9847     		blx	r3
 2057              	.LVL261:
  99:lvgl/src/draw/lv_img_decoder.c ****             if(res == LV_RES_OK) break;
 2058              		.loc 1 99 19 view .LVU719
 2059 0044 0546     		mov	r5, r0
 2060              	.LVL262:
 100:lvgl/src/draw/lv_img_decoder.c ****         }
 2061              		.loc 1 100 13 is_stmt 1 view .LVU720
 100:lvgl/src/draw/lv_img_decoder.c ****         }
 2062              		.loc 1 100 15 is_stmt 0 view .LVU721
 2063 0046 0128     		cmp	r0, #1
 2064 0048 EFD1     		bne	.L132
 2065 004a 00E0     		b	.L129
 2066              	.LVL263:
 2067              	.L134:
  87:lvgl/src/draw/lv_img_decoder.c **** 
 2068              		.loc 1 87 28 view .LVU722
 2069 004c 0025     		movs	r5, #0
 2070              	.L129:
 105:lvgl/src/draw/lv_img_decoder.c **** 
 2071              		.loc 1 105 1 view .LVU723
 2072 004e 2846     		mov	r0, r5
 2073 0050 F8BD     		pop	{r3, r4, r5, r6, r7, pc}
 2074              	.LVL264:
 2075              	.L137:
 105:lvgl/src/draw/lv_img_decoder.c **** 
 2076              		.loc 1 105 1 view .LVU724
 2077 0052 00BF     		.align	2
 2078              	.L136:
ARM GAS  C:\Users\OSD\AppData\Local\Temp\ccYTBKz7.s 			page 72


 2079 0054 00000000 		.word	_lv_img_decoder_ll
 2080              		.cfi_endproc
 2081              	.LFE57:
 2083              		.section	.text.lv_img_decoder_open,"ax",%progbits
 2084              		.align	1
 2085              		.global	lv_img_decoder_open
 2086              		.syntax unified
 2087              		.thumb
 2088              		.thumb_func
 2090              	lv_img_decoder_open:
 2091              	.LVL265:
 2092              	.LFB58:
 108:lvgl/src/draw/lv_img_decoder.c ****     lv_memset_00(dsc, sizeof(lv_img_decoder_dsc_t));
 2093              		.loc 1 108 1 is_stmt 1 view -0
 2094              		.cfi_startproc
 2095              		@ args = 0, pretend = 0, frame = 0
 2096              		@ frame_needed = 0, uses_anonymous_args = 0
 108:lvgl/src/draw/lv_img_decoder.c ****     lv_memset_00(dsc, sizeof(lv_img_decoder_dsc_t));
 2097              		.loc 1 108 1 is_stmt 0 view .LVU726
 2098 0000 2DE9F041 		push	{r4, r5, r6, r7, r8, lr}
 2099              		.cfi_def_cfa_offset 24
 2100              		.cfi_offset 4, -24
 2101              		.cfi_offset 5, -20
 2102              		.cfi_offset 6, -16
 2103              		.cfi_offset 7, -12
 2104              		.cfi_offset 8, -8
 2105              		.cfi_offset 14, -4
 2106 0004 0646     		mov	r6, r0
 2107 0006 8846     		mov	r8, r1
 2108 0008 1746     		mov	r7, r2
 2109              	.LVL266:
 108:lvgl/src/draw/lv_img_decoder.c ****     lv_memset_00(dsc, sizeof(lv_img_decoder_dsc_t));
 2110              		.loc 1 108 1 view .LVU727
 2111 000a 1C46     		mov	r4, r3
 109:lvgl/src/draw/lv_img_decoder.c **** 
 2112              		.loc 1 109 5 is_stmt 1 view .LVU728
 2113 000c 2821     		movs	r1, #40
 2114              	.LVL267:
 109:lvgl/src/draw/lv_img_decoder.c **** 
 2115              		.loc 1 109 5 is_stmt 0 view .LVU729
 2116 000e FFF7FEFF 		bl	lv_memset_00
 2117              	.LVL268:
 111:lvgl/src/draw/lv_img_decoder.c ****     lv_img_src_t src_type = lv_img_src_get_type(src);
 2118              		.loc 1 111 5 is_stmt 1 view .LVU730
 111:lvgl/src/draw/lv_img_decoder.c ****     lv_img_src_t src_type = lv_img_src_get_type(src);
 2119              		.loc 1 111 7 is_stmt 0 view .LVU731
 2120 0012 B8F1000F 		cmp	r8, #0
 2121 0016 53D0     		beq	.L148
 112:lvgl/src/draw/lv_img_decoder.c ****     if(src_type == LV_IMG_SRC_VARIABLE) {
 2122              		.loc 1 112 5 is_stmt 1 view .LVU732
 112:lvgl/src/draw/lv_img_decoder.c ****     if(src_type == LV_IMG_SRC_VARIABLE) {
 2123              		.loc 1 112 29 is_stmt 0 view .LVU733
 2124 0018 4046     		mov	r0, r8
 2125 001a FFF7FEFF 		bl	lv_img_src_get_type
 2126              	.LVL269:
 113:lvgl/src/draw/lv_img_decoder.c ****         const lv_img_dsc_t * img_dsc = src;
 2127              		.loc 1 113 5 is_stmt 1 view .LVU734
ARM GAS  C:\Users\OSD\AppData\Local\Temp\ccYTBKz7.s 			page 73


 113:lvgl/src/draw/lv_img_decoder.c ****         const lv_img_dsc_t * img_dsc = src;
 2128              		.loc 1 113 7 is_stmt 0 view .LVU735
 2129 001e 0546     		mov	r5, r0
 2130 0020 18B9     		cbnz	r0, .L140
 2131              	.LBB37:
 114:lvgl/src/draw/lv_img_decoder.c ****         if(img_dsc->data == NULL) return LV_RES_INV;
 2132              		.loc 1 114 9 is_stmt 1 view .LVU736
 2133              	.LVL270:
 115:lvgl/src/draw/lv_img_decoder.c ****     }
 2134              		.loc 1 115 9 view .LVU737
 115:lvgl/src/draw/lv_img_decoder.c ****     }
 2135              		.loc 1 115 19 is_stmt 0 view .LVU738
 2136 0022 D8F80830 		ldr	r3, [r8, #8]
 115:lvgl/src/draw/lv_img_decoder.c ****     }
 2137              		.loc 1 115 11 view .LVU739
 2138 0026 002B     		cmp	r3, #0
 2139 0028 43D0     		beq	.L139
 2140              	.LVL271:
 2141              	.L140:
 115:lvgl/src/draw/lv_img_decoder.c ****     }
 2142              		.loc 1 115 11 view .LVU740
 2143              	.LBE37:
 118:lvgl/src/draw/lv_img_decoder.c ****     dsc->src_type = src_type;
 2144              		.loc 1 118 5 is_stmt 1 view .LVU741
 118:lvgl/src/draw/lv_img_decoder.c ****     dsc->src_type = src_type;
 2145              		.loc 1 118 19 is_stmt 0 view .LVU742
 2146 002a B760     		str	r7, [r6, #8]
 119:lvgl/src/draw/lv_img_decoder.c ****     dsc->frame_id = frame_id;
 2147              		.loc 1 119 5 is_stmt 1 view .LVU743
 119:lvgl/src/draw/lv_img_decoder.c ****     dsc->frame_id = frame_id;
 2148              		.loc 1 119 19 is_stmt 0 view .LVU744
 2149 002c 3574     		strb	r5, [r6, #16]
 120:lvgl/src/draw/lv_img_decoder.c **** 
 2150              		.loc 1 120 5 is_stmt 1 view .LVU745
 120:lvgl/src/draw/lv_img_decoder.c **** 
 2151              		.loc 1 120 19 is_stmt 0 view .LVU746
 2152 002e F460     		str	r4, [r6, #12]
 122:lvgl/src/draw/lv_img_decoder.c ****         size_t fnlen = strlen(src);
 2153              		.loc 1 122 5 is_stmt 1 view .LVU747
 122:lvgl/src/draw/lv_img_decoder.c ****         size_t fnlen = strlen(src);
 2154              		.loc 1 122 7 is_stmt 0 view .LVU748
 2155 0030 012D     		cmp	r5, #1
 2156 0032 07D0     		beq	.L150
 133:lvgl/src/draw/lv_img_decoder.c ****     }
 2157              		.loc 1 133 9 is_stmt 1 view .LVU749
 133:lvgl/src/draw/lv_img_decoder.c ****     }
 2158              		.loc 1 133 18 is_stmt 0 view .LVU750
 2159 0034 C6F80480 		str	r8, [r6, #4]
 2160              	.LVL272:
 2161              	.L144:
 136:lvgl/src/draw/lv_img_decoder.c **** 
 2162              		.loc 1 136 5 is_stmt 1 view .LVU751
 138:lvgl/src/draw/lv_img_decoder.c ****     _LV_LL_READ(&LV_GC_ROOT(_lv_img_decoder_ll), decoder) {
 2163              		.loc 1 138 5 view .LVU752
 139:lvgl/src/draw/lv_img_decoder.c ****         /*Info and Open callbacks are required*/
 2164              		.loc 1 139 5 view .LVU753
 2165 0038 2248     		ldr	r0, .L153
ARM GAS  C:\Users\OSD\AppData\Local\Temp\ccYTBKz7.s 			page 74


 2166 003a FFF7FEFF 		bl	_lv_ll_get_head
 2167              	.LVL273:
 2168 003e 0446     		mov	r4, r0
 2169              	.LVL274:
 136:lvgl/src/draw/lv_img_decoder.c **** 
 2170              		.loc 1 136 14 is_stmt 0 view .LVU754
 2171 0040 0025     		movs	r5, #0
 139:lvgl/src/draw/lv_img_decoder.c ****         /*Info and Open callbacks are required*/
 2172              		.loc 1 139 5 view .LVU755
 2173 0042 11E0     		b	.L145
 2174              	.LVL275:
 2175              	.L150:
 2176              	.LBB38:
 123:lvgl/src/draw/lv_img_decoder.c ****         dsc->src = lv_mem_alloc(fnlen + 1);
