ARM GAS  C:\Users\OSD\AppData\Local\Temp\cc2Cqfsc.s 			page 1


   1              		.cpu cortex-m7
   2              		.arch armv7e-m
   3              		.fpu fpv5-d16
   4              		.eabi_attribute 28, 1
   5              		.eabi_attribute 20, 1
   6              		.eabi_attribute 21, 1
   7              		.eabi_attribute 23, 3
   8              		.eabi_attribute 24, 1
   9              		.eabi_attribute 25, 1
  10              		.eabi_attribute 26, 1
  11              		.eabi_attribute 30, 1
  12              		.eabi_attribute 34, 1
  13              		.eabi_attribute 18, 4
  14              		.file	"lv_mem.c"
  15              		.text
  16              	.Ltext0:
  17              		.cfi_sections	.debug_frame
  18              		.section	.text.lv_mem_init,"ax",%progbits
  19              		.align	1
  20              		.global	lv_mem_init
  21              		.syntax unified
  22              		.thumb
  23              		.thumb_func
  25              	lv_mem_init:
  26              	.LFB24:
  27              		.file 1 "lvgl/src/misc/lv_mem.c"
   1:lvgl/src/misc/lv_mem.c **** /**
   2:lvgl/src/misc/lv_mem.c ****  * @file lv_mem.c
   3:lvgl/src/misc/lv_mem.c ****  * General and portable implementation of malloc and free.
   4:lvgl/src/misc/lv_mem.c ****  * The dynamic memory monitoring is also supported.
   5:lvgl/src/misc/lv_mem.c ****  */
   6:lvgl/src/misc/lv_mem.c **** 
   7:lvgl/src/misc/lv_mem.c **** /*********************
   8:lvgl/src/misc/lv_mem.c ****  *      INCLUDES
   9:lvgl/src/misc/lv_mem.c ****  *********************/
  10:lvgl/src/misc/lv_mem.c **** #include "lv_mem.h"
  11:lvgl/src/misc/lv_mem.c **** #include "lv_tlsf.h"
  12:lvgl/src/misc/lv_mem.c **** #include "lv_gc.h"
  13:lvgl/src/misc/lv_mem.c **** #include "lv_assert.h"
  14:lvgl/src/misc/lv_mem.c **** #include "lv_log.h"
  15:lvgl/src/misc/lv_mem.c **** 
  16:lvgl/src/misc/lv_mem.c **** #if LV_MEM_CUSTOM != 0
  17:lvgl/src/misc/lv_mem.c ****     #include LV_MEM_CUSTOM_INCLUDE
  18:lvgl/src/misc/lv_mem.c **** #endif
  19:lvgl/src/misc/lv_mem.c **** 
  20:lvgl/src/misc/lv_mem.c **** #ifdef LV_MEM_POOL_INCLUDE
  21:lvgl/src/misc/lv_mem.c ****     #include LV_MEM_POOL_INCLUDE
  22:lvgl/src/misc/lv_mem.c **** #endif
  23:lvgl/src/misc/lv_mem.c **** 
  24:lvgl/src/misc/lv_mem.c **** /*********************
  25:lvgl/src/misc/lv_mem.c ****  *      DEFINES
  26:lvgl/src/misc/lv_mem.c ****  *********************/
  27:lvgl/src/misc/lv_mem.c **** /*memset the allocated memories to 0xaa and freed memories to 0xbb (just for testing purposes)*/
  28:lvgl/src/misc/lv_mem.c **** #ifndef LV_MEM_ADD_JUNK
  29:lvgl/src/misc/lv_mem.c ****     #define LV_MEM_ADD_JUNK  0
  30:lvgl/src/misc/lv_mem.c **** #endif
  31:lvgl/src/misc/lv_mem.c **** 
ARM GAS  C:\Users\OSD\AppData\Local\Temp\cc2Cqfsc.s 			page 2


  32:lvgl/src/misc/lv_mem.c **** #ifdef LV_ARCH_64
  33:lvgl/src/misc/lv_mem.c ****     #define MEM_UNIT         uint64_t
  34:lvgl/src/misc/lv_mem.c ****     #define ALIGN_MASK       0x7
  35:lvgl/src/misc/lv_mem.c **** #else
  36:lvgl/src/misc/lv_mem.c ****     #define MEM_UNIT         uint32_t
  37:lvgl/src/misc/lv_mem.c ****     #define ALIGN_MASK       0x3
  38:lvgl/src/misc/lv_mem.c **** #endif
  39:lvgl/src/misc/lv_mem.c **** 
  40:lvgl/src/misc/lv_mem.c **** #define ZERO_MEM_SENTINEL  0xa1b2c3d4
  41:lvgl/src/misc/lv_mem.c **** 
  42:lvgl/src/misc/lv_mem.c **** /**********************
  43:lvgl/src/misc/lv_mem.c ****  *      TYPEDEFS
  44:lvgl/src/misc/lv_mem.c ****  **********************/
  45:lvgl/src/misc/lv_mem.c **** 
  46:lvgl/src/misc/lv_mem.c **** /**********************
  47:lvgl/src/misc/lv_mem.c ****  *  STATIC PROTOTYPES
  48:lvgl/src/misc/lv_mem.c ****  **********************/
  49:lvgl/src/misc/lv_mem.c **** #if LV_MEM_CUSTOM == 0
  50:lvgl/src/misc/lv_mem.c ****     static void lv_mem_walker(void * ptr, size_t size, int used, void * user);
  51:lvgl/src/misc/lv_mem.c **** #endif
  52:lvgl/src/misc/lv_mem.c **** 
  53:lvgl/src/misc/lv_mem.c **** /**********************
  54:lvgl/src/misc/lv_mem.c ****  *  STATIC VARIABLES
  55:lvgl/src/misc/lv_mem.c ****  **********************/
  56:lvgl/src/misc/lv_mem.c **** #if LV_MEM_CUSTOM == 0
  57:lvgl/src/misc/lv_mem.c ****     static lv_tlsf_t tlsf;
  58:lvgl/src/misc/lv_mem.c ****     static uint32_t cur_used;
  59:lvgl/src/misc/lv_mem.c ****     static uint32_t max_used;
  60:lvgl/src/misc/lv_mem.c **** #endif
  61:lvgl/src/misc/lv_mem.c **** 
  62:lvgl/src/misc/lv_mem.c **** static uint32_t zero_mem = ZERO_MEM_SENTINEL; /*Give the address of this variable if 0 byte should 
  63:lvgl/src/misc/lv_mem.c **** 
  64:lvgl/src/misc/lv_mem.c **** /**********************
  65:lvgl/src/misc/lv_mem.c ****  *      MACROS
  66:lvgl/src/misc/lv_mem.c ****  **********************/
  67:lvgl/src/misc/lv_mem.c **** #if LV_LOG_TRACE_MEM
  68:lvgl/src/misc/lv_mem.c ****     #define MEM_TRACE(...) LV_LOG_TRACE(__VA_ARGS__)
  69:lvgl/src/misc/lv_mem.c **** #else
  70:lvgl/src/misc/lv_mem.c ****     #define MEM_TRACE(...)
  71:lvgl/src/misc/lv_mem.c **** #endif
  72:lvgl/src/misc/lv_mem.c **** 
  73:lvgl/src/misc/lv_mem.c **** #define COPY32 *d32 = *s32; d32++; s32++;
  74:lvgl/src/misc/lv_mem.c **** #define COPY8 *d8 = *s8; d8++; s8++;
  75:lvgl/src/misc/lv_mem.c **** #define SET32(x) *d32 = x; d32++;
  76:lvgl/src/misc/lv_mem.c **** #define SET8(x) *d8 = x; d8++;
  77:lvgl/src/misc/lv_mem.c **** #define REPEAT8(expr) expr expr expr expr expr expr expr expr
  78:lvgl/src/misc/lv_mem.c **** 
  79:lvgl/src/misc/lv_mem.c **** /**********************
  80:lvgl/src/misc/lv_mem.c ****  *   GLOBAL FUNCTIONS
  81:lvgl/src/misc/lv_mem.c ****  **********************/
  82:lvgl/src/misc/lv_mem.c **** 
  83:lvgl/src/misc/lv_mem.c **** /**
  84:lvgl/src/misc/lv_mem.c ****  * Initialize the dyn_mem module (work memory and other variables)
  85:lvgl/src/misc/lv_mem.c ****  */
  86:lvgl/src/misc/lv_mem.c **** void lv_mem_init(void)
  87:lvgl/src/misc/lv_mem.c **** {
  28              		.loc 1 87 1 view -0
ARM GAS  C:\Users\OSD\AppData\Local\Temp\cc2Cqfsc.s 			page 3


  29              		.cfi_startproc
  30              		@ args = 0, pretend = 0, frame = 0
  31              		@ frame_needed = 0, uses_anonymous_args = 0
  32              		@ link register save eliminated.
  88:lvgl/src/misc/lv_mem.c **** #if LV_MEM_CUSTOM == 0
  89:lvgl/src/misc/lv_mem.c **** 
  90:lvgl/src/misc/lv_mem.c **** #if LV_MEM_ADR == 0
  91:lvgl/src/misc/lv_mem.c **** #ifdef LV_MEM_POOL_ALLOC
  92:lvgl/src/misc/lv_mem.c ****     tlsf = lv_tlsf_create_with_pool((void *)LV_MEM_POOL_ALLOC(LV_MEM_SIZE), LV_MEM_SIZE);
  93:lvgl/src/misc/lv_mem.c **** #else
  94:lvgl/src/misc/lv_mem.c ****     /*Allocate a large array to store the dynamically allocated data*/
  95:lvgl/src/misc/lv_mem.c ****     static LV_ATTRIBUTE_LARGE_RAM_ARRAY MEM_UNIT work_mem_int[LV_MEM_SIZE / sizeof(MEM_UNIT)];
  96:lvgl/src/misc/lv_mem.c ****     tlsf = lv_tlsf_create_with_pool((void *)work_mem_int, LV_MEM_SIZE);
  97:lvgl/src/misc/lv_mem.c **** #endif
  98:lvgl/src/misc/lv_mem.c **** #else
  99:lvgl/src/misc/lv_mem.c ****     tlsf = lv_tlsf_create_with_pool((void *)LV_MEM_ADR, LV_MEM_SIZE);
 100:lvgl/src/misc/lv_mem.c **** #endif
 101:lvgl/src/misc/lv_mem.c **** #endif
 102:lvgl/src/misc/lv_mem.c **** 
 103:lvgl/src/misc/lv_mem.c **** #if LV_MEM_ADD_JUNK
 104:lvgl/src/misc/lv_mem.c ****     LV_LOG_WARN("LV_MEM_ADD_JUNK is enabled which makes LVGL much slower");
 105:lvgl/src/misc/lv_mem.c **** #endif
 106:lvgl/src/misc/lv_mem.c **** }
  33              		.loc 1 106 1 view .LVU1
  34 0000 7047     		bx	lr
  35              		.cfi_endproc
  36              	.LFE24:
  38              		.section	.text.lv_mem_deinit,"ax",%progbits
  39              		.align	1
  40              		.global	lv_mem_deinit
  41              		.syntax unified
  42              		.thumb
  43              		.thumb_func
  45              	lv_mem_deinit:
  46              	.LFB25:
 107:lvgl/src/misc/lv_mem.c **** 
 108:lvgl/src/misc/lv_mem.c **** /**
 109:lvgl/src/misc/lv_mem.c ****  * Clean up the memory buffer which frees all the allocated memories.
 110:lvgl/src/misc/lv_mem.c ****  * @note It work only if `LV_MEM_CUSTOM == 0`
 111:lvgl/src/misc/lv_mem.c ****  */
 112:lvgl/src/misc/lv_mem.c **** void lv_mem_deinit(void)
 113:lvgl/src/misc/lv_mem.c **** {
  47              		.loc 1 113 1 view -0
  48              		.cfi_startproc
  49              		@ args = 0, pretend = 0, frame = 0
  50              		@ frame_needed = 0, uses_anonymous_args = 0
  51              		@ link register save eliminated.
 114:lvgl/src/misc/lv_mem.c **** #if LV_MEM_CUSTOM == 0
 115:lvgl/src/misc/lv_mem.c ****     lv_tlsf_destroy(tlsf);
 116:lvgl/src/misc/lv_mem.c ****     lv_mem_init();
 117:lvgl/src/misc/lv_mem.c **** #endif
 118:lvgl/src/misc/lv_mem.c **** }
  52              		.loc 1 118 1 view .LVU3
  53 0000 7047     		bx	lr
  54              		.cfi_endproc
  55              	.LFE25:
  57              		.section	.text.lv_mem_alloc,"ax",%progbits
ARM GAS  C:\Users\OSD\AppData\Local\Temp\cc2Cqfsc.s 			page 4


  58              		.align	1
  59              		.global	lv_mem_alloc
  60              		.syntax unified
  61              		.thumb
  62              		.thumb_func
  64              	lv_mem_alloc:
  65              	.LVL0:
  66              	.LFB26:
 119:lvgl/src/misc/lv_mem.c **** 
 120:lvgl/src/misc/lv_mem.c **** /**
 121:lvgl/src/misc/lv_mem.c ****  * Allocate a memory dynamically
 122:lvgl/src/misc/lv_mem.c ****  * @param size size of the memory to allocate in bytes
 123:lvgl/src/misc/lv_mem.c ****  * @return pointer to the allocated memory
 124:lvgl/src/misc/lv_mem.c ****  */
 125:lvgl/src/misc/lv_mem.c **** void * lv_mem_alloc(size_t size)
 126:lvgl/src/misc/lv_mem.c **** {
  67              		.loc 1 126 1 view -0
  68              		.cfi_startproc
  69              		@ args = 0, pretend = 0, frame = 0
  70              		@ frame_needed = 0, uses_anonymous_args = 0
 127:lvgl/src/misc/lv_mem.c ****     MEM_TRACE("allocating %lu bytes", (unsigned long)size);
  71              		.loc 1 127 59 view .LVU5
 128:lvgl/src/misc/lv_mem.c ****     if(size == 0) {
  72              		.loc 1 128 5 view .LVU6
  73              		.loc 1 128 7 is_stmt 0 view .LVU7
  74 0000 08B9     		cbnz	r0, .L10
 129:lvgl/src/misc/lv_mem.c ****         MEM_TRACE("using zero_mem");
 130:lvgl/src/misc/lv_mem.c ****         return &zero_mem;
  75              		.loc 1 130 16 view .LVU8
  76 0002 0348     		ldr	r0, .L11
  77              	.LVL1:
 131:lvgl/src/misc/lv_mem.c ****     }
 132:lvgl/src/misc/lv_mem.c **** 
 133:lvgl/src/misc/lv_mem.c **** #if LV_MEM_CUSTOM == 0
 134:lvgl/src/misc/lv_mem.c ****     void * alloc = lv_tlsf_malloc(tlsf, size);
 135:lvgl/src/misc/lv_mem.c **** #else
 136:lvgl/src/misc/lv_mem.c ****     void * alloc = LV_MEM_CUSTOM_ALLOC(size);
 137:lvgl/src/misc/lv_mem.c **** #endif
 138:lvgl/src/misc/lv_mem.c **** 
 139:lvgl/src/misc/lv_mem.c ****     if(alloc == NULL) {
 140:lvgl/src/misc/lv_mem.c ****         LV_LOG_INFO("couldn't allocate memory (%lu bytes)", (unsigned long)size);
 141:lvgl/src/misc/lv_mem.c **** #if LV_LOG_LEVEL <= LV_LOG_LEVEL_INFO
 142:lvgl/src/misc/lv_mem.c ****         lv_mem_monitor_t mon;
 143:lvgl/src/misc/lv_mem.c ****         lv_mem_monitor(&mon);
 144:lvgl/src/misc/lv_mem.c ****         LV_LOG_INFO("used: %6d (%3d %%), frag: %3d %%, biggest free: %6d",
 145:lvgl/src/misc/lv_mem.c ****                     (int)(mon.total_size - mon.free_size), mon.used_pct, mon.frag_pct,
 146:lvgl/src/misc/lv_mem.c ****                     (int)mon.free_biggest_size);
 147:lvgl/src/misc/lv_mem.c **** #endif
 148:lvgl/src/misc/lv_mem.c ****     }
 149:lvgl/src/misc/lv_mem.c **** #if LV_MEM_ADD_JUNK
 150:lvgl/src/misc/lv_mem.c ****     else {
 151:lvgl/src/misc/lv_mem.c ****         lv_memset(alloc, 0xaa, size);
 152:lvgl/src/misc/lv_mem.c ****     }
 153:lvgl/src/misc/lv_mem.c **** #endif
 154:lvgl/src/misc/lv_mem.c **** 
 155:lvgl/src/misc/lv_mem.c ****     if(alloc) {
 156:lvgl/src/misc/lv_mem.c **** #if LV_MEM_CUSTOM == 0
ARM GAS  C:\Users\OSD\AppData\Local\Temp\cc2Cqfsc.s 			page 5


 157:lvgl/src/misc/lv_mem.c ****         cur_used += size;
 158:lvgl/src/misc/lv_mem.c ****         max_used = LV_MAX(cur_used, max_used);
 159:lvgl/src/misc/lv_mem.c **** #endif
 160:lvgl/src/misc/lv_mem.c ****         MEM_TRACE("allocated at %p", alloc);
 161:lvgl/src/misc/lv_mem.c ****     }
 162:lvgl/src/misc/lv_mem.c ****     return alloc;
 163:lvgl/src/misc/lv_mem.c **** }
  78              		.loc 1 163 1 view .LVU9
  79 0004 7047     		bx	lr
  80              	.LVL2:
  81              	.L10:
 126:lvgl/src/misc/lv_mem.c ****     MEM_TRACE("allocating %lu bytes", (unsigned long)size);
  82              		.loc 1 126 1 view .LVU10
  83 0006 08B5     		push	{r3, lr}
  84              		.cfi_def_cfa_offset 8
  85              		.cfi_offset 3, -8
  86              		.cfi_offset 14, -4
 136:lvgl/src/misc/lv_mem.c **** #endif
  87              		.loc 1 136 5 is_stmt 1 view .LVU11
 136:lvgl/src/misc/lv_mem.c **** #endif
  88              		.loc 1 136 20 is_stmt 0 view .LVU12
  89 0008 FFF7FEFF 		bl	malloc
  90              	.LVL3:
 139:lvgl/src/misc/lv_mem.c ****         LV_LOG_INFO("couldn't allocate memory (%lu bytes)", (unsigned long)size);
  91              		.loc 1 139 5 is_stmt 1 view .LVU13
 140:lvgl/src/misc/lv_mem.c **** #if LV_LOG_LEVEL <= LV_LOG_LEVEL_INFO
  92              		.loc 1 140 9 view .LVU14
 140:lvgl/src/misc/lv_mem.c **** #if LV_LOG_LEVEL <= LV_LOG_LEVEL_INFO
  93              		.loc 1 140 9 view .LVU15
 140:lvgl/src/misc/lv_mem.c **** #if LV_LOG_LEVEL <= LV_LOG_LEVEL_INFO
  94              		.loc 1 140 9 view .LVU16
 155:lvgl/src/misc/lv_mem.c **** #if LV_MEM_CUSTOM == 0
  95              		.loc 1 155 5 view .LVU17
 160:lvgl/src/misc/lv_mem.c ****     }
  96              		.loc 1 160 44 view .LVU18
 162:lvgl/src/misc/lv_mem.c **** }
  97              		.loc 1 162 5 view .LVU19
  98              		.loc 1 163 1 is_stmt 0 view .LVU20
  99 000c 08BD     		pop	{r3, pc}
 100              	.L12:
 101 000e 00BF     		.align	2
 102              	.L11:
 103 0010 00000000 		.word	.LANCHOR0
 104              		.cfi_endproc
 105              	.LFE26:
 107              		.section	.text.lv_mem_free,"ax",%progbits
 108              		.align	1
 109              		.global	lv_mem_free
 110              		.syntax unified
 111              		.thumb
 112              		.thumb_func
 114              	lv_mem_free:
 115              	.LVL4:
 116              	.LFB27:
 164:lvgl/src/misc/lv_mem.c **** 
 165:lvgl/src/misc/lv_mem.c **** /**
 166:lvgl/src/misc/lv_mem.c ****  * Free an allocated data
ARM GAS  C:\Users\OSD\AppData\Local\Temp\cc2Cqfsc.s 			page 6


 167:lvgl/src/misc/lv_mem.c ****  * @param data pointer to an allocated memory
 168:lvgl/src/misc/lv_mem.c ****  */
 169:lvgl/src/misc/lv_mem.c **** void lv_mem_free(void * data)
 170:lvgl/src/misc/lv_mem.c **** {
 117              		.loc 1 170 1 is_stmt 1 view -0
 118              		.cfi_startproc
 119              		@ args = 0, pretend = 0, frame = 0
 120              		@ frame_needed = 0, uses_anonymous_args = 0
 121              		.loc 1 170 1 is_stmt 0 view .LVU22
 122 0000 08B5     		push	{r3, lr}
 123              		.cfi_def_cfa_offset 8
 124              		.cfi_offset 3, -8
 125              		.cfi_offset 14, -4
 171:lvgl/src/misc/lv_mem.c ****     MEM_TRACE("freeing %p", data);
 126              		.loc 1 171 34 is_stmt 1 view .LVU23
 172:lvgl/src/misc/lv_mem.c ****     if(data == &zero_mem) return;
 127              		.loc 1 172 5 view .LVU24
 128              		.loc 1 172 7 is_stmt 0 view .LVU25
 129 0002 034B     		ldr	r3, .L16
 130 0004 9842     		cmp	r0, r3
 131 0006 02D0     		beq	.L13
 173:lvgl/src/misc/lv_mem.c ****     if(data == NULL) return;
 132              		.loc 1 173 5 is_stmt 1 view .LVU26
 133              		.loc 1 173 7 is_stmt 0 view .LVU27
 134 0008 08B1     		cbz	r0, .L13
 174:lvgl/src/misc/lv_mem.c **** 
 175:lvgl/src/misc/lv_mem.c **** #if LV_MEM_CUSTOM == 0
 176:lvgl/src/misc/lv_mem.c **** #  if LV_MEM_ADD_JUNK
 177:lvgl/src/misc/lv_mem.c ****     lv_memset(data, 0xbb, lv_tlsf_block_size(data));
 178:lvgl/src/misc/lv_mem.c **** #  endif
 179:lvgl/src/misc/lv_mem.c ****     size_t size = lv_tlsf_free(tlsf, data);
 180:lvgl/src/misc/lv_mem.c ****     if(cur_used > size) cur_used -= size;
 181:lvgl/src/misc/lv_mem.c ****     else cur_used = 0;
 182:lvgl/src/misc/lv_mem.c **** #else
 183:lvgl/src/misc/lv_mem.c ****     LV_MEM_CUSTOM_FREE(data);
 135              		.loc 1 183 5 is_stmt 1 view .LVU28
 136 000a FFF7FEFF 		bl	free
 137              	.LVL5:
 138              	.L13:
 184:lvgl/src/misc/lv_mem.c **** #endif
 185:lvgl/src/misc/lv_mem.c **** }
 139              		.loc 1 185 1 is_stmt 0 view .LVU29
 140 000e 08BD     		pop	{r3, pc}
 141              	.L17:
 142              		.align	2
 143              	.L16:
 144 0010 00000000 		.word	.LANCHOR0
 145              		.cfi_endproc
 146              	.LFE27:
 148              		.section	.text.lv_mem_realloc,"ax",%progbits
 149              		.align	1
 150              		.global	lv_mem_realloc
 151              		.syntax unified
 152              		.thumb
 153              		.thumb_func
 155              	lv_mem_realloc:
 156              	.LVL6:
ARM GAS  C:\Users\OSD\AppData\Local\Temp\cc2Cqfsc.s 			page 7


 157              	.LFB28:
 186:lvgl/src/misc/lv_mem.c **** 
 187:lvgl/src/misc/lv_mem.c **** /**
 188:lvgl/src/misc/lv_mem.c ****  * Reallocate a memory with a new size. The old content will be kept.
 189:lvgl/src/misc/lv_mem.c ****  * @param data pointer to an allocated memory.
 190:lvgl/src/misc/lv_mem.c ****  * Its content will be copied to the new memory block and freed
 191:lvgl/src/misc/lv_mem.c ****  * @param new_size the desired new size in byte
 192:lvgl/src/misc/lv_mem.c ****  * @return pointer to the new memory
 193:lvgl/src/misc/lv_mem.c ****  */
 194:lvgl/src/misc/lv_mem.c **** void * lv_mem_realloc(void * data_p, size_t new_size)
 195:lvgl/src/misc/lv_mem.c **** {
 158              		.loc 1 195 1 is_stmt 1 view -0
 159              		.cfi_startproc
 160              		@ args = 0, pretend = 0, frame = 0
 161              		@ frame_needed = 0, uses_anonymous_args = 0
 162              		.loc 1 195 1 is_stmt 0 view .LVU31
 163 0000 08B5     		push	{r3, lr}
 164              		.cfi_def_cfa_offset 8
 165              		.cfi_offset 3, -8
 166              		.cfi_offset 14, -4
 196:lvgl/src/misc/lv_mem.c ****     MEM_TRACE("reallocating %p with %lu size", data_p, (unsigned long)new_size);
 167              		.loc 1 196 80 is_stmt 1 view .LVU32
 197:lvgl/src/misc/lv_mem.c ****     if(new_size == 0) {
 168              		.loc 1 197 5 view .LVU33
 169              		.loc 1 197 7 is_stmt 0 view .LVU34
 170 0002 29B1     		cbz	r1, .L23
 198:lvgl/src/misc/lv_mem.c ****         MEM_TRACE("using zero_mem");
 199:lvgl/src/misc/lv_mem.c ****         lv_mem_free(data_p);
 200:lvgl/src/misc/lv_mem.c ****         return &zero_mem;
 201:lvgl/src/misc/lv_mem.c ****     }
 202:lvgl/src/misc/lv_mem.c **** 
 203:lvgl/src/misc/lv_mem.c ****     if(data_p == &zero_mem) return lv_mem_alloc(new_size);
 171              		.loc 1 203 5 is_stmt 1 view .LVU35
 172              		.loc 1 203 7 is_stmt 0 view .LVU36
 173 0004 064A     		ldr	r2, .L25
 174 0006 9042     		cmp	r0, r2
 175 0008 06D0     		beq	.L24
 204:lvgl/src/misc/lv_mem.c **** 
 205:lvgl/src/misc/lv_mem.c **** #if LV_MEM_CUSTOM == 0
 206:lvgl/src/misc/lv_mem.c ****     void * new_p = lv_tlsf_realloc(tlsf, data_p, new_size);
 207:lvgl/src/misc/lv_mem.c **** #else
 208:lvgl/src/misc/lv_mem.c ****     void * new_p = LV_MEM_CUSTOM_REALLOC(data_p, new_size);
 176              		.loc 1 208 5 is_stmt 1 view .LVU37
 177              		.loc 1 208 20 is_stmt 0 view .LVU38
 178 000a FFF7FEFF 		bl	realloc
 179              	.LVL7:
 209:lvgl/src/misc/lv_mem.c **** #endif
 210:lvgl/src/misc/lv_mem.c ****     if(new_p == NULL) {
 180              		.loc 1 210 5 is_stmt 1 view .LVU39
 181              	.L18:
 211:lvgl/src/misc/lv_mem.c ****         LV_LOG_ERROR("couldn't allocate memory");
 212:lvgl/src/misc/lv_mem.c ****         return NULL;
 213:lvgl/src/misc/lv_mem.c ****     }
 214:lvgl/src/misc/lv_mem.c **** 
 215:lvgl/src/misc/lv_mem.c ****     MEM_TRACE("allocated at %p", new_p);
 216:lvgl/src/misc/lv_mem.c ****     return new_p;
 217:lvgl/src/misc/lv_mem.c **** }
ARM GAS  C:\Users\OSD\AppData\Local\Temp\cc2Cqfsc.s 			page 8


 182              		.loc 1 217 1 is_stmt 0 view .LVU40
 183 000e 08BD     		pop	{r3, pc}
 184              	.LVL8:
 185              	.L23:
 198:lvgl/src/misc/lv_mem.c ****         lv_mem_free(data_p);
 186              		.loc 1 198 36 is_stmt 1 view .LVU41
 199:lvgl/src/misc/lv_mem.c ****         return &zero_mem;
 187              		.loc 1 199 9 view .LVU42
 188 0010 FFF7FEFF 		bl	lv_mem_free
 189              	.LVL9:
 200:lvgl/src/misc/lv_mem.c ****     }
 190              		.loc 1 200 9 view .LVU43
 200:lvgl/src/misc/lv_mem.c ****     }
 191              		.loc 1 200 16 is_stmt 0 view .LVU44
 192 0014 0248     		ldr	r0, .L25
 193 0016 FAE7     		b	.L18
 194              	.LVL10:
 195              	.L24:
 203:lvgl/src/misc/lv_mem.c **** 
 196              		.loc 1 203 29 is_stmt 1 discriminator 1 view .LVU45
 203:lvgl/src/misc/lv_mem.c **** 
 197              		.loc 1 203 36 is_stmt 0 discriminator 1 view .LVU46
 198 0018 0846     		mov	r0, r1
 199              	.LVL11:
 203:lvgl/src/misc/lv_mem.c **** 
 200              		.loc 1 203 36 discriminator 1 view .LVU47
 201 001a FFF7FEFF 		bl	lv_mem_alloc
 202              	.LVL12:
 203:lvgl/src/misc/lv_mem.c **** 
 203              		.loc 1 203 36 discriminator 1 view .LVU48
 204 001e F6E7     		b	.L18
 205              	.L26:
 206              		.align	2
 207              	.L25:
 208 0020 00000000 		.word	.LANCHOR0
 209              		.cfi_endproc
 210              	.LFE28:
 212              		.section	.text.lv_mem_test,"ax",%progbits
 213              		.align	1
 214              		.global	lv_mem_test
 215              		.syntax unified
 216              		.thumb
 217              		.thumb_func
 219              	lv_mem_test:
 220              	.LFB29:
 218:lvgl/src/misc/lv_mem.c **** 
 219:lvgl/src/misc/lv_mem.c **** lv_res_t lv_mem_test(void)
 220:lvgl/src/misc/lv_mem.c **** {
 221              		.loc 1 220 1 is_stmt 1 view -0
 222              		.cfi_startproc
 223              		@ args = 0, pretend = 0, frame = 0
 224              		@ frame_needed = 0, uses_anonymous_args = 0
 225              		@ link register save eliminated.
 221:lvgl/src/misc/lv_mem.c ****     if(zero_mem != ZERO_MEM_SENTINEL) {
 226              		.loc 1 221 5 view .LVU50
 227              		.loc 1 221 17 is_stmt 0 view .LVU51
 228 0000 044B     		ldr	r3, .L30
ARM GAS  C:\Users\OSD\AppData\Local\Temp\cc2Cqfsc.s 			page 9


 229 0002 1A68     		ldr	r2, [r3]
 230              		.loc 1 221 7 view .LVU52
 231 0004 044B     		ldr	r3, .L30+4
 232 0006 9A42     		cmp	r2, r3
 233 0008 01D1     		bne	.L29
 222:lvgl/src/misc/lv_mem.c ****         LV_LOG_WARN("zero_mem is written");
 223:lvgl/src/misc/lv_mem.c ****         return LV_RES_INV;
 224:lvgl/src/misc/lv_mem.c ****     }
 225:lvgl/src/misc/lv_mem.c **** 
 226:lvgl/src/misc/lv_mem.c **** #if LV_MEM_CUSTOM == 0
 227:lvgl/src/misc/lv_mem.c ****     if(lv_tlsf_check(tlsf)) {
 228:lvgl/src/misc/lv_mem.c ****         LV_LOG_WARN("failed");
 229:lvgl/src/misc/lv_mem.c ****         return LV_RES_INV;
 230:lvgl/src/misc/lv_mem.c ****     }
 231:lvgl/src/misc/lv_mem.c **** 
 232:lvgl/src/misc/lv_mem.c ****     if(lv_tlsf_check_pool(lv_tlsf_get_pool(tlsf))) {
 233:lvgl/src/misc/lv_mem.c ****         LV_LOG_WARN("pool failed");
 234:lvgl/src/misc/lv_mem.c ****         return LV_RES_INV;
 235:lvgl/src/misc/lv_mem.c ****     }
 236:lvgl/src/misc/lv_mem.c **** #endif
 237:lvgl/src/misc/lv_mem.c ****     MEM_TRACE("passed");
 238:lvgl/src/misc/lv_mem.c ****     return LV_RES_OK;
 234              		.loc 1 238 12 view .LVU53
 235 000a 0120     		movs	r0, #1
 236 000c 7047     		bx	lr
 237              	.L29:
 223:lvgl/src/misc/lv_mem.c ****     }
 238              		.loc 1 223 16 view .LVU54
 239 000e 0020     		movs	r0, #0
 239:lvgl/src/misc/lv_mem.c **** }
 240              		.loc 1 239 1 view .LVU55
 241 0010 7047     		bx	lr
 242              	.L31:
 243 0012 00BF     		.align	2
 244              	.L30:
 245 0014 00000000 		.word	.LANCHOR0
 246 0018 D4C3B2A1 		.word	-1582119980
 247              		.cfi_endproc
 248              	.LFE29:
 250              		.section	.text.lv_mem_buf_get,"ax",%progbits
 251              		.align	1
 252              		.global	lv_mem_buf_get
 253              		.syntax unified
 254              		.thumb
 255              		.thumb_func
 257              	lv_mem_buf_get:
 258              	.LVL13:
 259              	.LFB31:
 240:lvgl/src/misc/lv_mem.c **** 
 241:lvgl/src/misc/lv_mem.c **** /**
 242:lvgl/src/misc/lv_mem.c ****  * Give information about the work memory of dynamic allocation
 243:lvgl/src/misc/lv_mem.c ****  * @param mon_p pointer to a lv_mem_monitor_t variable,
 244:lvgl/src/misc/lv_mem.c ****  *              the result of the analysis will be stored here
 245:lvgl/src/misc/lv_mem.c ****  */
 246:lvgl/src/misc/lv_mem.c **** void lv_mem_monitor(lv_mem_monitor_t * mon_p)
 247:lvgl/src/misc/lv_mem.c **** {
 248:lvgl/src/misc/lv_mem.c ****     /*Init the data*/
ARM GAS  C:\Users\OSD\AppData\Local\Temp\cc2Cqfsc.s 			page 10


 249:lvgl/src/misc/lv_mem.c ****     lv_memset(mon_p, 0, sizeof(lv_mem_monitor_t));
 250:lvgl/src/misc/lv_mem.c **** #if LV_MEM_CUSTOM == 0
 251:lvgl/src/misc/lv_mem.c ****     MEM_TRACE("begin");
 252:lvgl/src/misc/lv_mem.c **** 
 253:lvgl/src/misc/lv_mem.c ****     lv_tlsf_walk_pool(lv_tlsf_get_pool(tlsf), lv_mem_walker, mon_p);
 254:lvgl/src/misc/lv_mem.c **** 
 255:lvgl/src/misc/lv_mem.c ****     mon_p->total_size = LV_MEM_SIZE;
 256:lvgl/src/misc/lv_mem.c ****     mon_p->used_pct = 100 - (100U * mon_p->free_size) / mon_p->total_size;
 257:lvgl/src/misc/lv_mem.c ****     if(mon_p->free_size > 0) {
 258:lvgl/src/misc/lv_mem.c ****         mon_p->frag_pct = mon_p->free_biggest_size * 100U / mon_p->free_size;
 259:lvgl/src/misc/lv_mem.c ****         mon_p->frag_pct = 100 - mon_p->frag_pct;
 260:lvgl/src/misc/lv_mem.c ****     }
 261:lvgl/src/misc/lv_mem.c ****     else {
 262:lvgl/src/misc/lv_mem.c ****         mon_p->frag_pct = 0; /*no fragmentation if all the RAM is used*/
 263:lvgl/src/misc/lv_mem.c ****     }
 264:lvgl/src/misc/lv_mem.c **** 
 265:lvgl/src/misc/lv_mem.c ****     mon_p->max_used = max_used;
 266:lvgl/src/misc/lv_mem.c **** 
 267:lvgl/src/misc/lv_mem.c ****     MEM_TRACE("finished");
 268:lvgl/src/misc/lv_mem.c **** #endif
 269:lvgl/src/misc/lv_mem.c **** }
 270:lvgl/src/misc/lv_mem.c **** 
 271:lvgl/src/misc/lv_mem.c **** /**
 272:lvgl/src/misc/lv_mem.c ****  * Get a temporal buffer with the given size.
 273:lvgl/src/misc/lv_mem.c ****  * @param size the required size
 274:lvgl/src/misc/lv_mem.c ****  */
 275:lvgl/src/misc/lv_mem.c **** void * lv_mem_buf_get(uint32_t size)
 276:lvgl/src/misc/lv_mem.c **** {
 260              		.loc 1 276 1 is_stmt 1 view -0
 261              		.cfi_startproc
 262              		@ args = 0, pretend = 0, frame = 0
 263              		@ frame_needed = 0, uses_anonymous_args = 0
 277:lvgl/src/misc/lv_mem.c ****     if(size == 0) return NULL;
 264              		.loc 1 277 5 view .LVU57
 265              		.loc 1 277 7 is_stmt 0 view .LVU58
 266 0000 0028     		cmp	r0, #0
 267 0002 5BD0     		beq	.L45
 276:lvgl/src/misc/lv_mem.c ****     if(size == 0) return NULL;
 268              		.loc 1 276 1 view .LVU59
 269 0004 38B5     		push	{r3, r4, r5, lr}
 270              		.cfi_def_cfa_offset 16
 271              		.cfi_offset 3, -16
 272              		.cfi_offset 4, -12
 273              		.cfi_offset 5, -8
 274              		.cfi_offset 14, -4
 275 0006 0446     		mov	r4, r0
 276              	.LBB2:
 278:lvgl/src/misc/lv_mem.c **** 
 279:lvgl/src/misc/lv_mem.c ****     MEM_TRACE("begin, getting %d bytes", size);
 280:lvgl/src/misc/lv_mem.c **** 
 281:lvgl/src/misc/lv_mem.c ****     /*Try to find a free buffer with suitable size*/
 282:lvgl/src/misc/lv_mem.c ****     int8_t i_guess = -1;
 283:lvgl/src/misc/lv_mem.c ****     for(uint8_t i = 0; i < LV_MEM_BUF_MAX_NUM; i++) {
 277              		.loc 1 283 17 view .LVU60
 278 0008 0023     		movs	r3, #0
 279              	.LBE2:
 282:lvgl/src/misc/lv_mem.c ****     for(uint8_t i = 0; i < LV_MEM_BUF_MAX_NUM; i++) {
ARM GAS  C:\Users\OSD\AppData\Local\Temp\cc2Cqfsc.s 			page 11


 280              		.loc 1 282 12 view .LVU61
 281 000a 4FF0FF30 		mov	r0, #-1
 282              	.LVL14:
 282:lvgl/src/misc/lv_mem.c ****     for(uint8_t i = 0; i < LV_MEM_BUF_MAX_NUM; i++) {
 283              		.loc 1 282 12 view .LVU62
 284 000e 0CE0     		b	.L34
 285              	.LVL15:
 286              	.L52:
 287              	.LBB3:
 284:lvgl/src/misc/lv_mem.c ****         if(LV_GC_ROOT(lv_mem_buf[i]).used == 0 && LV_GC_ROOT(lv_mem_buf[i]).size >= size) {
 285:lvgl/src/misc/lv_mem.c ****             if(LV_GC_ROOT(lv_mem_buf[i]).size == size) {
 286:lvgl/src/misc/lv_mem.c ****                 LV_GC_ROOT(lv_mem_buf[i]).used = 1;
 288              		.loc 1 286 17 is_stmt 1 view .LVU63
 289              		.loc 1 286 48 is_stmt 0 view .LVU64
 290 0010 2B4A     		ldr	r2, .L56
 291 0012 02EBC300 		add	r0, r2, r3, lsl #3
 292              	.LVL16:
 293              		.loc 1 286 48 view .LVU65
 294 0016 8379     		ldrb	r3, [r0, #6]	@ zero_extendqisi2
 295              	.LVL17:
 296              		.loc 1 286 48 view .LVU66
 297 0018 43F00103 		orr	r3, r3, #1
 298 001c 8371     		strb	r3, [r0, #6]
 287:lvgl/src/misc/lv_mem.c ****                 return LV_GC_ROOT(lv_mem_buf[i]).p;
 299              		.loc 1 287 17 is_stmt 1 view .LVU67
 300              		.loc 1 287 49 is_stmt 0 view .LVU68
 301 001e 52F83100 		ldr	r0, [r2, r1, lsl #3]
 302 0022 36E0     		b	.L32
 303              	.LVL18:
 304              	.L53:
 288:lvgl/src/misc/lv_mem.c ****             }
 289:lvgl/src/misc/lv_mem.c ****             else if(i_guess < 0) {
 290:lvgl/src/misc/lv_mem.c ****                 i_guess = i;
 305              		.loc 1 290 17 is_stmt 1 view .LVU69
 306              		.loc 1 290 25 is_stmt 0 view .LVU70
 307 0024 58B2     		sxtb	r0, r3
 308              	.LVL19:
 309              	.L35:
 283:lvgl/src/misc/lv_mem.c ****         if(LV_GC_ROOT(lv_mem_buf[i]).used == 0 && LV_GC_ROOT(lv_mem_buf[i]).size >= size) {
 310              		.loc 1 283 48 is_stmt 1 discriminator 2 view .LVU71
 283:lvgl/src/misc/lv_mem.c ****         if(LV_GC_ROOT(lv_mem_buf[i]).used == 0 && LV_GC_ROOT(lv_mem_buf[i]).size >= size) {
 311              		.loc 1 283 49 is_stmt 0 discriminator 2 view .LVU72
 312 0026 0133     		adds	r3, r3, #1
 313              	.LVL20:
 283:lvgl/src/misc/lv_mem.c ****         if(LV_GC_ROOT(lv_mem_buf[i]).used == 0 && LV_GC_ROOT(lv_mem_buf[i]).size >= size) {
 314              		.loc 1 283 49 discriminator 2 view .LVU73
 315 0028 DBB2     		uxtb	r3, r3
 316              	.LVL21:
 317              	.L34:
 283:lvgl/src/misc/lv_mem.c ****         if(LV_GC_ROOT(lv_mem_buf[i]).used == 0 && LV_GC_ROOT(lv_mem_buf[i]).size >= size) {
 318              		.loc 1 283 24 is_stmt 1 discriminator 1 view .LVU74
 283:lvgl/src/misc/lv_mem.c ****         if(LV_GC_ROOT(lv_mem_buf[i]).used == 0 && LV_GC_ROOT(lv_mem_buf[i]).size >= size) {
 319              		.loc 1 283 5 is_stmt 0 discriminator 1 view .LVU75
 320 002a 0F2B     		cmp	r3, #15
 321 002c 18D8     		bhi	.L51
 284:lvgl/src/misc/lv_mem.c ****             if(LV_GC_ROOT(lv_mem_buf[i]).size == size) {
 322              		.loc 1 284 9 is_stmt 1 view .LVU76
ARM GAS  C:\Users\OSD\AppData\Local\Temp\cc2Cqfsc.s 			page 12


 284:lvgl/src/misc/lv_mem.c ****             if(LV_GC_ROOT(lv_mem_buf[i]).size == size) {
 323              		.loc 1 284 37 is_stmt 0 view .LVU77
 324 002e 1946     		mov	r1, r3
 325 0030 234A     		ldr	r2, .L56
 326 0032 02EBC302 		add	r2, r2, r3, lsl #3
 327 0036 9279     		ldrb	r2, [r2, #6]	@ zero_extendqisi2
 284:lvgl/src/misc/lv_mem.c ****             if(LV_GC_ROOT(lv_mem_buf[i]).size == size) {
 328              		.loc 1 284 11 view .LVU78
 329 0038 12F0010F 		tst	r2, #1
 330 003c F3D1     		bne	.L35
 284:lvgl/src/misc/lv_mem.c ****             if(LV_GC_ROOT(lv_mem_buf[i]).size == size) {
 331              		.loc 1 284 76 discriminator 1 view .LVU79
 332 003e 204A     		ldr	r2, .L56
 333 0040 02EBC302 		add	r2, r2, r3, lsl #3
 334 0044 9288     		ldrh	r2, [r2, #4]
 284:lvgl/src/misc/lv_mem.c ****             if(LV_GC_ROOT(lv_mem_buf[i]).size == size) {
 335              		.loc 1 284 48 discriminator 1 view .LVU80
 336 0046 A242     		cmp	r2, r4
 337 0048 EDD3     		bcc	.L35
 285:lvgl/src/misc/lv_mem.c ****                 LV_GC_ROOT(lv_mem_buf[i]).used = 1;
 338              		.loc 1 285 13 is_stmt 1 view .LVU81
 285:lvgl/src/misc/lv_mem.c ****                 LV_GC_ROOT(lv_mem_buf[i]).used = 1;
 339              		.loc 1 285 15 is_stmt 0 view .LVU82
 340 004a E1D0     		beq	.L52
 289:lvgl/src/misc/lv_mem.c ****                 i_guess = i;
 341              		.loc 1 289 18 is_stmt 1 view .LVU83
 289:lvgl/src/misc/lv_mem.c ****                 i_guess = i;
 342              		.loc 1 289 20 is_stmt 0 view .LVU84
 343 004c 0028     		cmp	r0, #0
 344 004e E9DB     		blt	.L53
 291:lvgl/src/misc/lv_mem.c ****             }
 292:lvgl/src/misc/lv_mem.c ****             /*If size of `i` is closer to `size` prefer it*/
 293:lvgl/src/misc/lv_mem.c ****             else if(LV_GC_ROOT(lv_mem_buf[i]).size < LV_GC_ROOT(lv_mem_buf[i_guess]).size) {
 345              		.loc 1 293 18 is_stmt 1 view .LVU85
 346              		.loc 1 293 85 is_stmt 0 view .LVU86
 347 0050 1B49     		ldr	r1, .L56
 348 0052 01EBC001 		add	r1, r1, r0, lsl #3
 349 0056 8988     		ldrh	r1, [r1, #4]
 350              		.loc 1 293 20 view .LVU87
 351 0058 8A42     		cmp	r2, r1
 352 005a E4D2     		bcs	.L35
 294:lvgl/src/misc/lv_mem.c ****                 i_guess = i;
 353              		.loc 1 294 17 is_stmt 1 view .LVU88
 354              		.loc 1 294 25 is_stmt 0 view .LVU89
 355 005c 58B2     		sxtb	r0, r3
 356              	.LVL22:
 357              		.loc 1 294 25 view .LVU90
 358 005e E2E7     		b	.L35
 359              	.L51:
 360              		.loc 1 294 25 view .LVU91
 361              	.LBE3:
 295:lvgl/src/misc/lv_mem.c ****             }
 296:lvgl/src/misc/lv_mem.c ****         }
 297:lvgl/src/misc/lv_mem.c ****     }
 298:lvgl/src/misc/lv_mem.c **** 
 299:lvgl/src/misc/lv_mem.c ****     if(i_guess >= 0) {
 362              		.loc 1 299 5 is_stmt 1 view .LVU92
ARM GAS  C:\Users\OSD\AppData\Local\Temp\cc2Cqfsc.s 			page 13


 363              		.loc 1 299 7 is_stmt 0 view .LVU93
 364 0060 0028     		cmp	r0, #0
 365 0062 0DDA     		bge	.L54
 366              	.LBB4:
 300:lvgl/src/misc/lv_mem.c ****         LV_GC_ROOT(lv_mem_buf[i_guess]).used = 1;
 301:lvgl/src/misc/lv_mem.c ****         MEM_TRACE("returning already allocated buffer (buffer id: %d, address: %p)", i_guess,
 302:lvgl/src/misc/lv_mem.c ****                   LV_GC_ROOT(lv_mem_buf[i_guess]).p);
 303:lvgl/src/misc/lv_mem.c ****         return LV_GC_ROOT(lv_mem_buf[i_guess]).p;
 304:lvgl/src/misc/lv_mem.c ****     }
 305:lvgl/src/misc/lv_mem.c **** 
 306:lvgl/src/misc/lv_mem.c ****     /*Reallocate a free buffer*/
 307:lvgl/src/misc/lv_mem.c ****     for(uint8_t i = 0; i < LV_MEM_BUF_MAX_NUM; i++) {
 367              		.loc 1 307 17 view .LVU94
 368 0064 0023     		movs	r3, #0
 369              	.LVL23:
 370              	.L39:
 371              		.loc 1 307 24 is_stmt 1 discriminator 1 view .LVU95
 372              		.loc 1 307 5 is_stmt 0 discriminator 1 view .LVU96
 373 0066 0F2B     		cmp	r3, #15
 374 0068 27D8     		bhi	.L44
 308:lvgl/src/misc/lv_mem.c ****         if(LV_GC_ROOT(lv_mem_buf[i]).used == 0) {
 375              		.loc 1 308 9 is_stmt 1 view .LVU97
 376              		.loc 1 308 37 is_stmt 0 view .LVU98
 377 006a 1D46     		mov	r5, r3
 378 006c 144A     		ldr	r2, .L56
 379 006e 02EBC302 		add	r2, r2, r3, lsl #3
 380 0072 9279     		ldrb	r2, [r2, #6]	@ zero_extendqisi2
 381              		.loc 1 308 11 view .LVU99
 382 0074 12F0010F 		tst	r2, #1
 383 0078 0CD0     		beq	.L55
 307:lvgl/src/misc/lv_mem.c ****         if(LV_GC_ROOT(lv_mem_buf[i]).used == 0) {
 384              		.loc 1 307 48 is_stmt 1 discriminator 2 view .LVU100
 307:lvgl/src/misc/lv_mem.c ****         if(LV_GC_ROOT(lv_mem_buf[i]).used == 0) {
 385              		.loc 1 307 49 is_stmt 0 discriminator 2 view .LVU101
 386 007a 0133     		adds	r3, r3, #1
 387              	.LVL24:
 307:lvgl/src/misc/lv_mem.c ****         if(LV_GC_ROOT(lv_mem_buf[i]).used == 0) {
 388              		.loc 1 307 49 discriminator 2 view .LVU102
 389 007c DBB2     		uxtb	r3, r3
 390              	.LVL25:
 307:lvgl/src/misc/lv_mem.c ****         if(LV_GC_ROOT(lv_mem_buf[i]).used == 0) {
 391              		.loc 1 307 49 discriminator 2 view .LVU103
 392 007e F2E7     		b	.L39
 393              	.LVL26:
 394              	.L54:
 307:lvgl/src/misc/lv_mem.c ****         if(LV_GC_ROOT(lv_mem_buf[i]).used == 0) {
 395              		.loc 1 307 49 discriminator 2 view .LVU104
 396              	.LBE4:
 300:lvgl/src/misc/lv_mem.c ****         LV_GC_ROOT(lv_mem_buf[i_guess]).used = 1;
 397              		.loc 1 300 9 is_stmt 1 view .LVU105
 300:lvgl/src/misc/lv_mem.c ****         LV_GC_ROOT(lv_mem_buf[i_guess]).used = 1;
 398              		.loc 1 300 46 is_stmt 0 view .LVU106
 399 0080 0F4A     		ldr	r2, .L56
 400 0082 02EBC001 		add	r1, r2, r0, lsl #3
 401 0086 8B79     		ldrb	r3, [r1, #6]	@ zero_extendqisi2
 402              	.LVL27:
 300:lvgl/src/misc/lv_mem.c ****         LV_GC_ROOT(lv_mem_buf[i_guess]).used = 1;
ARM GAS  C:\Users\OSD\AppData\Local\Temp\cc2Cqfsc.s 			page 14


 403              		.loc 1 300 46 view .LVU107
 404 0088 43F00103 		orr	r3, r3, #1
 405 008c 8B71     		strb	r3, [r1, #6]
 302:lvgl/src/misc/lv_mem.c ****         return LV_GC_ROOT(lv_mem_buf[i_guess]).p;
 406              		.loc 1 302 53 is_stmt 1 view .LVU108
 303:lvgl/src/misc/lv_mem.c ****     }
 407              		.loc 1 303 9 view .LVU109
 303:lvgl/src/misc/lv_mem.c ****     }
 408              		.loc 1 303 47 is_stmt 0 view .LVU110
 409 008e 52F83000 		ldr	r0, [r2, r0, lsl #3]
 410              	.LVL28:
 411              	.L32:
 309:lvgl/src/misc/lv_mem.c ****             /*if this fails you probably need to increase your LV_MEM_SIZE/heap size*/
 310:lvgl/src/misc/lv_mem.c ****             void * buf = lv_mem_realloc(LV_GC_ROOT(lv_mem_buf[i]).p, size);
 311:lvgl/src/misc/lv_mem.c ****             LV_ASSERT_MSG(buf != NULL, "Out of memory, can't allocate a new buffer (increase your L
 312:lvgl/src/misc/lv_mem.c ****             if(buf == NULL) return NULL;
 313:lvgl/src/misc/lv_mem.c **** 
 314:lvgl/src/misc/lv_mem.c ****             LV_GC_ROOT(lv_mem_buf[i]).used = 1;
 315:lvgl/src/misc/lv_mem.c ****             LV_GC_ROOT(lv_mem_buf[i]).size = size;
 316:lvgl/src/misc/lv_mem.c ****             LV_GC_ROOT(lv_mem_buf[i]).p    = buf;
 317:lvgl/src/misc/lv_mem.c ****             MEM_TRACE("allocated (buffer id: %d, address: %p)", i, LV_GC_ROOT(lv_mem_buf[i]).p);
 318:lvgl/src/misc/lv_mem.c ****             return LV_GC_ROOT(lv_mem_buf[i]).p;
 319:lvgl/src/misc/lv_mem.c ****         }
 320:lvgl/src/misc/lv_mem.c ****     }
 321:lvgl/src/misc/lv_mem.c **** 
 322:lvgl/src/misc/lv_mem.c ****     LV_LOG_ERROR("no more buffers. (increase LV_MEM_BUF_MAX_NUM)");
 323:lvgl/src/misc/lv_mem.c ****     LV_ASSERT_MSG(false, "No more buffers. Increase LV_MEM_BUF_MAX_NUM.");
 324:lvgl/src/misc/lv_mem.c ****     return NULL;
 325:lvgl/src/misc/lv_mem.c **** }
 412              		.loc 1 325 1 view .LVU111
 413 0092 38BD     		pop	{r3, r4, r5, pc}
 414              	.LVL29:
 415              	.L55:
 416              	.LBB6:
 417              	.LBB5:
 310:lvgl/src/misc/lv_mem.c ****             LV_ASSERT_MSG(buf != NULL, "Out of memory, can't allocate a new buffer (increase your L
 418              		.loc 1 310 13 is_stmt 1 view .LVU112
 310:lvgl/src/misc/lv_mem.c ****             LV_ASSERT_MSG(buf != NULL, "Out of memory, can't allocate a new buffer (increase your L
 419              		.loc 1 310 26 is_stmt 0 view .LVU113
 420 0094 2146     		mov	r1, r4
 421 0096 0A4B     		ldr	r3, .L56
 422              	.LVL30:
 310:lvgl/src/misc/lv_mem.c ****             LV_ASSERT_MSG(buf != NULL, "Out of memory, can't allocate a new buffer (increase your L
 423              		.loc 1 310 26 view .LVU114
 424 0098 53F83500 		ldr	r0, [r3, r5, lsl #3]
 425              	.LVL31:
 310:lvgl/src/misc/lv_mem.c ****             LV_ASSERT_MSG(buf != NULL, "Out of memory, can't allocate a new buffer (increase your L
 426              		.loc 1 310 26 view .LVU115
 427 009c FFF7FEFF 		bl	lv_mem_realloc
 428              	.LVL32:
 311:lvgl/src/misc/lv_mem.c ****             if(buf == NULL) return NULL;
 429              		.loc 1 311 13 is_stmt 1 view .LVU116
 311:lvgl/src/misc/lv_mem.c ****             if(buf == NULL) return NULL;
 430              		.loc 1 311 13 view .LVU117
 431 00a0 50B1     		cbz	r0, .L42
 311:lvgl/src/misc/lv_mem.c ****             if(buf == NULL) return NULL;
 432              		.loc 1 311 13 view .LVU118
ARM GAS  C:\Users\OSD\AppData\Local\Temp\cc2Cqfsc.s 			page 15


 312:lvgl/src/misc/lv_mem.c **** 
 433              		.loc 1 312 13 view .LVU119
 314:lvgl/src/misc/lv_mem.c ****             LV_GC_ROOT(lv_mem_buf[i]).size = size;
 434              		.loc 1 314 13 view .LVU120
 314:lvgl/src/misc/lv_mem.c ****             LV_GC_ROOT(lv_mem_buf[i]).size = size;
 435              		.loc 1 314 44 is_stmt 0 view .LVU121
 436 00a2 0749     		ldr	r1, .L56
 437 00a4 01EBC503 		add	r3, r1, r5, lsl #3
 438 00a8 9A79     		ldrb	r2, [r3, #6]	@ zero_extendqisi2
 439 00aa 42F00102 		orr	r2, r2, #1
 440 00ae 9A71     		strb	r2, [r3, #6]
 315:lvgl/src/misc/lv_mem.c ****             LV_GC_ROOT(lv_mem_buf[i]).p    = buf;
 441              		.loc 1 315 13 is_stmt 1 view .LVU122
 315:lvgl/src/misc/lv_mem.c ****             LV_GC_ROOT(lv_mem_buf[i]).p    = buf;
 442              		.loc 1 315 44 is_stmt 0 view .LVU123
 443 00b0 9C80     		strh	r4, [r3, #4]	@ movhi
 316:lvgl/src/misc/lv_mem.c ****             MEM_TRACE("allocated (buffer id: %d, address: %p)", i, LV_GC_ROOT(lv_mem_buf[i]).p);
 444              		.loc 1 316 13 is_stmt 1 view .LVU124
 316:lvgl/src/misc/lv_mem.c ****             MEM_TRACE("allocated (buffer id: %d, address: %p)", i, LV_GC_ROOT(lv_mem_buf[i]).p);
 445              		.loc 1 316 44 is_stmt 0 view .LVU125
 446 00b2 41F83500 		str	r0, [r1, r5, lsl #3]
 317:lvgl/src/misc/lv_mem.c ****             return LV_GC_ROOT(lv_mem_buf[i]).p;
 447              		.loc 1 317 96 is_stmt 1 view .LVU126
 318:lvgl/src/misc/lv_mem.c ****         }
 448              		.loc 1 318 13 view .LVU127
 318:lvgl/src/misc/lv_mem.c ****         }
 449              		.loc 1 318 45 is_stmt 0 view .LVU128
 450 00b6 ECE7     		b	.L32
 451              	.L42:
 311:lvgl/src/misc/lv_mem.c ****             if(buf == NULL) return NULL;
 452              		.loc 1 311 13 is_stmt 1 discriminator 1 view .LVU129
 311:lvgl/src/misc/lv_mem.c ****             if(buf == NULL) return NULL;
 453              		.loc 1 311 13 discriminator 1 view .LVU130
 311:lvgl/src/misc/lv_mem.c ****             if(buf == NULL) return NULL;
 454              		.loc 1 311 13 discriminator 1 view .LVU131
 311:lvgl/src/misc/lv_mem.c ****             if(buf == NULL) return NULL;
 455              		.loc 1 311 13 discriminator 1 view .LVU132
 311:lvgl/src/misc/lv_mem.c ****             if(buf == NULL) return NULL;
 456              		.loc 1 311 13 discriminator 1 view .LVU133
 311:lvgl/src/misc/lv_mem.c ****             if(buf == NULL) return NULL;
 457              		.loc 1 311 13 discriminator 1 view .LVU134
 458 00b8 FEE7     		b	.L42
 459              	.LVL33:
 460              	.L44:
 311:lvgl/src/misc/lv_mem.c ****             if(buf == NULL) return NULL;
 461              		.loc 1 311 13 is_stmt 0 discriminator 1 view .LVU135
 462              	.LBE5:
 463              	.LBE6:
 323:lvgl/src/misc/lv_mem.c ****     return NULL;
 464              		.loc 1 323 5 is_stmt 1 discriminator 2 view .LVU136
 323:lvgl/src/misc/lv_mem.c ****     return NULL;
 465              		.loc 1 323 5 discriminator 2 view .LVU137
 323:lvgl/src/misc/lv_mem.c ****     return NULL;
 466              		.loc 1 323 5 discriminator 2 view .LVU138
 323:lvgl/src/misc/lv_mem.c ****     return NULL;
 467              		.loc 1 323 5 discriminator 2 view .LVU139
 323:lvgl/src/misc/lv_mem.c ****     return NULL;
ARM GAS  C:\Users\OSD\AppData\Local\Temp\cc2Cqfsc.s 			page 16


 468              		.loc 1 323 5 discriminator 2 view .LVU140
 323:lvgl/src/misc/lv_mem.c ****     return NULL;
 469              		.loc 1 323 5 discriminator 2 view .LVU141
 470 00ba FEE7     		b	.L44
 471              	.LVL34:
 472              	.L45:
 473              		.cfi_def_cfa_offset 0
 474              		.cfi_restore 3
 475              		.cfi_restore 4
 476              		.cfi_restore 5
 477              		.cfi_restore 14
 277:lvgl/src/misc/lv_mem.c **** 
 478              		.loc 1 277 26 is_stmt 0 view .LVU142
 479 00bc 0020     		movs	r0, #0
 480              	.LVL35:
 481              		.loc 1 325 1 view .LVU143
 482 00be 7047     		bx	lr
 483              	.L57:
 484              		.align	2
 485              	.L56:
 486 00c0 00000000 		.word	lv_mem_buf
 487              		.cfi_endproc
 488              	.LFE31:
 490              		.section	.text.lv_mem_buf_release,"ax",%progbits
 491              		.align	1
 492              		.global	lv_mem_buf_release
 493              		.syntax unified
 494              		.thumb
 495              		.thumb_func
 497              	lv_mem_buf_release:
 498              	.LVL36:
 499              	.LFB32:
 326:lvgl/src/misc/lv_mem.c **** 
 327:lvgl/src/misc/lv_mem.c **** /**
 328:lvgl/src/misc/lv_mem.c ****  * Release a memory buffer
 329:lvgl/src/misc/lv_mem.c ****  * @param p buffer to release
 330:lvgl/src/misc/lv_mem.c ****  */
 331:lvgl/src/misc/lv_mem.c **** void lv_mem_buf_release(void * p)
 332:lvgl/src/misc/lv_mem.c **** {
 500              		.loc 1 332 1 is_stmt 1 view -0
 501              		.cfi_startproc
 502              		@ args = 0, pretend = 0, frame = 0
 503              		@ frame_needed = 0, uses_anonymous_args = 0
 504              		@ link register save eliminated.
 333:lvgl/src/misc/lv_mem.c ****     MEM_TRACE("begin (address: %p)", p);
 505              		.loc 1 333 40 view .LVU145
 334:lvgl/src/misc/lv_mem.c **** 
 335:lvgl/src/misc/lv_mem.c ****     for(uint8_t i = 0; i < LV_MEM_BUF_MAX_NUM; i++) {
 506              		.loc 1 335 5 view .LVU146
 507              	.LBB7:
 508              		.loc 1 335 9 view .LVU147
 509              		.loc 1 335 17 is_stmt 0 view .LVU148
 510 0000 0023     		movs	r3, #0
 511              	.LVL37:
 512              	.L59:
 513              		.loc 1 335 24 is_stmt 1 discriminator 1 view .LVU149
 514              		.loc 1 335 5 is_stmt 0 discriminator 1 view .LVU150
ARM GAS  C:\Users\OSD\AppData\Local\Temp\cc2Cqfsc.s 			page 17


 515 0002 0F2B     		cmp	r3, #15
 516 0004 10D8     		bhi	.L63
 336:lvgl/src/misc/lv_mem.c ****         if(LV_GC_ROOT(lv_mem_buf[i]).p == p) {
 517              		.loc 1 336 9 is_stmt 1 view .LVU151
 518              		.loc 1 336 37 is_stmt 0 view .LVU152
 519 0006 1946     		mov	r1, r3
 520 0008 084A     		ldr	r2, .L65
 521 000a 52F83320 		ldr	r2, [r2, r3, lsl #3]
 522              		.loc 1 336 11 view .LVU153
 523 000e 8242     		cmp	r2, r0
 524 0010 02D0     		beq	.L64
 335:lvgl/src/misc/lv_mem.c ****         if(LV_GC_ROOT(lv_mem_buf[i]).p == p) {
 525              		.loc 1 335 48 is_stmt 1 discriminator 2 view .LVU154
 335:lvgl/src/misc/lv_mem.c ****         if(LV_GC_ROOT(lv_mem_buf[i]).p == p) {
 526              		.loc 1 335 49 is_stmt 0 discriminator 2 view .LVU155
 527 0012 0133     		adds	r3, r3, #1
 528              	.LVL38:
 335:lvgl/src/misc/lv_mem.c ****         if(LV_GC_ROOT(lv_mem_buf[i]).p == p) {
 529              		.loc 1 335 49 discriminator 2 view .LVU156
 530 0014 DBB2     		uxtb	r3, r3
 531              	.LVL39:
 335:lvgl/src/misc/lv_mem.c ****         if(LV_GC_ROOT(lv_mem_buf[i]).p == p) {
 532              		.loc 1 335 49 discriminator 2 view .LVU157
 533 0016 F4E7     		b	.L59
 534              	.L64:
 337:lvgl/src/misc/lv_mem.c ****             LV_GC_ROOT(lv_mem_buf[i]).used = 0;
 535              		.loc 1 337 13 is_stmt 1 view .LVU158
 536              		.loc 1 337 44 is_stmt 0 view .LVU159
 537 0018 044B     		ldr	r3, .L65
 538              	.LVL40:
 539              		.loc 1 337 44 view .LVU160
 540 001a 03EBC101 		add	r1, r3, r1, lsl #3
 541 001e 8B79     		ldrb	r3, [r1, #6]	@ zero_extendqisi2
 542 0020 6FF30003 		bfc	r3, #0, #1
 543 0024 8B71     		strb	r3, [r1, #6]
 338:lvgl/src/misc/lv_mem.c ****             return;
 544              		.loc 1 338 13 is_stmt 1 view .LVU161
 545 0026 7047     		bx	lr
 546              	.LVL41:
 547              	.L63:
 548              		.loc 1 338 13 is_stmt 0 view .LVU162
 549              	.LBE7:
 339:lvgl/src/misc/lv_mem.c ****         }
 340:lvgl/src/misc/lv_mem.c ****     }
 341:lvgl/src/misc/lv_mem.c **** 
 342:lvgl/src/misc/lv_mem.c ****     LV_LOG_ERROR("p is not a known buffer");
 343:lvgl/src/misc/lv_mem.c **** }
 550              		.loc 1 343 1 view .LVU163
 551 0028 7047     		bx	lr
 552              	.L66:
 553 002a 00BF     		.align	2
 554              	.L65:
 555 002c 00000000 		.word	lv_mem_buf
 556              		.cfi_endproc
 557              	.LFE32:
 559              		.section	.text.lv_mem_buf_free_all,"ax",%progbits
 560              		.align	1
ARM GAS  C:\Users\OSD\AppData\Local\Temp\cc2Cqfsc.s 			page 18


 561              		.global	lv_mem_buf_free_all
 562              		.syntax unified
 563              		.thumb
 564              		.thumb_func
 566              	lv_mem_buf_free_all:
 567              	.LFB33:
 344:lvgl/src/misc/lv_mem.c **** 
 345:lvgl/src/misc/lv_mem.c **** /**
 346:lvgl/src/misc/lv_mem.c ****  * Free all memory buffers
 347:lvgl/src/misc/lv_mem.c ****  */
 348:lvgl/src/misc/lv_mem.c **** void lv_mem_buf_free_all(void)
 349:lvgl/src/misc/lv_mem.c **** {
 568              		.loc 1 349 1 is_stmt 1 view -0
 569              		.cfi_startproc
 570              		@ args = 0, pretend = 0, frame = 0
 571              		@ frame_needed = 0, uses_anonymous_args = 0
 572 0000 10B5     		push	{r4, lr}
 573              		.cfi_def_cfa_offset 8
 574              		.cfi_offset 4, -8
 575              		.cfi_offset 14, -4
 350:lvgl/src/misc/lv_mem.c ****     for(uint8_t i = 0; i < LV_MEM_BUF_MAX_NUM; i++) {
 576              		.loc 1 350 5 view .LVU165
 577              	.LBB8:
 578              		.loc 1 350 9 view .LVU166
 579              	.LVL42:
 580              		.loc 1 350 17 is_stmt 0 view .LVU167
 581 0002 0024     		movs	r4, #0
 582              		.loc 1 350 5 view .LVU168
 583 0004 01E0     		b	.L68
 584              	.LVL43:
 585              	.L69:
 586              		.loc 1 350 48 is_stmt 1 discriminator 2 view .LVU169
 587              		.loc 1 350 49 is_stmt 0 discriminator 2 view .LVU170
 588 0006 0134     		adds	r4, r4, #1
 589              	.LVL44:
 590              		.loc 1 350 49 discriminator 2 view .LVU171
 591 0008 E4B2     		uxtb	r4, r4
 592              	.LVL45:
 593              	.L68:
 594              		.loc 1 350 24 is_stmt 1 discriminator 1 view .LVU172
 595              		.loc 1 350 5 is_stmt 0 discriminator 1 view .LVU173
 596 000a 0F2C     		cmp	r4, #15
 597 000c 12D8     		bhi	.L72
 351:lvgl/src/misc/lv_mem.c ****         if(LV_GC_ROOT(lv_mem_buf[i]).p) {
 598              		.loc 1 351 9 is_stmt 1 view .LVU174
 599              		.loc 1 351 37 is_stmt 0 view .LVU175
 600 000e 0A4B     		ldr	r3, .L73
 601 0010 53F83400 		ldr	r0, [r3, r4, lsl #3]
 602              		.loc 1 351 11 view .LVU176
 603 0014 0028     		cmp	r0, #0
 604 0016 F6D0     		beq	.L69
 352:lvgl/src/misc/lv_mem.c ****             lv_mem_free(LV_GC_ROOT(lv_mem_buf[i]).p);
 605              		.loc 1 352 13 is_stmt 1 view .LVU177
 606 0018 FFF7FEFF 		bl	lv_mem_free
 607              	.LVL46:
 353:lvgl/src/misc/lv_mem.c ****             LV_GC_ROOT(lv_mem_buf[i]).p = NULL;
 608              		.loc 1 353 13 view .LVU178
ARM GAS  C:\Users\OSD\AppData\Local\Temp\cc2Cqfsc.s 			page 19


 609              		.loc 1 353 41 is_stmt 0 view .LVU179
 610 001c 064B     		ldr	r3, .L73
 611 001e 0022     		movs	r2, #0
 612 0020 43F83420 		str	r2, [r3, r4, lsl #3]
 354:lvgl/src/misc/lv_mem.c ****             LV_GC_ROOT(lv_mem_buf[i]).used = 0;
 613              		.loc 1 354 13 is_stmt 1 view .LVU180
 614              		.loc 1 354 44 is_stmt 0 view .LVU181
 615 0024 03EBC403 		add	r3, r3, r4, lsl #3
 616 0028 9979     		ldrb	r1, [r3, #6]	@ zero_extendqisi2
 617 002a 62F30001 		bfi	r1, r2, #0, #1
 618 002e 9971     		strb	r1, [r3, #6]
 355:lvgl/src/misc/lv_mem.c ****             LV_GC_ROOT(lv_mem_buf[i]).size = 0;
 619              		.loc 1 355 13 is_stmt 1 view .LVU182
 620              		.loc 1 355 44 is_stmt 0 view .LVU183
 621 0030 9A80     		strh	r2, [r3, #4]	@ movhi
 622 0032 E8E7     		b	.L69
 623              	.L72:
 624              	.LBE8:
 356:lvgl/src/misc/lv_mem.c ****         }
 357:lvgl/src/misc/lv_mem.c ****     }
 358:lvgl/src/misc/lv_mem.c **** }
 625              		.loc 1 358 1 view .LVU184
 626 0034 10BD     		pop	{r4, pc}
 627              	.LVL47:
 628              	.L74:
 629              		.loc 1 358 1 view .LVU185
 630 0036 00BF     		.align	2
 631              	.L73:
 632 0038 00000000 		.word	lv_mem_buf
 633              		.cfi_endproc
 634              	.LFE33:
 636              		.section	.text.lv_memcpy,"ax",%progbits
 637              		.align	1
 638              		.global	lv_memcpy
 639              		.syntax unified
 640              		.thumb
 641              		.thumb_func
 643              	lv_memcpy:
 644              	.LVL48:
 645              	.LFB34:
 359:lvgl/src/misc/lv_mem.c **** 
 360:lvgl/src/misc/lv_mem.c **** #if LV_MEMCPY_MEMSET_STD == 0
 361:lvgl/src/misc/lv_mem.c **** /**
 362:lvgl/src/misc/lv_mem.c ****  * Same as `memcpy` but optimized for 4 byte operation.
 363:lvgl/src/misc/lv_mem.c ****  * @param dst pointer to the destination buffer
 364:lvgl/src/misc/lv_mem.c ****  * @param src pointer to the source buffer
 365:lvgl/src/misc/lv_mem.c ****  * @param len number of byte to copy
 366:lvgl/src/misc/lv_mem.c ****  */
 367:lvgl/src/misc/lv_mem.c **** void * LV_ATTRIBUTE_FAST_MEM lv_memcpy(void * dst, const void * src, size_t len)
 368:lvgl/src/misc/lv_mem.c **** {
 646              		.loc 1 368 1 is_stmt 1 view -0
 647              		.cfi_startproc
 648              		@ args = 0, pretend = 0, frame = 0
 649              		@ frame_needed = 0, uses_anonymous_args = 0
 650              		@ link register save eliminated.
 651              		.loc 1 368 1 is_stmt 0 view .LVU187
 652 0000 10B4     		push	{r4}
ARM GAS  C:\Users\OSD\AppData\Local\Temp\cc2Cqfsc.s 			page 20


 653              		.cfi_def_cfa_offset 4
 654              		.cfi_offset 4, -4
 369:lvgl/src/misc/lv_mem.c ****     uint8_t * d8 = dst;
 655              		.loc 1 369 5 is_stmt 1 view .LVU188
 656              	.LVL49:
 370:lvgl/src/misc/lv_mem.c ****     const uint8_t * s8 = src;
 657              		.loc 1 370 5 view .LVU189
 371:lvgl/src/misc/lv_mem.c **** 
 372:lvgl/src/misc/lv_mem.c ****     lv_uintptr_t d_align = (lv_uintptr_t)d8 & ALIGN_MASK;
 658              		.loc 1 372 5 view .LVU190
 659              		.loc 1 372 18 is_stmt 0 view .LVU191
 660 0002 00F00303 		and	r3, r0, #3
 661              	.LVL50:
 373:lvgl/src/misc/lv_mem.c ****     lv_uintptr_t s_align = (lv_uintptr_t)s8 & ALIGN_MASK;
 662              		.loc 1 373 5 is_stmt 1 view .LVU192
 663              		.loc 1 373 18 is_stmt 0 view .LVU193
 664 0006 01F00304 		and	r4, r1, #3
 665              	.LVL51:
 374:lvgl/src/misc/lv_mem.c **** 
 375:lvgl/src/misc/lv_mem.c ****     /*Byte copy for unaligned memories*/
 376:lvgl/src/misc/lv_mem.c ****     if(s_align != d_align) {
 666              		.loc 1 376 5 is_stmt 1 view .LVU194
 667              		.loc 1 376 7 is_stmt 0 view .LVU195
 668 000a A342     		cmp	r3, r4
 669 000c 40F09B80 		bne	.L91
 377:lvgl/src/misc/lv_mem.c ****         while(len > 32) {
 378:lvgl/src/misc/lv_mem.c ****             REPEAT8(COPY8);
 379:lvgl/src/misc/lv_mem.c ****             REPEAT8(COPY8);
 380:lvgl/src/misc/lv_mem.c ****             REPEAT8(COPY8);
 381:lvgl/src/misc/lv_mem.c ****             REPEAT8(COPY8);
 382:lvgl/src/misc/lv_mem.c ****             len -= 32;
 383:lvgl/src/misc/lv_mem.c ****         }
 384:lvgl/src/misc/lv_mem.c ****         while(len) {
 385:lvgl/src/misc/lv_mem.c ****             COPY8
 386:lvgl/src/misc/lv_mem.c ****             len--;
 387:lvgl/src/misc/lv_mem.c ****         }
 388:lvgl/src/misc/lv_mem.c ****         return dst;
 389:lvgl/src/misc/lv_mem.c ****     }
 390:lvgl/src/misc/lv_mem.c **** 
 391:lvgl/src/misc/lv_mem.c ****     /*Make the memories aligned*/
 392:lvgl/src/misc/lv_mem.c ****     if(d_align) {
 670              		.loc 1 392 5 is_stmt 1 view .LVU196
 671              		.loc 1 392 7 is_stmt 0 view .LVU197
 672 0010 002B     		cmp	r3, #0
 673 0012 00F0BA80 		beq	.L92
 393:lvgl/src/misc/lv_mem.c ****         d_align = ALIGN_MASK + 1 - d_align;
 674              		.loc 1 393 9 is_stmt 1 view .LVU198
 675              		.loc 1 393 17 is_stmt 0 view .LVU199
 676 0016 C3F1040C 		rsb	ip, r3, #4
 677              	.LVL52:
 394:lvgl/src/misc/lv_mem.c ****         while(d_align && len) {
 678              		.loc 1 394 9 is_stmt 1 view .LVU200
 369:lvgl/src/misc/lv_mem.c ****     const uint8_t * s8 = src;
 679              		.loc 1 369 15 is_stmt 0 view .LVU201
 680 001a 0346     		mov	r3, r0
 681              	.LVL53:
 682              	.L83:
ARM GAS  C:\Users\OSD\AppData\Local\Temp\cc2Cqfsc.s 			page 21


 683              		.loc 1 394 14 is_stmt 1 view .LVU202
 684 001c BCF1000F 		cmp	ip, #0
 685 0020 18BF     		it	ne
 686 0022 002A     		cmpne	r2, #0
 687 0024 00F0AE80 		beq	.L85
 395:lvgl/src/misc/lv_mem.c ****             COPY8;
 688              		.loc 1 395 13 view .LVU203
 689 0028 11F8014B 		ldrb	r4, [r1], #1	@ zero_extendqisi2
 690              	.LVL54:
 691              		.loc 1 395 13 is_stmt 0 view .LVU204
 692 002c 03F8014B 		strb	r4, [r3], #1
 693              	.LVL55:
 694              		.loc 1 395 13 is_stmt 1 view .LVU205
 695              		.loc 1 395 13 view .LVU206
 696              		.loc 1 395 18 view .LVU207
 396:lvgl/src/misc/lv_mem.c ****             d_align--;
 697              		.loc 1 396 13 view .LVU208
 698              		.loc 1 396 20 is_stmt 0 view .LVU209
 699 0030 0CF1FF3C 		add	ip, ip, #-1
 700              	.LVL56:
 397:lvgl/src/misc/lv_mem.c ****             len--;
 701              		.loc 1 397 13 is_stmt 1 view .LVU210
 702              		.loc 1 397 16 is_stmt 0 view .LVU211
 703 0034 013A     		subs	r2, r2, #1
 704              	.LVL57:
 705              		.loc 1 397 16 view .LVU212
 706 0036 F1E7     		b	.L83
 707              	.LVL58:
 708              	.L78:
 378:lvgl/src/misc/lv_mem.c ****             REPEAT8(COPY8);
 709              		.loc 1 378 13 is_stmt 1 view .LVU213
 710 0038 91F800C0 		ldrb	ip, [r1]	@ zero_extendqisi2
 711 003c 83F800C0 		strb	ip, [r3]
 378:lvgl/src/misc/lv_mem.c ****             REPEAT8(COPY8);
 712              		.loc 1 378 13 view .LVU214
 713              	.LVL59:
 378:lvgl/src/misc/lv_mem.c ****             REPEAT8(COPY8);
 714              		.loc 1 378 13 view .LVU215
 378:lvgl/src/misc/lv_mem.c ****             REPEAT8(COPY8);
 715              		.loc 1 378 13 view .LVU216
 716 0040 91F801C0 		ldrb	ip, [r1, #1]	@ zero_extendqisi2
 717 0044 83F801C0 		strb	ip, [r3, #1]
 378:lvgl/src/misc/lv_mem.c ****             REPEAT8(COPY8);
 718              		.loc 1 378 13 view .LVU217
 719              	.LVL60:
 378:lvgl/src/misc/lv_mem.c ****             REPEAT8(COPY8);
 720              		.loc 1 378 13 view .LVU218
 378:lvgl/src/misc/lv_mem.c ****             REPEAT8(COPY8);
 721              		.loc 1 378 13 view .LVU219
 722 0048 91F802C0 		ldrb	ip, [r1, #2]	@ zero_extendqisi2
 723 004c 83F802C0 		strb	ip, [r3, #2]
 378:lvgl/src/misc/lv_mem.c ****             REPEAT8(COPY8);
 724              		.loc 1 378 13 view .LVU220
 725              	.LVL61:
 378:lvgl/src/misc/lv_mem.c ****             REPEAT8(COPY8);
 726              		.loc 1 378 13 view .LVU221
 378:lvgl/src/misc/lv_mem.c ****             REPEAT8(COPY8);
ARM GAS  C:\Users\OSD\AppData\Local\Temp\cc2Cqfsc.s 			page 22


 727              		.loc 1 378 13 view .LVU222
 728 0050 91F803C0 		ldrb	ip, [r1, #3]	@ zero_extendqisi2
 729 0054 83F803C0 		strb	ip, [r3, #3]
 378:lvgl/src/misc/lv_mem.c ****             REPEAT8(COPY8);
 730              		.loc 1 378 13 view .LVU223
 731              	.LVL62:
 378:lvgl/src/misc/lv_mem.c ****             REPEAT8(COPY8);
 732              		.loc 1 378 13 view .LVU224
 378:lvgl/src/misc/lv_mem.c ****             REPEAT8(COPY8);
 733              		.loc 1 378 13 view .LVU225
 734 0058 91F804C0 		ldrb	ip, [r1, #4]	@ zero_extendqisi2
 735 005c 83F804C0 		strb	ip, [r3, #4]
 378:lvgl/src/misc/lv_mem.c ****             REPEAT8(COPY8);
 736              		.loc 1 378 13 view .LVU226
 737              	.LVL63:
 378:lvgl/src/misc/lv_mem.c ****             REPEAT8(COPY8);
 738              		.loc 1 378 13 view .LVU227
 378:lvgl/src/misc/lv_mem.c ****             REPEAT8(COPY8);
 739              		.loc 1 378 13 view .LVU228
 740 0060 91F805C0 		ldrb	ip, [r1, #5]	@ zero_extendqisi2
 741 0064 83F805C0 		strb	ip, [r3, #5]
 378:lvgl/src/misc/lv_mem.c ****             REPEAT8(COPY8);
 742              		.loc 1 378 13 view .LVU229
 743              	.LVL64:
 378:lvgl/src/misc/lv_mem.c ****             REPEAT8(COPY8);
 744              		.loc 1 378 13 view .LVU230
 378:lvgl/src/misc/lv_mem.c ****             REPEAT8(COPY8);
 745              		.loc 1 378 13 view .LVU231
 746 0068 91F806C0 		ldrb	ip, [r1, #6]	@ zero_extendqisi2
 747 006c 83F806C0 		strb	ip, [r3, #6]
 378:lvgl/src/misc/lv_mem.c ****             REPEAT8(COPY8);
 748              		.loc 1 378 13 view .LVU232
 749              	.LVL65:
 378:lvgl/src/misc/lv_mem.c ****             REPEAT8(COPY8);
 750              		.loc 1 378 13 view .LVU233
 378:lvgl/src/misc/lv_mem.c ****             REPEAT8(COPY8);
 751              		.loc 1 378 13 view .LVU234
 752 0070 91F807C0 		ldrb	ip, [r1, #7]	@ zero_extendqisi2
 753 0074 83F807C0 		strb	ip, [r3, #7]
 378:lvgl/src/misc/lv_mem.c ****             REPEAT8(COPY8);
 754              		.loc 1 378 13 view .LVU235
 755              	.LVL66:
 378:lvgl/src/misc/lv_mem.c ****             REPEAT8(COPY8);
 756              		.loc 1 378 13 view .LVU236
 378:lvgl/src/misc/lv_mem.c ****             REPEAT8(COPY8);
 757              		.loc 1 378 27 view .LVU237
 379:lvgl/src/misc/lv_mem.c ****             REPEAT8(COPY8);
 758              		.loc 1 379 13 view .LVU238
 759 0078 91F808C0 		ldrb	ip, [r1, #8]	@ zero_extendqisi2
 760 007c 83F808C0 		strb	ip, [r3, #8]
 379:lvgl/src/misc/lv_mem.c ****             REPEAT8(COPY8);
 761              		.loc 1 379 13 view .LVU239
 762              	.LVL67:
 379:lvgl/src/misc/lv_mem.c ****             REPEAT8(COPY8);
 763              		.loc 1 379 13 view .LVU240
 379:lvgl/src/misc/lv_mem.c ****             REPEAT8(COPY8);
 764              		.loc 1 379 13 view .LVU241
ARM GAS  C:\Users\OSD\AppData\Local\Temp\cc2Cqfsc.s 			page 23


 765 0080 91F809C0 		ldrb	ip, [r1, #9]	@ zero_extendqisi2
 766 0084 83F809C0 		strb	ip, [r3, #9]
 379:lvgl/src/misc/lv_mem.c ****             REPEAT8(COPY8);
 767              		.loc 1 379 13 view .LVU242
 768              	.LVL68:
 379:lvgl/src/misc/lv_mem.c ****             REPEAT8(COPY8);
 769              		.loc 1 379 13 view .LVU243
 379:lvgl/src/misc/lv_mem.c ****             REPEAT8(COPY8);
 770              		.loc 1 379 13 view .LVU244
 771 0088 91F80AC0 		ldrb	ip, [r1, #10]	@ zero_extendqisi2
 772 008c 83F80AC0 		strb	ip, [r3, #10]
 379:lvgl/src/misc/lv_mem.c ****             REPEAT8(COPY8);
 773              		.loc 1 379 13 view .LVU245
 774              	.LVL69:
 379:lvgl/src/misc/lv_mem.c ****             REPEAT8(COPY8);
 775              		.loc 1 379 13 view .LVU246
 379:lvgl/src/misc/lv_mem.c ****             REPEAT8(COPY8);
 776              		.loc 1 379 13 view .LVU247
 777 0090 91F80BC0 		ldrb	ip, [r1, #11]	@ zero_extendqisi2
 778 0094 83F80BC0 		strb	ip, [r3, #11]
 379:lvgl/src/misc/lv_mem.c ****             REPEAT8(COPY8);
 779              		.loc 1 379 13 view .LVU248
 780              	.LVL70:
 379:lvgl/src/misc/lv_mem.c ****             REPEAT8(COPY8);
 781              		.loc 1 379 13 view .LVU249
 379:lvgl/src/misc/lv_mem.c ****             REPEAT8(COPY8);
 782              		.loc 1 379 13 view .LVU250
 783 0098 91F80CC0 		ldrb	ip, [r1, #12]	@ zero_extendqisi2
 784 009c 83F80CC0 		strb	ip, [r3, #12]
 379:lvgl/src/misc/lv_mem.c ****             REPEAT8(COPY8);
 785              		.loc 1 379 13 view .LVU251
 786              	.LVL71:
 379:lvgl/src/misc/lv_mem.c ****             REPEAT8(COPY8);
 787              		.loc 1 379 13 view .LVU252
 379:lvgl/src/misc/lv_mem.c ****             REPEAT8(COPY8);
 788              		.loc 1 379 13 view .LVU253
 789 00a0 91F80DC0 		ldrb	ip, [r1, #13]	@ zero_extendqisi2
 790 00a4 83F80DC0 		strb	ip, [r3, #13]
 379:lvgl/src/misc/lv_mem.c ****             REPEAT8(COPY8);
 791              		.loc 1 379 13 view .LVU254
 792              	.LVL72:
 379:lvgl/src/misc/lv_mem.c ****             REPEAT8(COPY8);
 793              		.loc 1 379 13 view .LVU255
 379:lvgl/src/misc/lv_mem.c ****             REPEAT8(COPY8);
 794              		.loc 1 379 13 view .LVU256
 795 00a8 91F80EC0 		ldrb	ip, [r1, #14]	@ zero_extendqisi2
 796 00ac 83F80EC0 		strb	ip, [r3, #14]
 379:lvgl/src/misc/lv_mem.c ****             REPEAT8(COPY8);
 797              		.loc 1 379 13 view .LVU257
 798              	.LVL73:
 379:lvgl/src/misc/lv_mem.c ****             REPEAT8(COPY8);
 799              		.loc 1 379 13 view .LVU258
 379:lvgl/src/misc/lv_mem.c ****             REPEAT8(COPY8);
 800              		.loc 1 379 13 view .LVU259
 801 00b0 91F80FC0 		ldrb	ip, [r1, #15]	@ zero_extendqisi2
 802 00b4 83F80FC0 		strb	ip, [r3, #15]
 379:lvgl/src/misc/lv_mem.c ****             REPEAT8(COPY8);
ARM GAS  C:\Users\OSD\AppData\Local\Temp\cc2Cqfsc.s 			page 24


 803              		.loc 1 379 13 view .LVU260
 804              	.LVL74:
 379:lvgl/src/misc/lv_mem.c ****             REPEAT8(COPY8);
 805              		.loc 1 379 13 view .LVU261
 379:lvgl/src/misc/lv_mem.c ****             REPEAT8(COPY8);
 806              		.loc 1 379 27 view .LVU262
 380:lvgl/src/misc/lv_mem.c ****             REPEAT8(COPY8);
 807              		.loc 1 380 13 view .LVU263
 808 00b8 91F810C0 		ldrb	ip, [r1, #16]	@ zero_extendqisi2
 809 00bc 83F810C0 		strb	ip, [r3, #16]
 380:lvgl/src/misc/lv_mem.c ****             REPEAT8(COPY8);
 810              		.loc 1 380 13 view .LVU264
 811              	.LVL75:
 380:lvgl/src/misc/lv_mem.c ****             REPEAT8(COPY8);
 812              		.loc 1 380 13 view .LVU265
 380:lvgl/src/misc/lv_mem.c ****             REPEAT8(COPY8);
 813              		.loc 1 380 13 view .LVU266
 814 00c0 91F811C0 		ldrb	ip, [r1, #17]	@ zero_extendqisi2
 815 00c4 83F811C0 		strb	ip, [r3, #17]
 380:lvgl/src/misc/lv_mem.c ****             REPEAT8(COPY8);
 816              		.loc 1 380 13 view .LVU267
 817              	.LVL76:
 380:lvgl/src/misc/lv_mem.c ****             REPEAT8(COPY8);
 818              		.loc 1 380 13 view .LVU268
 380:lvgl/src/misc/lv_mem.c ****             REPEAT8(COPY8);
 819              		.loc 1 380 13 view .LVU269
 820 00c8 91F812C0 		ldrb	ip, [r1, #18]	@ zero_extendqisi2
 821 00cc 83F812C0 		strb	ip, [r3, #18]
 380:lvgl/src/misc/lv_mem.c ****             REPEAT8(COPY8);
 822              		.loc 1 380 13 view .LVU270
 823              	.LVL77:
 380:lvgl/src/misc/lv_mem.c ****             REPEAT8(COPY8);
 824              		.loc 1 380 13 view .LVU271
 380:lvgl/src/misc/lv_mem.c ****             REPEAT8(COPY8);
 825              		.loc 1 380 13 view .LVU272
 826 00d0 91F813C0 		ldrb	ip, [r1, #19]	@ zero_extendqisi2
 827 00d4 83F813C0 		strb	ip, [r3, #19]
 380:lvgl/src/misc/lv_mem.c ****             REPEAT8(COPY8);
 828              		.loc 1 380 13 view .LVU273
 829              	.LVL78:
 380:lvgl/src/misc/lv_mem.c ****             REPEAT8(COPY8);
 830              		.loc 1 380 13 view .LVU274
 380:lvgl/src/misc/lv_mem.c ****             REPEAT8(COPY8);
 831              		.loc 1 380 13 view .LVU275
 832 00d8 91F814C0 		ldrb	ip, [r1, #20]	@ zero_extendqisi2
 833 00dc 83F814C0 		strb	ip, [r3, #20]
 380:lvgl/src/misc/lv_mem.c ****             REPEAT8(COPY8);
 834              		.loc 1 380 13 view .LVU276
 835              	.LVL79:
 380:lvgl/src/misc/lv_mem.c ****             REPEAT8(COPY8);
 836              		.loc 1 380 13 view .LVU277
 380:lvgl/src/misc/lv_mem.c ****             REPEAT8(COPY8);
 837              		.loc 1 380 13 view .LVU278
 838 00e0 91F815C0 		ldrb	ip, [r1, #21]	@ zero_extendqisi2
 839 00e4 83F815C0 		strb	ip, [r3, #21]
 380:lvgl/src/misc/lv_mem.c ****             REPEAT8(COPY8);
 840              		.loc 1 380 13 view .LVU279
ARM GAS  C:\Users\OSD\AppData\Local\Temp\cc2Cqfsc.s 			page 25


 841              	.LVL80:
 380:lvgl/src/misc/lv_mem.c ****             REPEAT8(COPY8);
 842              		.loc 1 380 13 view .LVU280
 380:lvgl/src/misc/lv_mem.c ****             REPEAT8(COPY8);
 843              		.loc 1 380 13 view .LVU281
 844 00e8 91F816C0 		ldrb	ip, [r1, #22]	@ zero_extendqisi2
 845 00ec 83F816C0 		strb	ip, [r3, #22]
 380:lvgl/src/misc/lv_mem.c ****             REPEAT8(COPY8);
 846              		.loc 1 380 13 view .LVU282
 847              	.LVL81:
 380:lvgl/src/misc/lv_mem.c ****             REPEAT8(COPY8);
 848              		.loc 1 380 13 view .LVU283
 380:lvgl/src/misc/lv_mem.c ****             REPEAT8(COPY8);
 849              		.loc 1 380 13 view .LVU284
 850 00f0 91F817C0 		ldrb	ip, [r1, #23]	@ zero_extendqisi2
 851 00f4 83F817C0 		strb	ip, [r3, #23]
 380:lvgl/src/misc/lv_mem.c ****             REPEAT8(COPY8);
 852              		.loc 1 380 13 view .LVU285
 853              	.LVL82:
 380:lvgl/src/misc/lv_mem.c ****             REPEAT8(COPY8);
 854              		.loc 1 380 13 view .LVU286
 380:lvgl/src/misc/lv_mem.c ****             REPEAT8(COPY8);
 855              		.loc 1 380 27 view .LVU287
 381:lvgl/src/misc/lv_mem.c ****             len -= 32;
 856              		.loc 1 381 13 view .LVU288
 857 00f8 91F818C0 		ldrb	ip, [r1, #24]	@ zero_extendqisi2
 858 00fc 83F818C0 		strb	ip, [r3, #24]
 381:lvgl/src/misc/lv_mem.c ****             len -= 32;
 859              		.loc 1 381 13 view .LVU289
 860              	.LVL83:
 381:lvgl/src/misc/lv_mem.c ****             len -= 32;
 861              		.loc 1 381 13 view .LVU290
 381:lvgl/src/misc/lv_mem.c ****             len -= 32;
 862              		.loc 1 381 13 view .LVU291
 863 0100 91F819C0 		ldrb	ip, [r1, #25]	@ zero_extendqisi2
 864 0104 83F819C0 		strb	ip, [r3, #25]
 381:lvgl/src/misc/lv_mem.c ****             len -= 32;
 865              		.loc 1 381 13 view .LVU292
 866              	.LVL84:
 381:lvgl/src/misc/lv_mem.c ****             len -= 32;
 867              		.loc 1 381 13 view .LVU293
 381:lvgl/src/misc/lv_mem.c ****             len -= 32;
 868              		.loc 1 381 13 view .LVU294
 869 0108 91F81AC0 		ldrb	ip, [r1, #26]	@ zero_extendqisi2
 870 010c 83F81AC0 		strb	ip, [r3, #26]
 381:lvgl/src/misc/lv_mem.c ****             len -= 32;
 871              		.loc 1 381 13 view .LVU295
 872              	.LVL85:
 381:lvgl/src/misc/lv_mem.c ****             len -= 32;
 873              		.loc 1 381 13 view .LVU296
 381:lvgl/src/misc/lv_mem.c ****             len -= 32;
 874              		.loc 1 381 13 view .LVU297
 875 0110 91F81BC0 		ldrb	ip, [r1, #27]	@ zero_extendqisi2
 876 0114 83F81BC0 		strb	ip, [r3, #27]
 381:lvgl/src/misc/lv_mem.c ****             len -= 32;
 877              		.loc 1 381 13 view .LVU298
 878              	.LVL86:
ARM GAS  C:\Users\OSD\AppData\Local\Temp\cc2Cqfsc.s 			page 26


 381:lvgl/src/misc/lv_mem.c ****             len -= 32;
 879              		.loc 1 381 13 view .LVU299
 381:lvgl/src/misc/lv_mem.c ****             len -= 32;
 880              		.loc 1 381 13 view .LVU300
 881 0118 91F81CC0 		ldrb	ip, [r1, #28]	@ zero_extendqisi2
 882 011c 83F81CC0 		strb	ip, [r3, #28]
 381:lvgl/src/misc/lv_mem.c ****             len -= 32;
 883              		.loc 1 381 13 view .LVU301
 884              	.LVL87:
 381:lvgl/src/misc/lv_mem.c ****             len -= 32;
 885              		.loc 1 381 13 view .LVU302
 381:lvgl/src/misc/lv_mem.c ****             len -= 32;
 886              		.loc 1 381 13 view .LVU303
 887 0120 91F81DC0 		ldrb	ip, [r1, #29]	@ zero_extendqisi2
 888 0124 83F81DC0 		strb	ip, [r3, #29]
 381:lvgl/src/misc/lv_mem.c ****             len -= 32;
 889              		.loc 1 381 13 view .LVU304
 890              	.LVL88:
 381:lvgl/src/misc/lv_mem.c ****             len -= 32;
 891              		.loc 1 381 13 view .LVU305
 381:lvgl/src/misc/lv_mem.c ****             len -= 32;
 892              		.loc 1 381 13 view .LVU306
 893 0128 91F81EC0 		ldrb	ip, [r1, #30]	@ zero_extendqisi2
 894 012c 83F81EC0 		strb	ip, [r3, #30]
 381:lvgl/src/misc/lv_mem.c ****             len -= 32;
 895              		.loc 1 381 13 view .LVU307
 896              	.LVL89:
 381:lvgl/src/misc/lv_mem.c ****             len -= 32;
 897              		.loc 1 381 13 view .LVU308
 381:lvgl/src/misc/lv_mem.c ****             len -= 32;
 898              		.loc 1 381 13 view .LVU309
 899 0130 91F81FC0 		ldrb	ip, [r1, #31]	@ zero_extendqisi2
 900 0134 83F81FC0 		strb	ip, [r3, #31]
 381:lvgl/src/misc/lv_mem.c ****             len -= 32;
 901              		.loc 1 381 13 view .LVU310
 902 0138 2033     		adds	r3, r3, #32
 903              	.LVL90:
 381:lvgl/src/misc/lv_mem.c ****             len -= 32;
 904              		.loc 1 381 13 view .LVU311
 905 013a 2031     		adds	r1, r1, #32
 906              	.LVL91:
 381:lvgl/src/misc/lv_mem.c ****             len -= 32;
 907              		.loc 1 381 27 view .LVU312
 382:lvgl/src/misc/lv_mem.c ****         }
 908              		.loc 1 382 13 view .LVU313
 382:lvgl/src/misc/lv_mem.c ****         }
 909              		.loc 1 382 17 is_stmt 0 view .LVU314
 910 013c 203A     		subs	r2, r2, #32
 911              	.LVL92:
 912              	.L76:
 377:lvgl/src/misc/lv_mem.c ****             REPEAT8(COPY8);
 913              		.loc 1 377 14 is_stmt 1 view .LVU315
 914 013e 202A     		cmp	r2, #32
 915 0140 3FF67AAF 		bhi	.L78
 377:lvgl/src/misc/lv_mem.c ****             REPEAT8(COPY8);
 916              		.loc 1 377 14 is_stmt 0 view .LVU316
 917 0144 06E0     		b	.L79
ARM GAS  C:\Users\OSD\AppData\Local\Temp\cc2Cqfsc.s 			page 27


 918              	.LVL93:
 919              	.L91:
 369:lvgl/src/misc/lv_mem.c ****     const uint8_t * s8 = src;
 920              		.loc 1 369 15 view .LVU317
 921 0146 0346     		mov	r3, r0
 922              	.LVL94:
 369:lvgl/src/misc/lv_mem.c ****     const uint8_t * s8 = src;
 923              		.loc 1 369 15 view .LVU318
 924 0148 F9E7     		b	.L76
 925              	.LVL95:
 926              	.L80:
 385:lvgl/src/misc/lv_mem.c ****             len--;
 927              		.loc 1 385 13 is_stmt 1 view .LVU319
 928 014a 11F801CB 		ldrb	ip, [r1], #1	@ zero_extendqisi2
 929              	.LVL96:
 385:lvgl/src/misc/lv_mem.c ****             len--;
 930              		.loc 1 385 13 is_stmt 0 view .LVU320
 931 014e 03F801CB 		strb	ip, [r3], #1
 932              	.LVL97:
 385:lvgl/src/misc/lv_mem.c ****             len--;
 933              		.loc 1 385 13 is_stmt 1 view .LVU321
 385:lvgl/src/misc/lv_mem.c ****             len--;
 934              		.loc 1 385 13 view .LVU322
 386:lvgl/src/misc/lv_mem.c ****         }
 935              		.loc 1 386 13 view .LVU323
 386:lvgl/src/misc/lv_mem.c ****         }
 936              		.loc 1 386 16 is_stmt 0 view .LVU324
 937 0152 013A     		subs	r2, r2, #1
 938              	.LVL98:
 939              	.L79:
 384:lvgl/src/misc/lv_mem.c ****             COPY8
 940              		.loc 1 384 14 is_stmt 1 view .LVU325
 941 0154 002A     		cmp	r2, #0
 942 0156 F8D1     		bne	.L80
 943              	.LVL99:
 944              	.L81:
 398:lvgl/src/misc/lv_mem.c ****         }
 399:lvgl/src/misc/lv_mem.c ****     }
 400:lvgl/src/misc/lv_mem.c **** 
 401:lvgl/src/misc/lv_mem.c ****     uint32_t * d32 = (uint32_t *)d8;
 402:lvgl/src/misc/lv_mem.c ****     const uint32_t * s32 = (uint32_t *)s8;
 403:lvgl/src/misc/lv_mem.c ****     while(len > 32) {
 404:lvgl/src/misc/lv_mem.c ****         REPEAT8(COPY32)
 405:lvgl/src/misc/lv_mem.c ****         len -= 32;
 406:lvgl/src/misc/lv_mem.c ****     }
 407:lvgl/src/misc/lv_mem.c **** 
 408:lvgl/src/misc/lv_mem.c ****     while(len > 4) {
 409:lvgl/src/misc/lv_mem.c ****         COPY32;
 410:lvgl/src/misc/lv_mem.c ****         len -= 4;
 411:lvgl/src/misc/lv_mem.c ****     }
 412:lvgl/src/misc/lv_mem.c **** 
 413:lvgl/src/misc/lv_mem.c ****     d8 = (uint8_t *)d32;
 414:lvgl/src/misc/lv_mem.c ****     s8 = (const uint8_t *)s32;
 415:lvgl/src/misc/lv_mem.c ****     while(len) {
 416:lvgl/src/misc/lv_mem.c ****         COPY8
 417:lvgl/src/misc/lv_mem.c ****         len--;
 418:lvgl/src/misc/lv_mem.c ****     }
ARM GAS  C:\Users\OSD\AppData\Local\Temp\cc2Cqfsc.s 			page 28


 419:lvgl/src/misc/lv_mem.c **** 
 420:lvgl/src/misc/lv_mem.c ****     return dst;
 421:lvgl/src/misc/lv_mem.c **** }
 945              		.loc 1 421 1 is_stmt 0 view .LVU326
 946 0158 5DF8044B 		ldr	r4, [sp], #4
 947              		.cfi_remember_state
 948              		.cfi_restore 4
 949              		.cfi_def_cfa_offset 0
 950 015c 7047     		bx	lr
 951              	.LVL100:
 952              	.L86:
 953              		.cfi_restore_state
 404:lvgl/src/misc/lv_mem.c ****         len -= 32;
 954              		.loc 1 404 9 is_stmt 1 view .LVU327
 955 015e 0C68     		ldr	r4, [r1]
 956 0160 1C60     		str	r4, [r3]
 404:lvgl/src/misc/lv_mem.c ****         len -= 32;
 957              		.loc 1 404 9 view .LVU328
 958              	.LVL101:
 404:lvgl/src/misc/lv_mem.c ****         len -= 32;
 959              		.loc 1 404 9 view .LVU329
 404:lvgl/src/misc/lv_mem.c ****         len -= 32;
 960              		.loc 1 404 9 view .LVU330
 961 0162 4C68     		ldr	r4, [r1, #4]
 962 0164 5C60     		str	r4, [r3, #4]
 404:lvgl/src/misc/lv_mem.c ****         len -= 32;
 963              		.loc 1 404 9 view .LVU331
 964              	.LVL102:
 404:lvgl/src/misc/lv_mem.c ****         len -= 32;
 965              		.loc 1 404 9 view .LVU332
 404:lvgl/src/misc/lv_mem.c ****         len -= 32;
 966              		.loc 1 404 9 view .LVU333
 967 0166 8C68     		ldr	r4, [r1, #8]
 968 0168 9C60     		str	r4, [r3, #8]
 404:lvgl/src/misc/lv_mem.c ****         len -= 32;
 969              		.loc 1 404 9 view .LVU334
 970              	.LVL103:
 404:lvgl/src/misc/lv_mem.c ****         len -= 32;
 971              		.loc 1 404 9 view .LVU335
 404:lvgl/src/misc/lv_mem.c ****         len -= 32;
 972              		.loc 1 404 9 view .LVU336
 973 016a CC68     		ldr	r4, [r1, #12]
 974 016c DC60     		str	r4, [r3, #12]
 404:lvgl/src/misc/lv_mem.c ****         len -= 32;
 975              		.loc 1 404 9 view .LVU337
 976              	.LVL104:
 404:lvgl/src/misc/lv_mem.c ****         len -= 32;
 977              		.loc 1 404 9 view .LVU338
 404:lvgl/src/misc/lv_mem.c ****         len -= 32;
 978              		.loc 1 404 9 view .LVU339
 979 016e 0C69     		ldr	r4, [r1, #16]
 980 0170 1C61     		str	r4, [r3, #16]
 404:lvgl/src/misc/lv_mem.c ****         len -= 32;
 981              		.loc 1 404 9 view .LVU340
 982              	.LVL105:
 404:lvgl/src/misc/lv_mem.c ****         len -= 32;
 983              		.loc 1 404 9 view .LVU341
ARM GAS  C:\Users\OSD\AppData\Local\Temp\cc2Cqfsc.s 			page 29


 404:lvgl/src/misc/lv_mem.c ****         len -= 32;
 984              		.loc 1 404 9 view .LVU342
 985 0172 4C69     		ldr	r4, [r1, #20]
 986 0174 5C61     		str	r4, [r3, #20]
 404:lvgl/src/misc/lv_mem.c ****         len -= 32;
 987              		.loc 1 404 9 view .LVU343
 988              	.LVL106:
 404:lvgl/src/misc/lv_mem.c ****         len -= 32;
 989              		.loc 1 404 9 view .LVU344
 404:lvgl/src/misc/lv_mem.c ****         len -= 32;
 990              		.loc 1 404 9 view .LVU345
 991 0176 8C69     		ldr	r4, [r1, #24]
 992 0178 9C61     		str	r4, [r3, #24]
 404:lvgl/src/misc/lv_mem.c ****         len -= 32;
 993              		.loc 1 404 9 view .LVU346
 994              	.LVL107:
 404:lvgl/src/misc/lv_mem.c ****         len -= 32;
 995              		.loc 1 404 9 view .LVU347
 404:lvgl/src/misc/lv_mem.c ****         len -= 32;
 996              		.loc 1 404 9 view .LVU348
 997 017a CC69     		ldr	r4, [r1, #28]
 998 017c DC61     		str	r4, [r3, #28]
 404:lvgl/src/misc/lv_mem.c ****         len -= 32;
 999              		.loc 1 404 9 view .LVU349
 1000 017e 2033     		adds	r3, r3, #32
 1001              	.LVL108:
 404:lvgl/src/misc/lv_mem.c ****         len -= 32;
 1002              		.loc 1 404 9 view .LVU350
 1003 0180 2031     		adds	r1, r1, #32
 1004              	.LVL109:
 405:lvgl/src/misc/lv_mem.c ****     }
 1005              		.loc 1 405 9 view .LVU351
 405:lvgl/src/misc/lv_mem.c ****     }
 1006              		.loc 1 405 13 is_stmt 0 view .LVU352
 1007 0182 203A     		subs	r2, r2, #32
 1008              	.LVL110:
 1009              	.L85:
 403:lvgl/src/misc/lv_mem.c ****         REPEAT8(COPY32)
 1010              		.loc 1 403 10 is_stmt 1 view .LVU353
 1011 0184 202A     		cmp	r2, #32
 1012 0186 EAD8     		bhi	.L86
 403:lvgl/src/misc/lv_mem.c ****         REPEAT8(COPY32)
 1013              		.loc 1 403 10 is_stmt 0 view .LVU354
 1014 0188 06E0     		b	.L87
 1015              	.LVL111:
 1016              	.L92:
 369:lvgl/src/misc/lv_mem.c ****     const uint8_t * s8 = src;
 1017              		.loc 1 369 15 view .LVU355
 1018 018a 0346     		mov	r3, r0
 1019              	.LVL112:
 369:lvgl/src/misc/lv_mem.c ****     const uint8_t * s8 = src;
 1020              		.loc 1 369 15 view .LVU356
 1021 018c FAE7     		b	.L85
 1022              	.LVL113:
 1023              	.L88:
 409:lvgl/src/misc/lv_mem.c ****         len -= 4;
 1024              		.loc 1 409 9 is_stmt 1 view .LVU357
ARM GAS  C:\Users\OSD\AppData\Local\Temp\cc2Cqfsc.s 			page 30


 1025 018e 51F8044B 		ldr	r4, [r1], #4
 1026              	.LVL114:
 409:lvgl/src/misc/lv_mem.c ****         len -= 4;
 1027              		.loc 1 409 9 is_stmt 0 view .LVU358
 1028 0192 43F8044B 		str	r4, [r3], #4
 1029              	.LVL115:
 409:lvgl/src/misc/lv_mem.c ****         len -= 4;
 1030              		.loc 1 409 9 is_stmt 1 view .LVU359
 409:lvgl/src/misc/lv_mem.c ****         len -= 4;
 1031              		.loc 1 409 9 view .LVU360
 409:lvgl/src/misc/lv_mem.c ****         len -= 4;
 1032              		.loc 1 409 15 view .LVU361
 410:lvgl/src/misc/lv_mem.c ****     }
 1033              		.loc 1 410 9 view .LVU362
 410:lvgl/src/misc/lv_mem.c ****     }
 1034              		.loc 1 410 13 is_stmt 0 view .LVU363
 1035 0196 043A     		subs	r2, r2, #4
 1036              	.LVL116:
 1037              	.L87:
 408:lvgl/src/misc/lv_mem.c ****         COPY32;
 1038              		.loc 1 408 10 is_stmt 1 view .LVU364
 1039 0198 042A     		cmp	r2, #4
 1040 019a F8D8     		bhi	.L88
 1041              	.LVL117:
 1042              	.L89:
 415:lvgl/src/misc/lv_mem.c ****         COPY8
 1043              		.loc 1 415 10 view .LVU365
 1044 019c 002A     		cmp	r2, #0
 1045 019e DBD0     		beq	.L81
 416:lvgl/src/misc/lv_mem.c ****         len--;
 1046              		.loc 1 416 9 view .LVU366
 1047 01a0 11F8014B 		ldrb	r4, [r1], #1	@ zero_extendqisi2
 1048              	.LVL118:
 416:lvgl/src/misc/lv_mem.c ****         len--;
 1049              		.loc 1 416 9 is_stmt 0 view .LVU367
 1050 01a4 03F8014B 		strb	r4, [r3], #1
 1051              	.LVL119:
 416:lvgl/src/misc/lv_mem.c ****         len--;
 1052              		.loc 1 416 9 is_stmt 1 view .LVU368
 416:lvgl/src/misc/lv_mem.c ****         len--;
 1053              		.loc 1 416 9 view .LVU369
 417:lvgl/src/misc/lv_mem.c ****     }
 1054              		.loc 1 417 9 view .LVU370
 417:lvgl/src/misc/lv_mem.c ****     }
 1055              		.loc 1 417 12 is_stmt 0 view .LVU371
 1056 01a8 013A     		subs	r2, r2, #1
 1057              	.LVL120:
 417:lvgl/src/misc/lv_mem.c ****     }
 1058              		.loc 1 417 12 view .LVU372
 1059 01aa F7E7     		b	.L89
 1060              		.cfi_endproc
 1061              	.LFE34:
 1063              		.section	.text.lv_memset,"ax",%progbits
 1064              		.align	1
 1065              		.global	lv_memset
 1066              		.syntax unified
 1067              		.thumb
ARM GAS  C:\Users\OSD\AppData\Local\Temp\cc2Cqfsc.s 			page 31


 1068              		.thumb_func
 1070              	lv_memset:
 1071              	.LVL121:
 1072              	.LFB35:
 422:lvgl/src/misc/lv_mem.c **** 
 423:lvgl/src/misc/lv_mem.c **** /**
 424:lvgl/src/misc/lv_mem.c ****  * Same as `memset` but optimized for 4 byte operation.
 425:lvgl/src/misc/lv_mem.c ****  * @param dst pointer to the destination buffer
 426:lvgl/src/misc/lv_mem.c ****  * @param v value to set [0..255]
 427:lvgl/src/misc/lv_mem.c ****  * @param len number of byte to set
 428:lvgl/src/misc/lv_mem.c ****  */
 429:lvgl/src/misc/lv_mem.c **** void LV_ATTRIBUTE_FAST_MEM lv_memset(void * dst, uint8_t v, size_t len)
 430:lvgl/src/misc/lv_mem.c **** {
 1073              		.loc 1 430 1 is_stmt 1 view -0
 1074              		.cfi_startproc
 1075              		@ args = 0, pretend = 0, frame = 0
 1076              		@ frame_needed = 0, uses_anonymous_args = 0
 1077              		@ link register save eliminated.
 431:lvgl/src/misc/lv_mem.c **** 
 432:lvgl/src/misc/lv_mem.c ****     uint8_t * d8 = (uint8_t *)dst;
 1078              		.loc 1 432 5 view .LVU374
 433:lvgl/src/misc/lv_mem.c **** 
 434:lvgl/src/misc/lv_mem.c ****     uintptr_t d_align = (lv_uintptr_t) d8 & ALIGN_MASK;
 1079              		.loc 1 434 5 view .LVU375
 435:lvgl/src/misc/lv_mem.c **** 
 436:lvgl/src/misc/lv_mem.c ****     /*Make the address aligned*/
 437:lvgl/src/misc/lv_mem.c ****     if(d_align) {
 1080              		.loc 1 437 5 view .LVU376
 1081              		.loc 1 437 7 is_stmt 0 view .LVU377
 1082 0000 10F00303 		ands	r3, r0, #3
 1083              	.LVL122:
 1084              		.loc 1 437 7 view .LVU378
 1085 0004 0AD0     		beq	.L96
 438:lvgl/src/misc/lv_mem.c ****         d_align = ALIGN_MASK + 1 - d_align;
 1086              		.loc 1 438 9 is_stmt 1 view .LVU379
 1087              		.loc 1 438 17 is_stmt 0 view .LVU380
 1088 0006 C3F10403 		rsb	r3, r3, #4
 1089              	.LVL123:
 439:lvgl/src/misc/lv_mem.c ****         while(d_align && len) {
 1090              		.loc 1 439 9 is_stmt 1 view .LVU381
 1091              	.L97:
 1092              		.loc 1 439 14 view .LVU382
 1093 000a 002B     		cmp	r3, #0
 1094 000c 18BF     		it	ne
 1095 000e 002A     		cmpne	r2, #0
 1096 0010 04D0     		beq	.L96
 440:lvgl/src/misc/lv_mem.c ****             SET8(v);
 1097              		.loc 1 440 13 view .LVU383
 1098 0012 00F8011B 		strb	r1, [r0], #1
 1099              	.LVL124:
 1100              		.loc 1 440 13 view .LVU384
 1101              		.loc 1 440 20 view .LVU385
 441:lvgl/src/misc/lv_mem.c ****             len--;
 1102              		.loc 1 441 13 view .LVU386
 1103              		.loc 1 441 16 is_stmt 0 view .LVU387
 1104 0016 013A     		subs	r2, r2, #1
 1105              	.LVL125:
ARM GAS  C:\Users\OSD\AppData\Local\Temp\cc2Cqfsc.s 			page 32


 442:lvgl/src/misc/lv_mem.c ****             d_align--;
 1106              		.loc 1 442 13 is_stmt 1 view .LVU388
 1107              		.loc 1 442 20 is_stmt 0 view .LVU389
 1108 0018 013B     		subs	r3, r3, #1
 1109              	.LVL126:
 1110              		.loc 1 442 20 view .LVU390
 1111 001a F6E7     		b	.L97
 1112              	.L96:
 443:lvgl/src/misc/lv_mem.c ****         }
 444:lvgl/src/misc/lv_mem.c ****     }
 445:lvgl/src/misc/lv_mem.c **** 
 446:lvgl/src/misc/lv_mem.c ****     uint32_t v32 = (uint32_t)v + ((uint32_t)v << 8) + ((uint32_t)v << 16) + ((uint32_t)v << 24);
 1113              		.loc 1 446 5 is_stmt 1 view .LVU391
 1114              		.loc 1 446 32 is_stmt 0 view .LVU392
 1115 001c 01EB0123 		add	r3, r1, r1, lsl #8
 1116              	.LVL127:
 1117              		.loc 1 446 53 view .LVU393
 1118 0020 03EB0143 		add	r3, r3, r1, lsl #16
 1119              		.loc 1 446 14 view .LVU394
 1120 0024 03EB0163 		add	r3, r3, r1, lsl #24
 1121              	.LVL128:
 447:lvgl/src/misc/lv_mem.c **** 
 448:lvgl/src/misc/lv_mem.c ****     uint32_t * d32 = (uint32_t *)d8;
 1122              		.loc 1 448 5 is_stmt 1 view .LVU395
 449:lvgl/src/misc/lv_mem.c **** 
 450:lvgl/src/misc/lv_mem.c ****     while(len > 32) {
 1123              		.loc 1 450 5 view .LVU396
 1124              		.loc 1 450 10 is_stmt 0 view .LVU397
 1125 0028 09E0     		b	.L99
 1126              	.LVL129:
 1127              	.L100:
 451:lvgl/src/misc/lv_mem.c ****         REPEAT8(SET32(v32));
 1128              		.loc 1 451 9 is_stmt 1 view .LVU398
 1129 002a 0360     		str	r3, [r0]
 1130              		.loc 1 451 9 view .LVU399
 1131              	.LVL130:
 1132              		.loc 1 451 9 view .LVU400
 1133 002c 4360     		str	r3, [r0, #4]
 1134              		.loc 1 451 9 view .LVU401
 1135              	.LVL131:
 1136              		.loc 1 451 9 view .LVU402
 1137 002e 8360     		str	r3, [r0, #8]
 1138              		.loc 1 451 9 view .LVU403
 1139              	.LVL132:
 1140              		.loc 1 451 9 view .LVU404
 1141 0030 C360     		str	r3, [r0, #12]
 1142              		.loc 1 451 9 view .LVU405
 1143              	.LVL133:
 1144              		.loc 1 451 9 view .LVU406
 1145 0032 0361     		str	r3, [r0, #16]
 1146              		.loc 1 451 9 view .LVU407
 1147              	.LVL134:
 1148              		.loc 1 451 9 view .LVU408
 1149 0034 4361     		str	r3, [r0, #20]
 1150              		.loc 1 451 9 view .LVU409
 1151              	.LVL135:
 1152              		.loc 1 451 9 view .LVU410
ARM GAS  C:\Users\OSD\AppData\Local\Temp\cc2Cqfsc.s 			page 33


 1153 0036 8361     		str	r3, [r0, #24]
 1154              		.loc 1 451 9 view .LVU411
 1155              	.LVL136:
 1156              		.loc 1 451 9 view .LVU412
 1157 0038 C361     		str	r3, [r0, #28]
 1158              		.loc 1 451 9 view .LVU413
 1159 003a 2030     		adds	r0, r0, #32
 1160              	.LVL137:
 1161              		.loc 1 451 28 view .LVU414
 452:lvgl/src/misc/lv_mem.c ****         len -= 32;
 1162              		.loc 1 452 9 view .LVU415
 1163              		.loc 1 452 13 is_stmt 0 view .LVU416
 1164 003c 203A     		subs	r2, r2, #32
 1165              	.LVL138:
 1166              	.L99:
 450:lvgl/src/misc/lv_mem.c ****         REPEAT8(SET32(v32));
 1167              		.loc 1 450 10 is_stmt 1 view .LVU417
 1168 003e 202A     		cmp	r2, #32
 1169 0040 F3D8     		bhi	.L100
 450:lvgl/src/misc/lv_mem.c ****         REPEAT8(SET32(v32));
 1170              		.loc 1 450 10 is_stmt 0 view .LVU418
 1171 0042 02E0     		b	.L101
 1172              	.L102:
 453:lvgl/src/misc/lv_mem.c ****     }
 454:lvgl/src/misc/lv_mem.c **** 
 455:lvgl/src/misc/lv_mem.c ****     while(len > 4) {
 456:lvgl/src/misc/lv_mem.c ****         SET32(v32);
 1173              		.loc 1 456 9 is_stmt 1 view .LVU419
 1174 0044 40F8043B 		str	r3, [r0], #4
 1175              	.LVL139:
 1176              		.loc 1 456 9 view .LVU420
 1177              		.loc 1 456 19 view .LVU421
 457:lvgl/src/misc/lv_mem.c ****         len -= 4;
 1178              		.loc 1 457 9 view .LVU422
 1179              		.loc 1 457 13 is_stmt 0 view .LVU423
 1180 0048 043A     		subs	r2, r2, #4
 1181              	.LVL140:
 1182              	.L101:
 455:lvgl/src/misc/lv_mem.c ****         SET32(v32);
 1183              		.loc 1 455 10 is_stmt 1 view .LVU424
 1184 004a 042A     		cmp	r2, #4
 1185 004c FAD8     		bhi	.L102
 1186              	.LVL141:
 1187              	.L103:
 458:lvgl/src/misc/lv_mem.c ****     }
 459:lvgl/src/misc/lv_mem.c **** 
 460:lvgl/src/misc/lv_mem.c ****     d8 = (uint8_t *)d32;
 461:lvgl/src/misc/lv_mem.c ****     while(len) {
 1188              		.loc 1 461 10 view .LVU425
 1189 004e 1AB1     		cbz	r2, .L105
 462:lvgl/src/misc/lv_mem.c ****         SET8(v);
 1190              		.loc 1 462 9 view .LVU426
 1191 0050 00F8011B 		strb	r1, [r0], #1
 1192              	.LVL142:
 1193              		.loc 1 462 9 view .LVU427
 1194              		.loc 1 462 16 view .LVU428
 463:lvgl/src/misc/lv_mem.c ****         len--;
ARM GAS  C:\Users\OSD\AppData\Local\Temp\cc2Cqfsc.s 			page 34


 1195              		.loc 1 463 9 view .LVU429
 1196              		.loc 1 463 12 is_stmt 0 view .LVU430
 1197 0054 013A     		subs	r2, r2, #1
 1198              	.LVL143:
 1199              		.loc 1 463 12 view .LVU431
 1200 0056 FAE7     		b	.L103
 1201              	.L105:
 464:lvgl/src/misc/lv_mem.c ****     }
 465:lvgl/src/misc/lv_mem.c **** }
 1202              		.loc 1 465 1 view .LVU432
 1203 0058 7047     		bx	lr
 1204              		.cfi_endproc
 1205              	.LFE35:
 1207              		.section	.text.lv_mem_monitor,"ax",%progbits
 1208              		.align	1
 1209              		.global	lv_mem_monitor
 1210              		.syntax unified
 1211              		.thumb
 1212              		.thumb_func
 1214              	lv_mem_monitor:
 1215              	.LVL144:
 1216              	.LFB30:
 247:lvgl/src/misc/lv_mem.c ****     /*Init the data*/
 1217              		.loc 1 247 1 is_stmt 1 view -0
 1218              		.cfi_startproc
 1219              		@ args = 0, pretend = 0, frame = 0
 1220              		@ frame_needed = 0, uses_anonymous_args = 0
 247:lvgl/src/misc/lv_mem.c ****     /*Init the data*/
 1221              		.loc 1 247 1 is_stmt 0 view .LVU434
 1222 0000 08B5     		push	{r3, lr}
 1223              		.cfi_def_cfa_offset 8
 1224              		.cfi_offset 3, -8
 1225              		.cfi_offset 14, -4
 249:lvgl/src/misc/lv_mem.c **** #if LV_MEM_CUSTOM == 0
 1226              		.loc 1 249 5 is_stmt 1 view .LVU435
 1227 0002 1C22     		movs	r2, #28
 1228 0004 0021     		movs	r1, #0
 1229 0006 FFF7FEFF 		bl	lv_memset
 1230              	.LVL145:
 269:lvgl/src/misc/lv_mem.c **** 
 1231              		.loc 1 269 1 is_stmt 0 view .LVU436
 1232 000a 08BD     		pop	{r3, pc}
 1233              		.cfi_endproc
 1234              	.LFE30:
 1236              		.section	.text.lv_memset_00,"ax",%progbits
 1237              		.align	1
 1238              		.global	lv_memset_00
 1239              		.syntax unified
 1240              		.thumb
 1241              		.thumb_func
 1243              	lv_memset_00:
 1244              	.LVL146:
 1245              	.LFB36:
 466:lvgl/src/misc/lv_mem.c **** 
 467:lvgl/src/misc/lv_mem.c **** /**
 468:lvgl/src/misc/lv_mem.c ****  * Same as `memset(dst, 0x00, len)` but optimized for 4 byte operation.
 469:lvgl/src/misc/lv_mem.c ****  * @param dst pointer to the destination buffer
ARM GAS  C:\Users\OSD\AppData\Local\Temp\cc2Cqfsc.s 			page 35


 470:lvgl/src/misc/lv_mem.c ****  * @param len number of byte to set
 471:lvgl/src/misc/lv_mem.c ****  */
 472:lvgl/src/misc/lv_mem.c **** void LV_ATTRIBUTE_FAST_MEM lv_memset_00(void * dst, size_t len)
 473:lvgl/src/misc/lv_mem.c **** {
 1246              		.loc 1 473 1 is_stmt 1 view -0
 1247              		.cfi_startproc
 1248              		@ args = 0, pretend = 0, frame = 0
 1249              		@ frame_needed = 0, uses_anonymous_args = 0
 1250              		@ link register save eliminated.
 474:lvgl/src/misc/lv_mem.c ****     uint8_t * d8 = (uint8_t *)dst;
 1251              		.loc 1 474 5 view .LVU438
 475:lvgl/src/misc/lv_mem.c ****     uintptr_t d_align = (lv_uintptr_t) d8 & ALIGN_MASK;
 1252              		.loc 1 475 5 view .LVU439
 476:lvgl/src/misc/lv_mem.c **** 
 477:lvgl/src/misc/lv_mem.c ****     /*Make the address aligned*/
 478:lvgl/src/misc/lv_mem.c ****     if(d_align) {
 1253              		.loc 1 478 5 view .LVU440
 1254              		.loc 1 478 7 is_stmt 0 view .LVU441
 1255 0000 10F00303 		ands	r3, r0, #3
 1256              	.LVL147:
 1257              		.loc 1 478 7 view .LVU442
 1258 0004 16D0     		beq	.L112
 479:lvgl/src/misc/lv_mem.c ****         d_align = ALIGN_MASK + 1 - d_align;
 1259              		.loc 1 479 9 is_stmt 1 view .LVU443
 1260              		.loc 1 479 17 is_stmt 0 view .LVU444
 1261 0006 C3F10403 		rsb	r3, r3, #4
 1262              	.LVL148:
 480:lvgl/src/misc/lv_mem.c ****         while(d_align && len) {
 1263              		.loc 1 480 9 is_stmt 1 view .LVU445
 1264              	.L110:
 1265              		.loc 1 480 14 view .LVU446
 1266 000a 002B     		cmp	r3, #0
 1267 000c 18BF     		it	ne
 1268 000e 0029     		cmpne	r1, #0
 1269 0010 10D0     		beq	.L112
 481:lvgl/src/misc/lv_mem.c ****             SET8(0);
 1270              		.loc 1 481 13 view .LVU447
 1271 0012 0022     		movs	r2, #0
 1272 0014 00F8012B 		strb	r2, [r0], #1
 1273              	.LVL149:
 1274              		.loc 1 481 13 view .LVU448
 1275              		.loc 1 481 20 view .LVU449
 482:lvgl/src/misc/lv_mem.c ****             len--;
 1276              		.loc 1 482 13 view .LVU450
 1277              		.loc 1 482 16 is_stmt 0 view .LVU451
 1278 0018 0139     		subs	r1, r1, #1
 1279              	.LVL150:
 483:lvgl/src/misc/lv_mem.c ****             d_align--;
 1280              		.loc 1 483 13 is_stmt 1 view .LVU452
 1281              		.loc 1 483 20 is_stmt 0 view .LVU453
 1282 001a 013B     		subs	r3, r3, #1
 1283              	.LVL151:
 1284              		.loc 1 483 20 view .LVU454
 1285 001c F5E7     		b	.L110
 1286              	.LVL152:
 1287              	.L113:
 484:lvgl/src/misc/lv_mem.c ****         }
ARM GAS  C:\Users\OSD\AppData\Local\Temp\cc2Cqfsc.s 			page 36


 485:lvgl/src/misc/lv_mem.c ****     }
 486:lvgl/src/misc/lv_mem.c **** 
 487:lvgl/src/misc/lv_mem.c ****     uint32_t * d32 = (uint32_t *)d8;
 488:lvgl/src/misc/lv_mem.c ****     while(len > 32) {
 489:lvgl/src/misc/lv_mem.c ****         REPEAT8(SET32(0));
 1288              		.loc 1 489 9 is_stmt 1 view .LVU455
 1289 001e 0023     		movs	r3, #0
 1290 0020 0360     		str	r3, [r0]
 1291              		.loc 1 489 9 view .LVU456
 1292              	.LVL153:
 1293              		.loc 1 489 9 view .LVU457
 1294 0022 4360     		str	r3, [r0, #4]
 1295              		.loc 1 489 9 view .LVU458
 1296              	.LVL154:
 1297              		.loc 1 489 9 view .LVU459
 1298 0024 8360     		str	r3, [r0, #8]
 1299              		.loc 1 489 9 view .LVU460
 1300              	.LVL155:
 1301              		.loc 1 489 9 view .LVU461
 1302 0026 C360     		str	r3, [r0, #12]
 1303              		.loc 1 489 9 view .LVU462
 1304              	.LVL156:
 1305              		.loc 1 489 9 view .LVU463
 1306 0028 0361     		str	r3, [r0, #16]
 1307              		.loc 1 489 9 view .LVU464
 1308              	.LVL157:
 1309              		.loc 1 489 9 view .LVU465
 1310 002a 4361     		str	r3, [r0, #20]
 1311              		.loc 1 489 9 view .LVU466
 1312              	.LVL158:
 1313              		.loc 1 489 9 view .LVU467
 1314 002c 8361     		str	r3, [r0, #24]
 1315              		.loc 1 489 9 view .LVU468
 1316              	.LVL159:
 1317              		.loc 1 489 9 view .LVU469
 1318 002e C361     		str	r3, [r0, #28]
 1319              		.loc 1 489 9 view .LVU470
 1320 0030 2030     		adds	r0, r0, #32
 1321              	.LVL160:
 1322              		.loc 1 489 26 view .LVU471
 490:lvgl/src/misc/lv_mem.c ****         len -= 32;
 1323              		.loc 1 490 9 view .LVU472
 1324              		.loc 1 490 13 is_stmt 0 view .LVU473
 1325 0032 2039     		subs	r1, r1, #32
 1326              	.LVL161:
 1327              	.L112:
 488:lvgl/src/misc/lv_mem.c ****         REPEAT8(SET32(0));
 1328              		.loc 1 488 10 is_stmt 1 view .LVU474
 1329 0034 2029     		cmp	r1, #32
 1330 0036 F2D8     		bhi	.L113
 488:lvgl/src/misc/lv_mem.c ****         REPEAT8(SET32(0));
 1331              		.loc 1 488 10 is_stmt 0 view .LVU475
 1332 0038 03E0     		b	.L114
 1333              	.L115:
 491:lvgl/src/misc/lv_mem.c ****     }
 492:lvgl/src/misc/lv_mem.c **** 
 493:lvgl/src/misc/lv_mem.c ****     while(len > 4) {
ARM GAS  C:\Users\OSD\AppData\Local\Temp\cc2Cqfsc.s 			page 37


 494:lvgl/src/misc/lv_mem.c ****         SET32(0);
 1334              		.loc 1 494 9 is_stmt 1 view .LVU476
 1335 003a 0023     		movs	r3, #0
 1336 003c 40F8043B 		str	r3, [r0], #4
 1337              	.LVL162:
 1338              		.loc 1 494 9 view .LVU477
 1339              		.loc 1 494 17 view .LVU478
 495:lvgl/src/misc/lv_mem.c ****         len -= 4;
 1340              		.loc 1 495 9 view .LVU479
 1341              		.loc 1 495 13 is_stmt 0 view .LVU480
 1342 0040 0439     		subs	r1, r1, #4
 1343              	.LVL163:
 1344              	.L114:
 493:lvgl/src/misc/lv_mem.c ****         SET32(0);
 1345              		.loc 1 493 10 is_stmt 1 view .LVU481
 1346 0042 0429     		cmp	r1, #4
 1347 0044 F9D8     		bhi	.L115
 1348              	.LVL164:
 1349              	.L116:
 496:lvgl/src/misc/lv_mem.c ****     }
 497:lvgl/src/misc/lv_mem.c **** 
 498:lvgl/src/misc/lv_mem.c ****     d8 = (uint8_t *)d32;
 499:lvgl/src/misc/lv_mem.c ****     while(len) {
 1350              		.loc 1 499 10 view .LVU482
 1351 0046 21B1     		cbz	r1, .L118
 500:lvgl/src/misc/lv_mem.c ****         SET8(0);
 1352              		.loc 1 500 9 view .LVU483
 1353 0048 0023     		movs	r3, #0
 1354 004a 00F8013B 		strb	r3, [r0], #1
 1355              	.LVL165:
 1356              		.loc 1 500 9 view .LVU484
 1357              		.loc 1 500 16 view .LVU485
 501:lvgl/src/misc/lv_mem.c ****         len--;
 1358              		.loc 1 501 9 view .LVU486
 1359              		.loc 1 501 12 is_stmt 0 view .LVU487
 1360 004e 0139     		subs	r1, r1, #1
 1361              	.LVL166:
 1362              		.loc 1 501 12 view .LVU488
 1363 0050 F9E7     		b	.L116
 1364              	.L118:
 502:lvgl/src/misc/lv_mem.c ****     }
 503:lvgl/src/misc/lv_mem.c **** }
 1365              		.loc 1 503 1 view .LVU489
 1366 0052 7047     		bx	lr
 1367              		.cfi_endproc
 1368              	.LFE36:
 1370              		.section	.text.lv_memset_ff,"ax",%progbits
 1371              		.align	1
 1372              		.global	lv_memset_ff
 1373              		.syntax unified
 1374              		.thumb
 1375              		.thumb_func
 1377              	lv_memset_ff:
 1378              	.LVL167:
 1379              	.LFB37:
 504:lvgl/src/misc/lv_mem.c **** 
 505:lvgl/src/misc/lv_mem.c **** /**
ARM GAS  C:\Users\OSD\AppData\Local\Temp\cc2Cqfsc.s 			page 38


 506:lvgl/src/misc/lv_mem.c ****  * Same as `memset(dst, 0xFF, len)` but optimized for 4 byte operation.
 507:lvgl/src/misc/lv_mem.c ****  * @param dst pointer to the destination buffer
 508:lvgl/src/misc/lv_mem.c ****  * @param len number of byte to set
 509:lvgl/src/misc/lv_mem.c ****  */
 510:lvgl/src/misc/lv_mem.c **** void LV_ATTRIBUTE_FAST_MEM lv_memset_ff(void * dst, size_t len)
 511:lvgl/src/misc/lv_mem.c **** {
 1380              		.loc 1 511 1 is_stmt 1 view -0
 1381              		.cfi_startproc
 1382              		@ args = 0, pretend = 0, frame = 0
 1383              		@ frame_needed = 0, uses_anonymous_args = 0
 1384              		@ link register save eliminated.
 512:lvgl/src/misc/lv_mem.c ****     uint8_t * d8 = (uint8_t *)dst;
 1385              		.loc 1 512 5 view .LVU491
 513:lvgl/src/misc/lv_mem.c ****     uintptr_t d_align = (lv_uintptr_t) d8 & ALIGN_MASK;
 1386              		.loc 1 513 5 view .LVU492
 514:lvgl/src/misc/lv_mem.c **** 
 515:lvgl/src/misc/lv_mem.c ****     /*Make the address aligned*/
 516:lvgl/src/misc/lv_mem.c ****     if(d_align) {
 1387              		.loc 1 516 5 view .LVU493
 1388              		.loc 1 516 7 is_stmt 0 view .LVU494
 1389 0000 10F00303 		ands	r3, r0, #3
 1390              	.LVL168:
 1391              		.loc 1 516 7 view .LVU495
 1392 0004 17D0     		beq	.L123
 517:lvgl/src/misc/lv_mem.c ****         d_align = ALIGN_MASK + 1 - d_align;
 1393              		.loc 1 517 9 is_stmt 1 view .LVU496
 1394              		.loc 1 517 17 is_stmt 0 view .LVU497
 1395 0006 C3F10403 		rsb	r3, r3, #4
 1396              	.LVL169:
 518:lvgl/src/misc/lv_mem.c ****         while(d_align && len) {
 1397              		.loc 1 518 9 is_stmt 1 view .LVU498
 1398              	.L121:
 1399              		.loc 1 518 14 view .LVU499
 1400 000a 002B     		cmp	r3, #0
 1401 000c 18BF     		it	ne
 1402 000e 0029     		cmpne	r1, #0
 1403 0010 11D0     		beq	.L123
 519:lvgl/src/misc/lv_mem.c ****             SET8(0xFF);
 1404              		.loc 1 519 13 view .LVU500
 1405 0012 FF22     		movs	r2, #255
 1406 0014 00F8012B 		strb	r2, [r0], #1
 1407              	.LVL170:
 1408              		.loc 1 519 13 view .LVU501
 1409              		.loc 1 519 23 view .LVU502
 520:lvgl/src/misc/lv_mem.c ****             len--;
 1410              		.loc 1 520 13 view .LVU503
 1411              		.loc 1 520 16 is_stmt 0 view .LVU504
 1412 0018 0139     		subs	r1, r1, #1
 1413              	.LVL171:
 521:lvgl/src/misc/lv_mem.c ****             d_align--;
 1414              		.loc 1 521 13 is_stmt 1 view .LVU505
 1415              		.loc 1 521 20 is_stmt 0 view .LVU506
 1416 001a 013B     		subs	r3, r3, #1
 1417              	.LVL172:
 1418              		.loc 1 521 20 view .LVU507
 1419 001c F5E7     		b	.L121
 1420              	.LVL173:
ARM GAS  C:\Users\OSD\AppData\Local\Temp\cc2Cqfsc.s 			page 39


 1421              	.L124:
 522:lvgl/src/misc/lv_mem.c ****         }
 523:lvgl/src/misc/lv_mem.c ****     }
 524:lvgl/src/misc/lv_mem.c **** 
 525:lvgl/src/misc/lv_mem.c ****     uint32_t * d32 = (uint32_t *)d8;
 526:lvgl/src/misc/lv_mem.c ****     while(len > 32) {
 527:lvgl/src/misc/lv_mem.c ****         REPEAT8(SET32(0xFFFFFFFF));
 1422              		.loc 1 527 9 is_stmt 1 view .LVU508
 1423 001e 4FF0FF33 		mov	r3, #-1
 1424 0022 0360     		str	r3, [r0]
 1425              		.loc 1 527 9 view .LVU509
 1426              	.LVL174:
 1427              		.loc 1 527 9 view .LVU510
 1428 0024 4360     		str	r3, [r0, #4]
 1429              		.loc 1 527 9 view .LVU511
 1430              	.LVL175:
 1431              		.loc 1 527 9 view .LVU512
 1432 0026 8360     		str	r3, [r0, #8]
 1433              		.loc 1 527 9 view .LVU513
 1434              	.LVL176:
 1435              		.loc 1 527 9 view .LVU514
 1436 0028 C360     		str	r3, [r0, #12]
 1437              		.loc 1 527 9 view .LVU515
 1438              	.LVL177:
 1439              		.loc 1 527 9 view .LVU516
 1440 002a 0361     		str	r3, [r0, #16]
 1441              		.loc 1 527 9 view .LVU517
 1442              	.LVL178:
 1443              		.loc 1 527 9 view .LVU518
 1444 002c 4361     		str	r3, [r0, #20]
 1445              		.loc 1 527 9 view .LVU519
 1446              	.LVL179:
 1447              		.loc 1 527 9 view .LVU520
 1448 002e 8361     		str	r3, [r0, #24]
 1449              		.loc 1 527 9 view .LVU521
 1450              	.LVL180:
 1451              		.loc 1 527 9 view .LVU522
 1452 0030 C361     		str	r3, [r0, #28]
 1453              		.loc 1 527 9 view .LVU523
 1454 0032 2030     		adds	r0, r0, #32
 1455              	.LVL181:
 1456              		.loc 1 527 35 view .LVU524
 528:lvgl/src/misc/lv_mem.c ****         len -= 32;
 1457              		.loc 1 528 9 view .LVU525
 1458              		.loc 1 528 13 is_stmt 0 view .LVU526
 1459 0034 2039     		subs	r1, r1, #32
 1460              	.LVL182:
 1461              	.L123:
 526:lvgl/src/misc/lv_mem.c ****         REPEAT8(SET32(0xFFFFFFFF));
 1462              		.loc 1 526 10 is_stmt 1 view .LVU527
 1463 0036 2029     		cmp	r1, #32
 1464 0038 F1D8     		bhi	.L124
 526:lvgl/src/misc/lv_mem.c ****         REPEAT8(SET32(0xFFFFFFFF));
 1465              		.loc 1 526 10 is_stmt 0 view .LVU528
 1466 003a 04E0     		b	.L125
 1467              	.L126:
 529:lvgl/src/misc/lv_mem.c ****     }
ARM GAS  C:\Users\OSD\AppData\Local\Temp\cc2Cqfsc.s 			page 40


 530:lvgl/src/misc/lv_mem.c **** 
 531:lvgl/src/misc/lv_mem.c ****     while(len > 4) {
 532:lvgl/src/misc/lv_mem.c ****         SET32(0xFFFFFFFF);
 1468              		.loc 1 532 9 is_stmt 1 view .LVU529
 1469 003c 4FF0FF33 		mov	r3, #-1
 1470 0040 40F8043B 		str	r3, [r0], #4
 1471              	.LVL183:
 1472              		.loc 1 532 9 view .LVU530
 1473              		.loc 1 532 26 view .LVU531
 533:lvgl/src/misc/lv_mem.c ****         len -= 4;
 1474              		.loc 1 533 9 view .LVU532
 1475              		.loc 1 533 13 is_stmt 0 view .LVU533
 1476 0044 0439     		subs	r1, r1, #4
 1477              	.LVL184:
 1478              	.L125:
 531:lvgl/src/misc/lv_mem.c ****         SET32(0xFFFFFFFF);
 1479              		.loc 1 531 10 is_stmt 1 view .LVU534
 1480 0046 0429     		cmp	r1, #4
 1481 0048 F8D8     		bhi	.L126
 1482              	.LVL185:
 1483              	.L127:
 534:lvgl/src/misc/lv_mem.c ****     }
 535:lvgl/src/misc/lv_mem.c **** 
 536:lvgl/src/misc/lv_mem.c ****     d8 = (uint8_t *)d32;
 537:lvgl/src/misc/lv_mem.c ****     while(len) {
 1484              		.loc 1 537 10 view .LVU535
 1485 004a 21B1     		cbz	r1, .L129
 538:lvgl/src/misc/lv_mem.c ****         SET8(0xFF);
 1486              		.loc 1 538 9 view .LVU536
 1487 004c FF23     		movs	r3, #255
 1488 004e 00F8013B 		strb	r3, [r0], #1
 1489              	.LVL186:
 1490              		.loc 1 538 9 view .LVU537
 1491              		.loc 1 538 19 view .LVU538
 539:lvgl/src/misc/lv_mem.c ****         len--;
 1492              		.loc 1 539 9 view .LVU539
 1493              		.loc 1 539 12 is_stmt 0 view .LVU540
 1494 0052 0139     		subs	r1, r1, #1
 1495              	.LVL187:
 1496              		.loc 1 539 12 view .LVU541
 1497 0054 F9E7     		b	.L127
 1498              	.L129:
 540:lvgl/src/misc/lv_mem.c ****     }
 541:lvgl/src/misc/lv_mem.c **** }
 1499              		.loc 1 541 1 view .LVU542
 1500 0056 7047     		bx	lr
 1501              		.cfi_endproc
 1502              	.LFE37:
 1504              		.section	.data.zero_mem,"aw"
 1505              		.align	2
 1506              		.set	.LANCHOR0,. + 0
 1509              	zero_mem:
 1510 0000 D4C3B2A1 		.word	-1582119980
 1511              		.text
 1512              	.Letext0:
 1513              		.file 2 "c:\\tools\\gcc-arm-none-eabi\\arm-none-eabi\\include\\machine\\_default_types.h"
 1514              		.file 3 "c:\\tools\\gcc-arm-none-eabi\\arm-none-eabi\\include\\sys\\_stdint.h"
ARM GAS  C:\Users\OSD\AppData\Local\Temp\cc2Cqfsc.s 			page 41


 1515              		.file 4 "c:\\tools\\gcc-arm-none-eabi\\lib\\gcc\\arm-none-eabi\\10.3.1\\include\\stddef.h"
 1516              		.file 5 "lvgl/src/misc/lv_types.h"
 1517              		.file 6 "lvgl/src/misc/lv_mem.h"
 1518              		.file 7 "lvgl/src/misc/lv_gc.h"
 1519              		.file 8 "c:\\tools\\gcc-arm-none-eabi\\arm-none-eabi\\include\\stdlib.h"
ARM GAS  C:\Users\OSD\AppData\Local\Temp\cc2Cqfsc.s 			page 42


DEFINED SYMBOLS
                            *ABS*:00000000 lv_mem.c
C:\Users\OSD\AppData\Local\Temp\cc2Cqfsc.s:19     .text.lv_mem_init:00000000 $t
C:\Users\OSD\AppData\Local\Temp\cc2Cqfsc.s:25     .text.lv_mem_init:00000000 lv_mem_init
C:\Users\OSD\AppData\Local\Temp\cc2Cqfsc.s:39     .text.lv_mem_deinit:00000000 $t
C:\Users\OSD\AppData\Local\Temp\cc2Cqfsc.s:45     .text.lv_mem_deinit:00000000 lv_mem_deinit
C:\Users\OSD\AppData\Local\Temp\cc2Cqfsc.s:58     .text.lv_mem_alloc:00000000 $t
C:\Users\OSD\AppData\Local\Temp\cc2Cqfsc.s:64     .text.lv_mem_alloc:00000000 lv_mem_alloc
C:\Users\OSD\AppData\Local\Temp\cc2Cqfsc.s:103    .text.lv_mem_alloc:00000010 $d
C:\Users\OSD\AppData\Local\Temp\cc2Cqfsc.s:108    .text.lv_mem_free:00000000 $t
C:\Users\OSD\AppData\Local\Temp\cc2Cqfsc.s:114    .text.lv_mem_free:00000000 lv_mem_free
C:\Users\OSD\AppData\Local\Temp\cc2Cqfsc.s:144    .text.lv_mem_free:00000010 $d
C:\Users\OSD\AppData\Local\Temp\cc2Cqfsc.s:149    .text.lv_mem_realloc:00000000 $t
C:\Users\OSD\AppData\Local\Temp\cc2Cqfsc.s:155    .text.lv_mem_realloc:00000000 lv_mem_realloc
C:\Users\OSD\AppData\Local\Temp\cc2Cqfsc.s:208    .text.lv_mem_realloc:00000020 $d
C:\Users\OSD\AppData\Local\Temp\cc2Cqfsc.s:213    .text.lv_mem_test:00000000 $t
C:\Users\OSD\AppData\Local\Temp\cc2Cqfsc.s:219    .text.lv_mem_test:00000000 lv_mem_test
C:\Users\OSD\AppData\Local\Temp\cc2Cqfsc.s:245    .text.lv_mem_test:00000014 $d
C:\Users\OSD\AppData\Local\Temp\cc2Cqfsc.s:251    .text.lv_mem_buf_get:00000000 $t
C:\Users\OSD\AppData\Local\Temp\cc2Cqfsc.s:257    .text.lv_mem_buf_get:00000000 lv_mem_buf_get
C:\Users\OSD\AppData\Local\Temp\cc2Cqfsc.s:486    .text.lv_mem_buf_get:000000c0 $d
C:\Users\OSD\AppData\Local\Temp\cc2Cqfsc.s:491    .text.lv_mem_buf_release:00000000 $t
C:\Users\OSD\AppData\Local\Temp\cc2Cqfsc.s:497    .text.lv_mem_buf_release:00000000 lv_mem_buf_release
C:\Users\OSD\AppData\Local\Temp\cc2Cqfsc.s:555    .text.lv_mem_buf_release:0000002c $d
C:\Users\OSD\AppData\Local\Temp\cc2Cqfsc.s:560    .text.lv_mem_buf_free_all:00000000 $t
C:\Users\OSD\AppData\Local\Temp\cc2Cqfsc.s:566    .text.lv_mem_buf_free_all:00000000 lv_mem_buf_free_all
C:\Users\OSD\AppData\Local\Temp\cc2Cqfsc.s:632    .text.lv_mem_buf_free_all:00000038 $d
C:\Users\OSD\AppData\Local\Temp\cc2Cqfsc.s:637    .text.lv_memcpy:00000000 $t
C:\Users\OSD\AppData\Local\Temp\cc2Cqfsc.s:643    .text.lv_memcpy:00000000 lv_memcpy
C:\Users\OSD\AppData\Local\Temp\cc2Cqfsc.s:1064   .text.lv_memset:00000000 $t
C:\Users\OSD\AppData\Local\Temp\cc2Cqfsc.s:1070   .text.lv_memset:00000000 lv_memset
C:\Users\OSD\AppData\Local\Temp\cc2Cqfsc.s:1208   .text.lv_mem_monitor:00000000 $t
C:\Users\OSD\AppData\Local\Temp\cc2Cqfsc.s:1214   .text.lv_mem_monitor:00000000 lv_mem_monitor
C:\Users\OSD\AppData\Local\Temp\cc2Cqfsc.s:1237   .text.lv_memset_00:00000000 $t
C:\Users\OSD\AppData\Local\Temp\cc2Cqfsc.s:1243   .text.lv_memset_00:00000000 lv_memset_00
C:\Users\OSD\AppData\Local\Temp\cc2Cqfsc.s:1371   .text.lv_memset_ff:00000000 $t
C:\Users\OSD\AppData\Local\Temp\cc2Cqfsc.s:1377   .text.lv_memset_ff:00000000 lv_memset_ff
C:\Users\OSD\AppData\Local\Temp\cc2Cqfsc.s:1505   .data.zero_mem:00000000 $d
C:\Users\OSD\AppData\Local\Temp\cc2Cqfsc.s:1509   .data.zero_mem:00000000 zero_mem

UNDEFINED SYMBOLS
malloc
free
realloc
lv_mem_buf
