ARM GAS  C:\Users\OSD\AppData\Local\Temp\cc1vuvzH.s 			page 1


   1              		.cpu cortex-m7
   2              		.arch armv7e-m
   3              		.fpu fpv5-d16
   4              		.eabi_attribute 28, 1
   5              		.eabi_attribute 20, 1
   6              		.eabi_attribute 21, 1
   7              		.eabi_attribute 23, 3
   8              		.eabi_attribute 24, 1
   9              		.eabi_attribute 25, 1
  10              		.eabi_attribute 26, 1
  11              		.eabi_attribute 30, 1
  12              		.eabi_attribute 34, 1
  13              		.eabi_attribute 18, 4
  14              		.file	"lv_obj_style_gen.c"
  15              		.text
  16              	.Ltext0:
  17              		.cfi_sections	.debug_frame
  18              		.section	.text.lv_obj_set_style_width,"ax",%progbits
  19              		.align	1
  20              		.global	lv_obj_set_style_width
  21              		.syntax unified
  22              		.thumb
  23              		.thumb_func
  25              	lv_obj_set_style_width:
  26              	.LVL0:
  27              	.LFB161:
  28              		.file 1 "lvgl/src/core/lv_obj_style_gen.c"
   1:lvgl/src/core/lv_obj_style_gen.c **** #include "lv_obj.h"
   2:lvgl/src/core/lv_obj_style_gen.c **** 
   3:lvgl/src/core/lv_obj_style_gen.c **** void lv_obj_set_style_width(struct _lv_obj_t * obj, lv_coord_t value, lv_style_selector_t selector)
   4:lvgl/src/core/lv_obj_style_gen.c **** {
  29              		.loc 1 4 1 view -0
  30              		.cfi_startproc
  31              		@ args = 0, pretend = 0, frame = 0
  32              		@ frame_needed = 0, uses_anonymous_args = 0
  33              		.loc 1 4 1 is_stmt 0 view .LVU1
  34 0000 08B5     		push	{r3, lr}
  35              		.cfi_def_cfa_offset 8
  36              		.cfi_offset 3, -8
  37              		.cfi_offset 14, -4
  38 0002 1346     		mov	r3, r2
   5:lvgl/src/core/lv_obj_style_gen.c ****     lv_style_value_t v = {
  39              		.loc 1 5 5 is_stmt 1 view .LVU2
   6:lvgl/src/core/lv_obj_style_gen.c ****         .num = (int32_t)value
   7:lvgl/src/core/lv_obj_style_gen.c ****     };
   8:lvgl/src/core/lv_obj_style_gen.c ****     lv_obj_set_local_style_prop(obj, LV_STYLE_WIDTH, v, selector);
  40              		.loc 1 8 5 view .LVU3
  41 0004 0A46     		mov	r2, r1
  42              	.LVL1:
  43              		.loc 1 8 5 is_stmt 0 view .LVU4
  44 0006 0121     		movs	r1, #1
  45              	.LVL2:
  46              		.loc 1 8 5 view .LVU5
  47 0008 FFF7FEFF 		bl	lv_obj_set_local_style_prop
  48              	.LVL3:
   9:lvgl/src/core/lv_obj_style_gen.c **** }
  49              		.loc 1 9 1 view .LVU6
ARM GAS  C:\Users\OSD\AppData\Local\Temp\cc1vuvzH.s 			page 2


  50 000c 08BD     		pop	{r3, pc}
  51              		.cfi_endproc
  52              	.LFE161:
  54              		.section	.text.lv_obj_set_style_min_width,"ax",%progbits
  55              		.align	1
  56              		.global	lv_obj_set_style_min_width
  57              		.syntax unified
  58              		.thumb
  59              		.thumb_func
  61              	lv_obj_set_style_min_width:
  62              	.LVL4:
  63              	.LFB162:
  10:lvgl/src/core/lv_obj_style_gen.c **** 
  11:lvgl/src/core/lv_obj_style_gen.c **** void lv_obj_set_style_min_width(struct _lv_obj_t * obj, lv_coord_t value, lv_style_selector_t selec
  12:lvgl/src/core/lv_obj_style_gen.c **** {
  64              		.loc 1 12 1 is_stmt 1 view -0
  65              		.cfi_startproc
  66              		@ args = 0, pretend = 0, frame = 0
  67              		@ frame_needed = 0, uses_anonymous_args = 0
  68              		.loc 1 12 1 is_stmt 0 view .LVU8
  69 0000 08B5     		push	{r3, lr}
  70              		.cfi_def_cfa_offset 8
  71              		.cfi_offset 3, -8
  72              		.cfi_offset 14, -4
  73 0002 1346     		mov	r3, r2
  13:lvgl/src/core/lv_obj_style_gen.c ****     lv_style_value_t v = {
  74              		.loc 1 13 5 is_stmt 1 view .LVU9
  14:lvgl/src/core/lv_obj_style_gen.c ****         .num = (int32_t)value
  15:lvgl/src/core/lv_obj_style_gen.c ****     };
  16:lvgl/src/core/lv_obj_style_gen.c ****     lv_obj_set_local_style_prop(obj, LV_STYLE_MIN_WIDTH, v, selector);
  75              		.loc 1 16 5 view .LVU10
  76 0004 0A46     		mov	r2, r1
  77              	.LVL5:
  78              		.loc 1 16 5 is_stmt 0 view .LVU11
  79 0006 0221     		movs	r1, #2
  80              	.LVL6:
  81              		.loc 1 16 5 view .LVU12
  82 0008 FFF7FEFF 		bl	lv_obj_set_local_style_prop
  83              	.LVL7:
  17:lvgl/src/core/lv_obj_style_gen.c **** }
  84              		.loc 1 17 1 view .LVU13
  85 000c 08BD     		pop	{r3, pc}
  86              		.cfi_endproc
  87              	.LFE162:
  89              		.section	.text.lv_obj_set_style_max_width,"ax",%progbits
  90              		.align	1
  91              		.global	lv_obj_set_style_max_width
  92              		.syntax unified
  93              		.thumb
  94              		.thumb_func
  96              	lv_obj_set_style_max_width:
  97              	.LVL8:
  98              	.LFB163:
  18:lvgl/src/core/lv_obj_style_gen.c **** 
  19:lvgl/src/core/lv_obj_style_gen.c **** void lv_obj_set_style_max_width(struct _lv_obj_t * obj, lv_coord_t value, lv_style_selector_t selec
  20:lvgl/src/core/lv_obj_style_gen.c **** {
  99              		.loc 1 20 1 is_stmt 1 view -0
ARM GAS  C:\Users\OSD\AppData\Local\Temp\cc1vuvzH.s 			page 3


 100              		.cfi_startproc
 101              		@ args = 0, pretend = 0, frame = 0
 102              		@ frame_needed = 0, uses_anonymous_args = 0
 103              		.loc 1 20 1 is_stmt 0 view .LVU15
 104 0000 08B5     		push	{r3, lr}
 105              		.cfi_def_cfa_offset 8
 106              		.cfi_offset 3, -8
 107              		.cfi_offset 14, -4
 108 0002 1346     		mov	r3, r2
  21:lvgl/src/core/lv_obj_style_gen.c ****     lv_style_value_t v = {
 109              		.loc 1 21 5 is_stmt 1 view .LVU16
  22:lvgl/src/core/lv_obj_style_gen.c ****         .num = (int32_t)value
  23:lvgl/src/core/lv_obj_style_gen.c ****     };
  24:lvgl/src/core/lv_obj_style_gen.c ****     lv_obj_set_local_style_prop(obj, LV_STYLE_MAX_WIDTH, v, selector);
 110              		.loc 1 24 5 view .LVU17
 111 0004 0A46     		mov	r2, r1
 112              	.LVL9:
 113              		.loc 1 24 5 is_stmt 0 view .LVU18
 114 0006 0321     		movs	r1, #3
 115              	.LVL10:
 116              		.loc 1 24 5 view .LVU19
 117 0008 FFF7FEFF 		bl	lv_obj_set_local_style_prop
 118              	.LVL11:
  25:lvgl/src/core/lv_obj_style_gen.c **** }
 119              		.loc 1 25 1 view .LVU20
 120 000c 08BD     		pop	{r3, pc}
 121              		.cfi_endproc
 122              	.LFE163:
 124              		.section	.text.lv_obj_set_style_height,"ax",%progbits
 125              		.align	1
 126              		.global	lv_obj_set_style_height
 127              		.syntax unified
 128              		.thumb
 129              		.thumb_func
 131              	lv_obj_set_style_height:
 132              	.LVL12:
 133              	.LFB164:
  26:lvgl/src/core/lv_obj_style_gen.c **** 
  27:lvgl/src/core/lv_obj_style_gen.c **** void lv_obj_set_style_height(struct _lv_obj_t * obj, lv_coord_t value, lv_style_selector_t selector
  28:lvgl/src/core/lv_obj_style_gen.c **** {
 134              		.loc 1 28 1 is_stmt 1 view -0
 135              		.cfi_startproc
 136              		@ args = 0, pretend = 0, frame = 0
 137              		@ frame_needed = 0, uses_anonymous_args = 0
 138              		.loc 1 28 1 is_stmt 0 view .LVU22
 139 0000 08B5     		push	{r3, lr}
 140              		.cfi_def_cfa_offset 8
 141              		.cfi_offset 3, -8
 142              		.cfi_offset 14, -4
 143 0002 1346     		mov	r3, r2
  29:lvgl/src/core/lv_obj_style_gen.c ****     lv_style_value_t v = {
 144              		.loc 1 29 5 is_stmt 1 view .LVU23
  30:lvgl/src/core/lv_obj_style_gen.c ****         .num = (int32_t)value
  31:lvgl/src/core/lv_obj_style_gen.c ****     };
  32:lvgl/src/core/lv_obj_style_gen.c ****     lv_obj_set_local_style_prop(obj, LV_STYLE_HEIGHT, v, selector);
 145              		.loc 1 32 5 view .LVU24
 146 0004 0A46     		mov	r2, r1
ARM GAS  C:\Users\OSD\AppData\Local\Temp\cc1vuvzH.s 			page 4


 147              	.LVL13:
 148              		.loc 1 32 5 is_stmt 0 view .LVU25
 149 0006 0421     		movs	r1, #4
 150              	.LVL14:
 151              		.loc 1 32 5 view .LVU26
 152 0008 FFF7FEFF 		bl	lv_obj_set_local_style_prop
 153              	.LVL15:
  33:lvgl/src/core/lv_obj_style_gen.c **** }
 154              		.loc 1 33 1 view .LVU27
 155 000c 08BD     		pop	{r3, pc}
 156              		.cfi_endproc
 157              	.LFE164:
 159              		.section	.text.lv_obj_set_style_min_height,"ax",%progbits
 160              		.align	1
 161              		.global	lv_obj_set_style_min_height
 162              		.syntax unified
 163              		.thumb
 164              		.thumb_func
 166              	lv_obj_set_style_min_height:
 167              	.LVL16:
 168              	.LFB165:
  34:lvgl/src/core/lv_obj_style_gen.c **** 
  35:lvgl/src/core/lv_obj_style_gen.c **** void lv_obj_set_style_min_height(struct _lv_obj_t * obj, lv_coord_t value, lv_style_selector_t sele
  36:lvgl/src/core/lv_obj_style_gen.c **** {
 169              		.loc 1 36 1 is_stmt 1 view -0
 170              		.cfi_startproc
 171              		@ args = 0, pretend = 0, frame = 0
 172              		@ frame_needed = 0, uses_anonymous_args = 0
 173              		.loc 1 36 1 is_stmt 0 view .LVU29
 174 0000 08B5     		push	{r3, lr}
 175              		.cfi_def_cfa_offset 8
 176              		.cfi_offset 3, -8
 177              		.cfi_offset 14, -4
 178 0002 1346     		mov	r3, r2
  37:lvgl/src/core/lv_obj_style_gen.c ****     lv_style_value_t v = {
 179              		.loc 1 37 5 is_stmt 1 view .LVU30
  38:lvgl/src/core/lv_obj_style_gen.c ****         .num = (int32_t)value
  39:lvgl/src/core/lv_obj_style_gen.c ****     };
  40:lvgl/src/core/lv_obj_style_gen.c ****     lv_obj_set_local_style_prop(obj, LV_STYLE_MIN_HEIGHT, v, selector);
 180              		.loc 1 40 5 view .LVU31
 181 0004 0A46     		mov	r2, r1
 182              	.LVL17:
 183              		.loc 1 40 5 is_stmt 0 view .LVU32
 184 0006 0521     		movs	r1, #5
 185              	.LVL18:
 186              		.loc 1 40 5 view .LVU33
 187 0008 FFF7FEFF 		bl	lv_obj_set_local_style_prop
 188              	.LVL19:
  41:lvgl/src/core/lv_obj_style_gen.c **** }
 189              		.loc 1 41 1 view .LVU34
 190 000c 08BD     		pop	{r3, pc}
 191              		.cfi_endproc
 192              	.LFE165:
 194              		.section	.text.lv_obj_set_style_max_height,"ax",%progbits
 195              		.align	1
 196              		.global	lv_obj_set_style_max_height
 197              		.syntax unified
ARM GAS  C:\Users\OSD\AppData\Local\Temp\cc1vuvzH.s 			page 5


 198              		.thumb
 199              		.thumb_func
 201              	lv_obj_set_style_max_height:
 202              	.LVL20:
 203              	.LFB166:
  42:lvgl/src/core/lv_obj_style_gen.c **** 
  43:lvgl/src/core/lv_obj_style_gen.c **** void lv_obj_set_style_max_height(struct _lv_obj_t * obj, lv_coord_t value, lv_style_selector_t sele
  44:lvgl/src/core/lv_obj_style_gen.c **** {
 204              		.loc 1 44 1 is_stmt 1 view -0
 205              		.cfi_startproc
 206              		@ args = 0, pretend = 0, frame = 0
 207              		@ frame_needed = 0, uses_anonymous_args = 0
 208              		.loc 1 44 1 is_stmt 0 view .LVU36
 209 0000 08B5     		push	{r3, lr}
 210              		.cfi_def_cfa_offset 8
 211              		.cfi_offset 3, -8
 212              		.cfi_offset 14, -4
 213 0002 1346     		mov	r3, r2
  45:lvgl/src/core/lv_obj_style_gen.c ****     lv_style_value_t v = {
 214              		.loc 1 45 5 is_stmt 1 view .LVU37
  46:lvgl/src/core/lv_obj_style_gen.c ****         .num = (int32_t)value
  47:lvgl/src/core/lv_obj_style_gen.c ****     };
  48:lvgl/src/core/lv_obj_style_gen.c ****     lv_obj_set_local_style_prop(obj, LV_STYLE_MAX_HEIGHT, v, selector);
 215              		.loc 1 48 5 view .LVU38
 216 0004 0A46     		mov	r2, r1
 217              	.LVL21:
 218              		.loc 1 48 5 is_stmt 0 view .LVU39
 219 0006 0621     		movs	r1, #6
 220              	.LVL22:
 221              		.loc 1 48 5 view .LVU40
 222 0008 FFF7FEFF 		bl	lv_obj_set_local_style_prop
 223              	.LVL23:
  49:lvgl/src/core/lv_obj_style_gen.c **** }
 224              		.loc 1 49 1 view .LVU41
 225 000c 08BD     		pop	{r3, pc}
 226              		.cfi_endproc
 227              	.LFE166:
 229              		.section	.text.lv_obj_set_style_x,"ax",%progbits
 230              		.align	1
 231              		.global	lv_obj_set_style_x
 232              		.syntax unified
 233              		.thumb
 234              		.thumb_func
 236              	lv_obj_set_style_x:
 237              	.LVL24:
 238              	.LFB167:
  50:lvgl/src/core/lv_obj_style_gen.c **** 
  51:lvgl/src/core/lv_obj_style_gen.c **** void lv_obj_set_style_x(struct _lv_obj_t * obj, lv_coord_t value, lv_style_selector_t selector)
  52:lvgl/src/core/lv_obj_style_gen.c **** {
 239              		.loc 1 52 1 is_stmt 1 view -0
 240              		.cfi_startproc
 241              		@ args = 0, pretend = 0, frame = 0
 242              		@ frame_needed = 0, uses_anonymous_args = 0
 243              		.loc 1 52 1 is_stmt 0 view .LVU43
 244 0000 08B5     		push	{r3, lr}
 245              		.cfi_def_cfa_offset 8
 246              		.cfi_offset 3, -8
ARM GAS  C:\Users\OSD\AppData\Local\Temp\cc1vuvzH.s 			page 6


 247              		.cfi_offset 14, -4
 248 0002 1346     		mov	r3, r2
  53:lvgl/src/core/lv_obj_style_gen.c ****     lv_style_value_t v = {
 249              		.loc 1 53 5 is_stmt 1 view .LVU44
  54:lvgl/src/core/lv_obj_style_gen.c ****         .num = (int32_t)value
  55:lvgl/src/core/lv_obj_style_gen.c ****     };
  56:lvgl/src/core/lv_obj_style_gen.c ****     lv_obj_set_local_style_prop(obj, LV_STYLE_X, v, selector);
 250              		.loc 1 56 5 view .LVU45
 251 0004 0A46     		mov	r2, r1
 252              	.LVL25:
 253              		.loc 1 56 5 is_stmt 0 view .LVU46
 254 0006 0721     		movs	r1, #7
 255              	.LVL26:
 256              		.loc 1 56 5 view .LVU47
 257 0008 FFF7FEFF 		bl	lv_obj_set_local_style_prop
 258              	.LVL27:
  57:lvgl/src/core/lv_obj_style_gen.c **** }
 259              		.loc 1 57 1 view .LVU48
 260 000c 08BD     		pop	{r3, pc}
 261              		.cfi_endproc
 262              	.LFE167:
 264              		.section	.text.lv_obj_set_style_y,"ax",%progbits
 265              		.align	1
 266              		.global	lv_obj_set_style_y
 267              		.syntax unified
 268              		.thumb
 269              		.thumb_func
 271              	lv_obj_set_style_y:
 272              	.LVL28:
 273              	.LFB168:
  58:lvgl/src/core/lv_obj_style_gen.c **** 
  59:lvgl/src/core/lv_obj_style_gen.c **** void lv_obj_set_style_y(struct _lv_obj_t * obj, lv_coord_t value, lv_style_selector_t selector)
  60:lvgl/src/core/lv_obj_style_gen.c **** {
 274              		.loc 1 60 1 is_stmt 1 view -0
 275              		.cfi_startproc
 276              		@ args = 0, pretend = 0, frame = 0
 277              		@ frame_needed = 0, uses_anonymous_args = 0
 278              		.loc 1 60 1 is_stmt 0 view .LVU50
 279 0000 08B5     		push	{r3, lr}
 280              		.cfi_def_cfa_offset 8
 281              		.cfi_offset 3, -8
 282              		.cfi_offset 14, -4
 283 0002 1346     		mov	r3, r2
  61:lvgl/src/core/lv_obj_style_gen.c ****     lv_style_value_t v = {
 284              		.loc 1 61 5 is_stmt 1 view .LVU51
  62:lvgl/src/core/lv_obj_style_gen.c ****         .num = (int32_t)value
  63:lvgl/src/core/lv_obj_style_gen.c ****     };
  64:lvgl/src/core/lv_obj_style_gen.c ****     lv_obj_set_local_style_prop(obj, LV_STYLE_Y, v, selector);
 285              		.loc 1 64 5 view .LVU52
 286 0004 0A46     		mov	r2, r1
 287              	.LVL29:
 288              		.loc 1 64 5 is_stmt 0 view .LVU53
 289 0006 0821     		movs	r1, #8
 290              	.LVL30:
 291              		.loc 1 64 5 view .LVU54
 292 0008 FFF7FEFF 		bl	lv_obj_set_local_style_prop
 293              	.LVL31:
ARM GAS  C:\Users\OSD\AppData\Local\Temp\cc1vuvzH.s 			page 7


  65:lvgl/src/core/lv_obj_style_gen.c **** }
 294              		.loc 1 65 1 view .LVU55
 295 000c 08BD     		pop	{r3, pc}
 296              		.cfi_endproc
 297              	.LFE168:
 299              		.section	.text.lv_obj_set_style_align,"ax",%progbits
 300              		.align	1
 301              		.global	lv_obj_set_style_align
 302              		.syntax unified
 303              		.thumb
 304              		.thumb_func
 306              	lv_obj_set_style_align:
 307              	.LVL32:
 308              	.LFB169:
  66:lvgl/src/core/lv_obj_style_gen.c **** 
  67:lvgl/src/core/lv_obj_style_gen.c **** void lv_obj_set_style_align(struct _lv_obj_t * obj, lv_align_t value, lv_style_selector_t selector)
  68:lvgl/src/core/lv_obj_style_gen.c **** {
 309              		.loc 1 68 1 is_stmt 1 view -0
 310              		.cfi_startproc
 311              		@ args = 0, pretend = 0, frame = 0
 312              		@ frame_needed = 0, uses_anonymous_args = 0
 313              		.loc 1 68 1 is_stmt 0 view .LVU57
 314 0000 08B5     		push	{r3, lr}
 315              		.cfi_def_cfa_offset 8
 316              		.cfi_offset 3, -8
 317              		.cfi_offset 14, -4
 318 0002 1346     		mov	r3, r2
  69:lvgl/src/core/lv_obj_style_gen.c ****     lv_style_value_t v = {
 319              		.loc 1 69 5 is_stmt 1 view .LVU58
  70:lvgl/src/core/lv_obj_style_gen.c ****         .num = (int32_t)value
  71:lvgl/src/core/lv_obj_style_gen.c ****     };
  72:lvgl/src/core/lv_obj_style_gen.c ****     lv_obj_set_local_style_prop(obj, LV_STYLE_ALIGN, v, selector);
 320              		.loc 1 72 5 view .LVU59
 321 0004 0A46     		mov	r2, r1
 322              	.LVL33:
 323              		.loc 1 72 5 is_stmt 0 view .LVU60
 324 0006 0921     		movs	r1, #9
 325              	.LVL34:
 326              		.loc 1 72 5 view .LVU61
 327 0008 FFF7FEFF 		bl	lv_obj_set_local_style_prop
 328              	.LVL35:
  73:lvgl/src/core/lv_obj_style_gen.c **** }
 329              		.loc 1 73 1 view .LVU62
 330 000c 08BD     		pop	{r3, pc}
 331              		.cfi_endproc
 332              	.LFE169:
 334              		.section	.text.lv_obj_set_style_transform_width,"ax",%progbits
 335              		.align	1
 336              		.global	lv_obj_set_style_transform_width
 337              		.syntax unified
 338              		.thumb
 339              		.thumb_func
 341              	lv_obj_set_style_transform_width:
 342              	.LVL36:
 343              	.LFB170:
  74:lvgl/src/core/lv_obj_style_gen.c **** 
  75:lvgl/src/core/lv_obj_style_gen.c **** void lv_obj_set_style_transform_width(struct _lv_obj_t * obj, lv_coord_t value, lv_style_selector_t
ARM GAS  C:\Users\OSD\AppData\Local\Temp\cc1vuvzH.s 			page 8


  76:lvgl/src/core/lv_obj_style_gen.c **** {
 344              		.loc 1 76 1 is_stmt 1 view -0
 345              		.cfi_startproc
 346              		@ args = 0, pretend = 0, frame = 0
 347              		@ frame_needed = 0, uses_anonymous_args = 0
 348              		.loc 1 76 1 is_stmt 0 view .LVU64
 349 0000 08B5     		push	{r3, lr}
 350              		.cfi_def_cfa_offset 8
 351              		.cfi_offset 3, -8
 352              		.cfi_offset 14, -4
 353 0002 1346     		mov	r3, r2
  77:lvgl/src/core/lv_obj_style_gen.c ****     lv_style_value_t v = {
 354              		.loc 1 77 5 is_stmt 1 view .LVU65
  78:lvgl/src/core/lv_obj_style_gen.c ****         .num = (int32_t)value
  79:lvgl/src/core/lv_obj_style_gen.c ****     };
  80:lvgl/src/core/lv_obj_style_gen.c ****     lv_obj_set_local_style_prop(obj, LV_STYLE_TRANSFORM_WIDTH, v, selector);
 355              		.loc 1 80 5 view .LVU66
 356 0004 0A46     		mov	r2, r1
 357              	.LVL37:
 358              		.loc 1 80 5 is_stmt 0 view .LVU67
 359 0006 6921     		movs	r1, #105
 360              	.LVL38:
 361              		.loc 1 80 5 view .LVU68
 362 0008 FFF7FEFF 		bl	lv_obj_set_local_style_prop
 363              	.LVL39:
  81:lvgl/src/core/lv_obj_style_gen.c **** }
 364              		.loc 1 81 1 view .LVU69
 365 000c 08BD     		pop	{r3, pc}
 366              		.cfi_endproc
 367              	.LFE170:
 369              		.section	.text.lv_obj_set_style_transform_height,"ax",%progbits
 370              		.align	1
 371              		.global	lv_obj_set_style_transform_height
 372              		.syntax unified
 373              		.thumb
 374              		.thumb_func
 376              	lv_obj_set_style_transform_height:
 377              	.LVL40:
 378              	.LFB171:
  82:lvgl/src/core/lv_obj_style_gen.c **** 
  83:lvgl/src/core/lv_obj_style_gen.c **** void lv_obj_set_style_transform_height(struct _lv_obj_t * obj, lv_coord_t value, lv_style_selector_
  84:lvgl/src/core/lv_obj_style_gen.c **** {
 379              		.loc 1 84 1 is_stmt 1 view -0
 380              		.cfi_startproc
 381              		@ args = 0, pretend = 0, frame = 0
 382              		@ frame_needed = 0, uses_anonymous_args = 0
 383              		.loc 1 84 1 is_stmt 0 view .LVU71
 384 0000 08B5     		push	{r3, lr}
 385              		.cfi_def_cfa_offset 8
 386              		.cfi_offset 3, -8
 387              		.cfi_offset 14, -4
 388 0002 1346     		mov	r3, r2
  85:lvgl/src/core/lv_obj_style_gen.c ****     lv_style_value_t v = {
 389              		.loc 1 85 5 is_stmt 1 view .LVU72
  86:lvgl/src/core/lv_obj_style_gen.c ****         .num = (int32_t)value
  87:lvgl/src/core/lv_obj_style_gen.c ****     };
  88:lvgl/src/core/lv_obj_style_gen.c ****     lv_obj_set_local_style_prop(obj, LV_STYLE_TRANSFORM_HEIGHT, v, selector);
ARM GAS  C:\Users\OSD\AppData\Local\Temp\cc1vuvzH.s 			page 9


 390              		.loc 1 88 5 view .LVU73
 391 0004 0A46     		mov	r2, r1
 392              	.LVL41:
 393              		.loc 1 88 5 is_stmt 0 view .LVU74
 394 0006 6A21     		movs	r1, #106
 395              	.LVL42:
 396              		.loc 1 88 5 view .LVU75
 397 0008 FFF7FEFF 		bl	lv_obj_set_local_style_prop
 398              	.LVL43:
  89:lvgl/src/core/lv_obj_style_gen.c **** }
 399              		.loc 1 89 1 view .LVU76
 400 000c 08BD     		pop	{r3, pc}
 401              		.cfi_endproc
 402              	.LFE171:
 404              		.section	.text.lv_obj_set_style_translate_x,"ax",%progbits
 405              		.align	1
 406              		.global	lv_obj_set_style_translate_x
 407              		.syntax unified
 408              		.thumb
 409              		.thumb_func
 411              	lv_obj_set_style_translate_x:
 412              	.LVL44:
 413              	.LFB172:
  90:lvgl/src/core/lv_obj_style_gen.c **** 
  91:lvgl/src/core/lv_obj_style_gen.c **** void lv_obj_set_style_translate_x(struct _lv_obj_t * obj, lv_coord_t value, lv_style_selector_t sel
  92:lvgl/src/core/lv_obj_style_gen.c **** {
 414              		.loc 1 92 1 is_stmt 1 view -0
 415              		.cfi_startproc
 416              		@ args = 0, pretend = 0, frame = 0
 417              		@ frame_needed = 0, uses_anonymous_args = 0
 418              		.loc 1 92 1 is_stmt 0 view .LVU78
 419 0000 08B5     		push	{r3, lr}
 420              		.cfi_def_cfa_offset 8
 421              		.cfi_offset 3, -8
 422              		.cfi_offset 14, -4
 423 0002 1346     		mov	r3, r2
  93:lvgl/src/core/lv_obj_style_gen.c ****     lv_style_value_t v = {
 424              		.loc 1 93 5 is_stmt 1 view .LVU79
  94:lvgl/src/core/lv_obj_style_gen.c ****         .num = (int32_t)value
  95:lvgl/src/core/lv_obj_style_gen.c ****     };
  96:lvgl/src/core/lv_obj_style_gen.c ****     lv_obj_set_local_style_prop(obj, LV_STYLE_TRANSLATE_X, v, selector);
 425              		.loc 1 96 5 view .LVU80
 426 0004 0A46     		mov	r2, r1
 427              	.LVL45:
 428              		.loc 1 96 5 is_stmt 0 view .LVU81
 429 0006 6B21     		movs	r1, #107
 430              	.LVL46:
 431              		.loc 1 96 5 view .LVU82
 432 0008 FFF7FEFF 		bl	lv_obj_set_local_style_prop
 433              	.LVL47:
  97:lvgl/src/core/lv_obj_style_gen.c **** }
 434              		.loc 1 97 1 view .LVU83
 435 000c 08BD     		pop	{r3, pc}
 436              		.cfi_endproc
 437              	.LFE172:
 439              		.section	.text.lv_obj_set_style_translate_y,"ax",%progbits
 440              		.align	1
ARM GAS  C:\Users\OSD\AppData\Local\Temp\cc1vuvzH.s 			page 10


 441              		.global	lv_obj_set_style_translate_y
 442              		.syntax unified
 443              		.thumb
 444              		.thumb_func
 446              	lv_obj_set_style_translate_y:
 447              	.LVL48:
 448              	.LFB173:
  98:lvgl/src/core/lv_obj_style_gen.c **** 
  99:lvgl/src/core/lv_obj_style_gen.c **** void lv_obj_set_style_translate_y(struct _lv_obj_t * obj, lv_coord_t value, lv_style_selector_t sel
 100:lvgl/src/core/lv_obj_style_gen.c **** {
 449              		.loc 1 100 1 is_stmt 1 view -0
 450              		.cfi_startproc
 451              		@ args = 0, pretend = 0, frame = 0
 452              		@ frame_needed = 0, uses_anonymous_args = 0
 453              		.loc 1 100 1 is_stmt 0 view .LVU85
 454 0000 08B5     		push	{r3, lr}
 455              		.cfi_def_cfa_offset 8
 456              		.cfi_offset 3, -8
 457              		.cfi_offset 14, -4
 458 0002 1346     		mov	r3, r2
 101:lvgl/src/core/lv_obj_style_gen.c ****     lv_style_value_t v = {
 459              		.loc 1 101 5 is_stmt 1 view .LVU86
 102:lvgl/src/core/lv_obj_style_gen.c ****         .num = (int32_t)value
 103:lvgl/src/core/lv_obj_style_gen.c ****     };
 104:lvgl/src/core/lv_obj_style_gen.c ****     lv_obj_set_local_style_prop(obj, LV_STYLE_TRANSLATE_Y, v, selector);
 460              		.loc 1 104 5 view .LVU87
 461 0004 0A46     		mov	r2, r1
 462              	.LVL49:
 463              		.loc 1 104 5 is_stmt 0 view .LVU88
 464 0006 6C21     		movs	r1, #108
 465              	.LVL50:
 466              		.loc 1 104 5 view .LVU89
 467 0008 FFF7FEFF 		bl	lv_obj_set_local_style_prop
 468              	.LVL51:
 105:lvgl/src/core/lv_obj_style_gen.c **** }
 469              		.loc 1 105 1 view .LVU90
 470 000c 08BD     		pop	{r3, pc}
 471              		.cfi_endproc
 472              	.LFE173:
 474              		.section	.text.lv_obj_set_style_transform_zoom,"ax",%progbits
 475              		.align	1
 476              		.global	lv_obj_set_style_transform_zoom
 477              		.syntax unified
 478              		.thumb
 479              		.thumb_func
 481              	lv_obj_set_style_transform_zoom:
 482              	.LVL52:
 483              	.LFB174:
 106:lvgl/src/core/lv_obj_style_gen.c **** 
 107:lvgl/src/core/lv_obj_style_gen.c **** void lv_obj_set_style_transform_zoom(struct _lv_obj_t * obj, lv_coord_t value, lv_style_selector_t 
 108:lvgl/src/core/lv_obj_style_gen.c **** {
 484              		.loc 1 108 1 is_stmt 1 view -0
 485              		.cfi_startproc
 486              		@ args = 0, pretend = 0, frame = 0
 487              		@ frame_needed = 0, uses_anonymous_args = 0
 488              		.loc 1 108 1 is_stmt 0 view .LVU92
 489 0000 08B5     		push	{r3, lr}
ARM GAS  C:\Users\OSD\AppData\Local\Temp\cc1vuvzH.s 			page 11


 490              		.cfi_def_cfa_offset 8
 491              		.cfi_offset 3, -8
 492              		.cfi_offset 14, -4
 493 0002 1346     		mov	r3, r2
 109:lvgl/src/core/lv_obj_style_gen.c ****     lv_style_value_t v = {
 494              		.loc 1 109 5 is_stmt 1 view .LVU93
 110:lvgl/src/core/lv_obj_style_gen.c ****         .num = (int32_t)value
 111:lvgl/src/core/lv_obj_style_gen.c ****     };
 112:lvgl/src/core/lv_obj_style_gen.c ****     lv_obj_set_local_style_prop(obj, LV_STYLE_TRANSFORM_ZOOM, v, selector);
 495              		.loc 1 112 5 view .LVU94
 496 0004 0A46     		mov	r2, r1
 497              	.LVL53:
 498              		.loc 1 112 5 is_stmt 0 view .LVU95
 499 0006 6D21     		movs	r1, #109
 500              	.LVL54:
 501              		.loc 1 112 5 view .LVU96
 502 0008 FFF7FEFF 		bl	lv_obj_set_local_style_prop
 503              	.LVL55:
 113:lvgl/src/core/lv_obj_style_gen.c **** }
 504              		.loc 1 113 1 view .LVU97
 505 000c 08BD     		pop	{r3, pc}
 506              		.cfi_endproc
 507              	.LFE174:
 509              		.section	.text.lv_obj_set_style_transform_angle,"ax",%progbits
 510              		.align	1
 511              		.global	lv_obj_set_style_transform_angle
 512              		.syntax unified
 513              		.thumb
 514              		.thumb_func
 516              	lv_obj_set_style_transform_angle:
 517              	.LVL56:
 518              	.LFB175:
 114:lvgl/src/core/lv_obj_style_gen.c **** 
 115:lvgl/src/core/lv_obj_style_gen.c **** void lv_obj_set_style_transform_angle(struct _lv_obj_t * obj, lv_coord_t value, lv_style_selector_t
 116:lvgl/src/core/lv_obj_style_gen.c **** {
 519              		.loc 1 116 1 is_stmt 1 view -0
 520              		.cfi_startproc
 521              		@ args = 0, pretend = 0, frame = 0
 522              		@ frame_needed = 0, uses_anonymous_args = 0
 523              		.loc 1 116 1 is_stmt 0 view .LVU99
 524 0000 08B5     		push	{r3, lr}
 525              		.cfi_def_cfa_offset 8
 526              		.cfi_offset 3, -8
 527              		.cfi_offset 14, -4
 528 0002 1346     		mov	r3, r2
 117:lvgl/src/core/lv_obj_style_gen.c ****     lv_style_value_t v = {
 529              		.loc 1 117 5 is_stmt 1 view .LVU100
 118:lvgl/src/core/lv_obj_style_gen.c ****         .num = (int32_t)value
 119:lvgl/src/core/lv_obj_style_gen.c ****     };
 120:lvgl/src/core/lv_obj_style_gen.c ****     lv_obj_set_local_style_prop(obj, LV_STYLE_TRANSFORM_ANGLE, v, selector);
 530              		.loc 1 120 5 view .LVU101
 531 0004 0A46     		mov	r2, r1
 532              	.LVL57:
 533              		.loc 1 120 5 is_stmt 0 view .LVU102
 534 0006 6E21     		movs	r1, #110
 535              	.LVL58:
 536              		.loc 1 120 5 view .LVU103
ARM GAS  C:\Users\OSD\AppData\Local\Temp\cc1vuvzH.s 			page 12


 537 0008 FFF7FEFF 		bl	lv_obj_set_local_style_prop
 538              	.LVL59:
 121:lvgl/src/core/lv_obj_style_gen.c **** }
 539              		.loc 1 121 1 view .LVU104
 540 000c 08BD     		pop	{r3, pc}
 541              		.cfi_endproc
 542              	.LFE175:
 544              		.section	.text.lv_obj_set_style_transform_pivot_x,"ax",%progbits
 545              		.align	1
 546              		.global	lv_obj_set_style_transform_pivot_x
 547              		.syntax unified
 548              		.thumb
 549              		.thumb_func
 551              	lv_obj_set_style_transform_pivot_x:
 552              	.LVL60:
 553              	.LFB176:
 122:lvgl/src/core/lv_obj_style_gen.c **** 
 123:lvgl/src/core/lv_obj_style_gen.c **** void lv_obj_set_style_transform_pivot_x(struct _lv_obj_t * obj, lv_coord_t value, lv_style_selector
 124:lvgl/src/core/lv_obj_style_gen.c **** {
 554              		.loc 1 124 1 is_stmt 1 view -0
 555              		.cfi_startproc
 556              		@ args = 0, pretend = 0, frame = 0
 557              		@ frame_needed = 0, uses_anonymous_args = 0
 558              		.loc 1 124 1 is_stmt 0 view .LVU106
 559 0000 08B5     		push	{r3, lr}
 560              		.cfi_def_cfa_offset 8
 561              		.cfi_offset 3, -8
 562              		.cfi_offset 14, -4
 563 0002 1346     		mov	r3, r2
 125:lvgl/src/core/lv_obj_style_gen.c ****     lv_style_value_t v = {
 564              		.loc 1 125 5 is_stmt 1 view .LVU107
 126:lvgl/src/core/lv_obj_style_gen.c ****         .num = (int32_t)value
 127:lvgl/src/core/lv_obj_style_gen.c ****     };
 128:lvgl/src/core/lv_obj_style_gen.c ****     lv_obj_set_local_style_prop(obj, LV_STYLE_TRANSFORM_PIVOT_X, v, selector);
 565              		.loc 1 128 5 view .LVU108
 566 0004 0A46     		mov	r2, r1
 567              	.LVL61:
 568              		.loc 1 128 5 is_stmt 0 view .LVU109
 569 0006 6F21     		movs	r1, #111
 570              	.LVL62:
 571              		.loc 1 128 5 view .LVU110
 572 0008 FFF7FEFF 		bl	lv_obj_set_local_style_prop
 573              	.LVL63:
 129:lvgl/src/core/lv_obj_style_gen.c **** }
 574              		.loc 1 129 1 view .LVU111
 575 000c 08BD     		pop	{r3, pc}
 576              		.cfi_endproc
 577              	.LFE176:
 579              		.section	.text.lv_obj_set_style_transform_pivot_y,"ax",%progbits
 580              		.align	1
 581              		.global	lv_obj_set_style_transform_pivot_y
 582              		.syntax unified
 583              		.thumb
 584              		.thumb_func
 586              	lv_obj_set_style_transform_pivot_y:
 587              	.LVL64:
 588              	.LFB177:
ARM GAS  C:\Users\OSD\AppData\Local\Temp\cc1vuvzH.s 			page 13


 130:lvgl/src/core/lv_obj_style_gen.c **** 
 131:lvgl/src/core/lv_obj_style_gen.c **** void lv_obj_set_style_transform_pivot_y(struct _lv_obj_t * obj, lv_coord_t value, lv_style_selector
 132:lvgl/src/core/lv_obj_style_gen.c **** {
 589              		.loc 1 132 1 is_stmt 1 view -0
 590              		.cfi_startproc
 591              		@ args = 0, pretend = 0, frame = 0
 592              		@ frame_needed = 0, uses_anonymous_args = 0
 593              		.loc 1 132 1 is_stmt 0 view .LVU113
 594 0000 08B5     		push	{r3, lr}
 595              		.cfi_def_cfa_offset 8
 596              		.cfi_offset 3, -8
 597              		.cfi_offset 14, -4
 598 0002 1346     		mov	r3, r2
 133:lvgl/src/core/lv_obj_style_gen.c ****     lv_style_value_t v = {
 599              		.loc 1 133 5 is_stmt 1 view .LVU114
 134:lvgl/src/core/lv_obj_style_gen.c ****         .num = (int32_t)value
 135:lvgl/src/core/lv_obj_style_gen.c ****     };
 136:lvgl/src/core/lv_obj_style_gen.c ****     lv_obj_set_local_style_prop(obj, LV_STYLE_TRANSFORM_PIVOT_Y, v, selector);
 600              		.loc 1 136 5 view .LVU115
 601 0004 0A46     		mov	r2, r1
 602              	.LVL65:
 603              		.loc 1 136 5 is_stmt 0 view .LVU116
 604 0006 7021     		movs	r1, #112
 605              	.LVL66:
 606              		.loc 1 136 5 view .LVU117
 607 0008 FFF7FEFF 		bl	lv_obj_set_local_style_prop
 608              	.LVL67:
 137:lvgl/src/core/lv_obj_style_gen.c **** }
 609              		.loc 1 137 1 view .LVU118
 610 000c 08BD     		pop	{r3, pc}
 611              		.cfi_endproc
 612              	.LFE177:
 614              		.section	.text.lv_obj_set_style_pad_top,"ax",%progbits
 615              		.align	1
 616              		.global	lv_obj_set_style_pad_top
 617              		.syntax unified
 618              		.thumb
 619              		.thumb_func
 621              	lv_obj_set_style_pad_top:
 622              	.LVL68:
 623              	.LFB178:
 138:lvgl/src/core/lv_obj_style_gen.c **** 
 139:lvgl/src/core/lv_obj_style_gen.c **** void lv_obj_set_style_pad_top(struct _lv_obj_t * obj, lv_coord_t value, lv_style_selector_t selecto
 140:lvgl/src/core/lv_obj_style_gen.c **** {
 624              		.loc 1 140 1 is_stmt 1 view -0
 625              		.cfi_startproc
 626              		@ args = 0, pretend = 0, frame = 0
 627              		@ frame_needed = 0, uses_anonymous_args = 0
 628              		.loc 1 140 1 is_stmt 0 view .LVU120
 629 0000 08B5     		push	{r3, lr}
 630              		.cfi_def_cfa_offset 8
 631              		.cfi_offset 3, -8
 632              		.cfi_offset 14, -4
 633 0002 1346     		mov	r3, r2
 141:lvgl/src/core/lv_obj_style_gen.c ****     lv_style_value_t v = {
 634              		.loc 1 141 5 is_stmt 1 view .LVU121
 142:lvgl/src/core/lv_obj_style_gen.c ****         .num = (int32_t)value
ARM GAS  C:\Users\OSD\AppData\Local\Temp\cc1vuvzH.s 			page 14


 143:lvgl/src/core/lv_obj_style_gen.c ****     };
 144:lvgl/src/core/lv_obj_style_gen.c ****     lv_obj_set_local_style_prop(obj, LV_STYLE_PAD_TOP, v, selector);
 635              		.loc 1 144 5 view .LVU122
 636 0004 0A46     		mov	r2, r1
 637              	.LVL69:
 638              		.loc 1 144 5 is_stmt 0 view .LVU123
 639 0006 1021     		movs	r1, #16
 640              	.LVL70:
 641              		.loc 1 144 5 view .LVU124
 642 0008 FFF7FEFF 		bl	lv_obj_set_local_style_prop
 643              	.LVL71:
 145:lvgl/src/core/lv_obj_style_gen.c **** }
 644              		.loc 1 145 1 view .LVU125
 645 000c 08BD     		pop	{r3, pc}
 646              		.cfi_endproc
 647              	.LFE178:
 649              		.section	.text.lv_obj_set_style_pad_bottom,"ax",%progbits
 650              		.align	1
 651              		.global	lv_obj_set_style_pad_bottom
 652              		.syntax unified
 653              		.thumb
 654              		.thumb_func
 656              	lv_obj_set_style_pad_bottom:
 657              	.LVL72:
 658              	.LFB179:
 146:lvgl/src/core/lv_obj_style_gen.c **** 
 147:lvgl/src/core/lv_obj_style_gen.c **** void lv_obj_set_style_pad_bottom(struct _lv_obj_t * obj, lv_coord_t value, lv_style_selector_t sele
 148:lvgl/src/core/lv_obj_style_gen.c **** {
 659              		.loc 1 148 1 is_stmt 1 view -0
 660              		.cfi_startproc
 661              		@ args = 0, pretend = 0, frame = 0
 662              		@ frame_needed = 0, uses_anonymous_args = 0
 663              		.loc 1 148 1 is_stmt 0 view .LVU127
 664 0000 08B5     		push	{r3, lr}
 665              		.cfi_def_cfa_offset 8
 666              		.cfi_offset 3, -8
 667              		.cfi_offset 14, -4
 668 0002 1346     		mov	r3, r2
 149:lvgl/src/core/lv_obj_style_gen.c ****     lv_style_value_t v = {
 669              		.loc 1 149 5 is_stmt 1 view .LVU128
 150:lvgl/src/core/lv_obj_style_gen.c ****         .num = (int32_t)value
 151:lvgl/src/core/lv_obj_style_gen.c ****     };
 152:lvgl/src/core/lv_obj_style_gen.c ****     lv_obj_set_local_style_prop(obj, LV_STYLE_PAD_BOTTOM, v, selector);
 670              		.loc 1 152 5 view .LVU129
 671 0004 0A46     		mov	r2, r1
 672              	.LVL73:
 673              		.loc 1 152 5 is_stmt 0 view .LVU130
 674 0006 1121     		movs	r1, #17
 675              	.LVL74:
 676              		.loc 1 152 5 view .LVU131
 677 0008 FFF7FEFF 		bl	lv_obj_set_local_style_prop
 678              	.LVL75:
 153:lvgl/src/core/lv_obj_style_gen.c **** }
 679              		.loc 1 153 1 view .LVU132
 680 000c 08BD     		pop	{r3, pc}
 681              		.cfi_endproc
 682              	.LFE179:
ARM GAS  C:\Users\OSD\AppData\Local\Temp\cc1vuvzH.s 			page 15


 684              		.section	.text.lv_obj_set_style_pad_left,"ax",%progbits
 685              		.align	1
 686              		.global	lv_obj_set_style_pad_left
 687              		.syntax unified
 688              		.thumb
 689              		.thumb_func
 691              	lv_obj_set_style_pad_left:
 692              	.LVL76:
 693              	.LFB180:
 154:lvgl/src/core/lv_obj_style_gen.c **** 
 155:lvgl/src/core/lv_obj_style_gen.c **** void lv_obj_set_style_pad_left(struct _lv_obj_t * obj, lv_coord_t value, lv_style_selector_t select
 156:lvgl/src/core/lv_obj_style_gen.c **** {
 694              		.loc 1 156 1 is_stmt 1 view -0
 695              		.cfi_startproc
 696              		@ args = 0, pretend = 0, frame = 0
 697              		@ frame_needed = 0, uses_anonymous_args = 0
 698              		.loc 1 156 1 is_stmt 0 view .LVU134
 699 0000 08B5     		push	{r3, lr}
 700              		.cfi_def_cfa_offset 8
 701              		.cfi_offset 3, -8
 702              		.cfi_offset 14, -4
 703 0002 1346     		mov	r3, r2
 157:lvgl/src/core/lv_obj_style_gen.c ****     lv_style_value_t v = {
 704              		.loc 1 157 5 is_stmt 1 view .LVU135
 158:lvgl/src/core/lv_obj_style_gen.c ****         .num = (int32_t)value
 159:lvgl/src/core/lv_obj_style_gen.c ****     };
 160:lvgl/src/core/lv_obj_style_gen.c ****     lv_obj_set_local_style_prop(obj, LV_STYLE_PAD_LEFT, v, selector);
 705              		.loc 1 160 5 view .LVU136
 706 0004 0A46     		mov	r2, r1
 707              	.LVL77:
 708              		.loc 1 160 5 is_stmt 0 view .LVU137
 709 0006 1221     		movs	r1, #18
 710              	.LVL78:
 711              		.loc 1 160 5 view .LVU138
 712 0008 FFF7FEFF 		bl	lv_obj_set_local_style_prop
 713              	.LVL79:
 161:lvgl/src/core/lv_obj_style_gen.c **** }
 714              		.loc 1 161 1 view .LVU139
 715 000c 08BD     		pop	{r3, pc}
 716              		.cfi_endproc
 717              	.LFE180:
 719              		.section	.text.lv_obj_set_style_pad_right,"ax",%progbits
 720              		.align	1
 721              		.global	lv_obj_set_style_pad_right
 722              		.syntax unified
 723              		.thumb
 724              		.thumb_func
 726              	lv_obj_set_style_pad_right:
 727              	.LVL80:
 728              	.LFB181:
 162:lvgl/src/core/lv_obj_style_gen.c **** 
 163:lvgl/src/core/lv_obj_style_gen.c **** void lv_obj_set_style_pad_right(struct _lv_obj_t * obj, lv_coord_t value, lv_style_selector_t selec
 164:lvgl/src/core/lv_obj_style_gen.c **** {
 729              		.loc 1 164 1 is_stmt 1 view -0
 730              		.cfi_startproc
 731              		@ args = 0, pretend = 0, frame = 0
 732              		@ frame_needed = 0, uses_anonymous_args = 0
ARM GAS  C:\Users\OSD\AppData\Local\Temp\cc1vuvzH.s 			page 16


 733              		.loc 1 164 1 is_stmt 0 view .LVU141
 734 0000 08B5     		push	{r3, lr}
 735              		.cfi_def_cfa_offset 8
 736              		.cfi_offset 3, -8
 737              		.cfi_offset 14, -4
 738 0002 1346     		mov	r3, r2
 165:lvgl/src/core/lv_obj_style_gen.c ****     lv_style_value_t v = {
 739              		.loc 1 165 5 is_stmt 1 view .LVU142
 166:lvgl/src/core/lv_obj_style_gen.c ****         .num = (int32_t)value
 167:lvgl/src/core/lv_obj_style_gen.c ****     };
 168:lvgl/src/core/lv_obj_style_gen.c ****     lv_obj_set_local_style_prop(obj, LV_STYLE_PAD_RIGHT, v, selector);
 740              		.loc 1 168 5 view .LVU143
 741 0004 0A46     		mov	r2, r1
 742              	.LVL81:
 743              		.loc 1 168 5 is_stmt 0 view .LVU144
 744 0006 1321     		movs	r1, #19
 745              	.LVL82:
 746              		.loc 1 168 5 view .LVU145
 747 0008 FFF7FEFF 		bl	lv_obj_set_local_style_prop
 748              	.LVL83:
 169:lvgl/src/core/lv_obj_style_gen.c **** }
 749              		.loc 1 169 1 view .LVU146
 750 000c 08BD     		pop	{r3, pc}
 751              		.cfi_endproc
 752              	.LFE181:
 754              		.section	.text.lv_obj_set_style_pad_row,"ax",%progbits
 755              		.align	1
 756              		.global	lv_obj_set_style_pad_row
 757              		.syntax unified
 758              		.thumb
 759              		.thumb_func
 761              	lv_obj_set_style_pad_row:
 762              	.LVL84:
 763              	.LFB182:
 170:lvgl/src/core/lv_obj_style_gen.c **** 
 171:lvgl/src/core/lv_obj_style_gen.c **** void lv_obj_set_style_pad_row(struct _lv_obj_t * obj, lv_coord_t value, lv_style_selector_t selecto
 172:lvgl/src/core/lv_obj_style_gen.c **** {
 764              		.loc 1 172 1 is_stmt 1 view -0
 765              		.cfi_startproc
 766              		@ args = 0, pretend = 0, frame = 0
 767              		@ frame_needed = 0, uses_anonymous_args = 0
 768              		.loc 1 172 1 is_stmt 0 view .LVU148
 769 0000 08B5     		push	{r3, lr}
 770              		.cfi_def_cfa_offset 8
 771              		.cfi_offset 3, -8
 772              		.cfi_offset 14, -4
 773 0002 1346     		mov	r3, r2
 173:lvgl/src/core/lv_obj_style_gen.c ****     lv_style_value_t v = {
 774              		.loc 1 173 5 is_stmt 1 view .LVU149
 174:lvgl/src/core/lv_obj_style_gen.c ****         .num = (int32_t)value
 175:lvgl/src/core/lv_obj_style_gen.c ****     };
 176:lvgl/src/core/lv_obj_style_gen.c ****     lv_obj_set_local_style_prop(obj, LV_STYLE_PAD_ROW, v, selector);
 775              		.loc 1 176 5 view .LVU150
 776 0004 0A46     		mov	r2, r1
 777              	.LVL85:
 778              		.loc 1 176 5 is_stmt 0 view .LVU151
 779 0006 1421     		movs	r1, #20
ARM GAS  C:\Users\OSD\AppData\Local\Temp\cc1vuvzH.s 			page 17


 780              	.LVL86:
 781              		.loc 1 176 5 view .LVU152
 782 0008 FFF7FEFF 		bl	lv_obj_set_local_style_prop
 783              	.LVL87:
 177:lvgl/src/core/lv_obj_style_gen.c **** }
 784              		.loc 1 177 1 view .LVU153
 785 000c 08BD     		pop	{r3, pc}
 786              		.cfi_endproc
 787              	.LFE182:
 789              		.section	.text.lv_obj_set_style_pad_column,"ax",%progbits
 790              		.align	1
 791              		.global	lv_obj_set_style_pad_column
 792              		.syntax unified
 793              		.thumb
 794              		.thumb_func
 796              	lv_obj_set_style_pad_column:
 797              	.LVL88:
 798              	.LFB183:
 178:lvgl/src/core/lv_obj_style_gen.c **** 
 179:lvgl/src/core/lv_obj_style_gen.c **** void lv_obj_set_style_pad_column(struct _lv_obj_t * obj, lv_coord_t value, lv_style_selector_t sele
 180:lvgl/src/core/lv_obj_style_gen.c **** {
 799              		.loc 1 180 1 is_stmt 1 view -0
 800              		.cfi_startproc
 801              		@ args = 0, pretend = 0, frame = 0
 802              		@ frame_needed = 0, uses_anonymous_args = 0
 803              		.loc 1 180 1 is_stmt 0 view .LVU155
 804 0000 08B5     		push	{r3, lr}
 805              		.cfi_def_cfa_offset 8
 806              		.cfi_offset 3, -8
 807              		.cfi_offset 14, -4
 808 0002 1346     		mov	r3, r2
 181:lvgl/src/core/lv_obj_style_gen.c ****     lv_style_value_t v = {
 809              		.loc 1 181 5 is_stmt 1 view .LVU156
 182:lvgl/src/core/lv_obj_style_gen.c ****         .num = (int32_t)value
 183:lvgl/src/core/lv_obj_style_gen.c ****     };
 184:lvgl/src/core/lv_obj_style_gen.c ****     lv_obj_set_local_style_prop(obj, LV_STYLE_PAD_COLUMN, v, selector);
 810              		.loc 1 184 5 view .LVU157
 811 0004 0A46     		mov	r2, r1
 812              	.LVL89:
 813              		.loc 1 184 5 is_stmt 0 view .LVU158
 814 0006 1521     		movs	r1, #21
 815              	.LVL90:
 816              		.loc 1 184 5 view .LVU159
 817 0008 FFF7FEFF 		bl	lv_obj_set_local_style_prop
 818              	.LVL91:
 185:lvgl/src/core/lv_obj_style_gen.c **** }
 819              		.loc 1 185 1 view .LVU160
 820 000c 08BD     		pop	{r3, pc}
 821              		.cfi_endproc
 822              	.LFE183:
 824              		.section	.text.lv_obj_set_style_bg_color,"ax",%progbits
 825              		.align	1
 826              		.global	lv_obj_set_style_bg_color
 827              		.syntax unified
 828              		.thumb
 829              		.thumb_func
 831              	lv_obj_set_style_bg_color:
ARM GAS  C:\Users\OSD\AppData\Local\Temp\cc1vuvzH.s 			page 18


 832              	.LVL92:
 833              	.LFB184:
 186:lvgl/src/core/lv_obj_style_gen.c **** 
 187:lvgl/src/core/lv_obj_style_gen.c **** void lv_obj_set_style_bg_color(struct _lv_obj_t * obj, lv_color_t value, lv_style_selector_t select
 188:lvgl/src/core/lv_obj_style_gen.c **** {
 834              		.loc 1 188 1 is_stmt 1 view -0
 835              		.cfi_startproc
 836              		@ args = 0, pretend = 0, frame = 0
 837              		@ frame_needed = 0, uses_anonymous_args = 0
 838              		.loc 1 188 1 is_stmt 0 view .LVU162
 839 0000 08B5     		push	{r3, lr}
 840              		.cfi_def_cfa_offset 8
 841              		.cfi_offset 3, -8
 842              		.cfi_offset 14, -4
 843 0002 1346     		mov	r3, r2
 189:lvgl/src/core/lv_obj_style_gen.c ****     lv_style_value_t v = {
 844              		.loc 1 189 5 is_stmt 1 view .LVU163
 190:lvgl/src/core/lv_obj_style_gen.c ****         .color = value
 191:lvgl/src/core/lv_obj_style_gen.c ****     };
 192:lvgl/src/core/lv_obj_style_gen.c ****     lv_obj_set_local_style_prop(obj, LV_STYLE_BG_COLOR, v, selector);
 845              		.loc 1 192 5 view .LVU164
 846 0004 0A46     		mov	r2, r1
 847              	.LVL93:
 848              		.loc 1 192 5 is_stmt 0 view .LVU165
 849 0006 2021     		movs	r1, #32
 850              	.LVL94:
 851              		.loc 1 192 5 view .LVU166
 852 0008 FFF7FEFF 		bl	lv_obj_set_local_style_prop
 853              	.LVL95:
 193:lvgl/src/core/lv_obj_style_gen.c **** }
 854              		.loc 1 193 1 view .LVU167
 855 000c 08BD     		pop	{r3, pc}
 856              		.cfi_endproc
 857              	.LFE184:
 859              		.section	.text.lv_obj_set_style_bg_opa,"ax",%progbits
 860              		.align	1
 861              		.global	lv_obj_set_style_bg_opa
 862              		.syntax unified
 863              		.thumb
 864              		.thumb_func
 866              	lv_obj_set_style_bg_opa:
 867              	.LVL96:
 868              	.LFB185:
 194:lvgl/src/core/lv_obj_style_gen.c **** 
 195:lvgl/src/core/lv_obj_style_gen.c **** void lv_obj_set_style_bg_opa(struct _lv_obj_t * obj, lv_opa_t value, lv_style_selector_t selector)
 196:lvgl/src/core/lv_obj_style_gen.c **** {
 869              		.loc 1 196 1 is_stmt 1 view -0
 870              		.cfi_startproc
 871              		@ args = 0, pretend = 0, frame = 0
 872              		@ frame_needed = 0, uses_anonymous_args = 0
 873              		.loc 1 196 1 is_stmt 0 view .LVU169
 874 0000 08B5     		push	{r3, lr}
 875              		.cfi_def_cfa_offset 8
 876              		.cfi_offset 3, -8
 877              		.cfi_offset 14, -4
 878 0002 1346     		mov	r3, r2
 197:lvgl/src/core/lv_obj_style_gen.c ****     lv_style_value_t v = {
ARM GAS  C:\Users\OSD\AppData\Local\Temp\cc1vuvzH.s 			page 19


 879              		.loc 1 197 5 is_stmt 1 view .LVU170
 198:lvgl/src/core/lv_obj_style_gen.c ****         .num = (int32_t)value
 199:lvgl/src/core/lv_obj_style_gen.c ****     };
 200:lvgl/src/core/lv_obj_style_gen.c ****     lv_obj_set_local_style_prop(obj, LV_STYLE_BG_OPA, v, selector);
 880              		.loc 1 200 5 view .LVU171
 881 0004 0A46     		mov	r2, r1
 882              	.LVL97:
 883              		.loc 1 200 5 is_stmt 0 view .LVU172
 884 0006 2121     		movs	r1, #33
 885              	.LVL98:
 886              		.loc 1 200 5 view .LVU173
 887 0008 FFF7FEFF 		bl	lv_obj_set_local_style_prop
 888              	.LVL99:
 201:lvgl/src/core/lv_obj_style_gen.c **** }
 889              		.loc 1 201 1 view .LVU174
 890 000c 08BD     		pop	{r3, pc}
 891              		.cfi_endproc
 892              	.LFE185:
 894              		.section	.text.lv_obj_set_style_bg_grad_color,"ax",%progbits
 895              		.align	1
 896              		.global	lv_obj_set_style_bg_grad_color
 897              		.syntax unified
 898              		.thumb
 899              		.thumb_func
 901              	lv_obj_set_style_bg_grad_color:
 902              	.LVL100:
 903              	.LFB186:
 202:lvgl/src/core/lv_obj_style_gen.c **** 
 203:lvgl/src/core/lv_obj_style_gen.c **** void lv_obj_set_style_bg_grad_color(struct _lv_obj_t * obj, lv_color_t value, lv_style_selector_t s
 204:lvgl/src/core/lv_obj_style_gen.c **** {
 904              		.loc 1 204 1 is_stmt 1 view -0
 905              		.cfi_startproc
 906              		@ args = 0, pretend = 0, frame = 0
 907              		@ frame_needed = 0, uses_anonymous_args = 0
 908              		.loc 1 204 1 is_stmt 0 view .LVU176
 909 0000 08B5     		push	{r3, lr}
 910              		.cfi_def_cfa_offset 8
 911              		.cfi_offset 3, -8
 912              		.cfi_offset 14, -4
 913 0002 1346     		mov	r3, r2
 205:lvgl/src/core/lv_obj_style_gen.c ****     lv_style_value_t v = {
 914              		.loc 1 205 5 is_stmt 1 view .LVU177
 206:lvgl/src/core/lv_obj_style_gen.c ****         .color = value
 207:lvgl/src/core/lv_obj_style_gen.c ****     };
 208:lvgl/src/core/lv_obj_style_gen.c ****     lv_obj_set_local_style_prop(obj, LV_STYLE_BG_GRAD_COLOR, v, selector);
 915              		.loc 1 208 5 view .LVU178
 916 0004 0A46     		mov	r2, r1
 917              	.LVL101:
 918              		.loc 1 208 5 is_stmt 0 view .LVU179
 919 0006 2221     		movs	r1, #34
 920              	.LVL102:
 921              		.loc 1 208 5 view .LVU180
 922 0008 FFF7FEFF 		bl	lv_obj_set_local_style_prop
 923              	.LVL103:
 209:lvgl/src/core/lv_obj_style_gen.c **** }
 924              		.loc 1 209 1 view .LVU181
 925 000c 08BD     		pop	{r3, pc}
ARM GAS  C:\Users\OSD\AppData\Local\Temp\cc1vuvzH.s 			page 20


 926              		.cfi_endproc
 927              	.LFE186:
 929              		.section	.text.lv_obj_set_style_bg_grad_dir,"ax",%progbits
 930              		.align	1
 931              		.global	lv_obj_set_style_bg_grad_dir
 932              		.syntax unified
 933              		.thumb
 934              		.thumb_func
 936              	lv_obj_set_style_bg_grad_dir:
 937              	.LVL104:
 938              	.LFB187:
 210:lvgl/src/core/lv_obj_style_gen.c **** 
 211:lvgl/src/core/lv_obj_style_gen.c **** void lv_obj_set_style_bg_grad_dir(struct _lv_obj_t * obj, lv_grad_dir_t value, lv_style_selector_t 
 212:lvgl/src/core/lv_obj_style_gen.c **** {
 939              		.loc 1 212 1 is_stmt 1 view -0
 940              		.cfi_startproc
 941              		@ args = 0, pretend = 0, frame = 0
 942              		@ frame_needed = 0, uses_anonymous_args = 0
 943              		.loc 1 212 1 is_stmt 0 view .LVU183
 944 0000 08B5     		push	{r3, lr}
 945              		.cfi_def_cfa_offset 8
 946              		.cfi_offset 3, -8
 947              		.cfi_offset 14, -4
 948 0002 1346     		mov	r3, r2
 213:lvgl/src/core/lv_obj_style_gen.c ****     lv_style_value_t v = {
 949              		.loc 1 213 5 is_stmt 1 view .LVU184
 214:lvgl/src/core/lv_obj_style_gen.c ****         .num = (int32_t)value
 215:lvgl/src/core/lv_obj_style_gen.c ****     };
 216:lvgl/src/core/lv_obj_style_gen.c ****     lv_obj_set_local_style_prop(obj, LV_STYLE_BG_GRAD_DIR, v, selector);
 950              		.loc 1 216 5 view .LVU185
 951 0004 0A46     		mov	r2, r1
 952              	.LVL105:
 953              		.loc 1 216 5 is_stmt 0 view .LVU186
 954 0006 2321     		movs	r1, #35
 955              	.LVL106:
 956              		.loc 1 216 5 view .LVU187
 957 0008 FFF7FEFF 		bl	lv_obj_set_local_style_prop
 958              	.LVL107:
 217:lvgl/src/core/lv_obj_style_gen.c **** }
 959              		.loc 1 217 1 view .LVU188
 960 000c 08BD     		pop	{r3, pc}
 961              		.cfi_endproc
 962              	.LFE187:
 964              		.section	.text.lv_obj_set_style_bg_main_stop,"ax",%progbits
 965              		.align	1
 966              		.global	lv_obj_set_style_bg_main_stop
 967              		.syntax unified
 968              		.thumb
 969              		.thumb_func
 971              	lv_obj_set_style_bg_main_stop:
 972              	.LVL108:
 973              	.LFB188:
 218:lvgl/src/core/lv_obj_style_gen.c **** 
 219:lvgl/src/core/lv_obj_style_gen.c **** void lv_obj_set_style_bg_main_stop(struct _lv_obj_t * obj, lv_coord_t value, lv_style_selector_t se
 220:lvgl/src/core/lv_obj_style_gen.c **** {
 974              		.loc 1 220 1 is_stmt 1 view -0
 975              		.cfi_startproc
ARM GAS  C:\Users\OSD\AppData\Local\Temp\cc1vuvzH.s 			page 21


 976              		@ args = 0, pretend = 0, frame = 0
 977              		@ frame_needed = 0, uses_anonymous_args = 0
 978              		.loc 1 220 1 is_stmt 0 view .LVU190
 979 0000 08B5     		push	{r3, lr}
 980              		.cfi_def_cfa_offset 8
 981              		.cfi_offset 3, -8
 982              		.cfi_offset 14, -4
 983 0002 1346     		mov	r3, r2
 221:lvgl/src/core/lv_obj_style_gen.c ****     lv_style_value_t v = {
 984              		.loc 1 221 5 is_stmt 1 view .LVU191
 222:lvgl/src/core/lv_obj_style_gen.c ****         .num = (int32_t)value
 223:lvgl/src/core/lv_obj_style_gen.c ****     };
 224:lvgl/src/core/lv_obj_style_gen.c ****     lv_obj_set_local_style_prop(obj, LV_STYLE_BG_MAIN_STOP, v, selector);
 985              		.loc 1 224 5 view .LVU192
 986 0004 0A46     		mov	r2, r1
 987              	.LVL109:
 988              		.loc 1 224 5 is_stmt 0 view .LVU193
 989 0006 2421     		movs	r1, #36
 990              	.LVL110:
 991              		.loc 1 224 5 view .LVU194
 992 0008 FFF7FEFF 		bl	lv_obj_set_local_style_prop
 993              	.LVL111:
 225:lvgl/src/core/lv_obj_style_gen.c **** }
 994              		.loc 1 225 1 view .LVU195
 995 000c 08BD     		pop	{r3, pc}
 996              		.cfi_endproc
 997              	.LFE188:
 999              		.section	.text.lv_obj_set_style_bg_grad_stop,"ax",%progbits
 1000              		.align	1
 1001              		.global	lv_obj_set_style_bg_grad_stop
 1002              		.syntax unified
 1003              		.thumb
 1004              		.thumb_func
 1006              	lv_obj_set_style_bg_grad_stop:
 1007              	.LVL112:
 1008              	.LFB189:
 226:lvgl/src/core/lv_obj_style_gen.c **** 
 227:lvgl/src/core/lv_obj_style_gen.c **** void lv_obj_set_style_bg_grad_stop(struct _lv_obj_t * obj, lv_coord_t value, lv_style_selector_t se
 228:lvgl/src/core/lv_obj_style_gen.c **** {
 1009              		.loc 1 228 1 is_stmt 1 view -0
 1010              		.cfi_startproc
 1011              		@ args = 0, pretend = 0, frame = 0
 1012              		@ frame_needed = 0, uses_anonymous_args = 0
 1013              		.loc 1 228 1 is_stmt 0 view .LVU197
 1014 0000 08B5     		push	{r3, lr}
 1015              		.cfi_def_cfa_offset 8
 1016              		.cfi_offset 3, -8
 1017              		.cfi_offset 14, -4
 1018 0002 1346     		mov	r3, r2
 229:lvgl/src/core/lv_obj_style_gen.c ****     lv_style_value_t v = {
 1019              		.loc 1 229 5 is_stmt 1 view .LVU198
 230:lvgl/src/core/lv_obj_style_gen.c ****         .num = (int32_t)value
 231:lvgl/src/core/lv_obj_style_gen.c ****     };
 232:lvgl/src/core/lv_obj_style_gen.c ****     lv_obj_set_local_style_prop(obj, LV_STYLE_BG_GRAD_STOP, v, selector);
 1020              		.loc 1 232 5 view .LVU199
 1021 0004 0A46     		mov	r2, r1
 1022              	.LVL113:
ARM GAS  C:\Users\OSD\AppData\Local\Temp\cc1vuvzH.s 			page 22


 1023              		.loc 1 232 5 is_stmt 0 view .LVU200
 1024 0006 2521     		movs	r1, #37
 1025              	.LVL114:
 1026              		.loc 1 232 5 view .LVU201
 1027 0008 FFF7FEFF 		bl	lv_obj_set_local_style_prop
 1028              	.LVL115:
 233:lvgl/src/core/lv_obj_style_gen.c **** }
 1029              		.loc 1 233 1 view .LVU202
 1030 000c 08BD     		pop	{r3, pc}
 1031              		.cfi_endproc
 1032              	.LFE189:
 1034              		.section	.text.lv_obj_set_style_bg_grad,"ax",%progbits
 1035              		.align	1
 1036              		.global	lv_obj_set_style_bg_grad
 1037              		.syntax unified
 1038              		.thumb
 1039              		.thumb_func
 1041              	lv_obj_set_style_bg_grad:
 1042              	.LVL116:
 1043              	.LFB190:
 234:lvgl/src/core/lv_obj_style_gen.c **** 
 235:lvgl/src/core/lv_obj_style_gen.c **** void lv_obj_set_style_bg_grad(struct _lv_obj_t * obj, const lv_grad_dsc_t * value, lv_style_selecto
 236:lvgl/src/core/lv_obj_style_gen.c **** {
 1044              		.loc 1 236 1 is_stmt 1 view -0
 1045              		.cfi_startproc
 1046              		@ args = 0, pretend = 0, frame = 0
 1047              		@ frame_needed = 0, uses_anonymous_args = 0
 1048              		.loc 1 236 1 is_stmt 0 view .LVU204
 1049 0000 08B5     		push	{r3, lr}
 1050              		.cfi_def_cfa_offset 8
 1051              		.cfi_offset 3, -8
 1052              		.cfi_offset 14, -4
 1053 0002 1346     		mov	r3, r2
 237:lvgl/src/core/lv_obj_style_gen.c ****     lv_style_value_t v = {
 1054              		.loc 1 237 5 is_stmt 1 view .LVU205
 238:lvgl/src/core/lv_obj_style_gen.c ****         .ptr = value
 239:lvgl/src/core/lv_obj_style_gen.c ****     };
 240:lvgl/src/core/lv_obj_style_gen.c ****     lv_obj_set_local_style_prop(obj, LV_STYLE_BG_GRAD, v, selector);
 1055              		.loc 1 240 5 view .LVU206
 1056 0004 0A46     		mov	r2, r1
 1057              	.LVL117:
 1058              		.loc 1 240 5 is_stmt 0 view .LVU207
 1059 0006 2621     		movs	r1, #38
 1060              	.LVL118:
 1061              		.loc 1 240 5 view .LVU208
 1062 0008 FFF7FEFF 		bl	lv_obj_set_local_style_prop
 1063              	.LVL119:
 241:lvgl/src/core/lv_obj_style_gen.c **** }
 1064              		.loc 1 241 1 view .LVU209
 1065 000c 08BD     		pop	{r3, pc}
 1066              		.cfi_endproc
 1067              	.LFE190:
 1069              		.section	.text.lv_obj_set_style_bg_dither_mode,"ax",%progbits
 1070              		.align	1
 1071              		.global	lv_obj_set_style_bg_dither_mode
 1072              		.syntax unified
 1073              		.thumb
ARM GAS  C:\Users\OSD\AppData\Local\Temp\cc1vuvzH.s 			page 23


 1074              		.thumb_func
 1076              	lv_obj_set_style_bg_dither_mode:
 1077              	.LVL120:
 1078              	.LFB191:
 242:lvgl/src/core/lv_obj_style_gen.c **** 
 243:lvgl/src/core/lv_obj_style_gen.c **** void lv_obj_set_style_bg_dither_mode(struct _lv_obj_t * obj, lv_dither_mode_t value, lv_style_selec
 244:lvgl/src/core/lv_obj_style_gen.c **** {
 1079              		.loc 1 244 1 is_stmt 1 view -0
 1080              		.cfi_startproc
 1081              		@ args = 0, pretend = 0, frame = 0
 1082              		@ frame_needed = 0, uses_anonymous_args = 0
 1083              		.loc 1 244 1 is_stmt 0 view .LVU211
 1084 0000 08B5     		push	{r3, lr}
 1085              		.cfi_def_cfa_offset 8
 1086              		.cfi_offset 3, -8
 1087              		.cfi_offset 14, -4
 1088 0002 1346     		mov	r3, r2
 245:lvgl/src/core/lv_obj_style_gen.c ****     lv_style_value_t v = {
 1089              		.loc 1 245 5 is_stmt 1 view .LVU212
 246:lvgl/src/core/lv_obj_style_gen.c ****         .num = (int32_t)value
 247:lvgl/src/core/lv_obj_style_gen.c ****     };
 248:lvgl/src/core/lv_obj_style_gen.c ****     lv_obj_set_local_style_prop(obj, LV_STYLE_BG_DITHER_MODE, v, selector);
 1090              		.loc 1 248 5 view .LVU213
 1091 0004 0A46     		mov	r2, r1
 1092              	.LVL121:
 1093              		.loc 1 248 5 is_stmt 0 view .LVU214
 1094 0006 2721     		movs	r1, #39
 1095              	.LVL122:
 1096              		.loc 1 248 5 view .LVU215
 1097 0008 FFF7FEFF 		bl	lv_obj_set_local_style_prop
 1098              	.LVL123:
 249:lvgl/src/core/lv_obj_style_gen.c **** }
 1099              		.loc 1 249 1 view .LVU216
 1100 000c 08BD     		pop	{r3, pc}
 1101              		.cfi_endproc
 1102              	.LFE191:
 1104              		.section	.text.lv_obj_set_style_bg_img_src,"ax",%progbits
 1105              		.align	1
 1106              		.global	lv_obj_set_style_bg_img_src
 1107              		.syntax unified
 1108              		.thumb
 1109              		.thumb_func
 1111              	lv_obj_set_style_bg_img_src:
 1112              	.LVL124:
 1113              	.LFB192:
 250:lvgl/src/core/lv_obj_style_gen.c **** 
 251:lvgl/src/core/lv_obj_style_gen.c **** void lv_obj_set_style_bg_img_src(struct _lv_obj_t * obj, const void * value, lv_style_selector_t se
 252:lvgl/src/core/lv_obj_style_gen.c **** {
 1114              		.loc 1 252 1 is_stmt 1 view -0
 1115              		.cfi_startproc
 1116              		@ args = 0, pretend = 0, frame = 0
 1117              		@ frame_needed = 0, uses_anonymous_args = 0
 1118              		.loc 1 252 1 is_stmt 0 view .LVU218
 1119 0000 08B5     		push	{r3, lr}
 1120              		.cfi_def_cfa_offset 8
 1121              		.cfi_offset 3, -8
 1122              		.cfi_offset 14, -4
ARM GAS  C:\Users\OSD\AppData\Local\Temp\cc1vuvzH.s 			page 24


 1123 0002 1346     		mov	r3, r2
 253:lvgl/src/core/lv_obj_style_gen.c ****     lv_style_value_t v = {
 1124              		.loc 1 253 5 is_stmt 1 view .LVU219
 254:lvgl/src/core/lv_obj_style_gen.c ****         .ptr = value
 255:lvgl/src/core/lv_obj_style_gen.c ****     };
 256:lvgl/src/core/lv_obj_style_gen.c ****     lv_obj_set_local_style_prop(obj, LV_STYLE_BG_IMG_SRC, v, selector);
 1125              		.loc 1 256 5 view .LVU220
 1126 0004 0A46     		mov	r2, r1
 1127              	.LVL125:
 1128              		.loc 1 256 5 is_stmt 0 view .LVU221
 1129 0006 2821     		movs	r1, #40
 1130              	.LVL126:
 1131              		.loc 1 256 5 view .LVU222
 1132 0008 FFF7FEFF 		bl	lv_obj_set_local_style_prop
 1133              	.LVL127:
 257:lvgl/src/core/lv_obj_style_gen.c **** }
 1134              		.loc 1 257 1 view .LVU223
 1135 000c 08BD     		pop	{r3, pc}
 1136              		.cfi_endproc
 1137              	.LFE192:
 1139              		.section	.text.lv_obj_set_style_bg_img_opa,"ax",%progbits
 1140              		.align	1
 1141              		.global	lv_obj_set_style_bg_img_opa
 1142              		.syntax unified
 1143              		.thumb
 1144              		.thumb_func
 1146              	lv_obj_set_style_bg_img_opa:
 1147              	.LVL128:
 1148              	.LFB193:
 258:lvgl/src/core/lv_obj_style_gen.c **** 
 259:lvgl/src/core/lv_obj_style_gen.c **** void lv_obj_set_style_bg_img_opa(struct _lv_obj_t * obj, lv_opa_t value, lv_style_selector_t select
 260:lvgl/src/core/lv_obj_style_gen.c **** {
 1149              		.loc 1 260 1 is_stmt 1 view -0
 1150              		.cfi_startproc
 1151              		@ args = 0, pretend = 0, frame = 0
 1152              		@ frame_needed = 0, uses_anonymous_args = 0
 1153              		.loc 1 260 1 is_stmt 0 view .LVU225
 1154 0000 08B5     		push	{r3, lr}
 1155              		.cfi_def_cfa_offset 8
 1156              		.cfi_offset 3, -8
 1157              		.cfi_offset 14, -4
 1158 0002 1346     		mov	r3, r2
 261:lvgl/src/core/lv_obj_style_gen.c ****     lv_style_value_t v = {
 1159              		.loc 1 261 5 is_stmt 1 view .LVU226
 262:lvgl/src/core/lv_obj_style_gen.c ****         .num = (int32_t)value
 263:lvgl/src/core/lv_obj_style_gen.c ****     };
 264:lvgl/src/core/lv_obj_style_gen.c ****     lv_obj_set_local_style_prop(obj, LV_STYLE_BG_IMG_OPA, v, selector);
 1160              		.loc 1 264 5 view .LVU227
 1161 0004 0A46     		mov	r2, r1
 1162              	.LVL129:
 1163              		.loc 1 264 5 is_stmt 0 view .LVU228
 1164 0006 2921     		movs	r1, #41
 1165              	.LVL130:
 1166              		.loc 1 264 5 view .LVU229
 1167 0008 FFF7FEFF 		bl	lv_obj_set_local_style_prop
 1168              	.LVL131:
 265:lvgl/src/core/lv_obj_style_gen.c **** }
ARM GAS  C:\Users\OSD\AppData\Local\Temp\cc1vuvzH.s 			page 25


 1169              		.loc 1 265 1 view .LVU230
 1170 000c 08BD     		pop	{r3, pc}
 1171              		.cfi_endproc
 1172              	.LFE193:
 1174              		.section	.text.lv_obj_set_style_bg_img_recolor,"ax",%progbits
 1175              		.align	1
 1176              		.global	lv_obj_set_style_bg_img_recolor
 1177              		.syntax unified
 1178              		.thumb
 1179              		.thumb_func
 1181              	lv_obj_set_style_bg_img_recolor:
 1182              	.LVL132:
 1183              	.LFB194:
 266:lvgl/src/core/lv_obj_style_gen.c **** 
 267:lvgl/src/core/lv_obj_style_gen.c **** void lv_obj_set_style_bg_img_recolor(struct _lv_obj_t * obj, lv_color_t value, lv_style_selector_t 
 268:lvgl/src/core/lv_obj_style_gen.c **** {
 1184              		.loc 1 268 1 is_stmt 1 view -0
 1185              		.cfi_startproc
 1186              		@ args = 0, pretend = 0, frame = 0
 1187              		@ frame_needed = 0, uses_anonymous_args = 0
 1188              		.loc 1 268 1 is_stmt 0 view .LVU232
 1189 0000 08B5     		push	{r3, lr}
 1190              		.cfi_def_cfa_offset 8
 1191              		.cfi_offset 3, -8
 1192              		.cfi_offset 14, -4
 1193 0002 1346     		mov	r3, r2
 269:lvgl/src/core/lv_obj_style_gen.c ****     lv_style_value_t v = {
 1194              		.loc 1 269 5 is_stmt 1 view .LVU233
 270:lvgl/src/core/lv_obj_style_gen.c ****         .color = value
 271:lvgl/src/core/lv_obj_style_gen.c ****     };
 272:lvgl/src/core/lv_obj_style_gen.c ****     lv_obj_set_local_style_prop(obj, LV_STYLE_BG_IMG_RECOLOR, v, selector);
 1195              		.loc 1 272 5 view .LVU234
 1196 0004 0A46     		mov	r2, r1
 1197              	.LVL133:
 1198              		.loc 1 272 5 is_stmt 0 view .LVU235
 1199 0006 2A21     		movs	r1, #42
 1200              	.LVL134:
 1201              		.loc 1 272 5 view .LVU236
 1202 0008 FFF7FEFF 		bl	lv_obj_set_local_style_prop
 1203              	.LVL135:
 273:lvgl/src/core/lv_obj_style_gen.c **** }
 1204              		.loc 1 273 1 view .LVU237
 1205 000c 08BD     		pop	{r3, pc}
 1206              		.cfi_endproc
 1207              	.LFE194:
 1209              		.section	.text.lv_obj_set_style_bg_img_recolor_opa,"ax",%progbits
 1210              		.align	1
 1211              		.global	lv_obj_set_style_bg_img_recolor_opa
 1212              		.syntax unified
 1213              		.thumb
 1214              		.thumb_func
 1216              	lv_obj_set_style_bg_img_recolor_opa:
 1217              	.LVL136:
 1218              	.LFB195:
 274:lvgl/src/core/lv_obj_style_gen.c **** 
 275:lvgl/src/core/lv_obj_style_gen.c **** void lv_obj_set_style_bg_img_recolor_opa(struct _lv_obj_t * obj, lv_opa_t value, lv_style_selector_
 276:lvgl/src/core/lv_obj_style_gen.c **** {
ARM GAS  C:\Users\OSD\AppData\Local\Temp\cc1vuvzH.s 			page 26


 1219              		.loc 1 276 1 is_stmt 1 view -0
 1220              		.cfi_startproc
 1221              		@ args = 0, pretend = 0, frame = 0
 1222              		@ frame_needed = 0, uses_anonymous_args = 0
 1223              		.loc 1 276 1 is_stmt 0 view .LVU239
 1224 0000 08B5     		push	{r3, lr}
 1225              		.cfi_def_cfa_offset 8
 1226              		.cfi_offset 3, -8
 1227              		.cfi_offset 14, -4
 1228 0002 1346     		mov	r3, r2
 277:lvgl/src/core/lv_obj_style_gen.c ****     lv_style_value_t v = {
 1229              		.loc 1 277 5 is_stmt 1 view .LVU240
 278:lvgl/src/core/lv_obj_style_gen.c ****         .num = (int32_t)value
 279:lvgl/src/core/lv_obj_style_gen.c ****     };
 280:lvgl/src/core/lv_obj_style_gen.c ****     lv_obj_set_local_style_prop(obj, LV_STYLE_BG_IMG_RECOLOR_OPA, v, selector);
 1230              		.loc 1 280 5 view .LVU241
 1231 0004 0A46     		mov	r2, r1
 1232              	.LVL137:
 1233              		.loc 1 280 5 is_stmt 0 view .LVU242
 1234 0006 2B21     		movs	r1, #43
 1235              	.LVL138:
 1236              		.loc 1 280 5 view .LVU243
 1237 0008 FFF7FEFF 		bl	lv_obj_set_local_style_prop
 1238              	.LVL139:
 281:lvgl/src/core/lv_obj_style_gen.c **** }
 1239              		.loc 1 281 1 view .LVU244
 1240 000c 08BD     		pop	{r3, pc}
 1241              		.cfi_endproc
 1242              	.LFE195:
 1244              		.section	.text.lv_obj_set_style_bg_img_tiled,"ax",%progbits
 1245              		.align	1
 1246              		.global	lv_obj_set_style_bg_img_tiled
 1247              		.syntax unified
 1248              		.thumb
 1249              		.thumb_func
 1251              	lv_obj_set_style_bg_img_tiled:
 1252              	.LVL140:
 1253              	.LFB196:
 282:lvgl/src/core/lv_obj_style_gen.c **** 
 283:lvgl/src/core/lv_obj_style_gen.c **** void lv_obj_set_style_bg_img_tiled(struct _lv_obj_t * obj, bool value, lv_style_selector_t selector
 284:lvgl/src/core/lv_obj_style_gen.c **** {
 1254              		.loc 1 284 1 is_stmt 1 view -0
 1255              		.cfi_startproc
 1256              		@ args = 0, pretend = 0, frame = 0
 1257              		@ frame_needed = 0, uses_anonymous_args = 0
 1258              		.loc 1 284 1 is_stmt 0 view .LVU246
 1259 0000 08B5     		push	{r3, lr}
 1260              		.cfi_def_cfa_offset 8
 1261              		.cfi_offset 3, -8
 1262              		.cfi_offset 14, -4
 1263 0002 1346     		mov	r3, r2
 285:lvgl/src/core/lv_obj_style_gen.c ****     lv_style_value_t v = {
 1264              		.loc 1 285 5 is_stmt 1 view .LVU247
 286:lvgl/src/core/lv_obj_style_gen.c ****         .num = (int32_t)value
 287:lvgl/src/core/lv_obj_style_gen.c ****     };
 288:lvgl/src/core/lv_obj_style_gen.c ****     lv_obj_set_local_style_prop(obj, LV_STYLE_BG_IMG_TILED, v, selector);
 1265              		.loc 1 288 5 view .LVU248
ARM GAS  C:\Users\OSD\AppData\Local\Temp\cc1vuvzH.s 			page 27


 1266 0004 0A46     		mov	r2, r1
 1267              	.LVL141:
 1268              		.loc 1 288 5 is_stmt 0 view .LVU249
 1269 0006 2C21     		movs	r1, #44
 1270              	.LVL142:
 1271              		.loc 1 288 5 view .LVU250
 1272 0008 FFF7FEFF 		bl	lv_obj_set_local_style_prop
 1273              	.LVL143:
 289:lvgl/src/core/lv_obj_style_gen.c **** }
 1274              		.loc 1 289 1 view .LVU251
 1275 000c 08BD     		pop	{r3, pc}
 1276              		.cfi_endproc
 1277              	.LFE196:
 1279              		.section	.text.lv_obj_set_style_border_color,"ax",%progbits
 1280              		.align	1
 1281              		.global	lv_obj_set_style_border_color
 1282              		.syntax unified
 1283              		.thumb
 1284              		.thumb_func
 1286              	lv_obj_set_style_border_color:
 1287              	.LVL144:
 1288              	.LFB197:
 290:lvgl/src/core/lv_obj_style_gen.c **** 
 291:lvgl/src/core/lv_obj_style_gen.c **** void lv_obj_set_style_border_color(struct _lv_obj_t * obj, lv_color_t value, lv_style_selector_t se
 292:lvgl/src/core/lv_obj_style_gen.c **** {
 1289              		.loc 1 292 1 is_stmt 1 view -0
 1290              		.cfi_startproc
 1291              		@ args = 0, pretend = 0, frame = 0
 1292              		@ frame_needed = 0, uses_anonymous_args = 0
 1293              		.loc 1 292 1 is_stmt 0 view .LVU253
 1294 0000 08B5     		push	{r3, lr}
 1295              		.cfi_def_cfa_offset 8
 1296              		.cfi_offset 3, -8
 1297              		.cfi_offset 14, -4
 1298 0002 1346     		mov	r3, r2
 293:lvgl/src/core/lv_obj_style_gen.c ****     lv_style_value_t v = {
 1299              		.loc 1 293 5 is_stmt 1 view .LVU254
 294:lvgl/src/core/lv_obj_style_gen.c ****         .color = value
 295:lvgl/src/core/lv_obj_style_gen.c ****     };
 296:lvgl/src/core/lv_obj_style_gen.c ****     lv_obj_set_local_style_prop(obj, LV_STYLE_BORDER_COLOR, v, selector);
 1300              		.loc 1 296 5 view .LVU255
 1301 0004 0A46     		mov	r2, r1
 1302              	.LVL145:
 1303              		.loc 1 296 5 is_stmt 0 view .LVU256
 1304 0006 3021     		movs	r1, #48
 1305              	.LVL146:
 1306              		.loc 1 296 5 view .LVU257
 1307 0008 FFF7FEFF 		bl	lv_obj_set_local_style_prop
 1308              	.LVL147:
 297:lvgl/src/core/lv_obj_style_gen.c **** }
 1309              		.loc 1 297 1 view .LVU258
 1310 000c 08BD     		pop	{r3, pc}
 1311              		.cfi_endproc
 1312              	.LFE197:
 1314              		.section	.text.lv_obj_set_style_border_opa,"ax",%progbits
 1315              		.align	1
 1316              		.global	lv_obj_set_style_border_opa
ARM GAS  C:\Users\OSD\AppData\Local\Temp\cc1vuvzH.s 			page 28


 1317              		.syntax unified
 1318              		.thumb
 1319              		.thumb_func
 1321              	lv_obj_set_style_border_opa:
 1322              	.LVL148:
 1323              	.LFB198:
 298:lvgl/src/core/lv_obj_style_gen.c **** 
 299:lvgl/src/core/lv_obj_style_gen.c **** void lv_obj_set_style_border_opa(struct _lv_obj_t * obj, lv_opa_t value, lv_style_selector_t select
 300:lvgl/src/core/lv_obj_style_gen.c **** {
 1324              		.loc 1 300 1 is_stmt 1 view -0
 1325              		.cfi_startproc
 1326              		@ args = 0, pretend = 0, frame = 0
 1327              		@ frame_needed = 0, uses_anonymous_args = 0
 1328              		.loc 1 300 1 is_stmt 0 view .LVU260
 1329 0000 08B5     		push	{r3, lr}
 1330              		.cfi_def_cfa_offset 8
 1331              		.cfi_offset 3, -8
 1332              		.cfi_offset 14, -4
 1333 0002 1346     		mov	r3, r2
 301:lvgl/src/core/lv_obj_style_gen.c ****     lv_style_value_t v = {
 1334              		.loc 1 301 5 is_stmt 1 view .LVU261
 302:lvgl/src/core/lv_obj_style_gen.c ****         .num = (int32_t)value
 303:lvgl/src/core/lv_obj_style_gen.c ****     };
 304:lvgl/src/core/lv_obj_style_gen.c ****     lv_obj_set_local_style_prop(obj, LV_STYLE_BORDER_OPA, v, selector);
 1335              		.loc 1 304 5 view .LVU262
 1336 0004 0A46     		mov	r2, r1
 1337              	.LVL149:
 1338              		.loc 1 304 5 is_stmt 0 view .LVU263
 1339 0006 3121     		movs	r1, #49
 1340              	.LVL150:
 1341              		.loc 1 304 5 view .LVU264
 1342 0008 FFF7FEFF 		bl	lv_obj_set_local_style_prop
 1343              	.LVL151:
 305:lvgl/src/core/lv_obj_style_gen.c **** }
 1344              		.loc 1 305 1 view .LVU265
 1345 000c 08BD     		pop	{r3, pc}
 1346              		.cfi_endproc
 1347              	.LFE198:
 1349              		.section	.text.lv_obj_set_style_border_width,"ax",%progbits
 1350              		.align	1
 1351              		.global	lv_obj_set_style_border_width
 1352              		.syntax unified
 1353              		.thumb
 1354              		.thumb_func
 1356              	lv_obj_set_style_border_width:
 1357              	.LVL152:
 1358              	.LFB199:
 306:lvgl/src/core/lv_obj_style_gen.c **** 
 307:lvgl/src/core/lv_obj_style_gen.c **** void lv_obj_set_style_border_width(struct _lv_obj_t * obj, lv_coord_t value, lv_style_selector_t se
 308:lvgl/src/core/lv_obj_style_gen.c **** {
 1359              		.loc 1 308 1 is_stmt 1 view -0
 1360              		.cfi_startproc
 1361              		@ args = 0, pretend = 0, frame = 0
 1362              		@ frame_needed = 0, uses_anonymous_args = 0
 1363              		.loc 1 308 1 is_stmt 0 view .LVU267
 1364 0000 08B5     		push	{r3, lr}
 1365              		.cfi_def_cfa_offset 8
ARM GAS  C:\Users\OSD\AppData\Local\Temp\cc1vuvzH.s 			page 29


 1366              		.cfi_offset 3, -8
 1367              		.cfi_offset 14, -4
 1368 0002 1346     		mov	r3, r2
 309:lvgl/src/core/lv_obj_style_gen.c ****     lv_style_value_t v = {
 1369              		.loc 1 309 5 is_stmt 1 view .LVU268
 310:lvgl/src/core/lv_obj_style_gen.c ****         .num = (int32_t)value
 311:lvgl/src/core/lv_obj_style_gen.c ****     };
 312:lvgl/src/core/lv_obj_style_gen.c ****     lv_obj_set_local_style_prop(obj, LV_STYLE_BORDER_WIDTH, v, selector);
 1370              		.loc 1 312 5 view .LVU269
 1371 0004 0A46     		mov	r2, r1
 1372              	.LVL153:
 1373              		.loc 1 312 5 is_stmt 0 view .LVU270
 1374 0006 3221     		movs	r1, #50
 1375              	.LVL154:
 1376              		.loc 1 312 5 view .LVU271
 1377 0008 FFF7FEFF 		bl	lv_obj_set_local_style_prop
 1378              	.LVL155:
 313:lvgl/src/core/lv_obj_style_gen.c **** }
 1379              		.loc 1 313 1 view .LVU272
 1380 000c 08BD     		pop	{r3, pc}
 1381              		.cfi_endproc
 1382              	.LFE199:
 1384              		.section	.text.lv_obj_set_style_border_side,"ax",%progbits
 1385              		.align	1
 1386              		.global	lv_obj_set_style_border_side
 1387              		.syntax unified
 1388              		.thumb
 1389              		.thumb_func
 1391              	lv_obj_set_style_border_side:
 1392              	.LVL156:
 1393              	.LFB200:
 314:lvgl/src/core/lv_obj_style_gen.c **** 
 315:lvgl/src/core/lv_obj_style_gen.c **** void lv_obj_set_style_border_side(struct _lv_obj_t * obj, lv_border_side_t value, lv_style_selector
 316:lvgl/src/core/lv_obj_style_gen.c **** {
 1394              		.loc 1 316 1 is_stmt 1 view -0
 1395              		.cfi_startproc
 1396              		@ args = 0, pretend = 0, frame = 0
 1397              		@ frame_needed = 0, uses_anonymous_args = 0
 1398              		.loc 1 316 1 is_stmt 0 view .LVU274
 1399 0000 08B5     		push	{r3, lr}
 1400              		.cfi_def_cfa_offset 8
 1401              		.cfi_offset 3, -8
 1402              		.cfi_offset 14, -4
 1403 0002 1346     		mov	r3, r2
 317:lvgl/src/core/lv_obj_style_gen.c ****     lv_style_value_t v = {
 1404              		.loc 1 317 5 is_stmt 1 view .LVU275
 318:lvgl/src/core/lv_obj_style_gen.c ****         .num = (int32_t)value
 319:lvgl/src/core/lv_obj_style_gen.c ****     };
 320:lvgl/src/core/lv_obj_style_gen.c ****     lv_obj_set_local_style_prop(obj, LV_STYLE_BORDER_SIDE, v, selector);
 1405              		.loc 1 320 5 view .LVU276
 1406 0004 0A46     		mov	r2, r1
 1407              	.LVL157:
 1408              		.loc 1 320 5 is_stmt 0 view .LVU277
 1409 0006 3321     		movs	r1, #51
 1410              	.LVL158:
 1411              		.loc 1 320 5 view .LVU278
 1412 0008 FFF7FEFF 		bl	lv_obj_set_local_style_prop
ARM GAS  C:\Users\OSD\AppData\Local\Temp\cc1vuvzH.s 			page 30


 1413              	.LVL159:
 321:lvgl/src/core/lv_obj_style_gen.c **** }
 1414              		.loc 1 321 1 view .LVU279
 1415 000c 08BD     		pop	{r3, pc}
 1416              		.cfi_endproc
 1417              	.LFE200:
 1419              		.section	.text.lv_obj_set_style_border_post,"ax",%progbits
 1420              		.align	1
 1421              		.global	lv_obj_set_style_border_post
 1422              		.syntax unified
 1423              		.thumb
 1424              		.thumb_func
 1426              	lv_obj_set_style_border_post:
 1427              	.LVL160:
 1428              	.LFB201:
 322:lvgl/src/core/lv_obj_style_gen.c **** 
 323:lvgl/src/core/lv_obj_style_gen.c **** void lv_obj_set_style_border_post(struct _lv_obj_t * obj, bool value, lv_style_selector_t selector)
 324:lvgl/src/core/lv_obj_style_gen.c **** {
 1429              		.loc 1 324 1 is_stmt 1 view -0
 1430              		.cfi_startproc
 1431              		@ args = 0, pretend = 0, frame = 0
 1432              		@ frame_needed = 0, uses_anonymous_args = 0
 1433              		.loc 1 324 1 is_stmt 0 view .LVU281
 1434 0000 08B5     		push	{r3, lr}
 1435              		.cfi_def_cfa_offset 8
 1436              		.cfi_offset 3, -8
 1437              		.cfi_offset 14, -4
 1438 0002 1346     		mov	r3, r2
 325:lvgl/src/core/lv_obj_style_gen.c ****     lv_style_value_t v = {
 1439              		.loc 1 325 5 is_stmt 1 view .LVU282
 326:lvgl/src/core/lv_obj_style_gen.c ****         .num = (int32_t)value
 327:lvgl/src/core/lv_obj_style_gen.c ****     };
 328:lvgl/src/core/lv_obj_style_gen.c ****     lv_obj_set_local_style_prop(obj, LV_STYLE_BORDER_POST, v, selector);
 1440              		.loc 1 328 5 view .LVU283
 1441 0004 0A46     		mov	r2, r1
 1442              	.LVL161:
 1443              		.loc 1 328 5 is_stmt 0 view .LVU284
 1444 0006 3421     		movs	r1, #52
 1445              	.LVL162:
 1446              		.loc 1 328 5 view .LVU285
 1447 0008 FFF7FEFF 		bl	lv_obj_set_local_style_prop
 1448              	.LVL163:
 329:lvgl/src/core/lv_obj_style_gen.c **** }
 1449              		.loc 1 329 1 view .LVU286
 1450 000c 08BD     		pop	{r3, pc}
 1451              		.cfi_endproc
 1452              	.LFE201:
 1454              		.section	.text.lv_obj_set_style_outline_width,"ax",%progbits
 1455              		.align	1
 1456              		.global	lv_obj_set_style_outline_width
 1457              		.syntax unified
 1458              		.thumb
 1459              		.thumb_func
 1461              	lv_obj_set_style_outline_width:
 1462              	.LVL164:
 1463              	.LFB202:
 330:lvgl/src/core/lv_obj_style_gen.c **** 
ARM GAS  C:\Users\OSD\AppData\Local\Temp\cc1vuvzH.s 			page 31


 331:lvgl/src/core/lv_obj_style_gen.c **** void lv_obj_set_style_outline_width(struct _lv_obj_t * obj, lv_coord_t value, lv_style_selector_t s
 332:lvgl/src/core/lv_obj_style_gen.c **** {
 1464              		.loc 1 332 1 is_stmt 1 view -0
 1465              		.cfi_startproc
 1466              		@ args = 0, pretend = 0, frame = 0
 1467              		@ frame_needed = 0, uses_anonymous_args = 0
 1468              		.loc 1 332 1 is_stmt 0 view .LVU288
 1469 0000 08B5     		push	{r3, lr}
 1470              		.cfi_def_cfa_offset 8
 1471              		.cfi_offset 3, -8
 1472              		.cfi_offset 14, -4
 1473 0002 1346     		mov	r3, r2
 333:lvgl/src/core/lv_obj_style_gen.c ****     lv_style_value_t v = {
 1474              		.loc 1 333 5 is_stmt 1 view .LVU289
 334:lvgl/src/core/lv_obj_style_gen.c ****         .num = (int32_t)value
 335:lvgl/src/core/lv_obj_style_gen.c ****     };
 336:lvgl/src/core/lv_obj_style_gen.c ****     lv_obj_set_local_style_prop(obj, LV_STYLE_OUTLINE_WIDTH, v, selector);
 1475              		.loc 1 336 5 view .LVU290
 1476 0004 0A46     		mov	r2, r1
 1477              	.LVL165:
 1478              		.loc 1 336 5 is_stmt 0 view .LVU291
 1479 0006 3521     		movs	r1, #53
 1480              	.LVL166:
 1481              		.loc 1 336 5 view .LVU292
 1482 0008 FFF7FEFF 		bl	lv_obj_set_local_style_prop
 1483              	.LVL167:
 337:lvgl/src/core/lv_obj_style_gen.c **** }
 1484              		.loc 1 337 1 view .LVU293
 1485 000c 08BD     		pop	{r3, pc}
 1486              		.cfi_endproc
 1487              	.LFE202:
 1489              		.section	.text.lv_obj_set_style_outline_color,"ax",%progbits
 1490              		.align	1
 1491              		.global	lv_obj_set_style_outline_color
 1492              		.syntax unified
 1493              		.thumb
 1494              		.thumb_func
 1496              	lv_obj_set_style_outline_color:
 1497              	.LVL168:
 1498              	.LFB203:
 338:lvgl/src/core/lv_obj_style_gen.c **** 
 339:lvgl/src/core/lv_obj_style_gen.c **** void lv_obj_set_style_outline_color(struct _lv_obj_t * obj, lv_color_t value, lv_style_selector_t s
 340:lvgl/src/core/lv_obj_style_gen.c **** {
 1499              		.loc 1 340 1 is_stmt 1 view -0
 1500              		.cfi_startproc
 1501              		@ args = 0, pretend = 0, frame = 0
 1502              		@ frame_needed = 0, uses_anonymous_args = 0
 1503              		.loc 1 340 1 is_stmt 0 view .LVU295
 1504 0000 08B5     		push	{r3, lr}
 1505              		.cfi_def_cfa_offset 8
 1506              		.cfi_offset 3, -8
 1507              		.cfi_offset 14, -4
 1508 0002 1346     		mov	r3, r2
 341:lvgl/src/core/lv_obj_style_gen.c ****     lv_style_value_t v = {
 1509              		.loc 1 341 5 is_stmt 1 view .LVU296
 342:lvgl/src/core/lv_obj_style_gen.c ****         .color = value
 343:lvgl/src/core/lv_obj_style_gen.c ****     };
ARM GAS  C:\Users\OSD\AppData\Local\Temp\cc1vuvzH.s 			page 32


 344:lvgl/src/core/lv_obj_style_gen.c ****     lv_obj_set_local_style_prop(obj, LV_STYLE_OUTLINE_COLOR, v, selector);
 1510              		.loc 1 344 5 view .LVU297
 1511 0004 0A46     		mov	r2, r1
 1512              	.LVL169:
 1513              		.loc 1 344 5 is_stmt 0 view .LVU298
 1514 0006 3621     		movs	r1, #54
 1515              	.LVL170:
 1516              		.loc 1 344 5 view .LVU299
 1517 0008 FFF7FEFF 		bl	lv_obj_set_local_style_prop
 1518              	.LVL171:
 345:lvgl/src/core/lv_obj_style_gen.c **** }
 1519              		.loc 1 345 1 view .LVU300
 1520 000c 08BD     		pop	{r3, pc}
 1521              		.cfi_endproc
 1522              	.LFE203:
 1524              		.section	.text.lv_obj_set_style_outline_opa,"ax",%progbits
 1525              		.align	1
 1526              		.global	lv_obj_set_style_outline_opa
 1527              		.syntax unified
 1528              		.thumb
 1529              		.thumb_func
 1531              	lv_obj_set_style_outline_opa:
 1532              	.LVL172:
 1533              	.LFB204:
 346:lvgl/src/core/lv_obj_style_gen.c **** 
 347:lvgl/src/core/lv_obj_style_gen.c **** void lv_obj_set_style_outline_opa(struct _lv_obj_t * obj, lv_opa_t value, lv_style_selector_t selec
 348:lvgl/src/core/lv_obj_style_gen.c **** {
 1534              		.loc 1 348 1 is_stmt 1 view -0
 1535              		.cfi_startproc
 1536              		@ args = 0, pretend = 0, frame = 0
 1537              		@ frame_needed = 0, uses_anonymous_args = 0
 1538              		.loc 1 348 1 is_stmt 0 view .LVU302
 1539 0000 08B5     		push	{r3, lr}
 1540              		.cfi_def_cfa_offset 8
 1541              		.cfi_offset 3, -8
 1542              		.cfi_offset 14, -4
 1543 0002 1346     		mov	r3, r2
 349:lvgl/src/core/lv_obj_style_gen.c ****     lv_style_value_t v = {
 1544              		.loc 1 349 5 is_stmt 1 view .LVU303
 350:lvgl/src/core/lv_obj_style_gen.c ****         .num = (int32_t)value
 351:lvgl/src/core/lv_obj_style_gen.c ****     };
 352:lvgl/src/core/lv_obj_style_gen.c ****     lv_obj_set_local_style_prop(obj, LV_STYLE_OUTLINE_OPA, v, selector);
 1545              		.loc 1 352 5 view .LVU304
 1546 0004 0A46     		mov	r2, r1
 1547              	.LVL173:
 1548              		.loc 1 352 5 is_stmt 0 view .LVU305
 1549 0006 3721     		movs	r1, #55
 1550              	.LVL174:
 1551              		.loc 1 352 5 view .LVU306
 1552 0008 FFF7FEFF 		bl	lv_obj_set_local_style_prop
 1553              	.LVL175:
 353:lvgl/src/core/lv_obj_style_gen.c **** }
 1554              		.loc 1 353 1 view .LVU307
 1555 000c 08BD     		pop	{r3, pc}
 1556              		.cfi_endproc
 1557              	.LFE204:
 1559              		.section	.text.lv_obj_set_style_outline_pad,"ax",%progbits
ARM GAS  C:\Users\OSD\AppData\Local\Temp\cc1vuvzH.s 			page 33


 1560              		.align	1
 1561              		.global	lv_obj_set_style_outline_pad
 1562              		.syntax unified
 1563              		.thumb
 1564              		.thumb_func
 1566              	lv_obj_set_style_outline_pad:
 1567              	.LVL176:
 1568              	.LFB205:
 354:lvgl/src/core/lv_obj_style_gen.c **** 
 355:lvgl/src/core/lv_obj_style_gen.c **** void lv_obj_set_style_outline_pad(struct _lv_obj_t * obj, lv_coord_t value, lv_style_selector_t sel
 356:lvgl/src/core/lv_obj_style_gen.c **** {
 1569              		.loc 1 356 1 is_stmt 1 view -0
 1570              		.cfi_startproc
 1571              		@ args = 0, pretend = 0, frame = 0
 1572              		@ frame_needed = 0, uses_anonymous_args = 0
 1573              		.loc 1 356 1 is_stmt 0 view .LVU309
 1574 0000 08B5     		push	{r3, lr}
 1575              		.cfi_def_cfa_offset 8
 1576              		.cfi_offset 3, -8
 1577              		.cfi_offset 14, -4
 1578 0002 1346     		mov	r3, r2
 357:lvgl/src/core/lv_obj_style_gen.c ****     lv_style_value_t v = {
 1579              		.loc 1 357 5 is_stmt 1 view .LVU310
 358:lvgl/src/core/lv_obj_style_gen.c ****         .num = (int32_t)value
 359:lvgl/src/core/lv_obj_style_gen.c ****     };
 360:lvgl/src/core/lv_obj_style_gen.c ****     lv_obj_set_local_style_prop(obj, LV_STYLE_OUTLINE_PAD, v, selector);
 1580              		.loc 1 360 5 view .LVU311
 1581 0004 0A46     		mov	r2, r1
 1582              	.LVL177:
 1583              		.loc 1 360 5 is_stmt 0 view .LVU312
 1584 0006 3821     		movs	r1, #56
 1585              	.LVL178:
 1586              		.loc 1 360 5 view .LVU313
 1587 0008 FFF7FEFF 		bl	lv_obj_set_local_style_prop
 1588              	.LVL179:
 361:lvgl/src/core/lv_obj_style_gen.c **** }
 1589              		.loc 1 361 1 view .LVU314
 1590 000c 08BD     		pop	{r3, pc}
 1591              		.cfi_endproc
 1592              	.LFE205:
 1594              		.section	.text.lv_obj_set_style_shadow_width,"ax",%progbits
 1595              		.align	1
 1596              		.global	lv_obj_set_style_shadow_width
 1597              		.syntax unified
 1598              		.thumb
 1599              		.thumb_func
 1601              	lv_obj_set_style_shadow_width:
 1602              	.LVL180:
 1603              	.LFB206:
 362:lvgl/src/core/lv_obj_style_gen.c **** 
 363:lvgl/src/core/lv_obj_style_gen.c **** void lv_obj_set_style_shadow_width(struct _lv_obj_t * obj, lv_coord_t value, lv_style_selector_t se
 364:lvgl/src/core/lv_obj_style_gen.c **** {
 1604              		.loc 1 364 1 is_stmt 1 view -0
 1605              		.cfi_startproc
 1606              		@ args = 0, pretend = 0, frame = 0
 1607              		@ frame_needed = 0, uses_anonymous_args = 0
 1608              		.loc 1 364 1 is_stmt 0 view .LVU316
ARM GAS  C:\Users\OSD\AppData\Local\Temp\cc1vuvzH.s 			page 34


 1609 0000 08B5     		push	{r3, lr}
 1610              		.cfi_def_cfa_offset 8
 1611              		.cfi_offset 3, -8
 1612              		.cfi_offset 14, -4
 1613 0002 1346     		mov	r3, r2
 365:lvgl/src/core/lv_obj_style_gen.c ****     lv_style_value_t v = {
 1614              		.loc 1 365 5 is_stmt 1 view .LVU317
 366:lvgl/src/core/lv_obj_style_gen.c ****         .num = (int32_t)value
 367:lvgl/src/core/lv_obj_style_gen.c ****     };
 368:lvgl/src/core/lv_obj_style_gen.c ****     lv_obj_set_local_style_prop(obj, LV_STYLE_SHADOW_WIDTH, v, selector);
 1615              		.loc 1 368 5 view .LVU318
 1616 0004 0A46     		mov	r2, r1
 1617              	.LVL181:
 1618              		.loc 1 368 5 is_stmt 0 view .LVU319
 1619 0006 4021     		movs	r1, #64
 1620              	.LVL182:
 1621              		.loc 1 368 5 view .LVU320
 1622 0008 FFF7FEFF 		bl	lv_obj_set_local_style_prop
 1623              	.LVL183:
 369:lvgl/src/core/lv_obj_style_gen.c **** }
 1624              		.loc 1 369 1 view .LVU321
 1625 000c 08BD     		pop	{r3, pc}
 1626              		.cfi_endproc
 1627              	.LFE206:
 1629              		.section	.text.lv_obj_set_style_shadow_ofs_x,"ax",%progbits
 1630              		.align	1
 1631              		.global	lv_obj_set_style_shadow_ofs_x
 1632              		.syntax unified
 1633              		.thumb
 1634              		.thumb_func
 1636              	lv_obj_set_style_shadow_ofs_x:
 1637              	.LVL184:
 1638              	.LFB207:
 370:lvgl/src/core/lv_obj_style_gen.c **** 
 371:lvgl/src/core/lv_obj_style_gen.c **** void lv_obj_set_style_shadow_ofs_x(struct _lv_obj_t * obj, lv_coord_t value, lv_style_selector_t se
 372:lvgl/src/core/lv_obj_style_gen.c **** {
 1639              		.loc 1 372 1 is_stmt 1 view -0
 1640              		.cfi_startproc
 1641              		@ args = 0, pretend = 0, frame = 0
 1642              		@ frame_needed = 0, uses_anonymous_args = 0
 1643              		.loc 1 372 1 is_stmt 0 view .LVU323
 1644 0000 08B5     		push	{r3, lr}
 1645              		.cfi_def_cfa_offset 8
 1646              		.cfi_offset 3, -8
 1647              		.cfi_offset 14, -4
 1648 0002 1346     		mov	r3, r2
 373:lvgl/src/core/lv_obj_style_gen.c ****     lv_style_value_t v = {
 1649              		.loc 1 373 5 is_stmt 1 view .LVU324
 374:lvgl/src/core/lv_obj_style_gen.c ****         .num = (int32_t)value
 375:lvgl/src/core/lv_obj_style_gen.c ****     };
 376:lvgl/src/core/lv_obj_style_gen.c ****     lv_obj_set_local_style_prop(obj, LV_STYLE_SHADOW_OFS_X, v, selector);
 1650              		.loc 1 376 5 view .LVU325
 1651 0004 0A46     		mov	r2, r1
 1652              	.LVL185:
 1653              		.loc 1 376 5 is_stmt 0 view .LVU326
 1654 0006 4121     		movs	r1, #65
 1655              	.LVL186:
ARM GAS  C:\Users\OSD\AppData\Local\Temp\cc1vuvzH.s 			page 35


 1656              		.loc 1 376 5 view .LVU327
 1657 0008 FFF7FEFF 		bl	lv_obj_set_local_style_prop
 1658              	.LVL187:
 377:lvgl/src/core/lv_obj_style_gen.c **** }
 1659              		.loc 1 377 1 view .LVU328
 1660 000c 08BD     		pop	{r3, pc}
 1661              		.cfi_endproc
 1662              	.LFE207:
 1664              		.section	.text.lv_obj_set_style_shadow_ofs_y,"ax",%progbits
 1665              		.align	1
 1666              		.global	lv_obj_set_style_shadow_ofs_y
 1667              		.syntax unified
 1668              		.thumb
 1669              		.thumb_func
 1671              	lv_obj_set_style_shadow_ofs_y:
 1672              	.LVL188:
 1673              	.LFB208:
 378:lvgl/src/core/lv_obj_style_gen.c **** 
 379:lvgl/src/core/lv_obj_style_gen.c **** void lv_obj_set_style_shadow_ofs_y(struct _lv_obj_t * obj, lv_coord_t value, lv_style_selector_t se
 380:lvgl/src/core/lv_obj_style_gen.c **** {
 1674              		.loc 1 380 1 is_stmt 1 view -0
 1675              		.cfi_startproc
 1676              		@ args = 0, pretend = 0, frame = 0
 1677              		@ frame_needed = 0, uses_anonymous_args = 0
 1678              		.loc 1 380 1 is_stmt 0 view .LVU330
 1679 0000 08B5     		push	{r3, lr}
 1680              		.cfi_def_cfa_offset 8
 1681              		.cfi_offset 3, -8
 1682              		.cfi_offset 14, -4
 1683 0002 1346     		mov	r3, r2
 381:lvgl/src/core/lv_obj_style_gen.c ****     lv_style_value_t v = {
 1684              		.loc 1 381 5 is_stmt 1 view .LVU331
 382:lvgl/src/core/lv_obj_style_gen.c ****         .num = (int32_t)value
 383:lvgl/src/core/lv_obj_style_gen.c ****     };
 384:lvgl/src/core/lv_obj_style_gen.c ****     lv_obj_set_local_style_prop(obj, LV_STYLE_SHADOW_OFS_Y, v, selector);
 1685              		.loc 1 384 5 view .LVU332
 1686 0004 0A46     		mov	r2, r1
 1687              	.LVL189:
 1688              		.loc 1 384 5 is_stmt 0 view .LVU333
 1689 0006 4221     		movs	r1, #66
 1690              	.LVL190:
 1691              		.loc 1 384 5 view .LVU334
 1692 0008 FFF7FEFF 		bl	lv_obj_set_local_style_prop
 1693              	.LVL191:
 385:lvgl/src/core/lv_obj_style_gen.c **** }
 1694              		.loc 1 385 1 view .LVU335
 1695 000c 08BD     		pop	{r3, pc}
 1696              		.cfi_endproc
 1697              	.LFE208:
 1699              		.section	.text.lv_obj_set_style_shadow_spread,"ax",%progbits
 1700              		.align	1
 1701              		.global	lv_obj_set_style_shadow_spread
 1702              		.syntax unified
 1703              		.thumb
 1704              		.thumb_func
 1706              	lv_obj_set_style_shadow_spread:
 1707              	.LVL192:
ARM GAS  C:\Users\OSD\AppData\Local\Temp\cc1vuvzH.s 			page 36


 1708              	.LFB209:
 386:lvgl/src/core/lv_obj_style_gen.c **** 
 387:lvgl/src/core/lv_obj_style_gen.c **** void lv_obj_set_style_shadow_spread(struct _lv_obj_t * obj, lv_coord_t value, lv_style_selector_t s
 388:lvgl/src/core/lv_obj_style_gen.c **** {
 1709              		.loc 1 388 1 is_stmt 1 view -0
 1710              		.cfi_startproc
 1711              		@ args = 0, pretend = 0, frame = 0
 1712              		@ frame_needed = 0, uses_anonymous_args = 0
 1713              		.loc 1 388 1 is_stmt 0 view .LVU337
 1714 0000 08B5     		push	{r3, lr}
 1715              		.cfi_def_cfa_offset 8
 1716              		.cfi_offset 3, -8
 1717              		.cfi_offset 14, -4
 1718 0002 1346     		mov	r3, r2
 389:lvgl/src/core/lv_obj_style_gen.c ****     lv_style_value_t v = {
 1719              		.loc 1 389 5 is_stmt 1 view .LVU338
 390:lvgl/src/core/lv_obj_style_gen.c ****         .num = (int32_t)value
 391:lvgl/src/core/lv_obj_style_gen.c ****     };
 392:lvgl/src/core/lv_obj_style_gen.c ****     lv_obj_set_local_style_prop(obj, LV_STYLE_SHADOW_SPREAD, v, selector);
 1720              		.loc 1 392 5 view .LVU339
 1721 0004 0A46     		mov	r2, r1
 1722              	.LVL193:
 1723              		.loc 1 392 5 is_stmt 0 view .LVU340
 1724 0006 4321     		movs	r1, #67
 1725              	.LVL194:
 1726              		.loc 1 392 5 view .LVU341
 1727 0008 FFF7FEFF 		bl	lv_obj_set_local_style_prop
 1728              	.LVL195:
 393:lvgl/src/core/lv_obj_style_gen.c **** }
 1729              		.loc 1 393 1 view .LVU342
 1730 000c 08BD     		pop	{r3, pc}
 1731              		.cfi_endproc
 1732              	.LFE209:
 1734              		.section	.text.lv_obj_set_style_shadow_color,"ax",%progbits
 1735              		.align	1
 1736              		.global	lv_obj_set_style_shadow_color
 1737              		.syntax unified
 1738              		.thumb
 1739              		.thumb_func
 1741              	lv_obj_set_style_shadow_color:
 1742              	.LVL196:
 1743              	.LFB210:
 394:lvgl/src/core/lv_obj_style_gen.c **** 
 395:lvgl/src/core/lv_obj_style_gen.c **** void lv_obj_set_style_shadow_color(struct _lv_obj_t * obj, lv_color_t value, lv_style_selector_t se
 396:lvgl/src/core/lv_obj_style_gen.c **** {
 1744              		.loc 1 396 1 is_stmt 1 view -0
 1745              		.cfi_startproc
 1746              		@ args = 0, pretend = 0, frame = 0
 1747              		@ frame_needed = 0, uses_anonymous_args = 0
 1748              		.loc 1 396 1 is_stmt 0 view .LVU344
 1749 0000 08B5     		push	{r3, lr}
 1750              		.cfi_def_cfa_offset 8
 1751              		.cfi_offset 3, -8
 1752              		.cfi_offset 14, -4
 1753 0002 1346     		mov	r3, r2
 397:lvgl/src/core/lv_obj_style_gen.c ****     lv_style_value_t v = {
 1754              		.loc 1 397 5 is_stmt 1 view .LVU345
ARM GAS  C:\Users\OSD\AppData\Local\Temp\cc1vuvzH.s 			page 37


 398:lvgl/src/core/lv_obj_style_gen.c ****         .color = value
 399:lvgl/src/core/lv_obj_style_gen.c ****     };
 400:lvgl/src/core/lv_obj_style_gen.c ****     lv_obj_set_local_style_prop(obj, LV_STYLE_SHADOW_COLOR, v, selector);
 1755              		.loc 1 400 5 view .LVU346
 1756 0004 0A46     		mov	r2, r1
 1757              	.LVL197:
 1758              		.loc 1 400 5 is_stmt 0 view .LVU347
 1759 0006 4421     		movs	r1, #68
 1760              	.LVL198:
 1761              		.loc 1 400 5 view .LVU348
 1762 0008 FFF7FEFF 		bl	lv_obj_set_local_style_prop
 1763              	.LVL199:
 401:lvgl/src/core/lv_obj_style_gen.c **** }
 1764              		.loc 1 401 1 view .LVU349
 1765 000c 08BD     		pop	{r3, pc}
 1766              		.cfi_endproc
 1767              	.LFE210:
 1769              		.section	.text.lv_obj_set_style_shadow_opa,"ax",%progbits
 1770              		.align	1
 1771              		.global	lv_obj_set_style_shadow_opa
 1772              		.syntax unified
 1773              		.thumb
 1774              		.thumb_func
 1776              	lv_obj_set_style_shadow_opa:
 1777              	.LVL200:
 1778              	.LFB211:
 402:lvgl/src/core/lv_obj_style_gen.c **** 
 403:lvgl/src/core/lv_obj_style_gen.c **** void lv_obj_set_style_shadow_opa(struct _lv_obj_t * obj, lv_opa_t value, lv_style_selector_t select
 404:lvgl/src/core/lv_obj_style_gen.c **** {
 1779              		.loc 1 404 1 is_stmt 1 view -0
 1780              		.cfi_startproc
 1781              		@ args = 0, pretend = 0, frame = 0
 1782              		@ frame_needed = 0, uses_anonymous_args = 0
 1783              		.loc 1 404 1 is_stmt 0 view .LVU351
 1784 0000 08B5     		push	{r3, lr}
 1785              		.cfi_def_cfa_offset 8
 1786              		.cfi_offset 3, -8
 1787              		.cfi_offset 14, -4
 1788 0002 1346     		mov	r3, r2
 405:lvgl/src/core/lv_obj_style_gen.c ****     lv_style_value_t v = {
 1789              		.loc 1 405 5 is_stmt 1 view .LVU352
 406:lvgl/src/core/lv_obj_style_gen.c ****         .num = (int32_t)value
 407:lvgl/src/core/lv_obj_style_gen.c ****     };
 408:lvgl/src/core/lv_obj_style_gen.c ****     lv_obj_set_local_style_prop(obj, LV_STYLE_SHADOW_OPA, v, selector);
 1790              		.loc 1 408 5 view .LVU353
 1791 0004 0A46     		mov	r2, r1
 1792              	.LVL201:
 1793              		.loc 1 408 5 is_stmt 0 view .LVU354
 1794 0006 4521     		movs	r1, #69
 1795              	.LVL202:
 1796              		.loc 1 408 5 view .LVU355
 1797 0008 FFF7FEFF 		bl	lv_obj_set_local_style_prop
 1798              	.LVL203:
 409:lvgl/src/core/lv_obj_style_gen.c **** }
 1799              		.loc 1 409 1 view .LVU356
 1800 000c 08BD     		pop	{r3, pc}
 1801              		.cfi_endproc
ARM GAS  C:\Users\OSD\AppData\Local\Temp\cc1vuvzH.s 			page 38


 1802              	.LFE211:
 1804              		.section	.text.lv_obj_set_style_img_opa,"ax",%progbits
 1805              		.align	1
 1806              		.global	lv_obj_set_style_img_opa
 1807              		.syntax unified
 1808              		.thumb
 1809              		.thumb_func
 1811              	lv_obj_set_style_img_opa:
 1812              	.LVL204:
 1813              	.LFB212:
 410:lvgl/src/core/lv_obj_style_gen.c **** 
 411:lvgl/src/core/lv_obj_style_gen.c **** void lv_obj_set_style_img_opa(struct _lv_obj_t * obj, lv_opa_t value, lv_style_selector_t selector)
 412:lvgl/src/core/lv_obj_style_gen.c **** {
 1814              		.loc 1 412 1 is_stmt 1 view -0
 1815              		.cfi_startproc
 1816              		@ args = 0, pretend = 0, frame = 0
 1817              		@ frame_needed = 0, uses_anonymous_args = 0
 1818              		.loc 1 412 1 is_stmt 0 view .LVU358
 1819 0000 08B5     		push	{r3, lr}
 1820              		.cfi_def_cfa_offset 8
 1821              		.cfi_offset 3, -8
 1822              		.cfi_offset 14, -4
 1823 0002 1346     		mov	r3, r2
 413:lvgl/src/core/lv_obj_style_gen.c ****     lv_style_value_t v = {
 1824              		.loc 1 413 5 is_stmt 1 view .LVU359
 414:lvgl/src/core/lv_obj_style_gen.c ****         .num = (int32_t)value
 415:lvgl/src/core/lv_obj_style_gen.c ****     };
 416:lvgl/src/core/lv_obj_style_gen.c ****     lv_obj_set_local_style_prop(obj, LV_STYLE_IMG_OPA, v, selector);
 1825              		.loc 1 416 5 view .LVU360
 1826 0004 0A46     		mov	r2, r1
 1827              	.LVL205:
 1828              		.loc 1 416 5 is_stmt 0 view .LVU361
 1829 0006 4621     		movs	r1, #70
 1830              	.LVL206:
 1831              		.loc 1 416 5 view .LVU362
 1832 0008 FFF7FEFF 		bl	lv_obj_set_local_style_prop
 1833              	.LVL207:
 417:lvgl/src/core/lv_obj_style_gen.c **** }
 1834              		.loc 1 417 1 view .LVU363
 1835 000c 08BD     		pop	{r3, pc}
 1836              		.cfi_endproc
 1837              	.LFE212:
 1839              		.section	.text.lv_obj_set_style_img_recolor,"ax",%progbits
 1840              		.align	1
 1841              		.global	lv_obj_set_style_img_recolor
 1842              		.syntax unified
 1843              		.thumb
 1844              		.thumb_func
 1846              	lv_obj_set_style_img_recolor:
 1847              	.LVL208:
 1848              	.LFB213:
 418:lvgl/src/core/lv_obj_style_gen.c **** 
 419:lvgl/src/core/lv_obj_style_gen.c **** void lv_obj_set_style_img_recolor(struct _lv_obj_t * obj, lv_color_t value, lv_style_selector_t sel
 420:lvgl/src/core/lv_obj_style_gen.c **** {
 1849              		.loc 1 420 1 is_stmt 1 view -0
 1850              		.cfi_startproc
 1851              		@ args = 0, pretend = 0, frame = 0
ARM GAS  C:\Users\OSD\AppData\Local\Temp\cc1vuvzH.s 			page 39


 1852              		@ frame_needed = 0, uses_anonymous_args = 0
 1853              		.loc 1 420 1 is_stmt 0 view .LVU365
 1854 0000 08B5     		push	{r3, lr}
 1855              		.cfi_def_cfa_offset 8
 1856              		.cfi_offset 3, -8
 1857              		.cfi_offset 14, -4
 1858 0002 1346     		mov	r3, r2
 421:lvgl/src/core/lv_obj_style_gen.c ****     lv_style_value_t v = {
 1859              		.loc 1 421 5 is_stmt 1 view .LVU366
 422:lvgl/src/core/lv_obj_style_gen.c ****         .color = value
 423:lvgl/src/core/lv_obj_style_gen.c ****     };
 424:lvgl/src/core/lv_obj_style_gen.c ****     lv_obj_set_local_style_prop(obj, LV_STYLE_IMG_RECOLOR, v, selector);
 1860              		.loc 1 424 5 view .LVU367
 1861 0004 0A46     		mov	r2, r1
 1862              	.LVL209:
 1863              		.loc 1 424 5 is_stmt 0 view .LVU368
 1864 0006 4721     		movs	r1, #71
 1865              	.LVL210:
 1866              		.loc 1 424 5 view .LVU369
 1867 0008 FFF7FEFF 		bl	lv_obj_set_local_style_prop
 1868              	.LVL211:
 425:lvgl/src/core/lv_obj_style_gen.c **** }
 1869              		.loc 1 425 1 view .LVU370
 1870 000c 08BD     		pop	{r3, pc}
 1871              		.cfi_endproc
 1872              	.LFE213:
 1874              		.section	.text.lv_obj_set_style_img_recolor_opa,"ax",%progbits
 1875              		.align	1
 1876              		.global	lv_obj_set_style_img_recolor_opa
 1877              		.syntax unified
 1878              		.thumb
 1879              		.thumb_func
 1881              	lv_obj_set_style_img_recolor_opa:
 1882              	.LVL212:
 1883              	.LFB214:
 426:lvgl/src/core/lv_obj_style_gen.c **** 
 427:lvgl/src/core/lv_obj_style_gen.c **** void lv_obj_set_style_img_recolor_opa(struct _lv_obj_t * obj, lv_opa_t value, lv_style_selector_t s
 428:lvgl/src/core/lv_obj_style_gen.c **** {
 1884              		.loc 1 428 1 is_stmt 1 view -0
 1885              		.cfi_startproc
 1886              		@ args = 0, pretend = 0, frame = 0
 1887              		@ frame_needed = 0, uses_anonymous_args = 0
 1888              		.loc 1 428 1 is_stmt 0 view .LVU372
 1889 0000 08B5     		push	{r3, lr}
 1890              		.cfi_def_cfa_offset 8
 1891              		.cfi_offset 3, -8
 1892              		.cfi_offset 14, -4
 1893 0002 1346     		mov	r3, r2
 429:lvgl/src/core/lv_obj_style_gen.c ****     lv_style_value_t v = {
 1894              		.loc 1 429 5 is_stmt 1 view .LVU373
 430:lvgl/src/core/lv_obj_style_gen.c ****         .num = (int32_t)value
 431:lvgl/src/core/lv_obj_style_gen.c ****     };
 432:lvgl/src/core/lv_obj_style_gen.c ****     lv_obj_set_local_style_prop(obj, LV_STYLE_IMG_RECOLOR_OPA, v, selector);
 1895              		.loc 1 432 5 view .LVU374
 1896 0004 0A46     		mov	r2, r1
 1897              	.LVL213:
 1898              		.loc 1 432 5 is_stmt 0 view .LVU375
ARM GAS  C:\Users\OSD\AppData\Local\Temp\cc1vuvzH.s 			page 40


 1899 0006 4821     		movs	r1, #72
 1900              	.LVL214:
 1901              		.loc 1 432 5 view .LVU376
 1902 0008 FFF7FEFF 		bl	lv_obj_set_local_style_prop
 1903              	.LVL215:
 433:lvgl/src/core/lv_obj_style_gen.c **** }
 1904              		.loc 1 433 1 view .LVU377
 1905 000c 08BD     		pop	{r3, pc}
 1906              		.cfi_endproc
 1907              	.LFE214:
 1909              		.section	.text.lv_obj_set_style_line_width,"ax",%progbits
 1910              		.align	1
 1911              		.global	lv_obj_set_style_line_width
 1912              		.syntax unified
 1913              		.thumb
 1914              		.thumb_func
 1916              	lv_obj_set_style_line_width:
 1917              	.LVL216:
 1918              	.LFB215:
 434:lvgl/src/core/lv_obj_style_gen.c **** 
 435:lvgl/src/core/lv_obj_style_gen.c **** void lv_obj_set_style_line_width(struct _lv_obj_t * obj, lv_coord_t value, lv_style_selector_t sele
 436:lvgl/src/core/lv_obj_style_gen.c **** {
 1919              		.loc 1 436 1 is_stmt 1 view -0
 1920              		.cfi_startproc
 1921              		@ args = 0, pretend = 0, frame = 0
 1922              		@ frame_needed = 0, uses_anonymous_args = 0
 1923              		.loc 1 436 1 is_stmt 0 view .LVU379
 1924 0000 08B5     		push	{r3, lr}
 1925              		.cfi_def_cfa_offset 8
 1926              		.cfi_offset 3, -8
 1927              		.cfi_offset 14, -4
 1928 0002 1346     		mov	r3, r2
 437:lvgl/src/core/lv_obj_style_gen.c ****     lv_style_value_t v = {
 1929              		.loc 1 437 5 is_stmt 1 view .LVU380
 438:lvgl/src/core/lv_obj_style_gen.c ****         .num = (int32_t)value
 439:lvgl/src/core/lv_obj_style_gen.c ****     };
 440:lvgl/src/core/lv_obj_style_gen.c ****     lv_obj_set_local_style_prop(obj, LV_STYLE_LINE_WIDTH, v, selector);
 1930              		.loc 1 440 5 view .LVU381
 1931 0004 0A46     		mov	r2, r1
 1932              	.LVL217:
 1933              		.loc 1 440 5 is_stmt 0 view .LVU382
 1934 0006 4921     		movs	r1, #73
 1935              	.LVL218:
 1936              		.loc 1 440 5 view .LVU383
 1937 0008 FFF7FEFF 		bl	lv_obj_set_local_style_prop
 1938              	.LVL219:
 441:lvgl/src/core/lv_obj_style_gen.c **** }
 1939              		.loc 1 441 1 view .LVU384
 1940 000c 08BD     		pop	{r3, pc}
 1941              		.cfi_endproc
 1942              	.LFE215:
 1944              		.section	.text.lv_obj_set_style_line_dash_width,"ax",%progbits
 1945              		.align	1
 1946              		.global	lv_obj_set_style_line_dash_width
 1947              		.syntax unified
 1948              		.thumb
 1949              		.thumb_func
ARM GAS  C:\Users\OSD\AppData\Local\Temp\cc1vuvzH.s 			page 41


 1951              	lv_obj_set_style_line_dash_width:
 1952              	.LVL220:
 1953              	.LFB216:
 442:lvgl/src/core/lv_obj_style_gen.c **** 
 443:lvgl/src/core/lv_obj_style_gen.c **** void lv_obj_set_style_line_dash_width(struct _lv_obj_t * obj, lv_coord_t value, lv_style_selector_t
 444:lvgl/src/core/lv_obj_style_gen.c **** {
 1954              		.loc 1 444 1 is_stmt 1 view -0
 1955              		.cfi_startproc
 1956              		@ args = 0, pretend = 0, frame = 0
 1957              		@ frame_needed = 0, uses_anonymous_args = 0
 1958              		.loc 1 444 1 is_stmt 0 view .LVU386
 1959 0000 08B5     		push	{r3, lr}
 1960              		.cfi_def_cfa_offset 8
 1961              		.cfi_offset 3, -8
 1962              		.cfi_offset 14, -4
 1963 0002 1346     		mov	r3, r2
 445:lvgl/src/core/lv_obj_style_gen.c ****     lv_style_value_t v = {
 1964              		.loc 1 445 5 is_stmt 1 view .LVU387
 446:lvgl/src/core/lv_obj_style_gen.c ****         .num = (int32_t)value
 447:lvgl/src/core/lv_obj_style_gen.c ****     };
 448:lvgl/src/core/lv_obj_style_gen.c ****     lv_obj_set_local_style_prop(obj, LV_STYLE_LINE_DASH_WIDTH, v, selector);
 1965              		.loc 1 448 5 view .LVU388
 1966 0004 0A46     		mov	r2, r1
 1967              	.LVL221:
 1968              		.loc 1 448 5 is_stmt 0 view .LVU389
 1969 0006 4A21     		movs	r1, #74
 1970              	.LVL222:
 1971              		.loc 1 448 5 view .LVU390
 1972 0008 FFF7FEFF 		bl	lv_obj_set_local_style_prop
 1973              	.LVL223:
 449:lvgl/src/core/lv_obj_style_gen.c **** }
 1974              		.loc 1 449 1 view .LVU391
 1975 000c 08BD     		pop	{r3, pc}
 1976              		.cfi_endproc
 1977              	.LFE216:
 1979              		.section	.text.lv_obj_set_style_line_dash_gap,"ax",%progbits
 1980              		.align	1
 1981              		.global	lv_obj_set_style_line_dash_gap
 1982              		.syntax unified
 1983              		.thumb
 1984              		.thumb_func
 1986              	lv_obj_set_style_line_dash_gap:
 1987              	.LVL224:
 1988              	.LFB217:
 450:lvgl/src/core/lv_obj_style_gen.c **** 
 451:lvgl/src/core/lv_obj_style_gen.c **** void lv_obj_set_style_line_dash_gap(struct _lv_obj_t * obj, lv_coord_t value, lv_style_selector_t s
 452:lvgl/src/core/lv_obj_style_gen.c **** {
 1989              		.loc 1 452 1 is_stmt 1 view -0
 1990              		.cfi_startproc
 1991              		@ args = 0, pretend = 0, frame = 0
 1992              		@ frame_needed = 0, uses_anonymous_args = 0
 1993              		.loc 1 452 1 is_stmt 0 view .LVU393
 1994 0000 08B5     		push	{r3, lr}
 1995              		.cfi_def_cfa_offset 8
 1996              		.cfi_offset 3, -8
 1997              		.cfi_offset 14, -4
 1998 0002 1346     		mov	r3, r2
ARM GAS  C:\Users\OSD\AppData\Local\Temp\cc1vuvzH.s 			page 42


 453:lvgl/src/core/lv_obj_style_gen.c ****     lv_style_value_t v = {
 1999              		.loc 1 453 5 is_stmt 1 view .LVU394
 454:lvgl/src/core/lv_obj_style_gen.c ****         .num = (int32_t)value
 455:lvgl/src/core/lv_obj_style_gen.c ****     };
 456:lvgl/src/core/lv_obj_style_gen.c ****     lv_obj_set_local_style_prop(obj, LV_STYLE_LINE_DASH_GAP, v, selector);
 2000              		.loc 1 456 5 view .LVU395
 2001 0004 0A46     		mov	r2, r1
 2002              	.LVL225:
 2003              		.loc 1 456 5 is_stmt 0 view .LVU396
 2004 0006 4B21     		movs	r1, #75
 2005              	.LVL226:
 2006              		.loc 1 456 5 view .LVU397
 2007 0008 FFF7FEFF 		bl	lv_obj_set_local_style_prop
 2008              	.LVL227:
 457:lvgl/src/core/lv_obj_style_gen.c **** }
 2009              		.loc 1 457 1 view .LVU398
 2010 000c 08BD     		pop	{r3, pc}
 2011              		.cfi_endproc
 2012              	.LFE217:
 2014              		.section	.text.lv_obj_set_style_line_rounded,"ax",%progbits
 2015              		.align	1
 2016              		.global	lv_obj_set_style_line_rounded
 2017              		.syntax unified
 2018              		.thumb
 2019              		.thumb_func
 2021              	lv_obj_set_style_line_rounded:
 2022              	.LVL228:
 2023              	.LFB218:
 458:lvgl/src/core/lv_obj_style_gen.c **** 
 459:lvgl/src/core/lv_obj_style_gen.c **** void lv_obj_set_style_line_rounded(struct _lv_obj_t * obj, bool value, lv_style_selector_t selector
 460:lvgl/src/core/lv_obj_style_gen.c **** {
 2024              		.loc 1 460 1 is_stmt 1 view -0
 2025              		.cfi_startproc
 2026              		@ args = 0, pretend = 0, frame = 0
 2027              		@ frame_needed = 0, uses_anonymous_args = 0
 2028              		.loc 1 460 1 is_stmt 0 view .LVU400
 2029 0000 08B5     		push	{r3, lr}
 2030              		.cfi_def_cfa_offset 8
 2031              		.cfi_offset 3, -8
 2032              		.cfi_offset 14, -4
 2033 0002 1346     		mov	r3, r2
 461:lvgl/src/core/lv_obj_style_gen.c ****     lv_style_value_t v = {
 2034              		.loc 1 461 5 is_stmt 1 view .LVU401
 462:lvgl/src/core/lv_obj_style_gen.c ****         .num = (int32_t)value
 463:lvgl/src/core/lv_obj_style_gen.c ****     };
 464:lvgl/src/core/lv_obj_style_gen.c ****     lv_obj_set_local_style_prop(obj, LV_STYLE_LINE_ROUNDED, v, selector);
 2035              		.loc 1 464 5 view .LVU402
 2036 0004 0A46     		mov	r2, r1
 2037              	.LVL229:
 2038              		.loc 1 464 5 is_stmt 0 view .LVU403
 2039 0006 4C21     		movs	r1, #76
 2040              	.LVL230:
 2041              		.loc 1 464 5 view .LVU404
 2042 0008 FFF7FEFF 		bl	lv_obj_set_local_style_prop
 2043              	.LVL231:
 465:lvgl/src/core/lv_obj_style_gen.c **** }
 2044              		.loc 1 465 1 view .LVU405
ARM GAS  C:\Users\OSD\AppData\Local\Temp\cc1vuvzH.s 			page 43


 2045 000c 08BD     		pop	{r3, pc}
 2046              		.cfi_endproc
 2047              	.LFE218:
 2049              		.section	.text.lv_obj_set_style_line_color,"ax",%progbits
 2050              		.align	1
 2051              		.global	lv_obj_set_style_line_color
 2052              		.syntax unified
 2053              		.thumb
 2054              		.thumb_func
 2056              	lv_obj_set_style_line_color:
 2057              	.LVL232:
 2058              	.LFB219:
 466:lvgl/src/core/lv_obj_style_gen.c **** 
 467:lvgl/src/core/lv_obj_style_gen.c **** void lv_obj_set_style_line_color(struct _lv_obj_t * obj, lv_color_t value, lv_style_selector_t sele
 468:lvgl/src/core/lv_obj_style_gen.c **** {
 2059              		.loc 1 468 1 is_stmt 1 view -0
 2060              		.cfi_startproc
 2061              		@ args = 0, pretend = 0, frame = 0
 2062              		@ frame_needed = 0, uses_anonymous_args = 0
 2063              		.loc 1 468 1 is_stmt 0 view .LVU407
 2064 0000 08B5     		push	{r3, lr}
 2065              		.cfi_def_cfa_offset 8
 2066              		.cfi_offset 3, -8
 2067              		.cfi_offset 14, -4
 2068 0002 1346     		mov	r3, r2
 469:lvgl/src/core/lv_obj_style_gen.c ****     lv_style_value_t v = {
 2069              		.loc 1 469 5 is_stmt 1 view .LVU408
 470:lvgl/src/core/lv_obj_style_gen.c ****         .color = value
 471:lvgl/src/core/lv_obj_style_gen.c ****     };
 472:lvgl/src/core/lv_obj_style_gen.c ****     lv_obj_set_local_style_prop(obj, LV_STYLE_LINE_COLOR, v, selector);
 2070              		.loc 1 472 5 view .LVU409
 2071 0004 0A46     		mov	r2, r1
 2072              	.LVL233:
 2073              		.loc 1 472 5 is_stmt 0 view .LVU410
 2074 0006 4D21     		movs	r1, #77
 2075              	.LVL234:
 2076              		.loc 1 472 5 view .LVU411
 2077 0008 FFF7FEFF 		bl	lv_obj_set_local_style_prop
 2078              	.LVL235:
 473:lvgl/src/core/lv_obj_style_gen.c **** }
 2079              		.loc 1 473 1 view .LVU412
 2080 000c 08BD     		pop	{r3, pc}
 2081              		.cfi_endproc
 2082              	.LFE219:
 2084              		.section	.text.lv_obj_set_style_line_opa,"ax",%progbits
 2085              		.align	1
 2086              		.global	lv_obj_set_style_line_opa
 2087              		.syntax unified
 2088              		.thumb
 2089              		.thumb_func
 2091              	lv_obj_set_style_line_opa:
 2092              	.LVL236:
 2093              	.LFB220:
 474:lvgl/src/core/lv_obj_style_gen.c **** 
 475:lvgl/src/core/lv_obj_style_gen.c **** void lv_obj_set_style_line_opa(struct _lv_obj_t * obj, lv_opa_t value, lv_style_selector_t selector
 476:lvgl/src/core/lv_obj_style_gen.c **** {
 2094              		.loc 1 476 1 is_stmt 1 view -0
ARM GAS  C:\Users\OSD\AppData\Local\Temp\cc1vuvzH.s 			page 44


 2095              		.cfi_startproc
 2096              		@ args = 0, pretend = 0, frame = 0
 2097              		@ frame_needed = 0, uses_anonymous_args = 0
 2098              		.loc 1 476 1 is_stmt 0 view .LVU414
 2099 0000 08B5     		push	{r3, lr}
 2100              		.cfi_def_cfa_offset 8
 2101              		.cfi_offset 3, -8
 2102              		.cfi_offset 14, -4
 2103 0002 1346     		mov	r3, r2
 477:lvgl/src/core/lv_obj_style_gen.c ****     lv_style_value_t v = {
 2104              		.loc 1 477 5 is_stmt 1 view .LVU415
 478:lvgl/src/core/lv_obj_style_gen.c ****         .num = (int32_t)value
 479:lvgl/src/core/lv_obj_style_gen.c ****     };
 480:lvgl/src/core/lv_obj_style_gen.c ****     lv_obj_set_local_style_prop(obj, LV_STYLE_LINE_OPA, v, selector);
 2105              		.loc 1 480 5 view .LVU416
 2106 0004 0A46     		mov	r2, r1
 2107              	.LVL237:
 2108              		.loc 1 480 5 is_stmt 0 view .LVU417
 2109 0006 4E21     		movs	r1, #78
 2110              	.LVL238:
 2111              		.loc 1 480 5 view .LVU418
 2112 0008 FFF7FEFF 		bl	lv_obj_set_local_style_prop
 2113              	.LVL239:
 481:lvgl/src/core/lv_obj_style_gen.c **** }
 2114              		.loc 1 481 1 view .LVU419
 2115 000c 08BD     		pop	{r3, pc}
 2116              		.cfi_endproc
 2117              	.LFE220:
 2119              		.section	.text.lv_obj_set_style_arc_width,"ax",%progbits
 2120              		.align	1
 2121              		.global	lv_obj_set_style_arc_width
 2122              		.syntax unified
 2123              		.thumb
 2124              		.thumb_func
 2126              	lv_obj_set_style_arc_width:
 2127              	.LVL240:
 2128              	.LFB221:
 482:lvgl/src/core/lv_obj_style_gen.c **** 
 483:lvgl/src/core/lv_obj_style_gen.c **** void lv_obj_set_style_arc_width(struct _lv_obj_t * obj, lv_coord_t value, lv_style_selector_t selec
 484:lvgl/src/core/lv_obj_style_gen.c **** {
 2129              		.loc 1 484 1 is_stmt 1 view -0
 2130              		.cfi_startproc
 2131              		@ args = 0, pretend = 0, frame = 0
 2132              		@ frame_needed = 0, uses_anonymous_args = 0
 2133              		.loc 1 484 1 is_stmt 0 view .LVU421
 2134 0000 08B5     		push	{r3, lr}
 2135              		.cfi_def_cfa_offset 8
 2136              		.cfi_offset 3, -8
 2137              		.cfi_offset 14, -4
 2138 0002 1346     		mov	r3, r2
 485:lvgl/src/core/lv_obj_style_gen.c ****     lv_style_value_t v = {
 2139              		.loc 1 485 5 is_stmt 1 view .LVU422
 486:lvgl/src/core/lv_obj_style_gen.c ****         .num = (int32_t)value
 487:lvgl/src/core/lv_obj_style_gen.c ****     };
 488:lvgl/src/core/lv_obj_style_gen.c ****     lv_obj_set_local_style_prop(obj, LV_STYLE_ARC_WIDTH, v, selector);
 2140              		.loc 1 488 5 view .LVU423
 2141 0004 0A46     		mov	r2, r1
ARM GAS  C:\Users\OSD\AppData\Local\Temp\cc1vuvzH.s 			page 45


 2142              	.LVL241:
 2143              		.loc 1 488 5 is_stmt 0 view .LVU424
 2144 0006 5021     		movs	r1, #80
 2145              	.LVL242:
 2146              		.loc 1 488 5 view .LVU425
 2147 0008 FFF7FEFF 		bl	lv_obj_set_local_style_prop
 2148              	.LVL243:
 489:lvgl/src/core/lv_obj_style_gen.c **** }
 2149              		.loc 1 489 1 view .LVU426
 2150 000c 08BD     		pop	{r3, pc}
 2151              		.cfi_endproc
 2152              	.LFE221:
 2154              		.section	.text.lv_obj_set_style_arc_rounded,"ax",%progbits
 2155              		.align	1
 2156              		.global	lv_obj_set_style_arc_rounded
 2157              		.syntax unified
 2158              		.thumb
 2159              		.thumb_func
 2161              	lv_obj_set_style_arc_rounded:
 2162              	.LVL244:
 2163              	.LFB222:
 490:lvgl/src/core/lv_obj_style_gen.c **** 
 491:lvgl/src/core/lv_obj_style_gen.c **** void lv_obj_set_style_arc_rounded(struct _lv_obj_t * obj, bool value, lv_style_selector_t selector)
 492:lvgl/src/core/lv_obj_style_gen.c **** {
 2164              		.loc 1 492 1 is_stmt 1 view -0
 2165              		.cfi_startproc
 2166              		@ args = 0, pretend = 0, frame = 0
 2167              		@ frame_needed = 0, uses_anonymous_args = 0
 2168              		.loc 1 492 1 is_stmt 0 view .LVU428
 2169 0000 08B5     		push	{r3, lr}
 2170              		.cfi_def_cfa_offset 8
 2171              		.cfi_offset 3, -8
 2172              		.cfi_offset 14, -4
 2173 0002 1346     		mov	r3, r2
 493:lvgl/src/core/lv_obj_style_gen.c ****     lv_style_value_t v = {
 2174              		.loc 1 493 5 is_stmt 1 view .LVU429
 494:lvgl/src/core/lv_obj_style_gen.c ****         .num = (int32_t)value
 495:lvgl/src/core/lv_obj_style_gen.c ****     };
 496:lvgl/src/core/lv_obj_style_gen.c ****     lv_obj_set_local_style_prop(obj, LV_STYLE_ARC_ROUNDED, v, selector);
 2175              		.loc 1 496 5 view .LVU430
 2176 0004 0A46     		mov	r2, r1
 2177              	.LVL245:
 2178              		.loc 1 496 5 is_stmt 0 view .LVU431
 2179 0006 5121     		movs	r1, #81
 2180              	.LVL246:
 2181              		.loc 1 496 5 view .LVU432
 2182 0008 FFF7FEFF 		bl	lv_obj_set_local_style_prop
 2183              	.LVL247:
 497:lvgl/src/core/lv_obj_style_gen.c **** }
 2184              		.loc 1 497 1 view .LVU433
 2185 000c 08BD     		pop	{r3, pc}
 2186              		.cfi_endproc
 2187              	.LFE222:
 2189              		.section	.text.lv_obj_set_style_arc_color,"ax",%progbits
 2190              		.align	1
 2191              		.global	lv_obj_set_style_arc_color
 2192              		.syntax unified
ARM GAS  C:\Users\OSD\AppData\Local\Temp\cc1vuvzH.s 			page 46


 2193              		.thumb
 2194              		.thumb_func
 2196              	lv_obj_set_style_arc_color:
 2197              	.LVL248:
 2198              	.LFB223:
 498:lvgl/src/core/lv_obj_style_gen.c **** 
 499:lvgl/src/core/lv_obj_style_gen.c **** void lv_obj_set_style_arc_color(struct _lv_obj_t * obj, lv_color_t value, lv_style_selector_t selec
 500:lvgl/src/core/lv_obj_style_gen.c **** {
 2199              		.loc 1 500 1 is_stmt 1 view -0
 2200              		.cfi_startproc
 2201              		@ args = 0, pretend = 0, frame = 0
 2202              		@ frame_needed = 0, uses_anonymous_args = 0
 2203              		.loc 1 500 1 is_stmt 0 view .LVU435
 2204 0000 08B5     		push	{r3, lr}
 2205              		.cfi_def_cfa_offset 8
 2206              		.cfi_offset 3, -8
 2207              		.cfi_offset 14, -4
 2208 0002 1346     		mov	r3, r2
 501:lvgl/src/core/lv_obj_style_gen.c ****     lv_style_value_t v = {
 2209              		.loc 1 501 5 is_stmt 1 view .LVU436
 502:lvgl/src/core/lv_obj_style_gen.c ****         .color = value
 503:lvgl/src/core/lv_obj_style_gen.c ****     };
 504:lvgl/src/core/lv_obj_style_gen.c ****     lv_obj_set_local_style_prop(obj, LV_STYLE_ARC_COLOR, v, selector);
 2210              		.loc 1 504 5 view .LVU437
 2211 0004 0A46     		mov	r2, r1
 2212              	.LVL249:
 2213              		.loc 1 504 5 is_stmt 0 view .LVU438
 2214 0006 5221     		movs	r1, #82
 2215              	.LVL250:
 2216              		.loc 1 504 5 view .LVU439
 2217 0008 FFF7FEFF 		bl	lv_obj_set_local_style_prop
 2218              	.LVL251:
 505:lvgl/src/core/lv_obj_style_gen.c **** }
 2219              		.loc 1 505 1 view .LVU440
 2220 000c 08BD     		pop	{r3, pc}
 2221              		.cfi_endproc
 2222              	.LFE223:
 2224              		.section	.text.lv_obj_set_style_arc_opa,"ax",%progbits
 2225              		.align	1
 2226              		.global	lv_obj_set_style_arc_opa
 2227              		.syntax unified
 2228              		.thumb
 2229              		.thumb_func
 2231              	lv_obj_set_style_arc_opa:
 2232              	.LVL252:
 2233              	.LFB224:
 506:lvgl/src/core/lv_obj_style_gen.c **** 
 507:lvgl/src/core/lv_obj_style_gen.c **** void lv_obj_set_style_arc_opa(struct _lv_obj_t * obj, lv_opa_t value, lv_style_selector_t selector)
 508:lvgl/src/core/lv_obj_style_gen.c **** {
 2234              		.loc 1 508 1 is_stmt 1 view -0
 2235              		.cfi_startproc
 2236              		@ args = 0, pretend = 0, frame = 0
 2237              		@ frame_needed = 0, uses_anonymous_args = 0
 2238              		.loc 1 508 1 is_stmt 0 view .LVU442
 2239 0000 08B5     		push	{r3, lr}
 2240              		.cfi_def_cfa_offset 8
 2241              		.cfi_offset 3, -8
ARM GAS  C:\Users\OSD\AppData\Local\Temp\cc1vuvzH.s 			page 47


 2242              		.cfi_offset 14, -4
 2243 0002 1346     		mov	r3, r2
 509:lvgl/src/core/lv_obj_style_gen.c ****     lv_style_value_t v = {
 2244              		.loc 1 509 5 is_stmt 1 view .LVU443
 510:lvgl/src/core/lv_obj_style_gen.c ****         .num = (int32_t)value
 511:lvgl/src/core/lv_obj_style_gen.c ****     };
 512:lvgl/src/core/lv_obj_style_gen.c ****     lv_obj_set_local_style_prop(obj, LV_STYLE_ARC_OPA, v, selector);
 2245              		.loc 1 512 5 view .LVU444
 2246 0004 0A46     		mov	r2, r1
 2247              	.LVL253:
 2248              		.loc 1 512 5 is_stmt 0 view .LVU445
 2249 0006 5321     		movs	r1, #83
 2250              	.LVL254:
 2251              		.loc 1 512 5 view .LVU446
 2252 0008 FFF7FEFF 		bl	lv_obj_set_local_style_prop
 2253              	.LVL255:
 513:lvgl/src/core/lv_obj_style_gen.c **** }
 2254              		.loc 1 513 1 view .LVU447
 2255 000c 08BD     		pop	{r3, pc}
 2256              		.cfi_endproc
 2257              	.LFE224:
 2259              		.section	.text.lv_obj_set_style_arc_img_src,"ax",%progbits
 2260              		.align	1
 2261              		.global	lv_obj_set_style_arc_img_src
 2262              		.syntax unified
 2263              		.thumb
 2264              		.thumb_func
 2266              	lv_obj_set_style_arc_img_src:
 2267              	.LVL256:
 2268              	.LFB225:
 514:lvgl/src/core/lv_obj_style_gen.c **** 
 515:lvgl/src/core/lv_obj_style_gen.c **** void lv_obj_set_style_arc_img_src(struct _lv_obj_t * obj, const void * value, lv_style_selector_t s
 516:lvgl/src/core/lv_obj_style_gen.c **** {
 2269              		.loc 1 516 1 is_stmt 1 view -0
 2270              		.cfi_startproc
 2271              		@ args = 0, pretend = 0, frame = 0
 2272              		@ frame_needed = 0, uses_anonymous_args = 0
 2273              		.loc 1 516 1 is_stmt 0 view .LVU449
 2274 0000 08B5     		push	{r3, lr}
 2275              		.cfi_def_cfa_offset 8
 2276              		.cfi_offset 3, -8
 2277              		.cfi_offset 14, -4
 2278 0002 1346     		mov	r3, r2
 517:lvgl/src/core/lv_obj_style_gen.c ****     lv_style_value_t v = {
 2279              		.loc 1 517 5 is_stmt 1 view .LVU450
 518:lvgl/src/core/lv_obj_style_gen.c ****         .ptr = value
 519:lvgl/src/core/lv_obj_style_gen.c ****     };
 520:lvgl/src/core/lv_obj_style_gen.c ****     lv_obj_set_local_style_prop(obj, LV_STYLE_ARC_IMG_SRC, v, selector);
 2280              		.loc 1 520 5 view .LVU451
 2281 0004 0A46     		mov	r2, r1
 2282              	.LVL257:
 2283              		.loc 1 520 5 is_stmt 0 view .LVU452
 2284 0006 5421     		movs	r1, #84
 2285              	.LVL258:
 2286              		.loc 1 520 5 view .LVU453
 2287 0008 FFF7FEFF 		bl	lv_obj_set_local_style_prop
 2288              	.LVL259:
ARM GAS  C:\Users\OSD\AppData\Local\Temp\cc1vuvzH.s 			page 48


 521:lvgl/src/core/lv_obj_style_gen.c **** }
 2289              		.loc 1 521 1 view .LVU454
 2290 000c 08BD     		pop	{r3, pc}
 2291              		.cfi_endproc
 2292              	.LFE225:
 2294              		.section	.text.lv_obj_set_style_text_color,"ax",%progbits
 2295              		.align	1
 2296              		.global	lv_obj_set_style_text_color
 2297              		.syntax unified
 2298              		.thumb
 2299              		.thumb_func
 2301              	lv_obj_set_style_text_color:
 2302              	.LVL260:
 2303              	.LFB226:
 522:lvgl/src/core/lv_obj_style_gen.c **** 
 523:lvgl/src/core/lv_obj_style_gen.c **** void lv_obj_set_style_text_color(struct _lv_obj_t * obj, lv_color_t value, lv_style_selector_t sele
 524:lvgl/src/core/lv_obj_style_gen.c **** {
 2304              		.loc 1 524 1 is_stmt 1 view -0
 2305              		.cfi_startproc
 2306              		@ args = 0, pretend = 0, frame = 0
 2307              		@ frame_needed = 0, uses_anonymous_args = 0
 2308              		.loc 1 524 1 is_stmt 0 view .LVU456
 2309 0000 08B5     		push	{r3, lr}
 2310              		.cfi_def_cfa_offset 8
 2311              		.cfi_offset 3, -8
 2312              		.cfi_offset 14, -4
 2313 0002 1346     		mov	r3, r2
 525:lvgl/src/core/lv_obj_style_gen.c ****     lv_style_value_t v = {
 2314              		.loc 1 525 5 is_stmt 1 view .LVU457
 526:lvgl/src/core/lv_obj_style_gen.c ****         .color = value
 527:lvgl/src/core/lv_obj_style_gen.c ****     };
 528:lvgl/src/core/lv_obj_style_gen.c ****     lv_obj_set_local_style_prop(obj, LV_STYLE_TEXT_COLOR, v, selector);
 2315              		.loc 1 528 5 view .LVU458
 2316 0004 0A46     		mov	r2, r1
 2317              	.LVL261:
 2318              		.loc 1 528 5 is_stmt 0 view .LVU459
 2319 0006 5521     		movs	r1, #85
 2320              	.LVL262:
 2321              		.loc 1 528 5 view .LVU460
 2322 0008 FFF7FEFF 		bl	lv_obj_set_local_style_prop
 2323              	.LVL263:
 529:lvgl/src/core/lv_obj_style_gen.c **** }
 2324              		.loc 1 529 1 view .LVU461
 2325 000c 08BD     		pop	{r3, pc}
 2326              		.cfi_endproc
 2327              	.LFE226:
 2329              		.section	.text.lv_obj_set_style_text_opa,"ax",%progbits
 2330              		.align	1
 2331              		.global	lv_obj_set_style_text_opa
 2332              		.syntax unified
 2333              		.thumb
 2334              		.thumb_func
 2336              	lv_obj_set_style_text_opa:
 2337              	.LVL264:
 2338              	.LFB227:
 530:lvgl/src/core/lv_obj_style_gen.c **** 
 531:lvgl/src/core/lv_obj_style_gen.c **** void lv_obj_set_style_text_opa(struct _lv_obj_t * obj, lv_opa_t value, lv_style_selector_t selector
ARM GAS  C:\Users\OSD\AppData\Local\Temp\cc1vuvzH.s 			page 49


 532:lvgl/src/core/lv_obj_style_gen.c **** {
 2339              		.loc 1 532 1 is_stmt 1 view -0
 2340              		.cfi_startproc
 2341              		@ args = 0, pretend = 0, frame = 0
 2342              		@ frame_needed = 0, uses_anonymous_args = 0
 2343              		.loc 1 532 1 is_stmt 0 view .LVU463
 2344 0000 08B5     		push	{r3, lr}
 2345              		.cfi_def_cfa_offset 8
 2346              		.cfi_offset 3, -8
 2347              		.cfi_offset 14, -4
 2348 0002 1346     		mov	r3, r2
 533:lvgl/src/core/lv_obj_style_gen.c ****     lv_style_value_t v = {
 2349              		.loc 1 533 5 is_stmt 1 view .LVU464
 534:lvgl/src/core/lv_obj_style_gen.c ****         .num = (int32_t)value
 535:lvgl/src/core/lv_obj_style_gen.c ****     };
 536:lvgl/src/core/lv_obj_style_gen.c ****     lv_obj_set_local_style_prop(obj, LV_STYLE_TEXT_OPA, v, selector);
 2350              		.loc 1 536 5 view .LVU465
 2351 0004 0A46     		mov	r2, r1
 2352              	.LVL265:
 2353              		.loc 1 536 5 is_stmt 0 view .LVU466
 2354 0006 5621     		movs	r1, #86
 2355              	.LVL266:
 2356              		.loc 1 536 5 view .LVU467
 2357 0008 FFF7FEFF 		bl	lv_obj_set_local_style_prop
 2358              	.LVL267:
 537:lvgl/src/core/lv_obj_style_gen.c **** }
 2359              		.loc 1 537 1 view .LVU468
 2360 000c 08BD     		pop	{r3, pc}
 2361              		.cfi_endproc
 2362              	.LFE227:
 2364              		.section	.text.lv_obj_set_style_text_font,"ax",%progbits
 2365              		.align	1
 2366              		.global	lv_obj_set_style_text_font
 2367              		.syntax unified
 2368              		.thumb
 2369              		.thumb_func
 2371              	lv_obj_set_style_text_font:
 2372              	.LVL268:
 2373              	.LFB228:
 538:lvgl/src/core/lv_obj_style_gen.c **** 
 539:lvgl/src/core/lv_obj_style_gen.c **** void lv_obj_set_style_text_font(struct _lv_obj_t * obj, const lv_font_t * value, lv_style_selector_
 540:lvgl/src/core/lv_obj_style_gen.c **** {
 2374              		.loc 1 540 1 is_stmt 1 view -0
 2375              		.cfi_startproc
 2376              		@ args = 0, pretend = 0, frame = 0
 2377              		@ frame_needed = 0, uses_anonymous_args = 0
 2378              		.loc 1 540 1 is_stmt 0 view .LVU470
 2379 0000 08B5     		push	{r3, lr}
 2380              		.cfi_def_cfa_offset 8
 2381              		.cfi_offset 3, -8
 2382              		.cfi_offset 14, -4
 2383 0002 1346     		mov	r3, r2
 541:lvgl/src/core/lv_obj_style_gen.c ****     lv_style_value_t v = {
 2384              		.loc 1 541 5 is_stmt 1 view .LVU471
 542:lvgl/src/core/lv_obj_style_gen.c ****         .ptr = value
 543:lvgl/src/core/lv_obj_style_gen.c ****     };
 544:lvgl/src/core/lv_obj_style_gen.c ****     lv_obj_set_local_style_prop(obj, LV_STYLE_TEXT_FONT, v, selector);
ARM GAS  C:\Users\OSD\AppData\Local\Temp\cc1vuvzH.s 			page 50


 2385              		.loc 1 544 5 view .LVU472
 2386 0004 0A46     		mov	r2, r1
 2387              	.LVL269:
 2388              		.loc 1 544 5 is_stmt 0 view .LVU473
 2389 0006 5721     		movs	r1, #87
 2390              	.LVL270:
 2391              		.loc 1 544 5 view .LVU474
 2392 0008 FFF7FEFF 		bl	lv_obj_set_local_style_prop
 2393              	.LVL271:
 545:lvgl/src/core/lv_obj_style_gen.c **** }
 2394              		.loc 1 545 1 view .LVU475
 2395 000c 08BD     		pop	{r3, pc}
 2396              		.cfi_endproc
 2397              	.LFE228:
 2399              		.section	.text.lv_obj_set_style_text_letter_space,"ax",%progbits
 2400              		.align	1
 2401              		.global	lv_obj_set_style_text_letter_space
 2402              		.syntax unified
 2403              		.thumb
 2404              		.thumb_func
 2406              	lv_obj_set_style_text_letter_space:
 2407              	.LVL272:
 2408              	.LFB229:
 546:lvgl/src/core/lv_obj_style_gen.c **** 
 547:lvgl/src/core/lv_obj_style_gen.c **** void lv_obj_set_style_text_letter_space(struct _lv_obj_t * obj, lv_coord_t value, lv_style_selector
 548:lvgl/src/core/lv_obj_style_gen.c **** {
 2409              		.loc 1 548 1 is_stmt 1 view -0
 2410              		.cfi_startproc
 2411              		@ args = 0, pretend = 0, frame = 0
 2412              		@ frame_needed = 0, uses_anonymous_args = 0
 2413              		.loc 1 548 1 is_stmt 0 view .LVU477
 2414 0000 08B5     		push	{r3, lr}
 2415              		.cfi_def_cfa_offset 8
 2416              		.cfi_offset 3, -8
 2417              		.cfi_offset 14, -4
 2418 0002 1346     		mov	r3, r2
 549:lvgl/src/core/lv_obj_style_gen.c ****     lv_style_value_t v = {
 2419              		.loc 1 549 5 is_stmt 1 view .LVU478
 550:lvgl/src/core/lv_obj_style_gen.c ****         .num = (int32_t)value
 551:lvgl/src/core/lv_obj_style_gen.c ****     };
 552:lvgl/src/core/lv_obj_style_gen.c ****     lv_obj_set_local_style_prop(obj, LV_STYLE_TEXT_LETTER_SPACE, v, selector);
 2420              		.loc 1 552 5 view .LVU479
 2421 0004 0A46     		mov	r2, r1
 2422              	.LVL273:
 2423              		.loc 1 552 5 is_stmt 0 view .LVU480
 2424 0006 5821     		movs	r1, #88
 2425              	.LVL274:
 2426              		.loc 1 552 5 view .LVU481
 2427 0008 FFF7FEFF 		bl	lv_obj_set_local_style_prop
 2428              	.LVL275:
 553:lvgl/src/core/lv_obj_style_gen.c **** }
 2429              		.loc 1 553 1 view .LVU482
 2430 000c 08BD     		pop	{r3, pc}
 2431              		.cfi_endproc
 2432              	.LFE229:
 2434              		.section	.text.lv_obj_set_style_text_line_space,"ax",%progbits
 2435              		.align	1
ARM GAS  C:\Users\OSD\AppData\Local\Temp\cc1vuvzH.s 			page 51


 2436              		.global	lv_obj_set_style_text_line_space
 2437              		.syntax unified
 2438              		.thumb
 2439              		.thumb_func
 2441              	lv_obj_set_style_text_line_space:
 2442              	.LVL276:
 2443              	.LFB230:
 554:lvgl/src/core/lv_obj_style_gen.c **** 
 555:lvgl/src/core/lv_obj_style_gen.c **** void lv_obj_set_style_text_line_space(struct _lv_obj_t * obj, lv_coord_t value, lv_style_selector_t
 556:lvgl/src/core/lv_obj_style_gen.c **** {
 2444              		.loc 1 556 1 is_stmt 1 view -0
 2445              		.cfi_startproc
 2446              		@ args = 0, pretend = 0, frame = 0
 2447              		@ frame_needed = 0, uses_anonymous_args = 0
 2448              		.loc 1 556 1 is_stmt 0 view .LVU484
 2449 0000 08B5     		push	{r3, lr}
 2450              		.cfi_def_cfa_offset 8
 2451              		.cfi_offset 3, -8
 2452              		.cfi_offset 14, -4
 2453 0002 1346     		mov	r3, r2
 557:lvgl/src/core/lv_obj_style_gen.c ****     lv_style_value_t v = {
 2454              		.loc 1 557 5 is_stmt 1 view .LVU485
 558:lvgl/src/core/lv_obj_style_gen.c ****         .num = (int32_t)value
 559:lvgl/src/core/lv_obj_style_gen.c ****     };
 560:lvgl/src/core/lv_obj_style_gen.c ****     lv_obj_set_local_style_prop(obj, LV_STYLE_TEXT_LINE_SPACE, v, selector);
 2455              		.loc 1 560 5 view .LVU486
 2456 0004 0A46     		mov	r2, r1
 2457              	.LVL277:
 2458              		.loc 1 560 5 is_stmt 0 view .LVU487
 2459 0006 5921     		movs	r1, #89
 2460              	.LVL278:
 2461              		.loc 1 560 5 view .LVU488
 2462 0008 FFF7FEFF 		bl	lv_obj_set_local_style_prop
 2463              	.LVL279:
 561:lvgl/src/core/lv_obj_style_gen.c **** }
 2464              		.loc 1 561 1 view .LVU489
 2465 000c 08BD     		pop	{r3, pc}
 2466              		.cfi_endproc
 2467              	.LFE230:
 2469              		.section	.text.lv_obj_set_style_text_decor,"ax",%progbits
 2470              		.align	1
 2471              		.global	lv_obj_set_style_text_decor
 2472              		.syntax unified
 2473              		.thumb
 2474              		.thumb_func
 2476              	lv_obj_set_style_text_decor:
 2477              	.LVL280:
 2478              	.LFB231:
 562:lvgl/src/core/lv_obj_style_gen.c **** 
 563:lvgl/src/core/lv_obj_style_gen.c **** void lv_obj_set_style_text_decor(struct _lv_obj_t * obj, lv_text_decor_t value, lv_style_selector_t
 564:lvgl/src/core/lv_obj_style_gen.c **** {
 2479              		.loc 1 564 1 is_stmt 1 view -0
 2480              		.cfi_startproc
 2481              		@ args = 0, pretend = 0, frame = 0
 2482              		@ frame_needed = 0, uses_anonymous_args = 0
 2483              		.loc 1 564 1 is_stmt 0 view .LVU491
 2484 0000 08B5     		push	{r3, lr}
ARM GAS  C:\Users\OSD\AppData\Local\Temp\cc1vuvzH.s 			page 52


 2485              		.cfi_def_cfa_offset 8
 2486              		.cfi_offset 3, -8
 2487              		.cfi_offset 14, -4
 2488 0002 1346     		mov	r3, r2
 565:lvgl/src/core/lv_obj_style_gen.c ****     lv_style_value_t v = {
 2489              		.loc 1 565 5 is_stmt 1 view .LVU492
 566:lvgl/src/core/lv_obj_style_gen.c ****         .num = (int32_t)value
 567:lvgl/src/core/lv_obj_style_gen.c ****     };
 568:lvgl/src/core/lv_obj_style_gen.c ****     lv_obj_set_local_style_prop(obj, LV_STYLE_TEXT_DECOR, v, selector);
 2490              		.loc 1 568 5 view .LVU493
 2491 0004 0A46     		mov	r2, r1
 2492              	.LVL281:
 2493              		.loc 1 568 5 is_stmt 0 view .LVU494
 2494 0006 5A21     		movs	r1, #90
 2495              	.LVL282:
 2496              		.loc 1 568 5 view .LVU495
 2497 0008 FFF7FEFF 		bl	lv_obj_set_local_style_prop
 2498              	.LVL283:
 569:lvgl/src/core/lv_obj_style_gen.c **** }
 2499              		.loc 1 569 1 view .LVU496
 2500 000c 08BD     		pop	{r3, pc}
 2501              		.cfi_endproc
 2502              	.LFE231:
 2504              		.section	.text.lv_obj_set_style_text_align,"ax",%progbits
 2505              		.align	1
 2506              		.global	lv_obj_set_style_text_align
 2507              		.syntax unified
 2508              		.thumb
 2509              		.thumb_func
 2511              	lv_obj_set_style_text_align:
 2512              	.LVL284:
 2513              	.LFB232:
 570:lvgl/src/core/lv_obj_style_gen.c **** 
 571:lvgl/src/core/lv_obj_style_gen.c **** void lv_obj_set_style_text_align(struct _lv_obj_t * obj, lv_text_align_t value, lv_style_selector_t
 572:lvgl/src/core/lv_obj_style_gen.c **** {
 2514              		.loc 1 572 1 is_stmt 1 view -0
 2515              		.cfi_startproc
 2516              		@ args = 0, pretend = 0, frame = 0
 2517              		@ frame_needed = 0, uses_anonymous_args = 0
 2518              		.loc 1 572 1 is_stmt 0 view .LVU498
 2519 0000 08B5     		push	{r3, lr}
 2520              		.cfi_def_cfa_offset 8
 2521              		.cfi_offset 3, -8
 2522              		.cfi_offset 14, -4
 2523 0002 1346     		mov	r3, r2
 573:lvgl/src/core/lv_obj_style_gen.c ****     lv_style_value_t v = {
 2524              		.loc 1 573 5 is_stmt 1 view .LVU499
 574:lvgl/src/core/lv_obj_style_gen.c ****         .num = (int32_t)value
 575:lvgl/src/core/lv_obj_style_gen.c ****     };
 576:lvgl/src/core/lv_obj_style_gen.c ****     lv_obj_set_local_style_prop(obj, LV_STYLE_TEXT_ALIGN, v, selector);
 2525              		.loc 1 576 5 view .LVU500
 2526 0004 0A46     		mov	r2, r1
 2527              	.LVL285:
 2528              		.loc 1 576 5 is_stmt 0 view .LVU501
 2529 0006 5B21     		movs	r1, #91
 2530              	.LVL286:
 2531              		.loc 1 576 5 view .LVU502
ARM GAS  C:\Users\OSD\AppData\Local\Temp\cc1vuvzH.s 			page 53


 2532 0008 FFF7FEFF 		bl	lv_obj_set_local_style_prop
 2533              	.LVL287:
 577:lvgl/src/core/lv_obj_style_gen.c **** }
 2534              		.loc 1 577 1 view .LVU503
 2535 000c 08BD     		pop	{r3, pc}
 2536              		.cfi_endproc
 2537              	.LFE232:
 2539              		.section	.text.lv_obj_set_style_radius,"ax",%progbits
 2540              		.align	1
 2541              		.global	lv_obj_set_style_radius
 2542              		.syntax unified
 2543              		.thumb
 2544              		.thumb_func
 2546              	lv_obj_set_style_radius:
 2547              	.LVL288:
 2548              	.LFB233:
 578:lvgl/src/core/lv_obj_style_gen.c **** 
 579:lvgl/src/core/lv_obj_style_gen.c **** void lv_obj_set_style_radius(struct _lv_obj_t * obj, lv_coord_t value, lv_style_selector_t selector
 580:lvgl/src/core/lv_obj_style_gen.c **** {
 2549              		.loc 1 580 1 is_stmt 1 view -0
 2550              		.cfi_startproc
 2551              		@ args = 0, pretend = 0, frame = 0
 2552              		@ frame_needed = 0, uses_anonymous_args = 0
 2553              		.loc 1 580 1 is_stmt 0 view .LVU505
 2554 0000 08B5     		push	{r3, lr}
 2555              		.cfi_def_cfa_offset 8
 2556              		.cfi_offset 3, -8
 2557              		.cfi_offset 14, -4
 2558 0002 1346     		mov	r3, r2
 581:lvgl/src/core/lv_obj_style_gen.c ****     lv_style_value_t v = {
 2559              		.loc 1 581 5 is_stmt 1 view .LVU506
 582:lvgl/src/core/lv_obj_style_gen.c ****         .num = (int32_t)value
 583:lvgl/src/core/lv_obj_style_gen.c ****     };
 584:lvgl/src/core/lv_obj_style_gen.c ****     lv_obj_set_local_style_prop(obj, LV_STYLE_RADIUS, v, selector);
 2560              		.loc 1 584 5 view .LVU507
 2561 0004 0A46     		mov	r2, r1
 2562              	.LVL289:
 2563              		.loc 1 584 5 is_stmt 0 view .LVU508
 2564 0006 0B21     		movs	r1, #11
 2565              	.LVL290:
 2566              		.loc 1 584 5 view .LVU509
 2567 0008 FFF7FEFF 		bl	lv_obj_set_local_style_prop
 2568              	.LVL291:
 585:lvgl/src/core/lv_obj_style_gen.c **** }
 2569              		.loc 1 585 1 view .LVU510
 2570 000c 08BD     		pop	{r3, pc}
 2571              		.cfi_endproc
 2572              	.LFE233:
 2574              		.section	.text.lv_obj_set_style_clip_corner,"ax",%progbits
 2575              		.align	1
 2576              		.global	lv_obj_set_style_clip_corner
 2577              		.syntax unified
 2578              		.thumb
 2579              		.thumb_func
 2581              	lv_obj_set_style_clip_corner:
 2582              	.LVL292:
 2583              	.LFB234:
ARM GAS  C:\Users\OSD\AppData\Local\Temp\cc1vuvzH.s 			page 54


 586:lvgl/src/core/lv_obj_style_gen.c **** 
 587:lvgl/src/core/lv_obj_style_gen.c **** void lv_obj_set_style_clip_corner(struct _lv_obj_t * obj, bool value, lv_style_selector_t selector)
 588:lvgl/src/core/lv_obj_style_gen.c **** {
 2584              		.loc 1 588 1 is_stmt 1 view -0
 2585              		.cfi_startproc
 2586              		@ args = 0, pretend = 0, frame = 0
 2587              		@ frame_needed = 0, uses_anonymous_args = 0
 2588              		.loc 1 588 1 is_stmt 0 view .LVU512
 2589 0000 08B5     		push	{r3, lr}
 2590              		.cfi_def_cfa_offset 8
 2591              		.cfi_offset 3, -8
 2592              		.cfi_offset 14, -4
 2593 0002 1346     		mov	r3, r2
 589:lvgl/src/core/lv_obj_style_gen.c ****     lv_style_value_t v = {
 2594              		.loc 1 589 5 is_stmt 1 view .LVU513
 590:lvgl/src/core/lv_obj_style_gen.c ****         .num = (int32_t)value
 591:lvgl/src/core/lv_obj_style_gen.c ****     };
 592:lvgl/src/core/lv_obj_style_gen.c ****     lv_obj_set_local_style_prop(obj, LV_STYLE_CLIP_CORNER, v, selector);
 2595              		.loc 1 592 5 view .LVU514
 2596 0004 0A46     		mov	r2, r1
 2597              	.LVL293:
 2598              		.loc 1 592 5 is_stmt 0 view .LVU515
 2599 0006 1721     		movs	r1, #23
 2600              	.LVL294:
 2601              		.loc 1 592 5 view .LVU516
 2602 0008 FFF7FEFF 		bl	lv_obj_set_local_style_prop
 2603              	.LVL295:
 593:lvgl/src/core/lv_obj_style_gen.c **** }
 2604              		.loc 1 593 1 view .LVU517
 2605 000c 08BD     		pop	{r3, pc}
 2606              		.cfi_endproc
 2607              	.LFE234:
 2609              		.section	.text.lv_obj_set_style_opa,"ax",%progbits
 2610              		.align	1
 2611              		.global	lv_obj_set_style_opa
 2612              		.syntax unified
 2613              		.thumb
 2614              		.thumb_func
 2616              	lv_obj_set_style_opa:
 2617              	.LVL296:
 2618              	.LFB235:
 594:lvgl/src/core/lv_obj_style_gen.c **** 
 595:lvgl/src/core/lv_obj_style_gen.c **** void lv_obj_set_style_opa(struct _lv_obj_t * obj, lv_opa_t value, lv_style_selector_t selector)
 596:lvgl/src/core/lv_obj_style_gen.c **** {
 2619              		.loc 1 596 1 is_stmt 1 view -0
 2620              		.cfi_startproc
 2621              		@ args = 0, pretend = 0, frame = 0
 2622              		@ frame_needed = 0, uses_anonymous_args = 0
 2623              		.loc 1 596 1 is_stmt 0 view .LVU519
 2624 0000 08B5     		push	{r3, lr}
 2625              		.cfi_def_cfa_offset 8
 2626              		.cfi_offset 3, -8
 2627              		.cfi_offset 14, -4
 2628 0002 1346     		mov	r3, r2
 597:lvgl/src/core/lv_obj_style_gen.c ****     lv_style_value_t v = {
 2629              		.loc 1 597 5 is_stmt 1 view .LVU520
 598:lvgl/src/core/lv_obj_style_gen.c ****         .num = (int32_t)value
ARM GAS  C:\Users\OSD\AppData\Local\Temp\cc1vuvzH.s 			page 55


 599:lvgl/src/core/lv_obj_style_gen.c ****     };
 600:lvgl/src/core/lv_obj_style_gen.c ****     lv_obj_set_local_style_prop(obj, LV_STYLE_OPA, v, selector);
 2630              		.loc 1 600 5 view .LVU521
 2631 0004 0A46     		mov	r2, r1
 2632              	.LVL297:
 2633              		.loc 1 600 5 is_stmt 0 view .LVU522
 2634 0006 6021     		movs	r1, #96
 2635              	.LVL298:
 2636              		.loc 1 600 5 view .LVU523
 2637 0008 FFF7FEFF 		bl	lv_obj_set_local_style_prop
 2638              	.LVL299:
 601:lvgl/src/core/lv_obj_style_gen.c **** }
 2639              		.loc 1 601 1 view .LVU524
 2640 000c 08BD     		pop	{r3, pc}
 2641              		.cfi_endproc
 2642              	.LFE235:
 2644              		.section	.text.lv_obj_set_style_opa_layered,"ax",%progbits
 2645              		.align	1
 2646              		.global	lv_obj_set_style_opa_layered
 2647              		.syntax unified
 2648              		.thumb
 2649              		.thumb_func
 2651              	lv_obj_set_style_opa_layered:
 2652              	.LVL300:
 2653              	.LFB236:
 602:lvgl/src/core/lv_obj_style_gen.c **** 
 603:lvgl/src/core/lv_obj_style_gen.c **** void lv_obj_set_style_opa_layered(struct _lv_obj_t * obj, lv_opa_t value, lv_style_selector_t selec
 604:lvgl/src/core/lv_obj_style_gen.c **** {
 2654              		.loc 1 604 1 is_stmt 1 view -0
 2655              		.cfi_startproc
 2656              		@ args = 0, pretend = 0, frame = 0
 2657              		@ frame_needed = 0, uses_anonymous_args = 0
 2658              		.loc 1 604 1 is_stmt 0 view .LVU526
 2659 0000 08B5     		push	{r3, lr}
 2660              		.cfi_def_cfa_offset 8
 2661              		.cfi_offset 3, -8
 2662              		.cfi_offset 14, -4
 2663 0002 1346     		mov	r3, r2
 605:lvgl/src/core/lv_obj_style_gen.c ****     lv_style_value_t v = {
 2664              		.loc 1 605 5 is_stmt 1 view .LVU527
 606:lvgl/src/core/lv_obj_style_gen.c ****         .num = (int32_t)value
 607:lvgl/src/core/lv_obj_style_gen.c ****     };
 608:lvgl/src/core/lv_obj_style_gen.c ****     lv_obj_set_local_style_prop(obj, LV_STYLE_OPA_LAYERED, v, selector);
 2665              		.loc 1 608 5 view .LVU528
 2666 0004 0A46     		mov	r2, r1
 2667              	.LVL301:
 2668              		.loc 1 608 5 is_stmt 0 view .LVU529
 2669 0006 6121     		movs	r1, #97
 2670              	.LVL302:
 2671              		.loc 1 608 5 view .LVU530
 2672 0008 FFF7FEFF 		bl	lv_obj_set_local_style_prop
 2673              	.LVL303:
 609:lvgl/src/core/lv_obj_style_gen.c **** }
 2674              		.loc 1 609 1 view .LVU531
 2675 000c 08BD     		pop	{r3, pc}
 2676              		.cfi_endproc
 2677              	.LFE236:
ARM GAS  C:\Users\OSD\AppData\Local\Temp\cc1vuvzH.s 			page 56


 2679              		.section	.text.lv_obj_set_style_color_filter_dsc,"ax",%progbits
 2680              		.align	1
 2681              		.global	lv_obj_set_style_color_filter_dsc
 2682              		.syntax unified
 2683              		.thumb
 2684              		.thumb_func
 2686              	lv_obj_set_style_color_filter_dsc:
 2687              	.LVL304:
 2688              	.LFB237:
 610:lvgl/src/core/lv_obj_style_gen.c **** 
 611:lvgl/src/core/lv_obj_style_gen.c **** void lv_obj_set_style_color_filter_dsc(struct _lv_obj_t * obj, const lv_color_filter_dsc_t * value,
 612:lvgl/src/core/lv_obj_style_gen.c **** {
 2689              		.loc 1 612 1 is_stmt 1 view -0
 2690              		.cfi_startproc
 2691              		@ args = 0, pretend = 0, frame = 0
 2692              		@ frame_needed = 0, uses_anonymous_args = 0
 2693              		.loc 1 612 1 is_stmt 0 view .LVU533
 2694 0000 08B5     		push	{r3, lr}
 2695              		.cfi_def_cfa_offset 8
 2696              		.cfi_offset 3, -8
 2697              		.cfi_offset 14, -4
 2698 0002 1346     		mov	r3, r2
 613:lvgl/src/core/lv_obj_style_gen.c ****     lv_style_value_t v = {
 2699              		.loc 1 613 5 is_stmt 1 view .LVU534
 614:lvgl/src/core/lv_obj_style_gen.c ****         .ptr = value
 615:lvgl/src/core/lv_obj_style_gen.c ****     };
 616:lvgl/src/core/lv_obj_style_gen.c ****     lv_obj_set_local_style_prop(obj, LV_STYLE_COLOR_FILTER_DSC, v, selector);
 2700              		.loc 1 616 5 view .LVU535
 2701 0004 0A46     		mov	r2, r1
 2702              	.LVL305:
 2703              		.loc 1 616 5 is_stmt 0 view .LVU536
 2704 0006 6221     		movs	r1, #98
 2705              	.LVL306:
 2706              		.loc 1 616 5 view .LVU537
 2707 0008 FFF7FEFF 		bl	lv_obj_set_local_style_prop
 2708              	.LVL307:
 617:lvgl/src/core/lv_obj_style_gen.c **** }
 2709              		.loc 1 617 1 view .LVU538
 2710 000c 08BD     		pop	{r3, pc}
 2711              		.cfi_endproc
 2712              	.LFE237:
 2714              		.section	.text.lv_obj_set_style_color_filter_opa,"ax",%progbits
 2715              		.align	1
 2716              		.global	lv_obj_set_style_color_filter_opa
 2717              		.syntax unified
 2718              		.thumb
 2719              		.thumb_func
 2721              	lv_obj_set_style_color_filter_opa:
 2722              	.LVL308:
 2723              	.LFB238:
 618:lvgl/src/core/lv_obj_style_gen.c **** 
 619:lvgl/src/core/lv_obj_style_gen.c **** void lv_obj_set_style_color_filter_opa(struct _lv_obj_t * obj, lv_opa_t value, lv_style_selector_t 
 620:lvgl/src/core/lv_obj_style_gen.c **** {
 2724              		.loc 1 620 1 is_stmt 1 view -0
 2725              		.cfi_startproc
 2726              		@ args = 0, pretend = 0, frame = 0
 2727              		@ frame_needed = 0, uses_anonymous_args = 0
ARM GAS  C:\Users\OSD\AppData\Local\Temp\cc1vuvzH.s 			page 57


 2728              		.loc 1 620 1 is_stmt 0 view .LVU540
 2729 0000 08B5     		push	{r3, lr}
 2730              		.cfi_def_cfa_offset 8
 2731              		.cfi_offset 3, -8
 2732              		.cfi_offset 14, -4
 2733 0002 1346     		mov	r3, r2
 621:lvgl/src/core/lv_obj_style_gen.c ****     lv_style_value_t v = {
 2734              		.loc 1 621 5 is_stmt 1 view .LVU541
 622:lvgl/src/core/lv_obj_style_gen.c ****         .num = (int32_t)value
 623:lvgl/src/core/lv_obj_style_gen.c ****     };
 624:lvgl/src/core/lv_obj_style_gen.c ****     lv_obj_set_local_style_prop(obj, LV_STYLE_COLOR_FILTER_OPA, v, selector);
 2735              		.loc 1 624 5 view .LVU542
 2736 0004 0A46     		mov	r2, r1
 2737              	.LVL309:
 2738              		.loc 1 624 5 is_stmt 0 view .LVU543
 2739 0006 6321     		movs	r1, #99
 2740              	.LVL310:
 2741              		.loc 1 624 5 view .LVU544
 2742 0008 FFF7FEFF 		bl	lv_obj_set_local_style_prop
 2743              	.LVL311:
 625:lvgl/src/core/lv_obj_style_gen.c **** }
 2744              		.loc 1 625 1 view .LVU545
 2745 000c 08BD     		pop	{r3, pc}
 2746              		.cfi_endproc
 2747              	.LFE238:
 2749              		.section	.text.lv_obj_set_style_anim,"ax",%progbits
 2750              		.align	1
 2751              		.global	lv_obj_set_style_anim
 2752              		.syntax unified
 2753              		.thumb
 2754              		.thumb_func
 2756              	lv_obj_set_style_anim:
 2757              	.LVL312:
 2758              	.LFB239:
 626:lvgl/src/core/lv_obj_style_gen.c **** 
 627:lvgl/src/core/lv_obj_style_gen.c **** void lv_obj_set_style_anim(struct _lv_obj_t * obj, const lv_anim_t * value, lv_style_selector_t sel
 628:lvgl/src/core/lv_obj_style_gen.c **** {
 2759              		.loc 1 628 1 is_stmt 1 view -0
 2760              		.cfi_startproc
 2761              		@ args = 0, pretend = 0, frame = 0
 2762              		@ frame_needed = 0, uses_anonymous_args = 0
 2763              		.loc 1 628 1 is_stmt 0 view .LVU547
 2764 0000 08B5     		push	{r3, lr}
 2765              		.cfi_def_cfa_offset 8
 2766              		.cfi_offset 3, -8
 2767              		.cfi_offset 14, -4
 2768 0002 1346     		mov	r3, r2
 629:lvgl/src/core/lv_obj_style_gen.c ****     lv_style_value_t v = {
 2769              		.loc 1 629 5 is_stmt 1 view .LVU548
 630:lvgl/src/core/lv_obj_style_gen.c ****         .ptr = value
 631:lvgl/src/core/lv_obj_style_gen.c ****     };
 632:lvgl/src/core/lv_obj_style_gen.c ****     lv_obj_set_local_style_prop(obj, LV_STYLE_ANIM, v, selector);
 2770              		.loc 1 632 5 view .LVU549
 2771 0004 0A46     		mov	r2, r1
 2772              	.LVL313:
 2773              		.loc 1 632 5 is_stmt 0 view .LVU550
 2774 0006 6421     		movs	r1, #100
ARM GAS  C:\Users\OSD\AppData\Local\Temp\cc1vuvzH.s 			page 58


 2775              	.LVL314:
 2776              		.loc 1 632 5 view .LVU551
 2777 0008 FFF7FEFF 		bl	lv_obj_set_local_style_prop
 2778              	.LVL315:
 633:lvgl/src/core/lv_obj_style_gen.c **** }
 2779              		.loc 1 633 1 view .LVU552
 2780 000c 08BD     		pop	{r3, pc}
 2781              		.cfi_endproc
 2782              	.LFE239:
 2784              		.section	.text.lv_obj_set_style_anim_time,"ax",%progbits
 2785              		.align	1
 2786              		.global	lv_obj_set_style_anim_time
 2787              		.syntax unified
 2788              		.thumb
 2789              		.thumb_func
 2791              	lv_obj_set_style_anim_time:
 2792              	.LVL316:
 2793              	.LFB240:
 634:lvgl/src/core/lv_obj_style_gen.c **** 
 635:lvgl/src/core/lv_obj_style_gen.c **** void lv_obj_set_style_anim_time(struct _lv_obj_t * obj, uint32_t value, lv_style_selector_t selecto
 636:lvgl/src/core/lv_obj_style_gen.c **** {
 2794              		.loc 1 636 1 is_stmt 1 view -0
 2795              		.cfi_startproc
 2796              		@ args = 0, pretend = 0, frame = 0
 2797              		@ frame_needed = 0, uses_anonymous_args = 0
 2798              		.loc 1 636 1 is_stmt 0 view .LVU554
 2799 0000 08B5     		push	{r3, lr}
 2800              		.cfi_def_cfa_offset 8
 2801              		.cfi_offset 3, -8
 2802              		.cfi_offset 14, -4
 2803 0002 1346     		mov	r3, r2
 637:lvgl/src/core/lv_obj_style_gen.c ****     lv_style_value_t v = {
 2804              		.loc 1 637 5 is_stmt 1 view .LVU555
 638:lvgl/src/core/lv_obj_style_gen.c ****         .num = (int32_t)value
 639:lvgl/src/core/lv_obj_style_gen.c ****     };
 640:lvgl/src/core/lv_obj_style_gen.c ****     lv_obj_set_local_style_prop(obj, LV_STYLE_ANIM_TIME, v, selector);
 2805              		.loc 1 640 5 view .LVU556
 2806 0004 0A46     		mov	r2, r1
 2807              	.LVL317:
 2808              		.loc 1 640 5 is_stmt 0 view .LVU557
 2809 0006 6521     		movs	r1, #101
 2810              	.LVL318:
 2811              		.loc 1 640 5 view .LVU558
 2812 0008 FFF7FEFF 		bl	lv_obj_set_local_style_prop
 2813              	.LVL319:
 641:lvgl/src/core/lv_obj_style_gen.c **** }
 2814              		.loc 1 641 1 view .LVU559
 2815 000c 08BD     		pop	{r3, pc}
 2816              		.cfi_endproc
 2817              	.LFE240:
 2819              		.section	.text.lv_obj_set_style_anim_speed,"ax",%progbits
 2820              		.align	1
 2821              		.global	lv_obj_set_style_anim_speed
 2822              		.syntax unified
 2823              		.thumb
 2824              		.thumb_func
 2826              	lv_obj_set_style_anim_speed:
ARM GAS  C:\Users\OSD\AppData\Local\Temp\cc1vuvzH.s 			page 59


 2827              	.LVL320:
 2828              	.LFB241:
 642:lvgl/src/core/lv_obj_style_gen.c **** 
 643:lvgl/src/core/lv_obj_style_gen.c **** void lv_obj_set_style_anim_speed(struct _lv_obj_t * obj, uint32_t value, lv_style_selector_t select
 644:lvgl/src/core/lv_obj_style_gen.c **** {
 2829              		.loc 1 644 1 is_stmt 1 view -0
 2830              		.cfi_startproc
 2831              		@ args = 0, pretend = 0, frame = 0
 2832              		@ frame_needed = 0, uses_anonymous_args = 0
 2833              		.loc 1 644 1 is_stmt 0 view .LVU561
 2834 0000 08B5     		push	{r3, lr}
 2835              		.cfi_def_cfa_offset 8
 2836              		.cfi_offset 3, -8
 2837              		.cfi_offset 14, -4
 2838 0002 1346     		mov	r3, r2
 645:lvgl/src/core/lv_obj_style_gen.c ****     lv_style_value_t v = {
 2839              		.loc 1 645 5 is_stmt 1 view .LVU562
 646:lvgl/src/core/lv_obj_style_gen.c ****         .num = (int32_t)value
 647:lvgl/src/core/lv_obj_style_gen.c ****     };
 648:lvgl/src/core/lv_obj_style_gen.c ****     lv_obj_set_local_style_prop(obj, LV_STYLE_ANIM_SPEED, v, selector);
 2840              		.loc 1 648 5 view .LVU563
 2841 0004 0A46     		mov	r2, r1
 2842              	.LVL321:
 2843              		.loc 1 648 5 is_stmt 0 view .LVU564
 2844 0006 6621     		movs	r1, #102
 2845              	.LVL322:
 2846              		.loc 1 648 5 view .LVU565
 2847 0008 FFF7FEFF 		bl	lv_obj_set_local_style_prop
 2848              	.LVL323:
 649:lvgl/src/core/lv_obj_style_gen.c **** }
 2849              		.loc 1 649 1 view .LVU566
 2850 000c 08BD     		pop	{r3, pc}
 2851              		.cfi_endproc
 2852              	.LFE241:
 2854              		.section	.text.lv_obj_set_style_transition,"ax",%progbits
 2855              		.align	1
 2856              		.global	lv_obj_set_style_transition
 2857              		.syntax unified
 2858              		.thumb
 2859              		.thumb_func
 2861              	lv_obj_set_style_transition:
 2862              	.LVL324:
 2863              	.LFB242:
 650:lvgl/src/core/lv_obj_style_gen.c **** 
 651:lvgl/src/core/lv_obj_style_gen.c **** void lv_obj_set_style_transition(struct _lv_obj_t * obj, const lv_style_transition_dsc_t * value, l
 652:lvgl/src/core/lv_obj_style_gen.c **** {
 2864              		.loc 1 652 1 is_stmt 1 view -0
 2865              		.cfi_startproc
 2866              		@ args = 0, pretend = 0, frame = 0
 2867              		@ frame_needed = 0, uses_anonymous_args = 0
 2868              		.loc 1 652 1 is_stmt 0 view .LVU568
 2869 0000 08B5     		push	{r3, lr}
 2870              		.cfi_def_cfa_offset 8
 2871              		.cfi_offset 3, -8
 2872              		.cfi_offset 14, -4
 2873 0002 1346     		mov	r3, r2
 653:lvgl/src/core/lv_obj_style_gen.c ****     lv_style_value_t v = {
ARM GAS  C:\Users\OSD\AppData\Local\Temp\cc1vuvzH.s 			page 60


 2874              		.loc 1 653 5 is_stmt 1 view .LVU569
 654:lvgl/src/core/lv_obj_style_gen.c ****         .ptr = value
 655:lvgl/src/core/lv_obj_style_gen.c ****     };
 656:lvgl/src/core/lv_obj_style_gen.c ****     lv_obj_set_local_style_prop(obj, LV_STYLE_TRANSITION, v, selector);
 2875              		.loc 1 656 5 view .LVU570
 2876 0004 0A46     		mov	r2, r1
 2877              	.LVL325:
 2878              		.loc 1 656 5 is_stmt 0 view .LVU571
 2879 0006 6721     		movs	r1, #103
 2880              	.LVL326:
 2881              		.loc 1 656 5 view .LVU572
 2882 0008 FFF7FEFF 		bl	lv_obj_set_local_style_prop
 2883              	.LVL327:
 657:lvgl/src/core/lv_obj_style_gen.c **** }
 2884              		.loc 1 657 1 view .LVU573
 2885 000c 08BD     		pop	{r3, pc}
 2886              		.cfi_endproc
 2887              	.LFE242:
 2889              		.section	.text.lv_obj_set_style_blend_mode,"ax",%progbits
 2890              		.align	1
 2891              		.global	lv_obj_set_style_blend_mode
 2892              		.syntax unified
 2893              		.thumb
 2894              		.thumb_func
 2896              	lv_obj_set_style_blend_mode:
 2897              	.LVL328:
 2898              	.LFB243:
 658:lvgl/src/core/lv_obj_style_gen.c **** 
 659:lvgl/src/core/lv_obj_style_gen.c **** void lv_obj_set_style_blend_mode(struct _lv_obj_t * obj, lv_blend_mode_t value, lv_style_selector_t
 660:lvgl/src/core/lv_obj_style_gen.c **** {
 2899              		.loc 1 660 1 is_stmt 1 view -0
 2900              		.cfi_startproc
 2901              		@ args = 0, pretend = 0, frame = 0
 2902              		@ frame_needed = 0, uses_anonymous_args = 0
 2903              		.loc 1 660 1 is_stmt 0 view .LVU575
 2904 0000 08B5     		push	{r3, lr}
 2905              		.cfi_def_cfa_offset 8
 2906              		.cfi_offset 3, -8
 2907              		.cfi_offset 14, -4
 2908 0002 1346     		mov	r3, r2
 661:lvgl/src/core/lv_obj_style_gen.c ****     lv_style_value_t v = {
 2909              		.loc 1 661 5 is_stmt 1 view .LVU576
 662:lvgl/src/core/lv_obj_style_gen.c ****         .num = (int32_t)value
 663:lvgl/src/core/lv_obj_style_gen.c ****     };
 664:lvgl/src/core/lv_obj_style_gen.c ****     lv_obj_set_local_style_prop(obj, LV_STYLE_BLEND_MODE, v, selector);
 2910              		.loc 1 664 5 view .LVU577
 2911 0004 0A46     		mov	r2, r1
 2912              	.LVL329:
 2913              		.loc 1 664 5 is_stmt 0 view .LVU578
 2914 0006 6821     		movs	r1, #104
 2915              	.LVL330:
 2916              		.loc 1 664 5 view .LVU579
 2917 0008 FFF7FEFF 		bl	lv_obj_set_local_style_prop
 2918              	.LVL331:
 665:lvgl/src/core/lv_obj_style_gen.c **** }
 2919              		.loc 1 665 1 view .LVU580
 2920 000c 08BD     		pop	{r3, pc}
ARM GAS  C:\Users\OSD\AppData\Local\Temp\cc1vuvzH.s 			page 61


 2921              		.cfi_endproc
 2922              	.LFE243:
 2924              		.section	.text.lv_obj_set_style_layout,"ax",%progbits
 2925              		.align	1
 2926              		.global	lv_obj_set_style_layout
 2927              		.syntax unified
 2928              		.thumb
 2929              		.thumb_func
 2931              	lv_obj_set_style_layout:
 2932              	.LVL332:
 2933              	.LFB244:
 666:lvgl/src/core/lv_obj_style_gen.c **** 
 667:lvgl/src/core/lv_obj_style_gen.c **** void lv_obj_set_style_layout(struct _lv_obj_t * obj, uint16_t value, lv_style_selector_t selector)
 668:lvgl/src/core/lv_obj_style_gen.c **** {
 2934              		.loc 1 668 1 is_stmt 1 view -0
 2935              		.cfi_startproc
 2936              		@ args = 0, pretend = 0, frame = 0
 2937              		@ frame_needed = 0, uses_anonymous_args = 0
 2938              		.loc 1 668 1 is_stmt 0 view .LVU582
 2939 0000 08B5     		push	{r3, lr}
 2940              		.cfi_def_cfa_offset 8
 2941              		.cfi_offset 3, -8
 2942              		.cfi_offset 14, -4
 2943 0002 1346     		mov	r3, r2
 669:lvgl/src/core/lv_obj_style_gen.c ****     lv_style_value_t v = {
 2944              		.loc 1 669 5 is_stmt 1 view .LVU583
 670:lvgl/src/core/lv_obj_style_gen.c ****         .num = (int32_t)value
 671:lvgl/src/core/lv_obj_style_gen.c ****     };
 672:lvgl/src/core/lv_obj_style_gen.c ****     lv_obj_set_local_style_prop(obj, LV_STYLE_LAYOUT, v, selector);
 2945              		.loc 1 672 5 view .LVU584
 2946 0004 0A46     		mov	r2, r1
 2947              	.LVL333:
 2948              		.loc 1 672 5 is_stmt 0 view .LVU585
 2949 0006 0A21     		movs	r1, #10
 2950              	.LVL334:
 2951              		.loc 1 672 5 view .LVU586
 2952 0008 FFF7FEFF 		bl	lv_obj_set_local_style_prop
 2953              	.LVL335:
 673:lvgl/src/core/lv_obj_style_gen.c **** }
 2954              		.loc 1 673 1 view .LVU587
 2955 000c 08BD     		pop	{r3, pc}
 2956              		.cfi_endproc
 2957              	.LFE244:
 2959              		.section	.text.lv_obj_set_style_base_dir,"ax",%progbits
 2960              		.align	1
 2961              		.global	lv_obj_set_style_base_dir
 2962              		.syntax unified
 2963              		.thumb
 2964              		.thumb_func
 2966              	lv_obj_set_style_base_dir:
 2967              	.LVL336:
 2968              	.LFB245:
 674:lvgl/src/core/lv_obj_style_gen.c **** 
 675:lvgl/src/core/lv_obj_style_gen.c **** void lv_obj_set_style_base_dir(struct _lv_obj_t * obj, lv_base_dir_t value, lv_style_selector_t sel
 676:lvgl/src/core/lv_obj_style_gen.c **** {
 2969              		.loc 1 676 1 is_stmt 1 view -0
 2970              		.cfi_startproc
ARM GAS  C:\Users\OSD\AppData\Local\Temp\cc1vuvzH.s 			page 62


 2971              		@ args = 0, pretend = 0, frame = 0
 2972              		@ frame_needed = 0, uses_anonymous_args = 0
 2973              		.loc 1 676 1 is_stmt 0 view .LVU589
 2974 0000 08B5     		push	{r3, lr}
 2975              		.cfi_def_cfa_offset 8
 2976              		.cfi_offset 3, -8
 2977              		.cfi_offset 14, -4
 2978 0002 1346     		mov	r3, r2
 677:lvgl/src/core/lv_obj_style_gen.c ****     lv_style_value_t v = {
 2979              		.loc 1 677 5 is_stmt 1 view .LVU590
 678:lvgl/src/core/lv_obj_style_gen.c ****         .num = (int32_t)value
 679:lvgl/src/core/lv_obj_style_gen.c ****     };
 680:lvgl/src/core/lv_obj_style_gen.c ****     lv_obj_set_local_style_prop(obj, LV_STYLE_BASE_DIR, v, selector);
 2980              		.loc 1 680 5 view .LVU591
 2981 0004 0A46     		mov	r2, r1
 2982              	.LVL337:
 2983              		.loc 1 680 5 is_stmt 0 view .LVU592
 2984 0006 1621     		movs	r1, #22
 2985              	.LVL338:
 2986              		.loc 1 680 5 view .LVU593
 2987 0008 FFF7FEFF 		bl	lv_obj_set_local_style_prop
 2988              	.LVL339:
 681:lvgl/src/core/lv_obj_style_gen.c **** }
 2989              		.loc 1 681 1 view .LVU594
 2990 000c 08BD     		pop	{r3, pc}
 2991              		.cfi_endproc
 2992              	.LFE245:
 2994              		.text
 2995              	.Letext0:
 2996              		.file 2 "c:\\tools\\gcc-arm-none-eabi\\arm-none-eabi\\include\\machine\\_default_types.h"
 2997              		.file 3 "c:\\tools\\gcc-arm-none-eabi\\arm-none-eabi\\include\\sys\\_stdint.h"
 2998              		.file 4 "lvgl/src/core/../misc/../font/../misc/lv_area.h"
 2999              		.file 5 "lvgl/src/core/../misc/../font/lv_font.h"
 3000              		.file 6 "lvgl/src/core/../misc/lv_color.h"
 3001              		.file 7 "lvgl/src/core/../misc/lv_anim.h"
 3002              		.file 8 "lvgl/src/core/../misc/lv_txt.h"
 3003              		.file 9 "lvgl/src/core/../misc/lv_bidi.h"
 3004              		.file 10 "lvgl/src/core/../misc/lv_style.h"
 3005              		.file 11 "lvgl/src/core/lv_obj.h"
 3006              		.file 12 "lvgl/src/core/../hal/../misc/lv_ll.h"
 3007              		.file 13 "lvgl/src/core/lv_group.h"
 3008              		.file 14 "lvgl/src/core/lv_obj_scroll.h"
 3009              		.file 15 "lvgl/src/core/lv_obj_style.h"
 3010              		.file 16 "lvgl/src/core/lv_obj_class.h"
 3011              		.file 17 "lvgl/src/core/lv_event.h"
ARM GAS  C:\Users\OSD\AppData\Local\Temp\cc1vuvzH.s 			page 63

