ARM GAS  C:\Users\OSD\AppData\Local\Temp\cc6Y0b2g.s 			page 1


   1              		.cpu cortex-m7
   2              		.arch armv7e-m
   3              		.fpu fpv5-d16
   4              		.eabi_attribute 28, 1
   5              		.eabi_attribute 20, 1
   6              		.eabi_attribute 21, 1
   7              		.eabi_attribute 23, 3
   8              		.eabi_attribute 24, 1
   9              		.eabi_attribute 25, 1
  10              		.eabi_attribute 26, 1
  11              		.eabi_attribute 30, 1
  12              		.eabi_attribute 34, 1
  13              		.eabi_attribute 18, 4
  14              		.file	"lv_obj_class.c"
  15              		.text
  16              	.Ltext0:
  17              		.cfi_sections	.debug_frame
  18              		.section	.text.lv_obj_construct,"ax",%progbits
  19              		.align	1
  20              		.syntax unified
  21              		.thumb
  22              		.thumb_func
  24              	lv_obj_construct:
  25              	.LVL0:
  26              	.LFB166:
  27              		.file 1 "lvgl/src/core/lv_obj_class.c"
   1:lvgl/src/core/lv_obj_class.c **** /**
   2:lvgl/src/core/lv_obj_class.c ****  * @file lv_obj_class.c
   3:lvgl/src/core/lv_obj_class.c ****  *
   4:lvgl/src/core/lv_obj_class.c ****  */
   5:lvgl/src/core/lv_obj_class.c **** 
   6:lvgl/src/core/lv_obj_class.c **** /*********************
   7:lvgl/src/core/lv_obj_class.c ****  *      INCLUDES
   8:lvgl/src/core/lv_obj_class.c ****  *********************/
   9:lvgl/src/core/lv_obj_class.c **** #include "lv_obj.h"
  10:lvgl/src/core/lv_obj_class.c **** #include "lv_theme.h"
  11:lvgl/src/core/lv_obj_class.c **** 
  12:lvgl/src/core/lv_obj_class.c **** /*********************
  13:lvgl/src/core/lv_obj_class.c ****  *      DEFINES
  14:lvgl/src/core/lv_obj_class.c ****  *********************/
  15:lvgl/src/core/lv_obj_class.c **** #define MY_CLASS &lv_obj_class
  16:lvgl/src/core/lv_obj_class.c **** 
  17:lvgl/src/core/lv_obj_class.c **** /**********************
  18:lvgl/src/core/lv_obj_class.c ****  *      TYPEDEFS
  19:lvgl/src/core/lv_obj_class.c ****  **********************/
  20:lvgl/src/core/lv_obj_class.c **** 
  21:lvgl/src/core/lv_obj_class.c **** /**********************
  22:lvgl/src/core/lv_obj_class.c ****  *  GLOBAL PROTOTYPES
  23:lvgl/src/core/lv_obj_class.c ****  **********************/
  24:lvgl/src/core/lv_obj_class.c **** 
  25:lvgl/src/core/lv_obj_class.c **** /**********************
  26:lvgl/src/core/lv_obj_class.c ****  *  STATIC PROTOTYPES
  27:lvgl/src/core/lv_obj_class.c ****  **********************/
  28:lvgl/src/core/lv_obj_class.c **** static void lv_obj_construct(lv_obj_t * obj);
  29:lvgl/src/core/lv_obj_class.c **** static uint32_t get_instance_size(const lv_obj_class_t * class_p);
  30:lvgl/src/core/lv_obj_class.c **** 
  31:lvgl/src/core/lv_obj_class.c **** /**********************
ARM GAS  C:\Users\OSD\AppData\Local\Temp\cc6Y0b2g.s 			page 2


  32:lvgl/src/core/lv_obj_class.c ****  *  STATIC VARIABLES
  33:lvgl/src/core/lv_obj_class.c ****  **********************/
  34:lvgl/src/core/lv_obj_class.c **** 
  35:lvgl/src/core/lv_obj_class.c **** /**********************
  36:lvgl/src/core/lv_obj_class.c ****  *      MACROS
  37:lvgl/src/core/lv_obj_class.c ****  **********************/
  38:lvgl/src/core/lv_obj_class.c **** 
  39:lvgl/src/core/lv_obj_class.c **** /**********************
  40:lvgl/src/core/lv_obj_class.c ****  *   GLOBAL FUNCTIONS
  41:lvgl/src/core/lv_obj_class.c ****  **********************/
  42:lvgl/src/core/lv_obj_class.c **** 
  43:lvgl/src/core/lv_obj_class.c **** lv_obj_t * lv_obj_class_create_obj(const lv_obj_class_t * class_p, lv_obj_t * parent)
  44:lvgl/src/core/lv_obj_class.c **** {
  45:lvgl/src/core/lv_obj_class.c ****     LV_TRACE_OBJ_CREATE("Creating object with %p class on %p parent", (void *)class_p, (void *)pare
  46:lvgl/src/core/lv_obj_class.c ****     uint32_t s = get_instance_size(class_p);
  47:lvgl/src/core/lv_obj_class.c ****     lv_obj_t * obj = lv_mem_alloc(s);
  48:lvgl/src/core/lv_obj_class.c ****     if(obj == NULL) return NULL;
  49:lvgl/src/core/lv_obj_class.c ****     lv_memset_00(obj, s);
  50:lvgl/src/core/lv_obj_class.c ****     obj->class_p = class_p;
  51:lvgl/src/core/lv_obj_class.c ****     obj->parent = parent;
  52:lvgl/src/core/lv_obj_class.c **** 
  53:lvgl/src/core/lv_obj_class.c ****     /*Create a screen*/
  54:lvgl/src/core/lv_obj_class.c ****     if(parent == NULL) {
  55:lvgl/src/core/lv_obj_class.c ****         LV_TRACE_OBJ_CREATE("creating a screen");
  56:lvgl/src/core/lv_obj_class.c ****         lv_disp_t * disp = lv_disp_get_default();
  57:lvgl/src/core/lv_obj_class.c ****         if(!disp) {
  58:lvgl/src/core/lv_obj_class.c ****             LV_LOG_WARN("No display created yet. No place to assign the new screen");
  59:lvgl/src/core/lv_obj_class.c ****             lv_mem_free(obj);
  60:lvgl/src/core/lv_obj_class.c ****             return NULL;
  61:lvgl/src/core/lv_obj_class.c ****         }
  62:lvgl/src/core/lv_obj_class.c **** 
  63:lvgl/src/core/lv_obj_class.c ****         if(disp->screens == NULL) {
  64:lvgl/src/core/lv_obj_class.c ****             disp->screens = lv_mem_alloc(sizeof(lv_obj_t *));
  65:lvgl/src/core/lv_obj_class.c ****             disp->screens[0] = obj;
  66:lvgl/src/core/lv_obj_class.c ****             disp->screen_cnt = 1;
  67:lvgl/src/core/lv_obj_class.c ****         }
  68:lvgl/src/core/lv_obj_class.c ****         else {
  69:lvgl/src/core/lv_obj_class.c ****             disp->screen_cnt++;
  70:lvgl/src/core/lv_obj_class.c ****             disp->screens = lv_mem_realloc(disp->screens, sizeof(lv_obj_t *) * disp->screen_cnt);
  71:lvgl/src/core/lv_obj_class.c ****             disp->screens[disp->screen_cnt - 1] = obj;
  72:lvgl/src/core/lv_obj_class.c ****         }
  73:lvgl/src/core/lv_obj_class.c **** 
  74:lvgl/src/core/lv_obj_class.c ****         /*Set coordinates to full screen size*/
  75:lvgl/src/core/lv_obj_class.c ****         obj->coords.x1 = 0;
  76:lvgl/src/core/lv_obj_class.c ****         obj->coords.y1 = 0;
  77:lvgl/src/core/lv_obj_class.c ****         obj->coords.x2 = lv_disp_get_hor_res(NULL) - 1;
  78:lvgl/src/core/lv_obj_class.c ****         obj->coords.y2 = lv_disp_get_ver_res(NULL) - 1;
  79:lvgl/src/core/lv_obj_class.c ****     }
  80:lvgl/src/core/lv_obj_class.c ****     /*Create a normal object*/
  81:lvgl/src/core/lv_obj_class.c ****     else {
  82:lvgl/src/core/lv_obj_class.c ****         LV_TRACE_OBJ_CREATE("creating normal object");
  83:lvgl/src/core/lv_obj_class.c ****         LV_ASSERT_OBJ(parent, MY_CLASS);
  84:lvgl/src/core/lv_obj_class.c ****         if(parent->spec_attr == NULL) {
  85:lvgl/src/core/lv_obj_class.c ****             lv_obj_allocate_spec_attr(parent);
  86:lvgl/src/core/lv_obj_class.c ****         }
  87:lvgl/src/core/lv_obj_class.c **** 
  88:lvgl/src/core/lv_obj_class.c ****         if(parent->spec_attr->children == NULL) {
ARM GAS  C:\Users\OSD\AppData\Local\Temp\cc6Y0b2g.s 			page 3


  89:lvgl/src/core/lv_obj_class.c ****             parent->spec_attr->children = lv_mem_alloc(sizeof(lv_obj_t *));
  90:lvgl/src/core/lv_obj_class.c ****             parent->spec_attr->children[0] = obj;
  91:lvgl/src/core/lv_obj_class.c ****             parent->spec_attr->child_cnt = 1;
  92:lvgl/src/core/lv_obj_class.c ****         }
  93:lvgl/src/core/lv_obj_class.c ****         else {
  94:lvgl/src/core/lv_obj_class.c ****             parent->spec_attr->child_cnt++;
  95:lvgl/src/core/lv_obj_class.c ****             parent->spec_attr->children = lv_mem_realloc(parent->spec_attr->children,
  96:lvgl/src/core/lv_obj_class.c ****                                                          sizeof(lv_obj_t *) * parent->spec_attr->ch
  97:lvgl/src/core/lv_obj_class.c ****             parent->spec_attr->children[parent->spec_attr->child_cnt - 1] = obj;
  98:lvgl/src/core/lv_obj_class.c ****         }
  99:lvgl/src/core/lv_obj_class.c ****     }
 100:lvgl/src/core/lv_obj_class.c **** 
 101:lvgl/src/core/lv_obj_class.c ****     return obj;
 102:lvgl/src/core/lv_obj_class.c **** }
 103:lvgl/src/core/lv_obj_class.c **** 
 104:lvgl/src/core/lv_obj_class.c **** void lv_obj_class_init_obj(lv_obj_t * obj)
 105:lvgl/src/core/lv_obj_class.c **** {
 106:lvgl/src/core/lv_obj_class.c ****     lv_obj_mark_layout_as_dirty(obj);
 107:lvgl/src/core/lv_obj_class.c ****     lv_obj_enable_style_refresh(false);
 108:lvgl/src/core/lv_obj_class.c **** 
 109:lvgl/src/core/lv_obj_class.c ****     lv_theme_apply(obj);
 110:lvgl/src/core/lv_obj_class.c ****     lv_obj_construct(obj);
 111:lvgl/src/core/lv_obj_class.c **** 
 112:lvgl/src/core/lv_obj_class.c ****     lv_obj_enable_style_refresh(true);
 113:lvgl/src/core/lv_obj_class.c ****     lv_obj_refresh_style(obj, LV_PART_ANY, LV_STYLE_PROP_ANY);
 114:lvgl/src/core/lv_obj_class.c **** 
 115:lvgl/src/core/lv_obj_class.c ****     lv_obj_refresh_self_size(obj);
 116:lvgl/src/core/lv_obj_class.c **** 
 117:lvgl/src/core/lv_obj_class.c ****     lv_group_t * def_group = lv_group_get_default();
 118:lvgl/src/core/lv_obj_class.c ****     if(def_group && lv_obj_is_group_def(obj)) {
 119:lvgl/src/core/lv_obj_class.c ****         lv_group_add_obj(def_group, obj);
 120:lvgl/src/core/lv_obj_class.c ****     }
 121:lvgl/src/core/lv_obj_class.c **** 
 122:lvgl/src/core/lv_obj_class.c ****     lv_obj_t * parent = lv_obj_get_parent(obj);
 123:lvgl/src/core/lv_obj_class.c ****     if(parent) {
 124:lvgl/src/core/lv_obj_class.c ****         /*Call the ancestor's event handler to the parent to notify it about the new child.
 125:lvgl/src/core/lv_obj_class.c ****          *Also triggers layout update*/
 126:lvgl/src/core/lv_obj_class.c ****         lv_event_send(parent, LV_EVENT_CHILD_CHANGED, obj);
 127:lvgl/src/core/lv_obj_class.c ****         lv_event_send(parent, LV_EVENT_CHILD_CREATED, obj);
 128:lvgl/src/core/lv_obj_class.c **** 
 129:lvgl/src/core/lv_obj_class.c ****         /*Invalidate the area if not screen created*/
 130:lvgl/src/core/lv_obj_class.c ****         lv_obj_invalidate(obj);
 131:lvgl/src/core/lv_obj_class.c ****     }
 132:lvgl/src/core/lv_obj_class.c **** }
 133:lvgl/src/core/lv_obj_class.c **** 
 134:lvgl/src/core/lv_obj_class.c **** void _lv_obj_destruct(lv_obj_t * obj)
 135:lvgl/src/core/lv_obj_class.c **** {
 136:lvgl/src/core/lv_obj_class.c ****     if(obj->class_p->destructor_cb) obj->class_p->destructor_cb(obj->class_p, obj);
 137:lvgl/src/core/lv_obj_class.c **** 
 138:lvgl/src/core/lv_obj_class.c ****     if(obj->class_p->base_class) {
 139:lvgl/src/core/lv_obj_class.c ****         /*Don't let the descendant methods run during destructing the ancestor type*/
 140:lvgl/src/core/lv_obj_class.c ****         obj->class_p = obj->class_p->base_class;
 141:lvgl/src/core/lv_obj_class.c **** 
 142:lvgl/src/core/lv_obj_class.c ****         /*Call the base class's destructor too*/
 143:lvgl/src/core/lv_obj_class.c ****         _lv_obj_destruct(obj);
 144:lvgl/src/core/lv_obj_class.c ****     }
 145:lvgl/src/core/lv_obj_class.c **** }
ARM GAS  C:\Users\OSD\AppData\Local\Temp\cc6Y0b2g.s 			page 4


 146:lvgl/src/core/lv_obj_class.c **** 
 147:lvgl/src/core/lv_obj_class.c **** bool lv_obj_is_editable(lv_obj_t * obj)
 148:lvgl/src/core/lv_obj_class.c **** {
 149:lvgl/src/core/lv_obj_class.c ****     const lv_obj_class_t * class_p = obj->class_p;
 150:lvgl/src/core/lv_obj_class.c **** 
 151:lvgl/src/core/lv_obj_class.c ****     /*Find a base in which editable is set*/
 152:lvgl/src/core/lv_obj_class.c ****     while(class_p && class_p->editable == LV_OBJ_CLASS_EDITABLE_INHERIT) class_p = class_p->base_cl
 153:lvgl/src/core/lv_obj_class.c **** 
 154:lvgl/src/core/lv_obj_class.c ****     if(class_p == NULL) return false;
 155:lvgl/src/core/lv_obj_class.c **** 
 156:lvgl/src/core/lv_obj_class.c ****     return class_p->editable == LV_OBJ_CLASS_EDITABLE_TRUE ? true : false;
 157:lvgl/src/core/lv_obj_class.c **** }
 158:lvgl/src/core/lv_obj_class.c **** 
 159:lvgl/src/core/lv_obj_class.c **** bool lv_obj_is_group_def(lv_obj_t * obj)
 160:lvgl/src/core/lv_obj_class.c **** {
 161:lvgl/src/core/lv_obj_class.c ****     const lv_obj_class_t * class_p = obj->class_p;
 162:lvgl/src/core/lv_obj_class.c **** 
 163:lvgl/src/core/lv_obj_class.c ****     /*Find a base in which group_def is set*/
 164:lvgl/src/core/lv_obj_class.c ****     while(class_p && class_p->group_def == LV_OBJ_CLASS_GROUP_DEF_INHERIT) class_p = class_p->base_
 165:lvgl/src/core/lv_obj_class.c **** 
 166:lvgl/src/core/lv_obj_class.c ****     if(class_p == NULL) return false;
 167:lvgl/src/core/lv_obj_class.c **** 
 168:lvgl/src/core/lv_obj_class.c ****     return class_p->group_def == LV_OBJ_CLASS_GROUP_DEF_TRUE ? true : false;
 169:lvgl/src/core/lv_obj_class.c **** }
 170:lvgl/src/core/lv_obj_class.c **** 
 171:lvgl/src/core/lv_obj_class.c **** /**********************
 172:lvgl/src/core/lv_obj_class.c ****  *   STATIC FUNCTIONS
 173:lvgl/src/core/lv_obj_class.c ****  **********************/
 174:lvgl/src/core/lv_obj_class.c **** 
 175:lvgl/src/core/lv_obj_class.c **** static void lv_obj_construct(lv_obj_t * obj)
 176:lvgl/src/core/lv_obj_class.c **** {
  28              		.loc 1 176 1 view -0
  29              		.cfi_startproc
  30              		@ args = 0, pretend = 0, frame = 0
  31              		@ frame_needed = 0, uses_anonymous_args = 0
  32              		.loc 1 176 1 is_stmt 0 view .LVU1
  33 0000 38B5     		push	{r3, r4, r5, lr}
  34              		.cfi_def_cfa_offset 16
  35              		.cfi_offset 3, -16
  36              		.cfi_offset 4, -12
  37              		.cfi_offset 5, -8
  38              		.cfi_offset 14, -4
  39 0002 0446     		mov	r4, r0
 177:lvgl/src/core/lv_obj_class.c ****     const lv_obj_class_t * original_class_p = obj->class_p;
  40              		.loc 1 177 5 is_stmt 1 view .LVU2
  41              		.loc 1 177 28 is_stmt 0 view .LVU3
  42 0004 0568     		ldr	r5, [r0]
  43              	.LVL1:
 178:lvgl/src/core/lv_obj_class.c **** 
 179:lvgl/src/core/lv_obj_class.c ****     if(obj->class_p->base_class) {
  44              		.loc 1 179 5 is_stmt 1 view .LVU4
  45              		.loc 1 179 20 is_stmt 0 view .LVU5
  46 0006 2B68     		ldr	r3, [r5]
  47              		.loc 1 179 7 view .LVU6
  48 0008 13B1     		cbz	r3, .L2
 180:lvgl/src/core/lv_obj_class.c ****         /*Don't let the descendant methods run during constructing the ancestor type*/
 181:lvgl/src/core/lv_obj_class.c ****         obj->class_p = obj->class_p->base_class;
ARM GAS  C:\Users\OSD\AppData\Local\Temp\cc6Y0b2g.s 			page 5


  49              		.loc 1 181 9 is_stmt 1 view .LVU7
  50              		.loc 1 181 22 is_stmt 0 view .LVU8
  51 000a 0360     		str	r3, [r0]
 182:lvgl/src/core/lv_obj_class.c **** 
 183:lvgl/src/core/lv_obj_class.c ****         /*Construct the base first*/
 184:lvgl/src/core/lv_obj_class.c ****         lv_obj_construct(obj);
  52              		.loc 1 184 9 is_stmt 1 view .LVU9
  53 000c FFF7F8FF 		bl	lv_obj_construct
  54              	.LVL2:
  55              	.L2:
 185:lvgl/src/core/lv_obj_class.c ****     }
 186:lvgl/src/core/lv_obj_class.c **** 
 187:lvgl/src/core/lv_obj_class.c ****     /*Restore the original class*/
 188:lvgl/src/core/lv_obj_class.c ****     obj->class_p = original_class_p;
  56              		.loc 1 188 5 view .LVU10
  57              		.loc 1 188 18 is_stmt 0 view .LVU11
  58 0010 2560     		str	r5, [r4]
 189:lvgl/src/core/lv_obj_class.c **** 
 190:lvgl/src/core/lv_obj_class.c ****     if(obj->class_p->constructor_cb) obj->class_p->constructor_cb(obj->class_p, obj);
  59              		.loc 1 190 5 is_stmt 1 view .LVU12
  60              		.loc 1 190 20 is_stmt 0 view .LVU13
  61 0012 6B68     		ldr	r3, [r5, #4]
  62              		.loc 1 190 7 view .LVU14
  63 0014 13B1     		cbz	r3, .L1
  64              		.loc 1 190 38 is_stmt 1 discriminator 1 view .LVU15
  65 0016 2146     		mov	r1, r4
  66 0018 2846     		mov	r0, r5
  67 001a 9847     		blx	r3
  68              	.LVL3:
  69              	.L1:
 191:lvgl/src/core/lv_obj_class.c **** }
  70              		.loc 1 191 1 is_stmt 0 view .LVU16
  71 001c 38BD     		pop	{r3, r4, r5, pc}
  72              		.loc 1 191 1 view .LVU17
  73              		.cfi_endproc
  74              	.LFE166:
  76              		.section	.text.get_instance_size,"ax",%progbits
  77              		.align	1
  78              		.syntax unified
  79              		.thumb
  80              		.thumb_func
  82              	get_instance_size:
  83              	.LVL4:
  84              	.LFB167:
 192:lvgl/src/core/lv_obj_class.c **** 
 193:lvgl/src/core/lv_obj_class.c **** static uint32_t get_instance_size(const lv_obj_class_t * class_p)
 194:lvgl/src/core/lv_obj_class.c **** {
  85              		.loc 1 194 1 is_stmt 1 view -0
  86              		.cfi_startproc
  87              		@ args = 0, pretend = 0, frame = 0
  88              		@ frame_needed = 0, uses_anonymous_args = 0
  89              		@ link register save eliminated.
 195:lvgl/src/core/lv_obj_class.c ****     /*Find a base in which instance size is set*/
 196:lvgl/src/core/lv_obj_class.c ****     const lv_obj_class_t * base = class_p;
  90              		.loc 1 196 5 view .LVU19
 197:lvgl/src/core/lv_obj_class.c ****     while(base && base->instance_size == 0) base = base->base_class;
  91              		.loc 1 197 5 view .LVU20
ARM GAS  C:\Users\OSD\AppData\Local\Temp\cc6Y0b2g.s 			page 6


  92              		.loc 1 197 10 is_stmt 0 view .LVU21
  93 0000 00E0     		b	.L6
  94              	.LVL5:
  95              	.L8:
  96              		.loc 1 197 45 is_stmt 1 discriminator 3 view .LVU22
  97              		.loc 1 197 50 is_stmt 0 discriminator 3 view .LVU23
  98 0002 0068     		ldr	r0, [r0]
  99              	.LVL6:
 100              	.L6:
 101              		.loc 1 197 10 is_stmt 1 discriminator 1 view .LVU24
 102 0004 20B1     		cbz	r0, .L7
 103              		.loc 1 197 39 is_stmt 0 discriminator 2 view .LVU25
 104 0006 8269     		ldr	r2, [r0, #24]
 105 0008 054B     		ldr	r3, .L11
 106 000a 1340     		ands	r3, r3, r2
 107              		.loc 1 197 16 discriminator 2 view .LVU26
 108 000c 002B     		cmp	r3, #0
 109 000e F8D0     		beq	.L8
 110              	.L7:
 198:lvgl/src/core/lv_obj_class.c **** 
 199:lvgl/src/core/lv_obj_class.c ****     if(base == NULL) return 0;  /*Never happens: set at least in `lv_obj` class*/
 111              		.loc 1 199 5 is_stmt 1 view .LVU27
 112              		.loc 1 199 7 is_stmt 0 view .LVU28
 113 0010 18B1     		cbz	r0, .L10
 200:lvgl/src/core/lv_obj_class.c **** 
 201:lvgl/src/core/lv_obj_class.c ****     return base->instance_size;
 114              		.loc 1 201 5 is_stmt 1 view .LVU29
 115              		.loc 1 201 16 is_stmt 0 view .LVU30
 116 0012 8069     		ldr	r0, [r0, #24]
 117              	.LVL7:
 118              		.loc 1 201 16 view .LVU31
 119 0014 C0F30F10 		ubfx	r0, r0, #4, #16
 120 0018 7047     		bx	lr
 121              	.LVL8:
 122              	.L10:
 199:lvgl/src/core/lv_obj_class.c **** 
 123              		.loc 1 199 29 view .LVU32
 124 001a 0020     		movs	r0, #0
 125              	.LVL9:
 202:lvgl/src/core/lv_obj_class.c **** }
 126              		.loc 1 202 1 view .LVU33
 127 001c 7047     		bx	lr
 128              	.L12:
 129 001e 00BF     		.align	2
 130              	.L11:
 131 0020 F0FF0F00 		.word	1048560
 132              		.cfi_endproc
 133              	.LFE167:
 135              		.section	.text.lv_obj_class_create_obj,"ax",%progbits
 136              		.align	1
 137              		.global	lv_obj_class_create_obj
 138              		.syntax unified
 139              		.thumb
 140              		.thumb_func
 142              	lv_obj_class_create_obj:
 143              	.LVL10:
 144              	.LFB161:
ARM GAS  C:\Users\OSD\AppData\Local\Temp\cc6Y0b2g.s 			page 7


  44:lvgl/src/core/lv_obj_class.c ****     LV_TRACE_OBJ_CREATE("Creating object with %p class on %p parent", (void *)class_p, (void *)pare
 145              		.loc 1 44 1 is_stmt 1 view -0
 146              		.cfi_startproc
 147              		@ args = 0, pretend = 0, frame = 0
 148              		@ frame_needed = 0, uses_anonymous_args = 0
  44:lvgl/src/core/lv_obj_class.c ****     LV_TRACE_OBJ_CREATE("Creating object with %p class on %p parent", (void *)class_p, (void *)pare
 149              		.loc 1 44 1 is_stmt 0 view .LVU35
 150 0000 F8B5     		push	{r3, r4, r5, r6, r7, lr}
 151              		.cfi_def_cfa_offset 24
 152              		.cfi_offset 3, -24
 153              		.cfi_offset 4, -20
 154              		.cfi_offset 5, -16
 155              		.cfi_offset 6, -12
 156              		.cfi_offset 7, -8
 157              		.cfi_offset 14, -4
 158 0002 0646     		mov	r6, r0
 159 0004 0C46     		mov	r4, r1
  45:lvgl/src/core/lv_obj_class.c ****     uint32_t s = get_instance_size(class_p);
 160              		.loc 1 45 103 is_stmt 1 view .LVU36
  46:lvgl/src/core/lv_obj_class.c ****     lv_obj_t * obj = lv_mem_alloc(s);
 161              		.loc 1 46 5 view .LVU37
  46:lvgl/src/core/lv_obj_class.c ****     lv_obj_t * obj = lv_mem_alloc(s);
 162              		.loc 1 46 18 is_stmt 0 view .LVU38
 163 0006 FFF7FEFF 		bl	get_instance_size
 164              	.LVL11:
  46:lvgl/src/core/lv_obj_class.c ****     lv_obj_t * obj = lv_mem_alloc(s);
 165              		.loc 1 46 18 view .LVU39
 166 000a 0746     		mov	r7, r0
 167              	.LVL12:
  47:lvgl/src/core/lv_obj_class.c ****     if(obj == NULL) return NULL;
 168              		.loc 1 47 5 is_stmt 1 view .LVU40
  47:lvgl/src/core/lv_obj_class.c ****     if(obj == NULL) return NULL;
 169              		.loc 1 47 22 is_stmt 0 view .LVU41
 170 000c FFF7FEFF 		bl	lv_mem_alloc
 171              	.LVL13:
  48:lvgl/src/core/lv_obj_class.c ****     lv_memset_00(obj, s);
 172              		.loc 1 48 5 is_stmt 1 view .LVU42
  48:lvgl/src/core/lv_obj_class.c ****     lv_memset_00(obj, s);
 173              		.loc 1 48 7 is_stmt 0 view .LVU43
 174 0010 0546     		mov	r5, r0
 175 0012 F0B1     		cbz	r0, .L13
  49:lvgl/src/core/lv_obj_class.c ****     obj->class_p = class_p;
 176              		.loc 1 49 5 is_stmt 1 view .LVU44
 177 0014 3946     		mov	r1, r7
 178 0016 FFF7FEFF 		bl	lv_memset_00
 179              	.LVL14:
  50:lvgl/src/core/lv_obj_class.c ****     obj->parent = parent;
 180              		.loc 1 50 5 view .LVU45
  50:lvgl/src/core/lv_obj_class.c ****     obj->parent = parent;
 181              		.loc 1 50 18 is_stmt 0 view .LVU46
 182 001a 2E60     		str	r6, [r5]
  51:lvgl/src/core/lv_obj_class.c **** 
 183              		.loc 1 51 5 is_stmt 1 view .LVU47
  51:lvgl/src/core/lv_obj_class.c **** 
 184              		.loc 1 51 17 is_stmt 0 view .LVU48
 185 001c 6C60     		str	r4, [r5, #4]
  54:lvgl/src/core/lv_obj_class.c ****         LV_TRACE_OBJ_CREATE("creating a screen");
ARM GAS  C:\Users\OSD\AppData\Local\Temp\cc6Y0b2g.s 			page 8


 186              		.loc 1 54 5 is_stmt 1 view .LVU49
  54:lvgl/src/core/lv_obj_class.c ****         LV_TRACE_OBJ_CREATE("creating a screen");
 187              		.loc 1 54 7 is_stmt 0 view .LVU50
 188 001e D4B1     		cbz	r4, .L22
  82:lvgl/src/core/lv_obj_class.c ****         LV_ASSERT_OBJ(parent, MY_CLASS);
 189              		.loc 1 82 54 is_stmt 1 view .LVU51
  83:lvgl/src/core/lv_obj_class.c ****         if(parent->spec_attr == NULL) {
 190              		.loc 1 83 9 view .LVU52
  83:lvgl/src/core/lv_obj_class.c ****         if(parent->spec_attr == NULL) {
 191              		.loc 1 83 9 view .LVU53
  83:lvgl/src/core/lv_obj_class.c ****         if(parent->spec_attr == NULL) {
 192              		.loc 1 83 9 view .LVU54
  84:lvgl/src/core/lv_obj_class.c ****             lv_obj_allocate_spec_attr(parent);
 193              		.loc 1 84 9 view .LVU55
  84:lvgl/src/core/lv_obj_class.c ****             lv_obj_allocate_spec_attr(parent);
 194              		.loc 1 84 18 is_stmt 0 view .LVU56
 195 0020 A368     		ldr	r3, [r4, #8]
  84:lvgl/src/core/lv_obj_class.c ****             lv_obj_allocate_spec_attr(parent);
 196              		.loc 1 84 11 view .LVU57
 197 0022 002B     		cmp	r3, #0
 198 0024 47D0     		beq	.L23
 199              	.L19:
  88:lvgl/src/core/lv_obj_class.c ****             parent->spec_attr->children = lv_mem_alloc(sizeof(lv_obj_t *));
 200              		.loc 1 88 9 is_stmt 1 view .LVU58
  88:lvgl/src/core/lv_obj_class.c ****             parent->spec_attr->children = lv_mem_alloc(sizeof(lv_obj_t *));
 201              		.loc 1 88 18 is_stmt 0 view .LVU59
 202 0026 A668     		ldr	r6, [r4, #8]
 203              	.LVL15:
  88:lvgl/src/core/lv_obj_class.c ****             parent->spec_attr->children = lv_mem_alloc(sizeof(lv_obj_t *));
 204              		.loc 1 88 29 view .LVU60
 205 0028 3368     		ldr	r3, [r6]
  88:lvgl/src/core/lv_obj_class.c ****             parent->spec_attr->children = lv_mem_alloc(sizeof(lv_obj_t *));
 206              		.loc 1 88 11 view .LVU61
 207 002a 002B     		cmp	r3, #0
 208 002c 47D0     		beq	.L24
  94:lvgl/src/core/lv_obj_class.c ****             parent->spec_attr->children = lv_mem_realloc(parent->spec_attr->children,
 209              		.loc 1 94 13 is_stmt 1 view .LVU62
  94:lvgl/src/core/lv_obj_class.c ****             parent->spec_attr->children = lv_mem_realloc(parent->spec_attr->children,
 210              		.loc 1 94 30 is_stmt 0 view .LVU63
 211 002e 7368     		ldr	r3, [r6, #4]
  94:lvgl/src/core/lv_obj_class.c ****             parent->spec_attr->children = lv_mem_realloc(parent->spec_attr->children,
 212              		.loc 1 94 41 view .LVU64
 213 0030 0133     		adds	r3, r3, #1
 214 0032 7360     		str	r3, [r6, #4]
  95:lvgl/src/core/lv_obj_class.c ****                                                          sizeof(lv_obj_t *) * parent->spec_attr->ch
 215              		.loc 1 95 13 is_stmt 1 view .LVU65
  95:lvgl/src/core/lv_obj_class.c ****                                                          sizeof(lv_obj_t *) * parent->spec_attr->ch
 216              		.loc 1 95 64 is_stmt 0 view .LVU66
 217 0034 A668     		ldr	r6, [r4, #8]
  96:lvgl/src/core/lv_obj_class.c ****             parent->spec_attr->children[parent->spec_attr->child_cnt - 1] = obj;
 218              		.loc 1 96 96 view .LVU67
 219 0036 7168     		ldr	r1, [r6, #4]
  95:lvgl/src/core/lv_obj_class.c ****                                                          sizeof(lv_obj_t *) * parent->spec_attr->ch
 220              		.loc 1 95 43 view .LVU68
 221 0038 8900     		lsls	r1, r1, #2
 222 003a 3068     		ldr	r0, [r6]
 223 003c FFF7FEFF 		bl	lv_mem_realloc
ARM GAS  C:\Users\OSD\AppData\Local\Temp\cc6Y0b2g.s 			page 9


 224              	.LVL16:
  95:lvgl/src/core/lv_obj_class.c ****                                                          sizeof(lv_obj_t *) * parent->spec_attr->ch
 225              		.loc 1 95 41 view .LVU69
 226 0040 3060     		str	r0, [r6]
  97:lvgl/src/core/lv_obj_class.c ****         }
 227              		.loc 1 97 13 is_stmt 1 view .LVU70
  97:lvgl/src/core/lv_obj_class.c ****         }
 228              		.loc 1 97 19 is_stmt 0 view .LVU71
 229 0042 A368     		ldr	r3, [r4, #8]
  97:lvgl/src/core/lv_obj_class.c ****         }
 230              		.loc 1 97 30 view .LVU72
 231 0044 1A68     		ldr	r2, [r3]
  97:lvgl/src/core/lv_obj_class.c ****         }
 232              		.loc 1 97 58 view .LVU73
 233 0046 5968     		ldr	r1, [r3, #4]
  97:lvgl/src/core/lv_obj_class.c ****         }
 234              		.loc 1 97 40 view .LVU74
 235 0048 6FF04043 		mvn	r3, #-1073741824
 236 004c 0B44     		add	r3, r3, r1
  97:lvgl/src/core/lv_obj_class.c ****         }
 237              		.loc 1 97 75 view .LVU75
 238 004e 42F82350 		str	r5, [r2, r3, lsl #2]
 239              	.LVL17:
 240              	.L13:
 102:lvgl/src/core/lv_obj_class.c **** 
 241              		.loc 1 102 1 view .LVU76
 242 0052 2846     		mov	r0, r5
 243 0054 F8BD     		pop	{r3, r4, r5, r6, r7, pc}
 244              	.LVL18:
 245              	.L22:
 246              	.LBB2:
  55:lvgl/src/core/lv_obj_class.c ****         lv_disp_t * disp = lv_disp_get_default();
 247              		.loc 1 55 49 is_stmt 1 view .LVU77
  56:lvgl/src/core/lv_obj_class.c ****         if(!disp) {
 248              		.loc 1 56 9 view .LVU78
  56:lvgl/src/core/lv_obj_class.c ****         if(!disp) {
 249              		.loc 1 56 28 is_stmt 0 view .LVU79
 250 0056 FFF7FEFF 		bl	lv_disp_get_default
 251              	.LVL19:
  57:lvgl/src/core/lv_obj_class.c ****             LV_LOG_WARN("No display created yet. No place to assign the new screen");
 252              		.loc 1 57 9 is_stmt 1 view .LVU80
  57:lvgl/src/core/lv_obj_class.c ****             LV_LOG_WARN("No display created yet. No place to assign the new screen");
 253              		.loc 1 57 11 is_stmt 0 view .LVU81
 254 005a 0446     		mov	r4, r0
 255              	.LVL20:
  57:lvgl/src/core/lv_obj_class.c ****             LV_LOG_WARN("No display created yet. No place to assign the new screen");
 256              		.loc 1 57 11 view .LVU82
 257 005c F0B1     		cbz	r0, .L25
  63:lvgl/src/core/lv_obj_class.c ****             disp->screens = lv_mem_alloc(sizeof(lv_obj_t *));
 258              		.loc 1 63 9 is_stmt 1 view .LVU83
  63:lvgl/src/core/lv_obj_class.c ****             disp->screens = lv_mem_alloc(sizeof(lv_obj_t *));
 259              		.loc 1 63 16 is_stmt 0 view .LVU84
 260 005e C068     		ldr	r0, [r0, #12]
 261              	.LVL21:
  63:lvgl/src/core/lv_obj_class.c ****             disp->screens = lv_mem_alloc(sizeof(lv_obj_t *));
 262              		.loc 1 63 11 view .LVU85
 263 0060 08B3     		cbz	r0, .L26
ARM GAS  C:\Users\OSD\AppData\Local\Temp\cc6Y0b2g.s 			page 10


  69:lvgl/src/core/lv_obj_class.c ****             disp->screens = lv_mem_realloc(disp->screens, sizeof(lv_obj_t *) * disp->screen_cnt);
 264              		.loc 1 69 13 is_stmt 1 view .LVU86
  69:lvgl/src/core/lv_obj_class.c ****             disp->screens = lv_mem_realloc(disp->screens, sizeof(lv_obj_t *) * disp->screen_cnt);
 265              		.loc 1 69 17 is_stmt 0 view .LVU87
 266 0062 616A     		ldr	r1, [r4, #36]
  69:lvgl/src/core/lv_obj_class.c ****             disp->screens = lv_mem_realloc(disp->screens, sizeof(lv_obj_t *) * disp->screen_cnt);
 267              		.loc 1 69 29 view .LVU88
 268 0064 0131     		adds	r1, r1, #1
 269 0066 6162     		str	r1, [r4, #36]
  70:lvgl/src/core/lv_obj_class.c ****             disp->screens[disp->screen_cnt - 1] = obj;
 270              		.loc 1 70 13 is_stmt 1 view .LVU89
  70:lvgl/src/core/lv_obj_class.c ****             disp->screens[disp->screen_cnt - 1] = obj;
 271              		.loc 1 70 29 is_stmt 0 view .LVU90
 272 0068 8900     		lsls	r1, r1, #2
 273 006a FFF7FEFF 		bl	lv_mem_realloc
 274              	.LVL22:
  70:lvgl/src/core/lv_obj_class.c ****             disp->screens[disp->screen_cnt - 1] = obj;
 275              		.loc 1 70 27 view .LVU91
 276 006e E060     		str	r0, [r4, #12]
  71:lvgl/src/core/lv_obj_class.c ****         }
 277              		.loc 1 71 13 is_stmt 1 view .LVU92
  71:lvgl/src/core/lv_obj_class.c ****         }
 278              		.loc 1 71 31 is_stmt 0 view .LVU93
 279 0070 626A     		ldr	r2, [r4, #36]
  71:lvgl/src/core/lv_obj_class.c ****         }
 280              		.loc 1 71 26 view .LVU94
 281 0072 6FF04043 		mvn	r3, #-1073741824
 282 0076 1344     		add	r3, r3, r2
  71:lvgl/src/core/lv_obj_class.c ****         }
 283              		.loc 1 71 49 view .LVU95
 284 0078 40F82350 		str	r5, [r0, r3, lsl #2]
 285              	.L18:
  75:lvgl/src/core/lv_obj_class.c ****         obj->coords.y1 = 0;
 286              		.loc 1 75 9 is_stmt 1 view .LVU96
  75:lvgl/src/core/lv_obj_class.c ****         obj->coords.y1 = 0;
 287              		.loc 1 75 24 is_stmt 0 view .LVU97
 288 007c 0024     		movs	r4, #0
 289              	.LVL23:
  75:lvgl/src/core/lv_obj_class.c ****         obj->coords.y1 = 0;
 290              		.loc 1 75 24 view .LVU98
 291 007e AC82     		strh	r4, [r5, #20]	@ movhi
  76:lvgl/src/core/lv_obj_class.c ****         obj->coords.x2 = lv_disp_get_hor_res(NULL) - 1;
 292              		.loc 1 76 9 is_stmt 1 view .LVU99
  76:lvgl/src/core/lv_obj_class.c ****         obj->coords.x2 = lv_disp_get_hor_res(NULL) - 1;
 293              		.loc 1 76 24 is_stmt 0 view .LVU100
 294 0080 EC82     		strh	r4, [r5, #22]	@ movhi
  77:lvgl/src/core/lv_obj_class.c ****         obj->coords.y2 = lv_disp_get_ver_res(NULL) - 1;
 295              		.loc 1 77 9 is_stmt 1 view .LVU101
  77:lvgl/src/core/lv_obj_class.c ****         obj->coords.y2 = lv_disp_get_ver_res(NULL) - 1;
 296              		.loc 1 77 26 is_stmt 0 view .LVU102
 297 0082 2046     		mov	r0, r4
 298 0084 FFF7FEFF 		bl	lv_disp_get_hor_res
 299              	.LVL24:
 300 0088 80B2     		uxth	r0, r0
  77:lvgl/src/core/lv_obj_class.c ****         obj->coords.y2 = lv_disp_get_ver_res(NULL) - 1;
 301              		.loc 1 77 52 view .LVU103
 302 008a 0138     		subs	r0, r0, #1
ARM GAS  C:\Users\OSD\AppData\Local\Temp\cc6Y0b2g.s 			page 11


  77:lvgl/src/core/lv_obj_class.c ****         obj->coords.y2 = lv_disp_get_ver_res(NULL) - 1;
 303              		.loc 1 77 24 view .LVU104
 304 008c 2883     		strh	r0, [r5, #24]	@ movhi
  78:lvgl/src/core/lv_obj_class.c ****     }
 305              		.loc 1 78 9 is_stmt 1 view .LVU105
  78:lvgl/src/core/lv_obj_class.c ****     }
 306              		.loc 1 78 26 is_stmt 0 view .LVU106
 307 008e 2046     		mov	r0, r4
 308 0090 FFF7FEFF 		bl	lv_disp_get_ver_res
 309              	.LVL25:
 310 0094 80B2     		uxth	r0, r0
  78:lvgl/src/core/lv_obj_class.c ****     }
 311              		.loc 1 78 52 view .LVU107
 312 0096 0138     		subs	r0, r0, #1
  78:lvgl/src/core/lv_obj_class.c ****     }
 313              		.loc 1 78 24 view .LVU108
 314 0098 6883     		strh	r0, [r5, #26]	@ movhi
 315              	.LBE2:
 316 009a DAE7     		b	.L13
 317              	.LVL26:
 318              	.L25:
 319              	.LBB3:
  58:lvgl/src/core/lv_obj_class.c ****             lv_mem_free(obj);
 320              		.loc 1 58 13 is_stmt 1 view .LVU109
  58:lvgl/src/core/lv_obj_class.c ****             lv_mem_free(obj);
 321              		.loc 1 58 13 view .LVU110
  58:lvgl/src/core/lv_obj_class.c ****             lv_mem_free(obj);
 322              		.loc 1 58 13 view .LVU111
  59:lvgl/src/core/lv_obj_class.c ****             return NULL;
 323              		.loc 1 59 13 view .LVU112
 324 009c 2846     		mov	r0, r5
 325              	.LVL27:
  59:lvgl/src/core/lv_obj_class.c ****             return NULL;
 326              		.loc 1 59 13 is_stmt 0 view .LVU113
 327 009e FFF7FEFF 		bl	lv_mem_free
 328              	.LVL28:
  60:lvgl/src/core/lv_obj_class.c ****         }
 329              		.loc 1 60 13 is_stmt 1 view .LVU114
  60:lvgl/src/core/lv_obj_class.c ****         }
 330              		.loc 1 60 20 is_stmt 0 view .LVU115
 331 00a2 2546     		mov	r5, r4
 332              	.LVL29:
  60:lvgl/src/core/lv_obj_class.c ****         }
 333              		.loc 1 60 20 view .LVU116
 334 00a4 D5E7     		b	.L13
 335              	.LVL30:
 336              	.L26:
  64:lvgl/src/core/lv_obj_class.c ****             disp->screens[0] = obj;
 337              		.loc 1 64 13 is_stmt 1 view .LVU117
  64:lvgl/src/core/lv_obj_class.c ****             disp->screens[0] = obj;
 338              		.loc 1 64 29 is_stmt 0 view .LVU118
 339 00a6 0420     		movs	r0, #4
 340 00a8 FFF7FEFF 		bl	lv_mem_alloc
 341              	.LVL31:
  64:lvgl/src/core/lv_obj_class.c ****             disp->screens[0] = obj;
 342              		.loc 1 64 27 view .LVU119
 343 00ac E060     		str	r0, [r4, #12]
ARM GAS  C:\Users\OSD\AppData\Local\Temp\cc6Y0b2g.s 			page 12


  65:lvgl/src/core/lv_obj_class.c ****             disp->screen_cnt = 1;
 344              		.loc 1 65 13 is_stmt 1 view .LVU120
  65:lvgl/src/core/lv_obj_class.c ****             disp->screen_cnt = 1;
 345              		.loc 1 65 30 is_stmt 0 view .LVU121
 346 00ae 0560     		str	r5, [r0]
  66:lvgl/src/core/lv_obj_class.c ****         }
 347              		.loc 1 66 13 is_stmt 1 view .LVU122
  66:lvgl/src/core/lv_obj_class.c ****         }
 348              		.loc 1 66 30 is_stmt 0 view .LVU123
 349 00b0 0123     		movs	r3, #1
 350 00b2 6362     		str	r3, [r4, #36]
 351 00b4 E2E7     		b	.L18
 352              	.LVL32:
 353              	.L23:
  66:lvgl/src/core/lv_obj_class.c ****         }
 354              		.loc 1 66 30 view .LVU124
 355              	.LBE3:
  85:lvgl/src/core/lv_obj_class.c ****         }
 356              		.loc 1 85 13 is_stmt 1 view .LVU125
 357 00b6 2046     		mov	r0, r4
 358 00b8 FFF7FEFF 		bl	lv_obj_allocate_spec_attr
 359              	.LVL33:
 360 00bc B3E7     		b	.L19
 361              	.LVL34:
 362              	.L24:
  89:lvgl/src/core/lv_obj_class.c ****             parent->spec_attr->children[0] = obj;
 363              		.loc 1 89 13 view .LVU126
  89:lvgl/src/core/lv_obj_class.c ****             parent->spec_attr->children[0] = obj;
 364              		.loc 1 89 43 is_stmt 0 view .LVU127
 365 00be 0420     		movs	r0, #4
 366 00c0 FFF7FEFF 		bl	lv_mem_alloc
 367              	.LVL35:
  89:lvgl/src/core/lv_obj_class.c ****             parent->spec_attr->children[0] = obj;
 368              		.loc 1 89 41 view .LVU128
 369 00c4 3060     		str	r0, [r6]
  90:lvgl/src/core/lv_obj_class.c ****             parent->spec_attr->child_cnt = 1;
 370              		.loc 1 90 13 is_stmt 1 view .LVU129
  90:lvgl/src/core/lv_obj_class.c ****             parent->spec_attr->child_cnt = 1;
 371              		.loc 1 90 19 is_stmt 0 view .LVU130
 372 00c6 A368     		ldr	r3, [r4, #8]
  90:lvgl/src/core/lv_obj_class.c ****             parent->spec_attr->child_cnt = 1;
 373              		.loc 1 90 30 view .LVU131
 374 00c8 1B68     		ldr	r3, [r3]
  90:lvgl/src/core/lv_obj_class.c ****             parent->spec_attr->child_cnt = 1;
 375              		.loc 1 90 44 view .LVU132
 376 00ca 1D60     		str	r5, [r3]
  91:lvgl/src/core/lv_obj_class.c ****         }
 377              		.loc 1 91 13 is_stmt 1 view .LVU133
  91:lvgl/src/core/lv_obj_class.c ****         }
 378              		.loc 1 91 19 is_stmt 0 view .LVU134
 379 00cc A368     		ldr	r3, [r4, #8]
  91:lvgl/src/core/lv_obj_class.c ****         }
 380              		.loc 1 91 42 view .LVU135
 381 00ce 0122     		movs	r2, #1
 382 00d0 5A60     		str	r2, [r3, #4]
 383 00d2 BEE7     		b	.L13
 384              		.cfi_endproc
ARM GAS  C:\Users\OSD\AppData\Local\Temp\cc6Y0b2g.s 			page 13


 385              	.LFE161:
 387              		.section	.text._lv_obj_destruct,"ax",%progbits
 388              		.align	1
 389              		.global	_lv_obj_destruct
 390              		.syntax unified
 391              		.thumb
 392              		.thumb_func
 394              	_lv_obj_destruct:
 395              	.LVL36:
 396              	.LFB163:
 135:lvgl/src/core/lv_obj_class.c ****     if(obj->class_p->destructor_cb) obj->class_p->destructor_cb(obj->class_p, obj);
 397              		.loc 1 135 1 is_stmt 1 view -0
 398              		.cfi_startproc
 399              		@ args = 0, pretend = 0, frame = 0
 400              		@ frame_needed = 0, uses_anonymous_args = 0
 135:lvgl/src/core/lv_obj_class.c ****     if(obj->class_p->destructor_cb) obj->class_p->destructor_cb(obj->class_p, obj);
 401              		.loc 1 135 1 is_stmt 0 view .LVU137
 402 0000 10B5     		push	{r4, lr}
 403              		.cfi_def_cfa_offset 8
 404              		.cfi_offset 4, -8
 405              		.cfi_offset 14, -4
 406 0002 0446     		mov	r4, r0
 136:lvgl/src/core/lv_obj_class.c **** 
 407              		.loc 1 136 5 is_stmt 1 view .LVU138
 136:lvgl/src/core/lv_obj_class.c **** 
 408              		.loc 1 136 11 is_stmt 0 view .LVU139
 409 0004 0068     		ldr	r0, [r0]
 410              	.LVL37:
 136:lvgl/src/core/lv_obj_class.c **** 
 411              		.loc 1 136 20 view .LVU140
 412 0006 8368     		ldr	r3, [r0, #8]
 136:lvgl/src/core/lv_obj_class.c **** 
 413              		.loc 1 136 7 view .LVU141
 414 0008 0BB1     		cbz	r3, .L28
 136:lvgl/src/core/lv_obj_class.c **** 
 415              		.loc 1 136 37 is_stmt 1 discriminator 1 view .LVU142
 416 000a 2146     		mov	r1, r4
 417 000c 9847     		blx	r3
 418              	.LVL38:
 419              	.L28:
 138:lvgl/src/core/lv_obj_class.c ****         /*Don't let the descendant methods run during destructing the ancestor type*/
 420              		.loc 1 138 5 view .LVU143
 138:lvgl/src/core/lv_obj_class.c ****         /*Don't let the descendant methods run during destructing the ancestor type*/
 421              		.loc 1 138 11 is_stmt 0 view .LVU144
 422 000e 2368     		ldr	r3, [r4]
 138:lvgl/src/core/lv_obj_class.c ****         /*Don't let the descendant methods run during destructing the ancestor type*/
 423              		.loc 1 138 20 view .LVU145
 424 0010 1B68     		ldr	r3, [r3]
 138:lvgl/src/core/lv_obj_class.c ****         /*Don't let the descendant methods run during destructing the ancestor type*/
 425              		.loc 1 138 7 view .LVU146
 426 0012 1BB1     		cbz	r3, .L27
 140:lvgl/src/core/lv_obj_class.c **** 
 427              		.loc 1 140 9 is_stmt 1 view .LVU147
 140:lvgl/src/core/lv_obj_class.c **** 
 428              		.loc 1 140 22 is_stmt 0 view .LVU148
 429 0014 2360     		str	r3, [r4]
 143:lvgl/src/core/lv_obj_class.c ****     }
ARM GAS  C:\Users\OSD\AppData\Local\Temp\cc6Y0b2g.s 			page 14


 430              		.loc 1 143 9 is_stmt 1 view .LVU149
 431 0016 2046     		mov	r0, r4
 432 0018 FFF7FEFF 		bl	_lv_obj_destruct
 433              	.LVL39:
 434              	.L27:
 145:lvgl/src/core/lv_obj_class.c **** 
 435              		.loc 1 145 1 is_stmt 0 view .LVU150
 436 001c 10BD     		pop	{r4, pc}
 145:lvgl/src/core/lv_obj_class.c **** 
 437              		.loc 1 145 1 view .LVU151
 438              		.cfi_endproc
 439              	.LFE163:
 441              		.section	.text.lv_obj_is_editable,"ax",%progbits
 442              		.align	1
 443              		.global	lv_obj_is_editable
 444              		.syntax unified
 445              		.thumb
 446              		.thumb_func
 448              	lv_obj_is_editable:
 449              	.LVL40:
 450              	.LFB164:
 148:lvgl/src/core/lv_obj_class.c ****     const lv_obj_class_t * class_p = obj->class_p;
 451              		.loc 1 148 1 is_stmt 1 view -0
 452              		.cfi_startproc
 453              		@ args = 0, pretend = 0, frame = 0
 454              		@ frame_needed = 0, uses_anonymous_args = 0
 455              		@ link register save eliminated.
 149:lvgl/src/core/lv_obj_class.c **** 
 456              		.loc 1 149 5 view .LVU153
 149:lvgl/src/core/lv_obj_class.c **** 
 457              		.loc 1 149 28 is_stmt 0 view .LVU154
 458 0000 0368     		ldr	r3, [r0]
 459              	.LVL41:
 152:lvgl/src/core/lv_obj_class.c **** 
 460              		.loc 1 152 5 is_stmt 1 view .LVU155
 152:lvgl/src/core/lv_obj_class.c **** 
 461              		.loc 1 152 10 is_stmt 0 view .LVU156
 462 0002 00E0     		b	.L32
 463              	.L34:
 152:lvgl/src/core/lv_obj_class.c **** 
 464              		.loc 1 152 74 is_stmt 1 discriminator 3 view .LVU157
 152:lvgl/src/core/lv_obj_class.c **** 
 465              		.loc 1 152 82 is_stmt 0 discriminator 3 view .LVU158
 466 0004 1B68     		ldr	r3, [r3]
 467              	.LVL42:
 468              	.L32:
 152:lvgl/src/core/lv_obj_class.c **** 
 469              		.loc 1 152 10 is_stmt 1 discriminator 1 view .LVU159
 470 0006 1BB1     		cbz	r3, .L33
 152:lvgl/src/core/lv_obj_class.c **** 
 471              		.loc 1 152 40 is_stmt 0 discriminator 2 view .LVU160
 472 0008 1A7E     		ldrb	r2, [r3, #24]	@ zero_extendqisi2
 152:lvgl/src/core/lv_obj_class.c **** 
 473              		.loc 1 152 19 discriminator 2 view .LVU161
 474 000a 12F0030F 		tst	r2, #3
 475 000e F9D0     		beq	.L34
 476              	.L33:
ARM GAS  C:\Users\OSD\AppData\Local\Temp\cc6Y0b2g.s 			page 15


 154:lvgl/src/core/lv_obj_class.c **** 
 477              		.loc 1 154 5 is_stmt 1 view .LVU162
 154:lvgl/src/core/lv_obj_class.c **** 
 478              		.loc 1 154 7 is_stmt 0 view .LVU163
 479 0010 3BB1     		cbz	r3, .L36
 156:lvgl/src/core/lv_obj_class.c **** }
 480              		.loc 1 156 5 is_stmt 1 view .LVU164
 156:lvgl/src/core/lv_obj_class.c **** }
 481              		.loc 1 156 30 is_stmt 0 view .LVU165
 482 0012 187E     		ldrb	r0, [r3, #24]	@ zero_extendqisi2
 483              	.LVL43:
 156:lvgl/src/core/lv_obj_class.c **** }
 484              		.loc 1 156 67 view .LVU166
 485 0014 00F00300 		and	r0, r0, #3
 486 0018 0128     		cmp	r0, #1
 487 001a 14BF     		ite	ne
 488 001c 0020     		movne	r0, #0
 489 001e 0120     		moveq	r0, #1
 490 0020 7047     		bx	lr
 491              	.LVL44:
 492              	.L36:
 154:lvgl/src/core/lv_obj_class.c **** 
 493              		.loc 1 154 32 view .LVU167
 494 0022 0020     		movs	r0, #0
 495              	.LVL45:
 157:lvgl/src/core/lv_obj_class.c **** 
 496              		.loc 1 157 1 view .LVU168
 497 0024 7047     		bx	lr
 498              		.cfi_endproc
 499              	.LFE164:
 501              		.section	.text.lv_obj_is_group_def,"ax",%progbits
 502              		.align	1
 503              		.global	lv_obj_is_group_def
 504              		.syntax unified
 505              		.thumb
 506              		.thumb_func
 508              	lv_obj_is_group_def:
 509              	.LVL46:
 510              	.LFB165:
 160:lvgl/src/core/lv_obj_class.c ****     const lv_obj_class_t * class_p = obj->class_p;
 511              		.loc 1 160 1 is_stmt 1 view -0
 512              		.cfi_startproc
 513              		@ args = 0, pretend = 0, frame = 0
 514              		@ frame_needed = 0, uses_anonymous_args = 0
 515              		@ link register save eliminated.
 161:lvgl/src/core/lv_obj_class.c **** 
 516              		.loc 1 161 5 view .LVU170
 161:lvgl/src/core/lv_obj_class.c **** 
 517              		.loc 1 161 28 is_stmt 0 view .LVU171
 518 0000 0368     		ldr	r3, [r0]
 519              	.LVL47:
 164:lvgl/src/core/lv_obj_class.c **** 
 520              		.loc 1 164 5 is_stmt 1 view .LVU172
 164:lvgl/src/core/lv_obj_class.c **** 
 521              		.loc 1 164 10 is_stmt 0 view .LVU173
 522 0002 00E0     		b	.L38
 523              	.L40:
ARM GAS  C:\Users\OSD\AppData\Local\Temp\cc6Y0b2g.s 			page 16


 164:lvgl/src/core/lv_obj_class.c **** 
 524              		.loc 1 164 76 is_stmt 1 discriminator 3 view .LVU174
 164:lvgl/src/core/lv_obj_class.c **** 
 525              		.loc 1 164 84 is_stmt 0 discriminator 3 view .LVU175
 526 0004 1B68     		ldr	r3, [r3]
 527              	.LVL48:
 528              	.L38:
 164:lvgl/src/core/lv_obj_class.c **** 
 529              		.loc 1 164 10 is_stmt 1 discriminator 1 view .LVU176
 530 0006 1BB1     		cbz	r3, .L39
 164:lvgl/src/core/lv_obj_class.c **** 
 531              		.loc 1 164 41 is_stmt 0 discriminator 2 view .LVU177
 532 0008 1A7E     		ldrb	r2, [r3, #24]	@ zero_extendqisi2
 164:lvgl/src/core/lv_obj_class.c **** 
 533              		.loc 1 164 19 discriminator 2 view .LVU178
 534 000a 12F00C0F 		tst	r2, #12
 535 000e F9D0     		beq	.L40
 536              	.L39:
 166:lvgl/src/core/lv_obj_class.c **** 
 537              		.loc 1 166 5 is_stmt 1 view .LVU179
 166:lvgl/src/core/lv_obj_class.c **** 
 538              		.loc 1 166 7 is_stmt 0 view .LVU180
 539 0010 3BB1     		cbz	r3, .L42
 168:lvgl/src/core/lv_obj_class.c **** }
 540              		.loc 1 168 5 is_stmt 1 view .LVU181
 168:lvgl/src/core/lv_obj_class.c **** }
 541              		.loc 1 168 31 is_stmt 0 view .LVU182
 542 0012 187E     		ldrb	r0, [r3, #24]	@ zero_extendqisi2
 543              	.LVL49:
 168:lvgl/src/core/lv_obj_class.c **** }
 544              		.loc 1 168 69 view .LVU183
 545 0014 00F00C00 		and	r0, r0, #12
 546 0018 0428     		cmp	r0, #4
 547 001a 14BF     		ite	ne
 548 001c 0020     		movne	r0, #0
 549 001e 0120     		moveq	r0, #1
 550 0020 7047     		bx	lr
 551              	.LVL50:
 552              	.L42:
 166:lvgl/src/core/lv_obj_class.c **** 
 553              		.loc 1 166 32 view .LVU184
 554 0022 0020     		movs	r0, #0
 555              	.LVL51:
 169:lvgl/src/core/lv_obj_class.c **** 
 556              		.loc 1 169 1 view .LVU185
 557 0024 7047     		bx	lr
 558              		.cfi_endproc
 559              	.LFE165:
 561              		.section	.text.lv_obj_class_init_obj,"ax",%progbits
 562              		.align	1
 563              		.global	lv_obj_class_init_obj
 564              		.syntax unified
 565              		.thumb
 566              		.thumb_func
 568              	lv_obj_class_init_obj:
 569              	.LVL52:
 570              	.LFB162:
ARM GAS  C:\Users\OSD\AppData\Local\Temp\cc6Y0b2g.s 			page 17


 105:lvgl/src/core/lv_obj_class.c ****     lv_obj_mark_layout_as_dirty(obj);
 571              		.loc 1 105 1 is_stmt 1 view -0
 572              		.cfi_startproc
 573              		@ args = 0, pretend = 0, frame = 0
 574              		@ frame_needed = 0, uses_anonymous_args = 0
 105:lvgl/src/core/lv_obj_class.c ****     lv_obj_mark_layout_as_dirty(obj);
 575              		.loc 1 105 1 is_stmt 0 view .LVU187
 576 0000 38B5     		push	{r3, r4, r5, lr}
 577              		.cfi_def_cfa_offset 16
 578              		.cfi_offset 3, -16
 579              		.cfi_offset 4, -12
 580              		.cfi_offset 5, -8
 581              		.cfi_offset 14, -4
 582 0002 0446     		mov	r4, r0
 106:lvgl/src/core/lv_obj_class.c ****     lv_obj_enable_style_refresh(false);
 583              		.loc 1 106 5 is_stmt 1 view .LVU188
 584 0004 FFF7FEFF 		bl	lv_obj_mark_layout_as_dirty
 585              	.LVL53:
 107:lvgl/src/core/lv_obj_class.c **** 
 586              		.loc 1 107 5 view .LVU189
 587 0008 0020     		movs	r0, #0
 588 000a FFF7FEFF 		bl	lv_obj_enable_style_refresh
 589              	.LVL54:
 109:lvgl/src/core/lv_obj_class.c ****     lv_obj_construct(obj);
 590              		.loc 1 109 5 view .LVU190
 591 000e 2046     		mov	r0, r4
 592 0010 FFF7FEFF 		bl	lv_theme_apply
 593              	.LVL55:
 110:lvgl/src/core/lv_obj_class.c **** 
 594              		.loc 1 110 5 view .LVU191
 595 0014 2046     		mov	r0, r4
 596 0016 FFF7FEFF 		bl	lv_obj_construct
 597              	.LVL56:
 112:lvgl/src/core/lv_obj_class.c ****     lv_obj_refresh_style(obj, LV_PART_ANY, LV_STYLE_PROP_ANY);
 598              		.loc 1 112 5 view .LVU192
 599 001a 0120     		movs	r0, #1
 600 001c FFF7FEFF 		bl	lv_obj_enable_style_refresh
 601              	.LVL57:
 113:lvgl/src/core/lv_obj_class.c **** 
 602              		.loc 1 113 5 view .LVU193
 603 0020 4FF6FF72 		movw	r2, #65535
 604 0024 4FF47021 		mov	r1, #983040
 605 0028 2046     		mov	r0, r4
 606 002a FFF7FEFF 		bl	lv_obj_refresh_style
 607              	.LVL58:
 115:lvgl/src/core/lv_obj_class.c **** 
 608              		.loc 1 115 5 view .LVU194
 609 002e 2046     		mov	r0, r4
 610 0030 FFF7FEFF 		bl	lv_obj_refresh_self_size
 611              	.LVL59:
 117:lvgl/src/core/lv_obj_class.c ****     if(def_group && lv_obj_is_group_def(obj)) {
 612              		.loc 1 117 5 view .LVU195
 117:lvgl/src/core/lv_obj_class.c ****     if(def_group && lv_obj_is_group_def(obj)) {
 613              		.loc 1 117 30 is_stmt 0 view .LVU196
 614 0034 FFF7FEFF 		bl	lv_group_get_default
 615              	.LVL60:
 118:lvgl/src/core/lv_obj_class.c ****         lv_group_add_obj(def_group, obj);
ARM GAS  C:\Users\OSD\AppData\Local\Temp\cc6Y0b2g.s 			page 18


 616              		.loc 1 118 5 is_stmt 1 view .LVU197
 118:lvgl/src/core/lv_obj_class.c ****         lv_group_add_obj(def_group, obj);
 617              		.loc 1 118 7 is_stmt 0 view .LVU198
 618 0038 20B1     		cbz	r0, .L44
 619 003a 0546     		mov	r5, r0
 118:lvgl/src/core/lv_obj_class.c ****         lv_group_add_obj(def_group, obj);
 620              		.loc 1 118 21 discriminator 1 view .LVU199
 621 003c 2046     		mov	r0, r4
 622              	.LVL61:
 118:lvgl/src/core/lv_obj_class.c ****         lv_group_add_obj(def_group, obj);
 623              		.loc 1 118 21 discriminator 1 view .LVU200
 624 003e FFF7FEFF 		bl	lv_obj_is_group_def
 625              	.LVL62:
 118:lvgl/src/core/lv_obj_class.c ****         lv_group_add_obj(def_group, obj);
 626              		.loc 1 118 18 discriminator 1 view .LVU201
 627 0042 88B9     		cbnz	r0, .L47
 628              	.LVL63:
 629              	.L44:
 122:lvgl/src/core/lv_obj_class.c ****     if(parent) {
 630              		.loc 1 122 5 is_stmt 1 view .LVU202
 122:lvgl/src/core/lv_obj_class.c ****     if(parent) {
 631              		.loc 1 122 25 is_stmt 0 view .LVU203
 632 0044 2046     		mov	r0, r4
 633 0046 FFF7FEFF 		bl	lv_obj_get_parent
 634              	.LVL64:
 123:lvgl/src/core/lv_obj_class.c ****         /*Call the ancestor's event handler to the parent to notify it about the new child.
 635              		.loc 1 123 5 is_stmt 1 view .LVU204
 123:lvgl/src/core/lv_obj_class.c ****         /*Call the ancestor's event handler to the parent to notify it about the new child.
 636              		.loc 1 123 7 is_stmt 0 view .LVU205
 637 004a 0546     		mov	r5, r0
 638 004c 58B1     		cbz	r0, .L43
 126:lvgl/src/core/lv_obj_class.c ****         lv_event_send(parent, LV_EVENT_CHILD_CREATED, obj);
 639              		.loc 1 126 9 is_stmt 1 view .LVU206
 640 004e 2246     		mov	r2, r4
 641 0050 2221     		movs	r1, #34
 642 0052 FFF7FEFF 		bl	lv_event_send
 643              	.LVL65:
 127:lvgl/src/core/lv_obj_class.c **** 
 644              		.loc 1 127 9 view .LVU207
 645 0056 2246     		mov	r2, r4
 646 0058 2321     		movs	r1, #35
 647 005a 2846     		mov	r0, r5
 648 005c FFF7FEFF 		bl	lv_event_send
 649              	.LVL66:
 130:lvgl/src/core/lv_obj_class.c ****     }
 650              		.loc 1 130 9 view .LVU208
 651 0060 2046     		mov	r0, r4
 652 0062 FFF7FEFF 		bl	lv_obj_invalidate
 653              	.LVL67:
 654              	.L43:
 132:lvgl/src/core/lv_obj_class.c **** 
 655              		.loc 1 132 1 is_stmt 0 view .LVU209
 656 0066 38BD     		pop	{r3, r4, r5, pc}
 657              	.LVL68:
 658              	.L47:
 119:lvgl/src/core/lv_obj_class.c ****     }
 659              		.loc 1 119 9 is_stmt 1 view .LVU210
ARM GAS  C:\Users\OSD\AppData\Local\Temp\cc6Y0b2g.s 			page 19


 660 0068 2146     		mov	r1, r4
 661 006a 2846     		mov	r0, r5
 662 006c FFF7FEFF 		bl	lv_group_add_obj
 663              	.LVL69:
 664 0070 E8E7     		b	.L44
 665              		.cfi_endproc
 666              	.LFE162:
 668              		.text
 669              	.Letext0:
 670              		.file 2 "c:\\tools\\gcc-arm-none-eabi\\arm-none-eabi\\include\\machine\\_default_types.h"
 671              		.file 3 "c:\\tools\\gcc-arm-none-eabi\\arm-none-eabi\\include\\sys\\_stdint.h"
 672              		.file 4 "c:\\tools\\gcc-arm-none-eabi\\lib\\gcc\\arm-none-eabi\\10.3.1\\include\\stddef.h"
 673              		.file 5 "lvgl/src/core/../misc/../font/../misc/lv_area.h"
 674              		.file 6 "lvgl/src/core/../misc/../font/lv_font.h"
 675              		.file 7 "lvgl/src/core/../misc/lv_types.h"
 676              		.file 8 "lvgl/src/core/../misc/lv_color.h"
 677              		.file 9 "lvgl/src/core/../misc/lv_txt.h"
 678              		.file 10 "lvgl/src/core/../misc/lv_bidi.h"
 679              		.file 11 "lvgl/src/core/../misc/lv_style.h"
 680              		.file 12 "lvgl/src/core/../hal/../draw/lv_img_buf.h"
 681              		.file 13 "lvgl/src/core/lv_obj.h"
 682              		.file 14 "lvgl/src/core/../hal/../draw/lv_draw_rect.h"
 683              		.file 15 "lvgl/src/core/../hal/../draw/lv_draw_label.h"
 684              		.file 16 "lvgl/src/core/../hal/../draw/lv_draw_img.h"
 685              		.file 17 "lvgl/src/core/../hal/../draw/lv_draw_line.h"
 686              		.file 18 "lvgl/src/core/../hal/../draw/lv_draw_arc.h"
 687              		.file 19 "lvgl/src/core/../hal/../draw/lv_draw_layer.h"
 688              		.file 20 "lvgl/src/core/../hal/../draw/lv_draw.h"
 689              		.file 21 "lvgl/src/core/../hal/../misc/lv_ll.h"
 690              		.file 22 "lvgl/src/core/../hal/../misc/lv_timer.h"
 691              		.file 23 "lvgl/src/core/../hal/lv_hal_disp.h"
 692              		.file 24 "lvgl/src/core/lv_theme.h"
 693              		.file 25 "lvgl/src/core/lv_group.h"
 694              		.file 26 "lvgl/src/core/lv_obj_scroll.h"
 695              		.file 27 "lvgl/src/core/lv_obj_style.h"
 696              		.file 28 "lvgl/src/core/lv_obj_class.h"
 697              		.file 29 "lvgl/src/core/lv_event.h"
 698              		.file 30 "d:\\kzc\\stm32\\h743ii_lcd\\lvgl\\src\\core\\lv_obj_pos.h"
 699              		.file 31 "lvgl/src/core/lv_obj_tree.h"
 700              		.file 32 "lvgl/src/core/../misc/lv_mem.h"
ARM GAS  C:\Users\OSD\AppData\Local\Temp\cc6Y0b2g.s 			page 20

