ARM GAS  C:\Users\OSD\AppData\Local\Temp\cc7WrW7h.s 			page 1


   1              		.cpu cortex-m7
   2              		.arch armv7e-m
   3              		.fpu fpv5-d16
   4              		.eabi_attribute 28, 1
   5              		.eabi_attribute 20, 1
   6              		.eabi_attribute 21, 1
   7              		.eabi_attribute 23, 3
   8              		.eabi_attribute 24, 1
   9              		.eabi_attribute 25, 1
  10              		.eabi_attribute 26, 1
  11              		.eabi_attribute 30, 1
  12              		.eabi_attribute 34, 1
  13              		.eabi_attribute 18, 4
  14              		.file	"lv_obj_draw.c"
  15              		.text
  16              	.Ltext0:
  17              		.cfi_sections	.debug_frame
  18              		.section	.text.lv_obj_init_draw_rect_dsc,"ax",%progbits
  19              		.align	1
  20              		.global	lv_obj_init_draw_rect_dsc
  21              		.syntax unified
  22              		.thumb
  23              		.thumb_func
  25              	lv_obj_init_draw_rect_dsc:
  26              	.LVL0:
  27              	.LFB167:
  28              		.file 1 "lvgl/src/core/lv_obj_draw.c"
   1:lvgl/src/core/lv_obj_draw.c **** /**
   2:lvgl/src/core/lv_obj_draw.c ****  * @file lv_obj_draw.c
   3:lvgl/src/core/lv_obj_draw.c ****  *
   4:lvgl/src/core/lv_obj_draw.c ****  */
   5:lvgl/src/core/lv_obj_draw.c **** 
   6:lvgl/src/core/lv_obj_draw.c **** /*********************
   7:lvgl/src/core/lv_obj_draw.c ****  *      INCLUDES
   8:lvgl/src/core/lv_obj_draw.c ****  *********************/
   9:lvgl/src/core/lv_obj_draw.c **** #include "lv_obj_draw.h"
  10:lvgl/src/core/lv_obj_draw.c **** #include "lv_obj.h"
  11:lvgl/src/core/lv_obj_draw.c **** #include "lv_disp.h"
  12:lvgl/src/core/lv_obj_draw.c **** #include "lv_indev.h"
  13:lvgl/src/core/lv_obj_draw.c **** 
  14:lvgl/src/core/lv_obj_draw.c **** /*********************
  15:lvgl/src/core/lv_obj_draw.c ****  *      DEFINES
  16:lvgl/src/core/lv_obj_draw.c ****  *********************/
  17:lvgl/src/core/lv_obj_draw.c **** #define MY_CLASS &lv_obj_class
  18:lvgl/src/core/lv_obj_draw.c **** 
  19:lvgl/src/core/lv_obj_draw.c **** /**********************
  20:lvgl/src/core/lv_obj_draw.c ****  *      TYPEDEFS
  21:lvgl/src/core/lv_obj_draw.c ****  **********************/
  22:lvgl/src/core/lv_obj_draw.c **** 
  23:lvgl/src/core/lv_obj_draw.c **** /**********************
  24:lvgl/src/core/lv_obj_draw.c ****  *  STATIC PROTOTYPES
  25:lvgl/src/core/lv_obj_draw.c ****  **********************/
  26:lvgl/src/core/lv_obj_draw.c **** 
  27:lvgl/src/core/lv_obj_draw.c **** /**********************
  28:lvgl/src/core/lv_obj_draw.c ****  *  STATIC VARIABLES
  29:lvgl/src/core/lv_obj_draw.c ****  **********************/
  30:lvgl/src/core/lv_obj_draw.c **** 
ARM GAS  C:\Users\OSD\AppData\Local\Temp\cc7WrW7h.s 			page 2


  31:lvgl/src/core/lv_obj_draw.c **** /**********************
  32:lvgl/src/core/lv_obj_draw.c ****  *      MACROS
  33:lvgl/src/core/lv_obj_draw.c ****  **********************/
  34:lvgl/src/core/lv_obj_draw.c **** 
  35:lvgl/src/core/lv_obj_draw.c **** /**********************
  36:lvgl/src/core/lv_obj_draw.c ****  *   GLOBAL FUNCTIONS
  37:lvgl/src/core/lv_obj_draw.c ****  **********************/
  38:lvgl/src/core/lv_obj_draw.c **** 
  39:lvgl/src/core/lv_obj_draw.c **** void lv_obj_init_draw_rect_dsc(lv_obj_t * obj, uint32_t part, lv_draw_rect_dsc_t * draw_dsc)
  40:lvgl/src/core/lv_obj_draw.c **** {
  29              		.loc 1 40 1 view -0
  30              		.cfi_startproc
  31              		@ args = 0, pretend = 0, frame = 0
  32              		@ frame_needed = 0, uses_anonymous_args = 0
  33              		.loc 1 40 1 is_stmt 0 view .LVU1
  34 0000 F8B5     		push	{r3, r4, r5, r6, r7, lr}
  35              		.cfi_def_cfa_offset 24
  36              		.cfi_offset 3, -24
  37              		.cfi_offset 4, -20
  38              		.cfi_offset 5, -16
  39              		.cfi_offset 6, -12
  40              		.cfi_offset 7, -8
  41              		.cfi_offset 14, -4
  42 0002 0646     		mov	r6, r0
  43 0004 0D46     		mov	r5, r1
  44 0006 1446     		mov	r4, r2
  41:lvgl/src/core/lv_obj_draw.c ****     lv_opa_t opa = lv_obj_get_style_opa_recursive(obj, part);
  45              		.loc 1 41 5 is_stmt 1 view .LVU2
  46              		.loc 1 41 20 is_stmt 0 view .LVU3
  47 0008 FFF7FEFF 		bl	lv_obj_get_style_opa_recursive
  48              	.LVL1:
  49              		.loc 1 41 20 view .LVU4
  50 000c 0746     		mov	r7, r0
  51              	.LVL2:
  42:lvgl/src/core/lv_obj_draw.c ****     if(part != LV_PART_MAIN) {
  52              		.loc 1 42 5 is_stmt 1 view .LVU5
  53              		.loc 1 42 7 is_stmt 0 view .LVU6
  54 000e 0DB1     		cbz	r5, .L2
  43:lvgl/src/core/lv_obj_draw.c ****         if(opa <= LV_OPA_MIN) {
  55              		.loc 1 43 9 is_stmt 1 view .LVU7
  56              		.loc 1 43 11 is_stmt 0 view .LVU8
  57 0010 0228     		cmp	r0, #2
  58 0012 52D9     		bls	.L14
  59              	.L2:
  44:lvgl/src/core/lv_obj_draw.c ****             draw_dsc->bg_opa = LV_OPA_TRANSP;
  45:lvgl/src/core/lv_obj_draw.c ****             draw_dsc->bg_img_opa = LV_OPA_TRANSP;
  46:lvgl/src/core/lv_obj_draw.c ****             draw_dsc->border_opa = LV_OPA_TRANSP;
  47:lvgl/src/core/lv_obj_draw.c ****             draw_dsc->outline_opa = LV_OPA_TRANSP;
  48:lvgl/src/core/lv_obj_draw.c ****             draw_dsc->shadow_opa = LV_OPA_TRANSP;
  49:lvgl/src/core/lv_obj_draw.c ****             return;
  50:lvgl/src/core/lv_obj_draw.c ****         }
  51:lvgl/src/core/lv_obj_draw.c ****     }
  52:lvgl/src/core/lv_obj_draw.c **** 
  53:lvgl/src/core/lv_obj_draw.c **** #if LV_DRAW_COMPLEX
  54:lvgl/src/core/lv_obj_draw.c ****     if(part != LV_PART_MAIN) draw_dsc->blend_mode = lv_obj_get_style_blend_mode(obj, part);
  60              		.loc 1 54 5 is_stmt 1 view .LVU9
  61              		.loc 1 54 7 is_stmt 0 view .LVU10
ARM GAS  C:\Users\OSD\AppData\Local\Temp\cc7WrW7h.s 			page 3


  62 0014 002D     		cmp	r5, #0
  63 0016 5BD1     		bne	.L15
  64              	.LVL3:
  65              	.L4:
  55:lvgl/src/core/lv_obj_draw.c **** 
  56:lvgl/src/core/lv_obj_draw.c ****     draw_dsc->radius = lv_obj_get_style_radius(obj, part);
  66              		.loc 1 56 5 is_stmt 1 view .LVU11
  67              	.LBB186:
  68              	.LBI186:
  69              		.file 2 "lvgl/src/core/lv_obj_style_gen.h"
   1:lvgl/src/core/lv_obj_style_gen.h **** static inline lv_coord_t lv_obj_get_style_width(const struct _lv_obj_t * obj, uint32_t part)
   2:lvgl/src/core/lv_obj_style_gen.h **** {
   3:lvgl/src/core/lv_obj_style_gen.h ****     lv_style_value_t v = lv_obj_get_style_prop(obj, part, LV_STYLE_WIDTH);
   4:lvgl/src/core/lv_obj_style_gen.h ****     return (lv_coord_t)v.num;
   5:lvgl/src/core/lv_obj_style_gen.h **** }
   6:lvgl/src/core/lv_obj_style_gen.h **** 
   7:lvgl/src/core/lv_obj_style_gen.h **** static inline lv_coord_t lv_obj_get_style_min_width(const struct _lv_obj_t * obj, uint32_t part)
   8:lvgl/src/core/lv_obj_style_gen.h **** {
   9:lvgl/src/core/lv_obj_style_gen.h ****     lv_style_value_t v = lv_obj_get_style_prop(obj, part, LV_STYLE_MIN_WIDTH);
  10:lvgl/src/core/lv_obj_style_gen.h ****     return (lv_coord_t)v.num;
  11:lvgl/src/core/lv_obj_style_gen.h **** }
  12:lvgl/src/core/lv_obj_style_gen.h **** 
  13:lvgl/src/core/lv_obj_style_gen.h **** static inline lv_coord_t lv_obj_get_style_max_width(const struct _lv_obj_t * obj, uint32_t part)
  14:lvgl/src/core/lv_obj_style_gen.h **** {
  15:lvgl/src/core/lv_obj_style_gen.h ****     lv_style_value_t v = lv_obj_get_style_prop(obj, part, LV_STYLE_MAX_WIDTH);
  16:lvgl/src/core/lv_obj_style_gen.h ****     return (lv_coord_t)v.num;
  17:lvgl/src/core/lv_obj_style_gen.h **** }
  18:lvgl/src/core/lv_obj_style_gen.h **** 
  19:lvgl/src/core/lv_obj_style_gen.h **** static inline lv_coord_t lv_obj_get_style_height(const struct _lv_obj_t * obj, uint32_t part)
  20:lvgl/src/core/lv_obj_style_gen.h **** {
  21:lvgl/src/core/lv_obj_style_gen.h ****     lv_style_value_t v = lv_obj_get_style_prop(obj, part, LV_STYLE_HEIGHT);
  22:lvgl/src/core/lv_obj_style_gen.h ****     return (lv_coord_t)v.num;
  23:lvgl/src/core/lv_obj_style_gen.h **** }
  24:lvgl/src/core/lv_obj_style_gen.h **** 
  25:lvgl/src/core/lv_obj_style_gen.h **** static inline lv_coord_t lv_obj_get_style_min_height(const struct _lv_obj_t * obj, uint32_t part)
  26:lvgl/src/core/lv_obj_style_gen.h **** {
  27:lvgl/src/core/lv_obj_style_gen.h ****     lv_style_value_t v = lv_obj_get_style_prop(obj, part, LV_STYLE_MIN_HEIGHT);
  28:lvgl/src/core/lv_obj_style_gen.h ****     return (lv_coord_t)v.num;
  29:lvgl/src/core/lv_obj_style_gen.h **** }
  30:lvgl/src/core/lv_obj_style_gen.h **** 
  31:lvgl/src/core/lv_obj_style_gen.h **** static inline lv_coord_t lv_obj_get_style_max_height(const struct _lv_obj_t * obj, uint32_t part)
  32:lvgl/src/core/lv_obj_style_gen.h **** {
  33:lvgl/src/core/lv_obj_style_gen.h ****     lv_style_value_t v = lv_obj_get_style_prop(obj, part, LV_STYLE_MAX_HEIGHT);
  34:lvgl/src/core/lv_obj_style_gen.h ****     return (lv_coord_t)v.num;
  35:lvgl/src/core/lv_obj_style_gen.h **** }
  36:lvgl/src/core/lv_obj_style_gen.h **** 
  37:lvgl/src/core/lv_obj_style_gen.h **** static inline lv_coord_t lv_obj_get_style_x(const struct _lv_obj_t * obj, uint32_t part)
  38:lvgl/src/core/lv_obj_style_gen.h **** {
  39:lvgl/src/core/lv_obj_style_gen.h ****     lv_style_value_t v = lv_obj_get_style_prop(obj, part, LV_STYLE_X);
  40:lvgl/src/core/lv_obj_style_gen.h ****     return (lv_coord_t)v.num;
  41:lvgl/src/core/lv_obj_style_gen.h **** }
  42:lvgl/src/core/lv_obj_style_gen.h **** 
  43:lvgl/src/core/lv_obj_style_gen.h **** static inline lv_coord_t lv_obj_get_style_y(const struct _lv_obj_t * obj, uint32_t part)
  44:lvgl/src/core/lv_obj_style_gen.h **** {
  45:lvgl/src/core/lv_obj_style_gen.h ****     lv_style_value_t v = lv_obj_get_style_prop(obj, part, LV_STYLE_Y);
  46:lvgl/src/core/lv_obj_style_gen.h ****     return (lv_coord_t)v.num;
  47:lvgl/src/core/lv_obj_style_gen.h **** }
ARM GAS  C:\Users\OSD\AppData\Local\Temp\cc7WrW7h.s 			page 4


  48:lvgl/src/core/lv_obj_style_gen.h **** 
  49:lvgl/src/core/lv_obj_style_gen.h **** static inline lv_align_t lv_obj_get_style_align(const struct _lv_obj_t * obj, uint32_t part)
  50:lvgl/src/core/lv_obj_style_gen.h **** {
  51:lvgl/src/core/lv_obj_style_gen.h ****     lv_style_value_t v = lv_obj_get_style_prop(obj, part, LV_STYLE_ALIGN);
  52:lvgl/src/core/lv_obj_style_gen.h ****     return (lv_align_t)v.num;
  53:lvgl/src/core/lv_obj_style_gen.h **** }
  54:lvgl/src/core/lv_obj_style_gen.h **** 
  55:lvgl/src/core/lv_obj_style_gen.h **** static inline lv_coord_t lv_obj_get_style_transform_width(const struct _lv_obj_t * obj, uint32_t pa
  56:lvgl/src/core/lv_obj_style_gen.h **** {
  57:lvgl/src/core/lv_obj_style_gen.h ****     lv_style_value_t v = lv_obj_get_style_prop(obj, part, LV_STYLE_TRANSFORM_WIDTH);
  58:lvgl/src/core/lv_obj_style_gen.h ****     return (lv_coord_t)v.num;
  59:lvgl/src/core/lv_obj_style_gen.h **** }
  60:lvgl/src/core/lv_obj_style_gen.h **** 
  61:lvgl/src/core/lv_obj_style_gen.h **** static inline lv_coord_t lv_obj_get_style_transform_height(const struct _lv_obj_t * obj, uint32_t p
  62:lvgl/src/core/lv_obj_style_gen.h **** {
  63:lvgl/src/core/lv_obj_style_gen.h ****     lv_style_value_t v = lv_obj_get_style_prop(obj, part, LV_STYLE_TRANSFORM_HEIGHT);
  64:lvgl/src/core/lv_obj_style_gen.h ****     return (lv_coord_t)v.num;
  65:lvgl/src/core/lv_obj_style_gen.h **** }
  66:lvgl/src/core/lv_obj_style_gen.h **** 
  67:lvgl/src/core/lv_obj_style_gen.h **** static inline lv_coord_t lv_obj_get_style_translate_x(const struct _lv_obj_t * obj, uint32_t part)
  68:lvgl/src/core/lv_obj_style_gen.h **** {
  69:lvgl/src/core/lv_obj_style_gen.h ****     lv_style_value_t v = lv_obj_get_style_prop(obj, part, LV_STYLE_TRANSLATE_X);
  70:lvgl/src/core/lv_obj_style_gen.h ****     return (lv_coord_t)v.num;
  71:lvgl/src/core/lv_obj_style_gen.h **** }
  72:lvgl/src/core/lv_obj_style_gen.h **** 
  73:lvgl/src/core/lv_obj_style_gen.h **** static inline lv_coord_t lv_obj_get_style_translate_y(const struct _lv_obj_t * obj, uint32_t part)
  74:lvgl/src/core/lv_obj_style_gen.h **** {
  75:lvgl/src/core/lv_obj_style_gen.h ****     lv_style_value_t v = lv_obj_get_style_prop(obj, part, LV_STYLE_TRANSLATE_Y);
  76:lvgl/src/core/lv_obj_style_gen.h ****     return (lv_coord_t)v.num;
  77:lvgl/src/core/lv_obj_style_gen.h **** }
  78:lvgl/src/core/lv_obj_style_gen.h **** 
  79:lvgl/src/core/lv_obj_style_gen.h **** static inline lv_coord_t lv_obj_get_style_transform_zoom(const struct _lv_obj_t * obj, uint32_t par
  80:lvgl/src/core/lv_obj_style_gen.h **** {
  81:lvgl/src/core/lv_obj_style_gen.h ****     lv_style_value_t v = lv_obj_get_style_prop(obj, part, LV_STYLE_TRANSFORM_ZOOM);
  82:lvgl/src/core/lv_obj_style_gen.h ****     return (lv_coord_t)v.num;
  83:lvgl/src/core/lv_obj_style_gen.h **** }
  84:lvgl/src/core/lv_obj_style_gen.h **** 
  85:lvgl/src/core/lv_obj_style_gen.h **** static inline lv_coord_t lv_obj_get_style_transform_angle(const struct _lv_obj_t * obj, uint32_t pa
  86:lvgl/src/core/lv_obj_style_gen.h **** {
  87:lvgl/src/core/lv_obj_style_gen.h ****     lv_style_value_t v = lv_obj_get_style_prop(obj, part, LV_STYLE_TRANSFORM_ANGLE);
  88:lvgl/src/core/lv_obj_style_gen.h ****     return (lv_coord_t)v.num;
  89:lvgl/src/core/lv_obj_style_gen.h **** }
  90:lvgl/src/core/lv_obj_style_gen.h **** 
  91:lvgl/src/core/lv_obj_style_gen.h **** static inline lv_coord_t lv_obj_get_style_transform_pivot_x(const struct _lv_obj_t * obj, uint32_t 
  92:lvgl/src/core/lv_obj_style_gen.h **** {
  93:lvgl/src/core/lv_obj_style_gen.h ****     lv_style_value_t v = lv_obj_get_style_prop(obj, part, LV_STYLE_TRANSFORM_PIVOT_X);
  94:lvgl/src/core/lv_obj_style_gen.h ****     return (lv_coord_t)v.num;
  95:lvgl/src/core/lv_obj_style_gen.h **** }
  96:lvgl/src/core/lv_obj_style_gen.h **** 
  97:lvgl/src/core/lv_obj_style_gen.h **** static inline lv_coord_t lv_obj_get_style_transform_pivot_y(const struct _lv_obj_t * obj, uint32_t 
  98:lvgl/src/core/lv_obj_style_gen.h **** {
  99:lvgl/src/core/lv_obj_style_gen.h ****     lv_style_value_t v = lv_obj_get_style_prop(obj, part, LV_STYLE_TRANSFORM_PIVOT_Y);
 100:lvgl/src/core/lv_obj_style_gen.h ****     return (lv_coord_t)v.num;
 101:lvgl/src/core/lv_obj_style_gen.h **** }
 102:lvgl/src/core/lv_obj_style_gen.h **** 
 103:lvgl/src/core/lv_obj_style_gen.h **** static inline lv_coord_t lv_obj_get_style_pad_top(const struct _lv_obj_t * obj, uint32_t part)
 104:lvgl/src/core/lv_obj_style_gen.h **** {
ARM GAS  C:\Users\OSD\AppData\Local\Temp\cc7WrW7h.s 			page 5


 105:lvgl/src/core/lv_obj_style_gen.h ****     lv_style_value_t v = lv_obj_get_style_prop(obj, part, LV_STYLE_PAD_TOP);
 106:lvgl/src/core/lv_obj_style_gen.h ****     return (lv_coord_t)v.num;
 107:lvgl/src/core/lv_obj_style_gen.h **** }
 108:lvgl/src/core/lv_obj_style_gen.h **** 
 109:lvgl/src/core/lv_obj_style_gen.h **** static inline lv_coord_t lv_obj_get_style_pad_bottom(const struct _lv_obj_t * obj, uint32_t part)
 110:lvgl/src/core/lv_obj_style_gen.h **** {
 111:lvgl/src/core/lv_obj_style_gen.h ****     lv_style_value_t v = lv_obj_get_style_prop(obj, part, LV_STYLE_PAD_BOTTOM);
 112:lvgl/src/core/lv_obj_style_gen.h ****     return (lv_coord_t)v.num;
 113:lvgl/src/core/lv_obj_style_gen.h **** }
 114:lvgl/src/core/lv_obj_style_gen.h **** 
 115:lvgl/src/core/lv_obj_style_gen.h **** static inline lv_coord_t lv_obj_get_style_pad_left(const struct _lv_obj_t * obj, uint32_t part)
 116:lvgl/src/core/lv_obj_style_gen.h **** {
 117:lvgl/src/core/lv_obj_style_gen.h ****     lv_style_value_t v = lv_obj_get_style_prop(obj, part, LV_STYLE_PAD_LEFT);
 118:lvgl/src/core/lv_obj_style_gen.h ****     return (lv_coord_t)v.num;
 119:lvgl/src/core/lv_obj_style_gen.h **** }
 120:lvgl/src/core/lv_obj_style_gen.h **** 
 121:lvgl/src/core/lv_obj_style_gen.h **** static inline lv_coord_t lv_obj_get_style_pad_right(const struct _lv_obj_t * obj, uint32_t part)
 122:lvgl/src/core/lv_obj_style_gen.h **** {
 123:lvgl/src/core/lv_obj_style_gen.h ****     lv_style_value_t v = lv_obj_get_style_prop(obj, part, LV_STYLE_PAD_RIGHT);
 124:lvgl/src/core/lv_obj_style_gen.h ****     return (lv_coord_t)v.num;
 125:lvgl/src/core/lv_obj_style_gen.h **** }
 126:lvgl/src/core/lv_obj_style_gen.h **** 
 127:lvgl/src/core/lv_obj_style_gen.h **** static inline lv_coord_t lv_obj_get_style_pad_row(const struct _lv_obj_t * obj, uint32_t part)
 128:lvgl/src/core/lv_obj_style_gen.h **** {
 129:lvgl/src/core/lv_obj_style_gen.h ****     lv_style_value_t v = lv_obj_get_style_prop(obj, part, LV_STYLE_PAD_ROW);
 130:lvgl/src/core/lv_obj_style_gen.h ****     return (lv_coord_t)v.num;
 131:lvgl/src/core/lv_obj_style_gen.h **** }
 132:lvgl/src/core/lv_obj_style_gen.h **** 
 133:lvgl/src/core/lv_obj_style_gen.h **** static inline lv_coord_t lv_obj_get_style_pad_column(const struct _lv_obj_t * obj, uint32_t part)
 134:lvgl/src/core/lv_obj_style_gen.h **** {
 135:lvgl/src/core/lv_obj_style_gen.h ****     lv_style_value_t v = lv_obj_get_style_prop(obj, part, LV_STYLE_PAD_COLUMN);
 136:lvgl/src/core/lv_obj_style_gen.h ****     return (lv_coord_t)v.num;
 137:lvgl/src/core/lv_obj_style_gen.h **** }
 138:lvgl/src/core/lv_obj_style_gen.h **** 
 139:lvgl/src/core/lv_obj_style_gen.h **** static inline lv_color_t lv_obj_get_style_bg_color(const struct _lv_obj_t * obj, uint32_t part)
 140:lvgl/src/core/lv_obj_style_gen.h **** {
 141:lvgl/src/core/lv_obj_style_gen.h ****     lv_style_value_t v = lv_obj_get_style_prop(obj, part, LV_STYLE_BG_COLOR);
 142:lvgl/src/core/lv_obj_style_gen.h ****     return v.color;
 143:lvgl/src/core/lv_obj_style_gen.h **** }
 144:lvgl/src/core/lv_obj_style_gen.h **** 
 145:lvgl/src/core/lv_obj_style_gen.h **** static inline lv_color_t lv_obj_get_style_bg_color_filtered(const struct _lv_obj_t * obj, uint32_t 
 146:lvgl/src/core/lv_obj_style_gen.h **** {
 147:lvgl/src/core/lv_obj_style_gen.h ****     lv_style_value_t v = _lv_obj_style_apply_color_filter(obj, part, lv_obj_get_style_prop(obj, par
 148:lvgl/src/core/lv_obj_style_gen.h ****     return v.color;
 149:lvgl/src/core/lv_obj_style_gen.h **** }
 150:lvgl/src/core/lv_obj_style_gen.h **** 
 151:lvgl/src/core/lv_obj_style_gen.h **** static inline lv_opa_t lv_obj_get_style_bg_opa(const struct _lv_obj_t * obj, uint32_t part)
 152:lvgl/src/core/lv_obj_style_gen.h **** {
 153:lvgl/src/core/lv_obj_style_gen.h ****     lv_style_value_t v = lv_obj_get_style_prop(obj, part, LV_STYLE_BG_OPA);
 154:lvgl/src/core/lv_obj_style_gen.h ****     return (lv_opa_t)v.num;
 155:lvgl/src/core/lv_obj_style_gen.h **** }
 156:lvgl/src/core/lv_obj_style_gen.h **** 
 157:lvgl/src/core/lv_obj_style_gen.h **** static inline lv_color_t lv_obj_get_style_bg_grad_color(const struct _lv_obj_t * obj, uint32_t part
 158:lvgl/src/core/lv_obj_style_gen.h **** {
 159:lvgl/src/core/lv_obj_style_gen.h ****     lv_style_value_t v = lv_obj_get_style_prop(obj, part, LV_STYLE_BG_GRAD_COLOR);
 160:lvgl/src/core/lv_obj_style_gen.h ****     return v.color;
 161:lvgl/src/core/lv_obj_style_gen.h **** }
ARM GAS  C:\Users\OSD\AppData\Local\Temp\cc7WrW7h.s 			page 6


 162:lvgl/src/core/lv_obj_style_gen.h **** 
 163:lvgl/src/core/lv_obj_style_gen.h **** static inline lv_color_t lv_obj_get_style_bg_grad_color_filtered(const struct _lv_obj_t * obj, uint
 164:lvgl/src/core/lv_obj_style_gen.h **** {
 165:lvgl/src/core/lv_obj_style_gen.h ****     lv_style_value_t v = _lv_obj_style_apply_color_filter(obj, part, lv_obj_get_style_prop(obj, par
 166:lvgl/src/core/lv_obj_style_gen.h ****     return v.color;
 167:lvgl/src/core/lv_obj_style_gen.h **** }
 168:lvgl/src/core/lv_obj_style_gen.h **** 
 169:lvgl/src/core/lv_obj_style_gen.h **** static inline lv_grad_dir_t lv_obj_get_style_bg_grad_dir(const struct _lv_obj_t * obj, uint32_t par
 170:lvgl/src/core/lv_obj_style_gen.h **** {
 171:lvgl/src/core/lv_obj_style_gen.h ****     lv_style_value_t v = lv_obj_get_style_prop(obj, part, LV_STYLE_BG_GRAD_DIR);
 172:lvgl/src/core/lv_obj_style_gen.h ****     return (lv_grad_dir_t)v.num;
 173:lvgl/src/core/lv_obj_style_gen.h **** }
 174:lvgl/src/core/lv_obj_style_gen.h **** 
 175:lvgl/src/core/lv_obj_style_gen.h **** static inline lv_coord_t lv_obj_get_style_bg_main_stop(const struct _lv_obj_t * obj, uint32_t part)
 176:lvgl/src/core/lv_obj_style_gen.h **** {
 177:lvgl/src/core/lv_obj_style_gen.h ****     lv_style_value_t v = lv_obj_get_style_prop(obj, part, LV_STYLE_BG_MAIN_STOP);
 178:lvgl/src/core/lv_obj_style_gen.h ****     return (lv_coord_t)v.num;
 179:lvgl/src/core/lv_obj_style_gen.h **** }
 180:lvgl/src/core/lv_obj_style_gen.h **** 
 181:lvgl/src/core/lv_obj_style_gen.h **** static inline lv_coord_t lv_obj_get_style_bg_grad_stop(const struct _lv_obj_t * obj, uint32_t part)
 182:lvgl/src/core/lv_obj_style_gen.h **** {
 183:lvgl/src/core/lv_obj_style_gen.h ****     lv_style_value_t v = lv_obj_get_style_prop(obj, part, LV_STYLE_BG_GRAD_STOP);
 184:lvgl/src/core/lv_obj_style_gen.h ****     return (lv_coord_t)v.num;
 185:lvgl/src/core/lv_obj_style_gen.h **** }
 186:lvgl/src/core/lv_obj_style_gen.h **** 
 187:lvgl/src/core/lv_obj_style_gen.h **** static inline const lv_grad_dsc_t * lv_obj_get_style_bg_grad(const struct _lv_obj_t * obj, uint32_t
 188:lvgl/src/core/lv_obj_style_gen.h **** {
 189:lvgl/src/core/lv_obj_style_gen.h ****     lv_style_value_t v = lv_obj_get_style_prop(obj, part, LV_STYLE_BG_GRAD);
 190:lvgl/src/core/lv_obj_style_gen.h ****     return (const lv_grad_dsc_t *)v.ptr;
 191:lvgl/src/core/lv_obj_style_gen.h **** }
 192:lvgl/src/core/lv_obj_style_gen.h **** 
 193:lvgl/src/core/lv_obj_style_gen.h **** static inline lv_dither_mode_t lv_obj_get_style_bg_dither_mode(const struct _lv_obj_t * obj, uint32
 194:lvgl/src/core/lv_obj_style_gen.h **** {
 195:lvgl/src/core/lv_obj_style_gen.h ****     lv_style_value_t v = lv_obj_get_style_prop(obj, part, LV_STYLE_BG_DITHER_MODE);
 196:lvgl/src/core/lv_obj_style_gen.h ****     return (lv_dither_mode_t)v.num;
 197:lvgl/src/core/lv_obj_style_gen.h **** }
 198:lvgl/src/core/lv_obj_style_gen.h **** 
 199:lvgl/src/core/lv_obj_style_gen.h **** static inline const void * lv_obj_get_style_bg_img_src(const struct _lv_obj_t * obj, uint32_t part)
 200:lvgl/src/core/lv_obj_style_gen.h **** {
 201:lvgl/src/core/lv_obj_style_gen.h ****     lv_style_value_t v = lv_obj_get_style_prop(obj, part, LV_STYLE_BG_IMG_SRC);
 202:lvgl/src/core/lv_obj_style_gen.h ****     return (const void *)v.ptr;
 203:lvgl/src/core/lv_obj_style_gen.h **** }
 204:lvgl/src/core/lv_obj_style_gen.h **** 
 205:lvgl/src/core/lv_obj_style_gen.h **** static inline lv_opa_t lv_obj_get_style_bg_img_opa(const struct _lv_obj_t * obj, uint32_t part)
 206:lvgl/src/core/lv_obj_style_gen.h **** {
 207:lvgl/src/core/lv_obj_style_gen.h ****     lv_style_value_t v = lv_obj_get_style_prop(obj, part, LV_STYLE_BG_IMG_OPA);
 208:lvgl/src/core/lv_obj_style_gen.h ****     return (lv_opa_t)v.num;
 209:lvgl/src/core/lv_obj_style_gen.h **** }
 210:lvgl/src/core/lv_obj_style_gen.h **** 
 211:lvgl/src/core/lv_obj_style_gen.h **** static inline lv_color_t lv_obj_get_style_bg_img_recolor(const struct _lv_obj_t * obj, uint32_t par
 212:lvgl/src/core/lv_obj_style_gen.h **** {
 213:lvgl/src/core/lv_obj_style_gen.h ****     lv_style_value_t v = lv_obj_get_style_prop(obj, part, LV_STYLE_BG_IMG_RECOLOR);
 214:lvgl/src/core/lv_obj_style_gen.h ****     return v.color;
 215:lvgl/src/core/lv_obj_style_gen.h **** }
 216:lvgl/src/core/lv_obj_style_gen.h **** 
 217:lvgl/src/core/lv_obj_style_gen.h **** static inline lv_color_t lv_obj_get_style_bg_img_recolor_filtered(const struct _lv_obj_t * obj, uin
 218:lvgl/src/core/lv_obj_style_gen.h **** {
ARM GAS  C:\Users\OSD\AppData\Local\Temp\cc7WrW7h.s 			page 7


 219:lvgl/src/core/lv_obj_style_gen.h ****     lv_style_value_t v = _lv_obj_style_apply_color_filter(obj, part, lv_obj_get_style_prop(obj, par
 220:lvgl/src/core/lv_obj_style_gen.h ****     return v.color;
 221:lvgl/src/core/lv_obj_style_gen.h **** }
 222:lvgl/src/core/lv_obj_style_gen.h **** 
 223:lvgl/src/core/lv_obj_style_gen.h **** static inline lv_opa_t lv_obj_get_style_bg_img_recolor_opa(const struct _lv_obj_t * obj, uint32_t p
 224:lvgl/src/core/lv_obj_style_gen.h **** {
 225:lvgl/src/core/lv_obj_style_gen.h ****     lv_style_value_t v = lv_obj_get_style_prop(obj, part, LV_STYLE_BG_IMG_RECOLOR_OPA);
 226:lvgl/src/core/lv_obj_style_gen.h ****     return (lv_opa_t)v.num;
 227:lvgl/src/core/lv_obj_style_gen.h **** }
 228:lvgl/src/core/lv_obj_style_gen.h **** 
 229:lvgl/src/core/lv_obj_style_gen.h **** static inline bool lv_obj_get_style_bg_img_tiled(const struct _lv_obj_t * obj, uint32_t part)
 230:lvgl/src/core/lv_obj_style_gen.h **** {
 231:lvgl/src/core/lv_obj_style_gen.h ****     lv_style_value_t v = lv_obj_get_style_prop(obj, part, LV_STYLE_BG_IMG_TILED);
 232:lvgl/src/core/lv_obj_style_gen.h ****     return (bool)v.num;
 233:lvgl/src/core/lv_obj_style_gen.h **** }
 234:lvgl/src/core/lv_obj_style_gen.h **** 
 235:lvgl/src/core/lv_obj_style_gen.h **** static inline lv_color_t lv_obj_get_style_border_color(const struct _lv_obj_t * obj, uint32_t part)
 236:lvgl/src/core/lv_obj_style_gen.h **** {
 237:lvgl/src/core/lv_obj_style_gen.h ****     lv_style_value_t v = lv_obj_get_style_prop(obj, part, LV_STYLE_BORDER_COLOR);
 238:lvgl/src/core/lv_obj_style_gen.h ****     return v.color;
 239:lvgl/src/core/lv_obj_style_gen.h **** }
 240:lvgl/src/core/lv_obj_style_gen.h **** 
 241:lvgl/src/core/lv_obj_style_gen.h **** static inline lv_color_t lv_obj_get_style_border_color_filtered(const struct _lv_obj_t * obj, uint3
 242:lvgl/src/core/lv_obj_style_gen.h **** {
 243:lvgl/src/core/lv_obj_style_gen.h ****     lv_style_value_t v = _lv_obj_style_apply_color_filter(obj, part, lv_obj_get_style_prop(obj, par
 244:lvgl/src/core/lv_obj_style_gen.h ****     return v.color;
 245:lvgl/src/core/lv_obj_style_gen.h **** }
 246:lvgl/src/core/lv_obj_style_gen.h **** 
 247:lvgl/src/core/lv_obj_style_gen.h **** static inline lv_opa_t lv_obj_get_style_border_opa(const struct _lv_obj_t * obj, uint32_t part)
 248:lvgl/src/core/lv_obj_style_gen.h **** {
 249:lvgl/src/core/lv_obj_style_gen.h ****     lv_style_value_t v = lv_obj_get_style_prop(obj, part, LV_STYLE_BORDER_OPA);
 250:lvgl/src/core/lv_obj_style_gen.h ****     return (lv_opa_t)v.num;
 251:lvgl/src/core/lv_obj_style_gen.h **** }
 252:lvgl/src/core/lv_obj_style_gen.h **** 
 253:lvgl/src/core/lv_obj_style_gen.h **** static inline lv_coord_t lv_obj_get_style_border_width(const struct _lv_obj_t * obj, uint32_t part)
 254:lvgl/src/core/lv_obj_style_gen.h **** {
 255:lvgl/src/core/lv_obj_style_gen.h ****     lv_style_value_t v = lv_obj_get_style_prop(obj, part, LV_STYLE_BORDER_WIDTH);
 256:lvgl/src/core/lv_obj_style_gen.h ****     return (lv_coord_t)v.num;
 257:lvgl/src/core/lv_obj_style_gen.h **** }
 258:lvgl/src/core/lv_obj_style_gen.h **** 
 259:lvgl/src/core/lv_obj_style_gen.h **** static inline lv_border_side_t lv_obj_get_style_border_side(const struct _lv_obj_t * obj, uint32_t 
 260:lvgl/src/core/lv_obj_style_gen.h **** {
 261:lvgl/src/core/lv_obj_style_gen.h ****     lv_style_value_t v = lv_obj_get_style_prop(obj, part, LV_STYLE_BORDER_SIDE);
 262:lvgl/src/core/lv_obj_style_gen.h ****     return (lv_border_side_t)v.num;
 263:lvgl/src/core/lv_obj_style_gen.h **** }
 264:lvgl/src/core/lv_obj_style_gen.h **** 
 265:lvgl/src/core/lv_obj_style_gen.h **** static inline bool lv_obj_get_style_border_post(const struct _lv_obj_t * obj, uint32_t part)
 266:lvgl/src/core/lv_obj_style_gen.h **** {
 267:lvgl/src/core/lv_obj_style_gen.h ****     lv_style_value_t v = lv_obj_get_style_prop(obj, part, LV_STYLE_BORDER_POST);
 268:lvgl/src/core/lv_obj_style_gen.h ****     return (bool)v.num;
 269:lvgl/src/core/lv_obj_style_gen.h **** }
 270:lvgl/src/core/lv_obj_style_gen.h **** 
 271:lvgl/src/core/lv_obj_style_gen.h **** static inline lv_coord_t lv_obj_get_style_outline_width(const struct _lv_obj_t * obj, uint32_t part
 272:lvgl/src/core/lv_obj_style_gen.h **** {
 273:lvgl/src/core/lv_obj_style_gen.h ****     lv_style_value_t v = lv_obj_get_style_prop(obj, part, LV_STYLE_OUTLINE_WIDTH);
 274:lvgl/src/core/lv_obj_style_gen.h ****     return (lv_coord_t)v.num;
 275:lvgl/src/core/lv_obj_style_gen.h **** }
ARM GAS  C:\Users\OSD\AppData\Local\Temp\cc7WrW7h.s 			page 8


 276:lvgl/src/core/lv_obj_style_gen.h **** 
 277:lvgl/src/core/lv_obj_style_gen.h **** static inline lv_color_t lv_obj_get_style_outline_color(const struct _lv_obj_t * obj, uint32_t part
 278:lvgl/src/core/lv_obj_style_gen.h **** {
 279:lvgl/src/core/lv_obj_style_gen.h ****     lv_style_value_t v = lv_obj_get_style_prop(obj, part, LV_STYLE_OUTLINE_COLOR);
 280:lvgl/src/core/lv_obj_style_gen.h ****     return v.color;
 281:lvgl/src/core/lv_obj_style_gen.h **** }
 282:lvgl/src/core/lv_obj_style_gen.h **** 
 283:lvgl/src/core/lv_obj_style_gen.h **** static inline lv_color_t lv_obj_get_style_outline_color_filtered(const struct _lv_obj_t * obj, uint
 284:lvgl/src/core/lv_obj_style_gen.h **** {
 285:lvgl/src/core/lv_obj_style_gen.h ****     lv_style_value_t v = _lv_obj_style_apply_color_filter(obj, part, lv_obj_get_style_prop(obj, par
 286:lvgl/src/core/lv_obj_style_gen.h ****     return v.color;
 287:lvgl/src/core/lv_obj_style_gen.h **** }
 288:lvgl/src/core/lv_obj_style_gen.h **** 
 289:lvgl/src/core/lv_obj_style_gen.h **** static inline lv_opa_t lv_obj_get_style_outline_opa(const struct _lv_obj_t * obj, uint32_t part)
 290:lvgl/src/core/lv_obj_style_gen.h **** {
 291:lvgl/src/core/lv_obj_style_gen.h ****     lv_style_value_t v = lv_obj_get_style_prop(obj, part, LV_STYLE_OUTLINE_OPA);
 292:lvgl/src/core/lv_obj_style_gen.h ****     return (lv_opa_t)v.num;
 293:lvgl/src/core/lv_obj_style_gen.h **** }
 294:lvgl/src/core/lv_obj_style_gen.h **** 
 295:lvgl/src/core/lv_obj_style_gen.h **** static inline lv_coord_t lv_obj_get_style_outline_pad(const struct _lv_obj_t * obj, uint32_t part)
 296:lvgl/src/core/lv_obj_style_gen.h **** {
 297:lvgl/src/core/lv_obj_style_gen.h ****     lv_style_value_t v = lv_obj_get_style_prop(obj, part, LV_STYLE_OUTLINE_PAD);
 298:lvgl/src/core/lv_obj_style_gen.h ****     return (lv_coord_t)v.num;
 299:lvgl/src/core/lv_obj_style_gen.h **** }
 300:lvgl/src/core/lv_obj_style_gen.h **** 
 301:lvgl/src/core/lv_obj_style_gen.h **** static inline lv_coord_t lv_obj_get_style_shadow_width(const struct _lv_obj_t * obj, uint32_t part)
 302:lvgl/src/core/lv_obj_style_gen.h **** {
 303:lvgl/src/core/lv_obj_style_gen.h ****     lv_style_value_t v = lv_obj_get_style_prop(obj, part, LV_STYLE_SHADOW_WIDTH);
 304:lvgl/src/core/lv_obj_style_gen.h ****     return (lv_coord_t)v.num;
 305:lvgl/src/core/lv_obj_style_gen.h **** }
 306:lvgl/src/core/lv_obj_style_gen.h **** 
 307:lvgl/src/core/lv_obj_style_gen.h **** static inline lv_coord_t lv_obj_get_style_shadow_ofs_x(const struct _lv_obj_t * obj, uint32_t part)
 308:lvgl/src/core/lv_obj_style_gen.h **** {
 309:lvgl/src/core/lv_obj_style_gen.h ****     lv_style_value_t v = lv_obj_get_style_prop(obj, part, LV_STYLE_SHADOW_OFS_X);
 310:lvgl/src/core/lv_obj_style_gen.h ****     return (lv_coord_t)v.num;
 311:lvgl/src/core/lv_obj_style_gen.h **** }
 312:lvgl/src/core/lv_obj_style_gen.h **** 
 313:lvgl/src/core/lv_obj_style_gen.h **** static inline lv_coord_t lv_obj_get_style_shadow_ofs_y(const struct _lv_obj_t * obj, uint32_t part)
 314:lvgl/src/core/lv_obj_style_gen.h **** {
 315:lvgl/src/core/lv_obj_style_gen.h ****     lv_style_value_t v = lv_obj_get_style_prop(obj, part, LV_STYLE_SHADOW_OFS_Y);
 316:lvgl/src/core/lv_obj_style_gen.h ****     return (lv_coord_t)v.num;
 317:lvgl/src/core/lv_obj_style_gen.h **** }
 318:lvgl/src/core/lv_obj_style_gen.h **** 
 319:lvgl/src/core/lv_obj_style_gen.h **** static inline lv_coord_t lv_obj_get_style_shadow_spread(const struct _lv_obj_t * obj, uint32_t part
 320:lvgl/src/core/lv_obj_style_gen.h **** {
 321:lvgl/src/core/lv_obj_style_gen.h ****     lv_style_value_t v = lv_obj_get_style_prop(obj, part, LV_STYLE_SHADOW_SPREAD);
 322:lvgl/src/core/lv_obj_style_gen.h ****     return (lv_coord_t)v.num;
 323:lvgl/src/core/lv_obj_style_gen.h **** }
 324:lvgl/src/core/lv_obj_style_gen.h **** 
 325:lvgl/src/core/lv_obj_style_gen.h **** static inline lv_color_t lv_obj_get_style_shadow_color(const struct _lv_obj_t * obj, uint32_t part)
 326:lvgl/src/core/lv_obj_style_gen.h **** {
 327:lvgl/src/core/lv_obj_style_gen.h ****     lv_style_value_t v = lv_obj_get_style_prop(obj, part, LV_STYLE_SHADOW_COLOR);
 328:lvgl/src/core/lv_obj_style_gen.h ****     return v.color;
 329:lvgl/src/core/lv_obj_style_gen.h **** }
 330:lvgl/src/core/lv_obj_style_gen.h **** 
 331:lvgl/src/core/lv_obj_style_gen.h **** static inline lv_color_t lv_obj_get_style_shadow_color_filtered(const struct _lv_obj_t * obj, uint3
 332:lvgl/src/core/lv_obj_style_gen.h **** {
ARM GAS  C:\Users\OSD\AppData\Local\Temp\cc7WrW7h.s 			page 9


 333:lvgl/src/core/lv_obj_style_gen.h ****     lv_style_value_t v = _lv_obj_style_apply_color_filter(obj, part, lv_obj_get_style_prop(obj, par
 334:lvgl/src/core/lv_obj_style_gen.h ****     return v.color;
 335:lvgl/src/core/lv_obj_style_gen.h **** }
 336:lvgl/src/core/lv_obj_style_gen.h **** 
 337:lvgl/src/core/lv_obj_style_gen.h **** static inline lv_opa_t lv_obj_get_style_shadow_opa(const struct _lv_obj_t * obj, uint32_t part)
 338:lvgl/src/core/lv_obj_style_gen.h **** {
 339:lvgl/src/core/lv_obj_style_gen.h ****     lv_style_value_t v = lv_obj_get_style_prop(obj, part, LV_STYLE_SHADOW_OPA);
 340:lvgl/src/core/lv_obj_style_gen.h ****     return (lv_opa_t)v.num;
 341:lvgl/src/core/lv_obj_style_gen.h **** }
 342:lvgl/src/core/lv_obj_style_gen.h **** 
 343:lvgl/src/core/lv_obj_style_gen.h **** static inline lv_opa_t lv_obj_get_style_img_opa(const struct _lv_obj_t * obj, uint32_t part)
 344:lvgl/src/core/lv_obj_style_gen.h **** {
 345:lvgl/src/core/lv_obj_style_gen.h ****     lv_style_value_t v = lv_obj_get_style_prop(obj, part, LV_STYLE_IMG_OPA);
 346:lvgl/src/core/lv_obj_style_gen.h ****     return (lv_opa_t)v.num;
 347:lvgl/src/core/lv_obj_style_gen.h **** }
 348:lvgl/src/core/lv_obj_style_gen.h **** 
 349:lvgl/src/core/lv_obj_style_gen.h **** static inline lv_color_t lv_obj_get_style_img_recolor(const struct _lv_obj_t * obj, uint32_t part)
 350:lvgl/src/core/lv_obj_style_gen.h **** {
 351:lvgl/src/core/lv_obj_style_gen.h ****     lv_style_value_t v = lv_obj_get_style_prop(obj, part, LV_STYLE_IMG_RECOLOR);
 352:lvgl/src/core/lv_obj_style_gen.h ****     return v.color;
 353:lvgl/src/core/lv_obj_style_gen.h **** }
 354:lvgl/src/core/lv_obj_style_gen.h **** 
 355:lvgl/src/core/lv_obj_style_gen.h **** static inline lv_color_t lv_obj_get_style_img_recolor_filtered(const struct _lv_obj_t * obj, uint32
 356:lvgl/src/core/lv_obj_style_gen.h **** {
 357:lvgl/src/core/lv_obj_style_gen.h ****     lv_style_value_t v = _lv_obj_style_apply_color_filter(obj, part, lv_obj_get_style_prop(obj, par
 358:lvgl/src/core/lv_obj_style_gen.h ****     return v.color;
 359:lvgl/src/core/lv_obj_style_gen.h **** }
 360:lvgl/src/core/lv_obj_style_gen.h **** 
 361:lvgl/src/core/lv_obj_style_gen.h **** static inline lv_opa_t lv_obj_get_style_img_recolor_opa(const struct _lv_obj_t * obj, uint32_t part
 362:lvgl/src/core/lv_obj_style_gen.h **** {
 363:lvgl/src/core/lv_obj_style_gen.h ****     lv_style_value_t v = lv_obj_get_style_prop(obj, part, LV_STYLE_IMG_RECOLOR_OPA);
 364:lvgl/src/core/lv_obj_style_gen.h ****     return (lv_opa_t)v.num;
 365:lvgl/src/core/lv_obj_style_gen.h **** }
 366:lvgl/src/core/lv_obj_style_gen.h **** 
 367:lvgl/src/core/lv_obj_style_gen.h **** static inline lv_coord_t lv_obj_get_style_line_width(const struct _lv_obj_t * obj, uint32_t part)
 368:lvgl/src/core/lv_obj_style_gen.h **** {
 369:lvgl/src/core/lv_obj_style_gen.h ****     lv_style_value_t v = lv_obj_get_style_prop(obj, part, LV_STYLE_LINE_WIDTH);
 370:lvgl/src/core/lv_obj_style_gen.h ****     return (lv_coord_t)v.num;
 371:lvgl/src/core/lv_obj_style_gen.h **** }
 372:lvgl/src/core/lv_obj_style_gen.h **** 
 373:lvgl/src/core/lv_obj_style_gen.h **** static inline lv_coord_t lv_obj_get_style_line_dash_width(const struct _lv_obj_t * obj, uint32_t pa
 374:lvgl/src/core/lv_obj_style_gen.h **** {
 375:lvgl/src/core/lv_obj_style_gen.h ****     lv_style_value_t v = lv_obj_get_style_prop(obj, part, LV_STYLE_LINE_DASH_WIDTH);
 376:lvgl/src/core/lv_obj_style_gen.h ****     return (lv_coord_t)v.num;
 377:lvgl/src/core/lv_obj_style_gen.h **** }
 378:lvgl/src/core/lv_obj_style_gen.h **** 
 379:lvgl/src/core/lv_obj_style_gen.h **** static inline lv_coord_t lv_obj_get_style_line_dash_gap(const struct _lv_obj_t * obj, uint32_t part
 380:lvgl/src/core/lv_obj_style_gen.h **** {
 381:lvgl/src/core/lv_obj_style_gen.h ****     lv_style_value_t v = lv_obj_get_style_prop(obj, part, LV_STYLE_LINE_DASH_GAP);
 382:lvgl/src/core/lv_obj_style_gen.h ****     return (lv_coord_t)v.num;
 383:lvgl/src/core/lv_obj_style_gen.h **** }
 384:lvgl/src/core/lv_obj_style_gen.h **** 
 385:lvgl/src/core/lv_obj_style_gen.h **** static inline bool lv_obj_get_style_line_rounded(const struct _lv_obj_t * obj, uint32_t part)
 386:lvgl/src/core/lv_obj_style_gen.h **** {
 387:lvgl/src/core/lv_obj_style_gen.h ****     lv_style_value_t v = lv_obj_get_style_prop(obj, part, LV_STYLE_LINE_ROUNDED);
 388:lvgl/src/core/lv_obj_style_gen.h ****     return (bool)v.num;
 389:lvgl/src/core/lv_obj_style_gen.h **** }
ARM GAS  C:\Users\OSD\AppData\Local\Temp\cc7WrW7h.s 			page 10


 390:lvgl/src/core/lv_obj_style_gen.h **** 
 391:lvgl/src/core/lv_obj_style_gen.h **** static inline lv_color_t lv_obj_get_style_line_color(const struct _lv_obj_t * obj, uint32_t part)
 392:lvgl/src/core/lv_obj_style_gen.h **** {
 393:lvgl/src/core/lv_obj_style_gen.h ****     lv_style_value_t v = lv_obj_get_style_prop(obj, part, LV_STYLE_LINE_COLOR);
 394:lvgl/src/core/lv_obj_style_gen.h ****     return v.color;
 395:lvgl/src/core/lv_obj_style_gen.h **** }
 396:lvgl/src/core/lv_obj_style_gen.h **** 
 397:lvgl/src/core/lv_obj_style_gen.h **** static inline lv_color_t lv_obj_get_style_line_color_filtered(const struct _lv_obj_t * obj, uint32_
 398:lvgl/src/core/lv_obj_style_gen.h **** {
 399:lvgl/src/core/lv_obj_style_gen.h ****     lv_style_value_t v = _lv_obj_style_apply_color_filter(obj, part, lv_obj_get_style_prop(obj, par
 400:lvgl/src/core/lv_obj_style_gen.h ****     return v.color;
 401:lvgl/src/core/lv_obj_style_gen.h **** }
 402:lvgl/src/core/lv_obj_style_gen.h **** 
 403:lvgl/src/core/lv_obj_style_gen.h **** static inline lv_opa_t lv_obj_get_style_line_opa(const struct _lv_obj_t * obj, uint32_t part)
 404:lvgl/src/core/lv_obj_style_gen.h **** {
 405:lvgl/src/core/lv_obj_style_gen.h ****     lv_style_value_t v = lv_obj_get_style_prop(obj, part, LV_STYLE_LINE_OPA);
 406:lvgl/src/core/lv_obj_style_gen.h ****     return (lv_opa_t)v.num;
 407:lvgl/src/core/lv_obj_style_gen.h **** }
 408:lvgl/src/core/lv_obj_style_gen.h **** 
 409:lvgl/src/core/lv_obj_style_gen.h **** static inline lv_coord_t lv_obj_get_style_arc_width(const struct _lv_obj_t * obj, uint32_t part)
 410:lvgl/src/core/lv_obj_style_gen.h **** {
 411:lvgl/src/core/lv_obj_style_gen.h ****     lv_style_value_t v = lv_obj_get_style_prop(obj, part, LV_STYLE_ARC_WIDTH);
 412:lvgl/src/core/lv_obj_style_gen.h ****     return (lv_coord_t)v.num;
 413:lvgl/src/core/lv_obj_style_gen.h **** }
 414:lvgl/src/core/lv_obj_style_gen.h **** 
 415:lvgl/src/core/lv_obj_style_gen.h **** static inline bool lv_obj_get_style_arc_rounded(const struct _lv_obj_t * obj, uint32_t part)
 416:lvgl/src/core/lv_obj_style_gen.h **** {
 417:lvgl/src/core/lv_obj_style_gen.h ****     lv_style_value_t v = lv_obj_get_style_prop(obj, part, LV_STYLE_ARC_ROUNDED);
 418:lvgl/src/core/lv_obj_style_gen.h ****     return (bool)v.num;
 419:lvgl/src/core/lv_obj_style_gen.h **** }
 420:lvgl/src/core/lv_obj_style_gen.h **** 
 421:lvgl/src/core/lv_obj_style_gen.h **** static inline lv_color_t lv_obj_get_style_arc_color(const struct _lv_obj_t * obj, uint32_t part)
 422:lvgl/src/core/lv_obj_style_gen.h **** {
 423:lvgl/src/core/lv_obj_style_gen.h ****     lv_style_value_t v = lv_obj_get_style_prop(obj, part, LV_STYLE_ARC_COLOR);
 424:lvgl/src/core/lv_obj_style_gen.h ****     return v.color;
 425:lvgl/src/core/lv_obj_style_gen.h **** }
 426:lvgl/src/core/lv_obj_style_gen.h **** 
 427:lvgl/src/core/lv_obj_style_gen.h **** static inline lv_color_t lv_obj_get_style_arc_color_filtered(const struct _lv_obj_t * obj, uint32_t
 428:lvgl/src/core/lv_obj_style_gen.h **** {
 429:lvgl/src/core/lv_obj_style_gen.h ****     lv_style_value_t v = _lv_obj_style_apply_color_filter(obj, part, lv_obj_get_style_prop(obj, par
 430:lvgl/src/core/lv_obj_style_gen.h ****     return v.color;
 431:lvgl/src/core/lv_obj_style_gen.h **** }
 432:lvgl/src/core/lv_obj_style_gen.h **** 
 433:lvgl/src/core/lv_obj_style_gen.h **** static inline lv_opa_t lv_obj_get_style_arc_opa(const struct _lv_obj_t * obj, uint32_t part)
 434:lvgl/src/core/lv_obj_style_gen.h **** {
 435:lvgl/src/core/lv_obj_style_gen.h ****     lv_style_value_t v = lv_obj_get_style_prop(obj, part, LV_STYLE_ARC_OPA);
 436:lvgl/src/core/lv_obj_style_gen.h ****     return (lv_opa_t)v.num;
 437:lvgl/src/core/lv_obj_style_gen.h **** }
 438:lvgl/src/core/lv_obj_style_gen.h **** 
 439:lvgl/src/core/lv_obj_style_gen.h **** static inline const void * lv_obj_get_style_arc_img_src(const struct _lv_obj_t * obj, uint32_t part
 440:lvgl/src/core/lv_obj_style_gen.h **** {
 441:lvgl/src/core/lv_obj_style_gen.h ****     lv_style_value_t v = lv_obj_get_style_prop(obj, part, LV_STYLE_ARC_IMG_SRC);
 442:lvgl/src/core/lv_obj_style_gen.h ****     return (const void *)v.ptr;
 443:lvgl/src/core/lv_obj_style_gen.h **** }
 444:lvgl/src/core/lv_obj_style_gen.h **** 
 445:lvgl/src/core/lv_obj_style_gen.h **** static inline lv_color_t lv_obj_get_style_text_color(const struct _lv_obj_t * obj, uint32_t part)
 446:lvgl/src/core/lv_obj_style_gen.h **** {
ARM GAS  C:\Users\OSD\AppData\Local\Temp\cc7WrW7h.s 			page 11


 447:lvgl/src/core/lv_obj_style_gen.h ****     lv_style_value_t v = lv_obj_get_style_prop(obj, part, LV_STYLE_TEXT_COLOR);
 448:lvgl/src/core/lv_obj_style_gen.h ****     return v.color;
 449:lvgl/src/core/lv_obj_style_gen.h **** }
 450:lvgl/src/core/lv_obj_style_gen.h **** 
 451:lvgl/src/core/lv_obj_style_gen.h **** static inline lv_color_t lv_obj_get_style_text_color_filtered(const struct _lv_obj_t * obj, uint32_
 452:lvgl/src/core/lv_obj_style_gen.h **** {
 453:lvgl/src/core/lv_obj_style_gen.h ****     lv_style_value_t v = _lv_obj_style_apply_color_filter(obj, part, lv_obj_get_style_prop(obj, par
 454:lvgl/src/core/lv_obj_style_gen.h ****     return v.color;
 455:lvgl/src/core/lv_obj_style_gen.h **** }
 456:lvgl/src/core/lv_obj_style_gen.h **** 
 457:lvgl/src/core/lv_obj_style_gen.h **** static inline lv_opa_t lv_obj_get_style_text_opa(const struct _lv_obj_t * obj, uint32_t part)
 458:lvgl/src/core/lv_obj_style_gen.h **** {
 459:lvgl/src/core/lv_obj_style_gen.h ****     lv_style_value_t v = lv_obj_get_style_prop(obj, part, LV_STYLE_TEXT_OPA);
 460:lvgl/src/core/lv_obj_style_gen.h ****     return (lv_opa_t)v.num;
 461:lvgl/src/core/lv_obj_style_gen.h **** }
 462:lvgl/src/core/lv_obj_style_gen.h **** 
 463:lvgl/src/core/lv_obj_style_gen.h **** static inline const lv_font_t * lv_obj_get_style_text_font(const struct _lv_obj_t * obj, uint32_t p
 464:lvgl/src/core/lv_obj_style_gen.h **** {
 465:lvgl/src/core/lv_obj_style_gen.h ****     lv_style_value_t v = lv_obj_get_style_prop(obj, part, LV_STYLE_TEXT_FONT);
 466:lvgl/src/core/lv_obj_style_gen.h ****     return (const lv_font_t *)v.ptr;
 467:lvgl/src/core/lv_obj_style_gen.h **** }
 468:lvgl/src/core/lv_obj_style_gen.h **** 
 469:lvgl/src/core/lv_obj_style_gen.h **** static inline lv_coord_t lv_obj_get_style_text_letter_space(const struct _lv_obj_t * obj, uint32_t 
 470:lvgl/src/core/lv_obj_style_gen.h **** {
 471:lvgl/src/core/lv_obj_style_gen.h ****     lv_style_value_t v = lv_obj_get_style_prop(obj, part, LV_STYLE_TEXT_LETTER_SPACE);
 472:lvgl/src/core/lv_obj_style_gen.h ****     return (lv_coord_t)v.num;
 473:lvgl/src/core/lv_obj_style_gen.h **** }
 474:lvgl/src/core/lv_obj_style_gen.h **** 
 475:lvgl/src/core/lv_obj_style_gen.h **** static inline lv_coord_t lv_obj_get_style_text_line_space(const struct _lv_obj_t * obj, uint32_t pa
 476:lvgl/src/core/lv_obj_style_gen.h **** {
 477:lvgl/src/core/lv_obj_style_gen.h ****     lv_style_value_t v = lv_obj_get_style_prop(obj, part, LV_STYLE_TEXT_LINE_SPACE);
 478:lvgl/src/core/lv_obj_style_gen.h ****     return (lv_coord_t)v.num;
 479:lvgl/src/core/lv_obj_style_gen.h **** }
 480:lvgl/src/core/lv_obj_style_gen.h **** 
 481:lvgl/src/core/lv_obj_style_gen.h **** static inline lv_text_decor_t lv_obj_get_style_text_decor(const struct _lv_obj_t * obj, uint32_t pa
 482:lvgl/src/core/lv_obj_style_gen.h **** {
 483:lvgl/src/core/lv_obj_style_gen.h ****     lv_style_value_t v = lv_obj_get_style_prop(obj, part, LV_STYLE_TEXT_DECOR);
 484:lvgl/src/core/lv_obj_style_gen.h ****     return (lv_text_decor_t)v.num;
 485:lvgl/src/core/lv_obj_style_gen.h **** }
 486:lvgl/src/core/lv_obj_style_gen.h **** 
 487:lvgl/src/core/lv_obj_style_gen.h **** static inline lv_text_align_t lv_obj_get_style_text_align(const struct _lv_obj_t * obj, uint32_t pa
 488:lvgl/src/core/lv_obj_style_gen.h **** {
 489:lvgl/src/core/lv_obj_style_gen.h ****     lv_style_value_t v = lv_obj_get_style_prop(obj, part, LV_STYLE_TEXT_ALIGN);
 490:lvgl/src/core/lv_obj_style_gen.h ****     return (lv_text_align_t)v.num;
 491:lvgl/src/core/lv_obj_style_gen.h **** }
 492:lvgl/src/core/lv_obj_style_gen.h **** 
 493:lvgl/src/core/lv_obj_style_gen.h **** static inline lv_coord_t lv_obj_get_style_radius(const struct _lv_obj_t * obj, uint32_t part)
  70              		.loc 2 493 26 view .LVU12
  71              	.LBB187:
 494:lvgl/src/core/lv_obj_style_gen.h **** {
 495:lvgl/src/core/lv_obj_style_gen.h ****     lv_style_value_t v = lv_obj_get_style_prop(obj, part, LV_STYLE_RADIUS);
  72              		.loc 2 495 5 view .LVU13
  73              		.loc 2 495 26 is_stmt 0 view .LVU14
  74 0018 0B22     		movs	r2, #11
  75 001a 2946     		mov	r1, r5
  76 001c 3046     		mov	r0, r6
  77 001e FFF7FEFF 		bl	lv_obj_get_style_prop
ARM GAS  C:\Users\OSD\AppData\Local\Temp\cc7WrW7h.s 			page 12


  78              	.LVL4:
 496:lvgl/src/core/lv_obj_style_gen.h ****     return (lv_coord_t)v.num;
  79              		.loc 2 496 5 is_stmt 1 view .LVU15
  80              		.loc 2 496 5 is_stmt 0 view .LVU16
  81              	.LBE187:
  82              	.LBE186:
  83              		.loc 1 56 22 view .LVU17
  84 0022 2080     		strh	r0, [r4]	@ movhi
  57:lvgl/src/core/lv_obj_draw.c **** 
  58:lvgl/src/core/lv_obj_draw.c ****     if(draw_dsc->bg_opa != LV_OPA_TRANSP) {
  85              		.loc 1 58 5 is_stmt 1 view .LVU18
  86              		.loc 1 58 16 is_stmt 0 view .LVU19
  87 0024 E378     		ldrb	r3, [r4, #3]	@ zero_extendqisi2
  88              		.loc 1 58 7 view .LVU20
  89 0026 002B     		cmp	r3, #0
  90 0028 59D1     		bne	.L16
  91              	.L5:
  59:lvgl/src/core/lv_obj_draw.c ****         draw_dsc->bg_opa = lv_obj_get_style_bg_opa(obj, part);
  60:lvgl/src/core/lv_obj_draw.c ****         if(draw_dsc->bg_opa > LV_OPA_MIN) {
  61:lvgl/src/core/lv_obj_draw.c ****             draw_dsc->bg_color = lv_obj_get_style_bg_color_filtered(obj, part);
  62:lvgl/src/core/lv_obj_draw.c ****             const lv_grad_dsc_t * grad = lv_obj_get_style_bg_grad(obj, part);
  63:lvgl/src/core/lv_obj_draw.c ****             if(grad && grad->dir != LV_GRAD_DIR_NONE) {
  64:lvgl/src/core/lv_obj_draw.c ****                 lv_memcpy(&draw_dsc->bg_grad, grad, sizeof(*grad));
  65:lvgl/src/core/lv_obj_draw.c ****             }
  66:lvgl/src/core/lv_obj_draw.c ****             else {
  67:lvgl/src/core/lv_obj_draw.c ****                 draw_dsc->bg_grad.dir = lv_obj_get_style_bg_grad_dir(obj, part);
  68:lvgl/src/core/lv_obj_draw.c ****                 if(draw_dsc->bg_grad.dir != LV_GRAD_DIR_NONE) {
  69:lvgl/src/core/lv_obj_draw.c ****                     draw_dsc->bg_grad.stops[0].color = lv_obj_get_style_bg_color_filtered(obj, part
  70:lvgl/src/core/lv_obj_draw.c ****                     draw_dsc->bg_grad.stops[1].color = lv_obj_get_style_bg_grad_color_filtered(obj,
  71:lvgl/src/core/lv_obj_draw.c ****                     draw_dsc->bg_grad.stops[0].frac = lv_obj_get_style_bg_main_stop(obj, part);
  72:lvgl/src/core/lv_obj_draw.c ****                     draw_dsc->bg_grad.stops[1].frac = lv_obj_get_style_bg_grad_stop(obj, part);
  73:lvgl/src/core/lv_obj_draw.c ****                 }
  74:lvgl/src/core/lv_obj_draw.c ****                 draw_dsc->bg_grad.dither = lv_obj_get_style_bg_dither_mode(obj, part);
  75:lvgl/src/core/lv_obj_draw.c ****             }
  76:lvgl/src/core/lv_obj_draw.c ****         }
  77:lvgl/src/core/lv_obj_draw.c ****     }
  78:lvgl/src/core/lv_obj_draw.c **** 
  79:lvgl/src/core/lv_obj_draw.c ****     draw_dsc->border_width = lv_obj_get_style_border_width(obj, part);
  92              		.loc 1 79 5 is_stmt 1 view .LVU21
  93              	.LVL5:
  94              	.LBB188:
  95              	.LBI188:
 253:lvgl/src/core/lv_obj_style_gen.h **** {
  96              		.loc 2 253 26 view .LVU22
  97              	.LBB189:
 255:lvgl/src/core/lv_obj_style_gen.h ****     return (lv_coord_t)v.num;
  98              		.loc 2 255 5 view .LVU23
 255:lvgl/src/core/lv_obj_style_gen.h ****     return (lv_coord_t)v.num;
  99              		.loc 2 255 26 is_stmt 0 view .LVU24
 100 002a 3222     		movs	r2, #50
 101 002c 2946     		mov	r1, r5
 102 002e 3046     		mov	r0, r6
 103 0030 FFF7FEFF 		bl	lv_obj_get_style_prop
 104              	.LVL6:
 256:lvgl/src/core/lv_obj_style_gen.h **** }
 105              		.loc 2 256 5 is_stmt 1 view .LVU25
 256:lvgl/src/core/lv_obj_style_gen.h **** }
ARM GAS  C:\Users\OSD\AppData\Local\Temp\cc7WrW7h.s 			page 13


 106              		.loc 2 256 12 is_stmt 0 view .LVU26
 107 0034 00B2     		sxth	r0, r0
 108              	.LVL7:
 256:lvgl/src/core/lv_obj_style_gen.h **** }
 109              		.loc 2 256 12 view .LVU27
 110              	.LBE189:
 111              	.LBE188:
 112              		.loc 1 79 28 view .LVU28
 113 0036 2086     		strh	r0, [r4, #48]	@ movhi
  80:lvgl/src/core/lv_obj_draw.c ****     if(draw_dsc->border_width) {
 114              		.loc 1 80 5 is_stmt 1 view .LVU29
 115              		.loc 1 80 7 is_stmt 0 view .LVU30
 116 0038 20B1     		cbz	r0, .L8
  81:lvgl/src/core/lv_obj_draw.c ****         if(draw_dsc->border_opa != LV_OPA_TRANSP) {
 117              		.loc 1 81 9 is_stmt 1 view .LVU31
 118              		.loc 1 81 20 is_stmt 0 view .LVU32
 119 003a 94F83230 		ldrb	r3, [r4, #50]	@ zero_extendqisi2
 120              		.loc 1 81 11 view .LVU33
 121 003e 002B     		cmp	r3, #0
 122 0040 40F0AC80 		bne	.L17
 123              	.L8:
  82:lvgl/src/core/lv_obj_draw.c ****             draw_dsc->border_opa = lv_obj_get_style_border_opa(obj, part);
  83:lvgl/src/core/lv_obj_draw.c ****             if(draw_dsc->border_opa > LV_OPA_MIN) {
  84:lvgl/src/core/lv_obj_draw.c ****                 draw_dsc->border_side = lv_obj_get_style_border_side(obj, part);
  85:lvgl/src/core/lv_obj_draw.c ****                 draw_dsc->border_color = lv_obj_get_style_border_color_filtered(obj, part);
  86:lvgl/src/core/lv_obj_draw.c ****             }
  87:lvgl/src/core/lv_obj_draw.c ****         }
  88:lvgl/src/core/lv_obj_draw.c ****     }
  89:lvgl/src/core/lv_obj_draw.c **** 
  90:lvgl/src/core/lv_obj_draw.c ****     draw_dsc->outline_width = lv_obj_get_style_outline_width(obj, part);
 124              		.loc 1 90 5 is_stmt 1 view .LVU34
 125              	.LVL8:
 126              	.LBB190:
 127              	.LBI190:
 271:lvgl/src/core/lv_obj_style_gen.h **** {
 128              		.loc 2 271 26 view .LVU35
 129              	.LBB191:
 273:lvgl/src/core/lv_obj_style_gen.h ****     return (lv_coord_t)v.num;
 130              		.loc 2 273 5 view .LVU36
 273:lvgl/src/core/lv_obj_style_gen.h ****     return (lv_coord_t)v.num;
 131              		.loc 2 273 26 is_stmt 0 view .LVU37
 132 0044 3522     		movs	r2, #53
 133 0046 2946     		mov	r1, r5
 134 0048 3046     		mov	r0, r6
 135 004a FFF7FEFF 		bl	lv_obj_get_style_prop
 136              	.LVL9:
 274:lvgl/src/core/lv_obj_style_gen.h **** }
 137              		.loc 2 274 5 is_stmt 1 view .LVU38
 274:lvgl/src/core/lv_obj_style_gen.h **** }
 138              		.loc 2 274 12 is_stmt 0 view .LVU39
 139 004e 00B2     		sxth	r0, r0
 140              	.LVL10:
 274:lvgl/src/core/lv_obj_style_gen.h **** }
 141              		.loc 2 274 12 view .LVU40
 142              	.LBE191:
 143              	.LBE190:
 144              		.loc 1 90 29 view .LVU41
ARM GAS  C:\Users\OSD\AppData\Local\Temp\cc7WrW7h.s 			page 14


 145 0050 2087     		strh	r0, [r4, #56]	@ movhi
  91:lvgl/src/core/lv_obj_draw.c ****     if(draw_dsc->outline_width) {
 146              		.loc 1 91 5 is_stmt 1 view .LVU42
 147              		.loc 1 91 7 is_stmt 0 view .LVU43
 148 0052 20B1     		cbz	r0, .L9
  92:lvgl/src/core/lv_obj_draw.c ****         if(draw_dsc->outline_opa != LV_OPA_TRANSP) {
 149              		.loc 1 92 9 is_stmt 1 view .LVU44
 150              		.loc 1 92 20 is_stmt 0 view .LVU45
 151 0054 94F83C30 		ldrb	r3, [r4, #60]	@ zero_extendqisi2
 152              		.loc 1 92 11 view .LVU46
 153 0058 002B     		cmp	r3, #0
 154 005a 40F0C180 		bne	.L18
 155              	.L9:
  93:lvgl/src/core/lv_obj_draw.c ****             draw_dsc->outline_opa = lv_obj_get_style_outline_opa(obj, part);
  94:lvgl/src/core/lv_obj_draw.c ****             if(draw_dsc->outline_opa > LV_OPA_MIN) {
  95:lvgl/src/core/lv_obj_draw.c ****                 draw_dsc->outline_pad = lv_obj_get_style_outline_pad(obj, part);
  96:lvgl/src/core/lv_obj_draw.c ****                 draw_dsc->outline_color = lv_obj_get_style_outline_color_filtered(obj, part);
  97:lvgl/src/core/lv_obj_draw.c ****             }
  98:lvgl/src/core/lv_obj_draw.c ****         }
  99:lvgl/src/core/lv_obj_draw.c ****     }
 100:lvgl/src/core/lv_obj_draw.c **** 
 101:lvgl/src/core/lv_obj_draw.c ****     if(draw_dsc->bg_img_opa != LV_OPA_TRANSP) {
 156              		.loc 1 101 5 is_stmt 1 view .LVU47
 157              		.loc 1 101 16 is_stmt 0 view .LVU48
 158 005e 94F82830 		ldrb	r3, [r4, #40]	@ zero_extendqisi2
 159              		.loc 1 101 7 view .LVU49
 160 0062 002B     		cmp	r3, #0
 161 0064 40F0D980 		bne	.L19
 162              	.LVL11:
 163              	.L10:
 102:lvgl/src/core/lv_obj_draw.c ****         draw_dsc->bg_img_src = lv_obj_get_style_bg_img_src(obj, part);
 103:lvgl/src/core/lv_obj_draw.c ****         if(draw_dsc->bg_img_src) {
 104:lvgl/src/core/lv_obj_draw.c ****             draw_dsc->bg_img_opa = lv_obj_get_style_bg_img_opa(obj, part);
 105:lvgl/src/core/lv_obj_draw.c ****             if(draw_dsc->bg_img_opa > LV_OPA_MIN) {
 106:lvgl/src/core/lv_obj_draw.c ****                 if(lv_img_src_get_type(draw_dsc->bg_img_src) == LV_IMG_SRC_SYMBOL) {
 107:lvgl/src/core/lv_obj_draw.c ****                     draw_dsc->bg_img_symbol_font = lv_obj_get_style_text_font(obj, part);
 108:lvgl/src/core/lv_obj_draw.c ****                     draw_dsc->bg_img_recolor = lv_obj_get_style_text_color_filtered(obj, part);
 109:lvgl/src/core/lv_obj_draw.c ****                 }
 110:lvgl/src/core/lv_obj_draw.c ****                 else {
 111:lvgl/src/core/lv_obj_draw.c ****                     draw_dsc->bg_img_recolor = lv_obj_get_style_bg_img_recolor_filtered(obj, part);
 112:lvgl/src/core/lv_obj_draw.c ****                     draw_dsc->bg_img_recolor_opa = lv_obj_get_style_bg_img_recolor_opa(obj, part);
 113:lvgl/src/core/lv_obj_draw.c ****                     draw_dsc->bg_img_tiled = lv_obj_get_style_bg_img_tiled(obj, part);
 114:lvgl/src/core/lv_obj_draw.c ****                 }
 115:lvgl/src/core/lv_obj_draw.c ****             }
 116:lvgl/src/core/lv_obj_draw.c ****         }
 117:lvgl/src/core/lv_obj_draw.c ****     }
 118:lvgl/src/core/lv_obj_draw.c **** 
 119:lvgl/src/core/lv_obj_draw.c ****     if(draw_dsc->shadow_opa) {
 164              		.loc 1 119 5 is_stmt 1 view .LVU50
 165              		.loc 1 119 16 is_stmt 0 view .LVU51
 166 0068 94F84C30 		ldrb	r3, [r4, #76]	@ zero_extendqisi2
 167              		.loc 1 119 7 view .LVU52
 168 006c 002B     		cmp	r3, #0
 169 006e 40F01C81 		bne	.L20
 170              	.L12:
 120:lvgl/src/core/lv_obj_draw.c ****         draw_dsc->shadow_width = lv_obj_get_style_shadow_width(obj, part);
 121:lvgl/src/core/lv_obj_draw.c ****         if(draw_dsc->shadow_width) {
ARM GAS  C:\Users\OSD\AppData\Local\Temp\cc7WrW7h.s 			page 15


 122:lvgl/src/core/lv_obj_draw.c ****             if(draw_dsc->shadow_opa > LV_OPA_MIN) {
 123:lvgl/src/core/lv_obj_draw.c ****                 draw_dsc->shadow_opa = lv_obj_get_style_shadow_opa(obj, part);
 124:lvgl/src/core/lv_obj_draw.c ****                 if(draw_dsc->shadow_opa > LV_OPA_MIN) {
 125:lvgl/src/core/lv_obj_draw.c ****                     draw_dsc->shadow_ofs_x = lv_obj_get_style_shadow_ofs_x(obj, part);
 126:lvgl/src/core/lv_obj_draw.c ****                     draw_dsc->shadow_ofs_y = lv_obj_get_style_shadow_ofs_y(obj, part);
 127:lvgl/src/core/lv_obj_draw.c ****                     draw_dsc->shadow_spread = lv_obj_get_style_shadow_spread(obj, part);
 128:lvgl/src/core/lv_obj_draw.c ****                     draw_dsc->shadow_color = lv_obj_get_style_shadow_color_filtered(obj, part);
 129:lvgl/src/core/lv_obj_draw.c ****                 }
 130:lvgl/src/core/lv_obj_draw.c ****             }
 131:lvgl/src/core/lv_obj_draw.c ****         }
 132:lvgl/src/core/lv_obj_draw.c ****     }
 133:lvgl/src/core/lv_obj_draw.c **** 
 134:lvgl/src/core/lv_obj_draw.c **** #else /*LV_DRAW_COMPLEX*/
 135:lvgl/src/core/lv_obj_draw.c ****     if(draw_dsc->bg_opa != LV_OPA_TRANSP) {
 136:lvgl/src/core/lv_obj_draw.c ****         draw_dsc->bg_opa = lv_obj_get_style_bg_opa(obj, part);
 137:lvgl/src/core/lv_obj_draw.c ****         if(draw_dsc->bg_opa > LV_OPA_MIN) {
 138:lvgl/src/core/lv_obj_draw.c ****             draw_dsc->bg_color = lv_obj_get_style_bg_color_filtered(obj, part);
 139:lvgl/src/core/lv_obj_draw.c ****         }
 140:lvgl/src/core/lv_obj_draw.c ****     }
 141:lvgl/src/core/lv_obj_draw.c **** 
 142:lvgl/src/core/lv_obj_draw.c ****     draw_dsc->border_width = lv_obj_get_style_border_width(obj, part);
 143:lvgl/src/core/lv_obj_draw.c ****     if(draw_dsc->border_width) {
 144:lvgl/src/core/lv_obj_draw.c ****         if(draw_dsc->border_opa != LV_OPA_TRANSP) {
 145:lvgl/src/core/lv_obj_draw.c ****             draw_dsc->border_opa = lv_obj_get_style_border_opa(obj, part);
 146:lvgl/src/core/lv_obj_draw.c ****             if(draw_dsc->border_opa > LV_OPA_MIN) {
 147:lvgl/src/core/lv_obj_draw.c ****                 draw_dsc->border_color = lv_obj_get_style_border_color_filtered(obj, part);
 148:lvgl/src/core/lv_obj_draw.c ****                 draw_dsc->border_side = lv_obj_get_style_border_side(obj, part);
 149:lvgl/src/core/lv_obj_draw.c ****             }
 150:lvgl/src/core/lv_obj_draw.c ****         }
 151:lvgl/src/core/lv_obj_draw.c ****     }
 152:lvgl/src/core/lv_obj_draw.c **** 
 153:lvgl/src/core/lv_obj_draw.c ****     draw_dsc->outline_width = lv_obj_get_style_outline_width(obj, part);
 154:lvgl/src/core/lv_obj_draw.c ****     if(draw_dsc->outline_width) {
 155:lvgl/src/core/lv_obj_draw.c ****         if(draw_dsc->outline_opa != LV_OPA_TRANSP) {
 156:lvgl/src/core/lv_obj_draw.c ****             draw_dsc->outline_opa = lv_obj_get_style_outline_opa(obj, part);
 157:lvgl/src/core/lv_obj_draw.c ****             if(draw_dsc->outline_opa > LV_OPA_MIN) {
 158:lvgl/src/core/lv_obj_draw.c ****                 draw_dsc->outline_pad = lv_obj_get_style_outline_pad(obj, part);
 159:lvgl/src/core/lv_obj_draw.c ****                 draw_dsc->outline_color = lv_obj_get_style_outline_color_filtered(obj, part);
 160:lvgl/src/core/lv_obj_draw.c ****             }
 161:lvgl/src/core/lv_obj_draw.c ****         }
 162:lvgl/src/core/lv_obj_draw.c ****     }
 163:lvgl/src/core/lv_obj_draw.c **** 
 164:lvgl/src/core/lv_obj_draw.c ****     if(draw_dsc->bg_img_opa != LV_OPA_TRANSP) {
 165:lvgl/src/core/lv_obj_draw.c ****         draw_dsc->bg_img_src = lv_obj_get_style_bg_img_src(obj, part);
 166:lvgl/src/core/lv_obj_draw.c ****         if(draw_dsc->bg_img_src) {
 167:lvgl/src/core/lv_obj_draw.c ****             draw_dsc->bg_img_opa = lv_obj_get_style_bg_img_opa(obj, part);
 168:lvgl/src/core/lv_obj_draw.c ****             if(draw_dsc->bg_img_opa > LV_OPA_MIN) {
 169:lvgl/src/core/lv_obj_draw.c ****                 if(lv_img_src_get_type(draw_dsc->bg_img_src) == LV_IMG_SRC_SYMBOL) {
 170:lvgl/src/core/lv_obj_draw.c ****                     draw_dsc->bg_img_symbol_font = lv_obj_get_style_text_font(obj, part);
 171:lvgl/src/core/lv_obj_draw.c ****                     draw_dsc->bg_img_recolor = lv_obj_get_style_text_color_filtered(obj, part);
 172:lvgl/src/core/lv_obj_draw.c ****                 }
 173:lvgl/src/core/lv_obj_draw.c ****                 else {
 174:lvgl/src/core/lv_obj_draw.c ****                     draw_dsc->bg_img_recolor = lv_obj_get_style_bg_img_recolor_filtered(obj, part);
 175:lvgl/src/core/lv_obj_draw.c ****                     draw_dsc->bg_img_recolor_opa = lv_obj_get_style_bg_img_recolor_opa(obj, part);
 176:lvgl/src/core/lv_obj_draw.c ****                     draw_dsc->bg_img_tiled = lv_obj_get_style_bg_img_tiled(obj, part);
 177:lvgl/src/core/lv_obj_draw.c ****                 }
 178:lvgl/src/core/lv_obj_draw.c ****             }
ARM GAS  C:\Users\OSD\AppData\Local\Temp\cc7WrW7h.s 			page 16


 179:lvgl/src/core/lv_obj_draw.c ****         }
 180:lvgl/src/core/lv_obj_draw.c ****     }
 181:lvgl/src/core/lv_obj_draw.c **** #endif
 182:lvgl/src/core/lv_obj_draw.c ****     if(opa < LV_OPA_MAX) {
 171              		.loc 1 182 5 is_stmt 1 view .LVU53
 172              		.loc 1 182 7 is_stmt 0 view .LVU54
 173 0072 FC2F     		cmp	r7, #252
 174 0074 20D8     		bhi	.L1
 183:lvgl/src/core/lv_obj_draw.c ****         draw_dsc->bg_opa = (opa * draw_dsc->bg_opa) >> 8;
 175              		.loc 1 183 9 is_stmt 1 view .LVU55
 176              		.loc 1 183 43 is_stmt 0 view .LVU56
 177 0076 E378     		ldrb	r3, [r4, #3]	@ zero_extendqisi2
 178              		.loc 1 183 33 view .LVU57
 179 0078 07FB03F3 		mul	r3, r7, r3
 180              		.loc 1 183 53 view .LVU58
 181 007c 1B12     		asrs	r3, r3, #8
 182              		.loc 1 183 26 view .LVU59
 183 007e E370     		strb	r3, [r4, #3]
 184:lvgl/src/core/lv_obj_draw.c ****         draw_dsc->bg_img_opa = (opa * draw_dsc->bg_img_opa) >> 8;
 184              		.loc 1 184 9 is_stmt 1 view .LVU60
 185              		.loc 1 184 47 is_stmt 0 view .LVU61
 186 0080 94F82830 		ldrb	r3, [r4, #40]	@ zero_extendqisi2
 187              		.loc 1 184 37 view .LVU62
 188 0084 07FB03F3 		mul	r3, r7, r3
 189              		.loc 1 184 61 view .LVU63
 190 0088 1B12     		asrs	r3, r3, #8
 191              		.loc 1 184 30 view .LVU64
 192 008a 84F82830 		strb	r3, [r4, #40]
 185:lvgl/src/core/lv_obj_draw.c ****         draw_dsc->border_opa = (opa * draw_dsc->border_opa) >> 8;
 193              		.loc 1 185 9 is_stmt 1 view .LVU65
 194              		.loc 1 185 47 is_stmt 0 view .LVU66
 195 008e 94F83230 		ldrb	r3, [r4, #50]	@ zero_extendqisi2
 196              		.loc 1 185 37 view .LVU67
 197 0092 07FB03F3 		mul	r3, r7, r3
 198              		.loc 1 185 61 view .LVU68
 199 0096 1B12     		asrs	r3, r3, #8
 200              		.loc 1 185 30 view .LVU69
 201 0098 84F83230 		strb	r3, [r4, #50]
 186:lvgl/src/core/lv_obj_draw.c ****         draw_dsc->outline_opa = (opa * draw_dsc->outline_opa) >> 8;
 202              		.loc 1 186 9 is_stmt 1 view .LVU70
 203              		.loc 1 186 48 is_stmt 0 view .LVU71
 204 009c 94F83C30 		ldrb	r3, [r4, #60]	@ zero_extendqisi2
 205              		.loc 1 186 38 view .LVU72
 206 00a0 07FB03F3 		mul	r3, r7, r3
 207              		.loc 1 186 63 view .LVU73
 208 00a4 1B12     		asrs	r3, r3, #8
 209              		.loc 1 186 31 view .LVU74
 210 00a6 84F83C30 		strb	r3, [r4, #60]
 187:lvgl/src/core/lv_obj_draw.c ****         draw_dsc->shadow_opa = (opa * draw_dsc->shadow_opa) >> 8;
 211              		.loc 1 187 9 is_stmt 1 view .LVU75
 212              		.loc 1 187 47 is_stmt 0 view .LVU76
 213 00aa 94F84C00 		ldrb	r0, [r4, #76]	@ zero_extendqisi2
 214              	.LVL12:
 215              		.loc 1 187 37 view .LVU77
 216 00ae 00FB07F7 		mul	r7, r0, r7
 217              		.loc 1 187 61 view .LVU78
 218 00b2 3F12     		asrs	r7, r7, #8
ARM GAS  C:\Users\OSD\AppData\Local\Temp\cc7WrW7h.s 			page 17


 219              		.loc 1 187 30 view .LVU79
 220 00b4 84F84C70 		strb	r7, [r4, #76]
 221              	.LVL13:
 222              	.L1:
 188:lvgl/src/core/lv_obj_draw.c ****     }
 189:lvgl/src/core/lv_obj_draw.c **** }
 223              		.loc 1 189 1 view .LVU80
 224 00b8 F8BD     		pop	{r3, r4, r5, r6, r7, pc}
 225              	.LVL14:
 226              	.L14:
  44:lvgl/src/core/lv_obj_draw.c ****             draw_dsc->bg_img_opa = LV_OPA_TRANSP;
 227              		.loc 1 44 13 is_stmt 1 view .LVU81
  44:lvgl/src/core/lv_obj_draw.c ****             draw_dsc->bg_img_opa = LV_OPA_TRANSP;
 228              		.loc 1 44 30 is_stmt 0 view .LVU82
 229 00ba 0023     		movs	r3, #0
 230 00bc E370     		strb	r3, [r4, #3]
  45:lvgl/src/core/lv_obj_draw.c ****             draw_dsc->border_opa = LV_OPA_TRANSP;
 231              		.loc 1 45 13 is_stmt 1 view .LVU83
  45:lvgl/src/core/lv_obj_draw.c ****             draw_dsc->border_opa = LV_OPA_TRANSP;
 232              		.loc 1 45 34 is_stmt 0 view .LVU84
 233 00be 84F82830 		strb	r3, [r4, #40]
  46:lvgl/src/core/lv_obj_draw.c ****             draw_dsc->outline_opa = LV_OPA_TRANSP;
 234              		.loc 1 46 13 is_stmt 1 view .LVU85
  46:lvgl/src/core/lv_obj_draw.c ****             draw_dsc->outline_opa = LV_OPA_TRANSP;
 235              		.loc 1 46 34 is_stmt 0 view .LVU86
 236 00c2 84F83230 		strb	r3, [r4, #50]
  47:lvgl/src/core/lv_obj_draw.c ****             draw_dsc->shadow_opa = LV_OPA_TRANSP;
 237              		.loc 1 47 13 is_stmt 1 view .LVU87
  47:lvgl/src/core/lv_obj_draw.c ****             draw_dsc->shadow_opa = LV_OPA_TRANSP;
 238              		.loc 1 47 35 is_stmt 0 view .LVU88
 239 00c6 84F83C30 		strb	r3, [r4, #60]
  48:lvgl/src/core/lv_obj_draw.c ****             return;
 240              		.loc 1 48 13 is_stmt 1 view .LVU89
  48:lvgl/src/core/lv_obj_draw.c ****             return;
 241              		.loc 1 48 34 is_stmt 0 view .LVU90
 242 00ca 84F84C30 		strb	r3, [r4, #76]
  49:lvgl/src/core/lv_obj_draw.c ****         }
 243              		.loc 1 49 13 is_stmt 1 view .LVU91
 244 00ce F3E7     		b	.L1
 245              	.L15:
  54:lvgl/src/core/lv_obj_draw.c **** 
 246              		.loc 1 54 30 view .LVU92
 247              	.LVL15:
 248              	.LBB192:
 249              	.LBI192:
 497:lvgl/src/core/lv_obj_style_gen.h **** }
 498:lvgl/src/core/lv_obj_style_gen.h **** 
 499:lvgl/src/core/lv_obj_style_gen.h **** static inline bool lv_obj_get_style_clip_corner(const struct _lv_obj_t * obj, uint32_t part)
 500:lvgl/src/core/lv_obj_style_gen.h **** {
 501:lvgl/src/core/lv_obj_style_gen.h ****     lv_style_value_t v = lv_obj_get_style_prop(obj, part, LV_STYLE_CLIP_CORNER);
 502:lvgl/src/core/lv_obj_style_gen.h ****     return (bool)v.num;
 503:lvgl/src/core/lv_obj_style_gen.h **** }
 504:lvgl/src/core/lv_obj_style_gen.h **** 
 505:lvgl/src/core/lv_obj_style_gen.h **** static inline lv_opa_t lv_obj_get_style_opa(const struct _lv_obj_t * obj, uint32_t part)
 506:lvgl/src/core/lv_obj_style_gen.h **** {
 507:lvgl/src/core/lv_obj_style_gen.h ****     lv_style_value_t v = lv_obj_get_style_prop(obj, part, LV_STYLE_OPA);
 508:lvgl/src/core/lv_obj_style_gen.h ****     return (lv_opa_t)v.num;
ARM GAS  C:\Users\OSD\AppData\Local\Temp\cc7WrW7h.s 			page 18


 509:lvgl/src/core/lv_obj_style_gen.h **** }
 510:lvgl/src/core/lv_obj_style_gen.h **** 
 511:lvgl/src/core/lv_obj_style_gen.h **** static inline lv_opa_t lv_obj_get_style_opa_layered(const struct _lv_obj_t * obj, uint32_t part)
 512:lvgl/src/core/lv_obj_style_gen.h **** {
 513:lvgl/src/core/lv_obj_style_gen.h ****     lv_style_value_t v = lv_obj_get_style_prop(obj, part, LV_STYLE_OPA_LAYERED);
 514:lvgl/src/core/lv_obj_style_gen.h ****     return (lv_opa_t)v.num;
 515:lvgl/src/core/lv_obj_style_gen.h **** }
 516:lvgl/src/core/lv_obj_style_gen.h **** 
 517:lvgl/src/core/lv_obj_style_gen.h **** static inline const lv_color_filter_dsc_t * lv_obj_get_style_color_filter_dsc(const struct _lv_obj_
 518:lvgl/src/core/lv_obj_style_gen.h **** {
 519:lvgl/src/core/lv_obj_style_gen.h ****     lv_style_value_t v = lv_obj_get_style_prop(obj, part, LV_STYLE_COLOR_FILTER_DSC);
 520:lvgl/src/core/lv_obj_style_gen.h ****     return (const lv_color_filter_dsc_t *)v.ptr;
 521:lvgl/src/core/lv_obj_style_gen.h **** }
 522:lvgl/src/core/lv_obj_style_gen.h **** 
 523:lvgl/src/core/lv_obj_style_gen.h **** static inline lv_opa_t lv_obj_get_style_color_filter_opa(const struct _lv_obj_t * obj, uint32_t par
 524:lvgl/src/core/lv_obj_style_gen.h **** {
 525:lvgl/src/core/lv_obj_style_gen.h ****     lv_style_value_t v = lv_obj_get_style_prop(obj, part, LV_STYLE_COLOR_FILTER_OPA);
 526:lvgl/src/core/lv_obj_style_gen.h ****     return (lv_opa_t)v.num;
 527:lvgl/src/core/lv_obj_style_gen.h **** }
 528:lvgl/src/core/lv_obj_style_gen.h **** 
 529:lvgl/src/core/lv_obj_style_gen.h **** static inline const lv_anim_t * lv_obj_get_style_anim(const struct _lv_obj_t * obj, uint32_t part)
 530:lvgl/src/core/lv_obj_style_gen.h **** {
 531:lvgl/src/core/lv_obj_style_gen.h ****     lv_style_value_t v = lv_obj_get_style_prop(obj, part, LV_STYLE_ANIM);
 532:lvgl/src/core/lv_obj_style_gen.h ****     return (const lv_anim_t *)v.ptr;
 533:lvgl/src/core/lv_obj_style_gen.h **** }
 534:lvgl/src/core/lv_obj_style_gen.h **** 
 535:lvgl/src/core/lv_obj_style_gen.h **** static inline uint32_t lv_obj_get_style_anim_time(const struct _lv_obj_t * obj, uint32_t part)
 536:lvgl/src/core/lv_obj_style_gen.h **** {
 537:lvgl/src/core/lv_obj_style_gen.h ****     lv_style_value_t v = lv_obj_get_style_prop(obj, part, LV_STYLE_ANIM_TIME);
 538:lvgl/src/core/lv_obj_style_gen.h ****     return (uint32_t)v.num;
 539:lvgl/src/core/lv_obj_style_gen.h **** }
 540:lvgl/src/core/lv_obj_style_gen.h **** 
 541:lvgl/src/core/lv_obj_style_gen.h **** static inline uint32_t lv_obj_get_style_anim_speed(const struct _lv_obj_t * obj, uint32_t part)
 542:lvgl/src/core/lv_obj_style_gen.h **** {
 543:lvgl/src/core/lv_obj_style_gen.h ****     lv_style_value_t v = lv_obj_get_style_prop(obj, part, LV_STYLE_ANIM_SPEED);
 544:lvgl/src/core/lv_obj_style_gen.h ****     return (uint32_t)v.num;
 545:lvgl/src/core/lv_obj_style_gen.h **** }
 546:lvgl/src/core/lv_obj_style_gen.h **** 
 547:lvgl/src/core/lv_obj_style_gen.h **** static inline const lv_style_transition_dsc_t * lv_obj_get_style_transition(const struct _lv_obj_t 
 548:lvgl/src/core/lv_obj_style_gen.h **** {
 549:lvgl/src/core/lv_obj_style_gen.h ****     lv_style_value_t v = lv_obj_get_style_prop(obj, part, LV_STYLE_TRANSITION);
 550:lvgl/src/core/lv_obj_style_gen.h ****     return (const lv_style_transition_dsc_t *)v.ptr;
 551:lvgl/src/core/lv_obj_style_gen.h **** }
 552:lvgl/src/core/lv_obj_style_gen.h **** 
 553:lvgl/src/core/lv_obj_style_gen.h **** static inline lv_blend_mode_t lv_obj_get_style_blend_mode(const struct _lv_obj_t * obj, uint32_t pa
 250              		.loc 2 553 31 view .LVU93
 251              	.LBB193:
 554:lvgl/src/core/lv_obj_style_gen.h **** {
 555:lvgl/src/core/lv_obj_style_gen.h ****     lv_style_value_t v = lv_obj_get_style_prop(obj, part, LV_STYLE_BLEND_MODE);
 252              		.loc 2 555 5 view .LVU94
 253              		.loc 2 555 26 is_stmt 0 view .LVU95
 254 00d0 6822     		movs	r2, #104
 255 00d2 2946     		mov	r1, r5
 256 00d4 3046     		mov	r0, r6
 257              	.LVL16:
 258              		.loc 2 555 26 view .LVU96
 259 00d6 FFF7FEFF 		bl	lv_obj_get_style_prop
ARM GAS  C:\Users\OSD\AppData\Local\Temp\cc7WrW7h.s 			page 19


 260              	.LVL17:
 556:lvgl/src/core/lv_obj_style_gen.h ****     return (lv_blend_mode_t)v.num;
 261              		.loc 2 556 5 is_stmt 1 view .LVU97
 262              		.loc 2 556 5 is_stmt 0 view .LVU98
 263              	.LBE193:
 264              	.LBE192:
  54:lvgl/src/core/lv_obj_draw.c **** 
 265              		.loc 1 54 51 view .LVU99
 266 00da A070     		strb	r0, [r4, #2]
 267 00dc 9CE7     		b	.L4
 268              	.L16:
  59:lvgl/src/core/lv_obj_draw.c ****         if(draw_dsc->bg_opa > LV_OPA_MIN) {
 269              		.loc 1 59 9 is_stmt 1 view .LVU100
 270              	.LVL18:
 271              	.LBB194:
 272              	.LBI194:
 151:lvgl/src/core/lv_obj_style_gen.h **** {
 273              		.loc 2 151 24 view .LVU101
 274              	.LBB195:
 153:lvgl/src/core/lv_obj_style_gen.h ****     return (lv_opa_t)v.num;
 275              		.loc 2 153 5 view .LVU102
 153:lvgl/src/core/lv_obj_style_gen.h ****     return (lv_opa_t)v.num;
 276              		.loc 2 153 26 is_stmt 0 view .LVU103
 277 00de 2122     		movs	r2, #33
 278 00e0 2946     		mov	r1, r5
 279 00e2 3046     		mov	r0, r6
 280 00e4 FFF7FEFF 		bl	lv_obj_get_style_prop
 281              	.LVL19:
 154:lvgl/src/core/lv_obj_style_gen.h **** }
 282              		.loc 2 154 5 is_stmt 1 view .LVU104
 154:lvgl/src/core/lv_obj_style_gen.h **** }
 283              		.loc 2 154 12 is_stmt 0 view .LVU105
 284 00e8 C0B2     		uxtb	r0, r0
 285              	.LVL20:
 154:lvgl/src/core/lv_obj_style_gen.h **** }
 286              		.loc 2 154 12 view .LVU106
 287              	.LBE195:
 288              	.LBE194:
  59:lvgl/src/core/lv_obj_draw.c ****         if(draw_dsc->bg_opa > LV_OPA_MIN) {
 289              		.loc 1 59 26 view .LVU107
 290 00ea E070     		strb	r0, [r4, #3]
  60:lvgl/src/core/lv_obj_draw.c ****             draw_dsc->bg_color = lv_obj_get_style_bg_color_filtered(obj, part);
 291              		.loc 1 60 9 is_stmt 1 view .LVU108
  60:lvgl/src/core/lv_obj_draw.c ****             draw_dsc->bg_color = lv_obj_get_style_bg_color_filtered(obj, part);
 292              		.loc 1 60 11 is_stmt 0 view .LVU109
 293 00ec 0228     		cmp	r0, #2
 294 00ee 9CD9     		bls	.L5
 295              	.LBB196:
  61:lvgl/src/core/lv_obj_draw.c ****             const lv_grad_dsc_t * grad = lv_obj_get_style_bg_grad(obj, part);
 296              		.loc 1 61 13 is_stmt 1 view .LVU110
 297              	.LVL21:
 298              	.LBB197:
 299              	.LBI197:
 145:lvgl/src/core/lv_obj_style_gen.h **** {
 300              		.loc 2 145 26 view .LVU111
 301              	.LBB198:
 147:lvgl/src/core/lv_obj_style_gen.h ****     return v.color;
ARM GAS  C:\Users\OSD\AppData\Local\Temp\cc7WrW7h.s 			page 20


 302              		.loc 2 147 5 view .LVU112
 147:lvgl/src/core/lv_obj_style_gen.h ****     return v.color;
 303              		.loc 2 147 26 is_stmt 0 view .LVU113
 304 00f0 2022     		movs	r2, #32
 305 00f2 2946     		mov	r1, r5
 306 00f4 3046     		mov	r0, r6
 307 00f6 FFF7FEFF 		bl	lv_obj_get_style_prop
 308              	.LVL22:
 309 00fa 0246     		mov	r2, r0
 310 00fc 2946     		mov	r1, r5
 311 00fe 3046     		mov	r0, r6
 312 0100 FFF7FEFF 		bl	_lv_obj_style_apply_color_filter
 313              	.LVL23:
 148:lvgl/src/core/lv_obj_style_gen.h **** }
 314              		.loc 2 148 5 is_stmt 1 view .LVU114
 148:lvgl/src/core/lv_obj_style_gen.h **** }
 315              		.loc 2 148 5 is_stmt 0 view .LVU115
 316              	.LBE198:
 317              	.LBE197:
  61:lvgl/src/core/lv_obj_draw.c ****             const lv_grad_dsc_t * grad = lv_obj_get_style_bg_grad(obj, part);
 318              		.loc 1 61 34 view .LVU116
 319 0104 6060     		str	r0, [r4, #4]
  62:lvgl/src/core/lv_obj_draw.c ****             if(grad && grad->dir != LV_GRAD_DIR_NONE) {
 320              		.loc 1 62 13 is_stmt 1 view .LVU117
 321              	.LVL24:
 322              	.LBB199:
 323              	.LBI199:
 187:lvgl/src/core/lv_obj_style_gen.h **** {
 324              		.loc 2 187 37 view .LVU118
 325              	.LBB200:
 189:lvgl/src/core/lv_obj_style_gen.h ****     return (const lv_grad_dsc_t *)v.ptr;
 326              		.loc 2 189 5 view .LVU119
 189:lvgl/src/core/lv_obj_style_gen.h ****     return (const lv_grad_dsc_t *)v.ptr;
 327              		.loc 2 189 26 is_stmt 0 view .LVU120
 328 0106 2622     		movs	r2, #38
 329 0108 2946     		mov	r1, r5
 330 010a 3046     		mov	r0, r6
 331 010c FFF7FEFF 		bl	lv_obj_get_style_prop
 332              	.LVL25:
 190:lvgl/src/core/lv_obj_style_gen.h **** }
 333              		.loc 2 190 5 is_stmt 1 view .LVU121
 190:lvgl/src/core/lv_obj_style_gen.h **** }
 334              		.loc 2 190 5 is_stmt 0 view .LVU122
 335              	.LBE200:
 336              	.LBE199:
  63:lvgl/src/core/lv_obj_draw.c ****                 lv_memcpy(&draw_dsc->bg_grad, grad, sizeof(*grad));
 337              		.loc 1 63 13 is_stmt 1 view .LVU123
  63:lvgl/src/core/lv_obj_draw.c ****                 lv_memcpy(&draw_dsc->bg_grad, grad, sizeof(*grad));
 338              		.loc 1 63 15 is_stmt 0 view .LVU124
 339 0110 0146     		mov	r1, r0
 340 0112 18B1     		cbz	r0, .L6
  63:lvgl/src/core/lv_obj_draw.c ****                 lv_memcpy(&draw_dsc->bg_grad, grad, sizeof(*grad));
 341              		.loc 1 63 34 discriminator 1 view .LVU125
 342 0114 437C     		ldrb	r3, [r0, #17]	@ zero_extendqisi2
  63:lvgl/src/core/lv_obj_draw.c ****                 lv_memcpy(&draw_dsc->bg_grad, grad, sizeof(*grad));
 343              		.loc 1 63 21 discriminator 1 view .LVU126
 344 0116 13F0070F 		tst	r3, #7
ARM GAS  C:\Users\OSD\AppData\Local\Temp\cc7WrW7h.s 			page 21


 345 011a 16D1     		bne	.L21
 346              	.L6:
  67:lvgl/src/core/lv_obj_draw.c ****                 if(draw_dsc->bg_grad.dir != LV_GRAD_DIR_NONE) {
 347              		.loc 1 67 17 is_stmt 1 view .LVU127
 348              	.LVL26:
 349              	.LBB201:
 350              	.LBI201:
 169:lvgl/src/core/lv_obj_style_gen.h **** {
 351              		.loc 2 169 29 view .LVU128
 352              	.LBB202:
 171:lvgl/src/core/lv_obj_style_gen.h ****     return (lv_grad_dir_t)v.num;
 353              		.loc 2 171 5 view .LVU129
 171:lvgl/src/core/lv_obj_style_gen.h ****     return (lv_grad_dir_t)v.num;
 354              		.loc 2 171 26 is_stmt 0 view .LVU130
 355 011c 2322     		movs	r2, #35
 356 011e 2946     		mov	r1, r5
 357 0120 3046     		mov	r0, r6
 358              	.LVL27:
 171:lvgl/src/core/lv_obj_style_gen.h ****     return (lv_grad_dir_t)v.num;
 359              		.loc 2 171 26 view .LVU131
 360 0122 FFF7FEFF 		bl	lv_obj_get_style_prop
 361              	.LVL28:
 172:lvgl/src/core/lv_obj_style_gen.h **** }
 362              		.loc 2 172 5 is_stmt 1 view .LVU132
 172:lvgl/src/core/lv_obj_style_gen.h **** }
 363              		.loc 2 172 5 is_stmt 0 view .LVU133
 364              	.LBE202:
 365              	.LBE201:
  67:lvgl/src/core/lv_obj_draw.c ****                 if(draw_dsc->bg_grad.dir != LV_GRAD_DIR_NONE) {
 366              		.loc 1 67 39 view .LVU134
 367 0126 637E     		ldrb	r3, [r4, #25]	@ zero_extendqisi2
 368 0128 60F30203 		bfi	r3, r0, #0, #3
 369 012c 6376     		strb	r3, [r4, #25]
  68:lvgl/src/core/lv_obj_draw.c ****                     draw_dsc->bg_grad.stops[0].color = lv_obj_get_style_bg_color_filtered(obj, part
 370              		.loc 1 68 17 is_stmt 1 view .LVU135
  68:lvgl/src/core/lv_obj_draw.c ****                     draw_dsc->bg_grad.stops[0].color = lv_obj_get_style_bg_color_filtered(obj, part
 371              		.loc 1 68 42 is_stmt 0 view .LVU136
 372 012e DBB2     		uxtb	r3, r3
  68:lvgl/src/core/lv_obj_draw.c ****                     draw_dsc->bg_grad.stops[0].color = lv_obj_get_style_bg_color_filtered(obj, part
 373              		.loc 1 68 19 view .LVU137
 374 0130 13F0070F 		tst	r3, #7
 375 0134 0FD1     		bne	.L22
 376              	.L7:
  74:lvgl/src/core/lv_obj_draw.c ****             }
 377              		.loc 1 74 17 is_stmt 1 view .LVU138
 378              	.LVL29:
 379              	.LBB203:
 380              	.LBI203:
 193:lvgl/src/core/lv_obj_style_gen.h **** {
 381              		.loc 2 193 32 view .LVU139
 382              	.LBB204:
 195:lvgl/src/core/lv_obj_style_gen.h ****     return (lv_dither_mode_t)v.num;
 383              		.loc 2 195 5 view .LVU140
 195:lvgl/src/core/lv_obj_style_gen.h ****     return (lv_dither_mode_t)v.num;
 384              		.loc 2 195 26 is_stmt 0 view .LVU141
 385 0136 2722     		movs	r2, #39
 386 0138 2946     		mov	r1, r5
ARM GAS  C:\Users\OSD\AppData\Local\Temp\cc7WrW7h.s 			page 22


 387 013a 3046     		mov	r0, r6
 388 013c FFF7FEFF 		bl	lv_obj_get_style_prop
 389              	.LVL30:
 196:lvgl/src/core/lv_obj_style_gen.h **** }
 390              		.loc 2 196 5 is_stmt 1 view .LVU142
 196:lvgl/src/core/lv_obj_style_gen.h **** }
 391              		.loc 2 196 5 is_stmt 0 view .LVU143
 392              	.LBE204:
 393              	.LBE203:
  74:lvgl/src/core/lv_obj_draw.c ****             }
 394              		.loc 1 74 42 view .LVU144
 395 0140 637E     		ldrb	r3, [r4, #25]	@ zero_extendqisi2
 396 0142 60F3C503 		bfi	r3, r0, #3, #3
 397 0146 6376     		strb	r3, [r4, #25]
 398 0148 6FE7     		b	.L5
 399              	.LVL31:
 400              	.L21:
  64:lvgl/src/core/lv_obj_draw.c ****             }
 401              		.loc 1 64 17 is_stmt 1 view .LVU145
 402 014a 1422     		movs	r2, #20
 403 014c 04F10800 		add	r0, r4, #8
 404              	.LVL32:
  64:lvgl/src/core/lv_obj_draw.c ****             }
 405              		.loc 1 64 17 is_stmt 0 view .LVU146
 406 0150 FFF7FEFF 		bl	lv_memcpy
 407              	.LVL33:
  64:lvgl/src/core/lv_obj_draw.c ****             }
 408              		.loc 1 64 17 view .LVU147
 409 0154 69E7     		b	.L5
 410              	.L22:
  69:lvgl/src/core/lv_obj_draw.c ****                     draw_dsc->bg_grad.stops[1].color = lv_obj_get_style_bg_grad_color_filtered(obj,
 411              		.loc 1 69 21 is_stmt 1 view .LVU148
 412              	.LVL34:
 413              	.LBB205:
 414              	.LBI205:
 145:lvgl/src/core/lv_obj_style_gen.h **** {
 415              		.loc 2 145 26 view .LVU149
 416              	.LBB206:
 147:lvgl/src/core/lv_obj_style_gen.h ****     return v.color;
 417              		.loc 2 147 5 view .LVU150
 147:lvgl/src/core/lv_obj_style_gen.h ****     return v.color;
 418              		.loc 2 147 26 is_stmt 0 view .LVU151
 419 0156 2022     		movs	r2, #32
 420 0158 2946     		mov	r1, r5
 421 015a 3046     		mov	r0, r6
 422 015c FFF7FEFF 		bl	lv_obj_get_style_prop
 423              	.LVL35:
 424 0160 0246     		mov	r2, r0
 425 0162 2946     		mov	r1, r5
 426 0164 3046     		mov	r0, r6
 427 0166 FFF7FEFF 		bl	_lv_obj_style_apply_color_filter
 428              	.LVL36:
 148:lvgl/src/core/lv_obj_style_gen.h **** }
 429              		.loc 2 148 5 is_stmt 1 view .LVU152
 148:lvgl/src/core/lv_obj_style_gen.h **** }
 430              		.loc 2 148 5 is_stmt 0 view .LVU153
 431              	.LBE206:
ARM GAS  C:\Users\OSD\AppData\Local\Temp\cc7WrW7h.s 			page 23


 432              	.LBE205:
  69:lvgl/src/core/lv_obj_draw.c ****                     draw_dsc->bg_grad.stops[1].color = lv_obj_get_style_bg_grad_color_filtered(obj,
 433              		.loc 1 69 56 view .LVU154
 434 016a A060     		str	r0, [r4, #8]
  70:lvgl/src/core/lv_obj_draw.c ****                     draw_dsc->bg_grad.stops[0].frac = lv_obj_get_style_bg_main_stop(obj, part);
 435              		.loc 1 70 21 is_stmt 1 view .LVU155
 436              	.LVL37:
 437              	.LBB207:
 438              	.LBI207:
 163:lvgl/src/core/lv_obj_style_gen.h **** {
 439              		.loc 2 163 26 view .LVU156
 440              	.LBB208:
 165:lvgl/src/core/lv_obj_style_gen.h ****     return v.color;
 441              		.loc 2 165 5 view .LVU157
 165:lvgl/src/core/lv_obj_style_gen.h ****     return v.color;
 442              		.loc 2 165 26 is_stmt 0 view .LVU158
 443 016c 2222     		movs	r2, #34
 444 016e 2946     		mov	r1, r5
 445 0170 3046     		mov	r0, r6
 446 0172 FFF7FEFF 		bl	lv_obj_get_style_prop
 447              	.LVL38:
 448 0176 0246     		mov	r2, r0
 449 0178 2946     		mov	r1, r5
 450 017a 3046     		mov	r0, r6
 451 017c FFF7FEFF 		bl	_lv_obj_style_apply_color_filter
 452              	.LVL39:
 166:lvgl/src/core/lv_obj_style_gen.h **** }
 453              		.loc 2 166 5 is_stmt 1 view .LVU159
 166:lvgl/src/core/lv_obj_style_gen.h **** }
 454              		.loc 2 166 5 is_stmt 0 view .LVU160
 455              	.LBE208:
 456              	.LBE207:
  70:lvgl/src/core/lv_obj_draw.c ****                     draw_dsc->bg_grad.stops[0].frac = lv_obj_get_style_bg_main_stop(obj, part);
 457              		.loc 1 70 56 view .LVU161
 458 0180 2061     		str	r0, [r4, #16]
  71:lvgl/src/core/lv_obj_draw.c ****                     draw_dsc->bg_grad.stops[1].frac = lv_obj_get_style_bg_grad_stop(obj, part);
 459              		.loc 1 71 21 is_stmt 1 view .LVU162
 460              	.LVL40:
 461              	.LBB209:
 462              	.LBI209:
 175:lvgl/src/core/lv_obj_style_gen.h **** {
 463              		.loc 2 175 26 view .LVU163
 464              	.LBB210:
 177:lvgl/src/core/lv_obj_style_gen.h ****     return (lv_coord_t)v.num;
 465              		.loc 2 177 5 view .LVU164
 177:lvgl/src/core/lv_obj_style_gen.h ****     return (lv_coord_t)v.num;
 466              		.loc 2 177 26 is_stmt 0 view .LVU165
 467 0182 2422     		movs	r2, #36
 468 0184 2946     		mov	r1, r5
 469 0186 3046     		mov	r0, r6
 470 0188 FFF7FEFF 		bl	lv_obj_get_style_prop
 471              	.LVL41:
 178:lvgl/src/core/lv_obj_style_gen.h **** }
 472              		.loc 2 178 5 is_stmt 1 view .LVU166
 178:lvgl/src/core/lv_obj_style_gen.h **** }
 473              		.loc 2 178 5 is_stmt 0 view .LVU167
 474              	.LBE210:
ARM GAS  C:\Users\OSD\AppData\Local\Temp\cc7WrW7h.s 			page 24


 475              	.LBE209:
  71:lvgl/src/core/lv_obj_draw.c ****                     draw_dsc->bg_grad.stops[1].frac = lv_obj_get_style_bg_grad_stop(obj, part);
 476              		.loc 1 71 53 view .LVU168
 477 018c 2073     		strb	r0, [r4, #12]
  72:lvgl/src/core/lv_obj_draw.c ****                 }
 478              		.loc 1 72 21 is_stmt 1 view .LVU169
 479              	.LVL42:
 480              	.LBB211:
 481              	.LBI211:
 181:lvgl/src/core/lv_obj_style_gen.h **** {
 482              		.loc 2 181 26 view .LVU170
 483              	.LBB212:
 183:lvgl/src/core/lv_obj_style_gen.h ****     return (lv_coord_t)v.num;
 484              		.loc 2 183 5 view .LVU171
 183:lvgl/src/core/lv_obj_style_gen.h ****     return (lv_coord_t)v.num;
 485              		.loc 2 183 26 is_stmt 0 view .LVU172
 486 018e 2522     		movs	r2, #37
 487 0190 2946     		mov	r1, r5
 488 0192 3046     		mov	r0, r6
 489 0194 FFF7FEFF 		bl	lv_obj_get_style_prop
 490              	.LVL43:
 184:lvgl/src/core/lv_obj_style_gen.h **** }
 491              		.loc 2 184 5 is_stmt 1 view .LVU173
 184:lvgl/src/core/lv_obj_style_gen.h **** }
 492              		.loc 2 184 5 is_stmt 0 view .LVU174
 493              	.LBE212:
 494              	.LBE211:
  72:lvgl/src/core/lv_obj_draw.c ****                 }
 495              		.loc 1 72 53 view .LVU175
 496 0198 2075     		strb	r0, [r4, #20]
 497 019a CCE7     		b	.L7
 498              	.L17:
  72:lvgl/src/core/lv_obj_draw.c ****                 }
 499              		.loc 1 72 53 view .LVU176
 500              	.LBE196:
  82:lvgl/src/core/lv_obj_draw.c ****             if(draw_dsc->border_opa > LV_OPA_MIN) {
 501              		.loc 1 82 13 is_stmt 1 view .LVU177
 502              	.LVL44:
 503              	.LBB213:
 504              	.LBI213:
 247:lvgl/src/core/lv_obj_style_gen.h **** {
 505              		.loc 2 247 24 view .LVU178
 506              	.LBB214:
 249:lvgl/src/core/lv_obj_style_gen.h ****     return (lv_opa_t)v.num;
 507              		.loc 2 249 5 view .LVU179
 249:lvgl/src/core/lv_obj_style_gen.h ****     return (lv_opa_t)v.num;
 508              		.loc 2 249 26 is_stmt 0 view .LVU180
 509 019c 3122     		movs	r2, #49
 510 019e 2946     		mov	r1, r5
 511 01a0 3046     		mov	r0, r6
 512 01a2 FFF7FEFF 		bl	lv_obj_get_style_prop
 513              	.LVL45:
 250:lvgl/src/core/lv_obj_style_gen.h **** }
 514              		.loc 2 250 5 is_stmt 1 view .LVU181
 250:lvgl/src/core/lv_obj_style_gen.h **** }
 515              		.loc 2 250 12 is_stmt 0 view .LVU182
 516 01a6 C0B2     		uxtb	r0, r0
ARM GAS  C:\Users\OSD\AppData\Local\Temp\cc7WrW7h.s 			page 25


 517              	.LVL46:
 250:lvgl/src/core/lv_obj_style_gen.h **** }
 518              		.loc 2 250 12 view .LVU183
 519              	.LBE214:
 520              	.LBE213:
  82:lvgl/src/core/lv_obj_draw.c ****             if(draw_dsc->border_opa > LV_OPA_MIN) {
 521              		.loc 1 82 34 view .LVU184
 522 01a8 84F83200 		strb	r0, [r4, #50]
  83:lvgl/src/core/lv_obj_draw.c ****                 draw_dsc->border_side = lv_obj_get_style_border_side(obj, part);
 523              		.loc 1 83 13 is_stmt 1 view .LVU185
  83:lvgl/src/core/lv_obj_draw.c ****                 draw_dsc->border_side = lv_obj_get_style_border_side(obj, part);
 524              		.loc 1 83 15 is_stmt 0 view .LVU186
 525 01ac 0228     		cmp	r0, #2
 526 01ae 7FF649AF 		bls	.L8
  84:lvgl/src/core/lv_obj_draw.c ****                 draw_dsc->border_color = lv_obj_get_style_border_color_filtered(obj, part);
 527              		.loc 1 84 17 is_stmt 1 view .LVU187
 528              	.LVL47:
 529              	.LBB215:
 530              	.LBI215:
 259:lvgl/src/core/lv_obj_style_gen.h **** {
 531              		.loc 2 259 32 view .LVU188
 532              	.LBB216:
 261:lvgl/src/core/lv_obj_style_gen.h ****     return (lv_border_side_t)v.num;
 533              		.loc 2 261 5 view .LVU189
 261:lvgl/src/core/lv_obj_style_gen.h ****     return (lv_border_side_t)v.num;
 534              		.loc 2 261 26 is_stmt 0 view .LVU190
 535 01b2 3322     		movs	r2, #51
 536 01b4 2946     		mov	r1, r5
 537 01b6 3046     		mov	r0, r6
 538 01b8 FFF7FEFF 		bl	lv_obj_get_style_prop
 539              	.LVL48:
 262:lvgl/src/core/lv_obj_style_gen.h **** }
 540              		.loc 2 262 5 is_stmt 1 view .LVU191
 262:lvgl/src/core/lv_obj_style_gen.h **** }
 541              		.loc 2 262 5 is_stmt 0 view .LVU192
 542              	.LBE216:
 543              	.LBE215:
  84:lvgl/src/core/lv_obj_draw.c ****                 draw_dsc->border_color = lv_obj_get_style_border_color_filtered(obj, part);
 544              		.loc 1 84 39 view .LVU193
 545 01bc 94F83330 		ldrb	r3, [r4, #51]	@ zero_extendqisi2
 546 01c0 60F34503 		bfi	r3, r0, #1, #5
 547 01c4 84F83330 		strb	r3, [r4, #51]
  85:lvgl/src/core/lv_obj_draw.c ****             }
 548              		.loc 1 85 17 is_stmt 1 view .LVU194
 549              	.LVL49:
 550              	.LBB217:
 551              	.LBI217:
 241:lvgl/src/core/lv_obj_style_gen.h **** {
 552              		.loc 2 241 26 view .LVU195
 553              	.LBB218:
 243:lvgl/src/core/lv_obj_style_gen.h ****     return v.color;
 554              		.loc 2 243 5 view .LVU196
 243:lvgl/src/core/lv_obj_style_gen.h ****     return v.color;
 555              		.loc 2 243 26 is_stmt 0 view .LVU197
 556 01c8 3022     		movs	r2, #48
 557 01ca 2946     		mov	r1, r5
 558 01cc 3046     		mov	r0, r6
ARM GAS  C:\Users\OSD\AppData\Local\Temp\cc7WrW7h.s 			page 26


 559 01ce FFF7FEFF 		bl	lv_obj_get_style_prop
 560              	.LVL50:
 561 01d2 0246     		mov	r2, r0
 562 01d4 2946     		mov	r1, r5
 563 01d6 3046     		mov	r0, r6
 564 01d8 FFF7FEFF 		bl	_lv_obj_style_apply_color_filter
 565              	.LVL51:
 244:lvgl/src/core/lv_obj_style_gen.h **** }
 566              		.loc 2 244 5 is_stmt 1 view .LVU198
 244:lvgl/src/core/lv_obj_style_gen.h **** }
 567              		.loc 2 244 5 is_stmt 0 view .LVU199
 568              	.LBE218:
 569              	.LBE217:
  85:lvgl/src/core/lv_obj_draw.c ****             }
 570              		.loc 1 85 42 view .LVU200
 571 01dc E062     		str	r0, [r4, #44]
 572 01de 31E7     		b	.L8
 573              	.L18:
  93:lvgl/src/core/lv_obj_draw.c ****             if(draw_dsc->outline_opa > LV_OPA_MIN) {
 574              		.loc 1 93 13 is_stmt 1 view .LVU201
 575              	.LVL52:
 576              	.LBB219:
 577              	.LBI219:
 289:lvgl/src/core/lv_obj_style_gen.h **** {
 578              		.loc 2 289 24 view .LVU202
 579              	.LBB220:
 291:lvgl/src/core/lv_obj_style_gen.h ****     return (lv_opa_t)v.num;
 580              		.loc 2 291 5 view .LVU203
 291:lvgl/src/core/lv_obj_style_gen.h ****     return (lv_opa_t)v.num;
 581              		.loc 2 291 26 is_stmt 0 view .LVU204
 582 01e0 3722     		movs	r2, #55
 583 01e2 2946     		mov	r1, r5
 584 01e4 3046     		mov	r0, r6
 585 01e6 FFF7FEFF 		bl	lv_obj_get_style_prop
 586              	.LVL53:
 292:lvgl/src/core/lv_obj_style_gen.h **** }
 587              		.loc 2 292 5 is_stmt 1 view .LVU205
 292:lvgl/src/core/lv_obj_style_gen.h **** }
 588              		.loc 2 292 12 is_stmt 0 view .LVU206
 589 01ea C0B2     		uxtb	r0, r0
 590              	.LVL54:
 292:lvgl/src/core/lv_obj_style_gen.h **** }
 591              		.loc 2 292 12 view .LVU207
 592              	.LBE220:
 593              	.LBE219:
  93:lvgl/src/core/lv_obj_draw.c ****             if(draw_dsc->outline_opa > LV_OPA_MIN) {
 594              		.loc 1 93 35 view .LVU208
 595 01ec 84F83C00 		strb	r0, [r4, #60]
  94:lvgl/src/core/lv_obj_draw.c ****                 draw_dsc->outline_pad = lv_obj_get_style_outline_pad(obj, part);
 596              		.loc 1 94 13 is_stmt 1 view .LVU209
  94:lvgl/src/core/lv_obj_draw.c ****                 draw_dsc->outline_pad = lv_obj_get_style_outline_pad(obj, part);
 597              		.loc 1 94 15 is_stmt 0 view .LVU210
 598 01f0 0228     		cmp	r0, #2
 599 01f2 7FF634AF 		bls	.L9
  95:lvgl/src/core/lv_obj_draw.c ****                 draw_dsc->outline_color = lv_obj_get_style_outline_color_filtered(obj, part);
 600              		.loc 1 95 17 is_stmt 1 view .LVU211
 601              	.LVL55:
ARM GAS  C:\Users\OSD\AppData\Local\Temp\cc7WrW7h.s 			page 27


 602              	.LBB221:
 603              	.LBI221:
 295:lvgl/src/core/lv_obj_style_gen.h **** {
 604              		.loc 2 295 26 view .LVU212
 605              	.LBB222:
 297:lvgl/src/core/lv_obj_style_gen.h ****     return (lv_coord_t)v.num;
 606              		.loc 2 297 5 view .LVU213
 297:lvgl/src/core/lv_obj_style_gen.h ****     return (lv_coord_t)v.num;
 607              		.loc 2 297 26 is_stmt 0 view .LVU214
 608 01f6 3822     		movs	r2, #56
 609 01f8 2946     		mov	r1, r5
 610 01fa 3046     		mov	r0, r6
 611 01fc FFF7FEFF 		bl	lv_obj_get_style_prop
 612              	.LVL56:
 298:lvgl/src/core/lv_obj_style_gen.h **** }
 613              		.loc 2 298 5 is_stmt 1 view .LVU215
 298:lvgl/src/core/lv_obj_style_gen.h **** }
 614              		.loc 2 298 5 is_stmt 0 view .LVU216
 615              	.LBE222:
 616              	.LBE221:
  95:lvgl/src/core/lv_obj_draw.c ****                 draw_dsc->outline_color = lv_obj_get_style_outline_color_filtered(obj, part);
 617              		.loc 1 95 39 view .LVU217
 618 0200 6087     		strh	r0, [r4, #58]	@ movhi
  96:lvgl/src/core/lv_obj_draw.c ****             }
 619              		.loc 1 96 17 is_stmt 1 view .LVU218
 620              	.LVL57:
 621              	.LBB223:
 622              	.LBI223:
 283:lvgl/src/core/lv_obj_style_gen.h **** {
 623              		.loc 2 283 26 view .LVU219
 624              	.LBB224:
 285:lvgl/src/core/lv_obj_style_gen.h ****     return v.color;
 625              		.loc 2 285 5 view .LVU220
 285:lvgl/src/core/lv_obj_style_gen.h ****     return v.color;
 626              		.loc 2 285 26 is_stmt 0 view .LVU221
 627 0202 3622     		movs	r2, #54
 628 0204 2946     		mov	r1, r5
 629 0206 3046     		mov	r0, r6
 630 0208 FFF7FEFF 		bl	lv_obj_get_style_prop
 631              	.LVL58:
 632 020c 0246     		mov	r2, r0
 633 020e 2946     		mov	r1, r5
 634 0210 3046     		mov	r0, r6
 635 0212 FFF7FEFF 		bl	_lv_obj_style_apply_color_filter
 636              	.LVL59:
 286:lvgl/src/core/lv_obj_style_gen.h **** }
 637              		.loc 2 286 5 is_stmt 1 view .LVU222
 286:lvgl/src/core/lv_obj_style_gen.h **** }
 638              		.loc 2 286 5 is_stmt 0 view .LVU223
 639              	.LBE224:
 640              	.LBE223:
  96:lvgl/src/core/lv_obj_draw.c ****             }
 641              		.loc 1 96 43 view .LVU224
 642 0216 6063     		str	r0, [r4, #52]
 643 0218 21E7     		b	.L9
 644              	.L19:
 102:lvgl/src/core/lv_obj_draw.c ****         if(draw_dsc->bg_img_src) {
ARM GAS  C:\Users\OSD\AppData\Local\Temp\cc7WrW7h.s 			page 28


 645              		.loc 1 102 9 is_stmt 1 view .LVU225
 646              	.LVL60:
 647              	.LBB225:
 648              	.LBI225:
 199:lvgl/src/core/lv_obj_style_gen.h **** {
 649              		.loc 2 199 28 view .LVU226
 650              	.LBB226:
 201:lvgl/src/core/lv_obj_style_gen.h ****     return (const void *)v.ptr;
 651              		.loc 2 201 5 view .LVU227
 201:lvgl/src/core/lv_obj_style_gen.h ****     return (const void *)v.ptr;
 652              		.loc 2 201 26 is_stmt 0 view .LVU228
 653 021a 2822     		movs	r2, #40
 654 021c 2946     		mov	r1, r5
 655 021e 3046     		mov	r0, r6
 656 0220 FFF7FEFF 		bl	lv_obj_get_style_prop
 657              	.LVL61:
 202:lvgl/src/core/lv_obj_style_gen.h **** }
 658              		.loc 2 202 5 is_stmt 1 view .LVU229
 202:lvgl/src/core/lv_obj_style_gen.h **** }
 659              		.loc 2 202 5 is_stmt 0 view .LVU230
 660              	.LBE226:
 661              	.LBE225:
 102:lvgl/src/core/lv_obj_draw.c ****         if(draw_dsc->bg_img_src) {
 662              		.loc 1 102 30 view .LVU231
 663 0224 E061     		str	r0, [r4, #28]
 103:lvgl/src/core/lv_obj_draw.c ****             draw_dsc->bg_img_opa = lv_obj_get_style_bg_img_opa(obj, part);
 664              		.loc 1 103 9 is_stmt 1 view .LVU232
 103:lvgl/src/core/lv_obj_draw.c ****             draw_dsc->bg_img_opa = lv_obj_get_style_bg_img_opa(obj, part);
 665              		.loc 1 103 11 is_stmt 0 view .LVU233
 666 0226 0028     		cmp	r0, #0
 667 0228 3FF41EAF 		beq	.L10
 104:lvgl/src/core/lv_obj_draw.c ****             if(draw_dsc->bg_img_opa > LV_OPA_MIN) {
 668              		.loc 1 104 13 is_stmt 1 view .LVU234
 669              	.LVL62:
 670              	.LBB227:
 671              	.LBI227:
 205:lvgl/src/core/lv_obj_style_gen.h **** {
 672              		.loc 2 205 24 view .LVU235
 673              	.LBB228:
 207:lvgl/src/core/lv_obj_style_gen.h ****     return (lv_opa_t)v.num;
 674              		.loc 2 207 5 view .LVU236
 207:lvgl/src/core/lv_obj_style_gen.h ****     return (lv_opa_t)v.num;
 675              		.loc 2 207 26 is_stmt 0 view .LVU237
 676 022c 2922     		movs	r2, #41
 677 022e 2946     		mov	r1, r5
 678 0230 3046     		mov	r0, r6
 679              	.LVL63:
 207:lvgl/src/core/lv_obj_style_gen.h ****     return (lv_opa_t)v.num;
 680              		.loc 2 207 26 view .LVU238
 681 0232 FFF7FEFF 		bl	lv_obj_get_style_prop
 682              	.LVL64:
 208:lvgl/src/core/lv_obj_style_gen.h **** }
 683              		.loc 2 208 5 is_stmt 1 view .LVU239
 208:lvgl/src/core/lv_obj_style_gen.h **** }
 684              		.loc 2 208 12 is_stmt 0 view .LVU240
 685 0236 C0B2     		uxtb	r0, r0
 686              	.LVL65:
ARM GAS  C:\Users\OSD\AppData\Local\Temp\cc7WrW7h.s 			page 29


 208:lvgl/src/core/lv_obj_style_gen.h **** }
 687              		.loc 2 208 12 view .LVU241
 688              	.LBE228:
 689              	.LBE227:
 104:lvgl/src/core/lv_obj_draw.c ****             if(draw_dsc->bg_img_opa > LV_OPA_MIN) {
 690              		.loc 1 104 34 view .LVU242
 691 0238 84F82800 		strb	r0, [r4, #40]
 105:lvgl/src/core/lv_obj_draw.c ****                 if(lv_img_src_get_type(draw_dsc->bg_img_src) == LV_IMG_SRC_SYMBOL) {
 692              		.loc 1 105 13 is_stmt 1 view .LVU243
 105:lvgl/src/core/lv_obj_draw.c ****                 if(lv_img_src_get_type(draw_dsc->bg_img_src) == LV_IMG_SRC_SYMBOL) {
 693              		.loc 1 105 15 is_stmt 0 view .LVU244
 694 023c 0228     		cmp	r0, #2
 695 023e 7FF613AF 		bls	.L10
 106:lvgl/src/core/lv_obj_draw.c ****                     draw_dsc->bg_img_symbol_font = lv_obj_get_style_text_font(obj, part);
 696              		.loc 1 106 17 is_stmt 1 view .LVU245
 106:lvgl/src/core/lv_obj_draw.c ****                     draw_dsc->bg_img_symbol_font = lv_obj_get_style_text_font(obj, part);
 697              		.loc 1 106 20 is_stmt 0 view .LVU246
 698 0242 E069     		ldr	r0, [r4, #28]
 699 0244 FFF7FEFF 		bl	lv_img_src_get_type
 700              	.LVL66:
 106:lvgl/src/core/lv_obj_draw.c ****                     draw_dsc->bg_img_symbol_font = lv_obj_get_style_text_font(obj, part);
 701              		.loc 1 106 19 view .LVU247
 702 0248 0228     		cmp	r0, #2
 703 024a 1CD0     		beq	.L23
 111:lvgl/src/core/lv_obj_draw.c ****                     draw_dsc->bg_img_recolor_opa = lv_obj_get_style_bg_img_recolor_opa(obj, part);
 704              		.loc 1 111 21 is_stmt 1 view .LVU248
 705              	.LVL67:
 706              	.LBB229:
 707              	.LBI229:
 217:lvgl/src/core/lv_obj_style_gen.h **** {
 708              		.loc 2 217 26 view .LVU249
 709              	.LBB230:
 219:lvgl/src/core/lv_obj_style_gen.h ****     return v.color;
 710              		.loc 2 219 5 view .LVU250
 219:lvgl/src/core/lv_obj_style_gen.h ****     return v.color;
 711              		.loc 2 219 26 is_stmt 0 view .LVU251
 712 024c 2A22     		movs	r2, #42
 713 024e 2946     		mov	r1, r5
 714 0250 3046     		mov	r0, r6
 715 0252 FFF7FEFF 		bl	lv_obj_get_style_prop
 716              	.LVL68:
 717 0256 0246     		mov	r2, r0
 718 0258 2946     		mov	r1, r5
 719 025a 3046     		mov	r0, r6
 720 025c FFF7FEFF 		bl	_lv_obj_style_apply_color_filter
 721              	.LVL69:
 220:lvgl/src/core/lv_obj_style_gen.h **** }
 722              		.loc 2 220 5 is_stmt 1 view .LVU252
 220:lvgl/src/core/lv_obj_style_gen.h **** }
 723              		.loc 2 220 5 is_stmt 0 view .LVU253
 724              	.LBE230:
 725              	.LBE229:
 111:lvgl/src/core/lv_obj_draw.c ****                     draw_dsc->bg_img_recolor_opa = lv_obj_get_style_bg_img_recolor_opa(obj, part);
 726              		.loc 1 111 48 view .LVU254
 727 0260 6062     		str	r0, [r4, #36]
 112:lvgl/src/core/lv_obj_draw.c ****                     draw_dsc->bg_img_tiled = lv_obj_get_style_bg_img_tiled(obj, part);
 728              		.loc 1 112 21 is_stmt 1 view .LVU255
ARM GAS  C:\Users\OSD\AppData\Local\Temp\cc7WrW7h.s 			page 30


 729              	.LVL70:
 730              	.LBB231:
 731              	.LBI231:
 223:lvgl/src/core/lv_obj_style_gen.h **** {
 732              		.loc 2 223 24 view .LVU256
 733              	.LBB232:
 225:lvgl/src/core/lv_obj_style_gen.h ****     return (lv_opa_t)v.num;
 734              		.loc 2 225 5 view .LVU257
 225:lvgl/src/core/lv_obj_style_gen.h ****     return (lv_opa_t)v.num;
 735              		.loc 2 225 26 is_stmt 0 view .LVU258
 736 0262 2B22     		movs	r2, #43
 737 0264 2946     		mov	r1, r5
 738 0266 3046     		mov	r0, r6
 739 0268 FFF7FEFF 		bl	lv_obj_get_style_prop
 740              	.LVL71:
 226:lvgl/src/core/lv_obj_style_gen.h **** }
 741              		.loc 2 226 5 is_stmt 1 view .LVU259
 226:lvgl/src/core/lv_obj_style_gen.h **** }
 742              		.loc 2 226 5 is_stmt 0 view .LVU260
 743              	.LBE232:
 744              	.LBE231:
 112:lvgl/src/core/lv_obj_draw.c ****                     draw_dsc->bg_img_tiled = lv_obj_get_style_bg_img_tiled(obj, part);
 745              		.loc 1 112 50 view .LVU261
 746 026c 84F82900 		strb	r0, [r4, #41]
 113:lvgl/src/core/lv_obj_draw.c ****                 }
 747              		.loc 1 113 21 is_stmt 1 view .LVU262
 748              	.LVL72:
 749              	.LBB233:
 750              	.LBI233:
 229:lvgl/src/core/lv_obj_style_gen.h **** {
 751              		.loc 2 229 20 view .LVU263
 752              	.LBB234:
 231:lvgl/src/core/lv_obj_style_gen.h ****     return (bool)v.num;
 753              		.loc 2 231 5 view .LVU264
 231:lvgl/src/core/lv_obj_style_gen.h ****     return (bool)v.num;
 754              		.loc 2 231 26 is_stmt 0 view .LVU265
 755 0270 2C22     		movs	r2, #44
 756 0272 2946     		mov	r1, r5
 757 0274 3046     		mov	r0, r6
 758 0276 FFF7FEFF 		bl	lv_obj_get_style_prop
 759              	.LVL73:
 232:lvgl/src/core/lv_obj_style_gen.h **** }
 760              		.loc 2 232 5 is_stmt 1 view .LVU266
 232:lvgl/src/core/lv_obj_style_gen.h **** }
 761              		.loc 2 232 12 is_stmt 0 view .LVU267
 762 027a 0038     		subs	r0, r0, #0
 763 027c 18BF     		it	ne
 764 027e 0120     		movne	r0, #1
 765              	.LVL74:
 232:lvgl/src/core/lv_obj_style_gen.h **** }
 766              		.loc 2 232 12 view .LVU268
 767              	.LBE234:
 768              	.LBE233:
 113:lvgl/src/core/lv_obj_draw.c ****                 }
 769              		.loc 1 113 44 view .LVU269
 770 0280 84F82A00 		strb	r0, [r4, #42]
 771 0284 F0E6     		b	.L10
ARM GAS  C:\Users\OSD\AppData\Local\Temp\cc7WrW7h.s 			page 31


 772              	.L23:
 107:lvgl/src/core/lv_obj_draw.c ****                     draw_dsc->bg_img_recolor = lv_obj_get_style_text_color_filtered(obj, part);
 773              		.loc 1 107 21 is_stmt 1 view .LVU270
 774              	.LVL75:
 775              	.LBB235:
 776              	.LBI235:
 463:lvgl/src/core/lv_obj_style_gen.h **** {
 777              		.loc 2 463 33 view .LVU271
 778              	.LBB236:
 465:lvgl/src/core/lv_obj_style_gen.h ****     return (const lv_font_t *)v.ptr;
 779              		.loc 2 465 5 view .LVU272
 465:lvgl/src/core/lv_obj_style_gen.h ****     return (const lv_font_t *)v.ptr;
 780              		.loc 2 465 26 is_stmt 0 view .LVU273
 781 0286 5722     		movs	r2, #87
 782 0288 2946     		mov	r1, r5
 783 028a 3046     		mov	r0, r6
 784 028c FFF7FEFF 		bl	lv_obj_get_style_prop
 785              	.LVL76:
 466:lvgl/src/core/lv_obj_style_gen.h **** }
 786              		.loc 2 466 5 is_stmt 1 view .LVU274
 466:lvgl/src/core/lv_obj_style_gen.h **** }
 787              		.loc 2 466 5 is_stmt 0 view .LVU275
 788              	.LBE236:
 789              	.LBE235:
 107:lvgl/src/core/lv_obj_draw.c ****                     draw_dsc->bg_img_recolor = lv_obj_get_style_text_color_filtered(obj, part);
 790              		.loc 1 107 50 view .LVU276
 791 0290 2062     		str	r0, [r4, #32]
 108:lvgl/src/core/lv_obj_draw.c ****                 }
 792              		.loc 1 108 21 is_stmt 1 view .LVU277
 793              	.LVL77:
 794              	.LBB237:
 795              	.LBI237:
 451:lvgl/src/core/lv_obj_style_gen.h **** {
 796              		.loc 2 451 26 view .LVU278
 797              	.LBB238:
 453:lvgl/src/core/lv_obj_style_gen.h ****     return v.color;
 798              		.loc 2 453 5 view .LVU279
 453:lvgl/src/core/lv_obj_style_gen.h ****     return v.color;
 799              		.loc 2 453 26 is_stmt 0 view .LVU280
 800 0292 5522     		movs	r2, #85
 801 0294 2946     		mov	r1, r5
 802 0296 3046     		mov	r0, r6
 803 0298 FFF7FEFF 		bl	lv_obj_get_style_prop
 804              	.LVL78:
 805 029c 0246     		mov	r2, r0
 806 029e 2946     		mov	r1, r5
 807 02a0 3046     		mov	r0, r6
 808 02a2 FFF7FEFF 		bl	_lv_obj_style_apply_color_filter
 809              	.LVL79:
 454:lvgl/src/core/lv_obj_style_gen.h **** }
 810              		.loc 2 454 5 is_stmt 1 view .LVU281
 454:lvgl/src/core/lv_obj_style_gen.h **** }
 811              		.loc 2 454 5 is_stmt 0 view .LVU282
 812              	.LBE238:
 813              	.LBE237:
 108:lvgl/src/core/lv_obj_draw.c ****                 }
 814              		.loc 1 108 48 view .LVU283
ARM GAS  C:\Users\OSD\AppData\Local\Temp\cc7WrW7h.s 			page 32


 815 02a6 6062     		str	r0, [r4, #36]
 816 02a8 DEE6     		b	.L10
 817              	.LVL80:
 818              	.L20:
 120:lvgl/src/core/lv_obj_draw.c ****         if(draw_dsc->shadow_width) {
 819              		.loc 1 120 9 is_stmt 1 view .LVU284
 820              	.LBB239:
 821              	.LBI239:
 301:lvgl/src/core/lv_obj_style_gen.h **** {
 822              		.loc 2 301 26 view .LVU285
 823              	.LBB240:
 303:lvgl/src/core/lv_obj_style_gen.h ****     return (lv_coord_t)v.num;
 824              		.loc 2 303 5 view .LVU286
 303:lvgl/src/core/lv_obj_style_gen.h ****     return (lv_coord_t)v.num;
 825              		.loc 2 303 26 is_stmt 0 view .LVU287
 826 02aa 4022     		movs	r2, #64
 827 02ac 2946     		mov	r1, r5
 828 02ae 3046     		mov	r0, r6
 829              	.LVL81:
 303:lvgl/src/core/lv_obj_style_gen.h ****     return (lv_coord_t)v.num;
 830              		.loc 2 303 26 view .LVU288
 831 02b0 FFF7FEFF 		bl	lv_obj_get_style_prop
 832              	.LVL82:
 304:lvgl/src/core/lv_obj_style_gen.h **** }
 833              		.loc 2 304 5 is_stmt 1 view .LVU289
 304:lvgl/src/core/lv_obj_style_gen.h **** }
 834              		.loc 2 304 12 is_stmt 0 view .LVU290
 835 02b4 00B2     		sxth	r0, r0
 836              	.LVL83:
 304:lvgl/src/core/lv_obj_style_gen.h **** }
 837              		.loc 2 304 12 view .LVU291
 838              	.LBE240:
 839              	.LBE239:
 120:lvgl/src/core/lv_obj_draw.c ****         if(draw_dsc->shadow_width) {
 840              		.loc 1 120 32 view .LVU292
 841 02b6 A4F84400 		strh	r0, [r4, #68]	@ movhi
 121:lvgl/src/core/lv_obj_draw.c ****             if(draw_dsc->shadow_opa > LV_OPA_MIN) {
 842              		.loc 1 121 9 is_stmt 1 view .LVU293
 121:lvgl/src/core/lv_obj_draw.c ****             if(draw_dsc->shadow_opa > LV_OPA_MIN) {
 843              		.loc 1 121 11 is_stmt 0 view .LVU294
 844 02ba 0028     		cmp	r0, #0
 845 02bc 3FF4D9AE 		beq	.L12
 122:lvgl/src/core/lv_obj_draw.c ****                 draw_dsc->shadow_opa = lv_obj_get_style_shadow_opa(obj, part);
 846              		.loc 1 122 13 is_stmt 1 view .LVU295
 122:lvgl/src/core/lv_obj_draw.c ****                 draw_dsc->shadow_opa = lv_obj_get_style_shadow_opa(obj, part);
 847              		.loc 1 122 24 is_stmt 0 view .LVU296
 848 02c0 94F84C30 		ldrb	r3, [r4, #76]	@ zero_extendqisi2
 122:lvgl/src/core/lv_obj_draw.c ****                 draw_dsc->shadow_opa = lv_obj_get_style_shadow_opa(obj, part);
 849              		.loc 1 122 15 view .LVU297
 850 02c4 022B     		cmp	r3, #2
 851 02c6 7FF6D4AE 		bls	.L12
 123:lvgl/src/core/lv_obj_draw.c ****                 if(draw_dsc->shadow_opa > LV_OPA_MIN) {
 852              		.loc 1 123 17 is_stmt 1 view .LVU298
 853              	.LVL84:
 854              	.LBB241:
 855              	.LBI241:
 337:lvgl/src/core/lv_obj_style_gen.h **** {
ARM GAS  C:\Users\OSD\AppData\Local\Temp\cc7WrW7h.s 			page 33


 856              		.loc 2 337 24 view .LVU299
 857              	.LBB242:
 339:lvgl/src/core/lv_obj_style_gen.h ****     return (lv_opa_t)v.num;
 858              		.loc 2 339 5 view .LVU300
 339:lvgl/src/core/lv_obj_style_gen.h ****     return (lv_opa_t)v.num;
 859              		.loc 2 339 26 is_stmt 0 view .LVU301
 860 02ca 4522     		movs	r2, #69
 861 02cc 2946     		mov	r1, r5
 862 02ce 3046     		mov	r0, r6
 863 02d0 FFF7FEFF 		bl	lv_obj_get_style_prop
 864              	.LVL85:
 340:lvgl/src/core/lv_obj_style_gen.h **** }
 865              		.loc 2 340 5 is_stmt 1 view .LVU302
 340:lvgl/src/core/lv_obj_style_gen.h **** }
 866              		.loc 2 340 12 is_stmt 0 view .LVU303
 867 02d4 C0B2     		uxtb	r0, r0
 868              	.LVL86:
 340:lvgl/src/core/lv_obj_style_gen.h **** }
 869              		.loc 2 340 12 view .LVU304
 870              	.LBE242:
 871              	.LBE241:
 123:lvgl/src/core/lv_obj_draw.c ****                 if(draw_dsc->shadow_opa > LV_OPA_MIN) {
 872              		.loc 1 123 38 view .LVU305
 873 02d6 84F84C00 		strb	r0, [r4, #76]
 124:lvgl/src/core/lv_obj_draw.c ****                     draw_dsc->shadow_ofs_x = lv_obj_get_style_shadow_ofs_x(obj, part);
 874              		.loc 1 124 17 is_stmt 1 view .LVU306
 124:lvgl/src/core/lv_obj_draw.c ****                     draw_dsc->shadow_ofs_x = lv_obj_get_style_shadow_ofs_x(obj, part);
 875              		.loc 1 124 19 is_stmt 0 view .LVU307
 876 02da 0228     		cmp	r0, #2
 877 02dc 7FF6C9AE 		bls	.L12
 125:lvgl/src/core/lv_obj_draw.c ****                     draw_dsc->shadow_ofs_y = lv_obj_get_style_shadow_ofs_y(obj, part);
 878              		.loc 1 125 21 is_stmt 1 view .LVU308
 879              	.LVL87:
 880              	.LBB243:
 881              	.LBI243:
 307:lvgl/src/core/lv_obj_style_gen.h **** {
 882              		.loc 2 307 26 view .LVU309
 883              	.LBB244:
 309:lvgl/src/core/lv_obj_style_gen.h ****     return (lv_coord_t)v.num;
 884              		.loc 2 309 5 view .LVU310
 309:lvgl/src/core/lv_obj_style_gen.h ****     return (lv_coord_t)v.num;
 885              		.loc 2 309 26 is_stmt 0 view .LVU311
 886 02e0 4122     		movs	r2, #65
 887 02e2 2946     		mov	r1, r5
 888 02e4 3046     		mov	r0, r6
 889 02e6 FFF7FEFF 		bl	lv_obj_get_style_prop
 890              	.LVL88:
 310:lvgl/src/core/lv_obj_style_gen.h **** }
 891              		.loc 2 310 5 is_stmt 1 view .LVU312
 310:lvgl/src/core/lv_obj_style_gen.h **** }
 892              		.loc 2 310 5 is_stmt 0 view .LVU313
 893              	.LBE244:
 894              	.LBE243:
 125:lvgl/src/core/lv_obj_draw.c ****                     draw_dsc->shadow_ofs_y = lv_obj_get_style_shadow_ofs_y(obj, part);
 895              		.loc 1 125 44 view .LVU314
 896 02ea A4F84600 		strh	r0, [r4, #70]	@ movhi
 126:lvgl/src/core/lv_obj_draw.c ****                     draw_dsc->shadow_spread = lv_obj_get_style_shadow_spread(obj, part);
ARM GAS  C:\Users\OSD\AppData\Local\Temp\cc7WrW7h.s 			page 34


 897              		.loc 1 126 21 is_stmt 1 view .LVU315
 898              	.LVL89:
 899              	.LBB245:
 900              	.LBI245:
 313:lvgl/src/core/lv_obj_style_gen.h **** {
 901              		.loc 2 313 26 view .LVU316
 902              	.LBB246:
 315:lvgl/src/core/lv_obj_style_gen.h ****     return (lv_coord_t)v.num;
 903              		.loc 2 315 5 view .LVU317
 315:lvgl/src/core/lv_obj_style_gen.h ****     return (lv_coord_t)v.num;
 904              		.loc 2 315 26 is_stmt 0 view .LVU318
 905 02ee 4222     		movs	r2, #66
 906 02f0 2946     		mov	r1, r5
 907 02f2 3046     		mov	r0, r6
 908 02f4 FFF7FEFF 		bl	lv_obj_get_style_prop
 909              	.LVL90:
 316:lvgl/src/core/lv_obj_style_gen.h **** }
 910              		.loc 2 316 5 is_stmt 1 view .LVU319
 316:lvgl/src/core/lv_obj_style_gen.h **** }
 911              		.loc 2 316 5 is_stmt 0 view .LVU320
 912              	.LBE246:
 913              	.LBE245:
 126:lvgl/src/core/lv_obj_draw.c ****                     draw_dsc->shadow_spread = lv_obj_get_style_shadow_spread(obj, part);
 914              		.loc 1 126 44 view .LVU321
 915 02f8 A4F84800 		strh	r0, [r4, #72]	@ movhi
 127:lvgl/src/core/lv_obj_draw.c ****                     draw_dsc->shadow_color = lv_obj_get_style_shadow_color_filtered(obj, part);
 916              		.loc 1 127 21 is_stmt 1 view .LVU322
 917              	.LVL91:
 918              	.LBB247:
 919              	.LBI247:
 319:lvgl/src/core/lv_obj_style_gen.h **** {
 920              		.loc 2 319 26 view .LVU323
 921              	.LBB248:
 321:lvgl/src/core/lv_obj_style_gen.h ****     return (lv_coord_t)v.num;
 922              		.loc 2 321 5 view .LVU324
 321:lvgl/src/core/lv_obj_style_gen.h ****     return (lv_coord_t)v.num;
 923              		.loc 2 321 26 is_stmt 0 view .LVU325
 924 02fc 4322     		movs	r2, #67
 925 02fe 2946     		mov	r1, r5
 926 0300 3046     		mov	r0, r6
 927 0302 FFF7FEFF 		bl	lv_obj_get_style_prop
 928              	.LVL92:
 322:lvgl/src/core/lv_obj_style_gen.h **** }
 929              		.loc 2 322 5 is_stmt 1 view .LVU326
 322:lvgl/src/core/lv_obj_style_gen.h **** }
 930              		.loc 2 322 5 is_stmt 0 view .LVU327
 931              	.LBE248:
 932              	.LBE247:
 127:lvgl/src/core/lv_obj_draw.c ****                     draw_dsc->shadow_color = lv_obj_get_style_shadow_color_filtered(obj, part);
 933              		.loc 1 127 45 view .LVU328
 934 0306 A4F84A00 		strh	r0, [r4, #74]	@ movhi
 128:lvgl/src/core/lv_obj_draw.c ****                 }
 935              		.loc 1 128 21 is_stmt 1 view .LVU329
 936              	.LVL93:
 937              	.LBB249:
 938              	.LBI249:
 331:lvgl/src/core/lv_obj_style_gen.h **** {
ARM GAS  C:\Users\OSD\AppData\Local\Temp\cc7WrW7h.s 			page 35


 939              		.loc 2 331 26 view .LVU330
 940              	.LBB250:
 333:lvgl/src/core/lv_obj_style_gen.h ****     return v.color;
 941              		.loc 2 333 5 view .LVU331
 333:lvgl/src/core/lv_obj_style_gen.h ****     return v.color;
 942              		.loc 2 333 26 is_stmt 0 view .LVU332
 943 030a 4422     		movs	r2, #68
 944 030c 2946     		mov	r1, r5
 945 030e 3046     		mov	r0, r6
 946 0310 FFF7FEFF 		bl	lv_obj_get_style_prop
 947              	.LVL94:
 948 0314 0246     		mov	r2, r0
 949 0316 2946     		mov	r1, r5
 950 0318 3046     		mov	r0, r6
 951 031a FFF7FEFF 		bl	_lv_obj_style_apply_color_filter
 952              	.LVL95:
 334:lvgl/src/core/lv_obj_style_gen.h **** }
 953              		.loc 2 334 5 is_stmt 1 view .LVU333
 334:lvgl/src/core/lv_obj_style_gen.h **** }
 954              		.loc 2 334 5 is_stmt 0 view .LVU334
 955              	.LBE250:
 956              	.LBE249:
 128:lvgl/src/core/lv_obj_draw.c ****                 }
 957              		.loc 1 128 46 view .LVU335
 958 031e 2064     		str	r0, [r4, #64]
 959 0320 A7E6     		b	.L12
 960              		.cfi_endproc
 961              	.LFE167:
 963              		.section	.text.lv_obj_init_draw_label_dsc,"ax",%progbits
 964              		.align	1
 965              		.global	lv_obj_init_draw_label_dsc
 966              		.syntax unified
 967              		.thumb
 968              		.thumb_func
 970              	lv_obj_init_draw_label_dsc:
 971              	.LVL96:
 972              	.LFB168:
 190:lvgl/src/core/lv_obj_draw.c **** 
 191:lvgl/src/core/lv_obj_draw.c **** void lv_obj_init_draw_label_dsc(lv_obj_t * obj, uint32_t part, lv_draw_label_dsc_t * draw_dsc)
 192:lvgl/src/core/lv_obj_draw.c **** {
 973              		.loc 1 192 1 is_stmt 1 view -0
 974              		.cfi_startproc
 975              		@ args = 0, pretend = 0, frame = 0
 976              		@ frame_needed = 0, uses_anonymous_args = 0
 977              		.loc 1 192 1 is_stmt 0 view .LVU337
 978 0000 70B5     		push	{r4, r5, r6, lr}
 979              		.cfi_def_cfa_offset 16
 980              		.cfi_offset 4, -16
 981              		.cfi_offset 5, -12
 982              		.cfi_offset 6, -8
 983              		.cfi_offset 14, -4
 984 0002 0646     		mov	r6, r0
 985 0004 0D46     		mov	r5, r1
 986 0006 1446     		mov	r4, r2
 193:lvgl/src/core/lv_obj_draw.c ****     draw_dsc->opa = lv_obj_get_style_text_opa(obj, part);
 987              		.loc 1 193 5 is_stmt 1 view .LVU338
 988              	.LVL97:
ARM GAS  C:\Users\OSD\AppData\Local\Temp\cc7WrW7h.s 			page 36


 989              	.LBB267:
 990              	.LBI267:
 457:lvgl/src/core/lv_obj_style_gen.h **** {
 991              		.loc 2 457 24 view .LVU339
 992              	.LBB268:
 459:lvgl/src/core/lv_obj_style_gen.h ****     return (lv_opa_t)v.num;
 993              		.loc 2 459 5 view .LVU340
 459:lvgl/src/core/lv_obj_style_gen.h ****     return (lv_opa_t)v.num;
 994              		.loc 2 459 26 is_stmt 0 view .LVU341
 995 0008 5622     		movs	r2, #86
 996              	.LVL98:
 459:lvgl/src/core/lv_obj_style_gen.h ****     return (lv_opa_t)v.num;
 997              		.loc 2 459 26 view .LVU342
 998 000a FFF7FEFF 		bl	lv_obj_get_style_prop
 999              	.LVL99:
 460:lvgl/src/core/lv_obj_style_gen.h **** }
 1000              		.loc 2 460 5 is_stmt 1 view .LVU343
 460:lvgl/src/core/lv_obj_style_gen.h **** }
 1001              		.loc 2 460 12 is_stmt 0 view .LVU344
 1002 000e C3B2     		uxtb	r3, r0
 1003              	.LVL100:
 460:lvgl/src/core/lv_obj_style_gen.h **** }
 1004              		.loc 2 460 12 view .LVU345
 1005              	.LBE268:
 1006              	.LBE267:
 1007              		.loc 1 193 19 view .LVU346
 1008 0010 84F82030 		strb	r3, [r4, #32]
 194:lvgl/src/core/lv_obj_draw.c ****     if(draw_dsc->opa <= LV_OPA_MIN) return;
 1009              		.loc 1 194 5 is_stmt 1 view .LVU347
 1010              		.loc 1 194 7 is_stmt 0 view .LVU348
 1011 0014 022B     		cmp	r3, #2
 1012 0016 00D8     		bhi	.L30
 1013              	.L24:
 195:lvgl/src/core/lv_obj_draw.c **** 
 196:lvgl/src/core/lv_obj_draw.c ****     lv_opa_t opa = lv_obj_get_style_opa_recursive(obj, part);
 197:lvgl/src/core/lv_obj_draw.c ****     if(opa <= LV_OPA_MIN) {
 198:lvgl/src/core/lv_obj_draw.c ****         draw_dsc->opa = LV_OPA_TRANSP;
 199:lvgl/src/core/lv_obj_draw.c ****         return;
 200:lvgl/src/core/lv_obj_draw.c ****     }
 201:lvgl/src/core/lv_obj_draw.c ****     if(opa < LV_OPA_MAX) {
 202:lvgl/src/core/lv_obj_draw.c ****         draw_dsc->opa = (opa * draw_dsc->opa) >> 8;
 203:lvgl/src/core/lv_obj_draw.c ****     }
 204:lvgl/src/core/lv_obj_draw.c ****     if(draw_dsc->opa <= LV_OPA_MIN) return;
 205:lvgl/src/core/lv_obj_draw.c **** 
 206:lvgl/src/core/lv_obj_draw.c ****     draw_dsc->color = lv_obj_get_style_text_color_filtered(obj, part);
 207:lvgl/src/core/lv_obj_draw.c ****     draw_dsc->letter_space = lv_obj_get_style_text_letter_space(obj, part);
 208:lvgl/src/core/lv_obj_draw.c ****     draw_dsc->line_space = lv_obj_get_style_text_line_space(obj, part);
 209:lvgl/src/core/lv_obj_draw.c ****     draw_dsc->decor = lv_obj_get_style_text_decor(obj, part);
 210:lvgl/src/core/lv_obj_draw.c **** #if LV_DRAW_COMPLEX
 211:lvgl/src/core/lv_obj_draw.c ****     if(part != LV_PART_MAIN) draw_dsc->blend_mode = lv_obj_get_style_blend_mode(obj, part);
 212:lvgl/src/core/lv_obj_draw.c **** #endif
 213:lvgl/src/core/lv_obj_draw.c **** 
 214:lvgl/src/core/lv_obj_draw.c ****     draw_dsc->font = lv_obj_get_style_text_font(obj, part);
 215:lvgl/src/core/lv_obj_draw.c **** 
 216:lvgl/src/core/lv_obj_draw.c **** #if LV_USE_BIDI
 217:lvgl/src/core/lv_obj_draw.c ****     draw_dsc->bidi_dir = lv_obj_get_style_base_dir(obj, LV_PART_MAIN);
 218:lvgl/src/core/lv_obj_draw.c **** #endif
ARM GAS  C:\Users\OSD\AppData\Local\Temp\cc7WrW7h.s 			page 37


 219:lvgl/src/core/lv_obj_draw.c **** 
 220:lvgl/src/core/lv_obj_draw.c ****     draw_dsc->align = lv_obj_get_style_text_align(obj, part);
 221:lvgl/src/core/lv_obj_draw.c **** }
 1014              		.loc 1 221 1 view .LVU349
 1015 0018 70BD     		pop	{r4, r5, r6, pc}
 1016              	.LVL101:
 1017              	.L30:
 196:lvgl/src/core/lv_obj_draw.c ****     if(opa <= LV_OPA_MIN) {
 1018              		.loc 1 196 5 is_stmt 1 view .LVU350
 196:lvgl/src/core/lv_obj_draw.c ****     if(opa <= LV_OPA_MIN) {
 1019              		.loc 1 196 20 is_stmt 0 view .LVU351
 1020 001a 2946     		mov	r1, r5
 1021 001c 3046     		mov	r0, r6
 1022 001e FFF7FEFF 		bl	lv_obj_get_style_opa_recursive
 1023              	.LVL102:
 197:lvgl/src/core/lv_obj_draw.c ****         draw_dsc->opa = LV_OPA_TRANSP;
 1024              		.loc 1 197 5 is_stmt 1 view .LVU352
 197:lvgl/src/core/lv_obj_draw.c ****         draw_dsc->opa = LV_OPA_TRANSP;
 1025              		.loc 1 197 7 is_stmt 0 view .LVU353
 1026 0022 0228     		cmp	r0, #2
 1027 0024 3DD9     		bls	.L31
 201:lvgl/src/core/lv_obj_draw.c ****         draw_dsc->opa = (opa * draw_dsc->opa) >> 8;
 1028              		.loc 1 201 5 is_stmt 1 view .LVU354
 201:lvgl/src/core/lv_obj_draw.c ****         draw_dsc->opa = (opa * draw_dsc->opa) >> 8;
 1029              		.loc 1 201 7 is_stmt 0 view .LVU355
 1030 0026 FC28     		cmp	r0, #252
 1031 0028 06D8     		bhi	.L27
 202:lvgl/src/core/lv_obj_draw.c ****     }
 1032              		.loc 1 202 9 is_stmt 1 view .LVU356
 202:lvgl/src/core/lv_obj_draw.c ****     }
 1033              		.loc 1 202 40 is_stmt 0 view .LVU357
 1034 002a 94F82030 		ldrb	r3, [r4, #32]	@ zero_extendqisi2
 202:lvgl/src/core/lv_obj_draw.c ****     }
 1035              		.loc 1 202 30 view .LVU358
 1036 002e 03FB00F0 		mul	r0, r3, r0
 1037              	.LVL103:
 202:lvgl/src/core/lv_obj_draw.c ****     }
 1038              		.loc 1 202 47 view .LVU359
 1039 0032 0012     		asrs	r0, r0, #8
 202:lvgl/src/core/lv_obj_draw.c ****     }
 1040              		.loc 1 202 23 view .LVU360
 1041 0034 84F82000 		strb	r0, [r4, #32]
 1042              	.L27:
 204:lvgl/src/core/lv_obj_draw.c **** 
 1043              		.loc 1 204 5 is_stmt 1 view .LVU361
 204:lvgl/src/core/lv_obj_draw.c **** 
 1044              		.loc 1 204 16 is_stmt 0 view .LVU362
 1045 0038 94F82030 		ldrb	r3, [r4, #32]	@ zero_extendqisi2
 204:lvgl/src/core/lv_obj_draw.c **** 
 1046              		.loc 1 204 7 view .LVU363
 1047 003c 022B     		cmp	r3, #2
 1048 003e EBD9     		bls	.L24
 206:lvgl/src/core/lv_obj_draw.c ****     draw_dsc->letter_space = lv_obj_get_style_text_letter_space(obj, part);
 1049              		.loc 1 206 5 is_stmt 1 view .LVU364
 1050              	.LVL104:
 1051              	.LBB269:
 1052              	.LBI269:
ARM GAS  C:\Users\OSD\AppData\Local\Temp\cc7WrW7h.s 			page 38


 451:lvgl/src/core/lv_obj_style_gen.h **** {
 1053              		.loc 2 451 26 view .LVU365
 1054              	.LBB270:
 453:lvgl/src/core/lv_obj_style_gen.h ****     return v.color;
 1055              		.loc 2 453 5 view .LVU366
 453:lvgl/src/core/lv_obj_style_gen.h ****     return v.color;
 1056              		.loc 2 453 26 is_stmt 0 view .LVU367
 1057 0040 5522     		movs	r2, #85
 1058 0042 2946     		mov	r1, r5
 1059 0044 3046     		mov	r0, r6
 1060 0046 FFF7FEFF 		bl	lv_obj_get_style_prop
 1061              	.LVL105:
 1062 004a 0246     		mov	r2, r0
 1063 004c 2946     		mov	r1, r5
 1064 004e 3046     		mov	r0, r6
 1065 0050 FFF7FEFF 		bl	_lv_obj_style_apply_color_filter
 1066              	.LVL106:
 454:lvgl/src/core/lv_obj_style_gen.h **** }
 1067              		.loc 2 454 5 is_stmt 1 view .LVU368
 454:lvgl/src/core/lv_obj_style_gen.h **** }
 1068              		.loc 2 454 5 is_stmt 0 view .LVU369
 1069              	.LBE270:
 1070              	.LBE269:
 206:lvgl/src/core/lv_obj_draw.c ****     draw_dsc->letter_space = lv_obj_get_style_text_letter_space(obj, part);
 1071              		.loc 1 206 23 view .LVU370
 1072 0054 E060     		str	r0, [r4, #12]
 207:lvgl/src/core/lv_obj_draw.c ****     draw_dsc->line_space = lv_obj_get_style_text_line_space(obj, part);
 1073              		.loc 1 207 5 is_stmt 1 view .LVU371
 1074              	.LVL107:
 1075              	.LBB271:
 1076              	.LBI271:
 469:lvgl/src/core/lv_obj_style_gen.h **** {
 1077              		.loc 2 469 26 view .LVU372
 1078              	.LBB272:
 471:lvgl/src/core/lv_obj_style_gen.h ****     return (lv_coord_t)v.num;
 1079              		.loc 2 471 5 view .LVU373
 471:lvgl/src/core/lv_obj_style_gen.h ****     return (lv_coord_t)v.num;
 1080              		.loc 2 471 26 is_stmt 0 view .LVU374
 1081 0056 5822     		movs	r2, #88
 1082 0058 2946     		mov	r1, r5
 1083 005a 3046     		mov	r0, r6
 1084 005c FFF7FEFF 		bl	lv_obj_get_style_prop
 1085              	.LVL108:
 472:lvgl/src/core/lv_obj_style_gen.h **** }
 1086              		.loc 2 472 5 is_stmt 1 view .LVU375
 472:lvgl/src/core/lv_obj_style_gen.h **** }
 1087              		.loc 2 472 5 is_stmt 0 view .LVU376
 1088              	.LBE272:
 1089              	.LBE271:
 207:lvgl/src/core/lv_obj_draw.c ****     draw_dsc->line_space = lv_obj_get_style_text_line_space(obj, part);
 1090              		.loc 1 207 28 view .LVU377
 1091 0060 6083     		strh	r0, [r4, #26]	@ movhi
 208:lvgl/src/core/lv_obj_draw.c ****     draw_dsc->decor = lv_obj_get_style_text_decor(obj, part);
 1092              		.loc 1 208 5 is_stmt 1 view .LVU378
 1093              	.LVL109:
 1094              	.LBB273:
 1095              	.LBI273:
ARM GAS  C:\Users\OSD\AppData\Local\Temp\cc7WrW7h.s 			page 39


 475:lvgl/src/core/lv_obj_style_gen.h **** {
 1096              		.loc 2 475 26 view .LVU379
 1097              	.LBB274:
 477:lvgl/src/core/lv_obj_style_gen.h ****     return (lv_coord_t)v.num;
 1098              		.loc 2 477 5 view .LVU380
 477:lvgl/src/core/lv_obj_style_gen.h ****     return (lv_coord_t)v.num;
 1099              		.loc 2 477 26 is_stmt 0 view .LVU381
 1100 0062 5922     		movs	r2, #89
 1101 0064 2946     		mov	r1, r5
 1102 0066 3046     		mov	r0, r6
 1103 0068 FFF7FEFF 		bl	lv_obj_get_style_prop
 1104              	.LVL110:
 478:lvgl/src/core/lv_obj_style_gen.h **** }
 1105              		.loc 2 478 5 is_stmt 1 view .LVU382
 478:lvgl/src/core/lv_obj_style_gen.h **** }
 1106              		.loc 2 478 5 is_stmt 0 view .LVU383
 1107              	.LBE274:
 1108              	.LBE273:
 208:lvgl/src/core/lv_obj_draw.c ****     draw_dsc->decor = lv_obj_get_style_text_decor(obj, part);
 1109              		.loc 1 208 26 view .LVU384
 1110 006c 2083     		strh	r0, [r4, #24]	@ movhi
 209:lvgl/src/core/lv_obj_draw.c **** #if LV_DRAW_COMPLEX
 1111              		.loc 1 209 5 is_stmt 1 view .LVU385
 1112              	.LVL111:
 1113              	.LBB275:
 1114              	.LBI275:
 481:lvgl/src/core/lv_obj_style_gen.h **** {
 1115              		.loc 2 481 31 view .LVU386
 1116              	.LBB276:
 483:lvgl/src/core/lv_obj_style_gen.h ****     return (lv_text_decor_t)v.num;
 1117              		.loc 2 483 5 view .LVU387
 483:lvgl/src/core/lv_obj_style_gen.h ****     return (lv_text_decor_t)v.num;
 1118              		.loc 2 483 26 is_stmt 0 view .LVU388
 1119 006e 5A22     		movs	r2, #90
 1120 0070 2946     		mov	r1, r5
 1121 0072 3046     		mov	r0, r6
 1122 0074 FFF7FEFF 		bl	lv_obj_get_style_prop
 1123              	.LVL112:
 484:lvgl/src/core/lv_obj_style_gen.h **** }
 1124              		.loc 2 484 5 is_stmt 1 view .LVU389
 484:lvgl/src/core/lv_obj_style_gen.h **** }
 1125              		.loc 2 484 5 is_stmt 0 view .LVU390
 1126              	.LBE276:
 1127              	.LBE275:
 209:lvgl/src/core/lv_obj_draw.c **** #if LV_DRAW_COMPLEX
 1128              		.loc 1 209 21 view .LVU391
 1129 0078 94F82430 		ldrb	r3, [r4, #36]	@ zero_extendqisi2
 1130 007c 60F30203 		bfi	r3, r0, #0, #3
 1131 0080 84F82430 		strb	r3, [r4, #36]
 211:lvgl/src/core/lv_obj_draw.c **** #endif
 1132              		.loc 1 211 5 is_stmt 1 view .LVU392
 211:lvgl/src/core/lv_obj_draw.c **** #endif
 1133              		.loc 1 211 7 is_stmt 0 view .LVU393
 1134 0084 8DB9     		cbnz	r5, .L32
 1135              	.L28:
 214:lvgl/src/core/lv_obj_draw.c **** 
 1136              		.loc 1 214 5 is_stmt 1 view .LVU394
ARM GAS  C:\Users\OSD\AppData\Local\Temp\cc7WrW7h.s 			page 40


 1137              	.LVL113:
 1138              	.LBB277:
 1139              	.LBI277:
 463:lvgl/src/core/lv_obj_style_gen.h **** {
 1140              		.loc 2 463 33 view .LVU395
 1141              	.LBB278:
 465:lvgl/src/core/lv_obj_style_gen.h ****     return (const lv_font_t *)v.ptr;
 1142              		.loc 2 465 5 view .LVU396
 465:lvgl/src/core/lv_obj_style_gen.h ****     return (const lv_font_t *)v.ptr;
 1143              		.loc 2 465 26 is_stmt 0 view .LVU397
 1144 0086 5722     		movs	r2, #87
 1145 0088 2946     		mov	r1, r5
 1146 008a 3046     		mov	r0, r6
 1147 008c FFF7FEFF 		bl	lv_obj_get_style_prop
 1148              	.LVL114:
 466:lvgl/src/core/lv_obj_style_gen.h **** }
 1149              		.loc 2 466 5 is_stmt 1 view .LVU398
 466:lvgl/src/core/lv_obj_style_gen.h **** }
 1150              		.loc 2 466 5 is_stmt 0 view .LVU399
 1151              	.LBE278:
 1152              	.LBE277:
 214:lvgl/src/core/lv_obj_draw.c **** 
 1153              		.loc 1 214 20 view .LVU400
 1154 0090 2060     		str	r0, [r4]
 220:lvgl/src/core/lv_obj_draw.c **** }
 1155              		.loc 1 220 5 is_stmt 1 view .LVU401
 1156              	.LVL115:
 1157              	.LBB279:
 1158              	.LBI279:
 487:lvgl/src/core/lv_obj_style_gen.h **** {
 1159              		.loc 2 487 31 view .LVU402
 1160              	.LBB280:
 489:lvgl/src/core/lv_obj_style_gen.h ****     return (lv_text_align_t)v.num;
 1161              		.loc 2 489 5 view .LVU403
 489:lvgl/src/core/lv_obj_style_gen.h ****     return (lv_text_align_t)v.num;
 1162              		.loc 2 489 26 is_stmt 0 view .LVU404
 1163 0092 5B22     		movs	r2, #91
 1164 0094 2946     		mov	r1, r5
 1165 0096 3046     		mov	r0, r6
 1166 0098 FFF7FEFF 		bl	lv_obj_get_style_prop
 1167              	.LVL116:
 490:lvgl/src/core/lv_obj_style_gen.h **** }
 1168              		.loc 2 490 5 is_stmt 1 view .LVU405
 490:lvgl/src/core/lv_obj_style_gen.h **** }
 1169              		.loc 2 490 5 is_stmt 0 view .LVU406
 1170              	.LBE280:
 1171              	.LBE279:
 220:lvgl/src/core/lv_obj_draw.c **** }
 1172              		.loc 1 220 21 view .LVU407
 1173 009c 84F82200 		strb	r0, [r4, #34]
 1174 00a0 BAE7     		b	.L24
 1175              	.LVL117:
 1176              	.L31:
 198:lvgl/src/core/lv_obj_draw.c ****         return;
 1177              		.loc 1 198 9 is_stmt 1 view .LVU408
 198:lvgl/src/core/lv_obj_draw.c ****         return;
 1178              		.loc 1 198 23 is_stmt 0 view .LVU409
ARM GAS  C:\Users\OSD\AppData\Local\Temp\cc7WrW7h.s 			page 41


 1179 00a2 0023     		movs	r3, #0
 1180 00a4 84F82030 		strb	r3, [r4, #32]
 199:lvgl/src/core/lv_obj_draw.c ****     }
 1181              		.loc 1 199 9 is_stmt 1 view .LVU410
 1182 00a8 B6E7     		b	.L24
 1183              	.LVL118:
 1184              	.L32:
 211:lvgl/src/core/lv_obj_draw.c **** #endif
 1185              		.loc 1 211 30 view .LVU411
 1186              	.LBB281:
 1187              	.LBI281:
 553:lvgl/src/core/lv_obj_style_gen.h **** {
 1188              		.loc 2 553 31 view .LVU412
 1189              	.LBB282:
 555:lvgl/src/core/lv_obj_style_gen.h ****     return (lv_blend_mode_t)v.num;
 1190              		.loc 2 555 5 view .LVU413
 555:lvgl/src/core/lv_obj_style_gen.h ****     return (lv_blend_mode_t)v.num;
 1191              		.loc 2 555 26 is_stmt 0 view .LVU414
 1192 00aa 6822     		movs	r2, #104
 1193 00ac 2946     		mov	r1, r5
 1194 00ae 3046     		mov	r0, r6
 1195 00b0 FFF7FEFF 		bl	lv_obj_get_style_prop
 1196              	.LVL119:
 1197              		.loc 2 556 5 is_stmt 1 view .LVU415
 1198              		.loc 2 556 5 is_stmt 0 view .LVU416
 1199              	.LBE282:
 1200              	.LBE281:
 211:lvgl/src/core/lv_obj_draw.c **** #endif
 1201              		.loc 1 211 51 view .LVU417
 1202 00b4 94F82430 		ldrb	r3, [r4, #36]	@ zero_extendqisi2
 1203 00b8 60F3C503 		bfi	r3, r0, #3, #3
 1204 00bc 84F82430 		strb	r3, [r4, #36]
 1205 00c0 E1E7     		b	.L28
 1206              		.cfi_endproc
 1207              	.LFE168:
 1209              		.section	.text.lv_obj_init_draw_img_dsc,"ax",%progbits
 1210              		.align	1
 1211              		.global	lv_obj_init_draw_img_dsc
 1212              		.syntax unified
 1213              		.thumb
 1214              		.thumb_func
 1216              	lv_obj_init_draw_img_dsc:
 1217              	.LVL120:
 1218              	.LFB169:
 222:lvgl/src/core/lv_obj_draw.c **** 
 223:lvgl/src/core/lv_obj_draw.c **** void lv_obj_init_draw_img_dsc(lv_obj_t * obj, uint32_t part, lv_draw_img_dsc_t * draw_dsc)
 224:lvgl/src/core/lv_obj_draw.c **** {
 1219              		.loc 1 224 1 is_stmt 1 view -0
 1220              		.cfi_startproc
 1221              		@ args = 0, pretend = 0, frame = 0
 1222              		@ frame_needed = 0, uses_anonymous_args = 0
 1223              		.loc 1 224 1 is_stmt 0 view .LVU419
 1224 0000 70B5     		push	{r4, r5, r6, lr}
 1225              		.cfi_def_cfa_offset 16
 1226              		.cfi_offset 4, -16
 1227              		.cfi_offset 5, -12
 1228              		.cfi_offset 6, -8
ARM GAS  C:\Users\OSD\AppData\Local\Temp\cc7WrW7h.s 			page 42


 1229              		.cfi_offset 14, -4
 1230 0002 0546     		mov	r5, r0
 1231 0004 0E46     		mov	r6, r1
 1232 0006 1446     		mov	r4, r2
 225:lvgl/src/core/lv_obj_draw.c ****     draw_dsc->opa = lv_obj_get_style_img_opa(obj, part);
 1233              		.loc 1 225 5 is_stmt 1 view .LVU420
 1234              	.LVL121:
 1235              	.LBB295:
 1236              	.LBI295:
 343:lvgl/src/core/lv_obj_style_gen.h **** {
 1237              		.loc 2 343 24 view .LVU421
 1238              	.LBB296:
 345:lvgl/src/core/lv_obj_style_gen.h ****     return (lv_opa_t)v.num;
 1239              		.loc 2 345 5 view .LVU422
 345:lvgl/src/core/lv_obj_style_gen.h ****     return (lv_opa_t)v.num;
 1240              		.loc 2 345 26 is_stmt 0 view .LVU423
 1241 0008 4622     		movs	r2, #70
 1242              	.LVL122:
 345:lvgl/src/core/lv_obj_style_gen.h ****     return (lv_opa_t)v.num;
 1243              		.loc 2 345 26 view .LVU424
 1244 000a FFF7FEFF 		bl	lv_obj_get_style_prop
 1245              	.LVL123:
 346:lvgl/src/core/lv_obj_style_gen.h **** }
 1246              		.loc 2 346 5 is_stmt 1 view .LVU425
 346:lvgl/src/core/lv_obj_style_gen.h **** }
 1247              		.loc 2 346 12 is_stmt 0 view .LVU426
 1248 000e C3B2     		uxtb	r3, r0
 1249              	.LVL124:
 346:lvgl/src/core/lv_obj_style_gen.h **** }
 1250              		.loc 2 346 12 view .LVU427
 1251              	.LBE296:
 1252              	.LBE295:
 1253              		.loc 1 225 19 view .LVU428
 1254 0010 6373     		strb	r3, [r4, #13]
 226:lvgl/src/core/lv_obj_draw.c ****     if(draw_dsc->opa <= LV_OPA_MIN) return;
 1255              		.loc 1 226 5 is_stmt 1 view .LVU429
 1256              		.loc 1 226 7 is_stmt 0 view .LVU430
 1257 0012 022B     		cmp	r3, #2
 1258 0014 00D8     		bhi	.L41
 1259              	.L33:
 227:lvgl/src/core/lv_obj_draw.c **** 
 228:lvgl/src/core/lv_obj_draw.c ****     lv_opa_t opa = lv_obj_get_style_opa_recursive(obj, part);
 229:lvgl/src/core/lv_obj_draw.c ****     if(opa <= LV_OPA_MIN) {
 230:lvgl/src/core/lv_obj_draw.c ****         draw_dsc->opa = LV_OPA_TRANSP;
 231:lvgl/src/core/lv_obj_draw.c ****         return;
 232:lvgl/src/core/lv_obj_draw.c ****     }
 233:lvgl/src/core/lv_obj_draw.c ****     if(opa < LV_OPA_MAX) {
 234:lvgl/src/core/lv_obj_draw.c ****         draw_dsc->opa = (opa * draw_dsc->opa) >> 8;
 235:lvgl/src/core/lv_obj_draw.c ****     }
 236:lvgl/src/core/lv_obj_draw.c ****     if(draw_dsc->opa <= LV_OPA_MIN) return;
 237:lvgl/src/core/lv_obj_draw.c **** 
 238:lvgl/src/core/lv_obj_draw.c ****     draw_dsc->angle = 0;
 239:lvgl/src/core/lv_obj_draw.c ****     draw_dsc->zoom = LV_IMG_ZOOM_NONE;
 240:lvgl/src/core/lv_obj_draw.c ****     draw_dsc->pivot.x = lv_area_get_width(&obj->coords) / 2;
 241:lvgl/src/core/lv_obj_draw.c ****     draw_dsc->pivot.y = lv_area_get_height(&obj->coords) / 2;
 242:lvgl/src/core/lv_obj_draw.c **** 
 243:lvgl/src/core/lv_obj_draw.c ****     draw_dsc->recolor_opa = lv_obj_get_style_img_recolor_opa(obj, part);
ARM GAS  C:\Users\OSD\AppData\Local\Temp\cc7WrW7h.s 			page 43


 244:lvgl/src/core/lv_obj_draw.c ****     if(draw_dsc->recolor_opa > 0) {
 245:lvgl/src/core/lv_obj_draw.c ****         draw_dsc->recolor = lv_obj_get_style_img_recolor_filtered(obj, part);
 246:lvgl/src/core/lv_obj_draw.c ****     }
 247:lvgl/src/core/lv_obj_draw.c **** #if LV_DRAW_COMPLEX
 248:lvgl/src/core/lv_obj_draw.c ****     if(part != LV_PART_MAIN) draw_dsc->blend_mode = lv_obj_get_style_blend_mode(obj, part);
 249:lvgl/src/core/lv_obj_draw.c **** #endif
 250:lvgl/src/core/lv_obj_draw.c **** }
 1260              		.loc 1 250 1 view .LVU431
 1261 0016 70BD     		pop	{r4, r5, r6, pc}
 1262              	.LVL125:
 1263              	.L41:
 228:lvgl/src/core/lv_obj_draw.c ****     if(opa <= LV_OPA_MIN) {
 1264              		.loc 1 228 5 is_stmt 1 view .LVU432
 228:lvgl/src/core/lv_obj_draw.c ****     if(opa <= LV_OPA_MIN) {
 1265              		.loc 1 228 20 is_stmt 0 view .LVU433
 1266 0018 3146     		mov	r1, r6
 1267 001a 2846     		mov	r0, r5
 1268 001c FFF7FEFF 		bl	lv_obj_get_style_opa_recursive
 1269              	.LVL126:
 229:lvgl/src/core/lv_obj_draw.c ****         draw_dsc->opa = LV_OPA_TRANSP;
 1270              		.loc 1 229 5 is_stmt 1 view .LVU434
 229:lvgl/src/core/lv_obj_draw.c ****         draw_dsc->opa = LV_OPA_TRANSP;
 1271              		.loc 1 229 7 is_stmt 0 view .LVU435
 1272 0020 0228     		cmp	r0, #2
 1273 0022 36D9     		bls	.L42
 233:lvgl/src/core/lv_obj_draw.c ****         draw_dsc->opa = (opa * draw_dsc->opa) >> 8;
 1274              		.loc 1 233 5 is_stmt 1 view .LVU436
 233:lvgl/src/core/lv_obj_draw.c ****         draw_dsc->opa = (opa * draw_dsc->opa) >> 8;
 1275              		.loc 1 233 7 is_stmt 0 view .LVU437
 1276 0024 FC28     		cmp	r0, #252
 1277 0026 04D8     		bhi	.L36
 234:lvgl/src/core/lv_obj_draw.c ****     }
 1278              		.loc 1 234 9 is_stmt 1 view .LVU438
 234:lvgl/src/core/lv_obj_draw.c ****     }
 1279              		.loc 1 234 40 is_stmt 0 view .LVU439
 1280 0028 637B     		ldrb	r3, [r4, #13]	@ zero_extendqisi2
 234:lvgl/src/core/lv_obj_draw.c ****     }
 1281              		.loc 1 234 30 view .LVU440
 1282 002a 03FB00F0 		mul	r0, r3, r0
 1283              	.LVL127:
 234:lvgl/src/core/lv_obj_draw.c ****     }
 1284              		.loc 1 234 47 view .LVU441
 1285 002e 0012     		asrs	r0, r0, #8
 234:lvgl/src/core/lv_obj_draw.c ****     }
 1286              		.loc 1 234 23 view .LVU442
 1287 0030 6073     		strb	r0, [r4, #13]
 1288              	.L36:
 236:lvgl/src/core/lv_obj_draw.c **** 
 1289              		.loc 1 236 5 is_stmt 1 view .LVU443
 236:lvgl/src/core/lv_obj_draw.c **** 
 1290              		.loc 1 236 16 is_stmt 0 view .LVU444
 1291 0032 637B     		ldrb	r3, [r4, #13]	@ zero_extendqisi2
 236:lvgl/src/core/lv_obj_draw.c **** 
 1292              		.loc 1 236 7 view .LVU445
 1293 0034 022B     		cmp	r3, #2
 1294 0036 EED9     		bls	.L33
 238:lvgl/src/core/lv_obj_draw.c ****     draw_dsc->zoom = LV_IMG_ZOOM_NONE;
ARM GAS  C:\Users\OSD\AppData\Local\Temp\cc7WrW7h.s 			page 44


 1295              		.loc 1 238 5 is_stmt 1 view .LVU446
 238:lvgl/src/core/lv_obj_draw.c ****     draw_dsc->zoom = LV_IMG_ZOOM_NONE;
 1296              		.loc 1 238 21 is_stmt 0 view .LVU447
 1297 0038 0023     		movs	r3, #0
 1298 003a 2380     		strh	r3, [r4]	@ movhi
 239:lvgl/src/core/lv_obj_draw.c ****     draw_dsc->pivot.x = lv_area_get_width(&obj->coords) / 2;
 1299              		.loc 1 239 5 is_stmt 1 view .LVU448
 239:lvgl/src/core/lv_obj_draw.c ****     draw_dsc->pivot.x = lv_area_get_width(&obj->coords) / 2;
 1300              		.loc 1 239 20 is_stmt 0 view .LVU449
 1301 003c 4FF48073 		mov	r3, #256
 1302 0040 6380     		strh	r3, [r4, #2]	@ movhi
 240:lvgl/src/core/lv_obj_draw.c ****     draw_dsc->pivot.y = lv_area_get_height(&obj->coords) / 2;
 1303              		.loc 1 240 5 is_stmt 1 view .LVU450
 1304              	.LVL128:
 1305              	.LBB297:
 1306              	.LBI297:
 1307              		.file 3 "d:\\kzc\\stm32\\h743ii_lcd\\lvgl\\src\\misc\\lv_area.h"
   1:d:\kzc\stm32\h743ii_lcd\lvgl\src\misc\lv_area.h **** /**
   2:d:\kzc\stm32\h743ii_lcd\lvgl\src\misc\lv_area.h ****  * @file lv_area.h
   3:d:\kzc\stm32\h743ii_lcd\lvgl\src\misc\lv_area.h ****  *
   4:d:\kzc\stm32\h743ii_lcd\lvgl\src\misc\lv_area.h ****  */
   5:d:\kzc\stm32\h743ii_lcd\lvgl\src\misc\lv_area.h **** 
   6:d:\kzc\stm32\h743ii_lcd\lvgl\src\misc\lv_area.h **** #ifndef LV_AREA_H
   7:d:\kzc\stm32\h743ii_lcd\lvgl\src\misc\lv_area.h **** #define LV_AREA_H
   8:d:\kzc\stm32\h743ii_lcd\lvgl\src\misc\lv_area.h **** 
   9:d:\kzc\stm32\h743ii_lcd\lvgl\src\misc\lv_area.h **** #ifdef __cplusplus
  10:d:\kzc\stm32\h743ii_lcd\lvgl\src\misc\lv_area.h **** extern "C" {
  11:d:\kzc\stm32\h743ii_lcd\lvgl\src\misc\lv_area.h **** #endif
  12:d:\kzc\stm32\h743ii_lcd\lvgl\src\misc\lv_area.h **** 
  13:d:\kzc\stm32\h743ii_lcd\lvgl\src\misc\lv_area.h **** /*********************
  14:d:\kzc\stm32\h743ii_lcd\lvgl\src\misc\lv_area.h ****  *      INCLUDES
  15:d:\kzc\stm32\h743ii_lcd\lvgl\src\misc\lv_area.h ****  *********************/
  16:d:\kzc\stm32\h743ii_lcd\lvgl\src\misc\lv_area.h **** #include "../lv_conf_internal.h"
  17:d:\kzc\stm32\h743ii_lcd\lvgl\src\misc\lv_area.h **** #include <stdbool.h>
  18:d:\kzc\stm32\h743ii_lcd\lvgl\src\misc\lv_area.h **** #include <stdint.h>
  19:d:\kzc\stm32\h743ii_lcd\lvgl\src\misc\lv_area.h **** 
  20:d:\kzc\stm32\h743ii_lcd\lvgl\src\misc\lv_area.h **** /*********************
  21:d:\kzc\stm32\h743ii_lcd\lvgl\src\misc\lv_area.h ****  *      DEFINES
  22:d:\kzc\stm32\h743ii_lcd\lvgl\src\misc\lv_area.h ****  *********************/
  23:d:\kzc\stm32\h743ii_lcd\lvgl\src\misc\lv_area.h **** 
  24:d:\kzc\stm32\h743ii_lcd\lvgl\src\misc\lv_area.h **** #if LV_USE_LARGE_COORD
  25:d:\kzc\stm32\h743ii_lcd\lvgl\src\misc\lv_area.h **** typedef int32_t lv_coord_t;
  26:d:\kzc\stm32\h743ii_lcd\lvgl\src\misc\lv_area.h **** #else
  27:d:\kzc\stm32\h743ii_lcd\lvgl\src\misc\lv_area.h **** typedef int16_t lv_coord_t;
  28:d:\kzc\stm32\h743ii_lcd\lvgl\src\misc\lv_area.h **** #endif
  29:d:\kzc\stm32\h743ii_lcd\lvgl\src\misc\lv_area.h **** 
  30:d:\kzc\stm32\h743ii_lcd\lvgl\src\misc\lv_area.h **** /**********************
  31:d:\kzc\stm32\h743ii_lcd\lvgl\src\misc\lv_area.h ****  *      TYPEDEFS
  32:d:\kzc\stm32\h743ii_lcd\lvgl\src\misc\lv_area.h ****  **********************/
  33:d:\kzc\stm32\h743ii_lcd\lvgl\src\misc\lv_area.h **** 
  34:d:\kzc\stm32\h743ii_lcd\lvgl\src\misc\lv_area.h **** /**
  35:d:\kzc\stm32\h743ii_lcd\lvgl\src\misc\lv_area.h ****  * Represents a point on the screen.
  36:d:\kzc\stm32\h743ii_lcd\lvgl\src\misc\lv_area.h ****  */
  37:d:\kzc\stm32\h743ii_lcd\lvgl\src\misc\lv_area.h **** typedef struct {
  38:d:\kzc\stm32\h743ii_lcd\lvgl\src\misc\lv_area.h ****     lv_coord_t x;
  39:d:\kzc\stm32\h743ii_lcd\lvgl\src\misc\lv_area.h ****     lv_coord_t y;
  40:d:\kzc\stm32\h743ii_lcd\lvgl\src\misc\lv_area.h **** } lv_point_t;
ARM GAS  C:\Users\OSD\AppData\Local\Temp\cc7WrW7h.s 			page 45


  41:d:\kzc\stm32\h743ii_lcd\lvgl\src\misc\lv_area.h **** 
  42:d:\kzc\stm32\h743ii_lcd\lvgl\src\misc\lv_area.h **** /** Represents an area of the screen.*/
  43:d:\kzc\stm32\h743ii_lcd\lvgl\src\misc\lv_area.h **** typedef struct {
  44:d:\kzc\stm32\h743ii_lcd\lvgl\src\misc\lv_area.h ****     lv_coord_t x1;
  45:d:\kzc\stm32\h743ii_lcd\lvgl\src\misc\lv_area.h ****     lv_coord_t y1;
  46:d:\kzc\stm32\h743ii_lcd\lvgl\src\misc\lv_area.h ****     lv_coord_t x2;
  47:d:\kzc\stm32\h743ii_lcd\lvgl\src\misc\lv_area.h ****     lv_coord_t y2;
  48:d:\kzc\stm32\h743ii_lcd\lvgl\src\misc\lv_area.h **** } lv_area_t;
  49:d:\kzc\stm32\h743ii_lcd\lvgl\src\misc\lv_area.h **** 
  50:d:\kzc\stm32\h743ii_lcd\lvgl\src\misc\lv_area.h **** /** Alignments*/
  51:d:\kzc\stm32\h743ii_lcd\lvgl\src\misc\lv_area.h **** enum {
  52:d:\kzc\stm32\h743ii_lcd\lvgl\src\misc\lv_area.h ****     LV_ALIGN_DEFAULT = 0,
  53:d:\kzc\stm32\h743ii_lcd\lvgl\src\misc\lv_area.h ****     LV_ALIGN_TOP_LEFT,
  54:d:\kzc\stm32\h743ii_lcd\lvgl\src\misc\lv_area.h ****     LV_ALIGN_TOP_MID,
  55:d:\kzc\stm32\h743ii_lcd\lvgl\src\misc\lv_area.h ****     LV_ALIGN_TOP_RIGHT,
  56:d:\kzc\stm32\h743ii_lcd\lvgl\src\misc\lv_area.h ****     LV_ALIGN_BOTTOM_LEFT,
  57:d:\kzc\stm32\h743ii_lcd\lvgl\src\misc\lv_area.h ****     LV_ALIGN_BOTTOM_MID,
  58:d:\kzc\stm32\h743ii_lcd\lvgl\src\misc\lv_area.h ****     LV_ALIGN_BOTTOM_RIGHT,
  59:d:\kzc\stm32\h743ii_lcd\lvgl\src\misc\lv_area.h ****     LV_ALIGN_LEFT_MID,
  60:d:\kzc\stm32\h743ii_lcd\lvgl\src\misc\lv_area.h ****     LV_ALIGN_RIGHT_MID,
  61:d:\kzc\stm32\h743ii_lcd\lvgl\src\misc\lv_area.h ****     LV_ALIGN_CENTER,
  62:d:\kzc\stm32\h743ii_lcd\lvgl\src\misc\lv_area.h **** 
  63:d:\kzc\stm32\h743ii_lcd\lvgl\src\misc\lv_area.h ****     LV_ALIGN_OUT_TOP_LEFT,
  64:d:\kzc\stm32\h743ii_lcd\lvgl\src\misc\lv_area.h ****     LV_ALIGN_OUT_TOP_MID,
  65:d:\kzc\stm32\h743ii_lcd\lvgl\src\misc\lv_area.h ****     LV_ALIGN_OUT_TOP_RIGHT,
  66:d:\kzc\stm32\h743ii_lcd\lvgl\src\misc\lv_area.h ****     LV_ALIGN_OUT_BOTTOM_LEFT,
  67:d:\kzc\stm32\h743ii_lcd\lvgl\src\misc\lv_area.h ****     LV_ALIGN_OUT_BOTTOM_MID,
  68:d:\kzc\stm32\h743ii_lcd\lvgl\src\misc\lv_area.h ****     LV_ALIGN_OUT_BOTTOM_RIGHT,
  69:d:\kzc\stm32\h743ii_lcd\lvgl\src\misc\lv_area.h ****     LV_ALIGN_OUT_LEFT_TOP,
  70:d:\kzc\stm32\h743ii_lcd\lvgl\src\misc\lv_area.h ****     LV_ALIGN_OUT_LEFT_MID,
  71:d:\kzc\stm32\h743ii_lcd\lvgl\src\misc\lv_area.h ****     LV_ALIGN_OUT_LEFT_BOTTOM,
  72:d:\kzc\stm32\h743ii_lcd\lvgl\src\misc\lv_area.h ****     LV_ALIGN_OUT_RIGHT_TOP,
  73:d:\kzc\stm32\h743ii_lcd\lvgl\src\misc\lv_area.h ****     LV_ALIGN_OUT_RIGHT_MID,
  74:d:\kzc\stm32\h743ii_lcd\lvgl\src\misc\lv_area.h ****     LV_ALIGN_OUT_RIGHT_BOTTOM,
  75:d:\kzc\stm32\h743ii_lcd\lvgl\src\misc\lv_area.h **** };
  76:d:\kzc\stm32\h743ii_lcd\lvgl\src\misc\lv_area.h **** typedef uint8_t lv_align_t;
  77:d:\kzc\stm32\h743ii_lcd\lvgl\src\misc\lv_area.h **** 
  78:d:\kzc\stm32\h743ii_lcd\lvgl\src\misc\lv_area.h **** enum {
  79:d:\kzc\stm32\h743ii_lcd\lvgl\src\misc\lv_area.h ****     LV_DIR_NONE     = 0x00,
  80:d:\kzc\stm32\h743ii_lcd\lvgl\src\misc\lv_area.h ****     LV_DIR_LEFT     = (1 << 0),
  81:d:\kzc\stm32\h743ii_lcd\lvgl\src\misc\lv_area.h ****     LV_DIR_RIGHT    = (1 << 1),
  82:d:\kzc\stm32\h743ii_lcd\lvgl\src\misc\lv_area.h ****     LV_DIR_TOP      = (1 << 2),
  83:d:\kzc\stm32\h743ii_lcd\lvgl\src\misc\lv_area.h ****     LV_DIR_BOTTOM   = (1 << 3),
  84:d:\kzc\stm32\h743ii_lcd\lvgl\src\misc\lv_area.h ****     LV_DIR_HOR      = LV_DIR_LEFT | LV_DIR_RIGHT,
  85:d:\kzc\stm32\h743ii_lcd\lvgl\src\misc\lv_area.h ****     LV_DIR_VER      = LV_DIR_TOP | LV_DIR_BOTTOM,
  86:d:\kzc\stm32\h743ii_lcd\lvgl\src\misc\lv_area.h ****     LV_DIR_ALL      = LV_DIR_HOR | LV_DIR_VER,
  87:d:\kzc\stm32\h743ii_lcd\lvgl\src\misc\lv_area.h **** };
  88:d:\kzc\stm32\h743ii_lcd\lvgl\src\misc\lv_area.h **** 
  89:d:\kzc\stm32\h743ii_lcd\lvgl\src\misc\lv_area.h **** typedef uint8_t lv_dir_t;
  90:d:\kzc\stm32\h743ii_lcd\lvgl\src\misc\lv_area.h **** 
  91:d:\kzc\stm32\h743ii_lcd\lvgl\src\misc\lv_area.h **** /**********************
  92:d:\kzc\stm32\h743ii_lcd\lvgl\src\misc\lv_area.h ****  * GLOBAL PROTOTYPES
  93:d:\kzc\stm32\h743ii_lcd\lvgl\src\misc\lv_area.h ****  **********************/
  94:d:\kzc\stm32\h743ii_lcd\lvgl\src\misc\lv_area.h **** 
  95:d:\kzc\stm32\h743ii_lcd\lvgl\src\misc\lv_area.h **** /**
  96:d:\kzc\stm32\h743ii_lcd\lvgl\src\misc\lv_area.h ****  * Initialize an area
  97:d:\kzc\stm32\h743ii_lcd\lvgl\src\misc\lv_area.h ****  * @param area_p pointer to an area
ARM GAS  C:\Users\OSD\AppData\Local\Temp\cc7WrW7h.s 			page 46


  98:d:\kzc\stm32\h743ii_lcd\lvgl\src\misc\lv_area.h ****  * @param x1 left coordinate of the area
  99:d:\kzc\stm32\h743ii_lcd\lvgl\src\misc\lv_area.h ****  * @param y1 top coordinate of the area
 100:d:\kzc\stm32\h743ii_lcd\lvgl\src\misc\lv_area.h ****  * @param x2 right coordinate of the area
 101:d:\kzc\stm32\h743ii_lcd\lvgl\src\misc\lv_area.h ****  * @param y2 bottom coordinate of the area
 102:d:\kzc\stm32\h743ii_lcd\lvgl\src\misc\lv_area.h ****  */
 103:d:\kzc\stm32\h743ii_lcd\lvgl\src\misc\lv_area.h **** void lv_area_set(lv_area_t * area_p, lv_coord_t x1, lv_coord_t y1, lv_coord_t x2, lv_coord_t y2);
 104:d:\kzc\stm32\h743ii_lcd\lvgl\src\misc\lv_area.h **** 
 105:d:\kzc\stm32\h743ii_lcd\lvgl\src\misc\lv_area.h **** /**
 106:d:\kzc\stm32\h743ii_lcd\lvgl\src\misc\lv_area.h ****  * Copy an area
 107:d:\kzc\stm32\h743ii_lcd\lvgl\src\misc\lv_area.h ****  * @param dest pointer to the destination area
 108:d:\kzc\stm32\h743ii_lcd\lvgl\src\misc\lv_area.h ****  * @param src pointer to the source area
 109:d:\kzc\stm32\h743ii_lcd\lvgl\src\misc\lv_area.h ****  */
 110:d:\kzc\stm32\h743ii_lcd\lvgl\src\misc\lv_area.h **** inline static void lv_area_copy(lv_area_t * dest, const lv_area_t * src)
 111:d:\kzc\stm32\h743ii_lcd\lvgl\src\misc\lv_area.h **** {
 112:d:\kzc\stm32\h743ii_lcd\lvgl\src\misc\lv_area.h ****     dest->x1 = src->x1;
 113:d:\kzc\stm32\h743ii_lcd\lvgl\src\misc\lv_area.h ****     dest->y1 = src->y1;
 114:d:\kzc\stm32\h743ii_lcd\lvgl\src\misc\lv_area.h ****     dest->x2 = src->x2;
 115:d:\kzc\stm32\h743ii_lcd\lvgl\src\misc\lv_area.h ****     dest->y2 = src->y2;
 116:d:\kzc\stm32\h743ii_lcd\lvgl\src\misc\lv_area.h **** }
 117:d:\kzc\stm32\h743ii_lcd\lvgl\src\misc\lv_area.h **** 
 118:d:\kzc\stm32\h743ii_lcd\lvgl\src\misc\lv_area.h **** /**
 119:d:\kzc\stm32\h743ii_lcd\lvgl\src\misc\lv_area.h ****  * Get the width of an area
 120:d:\kzc\stm32\h743ii_lcd\lvgl\src\misc\lv_area.h ****  * @param area_p pointer to an area
 121:d:\kzc\stm32\h743ii_lcd\lvgl\src\misc\lv_area.h ****  * @return the width of the area (if x1 == x2 -> width = 1)
 122:d:\kzc\stm32\h743ii_lcd\lvgl\src\misc\lv_area.h ****  */
 123:d:\kzc\stm32\h743ii_lcd\lvgl\src\misc\lv_area.h **** static inline lv_coord_t lv_area_get_width(const lv_area_t * area_p)
 1308              		.loc 3 123 26 view .LVU451
 1309              	.LBB298:
 124:d:\kzc\stm32\h743ii_lcd\lvgl\src\misc\lv_area.h **** {
 125:d:\kzc\stm32\h743ii_lcd\lvgl\src\misc\lv_area.h ****     return (lv_coord_t)(area_p->x2 - area_p->x1 + 1);
 1310              		.loc 3 125 5 view .LVU452
 1311              		.loc 3 125 31 is_stmt 0 view .LVU453
 1312 0042 2B8B     		ldrh	r3, [r5, #24]
 1313              		.loc 3 125 44 view .LVU454
 1314 0044 AA8A     		ldrh	r2, [r5, #20]
 1315              		.loc 3 125 36 view .LVU455
 1316 0046 9B1A     		subs	r3, r3, r2
 1317 0048 9BB2     		uxth	r3, r3
 1318              		.loc 3 125 49 view .LVU456
 1319 004a 0133     		adds	r3, r3, #1
 1320              		.loc 3 125 12 view .LVU457
 1321 004c 1BB2     		sxth	r3, r3
 1322              	.LVL129:
 1323              		.loc 3 125 12 view .LVU458
 1324              	.LBE298:
 1325              	.LBE297:
 240:lvgl/src/core/lv_obj_draw.c ****     draw_dsc->pivot.y = lv_area_get_height(&obj->coords) / 2;
 1326              		.loc 1 240 23 view .LVU459
 1327 004e 002B     		cmp	r3, #0
 1328 0050 22DB     		blt	.L43
 1329              	.L37:
 1330 0052 5B10     		asrs	r3, r3, #1
 1331 0054 A380     		strh	r3, [r4, #4]	@ movhi
 241:lvgl/src/core/lv_obj_draw.c **** 
 1332              		.loc 1 241 5 is_stmt 1 view .LVU460
 1333              	.LVL130:
 1334              	.LBB299:
ARM GAS  C:\Users\OSD\AppData\Local\Temp\cc7WrW7h.s 			page 47


 1335              	.LBI299:
 126:d:\kzc\stm32\h743ii_lcd\lvgl\src\misc\lv_area.h **** }
 127:d:\kzc\stm32\h743ii_lcd\lvgl\src\misc\lv_area.h **** 
 128:d:\kzc\stm32\h743ii_lcd\lvgl\src\misc\lv_area.h **** /**
 129:d:\kzc\stm32\h743ii_lcd\lvgl\src\misc\lv_area.h ****  * Get the height of an area
 130:d:\kzc\stm32\h743ii_lcd\lvgl\src\misc\lv_area.h ****  * @param area_p pointer to an area
 131:d:\kzc\stm32\h743ii_lcd\lvgl\src\misc\lv_area.h ****  * @return the height of the area (if y1 == y2 -> height = 1)
 132:d:\kzc\stm32\h743ii_lcd\lvgl\src\misc\lv_area.h ****  */
 133:d:\kzc\stm32\h743ii_lcd\lvgl\src\misc\lv_area.h **** static inline lv_coord_t lv_area_get_height(const lv_area_t * area_p)
 1336              		.loc 3 133 26 view .LVU461
 1337              	.LBB300:
 134:d:\kzc\stm32\h743ii_lcd\lvgl\src\misc\lv_area.h **** {
 135:d:\kzc\stm32\h743ii_lcd\lvgl\src\misc\lv_area.h ****     return (lv_coord_t)(area_p->y2 - area_p->y1 + 1);
 1338              		.loc 3 135 5 view .LVU462
 1339              		.loc 3 135 31 is_stmt 0 view .LVU463
 1340 0056 6B8B     		ldrh	r3, [r5, #26]
 1341              		.loc 3 135 44 view .LVU464
 1342 0058 EA8A     		ldrh	r2, [r5, #22]
 1343              		.loc 3 135 36 view .LVU465
 1344 005a 9B1A     		subs	r3, r3, r2
 1345 005c 9BB2     		uxth	r3, r3
 1346              		.loc 3 135 49 view .LVU466
 1347 005e 0133     		adds	r3, r3, #1
 1348              		.loc 3 135 12 view .LVU467
 1349 0060 1BB2     		sxth	r3, r3
 1350              	.LVL131:
 1351              		.loc 3 135 12 view .LVU468
 1352              	.LBE300:
 1353              	.LBE299:
 241:lvgl/src/core/lv_obj_draw.c **** 
 1354              		.loc 1 241 23 view .LVU469
 1355 0062 002B     		cmp	r3, #0
 1356 0064 1ADB     		blt	.L44
 1357              	.L38:
 1358 0066 5B10     		asrs	r3, r3, #1
 1359 0068 E380     		strh	r3, [r4, #6]	@ movhi
 243:lvgl/src/core/lv_obj_draw.c ****     if(draw_dsc->recolor_opa > 0) {
 1360              		.loc 1 243 5 is_stmt 1 view .LVU470
 1361              	.LVL132:
 1362              	.LBB301:
 1363              	.LBI301:
 361:lvgl/src/core/lv_obj_style_gen.h **** {
 1364              		.loc 2 361 24 view .LVU471
 1365              	.LBB302:
 363:lvgl/src/core/lv_obj_style_gen.h ****     return (lv_opa_t)v.num;
 1366              		.loc 2 363 5 view .LVU472
 363:lvgl/src/core/lv_obj_style_gen.h ****     return (lv_opa_t)v.num;
 1367              		.loc 2 363 26 is_stmt 0 view .LVU473
 1368 006a 4822     		movs	r2, #72
 1369 006c 3146     		mov	r1, r6
 1370 006e 2846     		mov	r0, r5
 1371 0070 FFF7FEFF 		bl	lv_obj_get_style_prop
 1372              	.LVL133:
 364:lvgl/src/core/lv_obj_style_gen.h **** }
 1373              		.loc 2 364 5 is_stmt 1 view .LVU474
 364:lvgl/src/core/lv_obj_style_gen.h **** }
 1374              		.loc 2 364 12 is_stmt 0 view .LVU475
ARM GAS  C:\Users\OSD\AppData\Local\Temp\cc7WrW7h.s 			page 48


 1375 0074 C0B2     		uxtb	r0, r0
 1376              	.LVL134:
 364:lvgl/src/core/lv_obj_style_gen.h **** }
 1377              		.loc 2 364 12 view .LVU476
 1378              	.LBE302:
 1379              	.LBE301:
 243:lvgl/src/core/lv_obj_draw.c ****     if(draw_dsc->recolor_opa > 0) {
 1380              		.loc 1 243 27 view .LVU477
 1381 0076 2073     		strb	r0, [r4, #12]
 244:lvgl/src/core/lv_obj_draw.c ****         draw_dsc->recolor = lv_obj_get_style_img_recolor_filtered(obj, part);
 1382              		.loc 1 244 5 is_stmt 1 view .LVU478
 244:lvgl/src/core/lv_obj_draw.c ****         draw_dsc->recolor = lv_obj_get_style_img_recolor_filtered(obj, part);
 1383              		.loc 1 244 7 is_stmt 0 view .LVU479
 1384 0078 90B9     		cbnz	r0, .L45
 1385              	.L39:
 248:lvgl/src/core/lv_obj_draw.c **** #endif
 1386              		.loc 1 248 5 is_stmt 1 view .LVU480
 248:lvgl/src/core/lv_obj_draw.c **** #endif
 1387              		.loc 1 248 7 is_stmt 0 view .LVU481
 1388 007a 002E     		cmp	r6, #0
 1389 007c CBD0     		beq	.L33
 248:lvgl/src/core/lv_obj_draw.c **** #endif
 1390              		.loc 1 248 30 is_stmt 1 view .LVU482
 1391              	.LVL135:
 1392              	.LBB303:
 1393              	.LBI303:
 553:lvgl/src/core/lv_obj_style_gen.h **** {
 1394              		.loc 2 553 31 view .LVU483
 1395              	.LBB304:
 555:lvgl/src/core/lv_obj_style_gen.h ****     return (lv_blend_mode_t)v.num;
 1396              		.loc 2 555 5 view .LVU484
 555:lvgl/src/core/lv_obj_style_gen.h ****     return (lv_blend_mode_t)v.num;
 1397              		.loc 2 555 26 is_stmt 0 view .LVU485
 1398 007e 6822     		movs	r2, #104
 1399 0080 3146     		mov	r1, r6
 1400 0082 2846     		mov	r0, r5
 1401 0084 FFF7FEFF 		bl	lv_obj_get_style_prop
 1402              	.LVL136:
 1403              		.loc 2 556 5 is_stmt 1 view .LVU486
 1404              		.loc 2 556 5 is_stmt 0 view .LVU487
 1405              	.LBE304:
 1406              	.LBE303:
 248:lvgl/src/core/lv_obj_draw.c **** #endif
 1407              		.loc 1 248 51 view .LVU488
 1408 0088 A37B     		ldrb	r3, [r4, #14]	@ zero_extendqisi2
 1409 008a 60F30303 		bfi	r3, r0, #0, #4
 1410 008e A373     		strb	r3, [r4, #14]
 1411 0090 C1E7     		b	.L33
 1412              	.LVL137:
 1413              	.L42:
 230:lvgl/src/core/lv_obj_draw.c ****         return;
 1414              		.loc 1 230 9 is_stmt 1 view .LVU489
 230:lvgl/src/core/lv_obj_draw.c ****         return;
 1415              		.loc 1 230 23 is_stmt 0 view .LVU490
 1416 0092 0023     		movs	r3, #0
 1417 0094 6373     		strb	r3, [r4, #13]
 231:lvgl/src/core/lv_obj_draw.c ****     }
ARM GAS  C:\Users\OSD\AppData\Local\Temp\cc7WrW7h.s 			page 49


 1418              		.loc 1 231 9 is_stmt 1 view .LVU491
 1419 0096 BEE7     		b	.L33
 1420              	.LVL138:
 1421              	.L43:
 240:lvgl/src/core/lv_obj_draw.c ****     draw_dsc->pivot.y = lv_area_get_height(&obj->coords) / 2;
 1422              		.loc 1 240 23 is_stmt 0 view .LVU492
 1423 0098 0133     		adds	r3, r3, #1
 1424 009a DAE7     		b	.L37
 1425              	.L44:
 241:lvgl/src/core/lv_obj_draw.c **** 
 1426              		.loc 1 241 23 view .LVU493
 1427 009c 0133     		adds	r3, r3, #1
 1428 009e E2E7     		b	.L38
 1429              	.L45:
 245:lvgl/src/core/lv_obj_draw.c ****     }
 1430              		.loc 1 245 9 is_stmt 1 view .LVU494
 1431              	.LVL139:
 1432              	.LBB305:
 1433              	.LBI305:
 355:lvgl/src/core/lv_obj_style_gen.h **** {
 1434              		.loc 2 355 26 view .LVU495
 1435              	.LBB306:
 357:lvgl/src/core/lv_obj_style_gen.h ****     return v.color;
 1436              		.loc 2 357 5 view .LVU496
 357:lvgl/src/core/lv_obj_style_gen.h ****     return v.color;
 1437              		.loc 2 357 26 is_stmt 0 view .LVU497
 1438 00a0 4722     		movs	r2, #71
 1439 00a2 3146     		mov	r1, r6
 1440 00a4 2846     		mov	r0, r5
 1441 00a6 FFF7FEFF 		bl	lv_obj_get_style_prop
 1442              	.LVL140:
 1443 00aa 0246     		mov	r2, r0
 1444 00ac 3146     		mov	r1, r6
 1445 00ae 2846     		mov	r0, r5
 1446 00b0 FFF7FEFF 		bl	_lv_obj_style_apply_color_filter
 1447              	.LVL141:
 358:lvgl/src/core/lv_obj_style_gen.h **** }
 1448              		.loc 2 358 5 is_stmt 1 view .LVU498
 358:lvgl/src/core/lv_obj_style_gen.h **** }
 1449              		.loc 2 358 5 is_stmt 0 view .LVU499
 1450              	.LBE306:
 1451              	.LBE305:
 245:lvgl/src/core/lv_obj_draw.c ****     }
 1452              		.loc 1 245 29 view .LVU500
 1453 00b4 A060     		str	r0, [r4, #8]
 1454 00b6 E0E7     		b	.L39
 1455              		.cfi_endproc
 1456              	.LFE169:
 1458              		.section	.text.lv_obj_init_draw_line_dsc,"ax",%progbits
 1459              		.align	1
 1460              		.global	lv_obj_init_draw_line_dsc
 1461              		.syntax unified
 1462              		.thumb
 1463              		.thumb_func
 1465              	lv_obj_init_draw_line_dsc:
 1466              	.LVL142:
 1467              	.LFB170:
ARM GAS  C:\Users\OSD\AppData\Local\Temp\cc7WrW7h.s 			page 50


 251:lvgl/src/core/lv_obj_draw.c **** 
 252:lvgl/src/core/lv_obj_draw.c **** void lv_obj_init_draw_line_dsc(lv_obj_t * obj, uint32_t part, lv_draw_line_dsc_t * draw_dsc)
 253:lvgl/src/core/lv_obj_draw.c **** {
 1468              		.loc 1 253 1 is_stmt 1 view -0
 1469              		.cfi_startproc
 1470              		@ args = 0, pretend = 0, frame = 0
 1471              		@ frame_needed = 0, uses_anonymous_args = 0
 1472              		.loc 1 253 1 is_stmt 0 view .LVU502
 1473 0000 70B5     		push	{r4, r5, r6, lr}
 1474              		.cfi_def_cfa_offset 16
 1475              		.cfi_offset 4, -16
 1476              		.cfi_offset 5, -12
 1477              		.cfi_offset 6, -8
 1478              		.cfi_offset 14, -4
 1479 0002 0646     		mov	r6, r0
 1480 0004 0D46     		mov	r5, r1
 1481 0006 1446     		mov	r4, r2
 254:lvgl/src/core/lv_obj_draw.c ****     draw_dsc->opa = lv_obj_get_style_line_opa(obj, part);
 1482              		.loc 1 254 5 is_stmt 1 view .LVU503
 1483              	.LVL143:
 1484              	.LBB321:
 1485              	.LBI321:
 403:lvgl/src/core/lv_obj_style_gen.h **** {
 1486              		.loc 2 403 24 view .LVU504
 1487              	.LBB322:
 405:lvgl/src/core/lv_obj_style_gen.h ****     return (lv_opa_t)v.num;
 1488              		.loc 2 405 5 view .LVU505
 405:lvgl/src/core/lv_obj_style_gen.h ****     return (lv_opa_t)v.num;
 1489              		.loc 2 405 26 is_stmt 0 view .LVU506
 1490 0008 4E22     		movs	r2, #78
 1491              	.LVL144:
 405:lvgl/src/core/lv_obj_style_gen.h ****     return (lv_opa_t)v.num;
 1492              		.loc 2 405 26 view .LVU507
 1493 000a FFF7FEFF 		bl	lv_obj_get_style_prop
 1494              	.LVL145:
 406:lvgl/src/core/lv_obj_style_gen.h **** }
 1495              		.loc 2 406 5 is_stmt 1 view .LVU508
 406:lvgl/src/core/lv_obj_style_gen.h **** }
 1496              		.loc 2 406 12 is_stmt 0 view .LVU509
 1497 000e C3B2     		uxtb	r3, r0
 1498              	.LVL146:
 406:lvgl/src/core/lv_obj_style_gen.h **** }
 1499              		.loc 2 406 12 view .LVU510
 1500              	.LBE322:
 1501              	.LBE321:
 1502              		.loc 1 254 19 view .LVU511
 1503 0010 A372     		strb	r3, [r4, #10]
 255:lvgl/src/core/lv_obj_draw.c ****     if(draw_dsc->opa <= LV_OPA_MIN)  return;
 1504              		.loc 1 255 5 is_stmt 1 view .LVU512
 1505              		.loc 1 255 7 is_stmt 0 view .LVU513
 1506 0012 022B     		cmp	r3, #2
 1507 0014 00D8     		bhi	.L52
 1508              	.L46:
 256:lvgl/src/core/lv_obj_draw.c **** 
 257:lvgl/src/core/lv_obj_draw.c ****     lv_opa_t opa = lv_obj_get_style_opa_recursive(obj, part);
 258:lvgl/src/core/lv_obj_draw.c ****     if(opa <= LV_OPA_MIN) {
 259:lvgl/src/core/lv_obj_draw.c ****         draw_dsc->opa = LV_OPA_TRANSP;
ARM GAS  C:\Users\OSD\AppData\Local\Temp\cc7WrW7h.s 			page 51


 260:lvgl/src/core/lv_obj_draw.c ****         return;
 261:lvgl/src/core/lv_obj_draw.c ****     }
 262:lvgl/src/core/lv_obj_draw.c ****     if(opa < LV_OPA_MAX) {
 263:lvgl/src/core/lv_obj_draw.c ****         draw_dsc->opa = (opa * draw_dsc->opa) >> 8;
 264:lvgl/src/core/lv_obj_draw.c ****     }
 265:lvgl/src/core/lv_obj_draw.c ****     if(draw_dsc->opa <= LV_OPA_MIN) return;
 266:lvgl/src/core/lv_obj_draw.c **** 
 267:lvgl/src/core/lv_obj_draw.c ****     draw_dsc->width = lv_obj_get_style_line_width(obj, part);
 268:lvgl/src/core/lv_obj_draw.c ****     if(draw_dsc->width == 0) return;
 269:lvgl/src/core/lv_obj_draw.c **** 
 270:lvgl/src/core/lv_obj_draw.c ****     draw_dsc->color = lv_obj_get_style_line_color_filtered(obj, part);
 271:lvgl/src/core/lv_obj_draw.c **** 
 272:lvgl/src/core/lv_obj_draw.c ****     draw_dsc->dash_width = lv_obj_get_style_line_dash_width(obj, part);
 273:lvgl/src/core/lv_obj_draw.c ****     if(draw_dsc->dash_width) {
 274:lvgl/src/core/lv_obj_draw.c ****         draw_dsc->dash_gap = lv_obj_get_style_line_dash_gap(obj, part);
 275:lvgl/src/core/lv_obj_draw.c ****     }
 276:lvgl/src/core/lv_obj_draw.c **** 
 277:lvgl/src/core/lv_obj_draw.c ****     draw_dsc->round_start = lv_obj_get_style_line_rounded(obj, part);
 278:lvgl/src/core/lv_obj_draw.c ****     draw_dsc->round_end = draw_dsc->round_start;
 279:lvgl/src/core/lv_obj_draw.c **** 
 280:lvgl/src/core/lv_obj_draw.c **** #if LV_DRAW_COMPLEX
 281:lvgl/src/core/lv_obj_draw.c ****     if(part != LV_PART_MAIN) draw_dsc->blend_mode = lv_obj_get_style_blend_mode(obj, part);
 282:lvgl/src/core/lv_obj_draw.c **** #endif
 283:lvgl/src/core/lv_obj_draw.c **** }
 1509              		.loc 1 283 1 view .LVU514
 1510 0016 70BD     		pop	{r4, r5, r6, pc}
 1511              	.LVL147:
 1512              	.L52:
 257:lvgl/src/core/lv_obj_draw.c ****     if(opa <= LV_OPA_MIN) {
 1513              		.loc 1 257 5 is_stmt 1 view .LVU515
 257:lvgl/src/core/lv_obj_draw.c ****     if(opa <= LV_OPA_MIN) {
 1514              		.loc 1 257 20 is_stmt 0 view .LVU516
 1515 0018 2946     		mov	r1, r5
 1516 001a 3046     		mov	r0, r6
 1517 001c FFF7FEFF 		bl	lv_obj_get_style_opa_recursive
 1518              	.LVL148:
 258:lvgl/src/core/lv_obj_draw.c ****         draw_dsc->opa = LV_OPA_TRANSP;
 1519              		.loc 1 258 5 is_stmt 1 view .LVU517
 258:lvgl/src/core/lv_obj_draw.c ****         draw_dsc->opa = LV_OPA_TRANSP;
 1520              		.loc 1 258 7 is_stmt 0 view .LVU518
 1521 0020 0228     		cmp	r0, #2
 1522 0022 41D9     		bls	.L53
 262:lvgl/src/core/lv_obj_draw.c ****         draw_dsc->opa = (opa * draw_dsc->opa) >> 8;
 1523              		.loc 1 262 5 is_stmt 1 view .LVU519
 262:lvgl/src/core/lv_obj_draw.c ****         draw_dsc->opa = (opa * draw_dsc->opa) >> 8;
 1524              		.loc 1 262 7 is_stmt 0 view .LVU520
 1525 0024 FC28     		cmp	r0, #252
 1526 0026 04D8     		bhi	.L49
 263:lvgl/src/core/lv_obj_draw.c ****     }
 1527              		.loc 1 263 9 is_stmt 1 view .LVU521
 263:lvgl/src/core/lv_obj_draw.c ****     }
 1528              		.loc 1 263 40 is_stmt 0 view .LVU522
 1529 0028 A37A     		ldrb	r3, [r4, #10]	@ zero_extendqisi2
 263:lvgl/src/core/lv_obj_draw.c ****     }
 1530              		.loc 1 263 30 view .LVU523
 1531 002a 03FB00F0 		mul	r0, r3, r0
 1532              	.LVL149:
ARM GAS  C:\Users\OSD\AppData\Local\Temp\cc7WrW7h.s 			page 52


 263:lvgl/src/core/lv_obj_draw.c ****     }
 1533              		.loc 1 263 47 view .LVU524
 1534 002e 0012     		asrs	r0, r0, #8
 263:lvgl/src/core/lv_obj_draw.c ****     }
 1535              		.loc 1 263 23 view .LVU525
 1536 0030 A072     		strb	r0, [r4, #10]
 1537              	.L49:
 265:lvgl/src/core/lv_obj_draw.c **** 
 1538              		.loc 1 265 5 is_stmt 1 view .LVU526
 265:lvgl/src/core/lv_obj_draw.c **** 
 1539              		.loc 1 265 16 is_stmt 0 view .LVU527
 1540 0032 A37A     		ldrb	r3, [r4, #10]	@ zero_extendqisi2
 265:lvgl/src/core/lv_obj_draw.c **** 
 1541              		.loc 1 265 7 view .LVU528
 1542 0034 022B     		cmp	r3, #2
 1543 0036 EED9     		bls	.L46
 267:lvgl/src/core/lv_obj_draw.c ****     if(draw_dsc->width == 0) return;
 1544              		.loc 1 267 5 is_stmt 1 view .LVU529
 1545              	.LVL150:
 1546              	.LBB323:
 1547              	.LBI323:
 367:lvgl/src/core/lv_obj_style_gen.h **** {
 1548              		.loc 2 367 26 view .LVU530
 1549              	.LBB324:
 369:lvgl/src/core/lv_obj_style_gen.h ****     return (lv_coord_t)v.num;
 1550              		.loc 2 369 5 view .LVU531
 369:lvgl/src/core/lv_obj_style_gen.h ****     return (lv_coord_t)v.num;
 1551              		.loc 2 369 26 is_stmt 0 view .LVU532
 1552 0038 4922     		movs	r2, #73
 1553 003a 2946     		mov	r1, r5
 1554 003c 3046     		mov	r0, r6
 1555 003e FFF7FEFF 		bl	lv_obj_get_style_prop
 1556              	.LVL151:
 370:lvgl/src/core/lv_obj_style_gen.h **** }
 1557              		.loc 2 370 5 is_stmt 1 view .LVU533
 370:lvgl/src/core/lv_obj_style_gen.h **** }
 1558              		.loc 2 370 12 is_stmt 0 view .LVU534
 1559 0042 00B2     		sxth	r0, r0
 1560              	.LVL152:
 370:lvgl/src/core/lv_obj_style_gen.h **** }
 1561              		.loc 2 370 12 view .LVU535
 1562              	.LBE324:
 1563              	.LBE323:
 267:lvgl/src/core/lv_obj_draw.c ****     if(draw_dsc->width == 0) return;
 1564              		.loc 1 267 21 view .LVU536
 1565 0044 A080     		strh	r0, [r4, #4]	@ movhi
 268:lvgl/src/core/lv_obj_draw.c **** 
 1566              		.loc 1 268 5 is_stmt 1 view .LVU537
 268:lvgl/src/core/lv_obj_draw.c **** 
 1567              		.loc 1 268 7 is_stmt 0 view .LVU538
 1568 0046 0028     		cmp	r0, #0
 1569 0048 E5D0     		beq	.L46
 270:lvgl/src/core/lv_obj_draw.c **** 
 1570              		.loc 1 270 5 is_stmt 1 view .LVU539
 1571              	.LVL153:
 1572              	.LBB325:
 1573              	.LBI325:
ARM GAS  C:\Users\OSD\AppData\Local\Temp\cc7WrW7h.s 			page 53


 397:lvgl/src/core/lv_obj_style_gen.h **** {
 1574              		.loc 2 397 26 view .LVU540
 1575              	.LBB326:
 399:lvgl/src/core/lv_obj_style_gen.h ****     return v.color;
 1576              		.loc 2 399 5 view .LVU541
 399:lvgl/src/core/lv_obj_style_gen.h ****     return v.color;
 1577              		.loc 2 399 26 is_stmt 0 view .LVU542
 1578 004a 4D22     		movs	r2, #77
 1579 004c 2946     		mov	r1, r5
 1580 004e 3046     		mov	r0, r6
 1581 0050 FFF7FEFF 		bl	lv_obj_get_style_prop
 1582              	.LVL154:
 1583 0054 0246     		mov	r2, r0
 1584 0056 2946     		mov	r1, r5
 1585 0058 3046     		mov	r0, r6
 1586 005a FFF7FEFF 		bl	_lv_obj_style_apply_color_filter
 1587              	.LVL155:
 400:lvgl/src/core/lv_obj_style_gen.h **** }
 1588              		.loc 2 400 5 is_stmt 1 view .LVU543
 400:lvgl/src/core/lv_obj_style_gen.h **** }
 1589              		.loc 2 400 5 is_stmt 0 view .LVU544
 1590              	.LBE326:
 1591              	.LBE325:
 270:lvgl/src/core/lv_obj_draw.c **** 
 1592              		.loc 1 270 23 view .LVU545
 1593 005e 2060     		str	r0, [r4]
 272:lvgl/src/core/lv_obj_draw.c ****     if(draw_dsc->dash_width) {
 1594              		.loc 1 272 5 is_stmt 1 view .LVU546
 1595              	.LVL156:
 1596              	.LBB327:
 1597              	.LBI327:
 373:lvgl/src/core/lv_obj_style_gen.h **** {
 1598              		.loc 2 373 26 view .LVU547
 1599              	.LBB328:
 375:lvgl/src/core/lv_obj_style_gen.h ****     return (lv_coord_t)v.num;
 1600              		.loc 2 375 5 view .LVU548
 375:lvgl/src/core/lv_obj_style_gen.h ****     return (lv_coord_t)v.num;
 1601              		.loc 2 375 26 is_stmt 0 view .LVU549
 1602 0060 4A22     		movs	r2, #74
 1603 0062 2946     		mov	r1, r5
 1604 0064 3046     		mov	r0, r6
 1605 0066 FFF7FEFF 		bl	lv_obj_get_style_prop
 1606              	.LVL157:
 376:lvgl/src/core/lv_obj_style_gen.h **** }
 1607              		.loc 2 376 5 is_stmt 1 view .LVU550
 376:lvgl/src/core/lv_obj_style_gen.h **** }
 1608              		.loc 2 376 12 is_stmt 0 view .LVU551
 1609 006a 00B2     		sxth	r0, r0
 1610              	.LVL158:
 376:lvgl/src/core/lv_obj_style_gen.h **** }
 1611              		.loc 2 376 12 view .LVU552
 1612              	.LBE328:
 1613              	.LBE327:
 272:lvgl/src/core/lv_obj_draw.c ****     if(draw_dsc->dash_width) {
 1614              		.loc 1 272 26 view .LVU553
 1615 006c E080     		strh	r0, [r4, #6]	@ movhi
 273:lvgl/src/core/lv_obj_draw.c ****         draw_dsc->dash_gap = lv_obj_get_style_line_dash_gap(obj, part);
ARM GAS  C:\Users\OSD\AppData\Local\Temp\cc7WrW7h.s 			page 54


 1616              		.loc 1 273 5 is_stmt 1 view .LVU554
 273:lvgl/src/core/lv_obj_draw.c ****         draw_dsc->dash_gap = lv_obj_get_style_line_dash_gap(obj, part);
 1617              		.loc 1 273 7 is_stmt 0 view .LVU555
 1618 006e F0B9     		cbnz	r0, .L54
 1619              	.L50:
 277:lvgl/src/core/lv_obj_draw.c ****     draw_dsc->round_end = draw_dsc->round_start;
 1620              		.loc 1 277 5 is_stmt 1 view .LVU556
 1621              	.LVL159:
 1622              	.LBB329:
 1623              	.LBI329:
 385:lvgl/src/core/lv_obj_style_gen.h **** {
 1624              		.loc 2 385 20 view .LVU557
 1625              	.LBB330:
 387:lvgl/src/core/lv_obj_style_gen.h ****     return (bool)v.num;
 1626              		.loc 2 387 5 view .LVU558
 387:lvgl/src/core/lv_obj_style_gen.h ****     return (bool)v.num;
 1627              		.loc 2 387 26 is_stmt 0 view .LVU559
 1628 0070 4C22     		movs	r2, #76
 1629 0072 2946     		mov	r1, r5
 1630 0074 3046     		mov	r0, r6
 1631 0076 FFF7FEFF 		bl	lv_obj_get_style_prop
 1632              	.LVL160:
 388:lvgl/src/core/lv_obj_style_gen.h **** }
 1633              		.loc 2 388 5 is_stmt 1 view .LVU560
 388:lvgl/src/core/lv_obj_style_gen.h **** }
 1634              		.loc 2 388 12 is_stmt 0 view .LVU561
 1635 007a 0038     		subs	r0, r0, #0
 1636 007c 18BF     		it	ne
 1637 007e 0120     		movne	r0, #1
 1638              	.LVL161:
 388:lvgl/src/core/lv_obj_style_gen.h **** }
 1639              		.loc 2 388 12 view .LVU562
 1640              	.LBE330:
 1641              	.LBE329:
 277:lvgl/src/core/lv_obj_draw.c ****     draw_dsc->round_end = draw_dsc->round_start;
 1642              		.loc 1 277 27 view .LVU563
 1643 0080 E37A     		ldrb	r3, [r4, #11]	@ zero_extendqisi2
 1644 0082 60F38203 		bfi	r3, r0, #2, #1
 1645 0086 E372     		strb	r3, [r4, #11]
 278:lvgl/src/core/lv_obj_draw.c **** 
 1646              		.loc 1 278 5 is_stmt 1 view .LVU564
 278:lvgl/src/core/lv_obj_draw.c **** 
 1647              		.loc 1 278 25 is_stmt 0 view .LVU565
 1648 0088 DBB2     		uxtb	r3, r3
 1649 008a 60F3C303 		bfi	r3, r0, #3, #1
 1650 008e E372     		strb	r3, [r4, #11]
 281:lvgl/src/core/lv_obj_draw.c **** #endif
 1651              		.loc 1 281 5 is_stmt 1 view .LVU566
 281:lvgl/src/core/lv_obj_draw.c **** #endif
 1652              		.loc 1 281 7 is_stmt 0 view .LVU567
 1653 0090 002D     		cmp	r5, #0
 1654 0092 C0D0     		beq	.L46
 281:lvgl/src/core/lv_obj_draw.c **** #endif
 1655              		.loc 1 281 30 is_stmt 1 view .LVU568
 1656              	.LVL162:
 1657              	.LBB331:
 1658              	.LBI331:
ARM GAS  C:\Users\OSD\AppData\Local\Temp\cc7WrW7h.s 			page 55


 553:lvgl/src/core/lv_obj_style_gen.h **** {
 1659              		.loc 2 553 31 view .LVU569
 1660              	.LBB332:
 555:lvgl/src/core/lv_obj_style_gen.h ****     return (lv_blend_mode_t)v.num;
 1661              		.loc 2 555 5 view .LVU570
 555:lvgl/src/core/lv_obj_style_gen.h ****     return (lv_blend_mode_t)v.num;
 1662              		.loc 2 555 26 is_stmt 0 view .LVU571
 1663 0094 6822     		movs	r2, #104
 1664 0096 2946     		mov	r1, r5
 1665 0098 3046     		mov	r0, r6
 1666 009a FFF7FEFF 		bl	lv_obj_get_style_prop
 1667              	.LVL163:
 1668              		.loc 2 556 5 is_stmt 1 view .LVU572
 1669              		.loc 2 556 5 is_stmt 0 view .LVU573
 1670              	.LBE332:
 1671              	.LBE331:
 281:lvgl/src/core/lv_obj_draw.c **** #endif
 1672              		.loc 1 281 51 view .LVU574
 1673 009e E37A     		ldrb	r3, [r4, #11]	@ zero_extendqisi2
 1674 00a0 60F30103 		bfi	r3, r0, #0, #2
 1675 00a4 E372     		strb	r3, [r4, #11]
 1676 00a6 B6E7     		b	.L46
 1677              	.LVL164:
 1678              	.L53:
 259:lvgl/src/core/lv_obj_draw.c ****         return;
 1679              		.loc 1 259 9 is_stmt 1 view .LVU575
 259:lvgl/src/core/lv_obj_draw.c ****         return;
 1680              		.loc 1 259 23 is_stmt 0 view .LVU576
 1681 00a8 0023     		movs	r3, #0
 1682 00aa A372     		strb	r3, [r4, #10]
 260:lvgl/src/core/lv_obj_draw.c ****     }
 1683              		.loc 1 260 9 is_stmt 1 view .LVU577
 1684 00ac B3E7     		b	.L46
 1685              	.LVL165:
 1686              	.L54:
 274:lvgl/src/core/lv_obj_draw.c ****     }
 1687              		.loc 1 274 9 view .LVU578
 1688              	.LBB333:
 1689              	.LBI333:
 379:lvgl/src/core/lv_obj_style_gen.h **** {
 1690              		.loc 2 379 26 view .LVU579
 1691              	.LBB334:
 381:lvgl/src/core/lv_obj_style_gen.h ****     return (lv_coord_t)v.num;
 1692              		.loc 2 381 5 view .LVU580
 381:lvgl/src/core/lv_obj_style_gen.h ****     return (lv_coord_t)v.num;
 1693              		.loc 2 381 26 is_stmt 0 view .LVU581
 1694 00ae 4B22     		movs	r2, #75
 1695 00b0 2946     		mov	r1, r5
 1696 00b2 3046     		mov	r0, r6
 1697 00b4 FFF7FEFF 		bl	lv_obj_get_style_prop
 1698              	.LVL166:
 382:lvgl/src/core/lv_obj_style_gen.h **** }
 1699              		.loc 2 382 5 is_stmt 1 view .LVU582
 382:lvgl/src/core/lv_obj_style_gen.h **** }
 1700              		.loc 2 382 5 is_stmt 0 view .LVU583
 1701              	.LBE334:
 1702              	.LBE333:
ARM GAS  C:\Users\OSD\AppData\Local\Temp\cc7WrW7h.s 			page 56


 274:lvgl/src/core/lv_obj_draw.c ****     }
 1703              		.loc 1 274 28 view .LVU584
 1704 00b8 2081     		strh	r0, [r4, #8]	@ movhi
 1705 00ba D9E7     		b	.L50
 1706              		.cfi_endproc
 1707              	.LFE170:
 1709              		.section	.text.lv_obj_init_draw_arc_dsc,"ax",%progbits
 1710              		.align	1
 1711              		.global	lv_obj_init_draw_arc_dsc
 1712              		.syntax unified
 1713              		.thumb
 1714              		.thumb_func
 1716              	lv_obj_init_draw_arc_dsc:
 1717              	.LVL167:
 1718              	.LFB171:
 284:lvgl/src/core/lv_obj_draw.c **** 
 285:lvgl/src/core/lv_obj_draw.c **** void lv_obj_init_draw_arc_dsc(lv_obj_t * obj, uint32_t part, lv_draw_arc_dsc_t * draw_dsc)
 286:lvgl/src/core/lv_obj_draw.c **** {
 1719              		.loc 1 286 1 is_stmt 1 view -0
 1720              		.cfi_startproc
 1721              		@ args = 0, pretend = 0, frame = 0
 1722              		@ frame_needed = 0, uses_anonymous_args = 0
 1723              		.loc 1 286 1 is_stmt 0 view .LVU586
 1724 0000 70B5     		push	{r4, r5, r6, lr}
 1725              		.cfi_def_cfa_offset 16
 1726              		.cfi_offset 4, -16
 1727              		.cfi_offset 5, -12
 1728              		.cfi_offset 6, -8
 1729              		.cfi_offset 14, -4
 1730 0002 0646     		mov	r6, r0
 1731 0004 0D46     		mov	r5, r1
 1732 0006 1446     		mov	r4, r2
 287:lvgl/src/core/lv_obj_draw.c ****     draw_dsc->width = lv_obj_get_style_arc_width(obj, part);
 1733              		.loc 1 287 5 is_stmt 1 view .LVU587
 1734              	.LVL168:
 1735              	.LBB347:
 1736              	.LBI347:
 409:lvgl/src/core/lv_obj_style_gen.h **** {
 1737              		.loc 2 409 26 view .LVU588
 1738              	.LBB348:
 411:lvgl/src/core/lv_obj_style_gen.h ****     return (lv_coord_t)v.num;
 1739              		.loc 2 411 5 view .LVU589
 411:lvgl/src/core/lv_obj_style_gen.h ****     return (lv_coord_t)v.num;
 1740              		.loc 2 411 26 is_stmt 0 view .LVU590
 1741 0008 5022     		movs	r2, #80
 1742              	.LVL169:
 411:lvgl/src/core/lv_obj_style_gen.h ****     return (lv_coord_t)v.num;
 1743              		.loc 2 411 26 view .LVU591
 1744 000a FFF7FEFF 		bl	lv_obj_get_style_prop
 1745              	.LVL170:
 412:lvgl/src/core/lv_obj_style_gen.h **** }
 1746              		.loc 2 412 5 is_stmt 1 view .LVU592
 412:lvgl/src/core/lv_obj_style_gen.h **** }
 1747              		.loc 2 412 12 is_stmt 0 view .LVU593
 1748 000e 00B2     		sxth	r0, r0
 1749              	.LVL171:
 412:lvgl/src/core/lv_obj_style_gen.h **** }
ARM GAS  C:\Users\OSD\AppData\Local\Temp\cc7WrW7h.s 			page 57


 1750              		.loc 2 412 12 view .LVU594
 1751              	.LBE348:
 1752              	.LBE347:
 1753              		.loc 1 287 21 view .LVU595
 1754 0010 A080     		strh	r0, [r4, #4]	@ movhi
 288:lvgl/src/core/lv_obj_draw.c ****     if(draw_dsc->width == 0) return;
 1755              		.loc 1 288 5 is_stmt 1 view .LVU596
 1756              		.loc 1 288 7 is_stmt 0 view .LVU597
 1757 0012 00B9     		cbnz	r0, .L60
 1758              	.L55:
 289:lvgl/src/core/lv_obj_draw.c **** 
 290:lvgl/src/core/lv_obj_draw.c ****     draw_dsc->opa = lv_obj_get_style_arc_opa(obj, part);
 291:lvgl/src/core/lv_obj_draw.c ****     if(draw_dsc->opa <= LV_OPA_MIN)  return;
 292:lvgl/src/core/lv_obj_draw.c **** 
 293:lvgl/src/core/lv_obj_draw.c ****     lv_opa_t opa = lv_obj_get_style_opa_recursive(obj, part);
 294:lvgl/src/core/lv_obj_draw.c ****     if(opa <= LV_OPA_MIN) {
 295:lvgl/src/core/lv_obj_draw.c ****         draw_dsc->opa = LV_OPA_TRANSP;
 296:lvgl/src/core/lv_obj_draw.c ****         return;
 297:lvgl/src/core/lv_obj_draw.c ****     }
 298:lvgl/src/core/lv_obj_draw.c ****     if(opa < LV_OPA_MAX) {
 299:lvgl/src/core/lv_obj_draw.c ****         draw_dsc->opa = (opa * draw_dsc->opa) >> 8;
 300:lvgl/src/core/lv_obj_draw.c ****     }
 301:lvgl/src/core/lv_obj_draw.c ****     if(draw_dsc->opa <= LV_OPA_MIN) return;
 302:lvgl/src/core/lv_obj_draw.c **** 
 303:lvgl/src/core/lv_obj_draw.c ****     draw_dsc->color = lv_obj_get_style_arc_color_filtered(obj, part);
 304:lvgl/src/core/lv_obj_draw.c ****     draw_dsc->img_src = lv_obj_get_style_arc_img_src(obj, part);
 305:lvgl/src/core/lv_obj_draw.c **** 
 306:lvgl/src/core/lv_obj_draw.c ****     draw_dsc->rounded = lv_obj_get_style_arc_rounded(obj, part);
 307:lvgl/src/core/lv_obj_draw.c **** 
 308:lvgl/src/core/lv_obj_draw.c **** #if LV_DRAW_COMPLEX
 309:lvgl/src/core/lv_obj_draw.c ****     if(part != LV_PART_MAIN) draw_dsc->blend_mode = lv_obj_get_style_blend_mode(obj, part);
 310:lvgl/src/core/lv_obj_draw.c **** #endif
 311:lvgl/src/core/lv_obj_draw.c **** }
 1759              		.loc 1 311 1 view .LVU598
 1760 0014 70BD     		pop	{r4, r5, r6, pc}
 1761              	.LVL172:
 1762              	.L60:
 290:lvgl/src/core/lv_obj_draw.c ****     if(draw_dsc->opa <= LV_OPA_MIN)  return;
 1763              		.loc 1 290 5 is_stmt 1 view .LVU599
 1764              	.LBB349:
 1765              	.LBI349:
 433:lvgl/src/core/lv_obj_style_gen.h **** {
 1766              		.loc 2 433 24 view .LVU600
 1767              	.LBB350:
 435:lvgl/src/core/lv_obj_style_gen.h ****     return (lv_opa_t)v.num;
 1768              		.loc 2 435 5 view .LVU601
 435:lvgl/src/core/lv_obj_style_gen.h ****     return (lv_opa_t)v.num;
 1769              		.loc 2 435 26 is_stmt 0 view .LVU602
 1770 0016 5322     		movs	r2, #83
 1771 0018 2946     		mov	r1, r5
 1772 001a 3046     		mov	r0, r6
 1773 001c FFF7FEFF 		bl	lv_obj_get_style_prop
 1774              	.LVL173:
 436:lvgl/src/core/lv_obj_style_gen.h **** }
 1775              		.loc 2 436 5 is_stmt 1 view .LVU603
 436:lvgl/src/core/lv_obj_style_gen.h **** }
 1776              		.loc 2 436 12 is_stmt 0 view .LVU604
ARM GAS  C:\Users\OSD\AppData\Local\Temp\cc7WrW7h.s 			page 58


 1777 0020 C3B2     		uxtb	r3, r0
 1778              	.LVL174:
 436:lvgl/src/core/lv_obj_style_gen.h **** }
 1779              		.loc 2 436 12 view .LVU605
 1780              	.LBE350:
 1781              	.LBE349:
 290:lvgl/src/core/lv_obj_draw.c ****     if(draw_dsc->opa <= LV_OPA_MIN)  return;
 1782              		.loc 1 290 19 view .LVU606
 1783 0022 2374     		strb	r3, [r4, #16]
 291:lvgl/src/core/lv_obj_draw.c **** 
 1784              		.loc 1 291 5 is_stmt 1 view .LVU607
 291:lvgl/src/core/lv_obj_draw.c **** 
 1785              		.loc 1 291 7 is_stmt 0 view .LVU608
 1786 0024 022B     		cmp	r3, #2
 1787 0026 F5D9     		bls	.L55
 293:lvgl/src/core/lv_obj_draw.c ****     if(opa <= LV_OPA_MIN) {
 1788              		.loc 1 293 5 is_stmt 1 view .LVU609
 293:lvgl/src/core/lv_obj_draw.c ****     if(opa <= LV_OPA_MIN) {
 1789              		.loc 1 293 20 is_stmt 0 view .LVU610
 1790 0028 2946     		mov	r1, r5
 1791 002a 3046     		mov	r0, r6
 1792 002c FFF7FEFF 		bl	lv_obj_get_style_opa_recursive
 1793              	.LVL175:
 294:lvgl/src/core/lv_obj_draw.c ****         draw_dsc->opa = LV_OPA_TRANSP;
 1794              		.loc 1 294 5 is_stmt 1 view .LVU611
 294:lvgl/src/core/lv_obj_draw.c ****         draw_dsc->opa = LV_OPA_TRANSP;
 1795              		.loc 1 294 7 is_stmt 0 view .LVU612
 1796 0030 0228     		cmp	r0, #2
 1797 0032 32D9     		bls	.L61
 298:lvgl/src/core/lv_obj_draw.c ****         draw_dsc->opa = (opa * draw_dsc->opa) >> 8;
 1798              		.loc 1 298 5 is_stmt 1 view .LVU613
 298:lvgl/src/core/lv_obj_draw.c ****         draw_dsc->opa = (opa * draw_dsc->opa) >> 8;
 1799              		.loc 1 298 7 is_stmt 0 view .LVU614
 1800 0034 FC28     		cmp	r0, #252
 1801 0036 04D8     		bhi	.L58
 299:lvgl/src/core/lv_obj_draw.c ****     }
 1802              		.loc 1 299 9 is_stmt 1 view .LVU615
 299:lvgl/src/core/lv_obj_draw.c ****     }
 1803              		.loc 1 299 40 is_stmt 0 view .LVU616
 1804 0038 237C     		ldrb	r3, [r4, #16]	@ zero_extendqisi2
 299:lvgl/src/core/lv_obj_draw.c ****     }
 1805              		.loc 1 299 30 view .LVU617
 1806 003a 03FB00F0 		mul	r0, r3, r0
 1807              	.LVL176:
 299:lvgl/src/core/lv_obj_draw.c ****     }
 1808              		.loc 1 299 47 view .LVU618
 1809 003e 0012     		asrs	r0, r0, #8
 299:lvgl/src/core/lv_obj_draw.c ****     }
 1810              		.loc 1 299 23 view .LVU619
 1811 0040 2074     		strb	r0, [r4, #16]
 1812              	.L58:
 301:lvgl/src/core/lv_obj_draw.c **** 
 1813              		.loc 1 301 5 is_stmt 1 view .LVU620
 301:lvgl/src/core/lv_obj_draw.c **** 
 1814              		.loc 1 301 16 is_stmt 0 view .LVU621
 1815 0042 237C     		ldrb	r3, [r4, #16]	@ zero_extendqisi2
 301:lvgl/src/core/lv_obj_draw.c **** 
ARM GAS  C:\Users\OSD\AppData\Local\Temp\cc7WrW7h.s 			page 59


 1816              		.loc 1 301 7 view .LVU622
 1817 0044 022B     		cmp	r3, #2
 1818 0046 E5D9     		bls	.L55
 303:lvgl/src/core/lv_obj_draw.c ****     draw_dsc->img_src = lv_obj_get_style_arc_img_src(obj, part);
 1819              		.loc 1 303 5 is_stmt 1 view .LVU623
 1820              	.LVL177:
 1821              	.LBB351:
 1822              	.LBI351:
 427:lvgl/src/core/lv_obj_style_gen.h **** {
 1823              		.loc 2 427 26 view .LVU624
 1824              	.LBB352:
 429:lvgl/src/core/lv_obj_style_gen.h ****     return v.color;
 1825              		.loc 2 429 5 view .LVU625
 429:lvgl/src/core/lv_obj_style_gen.h ****     return v.color;
 1826              		.loc 2 429 26 is_stmt 0 view .LVU626
 1827 0048 5222     		movs	r2, #82
 1828 004a 2946     		mov	r1, r5
 1829 004c 3046     		mov	r0, r6
 1830 004e FFF7FEFF 		bl	lv_obj_get_style_prop
 1831              	.LVL178:
 1832 0052 0246     		mov	r2, r0
 1833 0054 2946     		mov	r1, r5
 1834 0056 3046     		mov	r0, r6
 1835 0058 FFF7FEFF 		bl	_lv_obj_style_apply_color_filter
 1836              	.LVL179:
 430:lvgl/src/core/lv_obj_style_gen.h **** }
 1837              		.loc 2 430 5 is_stmt 1 view .LVU627
 430:lvgl/src/core/lv_obj_style_gen.h **** }
 1838              		.loc 2 430 5 is_stmt 0 view .LVU628
 1839              	.LBE352:
 1840              	.LBE351:
 303:lvgl/src/core/lv_obj_draw.c ****     draw_dsc->img_src = lv_obj_get_style_arc_img_src(obj, part);
 1841              		.loc 1 303 23 view .LVU629
 1842 005c 2060     		str	r0, [r4]
 304:lvgl/src/core/lv_obj_draw.c **** 
 1843              		.loc 1 304 5 is_stmt 1 view .LVU630
 1844              	.LVL180:
 1845              	.LBB353:
 1846              	.LBI353:
 439:lvgl/src/core/lv_obj_style_gen.h **** {
 1847              		.loc 2 439 28 view .LVU631
 1848              	.LBB354:
 441:lvgl/src/core/lv_obj_style_gen.h ****     return (const void *)v.ptr;
 1849              		.loc 2 441 5 view .LVU632
 441:lvgl/src/core/lv_obj_style_gen.h ****     return (const void *)v.ptr;
 1850              		.loc 2 441 26 is_stmt 0 view .LVU633
 1851 005e 5422     		movs	r2, #84
 1852 0060 2946     		mov	r1, r5
 1853 0062 3046     		mov	r0, r6
 1854 0064 FFF7FEFF 		bl	lv_obj_get_style_prop
 1855              	.LVL181:
 442:lvgl/src/core/lv_obj_style_gen.h **** }
 1856              		.loc 2 442 5 is_stmt 1 view .LVU634
 442:lvgl/src/core/lv_obj_style_gen.h **** }
 1857              		.loc 2 442 5 is_stmt 0 view .LVU635
 1858              	.LBE354:
 1859              	.LBE353:
ARM GAS  C:\Users\OSD\AppData\Local\Temp\cc7WrW7h.s 			page 60


 304:lvgl/src/core/lv_obj_draw.c **** 
 1860              		.loc 1 304 23 view .LVU636
 1861 0068 E060     		str	r0, [r4, #12]
 306:lvgl/src/core/lv_obj_draw.c **** 
 1862              		.loc 1 306 5 is_stmt 1 view .LVU637
 1863              	.LVL182:
 1864              	.LBB355:
 1865              	.LBI355:
 415:lvgl/src/core/lv_obj_style_gen.h **** {
 1866              		.loc 2 415 20 view .LVU638
 1867              	.LBB356:
 417:lvgl/src/core/lv_obj_style_gen.h ****     return (bool)v.num;
 1868              		.loc 2 417 5 view .LVU639
 417:lvgl/src/core/lv_obj_style_gen.h ****     return (bool)v.num;
 1869              		.loc 2 417 26 is_stmt 0 view .LVU640
 1870 006a 5122     		movs	r2, #81
 1871 006c 2946     		mov	r1, r5
 1872 006e 3046     		mov	r0, r6
 1873 0070 FFF7FEFF 		bl	lv_obj_get_style_prop
 1874              	.LVL183:
 418:lvgl/src/core/lv_obj_style_gen.h **** }
 1875              		.loc 2 418 5 is_stmt 1 view .LVU641
 418:lvgl/src/core/lv_obj_style_gen.h **** }
 1876              		.loc 2 418 12 is_stmt 0 view .LVU642
 1877 0074 0038     		subs	r0, r0, #0
 1878 0076 18BF     		it	ne
 1879 0078 0120     		movne	r0, #1
 1880              	.LVL184:
 418:lvgl/src/core/lv_obj_style_gen.h **** }
 1881              		.loc 2 418 12 view .LVU643
 1882              	.LBE356:
 1883              	.LBE355:
 306:lvgl/src/core/lv_obj_draw.c **** 
 1884              		.loc 1 306 23 view .LVU644
 1885 007a 637C     		ldrb	r3, [r4, #17]	@ zero_extendqisi2
 1886 007c 60F38203 		bfi	r3, r0, #2, #1
 1887 0080 6374     		strb	r3, [r4, #17]
 309:lvgl/src/core/lv_obj_draw.c **** #endif
 1888              		.loc 1 309 5 is_stmt 1 view .LVU645
 309:lvgl/src/core/lv_obj_draw.c **** #endif
 1889              		.loc 1 309 7 is_stmt 0 view .LVU646
 1890 0082 002D     		cmp	r5, #0
 1891 0084 C6D0     		beq	.L55
 309:lvgl/src/core/lv_obj_draw.c **** #endif
 1892              		.loc 1 309 30 is_stmt 1 view .LVU647
 1893              	.LVL185:
 1894              	.LBB357:
 1895              	.LBI357:
 553:lvgl/src/core/lv_obj_style_gen.h **** {
 1896              		.loc 2 553 31 view .LVU648
 1897              	.LBB358:
 555:lvgl/src/core/lv_obj_style_gen.h ****     return (lv_blend_mode_t)v.num;
 1898              		.loc 2 555 5 view .LVU649
 555:lvgl/src/core/lv_obj_style_gen.h ****     return (lv_blend_mode_t)v.num;
 1899              		.loc 2 555 26 is_stmt 0 view .LVU650
 1900 0086 6822     		movs	r2, #104
 1901 0088 2946     		mov	r1, r5
ARM GAS  C:\Users\OSD\AppData\Local\Temp\cc7WrW7h.s 			page 61


 1902 008a 3046     		mov	r0, r6
 1903 008c FFF7FEFF 		bl	lv_obj_get_style_prop
 1904              	.LVL186:
 1905              		.loc 2 556 5 is_stmt 1 view .LVU651
 1906              		.loc 2 556 5 is_stmt 0 view .LVU652
 1907              	.LBE358:
 1908              	.LBE357:
 309:lvgl/src/core/lv_obj_draw.c **** #endif
 1909              		.loc 1 309 51 view .LVU653
 1910 0090 637C     		ldrb	r3, [r4, #17]	@ zero_extendqisi2
 1911 0092 60F30103 		bfi	r3, r0, #0, #2
 1912 0096 6374     		strb	r3, [r4, #17]
 1913 0098 BCE7     		b	.L55
 1914              	.LVL187:
 1915              	.L61:
 295:lvgl/src/core/lv_obj_draw.c ****         return;
 1916              		.loc 1 295 9 is_stmt 1 view .LVU654
 295:lvgl/src/core/lv_obj_draw.c ****         return;
 1917              		.loc 1 295 23 is_stmt 0 view .LVU655
 1918 009a 0023     		movs	r3, #0
 1919 009c 2374     		strb	r3, [r4, #16]
 296:lvgl/src/core/lv_obj_draw.c ****     }
 1920              		.loc 1 296 9 is_stmt 1 view .LVU656
 1921 009e B9E7     		b	.L55
 1922              		.cfi_endproc
 1923              	.LFE171:
 1925              		.section	.text.lv_obj_calculate_ext_draw_size,"ax",%progbits
 1926              		.align	1
 1927              		.global	lv_obj_calculate_ext_draw_size
 1928              		.syntax unified
 1929              		.thumb
 1930              		.thumb_func
 1932              	lv_obj_calculate_ext_draw_size:
 1933              	.LVL188:
 1934              	.LFB172:
 312:lvgl/src/core/lv_obj_draw.c **** 
 313:lvgl/src/core/lv_obj_draw.c **** lv_coord_t lv_obj_calculate_ext_draw_size(lv_obj_t * obj, uint32_t part)
 314:lvgl/src/core/lv_obj_draw.c **** {
 1935              		.loc 1 314 1 view -0
 1936              		.cfi_startproc
 1937              		@ args = 0, pretend = 0, frame = 0
 1938              		@ frame_needed = 0, uses_anonymous_args = 0
 1939              		.loc 1 314 1 is_stmt 0 view .LVU658
 1940 0000 F8B5     		push	{r3, r4, r5, r6, r7, lr}
 1941              		.cfi_def_cfa_offset 24
 1942              		.cfi_offset 3, -24
 1943              		.cfi_offset 4, -20
 1944              		.cfi_offset 5, -16
 1945              		.cfi_offset 6, -12
 1946              		.cfi_offset 7, -8
 1947              		.cfi_offset 14, -4
 1948 0002 0546     		mov	r5, r0
 1949 0004 0E46     		mov	r6, r1
 315:lvgl/src/core/lv_obj_draw.c ****     lv_coord_t s = 0;
 1950              		.loc 1 315 5 is_stmt 1 view .LVU659
 1951              	.LVL189:
 316:lvgl/src/core/lv_obj_draw.c **** 
ARM GAS  C:\Users\OSD\AppData\Local\Temp\cc7WrW7h.s 			page 62


 317:lvgl/src/core/lv_obj_draw.c ****     lv_coord_t sh_width = lv_obj_get_style_shadow_width(obj, part);
 1952              		.loc 1 317 5 view .LVU660
 1953              	.LBB359:
 1954              	.LBI359:
 301:lvgl/src/core/lv_obj_style_gen.h **** {
 1955              		.loc 2 301 26 view .LVU661
 1956              	.LBB360:
 303:lvgl/src/core/lv_obj_style_gen.h ****     return (lv_coord_t)v.num;
 1957              		.loc 2 303 5 view .LVU662
 303:lvgl/src/core/lv_obj_style_gen.h ****     return (lv_coord_t)v.num;
 1958              		.loc 2 303 26 is_stmt 0 view .LVU663
 1959 0006 4022     		movs	r2, #64
 1960 0008 FFF7FEFF 		bl	lv_obj_get_style_prop
 1961              	.LVL190:
 304:lvgl/src/core/lv_obj_style_gen.h **** }
 1962              		.loc 2 304 5 is_stmt 1 view .LVU664
 304:lvgl/src/core/lv_obj_style_gen.h **** }
 1963              		.loc 2 304 12 is_stmt 0 view .LVU665
 1964 000c 04B2     		sxth	r4, r0
 1965              	.LVL191:
 304:lvgl/src/core/lv_obj_style_gen.h **** }
 1966              		.loc 2 304 12 view .LVU666
 1967              	.LBE360:
 1968              	.LBE359:
 318:lvgl/src/core/lv_obj_draw.c ****     if(sh_width) {
 1969              		.loc 1 318 5 is_stmt 1 view .LVU667
 1970              		.loc 1 318 7 is_stmt 0 view .LVU668
 1971 000e E4B9     		cbnz	r4, .L69
 1972              	.LVL192:
 1973              	.L63:
 319:lvgl/src/core/lv_obj_draw.c ****         lv_opa_t sh_opa = lv_obj_get_style_shadow_opa(obj, part);
 320:lvgl/src/core/lv_obj_draw.c ****         if(sh_opa > LV_OPA_MIN) {
 321:lvgl/src/core/lv_obj_draw.c ****             sh_width = sh_width / 2 + 1;    /*The blur adds only half width*/
 322:lvgl/src/core/lv_obj_draw.c ****             sh_width += lv_obj_get_style_shadow_spread(obj, part);
 323:lvgl/src/core/lv_obj_draw.c ****             lv_coord_t sh_ofs_x = lv_obj_get_style_shadow_ofs_x(obj, part);
 324:lvgl/src/core/lv_obj_draw.c ****             lv_coord_t sh_ofs_y = lv_obj_get_style_shadow_ofs_y(obj, part);
 325:lvgl/src/core/lv_obj_draw.c ****             sh_width += LV_MAX(LV_ABS(sh_ofs_x), LV_ABS(sh_ofs_y));
 326:lvgl/src/core/lv_obj_draw.c ****             s = LV_MAX(s, sh_width);
 327:lvgl/src/core/lv_obj_draw.c ****         }
 328:lvgl/src/core/lv_obj_draw.c ****     }
 329:lvgl/src/core/lv_obj_draw.c **** 
 330:lvgl/src/core/lv_obj_draw.c ****     lv_coord_t outline_width = lv_obj_get_style_outline_width(obj, part);
 1974              		.loc 1 330 5 is_stmt 1 view .LVU669
 1975              	.LBB361:
 1976              	.LBI361:
 271:lvgl/src/core/lv_obj_style_gen.h **** {
 1977              		.loc 2 271 26 view .LVU670
 1978              	.LBB362:
 273:lvgl/src/core/lv_obj_style_gen.h ****     return (lv_coord_t)v.num;
 1979              		.loc 2 273 5 view .LVU671
 273:lvgl/src/core/lv_obj_style_gen.h ****     return (lv_coord_t)v.num;
 1980              		.loc 2 273 26 is_stmt 0 view .LVU672
 1981 0010 3522     		movs	r2, #53
 1982 0012 3146     		mov	r1, r6
 1983 0014 2846     		mov	r0, r5
 1984 0016 FFF7FEFF 		bl	lv_obj_get_style_prop
 1985              	.LVL193:
ARM GAS  C:\Users\OSD\AppData\Local\Temp\cc7WrW7h.s 			page 63


 274:lvgl/src/core/lv_obj_style_gen.h **** }
 1986              		.loc 2 274 5 is_stmt 1 view .LVU673
 274:lvgl/src/core/lv_obj_style_gen.h **** }
 1987              		.loc 2 274 12 is_stmt 0 view .LVU674
 1988 001a 07B2     		sxth	r7, r0
 1989              	.LVL194:
 274:lvgl/src/core/lv_obj_style_gen.h **** }
 1990              		.loc 2 274 12 view .LVU675
 1991              	.LBE362:
 1992              	.LBE361:
 331:lvgl/src/core/lv_obj_draw.c ****     if(outline_width) {
 1993              		.loc 1 331 5 is_stmt 1 view .LVU676
 1994              		.loc 1 331 7 is_stmt 0 view .LVU677
 1995 001c 002F     		cmp	r7, #0
 1996 001e 4AD1     		bne	.L70
 1997              	.LVL195:
 1998              	.L65:
 332:lvgl/src/core/lv_obj_draw.c ****         lv_opa_t outline_opa = lv_obj_get_style_outline_opa(obj, part);
 333:lvgl/src/core/lv_obj_draw.c ****         if(outline_opa > LV_OPA_MIN) {
 334:lvgl/src/core/lv_obj_draw.c ****             lv_coord_t outline_pad = lv_obj_get_style_outline_pad(obj, part);
 335:lvgl/src/core/lv_obj_draw.c ****             s = LV_MAX(s, outline_pad + outline_width);
 336:lvgl/src/core/lv_obj_draw.c ****         }
 337:lvgl/src/core/lv_obj_draw.c ****     }
 338:lvgl/src/core/lv_obj_draw.c **** 
 339:lvgl/src/core/lv_obj_draw.c ****     lv_coord_t w = lv_obj_get_style_transform_width(obj, part);
 1999              		.loc 1 339 5 is_stmt 1 view .LVU678
 2000              	.LBB363:
 2001              	.LBI363:
  55:lvgl/src/core/lv_obj_style_gen.h **** {
 2002              		.loc 2 55 26 view .LVU679
 2003              	.LBB364:
  57:lvgl/src/core/lv_obj_style_gen.h ****     return (lv_coord_t)v.num;
 2004              		.loc 2 57 5 view .LVU680
  57:lvgl/src/core/lv_obj_style_gen.h ****     return (lv_coord_t)v.num;
 2005              		.loc 2 57 26 is_stmt 0 view .LVU681
 2006 0020 6922     		movs	r2, #105
 2007 0022 3146     		mov	r1, r6
 2008 0024 2846     		mov	r0, r5
 2009 0026 FFF7FEFF 		bl	lv_obj_get_style_prop
 2010              	.LVL196:
  58:lvgl/src/core/lv_obj_style_gen.h **** }
 2011              		.loc 2 58 5 is_stmt 1 view .LVU682
  58:lvgl/src/core/lv_obj_style_gen.h **** }
 2012              		.loc 2 58 12 is_stmt 0 view .LVU683
 2013 002a 07B2     		sxth	r7, r0
 2014              	.LVL197:
  58:lvgl/src/core/lv_obj_style_gen.h **** }
 2015              		.loc 2 58 12 view .LVU684
 2016              	.LBE364:
 2017              	.LBE363:
 340:lvgl/src/core/lv_obj_draw.c ****     lv_coord_t h = lv_obj_get_style_transform_height(obj, part);
 2018              		.loc 1 340 5 is_stmt 1 view .LVU685
 2019              	.LBB365:
 2020              	.LBI365:
  61:lvgl/src/core/lv_obj_style_gen.h **** {
 2021              		.loc 2 61 26 view .LVU686
 2022              	.LBB366:
ARM GAS  C:\Users\OSD\AppData\Local\Temp\cc7WrW7h.s 			page 64


  63:lvgl/src/core/lv_obj_style_gen.h ****     return (lv_coord_t)v.num;
 2023              		.loc 2 63 5 view .LVU687
  63:lvgl/src/core/lv_obj_style_gen.h ****     return (lv_coord_t)v.num;
 2024              		.loc 2 63 26 is_stmt 0 view .LVU688
 2025 002c 6A22     		movs	r2, #106
 2026 002e 3146     		mov	r1, r6
 2027 0030 2846     		mov	r0, r5
 2028 0032 FFF7FEFF 		bl	lv_obj_get_style_prop
 2029              	.LVL198:
  64:lvgl/src/core/lv_obj_style_gen.h **** }
 2030              		.loc 2 64 5 is_stmt 1 view .LVU689
  64:lvgl/src/core/lv_obj_style_gen.h **** }
 2031              		.loc 2 64 12 is_stmt 0 view .LVU690
 2032 0036 00B2     		sxth	r0, r0
 2033              	.LVL199:
  64:lvgl/src/core/lv_obj_style_gen.h **** }
 2034              		.loc 2 64 12 view .LVU691
 2035              	.LBE366:
 2036              	.LBE365:
 341:lvgl/src/core/lv_obj_draw.c ****     lv_coord_t wh = LV_MAX(w, h);
 2037              		.loc 1 341 5 is_stmt 1 view .LVU692
 2038              		.loc 1 341 16 is_stmt 0 view .LVU693
 2039 0038 B842     		cmp	r0, r7
 2040 003a B8BF     		it	lt
 2041 003c 3846     		movlt	r0, r7
 2042              	.LVL200:
 342:lvgl/src/core/lv_obj_draw.c ****     if(wh > 0) s += wh;
 2043              		.loc 1 342 5 is_stmt 1 view .LVU694
 2044              		.loc 1 342 7 is_stmt 0 view .LVU695
 2045 003e 0028     		cmp	r0, #0
 2046 0040 01DD     		ble	.L66
 2047              		.loc 1 342 16 is_stmt 1 discriminator 1 view .LVU696
 2048              		.loc 1 342 18 is_stmt 0 discriminator 1 view .LVU697
 2049 0042 0444     		add	r4, r4, r0
 2050              	.LVL201:
 2051              		.loc 1 342 18 discriminator 1 view .LVU698
 2052 0044 24B2     		sxth	r4, r4
 2053              	.LVL202:
 2054              	.L66:
 343:lvgl/src/core/lv_obj_draw.c **** 
 344:lvgl/src/core/lv_obj_draw.c ****     return s;
 2055              		.loc 1 344 5 is_stmt 1 view .LVU699
 345:lvgl/src/core/lv_obj_draw.c **** }
 2056              		.loc 1 345 1 is_stmt 0 view .LVU700
 2057 0046 2046     		mov	r0, r4
 2058              	.LVL203:
 2059              		.loc 1 345 1 view .LVU701
 2060 0048 F8BD     		pop	{r3, r4, r5, r6, r7, pc}
 2061              	.LVL204:
 2062              	.L69:
 2063              	.LBB367:
 319:lvgl/src/core/lv_obj_draw.c ****         if(sh_opa > LV_OPA_MIN) {
 2064              		.loc 1 319 9 is_stmt 1 view .LVU702
 2065              	.LBB368:
 2066              	.LBI368:
 337:lvgl/src/core/lv_obj_style_gen.h **** {
 2067              		.loc 2 337 24 view .LVU703
ARM GAS  C:\Users\OSD\AppData\Local\Temp\cc7WrW7h.s 			page 65


 2068              	.LBB369:
 339:lvgl/src/core/lv_obj_style_gen.h ****     return (lv_opa_t)v.num;
 2069              		.loc 2 339 5 view .LVU704
 339:lvgl/src/core/lv_obj_style_gen.h ****     return (lv_opa_t)v.num;
 2070              		.loc 2 339 26 is_stmt 0 view .LVU705
 2071 004a 4522     		movs	r2, #69
 2072 004c 3146     		mov	r1, r6
 2073 004e 2846     		mov	r0, r5
 2074 0050 FFF7FEFF 		bl	lv_obj_get_style_prop
 2075              	.LVL205:
 340:lvgl/src/core/lv_obj_style_gen.h **** }
 2076              		.loc 2 340 5 is_stmt 1 view .LVU706
 340:lvgl/src/core/lv_obj_style_gen.h **** }
 2077              		.loc 2 340 12 is_stmt 0 view .LVU707
 2078 0054 C0B2     		uxtb	r0, r0
 2079              	.LVL206:
 340:lvgl/src/core/lv_obj_style_gen.h **** }
 2080              		.loc 2 340 12 view .LVU708
 2081              	.LBE369:
 2082              	.LBE368:
 320:lvgl/src/core/lv_obj_draw.c ****             sh_width = sh_width / 2 + 1;    /*The blur adds only half width*/
 2083              		.loc 1 320 9 is_stmt 1 view .LVU709
 320:lvgl/src/core/lv_obj_draw.c ****             sh_width = sh_width / 2 + 1;    /*The blur adds only half width*/
 2084              		.loc 1 320 11 is_stmt 0 view .LVU710
 2085 0056 0228     		cmp	r0, #2
 2086 0058 01D8     		bhi	.L71
 2087              	.LBE367:
 315:lvgl/src/core/lv_obj_draw.c **** 
 2088              		.loc 1 315 16 view .LVU711
 2089 005a 0024     		movs	r4, #0
 2090              	.LVL207:
 315:lvgl/src/core/lv_obj_draw.c **** 
 2091              		.loc 1 315 16 view .LVU712
 2092 005c D8E7     		b	.L63
 2093              	.LVL208:
 2094              	.L71:
 2095              	.LBB377:
 2096              	.LBB370:
 321:lvgl/src/core/lv_obj_draw.c ****             sh_width += lv_obj_get_style_shadow_spread(obj, part);
 2097              		.loc 1 321 13 is_stmt 1 view .LVU713
 321:lvgl/src/core/lv_obj_draw.c ****             sh_width += lv_obj_get_style_shadow_spread(obj, part);
 2098              		.loc 1 321 37 is_stmt 0 view .LVU714
 2099 005e 2346     		mov	r3, r4
 2100 0060 002C     		cmp	r4, #0
 2101 0062 26DB     		blt	.L72
 2102              	.L64:
 2103 0064 5C10     		asrs	r4, r3, #1
 2104              	.LVL209:
 321:lvgl/src/core/lv_obj_draw.c ****             sh_width += lv_obj_get_style_shadow_spread(obj, part);
 2105              		.loc 1 321 37 view .LVU715
 2106 0066 0134     		adds	r4, r4, #1
 2107 0068 A4B2     		uxth	r4, r4
 2108              	.LVL210:
 322:lvgl/src/core/lv_obj_draw.c ****             lv_coord_t sh_ofs_x = lv_obj_get_style_shadow_ofs_x(obj, part);
 2109              		.loc 1 322 13 is_stmt 1 view .LVU716
 2110              	.LBB371:
 2111              	.LBI371:
ARM GAS  C:\Users\OSD\AppData\Local\Temp\cc7WrW7h.s 			page 66


 319:lvgl/src/core/lv_obj_style_gen.h **** {
 2112              		.loc 2 319 26 view .LVU717
 2113              	.LBB372:
 321:lvgl/src/core/lv_obj_style_gen.h ****     return (lv_coord_t)v.num;
 2114              		.loc 2 321 5 view .LVU718
 321:lvgl/src/core/lv_obj_style_gen.h ****     return (lv_coord_t)v.num;
 2115              		.loc 2 321 26 is_stmt 0 view .LVU719
 2116 006a 4322     		movs	r2, #67
 2117 006c 3146     		mov	r1, r6
 2118 006e 2846     		mov	r0, r5
 2119              	.LVL211:
 321:lvgl/src/core/lv_obj_style_gen.h ****     return (lv_coord_t)v.num;
 2120              		.loc 2 321 26 view .LVU720
 2121 0070 FFF7FEFF 		bl	lv_obj_get_style_prop
 2122              	.LVL212:
 322:lvgl/src/core/lv_obj_style_gen.h **** }
 2123              		.loc 2 322 5 is_stmt 1 view .LVU721
 322:lvgl/src/core/lv_obj_style_gen.h **** }
 2124              		.loc 2 322 5 is_stmt 0 view .LVU722
 2125              	.LBE372:
 2126              	.LBE371:
 322:lvgl/src/core/lv_obj_draw.c ****             lv_coord_t sh_ofs_x = lv_obj_get_style_shadow_ofs_x(obj, part);
 2127              		.loc 1 322 22 view .LVU723
 2128 0074 14FA80F4 		uxtah	r4, r4, r0
 2129              	.LVL213:
 322:lvgl/src/core/lv_obj_draw.c ****             lv_coord_t sh_ofs_x = lv_obj_get_style_shadow_ofs_x(obj, part);
 2130              		.loc 1 322 22 view .LVU724
 2131 0078 A4B2     		uxth	r4, r4
 2132              	.LVL214:
 323:lvgl/src/core/lv_obj_draw.c ****             lv_coord_t sh_ofs_y = lv_obj_get_style_shadow_ofs_y(obj, part);
 2133              		.loc 1 323 13 is_stmt 1 view .LVU725
 2134              	.LBB373:
 2135              	.LBI373:
 307:lvgl/src/core/lv_obj_style_gen.h **** {
 2136              		.loc 2 307 26 view .LVU726
 2137              	.LBB374:
 309:lvgl/src/core/lv_obj_style_gen.h ****     return (lv_coord_t)v.num;
 2138              		.loc 2 309 5 view .LVU727
 309:lvgl/src/core/lv_obj_style_gen.h ****     return (lv_coord_t)v.num;
 2139              		.loc 2 309 26 is_stmt 0 view .LVU728
 2140 007a 4122     		movs	r2, #65
 2141 007c 3146     		mov	r1, r6
 2142 007e 2846     		mov	r0, r5
 2143 0080 FFF7FEFF 		bl	lv_obj_get_style_prop
 2144              	.LVL215:
 310:lvgl/src/core/lv_obj_style_gen.h **** }
 2145              		.loc 2 310 5 is_stmt 1 view .LVU729
 310:lvgl/src/core/lv_obj_style_gen.h **** }
 2146              		.loc 2 310 12 is_stmt 0 view .LVU730
 2147 0084 07B2     		sxth	r7, r0
 2148              	.LVL216:
 310:lvgl/src/core/lv_obj_style_gen.h **** }
 2149              		.loc 2 310 12 view .LVU731
 2150              	.LBE374:
 2151              	.LBE373:
 324:lvgl/src/core/lv_obj_draw.c ****             sh_width += LV_MAX(LV_ABS(sh_ofs_x), LV_ABS(sh_ofs_y));
 2152              		.loc 1 324 13 is_stmt 1 view .LVU732
ARM GAS  C:\Users\OSD\AppData\Local\Temp\cc7WrW7h.s 			page 67


 2153              	.LBB375:
 2154              	.LBI375:
 313:lvgl/src/core/lv_obj_style_gen.h **** {
 2155              		.loc 2 313 26 view .LVU733
 2156              	.LBB376:
 315:lvgl/src/core/lv_obj_style_gen.h ****     return (lv_coord_t)v.num;
 2157              		.loc 2 315 5 view .LVU734
 315:lvgl/src/core/lv_obj_style_gen.h ****     return (lv_coord_t)v.num;
 2158              		.loc 2 315 26 is_stmt 0 view .LVU735
 2159 0086 4222     		movs	r2, #66
 2160 0088 3146     		mov	r1, r6
 2161 008a 2846     		mov	r0, r5
 2162 008c FFF7FEFF 		bl	lv_obj_get_style_prop
 2163              	.LVL217:
 316:lvgl/src/core/lv_obj_style_gen.h **** }
 2164              		.loc 2 316 5 is_stmt 1 view .LVU736
 316:lvgl/src/core/lv_obj_style_gen.h **** }
 2165              		.loc 2 316 12 is_stmt 0 view .LVU737
 2166 0090 03B2     		sxth	r3, r0
 2167              	.LVL218:
 316:lvgl/src/core/lv_obj_style_gen.h **** }
 2168              		.loc 2 316 12 view .LVU738
 2169              	.LBE376:
 2170              	.LBE375:
 325:lvgl/src/core/lv_obj_draw.c ****             s = LV_MAX(s, sh_width);
 2171              		.loc 1 325 13 is_stmt 1 view .LVU739
 325:lvgl/src/core/lv_obj_draw.c ****             s = LV_MAX(s, sh_width);
 2172              		.loc 1 325 25 is_stmt 0 view .LVU740
 2173 0092 002B     		cmp	r3, #0
 2174 0094 B8BF     		it	lt
 2175 0096 5B42     		rsblt	r3, r3, #0
 2176              	.LVL219:
 325:lvgl/src/core/lv_obj_draw.c ****             s = LV_MAX(s, sh_width);
 2177              		.loc 1 325 25 view .LVU741
 2178 0098 9BB2     		uxth	r3, r3
 2179 009a 002F     		cmp	r7, #0
 2180 009c B8BF     		it	lt
 2181 009e 7F42     		rsblt	r7, r7, #0
 2182              	.LVL220:
 325:lvgl/src/core/lv_obj_draw.c ****             s = LV_MAX(s, sh_width);
 2183              		.loc 1 325 25 view .LVU742
 2184 00a0 BFB2     		uxth	r7, r7
 325:lvgl/src/core/lv_obj_draw.c ****             s = LV_MAX(s, sh_width);
 2185              		.loc 1 325 22 view .LVU743
 2186 00a2 BB42     		cmp	r3, r7
 2187 00a4 2CBF     		ite	cs
 2188 00a6 E418     		addcs	r4, r4, r3
 2189 00a8 E419     		addcc	r4, r4, r7
 2190              	.LVL221:
 325:lvgl/src/core/lv_obj_draw.c ****             s = LV_MAX(s, sh_width);
 2191              		.loc 1 325 22 view .LVU744
 2192 00aa 24B2     		sxth	r4, r4
 2193              	.LVL222:
 326:lvgl/src/core/lv_obj_draw.c ****         }
 2194              		.loc 1 326 13 is_stmt 1 view .LVU745
 326:lvgl/src/core/lv_obj_draw.c ****         }
 2195              		.loc 1 326 15 is_stmt 0 view .LVU746
ARM GAS  C:\Users\OSD\AppData\Local\Temp\cc7WrW7h.s 			page 68


 2196 00ac 24EAE474 		bic	r4, r4, r4, asr #31
 2197              	.LVL223:
 326:lvgl/src/core/lv_obj_draw.c ****         }
 2198              		.loc 1 326 15 view .LVU747
 2199 00b0 AEE7     		b	.L63
 2200              	.LVL224:
 2201              	.L72:
 321:lvgl/src/core/lv_obj_draw.c ****             sh_width += lv_obj_get_style_shadow_spread(obj, part);
 2202              		.loc 1 321 37 view .LVU748
 2203 00b2 631C     		adds	r3, r4, #1
 2204 00b4 D6E7     		b	.L64
 2205              	.LVL225:
 2206              	.L70:
 321:lvgl/src/core/lv_obj_draw.c ****             sh_width += lv_obj_get_style_shadow_spread(obj, part);
 2207              		.loc 1 321 37 view .LVU749
 2208              	.LBE370:
 2209              	.LBE377:
 2210              	.LBB378:
 332:lvgl/src/core/lv_obj_draw.c ****         if(outline_opa > LV_OPA_MIN) {
 2211              		.loc 1 332 9 is_stmt 1 view .LVU750
 2212              	.LBB379:
 2213              	.LBI379:
 289:lvgl/src/core/lv_obj_style_gen.h **** {
 2214              		.loc 2 289 24 view .LVU751
 2215              	.LBB380:
 291:lvgl/src/core/lv_obj_style_gen.h ****     return (lv_opa_t)v.num;
 2216              		.loc 2 291 5 view .LVU752
 291:lvgl/src/core/lv_obj_style_gen.h ****     return (lv_opa_t)v.num;
 2217              		.loc 2 291 26 is_stmt 0 view .LVU753
 2218 00b6 3722     		movs	r2, #55
 2219 00b8 3146     		mov	r1, r6
 2220 00ba 2846     		mov	r0, r5
 2221 00bc FFF7FEFF 		bl	lv_obj_get_style_prop
 2222              	.LVL226:
 292:lvgl/src/core/lv_obj_style_gen.h **** }
 2223              		.loc 2 292 5 is_stmt 1 view .LVU754
 292:lvgl/src/core/lv_obj_style_gen.h **** }
 2224              		.loc 2 292 12 is_stmt 0 view .LVU755
 2225 00c0 C0B2     		uxtb	r0, r0
 2226              	.LVL227:
 292:lvgl/src/core/lv_obj_style_gen.h **** }
 2227              		.loc 2 292 12 view .LVU756
 2228              	.LBE380:
 2229              	.LBE379:
 333:lvgl/src/core/lv_obj_draw.c ****             lv_coord_t outline_pad = lv_obj_get_style_outline_pad(obj, part);
 2230              		.loc 1 333 9 is_stmt 1 view .LVU757
 333:lvgl/src/core/lv_obj_draw.c ****             lv_coord_t outline_pad = lv_obj_get_style_outline_pad(obj, part);
 2231              		.loc 1 333 11 is_stmt 0 view .LVU758
 2232 00c2 0228     		cmp	r0, #2
 2233 00c4 ACD9     		bls	.L65
 2234              	.LBB381:
 334:lvgl/src/core/lv_obj_draw.c ****             s = LV_MAX(s, outline_pad + outline_width);
 2235              		.loc 1 334 13 is_stmt 1 view .LVU759
 2236              	.LVL228:
 2237              	.LBB382:
 2238              	.LBI382:
 295:lvgl/src/core/lv_obj_style_gen.h **** {
ARM GAS  C:\Users\OSD\AppData\Local\Temp\cc7WrW7h.s 			page 69


 2239              		.loc 2 295 26 view .LVU760
 2240              	.LBB383:
 297:lvgl/src/core/lv_obj_style_gen.h ****     return (lv_coord_t)v.num;
 2241              		.loc 2 297 5 view .LVU761
 297:lvgl/src/core/lv_obj_style_gen.h ****     return (lv_coord_t)v.num;
 2242              		.loc 2 297 26 is_stmt 0 view .LVU762
 2243 00c6 3822     		movs	r2, #56
 2244 00c8 3146     		mov	r1, r6
 2245 00ca 2846     		mov	r0, r5
 2246              	.LVL229:
 297:lvgl/src/core/lv_obj_style_gen.h ****     return (lv_coord_t)v.num;
 2247              		.loc 2 297 26 view .LVU763
 2248 00cc FFF7FEFF 		bl	lv_obj_get_style_prop
 2249              	.LVL230:
 298:lvgl/src/core/lv_obj_style_gen.h **** }
 2250              		.loc 2 298 5 is_stmt 1 view .LVU764
 298:lvgl/src/core/lv_obj_style_gen.h **** }
 2251              		.loc 2 298 5 is_stmt 0 view .LVU765
 2252              	.LBE383:
 2253              	.LBE382:
 335:lvgl/src/core/lv_obj_draw.c ****         }
 2254              		.loc 1 335 13 is_stmt 1 view .LVU766
 335:lvgl/src/core/lv_obj_draw.c ****         }
 2255              		.loc 1 335 17 is_stmt 0 view .LVU767
 2256 00d0 07FA80F7 		sxtah	r7, r7, r0
 2257              	.LVL231:
 335:lvgl/src/core/lv_obj_draw.c ****         }
 2258              		.loc 1 335 17 view .LVU768
 2259 00d4 BC42     		cmp	r4, r7
 2260 00d6 B8BF     		it	lt
 2261 00d8 3C46     		movlt	r4, r7
 2262              	.LVL232:
 335:lvgl/src/core/lv_obj_draw.c ****         }
 2263              		.loc 1 335 15 view .LVU769
 2264 00da 24B2     		sxth	r4, r4
 2265              	.LVL233:
 335:lvgl/src/core/lv_obj_draw.c ****         }
 2266              		.loc 1 335 15 view .LVU770
 2267 00dc A0E7     		b	.L65
 2268              	.LBE381:
 2269              	.LBE378:
 2270              		.cfi_endproc
 2271              	.LFE172:
 2273              		.section	.text.lv_obj_draw_dsc_init,"ax",%progbits
 2274              		.align	1
 2275              		.global	lv_obj_draw_dsc_init
 2276              		.syntax unified
 2277              		.thumb
 2278              		.thumb_func
 2280              	lv_obj_draw_dsc_init:
 2281              	.LVL234:
 2282              	.LFB173:
 346:lvgl/src/core/lv_obj_draw.c **** 
 347:lvgl/src/core/lv_obj_draw.c **** void lv_obj_draw_dsc_init(lv_obj_draw_part_dsc_t * dsc, lv_draw_ctx_t * draw_ctx)
 348:lvgl/src/core/lv_obj_draw.c **** {
 2283              		.loc 1 348 1 is_stmt 1 view -0
 2284              		.cfi_startproc
ARM GAS  C:\Users\OSD\AppData\Local\Temp\cc7WrW7h.s 			page 70


 2285              		@ args = 0, pretend = 0, frame = 0
 2286              		@ frame_needed = 0, uses_anonymous_args = 0
 2287              		.loc 1 348 1 is_stmt 0 view .LVU772
 2288 0000 38B5     		push	{r3, r4, r5, lr}
 2289              		.cfi_def_cfa_offset 16
 2290              		.cfi_offset 3, -16
 2291              		.cfi_offset 4, -12
 2292              		.cfi_offset 5, -8
 2293              		.cfi_offset 14, -4
 2294 0002 0446     		mov	r4, r0
 2295 0004 0D46     		mov	r5, r1
 349:lvgl/src/core/lv_obj_draw.c ****     lv_memset_00(dsc, sizeof(lv_obj_draw_part_dsc_t));
 2296              		.loc 1 349 5 is_stmt 1 view .LVU773
 2297 0006 4821     		movs	r1, #72
 2298              	.LVL235:
 2299              		.loc 1 349 5 is_stmt 0 view .LVU774
 2300 0008 FFF7FEFF 		bl	lv_memset_00
 2301              	.LVL236:
 350:lvgl/src/core/lv_obj_draw.c ****     dsc->draw_ctx = draw_ctx;
 2302              		.loc 1 350 5 is_stmt 1 view .LVU775
 2303              		.loc 1 350 19 is_stmt 0 view .LVU776
 2304 000c 2560     		str	r5, [r4]
 351:lvgl/src/core/lv_obj_draw.c **** }
 2305              		.loc 1 351 1 view .LVU777
 2306 000e 38BD     		pop	{r3, r4, r5, pc}
 2307              		.loc 1 351 1 view .LVU778
 2308              		.cfi_endproc
 2309              	.LFE173:
 2311              		.section	.text.lv_obj_draw_part_check_type,"ax",%progbits
 2312              		.align	1
 2313              		.global	lv_obj_draw_part_check_type
 2314              		.syntax unified
 2315              		.thumb
 2316              		.thumb_func
 2318              	lv_obj_draw_part_check_type:
 2319              	.LVL237:
 2320              	.LFB174:
 352:lvgl/src/core/lv_obj_draw.c **** 
 353:lvgl/src/core/lv_obj_draw.c **** bool lv_obj_draw_part_check_type(lv_obj_draw_part_dsc_t * dsc, const lv_obj_class_t * class_p, uint
 354:lvgl/src/core/lv_obj_draw.c **** {
 2321              		.loc 1 354 1 is_stmt 1 view -0
 2322              		.cfi_startproc
 2323              		@ args = 0, pretend = 0, frame = 0
 2324              		@ frame_needed = 0, uses_anonymous_args = 0
 2325              		@ link register save eliminated.
 355:lvgl/src/core/lv_obj_draw.c ****     if(dsc->class_p == class_p && dsc->type == type) return true;
 2326              		.loc 1 355 5 view .LVU780
 2327              		.loc 1 355 11 is_stmt 0 view .LVU781
 2328 0000 4368     		ldr	r3, [r0, #4]
 2329              		.loc 1 355 7 view .LVU782
 2330 0002 8B42     		cmp	r3, r1
 2331 0004 01D0     		beq	.L79
 356:lvgl/src/core/lv_obj_draw.c ****     else return false;
 2332              		.loc 1 356 17 view .LVU783
 2333 0006 0020     		movs	r0, #0
 2334              	.LVL238:
 2335              		.loc 1 356 17 view .LVU784
ARM GAS  C:\Users\OSD\AppData\Local\Temp\cc7WrW7h.s 			page 71


 2336 0008 7047     		bx	lr
 2337              	.LVL239:
 2338              	.L79:
 355:lvgl/src/core/lv_obj_draw.c ****     if(dsc->class_p == class_p && dsc->type == type) return true;
 2339              		.loc 1 355 38 discriminator 1 view .LVU785
 2340 000a 8368     		ldr	r3, [r0, #8]
 355:lvgl/src/core/lv_obj_draw.c ****     if(dsc->class_p == class_p && dsc->type == type) return true;
 2341              		.loc 1 355 32 discriminator 1 view .LVU786
 2342 000c 9342     		cmp	r3, r2
 2343 000e 01D0     		beq	.L78
 2344              		.loc 1 356 17 view .LVU787
 2345 0010 0020     		movs	r0, #0
 2346              	.LVL240:
 2347              		.loc 1 356 17 view .LVU788
 2348 0012 7047     		bx	lr
 2349              	.LVL241:
 2350              	.L78:
 355:lvgl/src/core/lv_obj_draw.c ****     if(dsc->class_p == class_p && dsc->type == type) return true;
 2351              		.loc 1 355 61 view .LVU789
 2352 0014 0120     		movs	r0, #1
 2353              	.LVL242:
 357:lvgl/src/core/lv_obj_draw.c **** }
 2354              		.loc 1 357 1 view .LVU790
 2355 0016 7047     		bx	lr
 2356              		.cfi_endproc
 2357              	.LFE174:
 2359              		.section	.text._lv_obj_get_ext_draw_size,"ax",%progbits
 2360              		.align	1
 2361              		.global	_lv_obj_get_ext_draw_size
 2362              		.syntax unified
 2363              		.thumb
 2364              		.thumb_func
 2366              	_lv_obj_get_ext_draw_size:
 2367              	.LVL243:
 2368              	.LFB176:
 358:lvgl/src/core/lv_obj_draw.c **** 
 359:lvgl/src/core/lv_obj_draw.c **** void lv_obj_refresh_ext_draw_size(lv_obj_t * obj)
 360:lvgl/src/core/lv_obj_draw.c **** {
 361:lvgl/src/core/lv_obj_draw.c ****     LV_ASSERT_OBJ(obj, MY_CLASS);
 362:lvgl/src/core/lv_obj_draw.c **** 
 363:lvgl/src/core/lv_obj_draw.c ****     lv_coord_t s_old = _lv_obj_get_ext_draw_size(obj);
 364:lvgl/src/core/lv_obj_draw.c ****     lv_coord_t s_new = 0;
 365:lvgl/src/core/lv_obj_draw.c ****     lv_event_send(obj, LV_EVENT_REFR_EXT_DRAW_SIZE, &s_new);
 366:lvgl/src/core/lv_obj_draw.c **** 
 367:lvgl/src/core/lv_obj_draw.c ****     if(s_new != s_old) lv_obj_invalidate(obj);
 368:lvgl/src/core/lv_obj_draw.c **** 
 369:lvgl/src/core/lv_obj_draw.c ****     /*Store the result if the special attrs already allocated*/
 370:lvgl/src/core/lv_obj_draw.c ****     if(obj->spec_attr) {
 371:lvgl/src/core/lv_obj_draw.c ****         obj->spec_attr->ext_draw_size = s_new;
 372:lvgl/src/core/lv_obj_draw.c ****     }
 373:lvgl/src/core/lv_obj_draw.c ****     /*Allocate spec. attrs. only if the result is not zero.
 374:lvgl/src/core/lv_obj_draw.c ****      *Zero is the default value if the spec. attr. are not defined.*/
 375:lvgl/src/core/lv_obj_draw.c ****     else if(s_new != 0) {
 376:lvgl/src/core/lv_obj_draw.c ****         lv_obj_allocate_spec_attr(obj);
 377:lvgl/src/core/lv_obj_draw.c ****         obj->spec_attr->ext_draw_size = s_new;
 378:lvgl/src/core/lv_obj_draw.c ****     }
 379:lvgl/src/core/lv_obj_draw.c **** 
ARM GAS  C:\Users\OSD\AppData\Local\Temp\cc7WrW7h.s 			page 72


 380:lvgl/src/core/lv_obj_draw.c ****     if(s_new != s_old) lv_obj_invalidate(obj);
 381:lvgl/src/core/lv_obj_draw.c **** }
 382:lvgl/src/core/lv_obj_draw.c **** 
 383:lvgl/src/core/lv_obj_draw.c **** lv_coord_t _lv_obj_get_ext_draw_size(const lv_obj_t * obj)
 384:lvgl/src/core/lv_obj_draw.c **** {
 2369              		.loc 1 384 1 is_stmt 1 view -0
 2370              		.cfi_startproc
 2371              		@ args = 0, pretend = 0, frame = 0
 2372              		@ frame_needed = 0, uses_anonymous_args = 0
 2373              		@ link register save eliminated.
 385:lvgl/src/core/lv_obj_draw.c ****     if(obj->spec_attr) return obj->spec_attr->ext_draw_size;
 2374              		.loc 1 385 5 view .LVU792
 2375              		.loc 1 385 11 is_stmt 0 view .LVU793
 2376 0000 8368     		ldr	r3, [r0, #8]
 2377              		.loc 1 385 7 view .LVU794
 2378 0002 13B1     		cbz	r3, .L82
 2379              		.loc 1 385 24 is_stmt 1 discriminator 1 view .LVU795
 2380              		.loc 1 385 45 is_stmt 0 discriminator 1 view .LVU796
 2381 0004 B3F91600 		ldrsh	r0, [r3, #22]
 2382              	.LVL244:
 2383              		.loc 1 385 45 discriminator 1 view .LVU797
 2384 0008 7047     		bx	lr
 2385              	.LVL245:
 2386              	.L82:
 386:lvgl/src/core/lv_obj_draw.c ****     else return 0;
 2387              		.loc 1 386 17 view .LVU798
 2388 000a 0020     		movs	r0, #0
 2389              	.LVL246:
 387:lvgl/src/core/lv_obj_draw.c **** }
 2390              		.loc 1 387 1 view .LVU799
 2391 000c 7047     		bx	lr
 2392              		.cfi_endproc
 2393              	.LFE176:
 2395              		.section	.text.lv_obj_refresh_ext_draw_size,"ax",%progbits
 2396              		.align	1
 2397              		.global	lv_obj_refresh_ext_draw_size
 2398              		.syntax unified
 2399              		.thumb
 2400              		.thumb_func
 2402              	lv_obj_refresh_ext_draw_size:
 2403              	.LVL247:
 2404              	.LFB175:
 360:lvgl/src/core/lv_obj_draw.c ****     LV_ASSERT_OBJ(obj, MY_CLASS);
 2405              		.loc 1 360 1 is_stmt 1 view -0
 2406              		.cfi_startproc
 2407              		@ args = 0, pretend = 0, frame = 8
 2408              		@ frame_needed = 0, uses_anonymous_args = 0
 360:lvgl/src/core/lv_obj_draw.c ****     LV_ASSERT_OBJ(obj, MY_CLASS);
 2409              		.loc 1 360 1 is_stmt 0 view .LVU801
 2410 0000 30B5     		push	{r4, r5, lr}
 2411              		.cfi_def_cfa_offset 12
 2412              		.cfi_offset 4, -12
 2413              		.cfi_offset 5, -8
 2414              		.cfi_offset 14, -4
 2415 0002 83B0     		sub	sp, sp, #12
 2416              		.cfi_def_cfa_offset 24
 2417 0004 0446     		mov	r4, r0
ARM GAS  C:\Users\OSD\AppData\Local\Temp\cc7WrW7h.s 			page 73


 361:lvgl/src/core/lv_obj_draw.c **** 
 2418              		.loc 1 361 5 is_stmt 1 view .LVU802
 361:lvgl/src/core/lv_obj_draw.c **** 
 2419              		.loc 1 361 5 view .LVU803
 361:lvgl/src/core/lv_obj_draw.c **** 
 2420              		.loc 1 361 5 view .LVU804
 363:lvgl/src/core/lv_obj_draw.c ****     lv_coord_t s_new = 0;
 2421              		.loc 1 363 5 view .LVU805
 363:lvgl/src/core/lv_obj_draw.c ****     lv_coord_t s_new = 0;
 2422              		.loc 1 363 24 is_stmt 0 view .LVU806
 2423 0006 FFF7FEFF 		bl	_lv_obj_get_ext_draw_size
 2424              	.LVL248:
 363:lvgl/src/core/lv_obj_draw.c ****     lv_coord_t s_new = 0;
 2425              		.loc 1 363 24 view .LVU807
 2426 000a 0546     		mov	r5, r0
 2427              	.LVL249:
 364:lvgl/src/core/lv_obj_draw.c ****     lv_event_send(obj, LV_EVENT_REFR_EXT_DRAW_SIZE, &s_new);
 2428              		.loc 1 364 5 is_stmt 1 view .LVU808
 364:lvgl/src/core/lv_obj_draw.c ****     lv_event_send(obj, LV_EVENT_REFR_EXT_DRAW_SIZE, &s_new);
 2429              		.loc 1 364 16 is_stmt 0 view .LVU809
 2430 000c 0023     		movs	r3, #0
 2431 000e ADF80630 		strh	r3, [sp, #6]	@ movhi
 365:lvgl/src/core/lv_obj_draw.c **** 
 2432              		.loc 1 365 5 is_stmt 1 view .LVU810
 2433 0012 0DF10602 		add	r2, sp, #6
 2434 0016 1321     		movs	r1, #19
 2435 0018 2046     		mov	r0, r4
 2436 001a FFF7FEFF 		bl	lv_event_send
 2437              	.LVL250:
 367:lvgl/src/core/lv_obj_draw.c **** 
 2438              		.loc 1 367 5 view .LVU811
 367:lvgl/src/core/lv_obj_draw.c **** 
 2439              		.loc 1 367 14 is_stmt 0 view .LVU812
 2440 001e BDF90630 		ldrsh	r3, [sp, #6]
 367:lvgl/src/core/lv_obj_draw.c **** 
 2441              		.loc 1 367 7 view .LVU813
 2442 0022 AB42     		cmp	r3, r5
 2443 0024 0AD1     		bne	.L89
 2444              	.L84:
 370:lvgl/src/core/lv_obj_draw.c ****         obj->spec_attr->ext_draw_size = s_new;
 2445              		.loc 1 370 5 is_stmt 1 view .LVU814
 370:lvgl/src/core/lv_obj_draw.c ****         obj->spec_attr->ext_draw_size = s_new;
 2446              		.loc 1 370 11 is_stmt 0 view .LVU815
 2447 0026 A368     		ldr	r3, [r4, #8]
 370:lvgl/src/core/lv_obj_draw.c ****         obj->spec_attr->ext_draw_size = s_new;
 2448              		.loc 1 370 7 view .LVU816
 2449 0028 63B1     		cbz	r3, .L85
 371:lvgl/src/core/lv_obj_draw.c ****     }
 2450              		.loc 1 371 9 is_stmt 1 view .LVU817
 371:lvgl/src/core/lv_obj_draw.c ****     }
 2451              		.loc 1 371 39 is_stmt 0 view .LVU818
 2452 002a BDF80620 		ldrh	r2, [sp, #6]
 2453 002e DA82     		strh	r2, [r3, #22]	@ movhi
 2454              	.L86:
 380:lvgl/src/core/lv_obj_draw.c **** }
 2455              		.loc 1 380 5 is_stmt 1 view .LVU819
 380:lvgl/src/core/lv_obj_draw.c **** }
ARM GAS  C:\Users\OSD\AppData\Local\Temp\cc7WrW7h.s 			page 74


 2456              		.loc 1 380 14 is_stmt 0 view .LVU820
 2457 0030 BDF90630 		ldrsh	r3, [sp, #6]
 380:lvgl/src/core/lv_obj_draw.c **** }
 2458              		.loc 1 380 7 view .LVU821
 2459 0034 AB42     		cmp	r3, r5
 2460 0036 11D1     		bne	.L90
 2461              	.L83:
 381:lvgl/src/core/lv_obj_draw.c **** 
 2462              		.loc 1 381 1 view .LVU822
 2463 0038 03B0     		add	sp, sp, #12
 2464              		.cfi_remember_state
 2465              		.cfi_def_cfa_offset 12
 2466              		@ sp needed
 2467 003a 30BD     		pop	{r4, r5, pc}
 2468              	.LVL251:
 2469              	.L89:
 2470              		.cfi_restore_state
 367:lvgl/src/core/lv_obj_draw.c **** 
 2471              		.loc 1 367 24 is_stmt 1 discriminator 1 view .LVU823
 2472 003c 2046     		mov	r0, r4
 2473 003e FFF7FEFF 		bl	lv_obj_invalidate
 2474              	.LVL252:
 2475 0042 F0E7     		b	.L84
 2476              	.L85:
 375:lvgl/src/core/lv_obj_draw.c ****         lv_obj_allocate_spec_attr(obj);
 2477              		.loc 1 375 10 view .LVU824
 375:lvgl/src/core/lv_obj_draw.c ****         lv_obj_allocate_spec_attr(obj);
 2478              		.loc 1 375 19 is_stmt 0 view .LVU825
 2479 0044 BDF90630 		ldrsh	r3, [sp, #6]
 375:lvgl/src/core/lv_obj_draw.c ****         lv_obj_allocate_spec_attr(obj);
 2480              		.loc 1 375 12 view .LVU826
 2481 0048 002B     		cmp	r3, #0
 2482 004a F1D0     		beq	.L86
 376:lvgl/src/core/lv_obj_draw.c ****         obj->spec_attr->ext_draw_size = s_new;
 2483              		.loc 1 376 9 is_stmt 1 view .LVU827
 2484 004c 2046     		mov	r0, r4
 2485 004e FFF7FEFF 		bl	lv_obj_allocate_spec_attr
 2486              	.LVL253:
 377:lvgl/src/core/lv_obj_draw.c ****     }
 2487              		.loc 1 377 9 view .LVU828
 377:lvgl/src/core/lv_obj_draw.c ****     }
 2488              		.loc 1 377 12 is_stmt 0 view .LVU829
 2489 0052 A368     		ldr	r3, [r4, #8]
 377:lvgl/src/core/lv_obj_draw.c ****     }
 2490              		.loc 1 377 39 view .LVU830
 2491 0054 BDF80620 		ldrh	r2, [sp, #6]
 2492 0058 DA82     		strh	r2, [r3, #22]	@ movhi
 2493 005a E9E7     		b	.L86
 2494              	.L90:
 380:lvgl/src/core/lv_obj_draw.c **** }
 2495              		.loc 1 380 24 is_stmt 1 discriminator 1 view .LVU831
 2496 005c 2046     		mov	r0, r4
 2497 005e FFF7FEFF 		bl	lv_obj_invalidate
 2498              	.LVL254:
 381:lvgl/src/core/lv_obj_draw.c **** 
 2499              		.loc 1 381 1 is_stmt 0 discriminator 1 view .LVU832
 2500 0062 E9E7     		b	.L83
ARM GAS  C:\Users\OSD\AppData\Local\Temp\cc7WrW7h.s 			page 75


 2501              		.cfi_endproc
 2502              	.LFE175:
 2504              		.section	.text._lv_obj_get_layer_type,"ax",%progbits
 2505              		.align	1
 2506              		.global	_lv_obj_get_layer_type
 2507              		.syntax unified
 2508              		.thumb
 2509              		.thumb_func
 2511              	_lv_obj_get_layer_type:
 2512              	.LVL255:
 2513              	.LFB177:
 388:lvgl/src/core/lv_obj_draw.c **** 
 389:lvgl/src/core/lv_obj_draw.c **** lv_layer_type_t _lv_obj_get_layer_type(const lv_obj_t * obj)
 390:lvgl/src/core/lv_obj_draw.c **** {
 2514              		.loc 1 390 1 is_stmt 1 view -0
 2515              		.cfi_startproc
 2516              		@ args = 0, pretend = 0, frame = 0
 2517              		@ frame_needed = 0, uses_anonymous_args = 0
 2518              		@ link register save eliminated.
 391:lvgl/src/core/lv_obj_draw.c **** 
 392:lvgl/src/core/lv_obj_draw.c ****     if(obj->spec_attr) return obj->spec_attr->layer_type;
 2519              		.loc 1 392 5 view .LVU834
 2520              		.loc 1 392 11 is_stmt 0 view .LVU835
 2521 0000 8368     		ldr	r3, [r0, #8]
 2522              		.loc 1 392 7 view .LVU836
 2523 0002 13B1     		cbz	r3, .L93
 2524              		.loc 1 392 24 is_stmt 1 discriminator 1 view .LVU837
 2525              		.loc 1 392 45 is_stmt 0 discriminator 1 view .LVU838
 2526 0004 987E     		ldrb	r0, [r3, #26]	@ zero_extendqisi2
 2527              	.LVL256:
 2528              		.loc 1 392 45 discriminator 1 view .LVU839
 2529 0006 8009     		lsrs	r0, r0, #6
 2530 0008 7047     		bx	lr
 2531              	.LVL257:
 2532              	.L93:
 393:lvgl/src/core/lv_obj_draw.c ****     else return LV_LAYER_TYPE_NONE;
 2533              		.loc 1 393 17 view .LVU840
 2534 000a 0020     		movs	r0, #0
 2535              	.LVL258:
 394:lvgl/src/core/lv_obj_draw.c **** }
 2536              		.loc 1 394 1 view .LVU841
 2537 000c 7047     		bx	lr
 2538              		.cfi_endproc
 2539              	.LFE177:
 2541              		.text
 2542              	.Letext0:
 2543              		.file 4 "c:\\tools\\gcc-arm-none-eabi\\arm-none-eabi\\include\\machine\\_default_types.h"
 2544              		.file 5 "c:\\tools\\gcc-arm-none-eabi\\arm-none-eabi\\include\\sys\\_stdint.h"
 2545              		.file 6 "c:\\tools\\gcc-arm-none-eabi\\lib\\gcc\\arm-none-eabi\\10.3.1\\include\\stddef.h"
 2546              		.file 7 "lvgl/src/core/../draw/../misc/../font/lv_font.h"
 2547              		.file 8 "lvgl/src/core/../draw/../misc/lv_types.h"
 2548              		.file 9 "lvgl/src/core/../draw/../misc/lv_color.h"
 2549              		.file 10 "lvgl/src/core/../draw/../misc/lv_txt.h"
 2550              		.file 11 "lvgl/src/core/../draw/../misc/lv_bidi.h"
 2551              		.file 12 "lvgl/src/core/../draw/../misc/lv_style.h"
 2552              		.file 13 "lvgl/src/core/../draw/lv_img_buf.h"
 2553              		.file 14 "lvgl/src/core/../draw/lv_img_decoder.h"
ARM GAS  C:\Users\OSD\AppData\Local\Temp\cc7WrW7h.s 			page 76


 2554              		.file 15 "lvgl/src/core/lv_obj.h"
 2555              		.file 16 "lvgl/src/core/../draw/lv_draw_rect.h"
 2556              		.file 17 "lvgl/src/core/../draw/lv_draw_label.h"
 2557              		.file 18 "lvgl/src/core/../draw/lv_draw_img.h"
 2558              		.file 19 "lvgl/src/core/../draw/lv_draw_line.h"
 2559              		.file 20 "lvgl/src/core/../draw/lv_draw_arc.h"
 2560              		.file 21 "lvgl/src/core/../draw/lv_draw_layer.h"
 2561              		.file 22 "lvgl/src/core/../draw/lv_draw.h"
 2562              		.file 23 "lvgl/src/core/lv_obj_draw.h"
 2563              		.file 24 "lvgl/src/core/lv_obj_class.h"
 2564              		.file 25 "lvgl/src/core/../hal/../misc/lv_ll.h"
 2565              		.file 26 "lvgl/src/core/lv_group.h"
 2566              		.file 27 "lvgl/src/core/lv_obj_scroll.h"
 2567              		.file 28 "lvgl/src/core/lv_obj_style.h"
 2568              		.file 29 "lvgl/src/core/lv_event.h"
 2569              		.file 30 "lvgl/src/core/../draw/sw/../../core/lv_obj_pos.h"
 2570              		.file 31 "lvgl/src/core/../draw/../misc/lv_mem.h"
ARM GAS  C:\Users\OSD\AppData\Local\Temp\cc7WrW7h.s 			page 77

