ARM GAS  C:\Users\OSD\AppData\Local\Temp\cceLTvBX.s 			page 1


   1              		.cpu cortex-m7
   2              		.arch armv7e-m
   3              		.fpu fpv5-d16
   4              		.eabi_attribute 28, 1
   5              		.eabi_attribute 20, 1
   6              		.eabi_attribute 21, 1
   7              		.eabi_attribute 23, 3
   8              		.eabi_attribute 24, 1
   9              		.eabi_attribute 25, 1
  10              		.eabi_attribute 26, 1
  11              		.eabi_attribute 30, 1
  12              		.eabi_attribute 34, 1
  13              		.eabi_attribute 18, 4
  14              		.file	"lv_refr.c"
  15              		.text
  16              	.Ltext0:
  17              		.cfi_sections	.debug_frame
  18              		.section	.text.get_max_row,"ax",%progbits
  19              		.align	1
  20              		.syntax unified
  21              		.thumb
  22              		.thumb_func
  24              	get_max_row:
  25              	.LVL0:
  26              	.LFB186:
  27              		.file 1 "lvgl/src/core/lv_refr.c"
   1:lvgl/src/core/lv_refr.c **** /**
   2:lvgl/src/core/lv_refr.c ****  * @file lv_refr.c
   3:lvgl/src/core/lv_refr.c ****  *
   4:lvgl/src/core/lv_refr.c ****  */
   5:lvgl/src/core/lv_refr.c **** 
   6:lvgl/src/core/lv_refr.c **** /*********************
   7:lvgl/src/core/lv_refr.c ****  *      INCLUDES
   8:lvgl/src/core/lv_refr.c ****  *********************/
   9:lvgl/src/core/lv_refr.c **** #include <stddef.h>
  10:lvgl/src/core/lv_refr.c **** #include "lv_refr.h"
  11:lvgl/src/core/lv_refr.c **** #include "lv_disp.h"
  12:lvgl/src/core/lv_refr.c **** #include "../hal/lv_hal_tick.h"
  13:lvgl/src/core/lv_refr.c **** #include "../hal/lv_hal_disp.h"
  14:lvgl/src/core/lv_refr.c **** #include "../misc/lv_timer.h"
  15:lvgl/src/core/lv_refr.c **** #include "../misc/lv_mem.h"
  16:lvgl/src/core/lv_refr.c **** #include "../misc/lv_math.h"
  17:lvgl/src/core/lv_refr.c **** #include "../misc/lv_gc.h"
  18:lvgl/src/core/lv_refr.c **** #include "../draw/lv_draw.h"
  19:lvgl/src/core/lv_refr.c **** #include "../font/lv_font_fmt_txt.h"
  20:lvgl/src/core/lv_refr.c **** #include "../extra/others/snapshot/lv_snapshot.h"
  21:lvgl/src/core/lv_refr.c **** 
  22:lvgl/src/core/lv_refr.c **** #if LV_USE_PERF_MONITOR || LV_USE_MEM_MONITOR
  23:lvgl/src/core/lv_refr.c ****     #include "../widgets/lv_label.h"
  24:lvgl/src/core/lv_refr.c **** #endif
  25:lvgl/src/core/lv_refr.c **** 
  26:lvgl/src/core/lv_refr.c **** /*********************
  27:lvgl/src/core/lv_refr.c ****  *      DEFINES
  28:lvgl/src/core/lv_refr.c ****  *********************/
  29:lvgl/src/core/lv_refr.c **** 
  30:lvgl/src/core/lv_refr.c **** /**********************
  31:lvgl/src/core/lv_refr.c ****  *      TYPEDEFS
ARM GAS  C:\Users\OSD\AppData\Local\Temp\cceLTvBX.s 			page 2


  32:lvgl/src/core/lv_refr.c ****  **********************/
  33:lvgl/src/core/lv_refr.c **** typedef struct {
  34:lvgl/src/core/lv_refr.c ****     uint32_t    perf_last_time;
  35:lvgl/src/core/lv_refr.c ****     uint32_t    elaps_sum;
  36:lvgl/src/core/lv_refr.c ****     uint32_t    frame_cnt;
  37:lvgl/src/core/lv_refr.c ****     uint32_t    fps_sum_cnt;
  38:lvgl/src/core/lv_refr.c ****     uint32_t    fps_sum_all;
  39:lvgl/src/core/lv_refr.c **** #if LV_USE_LABEL
  40:lvgl/src/core/lv_refr.c ****     lv_obj_t  * perf_label;
  41:lvgl/src/core/lv_refr.c **** #endif
  42:lvgl/src/core/lv_refr.c **** } perf_monitor_t;
  43:lvgl/src/core/lv_refr.c **** 
  44:lvgl/src/core/lv_refr.c **** typedef struct {
  45:lvgl/src/core/lv_refr.c ****     uint32_t     mem_last_time;
  46:lvgl/src/core/lv_refr.c **** #if LV_USE_LABEL
  47:lvgl/src/core/lv_refr.c ****     lv_obj_t  *  mem_label;
  48:lvgl/src/core/lv_refr.c **** #endif
  49:lvgl/src/core/lv_refr.c **** } mem_monitor_t;
  50:lvgl/src/core/lv_refr.c **** 
  51:lvgl/src/core/lv_refr.c **** /**********************
  52:lvgl/src/core/lv_refr.c ****  *  STATIC PROTOTYPES
  53:lvgl/src/core/lv_refr.c ****  **********************/
  54:lvgl/src/core/lv_refr.c **** static void lv_refr_join_area(void);
  55:lvgl/src/core/lv_refr.c **** static void refr_invalid_areas(void);
  56:lvgl/src/core/lv_refr.c **** static void refr_sync_areas(void);
  57:lvgl/src/core/lv_refr.c **** static void refr_area(const lv_area_t * area_p);
  58:lvgl/src/core/lv_refr.c **** static void refr_area_part(lv_draw_ctx_t * draw_ctx);
  59:lvgl/src/core/lv_refr.c **** static lv_obj_t * lv_refr_get_top_obj(const lv_area_t * area_p, lv_obj_t * obj);
  60:lvgl/src/core/lv_refr.c **** static void refr_obj_and_children(lv_draw_ctx_t * draw_ctx, lv_obj_t * top_obj);
  61:lvgl/src/core/lv_refr.c **** static void refr_obj(lv_draw_ctx_t * draw_ctx, lv_obj_t * obj);
  62:lvgl/src/core/lv_refr.c **** static uint32_t get_max_row(lv_disp_t * disp, lv_coord_t area_w, lv_coord_t area_h);
  63:lvgl/src/core/lv_refr.c **** static void draw_buf_flush(lv_disp_t * disp);
  64:lvgl/src/core/lv_refr.c **** static void call_flush_cb(lv_disp_drv_t * drv, const lv_area_t * area, lv_color_t * color_p);
  65:lvgl/src/core/lv_refr.c **** 
  66:lvgl/src/core/lv_refr.c **** #if LV_USE_PERF_MONITOR
  67:lvgl/src/core/lv_refr.c ****     static void perf_monitor_init(perf_monitor_t * perf_monitor);
  68:lvgl/src/core/lv_refr.c **** #endif
  69:lvgl/src/core/lv_refr.c **** #if LV_USE_MEM_MONITOR
  70:lvgl/src/core/lv_refr.c ****     static void mem_monitor_init(mem_monitor_t * mem_monitor);
  71:lvgl/src/core/lv_refr.c **** #endif
  72:lvgl/src/core/lv_refr.c **** 
  73:lvgl/src/core/lv_refr.c **** /**********************
  74:lvgl/src/core/lv_refr.c ****  *  STATIC VARIABLES
  75:lvgl/src/core/lv_refr.c ****  **********************/
  76:lvgl/src/core/lv_refr.c **** static uint32_t px_num;
  77:lvgl/src/core/lv_refr.c **** static lv_disp_t * disp_refr; /*Display being refreshed*/
  78:lvgl/src/core/lv_refr.c **** 
  79:lvgl/src/core/lv_refr.c **** #if LV_USE_PERF_MONITOR
  80:lvgl/src/core/lv_refr.c ****     static perf_monitor_t   perf_monitor;
  81:lvgl/src/core/lv_refr.c **** #endif
  82:lvgl/src/core/lv_refr.c **** 
  83:lvgl/src/core/lv_refr.c **** #if LV_USE_MEM_MONITOR
  84:lvgl/src/core/lv_refr.c ****     static mem_monitor_t    mem_monitor;
  85:lvgl/src/core/lv_refr.c **** #endif
  86:lvgl/src/core/lv_refr.c **** 
  87:lvgl/src/core/lv_refr.c **** /**********************
  88:lvgl/src/core/lv_refr.c ****  *      MACROS
ARM GAS  C:\Users\OSD\AppData\Local\Temp\cceLTvBX.s 			page 3


  89:lvgl/src/core/lv_refr.c ****  **********************/
  90:lvgl/src/core/lv_refr.c **** #if LV_LOG_TRACE_DISP_REFR
  91:lvgl/src/core/lv_refr.c ****     #define REFR_TRACE(...) LV_LOG_TRACE(__VA_ARGS__)
  92:lvgl/src/core/lv_refr.c **** #else
  93:lvgl/src/core/lv_refr.c ****     #define REFR_TRACE(...)
  94:lvgl/src/core/lv_refr.c **** #endif
  95:lvgl/src/core/lv_refr.c **** 
  96:lvgl/src/core/lv_refr.c **** /**********************
  97:lvgl/src/core/lv_refr.c ****  *   GLOBAL FUNCTIONS
  98:lvgl/src/core/lv_refr.c ****  **********************/
  99:lvgl/src/core/lv_refr.c **** 
 100:lvgl/src/core/lv_refr.c **** /**
 101:lvgl/src/core/lv_refr.c ****  * Initialize the screen refresh subsystem
 102:lvgl/src/core/lv_refr.c ****  */
 103:lvgl/src/core/lv_refr.c **** void _lv_refr_init(void)
 104:lvgl/src/core/lv_refr.c **** {
 105:lvgl/src/core/lv_refr.c **** #if LV_USE_PERF_MONITOR
 106:lvgl/src/core/lv_refr.c ****     perf_monitor_init(&perf_monitor);
 107:lvgl/src/core/lv_refr.c **** #endif
 108:lvgl/src/core/lv_refr.c **** #if LV_USE_MEM_MONITOR
 109:lvgl/src/core/lv_refr.c ****     mem_monitor_init(&mem_monitor);
 110:lvgl/src/core/lv_refr.c **** #endif
 111:lvgl/src/core/lv_refr.c **** }
 112:lvgl/src/core/lv_refr.c **** 
 113:lvgl/src/core/lv_refr.c **** void lv_refr_now(lv_disp_t * disp)
 114:lvgl/src/core/lv_refr.c **** {
 115:lvgl/src/core/lv_refr.c ****     lv_anim_refr_now();
 116:lvgl/src/core/lv_refr.c **** 
 117:lvgl/src/core/lv_refr.c ****     if(disp) {
 118:lvgl/src/core/lv_refr.c ****         if(disp->refr_timer) _lv_disp_refr_timer(disp->refr_timer);
 119:lvgl/src/core/lv_refr.c ****     }
 120:lvgl/src/core/lv_refr.c ****     else {
 121:lvgl/src/core/lv_refr.c ****         lv_disp_t * d;
 122:lvgl/src/core/lv_refr.c ****         d = lv_disp_get_next(NULL);
 123:lvgl/src/core/lv_refr.c ****         while(d) {
 124:lvgl/src/core/lv_refr.c ****             if(d->refr_timer) _lv_disp_refr_timer(d->refr_timer);
 125:lvgl/src/core/lv_refr.c ****             d = lv_disp_get_next(d);
 126:lvgl/src/core/lv_refr.c ****         }
 127:lvgl/src/core/lv_refr.c ****     }
 128:lvgl/src/core/lv_refr.c **** }
 129:lvgl/src/core/lv_refr.c **** 
 130:lvgl/src/core/lv_refr.c **** void lv_obj_redraw(lv_draw_ctx_t * draw_ctx, lv_obj_t * obj)
 131:lvgl/src/core/lv_refr.c **** {
 132:lvgl/src/core/lv_refr.c ****     const lv_area_t * clip_area_ori = draw_ctx->clip_area;
 133:lvgl/src/core/lv_refr.c ****     lv_area_t clip_coords_for_obj;
 134:lvgl/src/core/lv_refr.c **** 
 135:lvgl/src/core/lv_refr.c ****     /*Truncate the clip area to `obj size + ext size` area*/
 136:lvgl/src/core/lv_refr.c ****     lv_area_t obj_coords_ext;
 137:lvgl/src/core/lv_refr.c ****     lv_obj_get_coords(obj, &obj_coords_ext);
 138:lvgl/src/core/lv_refr.c ****     lv_coord_t ext_draw_size = _lv_obj_get_ext_draw_size(obj);
 139:lvgl/src/core/lv_refr.c ****     lv_area_increase(&obj_coords_ext, ext_draw_size, ext_draw_size);
 140:lvgl/src/core/lv_refr.c ****     bool com_clip_res = _lv_area_intersect(&clip_coords_for_obj, clip_area_ori, &obj_coords_ext);
 141:lvgl/src/core/lv_refr.c ****     /*If the object is visible on the current clip area OR has overflow visible draw it.
 142:lvgl/src/core/lv_refr.c ****      *With overflow visible drawing should happen to apply the masks which might affect children */
 143:lvgl/src/core/lv_refr.c ****     bool should_draw = com_clip_res || lv_obj_has_flag(obj, LV_OBJ_FLAG_OVERFLOW_VISIBLE);
 144:lvgl/src/core/lv_refr.c ****     if(should_draw) {
 145:lvgl/src/core/lv_refr.c ****         draw_ctx->clip_area = &clip_coords_for_obj;
ARM GAS  C:\Users\OSD\AppData\Local\Temp\cceLTvBX.s 			page 4


 146:lvgl/src/core/lv_refr.c **** 
 147:lvgl/src/core/lv_refr.c ****         lv_event_send(obj, LV_EVENT_DRAW_MAIN_BEGIN, draw_ctx);
 148:lvgl/src/core/lv_refr.c ****         lv_event_send(obj, LV_EVENT_DRAW_MAIN, draw_ctx);
 149:lvgl/src/core/lv_refr.c ****         lv_event_send(obj, LV_EVENT_DRAW_MAIN_END, draw_ctx);
 150:lvgl/src/core/lv_refr.c **** #if LV_USE_REFR_DEBUG
 151:lvgl/src/core/lv_refr.c ****         lv_color_t debug_color = lv_color_make(lv_rand(0, 0xFF), lv_rand(0, 0xFF), lv_rand(0, 0xFF)
 152:lvgl/src/core/lv_refr.c ****         lv_draw_rect_dsc_t draw_dsc;
 153:lvgl/src/core/lv_refr.c ****         lv_draw_rect_dsc_init(&draw_dsc);
 154:lvgl/src/core/lv_refr.c ****         draw_dsc.bg_color.full = debug_color.full;
 155:lvgl/src/core/lv_refr.c ****         draw_dsc.bg_opa = LV_OPA_20;
 156:lvgl/src/core/lv_refr.c ****         draw_dsc.border_width = 1;
 157:lvgl/src/core/lv_refr.c ****         draw_dsc.border_opa = LV_OPA_30;
 158:lvgl/src/core/lv_refr.c ****         draw_dsc.border_color = debug_color;
 159:lvgl/src/core/lv_refr.c ****         lv_draw_rect(draw_ctx, &draw_dsc, &obj_coords_ext);
 160:lvgl/src/core/lv_refr.c **** #endif
 161:lvgl/src/core/lv_refr.c ****     }
 162:lvgl/src/core/lv_refr.c **** 
 163:lvgl/src/core/lv_refr.c ****     /*With overflow visible keep the previous clip area to let the children visible out of this obj
 164:lvgl/src/core/lv_refr.c ****      *With not overflow visible limit the clip are to the object's coordinates to clip the children
 165:lvgl/src/core/lv_refr.c ****     lv_area_t clip_coords_for_children;
 166:lvgl/src/core/lv_refr.c ****     bool refr_children = true;
 167:lvgl/src/core/lv_refr.c ****     if(lv_obj_has_flag(obj, LV_OBJ_FLAG_OVERFLOW_VISIBLE)) {
 168:lvgl/src/core/lv_refr.c ****         clip_coords_for_children  = *clip_area_ori;
 169:lvgl/src/core/lv_refr.c ****     }
 170:lvgl/src/core/lv_refr.c ****     else {
 171:lvgl/src/core/lv_refr.c ****         if(!_lv_area_intersect(&clip_coords_for_children, clip_area_ori, &obj->coords)) {
 172:lvgl/src/core/lv_refr.c ****             refr_children = false;
 173:lvgl/src/core/lv_refr.c ****         }
 174:lvgl/src/core/lv_refr.c ****     }
 175:lvgl/src/core/lv_refr.c **** 
 176:lvgl/src/core/lv_refr.c ****     if(refr_children) {
 177:lvgl/src/core/lv_refr.c ****         draw_ctx->clip_area = &clip_coords_for_children;
 178:lvgl/src/core/lv_refr.c ****         uint32_t i;
 179:lvgl/src/core/lv_refr.c ****         uint32_t child_cnt = lv_obj_get_child_cnt(obj);
 180:lvgl/src/core/lv_refr.c ****         for(i = 0; i < child_cnt; i++) {
 181:lvgl/src/core/lv_refr.c ****             lv_obj_t * child = obj->spec_attr->children[i];
 182:lvgl/src/core/lv_refr.c ****             refr_obj(draw_ctx, child);
 183:lvgl/src/core/lv_refr.c ****         }
 184:lvgl/src/core/lv_refr.c ****     }
 185:lvgl/src/core/lv_refr.c **** 
 186:lvgl/src/core/lv_refr.c ****     /*If the object was visible on the clip area call the post draw events too*/
 187:lvgl/src/core/lv_refr.c ****     if(should_draw) {
 188:lvgl/src/core/lv_refr.c ****         draw_ctx->clip_area = &clip_coords_for_obj;
 189:lvgl/src/core/lv_refr.c **** 
 190:lvgl/src/core/lv_refr.c ****         /*If all the children are redrawn make 'post draw' draw*/
 191:lvgl/src/core/lv_refr.c ****         lv_event_send(obj, LV_EVENT_DRAW_POST_BEGIN, draw_ctx);
 192:lvgl/src/core/lv_refr.c ****         lv_event_send(obj, LV_EVENT_DRAW_POST, draw_ctx);
 193:lvgl/src/core/lv_refr.c ****         lv_event_send(obj, LV_EVENT_DRAW_POST_END, draw_ctx);
 194:lvgl/src/core/lv_refr.c ****     }
 195:lvgl/src/core/lv_refr.c **** 
 196:lvgl/src/core/lv_refr.c ****     draw_ctx->clip_area = clip_area_ori;
 197:lvgl/src/core/lv_refr.c **** }
 198:lvgl/src/core/lv_refr.c **** 
 199:lvgl/src/core/lv_refr.c **** /**
 200:lvgl/src/core/lv_refr.c ****  * Invalidate an area on display to redraw it
 201:lvgl/src/core/lv_refr.c ****  * @param area_p pointer to area which should be invalidated (NULL: delete the invalidated areas)
 202:lvgl/src/core/lv_refr.c ****  * @param disp pointer to display where the area should be invalidated (NULL can be used if there i
ARM GAS  C:\Users\OSD\AppData\Local\Temp\cceLTvBX.s 			page 5


 203:lvgl/src/core/lv_refr.c ****  * only one display)
 204:lvgl/src/core/lv_refr.c ****  */
 205:lvgl/src/core/lv_refr.c **** void _lv_inv_area(lv_disp_t * disp, const lv_area_t * area_p)
 206:lvgl/src/core/lv_refr.c **** {
 207:lvgl/src/core/lv_refr.c ****     if(!disp) disp = lv_disp_get_default();
 208:lvgl/src/core/lv_refr.c ****     if(!disp) return;
 209:lvgl/src/core/lv_refr.c ****     if(!lv_disp_is_invalidation_enabled(disp)) return;
 210:lvgl/src/core/lv_refr.c **** 
 211:lvgl/src/core/lv_refr.c ****     if(disp->rendering_in_progress) {
 212:lvgl/src/core/lv_refr.c ****         LV_LOG_ERROR("detected modifying dirty areas in render");
 213:lvgl/src/core/lv_refr.c ****         return;
 214:lvgl/src/core/lv_refr.c ****     }
 215:lvgl/src/core/lv_refr.c **** 
 216:lvgl/src/core/lv_refr.c ****     /*Clear the invalidate buffer if the parameter is NULL*/
 217:lvgl/src/core/lv_refr.c ****     if(area_p == NULL) {
 218:lvgl/src/core/lv_refr.c ****         disp->inv_p = 0;
 219:lvgl/src/core/lv_refr.c ****         return;
 220:lvgl/src/core/lv_refr.c ****     }
 221:lvgl/src/core/lv_refr.c **** 
 222:lvgl/src/core/lv_refr.c ****     lv_area_t scr_area;
 223:lvgl/src/core/lv_refr.c ****     scr_area.x1 = 0;
 224:lvgl/src/core/lv_refr.c ****     scr_area.y1 = 0;
 225:lvgl/src/core/lv_refr.c ****     scr_area.x2 = lv_disp_get_hor_res(disp) - 1;
 226:lvgl/src/core/lv_refr.c ****     scr_area.y2 = lv_disp_get_ver_res(disp) - 1;
 227:lvgl/src/core/lv_refr.c **** 
 228:lvgl/src/core/lv_refr.c ****     lv_area_t com_area;
 229:lvgl/src/core/lv_refr.c ****     bool suc;
 230:lvgl/src/core/lv_refr.c **** 
 231:lvgl/src/core/lv_refr.c ****     suc = _lv_area_intersect(&com_area, area_p, &scr_area);
 232:lvgl/src/core/lv_refr.c ****     if(suc == false)  return; /*Out of the screen*/
 233:lvgl/src/core/lv_refr.c **** 
 234:lvgl/src/core/lv_refr.c ****     /*If there were at least 1 invalid area in full refresh mode, redraw the whole screen*/
 235:lvgl/src/core/lv_refr.c ****     if(disp->driver->full_refresh) {
 236:lvgl/src/core/lv_refr.c ****         disp->inv_areas[0] = scr_area;
 237:lvgl/src/core/lv_refr.c ****         disp->inv_p = 1;
 238:lvgl/src/core/lv_refr.c ****         if(disp->refr_timer) lv_timer_resume(disp->refr_timer);
 239:lvgl/src/core/lv_refr.c ****         return;
 240:lvgl/src/core/lv_refr.c ****     }
 241:lvgl/src/core/lv_refr.c **** 
 242:lvgl/src/core/lv_refr.c ****     if(disp->driver->rounder_cb) disp->driver->rounder_cb(disp->driver, &com_area);
 243:lvgl/src/core/lv_refr.c **** 
 244:lvgl/src/core/lv_refr.c ****     /*Save only if this area is not in one of the saved areas*/
 245:lvgl/src/core/lv_refr.c ****     uint16_t i;
 246:lvgl/src/core/lv_refr.c ****     for(i = 0; i < disp->inv_p; i++) {
 247:lvgl/src/core/lv_refr.c ****         if(_lv_area_is_in(&com_area, &disp->inv_areas[i], 0) != false) return;
 248:lvgl/src/core/lv_refr.c ****     }
 249:lvgl/src/core/lv_refr.c **** 
 250:lvgl/src/core/lv_refr.c ****     /*Save the area*/
 251:lvgl/src/core/lv_refr.c ****     if(disp->inv_p < LV_INV_BUF_SIZE) {
 252:lvgl/src/core/lv_refr.c ****         lv_area_copy(&disp->inv_areas[disp->inv_p], &com_area);
 253:lvgl/src/core/lv_refr.c ****     }
 254:lvgl/src/core/lv_refr.c ****     else {   /*If no place for the area add the screen*/
 255:lvgl/src/core/lv_refr.c ****         disp->inv_p = 0;
 256:lvgl/src/core/lv_refr.c ****         lv_area_copy(&disp->inv_areas[disp->inv_p], &scr_area);
 257:lvgl/src/core/lv_refr.c ****     }
 258:lvgl/src/core/lv_refr.c ****     disp->inv_p++;
 259:lvgl/src/core/lv_refr.c ****     if(disp->refr_timer) lv_timer_resume(disp->refr_timer);
ARM GAS  C:\Users\OSD\AppData\Local\Temp\cceLTvBX.s 			page 6


 260:lvgl/src/core/lv_refr.c **** }
 261:lvgl/src/core/lv_refr.c **** 
 262:lvgl/src/core/lv_refr.c **** /**
 263:lvgl/src/core/lv_refr.c ****  * Get the display which is being refreshed
 264:lvgl/src/core/lv_refr.c ****  * @return the display being refreshed
 265:lvgl/src/core/lv_refr.c ****  */
 266:lvgl/src/core/lv_refr.c **** lv_disp_t * _lv_refr_get_disp_refreshing(void)
 267:lvgl/src/core/lv_refr.c **** {
 268:lvgl/src/core/lv_refr.c ****     return disp_refr;
 269:lvgl/src/core/lv_refr.c **** }
 270:lvgl/src/core/lv_refr.c **** 
 271:lvgl/src/core/lv_refr.c **** /**
 272:lvgl/src/core/lv_refr.c ****  * Set the display which is being refreshed.
 273:lvgl/src/core/lv_refr.c ****  * It shouldn't be used directly by the user.
 274:lvgl/src/core/lv_refr.c ****  * It can be used to trick the drawing functions about there is an active display.
 275:lvgl/src/core/lv_refr.c ****  * @param the display being refreshed
 276:lvgl/src/core/lv_refr.c ****  */
 277:lvgl/src/core/lv_refr.c **** void _lv_refr_set_disp_refreshing(lv_disp_t * disp)
 278:lvgl/src/core/lv_refr.c **** {
 279:lvgl/src/core/lv_refr.c ****     disp_refr = disp;
 280:lvgl/src/core/lv_refr.c **** }
 281:lvgl/src/core/lv_refr.c **** 
 282:lvgl/src/core/lv_refr.c **** /**
 283:lvgl/src/core/lv_refr.c ****  * Called periodically to handle the refreshing
 284:lvgl/src/core/lv_refr.c ****  * @param tmr pointer to the timer itself
 285:lvgl/src/core/lv_refr.c ****  */
 286:lvgl/src/core/lv_refr.c **** void _lv_disp_refr_timer(lv_timer_t * tmr)
 287:lvgl/src/core/lv_refr.c **** {
 288:lvgl/src/core/lv_refr.c ****     REFR_TRACE("begin");
 289:lvgl/src/core/lv_refr.c **** 
 290:lvgl/src/core/lv_refr.c ****     uint32_t start = lv_tick_get();
 291:lvgl/src/core/lv_refr.c ****     volatile uint32_t elaps = 0;
 292:lvgl/src/core/lv_refr.c **** 
 293:lvgl/src/core/lv_refr.c ****     if(tmr) {
 294:lvgl/src/core/lv_refr.c ****         disp_refr = tmr->user_data;
 295:lvgl/src/core/lv_refr.c **** #if LV_USE_PERF_MONITOR == 0 && LV_USE_MEM_MONITOR == 0
 296:lvgl/src/core/lv_refr.c ****         /**
 297:lvgl/src/core/lv_refr.c ****          * Ensure the timer does not run again automatically.
 298:lvgl/src/core/lv_refr.c ****          * This is done before refreshing in case refreshing invalidates something else.
 299:lvgl/src/core/lv_refr.c ****          */
 300:lvgl/src/core/lv_refr.c ****         lv_timer_pause(tmr);
 301:lvgl/src/core/lv_refr.c **** #endif
 302:lvgl/src/core/lv_refr.c ****     }
 303:lvgl/src/core/lv_refr.c ****     else {
 304:lvgl/src/core/lv_refr.c ****         disp_refr = lv_disp_get_default();
 305:lvgl/src/core/lv_refr.c ****     }
 306:lvgl/src/core/lv_refr.c **** 
 307:lvgl/src/core/lv_refr.c ****     /*Refresh the screen's layout if required*/
 308:lvgl/src/core/lv_refr.c ****     lv_obj_update_layout(disp_refr->act_scr);
 309:lvgl/src/core/lv_refr.c ****     if(disp_refr->prev_scr) lv_obj_update_layout(disp_refr->prev_scr);
 310:lvgl/src/core/lv_refr.c **** 
 311:lvgl/src/core/lv_refr.c ****     lv_obj_update_layout(disp_refr->top_layer);
 312:lvgl/src/core/lv_refr.c ****     lv_obj_update_layout(disp_refr->sys_layer);
 313:lvgl/src/core/lv_refr.c **** 
 314:lvgl/src/core/lv_refr.c ****     /*Do nothing if there is no active screen*/
 315:lvgl/src/core/lv_refr.c ****     if(disp_refr->act_scr == NULL) {
 316:lvgl/src/core/lv_refr.c ****         disp_refr->inv_p = 0;
ARM GAS  C:\Users\OSD\AppData\Local\Temp\cceLTvBX.s 			page 7


 317:lvgl/src/core/lv_refr.c ****         LV_LOG_WARN("there is no active screen");
 318:lvgl/src/core/lv_refr.c ****         REFR_TRACE("finished");
 319:lvgl/src/core/lv_refr.c ****         return;
 320:lvgl/src/core/lv_refr.c ****     }
 321:lvgl/src/core/lv_refr.c **** 
 322:lvgl/src/core/lv_refr.c ****     lv_refr_join_area();
 323:lvgl/src/core/lv_refr.c ****     refr_sync_areas();
 324:lvgl/src/core/lv_refr.c ****     refr_invalid_areas();
 325:lvgl/src/core/lv_refr.c **** 
 326:lvgl/src/core/lv_refr.c ****     /*If refresh happened ...*/
 327:lvgl/src/core/lv_refr.c ****     if(disp_refr->inv_p != 0) {
 328:lvgl/src/core/lv_refr.c **** 
 329:lvgl/src/core/lv_refr.c ****         /*Copy invalid areas for sync next refresh in double buffered direct mode*/
 330:lvgl/src/core/lv_refr.c ****         if(disp_refr->driver->direct_mode && disp_refr->driver->draw_buf->buf2) {
 331:lvgl/src/core/lv_refr.c **** 
 332:lvgl/src/core/lv_refr.c ****             uint16_t i;
 333:lvgl/src/core/lv_refr.c ****             for(i = 0; i < disp_refr->inv_p; i++) {
 334:lvgl/src/core/lv_refr.c ****                 if(disp_refr->inv_area_joined[i])
 335:lvgl/src/core/lv_refr.c ****                     continue;
 336:lvgl/src/core/lv_refr.c **** 
 337:lvgl/src/core/lv_refr.c ****                 lv_area_t * sync_area = _lv_ll_ins_tail(&disp_refr->sync_areas);
 338:lvgl/src/core/lv_refr.c ****                 *sync_area = disp_refr->inv_areas[i];
 339:lvgl/src/core/lv_refr.c ****             }
 340:lvgl/src/core/lv_refr.c ****         }
 341:lvgl/src/core/lv_refr.c **** 
 342:lvgl/src/core/lv_refr.c ****         /*Clean up*/
 343:lvgl/src/core/lv_refr.c ****         lv_memset_00(disp_refr->inv_areas, sizeof(disp_refr->inv_areas));
 344:lvgl/src/core/lv_refr.c ****         lv_memset_00(disp_refr->inv_area_joined, sizeof(disp_refr->inv_area_joined));
 345:lvgl/src/core/lv_refr.c ****         disp_refr->inv_p = 0;
 346:lvgl/src/core/lv_refr.c **** 
 347:lvgl/src/core/lv_refr.c ****         elaps = lv_tick_elaps(start);
 348:lvgl/src/core/lv_refr.c **** 
 349:lvgl/src/core/lv_refr.c ****         /*Call monitor cb if present*/
 350:lvgl/src/core/lv_refr.c ****         if(disp_refr->driver->monitor_cb) {
 351:lvgl/src/core/lv_refr.c ****             disp_refr->driver->monitor_cb(disp_refr->driver, elaps, px_num);
 352:lvgl/src/core/lv_refr.c ****         }
 353:lvgl/src/core/lv_refr.c ****     }
 354:lvgl/src/core/lv_refr.c **** 
 355:lvgl/src/core/lv_refr.c ****     lv_mem_buf_free_all();
 356:lvgl/src/core/lv_refr.c ****     _lv_font_clean_up_fmt_txt();
 357:lvgl/src/core/lv_refr.c **** 
 358:lvgl/src/core/lv_refr.c **** #if LV_DRAW_COMPLEX
 359:lvgl/src/core/lv_refr.c ****     _lv_draw_mask_cleanup();
 360:lvgl/src/core/lv_refr.c **** #endif
 361:lvgl/src/core/lv_refr.c **** 
 362:lvgl/src/core/lv_refr.c **** #if LV_USE_PERF_MONITOR && LV_USE_LABEL
 363:lvgl/src/core/lv_refr.c ****     lv_obj_t * perf_label = perf_monitor.perf_label;
 364:lvgl/src/core/lv_refr.c ****     if(perf_label == NULL) {
 365:lvgl/src/core/lv_refr.c ****         perf_label = lv_label_create(lv_layer_sys());
 366:lvgl/src/core/lv_refr.c ****         lv_obj_set_style_bg_opa(perf_label, LV_OPA_50, 0);
 367:lvgl/src/core/lv_refr.c ****         lv_obj_set_style_bg_color(perf_label, lv_color_black(), 0);
 368:lvgl/src/core/lv_refr.c ****         lv_obj_set_style_text_color(perf_label, lv_color_white(), 0);
 369:lvgl/src/core/lv_refr.c ****         lv_obj_set_style_pad_top(perf_label, 3, 0);
 370:lvgl/src/core/lv_refr.c ****         lv_obj_set_style_pad_bottom(perf_label, 3, 0);
 371:lvgl/src/core/lv_refr.c ****         lv_obj_set_style_pad_left(perf_label, 3, 0);
 372:lvgl/src/core/lv_refr.c ****         lv_obj_set_style_pad_right(perf_label, 3, 0);
 373:lvgl/src/core/lv_refr.c ****         lv_obj_set_style_text_align(perf_label, LV_TEXT_ALIGN_RIGHT, 0);
ARM GAS  C:\Users\OSD\AppData\Local\Temp\cceLTvBX.s 			page 8


 374:lvgl/src/core/lv_refr.c ****         lv_label_set_text(perf_label, "?");
 375:lvgl/src/core/lv_refr.c ****         lv_obj_align(perf_label, LV_USE_PERF_MONITOR_POS, 0, 0);
 376:lvgl/src/core/lv_refr.c ****         perf_monitor.perf_label = perf_label;
 377:lvgl/src/core/lv_refr.c ****     }
 378:lvgl/src/core/lv_refr.c **** 
 379:lvgl/src/core/lv_refr.c ****     if(lv_tick_elaps(perf_monitor.perf_last_time) < 300) {
 380:lvgl/src/core/lv_refr.c ****         if(px_num > 5000) {
 381:lvgl/src/core/lv_refr.c ****             perf_monitor.elaps_sum += elaps;
 382:lvgl/src/core/lv_refr.c ****             perf_monitor.frame_cnt ++;
 383:lvgl/src/core/lv_refr.c ****         }
 384:lvgl/src/core/lv_refr.c ****     }
 385:lvgl/src/core/lv_refr.c ****     else {
 386:lvgl/src/core/lv_refr.c ****         perf_monitor.perf_last_time = lv_tick_get();
 387:lvgl/src/core/lv_refr.c ****         uint32_t fps_limit;
 388:lvgl/src/core/lv_refr.c ****         uint32_t fps;
 389:lvgl/src/core/lv_refr.c **** 
 390:lvgl/src/core/lv_refr.c ****         if(disp_refr->refr_timer) {
 391:lvgl/src/core/lv_refr.c ****             fps_limit = 1000 / disp_refr->refr_timer->period;
 392:lvgl/src/core/lv_refr.c ****         }
 393:lvgl/src/core/lv_refr.c ****         else {
 394:lvgl/src/core/lv_refr.c ****             fps_limit = 1000 / LV_DISP_DEF_REFR_PERIOD;
 395:lvgl/src/core/lv_refr.c ****         }
 396:lvgl/src/core/lv_refr.c **** 
 397:lvgl/src/core/lv_refr.c ****         if(perf_monitor.elaps_sum == 0) {
 398:lvgl/src/core/lv_refr.c ****             perf_monitor.elaps_sum = 1;
 399:lvgl/src/core/lv_refr.c ****         }
 400:lvgl/src/core/lv_refr.c ****         if(perf_monitor.frame_cnt == 0) {
 401:lvgl/src/core/lv_refr.c ****             fps = fps_limit;
 402:lvgl/src/core/lv_refr.c ****         }
 403:lvgl/src/core/lv_refr.c ****         else {
 404:lvgl/src/core/lv_refr.c ****             fps = (1000 * perf_monitor.frame_cnt) / perf_monitor.elaps_sum;
 405:lvgl/src/core/lv_refr.c ****         }
 406:lvgl/src/core/lv_refr.c ****         perf_monitor.elaps_sum = 0;
 407:lvgl/src/core/lv_refr.c ****         perf_monitor.frame_cnt = 0;
 408:lvgl/src/core/lv_refr.c ****         if(fps > fps_limit) {
 409:lvgl/src/core/lv_refr.c ****             fps = fps_limit;
 410:lvgl/src/core/lv_refr.c ****         }
 411:lvgl/src/core/lv_refr.c **** 
 412:lvgl/src/core/lv_refr.c ****         perf_monitor.fps_sum_all += fps;
 413:lvgl/src/core/lv_refr.c ****         perf_monitor.fps_sum_cnt ++;
 414:lvgl/src/core/lv_refr.c ****         uint32_t cpu = 100 - lv_timer_get_idle();
 415:lvgl/src/core/lv_refr.c ****         lv_label_set_text_fmt(perf_label, "%"LV_PRIu32" FPS\n%"LV_PRIu32"%% CPU", fps, cpu);
 416:lvgl/src/core/lv_refr.c ****     }
 417:lvgl/src/core/lv_refr.c **** #endif
 418:lvgl/src/core/lv_refr.c **** 
 419:lvgl/src/core/lv_refr.c **** #if LV_USE_MEM_MONITOR && LV_MEM_CUSTOM == 0 && LV_USE_LABEL
 420:lvgl/src/core/lv_refr.c ****     lv_obj_t * mem_label = mem_monitor.mem_label;
 421:lvgl/src/core/lv_refr.c ****     if(mem_label == NULL) {
 422:lvgl/src/core/lv_refr.c ****         mem_label = lv_label_create(lv_layer_sys());
 423:lvgl/src/core/lv_refr.c ****         lv_obj_set_style_bg_opa(mem_label, LV_OPA_50, 0);
 424:lvgl/src/core/lv_refr.c ****         lv_obj_set_style_bg_color(mem_label, lv_color_black(), 0);
 425:lvgl/src/core/lv_refr.c ****         lv_obj_set_style_text_color(mem_label, lv_color_white(), 0);
 426:lvgl/src/core/lv_refr.c ****         lv_obj_set_style_pad_top(mem_label, 3, 0);
 427:lvgl/src/core/lv_refr.c ****         lv_obj_set_style_pad_bottom(mem_label, 3, 0);
 428:lvgl/src/core/lv_refr.c ****         lv_obj_set_style_pad_left(mem_label, 3, 0);
 429:lvgl/src/core/lv_refr.c ****         lv_obj_set_style_pad_right(mem_label, 3, 0);
 430:lvgl/src/core/lv_refr.c ****         lv_label_set_text(mem_label, "?");
ARM GAS  C:\Users\OSD\AppData\Local\Temp\cceLTvBX.s 			page 9


 431:lvgl/src/core/lv_refr.c ****         lv_obj_align(mem_label, LV_USE_MEM_MONITOR_POS, 0, 0);
 432:lvgl/src/core/lv_refr.c ****         mem_monitor.mem_label = mem_label;
 433:lvgl/src/core/lv_refr.c ****     }
 434:lvgl/src/core/lv_refr.c **** 
 435:lvgl/src/core/lv_refr.c ****     if(lv_tick_elaps(mem_monitor.mem_last_time) > 300) {
 436:lvgl/src/core/lv_refr.c ****         mem_monitor.mem_last_time = lv_tick_get();
 437:lvgl/src/core/lv_refr.c ****         lv_mem_monitor_t mon;
 438:lvgl/src/core/lv_refr.c ****         lv_mem_monitor(&mon);
 439:lvgl/src/core/lv_refr.c ****         uint32_t used_size = mon.total_size - mon.free_size;;
 440:lvgl/src/core/lv_refr.c ****         uint32_t used_kb = used_size / 1024;
 441:lvgl/src/core/lv_refr.c ****         uint32_t used_kb_tenth = (used_size - (used_kb * 1024)) / 102;
 442:lvgl/src/core/lv_refr.c ****         lv_label_set_text_fmt(mem_label,
 443:lvgl/src/core/lv_refr.c ****                               "%"LV_PRIu32 ".%"LV_PRIu32 " kB used (%d %%)\n"
 444:lvgl/src/core/lv_refr.c ****                               "%d%% frag.",
 445:lvgl/src/core/lv_refr.c ****                               used_kb, used_kb_tenth, mon.used_pct,
 446:lvgl/src/core/lv_refr.c ****                               mon.frag_pct);
 447:lvgl/src/core/lv_refr.c ****     }
 448:lvgl/src/core/lv_refr.c **** #endif
 449:lvgl/src/core/lv_refr.c **** 
 450:lvgl/src/core/lv_refr.c ****     REFR_TRACE("finished");
 451:lvgl/src/core/lv_refr.c **** }
 452:lvgl/src/core/lv_refr.c **** 
 453:lvgl/src/core/lv_refr.c **** #if LV_USE_PERF_MONITOR
 454:lvgl/src/core/lv_refr.c **** void lv_refr_reset_fps_counter(void)
 455:lvgl/src/core/lv_refr.c **** {
 456:lvgl/src/core/lv_refr.c ****     perf_monitor.fps_sum_all = 0;
 457:lvgl/src/core/lv_refr.c ****     perf_monitor.fps_sum_cnt = 0;
 458:lvgl/src/core/lv_refr.c **** }
 459:lvgl/src/core/lv_refr.c **** 
 460:lvgl/src/core/lv_refr.c **** uint32_t lv_refr_get_fps_avg(void)
 461:lvgl/src/core/lv_refr.c **** {
 462:lvgl/src/core/lv_refr.c ****     if(perf_monitor.fps_sum_cnt == 0) {
 463:lvgl/src/core/lv_refr.c ****         return 0;
 464:lvgl/src/core/lv_refr.c ****     }
 465:lvgl/src/core/lv_refr.c ****     return perf_monitor.fps_sum_all / perf_monitor.fps_sum_cnt;
 466:lvgl/src/core/lv_refr.c **** }
 467:lvgl/src/core/lv_refr.c **** #endif
 468:lvgl/src/core/lv_refr.c **** 
 469:lvgl/src/core/lv_refr.c **** /**********************
 470:lvgl/src/core/lv_refr.c ****  *   STATIC FUNCTIONS
 471:lvgl/src/core/lv_refr.c ****  **********************/
 472:lvgl/src/core/lv_refr.c **** 
 473:lvgl/src/core/lv_refr.c **** /**
 474:lvgl/src/core/lv_refr.c ****  * Join the areas which has got common parts
 475:lvgl/src/core/lv_refr.c ****  */
 476:lvgl/src/core/lv_refr.c **** static void lv_refr_join_area(void)
 477:lvgl/src/core/lv_refr.c **** {
 478:lvgl/src/core/lv_refr.c ****     uint32_t join_from;
 479:lvgl/src/core/lv_refr.c ****     uint32_t join_in;
 480:lvgl/src/core/lv_refr.c ****     lv_area_t joined_area;
 481:lvgl/src/core/lv_refr.c ****     for(join_in = 0; join_in < disp_refr->inv_p; join_in++) {
 482:lvgl/src/core/lv_refr.c ****         if(disp_refr->inv_area_joined[join_in] != 0) continue;
 483:lvgl/src/core/lv_refr.c **** 
 484:lvgl/src/core/lv_refr.c ****         /*Check all areas to join them in 'join_in'*/
 485:lvgl/src/core/lv_refr.c ****         for(join_from = 0; join_from < disp_refr->inv_p; join_from++) {
 486:lvgl/src/core/lv_refr.c ****             /*Handle only unjoined areas and ignore itself*/
 487:lvgl/src/core/lv_refr.c ****             if(disp_refr->inv_area_joined[join_from] != 0 || join_in == join_from) {
ARM GAS  C:\Users\OSD\AppData\Local\Temp\cceLTvBX.s 			page 10


 488:lvgl/src/core/lv_refr.c ****                 continue;
 489:lvgl/src/core/lv_refr.c ****             }
 490:lvgl/src/core/lv_refr.c **** 
 491:lvgl/src/core/lv_refr.c ****             /*Check if the areas are on each other*/
 492:lvgl/src/core/lv_refr.c ****             if(_lv_area_is_on(&disp_refr->inv_areas[join_in], &disp_refr->inv_areas[join_from]) == 
 493:lvgl/src/core/lv_refr.c ****                 continue;
 494:lvgl/src/core/lv_refr.c ****             }
 495:lvgl/src/core/lv_refr.c **** 
 496:lvgl/src/core/lv_refr.c ****             _lv_area_join(&joined_area, &disp_refr->inv_areas[join_in], &disp_refr->inv_areas[join_
 497:lvgl/src/core/lv_refr.c **** 
 498:lvgl/src/core/lv_refr.c ****             /*Join two area only if the joined area size is smaller*/
 499:lvgl/src/core/lv_refr.c ****             if(lv_area_get_size(&joined_area) < (lv_area_get_size(&disp_refr->inv_areas[join_in]) +
 500:lvgl/src/core/lv_refr.c ****                                                  lv_area_get_size(&disp_refr->inv_areas[join_from])
 501:lvgl/src/core/lv_refr.c ****                 lv_area_copy(&disp_refr->inv_areas[join_in], &joined_area);
 502:lvgl/src/core/lv_refr.c **** 
 503:lvgl/src/core/lv_refr.c ****                 /*Mark 'join_form' is joined into 'join_in'*/
 504:lvgl/src/core/lv_refr.c ****                 disp_refr->inv_area_joined[join_from] = 1;
 505:lvgl/src/core/lv_refr.c ****             }
 506:lvgl/src/core/lv_refr.c ****         }
 507:lvgl/src/core/lv_refr.c ****     }
 508:lvgl/src/core/lv_refr.c **** }
 509:lvgl/src/core/lv_refr.c **** 
 510:lvgl/src/core/lv_refr.c **** /**
 511:lvgl/src/core/lv_refr.c ****  * Refresh the sync areas
 512:lvgl/src/core/lv_refr.c ****  */
 513:lvgl/src/core/lv_refr.c **** static void refr_sync_areas(void)
 514:lvgl/src/core/lv_refr.c **** {
 515:lvgl/src/core/lv_refr.c ****     /*Do not sync if not direct mode*/
 516:lvgl/src/core/lv_refr.c ****     if(!disp_refr->driver->direct_mode) return;
 517:lvgl/src/core/lv_refr.c **** 
 518:lvgl/src/core/lv_refr.c ****     /*Do not sync if not double buffered*/
 519:lvgl/src/core/lv_refr.c ****     if(disp_refr->driver->draw_buf->buf2 == NULL) return;
 520:lvgl/src/core/lv_refr.c **** 
 521:lvgl/src/core/lv_refr.c ****     /*Do not sync if no sync areas*/
 522:lvgl/src/core/lv_refr.c ****     if(_lv_ll_is_empty(&disp_refr->sync_areas)) return;
 523:lvgl/src/core/lv_refr.c **** 
 524:lvgl/src/core/lv_refr.c ****     /*The buffers are already swapped.
 525:lvgl/src/core/lv_refr.c ****      *So the active buffer is the off screen buffer where LVGL will render*/
 526:lvgl/src/core/lv_refr.c ****     void * buf_off_screen = disp_refr->driver->draw_buf->buf_act;
 527:lvgl/src/core/lv_refr.c ****     void * buf_on_screen = disp_refr->driver->draw_buf->buf_act == disp_refr->driver->draw_buf->buf
 528:lvgl/src/core/lv_refr.c ****                            ? disp_refr->driver->draw_buf->buf2
 529:lvgl/src/core/lv_refr.c ****                            : disp_refr->driver->draw_buf->buf1;
 530:lvgl/src/core/lv_refr.c **** 
 531:lvgl/src/core/lv_refr.c ****     /*Get stride for buffer copy*/
 532:lvgl/src/core/lv_refr.c ****     lv_coord_t stride = lv_disp_get_hor_res(disp_refr);
 533:lvgl/src/core/lv_refr.c **** 
 534:lvgl/src/core/lv_refr.c ****     /*Iterate through invalidated areas to see if sync area should be copied*/
 535:lvgl/src/core/lv_refr.c ****     lv_area_t res[4] = {0};
 536:lvgl/src/core/lv_refr.c ****     int8_t res_c, j;
 537:lvgl/src/core/lv_refr.c ****     uint32_t i;
 538:lvgl/src/core/lv_refr.c ****     lv_area_t * sync_area, * new_area, * next_area;
 539:lvgl/src/core/lv_refr.c ****     for(i = 0; i < disp_refr->inv_p; i++) {
 540:lvgl/src/core/lv_refr.c ****         /*Skip joined areas*/
 541:lvgl/src/core/lv_refr.c ****         if(disp_refr->inv_area_joined[i]) continue;
 542:lvgl/src/core/lv_refr.c **** 
 543:lvgl/src/core/lv_refr.c ****         /*Iterate over sync areas*/
 544:lvgl/src/core/lv_refr.c ****         sync_area = _lv_ll_get_head(&disp_refr->sync_areas);
ARM GAS  C:\Users\OSD\AppData\Local\Temp\cceLTvBX.s 			page 11


 545:lvgl/src/core/lv_refr.c ****         while(sync_area != NULL) {
 546:lvgl/src/core/lv_refr.c ****             /*Get next sync area*/
 547:lvgl/src/core/lv_refr.c ****             next_area = _lv_ll_get_next(&disp_refr->sync_areas, sync_area);
 548:lvgl/src/core/lv_refr.c **** 
 549:lvgl/src/core/lv_refr.c ****             /*Remove intersect of redraw area from sync area and get remaining areas*/
 550:lvgl/src/core/lv_refr.c ****             res_c = _lv_area_diff(res, sync_area, &disp_refr->inv_areas[i]);
 551:lvgl/src/core/lv_refr.c **** 
 552:lvgl/src/core/lv_refr.c ****             /*New sub areas created after removing intersect*/
 553:lvgl/src/core/lv_refr.c ****             if(res_c != -1) {
 554:lvgl/src/core/lv_refr.c ****                 /*Replace old sync area with new areas*/
 555:lvgl/src/core/lv_refr.c ****                 for(j = 0; j < res_c; j++) {
 556:lvgl/src/core/lv_refr.c ****                     new_area = _lv_ll_ins_prev(&disp_refr->sync_areas, sync_area);
 557:lvgl/src/core/lv_refr.c ****                     *new_area = res[j];
 558:lvgl/src/core/lv_refr.c ****                 }
 559:lvgl/src/core/lv_refr.c ****                 _lv_ll_remove(&disp_refr->sync_areas, sync_area);
 560:lvgl/src/core/lv_refr.c ****                 lv_mem_free(sync_area);
 561:lvgl/src/core/lv_refr.c ****             }
 562:lvgl/src/core/lv_refr.c **** 
 563:lvgl/src/core/lv_refr.c ****             /*Move on to next sync area*/
 564:lvgl/src/core/lv_refr.c ****             sync_area = next_area;
 565:lvgl/src/core/lv_refr.c ****         }
 566:lvgl/src/core/lv_refr.c ****     }
 567:lvgl/src/core/lv_refr.c **** 
 568:lvgl/src/core/lv_refr.c ****     /*Copy sync areas (if any remaining)*/
 569:lvgl/src/core/lv_refr.c ****     for(sync_area = _lv_ll_get_head(&disp_refr->sync_areas); sync_area != NULL;
 570:lvgl/src/core/lv_refr.c ****         sync_area = _lv_ll_get_next(&disp_refr->sync_areas, sync_area)) {
 571:lvgl/src/core/lv_refr.c ****         disp_refr->driver->draw_ctx->buffer_copy(
 572:lvgl/src/core/lv_refr.c ****             disp_refr->driver->draw_ctx,
 573:lvgl/src/core/lv_refr.c ****             buf_off_screen, stride, sync_area,
 574:lvgl/src/core/lv_refr.c ****             buf_on_screen, stride, sync_area
 575:lvgl/src/core/lv_refr.c ****         );
 576:lvgl/src/core/lv_refr.c ****     }
 577:lvgl/src/core/lv_refr.c **** 
 578:lvgl/src/core/lv_refr.c ****     /*Clear sync areas*/
 579:lvgl/src/core/lv_refr.c ****     _lv_ll_clear(&disp_refr->sync_areas);
 580:lvgl/src/core/lv_refr.c **** }
 581:lvgl/src/core/lv_refr.c **** 
 582:lvgl/src/core/lv_refr.c **** /**
 583:lvgl/src/core/lv_refr.c ****  * Refresh the joined areas
 584:lvgl/src/core/lv_refr.c ****  */
 585:lvgl/src/core/lv_refr.c **** static void refr_invalid_areas(void)
 586:lvgl/src/core/lv_refr.c **** {
 587:lvgl/src/core/lv_refr.c ****     px_num = 0;
 588:lvgl/src/core/lv_refr.c **** 
 589:lvgl/src/core/lv_refr.c ****     if(disp_refr->inv_p == 0) return;
 590:lvgl/src/core/lv_refr.c **** 
 591:lvgl/src/core/lv_refr.c ****     /*Find the last area which will be drawn*/
 592:lvgl/src/core/lv_refr.c ****     int32_t i;
 593:lvgl/src/core/lv_refr.c ****     int32_t last_i = 0;
 594:lvgl/src/core/lv_refr.c ****     for(i = disp_refr->inv_p - 1; i >= 0; i--) {
 595:lvgl/src/core/lv_refr.c ****         if(disp_refr->inv_area_joined[i] == 0) {
 596:lvgl/src/core/lv_refr.c ****             last_i = i;
 597:lvgl/src/core/lv_refr.c ****             break;
 598:lvgl/src/core/lv_refr.c ****         }
 599:lvgl/src/core/lv_refr.c ****     }
 600:lvgl/src/core/lv_refr.c **** 
 601:lvgl/src/core/lv_refr.c ****     /*Notify the display driven rendering has started*/
ARM GAS  C:\Users\OSD\AppData\Local\Temp\cceLTvBX.s 			page 12


 602:lvgl/src/core/lv_refr.c ****     if(disp_refr->driver->render_start_cb) {
 603:lvgl/src/core/lv_refr.c ****         disp_refr->driver->render_start_cb(disp_refr->driver);
 604:lvgl/src/core/lv_refr.c ****     }
 605:lvgl/src/core/lv_refr.c **** 
 606:lvgl/src/core/lv_refr.c ****     disp_refr->driver->draw_buf->last_area = 0;
 607:lvgl/src/core/lv_refr.c ****     disp_refr->driver->draw_buf->last_part = 0;
 608:lvgl/src/core/lv_refr.c ****     disp_refr->rendering_in_progress = true;
 609:lvgl/src/core/lv_refr.c **** 
 610:lvgl/src/core/lv_refr.c ****     for(i = 0; i < disp_refr->inv_p; i++) {
 611:lvgl/src/core/lv_refr.c ****         /*Refresh the unjoined areas*/
 612:lvgl/src/core/lv_refr.c ****         if(disp_refr->inv_area_joined[i] == 0) {
 613:lvgl/src/core/lv_refr.c **** 
 614:lvgl/src/core/lv_refr.c ****             if(i == last_i) disp_refr->driver->draw_buf->last_area = 1;
 615:lvgl/src/core/lv_refr.c ****             disp_refr->driver->draw_buf->last_part = 0;
 616:lvgl/src/core/lv_refr.c ****             refr_area(&disp_refr->inv_areas[i]);
 617:lvgl/src/core/lv_refr.c **** 
 618:lvgl/src/core/lv_refr.c ****             px_num += lv_area_get_size(&disp_refr->inv_areas[i]);
 619:lvgl/src/core/lv_refr.c ****         }
 620:lvgl/src/core/lv_refr.c ****     }
 621:lvgl/src/core/lv_refr.c **** 
 622:lvgl/src/core/lv_refr.c ****     disp_refr->rendering_in_progress = false;
 623:lvgl/src/core/lv_refr.c **** }
 624:lvgl/src/core/lv_refr.c **** 
 625:lvgl/src/core/lv_refr.c **** /**
 626:lvgl/src/core/lv_refr.c ****  * Refresh an area if there is Virtual Display Buffer
 627:lvgl/src/core/lv_refr.c ****  * @param area_p  pointer to an area to refresh
 628:lvgl/src/core/lv_refr.c ****  */
 629:lvgl/src/core/lv_refr.c **** static void refr_area(const lv_area_t * area_p)
 630:lvgl/src/core/lv_refr.c **** {
 631:lvgl/src/core/lv_refr.c ****     lv_draw_ctx_t * draw_ctx = disp_refr->driver->draw_ctx;
 632:lvgl/src/core/lv_refr.c ****     draw_ctx->buf = disp_refr->driver->draw_buf->buf_act;
 633:lvgl/src/core/lv_refr.c **** 
 634:lvgl/src/core/lv_refr.c ****     /*With full refresh just redraw directly into the buffer*/
 635:lvgl/src/core/lv_refr.c ****     /*In direct mode draw directly on the absolute coordinates of the buffer*/
 636:lvgl/src/core/lv_refr.c ****     if(disp_refr->driver->full_refresh || disp_refr->driver->direct_mode) {
 637:lvgl/src/core/lv_refr.c ****         lv_area_t disp_area;
 638:lvgl/src/core/lv_refr.c ****         lv_area_set(&disp_area, 0, 0, lv_disp_get_hor_res(disp_refr) - 1, lv_disp_get_ver_res(disp_
 639:lvgl/src/core/lv_refr.c ****         draw_ctx->buf_area = &disp_area;
 640:lvgl/src/core/lv_refr.c **** 
 641:lvgl/src/core/lv_refr.c ****         if(disp_refr->driver->full_refresh) {
 642:lvgl/src/core/lv_refr.c ****             disp_refr->driver->draw_buf->last_part = 1;
 643:lvgl/src/core/lv_refr.c ****             draw_ctx->clip_area = &disp_area;
 644:lvgl/src/core/lv_refr.c ****             refr_area_part(draw_ctx);
 645:lvgl/src/core/lv_refr.c ****         }
 646:lvgl/src/core/lv_refr.c ****         else {
 647:lvgl/src/core/lv_refr.c ****             disp_refr->driver->draw_buf->last_part = disp_refr->driver->draw_buf->last_area;
 648:lvgl/src/core/lv_refr.c ****             draw_ctx->clip_area = area_p;
 649:lvgl/src/core/lv_refr.c ****             refr_area_part(draw_ctx);
 650:lvgl/src/core/lv_refr.c ****         }
 651:lvgl/src/core/lv_refr.c ****         return;
 652:lvgl/src/core/lv_refr.c ****     }
 653:lvgl/src/core/lv_refr.c **** 
 654:lvgl/src/core/lv_refr.c ****     /*Normal refresh: draw the area in parts*/
 655:lvgl/src/core/lv_refr.c ****     /*Calculate the max row num*/
 656:lvgl/src/core/lv_refr.c ****     lv_coord_t w = lv_area_get_width(area_p);
 657:lvgl/src/core/lv_refr.c ****     lv_coord_t h = lv_area_get_height(area_p);
 658:lvgl/src/core/lv_refr.c ****     lv_coord_t y2 = area_p->y2 >= lv_disp_get_ver_res(disp_refr) ?
ARM GAS  C:\Users\OSD\AppData\Local\Temp\cceLTvBX.s 			page 13


 659:lvgl/src/core/lv_refr.c ****                     lv_disp_get_ver_res(disp_refr) - 1 : area_p->y2;
 660:lvgl/src/core/lv_refr.c **** 
 661:lvgl/src/core/lv_refr.c ****     int32_t max_row = get_max_row(disp_refr, w, h);
 662:lvgl/src/core/lv_refr.c **** 
 663:lvgl/src/core/lv_refr.c ****     lv_coord_t row;
 664:lvgl/src/core/lv_refr.c ****     lv_coord_t row_last = 0;
 665:lvgl/src/core/lv_refr.c ****     lv_area_t sub_area;
 666:lvgl/src/core/lv_refr.c ****     for(row = area_p->y1; row + max_row - 1 <= y2; row += max_row) {
 667:lvgl/src/core/lv_refr.c ****         /*Calc. the next y coordinates of draw_buf*/
 668:lvgl/src/core/lv_refr.c ****         sub_area.x1 = area_p->x1;
 669:lvgl/src/core/lv_refr.c ****         sub_area.x2 = area_p->x2;
 670:lvgl/src/core/lv_refr.c ****         sub_area.y1 = row;
 671:lvgl/src/core/lv_refr.c ****         sub_area.y2 = row + max_row - 1;
 672:lvgl/src/core/lv_refr.c ****         draw_ctx->buf_area = &sub_area;
 673:lvgl/src/core/lv_refr.c ****         draw_ctx->clip_area = &sub_area;
 674:lvgl/src/core/lv_refr.c ****         draw_ctx->buf = disp_refr->driver->draw_buf->buf_act;
 675:lvgl/src/core/lv_refr.c ****         if(sub_area.y2 > y2) sub_area.y2 = y2;
 676:lvgl/src/core/lv_refr.c ****         row_last = sub_area.y2;
 677:lvgl/src/core/lv_refr.c ****         if(y2 == row_last) disp_refr->driver->draw_buf->last_part = 1;
 678:lvgl/src/core/lv_refr.c ****         refr_area_part(draw_ctx);
 679:lvgl/src/core/lv_refr.c ****     }
 680:lvgl/src/core/lv_refr.c **** 
 681:lvgl/src/core/lv_refr.c ****     /*If the last y coordinates are not handled yet ...*/
 682:lvgl/src/core/lv_refr.c ****     if(y2 != row_last) {
 683:lvgl/src/core/lv_refr.c ****         /*Calc. the next y coordinates of draw_buf*/
 684:lvgl/src/core/lv_refr.c ****         sub_area.x1 = area_p->x1;
 685:lvgl/src/core/lv_refr.c ****         sub_area.x2 = area_p->x2;
 686:lvgl/src/core/lv_refr.c ****         sub_area.y1 = row;
 687:lvgl/src/core/lv_refr.c ****         sub_area.y2 = y2;
 688:lvgl/src/core/lv_refr.c ****         draw_ctx->buf_area = &sub_area;
 689:lvgl/src/core/lv_refr.c ****         draw_ctx->clip_area = &sub_area;
 690:lvgl/src/core/lv_refr.c ****         draw_ctx->buf = disp_refr->driver->draw_buf->buf_act;
 691:lvgl/src/core/lv_refr.c ****         disp_refr->driver->draw_buf->last_part = 1;
 692:lvgl/src/core/lv_refr.c ****         refr_area_part(draw_ctx);
 693:lvgl/src/core/lv_refr.c ****     }
 694:lvgl/src/core/lv_refr.c **** }
 695:lvgl/src/core/lv_refr.c **** 
 696:lvgl/src/core/lv_refr.c **** static void refr_area_part(lv_draw_ctx_t * draw_ctx)
 697:lvgl/src/core/lv_refr.c **** {
 698:lvgl/src/core/lv_refr.c ****     lv_disp_draw_buf_t * draw_buf = lv_disp_get_draw_buf(disp_refr);
 699:lvgl/src/core/lv_refr.c **** 
 700:lvgl/src/core/lv_refr.c ****     if(draw_ctx->init_buf)
 701:lvgl/src/core/lv_refr.c ****         draw_ctx->init_buf(draw_ctx);
 702:lvgl/src/core/lv_refr.c **** 
 703:lvgl/src/core/lv_refr.c ****     /* Below the `area_p` area will be redrawn into the draw buffer.
 704:lvgl/src/core/lv_refr.c ****      * In single buffered mode wait here until the buffer is freed.
 705:lvgl/src/core/lv_refr.c ****      * In full double buffered mode wait here while the buffers are swapped and a buffer becomes av
 706:lvgl/src/core/lv_refr.c ****     bool full_sized = draw_buf->size == (uint32_t)disp_refr->driver->hor_res * disp_refr->driver->v
 707:lvgl/src/core/lv_refr.c ****     if((draw_buf->buf1 && !draw_buf->buf2) ||
 708:lvgl/src/core/lv_refr.c ****        (draw_buf->buf1 && draw_buf->buf2 && full_sized)) {
 709:lvgl/src/core/lv_refr.c ****         while(draw_buf->flushing) {
 710:lvgl/src/core/lv_refr.c ****             if(disp_refr->driver->wait_cb) disp_refr->driver->wait_cb(disp_refr->driver);
 711:lvgl/src/core/lv_refr.c ****         }
 712:lvgl/src/core/lv_refr.c **** 
 713:lvgl/src/core/lv_refr.c ****         /*If the screen is transparent initialize it when the flushing is ready*/
 714:lvgl/src/core/lv_refr.c **** #if LV_COLOR_SCREEN_TRANSP
 715:lvgl/src/core/lv_refr.c ****         if(disp_refr->driver->screen_transp) {
ARM GAS  C:\Users\OSD\AppData\Local\Temp\cceLTvBX.s 			page 14


 716:lvgl/src/core/lv_refr.c ****             if(disp_refr->driver->clear_cb) {
 717:lvgl/src/core/lv_refr.c ****                 disp_refr->driver->clear_cb(disp_refr->driver, disp_refr->driver->draw_buf->buf_act
 718:lvgl/src/core/lv_refr.c ****             }
 719:lvgl/src/core/lv_refr.c ****             else {
 720:lvgl/src/core/lv_refr.c ****                 lv_memset_00(disp_refr->driver->draw_buf->buf_act, disp_refr->driver->draw_buf->siz
 721:lvgl/src/core/lv_refr.c ****             }
 722:lvgl/src/core/lv_refr.c ****         }
 723:lvgl/src/core/lv_refr.c **** #endif
 724:lvgl/src/core/lv_refr.c ****     }
 725:lvgl/src/core/lv_refr.c **** 
 726:lvgl/src/core/lv_refr.c ****     lv_obj_t * top_act_scr = NULL;
 727:lvgl/src/core/lv_refr.c ****     lv_obj_t * top_prev_scr = NULL;
 728:lvgl/src/core/lv_refr.c **** 
 729:lvgl/src/core/lv_refr.c ****     /*Get the most top object which is not covered by others*/
 730:lvgl/src/core/lv_refr.c ****     top_act_scr = lv_refr_get_top_obj(draw_ctx->buf_area, lv_disp_get_scr_act(disp_refr));
 731:lvgl/src/core/lv_refr.c ****     if(disp_refr->prev_scr) {
 732:lvgl/src/core/lv_refr.c ****         top_prev_scr = lv_refr_get_top_obj(draw_ctx->buf_area, disp_refr->prev_scr);
 733:lvgl/src/core/lv_refr.c ****     }
 734:lvgl/src/core/lv_refr.c **** 
 735:lvgl/src/core/lv_refr.c ****     /*Draw a display background if there is no top object*/
 736:lvgl/src/core/lv_refr.c ****     if(top_act_scr == NULL && top_prev_scr == NULL) {
 737:lvgl/src/core/lv_refr.c ****         lv_area_t a;
 738:lvgl/src/core/lv_refr.c ****         lv_area_set(&a, 0, 0,
 739:lvgl/src/core/lv_refr.c ****                     lv_disp_get_hor_res(disp_refr) - 1, lv_disp_get_ver_res(disp_refr) - 1);
 740:lvgl/src/core/lv_refr.c ****         if(draw_ctx->draw_bg) {
 741:lvgl/src/core/lv_refr.c ****             lv_draw_rect_dsc_t dsc;
 742:lvgl/src/core/lv_refr.c ****             lv_draw_rect_dsc_init(&dsc);
 743:lvgl/src/core/lv_refr.c ****             dsc.bg_img_src = disp_refr->bg_img;
 744:lvgl/src/core/lv_refr.c ****             dsc.bg_img_opa = disp_refr->bg_opa;
 745:lvgl/src/core/lv_refr.c ****             dsc.bg_color = disp_refr->bg_color;
 746:lvgl/src/core/lv_refr.c ****             dsc.bg_opa = disp_refr->bg_opa;
 747:lvgl/src/core/lv_refr.c ****             draw_ctx->draw_bg(draw_ctx, &dsc, &a);
 748:lvgl/src/core/lv_refr.c ****         }
 749:lvgl/src/core/lv_refr.c ****         else if(disp_refr->bg_img) {
 750:lvgl/src/core/lv_refr.c ****             lv_img_header_t header;
 751:lvgl/src/core/lv_refr.c ****             lv_res_t res = lv_img_decoder_get_info(disp_refr->bg_img, &header);
 752:lvgl/src/core/lv_refr.c ****             if(res == LV_RES_OK) {
 753:lvgl/src/core/lv_refr.c ****                 lv_draw_img_dsc_t dsc;
 754:lvgl/src/core/lv_refr.c ****                 lv_draw_img_dsc_init(&dsc);
 755:lvgl/src/core/lv_refr.c ****                 dsc.opa = disp_refr->bg_opa;
 756:lvgl/src/core/lv_refr.c ****                 lv_draw_img(draw_ctx, &dsc, &a, disp_refr->bg_img);
 757:lvgl/src/core/lv_refr.c ****             }
 758:lvgl/src/core/lv_refr.c ****             else {
 759:lvgl/src/core/lv_refr.c ****                 LV_LOG_WARN("Can't draw the background image");
 760:lvgl/src/core/lv_refr.c ****             }
 761:lvgl/src/core/lv_refr.c ****         }
 762:lvgl/src/core/lv_refr.c ****         else {
 763:lvgl/src/core/lv_refr.c ****             lv_draw_rect_dsc_t dsc;
 764:lvgl/src/core/lv_refr.c ****             lv_draw_rect_dsc_init(&dsc);
 765:lvgl/src/core/lv_refr.c ****             dsc.bg_color = disp_refr->bg_color;
 766:lvgl/src/core/lv_refr.c ****             dsc.bg_opa = disp_refr->bg_opa;
 767:lvgl/src/core/lv_refr.c ****             lv_draw_rect(draw_ctx, &dsc, draw_ctx->buf_area);
 768:lvgl/src/core/lv_refr.c ****         }
 769:lvgl/src/core/lv_refr.c ****     }
 770:lvgl/src/core/lv_refr.c **** 
 771:lvgl/src/core/lv_refr.c ****     if(disp_refr->draw_prev_over_act) {
 772:lvgl/src/core/lv_refr.c ****         if(top_act_scr == NULL) top_act_scr = disp_refr->act_scr;
ARM GAS  C:\Users\OSD\AppData\Local\Temp\cceLTvBX.s 			page 15


 773:lvgl/src/core/lv_refr.c ****         refr_obj_and_children(draw_ctx, top_act_scr);
 774:lvgl/src/core/lv_refr.c **** 
 775:lvgl/src/core/lv_refr.c ****         /*Refresh the previous screen if any*/
 776:lvgl/src/core/lv_refr.c ****         if(disp_refr->prev_scr) {
 777:lvgl/src/core/lv_refr.c ****             if(top_prev_scr == NULL) top_prev_scr = disp_refr->prev_scr;
 778:lvgl/src/core/lv_refr.c ****             refr_obj_and_children(draw_ctx, top_prev_scr);
 779:lvgl/src/core/lv_refr.c ****         }
 780:lvgl/src/core/lv_refr.c ****     }
 781:lvgl/src/core/lv_refr.c ****     else {
 782:lvgl/src/core/lv_refr.c ****         /*Refresh the previous screen if any*/
 783:lvgl/src/core/lv_refr.c ****         if(disp_refr->prev_scr) {
 784:lvgl/src/core/lv_refr.c ****             if(top_prev_scr == NULL) top_prev_scr = disp_refr->prev_scr;
 785:lvgl/src/core/lv_refr.c ****             refr_obj_and_children(draw_ctx, top_prev_scr);
 786:lvgl/src/core/lv_refr.c ****         }
 787:lvgl/src/core/lv_refr.c **** 
 788:lvgl/src/core/lv_refr.c ****         if(top_act_scr == NULL) top_act_scr = disp_refr->act_scr;
 789:lvgl/src/core/lv_refr.c ****         refr_obj_and_children(draw_ctx, top_act_scr);
 790:lvgl/src/core/lv_refr.c ****     }
 791:lvgl/src/core/lv_refr.c **** 
 792:lvgl/src/core/lv_refr.c ****     /*Also refresh top and sys layer unconditionally*/
 793:lvgl/src/core/lv_refr.c ****     refr_obj_and_children(draw_ctx, lv_disp_get_layer_top(disp_refr));
 794:lvgl/src/core/lv_refr.c ****     refr_obj_and_children(draw_ctx, lv_disp_get_layer_sys(disp_refr));
 795:lvgl/src/core/lv_refr.c **** 
 796:lvgl/src/core/lv_refr.c ****     draw_buf_flush(disp_refr);
 797:lvgl/src/core/lv_refr.c **** }
 798:lvgl/src/core/lv_refr.c **** 
 799:lvgl/src/core/lv_refr.c **** /**
 800:lvgl/src/core/lv_refr.c ****  * Search the most top object which fully covers an area
 801:lvgl/src/core/lv_refr.c ****  * @param area_p pointer to an area
 802:lvgl/src/core/lv_refr.c ****  * @param obj the first object to start the searching (typically a screen)
 803:lvgl/src/core/lv_refr.c ****  * @return
 804:lvgl/src/core/lv_refr.c ****  */
 805:lvgl/src/core/lv_refr.c **** static lv_obj_t * lv_refr_get_top_obj(const lv_area_t * area_p, lv_obj_t * obj)
 806:lvgl/src/core/lv_refr.c **** {
 807:lvgl/src/core/lv_refr.c ****     lv_obj_t * found_p = NULL;
 808:lvgl/src/core/lv_refr.c **** 
 809:lvgl/src/core/lv_refr.c ****     if(_lv_area_is_in(area_p, &obj->coords, 0) == false) return NULL;
 810:lvgl/src/core/lv_refr.c ****     if(lv_obj_has_flag(obj, LV_OBJ_FLAG_HIDDEN)) return NULL;
 811:lvgl/src/core/lv_refr.c ****     if(_lv_obj_get_layer_type(obj) != LV_LAYER_TYPE_NONE) return NULL;
 812:lvgl/src/core/lv_refr.c **** 
 813:lvgl/src/core/lv_refr.c ****     /*If this object is fully cover the draw area then check the children too*/
 814:lvgl/src/core/lv_refr.c ****     lv_cover_check_info_t info;
 815:lvgl/src/core/lv_refr.c ****     info.res = LV_COVER_RES_COVER;
 816:lvgl/src/core/lv_refr.c ****     info.area = area_p;
 817:lvgl/src/core/lv_refr.c ****     lv_event_send(obj, LV_EVENT_COVER_CHECK, &info);
 818:lvgl/src/core/lv_refr.c ****     if(info.res == LV_COVER_RES_MASKED) return NULL;
 819:lvgl/src/core/lv_refr.c **** 
 820:lvgl/src/core/lv_refr.c ****     int32_t i;
 821:lvgl/src/core/lv_refr.c ****     int32_t child_cnt = lv_obj_get_child_cnt(obj);
 822:lvgl/src/core/lv_refr.c ****     for(i = child_cnt - 1; i >= 0; i--) {
 823:lvgl/src/core/lv_refr.c ****         lv_obj_t * child = obj->spec_attr->children[i];
 824:lvgl/src/core/lv_refr.c ****         found_p = lv_refr_get_top_obj(area_p, child);
 825:lvgl/src/core/lv_refr.c **** 
 826:lvgl/src/core/lv_refr.c ****         /*If a children is ok then break*/
 827:lvgl/src/core/lv_refr.c ****         if(found_p != NULL) {
 828:lvgl/src/core/lv_refr.c ****             break;
 829:lvgl/src/core/lv_refr.c ****         }
ARM GAS  C:\Users\OSD\AppData\Local\Temp\cceLTvBX.s 			page 16


 830:lvgl/src/core/lv_refr.c ****     }
 831:lvgl/src/core/lv_refr.c **** 
 832:lvgl/src/core/lv_refr.c ****     /*If no better children use this object*/
 833:lvgl/src/core/lv_refr.c ****     if(found_p == NULL && info.res == LV_COVER_RES_COVER) {
 834:lvgl/src/core/lv_refr.c ****         found_p = obj;
 835:lvgl/src/core/lv_refr.c ****     }
 836:lvgl/src/core/lv_refr.c **** 
 837:lvgl/src/core/lv_refr.c ****     return found_p;
 838:lvgl/src/core/lv_refr.c **** }
 839:lvgl/src/core/lv_refr.c **** 
 840:lvgl/src/core/lv_refr.c **** /**
 841:lvgl/src/core/lv_refr.c ****  * Make the refreshing from an object. Draw all its children and the youngers too.
 842:lvgl/src/core/lv_refr.c ****  * @param top_p pointer to an objects. Start the drawing from it.
 843:lvgl/src/core/lv_refr.c ****  * @param mask_p pointer to an area, the objects will be drawn only here
 844:lvgl/src/core/lv_refr.c ****  */
 845:lvgl/src/core/lv_refr.c **** static void refr_obj_and_children(lv_draw_ctx_t * draw_ctx, lv_obj_t * top_obj)
 846:lvgl/src/core/lv_refr.c **** {
 847:lvgl/src/core/lv_refr.c ****     /*Normally always will be a top_obj (at least the screen)
 848:lvgl/src/core/lv_refr.c ****      *but in special cases (e.g. if the screen has alpha) it won't.
 849:lvgl/src/core/lv_refr.c ****      *In this case use the screen directly*/
 850:lvgl/src/core/lv_refr.c ****     if(top_obj == NULL) top_obj = lv_disp_get_scr_act(disp_refr);
 851:lvgl/src/core/lv_refr.c ****     if(top_obj == NULL) return;  /*Shouldn't happen*/
 852:lvgl/src/core/lv_refr.c **** 
 853:lvgl/src/core/lv_refr.c ****     /*Refresh the top object and its children*/
 854:lvgl/src/core/lv_refr.c ****     refr_obj(draw_ctx, top_obj);
 855:lvgl/src/core/lv_refr.c **** 
 856:lvgl/src/core/lv_refr.c ****     /*Draw the 'younger' sibling objects because they can be on top_obj*/
 857:lvgl/src/core/lv_refr.c ****     lv_obj_t * parent;
 858:lvgl/src/core/lv_refr.c ****     lv_obj_t * border_p = top_obj;
 859:lvgl/src/core/lv_refr.c **** 
 860:lvgl/src/core/lv_refr.c ****     parent = lv_obj_get_parent(top_obj);
 861:lvgl/src/core/lv_refr.c **** 
 862:lvgl/src/core/lv_refr.c ****     /*Do until not reach the screen*/
 863:lvgl/src/core/lv_refr.c ****     while(parent != NULL) {
 864:lvgl/src/core/lv_refr.c ****         bool go = false;
 865:lvgl/src/core/lv_refr.c ****         uint32_t i;
 866:lvgl/src/core/lv_refr.c ****         uint32_t child_cnt = lv_obj_get_child_cnt(parent);
 867:lvgl/src/core/lv_refr.c ****         for(i = 0; i < child_cnt; i++) {
 868:lvgl/src/core/lv_refr.c ****             lv_obj_t * child = parent->spec_attr->children[i];
 869:lvgl/src/core/lv_refr.c ****             if(!go) {
 870:lvgl/src/core/lv_refr.c ****                 if(child == border_p) go = true;
 871:lvgl/src/core/lv_refr.c ****             }
 872:lvgl/src/core/lv_refr.c ****             else {
 873:lvgl/src/core/lv_refr.c ****                 /*Refresh the objects*/
 874:lvgl/src/core/lv_refr.c ****                 refr_obj(draw_ctx, child);
 875:lvgl/src/core/lv_refr.c ****             }
 876:lvgl/src/core/lv_refr.c ****         }
 877:lvgl/src/core/lv_refr.c **** 
 878:lvgl/src/core/lv_refr.c ****         /*Call the post draw draw function of the parents of the to object*/
 879:lvgl/src/core/lv_refr.c ****         lv_event_send(parent, LV_EVENT_DRAW_POST_BEGIN, (void *)draw_ctx);
 880:lvgl/src/core/lv_refr.c ****         lv_event_send(parent, LV_EVENT_DRAW_POST, (void *)draw_ctx);
 881:lvgl/src/core/lv_refr.c ****         lv_event_send(parent, LV_EVENT_DRAW_POST_END, (void *)draw_ctx);
 882:lvgl/src/core/lv_refr.c **** 
 883:lvgl/src/core/lv_refr.c ****         /*The new border will be the last parents,
 884:lvgl/src/core/lv_refr.c ****          *so the 'younger' brothers of parent will be refreshed*/
 885:lvgl/src/core/lv_refr.c ****         border_p = parent;
 886:lvgl/src/core/lv_refr.c ****         /*Go a level deeper*/
ARM GAS  C:\Users\OSD\AppData\Local\Temp\cceLTvBX.s 			page 17


 887:lvgl/src/core/lv_refr.c ****         parent = lv_obj_get_parent(parent);
 888:lvgl/src/core/lv_refr.c ****     }
 889:lvgl/src/core/lv_refr.c **** }
 890:lvgl/src/core/lv_refr.c **** 
 891:lvgl/src/core/lv_refr.c **** static lv_res_t layer_get_area(lv_draw_ctx_t * draw_ctx, lv_obj_t * obj, lv_layer_type_t layer_type
 892:lvgl/src/core/lv_refr.c ****                                lv_area_t * layer_area_out)
 893:lvgl/src/core/lv_refr.c **** {
 894:lvgl/src/core/lv_refr.c ****     lv_coord_t ext_draw_size = _lv_obj_get_ext_draw_size(obj);
 895:lvgl/src/core/lv_refr.c ****     lv_area_t obj_coords_ext;
 896:lvgl/src/core/lv_refr.c ****     lv_obj_get_coords(obj, &obj_coords_ext);
 897:lvgl/src/core/lv_refr.c ****     lv_area_increase(&obj_coords_ext, ext_draw_size, ext_draw_size);
 898:lvgl/src/core/lv_refr.c **** 
 899:lvgl/src/core/lv_refr.c ****     if(layer_type == LV_LAYER_TYPE_TRANSFORM) {
 900:lvgl/src/core/lv_refr.c ****         /*Get the transformed area and clip it to the current clip area.
 901:lvgl/src/core/lv_refr.c ****          *This area needs to be updated on the screen.*/
 902:lvgl/src/core/lv_refr.c ****         lv_area_t clip_coords_for_obj;
 903:lvgl/src/core/lv_refr.c ****         lv_area_t tranf_coords = obj_coords_ext;
 904:lvgl/src/core/lv_refr.c ****         lv_obj_get_transformed_area(obj, &tranf_coords, false, false);
 905:lvgl/src/core/lv_refr.c ****         if(!_lv_area_intersect(&clip_coords_for_obj, draw_ctx->clip_area, &tranf_coords)) {
 906:lvgl/src/core/lv_refr.c ****             return LV_RES_INV;
 907:lvgl/src/core/lv_refr.c ****         }
 908:lvgl/src/core/lv_refr.c **** 
 909:lvgl/src/core/lv_refr.c ****         /*Transform back (inverse) the transformed area.
 910:lvgl/src/core/lv_refr.c ****          *It will tell which area of the non-transformed widget needs to be redrawn
 911:lvgl/src/core/lv_refr.c ****          *in order to cover transformed area after transformation.*/
 912:lvgl/src/core/lv_refr.c ****         lv_area_t inverse_clip_coords_for_obj = clip_coords_for_obj;
 913:lvgl/src/core/lv_refr.c ****         lv_obj_get_transformed_area(obj, &inverse_clip_coords_for_obj, false, true);
 914:lvgl/src/core/lv_refr.c ****         if(!_lv_area_intersect(&inverse_clip_coords_for_obj, &inverse_clip_coords_for_obj, &obj_coo
 915:lvgl/src/core/lv_refr.c ****             return LV_RES_INV;
 916:lvgl/src/core/lv_refr.c ****         }
 917:lvgl/src/core/lv_refr.c **** 
 918:lvgl/src/core/lv_refr.c ****         *layer_area_out = inverse_clip_coords_for_obj;
 919:lvgl/src/core/lv_refr.c ****     }
 920:lvgl/src/core/lv_refr.c ****     else if(layer_type == LV_LAYER_TYPE_SIMPLE) {
 921:lvgl/src/core/lv_refr.c ****         lv_area_t clip_coords_for_obj;
 922:lvgl/src/core/lv_refr.c ****         if(!_lv_area_intersect(&clip_coords_for_obj, draw_ctx->clip_area, &obj_coords_ext)) {
 923:lvgl/src/core/lv_refr.c ****             return LV_RES_INV;
 924:lvgl/src/core/lv_refr.c ****         }
 925:lvgl/src/core/lv_refr.c ****         *layer_area_out = clip_coords_for_obj;
 926:lvgl/src/core/lv_refr.c ****     }
 927:lvgl/src/core/lv_refr.c ****     else {
 928:lvgl/src/core/lv_refr.c ****         LV_LOG_WARN("Unhandled intermediate layer type");
 929:lvgl/src/core/lv_refr.c ****         return LV_RES_INV;
 930:lvgl/src/core/lv_refr.c ****     }
 931:lvgl/src/core/lv_refr.c **** 
 932:lvgl/src/core/lv_refr.c ****     return LV_RES_OK;
 933:lvgl/src/core/lv_refr.c **** }
 934:lvgl/src/core/lv_refr.c **** 
 935:lvgl/src/core/lv_refr.c **** static void layer_alpha_test(lv_obj_t * obj, lv_draw_ctx_t * draw_ctx, lv_draw_layer_ctx_t * layer_
 936:lvgl/src/core/lv_refr.c ****                              lv_draw_layer_flags_t flags)
 937:lvgl/src/core/lv_refr.c **** {
 938:lvgl/src/core/lv_refr.c ****     bool has_alpha;
 939:lvgl/src/core/lv_refr.c ****     /*If globally the layer has alpha maybe this smaller section has not (e.g. not on a rounded cor
 940:lvgl/src/core/lv_refr.c ****      *If turns out that this section has no alpha renderer can choose faster algorithms*/
 941:lvgl/src/core/lv_refr.c ****     if(flags & LV_DRAW_LAYER_FLAG_HAS_ALPHA) {
 942:lvgl/src/core/lv_refr.c ****         /*Test for alpha by assuming there is no alpha. If it fails, fall back to rendering with al
 943:lvgl/src/core/lv_refr.c ****         has_alpha = true;
ARM GAS  C:\Users\OSD\AppData\Local\Temp\cceLTvBX.s 			page 18


 944:lvgl/src/core/lv_refr.c ****         if(_lv_area_is_in(&layer_ctx->area_act, &obj->coords, 0)) {
 945:lvgl/src/core/lv_refr.c ****             lv_cover_check_info_t info;
 946:lvgl/src/core/lv_refr.c ****             info.res = LV_COVER_RES_COVER;
 947:lvgl/src/core/lv_refr.c ****             info.area = &layer_ctx->area_act;
 948:lvgl/src/core/lv_refr.c ****             lv_event_send(obj, LV_EVENT_COVER_CHECK, &info);
 949:lvgl/src/core/lv_refr.c ****             if(info.res == LV_COVER_RES_COVER) has_alpha = false;
 950:lvgl/src/core/lv_refr.c ****         }
 951:lvgl/src/core/lv_refr.c **** 
 952:lvgl/src/core/lv_refr.c ****         if(has_alpha) {
 953:lvgl/src/core/lv_refr.c ****             layer_ctx->area_act.y2 = layer_ctx->area_act.y1 + layer_ctx->max_row_with_alpha - 1;
 954:lvgl/src/core/lv_refr.c ****         }
 955:lvgl/src/core/lv_refr.c ****     }
 956:lvgl/src/core/lv_refr.c ****     else {
 957:lvgl/src/core/lv_refr.c ****         has_alpha = false;
 958:lvgl/src/core/lv_refr.c ****     }
 959:lvgl/src/core/lv_refr.c **** 
 960:lvgl/src/core/lv_refr.c ****     if(layer_ctx->area_act.y2 > layer_ctx->area_full.y2) layer_ctx->area_act.y2 = layer_ctx->area_f
 961:lvgl/src/core/lv_refr.c ****     lv_draw_layer_adjust(draw_ctx, layer_ctx, has_alpha ? LV_DRAW_LAYER_FLAG_HAS_ALPHA : LV_DRAW_LA
 962:lvgl/src/core/lv_refr.c **** }
 963:lvgl/src/core/lv_refr.c **** 
 964:lvgl/src/core/lv_refr.c **** void refr_obj(lv_draw_ctx_t * draw_ctx, lv_obj_t * obj)
 965:lvgl/src/core/lv_refr.c **** {
 966:lvgl/src/core/lv_refr.c ****     /*Do not refresh hidden objects*/
 967:lvgl/src/core/lv_refr.c ****     if(lv_obj_has_flag(obj, LV_OBJ_FLAG_HIDDEN)) return;
 968:lvgl/src/core/lv_refr.c ****     lv_layer_type_t layer_type = _lv_obj_get_layer_type(obj);
 969:lvgl/src/core/lv_refr.c ****     if(layer_type == LV_LAYER_TYPE_NONE) {
 970:lvgl/src/core/lv_refr.c ****         lv_obj_redraw(draw_ctx, obj);
 971:lvgl/src/core/lv_refr.c ****     }
 972:lvgl/src/core/lv_refr.c ****     else {
 973:lvgl/src/core/lv_refr.c ****         lv_opa_t opa = lv_obj_get_style_opa_layered(obj, 0);
 974:lvgl/src/core/lv_refr.c ****         if(opa < LV_OPA_MIN) return;
 975:lvgl/src/core/lv_refr.c **** 
 976:lvgl/src/core/lv_refr.c ****         lv_area_t layer_area_full;
 977:lvgl/src/core/lv_refr.c ****         lv_res_t res = layer_get_area(draw_ctx, obj, layer_type, &layer_area_full);
 978:lvgl/src/core/lv_refr.c ****         if(res != LV_RES_OK) return;
 979:lvgl/src/core/lv_refr.c **** 
 980:lvgl/src/core/lv_refr.c ****         lv_draw_layer_flags_t flags = LV_DRAW_LAYER_FLAG_HAS_ALPHA;
 981:lvgl/src/core/lv_refr.c **** 
 982:lvgl/src/core/lv_refr.c ****         if(_lv_area_is_in(&layer_area_full, &obj->coords, 0)) {
 983:lvgl/src/core/lv_refr.c ****             lv_cover_check_info_t info;
 984:lvgl/src/core/lv_refr.c ****             info.res = LV_COVER_RES_COVER;
 985:lvgl/src/core/lv_refr.c ****             info.area = &layer_area_full;
 986:lvgl/src/core/lv_refr.c ****             lv_event_send(obj, LV_EVENT_COVER_CHECK, &info);
 987:lvgl/src/core/lv_refr.c ****             if(info.res == LV_COVER_RES_COVER) flags &= ~LV_DRAW_LAYER_FLAG_HAS_ALPHA;
 988:lvgl/src/core/lv_refr.c ****         }
 989:lvgl/src/core/lv_refr.c **** 
 990:lvgl/src/core/lv_refr.c ****         if(layer_type == LV_LAYER_TYPE_SIMPLE) flags |= LV_DRAW_LAYER_FLAG_CAN_SUBDIVIDE;
 991:lvgl/src/core/lv_refr.c **** 
 992:lvgl/src/core/lv_refr.c ****         lv_draw_layer_ctx_t * layer_ctx = lv_draw_layer_create(draw_ctx, &layer_area_full, flags);
 993:lvgl/src/core/lv_refr.c ****         if(layer_ctx == NULL) {
 994:lvgl/src/core/lv_refr.c ****             LV_LOG_WARN("Couldn't create a new layer context");
 995:lvgl/src/core/lv_refr.c ****             return;
 996:lvgl/src/core/lv_refr.c ****         }
 997:lvgl/src/core/lv_refr.c ****         lv_point_t pivot = {
 998:lvgl/src/core/lv_refr.c ****             .x = lv_obj_get_style_transform_pivot_x(obj, 0),
 999:lvgl/src/core/lv_refr.c ****             .y = lv_obj_get_style_transform_pivot_y(obj, 0)
1000:lvgl/src/core/lv_refr.c ****         };
ARM GAS  C:\Users\OSD\AppData\Local\Temp\cceLTvBX.s 			page 19


1001:lvgl/src/core/lv_refr.c **** 
1002:lvgl/src/core/lv_refr.c ****         if(LV_COORD_IS_PCT(pivot.x)) {
1003:lvgl/src/core/lv_refr.c ****             pivot.x = (LV_COORD_GET_PCT(pivot.x) * lv_area_get_width(&obj->coords)) / 100;
1004:lvgl/src/core/lv_refr.c ****         }
1005:lvgl/src/core/lv_refr.c ****         if(LV_COORD_IS_PCT(pivot.y)) {
1006:lvgl/src/core/lv_refr.c ****             pivot.y = (LV_COORD_GET_PCT(pivot.y) * lv_area_get_height(&obj->coords)) / 100;
1007:lvgl/src/core/lv_refr.c ****         }
1008:lvgl/src/core/lv_refr.c **** 
1009:lvgl/src/core/lv_refr.c ****         lv_draw_img_dsc_t draw_dsc;
1010:lvgl/src/core/lv_refr.c ****         lv_draw_img_dsc_init(&draw_dsc);
1011:lvgl/src/core/lv_refr.c ****         draw_dsc.opa = opa;
1012:lvgl/src/core/lv_refr.c ****         draw_dsc.angle = lv_obj_get_style_transform_angle(obj, 0);
1013:lvgl/src/core/lv_refr.c ****         if(draw_dsc.angle > 3600) draw_dsc.angle -= 3600;
1014:lvgl/src/core/lv_refr.c ****         else if(draw_dsc.angle < 0) draw_dsc.angle += 3600;
1015:lvgl/src/core/lv_refr.c **** 
1016:lvgl/src/core/lv_refr.c ****         draw_dsc.zoom = lv_obj_get_style_transform_zoom(obj, 0);
1017:lvgl/src/core/lv_refr.c ****         draw_dsc.blend_mode = lv_obj_get_style_blend_mode(obj, 0);
1018:lvgl/src/core/lv_refr.c ****         draw_dsc.antialias = disp_refr->driver->antialiasing;
1019:lvgl/src/core/lv_refr.c **** 
1020:lvgl/src/core/lv_refr.c ****         if(flags & LV_DRAW_LAYER_FLAG_CAN_SUBDIVIDE) {
1021:lvgl/src/core/lv_refr.c ****             layer_ctx->area_act = layer_ctx->area_full;
1022:lvgl/src/core/lv_refr.c ****             layer_ctx->area_act.y2 = layer_ctx->area_act.y1 + layer_ctx->max_row_with_no_alpha - 1;
1023:lvgl/src/core/lv_refr.c ****             if(layer_ctx->area_act.y2 > layer_ctx->area_full.y2) layer_ctx->area_act.y2 = layer_ctx
1024:lvgl/src/core/lv_refr.c ****         }
1025:lvgl/src/core/lv_refr.c **** 
1026:lvgl/src/core/lv_refr.c ****         while(layer_ctx->area_act.y1 <= layer_area_full.y2) {
1027:lvgl/src/core/lv_refr.c ****             if(flags & LV_DRAW_LAYER_FLAG_CAN_SUBDIVIDE) {
1028:lvgl/src/core/lv_refr.c ****                 layer_alpha_test(obj, draw_ctx, layer_ctx, flags);
1029:lvgl/src/core/lv_refr.c ****             }
1030:lvgl/src/core/lv_refr.c **** 
1031:lvgl/src/core/lv_refr.c ****             lv_obj_redraw(draw_ctx, obj);
1032:lvgl/src/core/lv_refr.c **** 
1033:lvgl/src/core/lv_refr.c ****             draw_dsc.pivot.x = obj->coords.x1 + pivot.x - draw_ctx->buf_area->x1;
1034:lvgl/src/core/lv_refr.c ****             draw_dsc.pivot.y = obj->coords.y1 + pivot.y - draw_ctx->buf_area->y1;
1035:lvgl/src/core/lv_refr.c **** 
1036:lvgl/src/core/lv_refr.c ****             /*With LV_DRAW_LAYER_FLAG_CAN_SUBDIVIDE it should also go the next chunk*/
1037:lvgl/src/core/lv_refr.c ****             lv_draw_layer_blend(draw_ctx, layer_ctx, &draw_dsc);
1038:lvgl/src/core/lv_refr.c **** 
1039:lvgl/src/core/lv_refr.c ****             if((flags & LV_DRAW_LAYER_FLAG_CAN_SUBDIVIDE) == 0) break;
1040:lvgl/src/core/lv_refr.c **** 
1041:lvgl/src/core/lv_refr.c ****             layer_ctx->area_act.y1 = layer_ctx->area_act.y2 + 1;
1042:lvgl/src/core/lv_refr.c ****             layer_ctx->area_act.y2 = layer_ctx->area_act.y1 + layer_ctx->max_row_with_no_alpha - 1;
1043:lvgl/src/core/lv_refr.c ****         }
1044:lvgl/src/core/lv_refr.c **** 
1045:lvgl/src/core/lv_refr.c ****         lv_draw_layer_destroy(draw_ctx, layer_ctx);
1046:lvgl/src/core/lv_refr.c ****     }
1047:lvgl/src/core/lv_refr.c **** }
1048:lvgl/src/core/lv_refr.c **** 
1049:lvgl/src/core/lv_refr.c **** static uint32_t get_max_row(lv_disp_t * disp, lv_coord_t area_w, lv_coord_t area_h)
1050:lvgl/src/core/lv_refr.c **** {
  28              		.loc 1 1050 1 view -0
  29              		.cfi_startproc
  30              		@ args = 0, pretend = 0, frame = 8
  31              		@ frame_needed = 0, uses_anonymous_args = 0
  32              		.loc 1 1050 1 is_stmt 0 view .LVU1
  33 0000 70B5     		push	{r4, r5, r6, lr}
  34              		.cfi_def_cfa_offset 16
ARM GAS  C:\Users\OSD\AppData\Local\Temp\cceLTvBX.s 			page 20


  35              		.cfi_offset 4, -16
  36              		.cfi_offset 5, -12
  37              		.cfi_offset 6, -8
  38              		.cfi_offset 14, -4
  39 0002 82B0     		sub	sp, sp, #8
  40              		.cfi_def_cfa_offset 24
1051:lvgl/src/core/lv_refr.c ****     int32_t max_row = (uint32_t)disp->driver->draw_buf->size / area_w;
  41              		.loc 1 1051 5 is_stmt 1 view .LVU2
  42              		.loc 1 1051 37 is_stmt 0 view .LVU3
  43 0004 0368     		ldr	r3, [r0]
  44              		.loc 1 1051 45 view .LVU4
  45 0006 DB68     		ldr	r3, [r3, #12]
  46              		.loc 1 1051 55 view .LVU5
  47 0008 DB68     		ldr	r3, [r3, #12]
  48              		.loc 1 1051 62 view .LVU6
  49 000a B3FBF1F1 		udiv	r1, r3, r1
  50              	.LVL1:
1052:lvgl/src/core/lv_refr.c **** 
1053:lvgl/src/core/lv_refr.c ****     if(max_row > area_h) max_row = area_h;
  51              		.loc 1 1053 5 is_stmt 1 view .LVU7
  52              		.loc 1 1053 16 is_stmt 0 view .LVU8
  53 000e 1546     		mov	r5, r2
  54              		.loc 1 1053 7 view .LVU9
  55 0010 8A42     		cmp	r2, r1
  56 0012 00DB     		blt	.L2
1051:lvgl/src/core/lv_refr.c ****     int32_t max_row = (uint32_t)disp->driver->draw_buf->size / area_w;
  57              		.loc 1 1051 13 view .LVU10
  58 0014 0D46     		mov	r5, r1
  59              	.L2:
  60              	.LVL2:
1054:lvgl/src/core/lv_refr.c **** 
1055:lvgl/src/core/lv_refr.c ****     /*Round down the lines of draw_buf if rounding is added*/
1056:lvgl/src/core/lv_refr.c ****     if(disp_refr->driver->rounder_cb) {
  61              		.loc 1 1056 5 is_stmt 1 view .LVU11
  62              		.loc 1 1056 17 is_stmt 0 view .LVU12
  63 0016 174B     		ldr	r3, .L10
  64 0018 1B68     		ldr	r3, [r3]
  65 001a 1B68     		ldr	r3, [r3]
  66              		.loc 1 1056 25 view .LVU13
  67 001c 9B69     		ldr	r3, [r3, #24]
  68              		.loc 1 1056 7 view .LVU14
  69 001e 1BB3     		cbz	r3, .L3
  70              	.LBB66:
1057:lvgl/src/core/lv_refr.c ****         lv_area_t tmp;
  71              		.loc 1 1057 9 is_stmt 1 view .LVU15
1058:lvgl/src/core/lv_refr.c ****         tmp.x1 = 0;
  72              		.loc 1 1058 9 view .LVU16
  73              		.loc 1 1058 16 is_stmt 0 view .LVU17
  74 0020 0023     		movs	r3, #0
  75 0022 ADF80030 		strh	r3, [sp]	@ movhi
1059:lvgl/src/core/lv_refr.c ****         tmp.x2 = 0;
  76              		.loc 1 1059 9 is_stmt 1 view .LVU18
  77              		.loc 1 1059 16 is_stmt 0 view .LVU19
  78 0026 ADF80430 		strh	r3, [sp, #4]	@ movhi
1060:lvgl/src/core/lv_refr.c ****         tmp.y1 = 0;
  79              		.loc 1 1060 9 is_stmt 1 view .LVU20
  80              		.loc 1 1060 16 is_stmt 0 view .LVU21
ARM GAS  C:\Users\OSD\AppData\Local\Temp\cceLTvBX.s 			page 21


  81 002a ADF80230 		strh	r3, [sp, #2]	@ movhi
1061:lvgl/src/core/lv_refr.c **** 
1062:lvgl/src/core/lv_refr.c ****         lv_coord_t h_tmp = max_row;
  82              		.loc 1 1062 9 is_stmt 1 view .LVU22
  83              		.loc 1 1062 20 is_stmt 0 view .LVU23
  84 002e 2CB2     		sxth	r4, r5
  85              	.LVL3:
  86              	.L5:
1063:lvgl/src/core/lv_refr.c ****         do {
  87              		.loc 1 1063 9 is_stmt 1 view .LVU24
1064:lvgl/src/core/lv_refr.c ****             tmp.y2 = h_tmp - 1;
  88              		.loc 1 1064 13 view .LVU25
  89 0030 2646     		mov	r6, r4
  90              		.loc 1 1064 28 is_stmt 0 view .LVU26
  91 0032 013C     		subs	r4, r4, #1
  92              	.LVL4:
  93              		.loc 1 1064 28 view .LVU27
  94 0034 24B2     		sxth	r4, r4
  95              		.loc 1 1064 20 view .LVU28
  96 0036 ADF80640 		strh	r4, [sp, #6]	@ movhi
1065:lvgl/src/core/lv_refr.c ****             disp_refr->driver->rounder_cb(disp_refr->driver, &tmp);
  97              		.loc 1 1065 13 is_stmt 1 view .LVU29
  98              		.loc 1 1065 22 is_stmt 0 view .LVU30
  99 003a 0E4B     		ldr	r3, .L10
 100 003c 1B68     		ldr	r3, [r3]
 101 003e 1868     		ldr	r0, [r3]
 102              		.loc 1 1065 30 view .LVU31
 103 0040 8369     		ldr	r3, [r0, #24]
 104              		.loc 1 1065 13 view .LVU32
 105 0042 6946     		mov	r1, sp
 106 0044 9847     		blx	r3
 107              	.LVL5:
1066:lvgl/src/core/lv_refr.c **** 
1067:lvgl/src/core/lv_refr.c ****             /*If this height fits into `max_row` then fine*/
1068:lvgl/src/core/lv_refr.c ****             if(lv_area_get_height(&tmp) <= max_row) break;
 108              		.loc 1 1068 13 is_stmt 1 view .LVU33
 109              	.LBB67:
 110              	.LBI67:
 111              		.file 2 "lvgl/src/core/../misc/../font/../misc/lv_area.h"
   1:lvgl/src/core/../misc/../font/../misc/lv_area.h **** /**
   2:lvgl/src/core/../misc/../font/../misc/lv_area.h ****  * @file lv_area.h
   3:lvgl/src/core/../misc/../font/../misc/lv_area.h ****  *
   4:lvgl/src/core/../misc/../font/../misc/lv_area.h ****  */
   5:lvgl/src/core/../misc/../font/../misc/lv_area.h **** 
   6:lvgl/src/core/../misc/../font/../misc/lv_area.h **** #ifndef LV_AREA_H
   7:lvgl/src/core/../misc/../font/../misc/lv_area.h **** #define LV_AREA_H
   8:lvgl/src/core/../misc/../font/../misc/lv_area.h **** 
   9:lvgl/src/core/../misc/../font/../misc/lv_area.h **** #ifdef __cplusplus
  10:lvgl/src/core/../misc/../font/../misc/lv_area.h **** extern "C" {
  11:lvgl/src/core/../misc/../font/../misc/lv_area.h **** #endif
  12:lvgl/src/core/../misc/../font/../misc/lv_area.h **** 
  13:lvgl/src/core/../misc/../font/../misc/lv_area.h **** /*********************
  14:lvgl/src/core/../misc/../font/../misc/lv_area.h ****  *      INCLUDES
  15:lvgl/src/core/../misc/../font/../misc/lv_area.h ****  *********************/
  16:lvgl/src/core/../misc/../font/../misc/lv_area.h **** #include "../lv_conf_internal.h"
  17:lvgl/src/core/../misc/../font/../misc/lv_area.h **** #include <stdbool.h>
  18:lvgl/src/core/../misc/../font/../misc/lv_area.h **** #include <stdint.h>
ARM GAS  C:\Users\OSD\AppData\Local\Temp\cceLTvBX.s 			page 22


  19:lvgl/src/core/../misc/../font/../misc/lv_area.h **** 
  20:lvgl/src/core/../misc/../font/../misc/lv_area.h **** /*********************
  21:lvgl/src/core/../misc/../font/../misc/lv_area.h ****  *      DEFINES
  22:lvgl/src/core/../misc/../font/../misc/lv_area.h ****  *********************/
  23:lvgl/src/core/../misc/../font/../misc/lv_area.h **** 
  24:lvgl/src/core/../misc/../font/../misc/lv_area.h **** #if LV_USE_LARGE_COORD
  25:lvgl/src/core/../misc/../font/../misc/lv_area.h **** typedef int32_t lv_coord_t;
  26:lvgl/src/core/../misc/../font/../misc/lv_area.h **** #else
  27:lvgl/src/core/../misc/../font/../misc/lv_area.h **** typedef int16_t lv_coord_t;
  28:lvgl/src/core/../misc/../font/../misc/lv_area.h **** #endif
  29:lvgl/src/core/../misc/../font/../misc/lv_area.h **** 
  30:lvgl/src/core/../misc/../font/../misc/lv_area.h **** /**********************
  31:lvgl/src/core/../misc/../font/../misc/lv_area.h ****  *      TYPEDEFS
  32:lvgl/src/core/../misc/../font/../misc/lv_area.h ****  **********************/
  33:lvgl/src/core/../misc/../font/../misc/lv_area.h **** 
  34:lvgl/src/core/../misc/../font/../misc/lv_area.h **** /**
  35:lvgl/src/core/../misc/../font/../misc/lv_area.h ****  * Represents a point on the screen.
  36:lvgl/src/core/../misc/../font/../misc/lv_area.h ****  */
  37:lvgl/src/core/../misc/../font/../misc/lv_area.h **** typedef struct {
  38:lvgl/src/core/../misc/../font/../misc/lv_area.h ****     lv_coord_t x;
  39:lvgl/src/core/../misc/../font/../misc/lv_area.h ****     lv_coord_t y;
  40:lvgl/src/core/../misc/../font/../misc/lv_area.h **** } lv_point_t;
  41:lvgl/src/core/../misc/../font/../misc/lv_area.h **** 
  42:lvgl/src/core/../misc/../font/../misc/lv_area.h **** /** Represents an area of the screen.*/
  43:lvgl/src/core/../misc/../font/../misc/lv_area.h **** typedef struct {
  44:lvgl/src/core/../misc/../font/../misc/lv_area.h ****     lv_coord_t x1;
  45:lvgl/src/core/../misc/../font/../misc/lv_area.h ****     lv_coord_t y1;
  46:lvgl/src/core/../misc/../font/../misc/lv_area.h ****     lv_coord_t x2;
  47:lvgl/src/core/../misc/../font/../misc/lv_area.h ****     lv_coord_t y2;
  48:lvgl/src/core/../misc/../font/../misc/lv_area.h **** } lv_area_t;
  49:lvgl/src/core/../misc/../font/../misc/lv_area.h **** 
  50:lvgl/src/core/../misc/../font/../misc/lv_area.h **** /** Alignments*/
  51:lvgl/src/core/../misc/../font/../misc/lv_area.h **** enum {
  52:lvgl/src/core/../misc/../font/../misc/lv_area.h ****     LV_ALIGN_DEFAULT = 0,
  53:lvgl/src/core/../misc/../font/../misc/lv_area.h ****     LV_ALIGN_TOP_LEFT,
  54:lvgl/src/core/../misc/../font/../misc/lv_area.h ****     LV_ALIGN_TOP_MID,
  55:lvgl/src/core/../misc/../font/../misc/lv_area.h ****     LV_ALIGN_TOP_RIGHT,
  56:lvgl/src/core/../misc/../font/../misc/lv_area.h ****     LV_ALIGN_BOTTOM_LEFT,
  57:lvgl/src/core/../misc/../font/../misc/lv_area.h ****     LV_ALIGN_BOTTOM_MID,
  58:lvgl/src/core/../misc/../font/../misc/lv_area.h ****     LV_ALIGN_BOTTOM_RIGHT,
  59:lvgl/src/core/../misc/../font/../misc/lv_area.h ****     LV_ALIGN_LEFT_MID,
  60:lvgl/src/core/../misc/../font/../misc/lv_area.h ****     LV_ALIGN_RIGHT_MID,
  61:lvgl/src/core/../misc/../font/../misc/lv_area.h ****     LV_ALIGN_CENTER,
  62:lvgl/src/core/../misc/../font/../misc/lv_area.h **** 
  63:lvgl/src/core/../misc/../font/../misc/lv_area.h ****     LV_ALIGN_OUT_TOP_LEFT,
  64:lvgl/src/core/../misc/../font/../misc/lv_area.h ****     LV_ALIGN_OUT_TOP_MID,
  65:lvgl/src/core/../misc/../font/../misc/lv_area.h ****     LV_ALIGN_OUT_TOP_RIGHT,
  66:lvgl/src/core/../misc/../font/../misc/lv_area.h ****     LV_ALIGN_OUT_BOTTOM_LEFT,
  67:lvgl/src/core/../misc/../font/../misc/lv_area.h ****     LV_ALIGN_OUT_BOTTOM_MID,
  68:lvgl/src/core/../misc/../font/../misc/lv_area.h ****     LV_ALIGN_OUT_BOTTOM_RIGHT,
  69:lvgl/src/core/../misc/../font/../misc/lv_area.h ****     LV_ALIGN_OUT_LEFT_TOP,
  70:lvgl/src/core/../misc/../font/../misc/lv_area.h ****     LV_ALIGN_OUT_LEFT_MID,
  71:lvgl/src/core/../misc/../font/../misc/lv_area.h ****     LV_ALIGN_OUT_LEFT_BOTTOM,
  72:lvgl/src/core/../misc/../font/../misc/lv_area.h ****     LV_ALIGN_OUT_RIGHT_TOP,
  73:lvgl/src/core/../misc/../font/../misc/lv_area.h ****     LV_ALIGN_OUT_RIGHT_MID,
  74:lvgl/src/core/../misc/../font/../misc/lv_area.h ****     LV_ALIGN_OUT_RIGHT_BOTTOM,
  75:lvgl/src/core/../misc/../font/../misc/lv_area.h **** };
ARM GAS  C:\Users\OSD\AppData\Local\Temp\cceLTvBX.s 			page 23


  76:lvgl/src/core/../misc/../font/../misc/lv_area.h **** typedef uint8_t lv_align_t;
  77:lvgl/src/core/../misc/../font/../misc/lv_area.h **** 
  78:lvgl/src/core/../misc/../font/../misc/lv_area.h **** enum {
  79:lvgl/src/core/../misc/../font/../misc/lv_area.h ****     LV_DIR_NONE     = 0x00,
  80:lvgl/src/core/../misc/../font/../misc/lv_area.h ****     LV_DIR_LEFT     = (1 << 0),
  81:lvgl/src/core/../misc/../font/../misc/lv_area.h ****     LV_DIR_RIGHT    = (1 << 1),
  82:lvgl/src/core/../misc/../font/../misc/lv_area.h ****     LV_DIR_TOP      = (1 << 2),
  83:lvgl/src/core/../misc/../font/../misc/lv_area.h ****     LV_DIR_BOTTOM   = (1 << 3),
  84:lvgl/src/core/../misc/../font/../misc/lv_area.h ****     LV_DIR_HOR      = LV_DIR_LEFT | LV_DIR_RIGHT,
  85:lvgl/src/core/../misc/../font/../misc/lv_area.h ****     LV_DIR_VER      = LV_DIR_TOP | LV_DIR_BOTTOM,
  86:lvgl/src/core/../misc/../font/../misc/lv_area.h ****     LV_DIR_ALL      = LV_DIR_HOR | LV_DIR_VER,
  87:lvgl/src/core/../misc/../font/../misc/lv_area.h **** };
  88:lvgl/src/core/../misc/../font/../misc/lv_area.h **** 
  89:lvgl/src/core/../misc/../font/../misc/lv_area.h **** typedef uint8_t lv_dir_t;
  90:lvgl/src/core/../misc/../font/../misc/lv_area.h **** 
  91:lvgl/src/core/../misc/../font/../misc/lv_area.h **** /**********************
  92:lvgl/src/core/../misc/../font/../misc/lv_area.h ****  * GLOBAL PROTOTYPES
  93:lvgl/src/core/../misc/../font/../misc/lv_area.h ****  **********************/
  94:lvgl/src/core/../misc/../font/../misc/lv_area.h **** 
  95:lvgl/src/core/../misc/../font/../misc/lv_area.h **** /**
  96:lvgl/src/core/../misc/../font/../misc/lv_area.h ****  * Initialize an area
  97:lvgl/src/core/../misc/../font/../misc/lv_area.h ****  * @param area_p pointer to an area
  98:lvgl/src/core/../misc/../font/../misc/lv_area.h ****  * @param x1 left coordinate of the area
  99:lvgl/src/core/../misc/../font/../misc/lv_area.h ****  * @param y1 top coordinate of the area
 100:lvgl/src/core/../misc/../font/../misc/lv_area.h ****  * @param x2 right coordinate of the area
 101:lvgl/src/core/../misc/../font/../misc/lv_area.h ****  * @param y2 bottom coordinate of the area
 102:lvgl/src/core/../misc/../font/../misc/lv_area.h ****  */
 103:lvgl/src/core/../misc/../font/../misc/lv_area.h **** void lv_area_set(lv_area_t * area_p, lv_coord_t x1, lv_coord_t y1, lv_coord_t x2, lv_coord_t y2);
 104:lvgl/src/core/../misc/../font/../misc/lv_area.h **** 
 105:lvgl/src/core/../misc/../font/../misc/lv_area.h **** /**
 106:lvgl/src/core/../misc/../font/../misc/lv_area.h ****  * Copy an area
 107:lvgl/src/core/../misc/../font/../misc/lv_area.h ****  * @param dest pointer to the destination area
 108:lvgl/src/core/../misc/../font/../misc/lv_area.h ****  * @param src pointer to the source area
 109:lvgl/src/core/../misc/../font/../misc/lv_area.h ****  */
 110:lvgl/src/core/../misc/../font/../misc/lv_area.h **** inline static void lv_area_copy(lv_area_t * dest, const lv_area_t * src)
 111:lvgl/src/core/../misc/../font/../misc/lv_area.h **** {
 112:lvgl/src/core/../misc/../font/../misc/lv_area.h ****     dest->x1 = src->x1;
 113:lvgl/src/core/../misc/../font/../misc/lv_area.h ****     dest->y1 = src->y1;
 114:lvgl/src/core/../misc/../font/../misc/lv_area.h ****     dest->x2 = src->x2;
 115:lvgl/src/core/../misc/../font/../misc/lv_area.h ****     dest->y2 = src->y2;
 116:lvgl/src/core/../misc/../font/../misc/lv_area.h **** }
 117:lvgl/src/core/../misc/../font/../misc/lv_area.h **** 
 118:lvgl/src/core/../misc/../font/../misc/lv_area.h **** /**
 119:lvgl/src/core/../misc/../font/../misc/lv_area.h ****  * Get the width of an area
 120:lvgl/src/core/../misc/../font/../misc/lv_area.h ****  * @param area_p pointer to an area
 121:lvgl/src/core/../misc/../font/../misc/lv_area.h ****  * @return the width of the area (if x1 == x2 -> width = 1)
 122:lvgl/src/core/../misc/../font/../misc/lv_area.h ****  */
 123:lvgl/src/core/../misc/../font/../misc/lv_area.h **** static inline lv_coord_t lv_area_get_width(const lv_area_t * area_p)
 124:lvgl/src/core/../misc/../font/../misc/lv_area.h **** {
 125:lvgl/src/core/../misc/../font/../misc/lv_area.h ****     return (lv_coord_t)(area_p->x2 - area_p->x1 + 1);
 126:lvgl/src/core/../misc/../font/../misc/lv_area.h **** }
 127:lvgl/src/core/../misc/../font/../misc/lv_area.h **** 
 128:lvgl/src/core/../misc/../font/../misc/lv_area.h **** /**
 129:lvgl/src/core/../misc/../font/../misc/lv_area.h ****  * Get the height of an area
 130:lvgl/src/core/../misc/../font/../misc/lv_area.h ****  * @param area_p pointer to an area
 131:lvgl/src/core/../misc/../font/../misc/lv_area.h ****  * @return the height of the area (if y1 == y2 -> height = 1)
 132:lvgl/src/core/../misc/../font/../misc/lv_area.h ****  */
ARM GAS  C:\Users\OSD\AppData\Local\Temp\cceLTvBX.s 			page 24


 133:lvgl/src/core/../misc/../font/../misc/lv_area.h **** static inline lv_coord_t lv_area_get_height(const lv_area_t * area_p)
 112              		.loc 2 133 26 view .LVU34
 113              	.LBB68:
 134:lvgl/src/core/../misc/../font/../misc/lv_area.h **** {
 135:lvgl/src/core/../misc/../font/../misc/lv_area.h ****     return (lv_coord_t)(area_p->y2 - area_p->y1 + 1);
 114              		.loc 2 135 5 view .LVU35
 115              		.loc 2 135 31 is_stmt 0 view .LVU36
 116 0046 BDF90620 		ldrsh	r2, [sp, #6]
 117 004a 93B2     		uxth	r3, r2
 118              		.loc 2 135 44 view .LVU37
 119 004c BDF80210 		ldrh	r1, [sp, #2]
 120              		.loc 2 135 36 view .LVU38
 121 0050 5B1A     		subs	r3, r3, r1
 122 0052 9BB2     		uxth	r3, r3
 123              		.loc 2 135 49 view .LVU39
 124 0054 0133     		adds	r3, r3, #1
 125              		.loc 2 135 12 view .LVU40
 126 0056 1BB2     		sxth	r3, r3
 127              	.LVL6:
 128              		.loc 2 135 12 view .LVU41
 129              	.LBE68:
 130              	.LBE67:
 131              		.loc 1 1068 15 view .LVU42
 132 0058 AB42     		cmp	r3, r5
 133 005a 02DD     		ble	.L4
1069:lvgl/src/core/lv_refr.c **** 
1070:lvgl/src/core/lv_refr.c ****             /*Decrement the height of the area until it fits into `max_row` after rounding*/
1071:lvgl/src/core/lv_refr.c ****             h_tmp--;
 134              		.loc 1 1071 13 is_stmt 1 view .LVU43
 135              	.LVL7:
1072:lvgl/src/core/lv_refr.c ****         } while(h_tmp > 0);
 136              		.loc 1 1072 16 view .LVU44
 137              		.loc 1 1072 9 is_stmt 0 view .LVU45
 138 005c 002C     		cmp	r4, #0
 139 005e E7DC     		bgt	.L5
1071:lvgl/src/core/lv_refr.c ****         } while(h_tmp > 0);
 140              		.loc 1 1071 18 view .LVU46
 141 0060 2646     		mov	r6, r4
 142              	.LVL8:
 143              	.L4:
1073:lvgl/src/core/lv_refr.c **** 
1074:lvgl/src/core/lv_refr.c ****         if(h_tmp <= 0) {
 144              		.loc 1 1074 9 is_stmt 1 view .LVU47
 145              		.loc 1 1074 11 is_stmt 0 view .LVU48
 146 0062 002E     		cmp	r6, #0
 147 0064 03DD     		ble	.L9
1075:lvgl/src/core/lv_refr.c ****             LV_LOG_WARN("Can't set draw_buf height using the round function. (Wrong round_cb or to 
1076:lvgl/src/core/lv_refr.c ****                         "small draw_buf)");
1077:lvgl/src/core/lv_refr.c ****             return 0;
1078:lvgl/src/core/lv_refr.c ****         }
1079:lvgl/src/core/lv_refr.c ****         else {
1080:lvgl/src/core/lv_refr.c ****             max_row = tmp.y2 + 1;
 148              		.loc 1 1080 13 is_stmt 1 view .LVU49
 149              		.loc 1 1080 21 is_stmt 0 view .LVU50
 150 0066 551C     		adds	r5, r2, #1
 151              	.LVL9:
 152              	.L3:
ARM GAS  C:\Users\OSD\AppData\Local\Temp\cceLTvBX.s 			page 25


 153              		.loc 1 1080 21 view .LVU51
 154              	.LBE66:
1081:lvgl/src/core/lv_refr.c ****         }
1082:lvgl/src/core/lv_refr.c ****     }
1083:lvgl/src/core/lv_refr.c **** 
1084:lvgl/src/core/lv_refr.c ****     return max_row;
 155              		.loc 1 1084 5 is_stmt 1 view .LVU52
 156              		.loc 1 1084 12 is_stmt 0 view .LVU53
 157 0068 2846     		mov	r0, r5
 158              	.L1:
1085:lvgl/src/core/lv_refr.c **** }
 159              		.loc 1 1085 1 view .LVU54
 160 006a 02B0     		add	sp, sp, #8
 161              		.cfi_remember_state
 162              		.cfi_def_cfa_offset 16
 163              		@ sp needed
 164 006c 70BD     		pop	{r4, r5, r6, pc}
 165              	.LVL10:
 166              	.L9:
 167              		.cfi_restore_state
 168              	.LBB69:
1075:lvgl/src/core/lv_refr.c ****             LV_LOG_WARN("Can't set draw_buf height using the round function. (Wrong round_cb or to 
 169              		.loc 1 1075 13 is_stmt 1 view .LVU55
1075:lvgl/src/core/lv_refr.c ****             LV_LOG_WARN("Can't set draw_buf height using the round function. (Wrong round_cb or to 
 170              		.loc 1 1075 13 view .LVU56
1075:lvgl/src/core/lv_refr.c ****             LV_LOG_WARN("Can't set draw_buf height using the round function. (Wrong round_cb or to 
 171              		.loc 1 1075 13 view .LVU57
1077:lvgl/src/core/lv_refr.c ****         }
 172              		.loc 1 1077 13 view .LVU58
1077:lvgl/src/core/lv_refr.c ****         }
 173              		.loc 1 1077 20 is_stmt 0 view .LVU59
 174 006e 0020     		movs	r0, #0
 175 0070 FBE7     		b	.L1
 176              	.L11:
 177 0072 00BF     		.align	2
 178              	.L10:
 179 0074 00000000 		.word	.LANCHOR0
 180              	.LBE69:
 181              		.cfi_endproc
 182              	.LFE186:
 184              		.section	.text.draw_buf_rotate_180,"ax",%progbits
 185              		.align	1
 186              		.syntax unified
 187              		.thumb
 188              		.thumb_func
 190              	draw_buf_rotate_180:
 191              	.LVL11:
 192              	.LFB187:
1086:lvgl/src/core/lv_refr.c **** 
1087:lvgl/src/core/lv_refr.c **** static void draw_buf_rotate_180(lv_disp_drv_t * drv, lv_area_t * area, lv_color_t * color_p)
1088:lvgl/src/core/lv_refr.c **** {
 193              		.loc 1 1088 1 is_stmt 1 view -0
 194              		.cfi_startproc
 195              		@ args = 0, pretend = 0, frame = 0
 196              		@ frame_needed = 0, uses_anonymous_args = 0
 197              		@ link register save eliminated.
 198              		.loc 1 1088 1 is_stmt 0 view .LVU61
ARM GAS  C:\Users\OSD\AppData\Local\Temp\cceLTvBX.s 			page 26


 199 0000 30B4     		push	{r4, r5}
 200              		.cfi_def_cfa_offset 8
 201              		.cfi_offset 4, -8
 202              		.cfi_offset 5, -4
1089:lvgl/src/core/lv_refr.c ****     lv_coord_t area_w = lv_area_get_width(area);
 203              		.loc 1 1089 5 is_stmt 1 view .LVU62
 204              	.LVL12:
 205              	.LBB70:
 206              	.LBI70:
 123:lvgl/src/core/../misc/../font/../misc/lv_area.h **** {
 207              		.loc 2 123 26 view .LVU63
 208              	.LBB71:
 125:lvgl/src/core/../misc/../font/../misc/lv_area.h **** }
 209              		.loc 2 125 5 view .LVU64
 125:lvgl/src/core/../misc/../font/../misc/lv_area.h **** }
 210              		.loc 2 125 31 is_stmt 0 view .LVU65
 211 0002 8B88     		ldrh	r3, [r1, #4]
 125:lvgl/src/core/../misc/../font/../misc/lv_area.h **** }
 212              		.loc 2 125 44 view .LVU66
 213 0004 0C88     		ldrh	r4, [r1]
 125:lvgl/src/core/../misc/../font/../misc/lv_area.h **** }
 214              		.loc 2 125 36 view .LVU67
 215 0006 1B1B     		subs	r3, r3, r4
 216 0008 9BB2     		uxth	r3, r3
 125:lvgl/src/core/../misc/../font/../misc/lv_area.h **** }
 217              		.loc 2 125 49 view .LVU68
 218 000a 0133     		adds	r3, r3, #1
 125:lvgl/src/core/../misc/../font/../misc/lv_area.h **** }
 219              		.loc 2 125 12 view .LVU69
 220 000c 1BB2     		sxth	r3, r3
 221              	.LVL13:
 125:lvgl/src/core/../misc/../font/../misc/lv_area.h **** }
 222              		.loc 2 125 12 view .LVU70
 223              	.LBE71:
 224              	.LBE70:
1090:lvgl/src/core/lv_refr.c ****     lv_coord_t area_h = lv_area_get_height(area);
 225              		.loc 1 1090 5 is_stmt 1 view .LVU71
 226              	.LBB72:
 227              	.LBI72:
 133:lvgl/src/core/../misc/../font/../misc/lv_area.h **** {
 228              		.loc 2 133 26 view .LVU72
 229              	.LBB73:
 230              		.loc 2 135 5 view .LVU73
 231              		.loc 2 135 31 is_stmt 0 view .LVU74
 232 000e CC88     		ldrh	r4, [r1, #6]
 233              		.loc 2 135 44 view .LVU75
 234 0010 B1F802C0 		ldrh	ip, [r1, #2]
 235              		.loc 2 135 36 view .LVU76
 236 0014 A4EB0C04 		sub	r4, r4, ip
 237 0018 A4B2     		uxth	r4, r4
 238              		.loc 2 135 49 view .LVU77
 239 001a 0134     		adds	r4, r4, #1
 240              		.loc 2 135 12 view .LVU78
 241 001c 24B2     		sxth	r4, r4
 242              	.LVL14:
 243              		.loc 2 135 12 view .LVU79
 244              	.LBE73:
ARM GAS  C:\Users\OSD\AppData\Local\Temp\cceLTvBX.s 			page 27


 245              	.LBE72:
1091:lvgl/src/core/lv_refr.c ****     uint32_t total = area_w * area_h;
 246              		.loc 1 1091 5 is_stmt 1 view .LVU80
 247              		.loc 1 1091 29 is_stmt 0 view .LVU81
 248 001e 04FB03F3 		mul	r3, r4, r3
 249              	.LVL15:
1092:lvgl/src/core/lv_refr.c ****     /*Swap the beginning and end values*/
1093:lvgl/src/core/lv_refr.c ****     lv_color_t tmp;
 250              		.loc 1 1093 5 is_stmt 1 view .LVU82
1094:lvgl/src/core/lv_refr.c ****     uint32_t i = total - 1, j = 0;
 251              		.loc 1 1094 5 view .LVU83
 252              		.loc 1 1094 14 is_stmt 0 view .LVU84
 253 0022 013B     		subs	r3, r3, #1
 254              	.LVL16:
1095:lvgl/src/core/lv_refr.c ****     while(i > j) {
 255              		.loc 1 1095 5 is_stmt 1 view .LVU85
1094:lvgl/src/core/lv_refr.c ****     uint32_t i = total - 1, j = 0;
 256              		.loc 1 1094 29 is_stmt 0 view .LVU86
 257 0024 4FF0000C 		mov	ip, #0
 258              		.loc 1 1095 10 view .LVU87
 259 0028 0AE0     		b	.L13
 260              	.LVL17:
 261              	.L14:
1096:lvgl/src/core/lv_refr.c ****         tmp = color_p[i];
 262              		.loc 1 1096 9 is_stmt 1 view .LVU88
 263              		.loc 1 1096 13 is_stmt 0 view .LVU89
 264 002a 52F82340 		ldr	r4, [r2, r3, lsl #2]
 265              	.LVL18:
1097:lvgl/src/core/lv_refr.c ****         color_p[i] = color_p[j];
 266              		.loc 1 1097 9 is_stmt 1 view .LVU90
 267              		.loc 1 1097 20 is_stmt 0 view .LVU91
 268 002e 52F82C50 		ldr	r5, [r2, ip, lsl #2]
 269 0032 42F82350 		str	r5, [r2, r3, lsl #2]
1098:lvgl/src/core/lv_refr.c ****         color_p[j] = tmp;
 270              		.loc 1 1098 9 is_stmt 1 view .LVU92
 271              	.LVL19:
 272              		.loc 1 1098 20 is_stmt 0 view .LVU93
 273 0036 42F82C40 		str	r4, [r2, ip, lsl #2]
1099:lvgl/src/core/lv_refr.c ****         i--;
 274              		.loc 1 1099 9 is_stmt 1 view .LVU94
 275              		.loc 1 1099 10 is_stmt 0 view .LVU95
 276 003a 013B     		subs	r3, r3, #1
 277              	.LVL20:
1100:lvgl/src/core/lv_refr.c ****         j++;
 278              		.loc 1 1100 9 is_stmt 1 view .LVU96
 279              		.loc 1 1100 10 is_stmt 0 view .LVU97
 280 003c 0CF1010C 		add	ip, ip, #1
 281              	.LVL21:
 282              	.L13:
1095:lvgl/src/core/lv_refr.c ****         tmp = color_p[i];
 283              		.loc 1 1095 10 is_stmt 1 view .LVU98
 284 0040 6345     		cmp	r3, ip
 285 0042 F2D8     		bhi	.L14
1101:lvgl/src/core/lv_refr.c ****     }
1102:lvgl/src/core/lv_refr.c ****     lv_coord_t tmp_coord;
 286              		.loc 1 1102 5 view .LVU99
1103:lvgl/src/core/lv_refr.c ****     tmp_coord = area->y2;
ARM GAS  C:\Users\OSD\AppData\Local\Temp\cceLTvBX.s 			page 28


 287              		.loc 1 1103 5 view .LVU100
 288              		.loc 1 1103 15 is_stmt 0 view .LVU101
 289 0044 B1F90640 		ldrsh	r4, [r1, #6]
 290              	.LVL22:
1104:lvgl/src/core/lv_refr.c ****     area->y2 = drv->ver_res - area->y1 - 1;
 291              		.loc 1 1104 5 is_stmt 1 view .LVU102
 292              		.loc 1 1104 19 is_stmt 0 view .LVU103
 293 0048 4288     		ldrh	r2, [r0, #2]
 294              	.LVL23:
 295              		.loc 1 1104 35 view .LVU104
 296 004a 4B88     		ldrh	r3, [r1, #2]
 297              	.LVL24:
 298              		.loc 1 1104 29 view .LVU105
 299 004c D21A     		subs	r2, r2, r3
 300 004e 92B2     		uxth	r2, r2
 301              		.loc 1 1104 40 view .LVU106
 302 0050 013A     		subs	r2, r2, #1
 303              		.loc 1 1104 14 view .LVU107
 304 0052 CA80     		strh	r2, [r1, #6]	@ movhi
1105:lvgl/src/core/lv_refr.c ****     area->y1 = drv->ver_res - tmp_coord - 1;
 305              		.loc 1 1105 5 is_stmt 1 view .LVU108
 306              		.loc 1 1105 19 is_stmt 0 view .LVU109
 307 0054 4388     		ldrh	r3, [r0, #2]
 308              		.loc 1 1105 29 view .LVU110
 309 0056 1B1B     		subs	r3, r3, r4
 310 0058 9BB2     		uxth	r3, r3
 311              		.loc 1 1105 41 view .LVU111
 312 005a 013B     		subs	r3, r3, #1
 313              		.loc 1 1105 14 view .LVU112
 314 005c 4B80     		strh	r3, [r1, #2]	@ movhi
1106:lvgl/src/core/lv_refr.c ****     tmp_coord = area->x2;
 315              		.loc 1 1106 5 is_stmt 1 view .LVU113
 316              		.loc 1 1106 15 is_stmt 0 view .LVU114
 317 005e B1F90440 		ldrsh	r4, [r1, #4]
 318              	.LVL25:
1107:lvgl/src/core/lv_refr.c ****     area->x2 = drv->hor_res - area->x1 - 1;
 319              		.loc 1 1107 5 is_stmt 1 view .LVU115
 320              		.loc 1 1107 19 is_stmt 0 view .LVU116
 321 0062 0288     		ldrh	r2, [r0]
 322              		.loc 1 1107 35 view .LVU117
 323 0064 0B88     		ldrh	r3, [r1]
 324              		.loc 1 1107 29 view .LVU118
 325 0066 D21A     		subs	r2, r2, r3
 326 0068 92B2     		uxth	r2, r2
 327              		.loc 1 1107 40 view .LVU119
 328 006a 013A     		subs	r2, r2, #1
 329              		.loc 1 1107 14 view .LVU120
 330 006c 8A80     		strh	r2, [r1, #4]	@ movhi
1108:lvgl/src/core/lv_refr.c ****     area->x1 = drv->hor_res - tmp_coord - 1;
 331              		.loc 1 1108 5 is_stmt 1 view .LVU121
 332              		.loc 1 1108 19 is_stmt 0 view .LVU122
 333 006e 0388     		ldrh	r3, [r0]
 334              		.loc 1 1108 29 view .LVU123
 335 0070 1B1B     		subs	r3, r3, r4
 336 0072 9BB2     		uxth	r3, r3
 337              		.loc 1 1108 41 view .LVU124
 338 0074 013B     		subs	r3, r3, #1
ARM GAS  C:\Users\OSD\AppData\Local\Temp\cceLTvBX.s 			page 29


 339              		.loc 1 1108 14 view .LVU125
 340 0076 0B80     		strh	r3, [r1]	@ movhi
1109:lvgl/src/core/lv_refr.c **** }
 341              		.loc 1 1109 1 view .LVU126
 342 0078 30BC     		pop	{r4, r5}
 343              		.cfi_restore 5
 344              		.cfi_restore 4
 345              		.cfi_def_cfa_offset 0
 346              	.LVL26:
 347              		.loc 1 1109 1 view .LVU127
 348 007a 7047     		bx	lr
 349              		.cfi_endproc
 350              	.LFE187:
 352              		.section	.text.draw_buf_rotate_90,"ax",%progbits
 353              		.align	1
 354              		.syntax unified
 355              		.thumb
 356              		.thumb_func
 358              	draw_buf_rotate_90:
 359              	.LVL27:
 360              	.LFB188:
1110:lvgl/src/core/lv_refr.c **** 
1111:lvgl/src/core/lv_refr.c **** static void LV_ATTRIBUTE_FAST_MEM draw_buf_rotate_90(bool invert_i, lv_coord_t area_w, lv_coord_t a
1112:lvgl/src/core/lv_refr.c ****                                                      lv_color_t * orig_color_p, lv_color_t * rot_bu
1113:lvgl/src/core/lv_refr.c **** {
 361              		.loc 1 1113 1 is_stmt 1 view -0
 362              		.cfi_startproc
 363              		@ args = 4, pretend = 0, frame = 0
 364              		@ frame_needed = 0, uses_anonymous_args = 0
 365              		.loc 1 1113 1 is_stmt 0 view .LVU129
 366 0000 2DE9F041 		push	{r4, r5, r6, r7, r8, lr}
 367              		.cfi_def_cfa_offset 24
 368              		.cfi_offset 4, -24
 369              		.cfi_offset 5, -20
 370              		.cfi_offset 6, -16
 371              		.cfi_offset 7, -12
 372              		.cfi_offset 8, -8
 373              		.cfi_offset 14, -4
 374 0004 0446     		mov	r4, r0
 375 0006 0846     		mov	r0, r1
 376              	.LVL28:
 377              		.loc 1 1113 1 view .LVU130
 378 0008 1146     		mov	r1, r2
 379              	.LVL29:
 380              		.loc 1 1113 1 view .LVU131
 381 000a 069D     		ldr	r5, [sp, #24]
1114:lvgl/src/core/lv_refr.c **** 
1115:lvgl/src/core/lv_refr.c ****     uint32_t invert = (area_w * area_h) - 1;
 382              		.loc 1 1115 5 is_stmt 1 view .LVU132
 383              		.loc 1 1115 31 is_stmt 0 view .LVU133
 384 000c 02FB00F8 		mul	r8, r2, r0
 385              		.loc 1 1115 41 view .LVU134
 386 0010 08F1FF38 		add	r8, r8, #-1
 387              	.LVL30:
1116:lvgl/src/core/lv_refr.c ****     uint32_t initial_i = ((area_w - 1) * area_h);
 388              		.loc 1 1116 5 is_stmt 1 view .LVU135
 389              		.loc 1 1116 35 is_stmt 0 view .LVU136
ARM GAS  C:\Users\OSD\AppData\Local\Temp\cceLTvBX.s 			page 30


 390 0014 471E     		subs	r7, r0, #1
 391              		.loc 1 1116 40 view .LVU137
 392 0016 02FB07F7 		mul	r7, r2, r7
 393              	.LVL31:
1117:lvgl/src/core/lv_refr.c ****     for(lv_coord_t y = 0; y < area_h; y++) {
 394              		.loc 1 1117 5 is_stmt 1 view .LVU138
 395              	.LBB74:
 396              		.loc 1 1117 9 view .LVU139
 397              		.loc 1 1117 20 is_stmt 0 view .LVU140
 398 001a 0026     		movs	r6, #0
 399              		.loc 1 1117 5 view .LVU141
 400 001c 11E0     		b	.L17
 401              	.LVL32:
 402              	.L20:
 403              	.LBB75:
 404              	.LBB76:
1118:lvgl/src/core/lv_refr.c ****         uint32_t i = initial_i + y;
1119:lvgl/src/core/lv_refr.c ****         if(invert_i)
1120:lvgl/src/core/lv_refr.c ****             i = invert - i;
1121:lvgl/src/core/lv_refr.c ****         for(lv_coord_t x = 0; x < area_w; x++) {
1122:lvgl/src/core/lv_refr.c ****             rot_buf[i] = *(orig_color_p++);
1123:lvgl/src/core/lv_refr.c ****             if(invert_i)
1124:lvgl/src/core/lv_refr.c ****                 i += area_h;
1125:lvgl/src/core/lv_refr.c ****             else
1126:lvgl/src/core/lv_refr.c ****                 i -= area_h;
 405              		.loc 1 1126 17 is_stmt 1 view .LVU142
 406              		.loc 1 1126 19 is_stmt 0 view .LVU143
 407 001e AEEB010E 		sub	lr, lr, r1
 408              	.LVL33:
 409              	.L21:
1121:lvgl/src/core/lv_refr.c ****             rot_buf[i] = *(orig_color_p++);
 410              		.loc 1 1121 43 is_stmt 1 discriminator 2 view .LVU144
1121:lvgl/src/core/lv_refr.c ****             rot_buf[i] = *(orig_color_p++);
 411              		.loc 1 1121 44 is_stmt 0 discriminator 2 view .LVU145
 412 0022 0CF1010C 		add	ip, ip, #1
 413              	.LVL34:
1121:lvgl/src/core/lv_refr.c ****             rot_buf[i] = *(orig_color_p++);
 414              		.loc 1 1121 44 discriminator 2 view .LVU146
 415 0026 0FFA8CFC 		sxth	ip, ip
 416              	.LVL35:
 417              	.L19:
1121:lvgl/src/core/lv_refr.c ****             rot_buf[i] = *(orig_color_p++);
 418              		.loc 1 1121 31 is_stmt 1 discriminator 1 view .LVU147
1121:lvgl/src/core/lv_refr.c ****             rot_buf[i] = *(orig_color_p++);
 419              		.loc 1 1121 9 is_stmt 0 discriminator 1 view .LVU148
 420 002a 8445     		cmp	ip, r0
 421 002c 07DA     		bge	.L25
1122:lvgl/src/core/lv_refr.c ****             if(invert_i)
 422              		.loc 1 1122 13 is_stmt 1 view .LVU149
 423              	.LVL36:
1122:lvgl/src/core/lv_refr.c ****             if(invert_i)
 424              		.loc 1 1122 24 is_stmt 0 view .LVU150
 425 002e 53F8042B 		ldr	r2, [r3], #4
 426              	.LVL37:
1122:lvgl/src/core/lv_refr.c ****             if(invert_i)
 427              		.loc 1 1122 24 view .LVU151
 428 0032 45F82E20 		str	r2, [r5, lr, lsl #2]
ARM GAS  C:\Users\OSD\AppData\Local\Temp\cceLTvBX.s 			page 31


1123:lvgl/src/core/lv_refr.c ****                 i += area_h;
 429              		.loc 1 1123 13 is_stmt 1 view .LVU152
1123:lvgl/src/core/lv_refr.c ****                 i += area_h;
 430              		.loc 1 1123 15 is_stmt 0 view .LVU153
 431 0036 002C     		cmp	r4, #0
 432 0038 F1D0     		beq	.L20
1124:lvgl/src/core/lv_refr.c ****             else
 433              		.loc 1 1124 17 is_stmt 1 view .LVU154
1124:lvgl/src/core/lv_refr.c ****             else
 434              		.loc 1 1124 19 is_stmt 0 view .LVU155
 435 003a 8E44     		add	lr, lr, r1
 436              	.LVL38:
1124:lvgl/src/core/lv_refr.c ****             else
 437              		.loc 1 1124 19 view .LVU156
 438 003c F1E7     		b	.L21
 439              	.L25:
1124:lvgl/src/core/lv_refr.c ****             else
 440              		.loc 1 1124 19 view .LVU157
 441              	.LBE76:
 442              	.LBE75:
1117:lvgl/src/core/lv_refr.c ****         uint32_t i = initial_i + y;
 443              		.loc 1 1117 39 is_stmt 1 discriminator 2 view .LVU158
1117:lvgl/src/core/lv_refr.c ****         uint32_t i = initial_i + y;
 444              		.loc 1 1117 40 is_stmt 0 discriminator 2 view .LVU159
 445 003e 0136     		adds	r6, r6, #1
 446              	.LVL39:
1117:lvgl/src/core/lv_refr.c ****         uint32_t i = initial_i + y;
 447              		.loc 1 1117 40 discriminator 2 view .LVU160
 448 0040 36B2     		sxth	r6, r6
 449              	.LVL40:
 450              	.L17:
1117:lvgl/src/core/lv_refr.c ****         uint32_t i = initial_i + y;
 451              		.loc 1 1117 27 is_stmt 1 discriminator 1 view .LVU161
1117:lvgl/src/core/lv_refr.c ****         uint32_t i = initial_i + y;
 452              		.loc 1 1117 5 is_stmt 0 discriminator 1 view .LVU162
 453 0042 8E42     		cmp	r6, r1
 454 0044 07DA     		bge	.L26
 455              	.LBB77:
1118:lvgl/src/core/lv_refr.c ****         if(invert_i)
 456              		.loc 1 1118 9 is_stmt 1 view .LVU163
1118:lvgl/src/core/lv_refr.c ****         if(invert_i)
 457              		.loc 1 1118 18 is_stmt 0 view .LVU164
 458 0046 06EB070E 		add	lr, r6, r7
 459              	.LVL41:
1119:lvgl/src/core/lv_refr.c ****             i = invert - i;
 460              		.loc 1 1119 9 is_stmt 1 view .LVU165
1119:lvgl/src/core/lv_refr.c ****             i = invert - i;
 461              		.loc 1 1119 11 is_stmt 0 view .LVU166
 462 004a 0CB1     		cbz	r4, .L18
1120:lvgl/src/core/lv_refr.c ****         for(lv_coord_t x = 0; x < area_w; x++) {
 463              		.loc 1 1120 13 is_stmt 1 view .LVU167
1120:lvgl/src/core/lv_refr.c ****         for(lv_coord_t x = 0; x < area_w; x++) {
 464              		.loc 1 1120 15 is_stmt 0 view .LVU168
 465 004c A8EB0E0E 		sub	lr, r8, lr
 466              	.LVL42:
 467              	.L18:
1120:lvgl/src/core/lv_refr.c ****         for(lv_coord_t x = 0; x < area_w; x++) {
ARM GAS  C:\Users\OSD\AppData\Local\Temp\cceLTvBX.s 			page 32


 468              		.loc 1 1120 15 view .LVU169
 469              	.LBE77:
 470              	.LBE74:
1113:lvgl/src/core/lv_refr.c **** 
 471              		.loc 1 1113 1 discriminator 1 view .LVU170
 472 0050 4FF0000C 		mov	ip, #0
 473 0054 E9E7     		b	.L19
 474              	.LVL43:
 475              	.L26:
1127:lvgl/src/core/lv_refr.c ****         }
1128:lvgl/src/core/lv_refr.c ****     }
1129:lvgl/src/core/lv_refr.c **** }
 476              		.loc 1 1129 1 view .LVU171
 477 0056 BDE8F081 		pop	{r4, r5, r6, r7, r8, pc}
 478              		.loc 1 1129 1 view .LVU172
 479              		.cfi_endproc
 480              	.LFE188:
 482              		.section	.text.draw_buf_rotate_90_sqr,"ax",%progbits
 483              		.align	1
 484              		.syntax unified
 485              		.thumb
 486              		.thumb_func
 488              	draw_buf_rotate_90_sqr:
 489              	.LVL44:
 490              	.LFB190:
1130:lvgl/src/core/lv_refr.c **** 
1131:lvgl/src/core/lv_refr.c **** /**
1132:lvgl/src/core/lv_refr.c ****  * Helper function for draw_buf_rotate_90_sqr. Given a list of four numbers, rotate the entire list
1133:lvgl/src/core/lv_refr.c ****  */
1134:lvgl/src/core/lv_refr.c **** static inline void draw_buf_rotate4(lv_color_t * a, lv_color_t * b, lv_color_t * c, lv_color_t * d)
1135:lvgl/src/core/lv_refr.c **** {
1136:lvgl/src/core/lv_refr.c ****     lv_color_t tmp;
1137:lvgl/src/core/lv_refr.c ****     tmp = *a;
1138:lvgl/src/core/lv_refr.c ****     *a = *b;
1139:lvgl/src/core/lv_refr.c ****     *b = *c;
1140:lvgl/src/core/lv_refr.c ****     *c = *d;
1141:lvgl/src/core/lv_refr.c ****     *d = tmp;
1142:lvgl/src/core/lv_refr.c **** }
1143:lvgl/src/core/lv_refr.c **** 
1144:lvgl/src/core/lv_refr.c **** /**
1145:lvgl/src/core/lv_refr.c ****  * Rotate a square image 90/270 degrees in place.
1146:lvgl/src/core/lv_refr.c ****  * @note inspired by https://stackoverflow.com/a/43694906
1147:lvgl/src/core/lv_refr.c ****  */
1148:lvgl/src/core/lv_refr.c **** static void draw_buf_rotate_90_sqr(bool is_270, lv_coord_t w, lv_color_t * color_p)
1149:lvgl/src/core/lv_refr.c **** {
 491              		.loc 1 1149 1 is_stmt 1 view -0
 492              		.cfi_startproc
 493              		@ args = 0, pretend = 0, frame = 0
 494              		@ frame_needed = 0, uses_anonymous_args = 0
 495              		.loc 1 1149 1 is_stmt 0 view .LVU174
 496 0000 2DE9F043 		push	{r4, r5, r6, r7, r8, r9, lr}
 497              		.cfi_def_cfa_offset 28
 498              		.cfi_offset 4, -28
 499              		.cfi_offset 5, -24
 500              		.cfi_offset 6, -20
 501              		.cfi_offset 7, -16
 502              		.cfi_offset 8, -12
ARM GAS  C:\Users\OSD\AppData\Local\Temp\cceLTvBX.s 			page 33


 503              		.cfi_offset 9, -8
 504              		.cfi_offset 14, -4
 505 0004 8146     		mov	r9, r0
1150:lvgl/src/core/lv_refr.c ****     for(lv_coord_t i = 0; i < w / 2; i++) {
 506              		.loc 1 1150 5 is_stmt 1 view .LVU175
 507              	.LBB78:
 508              		.loc 1 1150 9 view .LVU176
 509              	.LVL45:
 510              		.loc 1 1150 20 is_stmt 0 view .LVU177
 511 0006 0024     		movs	r4, #0
 512              		.loc 1 1150 5 view .LVU178
 513 0008 4EE0     		b	.L28
 514              	.LVL46:
 515              	.L29:
 516              	.LBB79:
 517              	.LBB80:
1151:lvgl/src/core/lv_refr.c ****         for(lv_coord_t j = 0; j < (w + 1) / 2; j++) {
1152:lvgl/src/core/lv_refr.c ****             lv_coord_t inv_i = (w - 1) - i;
1153:lvgl/src/core/lv_refr.c ****             lv_coord_t inv_j = (w - 1) - j;
1154:lvgl/src/core/lv_refr.c ****             if(is_270) {
1155:lvgl/src/core/lv_refr.c ****                 draw_buf_rotate4(
1156:lvgl/src/core/lv_refr.c ****                     &color_p[i * w + j],
1157:lvgl/src/core/lv_refr.c ****                     &color_p[inv_j * w + i],
1158:lvgl/src/core/lv_refr.c ****                     &color_p[inv_i * w + inv_j],
1159:lvgl/src/core/lv_refr.c ****                     &color_p[j * w + inv_i]
1160:lvgl/src/core/lv_refr.c ****                 );
1161:lvgl/src/core/lv_refr.c ****             }
1162:lvgl/src/core/lv_refr.c ****             else {
1163:lvgl/src/core/lv_refr.c ****                 draw_buf_rotate4(
 518              		.loc 1 1163 17 is_stmt 1 view .LVU179
1164:lvgl/src/core/lv_refr.c ****                     &color_p[i * w + j],
 519              		.loc 1 1164 36 is_stmt 0 view .LVU180
 520 000a 01FB0456 		mla	r6, r1, r4, r5
 521              	.LVL47:
1165:lvgl/src/core/lv_refr.c ****                     &color_p[j * w + inv_i],
 522              		.loc 1 1165 36 view .LVU181
 523 000e 01FB05C5 		mla	r5, r1, r5, ip
1166:lvgl/src/core/lv_refr.c ****                     &color_p[inv_i * w + inv_j],
 524              		.loc 1 1166 40 view .LVU182
 525 0012 01FB0C3C 		mla	ip, r1, ip, r3
 526              	.LVL48:
1167:lvgl/src/core/lv_refr.c ****                     &color_p[inv_j * w + i]
 527              		.loc 1 1167 40 view .LVU183
 528 0016 01FB0343 		mla	r3, r1, r3, r4
 529              	.LVL49:
 530              	.LBB81:
 531              	.LBI81:
1134:lvgl/src/core/lv_refr.c **** {
 532              		.loc 1 1134 20 is_stmt 1 view .LVU184
 533              	.LBB82:
1136:lvgl/src/core/lv_refr.c ****     tmp = *a;
 534              		.loc 1 1136 5 view .LVU185
1137:lvgl/src/core/lv_refr.c ****     *a = *b;
 535              		.loc 1 1137 5 view .LVU186
1137:lvgl/src/core/lv_refr.c ****     *a = *b;
 536              		.loc 1 1137 9 is_stmt 0 view .LVU187
 537 001a 52F82670 		ldr	r7, [r2, r6, lsl #2]
ARM GAS  C:\Users\OSD\AppData\Local\Temp\cceLTvBX.s 			page 34


 538              	.LVL50:
1138:lvgl/src/core/lv_refr.c ****     *b = *c;
 539              		.loc 1 1138 5 is_stmt 1 view .LVU188
1138:lvgl/src/core/lv_refr.c ****     *b = *c;
 540              		.loc 1 1138 8 is_stmt 0 view .LVU189
 541 001e 52F82500 		ldr	r0, [r2, r5, lsl #2]
 542 0022 42F82600 		str	r0, [r2, r6, lsl #2]
1139:lvgl/src/core/lv_refr.c ****     *c = *d;
 543              		.loc 1 1139 5 is_stmt 1 view .LVU190
1139:lvgl/src/core/lv_refr.c ****     *c = *d;
 544              		.loc 1 1139 8 is_stmt 0 view .LVU191
 545 0026 52F82C00 		ldr	r0, [r2, ip, lsl #2]
 546 002a 42F82500 		str	r0, [r2, r5, lsl #2]
1140:lvgl/src/core/lv_refr.c ****     *d = tmp;
 547              		.loc 1 1140 5 is_stmt 1 view .LVU192
1140:lvgl/src/core/lv_refr.c ****     *d = tmp;
 548              		.loc 1 1140 8 is_stmt 0 view .LVU193
 549 002e 52F82350 		ldr	r5, [r2, r3, lsl #2]
 550              	.LVL51:
1140:lvgl/src/core/lv_refr.c ****     *d = tmp;
 551              		.loc 1 1140 8 view .LVU194
 552 0032 42F82C50 		str	r5, [r2, ip, lsl #2]
1141:lvgl/src/core/lv_refr.c **** }
 553              		.loc 1 1141 5 is_stmt 1 view .LVU195
 554              	.LVL52:
1141:lvgl/src/core/lv_refr.c **** }
 555              		.loc 1 1141 8 is_stmt 0 view .LVU196
 556 0036 42F82370 		str	r7, [r2, r3, lsl #2]
 557              	.LVL53:
 558              	.L30:
1141:lvgl/src/core/lv_refr.c **** }
 559              		.loc 1 1141 8 view .LVU197
 560              	.LBE82:
 561              	.LBE81:
 562              	.LBE80:
1151:lvgl/src/core/lv_refr.c ****             lv_coord_t inv_i = (w - 1) - i;
 563              		.loc 1 1151 48 is_stmt 1 discriminator 2 view .LVU198
1151:lvgl/src/core/lv_refr.c ****             lv_coord_t inv_i = (w - 1) - i;
 564              		.loc 1 1151 49 is_stmt 0 discriminator 2 view .LVU199
 565 003a 0EF1010E 		add	lr, lr, #1
 566              	.LVL54:
1151:lvgl/src/core/lv_refr.c ****             lv_coord_t inv_i = (w - 1) - i;
 567              		.loc 1 1151 49 discriminator 2 view .LVU200
 568 003e 0FFA8EFE 		sxth	lr, lr
 569              	.LVL55:
 570              	.L34:
1151:lvgl/src/core/lv_refr.c ****             lv_coord_t inv_i = (w - 1) - i;
 571              		.loc 1 1151 31 is_stmt 1 discriminator 1 view .LVU201
1151:lvgl/src/core/lv_refr.c ****             lv_coord_t inv_i = (w - 1) - i;
 572              		.loc 1 1151 33 is_stmt 0 discriminator 1 view .LVU202
 573 0042 7546     		mov	r5, lr
1151:lvgl/src/core/lv_refr.c ****             lv_coord_t inv_i = (w - 1) - i;
 574              		.loc 1 1151 43 discriminator 1 view .LVU203
 575 0044 4B1C     		adds	r3, r1, #1
 576 0046 2BD4     		bmi	.L37
 577              	.L31:
1151:lvgl/src/core/lv_refr.c ****             lv_coord_t inv_i = (w - 1) - i;
ARM GAS  C:\Users\OSD\AppData\Local\Temp\cceLTvBX.s 			page 35


 578              		.loc 1 1151 9 discriminator 1 view .LVU204
 579 0048 B5EB630F 		cmp	r5, r3, asr #1
 580 004c 2ADA     		bge	.L38
 581              	.LBB85:
1152:lvgl/src/core/lv_refr.c ****             lv_coord_t inv_j = (w - 1) - j;
 582              		.loc 1 1152 13 is_stmt 1 view .LVU205
1152:lvgl/src/core/lv_refr.c ****             lv_coord_t inv_j = (w - 1) - j;
 583              		.loc 1 1152 40 is_stmt 0 view .LVU206
 584 004e 8BB2     		uxth	r3, r1
 585 0050 A3EB040C 		sub	ip, r3, r4
 586 0054 0CF1FF3C 		add	ip, ip, #-1
1152:lvgl/src/core/lv_refr.c ****             lv_coord_t inv_j = (w - 1) - j;
 587              		.loc 1 1152 24 view .LVU207
 588 0058 0FFA8CFC 		sxth	ip, ip
 589              	.LVL56:
1153:lvgl/src/core/lv_refr.c ****             if(is_270) {
 590              		.loc 1 1153 13 is_stmt 1 view .LVU208
1153:lvgl/src/core/lv_refr.c ****             if(is_270) {
 591              		.loc 1 1153 40 is_stmt 0 view .LVU209
 592 005c 1FFA8EFE 		uxth	lr, lr
1153:lvgl/src/core/lv_refr.c ****             if(is_270) {
 593              		.loc 1 1153 40 view .LVU210
 594 0060 A3EB0E03 		sub	r3, r3, lr
 595 0064 013B     		subs	r3, r3, #1
1153:lvgl/src/core/lv_refr.c ****             if(is_270) {
 596              		.loc 1 1153 24 view .LVU211
 597 0066 1BB2     		sxth	r3, r3
 598              	.LVL57:
1154:lvgl/src/core/lv_refr.c ****                 draw_buf_rotate4(
 599              		.loc 1 1154 13 is_stmt 1 view .LVU212
1154:lvgl/src/core/lv_refr.c ****                 draw_buf_rotate4(
 600              		.loc 1 1154 15 is_stmt 0 view .LVU213
 601 0068 B9F1000F 		cmp	r9, #0
 602 006c CDD0     		beq	.L29
1155:lvgl/src/core/lv_refr.c ****                     &color_p[i * w + j],
 603              		.loc 1 1155 17 is_stmt 1 view .LVU214
1156:lvgl/src/core/lv_refr.c ****                     &color_p[inv_j * w + i],
 604              		.loc 1 1156 36 is_stmt 0 view .LVU215
 605 006e 01FB0458 		mla	r8, r1, r4, r5
1157:lvgl/src/core/lv_refr.c ****                     &color_p[inv_i * w + inv_j],
 606              		.loc 1 1157 40 view .LVU216
 607 0072 01FB0347 		mla	r7, r1, r3, r4
 608              	.LVL58:
1158:lvgl/src/core/lv_refr.c ****                     &color_p[j * w + inv_i]
 609              		.loc 1 1158 40 view .LVU217
 610 0076 01FB0C33 		mla	r3, r1, ip, r3
 611              	.LVL59:
1159:lvgl/src/core/lv_refr.c ****                 );
 612              		.loc 1 1159 36 view .LVU218
 613 007a 01FB05C5 		mla	r5, r1, r5, ip
 614              	.LVL60:
 615              	.LBB83:
 616              	.LBI83:
1134:lvgl/src/core/lv_refr.c **** {
 617              		.loc 1 1134 20 is_stmt 1 view .LVU219
 618              	.LBB84:
1136:lvgl/src/core/lv_refr.c ****     tmp = *a;
ARM GAS  C:\Users\OSD\AppData\Local\Temp\cceLTvBX.s 			page 36


 619              		.loc 1 1136 5 view .LVU220
1137:lvgl/src/core/lv_refr.c ****     *a = *b;
 620              		.loc 1 1137 5 view .LVU221
1137:lvgl/src/core/lv_refr.c ****     *a = *b;
 621              		.loc 1 1137 9 is_stmt 0 view .LVU222
 622 007e 52F82860 		ldr	r6, [r2, r8, lsl #2]
 623              	.LVL61:
1138:lvgl/src/core/lv_refr.c ****     *b = *c;
 624              		.loc 1 1138 5 is_stmt 1 view .LVU223
1138:lvgl/src/core/lv_refr.c ****     *b = *c;
 625              		.loc 1 1138 8 is_stmt 0 view .LVU224
 626 0082 52F82700 		ldr	r0, [r2, r7, lsl #2]
 627 0086 42F82800 		str	r0, [r2, r8, lsl #2]
1139:lvgl/src/core/lv_refr.c ****     *c = *d;
 628              		.loc 1 1139 5 is_stmt 1 view .LVU225
1139:lvgl/src/core/lv_refr.c ****     *c = *d;
 629              		.loc 1 1139 8 is_stmt 0 view .LVU226
 630 008a 52F82300 		ldr	r0, [r2, r3, lsl #2]
 631 008e 42F82700 		str	r0, [r2, r7, lsl #2]
1140:lvgl/src/core/lv_refr.c ****     *d = tmp;
 632              		.loc 1 1140 5 is_stmt 1 view .LVU227
1140:lvgl/src/core/lv_refr.c ****     *d = tmp;
 633              		.loc 1 1140 8 is_stmt 0 view .LVU228
 634 0092 52F82570 		ldr	r7, [r2, r5, lsl #2]
 635              	.LVL62:
1140:lvgl/src/core/lv_refr.c ****     *d = tmp;
 636              		.loc 1 1140 8 view .LVU229
 637 0096 42F82370 		str	r7, [r2, r3, lsl #2]
1141:lvgl/src/core/lv_refr.c **** }
 638              		.loc 1 1141 5 is_stmt 1 view .LVU230
 639              	.LVL63:
1141:lvgl/src/core/lv_refr.c **** }
 640              		.loc 1 1141 8 is_stmt 0 view .LVU231
 641 009a 42F82560 		str	r6, [r2, r5, lsl #2]
1142:lvgl/src/core/lv_refr.c **** 
 642              		.loc 1 1142 1 view .LVU232
 643 009e CCE7     		b	.L30
 644              	.LVL64:
 645              	.L37:
1142:lvgl/src/core/lv_refr.c **** 
 646              		.loc 1 1142 1 view .LVU233
 647              	.LBE84:
 648              	.LBE83:
 649              	.LBE85:
1151:lvgl/src/core/lv_refr.c ****             lv_coord_t inv_i = (w - 1) - i;
 650              		.loc 1 1151 43 discriminator 1 view .LVU234
 651 00a0 0133     		adds	r3, r3, #1
 652 00a2 D1E7     		b	.L31
 653              	.L38:
 654              	.LBE79:
1150:lvgl/src/core/lv_refr.c ****         for(lv_coord_t j = 0; j < (w + 1) / 2; j++) {
 655              		.loc 1 1150 38 is_stmt 1 discriminator 2 view .LVU235
1150:lvgl/src/core/lv_refr.c ****         for(lv_coord_t j = 0; j < (w + 1) / 2; j++) {
 656              		.loc 1 1150 39 is_stmt 0 discriminator 2 view .LVU236
 657 00a4 0134     		adds	r4, r4, #1
 658              	.LVL65:
1150:lvgl/src/core/lv_refr.c ****         for(lv_coord_t j = 0; j < (w + 1) / 2; j++) {
ARM GAS  C:\Users\OSD\AppData\Local\Temp\cceLTvBX.s 			page 37


 659              		.loc 1 1150 39 discriminator 2 view .LVU237
 660 00a6 24B2     		sxth	r4, r4
 661              	.LVL66:
 662              	.L28:
1150:lvgl/src/core/lv_refr.c ****         for(lv_coord_t j = 0; j < (w + 1) / 2; j++) {
 663              		.loc 1 1150 27 is_stmt 1 discriminator 1 view .LVU238
1150:lvgl/src/core/lv_refr.c ****         for(lv_coord_t j = 0; j < (w + 1) / 2; j++) {
 664              		.loc 1 1150 29 is_stmt 0 discriminator 1 view .LVU239
 665 00a8 0B46     		mov	r3, r1
 666 00aa 0029     		cmp	r1, #0
 667 00ac 05DB     		blt	.L39
 668              	.L33:
1150:lvgl/src/core/lv_refr.c ****         for(lv_coord_t j = 0; j < (w + 1) / 2; j++) {
 669              		.loc 1 1150 5 discriminator 1 view .LVU240
 670 00ae B4EB630F 		cmp	r4, r3, asr #1
 671 00b2 04DA     		bge	.L40
 672              	.LBB86:
1151:lvgl/src/core/lv_refr.c ****             lv_coord_t inv_i = (w - 1) - i;
 673              		.loc 1 1151 24 view .LVU241
 674 00b4 4FF0000E 		mov	lr, #0
 675 00b8 C3E7     		b	.L34
 676              	.L39:
 677              	.LBE86:
1150:lvgl/src/core/lv_refr.c ****         for(lv_coord_t j = 0; j < (w + 1) / 2; j++) {
 678              		.loc 1 1150 29 discriminator 1 view .LVU242
 679 00ba 4B1C     		adds	r3, r1, #1
 680 00bc F7E7     		b	.L33
 681              	.L40:
 682              	.LBE78:
1168:lvgl/src/core/lv_refr.c ****                 );
1169:lvgl/src/core/lv_refr.c ****             }
1170:lvgl/src/core/lv_refr.c **** 
1171:lvgl/src/core/lv_refr.c ****         }
1172:lvgl/src/core/lv_refr.c ****     }
1173:lvgl/src/core/lv_refr.c **** }
 683              		.loc 1 1173 1 view .LVU243
 684 00be BDE8F083 		pop	{r4, r5, r6, r7, r8, r9, pc}
 685              		.loc 1 1173 1 view .LVU244
 686              		.cfi_endproc
 687              	.LFE190:
 689              		.section	.text.call_flush_cb,"ax",%progbits
 690              		.align	1
 691              		.syntax unified
 692              		.thumb
 693              		.thumb_func
 695              	call_flush_cb:
 696              	.LVL67:
 697              	.LFB193:
1174:lvgl/src/core/lv_refr.c **** 
1175:lvgl/src/core/lv_refr.c **** /**
1176:lvgl/src/core/lv_refr.c ****  * Rotate the draw_buf to the display's native orientation.
1177:lvgl/src/core/lv_refr.c ****  */
1178:lvgl/src/core/lv_refr.c **** static void draw_buf_rotate(lv_area_t * area, lv_color_t * color_p)
1179:lvgl/src/core/lv_refr.c **** {
1180:lvgl/src/core/lv_refr.c ****     lv_disp_drv_t * drv = disp_refr->driver;
1181:lvgl/src/core/lv_refr.c ****     if(disp_refr->driver->full_refresh && drv->sw_rotate) {
1182:lvgl/src/core/lv_refr.c ****         LV_LOG_ERROR("cannot rotate a full refreshed display!");
ARM GAS  C:\Users\OSD\AppData\Local\Temp\cceLTvBX.s 			page 38


1183:lvgl/src/core/lv_refr.c ****         return;
1184:lvgl/src/core/lv_refr.c ****     }
1185:lvgl/src/core/lv_refr.c ****     if(drv->rotated == LV_DISP_ROT_180) {
1186:lvgl/src/core/lv_refr.c ****         draw_buf_rotate_180(drv, area, color_p);
1187:lvgl/src/core/lv_refr.c ****         call_flush_cb(drv, area, color_p);
1188:lvgl/src/core/lv_refr.c ****     }
1189:lvgl/src/core/lv_refr.c ****     else if(drv->rotated == LV_DISP_ROT_90 || drv->rotated == LV_DISP_ROT_270) {
1190:lvgl/src/core/lv_refr.c ****         /*Allocate a temporary buffer to store rotated image*/
1191:lvgl/src/core/lv_refr.c ****         lv_color_t * rot_buf = NULL;
1192:lvgl/src/core/lv_refr.c ****         lv_disp_draw_buf_t * draw_buf = lv_disp_get_draw_buf(disp_refr);
1193:lvgl/src/core/lv_refr.c ****         lv_coord_t area_w = lv_area_get_width(area);
1194:lvgl/src/core/lv_refr.c ****         lv_coord_t area_h = lv_area_get_height(area);
1195:lvgl/src/core/lv_refr.c ****         /*Determine the maximum number of rows that can be rotated at a time*/
1196:lvgl/src/core/lv_refr.c ****         lv_coord_t max_row = LV_MIN((lv_coord_t)((LV_DISP_ROT_MAX_BUF / sizeof(lv_color_t)) / area_
1197:lvgl/src/core/lv_refr.c ****         lv_coord_t init_y_off;
1198:lvgl/src/core/lv_refr.c ****         init_y_off = area->y1;
1199:lvgl/src/core/lv_refr.c ****         if(drv->rotated == LV_DISP_ROT_90) {
1200:lvgl/src/core/lv_refr.c ****             area->y2 = drv->ver_res - area->x1 - 1;
1201:lvgl/src/core/lv_refr.c ****             area->y1 = area->y2 - area_w + 1;
1202:lvgl/src/core/lv_refr.c ****         }
1203:lvgl/src/core/lv_refr.c ****         else {
1204:lvgl/src/core/lv_refr.c ****             area->y1 = area->x1;
1205:lvgl/src/core/lv_refr.c ****             area->y2 = area->y1 + area_w - 1;
1206:lvgl/src/core/lv_refr.c ****         }
1207:lvgl/src/core/lv_refr.c **** 
1208:lvgl/src/core/lv_refr.c ****         /*Rotate the screen in chunks, flushing after each one*/
1209:lvgl/src/core/lv_refr.c ****         lv_coord_t row = 0;
1210:lvgl/src/core/lv_refr.c ****         while(row < area_h) {
1211:lvgl/src/core/lv_refr.c ****             lv_coord_t height = LV_MIN(max_row, area_h - row);
1212:lvgl/src/core/lv_refr.c ****             draw_buf->flushing = 1;
1213:lvgl/src/core/lv_refr.c ****             if((row == 0) && (area_h >= area_w)) {
1214:lvgl/src/core/lv_refr.c ****                 /*Rotate the initial area as a square*/
1215:lvgl/src/core/lv_refr.c ****                 height = area_w;
1216:lvgl/src/core/lv_refr.c ****                 draw_buf_rotate_90_sqr(drv->rotated == LV_DISP_ROT_270, area_w, color_p);
1217:lvgl/src/core/lv_refr.c ****                 if(drv->rotated == LV_DISP_ROT_90) {
1218:lvgl/src/core/lv_refr.c ****                     area->x1 = init_y_off;
1219:lvgl/src/core/lv_refr.c ****                     area->x2 = init_y_off + area_w - 1;
1220:lvgl/src/core/lv_refr.c ****                 }
1221:lvgl/src/core/lv_refr.c ****                 else {
1222:lvgl/src/core/lv_refr.c ****                     area->x2 = drv->hor_res - 1 - init_y_off;
1223:lvgl/src/core/lv_refr.c ****                     area->x1 = area->x2 - area_w + 1;
1224:lvgl/src/core/lv_refr.c ****                 }
1225:lvgl/src/core/lv_refr.c ****             }
1226:lvgl/src/core/lv_refr.c ****             else {
1227:lvgl/src/core/lv_refr.c ****                 /*Rotate other areas using a maximum buffer size*/
1228:lvgl/src/core/lv_refr.c ****                 if(rot_buf == NULL) rot_buf = lv_mem_buf_get(LV_DISP_ROT_MAX_BUF);
1229:lvgl/src/core/lv_refr.c ****                 draw_buf_rotate_90(drv->rotated == LV_DISP_ROT_270, area_w, height, color_p, rot_bu
1230:lvgl/src/core/lv_refr.c **** 
1231:lvgl/src/core/lv_refr.c ****                 if(drv->rotated == LV_DISP_ROT_90) {
1232:lvgl/src/core/lv_refr.c ****                     area->x1 = init_y_off + row;
1233:lvgl/src/core/lv_refr.c ****                     area->x2 = init_y_off + row + height - 1;
1234:lvgl/src/core/lv_refr.c ****                 }
1235:lvgl/src/core/lv_refr.c ****                 else {
1236:lvgl/src/core/lv_refr.c ****                     area->x2 = drv->hor_res - 1 - init_y_off - row;
1237:lvgl/src/core/lv_refr.c ****                     area->x1 = area->x2 - height + 1;
1238:lvgl/src/core/lv_refr.c ****                 }
1239:lvgl/src/core/lv_refr.c ****             }
ARM GAS  C:\Users\OSD\AppData\Local\Temp\cceLTvBX.s 			page 39


1240:lvgl/src/core/lv_refr.c **** 
1241:lvgl/src/core/lv_refr.c ****             /* The original part (chunk of the current area) were split into more parts here.
1242:lvgl/src/core/lv_refr.c ****              * Set the original last_part flag on the last part of rotation. */
1243:lvgl/src/core/lv_refr.c ****             if(row + height >= area_h && draw_buf->last_area && draw_buf->last_part) {
1244:lvgl/src/core/lv_refr.c ****                 draw_buf->flushing_last = 1;
1245:lvgl/src/core/lv_refr.c ****             }
1246:lvgl/src/core/lv_refr.c ****             else {
1247:lvgl/src/core/lv_refr.c ****                 draw_buf->flushing_last = 0;
1248:lvgl/src/core/lv_refr.c ****             }
1249:lvgl/src/core/lv_refr.c **** 
1250:lvgl/src/core/lv_refr.c ****             /*Flush the completed area to the display*/
1251:lvgl/src/core/lv_refr.c ****             call_flush_cb(drv, area, rot_buf == NULL ? color_p : rot_buf);
1252:lvgl/src/core/lv_refr.c ****             /*FIXME: Rotation forces legacy behavior where rendering and flushing are done serially
1253:lvgl/src/core/lv_refr.c ****             while(draw_buf->flushing) {
1254:lvgl/src/core/lv_refr.c ****                 if(drv->wait_cb) drv->wait_cb(drv);
1255:lvgl/src/core/lv_refr.c ****             }
1256:lvgl/src/core/lv_refr.c ****             color_p += area_w * height;
1257:lvgl/src/core/lv_refr.c ****             row += height;
1258:lvgl/src/core/lv_refr.c ****         }
1259:lvgl/src/core/lv_refr.c ****         /*Free the allocated buffer at the end if necessary*/
1260:lvgl/src/core/lv_refr.c ****         if(rot_buf != NULL) lv_mem_buf_release(rot_buf);
1261:lvgl/src/core/lv_refr.c ****     }
1262:lvgl/src/core/lv_refr.c **** }
1263:lvgl/src/core/lv_refr.c **** 
1264:lvgl/src/core/lv_refr.c **** /**
1265:lvgl/src/core/lv_refr.c ****  * Flush the content of the draw buffer
1266:lvgl/src/core/lv_refr.c ****  */
1267:lvgl/src/core/lv_refr.c **** static void draw_buf_flush(lv_disp_t * disp)
1268:lvgl/src/core/lv_refr.c **** {
1269:lvgl/src/core/lv_refr.c ****     lv_disp_draw_buf_t * draw_buf = lv_disp_get_draw_buf(disp_refr);
1270:lvgl/src/core/lv_refr.c **** 
1271:lvgl/src/core/lv_refr.c ****     /*Flush the rendered content to the display*/
1272:lvgl/src/core/lv_refr.c ****     lv_draw_ctx_t * draw_ctx = disp->driver->draw_ctx;
1273:lvgl/src/core/lv_refr.c ****     if(draw_ctx->wait_for_finish) draw_ctx->wait_for_finish(draw_ctx);
1274:lvgl/src/core/lv_refr.c **** 
1275:lvgl/src/core/lv_refr.c ****     /* In partial double buffered mode wait until the other buffer is freed
1276:lvgl/src/core/lv_refr.c ****      * and driver is ready to receive the new buffer */
1277:lvgl/src/core/lv_refr.c ****     bool full_sized = draw_buf->size == (uint32_t)disp_refr->driver->hor_res * disp_refr->driver->v
1278:lvgl/src/core/lv_refr.c ****     if(draw_buf->buf1 && draw_buf->buf2 && !full_sized) {
1279:lvgl/src/core/lv_refr.c ****         while(draw_buf->flushing) {
1280:lvgl/src/core/lv_refr.c ****             if(disp_refr->driver->wait_cb) disp_refr->driver->wait_cb(disp_refr->driver);
1281:lvgl/src/core/lv_refr.c ****         }
1282:lvgl/src/core/lv_refr.c ****     }
1283:lvgl/src/core/lv_refr.c **** 
1284:lvgl/src/core/lv_refr.c ****     draw_buf->flushing = 1;
1285:lvgl/src/core/lv_refr.c **** 
1286:lvgl/src/core/lv_refr.c ****     if(disp_refr->driver->draw_buf->last_area && disp_refr->driver->draw_buf->last_part) draw_buf->
1287:lvgl/src/core/lv_refr.c ****     else draw_buf->flushing_last = 0;
1288:lvgl/src/core/lv_refr.c **** 
1289:lvgl/src/core/lv_refr.c ****     bool flushing_last = draw_buf->flushing_last;
1290:lvgl/src/core/lv_refr.c **** 
1291:lvgl/src/core/lv_refr.c ****     if(disp->driver->flush_cb) {
1292:lvgl/src/core/lv_refr.c ****         /*Rotate the buffer to the display's native orientation if necessary*/
1293:lvgl/src/core/lv_refr.c ****         if(disp->driver->rotated != LV_DISP_ROT_NONE && disp->driver->sw_rotate) {
1294:lvgl/src/core/lv_refr.c ****             draw_buf_rotate(draw_ctx->buf_area, draw_ctx->buf);
1295:lvgl/src/core/lv_refr.c ****         }
1296:lvgl/src/core/lv_refr.c ****         else {
ARM GAS  C:\Users\OSD\AppData\Local\Temp\cceLTvBX.s 			page 40


1297:lvgl/src/core/lv_refr.c ****             call_flush_cb(disp->driver, draw_ctx->buf_area, draw_ctx->buf);
1298:lvgl/src/core/lv_refr.c ****         }
1299:lvgl/src/core/lv_refr.c ****     }
1300:lvgl/src/core/lv_refr.c **** 
1301:lvgl/src/core/lv_refr.c ****     /*If there are 2 buffers swap them. With direct mode swap only on the last area*/
1302:lvgl/src/core/lv_refr.c ****     if(draw_buf->buf1 && draw_buf->buf2 && (!disp->driver->direct_mode || flushing_last)) {
1303:lvgl/src/core/lv_refr.c ****         if(draw_buf->buf_act == draw_buf->buf1)
1304:lvgl/src/core/lv_refr.c ****             draw_buf->buf_act = draw_buf->buf2;
1305:lvgl/src/core/lv_refr.c ****         else
1306:lvgl/src/core/lv_refr.c ****             draw_buf->buf_act = draw_buf->buf1;
1307:lvgl/src/core/lv_refr.c ****     }
1308:lvgl/src/core/lv_refr.c **** }
1309:lvgl/src/core/lv_refr.c **** 
1310:lvgl/src/core/lv_refr.c **** static void call_flush_cb(lv_disp_drv_t * drv, const lv_area_t * area, lv_color_t * color_p)
1311:lvgl/src/core/lv_refr.c **** {
 698              		.loc 1 1311 1 is_stmt 1 view -0
 699              		.cfi_startproc
 700              		@ args = 0, pretend = 0, frame = 8
 701              		@ frame_needed = 0, uses_anonymous_args = 0
 702              		.loc 1 1311 1 is_stmt 0 view .LVU246
 703 0000 10B5     		push	{r4, lr}
 704              		.cfi_def_cfa_offset 8
 705              		.cfi_offset 4, -8
 706              		.cfi_offset 14, -4
 707 0002 82B0     		sub	sp, sp, #8
 708              		.cfi_def_cfa_offset 16
1312:lvgl/src/core/lv_refr.c ****     REFR_TRACE("Calling flush_cb on (%d;%d)(%d;%d) area with %p image pointer", area->x1, area->y1,
1313:lvgl/src/core/lv_refr.c ****                (void *)color_p);
 709              		.loc 1 1313 32 is_stmt 1 view .LVU247
1314:lvgl/src/core/lv_refr.c **** 
1315:lvgl/src/core/lv_refr.c ****     lv_area_t offset_area = {
 710              		.loc 1 1315 5 view .LVU248
1316:lvgl/src/core/lv_refr.c ****         .x1 = area->x1 + drv->offset_x,
 711              		.loc 1 1316 19 is_stmt 0 view .LVU249
 712 0004 0C88     		ldrh	r4, [r1]
 713              		.loc 1 1316 29 view .LVU250
 714 0006 B0F808E0 		ldrh	lr, [r0, #8]
 715              		.loc 1 1316 24 view .LVU251
 716 000a 7444     		add	r4, r4, lr
1315:lvgl/src/core/lv_refr.c ****         .x1 = area->x1 + drv->offset_x,
 717              		.loc 1 1315 15 view .LVU252
 718 000c ADF80040 		strh	r4, [sp]	@ movhi
1317:lvgl/src/core/lv_refr.c ****         .y1 = area->y1 + drv->offset_y,
 719              		.loc 1 1317 19 view .LVU253
 720 0010 4C88     		ldrh	r4, [r1, #2]
 721              		.loc 1 1317 29 view .LVU254
 722 0012 B0F80AC0 		ldrh	ip, [r0, #10]
 723              		.loc 1 1317 24 view .LVU255
 724 0016 6444     		add	r4, r4, ip
1315:lvgl/src/core/lv_refr.c ****         .x1 = area->x1 + drv->offset_x,
 725              		.loc 1 1315 15 view .LVU256
 726 0018 ADF80240 		strh	r4, [sp, #2]	@ movhi
1318:lvgl/src/core/lv_refr.c ****         .x2 = area->x2 + drv->offset_x,
 727              		.loc 1 1318 19 view .LVU257
 728 001c 8C88     		ldrh	r4, [r1, #4]
 729              		.loc 1 1318 24 view .LVU258
 730 001e A644     		add	lr, lr, r4
ARM GAS  C:\Users\OSD\AppData\Local\Temp\cceLTvBX.s 			page 41


1315:lvgl/src/core/lv_refr.c ****         .x1 = area->x1 + drv->offset_x,
 731              		.loc 1 1315 15 view .LVU259
 732 0020 ADF804E0 		strh	lr, [sp, #4]	@ movhi
1319:lvgl/src/core/lv_refr.c ****         .y2 = area->y2 + drv->offset_y
 733              		.loc 1 1319 19 view .LVU260
 734 0024 C988     		ldrh	r1, [r1, #6]
 735              	.LVL68:
 736              		.loc 1 1319 24 view .LVU261
 737 0026 8C44     		add	ip, ip, r1
1315:lvgl/src/core/lv_refr.c ****         .x1 = area->x1 + drv->offset_x,
 738              		.loc 1 1315 15 view .LVU262
 739 0028 ADF806C0 		strh	ip, [sp, #6]	@ movhi
1320:lvgl/src/core/lv_refr.c ****     };
1321:lvgl/src/core/lv_refr.c **** 
1322:lvgl/src/core/lv_refr.c ****     drv->flush_cb(drv, &offset_area, color_p);
 740              		.loc 1 1322 5 is_stmt 1 view .LVU263
 741              		.loc 1 1322 8 is_stmt 0 view .LVU264
 742 002c 4369     		ldr	r3, [r0, #20]
 743              		.loc 1 1322 5 view .LVU265
 744 002e 6946     		mov	r1, sp
 745 0030 9847     		blx	r3
 746              	.LVL69:
1323:lvgl/src/core/lv_refr.c **** }
 747              		.loc 1 1323 1 view .LVU266
 748 0032 02B0     		add	sp, sp, #8
 749              		.cfi_def_cfa_offset 8
 750              		@ sp needed
 751 0034 10BD     		pop	{r4, pc}
 752              		.cfi_endproc
 753              	.LFE193:
 755              		.section	.text.perf_monitor_init,"ax",%progbits
 756              		.align	1
 757              		.syntax unified
 758              		.thumb
 759              		.thumb_func
 761              	perf_monitor_init:
 762              	.LVL70:
 763              	.LFB194:
1324:lvgl/src/core/lv_refr.c **** 
1325:lvgl/src/core/lv_refr.c **** #if LV_USE_PERF_MONITOR
1326:lvgl/src/core/lv_refr.c **** static void perf_monitor_init(perf_monitor_t * _perf_monitor)
1327:lvgl/src/core/lv_refr.c **** {
 764              		.loc 1 1327 1 is_stmt 1 view -0
 765              		.cfi_startproc
 766              		@ args = 0, pretend = 0, frame = 0
 767              		@ frame_needed = 0, uses_anonymous_args = 0
 768              		@ link register save eliminated.
1328:lvgl/src/core/lv_refr.c ****     LV_ASSERT_NULL(_perf_monitor);
 769              		.loc 1 1328 5 view .LVU268
 770              		.loc 1 1328 5 view .LVU269
 771 0000 38B1     		cbz	r0, .L45
 772              		.loc 1 1328 5 discriminator 2 view .LVU270
 773              		.loc 1 1328 34 discriminator 2 view .LVU271
1329:lvgl/src/core/lv_refr.c ****     _perf_monitor->elaps_sum = 0;
 774              		.loc 1 1329 5 discriminator 2 view .LVU272
 775              		.loc 1 1329 30 is_stmt 0 discriminator 2 view .LVU273
 776 0002 0022     		movs	r2, #0
ARM GAS  C:\Users\OSD\AppData\Local\Temp\cceLTvBX.s 			page 42


 777 0004 4260     		str	r2, [r0, #4]
1330:lvgl/src/core/lv_refr.c ****     _perf_monitor->fps_sum_all = 0;
 778              		.loc 1 1330 5 is_stmt 1 discriminator 2 view .LVU274
 779              		.loc 1 1330 32 is_stmt 0 discriminator 2 view .LVU275
 780 0006 0261     		str	r2, [r0, #16]
1331:lvgl/src/core/lv_refr.c ****     _perf_monitor->fps_sum_cnt = 0;
 781              		.loc 1 1331 5 is_stmt 1 discriminator 2 view .LVU276
 782              		.loc 1 1331 32 is_stmt 0 discriminator 2 view .LVU277
 783 0008 C260     		str	r2, [r0, #12]
1332:lvgl/src/core/lv_refr.c ****     _perf_monitor->frame_cnt = 0;
 784              		.loc 1 1332 5 is_stmt 1 discriminator 2 view .LVU278
 785              		.loc 1 1332 30 is_stmt 0 discriminator 2 view .LVU279
 786 000a 8260     		str	r2, [r0, #8]
1333:lvgl/src/core/lv_refr.c ****     _perf_monitor->perf_last_time = 0;
 787              		.loc 1 1333 5 is_stmt 1 discriminator 2 view .LVU280
 788              		.loc 1 1333 35 is_stmt 0 discriminator 2 view .LVU281
 789 000c 0260     		str	r2, [r0]
1334:lvgl/src/core/lv_refr.c ****     _perf_monitor->perf_label = NULL;
 790              		.loc 1 1334 5 is_stmt 1 discriminator 2 view .LVU282
 791              		.loc 1 1334 31 is_stmt 0 discriminator 2 view .LVU283
 792 000e 4261     		str	r2, [r0, #20]
1335:lvgl/src/core/lv_refr.c **** }
 793              		.loc 1 1335 1 discriminator 2 view .LVU284
 794 0010 7047     		bx	lr
 795              	.L45:
1328:lvgl/src/core/lv_refr.c ****     _perf_monitor->elaps_sum = 0;
 796              		.loc 1 1328 5 is_stmt 1 discriminator 1 view .LVU285
1328:lvgl/src/core/lv_refr.c ****     _perf_monitor->elaps_sum = 0;
 797              		.loc 1 1328 5 discriminator 1 view .LVU286
1328:lvgl/src/core/lv_refr.c ****     _perf_monitor->elaps_sum = 0;
 798              		.loc 1 1328 5 discriminator 1 view .LVU287
1328:lvgl/src/core/lv_refr.c ****     _perf_monitor->elaps_sum = 0;
 799              		.loc 1 1328 5 discriminator 1 view .LVU288
1328:lvgl/src/core/lv_refr.c ****     _perf_monitor->elaps_sum = 0;
 800              		.loc 1 1328 5 discriminator 1 view .LVU289
1328:lvgl/src/core/lv_refr.c ****     _perf_monitor->elaps_sum = 0;
 801              		.loc 1 1328 5 discriminator 1 view .LVU290
 802 0012 FEE7     		b	.L45
 803              		.cfi_endproc
 804              	.LFE194:
 806              		.section	.text.mem_monitor_init,"ax",%progbits
 807              		.align	1
 808              		.syntax unified
 809              		.thumb
 810              		.thumb_func
 812              	mem_monitor_init:
 813              	.LVL71:
 814              	.LFB195:
1336:lvgl/src/core/lv_refr.c **** #endif
1337:lvgl/src/core/lv_refr.c **** 
1338:lvgl/src/core/lv_refr.c **** #if LV_USE_MEM_MONITOR
1339:lvgl/src/core/lv_refr.c **** static void mem_monitor_init(mem_monitor_t * _mem_monitor)
1340:lvgl/src/core/lv_refr.c **** {
 815              		.loc 1 1340 1 view -0
 816              		.cfi_startproc
 817              		@ args = 0, pretend = 0, frame = 0
 818              		@ frame_needed = 0, uses_anonymous_args = 0
ARM GAS  C:\Users\OSD\AppData\Local\Temp\cceLTvBX.s 			page 43


 819              		@ link register save eliminated.
1341:lvgl/src/core/lv_refr.c ****     LV_ASSERT_NULL(_mem_monitor);
 820              		.loc 1 1341 5 view .LVU292
 821              		.loc 1 1341 5 view .LVU293
 822 0000 18B1     		cbz	r0, .L48
 823              		.loc 1 1341 5 discriminator 2 view .LVU294
 824              		.loc 1 1341 33 discriminator 2 view .LVU295
1342:lvgl/src/core/lv_refr.c ****     _mem_monitor->mem_last_time = 0;
 825              		.loc 1 1342 5 discriminator 2 view .LVU296
 826              		.loc 1 1342 33 is_stmt 0 discriminator 2 view .LVU297
 827 0002 0022     		movs	r2, #0
 828 0004 0260     		str	r2, [r0]
1343:lvgl/src/core/lv_refr.c ****     _mem_monitor->mem_label = NULL;
 829              		.loc 1 1343 5 is_stmt 1 discriminator 2 view .LVU298
 830              		.loc 1 1343 29 is_stmt 0 discriminator 2 view .LVU299
 831 0006 4260     		str	r2, [r0, #4]
1344:lvgl/src/core/lv_refr.c **** }
 832              		.loc 1 1344 1 discriminator 2 view .LVU300
 833 0008 7047     		bx	lr
 834              	.L48:
1341:lvgl/src/core/lv_refr.c ****     _mem_monitor->mem_last_time = 0;
 835              		.loc 1 1341 5 is_stmt 1 discriminator 1 view .LVU301
1341:lvgl/src/core/lv_refr.c ****     _mem_monitor->mem_last_time = 0;
 836              		.loc 1 1341 5 discriminator 1 view .LVU302
1341:lvgl/src/core/lv_refr.c ****     _mem_monitor->mem_last_time = 0;
 837              		.loc 1 1341 5 discriminator 1 view .LVU303
1341:lvgl/src/core/lv_refr.c ****     _mem_monitor->mem_last_time = 0;
 838              		.loc 1 1341 5 discriminator 1 view .LVU304
1341:lvgl/src/core/lv_refr.c ****     _mem_monitor->mem_last_time = 0;
 839              		.loc 1 1341 5 discriminator 1 view .LVU305
1341:lvgl/src/core/lv_refr.c ****     _mem_monitor->mem_last_time = 0;
 840              		.loc 1 1341 5 discriminator 1 view .LVU306
 841 000a FEE7     		b	.L48
 842              		.cfi_endproc
 843              	.LFE195:
 845              		.section	.text.lv_refr_get_top_obj,"ax",%progbits
 846              		.align	1
 847              		.syntax unified
 848              		.thumb
 849              		.thumb_func
 851              	lv_refr_get_top_obj:
 852              	.LVL72:
 853              	.LFB181:
 806:lvgl/src/core/lv_refr.c ****     lv_obj_t * found_p = NULL;
 854              		.loc 1 806 1 view -0
 855              		.cfi_startproc
 856              		@ args = 0, pretend = 0, frame = 8
 857              		@ frame_needed = 0, uses_anonymous_args = 0
 806:lvgl/src/core/lv_refr.c ****     lv_obj_t * found_p = NULL;
 858              		.loc 1 806 1 is_stmt 0 view .LVU308
 859 0000 70B5     		push	{r4, r5, r6, lr}
 860              		.cfi_def_cfa_offset 16
 861              		.cfi_offset 4, -16
 862              		.cfi_offset 5, -12
 863              		.cfi_offset 6, -8
 864              		.cfi_offset 14, -4
 865 0002 82B0     		sub	sp, sp, #8
ARM GAS  C:\Users\OSD\AppData\Local\Temp\cceLTvBX.s 			page 44


 866              		.cfi_def_cfa_offset 24
 867 0004 0646     		mov	r6, r0
 868 0006 0C46     		mov	r4, r1
 807:lvgl/src/core/lv_refr.c **** 
 869              		.loc 1 807 5 is_stmt 1 view .LVU309
 870              	.LVL73:
 809:lvgl/src/core/lv_refr.c ****     if(lv_obj_has_flag(obj, LV_OBJ_FLAG_HIDDEN)) return NULL;
 871              		.loc 1 809 5 view .LVU310
 809:lvgl/src/core/lv_refr.c ****     if(lv_obj_has_flag(obj, LV_OBJ_FLAG_HIDDEN)) return NULL;
 872              		.loc 1 809 8 is_stmt 0 view .LVU311
 873 0008 0022     		movs	r2, #0
 874 000a 1431     		adds	r1, r1, #20
 875              	.LVL74:
 809:lvgl/src/core/lv_refr.c ****     if(lv_obj_has_flag(obj, LV_OBJ_FLAG_HIDDEN)) return NULL;
 876              		.loc 1 809 8 view .LVU312
 877 000c FFF7FEFF 		bl	_lv_area_is_in
 878              	.LVL75:
 809:lvgl/src/core/lv_refr.c ****     if(lv_obj_has_flag(obj, LV_OBJ_FLAG_HIDDEN)) return NULL;
 879              		.loc 1 809 7 view .LVU313
 880 0010 68B3     		cbz	r0, .L54
 810:lvgl/src/core/lv_refr.c ****     if(_lv_obj_get_layer_type(obj) != LV_LAYER_TYPE_NONE) return NULL;
 881              		.loc 1 810 5 is_stmt 1 view .LVU314
 810:lvgl/src/core/lv_refr.c ****     if(_lv_obj_get_layer_type(obj) != LV_LAYER_TYPE_NONE) return NULL;
 882              		.loc 1 810 8 is_stmt 0 view .LVU315
 883 0012 0121     		movs	r1, #1
 884 0014 2046     		mov	r0, r4
 885 0016 FFF7FEFF 		bl	lv_obj_has_flag
 886              	.LVL76:
 810:lvgl/src/core/lv_refr.c ****     if(_lv_obj_get_layer_type(obj) != LV_LAYER_TYPE_NONE) return NULL;
 887              		.loc 1 810 7 view .LVU316
 888 001a 60BB     		cbnz	r0, .L55
 811:lvgl/src/core/lv_refr.c **** 
 889              		.loc 1 811 5 is_stmt 1 view .LVU317
 811:lvgl/src/core/lv_refr.c **** 
 890              		.loc 1 811 8 is_stmt 0 view .LVU318
 891 001c 2046     		mov	r0, r4
 892 001e FFF7FEFF 		bl	_lv_obj_get_layer_type
 893              	.LVL77:
 811:lvgl/src/core/lv_refr.c **** 
 894              		.loc 1 811 7 view .LVU319
 895 0022 50BB     		cbnz	r0, .L56
 814:lvgl/src/core/lv_refr.c ****     info.res = LV_COVER_RES_COVER;
 896              		.loc 1 814 5 is_stmt 1 view .LVU320
 815:lvgl/src/core/lv_refr.c ****     info.area = area_p;
 897              		.loc 1 815 5 view .LVU321
 815:lvgl/src/core/lv_refr.c ****     info.area = area_p;
 898              		.loc 1 815 14 is_stmt 0 view .LVU322
 899 0024 0023     		movs	r3, #0
 900 0026 8DF80030 		strb	r3, [sp]
 816:lvgl/src/core/lv_refr.c ****     lv_event_send(obj, LV_EVENT_COVER_CHECK, &info);
 901              		.loc 1 816 5 is_stmt 1 view .LVU323
 816:lvgl/src/core/lv_refr.c ****     lv_event_send(obj, LV_EVENT_COVER_CHECK, &info);
 902              		.loc 1 816 15 is_stmt 0 view .LVU324
 903 002a 0196     		str	r6, [sp, #4]
 817:lvgl/src/core/lv_refr.c ****     if(info.res == LV_COVER_RES_MASKED) return NULL;
 904              		.loc 1 817 5 is_stmt 1 view .LVU325
 905 002c 6A46     		mov	r2, sp
ARM GAS  C:\Users\OSD\AppData\Local\Temp\cceLTvBX.s 			page 45


 906 002e 1221     		movs	r1, #18
 907 0030 2046     		mov	r0, r4
 908 0032 FFF7FEFF 		bl	lv_event_send
 909              	.LVL78:
 818:lvgl/src/core/lv_refr.c **** 
 910              		.loc 1 818 5 view .LVU326
 818:lvgl/src/core/lv_refr.c **** 
 911              		.loc 1 818 12 is_stmt 0 view .LVU327
 912 0036 9DF80030 		ldrb	r3, [sp]	@ zero_extendqisi2
 818:lvgl/src/core/lv_refr.c **** 
 913              		.loc 1 818 7 view .LVU328
 914 003a 022B     		cmp	r3, #2
 915 003c 1FD0     		beq	.L57
 820:lvgl/src/core/lv_refr.c ****     int32_t child_cnt = lv_obj_get_child_cnt(obj);
 916              		.loc 1 820 5 is_stmt 1 view .LVU329
 821:lvgl/src/core/lv_refr.c ****     for(i = child_cnt - 1; i >= 0; i--) {
 917              		.loc 1 821 5 view .LVU330
 821:lvgl/src/core/lv_refr.c ****     for(i = child_cnt - 1; i >= 0; i--) {
 918              		.loc 1 821 25 is_stmt 0 view .LVU331
 919 003e 2046     		mov	r0, r4
 920 0040 FFF7FEFF 		bl	lv_obj_get_child_cnt
 921              	.LVL79:
 822:lvgl/src/core/lv_refr.c ****         lv_obj_t * child = obj->spec_attr->children[i];
 922              		.loc 1 822 5 is_stmt 1 view .LVU332
 822:lvgl/src/core/lv_refr.c ****         lv_obj_t * child = obj->spec_attr->children[i];
 923              		.loc 1 822 11 is_stmt 0 view .LVU333
 924 0044 451E     		subs	r5, r0, #1
 925              	.LVL80:
 807:lvgl/src/core/lv_refr.c **** 
 926              		.loc 1 807 16 view .LVU334
 927 0046 0023     		movs	r3, #0
 928              	.LVL81:
 929              	.L51:
 822:lvgl/src/core/lv_refr.c ****         lv_obj_t * child = obj->spec_attr->children[i];
 930              		.loc 1 822 28 is_stmt 1 discriminator 1 view .LVU335
 822:lvgl/src/core/lv_refr.c ****         lv_obj_t * child = obj->spec_attr->children[i];
 931              		.loc 1 822 5 is_stmt 0 discriminator 1 view .LVU336
 932 0048 002D     		cmp	r5, #0
 933 004a 0ADB     		blt	.L52
 934              	.LBB87:
 823:lvgl/src/core/lv_refr.c ****         found_p = lv_refr_get_top_obj(area_p, child);
 935              		.loc 1 823 9 is_stmt 1 view .LVU337
 823:lvgl/src/core/lv_refr.c ****         found_p = lv_refr_get_top_obj(area_p, child);
 936              		.loc 1 823 31 is_stmt 0 view .LVU338
 937 004c A368     		ldr	r3, [r4, #8]
 938              	.LVL82:
 823:lvgl/src/core/lv_refr.c ****         found_p = lv_refr_get_top_obj(area_p, child);
 939              		.loc 1 823 42 view .LVU339
 940 004e 1B68     		ldr	r3, [r3]
 941              	.LVL83:
 824:lvgl/src/core/lv_refr.c **** 
 942              		.loc 1 824 9 is_stmt 1 view .LVU340
 824:lvgl/src/core/lv_refr.c **** 
 943              		.loc 1 824 19 is_stmt 0 view .LVU341
 944 0050 53F82510 		ldr	r1, [r3, r5, lsl #2]
 945 0054 3046     		mov	r0, r6
 946 0056 FFF7D3FF 		bl	lv_refr_get_top_obj
ARM GAS  C:\Users\OSD\AppData\Local\Temp\cceLTvBX.s 			page 46


 947              	.LVL84:
 827:lvgl/src/core/lv_refr.c ****             break;
 948              		.loc 1 827 9 is_stmt 1 view .LVU342
 827:lvgl/src/core/lv_refr.c ****             break;
 949              		.loc 1 827 11 is_stmt 0 view .LVU343
 950 005a 0346     		mov	r3, r0
 951 005c 08B9     		cbnz	r0, .L52
 952              	.LBE87:
 822:lvgl/src/core/lv_refr.c ****         lv_obj_t * child = obj->spec_attr->children[i];
 953              		.loc 1 822 36 is_stmt 1 discriminator 2 view .LVU344
 822:lvgl/src/core/lv_refr.c ****         lv_obj_t * child = obj->spec_attr->children[i];
 954              		.loc 1 822 37 is_stmt 0 discriminator 2 view .LVU345
 955 005e 013D     		subs	r5, r5, #1
 956              	.LVL85:
 822:lvgl/src/core/lv_refr.c ****         lv_obj_t * child = obj->spec_attr->children[i];
 957              		.loc 1 822 37 discriminator 2 view .LVU346
 958 0060 F2E7     		b	.L51
 959              	.LVL86:
 960              	.L52:
 833:lvgl/src/core/lv_refr.c ****         found_p = obj;
 961              		.loc 1 833 5 is_stmt 1 view .LVU347
 833:lvgl/src/core/lv_refr.c ****         found_p = obj;
 962              		.loc 1 833 7 is_stmt 0 view .LVU348
 963 0062 2BB9     		cbnz	r3, .L49
 833:lvgl/src/core/lv_refr.c ****         found_p = obj;
 964              		.loc 1 833 31 discriminator 1 view .LVU349
 965 0064 9DF80020 		ldrb	r2, [sp]	@ zero_extendqisi2
 833:lvgl/src/core/lv_refr.c ****         found_p = obj;
 966              		.loc 1 833 24 discriminator 1 view .LVU350
 967 0068 12B9     		cbnz	r2, .L49
 834:lvgl/src/core/lv_refr.c ****     }
 968              		.loc 1 834 17 view .LVU351
 969 006a 2346     		mov	r3, r4
 970              	.LVL87:
 834:lvgl/src/core/lv_refr.c ****     }
 971              		.loc 1 834 17 view .LVU352
 972 006c 00E0     		b	.L49
 973              	.LVL88:
 974              	.L54:
 809:lvgl/src/core/lv_refr.c ****     if(lv_obj_has_flag(obj, LV_OBJ_FLAG_HIDDEN)) return NULL;
 975              		.loc 1 809 65 view .LVU353
 976 006e 0023     		movs	r3, #0
 977              	.LVL89:
 978              	.L49:
 838:lvgl/src/core/lv_refr.c **** 
 979              		.loc 1 838 1 view .LVU354
 980 0070 1846     		mov	r0, r3
 981 0072 02B0     		add	sp, sp, #8
 982              		.cfi_remember_state
 983              		.cfi_def_cfa_offset 16
 984              		@ sp needed
 985 0074 70BD     		pop	{r4, r5, r6, pc}
 986              	.LVL90:
 987              	.L55:
 988              		.cfi_restore_state
 810:lvgl/src/core/lv_refr.c ****     if(_lv_obj_get_layer_type(obj) != LV_LAYER_TYPE_NONE) return NULL;
 989              		.loc 1 810 57 view .LVU355
ARM GAS  C:\Users\OSD\AppData\Local\Temp\cceLTvBX.s 			page 47


 990 0076 0023     		movs	r3, #0
 991 0078 FAE7     		b	.L49
 992              	.L56:
 811:lvgl/src/core/lv_refr.c **** 
 993              		.loc 1 811 66 view .LVU356
 994 007a 0023     		movs	r3, #0
 995 007c F8E7     		b	.L49
 996              	.L57:
 818:lvgl/src/core/lv_refr.c **** 
 997              		.loc 1 818 48 view .LVU357
 998 007e 0023     		movs	r3, #0
 999 0080 F6E7     		b	.L49
 1000              		.cfi_endproc
 1001              	.LFE181:
 1003              		.section	.text.layer_get_area,"ax",%progbits
 1004              		.align	1
 1005              		.syntax unified
 1006              		.thumb
 1007              		.thumb_func
 1009              	layer_get_area:
 1010              	.LVL91:
 1011              	.LFB183:
 893:lvgl/src/core/lv_refr.c ****     lv_coord_t ext_draw_size = _lv_obj_get_ext_draw_size(obj);
 1012              		.loc 1 893 1 is_stmt 1 view -0
 1013              		.cfi_startproc
 1014              		@ args = 0, pretend = 0, frame = 32
 1015              		@ frame_needed = 0, uses_anonymous_args = 0
 893:lvgl/src/core/lv_refr.c ****     lv_coord_t ext_draw_size = _lv_obj_get_ext_draw_size(obj);
 1016              		.loc 1 893 1 is_stmt 0 view .LVU359
 1017 0000 2DE9F041 		push	{r4, r5, r6, r7, r8, lr}
 1018              		.cfi_def_cfa_offset 24
 1019              		.cfi_offset 4, -24
 1020              		.cfi_offset 5, -20
 1021              		.cfi_offset 6, -16
 1022              		.cfi_offset 7, -12
 1023              		.cfi_offset 8, -8
 1024              		.cfi_offset 14, -4
 1025 0004 88B0     		sub	sp, sp, #32
 1026              		.cfi_def_cfa_offset 56
 1027 0006 8046     		mov	r8, r0
 1028 0008 0E46     		mov	r6, r1
 1029 000a 1446     		mov	r4, r2
 1030 000c 1F46     		mov	r7, r3
 894:lvgl/src/core/lv_refr.c ****     lv_area_t obj_coords_ext;
 1031              		.loc 1 894 5 is_stmt 1 view .LVU360
 894:lvgl/src/core/lv_refr.c ****     lv_area_t obj_coords_ext;
 1032              		.loc 1 894 32 is_stmt 0 view .LVU361
 1033 000e 0846     		mov	r0, r1
 1034              	.LVL92:
 894:lvgl/src/core/lv_refr.c ****     lv_area_t obj_coords_ext;
 1035              		.loc 1 894 32 view .LVU362
 1036 0010 FFF7FEFF 		bl	_lv_obj_get_ext_draw_size
 1037              	.LVL93:
 894:lvgl/src/core/lv_refr.c ****     lv_area_t obj_coords_ext;
 1038              		.loc 1 894 32 view .LVU363
 1039 0014 0546     		mov	r5, r0
 1040              	.LVL94:
ARM GAS  C:\Users\OSD\AppData\Local\Temp\cceLTvBX.s 			page 48


 895:lvgl/src/core/lv_refr.c ****     lv_obj_get_coords(obj, &obj_coords_ext);
 1041              		.loc 1 895 5 is_stmt 1 view .LVU364
 896:lvgl/src/core/lv_refr.c ****     lv_area_increase(&obj_coords_ext, ext_draw_size, ext_draw_size);
 1042              		.loc 1 896 5 view .LVU365
 1043 0016 06A9     		add	r1, sp, #24
 1044 0018 3046     		mov	r0, r6
 1045 001a FFF7FEFF 		bl	lv_obj_get_coords
 1046              	.LVL95:
 897:lvgl/src/core/lv_refr.c **** 
 1047              		.loc 1 897 5 view .LVU366
 1048 001e 2A46     		mov	r2, r5
 1049 0020 2946     		mov	r1, r5
 1050 0022 06A8     		add	r0, sp, #24
 1051 0024 FFF7FEFF 		bl	lv_area_increase
 1052              	.LVL96:
 899:lvgl/src/core/lv_refr.c ****         /*Get the transformed area and clip it to the current clip area.
 1053              		.loc 1 899 5 view .LVU367
 899:lvgl/src/core/lv_refr.c ****         /*Get the transformed area and clip it to the current clip area.
 1054              		.loc 1 899 7 is_stmt 0 view .LVU368
 1055 0028 022C     		cmp	r4, #2
 1056 002a 05D0     		beq	.L67
 920:lvgl/src/core/lv_refr.c ****         lv_area_t clip_coords_for_obj;
 1057              		.loc 1 920 10 is_stmt 1 view .LVU369
 920:lvgl/src/core/lv_refr.c ****         lv_area_t clip_coords_for_obj;
 1058              		.loc 1 920 12 is_stmt 0 view .LVU370
 1059 002c 012C     		cmp	r4, #1
 1060 002e 31D0     		beq	.L68
 929:lvgl/src/core/lv_refr.c ****     }
 1061              		.loc 1 929 16 view .LVU371
 1062 0030 0020     		movs	r0, #0
 1063              	.L63:
 933:lvgl/src/core/lv_refr.c **** 
 1064              		.loc 1 933 1 view .LVU372
 1065 0032 08B0     		add	sp, sp, #32
 1066              		.cfi_remember_state
 1067              		.cfi_def_cfa_offset 24
 1068              		@ sp needed
 1069 0034 BDE8F081 		pop	{r4, r5, r6, r7, r8, pc}
 1070              	.LVL97:
 1071              	.L67:
 1072              		.cfi_restore_state
 1073              	.LBB88:
 902:lvgl/src/core/lv_refr.c ****         lv_area_t tranf_coords = obj_coords_ext;
 1074              		.loc 1 902 9 is_stmt 1 view .LVU373
 903:lvgl/src/core/lv_refr.c ****         lv_obj_get_transformed_area(obj, &tranf_coords, false, false);
 1075              		.loc 1 903 9 view .LVU374
 903:lvgl/src/core/lv_refr.c ****         lv_obj_get_transformed_area(obj, &tranf_coords, false, false);
 1076              		.loc 1 903 19 is_stmt 0 view .LVU375
 1077 0038 02AC     		add	r4, sp, #8
 1078 003a 08AB     		add	r3, sp, #32
 1079 003c 13E90300 		ldmdb	r3, {r0, r1}
 1080 0040 84E80300 		stm	r4, {r0, r1}
 904:lvgl/src/core/lv_refr.c ****         if(!_lv_area_intersect(&clip_coords_for_obj, draw_ctx->clip_area, &tranf_coords)) {
 1081              		.loc 1 904 9 is_stmt 1 view .LVU376
 1082 0044 0023     		movs	r3, #0
 1083 0046 1A46     		mov	r2, r3
 1084 0048 2146     		mov	r1, r4
ARM GAS  C:\Users\OSD\AppData\Local\Temp\cceLTvBX.s 			page 49


 1085 004a 3046     		mov	r0, r6
 1086 004c FFF7FEFF 		bl	lv_obj_get_transformed_area
 1087              	.LVL98:
 905:lvgl/src/core/lv_refr.c ****             return LV_RES_INV;
 1088              		.loc 1 905 9 view .LVU377
 905:lvgl/src/core/lv_refr.c ****             return LV_RES_INV;
 1089              		.loc 1 905 13 is_stmt 0 view .LVU378
 1090 0050 2246     		mov	r2, r4
 1091 0052 D8F80810 		ldr	r1, [r8, #8]
 1092 0056 6846     		mov	r0, sp
 1093 0058 FFF7FEFF 		bl	_lv_area_intersect
 1094              	.LVL99:
 905:lvgl/src/core/lv_refr.c ****             return LV_RES_INV;
 1095              		.loc 1 905 11 view .LVU379
 1096 005c 08B9     		cbnz	r0, .L69
 1097              	.L62:
 906:lvgl/src/core/lv_refr.c ****         }
 1098              		.loc 1 906 20 discriminator 1 view .LVU380
 1099 005e 0020     		movs	r0, #0
 1100 0060 E7E7     		b	.L63
 1101              	.L69:
 912:lvgl/src/core/lv_refr.c ****         lv_obj_get_transformed_area(obj, &inverse_clip_coords_for_obj, false, true);
 1102              		.loc 1 912 9 is_stmt 1 view .LVU381
 912:lvgl/src/core/lv_refr.c ****         lv_obj_get_transformed_area(obj, &inverse_clip_coords_for_obj, false, true);
 1103              		.loc 1 912 19 is_stmt 0 view .LVU382
 1104 0062 04AC     		add	r4, sp, #16
 1105 0064 6B46     		mov	r3, sp
 1106 0066 93E80300 		ldm	r3, {r0, r1}
 1107 006a 84E80300 		stm	r4, {r0, r1}
 913:lvgl/src/core/lv_refr.c ****         if(!_lv_area_intersect(&inverse_clip_coords_for_obj, &inverse_clip_coords_for_obj, &obj_coo
 1108              		.loc 1 913 9 is_stmt 1 view .LVU383
 1109 006e 0123     		movs	r3, #1
 1110 0070 0022     		movs	r2, #0
 1111 0072 2146     		mov	r1, r4
 1112 0074 3046     		mov	r0, r6
 1113 0076 FFF7FEFF 		bl	lv_obj_get_transformed_area
 1114              	.LVL100:
 914:lvgl/src/core/lv_refr.c ****             return LV_RES_INV;
 1115              		.loc 1 914 9 view .LVU384
 914:lvgl/src/core/lv_refr.c ****             return LV_RES_INV;
 1116              		.loc 1 914 13 is_stmt 0 view .LVU385
 1117 007a 06AA     		add	r2, sp, #24
 1118 007c 2146     		mov	r1, r4
 1119 007e 2046     		mov	r0, r4
 1120 0080 FFF7FEFF 		bl	_lv_area_intersect
 1121              	.LVL101:
 914:lvgl/src/core/lv_refr.c ****             return LV_RES_INV;
 1122              		.loc 1 914 11 view .LVU386
 1123 0084 0028     		cmp	r0, #0
 1124 0086 EAD0     		beq	.L62
 918:lvgl/src/core/lv_refr.c ****     }
 1125              		.loc 1 918 9 is_stmt 1 view .LVU387
 918:lvgl/src/core/lv_refr.c ****     }
 1126              		.loc 1 918 25 is_stmt 0 view .LVU388
 1127 0088 2346     		mov	r3, r4
 1128 008a 03CB     		ldmia	r3!, {r0, r1}
 1129 008c 3860     		str	r0, [r7]	@ unaligned
ARM GAS  C:\Users\OSD\AppData\Local\Temp\cceLTvBX.s 			page 50


 1130 008e 7960     		str	r1, [r7, #4]	@ unaligned
 1131              	.LBE88:
 932:lvgl/src/core/lv_refr.c **** }
 1132              		.loc 1 932 12 view .LVU389
 1133 0090 0120     		movs	r0, #1
 1134 0092 CEE7     		b	.L63
 1135              	.L68:
 1136              	.LBB89:
 921:lvgl/src/core/lv_refr.c ****         if(!_lv_area_intersect(&clip_coords_for_obj, draw_ctx->clip_area, &obj_coords_ext)) {
 1137              		.loc 1 921 9 is_stmt 1 view .LVU390
 922:lvgl/src/core/lv_refr.c ****             return LV_RES_INV;
 1138              		.loc 1 922 9 view .LVU391
 922:lvgl/src/core/lv_refr.c ****             return LV_RES_INV;
 1139              		.loc 1 922 13 is_stmt 0 view .LVU392
 1140 0094 06AA     		add	r2, sp, #24
 1141 0096 D8F80810 		ldr	r1, [r8, #8]
 1142 009a 04A8     		add	r0, sp, #16
 1143 009c FFF7FEFF 		bl	_lv_area_intersect
 1144              	.LVL102:
 922:lvgl/src/core/lv_refr.c ****             return LV_RES_INV;
 1145              		.loc 1 922 11 view .LVU393
 1146 00a0 0028     		cmp	r0, #0
 1147 00a2 C6D0     		beq	.L63
 925:lvgl/src/core/lv_refr.c ****     }
 1148              		.loc 1 925 9 is_stmt 1 view .LVU394
 925:lvgl/src/core/lv_refr.c ****     }
 1149              		.loc 1 925 25 is_stmt 0 view .LVU395
 1150 00a4 04AB     		add	r3, sp, #16
 1151 00a6 03CB     		ldmia	r3!, {r0, r1}
 1152 00a8 3860     		str	r0, [r7]	@ unaligned
 1153 00aa 7960     		str	r1, [r7, #4]	@ unaligned
 1154              	.LBE89:
 932:lvgl/src/core/lv_refr.c **** }
 1155              		.loc 1 932 12 view .LVU396
 1156 00ac 2046     		mov	r0, r4
 1157 00ae C0E7     		b	.L63
 1158              		.cfi_endproc
 1159              	.LFE183:
 1161              		.section	.text.layer_alpha_test,"ax",%progbits
 1162              		.align	1
 1163              		.syntax unified
 1164              		.thumb
 1165              		.thumb_func
 1167              	layer_alpha_test:
 1168              	.LVL103:
 1169              	.LFB184:
 937:lvgl/src/core/lv_refr.c ****     bool has_alpha;
 1170              		.loc 1 937 1 is_stmt 1 view -0
 1171              		.cfi_startproc
 1172              		@ args = 0, pretend = 0, frame = 8
 1173              		@ frame_needed = 0, uses_anonymous_args = 0
 937:lvgl/src/core/lv_refr.c ****     bool has_alpha;
 1174              		.loc 1 937 1 is_stmt 0 view .LVU398
 1175 0000 F0B5     		push	{r4, r5, r6, r7, lr}
 1176              		.cfi_def_cfa_offset 20
 1177              		.cfi_offset 4, -20
 1178              		.cfi_offset 5, -16
ARM GAS  C:\Users\OSD\AppData\Local\Temp\cceLTvBX.s 			page 51


 1179              		.cfi_offset 6, -12
 1180              		.cfi_offset 7, -8
 1181              		.cfi_offset 14, -4
 1182 0002 83B0     		sub	sp, sp, #12
 1183              		.cfi_def_cfa_offset 32
 1184 0004 0D46     		mov	r5, r1
 1185 0006 1446     		mov	r4, r2
 938:lvgl/src/core/lv_refr.c ****     /*If globally the layer has alpha maybe this smaller section has not (e.g. not on a rounded cor
 1186              		.loc 1 938 5 is_stmt 1 view .LVU399
 941:lvgl/src/core/lv_refr.c ****         /*Test for alpha by assuming there is no alpha. If it fails, fall back to rendering with al
 1187              		.loc 1 941 5 view .LVU400
 941:lvgl/src/core/lv_refr.c ****         /*Test for alpha by assuming there is no alpha. If it fails, fall back to rendering with al
 1188              		.loc 1 941 7 is_stmt 0 view .LVU401
 1189 0008 13F0010F 		tst	r3, #1
 1190 000c 0DD1     		bne	.L77
 957:lvgl/src/core/lv_refr.c ****     }
 1191              		.loc 1 957 19 view .LVU402
 1192 000e 0022     		movs	r2, #0
 1193              	.LVL104:
 1194              	.L71:
 960:lvgl/src/core/lv_refr.c ****     lv_draw_layer_adjust(draw_ctx, layer_ctx, has_alpha ? LV_DRAW_LAYER_FLAG_HAS_ALPHA : LV_DRAW_LA
 1195              		.loc 1 960 5 is_stmt 1 view .LVU403
 960:lvgl/src/core/lv_refr.c ****     lv_draw_layer_adjust(draw_ctx, layer_ctx, has_alpha ? LV_DRAW_LAYER_FLAG_HAS_ALPHA : LV_DRAW_LA
 1196              		.loc 1 960 27 is_stmt 0 view .LVU404
 1197 0010 B4F90E10 		ldrsh	r1, [r4, #14]
 960:lvgl/src/core/lv_refr.c ****     lv_draw_layer_adjust(draw_ctx, layer_ctx, has_alpha ? LV_DRAW_LAYER_FLAG_HAS_ALPHA : LV_DRAW_LA
 1198              		.loc 1 960 53 view .LVU405
 1199 0014 B4F90630 		ldrsh	r3, [r4, #6]
 960:lvgl/src/core/lv_refr.c ****     lv_draw_layer_adjust(draw_ctx, layer_ctx, has_alpha ? LV_DRAW_LAYER_FLAG_HAS_ALPHA : LV_DRAW_LA
 1200              		.loc 1 960 7 view .LVU406
 1201 0018 9942     		cmp	r1, r3
 1202 001a 00DD     		ble	.L74
 960:lvgl/src/core/lv_refr.c ****     lv_draw_layer_adjust(draw_ctx, layer_ctx, has_alpha ? LV_DRAW_LAYER_FLAG_HAS_ALPHA : LV_DRAW_LA
 1203              		.loc 1 960 58 is_stmt 1 discriminator 1 view .LVU407
 960:lvgl/src/core/lv_refr.c ****     lv_draw_layer_adjust(draw_ctx, layer_ctx, has_alpha ? LV_DRAW_LAYER_FLAG_HAS_ALPHA : LV_DRAW_LA
 1204              		.loc 1 960 81 is_stmt 0 discriminator 1 view .LVU408
 1205 001c E381     		strh	r3, [r4, #14]	@ movhi
 1206              	.L74:
 961:lvgl/src/core/lv_refr.c **** }
 1207              		.loc 1 961 5 is_stmt 1 view .LVU409
 1208 001e 2146     		mov	r1, r4
 1209 0020 2846     		mov	r0, r5
 1210 0022 FFF7FEFF 		bl	lv_draw_layer_adjust
 1211              	.LVL105:
 962:lvgl/src/core/lv_refr.c **** 
 1212              		.loc 1 962 1 is_stmt 0 view .LVU410
 1213 0026 03B0     		add	sp, sp, #12
 1214              		.cfi_remember_state
 1215              		.cfi_def_cfa_offset 20
 1216              		@ sp needed
 1217 0028 F0BD     		pop	{r4, r5, r6, r7, pc}
 1218              	.LVL106:
 1219              	.L77:
 1220              		.cfi_restore_state
 962:lvgl/src/core/lv_refr.c **** 
 1221              		.loc 1 962 1 view .LVU411
 1222 002a 0646     		mov	r6, r0
ARM GAS  C:\Users\OSD\AppData\Local\Temp\cceLTvBX.s 			page 52


 943:lvgl/src/core/lv_refr.c ****         if(_lv_area_is_in(&layer_ctx->area_act, &obj->coords, 0)) {
 1223              		.loc 1 943 9 is_stmt 1 view .LVU412
 1224              	.LVL107:
 944:lvgl/src/core/lv_refr.c ****             lv_cover_check_info_t info;
 1225              		.loc 1 944 9 view .LVU413
 944:lvgl/src/core/lv_refr.c ****             lv_cover_check_info_t info;
 1226              		.loc 1 944 27 is_stmt 0 view .LVU414
 1227 002c 02F10807 		add	r7, r2, #8
 944:lvgl/src/core/lv_refr.c ****             lv_cover_check_info_t info;
 1228              		.loc 1 944 12 view .LVU415
 1229 0030 0022     		movs	r2, #0
 1230              	.LVL108:
 944:lvgl/src/core/lv_refr.c ****             lv_cover_check_info_t info;
 1231              		.loc 1 944 12 view .LVU416
 1232 0032 00F11401 		add	r1, r0, #20
 1233              	.LVL109:
 944:lvgl/src/core/lv_refr.c ****             lv_cover_check_info_t info;
 1234              		.loc 1 944 12 view .LVU417
 1235 0036 3846     		mov	r0, r7
 1236              	.LVL110:
 944:lvgl/src/core/lv_refr.c ****             lv_cover_check_info_t info;
 1237              		.loc 1 944 12 view .LVU418
 1238 0038 FFF7FEFF 		bl	_lv_area_is_in
 1239              	.LVL111:
 944:lvgl/src/core/lv_refr.c ****             lv_cover_check_info_t info;
 1240              		.loc 1 944 11 view .LVU419
 1241 003c 38B9     		cbnz	r0, .L78
 1242              	.L72:
 1243              	.LVL112:
 953:lvgl/src/core/lv_refr.c ****         }
 1244              		.loc 1 953 13 is_stmt 1 view .LVU420
 953:lvgl/src/core/lv_refr.c ****         }
 1245              		.loc 1 953 57 is_stmt 0 view .LVU421
 1246 003e 6389     		ldrh	r3, [r4, #10]
 953:lvgl/src/core/lv_refr.c ****         }
 1247              		.loc 1 953 72 view .LVU422
 1248 0040 228A     		ldrh	r2, [r4, #16]
 953:lvgl/src/core/lv_refr.c ****         }
 1249              		.loc 1 953 61 view .LVU423
 1250 0042 1344     		add	r3, r3, r2
 1251 0044 9BB2     		uxth	r3, r3
 953:lvgl/src/core/lv_refr.c ****         }
 1252              		.loc 1 953 93 view .LVU424
 1253 0046 013B     		subs	r3, r3, #1
 953:lvgl/src/core/lv_refr.c ****         }
 1254              		.loc 1 953 36 view .LVU425
 1255 0048 E381     		strh	r3, [r4, #14]	@ movhi
 1256 004a 0122     		movs	r2, #1
 1257 004c E0E7     		b	.L71
 1258              	.LVL113:
 1259              	.L78:
 1260              	.LBB90:
 945:lvgl/src/core/lv_refr.c ****             info.res = LV_COVER_RES_COVER;
 1261              		.loc 1 945 13 is_stmt 1 view .LVU426
 946:lvgl/src/core/lv_refr.c ****             info.area = &layer_ctx->area_act;
 1262              		.loc 1 946 13 view .LVU427
 946:lvgl/src/core/lv_refr.c ****             info.area = &layer_ctx->area_act;
ARM GAS  C:\Users\OSD\AppData\Local\Temp\cceLTvBX.s 			page 53


 1263              		.loc 1 946 22 is_stmt 0 view .LVU428
 1264 004e 0023     		movs	r3, #0
 1265 0050 8DF80030 		strb	r3, [sp]
 947:lvgl/src/core/lv_refr.c ****             lv_event_send(obj, LV_EVENT_COVER_CHECK, &info);
 1266              		.loc 1 947 13 is_stmt 1 view .LVU429
 947:lvgl/src/core/lv_refr.c ****             lv_event_send(obj, LV_EVENT_COVER_CHECK, &info);
 1267              		.loc 1 947 23 is_stmt 0 view .LVU430
 1268 0054 0197     		str	r7, [sp, #4]
 948:lvgl/src/core/lv_refr.c ****             if(info.res == LV_COVER_RES_COVER) has_alpha = false;
 1269              		.loc 1 948 13 is_stmt 1 view .LVU431
 1270 0056 6A46     		mov	r2, sp
 1271 0058 1221     		movs	r1, #18
 1272 005a 3046     		mov	r0, r6
 1273 005c FFF7FEFF 		bl	lv_event_send
 1274              	.LVL114:
 949:lvgl/src/core/lv_refr.c ****         }
 1275              		.loc 1 949 13 view .LVU432
 949:lvgl/src/core/lv_refr.c ****         }
 1276              		.loc 1 949 20 is_stmt 0 view .LVU433
 1277 0060 9DF80030 		ldrb	r3, [sp]	@ zero_extendqisi2
 949:lvgl/src/core/lv_refr.c ****         }
 1278              		.loc 1 949 15 view .LVU434
 1279 0064 002B     		cmp	r3, #0
 1280 0066 EAD1     		bne	.L72
 949:lvgl/src/core/lv_refr.c ****         }
 1281              		.loc 1 949 48 is_stmt 1 view .LVU435
 1282              	.LVL115:
 949:lvgl/src/core/lv_refr.c ****         }
 1283              		.loc 1 949 48 is_stmt 0 view .LVU436
 1284              	.LBE90:
 952:lvgl/src/core/lv_refr.c ****             layer_ctx->area_act.y2 = layer_ctx->area_act.y1 + layer_ctx->max_row_with_alpha - 1;
 1285              		.loc 1 952 9 is_stmt 1 view .LVU437
 1286              	.LBB91:
 949:lvgl/src/core/lv_refr.c ****         }
 1287              		.loc 1 949 58 is_stmt 0 view .LVU438
 1288 0068 0022     		movs	r2, #0
 1289 006a D1E7     		b	.L71
 1290              	.LBE91:
 1291              		.cfi_endproc
 1292              	.LFE184:
 1294              		.section	.text.lv_refr_join_area,"ax",%progbits
 1295              		.align	1
 1296              		.syntax unified
 1297              		.thumb
 1298              		.thumb_func
 1300              	lv_refr_join_area:
 1301              	.LFB176:
 477:lvgl/src/core/lv_refr.c ****     uint32_t join_from;
 1302              		.loc 1 477 1 is_stmt 1 view -0
 1303              		.cfi_startproc
 1304              		@ args = 0, pretend = 0, frame = 8
 1305              		@ frame_needed = 0, uses_anonymous_args = 0
 1306 0000 2DE9F043 		push	{r4, r5, r6, r7, r8, r9, lr}
 1307              		.cfi_def_cfa_offset 28
 1308              		.cfi_offset 4, -28
 1309              		.cfi_offset 5, -24
 1310              		.cfi_offset 6, -20
ARM GAS  C:\Users\OSD\AppData\Local\Temp\cceLTvBX.s 			page 54


 1311              		.cfi_offset 7, -16
 1312              		.cfi_offset 8, -12
 1313              		.cfi_offset 9, -8
 1314              		.cfi_offset 14, -4
 1315 0004 83B0     		sub	sp, sp, #12
 1316              		.cfi_def_cfa_offset 40
 478:lvgl/src/core/lv_refr.c ****     uint32_t join_in;
 1317              		.loc 1 478 5 view .LVU440
 479:lvgl/src/core/lv_refr.c ****     lv_area_t joined_area;
 1318              		.loc 1 479 5 view .LVU441
 480:lvgl/src/core/lv_refr.c ****     for(join_in = 0; join_in < disp_refr->inv_p; join_in++) {
 1319              		.loc 1 480 5 view .LVU442
 481:lvgl/src/core/lv_refr.c ****         if(disp_refr->inv_area_joined[join_in] != 0) continue;
 1320              		.loc 1 481 5 view .LVU443
 1321              	.LVL116:
 481:lvgl/src/core/lv_refr.c ****         if(disp_refr->inv_area_joined[join_in] != 0) continue;
 1322              		.loc 1 481 17 is_stmt 0 view .LVU444
 1323 0006 0025     		movs	r5, #0
 481:lvgl/src/core/lv_refr.c ****         if(disp_refr->inv_area_joined[join_in] != 0) continue;
 1324              		.loc 1 481 5 view .LVU445
 1325 0008 51E0     		b	.L80
 1326              	.LVL117:
 1327              	.L83:
 485:lvgl/src/core/lv_refr.c ****             /*Handle only unjoined areas and ignore itself*/
 1328              		.loc 1 485 58 is_stmt 1 discriminator 2 view .LVU446
 485:lvgl/src/core/lv_refr.c ****             /*Handle only unjoined areas and ignore itself*/
 1329              		.loc 1 485 67 is_stmt 0 discriminator 2 view .LVU447
 1330 000a 0134     		adds	r4, r4, #1
 1331              	.LVL118:
 1332              	.L82:
 485:lvgl/src/core/lv_refr.c ****             /*Handle only unjoined areas and ignore itself*/
 1333              		.loc 1 485 28 is_stmt 1 discriminator 1 view .LVU448
 485:lvgl/src/core/lv_refr.c ****             /*Handle only unjoined areas and ignore itself*/
 1334              		.loc 1 485 49 is_stmt 0 discriminator 1 view .LVU449
 1335 000c 304B     		ldr	r3, .L88
 1336 000e 1968     		ldr	r1, [r3]
 1337 0010 B1F85431 		ldrh	r3, [r1, #340]
 485:lvgl/src/core/lv_refr.c ****             /*Handle only unjoined areas and ignore itself*/
 1338              		.loc 1 485 9 discriminator 1 view .LVU450
 1339 0014 A342     		cmp	r3, r4
 1340 0016 49D9     		bls	.L81
 487:lvgl/src/core/lv_refr.c ****                 continue;
 1341              		.loc 1 487 13 is_stmt 1 view .LVU451
 487:lvgl/src/core/lv_refr.c ****                 continue;
 1342              		.loc 1 487 42 is_stmt 0 view .LVU452
 1343 0018 0B19     		adds	r3, r1, r4
 1344 001a 93F83431 		ldrb	r3, [r3, #308]	@ zero_extendqisi2
 487:lvgl/src/core/lv_refr.c ****                 continue;
 1345              		.loc 1 487 15 view .LVU453
 1346 001e 002B     		cmp	r3, #0
 1347 0020 F3D1     		bne	.L83
 487:lvgl/src/core/lv_refr.c ****                 continue;
 1348              		.loc 1 487 59 discriminator 1 view .LVU454
 1349 0022 AC42     		cmp	r4, r5
 1350 0024 F1D0     		beq	.L83
 492:lvgl/src/core/lv_refr.c ****                 continue;
 1351              		.loc 1 492 13 is_stmt 1 view .LVU455
ARM GAS  C:\Users\OSD\AppData\Local\Temp\cceLTvBX.s 			page 55


 492:lvgl/src/core/lv_refr.c ****                 continue;
 1352              		.loc 1 492 31 is_stmt 0 view .LVU456
 1353 0026 A81D     		adds	r0, r5, #6
 1354 0028 01EBC000 		add	r0, r1, r0, lsl #3
 492:lvgl/src/core/lv_refr.c ****                 continue;
 1355              		.loc 1 492 63 view .LVU457
 1356 002c A31D     		adds	r3, r4, #6
 1357 002e 01EBC301 		add	r1, r1, r3, lsl #3
 492:lvgl/src/core/lv_refr.c ****                 continue;
 1358              		.loc 1 492 16 view .LVU458
 1359 0032 0431     		adds	r1, r1, #4
 1360 0034 0430     		adds	r0, r0, #4
 1361 0036 FFF7FEFF 		bl	_lv_area_is_on
 1362              	.LVL119:
 492:lvgl/src/core/lv_refr.c ****                 continue;
 1363              		.loc 1 492 15 view .LVU459
 1364 003a 0028     		cmp	r0, #0
 1365 003c E5D0     		beq	.L83
 496:lvgl/src/core/lv_refr.c **** 
 1366              		.loc 1 496 13 is_stmt 1 view .LVU460
 496:lvgl/src/core/lv_refr.c **** 
 1367              		.loc 1 496 51 is_stmt 0 view .LVU461
 1368 003e 244F     		ldr	r7, .L88
 1369 0040 3A68     		ldr	r2, [r7]
 496:lvgl/src/core/lv_refr.c **** 
 1370              		.loc 1 496 41 view .LVU462
 1371 0042 A91D     		adds	r1, r5, #6
 1372 0044 CE00     		lsls	r6, r1, #3
 1373 0046 02EBC101 		add	r1, r2, r1, lsl #3
 496:lvgl/src/core/lv_refr.c **** 
 1374              		.loc 1 496 73 view .LVU463
 1375 004a A31D     		adds	r3, r4, #6
 1376 004c 4FEAC308 		lsl	r8, r3, #3
 1377 0050 02EBC302 		add	r2, r2, r3, lsl #3
 496:lvgl/src/core/lv_refr.c **** 
 1378              		.loc 1 496 13 view .LVU464
 1379 0054 0432     		adds	r2, r2, #4
 1380 0056 0431     		adds	r1, r1, #4
 1381 0058 6846     		mov	r0, sp
 1382 005a FFF7FEFF 		bl	_lv_area_join
 1383              	.LVL120:
 499:lvgl/src/core/lv_refr.c ****                                                  lv_area_get_size(&disp_refr->inv_areas[join_from])
 1384              		.loc 1 499 13 is_stmt 1 view .LVU465
 499:lvgl/src/core/lv_refr.c ****                                                  lv_area_get_size(&disp_refr->inv_areas[join_from])
 1385              		.loc 1 499 16 is_stmt 0 view .LVU466
 1386 005e 6846     		mov	r0, sp
 1387 0060 FFF7FEFF 		bl	lv_area_get_size
 1388              	.LVL121:
 1389 0064 8146     		mov	r9, r0
 499:lvgl/src/core/lv_refr.c ****                                                  lv_area_get_size(&disp_refr->inv_areas[join_from])
 1390              		.loc 1 499 77 view .LVU467
 1391 0066 3868     		ldr	r0, [r7]
 499:lvgl/src/core/lv_refr.c ****                                                  lv_area_get_size(&disp_refr->inv_areas[join_from])
 1392              		.loc 1 499 67 view .LVU468
 1393 0068 3044     		add	r0, r0, r6
 499:lvgl/src/core/lv_refr.c ****                                                  lv_area_get_size(&disp_refr->inv_areas[join_from])
 1394              		.loc 1 499 50 view .LVU469
ARM GAS  C:\Users\OSD\AppData\Local\Temp\cceLTvBX.s 			page 56


 1395 006a 0430     		adds	r0, r0, #4
 1396 006c FFF7FEFF 		bl	lv_area_get_size
 1397              	.LVL122:
 1398 0070 0646     		mov	r6, r0
 500:lvgl/src/core/lv_refr.c ****                 lv_area_copy(&disp_refr->inv_areas[join_in], &joined_area);
 1399              		.loc 1 500 77 view .LVU470
 1400 0072 3868     		ldr	r0, [r7]
 500:lvgl/src/core/lv_refr.c ****                 lv_area_copy(&disp_refr->inv_areas[join_in], &joined_area);
 1401              		.loc 1 500 67 view .LVU471
 1402 0074 4044     		add	r0, r0, r8
 500:lvgl/src/core/lv_refr.c ****                 lv_area_copy(&disp_refr->inv_areas[join_in], &joined_area);
 1403              		.loc 1 500 50 view .LVU472
 1404 0076 0430     		adds	r0, r0, #4
 1405 0078 FFF7FEFF 		bl	lv_area_get_size
 1406              	.LVL123:
 499:lvgl/src/core/lv_refr.c ****                                                  lv_area_get_size(&disp_refr->inv_areas[join_from])
 1407              		.loc 1 499 99 view .LVU473
 1408 007c 0644     		add	r6, r6, r0
 499:lvgl/src/core/lv_refr.c ****                                                  lv_area_get_size(&disp_refr->inv_areas[join_from])
 1409              		.loc 1 499 15 view .LVU474
 1410 007e B145     		cmp	r9, r6
 1411 0080 C3D2     		bcs	.L83
 501:lvgl/src/core/lv_refr.c **** 
 1412              		.loc 1 501 17 is_stmt 1 view .LVU475
 501:lvgl/src/core/lv_refr.c **** 
 1413              		.loc 1 501 40 is_stmt 0 view .LVU476
 1414 0082 3A68     		ldr	r2, [r7]
 1415              	.LVL124:
 1416              	.LBB92:
 1417              	.LBI92:
 110:lvgl/src/core/../misc/../font/../misc/lv_area.h **** {
 1418              		.loc 2 110 20 is_stmt 1 view .LVU477
 1419              	.LBB93:
 112:lvgl/src/core/../misc/../font/../misc/lv_area.h ****     dest->y1 = src->y1;
 1420              		.loc 2 112 5 view .LVU478
 112:lvgl/src/core/../misc/../font/../misc/lv_area.h ****     dest->y1 = src->y1;
 1421              		.loc 2 112 19 is_stmt 0 view .LVU479
 1422 0084 BDF90010 		ldrsh	r1, [sp]
 112:lvgl/src/core/../misc/../font/../misc/lv_area.h ****     dest->y1 = src->y1;
 1423              		.loc 2 112 14 view .LVU480
 1424 0088 AB1D     		adds	r3, r5, #6
 1425 008a 02EBC303 		add	r3, r2, r3, lsl #3
 1426 008e 9980     		strh	r1, [r3, #4]	@ movhi
 113:lvgl/src/core/../misc/../font/../misc/lv_area.h ****     dest->x2 = src->x2;
 1427              		.loc 2 113 5 is_stmt 1 view .LVU481
 113:lvgl/src/core/../misc/../font/../misc/lv_area.h ****     dest->x2 = src->x2;
 1428              		.loc 2 113 19 is_stmt 0 view .LVU482
 1429 0090 BDF90210 		ldrsh	r1, [sp, #2]
 113:lvgl/src/core/../misc/../font/../misc/lv_area.h ****     dest->x2 = src->x2;
 1430              		.loc 2 113 14 view .LVU483
 1431 0094 D980     		strh	r1, [r3, #6]	@ movhi
 114:lvgl/src/core/../misc/../font/../misc/lv_area.h ****     dest->y2 = src->y2;
 1432              		.loc 2 114 5 is_stmt 1 view .LVU484
 114:lvgl/src/core/../misc/../font/../misc/lv_area.h ****     dest->y2 = src->y2;
 1433              		.loc 2 114 19 is_stmt 0 view .LVU485
 1434 0096 BDF90410 		ldrsh	r1, [sp, #4]
 114:lvgl/src/core/../misc/../font/../misc/lv_area.h ****     dest->y2 = src->y2;
ARM GAS  C:\Users\OSD\AppData\Local\Temp\cceLTvBX.s 			page 57


 1435              		.loc 2 114 14 view .LVU486
 1436 009a 1981     		strh	r1, [r3, #8]	@ movhi
 115:lvgl/src/core/../misc/../font/../misc/lv_area.h **** }
 1437              		.loc 2 115 5 is_stmt 1 view .LVU487
 115:lvgl/src/core/../misc/../font/../misc/lv_area.h **** }
 1438              		.loc 2 115 19 is_stmt 0 view .LVU488
 1439 009c BDF90610 		ldrsh	r1, [sp, #6]
 115:lvgl/src/core/../misc/../font/../misc/lv_area.h **** }
 1440              		.loc 2 115 14 view .LVU489
 1441 00a0 5981     		strh	r1, [r3, #10]	@ movhi
 1442              	.LVL125:
 115:lvgl/src/core/../misc/../font/../misc/lv_area.h **** }
 1443              		.loc 2 115 14 view .LVU490
 1444              	.LBE93:
 1445              	.LBE92:
 504:lvgl/src/core/lv_refr.c ****             }
 1446              		.loc 1 504 17 is_stmt 1 view .LVU491
 504:lvgl/src/core/lv_refr.c ****             }
 1447              		.loc 1 504 55 is_stmt 0 view .LVU492
 1448 00a2 2244     		add	r2, r2, r4
 1449 00a4 0123     		movs	r3, #1
 1450 00a6 82F83431 		strb	r3, [r2, #308]
 1451 00aa AEE7     		b	.L83
 1452              	.LVL126:
 1453              	.L81:
 481:lvgl/src/core/lv_refr.c ****         if(disp_refr->inv_area_joined[join_in] != 0) continue;
 1454              		.loc 1 481 50 is_stmt 1 discriminator 2 view .LVU493
 481:lvgl/src/core/lv_refr.c ****         if(disp_refr->inv_area_joined[join_in] != 0) continue;
 1455              		.loc 1 481 57 is_stmt 0 discriminator 2 view .LVU494
 1456 00ac 0135     		adds	r5, r5, #1
 1457              	.LVL127:
 1458              	.L80:
 481:lvgl/src/core/lv_refr.c ****         if(disp_refr->inv_area_joined[join_in] != 0) continue;
 1459              		.loc 1 481 22 is_stmt 1 discriminator 1 view .LVU495
 481:lvgl/src/core/lv_refr.c ****         if(disp_refr->inv_area_joined[join_in] != 0) continue;
 1460              		.loc 1 481 41 is_stmt 0 discriminator 1 view .LVU496
 1461 00ae 084B     		ldr	r3, .L88
 1462 00b0 1B68     		ldr	r3, [r3]
 1463 00b2 B3F85421 		ldrh	r2, [r3, #340]
 481:lvgl/src/core/lv_refr.c ****         if(disp_refr->inv_area_joined[join_in] != 0) continue;
 1464              		.loc 1 481 5 discriminator 1 view .LVU497
 1465 00b6 AA42     		cmp	r2, r5
 1466 00b8 06D9     		bls	.L87
 482:lvgl/src/core/lv_refr.c **** 
 1467              		.loc 1 482 9 is_stmt 1 view .LVU498
 482:lvgl/src/core/lv_refr.c **** 
 1468              		.loc 1 482 38 is_stmt 0 view .LVU499
 1469 00ba 2B44     		add	r3, r3, r5
 1470 00bc 93F83431 		ldrb	r3, [r3, #308]	@ zero_extendqisi2
 482:lvgl/src/core/lv_refr.c **** 
 1471              		.loc 1 482 11 view .LVU500
 1472 00c0 002B     		cmp	r3, #0
 1473 00c2 F3D1     		bne	.L81
 485:lvgl/src/core/lv_refr.c ****             /*Handle only unjoined areas and ignore itself*/
 1474              		.loc 1 485 23 view .LVU501
 1475 00c4 0024     		movs	r4, #0
 1476 00c6 A1E7     		b	.L82
ARM GAS  C:\Users\OSD\AppData\Local\Temp\cceLTvBX.s 			page 58


 1477              	.L87:
 508:lvgl/src/core/lv_refr.c **** 
 1478              		.loc 1 508 1 view .LVU502
 1479 00c8 03B0     		add	sp, sp, #12
 1480              		.cfi_def_cfa_offset 28
 1481              		@ sp needed
 1482 00ca BDE8F083 		pop	{r4, r5, r6, r7, r8, r9, pc}
 1483              	.LVL128:
 1484              	.L89:
 508:lvgl/src/core/lv_refr.c **** 
 1485              		.loc 1 508 1 view .LVU503
 1486 00ce 00BF     		.align	2
 1487              	.L88:
 1488 00d0 00000000 		.word	.LANCHOR0
 1489              		.cfi_endproc
 1490              	.LFE176:
 1492              		.section	.text.refr_sync_areas,"ax",%progbits
 1493              		.align	1
 1494              		.syntax unified
 1495              		.thumb
 1496              		.thumb_func
 1498              	refr_sync_areas:
 1499              	.LFB177:
 514:lvgl/src/core/lv_refr.c ****     /*Do not sync if not direct mode*/
 1500              		.loc 1 514 1 is_stmt 1 view -0
 1501              		.cfi_startproc
 1502              		@ args = 0, pretend = 0, frame = 32
 1503              		@ frame_needed = 0, uses_anonymous_args = 0
 516:lvgl/src/core/lv_refr.c **** 
 1504              		.loc 1 516 5 view .LVU505
 516:lvgl/src/core/lv_refr.c **** 
 1505              		.loc 1 516 18 is_stmt 0 view .LVU506
 1506 0000 4F4B     		ldr	r3, .L112
 1507 0002 1868     		ldr	r0, [r3]
 1508 0004 0368     		ldr	r3, [r0]
 516:lvgl/src/core/lv_refr.c **** 
 1509              		.loc 1 516 8 view .LVU507
 1510 0006 1A7C     		ldrb	r2, [r3, #16]	@ zero_extendqisi2
 516:lvgl/src/core/lv_refr.c **** 
 1511              		.loc 1 516 7 view .LVU508
 1512 0008 12F0010F 		tst	r2, #1
 1513 000c 00F09780 		beq	.L106
 519:lvgl/src/core/lv_refr.c **** 
 1514              		.loc 1 519 5 is_stmt 1 view .LVU509
 519:lvgl/src/core/lv_refr.c **** 
 1515              		.loc 1 519 25 is_stmt 0 view .LVU510
 1516 0010 DB68     		ldr	r3, [r3, #12]
 519:lvgl/src/core/lv_refr.c **** 
 1517              		.loc 1 519 35 view .LVU511
 1518 0012 5B68     		ldr	r3, [r3, #4]
 519:lvgl/src/core/lv_refr.c **** 
 1519              		.loc 1 519 7 view .LVU512
 1520 0014 002B     		cmp	r3, #0
 1521 0016 00F09280 		beq	.L106
 514:lvgl/src/core/lv_refr.c ****     /*Do not sync if not direct mode*/
 1522              		.loc 1 514 1 view .LVU513
 1523 001a 2DE9F04F 		push	{r4, r5, r6, r7, r8, r9, r10, fp, lr}
ARM GAS  C:\Users\OSD\AppData\Local\Temp\cceLTvBX.s 			page 59


 1524              		.cfi_def_cfa_offset 36
 1525              		.cfi_offset 4, -36
 1526              		.cfi_offset 5, -32
 1527              		.cfi_offset 6, -28
 1528              		.cfi_offset 7, -24
 1529              		.cfi_offset 8, -20
 1530              		.cfi_offset 9, -16
 1531              		.cfi_offset 10, -12
 1532              		.cfi_offset 11, -8
 1533              		.cfi_offset 14, -4
 1534 001e 8DB0     		sub	sp, sp, #52
 1535              		.cfi_def_cfa_offset 88
 522:lvgl/src/core/lv_refr.c **** 
 1536              		.loc 1 522 5 is_stmt 1 view .LVU514
 522:lvgl/src/core/lv_refr.c **** 
 1537              		.loc 1 522 8 is_stmt 0 view .LVU515
 1538 0020 00F5AE70 		add	r0, r0, #348
 1539 0024 FFF7FEFF 		bl	_lv_ll_is_empty
 1540              	.LVL129:
 522:lvgl/src/core/lv_refr.c **** 
 1541              		.loc 1 522 7 view .LVU516
 1542 0028 0028     		cmp	r0, #0
 1543 002a 40F08580 		bne	.L90
 526:lvgl/src/core/lv_refr.c ****     void * buf_on_screen = disp_refr->driver->draw_buf->buf_act == disp_refr->driver->draw_buf->buf
 1544              		.loc 1 526 5 is_stmt 1 view .LVU517
 526:lvgl/src/core/lv_refr.c ****     void * buf_on_screen = disp_refr->driver->draw_buf->buf_act == disp_refr->driver->draw_buf->buf
 1545              		.loc 1 526 38 is_stmt 0 view .LVU518
 1546 002e 444B     		ldr	r3, .L112
 1547 0030 1868     		ldr	r0, [r3]
 1548 0032 0368     		ldr	r3, [r0]
 526:lvgl/src/core/lv_refr.c ****     void * buf_on_screen = disp_refr->driver->draw_buf->buf_act == disp_refr->driver->draw_buf->buf
 1549              		.loc 1 526 46 view .LVU519
 1550 0034 DB68     		ldr	r3, [r3, #12]
 526:lvgl/src/core/lv_refr.c ****     void * buf_on_screen = disp_refr->driver->draw_buf->buf_act == disp_refr->driver->draw_buf->buf
 1551              		.loc 1 526 12 view .LVU520
 1552 0036 D3F808B0 		ldr	fp, [r3, #8]
 1553              	.LVL130:
 527:lvgl/src/core/lv_refr.c ****                            ? disp_refr->driver->draw_buf->buf2
 1554              		.loc 1 527 5 is_stmt 1 view .LVU521
 527:lvgl/src/core/lv_refr.c ****                            ? disp_refr->driver->draw_buf->buf2
 1555              		.loc 1 527 95 is_stmt 0 view .LVU522
 1556 003a D3F800A0 		ldr	r10, [r3]
 529:lvgl/src/core/lv_refr.c **** 
 1557              		.loc 1 529 28 view .LVU523
 1558 003e DA45     		cmp	r10, fp
 1559 0040 0AD0     		beq	.L109
 1560              	.L92:
 1561              	.LVL131:
 532:lvgl/src/core/lv_refr.c **** 
 1562              		.loc 1 532 5 is_stmt 1 view .LVU524
 532:lvgl/src/core/lv_refr.c **** 
 1563              		.loc 1 532 25 is_stmt 0 view .LVU525
 1564 0042 FFF7FEFF 		bl	lv_disp_get_hor_res
 1565              	.LVL132:
 1566 0046 8146     		mov	r9, r0
 1567              	.LVL133:
 535:lvgl/src/core/lv_refr.c ****     int8_t res_c, j;
ARM GAS  C:\Users\OSD\AppData\Local\Temp\cceLTvBX.s 			page 60


 1568              		.loc 1 535 5 is_stmt 1 view .LVU526
 535:lvgl/src/core/lv_refr.c ****     int8_t res_c, j;
 1569              		.loc 1 535 15 is_stmt 0 view .LVU527
 1570 0048 2022     		movs	r2, #32
 1571 004a 0021     		movs	r1, #0
 1572 004c 04A8     		add	r0, sp, #16
 1573 004e FFF7FEFF 		bl	memset
 1574              	.LVL134:
 536:lvgl/src/core/lv_refr.c ****     uint32_t i;
 1575              		.loc 1 536 5 is_stmt 1 view .LVU528
 537:lvgl/src/core/lv_refr.c ****     lv_area_t * sync_area, * new_area, * next_area;
 1576              		.loc 1 537 5 view .LVU529
 538:lvgl/src/core/lv_refr.c ****     for(i = 0; i < disp_refr->inv_p; i++) {
 1577              		.loc 1 538 5 view .LVU530
 539:lvgl/src/core/lv_refr.c ****         /*Skip joined areas*/
 1578              		.loc 1 539 5 view .LVU531
 539:lvgl/src/core/lv_refr.c ****         /*Skip joined areas*/
 1579              		.loc 1 539 11 is_stmt 0 view .LVU532
 1580 0052 4FF00008 		mov	r8, #0
 539:lvgl/src/core/lv_refr.c ****         /*Skip joined areas*/
 1581              		.loc 1 539 5 view .LVU533
 1582 0056 3BE0     		b	.L93
 1583              	.LVL135:
 1584              	.L109:
 529:lvgl/src/core/lv_refr.c **** 
 1585              		.loc 1 529 28 discriminator 1 view .LVU534
 1586 0058 D3F804A0 		ldr	r10, [r3, #4]
 1587 005c F1E7     		b	.L92
 1588              	.LVL136:
 1589              	.L98:
 556:lvgl/src/core/lv_refr.c ****                     *new_area = res[j];
 1590              		.loc 1 556 21 is_stmt 1 discriminator 3 view .LVU535
 556:lvgl/src/core/lv_refr.c ****                     *new_area = res[j];
 1591              		.loc 1 556 58 is_stmt 0 discriminator 3 view .LVU536
 1592 005e 384B     		ldr	r3, .L112
 1593 0060 1868     		ldr	r0, [r3]
 556:lvgl/src/core/lv_refr.c ****                     *new_area = res[j];
 1594              		.loc 1 556 32 discriminator 3 view .LVU537
 1595 0062 2946     		mov	r1, r5
 1596 0064 00F5AE70 		add	r0, r0, #348
 1597 0068 FFF7FEFF 		bl	_lv_ll_ins_prev
 1598              	.LVL137:
 1599 006c 0246     		mov	r2, r0
 1600              	.LVL138:
 557:lvgl/src/core/lv_refr.c ****                 }
 1601              		.loc 1 557 21 is_stmt 1 discriminator 3 view .LVU538
 557:lvgl/src/core/lv_refr.c ****                 }
 1602              		.loc 1 557 31 is_stmt 0 discriminator 3 view .LVU539
 1603 006e 0CAB     		add	r3, sp, #48
 1604 0070 03EBC403 		add	r3, r3, r4, lsl #3
 1605 0074 203B     		subs	r3, r3, #32
 1606 0076 03CB     		ldmia	r3!, {r0, r1}
 1607              	.LVL139:
 557:lvgl/src/core/lv_refr.c ****                 }
 1608              		.loc 1 557 31 discriminator 3 view .LVU540
 1609 0078 1060     		str	r0, [r2]	@ unaligned
 1610 007a 5160     		str	r1, [r2, #4]	@ unaligned
ARM GAS  C:\Users\OSD\AppData\Local\Temp\cceLTvBX.s 			page 61


 555:lvgl/src/core/lv_refr.c ****                     new_area = _lv_ll_ins_prev(&disp_refr->sync_areas, sync_area);
 1611              		.loc 1 555 39 is_stmt 1 discriminator 3 view .LVU541
 555:lvgl/src/core/lv_refr.c ****                     new_area = _lv_ll_ins_prev(&disp_refr->sync_areas, sync_area);
 1612              		.loc 1 555 40 is_stmt 0 discriminator 3 view .LVU542
 1613 007c 0134     		adds	r4, r4, #1
 1614              	.LVL140:
 555:lvgl/src/core/lv_refr.c ****                     new_area = _lv_ll_ins_prev(&disp_refr->sync_areas, sync_area);
 1615              		.loc 1 555 40 discriminator 3 view .LVU543
 1616 007e 64B2     		sxtb	r4, r4
 1617              	.LVL141:
 1618              	.L96:
 555:lvgl/src/core/lv_refr.c ****                     new_area = _lv_ll_ins_prev(&disp_refr->sync_areas, sync_area);
 1619              		.loc 1 555 28 is_stmt 1 discriminator 1 view .LVU544
 555:lvgl/src/core/lv_refr.c ****                     new_area = _lv_ll_ins_prev(&disp_refr->sync_areas, sync_area);
 1620              		.loc 1 555 17 is_stmt 0 discriminator 1 view .LVU545
 1621 0080 B442     		cmp	r4, r6
 1622 0082 ECDB     		blt	.L98
 559:lvgl/src/core/lv_refr.c ****                 lv_mem_free(sync_area);
 1623              		.loc 1 559 17 is_stmt 1 view .LVU546
 559:lvgl/src/core/lv_refr.c ****                 lv_mem_free(sync_area);
 1624              		.loc 1 559 41 is_stmt 0 view .LVU547
 1625 0084 2E4B     		ldr	r3, .L112
 1626 0086 1868     		ldr	r0, [r3]
 559:lvgl/src/core/lv_refr.c ****                 lv_mem_free(sync_area);
 1627              		.loc 1 559 17 view .LVU548
 1628 0088 2946     		mov	r1, r5
 1629 008a 00F5AE70 		add	r0, r0, #348
 1630 008e FFF7FEFF 		bl	_lv_ll_remove
 1631              	.LVL142:
 560:lvgl/src/core/lv_refr.c ****             }
 1632              		.loc 1 560 17 is_stmt 1 view .LVU549
 1633 0092 2846     		mov	r0, r5
 1634 0094 FFF7FEFF 		bl	lv_mem_free
 1635              	.LVL143:
 1636              	.L97:
 555:lvgl/src/core/lv_refr.c ****                     new_area = _lv_ll_ins_prev(&disp_refr->sync_areas, sync_area);
 1637              		.loc 1 555 23 is_stmt 0 view .LVU550
 1638 0098 3D46     		mov	r5, r7
 1639              	.LVL144:
 1640              	.L95:
 545:lvgl/src/core/lv_refr.c ****             /*Get next sync area*/
 1641              		.loc 1 545 14 is_stmt 1 view .LVU551
 1642 009a BDB1     		cbz	r5, .L94
 547:lvgl/src/core/lv_refr.c **** 
 1643              		.loc 1 547 13 view .LVU552
 547:lvgl/src/core/lv_refr.c **** 
 1644              		.loc 1 547 51 is_stmt 0 view .LVU553
 1645 009c 284C     		ldr	r4, .L112
 1646 009e 2068     		ldr	r0, [r4]
 547:lvgl/src/core/lv_refr.c **** 
 1647              		.loc 1 547 25 view .LVU554
 1648 00a0 2946     		mov	r1, r5
 1649 00a2 00F5AE70 		add	r0, r0, #348
 1650 00a6 FFF7FEFF 		bl	_lv_ll_get_next
 1651              	.LVL145:
 1652 00aa 0746     		mov	r7, r0
 1653              	.LVL146:
ARM GAS  C:\Users\OSD\AppData\Local\Temp\cceLTvBX.s 			page 62


 550:lvgl/src/core/lv_refr.c **** 
 1654              		.loc 1 550 13 is_stmt 1 view .LVU555
 550:lvgl/src/core/lv_refr.c **** 
 1655              		.loc 1 550 61 is_stmt 0 view .LVU556
 1656 00ac 2268     		ldr	r2, [r4]
 550:lvgl/src/core/lv_refr.c **** 
 1657              		.loc 1 550 51 view .LVU557
 1658 00ae 08F10603 		add	r3, r8, #6
 1659 00b2 02EBC302 		add	r2, r2, r3, lsl #3
 550:lvgl/src/core/lv_refr.c **** 
 1660              		.loc 1 550 21 view .LVU558
 1661 00b6 0432     		adds	r2, r2, #4
 1662 00b8 2946     		mov	r1, r5
 1663 00ba 04A8     		add	r0, sp, #16
 1664              	.LVL147:
 550:lvgl/src/core/lv_refr.c **** 
 1665              		.loc 1 550 21 view .LVU559
 1666 00bc FFF7FEFF 		bl	_lv_area_diff
 1667              	.LVL148:
 1668 00c0 0646     		mov	r6, r0
 1669              	.LVL149:
 553:lvgl/src/core/lv_refr.c ****                 /*Replace old sync area with new areas*/
 1670              		.loc 1 553 13 is_stmt 1 view .LVU560
 553:lvgl/src/core/lv_refr.c ****                 /*Replace old sync area with new areas*/
 1671              		.loc 1 553 15 is_stmt 0 view .LVU561
 1672 00c2 B0F1FF3F 		cmp	r0, #-1
 1673 00c6 E7D0     		beq	.L97
 555:lvgl/src/core/lv_refr.c ****                     new_area = _lv_ll_ins_prev(&disp_refr->sync_areas, sync_area);
 1674              		.loc 1 555 23 view .LVU562
 1675 00c8 0024     		movs	r4, #0
 1676 00ca D9E7     		b	.L96
 1677              	.LVL150:
 1678              	.L94:
 539:lvgl/src/core/lv_refr.c ****         /*Skip joined areas*/
 1679              		.loc 1 539 38 is_stmt 1 discriminator 2 view .LVU563
 539:lvgl/src/core/lv_refr.c ****         /*Skip joined areas*/
 1680              		.loc 1 539 39 is_stmt 0 discriminator 2 view .LVU564
 1681 00cc 08F10108 		add	r8, r8, #1
 1682              	.LVL151:
 1683              	.L93:
 539:lvgl/src/core/lv_refr.c ****         /*Skip joined areas*/
 1684              		.loc 1 539 16 is_stmt 1 discriminator 1 view .LVU565
 539:lvgl/src/core/lv_refr.c ****         /*Skip joined areas*/
 1685              		.loc 1 539 29 is_stmt 0 discriminator 1 view .LVU566
 1686 00d0 1B4B     		ldr	r3, .L112
 1687 00d2 1868     		ldr	r0, [r3]
 1688 00d4 B0F85431 		ldrh	r3, [r0, #340]
 539:lvgl/src/core/lv_refr.c ****         /*Skip joined areas*/
 1689              		.loc 1 539 5 discriminator 1 view .LVU567
 1690 00d8 4345     		cmp	r3, r8
 1691 00da 0BD9     		bls	.L110
 541:lvgl/src/core/lv_refr.c **** 
 1692              		.loc 1 541 9 is_stmt 1 view .LVU568
 541:lvgl/src/core/lv_refr.c **** 
 1693              		.loc 1 541 38 is_stmt 0 view .LVU569
 1694 00dc 00EB0803 		add	r3, r0, r8
 1695 00e0 93F83431 		ldrb	r3, [r3, #308]	@ zero_extendqisi2
ARM GAS  C:\Users\OSD\AppData\Local\Temp\cceLTvBX.s 			page 63


 541:lvgl/src/core/lv_refr.c **** 
 1696              		.loc 1 541 11 view .LVU570
 1697 00e4 002B     		cmp	r3, #0
 1698 00e6 F1D1     		bne	.L94
 544:lvgl/src/core/lv_refr.c ****         while(sync_area != NULL) {
 1699              		.loc 1 544 9 is_stmt 1 view .LVU571
 544:lvgl/src/core/lv_refr.c ****         while(sync_area != NULL) {
 1700              		.loc 1 544 21 is_stmt 0 view .LVU572
 1701 00e8 00F5AE70 		add	r0, r0, #348
 1702 00ec FFF7FEFF 		bl	_lv_ll_get_head
 1703              	.LVL152:
 1704 00f0 0546     		mov	r5, r0
 1705              	.LVL153:
 545:lvgl/src/core/lv_refr.c ****             /*Get next sync area*/
 1706              		.loc 1 545 9 is_stmt 1 view .LVU573
 545:lvgl/src/core/lv_refr.c ****             /*Get next sync area*/
 1707              		.loc 1 545 14 is_stmt 0 view .LVU574
 1708 00f2 D2E7     		b	.L95
 1709              	.LVL154:
 1710              	.L110:
 569:lvgl/src/core/lv_refr.c ****         sync_area = _lv_ll_get_next(&disp_refr->sync_areas, sync_area)) {
 1711              		.loc 1 569 5 is_stmt 1 view .LVU575
 569:lvgl/src/core/lv_refr.c ****         sync_area = _lv_ll_get_next(&disp_refr->sync_areas, sync_area)) {
 1712              		.loc 1 569 21 is_stmt 0 view .LVU576
 1713 00f4 00F5AE70 		add	r0, r0, #348
 1714 00f8 FFF7FEFF 		bl	_lv_ll_get_head
 1715              	.LVL155:
 1716 00fc 0446     		mov	r4, r0
 1717              	.LVL156:
 1718              	.L101:
 569:lvgl/src/core/lv_refr.c ****         sync_area = _lv_ll_get_next(&disp_refr->sync_areas, sync_area)) {
 1719              		.loc 1 569 62 is_stmt 1 discriminator 1 view .LVU577
 569:lvgl/src/core/lv_refr.c ****         sync_area = _lv_ll_get_next(&disp_refr->sync_areas, sync_area)) {
 1720              		.loc 1 569 5 is_stmt 0 discriminator 1 view .LVU578
 1721 00fe ACB1     		cbz	r4, .L111
 571:lvgl/src/core/lv_refr.c ****             disp_refr->driver->draw_ctx,
 1722              		.loc 1 571 9 is_stmt 1 view .LVU579
 571:lvgl/src/core/lv_refr.c ****             disp_refr->driver->draw_ctx,
 1723              		.loc 1 571 18 is_stmt 0 view .LVU580
 1724 0100 0F4D     		ldr	r5, .L112
 1725 0102 2B68     		ldr	r3, [r5]
 1726 0104 1B68     		ldr	r3, [r3]
 571:lvgl/src/core/lv_refr.c ****             disp_refr->driver->draw_ctx,
 1727              		.loc 1 571 26 view .LVU581
 1728 0106 D86B     		ldr	r0, [r3, #60]
 1729              	.LVL157:
 571:lvgl/src/core/lv_refr.c ****             disp_refr->driver->draw_ctx,
 1730              		.loc 1 571 36 view .LVU582
 1731 0108 866B     		ldr	r6, [r0, #56]
 571:lvgl/src/core/lv_refr.c ****             disp_refr->driver->draw_ctx,
 1732              		.loc 1 571 9 view .LVU583
 1733 010a 0294     		str	r4, [sp, #8]
 1734 010c CDF80490 		str	r9, [sp, #4]
 1735 0110 CDF800A0 		str	r10, [sp]
 1736 0114 2346     		mov	r3, r4
 1737 0116 4A46     		mov	r2, r9
 1738 0118 5946     		mov	r1, fp
ARM GAS  C:\Users\OSD\AppData\Local\Temp\cceLTvBX.s 			page 64


 1739 011a B047     		blx	r6
 1740              	.LVL158:
 570:lvgl/src/core/lv_refr.c ****         disp_refr->driver->draw_ctx->buffer_copy(
 1741              		.loc 1 570 9 is_stmt 1 view .LVU584
 570:lvgl/src/core/lv_refr.c ****         disp_refr->driver->draw_ctx->buffer_copy(
 1742              		.loc 1 570 47 is_stmt 0 view .LVU585
 1743 011c 2868     		ldr	r0, [r5]
 570:lvgl/src/core/lv_refr.c ****         disp_refr->driver->draw_ctx->buffer_copy(
 1744              		.loc 1 570 21 view .LVU586
 1745 011e 2146     		mov	r1, r4
 1746 0120 00F5AE70 		add	r0, r0, #348
 1747 0124 FFF7FEFF 		bl	_lv_ll_get_next
 1748              	.LVL159:
 1749 0128 0446     		mov	r4, r0
 1750              	.LVL160:
 570:lvgl/src/core/lv_refr.c ****         disp_refr->driver->draw_ctx->buffer_copy(
 1751              		.loc 1 570 21 view .LVU587
 1752 012a E8E7     		b	.L101
 1753              	.L111:
 579:lvgl/src/core/lv_refr.c **** }
 1754              		.loc 1 579 5 is_stmt 1 view .LVU588
 579:lvgl/src/core/lv_refr.c **** }
 1755              		.loc 1 579 28 is_stmt 0 view .LVU589
 1756 012c 044B     		ldr	r3, .L112
 1757 012e 1868     		ldr	r0, [r3]
 1758              	.LVL161:
 579:lvgl/src/core/lv_refr.c **** }
 1759              		.loc 1 579 5 view .LVU590
 1760 0130 00F5AE70 		add	r0, r0, #348
 1761 0134 FFF7FEFF 		bl	_lv_ll_clear
 1762              	.LVL162:
 1763              	.L90:
 580:lvgl/src/core/lv_refr.c **** 
 1764              		.loc 1 580 1 view .LVU591
 1765 0138 0DB0     		add	sp, sp, #52
 1766              		.cfi_def_cfa_offset 36
 1767              		@ sp needed
 1768 013a BDE8F08F 		pop	{r4, r5, r6, r7, r8, r9, r10, fp, pc}
 1769              	.L106:
 1770              		.cfi_def_cfa_offset 0
 1771              		.cfi_restore 4
 1772              		.cfi_restore 5
 1773              		.cfi_restore 6
 1774              		.cfi_restore 7
 1775              		.cfi_restore 8
 1776              		.cfi_restore 9
 1777              		.cfi_restore 10
 1778              		.cfi_restore 11
 1779              		.cfi_restore 14
 1780 013e 7047     		bx	lr
 1781              	.L113:
 1782              		.align	2
 1783              	.L112:
 1784 0140 00000000 		.word	.LANCHOR0
 1785              		.cfi_endproc
 1786              	.LFE177:
 1788              		.section	.text.draw_buf_rotate,"ax",%progbits
ARM GAS  C:\Users\OSD\AppData\Local\Temp\cceLTvBX.s 			page 65


 1789              		.align	1
 1790              		.syntax unified
 1791              		.thumb
 1792              		.thumb_func
 1794              	draw_buf_rotate:
 1795              	.LVL163:
 1796              	.LFB191:
1179:lvgl/src/core/lv_refr.c ****     lv_disp_drv_t * drv = disp_refr->driver;
 1797              		.loc 1 1179 1 is_stmt 1 view -0
 1798              		.cfi_startproc
 1799              		@ args = 0, pretend = 0, frame = 32
 1800              		@ frame_needed = 0, uses_anonymous_args = 0
1179:lvgl/src/core/lv_refr.c ****     lv_disp_drv_t * drv = disp_refr->driver;
 1801              		.loc 1 1179 1 is_stmt 0 view .LVU593
 1802 0000 2DE9F04F 		push	{r4, r5, r6, r7, r8, r9, r10, fp, lr}
 1803              		.cfi_def_cfa_offset 36
 1804              		.cfi_offset 4, -36
 1805              		.cfi_offset 5, -32
 1806              		.cfi_offset 6, -28
 1807              		.cfi_offset 7, -24
 1808              		.cfi_offset 8, -20
 1809              		.cfi_offset 9, -16
 1810              		.cfi_offset 10, -12
 1811              		.cfi_offset 11, -8
 1812              		.cfi_offset 14, -4
 1813 0004 8BB0     		sub	sp, sp, #44
 1814              		.cfi_def_cfa_offset 80
 1815 0006 8046     		mov	r8, r0
 1816 0008 0391     		str	r1, [sp, #12]
1180:lvgl/src/core/lv_refr.c ****     if(disp_refr->driver->full_refresh && drv->sw_rotate) {
 1817              		.loc 1 1180 5 is_stmt 1 view .LVU594
1180:lvgl/src/core/lv_refr.c ****     if(disp_refr->driver->full_refresh && drv->sw_rotate) {
 1818              		.loc 1 1180 36 is_stmt 0 view .LVU595
 1819 000a 844B     		ldr	r3, .L145
 1820 000c 1868     		ldr	r0, [r3]
 1821              	.LVL164:
1180:lvgl/src/core/lv_refr.c ****     if(disp_refr->driver->full_refresh && drv->sw_rotate) {
 1822              		.loc 1 1180 21 view .LVU596
 1823 000e 0468     		ldr	r4, [r0]
 1824              	.LVL165:
1181:lvgl/src/core/lv_refr.c ****         LV_LOG_ERROR("cannot rotate a full refreshed display!");
 1825              		.loc 1 1181 5 is_stmt 1 view .LVU597
1181:lvgl/src/core/lv_refr.c ****         LV_LOG_ERROR("cannot rotate a full refreshed display!");
 1826              		.loc 1 1181 8 is_stmt 0 view .LVU598
 1827 0010 237C     		ldrb	r3, [r4, #16]	@ zero_extendqisi2
1181:lvgl/src/core/lv_refr.c ****         LV_LOG_ERROR("cannot rotate a full refreshed display!");
 1828              		.loc 1 1181 7 view .LVU599
 1829 0012 13F0020F 		tst	r3, #2
 1830 0016 02D0     		beq	.L115
1181:lvgl/src/core/lv_refr.c ****         LV_LOG_ERROR("cannot rotate a full refreshed display!");
 1831              		.loc 1 1181 40 discriminator 1 view .LVU600
 1832 0018 13F0040F 		tst	r3, #4
 1833 001c 07D1     		bne	.L114
 1834              	.L115:
1185:lvgl/src/core/lv_refr.c ****         draw_buf_rotate_180(drv, area, color_p);
 1835              		.loc 1 1185 5 is_stmt 1 view .LVU601
1185:lvgl/src/core/lv_refr.c ****         draw_buf_rotate_180(drv, area, color_p);
ARM GAS  C:\Users\OSD\AppData\Local\Temp\cceLTvBX.s 			page 66


 1836              		.loc 1 1185 21 is_stmt 0 view .LVU602
 1837 001e 03F03003 		and	r3, r3, #48
1185:lvgl/src/core/lv_refr.c ****         draw_buf_rotate_180(drv, area, color_p);
 1838              		.loc 1 1185 7 view .LVU603
 1839 0022 202B     		cmp	r3, #32
 1840 0024 06D0     		beq	.L135
1189:lvgl/src/core/lv_refr.c ****         /*Allocate a temporary buffer to store rotated image*/
 1841              		.loc 1 1189 10 is_stmt 1 view .LVU604
1189:lvgl/src/core/lv_refr.c ****         /*Allocate a temporary buffer to store rotated image*/
 1842              		.loc 1 1189 12 is_stmt 0 view .LVU605
 1843 0026 302B     		cmp	r3, #48
 1844 0028 18BF     		it	ne
 1845 002a 102B     		cmpne	r3, #16
 1846 002c 0ED0     		beq	.L136
 1847              	.LVL166:
 1848              	.L114:
1262:lvgl/src/core/lv_refr.c **** 
 1849              		.loc 1 1262 1 view .LVU606
 1850 002e 0BB0     		add	sp, sp, #44
 1851              		.cfi_remember_state
 1852              		.cfi_def_cfa_offset 36
 1853              		@ sp needed
 1854 0030 BDE8F08F 		pop	{r4, r5, r6, r7, r8, r9, r10, fp, pc}
 1855              	.LVL167:
 1856              	.L135:
 1857              		.cfi_restore_state
1186:lvgl/src/core/lv_refr.c ****         call_flush_cb(drv, area, color_p);
 1858              		.loc 1 1186 9 is_stmt 1 view .LVU607
 1859 0034 039D     		ldr	r5, [sp, #12]
 1860 0036 2A46     		mov	r2, r5
 1861 0038 4146     		mov	r1, r8
 1862              	.LVL168:
1186:lvgl/src/core/lv_refr.c ****         call_flush_cb(drv, area, color_p);
 1863              		.loc 1 1186 9 is_stmt 0 view .LVU608
 1864 003a 2046     		mov	r0, r4
 1865 003c FFF7FEFF 		bl	draw_buf_rotate_180
 1866              	.LVL169:
1187:lvgl/src/core/lv_refr.c ****     }
 1867              		.loc 1 1187 9 is_stmt 1 view .LVU609
 1868 0040 2A46     		mov	r2, r5
 1869 0042 4146     		mov	r1, r8
 1870 0044 2046     		mov	r0, r4
 1871 0046 FFF7FEFF 		bl	call_flush_cb
 1872              	.LVL170:
 1873 004a F0E7     		b	.L114
 1874              	.LVL171:
 1875              	.L136:
 1876              	.LBB94:
1191:lvgl/src/core/lv_refr.c ****         lv_disp_draw_buf_t * draw_buf = lv_disp_get_draw_buf(disp_refr);
 1877              		.loc 1 1191 9 view .LVU610
1192:lvgl/src/core/lv_refr.c ****         lv_coord_t area_w = lv_area_get_width(area);
 1878              		.loc 1 1192 9 view .LVU611
1192:lvgl/src/core/lv_refr.c ****         lv_coord_t area_w = lv_area_get_width(area);
 1879              		.loc 1 1192 41 is_stmt 0 view .LVU612
 1880 004c FFF7FEFF 		bl	lv_disp_get_draw_buf
 1881              	.LVL172:
1192:lvgl/src/core/lv_refr.c ****         lv_coord_t area_w = lv_area_get_width(area);
ARM GAS  C:\Users\OSD\AppData\Local\Temp\cceLTvBX.s 			page 67


 1882              		.loc 1 1192 41 view .LVU613
 1883 0050 0546     		mov	r5, r0
 1884              	.LVL173:
1193:lvgl/src/core/lv_refr.c ****         lv_coord_t area_h = lv_area_get_height(area);
 1885              		.loc 1 1193 9 is_stmt 1 view .LVU614
 1886              	.LBB95:
 1887              	.LBI95:
 123:lvgl/src/core/../misc/../font/../misc/lv_area.h **** {
 1888              		.loc 2 123 26 view .LVU615
 1889              	.LBB96:
 125:lvgl/src/core/../misc/../font/../misc/lv_area.h **** }
 1890              		.loc 2 125 5 view .LVU616
 125:lvgl/src/core/../misc/../font/../misc/lv_area.h **** }
 1891              		.loc 2 125 31 is_stmt 0 view .LVU617
 1892 0052 B8F80430 		ldrh	r3, [r8, #4]
 125:lvgl/src/core/../misc/../font/../misc/lv_area.h **** }
 1893              		.loc 2 125 44 view .LVU618
 1894 0056 B8F90010 		ldrsh	r1, [r8]
 1895 005a 8AB2     		uxth	r2, r1
 125:lvgl/src/core/../misc/../font/../misc/lv_area.h **** }
 1896              		.loc 2 125 36 view .LVU619
 1897 005c 9B1A     		subs	r3, r3, r2
 1898 005e 9BB2     		uxth	r3, r3
 125:lvgl/src/core/../misc/../font/../misc/lv_area.h **** }
 1899              		.loc 2 125 49 view .LVU620
 1900 0060 0133     		adds	r3, r3, #1
 1901 0062 98B2     		uxth	r0, r3
 1902              	.LVL174:
 125:lvgl/src/core/../misc/../font/../misc/lv_area.h **** }
 1903              		.loc 2 125 49 view .LVU621
 1904 0064 0890     		str	r0, [sp, #32]
 125:lvgl/src/core/../misc/../font/../misc/lv_area.h **** }
 1905              		.loc 2 125 12 view .LVU622
 1906 0066 18B2     		sxth	r0, r3
 1907              	.LVL175:
 125:lvgl/src/core/../misc/../font/../misc/lv_area.h **** }
 1908              		.loc 2 125 12 view .LVU623
 1909              	.LBE96:
 1910              	.LBE95:
1194:lvgl/src/core/lv_refr.c ****         /*Determine the maximum number of rows that can be rotated at a time*/
 1911              		.loc 1 1194 9 is_stmt 1 view .LVU624
 1912              	.LBB97:
 1913              	.LBI97:
 133:lvgl/src/core/../misc/../font/../misc/lv_area.h **** {
 1914              		.loc 2 133 26 view .LVU625
 1915              	.LBB98:
 1916              		.loc 2 135 5 view .LVU626
 1917              		.loc 2 135 31 is_stmt 0 view .LVU627
 1918 0068 B8F80690 		ldrh	r9, [r8, #6]
 1919              		.loc 2 135 44 view .LVU628
 1920 006c B8F90230 		ldrsh	r3, [r8, #2]
 1921 0070 0993     		str	r3, [sp, #36]
 1922 0072 9BB2     		uxth	r3, r3
 1923 0074 0793     		str	r3, [sp, #28]
 1924              		.loc 2 135 36 view .LVU629
 1925 0076 A9EB0309 		sub	r9, r9, r3
 1926 007a 1FFA89F9 		uxth	r9, r9
ARM GAS  C:\Users\OSD\AppData\Local\Temp\cceLTvBX.s 			page 68


 1927              		.loc 2 135 49 view .LVU630
 1928 007e 09F10109 		add	r9, r9, #1
 1929              		.loc 2 135 12 view .LVU631
 1930 0082 0FFA89F9 		sxth	r9, r9
 1931              	.LVL176:
 1932              		.loc 2 135 12 view .LVU632
 1933              	.LBE98:
 1934              	.LBE97:
1196:lvgl/src/core/lv_refr.c ****         lv_coord_t init_y_off;
 1935              		.loc 1 1196 9 is_stmt 1 view .LVU633
1196:lvgl/src/core/lv_refr.c ****         lv_coord_t init_y_off;
 1936              		.loc 1 1196 30 is_stmt 0 view .LVU634
 1937 0086 4FF42063 		mov	r3, #2560
 1938 008a B3FBF0F3 		udiv	r3, r3, r0
1196:lvgl/src/core/lv_refr.c ****         lv_coord_t init_y_off;
 1939              		.loc 1 1196 20 view .LVU635
 1940 008e 4B45     		cmp	r3, r9
 1941 0090 A8BF     		it	ge
 1942 0092 4B46     		movge	r3, r9
 1943 0094 0693     		str	r3, [sp, #24]
 1944              	.LVL177:
1197:lvgl/src/core/lv_refr.c ****         init_y_off = area->y1;
 1945              		.loc 1 1197 9 is_stmt 1 view .LVU636
1198:lvgl/src/core/lv_refr.c ****         if(drv->rotated == LV_DISP_ROT_90) {
 1946              		.loc 1 1198 9 view .LVU637
1199:lvgl/src/core/lv_refr.c ****             area->y2 = drv->ver_res - area->x1 - 1;
 1947              		.loc 1 1199 9 view .LVU638
1199:lvgl/src/core/lv_refr.c ****             area->y2 = drv->ver_res - area->x1 - 1;
 1948              		.loc 1 1199 25 is_stmt 0 view .LVU639
 1949 0096 237C     		ldrb	r3, [r4, #16]	@ zero_extendqisi2
 1950 0098 03F03003 		and	r3, r3, #48
1199:lvgl/src/core/lv_refr.c ****             area->y2 = drv->ver_res - area->x1 - 1;
 1951              		.loc 1 1199 11 view .LVU640
 1952 009c 102B     		cmp	r3, #16
 1953 009e 0BD0     		beq	.L137
1204:lvgl/src/core/lv_refr.c ****             area->y2 = area->y1 + area_w - 1;
 1954              		.loc 1 1204 13 is_stmt 1 view .LVU641
1204:lvgl/src/core/lv_refr.c ****             area->y2 = area->y1 + area_w - 1;
 1955              		.loc 1 1204 22 is_stmt 0 view .LVU642
 1956 00a0 A8F80210 		strh	r1, [r8, #2]	@ movhi
1205:lvgl/src/core/lv_refr.c ****         }
 1957              		.loc 1 1205 13 is_stmt 1 view .LVU643
1205:lvgl/src/core/lv_refr.c ****         }
 1958              		.loc 1 1205 33 is_stmt 0 view .LVU644
 1959 00a4 089B     		ldr	r3, [sp, #32]
 1960 00a6 D318     		adds	r3, r2, r3
 1961 00a8 9BB2     		uxth	r3, r3
1205:lvgl/src/core/lv_refr.c ****         }
 1962              		.loc 1 1205 42 view .LVU645
 1963 00aa 013B     		subs	r3, r3, #1
1205:lvgl/src/core/lv_refr.c ****         }
 1964              		.loc 1 1205 22 view .LVU646
 1965 00ac A8F80630 		strh	r3, [r8, #6]	@ movhi
 1966              	.L120:
 1967              	.LBB99:
1251:lvgl/src/core/lv_refr.c ****             /*FIXME: Rotation forces legacy behavior where rendering and flushing are done serially
 1968              		.loc 1 1251 13 view .LVU647
ARM GAS  C:\Users\OSD\AppData\Local\Temp\cceLTvBX.s 			page 69


 1969 00b0 0026     		movs	r6, #0
 1970 00b2 0496     		str	r6, [sp, #16]
 1971 00b4 8346     		mov	fp, r0
 1972 00b6 63E0     		b	.L119
 1973              	.L137:
 1974              	.LBE99:
1200:lvgl/src/core/lv_refr.c ****             area->y1 = area->y2 - area_w + 1;
 1975              		.loc 1 1200 13 is_stmt 1 view .LVU648
1200:lvgl/src/core/lv_refr.c ****             area->y1 = area->y2 - area_w + 1;
 1976              		.loc 1 1200 27 is_stmt 0 view .LVU649
 1977 00b8 6388     		ldrh	r3, [r4, #2]
1200:lvgl/src/core/lv_refr.c ****             area->y1 = area->y2 - area_w + 1;
 1978              		.loc 1 1200 37 view .LVU650
 1979 00ba 9B1A     		subs	r3, r3, r2
 1980 00bc 9BB2     		uxth	r3, r3
1200:lvgl/src/core/lv_refr.c ****             area->y1 = area->y2 - area_w + 1;
 1981              		.loc 1 1200 48 view .LVU651
 1982 00be 013B     		subs	r3, r3, #1
 1983 00c0 9AB2     		uxth	r2, r3
1200:lvgl/src/core/lv_refr.c ****             area->y1 = area->y2 - area_w + 1;
 1984              		.loc 1 1200 22 view .LVU652
 1985 00c2 A8F80630 		strh	r3, [r8, #6]	@ movhi
1201:lvgl/src/core/lv_refr.c ****         }
 1986              		.loc 1 1201 13 is_stmt 1 view .LVU653
1201:lvgl/src/core/lv_refr.c ****         }
 1987              		.loc 1 1201 33 is_stmt 0 view .LVU654
 1988 00c6 089B     		ldr	r3, [sp, #32]
 1989 00c8 D31A     		subs	r3, r2, r3
 1990 00ca 9BB2     		uxth	r3, r3
1201:lvgl/src/core/lv_refr.c ****         }
 1991              		.loc 1 1201 42 view .LVU655
 1992 00cc 0133     		adds	r3, r3, #1
1201:lvgl/src/core/lv_refr.c ****         }
 1993              		.loc 1 1201 22 view .LVU656
 1994 00ce A8F80230 		strh	r3, [r8, #2]	@ movhi
 1995 00d2 EDE7     		b	.L120
 1996              	.LVL178:
 1997              	.L142:
 1998              	.LBB100:
1215:lvgl/src/core/lv_refr.c ****                 draw_buf_rotate_90_sqr(drv->rotated == LV_DISP_ROT_270, area_w, color_p);
 1999              		.loc 1 1215 17 is_stmt 1 view .LVU657
1216:lvgl/src/core/lv_refr.c ****                 if(drv->rotated == LV_DISP_ROT_90) {
 2000              		.loc 1 1216 17 view .LVU658
1216:lvgl/src/core/lv_refr.c ****                 if(drv->rotated == LV_DISP_ROT_90) {
 2001              		.loc 1 1216 53 is_stmt 0 view .LVU659
 2002 00d4 207C     		ldrb	r0, [r4, #16]	@ zero_extendqisi2
1216:lvgl/src/core/lv_refr.c ****                 if(drv->rotated == LV_DISP_ROT_90) {
 2003              		.loc 1 1216 17 view .LVU660
 2004 00d6 00F03000 		and	r0, r0, #48
 2005 00da 039A     		ldr	r2, [sp, #12]
 2006 00dc 5946     		mov	r1, fp
 2007 00de 3028     		cmp	r0, #48
 2008 00e0 14BF     		ite	ne
 2009 00e2 0020     		movne	r0, #0
 2010 00e4 0120     		moveq	r0, #1
 2011 00e6 FFF7FEFF 		bl	draw_buf_rotate_90_sqr
 2012              	.LVL179:
ARM GAS  C:\Users\OSD\AppData\Local\Temp\cceLTvBX.s 			page 70


1217:lvgl/src/core/lv_refr.c ****                     area->x1 = init_y_off;
 2013              		.loc 1 1217 17 is_stmt 1 view .LVU661
1217:lvgl/src/core/lv_refr.c ****                     area->x1 = init_y_off;
 2014              		.loc 1 1217 33 is_stmt 0 view .LVU662
 2015 00ea 237C     		ldrb	r3, [r4, #16]	@ zero_extendqisi2
 2016 00ec 03F03003 		and	r3, r3, #48
1217:lvgl/src/core/lv_refr.c ****                     area->x1 = init_y_off;
 2017              		.loc 1 1217 19 view .LVU663
 2018 00f0 102B     		cmp	r3, #16
 2019 00f2 0ED0     		beq	.L138
1222:lvgl/src/core/lv_refr.c ****                     area->x1 = area->x2 - area_w + 1;
 2020              		.loc 1 1222 21 is_stmt 1 view .LVU664
1222:lvgl/src/core/lv_refr.c ****                     area->x1 = area->x2 - area_w + 1;
 2021              		.loc 1 1222 35 is_stmt 0 view .LVU665
 2022 00f4 2288     		ldrh	r2, [r4]
1222:lvgl/src/core/lv_refr.c ****                     area->x1 = area->x2 - area_w + 1;
 2023              		.loc 1 1222 49 view .LVU666
 2024 00f6 079B     		ldr	r3, [sp, #28]
 2025 00f8 D21A     		subs	r2, r2, r3
 2026 00fa 013A     		subs	r2, r2, #1
 2027 00fc 93B2     		uxth	r3, r2
1222:lvgl/src/core/lv_refr.c ****                     area->x1 = area->x2 - area_w + 1;
 2028              		.loc 1 1222 30 view .LVU667
 2029 00fe A8F80420 		strh	r2, [r8, #4]	@ movhi
1223:lvgl/src/core/lv_refr.c ****                 }
 2030              		.loc 1 1223 21 is_stmt 1 view .LVU668
1223:lvgl/src/core/lv_refr.c ****                 }
 2031              		.loc 1 1223 41 is_stmt 0 view .LVU669
 2032 0102 089A     		ldr	r2, [sp, #32]
 2033 0104 9B1A     		subs	r3, r3, r2
 2034 0106 9BB2     		uxth	r3, r3
1223:lvgl/src/core/lv_refr.c ****                 }
 2035              		.loc 1 1223 50 view .LVU670
 2036 0108 0133     		adds	r3, r3, #1
1223:lvgl/src/core/lv_refr.c ****                 }
 2037              		.loc 1 1223 30 view .LVU671
 2038 010a A8F80030 		strh	r3, [r8]	@ movhi
1215:lvgl/src/core/lv_refr.c ****                 draw_buf_rotate_90_sqr(drv->rotated == LV_DISP_ROT_270, area_w, color_p);
 2039              		.loc 1 1215 24 view .LVU672
 2040 010e 5F46     		mov	r7, fp
 2041 0110 6CE0     		b	.L123
 2042              	.L138:
1218:lvgl/src/core/lv_refr.c ****                     area->x2 = init_y_off + area_w - 1;
 2043              		.loc 1 1218 21 is_stmt 1 view .LVU673
1218:lvgl/src/core/lv_refr.c ****                     area->x2 = init_y_off + area_w - 1;
 2044              		.loc 1 1218 30 is_stmt 0 view .LVU674
 2045 0112 099B     		ldr	r3, [sp, #36]
 2046 0114 A8F80030 		strh	r3, [r8]	@ movhi
1219:lvgl/src/core/lv_refr.c ****                 }
 2047              		.loc 1 1219 21 is_stmt 1 view .LVU675
1219:lvgl/src/core/lv_refr.c ****                 }
 2048              		.loc 1 1219 43 is_stmt 0 view .LVU676
 2049 0118 079B     		ldr	r3, [sp, #28]
 2050 011a 089A     		ldr	r2, [sp, #32]
 2051 011c 1344     		add	r3, r3, r2
 2052 011e 9BB2     		uxth	r3, r3
1219:lvgl/src/core/lv_refr.c ****                 }
ARM GAS  C:\Users\OSD\AppData\Local\Temp\cceLTvBX.s 			page 71


 2053              		.loc 1 1219 52 view .LVU677
 2054 0120 013B     		subs	r3, r3, #1
1219:lvgl/src/core/lv_refr.c ****                 }
 2055              		.loc 1 1219 30 view .LVU678
 2056 0122 A8F80430 		strh	r3, [r8, #4]	@ movhi
1215:lvgl/src/core/lv_refr.c ****                 draw_buf_rotate_90_sqr(drv->rotated == LV_DISP_ROT_270, area_w, color_p);
 2057              		.loc 1 1215 24 view .LVU679
 2058 0126 5F46     		mov	r7, fp
 2059 0128 60E0     		b	.L123
 2060              	.LVL180:
 2061              	.L143:
1228:lvgl/src/core/lv_refr.c ****                 draw_buf_rotate_90(drv->rotated == LV_DISP_ROT_270, area_w, height, color_p, rot_bu
 2062              		.loc 1 1228 37 is_stmt 1 discriminator 1 view .LVU680
1228:lvgl/src/core/lv_refr.c ****                 draw_buf_rotate_90(drv->rotated == LV_DISP_ROT_270, area_w, height, color_p, rot_bu
 2063              		.loc 1 1228 47 is_stmt 0 discriminator 1 view .LVU681
 2064 012a 4FF42050 		mov	r0, #10240
 2065 012e FFF7FEFF 		bl	lv_mem_buf_get
 2066              	.LVL181:
1228:lvgl/src/core/lv_refr.c ****                 draw_buf_rotate_90(drv->rotated == LV_DISP_ROT_270, area_w, height, color_p, rot_bu
 2067              		.loc 1 1228 47 discriminator 1 view .LVU682
 2068 0132 0490     		str	r0, [sp, #16]
 2069              	.LVL182:
1228:lvgl/src/core/lv_refr.c ****                 draw_buf_rotate_90(drv->rotated == LV_DISP_ROT_270, area_w, height, color_p, rot_bu
 2070              		.loc 1 1228 47 discriminator 1 view .LVU683
 2071 0134 38E0     		b	.L124
 2072              	.LVL183:
 2073              	.L144:
1232:lvgl/src/core/lv_refr.c ****                     area->x2 = init_y_off + row + height - 1;
 2074              		.loc 1 1232 21 is_stmt 1 view .LVU684
1232:lvgl/src/core/lv_refr.c ****                     area->x2 = init_y_off + row + height - 1;
 2075              		.loc 1 1232 43 is_stmt 0 view .LVU685
 2076 0136 079B     		ldr	r3, [sp, #28]
 2077 0138 3344     		add	r3, r3, r6
1232:lvgl/src/core/lv_refr.c ****                     area->x2 = init_y_off + row + height - 1;
 2078              		.loc 1 1232 30 view .LVU686
 2079 013a A8F80030 		strh	r3, [r8]	@ movhi
1233:lvgl/src/core/lv_refr.c ****                 }
 2080              		.loc 1 1233 21 is_stmt 1 view .LVU687
1233:lvgl/src/core/lv_refr.c ****                 }
 2081              		.loc 1 1233 49 is_stmt 0 view .LVU688
 2082 013e 1AFA83F3 		uxtah	r3, r10, r3
 2083 0142 9BB2     		uxth	r3, r3
1233:lvgl/src/core/lv_refr.c ****                 }
 2084              		.loc 1 1233 58 view .LVU689
 2085 0144 013B     		subs	r3, r3, #1
1233:lvgl/src/core/lv_refr.c ****                 }
 2086              		.loc 1 1233 30 view .LVU690
 2087 0146 A8F80430 		strh	r3, [r8, #4]	@ movhi
 2088 014a 4FE0     		b	.L123
 2089              	.L126:
1247:lvgl/src/core/lv_refr.c ****             }
 2090              		.loc 1 1247 17 is_stmt 1 view .LVU691
1247:lvgl/src/core/lv_refr.c ****             }
 2091              		.loc 1 1247 41 is_stmt 0 view .LVU692
 2092 014c 0023     		movs	r3, #0
 2093 014e 6B61     		str	r3, [r5, #20]
 2094              	.L127:
ARM GAS  C:\Users\OSD\AppData\Local\Temp\cceLTvBX.s 			page 72


1251:lvgl/src/core/lv_refr.c ****             /*FIXME: Rotation forces legacy behavior where rendering and flushing are done serially
 2095              		.loc 1 1251 13 is_stmt 1 view .LVU693
 2096 0150 049A     		ldr	r2, [sp, #16]
 2097 0152 5AB1     		cbz	r2, .L139
 2098              	.L128:
1251:lvgl/src/core/lv_refr.c ****             /*FIXME: Rotation forces legacy behavior where rendering and flushing are done serially
 2099              		.loc 1 1251 13 is_stmt 0 discriminator 4 view .LVU694
 2100 0154 4146     		mov	r1, r8
 2101 0156 2046     		mov	r0, r4
 2102 0158 FFF7FEFF 		bl	call_flush_cb
 2103              	.LVL184:
1253:lvgl/src/core/lv_refr.c ****                 if(drv->wait_cb) drv->wait_cb(drv);
 2104              		.loc 1 1253 13 is_stmt 1 discriminator 4 view .LVU695
 2105              	.L130:
1253:lvgl/src/core/lv_refr.c ****                 if(drv->wait_cb) drv->wait_cb(drv);
 2106              		.loc 1 1253 18 view .LVU696
1253:lvgl/src/core/lv_refr.c ****                 if(drv->wait_cb) drv->wait_cb(drv);
 2107              		.loc 1 1253 27 is_stmt 0 view .LVU697
 2108 015c 2B69     		ldr	r3, [r5, #16]
1253:lvgl/src/core/lv_refr.c ****                 if(drv->wait_cb) drv->wait_cb(drv);
 2109              		.loc 1 1253 18 view .LVU698
 2110 015e 3BB1     		cbz	r3, .L140
1254:lvgl/src/core/lv_refr.c ****             }
 2111              		.loc 1 1254 17 is_stmt 1 view .LVU699
1254:lvgl/src/core/lv_refr.c ****             }
 2112              		.loc 1 1254 23 is_stmt 0 view .LVU700
 2113 0160 A36A     		ldr	r3, [r4, #40]
1254:lvgl/src/core/lv_refr.c ****             }
 2114              		.loc 1 1254 19 view .LVU701
 2115 0162 002B     		cmp	r3, #0
 2116 0164 FAD0     		beq	.L130
1254:lvgl/src/core/lv_refr.c ****             }
 2117              		.loc 1 1254 34 is_stmt 1 discriminator 1 view .LVU702
 2118 0166 2046     		mov	r0, r4
 2119 0168 9847     		blx	r3
 2120              	.LVL185:
 2121 016a F7E7     		b	.L130
 2122              	.L139:
1251:lvgl/src/core/lv_refr.c ****             /*FIXME: Rotation forces legacy behavior where rendering and flushing are done serially
 2123              		.loc 1 1251 13 is_stmt 0 view .LVU703
 2124 016c 039A     		ldr	r2, [sp, #12]
 2125 016e F1E7     		b	.L128
 2126              	.L140:
1256:lvgl/src/core/lv_refr.c ****             row += height;
 2127              		.loc 1 1256 13 is_stmt 1 view .LVU704
1256:lvgl/src/core/lv_refr.c ****             row += height;
 2128              		.loc 1 1256 31 is_stmt 0 view .LVU705
 2129 0170 0AFB0BFA 		mul	r10, r10, fp
1256:lvgl/src/core/lv_refr.c ****             row += height;
 2130              		.loc 1 1256 21 view .LVU706
 2131 0174 039B     		ldr	r3, [sp, #12]
 2132 0176 03EB8A03 		add	r3, r3, r10, lsl #2
 2133 017a 0393     		str	r3, [sp, #12]
 2134              	.LVL186:
1257:lvgl/src/core/lv_refr.c ****         }
 2135              		.loc 1 1257 13 is_stmt 1 view .LVU707
1257:lvgl/src/core/lv_refr.c ****         }
ARM GAS  C:\Users\OSD\AppData\Local\Temp\cceLTvBX.s 			page 73


 2136              		.loc 1 1257 17 is_stmt 0 view .LVU708
 2137 017c 3E44     		add	r6, r6, r7
 2138              	.LVL187:
1257:lvgl/src/core/lv_refr.c ****         }
 2139              		.loc 1 1257 17 view .LVU709
 2140 017e 36B2     		sxth	r6, r6
 2141              	.LVL188:
 2142              	.L119:
1257:lvgl/src/core/lv_refr.c ****         }
 2143              		.loc 1 1257 17 view .LVU710
 2144              	.LBE100:
1210:lvgl/src/core/lv_refr.c ****             lv_coord_t height = LV_MIN(max_row, area_h - row);
 2145              		.loc 1 1210 14 is_stmt 1 view .LVU711
 2146 0180 4E45     		cmp	r6, r9
 2147 0182 43DA     		bge	.L141
 2148              	.LBB101:
1211:lvgl/src/core/lv_refr.c ****             draw_buf->flushing = 1;
 2149              		.loc 1 1211 13 view .LVU712
1211:lvgl/src/core/lv_refr.c ****             draw_buf->flushing = 1;
 2150              		.loc 1 1211 33 is_stmt 0 view .LVU713
 2151 0184 0596     		str	r6, [sp, #20]
 2152 0186 A9EB060A 		sub	r10, r9, r6
 2153 018a 069B     		ldr	r3, [sp, #24]
 2154 018c 9A45     		cmp	r10, r3
 2155 018e A8BF     		it	ge
 2156 0190 9A46     		movge	r10, r3
1211:lvgl/src/core/lv_refr.c ****             draw_buf->flushing = 1;
 2157              		.loc 1 1211 24 view .LVU714
 2158 0192 0FFA8AF7 		sxth	r7, r10
 2159              	.LVL189:
1212:lvgl/src/core/lv_refr.c ****             if((row == 0) && (area_h >= area_w)) {
 2160              		.loc 1 1212 13 is_stmt 1 view .LVU715
1212:lvgl/src/core/lv_refr.c ****             if((row == 0) && (area_h >= area_w)) {
 2161              		.loc 1 1212 32 is_stmt 0 view .LVU716
 2162 0196 0123     		movs	r3, #1
 2163 0198 2B61     		str	r3, [r5, #16]
1213:lvgl/src/core/lv_refr.c ****                 /*Rotate the initial area as a square*/
 2164              		.loc 1 1213 13 is_stmt 1 view .LVU717
1213:lvgl/src/core/lv_refr.c ****                 /*Rotate the initial area as a square*/
 2165              		.loc 1 1213 15 is_stmt 0 view .LVU718
 2166 019a D945     		cmp	r9, fp
 2167 019c A8BF     		it	ge
 2168 019e 002E     		cmpge	r6, #0
 2169 01a0 98D0     		beq	.L142
1228:lvgl/src/core/lv_refr.c ****                 draw_buf_rotate_90(drv->rotated == LV_DISP_ROT_270, area_w, height, color_p, rot_bu
 2170              		.loc 1 1228 17 is_stmt 1 view .LVU719
1228:lvgl/src/core/lv_refr.c ****                 draw_buf_rotate_90(drv->rotated == LV_DISP_ROT_270, area_w, height, color_p, rot_bu
 2171              		.loc 1 1228 19 is_stmt 0 view .LVU720
 2172 01a2 049B     		ldr	r3, [sp, #16]
 2173 01a4 002B     		cmp	r3, #0
 2174 01a6 C0D0     		beq	.L143
 2175              	.L124:
1229:lvgl/src/core/lv_refr.c **** 
 2176              		.loc 1 1229 17 is_stmt 1 view .LVU721
1229:lvgl/src/core/lv_refr.c **** 
 2177              		.loc 1 1229 49 is_stmt 0 view .LVU722
 2178 01a8 207C     		ldrb	r0, [r4, #16]	@ zero_extendqisi2
ARM GAS  C:\Users\OSD\AppData\Local\Temp\cceLTvBX.s 			page 74


1229:lvgl/src/core/lv_refr.c **** 
 2179              		.loc 1 1229 17 view .LVU723
 2180 01aa 00F03000 		and	r0, r0, #48
 2181 01ae 049B     		ldr	r3, [sp, #16]
 2182 01b0 0093     		str	r3, [sp]
 2183 01b2 039B     		ldr	r3, [sp, #12]
 2184 01b4 3A46     		mov	r2, r7
 2185 01b6 5946     		mov	r1, fp
 2186 01b8 3028     		cmp	r0, #48
 2187 01ba 14BF     		ite	ne
 2188 01bc 0020     		movne	r0, #0
 2189 01be 0120     		moveq	r0, #1
 2190 01c0 FFF7FEFF 		bl	draw_buf_rotate_90
 2191              	.LVL190:
1231:lvgl/src/core/lv_refr.c ****                     area->x1 = init_y_off + row;
 2192              		.loc 1 1231 17 is_stmt 1 view .LVU724
1231:lvgl/src/core/lv_refr.c ****                     area->x1 = init_y_off + row;
 2193              		.loc 1 1231 33 is_stmt 0 view .LVU725
 2194 01c4 237C     		ldrb	r3, [r4, #16]	@ zero_extendqisi2
 2195 01c6 03F03003 		and	r3, r3, #48
1231:lvgl/src/core/lv_refr.c ****                     area->x1 = init_y_off + row;
 2196              		.loc 1 1231 19 view .LVU726
 2197 01ca 102B     		cmp	r3, #16
 2198 01cc B3D0     		beq	.L144
1236:lvgl/src/core/lv_refr.c ****                     area->x1 = area->x2 - height + 1;
 2199              		.loc 1 1236 21 is_stmt 1 view .LVU727
1236:lvgl/src/core/lv_refr.c ****                     area->x1 = area->x2 - height + 1;
 2200              		.loc 1 1236 35 is_stmt 0 view .LVU728
 2201 01ce 2388     		ldrh	r3, [r4]
1236:lvgl/src/core/lv_refr.c ****                     area->x1 = area->x2 - height + 1;
 2202              		.loc 1 1236 49 view .LVU729
 2203 01d0 079A     		ldr	r2, [sp, #28]
 2204 01d2 9B1A     		subs	r3, r3, r2
 2205 01d4 9BB2     		uxth	r3, r3
1236:lvgl/src/core/lv_refr.c ****                     area->x1 = area->x2 - height + 1;
 2206              		.loc 1 1236 62 view .LVU730
 2207 01d6 9B1B     		subs	r3, r3, r6
 2208 01d8 013B     		subs	r3, r3, #1
 2209 01da 9AB2     		uxth	r2, r3
1236:lvgl/src/core/lv_refr.c ****                     area->x1 = area->x2 - height + 1;
 2210              		.loc 1 1236 30 view .LVU731
 2211 01dc A8F80430 		strh	r3, [r8, #4]	@ movhi
1237:lvgl/src/core/lv_refr.c ****                 }
 2212              		.loc 1 1237 21 is_stmt 1 view .LVU732
1237:lvgl/src/core/lv_refr.c ****                 }
 2213              		.loc 1 1237 41 is_stmt 0 view .LVU733
 2214 01e0 A2EB0A03 		sub	r3, r2, r10
 2215 01e4 9BB2     		uxth	r3, r3
1237:lvgl/src/core/lv_refr.c ****                 }
 2216              		.loc 1 1237 50 view .LVU734
 2217 01e6 0133     		adds	r3, r3, #1
1237:lvgl/src/core/lv_refr.c ****                 }
 2218              		.loc 1 1237 30 view .LVU735
 2219 01e8 A8F80030 		strh	r3, [r8]	@ movhi
 2220              	.LVL191:
 2221              	.L123:
1243:lvgl/src/core/lv_refr.c ****                 draw_buf->flushing_last = 1;
ARM GAS  C:\Users\OSD\AppData\Local\Temp\cceLTvBX.s 			page 75


 2222              		.loc 1 1243 13 is_stmt 1 view .LVU736
1243:lvgl/src/core/lv_refr.c ****                 draw_buf->flushing_last = 1;
 2223              		.loc 1 1243 20 is_stmt 0 view .LVU737
 2224 01ec BA46     		mov	r10, r7
 2225 01ee 059B     		ldr	r3, [sp, #20]
 2226 01f0 3B44     		add	r3, r3, r7
1243:lvgl/src/core/lv_refr.c ****                 draw_buf->flushing_last = 1;
 2227              		.loc 1 1243 15 view .LVU738
 2228 01f2 9945     		cmp	r9, r3
 2229 01f4 AADC     		bgt	.L126
1243:lvgl/src/core/lv_refr.c ****                 draw_buf->flushing_last = 1;
 2230              		.loc 1 1243 50 discriminator 1 view .LVU739
 2231 01f6 AB69     		ldr	r3, [r5, #24]
1243:lvgl/src/core/lv_refr.c ****                 draw_buf->flushing_last = 1;
 2232              		.loc 1 1243 39 discriminator 1 view .LVU740
 2233 01f8 13F0010F 		tst	r3, #1
 2234 01fc A6D0     		beq	.L126
1243:lvgl/src/core/lv_refr.c ****                 draw_buf->flushing_last = 1;
 2235              		.loc 1 1243 73 discriminator 2 view .LVU741
 2236 01fe AB69     		ldr	r3, [r5, #24]
1243:lvgl/src/core/lv_refr.c ****                 draw_buf->flushing_last = 1;
 2237              		.loc 1 1243 62 discriminator 2 view .LVU742
 2238 0200 13F0020F 		tst	r3, #2
 2239 0204 A2D0     		beq	.L126
1244:lvgl/src/core/lv_refr.c ****             }
 2240              		.loc 1 1244 17 is_stmt 1 view .LVU743
1244:lvgl/src/core/lv_refr.c ****             }
 2241              		.loc 1 1244 41 is_stmt 0 view .LVU744
 2242 0206 0123     		movs	r3, #1
 2243 0208 6B61     		str	r3, [r5, #20]
 2244 020a A1E7     		b	.L127
 2245              	.LVL192:
 2246              	.L141:
1244:lvgl/src/core/lv_refr.c ****             }
 2247              		.loc 1 1244 41 view .LVU745
 2248              	.LBE101:
1260:lvgl/src/core/lv_refr.c ****     }
 2249              		.loc 1 1260 9 is_stmt 1 view .LVU746
1260:lvgl/src/core/lv_refr.c ****     }
 2250              		.loc 1 1260 11 is_stmt 0 view .LVU747
 2251 020c 049B     		ldr	r3, [sp, #16]
 2252 020e 002B     		cmp	r3, #0
 2253 0210 3FF40DAF 		beq	.L114
1260:lvgl/src/core/lv_refr.c ****     }
 2254              		.loc 1 1260 29 is_stmt 1 discriminator 1 view .LVU748
 2255 0214 1846     		mov	r0, r3
 2256 0216 FFF7FEFF 		bl	lv_mem_buf_release
 2257              	.LVL193:
 2258 021a 08E7     		b	.L114
 2259              	.L146:
 2260              		.align	2
 2261              	.L145:
 2262 021c 00000000 		.word	.LANCHOR0
 2263              	.LBE94:
 2264              		.cfi_endproc
 2265              	.LFE191:
 2267              		.section	.text.draw_buf_flush,"ax",%progbits
ARM GAS  C:\Users\OSD\AppData\Local\Temp\cceLTvBX.s 			page 76


 2268              		.align	1
 2269              		.syntax unified
 2270              		.thumb
 2271              		.thumb_func
 2273              	draw_buf_flush:
 2274              	.LVL194:
 2275              	.LFB192:
1268:lvgl/src/core/lv_refr.c ****     lv_disp_draw_buf_t * draw_buf = lv_disp_get_draw_buf(disp_refr);
 2276              		.loc 1 1268 1 view -0
 2277              		.cfi_startproc
 2278              		@ args = 0, pretend = 0, frame = 0
 2279              		@ frame_needed = 0, uses_anonymous_args = 0
1268:lvgl/src/core/lv_refr.c ****     lv_disp_draw_buf_t * draw_buf = lv_disp_get_draw_buf(disp_refr);
 2280              		.loc 1 1268 1 is_stmt 0 view .LVU750
 2281 0000 F8B5     		push	{r3, r4, r5, r6, r7, lr}
 2282              		.cfi_def_cfa_offset 24
 2283              		.cfi_offset 3, -24
 2284              		.cfi_offset 4, -20
 2285              		.cfi_offset 5, -16
 2286              		.cfi_offset 6, -12
 2287              		.cfi_offset 7, -8
 2288              		.cfi_offset 14, -4
 2289 0002 0546     		mov	r5, r0
1269:lvgl/src/core/lv_refr.c **** 
 2290              		.loc 1 1269 5 is_stmt 1 view .LVU751
1269:lvgl/src/core/lv_refr.c **** 
 2291              		.loc 1 1269 37 is_stmt 0 view .LVU752
 2292 0004 2E4B     		ldr	r3, .L163
 2293 0006 1868     		ldr	r0, [r3]
 2294              	.LVL195:
1269:lvgl/src/core/lv_refr.c **** 
 2295              		.loc 1 1269 37 view .LVU753
 2296 0008 FFF7FEFF 		bl	lv_disp_get_draw_buf
 2297              	.LVL196:
 2298 000c 0446     		mov	r4, r0
 2299              	.LVL197:
1272:lvgl/src/core/lv_refr.c ****     if(draw_ctx->wait_for_finish) draw_ctx->wait_for_finish(draw_ctx);
 2300              		.loc 1 1272 5 is_stmt 1 view .LVU754
1272:lvgl/src/core/lv_refr.c ****     if(draw_ctx->wait_for_finish) draw_ctx->wait_for_finish(draw_ctx);
 2301              		.loc 1 1272 36 is_stmt 0 view .LVU755
 2302 000e 2B68     		ldr	r3, [r5]
1272:lvgl/src/core/lv_refr.c ****     if(draw_ctx->wait_for_finish) draw_ctx->wait_for_finish(draw_ctx);
 2303              		.loc 1 1272 21 view .LVU756
 2304 0010 DE6B     		ldr	r6, [r3, #60]
 2305              	.LVL198:
1273:lvgl/src/core/lv_refr.c **** 
 2306              		.loc 1 1273 5 is_stmt 1 view .LVU757
1273:lvgl/src/core/lv_refr.c **** 
 2307              		.loc 1 1273 16 is_stmt 0 view .LVU758
 2308 0012 736B     		ldr	r3, [r6, #52]
1273:lvgl/src/core/lv_refr.c **** 
 2309              		.loc 1 1273 7 view .LVU759
 2310 0014 0BB1     		cbz	r3, .L148
1273:lvgl/src/core/lv_refr.c **** 
 2311              		.loc 1 1273 35 is_stmt 1 discriminator 1 view .LVU760
 2312 0016 3046     		mov	r0, r6
 2313              	.LVL199:
ARM GAS  C:\Users\OSD\AppData\Local\Temp\cceLTvBX.s 			page 77


1273:lvgl/src/core/lv_refr.c **** 
 2314              		.loc 1 1273 35 is_stmt 0 discriminator 1 view .LVU761
 2315 0018 9847     		blx	r3
 2316              	.LVL200:
 2317              	.L148:
1277:lvgl/src/core/lv_refr.c ****     if(draw_buf->buf1 && draw_buf->buf2 && !full_sized) {
 2318              		.loc 1 1277 5 is_stmt 1 view .LVU762
1277:lvgl/src/core/lv_refr.c ****     if(draw_buf->buf1 && draw_buf->buf2 && !full_sized) {
 2319              		.loc 1 1277 31 is_stmt 0 view .LVU763
 2320 001a E168     		ldr	r1, [r4, #12]
1277:lvgl/src/core/lv_refr.c ****     if(draw_buf->buf1 && draw_buf->buf2 && !full_sized) {
 2321              		.loc 1 1277 60 view .LVU764
 2322 001c 284B     		ldr	r3, .L163
 2323 001e 1B68     		ldr	r3, [r3]
 2324 0020 1A68     		ldr	r2, [r3]
1277:lvgl/src/core/lv_refr.c ****     if(draw_buf->buf1 && draw_buf->buf2 && !full_sized) {
 2325              		.loc 1 1277 68 view .LVU765
 2326 0022 B2F90030 		ldrsh	r3, [r2]
1277:lvgl/src/core/lv_refr.c ****     if(draw_buf->buf1 && draw_buf->buf2 && !full_sized) {
 2327              		.loc 1 1277 97 view .LVU766
 2328 0026 B2F90220 		ldrsh	r2, [r2, #2]
1277:lvgl/src/core/lv_refr.c ****     if(draw_buf->buf1 && draw_buf->buf2 && !full_sized) {
 2329              		.loc 1 1277 78 view .LVU767
 2330 002a 02FB03F3 		mul	r3, r2, r3
 2331              	.LVL201:
1278:lvgl/src/core/lv_refr.c ****         while(draw_buf->flushing) {
 2332              		.loc 1 1278 5 is_stmt 1 view .LVU768
1278:lvgl/src/core/lv_refr.c ****         while(draw_buf->flushing) {
 2333              		.loc 1 1278 16 is_stmt 0 view .LVU769
 2334 002e 2268     		ldr	r2, [r4]
1278:lvgl/src/core/lv_refr.c ****         while(draw_buf->flushing) {
 2335              		.loc 1 1278 7 view .LVU770
 2336 0030 6AB1     		cbz	r2, .L149
1278:lvgl/src/core/lv_refr.c ****         while(draw_buf->flushing) {
 2337              		.loc 1 1278 34 discriminator 1 view .LVU771
 2338 0032 6268     		ldr	r2, [r4, #4]
1278:lvgl/src/core/lv_refr.c ****         while(draw_buf->flushing) {
 2339              		.loc 1 1278 23 discriminator 1 view .LVU772
 2340 0034 5AB1     		cbz	r2, .L149
1278:lvgl/src/core/lv_refr.c ****         while(draw_buf->flushing) {
 2341              		.loc 1 1278 41 discriminator 2 view .LVU773
 2342 0036 9942     		cmp	r1, r3
 2343 0038 09D0     		beq	.L149
 2344              	.LVL202:
 2345              	.L151:
1279:lvgl/src/core/lv_refr.c ****             if(disp_refr->driver->wait_cb) disp_refr->driver->wait_cb(disp_refr->driver);
 2346              		.loc 1 1279 14 is_stmt 1 view .LVU774
1279:lvgl/src/core/lv_refr.c ****             if(disp_refr->driver->wait_cb) disp_refr->driver->wait_cb(disp_refr->driver);
 2347              		.loc 1 1279 23 is_stmt 0 view .LVU775
 2348 003a 2369     		ldr	r3, [r4, #16]
1279:lvgl/src/core/lv_refr.c ****             if(disp_refr->driver->wait_cb) disp_refr->driver->wait_cb(disp_refr->driver);
 2349              		.loc 1 1279 14 view .LVU776
 2350 003c 3BB1     		cbz	r3, .L149
1280:lvgl/src/core/lv_refr.c ****         }
 2351              		.loc 1 1280 13 is_stmt 1 view .LVU777
1280:lvgl/src/core/lv_refr.c ****         }
 2352              		.loc 1 1280 25 is_stmt 0 view .LVU778
ARM GAS  C:\Users\OSD\AppData\Local\Temp\cceLTvBX.s 			page 78


 2353 003e 204B     		ldr	r3, .L163
 2354 0040 1B68     		ldr	r3, [r3]
 2355 0042 1868     		ldr	r0, [r3]
1280:lvgl/src/core/lv_refr.c ****         }
 2356              		.loc 1 1280 33 view .LVU779
 2357 0044 836A     		ldr	r3, [r0, #40]
1280:lvgl/src/core/lv_refr.c ****         }
 2358              		.loc 1 1280 15 view .LVU780
 2359 0046 002B     		cmp	r3, #0
 2360 0048 F7D0     		beq	.L151
1280:lvgl/src/core/lv_refr.c ****         }
 2361              		.loc 1 1280 44 is_stmt 1 discriminator 1 view .LVU781
 2362 004a 9847     		blx	r3
 2363              	.LVL203:
 2364 004c F5E7     		b	.L151
 2365              	.L149:
1284:lvgl/src/core/lv_refr.c **** 
 2366              		.loc 1 1284 5 view .LVU782
1284:lvgl/src/core/lv_refr.c **** 
 2367              		.loc 1 1284 24 is_stmt 0 view .LVU783
 2368 004e 0123     		movs	r3, #1
 2369 0050 2361     		str	r3, [r4, #16]
1286:lvgl/src/core/lv_refr.c ****     else draw_buf->flushing_last = 0;
 2370              		.loc 1 1286 5 is_stmt 1 view .LVU784
1286:lvgl/src/core/lv_refr.c ****     else draw_buf->flushing_last = 0;
 2371              		.loc 1 1286 17 is_stmt 0 view .LVU785
 2372 0052 1B4B     		ldr	r3, .L163
 2373 0054 1B68     		ldr	r3, [r3]
 2374 0056 1B68     		ldr	r3, [r3]
1286:lvgl/src/core/lv_refr.c ****     else draw_buf->flushing_last = 0;
 2375              		.loc 1 1286 25 view .LVU786
 2376 0058 DB68     		ldr	r3, [r3, #12]
1286:lvgl/src/core/lv_refr.c ****     else draw_buf->flushing_last = 0;
 2377              		.loc 1 1286 35 view .LVU787
 2378 005a 9A69     		ldr	r2, [r3, #24]
1286:lvgl/src/core/lv_refr.c ****     else draw_buf->flushing_last = 0;
 2379              		.loc 1 1286 7 view .LVU788
 2380 005c 12F0010F 		tst	r2, #1
 2381 0060 06D0     		beq	.L153
1286:lvgl/src/core/lv_refr.c ****     else draw_buf->flushing_last = 0;
 2382              		.loc 1 1286 77 discriminator 1 view .LVU789
 2383 0062 9B69     		ldr	r3, [r3, #24]
1286:lvgl/src/core/lv_refr.c ****     else draw_buf->flushing_last = 0;
 2384              		.loc 1 1286 47 discriminator 1 view .LVU790
 2385 0064 13F0020F 		tst	r3, #2
 2386 0068 02D0     		beq	.L153
1286:lvgl/src/core/lv_refr.c ****     else draw_buf->flushing_last = 0;
 2387              		.loc 1 1286 90 is_stmt 1 discriminator 2 view .LVU791
1286:lvgl/src/core/lv_refr.c ****     else draw_buf->flushing_last = 0;
 2388              		.loc 1 1286 114 is_stmt 0 discriminator 2 view .LVU792
 2389 006a 0123     		movs	r3, #1
 2390 006c 6361     		str	r3, [r4, #20]
 2391 006e 01E0     		b	.L154
 2392              	.L153:
1287:lvgl/src/core/lv_refr.c **** 
 2393              		.loc 1 1287 10 is_stmt 1 view .LVU793
1287:lvgl/src/core/lv_refr.c **** 
ARM GAS  C:\Users\OSD\AppData\Local\Temp\cceLTvBX.s 			page 79


 2394              		.loc 1 1287 34 is_stmt 0 view .LVU794
 2395 0070 0023     		movs	r3, #0
 2396 0072 6361     		str	r3, [r4, #20]
 2397              	.L154:
1289:lvgl/src/core/lv_refr.c **** 
 2398              		.loc 1 1289 5 is_stmt 1 view .LVU795
1289:lvgl/src/core/lv_refr.c **** 
