ARM GAS  C:\Users\OSD\AppData\Local\Temp\ccJ364Vh.s 			page 1


   1              		.cpu cortex-m7
   2              		.arch armv7e-m
   3              		.fpu fpv5-d16
   4              		.eabi_attribute 28, 1
   5              		.eabi_attribute 20, 1
   6              		.eabi_attribute 21, 1
   7              		.eabi_attribute 23, 3
   8              		.eabi_attribute 24, 1
   9              		.eabi_attribute 25, 1
  10              		.eabi_attribute 26, 1
  11              		.eabi_attribute 30, 1
  12              		.eabi_attribute 34, 1
  13              		.eabi_attribute 18, 4
  14              		.file	"lv_style_gen.c"
  15              		.text
  16              	.Ltext0:
  17              		.cfi_sections	.debug_frame
  18              		.section	.text.lv_style_set_width,"ax",%progbits
  19              		.align	1
  20              		.global	lv_style_set_width
  21              		.syntax unified
  22              		.thumb
  23              		.thumb_func
  25              	lv_style_set_width:
  26              	.LVL0:
  27              	.LFB54:
  28              		.file 1 "lvgl/src/misc/lv_style_gen.c"
   1:lvgl/src/misc/lv_style_gen.c **** #include "lv_style.h"
   2:lvgl/src/misc/lv_style_gen.c **** 
   3:lvgl/src/misc/lv_style_gen.c **** void lv_style_set_width(lv_style_t * style, lv_coord_t value)
   4:lvgl/src/misc/lv_style_gen.c **** {
  29              		.loc 1 4 1 view -0
  30              		.cfi_startproc
  31              		@ args = 0, pretend = 0, frame = 0
  32              		@ frame_needed = 0, uses_anonymous_args = 0
  33              		.loc 1 4 1 is_stmt 0 view .LVU1
  34 0000 08B5     		push	{r3, lr}
  35              		.cfi_def_cfa_offset 8
  36              		.cfi_offset 3, -8
  37              		.cfi_offset 14, -4
  38 0002 0A46     		mov	r2, r1
   5:lvgl/src/misc/lv_style_gen.c ****     lv_style_value_t v = {
  39              		.loc 1 5 5 is_stmt 1 view .LVU2
   6:lvgl/src/misc/lv_style_gen.c ****         .num = (int32_t)value
   7:lvgl/src/misc/lv_style_gen.c ****     };
   8:lvgl/src/misc/lv_style_gen.c ****     lv_style_set_prop(style, LV_STYLE_WIDTH, v);
  40              		.loc 1 8 5 view .LVU3
  41 0004 0121     		movs	r1, #1
  42              	.LVL1:
  43              		.loc 1 8 5 is_stmt 0 view .LVU4
  44 0006 FFF7FEFF 		bl	lv_style_set_prop
  45              	.LVL2:
   9:lvgl/src/misc/lv_style_gen.c **** }
  46              		.loc 1 9 1 view .LVU5
  47 000a 08BD     		pop	{r3, pc}
  48              		.cfi_endproc
  49              	.LFE54:
ARM GAS  C:\Users\OSD\AppData\Local\Temp\ccJ364Vh.s 			page 2


  51              		.section	.text.lv_style_set_min_width,"ax",%progbits
  52              		.align	1
  53              		.global	lv_style_set_min_width
  54              		.syntax unified
  55              		.thumb
  56              		.thumb_func
  58              	lv_style_set_min_width:
  59              	.LVL3:
  60              	.LFB55:
  10:lvgl/src/misc/lv_style_gen.c **** 
  11:lvgl/src/misc/lv_style_gen.c **** void lv_style_set_min_width(lv_style_t * style, lv_coord_t value)
  12:lvgl/src/misc/lv_style_gen.c **** {
  61              		.loc 1 12 1 is_stmt 1 view -0
  62              		.cfi_startproc
  63              		@ args = 0, pretend = 0, frame = 0
  64              		@ frame_needed = 0, uses_anonymous_args = 0
  65              		.loc 1 12 1 is_stmt 0 view .LVU7
  66 0000 08B5     		push	{r3, lr}
  67              		.cfi_def_cfa_offset 8
  68              		.cfi_offset 3, -8
  69              		.cfi_offset 14, -4
  70 0002 0A46     		mov	r2, r1
  13:lvgl/src/misc/lv_style_gen.c ****     lv_style_value_t v = {
  71              		.loc 1 13 5 is_stmt 1 view .LVU8
  14:lvgl/src/misc/lv_style_gen.c ****         .num = (int32_t)value
  15:lvgl/src/misc/lv_style_gen.c ****     };
  16:lvgl/src/misc/lv_style_gen.c ****     lv_style_set_prop(style, LV_STYLE_MIN_WIDTH, v);
  72              		.loc 1 16 5 view .LVU9
  73 0004 0221     		movs	r1, #2
  74              	.LVL4:
  75              		.loc 1 16 5 is_stmt 0 view .LVU10
  76 0006 FFF7FEFF 		bl	lv_style_set_prop
  77              	.LVL5:
  17:lvgl/src/misc/lv_style_gen.c **** }
  78              		.loc 1 17 1 view .LVU11
  79 000a 08BD     		pop	{r3, pc}
  80              		.cfi_endproc
  81              	.LFE55:
  83              		.section	.text.lv_style_set_max_width,"ax",%progbits
  84              		.align	1
  85              		.global	lv_style_set_max_width
  86              		.syntax unified
  87              		.thumb
  88              		.thumb_func
  90              	lv_style_set_max_width:
  91              	.LVL6:
  92              	.LFB56:
  18:lvgl/src/misc/lv_style_gen.c **** 
  19:lvgl/src/misc/lv_style_gen.c **** void lv_style_set_max_width(lv_style_t * style, lv_coord_t value)
  20:lvgl/src/misc/lv_style_gen.c **** {
  93              		.loc 1 20 1 is_stmt 1 view -0
  94              		.cfi_startproc
  95              		@ args = 0, pretend = 0, frame = 0
  96              		@ frame_needed = 0, uses_anonymous_args = 0
  97              		.loc 1 20 1 is_stmt 0 view .LVU13
  98 0000 08B5     		push	{r3, lr}
  99              		.cfi_def_cfa_offset 8
ARM GAS  C:\Users\OSD\AppData\Local\Temp\ccJ364Vh.s 			page 3


 100              		.cfi_offset 3, -8
 101              		.cfi_offset 14, -4
 102 0002 0A46     		mov	r2, r1
  21:lvgl/src/misc/lv_style_gen.c ****     lv_style_value_t v = {
 103              		.loc 1 21 5 is_stmt 1 view .LVU14
  22:lvgl/src/misc/lv_style_gen.c ****         .num = (int32_t)value
  23:lvgl/src/misc/lv_style_gen.c ****     };
  24:lvgl/src/misc/lv_style_gen.c ****     lv_style_set_prop(style, LV_STYLE_MAX_WIDTH, v);
 104              		.loc 1 24 5 view .LVU15
 105 0004 0321     		movs	r1, #3
 106              	.LVL7:
 107              		.loc 1 24 5 is_stmt 0 view .LVU16
 108 0006 FFF7FEFF 		bl	lv_style_set_prop
 109              	.LVL8:
  25:lvgl/src/misc/lv_style_gen.c **** }
 110              		.loc 1 25 1 view .LVU17
 111 000a 08BD     		pop	{r3, pc}
 112              		.cfi_endproc
 113              	.LFE56:
 115              		.section	.text.lv_style_set_height,"ax",%progbits
 116              		.align	1
 117              		.global	lv_style_set_height
 118              		.syntax unified
 119              		.thumb
 120              		.thumb_func
 122              	lv_style_set_height:
 123              	.LVL9:
 124              	.LFB57:
  26:lvgl/src/misc/lv_style_gen.c **** 
  27:lvgl/src/misc/lv_style_gen.c **** void lv_style_set_height(lv_style_t * style, lv_coord_t value)
  28:lvgl/src/misc/lv_style_gen.c **** {
 125              		.loc 1 28 1 is_stmt 1 view -0
 126              		.cfi_startproc
 127              		@ args = 0, pretend = 0, frame = 0
 128              		@ frame_needed = 0, uses_anonymous_args = 0
 129              		.loc 1 28 1 is_stmt 0 view .LVU19
 130 0000 08B5     		push	{r3, lr}
 131              		.cfi_def_cfa_offset 8
 132              		.cfi_offset 3, -8
 133              		.cfi_offset 14, -4
 134 0002 0A46     		mov	r2, r1
  29:lvgl/src/misc/lv_style_gen.c ****     lv_style_value_t v = {
 135              		.loc 1 29 5 is_stmt 1 view .LVU20
  30:lvgl/src/misc/lv_style_gen.c ****         .num = (int32_t)value
  31:lvgl/src/misc/lv_style_gen.c ****     };
  32:lvgl/src/misc/lv_style_gen.c ****     lv_style_set_prop(style, LV_STYLE_HEIGHT, v);
 136              		.loc 1 32 5 view .LVU21
 137 0004 0421     		movs	r1, #4
 138              	.LVL10:
 139              		.loc 1 32 5 is_stmt 0 view .LVU22
 140 0006 FFF7FEFF 		bl	lv_style_set_prop
 141              	.LVL11:
  33:lvgl/src/misc/lv_style_gen.c **** }
 142              		.loc 1 33 1 view .LVU23
 143 000a 08BD     		pop	{r3, pc}
 144              		.cfi_endproc
 145              	.LFE57:
ARM GAS  C:\Users\OSD\AppData\Local\Temp\ccJ364Vh.s 			page 4


 147              		.section	.text.lv_style_set_min_height,"ax",%progbits
 148              		.align	1
 149              		.global	lv_style_set_min_height
 150              		.syntax unified
 151              		.thumb
 152              		.thumb_func
 154              	lv_style_set_min_height:
 155              	.LVL12:
 156              	.LFB58:
  34:lvgl/src/misc/lv_style_gen.c **** 
  35:lvgl/src/misc/lv_style_gen.c **** void lv_style_set_min_height(lv_style_t * style, lv_coord_t value)
  36:lvgl/src/misc/lv_style_gen.c **** {
 157              		.loc 1 36 1 is_stmt 1 view -0
 158              		.cfi_startproc
 159              		@ args = 0, pretend = 0, frame = 0
 160              		@ frame_needed = 0, uses_anonymous_args = 0
 161              		.loc 1 36 1 is_stmt 0 view .LVU25
 162 0000 08B5     		push	{r3, lr}
 163              		.cfi_def_cfa_offset 8
 164              		.cfi_offset 3, -8
 165              		.cfi_offset 14, -4
 166 0002 0A46     		mov	r2, r1
  37:lvgl/src/misc/lv_style_gen.c ****     lv_style_value_t v = {
 167              		.loc 1 37 5 is_stmt 1 view .LVU26
  38:lvgl/src/misc/lv_style_gen.c ****         .num = (int32_t)value
  39:lvgl/src/misc/lv_style_gen.c ****     };
  40:lvgl/src/misc/lv_style_gen.c ****     lv_style_set_prop(style, LV_STYLE_MIN_HEIGHT, v);
 168              		.loc 1 40 5 view .LVU27
 169 0004 0521     		movs	r1, #5
 170              	.LVL13:
 171              		.loc 1 40 5 is_stmt 0 view .LVU28
 172 0006 FFF7FEFF 		bl	lv_style_set_prop
 173              	.LVL14:
  41:lvgl/src/misc/lv_style_gen.c **** }
 174              		.loc 1 41 1 view .LVU29
 175 000a 08BD     		pop	{r3, pc}
 176              		.cfi_endproc
 177              	.LFE58:
 179              		.section	.text.lv_style_set_max_height,"ax",%progbits
 180              		.align	1
 181              		.global	lv_style_set_max_height
 182              		.syntax unified
 183              		.thumb
 184              		.thumb_func
 186              	lv_style_set_max_height:
 187              	.LVL15:
 188              	.LFB59:
  42:lvgl/src/misc/lv_style_gen.c **** 
  43:lvgl/src/misc/lv_style_gen.c **** void lv_style_set_max_height(lv_style_t * style, lv_coord_t value)
  44:lvgl/src/misc/lv_style_gen.c **** {
 189              		.loc 1 44 1 is_stmt 1 view -0
 190              		.cfi_startproc
 191              		@ args = 0, pretend = 0, frame = 0
 192              		@ frame_needed = 0, uses_anonymous_args = 0
 193              		.loc 1 44 1 is_stmt 0 view .LVU31
 194 0000 08B5     		push	{r3, lr}
 195              		.cfi_def_cfa_offset 8
ARM GAS  C:\Users\OSD\AppData\Local\Temp\ccJ364Vh.s 			page 5


 196              		.cfi_offset 3, -8
 197              		.cfi_offset 14, -4
 198 0002 0A46     		mov	r2, r1
  45:lvgl/src/misc/lv_style_gen.c ****     lv_style_value_t v = {
 199              		.loc 1 45 5 is_stmt 1 view .LVU32
  46:lvgl/src/misc/lv_style_gen.c ****         .num = (int32_t)value
  47:lvgl/src/misc/lv_style_gen.c ****     };
  48:lvgl/src/misc/lv_style_gen.c ****     lv_style_set_prop(style, LV_STYLE_MAX_HEIGHT, v);
 200              		.loc 1 48 5 view .LVU33
 201 0004 0621     		movs	r1, #6
 202              	.LVL16:
 203              		.loc 1 48 5 is_stmt 0 view .LVU34
 204 0006 FFF7FEFF 		bl	lv_style_set_prop
 205              	.LVL17:
  49:lvgl/src/misc/lv_style_gen.c **** }
 206              		.loc 1 49 1 view .LVU35
 207 000a 08BD     		pop	{r3, pc}
 208              		.cfi_endproc
 209              	.LFE59:
 211              		.section	.text.lv_style_set_x,"ax",%progbits
 212              		.align	1
 213              		.global	lv_style_set_x
 214              		.syntax unified
 215              		.thumb
 216              		.thumb_func
 218              	lv_style_set_x:
 219              	.LVL18:
 220              	.LFB60:
  50:lvgl/src/misc/lv_style_gen.c **** 
  51:lvgl/src/misc/lv_style_gen.c **** void lv_style_set_x(lv_style_t * style, lv_coord_t value)
  52:lvgl/src/misc/lv_style_gen.c **** {
 221              		.loc 1 52 1 is_stmt 1 view -0
 222              		.cfi_startproc
 223              		@ args = 0, pretend = 0, frame = 0
 224              		@ frame_needed = 0, uses_anonymous_args = 0
 225              		.loc 1 52 1 is_stmt 0 view .LVU37
 226 0000 08B5     		push	{r3, lr}
 227              		.cfi_def_cfa_offset 8
 228              		.cfi_offset 3, -8
 229              		.cfi_offset 14, -4
 230 0002 0A46     		mov	r2, r1
  53:lvgl/src/misc/lv_style_gen.c ****     lv_style_value_t v = {
 231              		.loc 1 53 5 is_stmt 1 view .LVU38
  54:lvgl/src/misc/lv_style_gen.c ****         .num = (int32_t)value
  55:lvgl/src/misc/lv_style_gen.c ****     };
  56:lvgl/src/misc/lv_style_gen.c ****     lv_style_set_prop(style, LV_STYLE_X, v);
 232              		.loc 1 56 5 view .LVU39
 233 0004 0721     		movs	r1, #7
 234              	.LVL19:
 235              		.loc 1 56 5 is_stmt 0 view .LVU40
 236 0006 FFF7FEFF 		bl	lv_style_set_prop
 237              	.LVL20:
  57:lvgl/src/misc/lv_style_gen.c **** }
 238              		.loc 1 57 1 view .LVU41
 239 000a 08BD     		pop	{r3, pc}
 240              		.cfi_endproc
 241              	.LFE60:
ARM GAS  C:\Users\OSD\AppData\Local\Temp\ccJ364Vh.s 			page 6


 243              		.section	.text.lv_style_set_y,"ax",%progbits
 244              		.align	1
 245              		.global	lv_style_set_y
 246              		.syntax unified
 247              		.thumb
 248              		.thumb_func
 250              	lv_style_set_y:
 251              	.LVL21:
 252              	.LFB61:
  58:lvgl/src/misc/lv_style_gen.c **** 
  59:lvgl/src/misc/lv_style_gen.c **** void lv_style_set_y(lv_style_t * style, lv_coord_t value)
  60:lvgl/src/misc/lv_style_gen.c **** {
 253              		.loc 1 60 1 is_stmt 1 view -0
 254              		.cfi_startproc
 255              		@ args = 0, pretend = 0, frame = 0
 256              		@ frame_needed = 0, uses_anonymous_args = 0
 257              		.loc 1 60 1 is_stmt 0 view .LVU43
 258 0000 08B5     		push	{r3, lr}
 259              		.cfi_def_cfa_offset 8
 260              		.cfi_offset 3, -8
 261              		.cfi_offset 14, -4
 262 0002 0A46     		mov	r2, r1
  61:lvgl/src/misc/lv_style_gen.c ****     lv_style_value_t v = {
 263              		.loc 1 61 5 is_stmt 1 view .LVU44
  62:lvgl/src/misc/lv_style_gen.c ****         .num = (int32_t)value
  63:lvgl/src/misc/lv_style_gen.c ****     };
  64:lvgl/src/misc/lv_style_gen.c ****     lv_style_set_prop(style, LV_STYLE_Y, v);
 264              		.loc 1 64 5 view .LVU45
 265 0004 0821     		movs	r1, #8
 266              	.LVL22:
 267              		.loc 1 64 5 is_stmt 0 view .LVU46
 268 0006 FFF7FEFF 		bl	lv_style_set_prop
 269              	.LVL23:
  65:lvgl/src/misc/lv_style_gen.c **** }
 270              		.loc 1 65 1 view .LVU47
 271 000a 08BD     		pop	{r3, pc}
 272              		.cfi_endproc
 273              	.LFE61:
 275              		.section	.text.lv_style_set_align,"ax",%progbits
 276              		.align	1
 277              		.global	lv_style_set_align
 278              		.syntax unified
 279              		.thumb
 280              		.thumb_func
 282              	lv_style_set_align:
 283              	.LVL24:
 284              	.LFB62:
  66:lvgl/src/misc/lv_style_gen.c **** 
  67:lvgl/src/misc/lv_style_gen.c **** void lv_style_set_align(lv_style_t * style, lv_align_t value)
  68:lvgl/src/misc/lv_style_gen.c **** {
 285              		.loc 1 68 1 is_stmt 1 view -0
 286              		.cfi_startproc
 287              		@ args = 0, pretend = 0, frame = 0
 288              		@ frame_needed = 0, uses_anonymous_args = 0
 289              		.loc 1 68 1 is_stmt 0 view .LVU49
 290 0000 08B5     		push	{r3, lr}
 291              		.cfi_def_cfa_offset 8
ARM GAS  C:\Users\OSD\AppData\Local\Temp\ccJ364Vh.s 			page 7


 292              		.cfi_offset 3, -8
 293              		.cfi_offset 14, -4
 294 0002 0A46     		mov	r2, r1
  69:lvgl/src/misc/lv_style_gen.c ****     lv_style_value_t v = {
 295              		.loc 1 69 5 is_stmt 1 view .LVU50
  70:lvgl/src/misc/lv_style_gen.c ****         .num = (int32_t)value
  71:lvgl/src/misc/lv_style_gen.c ****     };
  72:lvgl/src/misc/lv_style_gen.c ****     lv_style_set_prop(style, LV_STYLE_ALIGN, v);
 296              		.loc 1 72 5 view .LVU51
 297 0004 0921     		movs	r1, #9
 298              	.LVL25:
 299              		.loc 1 72 5 is_stmt 0 view .LVU52
 300 0006 FFF7FEFF 		bl	lv_style_set_prop
 301              	.LVL26:
  73:lvgl/src/misc/lv_style_gen.c **** }
 302              		.loc 1 73 1 view .LVU53
 303 000a 08BD     		pop	{r3, pc}
 304              		.cfi_endproc
 305              	.LFE62:
 307              		.section	.text.lv_style_set_transform_width,"ax",%progbits
 308              		.align	1
 309              		.global	lv_style_set_transform_width
 310              		.syntax unified
 311              		.thumb
 312              		.thumb_func
 314              	lv_style_set_transform_width:
 315              	.LVL27:
 316              	.LFB63:
  74:lvgl/src/misc/lv_style_gen.c **** 
  75:lvgl/src/misc/lv_style_gen.c **** void lv_style_set_transform_width(lv_style_t * style, lv_coord_t value)
  76:lvgl/src/misc/lv_style_gen.c **** {
 317              		.loc 1 76 1 is_stmt 1 view -0
 318              		.cfi_startproc
 319              		@ args = 0, pretend = 0, frame = 0
 320              		@ frame_needed = 0, uses_anonymous_args = 0
 321              		.loc 1 76 1 is_stmt 0 view .LVU55
 322 0000 08B5     		push	{r3, lr}
 323              		.cfi_def_cfa_offset 8
 324              		.cfi_offset 3, -8
 325              		.cfi_offset 14, -4
 326 0002 0A46     		mov	r2, r1
  77:lvgl/src/misc/lv_style_gen.c ****     lv_style_value_t v = {
 327              		.loc 1 77 5 is_stmt 1 view .LVU56
  78:lvgl/src/misc/lv_style_gen.c ****         .num = (int32_t)value
  79:lvgl/src/misc/lv_style_gen.c ****     };
  80:lvgl/src/misc/lv_style_gen.c ****     lv_style_set_prop(style, LV_STYLE_TRANSFORM_WIDTH, v);
 328              		.loc 1 80 5 view .LVU57
 329 0004 6921     		movs	r1, #105
 330              	.LVL28:
 331              		.loc 1 80 5 is_stmt 0 view .LVU58
 332 0006 FFF7FEFF 		bl	lv_style_set_prop
 333              	.LVL29:
  81:lvgl/src/misc/lv_style_gen.c **** }
 334              		.loc 1 81 1 view .LVU59
 335 000a 08BD     		pop	{r3, pc}
 336              		.cfi_endproc
 337              	.LFE63:
ARM GAS  C:\Users\OSD\AppData\Local\Temp\ccJ364Vh.s 			page 8


 339              		.section	.text.lv_style_set_transform_height,"ax",%progbits
 340              		.align	1
 341              		.global	lv_style_set_transform_height
 342              		.syntax unified
 343              		.thumb
 344              		.thumb_func
 346              	lv_style_set_transform_height:
 347              	.LVL30:
 348              	.LFB64:
  82:lvgl/src/misc/lv_style_gen.c **** 
  83:lvgl/src/misc/lv_style_gen.c **** void lv_style_set_transform_height(lv_style_t * style, lv_coord_t value)
  84:lvgl/src/misc/lv_style_gen.c **** {
 349              		.loc 1 84 1 is_stmt 1 view -0
 350              		.cfi_startproc
 351              		@ args = 0, pretend = 0, frame = 0
 352              		@ frame_needed = 0, uses_anonymous_args = 0
 353              		.loc 1 84 1 is_stmt 0 view .LVU61
 354 0000 08B5     		push	{r3, lr}
 355              		.cfi_def_cfa_offset 8
 356              		.cfi_offset 3, -8
 357              		.cfi_offset 14, -4
 358 0002 0A46     		mov	r2, r1
  85:lvgl/src/misc/lv_style_gen.c ****     lv_style_value_t v = {
 359              		.loc 1 85 5 is_stmt 1 view .LVU62
  86:lvgl/src/misc/lv_style_gen.c ****         .num = (int32_t)value
  87:lvgl/src/misc/lv_style_gen.c ****     };
  88:lvgl/src/misc/lv_style_gen.c ****     lv_style_set_prop(style, LV_STYLE_TRANSFORM_HEIGHT, v);
 360              		.loc 1 88 5 view .LVU63
 361 0004 6A21     		movs	r1, #106
 362              	.LVL31:
 363              		.loc 1 88 5 is_stmt 0 view .LVU64
 364 0006 FFF7FEFF 		bl	lv_style_set_prop
 365              	.LVL32:
  89:lvgl/src/misc/lv_style_gen.c **** }
 366              		.loc 1 89 1 view .LVU65
 367 000a 08BD     		pop	{r3, pc}
 368              		.cfi_endproc
 369              	.LFE64:
 371              		.section	.text.lv_style_set_translate_x,"ax",%progbits
 372              		.align	1
 373              		.global	lv_style_set_translate_x
 374              		.syntax unified
 375              		.thumb
 376              		.thumb_func
 378              	lv_style_set_translate_x:
 379              	.LVL33:
 380              	.LFB65:
  90:lvgl/src/misc/lv_style_gen.c **** 
  91:lvgl/src/misc/lv_style_gen.c **** void lv_style_set_translate_x(lv_style_t * style, lv_coord_t value)
  92:lvgl/src/misc/lv_style_gen.c **** {
 381              		.loc 1 92 1 is_stmt 1 view -0
 382              		.cfi_startproc
 383              		@ args = 0, pretend = 0, frame = 0
 384              		@ frame_needed = 0, uses_anonymous_args = 0
 385              		.loc 1 92 1 is_stmt 0 view .LVU67
 386 0000 08B5     		push	{r3, lr}
 387              		.cfi_def_cfa_offset 8
ARM GAS  C:\Users\OSD\AppData\Local\Temp\ccJ364Vh.s 			page 9


 388              		.cfi_offset 3, -8
 389              		.cfi_offset 14, -4
 390 0002 0A46     		mov	r2, r1
  93:lvgl/src/misc/lv_style_gen.c ****     lv_style_value_t v = {
 391              		.loc 1 93 5 is_stmt 1 view .LVU68
  94:lvgl/src/misc/lv_style_gen.c ****         .num = (int32_t)value
  95:lvgl/src/misc/lv_style_gen.c ****     };
  96:lvgl/src/misc/lv_style_gen.c ****     lv_style_set_prop(style, LV_STYLE_TRANSLATE_X, v);
 392              		.loc 1 96 5 view .LVU69
 393 0004 6B21     		movs	r1, #107
 394              	.LVL34:
 395              		.loc 1 96 5 is_stmt 0 view .LVU70
 396 0006 FFF7FEFF 		bl	lv_style_set_prop
 397              	.LVL35:
  97:lvgl/src/misc/lv_style_gen.c **** }
 398              		.loc 1 97 1 view .LVU71
 399 000a 08BD     		pop	{r3, pc}
 400              		.cfi_endproc
 401              	.LFE65:
 403              		.section	.text.lv_style_set_translate_y,"ax",%progbits
 404              		.align	1
 405              		.global	lv_style_set_translate_y
 406              		.syntax unified
 407              		.thumb
 408              		.thumb_func
 410              	lv_style_set_translate_y:
 411              	.LVL36:
 412              	.LFB66:
  98:lvgl/src/misc/lv_style_gen.c **** 
  99:lvgl/src/misc/lv_style_gen.c **** void lv_style_set_translate_y(lv_style_t * style, lv_coord_t value)
 100:lvgl/src/misc/lv_style_gen.c **** {
 413              		.loc 1 100 1 is_stmt 1 view -0
 414              		.cfi_startproc
 415              		@ args = 0, pretend = 0, frame = 0
 416              		@ frame_needed = 0, uses_anonymous_args = 0
 417              		.loc 1 100 1 is_stmt 0 view .LVU73
 418 0000 08B5     		push	{r3, lr}
 419              		.cfi_def_cfa_offset 8
 420              		.cfi_offset 3, -8
 421              		.cfi_offset 14, -4
 422 0002 0A46     		mov	r2, r1
 101:lvgl/src/misc/lv_style_gen.c ****     lv_style_value_t v = {
 423              		.loc 1 101 5 is_stmt 1 view .LVU74
 102:lvgl/src/misc/lv_style_gen.c ****         .num = (int32_t)value
 103:lvgl/src/misc/lv_style_gen.c ****     };
 104:lvgl/src/misc/lv_style_gen.c ****     lv_style_set_prop(style, LV_STYLE_TRANSLATE_Y, v);
 424              		.loc 1 104 5 view .LVU75
 425 0004 6C21     		movs	r1, #108
 426              	.LVL37:
 427              		.loc 1 104 5 is_stmt 0 view .LVU76
 428 0006 FFF7FEFF 		bl	lv_style_set_prop
 429              	.LVL38:
 105:lvgl/src/misc/lv_style_gen.c **** }
 430              		.loc 1 105 1 view .LVU77
 431 000a 08BD     		pop	{r3, pc}
 432              		.cfi_endproc
 433              	.LFE66:
ARM GAS  C:\Users\OSD\AppData\Local\Temp\ccJ364Vh.s 			page 10


 435              		.section	.text.lv_style_set_transform_zoom,"ax",%progbits
 436              		.align	1
 437              		.global	lv_style_set_transform_zoom
 438              		.syntax unified
 439              		.thumb
 440              		.thumb_func
 442              	lv_style_set_transform_zoom:
 443              	.LVL39:
 444              	.LFB67:
 106:lvgl/src/misc/lv_style_gen.c **** 
 107:lvgl/src/misc/lv_style_gen.c **** void lv_style_set_transform_zoom(lv_style_t * style, lv_coord_t value)
 108:lvgl/src/misc/lv_style_gen.c **** {
 445              		.loc 1 108 1 is_stmt 1 view -0
 446              		.cfi_startproc
 447              		@ args = 0, pretend = 0, frame = 0
 448              		@ frame_needed = 0, uses_anonymous_args = 0
 449              		.loc 1 108 1 is_stmt 0 view .LVU79
 450 0000 08B5     		push	{r3, lr}
 451              		.cfi_def_cfa_offset 8
 452              		.cfi_offset 3, -8
 453              		.cfi_offset 14, -4
 454 0002 0A46     		mov	r2, r1
 109:lvgl/src/misc/lv_style_gen.c ****     lv_style_value_t v = {
 455              		.loc 1 109 5 is_stmt 1 view .LVU80
 110:lvgl/src/misc/lv_style_gen.c ****         .num = (int32_t)value
 111:lvgl/src/misc/lv_style_gen.c ****     };
 112:lvgl/src/misc/lv_style_gen.c ****     lv_style_set_prop(style, LV_STYLE_TRANSFORM_ZOOM, v);
 456              		.loc 1 112 5 view .LVU81
 457 0004 6D21     		movs	r1, #109
 458              	.LVL40:
 459              		.loc 1 112 5 is_stmt 0 view .LVU82
 460 0006 FFF7FEFF 		bl	lv_style_set_prop
 461              	.LVL41:
 113:lvgl/src/misc/lv_style_gen.c **** }
 462              		.loc 1 113 1 view .LVU83
 463 000a 08BD     		pop	{r3, pc}
 464              		.cfi_endproc
 465              	.LFE67:
 467              		.section	.text.lv_style_set_transform_angle,"ax",%progbits
 468              		.align	1
 469              		.global	lv_style_set_transform_angle
 470              		.syntax unified
 471              		.thumb
 472              		.thumb_func
 474              	lv_style_set_transform_angle:
 475              	.LVL42:
 476              	.LFB68:
 114:lvgl/src/misc/lv_style_gen.c **** 
 115:lvgl/src/misc/lv_style_gen.c **** void lv_style_set_transform_angle(lv_style_t * style, lv_coord_t value)
 116:lvgl/src/misc/lv_style_gen.c **** {
 477              		.loc 1 116 1 is_stmt 1 view -0
 478              		.cfi_startproc
 479              		@ args = 0, pretend = 0, frame = 0
 480              		@ frame_needed = 0, uses_anonymous_args = 0
 481              		.loc 1 116 1 is_stmt 0 view .LVU85
 482 0000 08B5     		push	{r3, lr}
 483              		.cfi_def_cfa_offset 8
ARM GAS  C:\Users\OSD\AppData\Local\Temp\ccJ364Vh.s 			page 11


 484              		.cfi_offset 3, -8
 485              		.cfi_offset 14, -4
 486 0002 0A46     		mov	r2, r1
 117:lvgl/src/misc/lv_style_gen.c ****     lv_style_value_t v = {
 487              		.loc 1 117 5 is_stmt 1 view .LVU86
 118:lvgl/src/misc/lv_style_gen.c ****         .num = (int32_t)value
 119:lvgl/src/misc/lv_style_gen.c ****     };
 120:lvgl/src/misc/lv_style_gen.c ****     lv_style_set_prop(style, LV_STYLE_TRANSFORM_ANGLE, v);
 488              		.loc 1 120 5 view .LVU87
 489 0004 6E21     		movs	r1, #110
 490              	.LVL43:
 491              		.loc 1 120 5 is_stmt 0 view .LVU88
 492 0006 FFF7FEFF 		bl	lv_style_set_prop
 493              	.LVL44:
 121:lvgl/src/misc/lv_style_gen.c **** }
 494              		.loc 1 121 1 view .LVU89
 495 000a 08BD     		pop	{r3, pc}
 496              		.cfi_endproc
 497              	.LFE68:
 499              		.section	.text.lv_style_set_transform_pivot_x,"ax",%progbits
 500              		.align	1
 501              		.global	lv_style_set_transform_pivot_x
 502              		.syntax unified
 503              		.thumb
 504              		.thumb_func
 506              	lv_style_set_transform_pivot_x:
 507              	.LVL45:
 508              	.LFB69:
 122:lvgl/src/misc/lv_style_gen.c **** 
 123:lvgl/src/misc/lv_style_gen.c **** void lv_style_set_transform_pivot_x(lv_style_t * style, lv_coord_t value)
 124:lvgl/src/misc/lv_style_gen.c **** {
 509              		.loc 1 124 1 is_stmt 1 view -0
 510              		.cfi_startproc
 511              		@ args = 0, pretend = 0, frame = 0
 512              		@ frame_needed = 0, uses_anonymous_args = 0
 513              		.loc 1 124 1 is_stmt 0 view .LVU91
 514 0000 08B5     		push	{r3, lr}
 515              		.cfi_def_cfa_offset 8
 516              		.cfi_offset 3, -8
 517              		.cfi_offset 14, -4
 518 0002 0A46     		mov	r2, r1
 125:lvgl/src/misc/lv_style_gen.c ****     lv_style_value_t v = {
 519              		.loc 1 125 5 is_stmt 1 view .LVU92
 126:lvgl/src/misc/lv_style_gen.c ****         .num = (int32_t)value
 127:lvgl/src/misc/lv_style_gen.c ****     };
 128:lvgl/src/misc/lv_style_gen.c ****     lv_style_set_prop(style, LV_STYLE_TRANSFORM_PIVOT_X, v);
 520              		.loc 1 128 5 view .LVU93
 521 0004 6F21     		movs	r1, #111
 522              	.LVL46:
 523              		.loc 1 128 5 is_stmt 0 view .LVU94
 524 0006 FFF7FEFF 		bl	lv_style_set_prop
 525              	.LVL47:
 129:lvgl/src/misc/lv_style_gen.c **** }
 526              		.loc 1 129 1 view .LVU95
 527 000a 08BD     		pop	{r3, pc}
 528              		.cfi_endproc
 529              	.LFE69:
ARM GAS  C:\Users\OSD\AppData\Local\Temp\ccJ364Vh.s 			page 12


 531              		.section	.text.lv_style_set_transform_pivot_y,"ax",%progbits
 532              		.align	1
 533              		.global	lv_style_set_transform_pivot_y
 534              		.syntax unified
 535              		.thumb
 536              		.thumb_func
 538              	lv_style_set_transform_pivot_y:
 539              	.LVL48:
 540              	.LFB70:
 130:lvgl/src/misc/lv_style_gen.c **** 
 131:lvgl/src/misc/lv_style_gen.c **** void lv_style_set_transform_pivot_y(lv_style_t * style, lv_coord_t value)
 132:lvgl/src/misc/lv_style_gen.c **** {
 541              		.loc 1 132 1 is_stmt 1 view -0
 542              		.cfi_startproc
 543              		@ args = 0, pretend = 0, frame = 0
 544              		@ frame_needed = 0, uses_anonymous_args = 0
 545              		.loc 1 132 1 is_stmt 0 view .LVU97
 546 0000 08B5     		push	{r3, lr}
 547              		.cfi_def_cfa_offset 8
 548              		.cfi_offset 3, -8
 549              		.cfi_offset 14, -4
 550 0002 0A46     		mov	r2, r1
 133:lvgl/src/misc/lv_style_gen.c ****     lv_style_value_t v = {
 551              		.loc 1 133 5 is_stmt 1 view .LVU98
 134:lvgl/src/misc/lv_style_gen.c ****         .num = (int32_t)value
 135:lvgl/src/misc/lv_style_gen.c ****     };
 136:lvgl/src/misc/lv_style_gen.c ****     lv_style_set_prop(style, LV_STYLE_TRANSFORM_PIVOT_Y, v);
 552              		.loc 1 136 5 view .LVU99
 553 0004 7021     		movs	r1, #112
 554              	.LVL49:
 555              		.loc 1 136 5 is_stmt 0 view .LVU100
 556 0006 FFF7FEFF 		bl	lv_style_set_prop
 557              	.LVL50:
 137:lvgl/src/misc/lv_style_gen.c **** }
 558              		.loc 1 137 1 view .LVU101
 559 000a 08BD     		pop	{r3, pc}
 560              		.cfi_endproc
 561              	.LFE70:
 563              		.section	.text.lv_style_set_pad_top,"ax",%progbits
 564              		.align	1
 565              		.global	lv_style_set_pad_top
 566              		.syntax unified
 567              		.thumb
 568              		.thumb_func
 570              	lv_style_set_pad_top:
 571              	.LVL51:
 572              	.LFB71:
 138:lvgl/src/misc/lv_style_gen.c **** 
 139:lvgl/src/misc/lv_style_gen.c **** void lv_style_set_pad_top(lv_style_t * style, lv_coord_t value)
 140:lvgl/src/misc/lv_style_gen.c **** {
 573              		.loc 1 140 1 is_stmt 1 view -0
 574              		.cfi_startproc
 575              		@ args = 0, pretend = 0, frame = 0
 576              		@ frame_needed = 0, uses_anonymous_args = 0
 577              		.loc 1 140 1 is_stmt 0 view .LVU103
 578 0000 08B5     		push	{r3, lr}
 579              		.cfi_def_cfa_offset 8
ARM GAS  C:\Users\OSD\AppData\Local\Temp\ccJ364Vh.s 			page 13


 580              		.cfi_offset 3, -8
 581              		.cfi_offset 14, -4
 582 0002 0A46     		mov	r2, r1
 141:lvgl/src/misc/lv_style_gen.c ****     lv_style_value_t v = {
 583              		.loc 1 141 5 is_stmt 1 view .LVU104
 142:lvgl/src/misc/lv_style_gen.c ****         .num = (int32_t)value
 143:lvgl/src/misc/lv_style_gen.c ****     };
 144:lvgl/src/misc/lv_style_gen.c ****     lv_style_set_prop(style, LV_STYLE_PAD_TOP, v);
 584              		.loc 1 144 5 view .LVU105
 585 0004 1021     		movs	r1, #16
 586              	.LVL52:
 587              		.loc 1 144 5 is_stmt 0 view .LVU106
 588 0006 FFF7FEFF 		bl	lv_style_set_prop
 589              	.LVL53:
 145:lvgl/src/misc/lv_style_gen.c **** }
 590              		.loc 1 145 1 view .LVU107
 591 000a 08BD     		pop	{r3, pc}
 592              		.cfi_endproc
 593              	.LFE71:
 595              		.section	.text.lv_style_set_pad_bottom,"ax",%progbits
 596              		.align	1
 597              		.global	lv_style_set_pad_bottom
 598              		.syntax unified
 599              		.thumb
 600              		.thumb_func
 602              	lv_style_set_pad_bottom:
 603              	.LVL54:
 604              	.LFB72:
 146:lvgl/src/misc/lv_style_gen.c **** 
 147:lvgl/src/misc/lv_style_gen.c **** void lv_style_set_pad_bottom(lv_style_t * style, lv_coord_t value)
 148:lvgl/src/misc/lv_style_gen.c **** {
 605              		.loc 1 148 1 is_stmt 1 view -0
 606              		.cfi_startproc
 607              		@ args = 0, pretend = 0, frame = 0
 608              		@ frame_needed = 0, uses_anonymous_args = 0
 609              		.loc 1 148 1 is_stmt 0 view .LVU109
 610 0000 08B5     		push	{r3, lr}
 611              		.cfi_def_cfa_offset 8
 612              		.cfi_offset 3, -8
 613              		.cfi_offset 14, -4
 614 0002 0A46     		mov	r2, r1
 149:lvgl/src/misc/lv_style_gen.c ****     lv_style_value_t v = {
 615              		.loc 1 149 5 is_stmt 1 view .LVU110
 150:lvgl/src/misc/lv_style_gen.c ****         .num = (int32_t)value
 151:lvgl/src/misc/lv_style_gen.c ****     };
 152:lvgl/src/misc/lv_style_gen.c ****     lv_style_set_prop(style, LV_STYLE_PAD_BOTTOM, v);
 616              		.loc 1 152 5 view .LVU111
 617 0004 1121     		movs	r1, #17
 618              	.LVL55:
 619              		.loc 1 152 5 is_stmt 0 view .LVU112
 620 0006 FFF7FEFF 		bl	lv_style_set_prop
 621              	.LVL56:
 153:lvgl/src/misc/lv_style_gen.c **** }
 622              		.loc 1 153 1 view .LVU113
 623 000a 08BD     		pop	{r3, pc}
 624              		.cfi_endproc
 625              	.LFE72:
ARM GAS  C:\Users\OSD\AppData\Local\Temp\ccJ364Vh.s 			page 14


 627              		.section	.text.lv_style_set_pad_left,"ax",%progbits
 628              		.align	1
 629              		.global	lv_style_set_pad_left
 630              		.syntax unified
 631              		.thumb
 632              		.thumb_func
 634              	lv_style_set_pad_left:
 635              	.LVL57:
 636              	.LFB73:
 154:lvgl/src/misc/lv_style_gen.c **** 
 155:lvgl/src/misc/lv_style_gen.c **** void lv_style_set_pad_left(lv_style_t * style, lv_coord_t value)
 156:lvgl/src/misc/lv_style_gen.c **** {
 637              		.loc 1 156 1 is_stmt 1 view -0
 638              		.cfi_startproc
 639              		@ args = 0, pretend = 0, frame = 0
 640              		@ frame_needed = 0, uses_anonymous_args = 0
 641              		.loc 1 156 1 is_stmt 0 view .LVU115
 642 0000 08B5     		push	{r3, lr}
 643              		.cfi_def_cfa_offset 8
 644              		.cfi_offset 3, -8
 645              		.cfi_offset 14, -4
 646 0002 0A46     		mov	r2, r1
 157:lvgl/src/misc/lv_style_gen.c ****     lv_style_value_t v = {
 647              		.loc 1 157 5 is_stmt 1 view .LVU116
 158:lvgl/src/misc/lv_style_gen.c ****         .num = (int32_t)value
 159:lvgl/src/misc/lv_style_gen.c ****     };
 160:lvgl/src/misc/lv_style_gen.c ****     lv_style_set_prop(style, LV_STYLE_PAD_LEFT, v);
 648              		.loc 1 160 5 view .LVU117
 649 0004 1221     		movs	r1, #18
 650              	.LVL58:
 651              		.loc 1 160 5 is_stmt 0 view .LVU118
 652 0006 FFF7FEFF 		bl	lv_style_set_prop
 653              	.LVL59:
 161:lvgl/src/misc/lv_style_gen.c **** }
 654              		.loc 1 161 1 view .LVU119
 655 000a 08BD     		pop	{r3, pc}
 656              		.cfi_endproc
 657              	.LFE73:
 659              		.section	.text.lv_style_set_pad_right,"ax",%progbits
 660              		.align	1
 661              		.global	lv_style_set_pad_right
 662              		.syntax unified
 663              		.thumb
 664              		.thumb_func
 666              	lv_style_set_pad_right:
 667              	.LVL60:
 668              	.LFB74:
 162:lvgl/src/misc/lv_style_gen.c **** 
 163:lvgl/src/misc/lv_style_gen.c **** void lv_style_set_pad_right(lv_style_t * style, lv_coord_t value)
 164:lvgl/src/misc/lv_style_gen.c **** {
 669              		.loc 1 164 1 is_stmt 1 view -0
 670              		.cfi_startproc
 671              		@ args = 0, pretend = 0, frame = 0
 672              		@ frame_needed = 0, uses_anonymous_args = 0
 673              		.loc 1 164 1 is_stmt 0 view .LVU121
 674 0000 08B5     		push	{r3, lr}
 675              		.cfi_def_cfa_offset 8
ARM GAS  C:\Users\OSD\AppData\Local\Temp\ccJ364Vh.s 			page 15


 676              		.cfi_offset 3, -8
 677              		.cfi_offset 14, -4
 678 0002 0A46     		mov	r2, r1
 165:lvgl/src/misc/lv_style_gen.c ****     lv_style_value_t v = {
 679              		.loc 1 165 5 is_stmt 1 view .LVU122
 166:lvgl/src/misc/lv_style_gen.c ****         .num = (int32_t)value
 167:lvgl/src/misc/lv_style_gen.c ****     };
 168:lvgl/src/misc/lv_style_gen.c ****     lv_style_set_prop(style, LV_STYLE_PAD_RIGHT, v);
 680              		.loc 1 168 5 view .LVU123
 681 0004 1321     		movs	r1, #19
 682              	.LVL61:
 683              		.loc 1 168 5 is_stmt 0 view .LVU124
 684 0006 FFF7FEFF 		bl	lv_style_set_prop
 685              	.LVL62:
 169:lvgl/src/misc/lv_style_gen.c **** }
 686              		.loc 1 169 1 view .LVU125
 687 000a 08BD     		pop	{r3, pc}
 688              		.cfi_endproc
 689              	.LFE74:
 691              		.section	.text.lv_style_set_pad_row,"ax",%progbits
 692              		.align	1
 693              		.global	lv_style_set_pad_row
 694              		.syntax unified
 695              		.thumb
 696              		.thumb_func
 698              	lv_style_set_pad_row:
 699              	.LVL63:
 700              	.LFB75:
 170:lvgl/src/misc/lv_style_gen.c **** 
 171:lvgl/src/misc/lv_style_gen.c **** void lv_style_set_pad_row(lv_style_t * style, lv_coord_t value)
 172:lvgl/src/misc/lv_style_gen.c **** {
 701              		.loc 1 172 1 is_stmt 1 view -0
 702              		.cfi_startproc
 703              		@ args = 0, pretend = 0, frame = 0
 704              		@ frame_needed = 0, uses_anonymous_args = 0
 705              		.loc 1 172 1 is_stmt 0 view .LVU127
 706 0000 08B5     		push	{r3, lr}
 707              		.cfi_def_cfa_offset 8
 708              		.cfi_offset 3, -8
 709              		.cfi_offset 14, -4
 710 0002 0A46     		mov	r2, r1
 173:lvgl/src/misc/lv_style_gen.c ****     lv_style_value_t v = {
 711              		.loc 1 173 5 is_stmt 1 view .LVU128
 174:lvgl/src/misc/lv_style_gen.c ****         .num = (int32_t)value
 175:lvgl/src/misc/lv_style_gen.c ****     };
 176:lvgl/src/misc/lv_style_gen.c ****     lv_style_set_prop(style, LV_STYLE_PAD_ROW, v);
 712              		.loc 1 176 5 view .LVU129
 713 0004 1421     		movs	r1, #20
 714              	.LVL64:
 715              		.loc 1 176 5 is_stmt 0 view .LVU130
 716 0006 FFF7FEFF 		bl	lv_style_set_prop
 717              	.LVL65:
 177:lvgl/src/misc/lv_style_gen.c **** }
 718              		.loc 1 177 1 view .LVU131
 719 000a 08BD     		pop	{r3, pc}
 720              		.cfi_endproc
 721              	.LFE75:
ARM GAS  C:\Users\OSD\AppData\Local\Temp\ccJ364Vh.s 			page 16


 723              		.section	.text.lv_style_set_pad_column,"ax",%progbits
 724              		.align	1
 725              		.global	lv_style_set_pad_column
 726              		.syntax unified
 727              		.thumb
 728              		.thumb_func
 730              	lv_style_set_pad_column:
 731              	.LVL66:
 732              	.LFB76:
 178:lvgl/src/misc/lv_style_gen.c **** 
 179:lvgl/src/misc/lv_style_gen.c **** void lv_style_set_pad_column(lv_style_t * style, lv_coord_t value)
 180:lvgl/src/misc/lv_style_gen.c **** {
 733              		.loc 1 180 1 is_stmt 1 view -0
 734              		.cfi_startproc
 735              		@ args = 0, pretend = 0, frame = 0
 736              		@ frame_needed = 0, uses_anonymous_args = 0
 737              		.loc 1 180 1 is_stmt 0 view .LVU133
 738 0000 08B5     		push	{r3, lr}
 739              		.cfi_def_cfa_offset 8
 740              		.cfi_offset 3, -8
 741              		.cfi_offset 14, -4
 742 0002 0A46     		mov	r2, r1
 181:lvgl/src/misc/lv_style_gen.c ****     lv_style_value_t v = {
 743              		.loc 1 181 5 is_stmt 1 view .LVU134
 182:lvgl/src/misc/lv_style_gen.c ****         .num = (int32_t)value
 183:lvgl/src/misc/lv_style_gen.c ****     };
 184:lvgl/src/misc/lv_style_gen.c ****     lv_style_set_prop(style, LV_STYLE_PAD_COLUMN, v);
 744              		.loc 1 184 5 view .LVU135
 745 0004 1521     		movs	r1, #21
 746              	.LVL67:
 747              		.loc 1 184 5 is_stmt 0 view .LVU136
 748 0006 FFF7FEFF 		bl	lv_style_set_prop
 749              	.LVL68:
 185:lvgl/src/misc/lv_style_gen.c **** }
 750              		.loc 1 185 1 view .LVU137
 751 000a 08BD     		pop	{r3, pc}
 752              		.cfi_endproc
 753              	.LFE76:
 755              		.section	.text.lv_style_set_bg_color,"ax",%progbits
 756              		.align	1
 757              		.global	lv_style_set_bg_color
 758              		.syntax unified
 759              		.thumb
 760              		.thumb_func
 762              	lv_style_set_bg_color:
 763              	.LVL69:
 764              	.LFB77:
 186:lvgl/src/misc/lv_style_gen.c **** 
 187:lvgl/src/misc/lv_style_gen.c **** void lv_style_set_bg_color(lv_style_t * style, lv_color_t value)
 188:lvgl/src/misc/lv_style_gen.c **** {
 765              		.loc 1 188 1 is_stmt 1 view -0
 766              		.cfi_startproc
 767              		@ args = 0, pretend = 0, frame = 0
 768              		@ frame_needed = 0, uses_anonymous_args = 0
 769              		.loc 1 188 1 is_stmt 0 view .LVU139
 770 0000 08B5     		push	{r3, lr}
 771              		.cfi_def_cfa_offset 8
ARM GAS  C:\Users\OSD\AppData\Local\Temp\ccJ364Vh.s 			page 17


 772              		.cfi_offset 3, -8
 773              		.cfi_offset 14, -4
 774 0002 0A46     		mov	r2, r1
 189:lvgl/src/misc/lv_style_gen.c ****     lv_style_value_t v = {
 775              		.loc 1 189 5 is_stmt 1 view .LVU140
 190:lvgl/src/misc/lv_style_gen.c ****         .color = value
 191:lvgl/src/misc/lv_style_gen.c ****     };
 192:lvgl/src/misc/lv_style_gen.c ****     lv_style_set_prop(style, LV_STYLE_BG_COLOR, v);
 776              		.loc 1 192 5 view .LVU141
 777 0004 2021     		movs	r1, #32
 778              	.LVL70:
 779              		.loc 1 192 5 is_stmt 0 view .LVU142
 780 0006 FFF7FEFF 		bl	lv_style_set_prop
 781              	.LVL71:
 193:lvgl/src/misc/lv_style_gen.c **** }
 782              		.loc 1 193 1 view .LVU143
 783 000a 08BD     		pop	{r3, pc}
 784              		.cfi_endproc
 785              	.LFE77:
 787              		.section	.text.lv_style_set_bg_opa,"ax",%progbits
 788              		.align	1
 789              		.global	lv_style_set_bg_opa
 790              		.syntax unified
 791              		.thumb
 792              		.thumb_func
 794              	lv_style_set_bg_opa:
 795              	.LVL72:
 796              	.LFB78:
 194:lvgl/src/misc/lv_style_gen.c **** 
 195:lvgl/src/misc/lv_style_gen.c **** void lv_style_set_bg_opa(lv_style_t * style, lv_opa_t value)
 196:lvgl/src/misc/lv_style_gen.c **** {
 797              		.loc 1 196 1 is_stmt 1 view -0
 798              		.cfi_startproc
 799              		@ args = 0, pretend = 0, frame = 0
 800              		@ frame_needed = 0, uses_anonymous_args = 0
 801              		.loc 1 196 1 is_stmt 0 view .LVU145
 802 0000 08B5     		push	{r3, lr}
 803              		.cfi_def_cfa_offset 8
 804              		.cfi_offset 3, -8
 805              		.cfi_offset 14, -4
 806 0002 0A46     		mov	r2, r1
 197:lvgl/src/misc/lv_style_gen.c ****     lv_style_value_t v = {
 807              		.loc 1 197 5 is_stmt 1 view .LVU146
 198:lvgl/src/misc/lv_style_gen.c ****         .num = (int32_t)value
 199:lvgl/src/misc/lv_style_gen.c ****     };
 200:lvgl/src/misc/lv_style_gen.c ****     lv_style_set_prop(style, LV_STYLE_BG_OPA, v);
 808              		.loc 1 200 5 view .LVU147
 809 0004 2121     		movs	r1, #33
 810              	.LVL73:
 811              		.loc 1 200 5 is_stmt 0 view .LVU148
 812 0006 FFF7FEFF 		bl	lv_style_set_prop
 813              	.LVL74:
 201:lvgl/src/misc/lv_style_gen.c **** }
 814              		.loc 1 201 1 view .LVU149
 815 000a 08BD     		pop	{r3, pc}
 816              		.cfi_endproc
 817              	.LFE78:
ARM GAS  C:\Users\OSD\AppData\Local\Temp\ccJ364Vh.s 			page 18


 819              		.section	.text.lv_style_set_bg_grad_color,"ax",%progbits
 820              		.align	1
 821              		.global	lv_style_set_bg_grad_color
 822              		.syntax unified
 823              		.thumb
 824              		.thumb_func
 826              	lv_style_set_bg_grad_color:
 827              	.LVL75:
 828              	.LFB79:
 202:lvgl/src/misc/lv_style_gen.c **** 
 203:lvgl/src/misc/lv_style_gen.c **** void lv_style_set_bg_grad_color(lv_style_t * style, lv_color_t value)
 204:lvgl/src/misc/lv_style_gen.c **** {
 829              		.loc 1 204 1 is_stmt 1 view -0
 830              		.cfi_startproc
 831              		@ args = 0, pretend = 0, frame = 0
 832              		@ frame_needed = 0, uses_anonymous_args = 0
 833              		.loc 1 204 1 is_stmt 0 view .LVU151
 834 0000 08B5     		push	{r3, lr}
 835              		.cfi_def_cfa_offset 8
 836              		.cfi_offset 3, -8
 837              		.cfi_offset 14, -4
 838 0002 0A46     		mov	r2, r1
 205:lvgl/src/misc/lv_style_gen.c ****     lv_style_value_t v = {
 839              		.loc 1 205 5 is_stmt 1 view .LVU152
 206:lvgl/src/misc/lv_style_gen.c ****         .color = value
 207:lvgl/src/misc/lv_style_gen.c ****     };
 208:lvgl/src/misc/lv_style_gen.c ****     lv_style_set_prop(style, LV_STYLE_BG_GRAD_COLOR, v);
 840              		.loc 1 208 5 view .LVU153
 841 0004 2221     		movs	r1, #34
 842              	.LVL76:
 843              		.loc 1 208 5 is_stmt 0 view .LVU154
 844 0006 FFF7FEFF 		bl	lv_style_set_prop
 845              	.LVL77:
 209:lvgl/src/misc/lv_style_gen.c **** }
 846              		.loc 1 209 1 view .LVU155
 847 000a 08BD     		pop	{r3, pc}
 848              		.cfi_endproc
 849              	.LFE79:
 851              		.section	.text.lv_style_set_bg_grad_dir,"ax",%progbits
 852              		.align	1
 853              		.global	lv_style_set_bg_grad_dir
 854              		.syntax unified
 855              		.thumb
 856              		.thumb_func
 858              	lv_style_set_bg_grad_dir:
 859              	.LVL78:
 860              	.LFB80:
 210:lvgl/src/misc/lv_style_gen.c **** 
 211:lvgl/src/misc/lv_style_gen.c **** void lv_style_set_bg_grad_dir(lv_style_t * style, lv_grad_dir_t value)
 212:lvgl/src/misc/lv_style_gen.c **** {
 861              		.loc 1 212 1 is_stmt 1 view -0
 862              		.cfi_startproc
 863              		@ args = 0, pretend = 0, frame = 0
 864              		@ frame_needed = 0, uses_anonymous_args = 0
 865              		.loc 1 212 1 is_stmt 0 view .LVU157
 866 0000 08B5     		push	{r3, lr}
 867              		.cfi_def_cfa_offset 8
ARM GAS  C:\Users\OSD\AppData\Local\Temp\ccJ364Vh.s 			page 19


 868              		.cfi_offset 3, -8
 869              		.cfi_offset 14, -4
 870 0002 0A46     		mov	r2, r1
 213:lvgl/src/misc/lv_style_gen.c ****     lv_style_value_t v = {
 871              		.loc 1 213 5 is_stmt 1 view .LVU158
 214:lvgl/src/misc/lv_style_gen.c ****         .num = (int32_t)value
 215:lvgl/src/misc/lv_style_gen.c ****     };
 216:lvgl/src/misc/lv_style_gen.c ****     lv_style_set_prop(style, LV_STYLE_BG_GRAD_DIR, v);
 872              		.loc 1 216 5 view .LVU159
 873 0004 2321     		movs	r1, #35
 874              	.LVL79:
 875              		.loc 1 216 5 is_stmt 0 view .LVU160
 876 0006 FFF7FEFF 		bl	lv_style_set_prop
 877              	.LVL80:
 217:lvgl/src/misc/lv_style_gen.c **** }
 878              		.loc 1 217 1 view .LVU161
 879 000a 08BD     		pop	{r3, pc}
 880              		.cfi_endproc
 881              	.LFE80:
 883              		.section	.text.lv_style_set_bg_main_stop,"ax",%progbits
 884              		.align	1
 885              		.global	lv_style_set_bg_main_stop
 886              		.syntax unified
 887              		.thumb
 888              		.thumb_func
 890              	lv_style_set_bg_main_stop:
 891              	.LVL81:
 892              	.LFB81:
 218:lvgl/src/misc/lv_style_gen.c **** 
 219:lvgl/src/misc/lv_style_gen.c **** void lv_style_set_bg_main_stop(lv_style_t * style, lv_coord_t value)
 220:lvgl/src/misc/lv_style_gen.c **** {
 893              		.loc 1 220 1 is_stmt 1 view -0
 894              		.cfi_startproc
 895              		@ args = 0, pretend = 0, frame = 0
 896              		@ frame_needed = 0, uses_anonymous_args = 0
 897              		.loc 1 220 1 is_stmt 0 view .LVU163
 898 0000 08B5     		push	{r3, lr}
 899              		.cfi_def_cfa_offset 8
 900              		.cfi_offset 3, -8
 901              		.cfi_offset 14, -4
 902 0002 0A46     		mov	r2, r1
 221:lvgl/src/misc/lv_style_gen.c ****     lv_style_value_t v = {
 903              		.loc 1 221 5 is_stmt 1 view .LVU164
 222:lvgl/src/misc/lv_style_gen.c ****         .num = (int32_t)value
 223:lvgl/src/misc/lv_style_gen.c ****     };
 224:lvgl/src/misc/lv_style_gen.c ****     lv_style_set_prop(style, LV_STYLE_BG_MAIN_STOP, v);
 904              		.loc 1 224 5 view .LVU165
 905 0004 2421     		movs	r1, #36
 906              	.LVL82:
 907              		.loc 1 224 5 is_stmt 0 view .LVU166
 908 0006 FFF7FEFF 		bl	lv_style_set_prop
 909              	.LVL83:
 225:lvgl/src/misc/lv_style_gen.c **** }
 910              		.loc 1 225 1 view .LVU167
 911 000a 08BD     		pop	{r3, pc}
 912              		.cfi_endproc
 913              	.LFE81:
ARM GAS  C:\Users\OSD\AppData\Local\Temp\ccJ364Vh.s 			page 20


 915              		.section	.text.lv_style_set_bg_grad_stop,"ax",%progbits
 916              		.align	1
 917              		.global	lv_style_set_bg_grad_stop
 918              		.syntax unified
 919              		.thumb
 920              		.thumb_func
 922              	lv_style_set_bg_grad_stop:
 923              	.LVL84:
 924              	.LFB82:
 226:lvgl/src/misc/lv_style_gen.c **** 
 227:lvgl/src/misc/lv_style_gen.c **** void lv_style_set_bg_grad_stop(lv_style_t * style, lv_coord_t value)
 228:lvgl/src/misc/lv_style_gen.c **** {
 925              		.loc 1 228 1 is_stmt 1 view -0
 926              		.cfi_startproc
 927              		@ args = 0, pretend = 0, frame = 0
 928              		@ frame_needed = 0, uses_anonymous_args = 0
 929              		.loc 1 228 1 is_stmt 0 view .LVU169
 930 0000 08B5     		push	{r3, lr}
 931              		.cfi_def_cfa_offset 8
 932              		.cfi_offset 3, -8
 933              		.cfi_offset 14, -4
 934 0002 0A46     		mov	r2, r1
 229:lvgl/src/misc/lv_style_gen.c ****     lv_style_value_t v = {
 935              		.loc 1 229 5 is_stmt 1 view .LVU170
 230:lvgl/src/misc/lv_style_gen.c ****         .num = (int32_t)value
 231:lvgl/src/misc/lv_style_gen.c ****     };
 232:lvgl/src/misc/lv_style_gen.c ****     lv_style_set_prop(style, LV_STYLE_BG_GRAD_STOP, v);
 936              		.loc 1 232 5 view .LVU171
 937 0004 2521     		movs	r1, #37
 938              	.LVL85:
 939              		.loc 1 232 5 is_stmt 0 view .LVU172
 940 0006 FFF7FEFF 		bl	lv_style_set_prop
 941              	.LVL86:
 233:lvgl/src/misc/lv_style_gen.c **** }
 942              		.loc 1 233 1 view .LVU173
 943 000a 08BD     		pop	{r3, pc}
 944              		.cfi_endproc
 945              	.LFE82:
 947              		.section	.text.lv_style_set_bg_grad,"ax",%progbits
 948              		.align	1
 949              		.global	lv_style_set_bg_grad
 950              		.syntax unified
 951              		.thumb
 952              		.thumb_func
 954              	lv_style_set_bg_grad:
 955              	.LVL87:
 956              	.LFB83:
 234:lvgl/src/misc/lv_style_gen.c **** 
 235:lvgl/src/misc/lv_style_gen.c **** void lv_style_set_bg_grad(lv_style_t * style, const lv_grad_dsc_t * value)
 236:lvgl/src/misc/lv_style_gen.c **** {
 957              		.loc 1 236 1 is_stmt 1 view -0
 958              		.cfi_startproc
 959              		@ args = 0, pretend = 0, frame = 0
 960              		@ frame_needed = 0, uses_anonymous_args = 0
 961              		.loc 1 236 1 is_stmt 0 view .LVU175
 962 0000 08B5     		push	{r3, lr}
 963              		.cfi_def_cfa_offset 8
ARM GAS  C:\Users\OSD\AppData\Local\Temp\ccJ364Vh.s 			page 21


 964              		.cfi_offset 3, -8
 965              		.cfi_offset 14, -4
 966 0002 0A46     		mov	r2, r1
 237:lvgl/src/misc/lv_style_gen.c ****     lv_style_value_t v = {
 967              		.loc 1 237 5 is_stmt 1 view .LVU176
 238:lvgl/src/misc/lv_style_gen.c ****         .ptr = value
 239:lvgl/src/misc/lv_style_gen.c ****     };
 240:lvgl/src/misc/lv_style_gen.c ****     lv_style_set_prop(style, LV_STYLE_BG_GRAD, v);
 968              		.loc 1 240 5 view .LVU177
 969 0004 2621     		movs	r1, #38
 970              	.LVL88:
 971              		.loc 1 240 5 is_stmt 0 view .LVU178
 972 0006 FFF7FEFF 		bl	lv_style_set_prop
 973              	.LVL89:
 241:lvgl/src/misc/lv_style_gen.c **** }
 974              		.loc 1 241 1 view .LVU179
 975 000a 08BD     		pop	{r3, pc}
 976              		.cfi_endproc
 977              	.LFE83:
 979              		.section	.text.lv_style_set_bg_dither_mode,"ax",%progbits
 980              		.align	1
 981              		.global	lv_style_set_bg_dither_mode
 982              		.syntax unified
 983              		.thumb
 984              		.thumb_func
 986              	lv_style_set_bg_dither_mode:
 987              	.LVL90:
 988              	.LFB84:
 242:lvgl/src/misc/lv_style_gen.c **** 
 243:lvgl/src/misc/lv_style_gen.c **** void lv_style_set_bg_dither_mode(lv_style_t * style, lv_dither_mode_t value)
 244:lvgl/src/misc/lv_style_gen.c **** {
 989              		.loc 1 244 1 is_stmt 1 view -0
 990              		.cfi_startproc
 991              		@ args = 0, pretend = 0, frame = 0
 992              		@ frame_needed = 0, uses_anonymous_args = 0
 993              		.loc 1 244 1 is_stmt 0 view .LVU181
 994 0000 08B5     		push	{r3, lr}
 995              		.cfi_def_cfa_offset 8
 996              		.cfi_offset 3, -8
 997              		.cfi_offset 14, -4
 998 0002 0A46     		mov	r2, r1
 245:lvgl/src/misc/lv_style_gen.c ****     lv_style_value_t v = {
 999              		.loc 1 245 5 is_stmt 1 view .LVU182
 246:lvgl/src/misc/lv_style_gen.c ****         .num = (int32_t)value
 247:lvgl/src/misc/lv_style_gen.c ****     };
 248:lvgl/src/misc/lv_style_gen.c ****     lv_style_set_prop(style, LV_STYLE_BG_DITHER_MODE, v);
 1000              		.loc 1 248 5 view .LVU183
 1001 0004 2721     		movs	r1, #39
 1002              	.LVL91:
 1003              		.loc 1 248 5 is_stmt 0 view .LVU184
 1004 0006 FFF7FEFF 		bl	lv_style_set_prop
 1005              	.LVL92:
 249:lvgl/src/misc/lv_style_gen.c **** }
 1006              		.loc 1 249 1 view .LVU185
 1007 000a 08BD     		pop	{r3, pc}
 1008              		.cfi_endproc
 1009              	.LFE84:
ARM GAS  C:\Users\OSD\AppData\Local\Temp\ccJ364Vh.s 			page 22


 1011              		.section	.text.lv_style_set_bg_img_src,"ax",%progbits
 1012              		.align	1
 1013              		.global	lv_style_set_bg_img_src
 1014              		.syntax unified
 1015              		.thumb
 1016              		.thumb_func
 1018              	lv_style_set_bg_img_src:
 1019              	.LVL93:
 1020              	.LFB85:
 250:lvgl/src/misc/lv_style_gen.c **** 
 251:lvgl/src/misc/lv_style_gen.c **** void lv_style_set_bg_img_src(lv_style_t * style, const void * value)
 252:lvgl/src/misc/lv_style_gen.c **** {
 1021              		.loc 1 252 1 is_stmt 1 view -0
 1022              		.cfi_startproc
 1023              		@ args = 0, pretend = 0, frame = 0
 1024              		@ frame_needed = 0, uses_anonymous_args = 0
 1025              		.loc 1 252 1 is_stmt 0 view .LVU187
 1026 0000 08B5     		push	{r3, lr}
 1027              		.cfi_def_cfa_offset 8
 1028              		.cfi_offset 3, -8
 1029              		.cfi_offset 14, -4
 1030 0002 0A46     		mov	r2, r1
 253:lvgl/src/misc/lv_style_gen.c ****     lv_style_value_t v = {
 1031              		.loc 1 253 5 is_stmt 1 view .LVU188
 254:lvgl/src/misc/lv_style_gen.c ****         .ptr = value
 255:lvgl/src/misc/lv_style_gen.c ****     };
 256:lvgl/src/misc/lv_style_gen.c ****     lv_style_set_prop(style, LV_STYLE_BG_IMG_SRC, v);
 1032              		.loc 1 256 5 view .LVU189
 1033 0004 2821     		movs	r1, #40
 1034              	.LVL94:
 1035              		.loc 1 256 5 is_stmt 0 view .LVU190
 1036 0006 FFF7FEFF 		bl	lv_style_set_prop
 1037              	.LVL95:
 257:lvgl/src/misc/lv_style_gen.c **** }
 1038              		.loc 1 257 1 view .LVU191
 1039 000a 08BD     		pop	{r3, pc}
 1040              		.cfi_endproc
 1041              	.LFE85:
 1043              		.section	.text.lv_style_set_bg_img_opa,"ax",%progbits
 1044              		.align	1
 1045              		.global	lv_style_set_bg_img_opa
 1046              		.syntax unified
 1047              		.thumb
 1048              		.thumb_func
 1050              	lv_style_set_bg_img_opa:
 1051              	.LVL96:
 1052              	.LFB86:
 258:lvgl/src/misc/lv_style_gen.c **** 
 259:lvgl/src/misc/lv_style_gen.c **** void lv_style_set_bg_img_opa(lv_style_t * style, lv_opa_t value)
 260:lvgl/src/misc/lv_style_gen.c **** {
 1053              		.loc 1 260 1 is_stmt 1 view -0
 1054              		.cfi_startproc
 1055              		@ args = 0, pretend = 0, frame = 0
 1056              		@ frame_needed = 0, uses_anonymous_args = 0
 1057              		.loc 1 260 1 is_stmt 0 view .LVU193
 1058 0000 08B5     		push	{r3, lr}
 1059              		.cfi_def_cfa_offset 8
ARM GAS  C:\Users\OSD\AppData\Local\Temp\ccJ364Vh.s 			page 23


 1060              		.cfi_offset 3, -8
 1061              		.cfi_offset 14, -4
 1062 0002 0A46     		mov	r2, r1
 261:lvgl/src/misc/lv_style_gen.c ****     lv_style_value_t v = {
 1063              		.loc 1 261 5 is_stmt 1 view .LVU194
 262:lvgl/src/misc/lv_style_gen.c ****         .num = (int32_t)value
 263:lvgl/src/misc/lv_style_gen.c ****     };
 264:lvgl/src/misc/lv_style_gen.c ****     lv_style_set_prop(style, LV_STYLE_BG_IMG_OPA, v);
 1064              		.loc 1 264 5 view .LVU195
 1065 0004 2921     		movs	r1, #41
 1066              	.LVL97:
 1067              		.loc 1 264 5 is_stmt 0 view .LVU196
 1068 0006 FFF7FEFF 		bl	lv_style_set_prop
 1069              	.LVL98:
 265:lvgl/src/misc/lv_style_gen.c **** }
 1070              		.loc 1 265 1 view .LVU197
 1071 000a 08BD     		pop	{r3, pc}
 1072              		.cfi_endproc
 1073              	.LFE86:
 1075              		.section	.text.lv_style_set_bg_img_recolor,"ax",%progbits
 1076              		.align	1
 1077              		.global	lv_style_set_bg_img_recolor
 1078              		.syntax unified
 1079              		.thumb
 1080              		.thumb_func
 1082              	lv_style_set_bg_img_recolor:
 1083              	.LVL99:
 1084              	.LFB87:
 266:lvgl/src/misc/lv_style_gen.c **** 
 267:lvgl/src/misc/lv_style_gen.c **** void lv_style_set_bg_img_recolor(lv_style_t * style, lv_color_t value)
 268:lvgl/src/misc/lv_style_gen.c **** {
 1085              		.loc 1 268 1 is_stmt 1 view -0
 1086              		.cfi_startproc
 1087              		@ args = 0, pretend = 0, frame = 0
 1088              		@ frame_needed = 0, uses_anonymous_args = 0
 1089              		.loc 1 268 1 is_stmt 0 view .LVU199
 1090 0000 08B5     		push	{r3, lr}
 1091              		.cfi_def_cfa_offset 8
 1092              		.cfi_offset 3, -8
 1093              		.cfi_offset 14, -4
 1094 0002 0A46     		mov	r2, r1
 269:lvgl/src/misc/lv_style_gen.c ****     lv_style_value_t v = {
 1095              		.loc 1 269 5 is_stmt 1 view .LVU200
 270:lvgl/src/misc/lv_style_gen.c ****         .color = value
 271:lvgl/src/misc/lv_style_gen.c ****     };
 272:lvgl/src/misc/lv_style_gen.c ****     lv_style_set_prop(style, LV_STYLE_BG_IMG_RECOLOR, v);
 1096              		.loc 1 272 5 view .LVU201
 1097 0004 2A21     		movs	r1, #42
 1098              	.LVL100:
 1099              		.loc 1 272 5 is_stmt 0 view .LVU202
 1100 0006 FFF7FEFF 		bl	lv_style_set_prop
 1101              	.LVL101:
 273:lvgl/src/misc/lv_style_gen.c **** }
 1102              		.loc 1 273 1 view .LVU203
 1103 000a 08BD     		pop	{r3, pc}
 1104              		.cfi_endproc
 1105              	.LFE87:
ARM GAS  C:\Users\OSD\AppData\Local\Temp\ccJ364Vh.s 			page 24


 1107              		.section	.text.lv_style_set_bg_img_recolor_opa,"ax",%progbits
 1108              		.align	1
 1109              		.global	lv_style_set_bg_img_recolor_opa
 1110              		.syntax unified
 1111              		.thumb
 1112              		.thumb_func
 1114              	lv_style_set_bg_img_recolor_opa:
 1115              	.LVL102:
 1116              	.LFB88:
 274:lvgl/src/misc/lv_style_gen.c **** 
 275:lvgl/src/misc/lv_style_gen.c **** void lv_style_set_bg_img_recolor_opa(lv_style_t * style, lv_opa_t value)
 276:lvgl/src/misc/lv_style_gen.c **** {
 1117              		.loc 1 276 1 is_stmt 1 view -0
 1118              		.cfi_startproc
 1119              		@ args = 0, pretend = 0, frame = 0
 1120              		@ frame_needed = 0, uses_anonymous_args = 0
 1121              		.loc 1 276 1 is_stmt 0 view .LVU205
 1122 0000 08B5     		push	{r3, lr}
 1123              		.cfi_def_cfa_offset 8
 1124              		.cfi_offset 3, -8
 1125              		.cfi_offset 14, -4
 1126 0002 0A46     		mov	r2, r1
 277:lvgl/src/misc/lv_style_gen.c ****     lv_style_value_t v = {
 1127              		.loc 1 277 5 is_stmt 1 view .LVU206
 278:lvgl/src/misc/lv_style_gen.c ****         .num = (int32_t)value
 279:lvgl/src/misc/lv_style_gen.c ****     };
 280:lvgl/src/misc/lv_style_gen.c ****     lv_style_set_prop(style, LV_STYLE_BG_IMG_RECOLOR_OPA, v);
 1128              		.loc 1 280 5 view .LVU207
 1129 0004 2B21     		movs	r1, #43
 1130              	.LVL103:
 1131              		.loc 1 280 5 is_stmt 0 view .LVU208
 1132 0006 FFF7FEFF 		bl	lv_style_set_prop
 1133              	.LVL104:
 281:lvgl/src/misc/lv_style_gen.c **** }
 1134              		.loc 1 281 1 view .LVU209
 1135 000a 08BD     		pop	{r3, pc}
 1136              		.cfi_endproc
 1137              	.LFE88:
 1139              		.section	.text.lv_style_set_bg_img_tiled,"ax",%progbits
 1140              		.align	1
 1141              		.global	lv_style_set_bg_img_tiled
 1142              		.syntax unified
 1143              		.thumb
 1144              		.thumb_func
 1146              	lv_style_set_bg_img_tiled:
 1147              	.LVL105:
 1148              	.LFB89:
 282:lvgl/src/misc/lv_style_gen.c **** 
 283:lvgl/src/misc/lv_style_gen.c **** void lv_style_set_bg_img_tiled(lv_style_t * style, bool value)
 284:lvgl/src/misc/lv_style_gen.c **** {
 1149              		.loc 1 284 1 is_stmt 1 view -0
 1150              		.cfi_startproc
 1151              		@ args = 0, pretend = 0, frame = 0
 1152              		@ frame_needed = 0, uses_anonymous_args = 0
 1153              		.loc 1 284 1 is_stmt 0 view .LVU211
 1154 0000 08B5     		push	{r3, lr}
 1155              		.cfi_def_cfa_offset 8
ARM GAS  C:\Users\OSD\AppData\Local\Temp\ccJ364Vh.s 			page 25


 1156              		.cfi_offset 3, -8
 1157              		.cfi_offset 14, -4
 1158 0002 0A46     		mov	r2, r1
 285:lvgl/src/misc/lv_style_gen.c ****     lv_style_value_t v = {
 1159              		.loc 1 285 5 is_stmt 1 view .LVU212
 286:lvgl/src/misc/lv_style_gen.c ****         .num = (int32_t)value
 287:lvgl/src/misc/lv_style_gen.c ****     };
 288:lvgl/src/misc/lv_style_gen.c ****     lv_style_set_prop(style, LV_STYLE_BG_IMG_TILED, v);
 1160              		.loc 1 288 5 view .LVU213
 1161 0004 2C21     		movs	r1, #44
 1162              	.LVL106:
 1163              		.loc 1 288 5 is_stmt 0 view .LVU214
 1164 0006 FFF7FEFF 		bl	lv_style_set_prop
 1165              	.LVL107:
 289:lvgl/src/misc/lv_style_gen.c **** }
 1166              		.loc 1 289 1 view .LVU215
 1167 000a 08BD     		pop	{r3, pc}
 1168              		.cfi_endproc
 1169              	.LFE89:
 1171              		.section	.text.lv_style_set_border_color,"ax",%progbits
 1172              		.align	1
 1173              		.global	lv_style_set_border_color
 1174              		.syntax unified
 1175              		.thumb
 1176              		.thumb_func
 1178              	lv_style_set_border_color:
 1179              	.LVL108:
 1180              	.LFB90:
 290:lvgl/src/misc/lv_style_gen.c **** 
 291:lvgl/src/misc/lv_style_gen.c **** void lv_style_set_border_color(lv_style_t * style, lv_color_t value)
 292:lvgl/src/misc/lv_style_gen.c **** {
 1181              		.loc 1 292 1 is_stmt 1 view -0
 1182              		.cfi_startproc
 1183              		@ args = 0, pretend = 0, frame = 0
 1184              		@ frame_needed = 0, uses_anonymous_args = 0
 1185              		.loc 1 292 1 is_stmt 0 view .LVU217
 1186 0000 08B5     		push	{r3, lr}
 1187              		.cfi_def_cfa_offset 8
 1188              		.cfi_offset 3, -8
 1189              		.cfi_offset 14, -4
 1190 0002 0A46     		mov	r2, r1
 293:lvgl/src/misc/lv_style_gen.c ****     lv_style_value_t v = {
 1191              		.loc 1 293 5 is_stmt 1 view .LVU218
 294:lvgl/src/misc/lv_style_gen.c ****         .color = value
 295:lvgl/src/misc/lv_style_gen.c ****     };
 296:lvgl/src/misc/lv_style_gen.c ****     lv_style_set_prop(style, LV_STYLE_BORDER_COLOR, v);
 1192              		.loc 1 296 5 view .LVU219
 1193 0004 3021     		movs	r1, #48
 1194              	.LVL109:
 1195              		.loc 1 296 5 is_stmt 0 view .LVU220
 1196 0006 FFF7FEFF 		bl	lv_style_set_prop
 1197              	.LVL110:
 297:lvgl/src/misc/lv_style_gen.c **** }
 1198              		.loc 1 297 1 view .LVU221
 1199 000a 08BD     		pop	{r3, pc}
 1200              		.cfi_endproc
 1201              	.LFE90:
ARM GAS  C:\Users\OSD\AppData\Local\Temp\ccJ364Vh.s 			page 26


 1203              		.section	.text.lv_style_set_border_opa,"ax",%progbits
 1204              		.align	1
 1205              		.global	lv_style_set_border_opa
 1206              		.syntax unified
 1207              		.thumb
 1208              		.thumb_func
 1210              	lv_style_set_border_opa:
 1211              	.LVL111:
 1212              	.LFB91:
 298:lvgl/src/misc/lv_style_gen.c **** 
 299:lvgl/src/misc/lv_style_gen.c **** void lv_style_set_border_opa(lv_style_t * style, lv_opa_t value)
 300:lvgl/src/misc/lv_style_gen.c **** {
 1213              		.loc 1 300 1 is_stmt 1 view -0
 1214              		.cfi_startproc
 1215              		@ args = 0, pretend = 0, frame = 0
 1216              		@ frame_needed = 0, uses_anonymous_args = 0
 1217              		.loc 1 300 1 is_stmt 0 view .LVU223
 1218 0000 08B5     		push	{r3, lr}
 1219              		.cfi_def_cfa_offset 8
 1220              		.cfi_offset 3, -8
 1221              		.cfi_offset 14, -4
 1222 0002 0A46     		mov	r2, r1
 301:lvgl/src/misc/lv_style_gen.c ****     lv_style_value_t v = {
 1223              		.loc 1 301 5 is_stmt 1 view .LVU224
 302:lvgl/src/misc/lv_style_gen.c ****         .num = (int32_t)value
 303:lvgl/src/misc/lv_style_gen.c ****     };
 304:lvgl/src/misc/lv_style_gen.c ****     lv_style_set_prop(style, LV_STYLE_BORDER_OPA, v);
 1224              		.loc 1 304 5 view .LVU225
 1225 0004 3121     		movs	r1, #49
 1226              	.LVL112:
 1227              		.loc 1 304 5 is_stmt 0 view .LVU226
 1228 0006 FFF7FEFF 		bl	lv_style_set_prop
 1229              	.LVL113:
 305:lvgl/src/misc/lv_style_gen.c **** }
 1230              		.loc 1 305 1 view .LVU227
 1231 000a 08BD     		pop	{r3, pc}
 1232              		.cfi_endproc
 1233              	.LFE91:
 1235              		.section	.text.lv_style_set_border_width,"ax",%progbits
 1236              		.align	1
 1237              		.global	lv_style_set_border_width
 1238              		.syntax unified
 1239              		.thumb
 1240              		.thumb_func
 1242              	lv_style_set_border_width:
 1243              	.LVL114:
 1244              	.LFB92:
 306:lvgl/src/misc/lv_style_gen.c **** 
 307:lvgl/src/misc/lv_style_gen.c **** void lv_style_set_border_width(lv_style_t * style, lv_coord_t value)
 308:lvgl/src/misc/lv_style_gen.c **** {
 1245              		.loc 1 308 1 is_stmt 1 view -0
 1246              		.cfi_startproc
 1247              		@ args = 0, pretend = 0, frame = 0
 1248              		@ frame_needed = 0, uses_anonymous_args = 0
 1249              		.loc 1 308 1 is_stmt 0 view .LVU229
 1250 0000 08B5     		push	{r3, lr}
 1251              		.cfi_def_cfa_offset 8
ARM GAS  C:\Users\OSD\AppData\Local\Temp\ccJ364Vh.s 			page 27


 1252              		.cfi_offset 3, -8
 1253              		.cfi_offset 14, -4
 1254 0002 0A46     		mov	r2, r1
 309:lvgl/src/misc/lv_style_gen.c ****     lv_style_value_t v = {
 1255              		.loc 1 309 5 is_stmt 1 view .LVU230
 310:lvgl/src/misc/lv_style_gen.c ****         .num = (int32_t)value
 311:lvgl/src/misc/lv_style_gen.c ****     };
 312:lvgl/src/misc/lv_style_gen.c ****     lv_style_set_prop(style, LV_STYLE_BORDER_WIDTH, v);
 1256              		.loc 1 312 5 view .LVU231
 1257 0004 3221     		movs	r1, #50
 1258              	.LVL115:
 1259              		.loc 1 312 5 is_stmt 0 view .LVU232
 1260 0006 FFF7FEFF 		bl	lv_style_set_prop
 1261              	.LVL116:
 313:lvgl/src/misc/lv_style_gen.c **** }
 1262              		.loc 1 313 1 view .LVU233
 1263 000a 08BD     		pop	{r3, pc}
 1264              		.cfi_endproc
 1265              	.LFE92:
 1267              		.section	.text.lv_style_set_border_side,"ax",%progbits
 1268              		.align	1
 1269              		.global	lv_style_set_border_side
 1270              		.syntax unified
 1271              		.thumb
 1272              		.thumb_func
 1274              	lv_style_set_border_side:
 1275              	.LVL117:
 1276              	.LFB93:
 314:lvgl/src/misc/lv_style_gen.c **** 
 315:lvgl/src/misc/lv_style_gen.c **** void lv_style_set_border_side(lv_style_t * style, lv_border_side_t value)
 316:lvgl/src/misc/lv_style_gen.c **** {
 1277              		.loc 1 316 1 is_stmt 1 view -0
 1278              		.cfi_startproc
 1279              		@ args = 0, pretend = 0, frame = 0
 1280              		@ frame_needed = 0, uses_anonymous_args = 0
 1281              		.loc 1 316 1 is_stmt 0 view .LVU235
 1282 0000 08B5     		push	{r3, lr}
 1283              		.cfi_def_cfa_offset 8
 1284              		.cfi_offset 3, -8
 1285              		.cfi_offset 14, -4
 1286 0002 0A46     		mov	r2, r1
 317:lvgl/src/misc/lv_style_gen.c ****     lv_style_value_t v = {
 1287              		.loc 1 317 5 is_stmt 1 view .LVU236
 318:lvgl/src/misc/lv_style_gen.c ****         .num = (int32_t)value
 319:lvgl/src/misc/lv_style_gen.c ****     };
 320:lvgl/src/misc/lv_style_gen.c ****     lv_style_set_prop(style, LV_STYLE_BORDER_SIDE, v);
 1288              		.loc 1 320 5 view .LVU237
 1289 0004 3321     		movs	r1, #51
 1290              	.LVL118:
 1291              		.loc 1 320 5 is_stmt 0 view .LVU238
 1292 0006 FFF7FEFF 		bl	lv_style_set_prop
 1293              	.LVL119:
 321:lvgl/src/misc/lv_style_gen.c **** }
 1294              		.loc 1 321 1 view .LVU239
 1295 000a 08BD     		pop	{r3, pc}
 1296              		.cfi_endproc
 1297              	.LFE93:
ARM GAS  C:\Users\OSD\AppData\Local\Temp\ccJ364Vh.s 			page 28


 1299              		.section	.text.lv_style_set_border_post,"ax",%progbits
 1300              		.align	1
 1301              		.global	lv_style_set_border_post
 1302              		.syntax unified
 1303              		.thumb
 1304              		.thumb_func
 1306              	lv_style_set_border_post:
 1307              	.LVL120:
 1308              	.LFB94:
 322:lvgl/src/misc/lv_style_gen.c **** 
 323:lvgl/src/misc/lv_style_gen.c **** void lv_style_set_border_post(lv_style_t * style, bool value)
 324:lvgl/src/misc/lv_style_gen.c **** {
 1309              		.loc 1 324 1 is_stmt 1 view -0
 1310              		.cfi_startproc
 1311              		@ args = 0, pretend = 0, frame = 0
 1312              		@ frame_needed = 0, uses_anonymous_args = 0
 1313              		.loc 1 324 1 is_stmt 0 view .LVU241
 1314 0000 08B5     		push	{r3, lr}
 1315              		.cfi_def_cfa_offset 8
 1316              		.cfi_offset 3, -8
 1317              		.cfi_offset 14, -4
 1318 0002 0A46     		mov	r2, r1
 325:lvgl/src/misc/lv_style_gen.c ****     lv_style_value_t v = {
 1319              		.loc 1 325 5 is_stmt 1 view .LVU242
 326:lvgl/src/misc/lv_style_gen.c ****         .num = (int32_t)value
 327:lvgl/src/misc/lv_style_gen.c ****     };
 328:lvgl/src/misc/lv_style_gen.c ****     lv_style_set_prop(style, LV_STYLE_BORDER_POST, v);
 1320              		.loc 1 328 5 view .LVU243
 1321 0004 3421     		movs	r1, #52
 1322              	.LVL121:
 1323              		.loc 1 328 5 is_stmt 0 view .LVU244
 1324 0006 FFF7FEFF 		bl	lv_style_set_prop
 1325              	.LVL122:
 329:lvgl/src/misc/lv_style_gen.c **** }
 1326              		.loc 1 329 1 view .LVU245
 1327 000a 08BD     		pop	{r3, pc}
 1328              		.cfi_endproc
 1329              	.LFE94:
 1331              		.section	.text.lv_style_set_outline_width,"ax",%progbits
 1332              		.align	1
 1333              		.global	lv_style_set_outline_width
 1334              		.syntax unified
 1335              		.thumb
 1336              		.thumb_func
 1338              	lv_style_set_outline_width:
 1339              	.LVL123:
 1340              	.LFB95:
 330:lvgl/src/misc/lv_style_gen.c **** 
 331:lvgl/src/misc/lv_style_gen.c **** void lv_style_set_outline_width(lv_style_t * style, lv_coord_t value)
 332:lvgl/src/misc/lv_style_gen.c **** {
 1341              		.loc 1 332 1 is_stmt 1 view -0
 1342              		.cfi_startproc
 1343              		@ args = 0, pretend = 0, frame = 0
 1344              		@ frame_needed = 0, uses_anonymous_args = 0
 1345              		.loc 1 332 1 is_stmt 0 view .LVU247
 1346 0000 08B5     		push	{r3, lr}
 1347              		.cfi_def_cfa_offset 8
ARM GAS  C:\Users\OSD\AppData\Local\Temp\ccJ364Vh.s 			page 29


 1348              		.cfi_offset 3, -8
 1349              		.cfi_offset 14, -4
 1350 0002 0A46     		mov	r2, r1
 333:lvgl/src/misc/lv_style_gen.c ****     lv_style_value_t v = {
 1351              		.loc 1 333 5 is_stmt 1 view .LVU248
 334:lvgl/src/misc/lv_style_gen.c ****         .num = (int32_t)value
 335:lvgl/src/misc/lv_style_gen.c ****     };
 336:lvgl/src/misc/lv_style_gen.c ****     lv_style_set_prop(style, LV_STYLE_OUTLINE_WIDTH, v);
 1352              		.loc 1 336 5 view .LVU249
 1353 0004 3521     		movs	r1, #53
 1354              	.LVL124:
 1355              		.loc 1 336 5 is_stmt 0 view .LVU250
 1356 0006 FFF7FEFF 		bl	lv_style_set_prop
 1357              	.LVL125:
 337:lvgl/src/misc/lv_style_gen.c **** }
 1358              		.loc 1 337 1 view .LVU251
 1359 000a 08BD     		pop	{r3, pc}
 1360              		.cfi_endproc
 1361              	.LFE95:
 1363              		.section	.text.lv_style_set_outline_color,"ax",%progbits
 1364              		.align	1
 1365              		.global	lv_style_set_outline_color
 1366              		.syntax unified
 1367              		.thumb
 1368              		.thumb_func
 1370              	lv_style_set_outline_color:
 1371              	.LVL126:
 1372              	.LFB96:
 338:lvgl/src/misc/lv_style_gen.c **** 
 339:lvgl/src/misc/lv_style_gen.c **** void lv_style_set_outline_color(lv_style_t * style, lv_color_t value)
 340:lvgl/src/misc/lv_style_gen.c **** {
 1373              		.loc 1 340 1 is_stmt 1 view -0
 1374              		.cfi_startproc
 1375              		@ args = 0, pretend = 0, frame = 0
 1376              		@ frame_needed = 0, uses_anonymous_args = 0
 1377              		.loc 1 340 1 is_stmt 0 view .LVU253
 1378 0000 08B5     		push	{r3, lr}
 1379              		.cfi_def_cfa_offset 8
 1380              		.cfi_offset 3, -8
 1381              		.cfi_offset 14, -4
 1382 0002 0A46     		mov	r2, r1
 341:lvgl/src/misc/lv_style_gen.c ****     lv_style_value_t v = {
 1383              		.loc 1 341 5 is_stmt 1 view .LVU254
 342:lvgl/src/misc/lv_style_gen.c ****         .color = value
 343:lvgl/src/misc/lv_style_gen.c ****     };
 344:lvgl/src/misc/lv_style_gen.c ****     lv_style_set_prop(style, LV_STYLE_OUTLINE_COLOR, v);
 1384              		.loc 1 344 5 view .LVU255
 1385 0004 3621     		movs	r1, #54
 1386              	.LVL127:
 1387              		.loc 1 344 5 is_stmt 0 view .LVU256
 1388 0006 FFF7FEFF 		bl	lv_style_set_prop
 1389              	.LVL128:
 345:lvgl/src/misc/lv_style_gen.c **** }
 1390              		.loc 1 345 1 view .LVU257
 1391 000a 08BD     		pop	{r3, pc}
 1392              		.cfi_endproc
 1393              	.LFE96:
ARM GAS  C:\Users\OSD\AppData\Local\Temp\ccJ364Vh.s 			page 30


 1395              		.section	.text.lv_style_set_outline_opa,"ax",%progbits
 1396              		.align	1
 1397              		.global	lv_style_set_outline_opa
 1398              		.syntax unified
 1399              		.thumb
 1400              		.thumb_func
 1402              	lv_style_set_outline_opa:
 1403              	.LVL129:
 1404              	.LFB97:
 346:lvgl/src/misc/lv_style_gen.c **** 
 347:lvgl/src/misc/lv_style_gen.c **** void lv_style_set_outline_opa(lv_style_t * style, lv_opa_t value)
 348:lvgl/src/misc/lv_style_gen.c **** {
 1405              		.loc 1 348 1 is_stmt 1 view -0
 1406              		.cfi_startproc
 1407              		@ args = 0, pretend = 0, frame = 0
 1408              		@ frame_needed = 0, uses_anonymous_args = 0
 1409              		.loc 1 348 1 is_stmt 0 view .LVU259
 1410 0000 08B5     		push	{r3, lr}
 1411              		.cfi_def_cfa_offset 8
 1412              		.cfi_offset 3, -8
 1413              		.cfi_offset 14, -4
 1414 0002 0A46     		mov	r2, r1
 349:lvgl/src/misc/lv_style_gen.c ****     lv_style_value_t v = {
 1415              		.loc 1 349 5 is_stmt 1 view .LVU260
 350:lvgl/src/misc/lv_style_gen.c ****         .num = (int32_t)value
 351:lvgl/src/misc/lv_style_gen.c ****     };
 352:lvgl/src/misc/lv_style_gen.c ****     lv_style_set_prop(style, LV_STYLE_OUTLINE_OPA, v);
 1416              		.loc 1 352 5 view .LVU261
 1417 0004 3721     		movs	r1, #55
 1418              	.LVL130:
 1419              		.loc 1 352 5 is_stmt 0 view .LVU262
 1420 0006 FFF7FEFF 		bl	lv_style_set_prop
 1421              	.LVL131:
 353:lvgl/src/misc/lv_style_gen.c **** }
 1422              		.loc 1 353 1 view .LVU263
 1423 000a 08BD     		pop	{r3, pc}
 1424              		.cfi_endproc
 1425              	.LFE97:
 1427              		.section	.text.lv_style_set_outline_pad,"ax",%progbits
 1428              		.align	1
 1429              		.global	lv_style_set_outline_pad
 1430              		.syntax unified
 1431              		.thumb
 1432              		.thumb_func
 1434              	lv_style_set_outline_pad:
 1435              	.LVL132:
 1436              	.LFB98:
 354:lvgl/src/misc/lv_style_gen.c **** 
 355:lvgl/src/misc/lv_style_gen.c **** void lv_style_set_outline_pad(lv_style_t * style, lv_coord_t value)
 356:lvgl/src/misc/lv_style_gen.c **** {
 1437              		.loc 1 356 1 is_stmt 1 view -0
 1438              		.cfi_startproc
 1439              		@ args = 0, pretend = 0, frame = 0
 1440              		@ frame_needed = 0, uses_anonymous_args = 0
 1441              		.loc 1 356 1 is_stmt 0 view .LVU265
 1442 0000 08B5     		push	{r3, lr}
 1443              		.cfi_def_cfa_offset 8
ARM GAS  C:\Users\OSD\AppData\Local\Temp\ccJ364Vh.s 			page 31


 1444              		.cfi_offset 3, -8
 1445              		.cfi_offset 14, -4
 1446 0002 0A46     		mov	r2, r1
 357:lvgl/src/misc/lv_style_gen.c ****     lv_style_value_t v = {
 1447              		.loc 1 357 5 is_stmt 1 view .LVU266
 358:lvgl/src/misc/lv_style_gen.c ****         .num = (int32_t)value
 359:lvgl/src/misc/lv_style_gen.c ****     };
 360:lvgl/src/misc/lv_style_gen.c ****     lv_style_set_prop(style, LV_STYLE_OUTLINE_PAD, v);
 1448              		.loc 1 360 5 view .LVU267
 1449 0004 3821     		movs	r1, #56
 1450              	.LVL133:
 1451              		.loc 1 360 5 is_stmt 0 view .LVU268
 1452 0006 FFF7FEFF 		bl	lv_style_set_prop
 1453              	.LVL134:
 361:lvgl/src/misc/lv_style_gen.c **** }
 1454              		.loc 1 361 1 view .LVU269
 1455 000a 08BD     		pop	{r3, pc}
 1456              		.cfi_endproc
 1457              	.LFE98:
 1459              		.section	.text.lv_style_set_shadow_width,"ax",%progbits
 1460              		.align	1
 1461              		.global	lv_style_set_shadow_width
 1462              		.syntax unified
 1463              		.thumb
 1464              		.thumb_func
 1466              	lv_style_set_shadow_width:
 1467              	.LVL135:
 1468              	.LFB99:
 362:lvgl/src/misc/lv_style_gen.c **** 
 363:lvgl/src/misc/lv_style_gen.c **** void lv_style_set_shadow_width(lv_style_t * style, lv_coord_t value)
 364:lvgl/src/misc/lv_style_gen.c **** {
 1469              		.loc 1 364 1 is_stmt 1 view -0
 1470              		.cfi_startproc
 1471              		@ args = 0, pretend = 0, frame = 0
 1472              		@ frame_needed = 0, uses_anonymous_args = 0
 1473              		.loc 1 364 1 is_stmt 0 view .LVU271
 1474 0000 08B5     		push	{r3, lr}
 1475              		.cfi_def_cfa_offset 8
 1476              		.cfi_offset 3, -8
 1477              		.cfi_offset 14, -4
 1478 0002 0A46     		mov	r2, r1
 365:lvgl/src/misc/lv_style_gen.c ****     lv_style_value_t v = {
 1479              		.loc 1 365 5 is_stmt 1 view .LVU272
 366:lvgl/src/misc/lv_style_gen.c ****         .num = (int32_t)value
 367:lvgl/src/misc/lv_style_gen.c ****     };
 368:lvgl/src/misc/lv_style_gen.c ****     lv_style_set_prop(style, LV_STYLE_SHADOW_WIDTH, v);
 1480              		.loc 1 368 5 view .LVU273
 1481 0004 4021     		movs	r1, #64
 1482              	.LVL136:
 1483              		.loc 1 368 5 is_stmt 0 view .LVU274
 1484 0006 FFF7FEFF 		bl	lv_style_set_prop
 1485              	.LVL137:
 369:lvgl/src/misc/lv_style_gen.c **** }
 1486              		.loc 1 369 1 view .LVU275
 1487 000a 08BD     		pop	{r3, pc}
 1488              		.cfi_endproc
 1489              	.LFE99:
ARM GAS  C:\Users\OSD\AppData\Local\Temp\ccJ364Vh.s 			page 32


 1491              		.section	.text.lv_style_set_shadow_ofs_x,"ax",%progbits
 1492              		.align	1
 1493              		.global	lv_style_set_shadow_ofs_x
 1494              		.syntax unified
 1495              		.thumb
 1496              		.thumb_func
 1498              	lv_style_set_shadow_ofs_x:
 1499              	.LVL138:
 1500              	.LFB100:
 370:lvgl/src/misc/lv_style_gen.c **** 
 371:lvgl/src/misc/lv_style_gen.c **** void lv_style_set_shadow_ofs_x(lv_style_t * style, lv_coord_t value)
 372:lvgl/src/misc/lv_style_gen.c **** {
 1501              		.loc 1 372 1 is_stmt 1 view -0
 1502              		.cfi_startproc
 1503              		@ args = 0, pretend = 0, frame = 0
 1504              		@ frame_needed = 0, uses_anonymous_args = 0
 1505              		.loc 1 372 1 is_stmt 0 view .LVU277
 1506 0000 08B5     		push	{r3, lr}
 1507              		.cfi_def_cfa_offset 8
 1508              		.cfi_offset 3, -8
 1509              		.cfi_offset 14, -4
 1510 0002 0A46     		mov	r2, r1
 373:lvgl/src/misc/lv_style_gen.c ****     lv_style_value_t v = {
 1511              		.loc 1 373 5 is_stmt 1 view .LVU278
 374:lvgl/src/misc/lv_style_gen.c ****         .num = (int32_t)value
 375:lvgl/src/misc/lv_style_gen.c ****     };
 376:lvgl/src/misc/lv_style_gen.c ****     lv_style_set_prop(style, LV_STYLE_SHADOW_OFS_X, v);
 1512              		.loc 1 376 5 view .LVU279
 1513 0004 4121     		movs	r1, #65
 1514              	.LVL139:
 1515              		.loc 1 376 5 is_stmt 0 view .LVU280
 1516 0006 FFF7FEFF 		bl	lv_style_set_prop
 1517              	.LVL140:
 377:lvgl/src/misc/lv_style_gen.c **** }
 1518              		.loc 1 377 1 view .LVU281
 1519 000a 08BD     		pop	{r3, pc}
 1520              		.cfi_endproc
 1521              	.LFE100:
 1523              		.section	.text.lv_style_set_shadow_ofs_y,"ax",%progbits
 1524              		.align	1
 1525              		.global	lv_style_set_shadow_ofs_y
 1526              		.syntax unified
 1527              		.thumb
 1528              		.thumb_func
 1530              	lv_style_set_shadow_ofs_y:
 1531              	.LVL141:
 1532              	.LFB101:
 378:lvgl/src/misc/lv_style_gen.c **** 
 379:lvgl/src/misc/lv_style_gen.c **** void lv_style_set_shadow_ofs_y(lv_style_t * style, lv_coord_t value)
 380:lvgl/src/misc/lv_style_gen.c **** {
 1533              		.loc 1 380 1 is_stmt 1 view -0
 1534              		.cfi_startproc
 1535              		@ args = 0, pretend = 0, frame = 0
 1536              		@ frame_needed = 0, uses_anonymous_args = 0
 1537              		.loc 1 380 1 is_stmt 0 view .LVU283
 1538 0000 08B5     		push	{r3, lr}
 1539              		.cfi_def_cfa_offset 8
ARM GAS  C:\Users\OSD\AppData\Local\Temp\ccJ364Vh.s 			page 33


 1540              		.cfi_offset 3, -8
 1541              		.cfi_offset 14, -4
 1542 0002 0A46     		mov	r2, r1
 381:lvgl/src/misc/lv_style_gen.c ****     lv_style_value_t v = {
 1543              		.loc 1 381 5 is_stmt 1 view .LVU284
 382:lvgl/src/misc/lv_style_gen.c ****         .num = (int32_t)value
 383:lvgl/src/misc/lv_style_gen.c ****     };
 384:lvgl/src/misc/lv_style_gen.c ****     lv_style_set_prop(style, LV_STYLE_SHADOW_OFS_Y, v);
 1544              		.loc 1 384 5 view .LVU285
 1545 0004 4221     		movs	r1, #66
 1546              	.LVL142:
 1547              		.loc 1 384 5 is_stmt 0 view .LVU286
 1548 0006 FFF7FEFF 		bl	lv_style_set_prop
 1549              	.LVL143:
 385:lvgl/src/misc/lv_style_gen.c **** }
 1550              		.loc 1 385 1 view .LVU287
 1551 000a 08BD     		pop	{r3, pc}
 1552              		.cfi_endproc
 1553              	.LFE101:
 1555              		.section	.text.lv_style_set_shadow_spread,"ax",%progbits
 1556              		.align	1
 1557              		.global	lv_style_set_shadow_spread
 1558              		.syntax unified
 1559              		.thumb
 1560              		.thumb_func
 1562              	lv_style_set_shadow_spread:
 1563              	.LVL144:
 1564              	.LFB102:
 386:lvgl/src/misc/lv_style_gen.c **** 
 387:lvgl/src/misc/lv_style_gen.c **** void lv_style_set_shadow_spread(lv_style_t * style, lv_coord_t value)
 388:lvgl/src/misc/lv_style_gen.c **** {
 1565              		.loc 1 388 1 is_stmt 1 view -0
 1566              		.cfi_startproc
 1567              		@ args = 0, pretend = 0, frame = 0
 1568              		@ frame_needed = 0, uses_anonymous_args = 0
 1569              		.loc 1 388 1 is_stmt 0 view .LVU289
 1570 0000 08B5     		push	{r3, lr}
 1571              		.cfi_def_cfa_offset 8
 1572              		.cfi_offset 3, -8
 1573              		.cfi_offset 14, -4
 1574 0002 0A46     		mov	r2, r1
 389:lvgl/src/misc/lv_style_gen.c ****     lv_style_value_t v = {
 1575              		.loc 1 389 5 is_stmt 1 view .LVU290
 390:lvgl/src/misc/lv_style_gen.c ****         .num = (int32_t)value
 391:lvgl/src/misc/lv_style_gen.c ****     };
 392:lvgl/src/misc/lv_style_gen.c ****     lv_style_set_prop(style, LV_STYLE_SHADOW_SPREAD, v);
 1576              		.loc 1 392 5 view .LVU291
 1577 0004 4321     		movs	r1, #67
 1578              	.LVL145:
 1579              		.loc 1 392 5 is_stmt 0 view .LVU292
 1580 0006 FFF7FEFF 		bl	lv_style_set_prop
 1581              	.LVL146:
 393:lvgl/src/misc/lv_style_gen.c **** }
 1582              		.loc 1 393 1 view .LVU293
 1583 000a 08BD     		pop	{r3, pc}
 1584              		.cfi_endproc
 1585              	.LFE102:
ARM GAS  C:\Users\OSD\AppData\Local\Temp\ccJ364Vh.s 			page 34


 1587              		.section	.text.lv_style_set_shadow_color,"ax",%progbits
 1588              		.align	1
 1589              		.global	lv_style_set_shadow_color
 1590              		.syntax unified
 1591              		.thumb
 1592              		.thumb_func
 1594              	lv_style_set_shadow_color:
 1595              	.LVL147:
 1596              	.LFB103:
 394:lvgl/src/misc/lv_style_gen.c **** 
 395:lvgl/src/misc/lv_style_gen.c **** void lv_style_set_shadow_color(lv_style_t * style, lv_color_t value)
 396:lvgl/src/misc/lv_style_gen.c **** {
 1597              		.loc 1 396 1 is_stmt 1 view -0
 1598              		.cfi_startproc
 1599              		@ args = 0, pretend = 0, frame = 0
 1600              		@ frame_needed = 0, uses_anonymous_args = 0
 1601              		.loc 1 396 1 is_stmt 0 view .LVU295
 1602 0000 08B5     		push	{r3, lr}
 1603              		.cfi_def_cfa_offset 8
 1604              		.cfi_offset 3, -8
 1605              		.cfi_offset 14, -4
 1606 0002 0A46     		mov	r2, r1
 397:lvgl/src/misc/lv_style_gen.c ****     lv_style_value_t v = {
 1607              		.loc 1 397 5 is_stmt 1 view .LVU296
 398:lvgl/src/misc/lv_style_gen.c ****         .color = value
 399:lvgl/src/misc/lv_style_gen.c ****     };
 400:lvgl/src/misc/lv_style_gen.c ****     lv_style_set_prop(style, LV_STYLE_SHADOW_COLOR, v);
 1608              		.loc 1 400 5 view .LVU297
 1609 0004 4421     		movs	r1, #68
 1610              	.LVL148:
 1611              		.loc 1 400 5 is_stmt 0 view .LVU298
 1612 0006 FFF7FEFF 		bl	lv_style_set_prop
 1613              	.LVL149:
 401:lvgl/src/misc/lv_style_gen.c **** }
 1614              		.loc 1 401 1 view .LVU299
 1615 000a 08BD     		pop	{r3, pc}
 1616              		.cfi_endproc
 1617              	.LFE103:
 1619              		.section	.text.lv_style_set_shadow_opa,"ax",%progbits
 1620              		.align	1
 1621              		.global	lv_style_set_shadow_opa
 1622              		.syntax unified
 1623              		.thumb
 1624              		.thumb_func
 1626              	lv_style_set_shadow_opa:
 1627              	.LVL150:
 1628              	.LFB104:
 402:lvgl/src/misc/lv_style_gen.c **** 
 403:lvgl/src/misc/lv_style_gen.c **** void lv_style_set_shadow_opa(lv_style_t * style, lv_opa_t value)
 404:lvgl/src/misc/lv_style_gen.c **** {
 1629              		.loc 1 404 1 is_stmt 1 view -0
 1630              		.cfi_startproc
 1631              		@ args = 0, pretend = 0, frame = 0
 1632              		@ frame_needed = 0, uses_anonymous_args = 0
 1633              		.loc 1 404 1 is_stmt 0 view .LVU301
 1634 0000 08B5     		push	{r3, lr}
 1635              		.cfi_def_cfa_offset 8
ARM GAS  C:\Users\OSD\AppData\Local\Temp\ccJ364Vh.s 			page 35


 1636              		.cfi_offset 3, -8
 1637              		.cfi_offset 14, -4
 1638 0002 0A46     		mov	r2, r1
 405:lvgl/src/misc/lv_style_gen.c ****     lv_style_value_t v = {
 1639              		.loc 1 405 5 is_stmt 1 view .LVU302
 406:lvgl/src/misc/lv_style_gen.c ****         .num = (int32_t)value
 407:lvgl/src/misc/lv_style_gen.c ****     };
 408:lvgl/src/misc/lv_style_gen.c ****     lv_style_set_prop(style, LV_STYLE_SHADOW_OPA, v);
 1640              		.loc 1 408 5 view .LVU303
 1641 0004 4521     		movs	r1, #69
 1642              	.LVL151:
 1643              		.loc 1 408 5 is_stmt 0 view .LVU304
 1644 0006 FFF7FEFF 		bl	lv_style_set_prop
 1645              	.LVL152:
 409:lvgl/src/misc/lv_style_gen.c **** }
 1646              		.loc 1 409 1 view .LVU305
 1647 000a 08BD     		pop	{r3, pc}
 1648              		.cfi_endproc
 1649              	.LFE104:
 1651              		.section	.text.lv_style_set_img_opa,"ax",%progbits
 1652              		.align	1
 1653              		.global	lv_style_set_img_opa
 1654              		.syntax unified
 1655              		.thumb
 1656              		.thumb_func
 1658              	lv_style_set_img_opa:
 1659              	.LVL153:
 1660              	.LFB105:
 410:lvgl/src/misc/lv_style_gen.c **** 
 411:lvgl/src/misc/lv_style_gen.c **** void lv_style_set_img_opa(lv_style_t * style, lv_opa_t value)
 412:lvgl/src/misc/lv_style_gen.c **** {
 1661              		.loc 1 412 1 is_stmt 1 view -0
 1662              		.cfi_startproc
 1663              		@ args = 0, pretend = 0, frame = 0
 1664              		@ frame_needed = 0, uses_anonymous_args = 0
 1665              		.loc 1 412 1 is_stmt 0 view .LVU307
 1666 0000 08B5     		push	{r3, lr}
 1667              		.cfi_def_cfa_offset 8
 1668              		.cfi_offset 3, -8
 1669              		.cfi_offset 14, -4
 1670 0002 0A46     		mov	r2, r1
 413:lvgl/src/misc/lv_style_gen.c ****     lv_style_value_t v = {
 1671              		.loc 1 413 5 is_stmt 1 view .LVU308
 414:lvgl/src/misc/lv_style_gen.c ****         .num = (int32_t)value
 415:lvgl/src/misc/lv_style_gen.c ****     };
 416:lvgl/src/misc/lv_style_gen.c ****     lv_style_set_prop(style, LV_STYLE_IMG_OPA, v);
 1672              		.loc 1 416 5 view .LVU309
 1673 0004 4621     		movs	r1, #70
 1674              	.LVL154:
 1675              		.loc 1 416 5 is_stmt 0 view .LVU310
 1676 0006 FFF7FEFF 		bl	lv_style_set_prop
 1677              	.LVL155:
 417:lvgl/src/misc/lv_style_gen.c **** }
 1678              		.loc 1 417 1 view .LVU311
 1679 000a 08BD     		pop	{r3, pc}
 1680              		.cfi_endproc
 1681              	.LFE105:
ARM GAS  C:\Users\OSD\AppData\Local\Temp\ccJ364Vh.s 			page 36


 1683              		.section	.text.lv_style_set_img_recolor,"ax",%progbits
 1684              		.align	1
 1685              		.global	lv_style_set_img_recolor
 1686              		.syntax unified
 1687              		.thumb
 1688              		.thumb_func
 1690              	lv_style_set_img_recolor:
 1691              	.LVL156:
 1692              	.LFB106:
 418:lvgl/src/misc/lv_style_gen.c **** 
 419:lvgl/src/misc/lv_style_gen.c **** void lv_style_set_img_recolor(lv_style_t * style, lv_color_t value)
 420:lvgl/src/misc/lv_style_gen.c **** {
 1693              		.loc 1 420 1 is_stmt 1 view -0
 1694              		.cfi_startproc
 1695              		@ args = 0, pretend = 0, frame = 0
 1696              		@ frame_needed = 0, uses_anonymous_args = 0
 1697              		.loc 1 420 1 is_stmt 0 view .LVU313
 1698 0000 08B5     		push	{r3, lr}
 1699              		.cfi_def_cfa_offset 8
 1700              		.cfi_offset 3, -8
 1701              		.cfi_offset 14, -4
 1702 0002 0A46     		mov	r2, r1
 421:lvgl/src/misc/lv_style_gen.c ****     lv_style_value_t v = {
 1703              		.loc 1 421 5 is_stmt 1 view .LVU314
 422:lvgl/src/misc/lv_style_gen.c ****         .color = value
 423:lvgl/src/misc/lv_style_gen.c ****     };
 424:lvgl/src/misc/lv_style_gen.c ****     lv_style_set_prop(style, LV_STYLE_IMG_RECOLOR, v);
 1704              		.loc 1 424 5 view .LVU315
 1705 0004 4721     		movs	r1, #71
 1706              	.LVL157:
 1707              		.loc 1 424 5 is_stmt 0 view .LVU316
 1708 0006 FFF7FEFF 		bl	lv_style_set_prop
 1709              	.LVL158:
 425:lvgl/src/misc/lv_style_gen.c **** }
 1710              		.loc 1 425 1 view .LVU317
 1711 000a 08BD     		pop	{r3, pc}
 1712              		.cfi_endproc
 1713              	.LFE106:
 1715              		.section	.text.lv_style_set_img_recolor_opa,"ax",%progbits
 1716              		.align	1
 1717              		.global	lv_style_set_img_recolor_opa
 1718              		.syntax unified
 1719              		.thumb
 1720              		.thumb_func
 1722              	lv_style_set_img_recolor_opa:
 1723              	.LVL159:
 1724              	.LFB107:
 426:lvgl/src/misc/lv_style_gen.c **** 
 427:lvgl/src/misc/lv_style_gen.c **** void lv_style_set_img_recolor_opa(lv_style_t * style, lv_opa_t value)
 428:lvgl/src/misc/lv_style_gen.c **** {
 1725              		.loc 1 428 1 is_stmt 1 view -0
 1726              		.cfi_startproc
 1727              		@ args = 0, pretend = 0, frame = 0
 1728              		@ frame_needed = 0, uses_anonymous_args = 0
 1729              		.loc 1 428 1 is_stmt 0 view .LVU319
 1730 0000 08B5     		push	{r3, lr}
 1731              		.cfi_def_cfa_offset 8
ARM GAS  C:\Users\OSD\AppData\Local\Temp\ccJ364Vh.s 			page 37


 1732              		.cfi_offset 3, -8
 1733              		.cfi_offset 14, -4
 1734 0002 0A46     		mov	r2, r1
 429:lvgl/src/misc/lv_style_gen.c ****     lv_style_value_t v = {
 1735              		.loc 1 429 5 is_stmt 1 view .LVU320
 430:lvgl/src/misc/lv_style_gen.c ****         .num = (int32_t)value
 431:lvgl/src/misc/lv_style_gen.c ****     };
 432:lvgl/src/misc/lv_style_gen.c ****     lv_style_set_prop(style, LV_STYLE_IMG_RECOLOR_OPA, v);
 1736              		.loc 1 432 5 view .LVU321
 1737 0004 4821     		movs	r1, #72
 1738              	.LVL160:
 1739              		.loc 1 432 5 is_stmt 0 view .LVU322
 1740 0006 FFF7FEFF 		bl	lv_style_set_prop
 1741              	.LVL161:
 433:lvgl/src/misc/lv_style_gen.c **** }
 1742              		.loc 1 433 1 view .LVU323
 1743 000a 08BD     		pop	{r3, pc}
 1744              		.cfi_endproc
 1745              	.LFE107:
 1747              		.section	.text.lv_style_set_line_width,"ax",%progbits
 1748              		.align	1
 1749              		.global	lv_style_set_line_width
 1750              		.syntax unified
 1751              		.thumb
 1752              		.thumb_func
 1754              	lv_style_set_line_width:
 1755              	.LVL162:
 1756              	.LFB108:
 434:lvgl/src/misc/lv_style_gen.c **** 
 435:lvgl/src/misc/lv_style_gen.c **** void lv_style_set_line_width(lv_style_t * style, lv_coord_t value)
 436:lvgl/src/misc/lv_style_gen.c **** {
 1757              		.loc 1 436 1 is_stmt 1 view -0
 1758              		.cfi_startproc
 1759              		@ args = 0, pretend = 0, frame = 0
 1760              		@ frame_needed = 0, uses_anonymous_args = 0
 1761              		.loc 1 436 1 is_stmt 0 view .LVU325
 1762 0000 08B5     		push	{r3, lr}
 1763              		.cfi_def_cfa_offset 8
 1764              		.cfi_offset 3, -8
 1765              		.cfi_offset 14, -4
 1766 0002 0A46     		mov	r2, r1
 437:lvgl/src/misc/lv_style_gen.c ****     lv_style_value_t v = {
 1767              		.loc 1 437 5 is_stmt 1 view .LVU326
 438:lvgl/src/misc/lv_style_gen.c ****         .num = (int32_t)value
 439:lvgl/src/misc/lv_style_gen.c ****     };
 440:lvgl/src/misc/lv_style_gen.c ****     lv_style_set_prop(style, LV_STYLE_LINE_WIDTH, v);
 1768              		.loc 1 440 5 view .LVU327
 1769 0004 4921     		movs	r1, #73
 1770              	.LVL163:
 1771              		.loc 1 440 5 is_stmt 0 view .LVU328
 1772 0006 FFF7FEFF 		bl	lv_style_set_prop
 1773              	.LVL164:
 441:lvgl/src/misc/lv_style_gen.c **** }
 1774              		.loc 1 441 1 view .LVU329
 1775 000a 08BD     		pop	{r3, pc}
 1776              		.cfi_endproc
 1777              	.LFE108:
ARM GAS  C:\Users\OSD\AppData\Local\Temp\ccJ364Vh.s 			page 38


 1779              		.section	.text.lv_style_set_line_dash_width,"ax",%progbits
 1780              		.align	1
 1781              		.global	lv_style_set_line_dash_width
 1782              		.syntax unified
 1783              		.thumb
 1784              		.thumb_func
 1786              	lv_style_set_line_dash_width:
 1787              	.LVL165:
 1788              	.LFB109:
 442:lvgl/src/misc/lv_style_gen.c **** 
 443:lvgl/src/misc/lv_style_gen.c **** void lv_style_set_line_dash_width(lv_style_t * style, lv_coord_t value)
 444:lvgl/src/misc/lv_style_gen.c **** {
 1789              		.loc 1 444 1 is_stmt 1 view -0
 1790              		.cfi_startproc
 1791              		@ args = 0, pretend = 0, frame = 0
 1792              		@ frame_needed = 0, uses_anonymous_args = 0
 1793              		.loc 1 444 1 is_stmt 0 view .LVU331
 1794 0000 08B5     		push	{r3, lr}
 1795              		.cfi_def_cfa_offset 8
 1796              		.cfi_offset 3, -8
 1797              		.cfi_offset 14, -4
 1798 0002 0A46     		mov	r2, r1
 445:lvgl/src/misc/lv_style_gen.c ****     lv_style_value_t v = {
 1799              		.loc 1 445 5 is_stmt 1 view .LVU332
 446:lvgl/src/misc/lv_style_gen.c ****         .num = (int32_t)value
 447:lvgl/src/misc/lv_style_gen.c ****     };
 448:lvgl/src/misc/lv_style_gen.c ****     lv_style_set_prop(style, LV_STYLE_LINE_DASH_WIDTH, v);
 1800              		.loc 1 448 5 view .LVU333
 1801 0004 4A21     		movs	r1, #74
 1802              	.LVL166:
 1803              		.loc 1 448 5 is_stmt 0 view .LVU334
 1804 0006 FFF7FEFF 		bl	lv_style_set_prop
 1805              	.LVL167:
 449:lvgl/src/misc/lv_style_gen.c **** }
 1806              		.loc 1 449 1 view .LVU335
 1807 000a 08BD     		pop	{r3, pc}
 1808              		.cfi_endproc
 1809              	.LFE109:
 1811              		.section	.text.lv_style_set_line_dash_gap,"ax",%progbits
 1812              		.align	1
 1813              		.global	lv_style_set_line_dash_gap
 1814              		.syntax unified
 1815              		.thumb
 1816              		.thumb_func
 1818              	lv_style_set_line_dash_gap:
 1819              	.LVL168:
 1820              	.LFB110:
 450:lvgl/src/misc/lv_style_gen.c **** 
 451:lvgl/src/misc/lv_style_gen.c **** void lv_style_set_line_dash_gap(lv_style_t * style, lv_coord_t value)
 452:lvgl/src/misc/lv_style_gen.c **** {
 1821              		.loc 1 452 1 is_stmt 1 view -0
 1822              		.cfi_startproc
 1823              		@ args = 0, pretend = 0, frame = 0
 1824              		@ frame_needed = 0, uses_anonymous_args = 0
 1825              		.loc 1 452 1 is_stmt 0 view .LVU337
 1826 0000 08B5     		push	{r3, lr}
 1827              		.cfi_def_cfa_offset 8
ARM GAS  C:\Users\OSD\AppData\Local\Temp\ccJ364Vh.s 			page 39


 1828              		.cfi_offset 3, -8
 1829              		.cfi_offset 14, -4
 1830 0002 0A46     		mov	r2, r1
 453:lvgl/src/misc/lv_style_gen.c ****     lv_style_value_t v = {
 1831              		.loc 1 453 5 is_stmt 1 view .LVU338
 454:lvgl/src/misc/lv_style_gen.c ****         .num = (int32_t)value
 455:lvgl/src/misc/lv_style_gen.c ****     };
 456:lvgl/src/misc/lv_style_gen.c ****     lv_style_set_prop(style, LV_STYLE_LINE_DASH_GAP, v);
 1832              		.loc 1 456 5 view .LVU339
 1833 0004 4B21     		movs	r1, #75
 1834              	.LVL169:
 1835              		.loc 1 456 5 is_stmt 0 view .LVU340
 1836 0006 FFF7FEFF 		bl	lv_style_set_prop
 1837              	.LVL170:
 457:lvgl/src/misc/lv_style_gen.c **** }
 1838              		.loc 1 457 1 view .LVU341
 1839 000a 08BD     		pop	{r3, pc}
 1840              		.cfi_endproc
 1841              	.LFE110:
 1843              		.section	.text.lv_style_set_line_rounded,"ax",%progbits
 1844              		.align	1
 1845              		.global	lv_style_set_line_rounded
 1846              		.syntax unified
 1847              		.thumb
 1848              		.thumb_func
 1850              	lv_style_set_line_rounded:
 1851              	.LVL171:
 1852              	.LFB111:
 458:lvgl/src/misc/lv_style_gen.c **** 
 459:lvgl/src/misc/lv_style_gen.c **** void lv_style_set_line_rounded(lv_style_t * style, bool value)
 460:lvgl/src/misc/lv_style_gen.c **** {
 1853              		.loc 1 460 1 is_stmt 1 view -0
 1854              		.cfi_startproc
 1855              		@ args = 0, pretend = 0, frame = 0
 1856              		@ frame_needed = 0, uses_anonymous_args = 0
 1857              		.loc 1 460 1 is_stmt 0 view .LVU343
 1858 0000 08B5     		push	{r3, lr}
 1859              		.cfi_def_cfa_offset 8
 1860              		.cfi_offset 3, -8
 1861              		.cfi_offset 14, -4
 1862 0002 0A46     		mov	r2, r1
 461:lvgl/src/misc/lv_style_gen.c ****     lv_style_value_t v = {
 1863              		.loc 1 461 5 is_stmt 1 view .LVU344
 462:lvgl/src/misc/lv_style_gen.c ****         .num = (int32_t)value
 463:lvgl/src/misc/lv_style_gen.c ****     };
 464:lvgl/src/misc/lv_style_gen.c ****     lv_style_set_prop(style, LV_STYLE_LINE_ROUNDED, v);
 1864              		.loc 1 464 5 view .LVU345
 1865 0004 4C21     		movs	r1, #76
 1866              	.LVL172:
 1867              		.loc 1 464 5 is_stmt 0 view .LVU346
 1868 0006 FFF7FEFF 		bl	lv_style_set_prop
 1869              	.LVL173:
 465:lvgl/src/misc/lv_style_gen.c **** }
 1870              		.loc 1 465 1 view .LVU347
 1871 000a 08BD     		pop	{r3, pc}
 1872              		.cfi_endproc
 1873              	.LFE111:
ARM GAS  C:\Users\OSD\AppData\Local\Temp\ccJ364Vh.s 			page 40


 1875              		.section	.text.lv_style_set_line_color,"ax",%progbits
 1876              		.align	1
 1877              		.global	lv_style_set_line_color
 1878              		.syntax unified
 1879              		.thumb
 1880              		.thumb_func
 1882              	lv_style_set_line_color:
 1883              	.LVL174:
 1884              	.LFB112:
 466:lvgl/src/misc/lv_style_gen.c **** 
 467:lvgl/src/misc/lv_style_gen.c **** void lv_style_set_line_color(lv_style_t * style, lv_color_t value)
 468:lvgl/src/misc/lv_style_gen.c **** {
 1885              		.loc 1 468 1 is_stmt 1 view -0
 1886              		.cfi_startproc
 1887              		@ args = 0, pretend = 0, frame = 0
 1888              		@ frame_needed = 0, uses_anonymous_args = 0
 1889              		.loc 1 468 1 is_stmt 0 view .LVU349
 1890 0000 08B5     		push	{r3, lr}
 1891              		.cfi_def_cfa_offset 8
 1892              		.cfi_offset 3, -8
 1893              		.cfi_offset 14, -4
 1894 0002 0A46     		mov	r2, r1
 469:lvgl/src/misc/lv_style_gen.c ****     lv_style_value_t v = {
 1895              		.loc 1 469 5 is_stmt 1 view .LVU350
 470:lvgl/src/misc/lv_style_gen.c ****         .color = value
 471:lvgl/src/misc/lv_style_gen.c ****     };
 472:lvgl/src/misc/lv_style_gen.c ****     lv_style_set_prop(style, LV_STYLE_LINE_COLOR, v);
 1896              		.loc 1 472 5 view .LVU351
 1897 0004 4D21     		movs	r1, #77
 1898              	.LVL175:
 1899              		.loc 1 472 5 is_stmt 0 view .LVU352
 1900 0006 FFF7FEFF 		bl	lv_style_set_prop
 1901              	.LVL176:
 473:lvgl/src/misc/lv_style_gen.c **** }
 1902              		.loc 1 473 1 view .LVU353
 1903 000a 08BD     		pop	{r3, pc}
 1904              		.cfi_endproc
 1905              	.LFE112:
 1907              		.section	.text.lv_style_set_line_opa,"ax",%progbits
 1908              		.align	1
 1909              		.global	lv_style_set_line_opa
 1910              		.syntax unified
 1911              		.thumb
 1912              		.thumb_func
 1914              	lv_style_set_line_opa:
 1915              	.LVL177:
 1916              	.LFB113:
 474:lvgl/src/misc/lv_style_gen.c **** 
 475:lvgl/src/misc/lv_style_gen.c **** void lv_style_set_line_opa(lv_style_t * style, lv_opa_t value)
 476:lvgl/src/misc/lv_style_gen.c **** {
 1917              		.loc 1 476 1 is_stmt 1 view -0
 1918              		.cfi_startproc
 1919              		@ args = 0, pretend = 0, frame = 0
 1920              		@ frame_needed = 0, uses_anonymous_args = 0
 1921              		.loc 1 476 1 is_stmt 0 view .LVU355
 1922 0000 08B5     		push	{r3, lr}
 1923              		.cfi_def_cfa_offset 8
ARM GAS  C:\Users\OSD\AppData\Local\Temp\ccJ364Vh.s 			page 41


 1924              		.cfi_offset 3, -8
 1925              		.cfi_offset 14, -4
 1926 0002 0A46     		mov	r2, r1
 477:lvgl/src/misc/lv_style_gen.c ****     lv_style_value_t v = {
 1927              		.loc 1 477 5 is_stmt 1 view .LVU356
 478:lvgl/src/misc/lv_style_gen.c ****         .num = (int32_t)value
 479:lvgl/src/misc/lv_style_gen.c ****     };
 480:lvgl/src/misc/lv_style_gen.c ****     lv_style_set_prop(style, LV_STYLE_LINE_OPA, v);
 1928              		.loc 1 480 5 view .LVU357
 1929 0004 4E21     		movs	r1, #78
 1930              	.LVL178:
 1931              		.loc 1 480 5 is_stmt 0 view .LVU358
 1932 0006 FFF7FEFF 		bl	lv_style_set_prop
 1933              	.LVL179:
 481:lvgl/src/misc/lv_style_gen.c **** }
 1934              		.loc 1 481 1 view .LVU359
 1935 000a 08BD     		pop	{r3, pc}
 1936              		.cfi_endproc
 1937              	.LFE113:
 1939              		.section	.text.lv_style_set_arc_width,"ax",%progbits
 1940              		.align	1
 1941              		.global	lv_style_set_arc_width
 1942              		.syntax unified
 1943              		.thumb
 1944              		.thumb_func
 1946              	lv_style_set_arc_width:
 1947              	.LVL180:
 1948              	.LFB114:
 482:lvgl/src/misc/lv_style_gen.c **** 
 483:lvgl/src/misc/lv_style_gen.c **** void lv_style_set_arc_width(lv_style_t * style, lv_coord_t value)
 484:lvgl/src/misc/lv_style_gen.c **** {
 1949              		.loc 1 484 1 is_stmt 1 view -0
 1950              		.cfi_startproc
 1951              		@ args = 0, pretend = 0, frame = 0
 1952              		@ frame_needed = 0, uses_anonymous_args = 0
 1953              		.loc 1 484 1 is_stmt 0 view .LVU361
 1954 0000 08B5     		push	{r3, lr}
 1955              		.cfi_def_cfa_offset 8
 1956              		.cfi_offset 3, -8
 1957              		.cfi_offset 14, -4
 1958 0002 0A46     		mov	r2, r1
 485:lvgl/src/misc/lv_style_gen.c ****     lv_style_value_t v = {
 1959              		.loc 1 485 5 is_stmt 1 view .LVU362
 486:lvgl/src/misc/lv_style_gen.c ****         .num = (int32_t)value
 487:lvgl/src/misc/lv_style_gen.c ****     };
 488:lvgl/src/misc/lv_style_gen.c ****     lv_style_set_prop(style, LV_STYLE_ARC_WIDTH, v);
 1960              		.loc 1 488 5 view .LVU363
 1961 0004 5021     		movs	r1, #80
 1962              	.LVL181:
 1963              		.loc 1 488 5 is_stmt 0 view .LVU364
 1964 0006 FFF7FEFF 		bl	lv_style_set_prop
 1965              	.LVL182:
 489:lvgl/src/misc/lv_style_gen.c **** }
 1966              		.loc 1 489 1 view .LVU365
 1967 000a 08BD     		pop	{r3, pc}
 1968              		.cfi_endproc
 1969              	.LFE114:
ARM GAS  C:\Users\OSD\AppData\Local\Temp\ccJ364Vh.s 			page 42


 1971              		.section	.text.lv_style_set_arc_rounded,"ax",%progbits
 1972              		.align	1
 1973              		.global	lv_style_set_arc_rounded
 1974              		.syntax unified
 1975              		.thumb
 1976              		.thumb_func
 1978              	lv_style_set_arc_rounded:
 1979              	.LVL183:
 1980              	.LFB115:
 490:lvgl/src/misc/lv_style_gen.c **** 
 491:lvgl/src/misc/lv_style_gen.c **** void lv_style_set_arc_rounded(lv_style_t * style, bool value)
 492:lvgl/src/misc/lv_style_gen.c **** {
 1981              		.loc 1 492 1 is_stmt 1 view -0
 1982              		.cfi_startproc
 1983              		@ args = 0, pretend = 0, frame = 0
 1984              		@ frame_needed = 0, uses_anonymous_args = 0
 1985              		.loc 1 492 1 is_stmt 0 view .LVU367
 1986 0000 08B5     		push	{r3, lr}
 1987              		.cfi_def_cfa_offset 8
 1988              		.cfi_offset 3, -8
 1989              		.cfi_offset 14, -4
 1990 0002 0A46     		mov	r2, r1
 493:lvgl/src/misc/lv_style_gen.c ****     lv_style_value_t v = {
 1991              		.loc 1 493 5 is_stmt 1 view .LVU368
 494:lvgl/src/misc/lv_style_gen.c ****         .num = (int32_t)value
 495:lvgl/src/misc/lv_style_gen.c ****     };
 496:lvgl/src/misc/lv_style_gen.c ****     lv_style_set_prop(style, LV_STYLE_ARC_ROUNDED, v);
 1992              		.loc 1 496 5 view .LVU369
 1993 0004 5121     		movs	r1, #81
 1994              	.LVL184:
 1995              		.loc 1 496 5 is_stmt 0 view .LVU370
 1996 0006 FFF7FEFF 		bl	lv_style_set_prop
 1997              	.LVL185:
 497:lvgl/src/misc/lv_style_gen.c **** }
 1998              		.loc 1 497 1 view .LVU371
 1999 000a 08BD     		pop	{r3, pc}
 2000              		.cfi_endproc
 2001              	.LFE115:
 2003              		.section	.text.lv_style_set_arc_color,"ax",%progbits
 2004              		.align	1
 2005              		.global	lv_style_set_arc_color
 2006              		.syntax unified
 2007              		.thumb
 2008              		.thumb_func
 2010              	lv_style_set_arc_color:
 2011              	.LVL186:
 2012              	.LFB116:
 498:lvgl/src/misc/lv_style_gen.c **** 
 499:lvgl/src/misc/lv_style_gen.c **** void lv_style_set_arc_color(lv_style_t * style, lv_color_t value)
 500:lvgl/src/misc/lv_style_gen.c **** {
 2013              		.loc 1 500 1 is_stmt 1 view -0
 2014              		.cfi_startproc
 2015              		@ args = 0, pretend = 0, frame = 0
 2016              		@ frame_needed = 0, uses_anonymous_args = 0
 2017              		.loc 1 500 1 is_stmt 0 view .LVU373
 2018 0000 08B5     		push	{r3, lr}
 2019              		.cfi_def_cfa_offset 8
ARM GAS  C:\Users\OSD\AppData\Local\Temp\ccJ364Vh.s 			page 43


 2020              		.cfi_offset 3, -8
 2021              		.cfi_offset 14, -4
 2022 0002 0A46     		mov	r2, r1
 501:lvgl/src/misc/lv_style_gen.c ****     lv_style_value_t v = {
 2023              		.loc 1 501 5 is_stmt 1 view .LVU374
 502:lvgl/src/misc/lv_style_gen.c ****         .color = value
 503:lvgl/src/misc/lv_style_gen.c ****     };
 504:lvgl/src/misc/lv_style_gen.c ****     lv_style_set_prop(style, LV_STYLE_ARC_COLOR, v);
 2024              		.loc 1 504 5 view .LVU375
 2025 0004 5221     		movs	r1, #82
 2026              	.LVL187:
 2027              		.loc 1 504 5 is_stmt 0 view .LVU376
 2028 0006 FFF7FEFF 		bl	lv_style_set_prop
 2029              	.LVL188:
 505:lvgl/src/misc/lv_style_gen.c **** }
 2030              		.loc 1 505 1 view .LVU377
 2031 000a 08BD     		pop	{r3, pc}
 2032              		.cfi_endproc
 2033              	.LFE116:
 2035              		.section	.text.lv_style_set_arc_opa,"ax",%progbits
 2036              		.align	1
 2037              		.global	lv_style_set_arc_opa
 2038              		.syntax unified
 2039              		.thumb
 2040              		.thumb_func
 2042              	lv_style_set_arc_opa:
 2043              	.LVL189:
 2044              	.LFB117:
 506:lvgl/src/misc/lv_style_gen.c **** 
 507:lvgl/src/misc/lv_style_gen.c **** void lv_style_set_arc_opa(lv_style_t * style, lv_opa_t value)
 508:lvgl/src/misc/lv_style_gen.c **** {
 2045              		.loc 1 508 1 is_stmt 1 view -0
 2046              		.cfi_startproc
 2047              		@ args = 0, pretend = 0, frame = 0
 2048              		@ frame_needed = 0, uses_anonymous_args = 0
 2049              		.loc 1 508 1 is_stmt 0 view .LVU379
 2050 0000 08B5     		push	{r3, lr}
 2051              		.cfi_def_cfa_offset 8
 2052              		.cfi_offset 3, -8
 2053              		.cfi_offset 14, -4
 2054 0002 0A46     		mov	r2, r1
 509:lvgl/src/misc/lv_style_gen.c ****     lv_style_value_t v = {
 2055              		.loc 1 509 5 is_stmt 1 view .LVU380
 510:lvgl/src/misc/lv_style_gen.c ****         .num = (int32_t)value
 511:lvgl/src/misc/lv_style_gen.c ****     };
 512:lvgl/src/misc/lv_style_gen.c ****     lv_style_set_prop(style, LV_STYLE_ARC_OPA, v);
 2056              		.loc 1 512 5 view .LVU381
 2057 0004 5321     		movs	r1, #83
 2058              	.LVL190:
 2059              		.loc 1 512 5 is_stmt 0 view .LVU382
 2060 0006 FFF7FEFF 		bl	lv_style_set_prop
 2061              	.LVL191:
 513:lvgl/src/misc/lv_style_gen.c **** }
 2062              		.loc 1 513 1 view .LVU383
 2063 000a 08BD     		pop	{r3, pc}
 2064              		.cfi_endproc
 2065              	.LFE117:
ARM GAS  C:\Users\OSD\AppData\Local\Temp\ccJ364Vh.s 			page 44


 2067              		.section	.text.lv_style_set_arc_img_src,"ax",%progbits
 2068              		.align	1
 2069              		.global	lv_style_set_arc_img_src
 2070              		.syntax unified
 2071              		.thumb
 2072              		.thumb_func
 2074              	lv_style_set_arc_img_src:
 2075              	.LVL192:
 2076              	.LFB118:
 514:lvgl/src/misc/lv_style_gen.c **** 
 515:lvgl/src/misc/lv_style_gen.c **** void lv_style_set_arc_img_src(lv_style_t * style, const void * value)
 516:lvgl/src/misc/lv_style_gen.c **** {
 2077              		.loc 1 516 1 is_stmt 1 view -0
 2078              		.cfi_startproc
 2079              		@ args = 0, pretend = 0, frame = 0
 2080              		@ frame_needed = 0, uses_anonymous_args = 0
 2081              		.loc 1 516 1 is_stmt 0 view .LVU385
 2082 0000 08B5     		push	{r3, lr}
 2083              		.cfi_def_cfa_offset 8
 2084              		.cfi_offset 3, -8
 2085              		.cfi_offset 14, -4
 2086 0002 0A46     		mov	r2, r1
 517:lvgl/src/misc/lv_style_gen.c ****     lv_style_value_t v = {
 2087              		.loc 1 517 5 is_stmt 1 view .LVU386
 518:lvgl/src/misc/lv_style_gen.c ****         .ptr = value
 519:lvgl/src/misc/lv_style_gen.c ****     };
 520:lvgl/src/misc/lv_style_gen.c ****     lv_style_set_prop(style, LV_STYLE_ARC_IMG_SRC, v);
 2088              		.loc 1 520 5 view .LVU387
 2089 0004 5421     		movs	r1, #84
 2090              	.LVL193:
 2091              		.loc 1 520 5 is_stmt 0 view .LVU388
 2092 0006 FFF7FEFF 		bl	lv_style_set_prop
 2093              	.LVL194:
 521:lvgl/src/misc/lv_style_gen.c **** }
 2094              		.loc 1 521 1 view .LVU389
 2095 000a 08BD     		pop	{r3, pc}
 2096              		.cfi_endproc
 2097              	.LFE118:
 2099              		.section	.text.lv_style_set_text_color,"ax",%progbits
 2100              		.align	1
 2101              		.global	lv_style_set_text_color
 2102              		.syntax unified
 2103              		.thumb
 2104              		.thumb_func
 2106              	lv_style_set_text_color:
 2107              	.LVL195:
 2108              	.LFB119:
 522:lvgl/src/misc/lv_style_gen.c **** 
 523:lvgl/src/misc/lv_style_gen.c **** void lv_style_set_text_color(lv_style_t * style, lv_color_t value)
 524:lvgl/src/misc/lv_style_gen.c **** {
 2109              		.loc 1 524 1 is_stmt 1 view -0
 2110              		.cfi_startproc
 2111              		@ args = 0, pretend = 0, frame = 0
 2112              		@ frame_needed = 0, uses_anonymous_args = 0
 2113              		.loc 1 524 1 is_stmt 0 view .LVU391
 2114 0000 08B5     		push	{r3, lr}
 2115              		.cfi_def_cfa_offset 8
ARM GAS  C:\Users\OSD\AppData\Local\Temp\ccJ364Vh.s 			page 45


 2116              		.cfi_offset 3, -8
 2117              		.cfi_offset 14, -4
 2118 0002 0A46     		mov	r2, r1
 525:lvgl/src/misc/lv_style_gen.c ****     lv_style_value_t v = {
 2119              		.loc 1 525 5 is_stmt 1 view .LVU392
 526:lvgl/src/misc/lv_style_gen.c ****         .color = value
 527:lvgl/src/misc/lv_style_gen.c ****     };
 528:lvgl/src/misc/lv_style_gen.c ****     lv_style_set_prop(style, LV_STYLE_TEXT_COLOR, v);
 2120              		.loc 1 528 5 view .LVU393
 2121 0004 5521     		movs	r1, #85
 2122              	.LVL196:
 2123              		.loc 1 528 5 is_stmt 0 view .LVU394
 2124 0006 FFF7FEFF 		bl	lv_style_set_prop
 2125              	.LVL197:
 529:lvgl/src/misc/lv_style_gen.c **** }
 2126              		.loc 1 529 1 view .LVU395
 2127 000a 08BD     		pop	{r3, pc}
 2128              		.cfi_endproc
 2129              	.LFE119:
 2131              		.section	.text.lv_style_set_text_opa,"ax",%progbits
 2132              		.align	1
 2133              		.global	lv_style_set_text_opa
 2134              		.syntax unified
 2135              		.thumb
 2136              		.thumb_func
 2138              	lv_style_set_text_opa:
 2139              	.LVL198:
 2140              	.LFB120:
 530:lvgl/src/misc/lv_style_gen.c **** 
 531:lvgl/src/misc/lv_style_gen.c **** void lv_style_set_text_opa(lv_style_t * style, lv_opa_t value)
 532:lvgl/src/misc/lv_style_gen.c **** {
 2141              		.loc 1 532 1 is_stmt 1 view -0
 2142              		.cfi_startproc
 2143              		@ args = 0, pretend = 0, frame = 0
 2144              		@ frame_needed = 0, uses_anonymous_args = 0
 2145              		.loc 1 532 1 is_stmt 0 view .LVU397
 2146 0000 08B5     		push	{r3, lr}
 2147              		.cfi_def_cfa_offset 8
 2148              		.cfi_offset 3, -8
 2149              		.cfi_offset 14, -4
 2150 0002 0A46     		mov	r2, r1
 533:lvgl/src/misc/lv_style_gen.c ****     lv_style_value_t v = {
 2151              		.loc 1 533 5 is_stmt 1 view .LVU398
 534:lvgl/src/misc/lv_style_gen.c ****         .num = (int32_t)value
 535:lvgl/src/misc/lv_style_gen.c ****     };
 536:lvgl/src/misc/lv_style_gen.c ****     lv_style_set_prop(style, LV_STYLE_TEXT_OPA, v);
 2152              		.loc 1 536 5 view .LVU399
 2153 0004 5621     		movs	r1, #86
 2154              	.LVL199:
 2155              		.loc 1 536 5 is_stmt 0 view .LVU400
 2156 0006 FFF7FEFF 		bl	lv_style_set_prop
 2157              	.LVL200:
 537:lvgl/src/misc/lv_style_gen.c **** }
 2158              		.loc 1 537 1 view .LVU401
 2159 000a 08BD     		pop	{r3, pc}
 2160              		.cfi_endproc
 2161              	.LFE120:
ARM GAS  C:\Users\OSD\AppData\Local\Temp\ccJ364Vh.s 			page 46


 2163              		.section	.text.lv_style_set_text_font,"ax",%progbits
 2164              		.align	1
 2165              		.global	lv_style_set_text_font
 2166              		.syntax unified
 2167              		.thumb
 2168              		.thumb_func
 2170              	lv_style_set_text_font:
 2171              	.LVL201:
 2172              	.LFB121:
 538:lvgl/src/misc/lv_style_gen.c **** 
 539:lvgl/src/misc/lv_style_gen.c **** void lv_style_set_text_font(lv_style_t * style, const lv_font_t * value)
 540:lvgl/src/misc/lv_style_gen.c **** {
 2173              		.loc 1 540 1 is_stmt 1 view -0
 2174              		.cfi_startproc
 2175              		@ args = 0, pretend = 0, frame = 0
 2176              		@ frame_needed = 0, uses_anonymous_args = 0
 2177              		.loc 1 540 1 is_stmt 0 view .LVU403
 2178 0000 08B5     		push	{r3, lr}
 2179              		.cfi_def_cfa_offset 8
 2180              		.cfi_offset 3, -8
 2181              		.cfi_offset 14, -4
 2182 0002 0A46     		mov	r2, r1
 541:lvgl/src/misc/lv_style_gen.c ****     lv_style_value_t v = {
 2183              		.loc 1 541 5 is_stmt 1 view .LVU404
 542:lvgl/src/misc/lv_style_gen.c ****         .ptr = value
 543:lvgl/src/misc/lv_style_gen.c ****     };
 544:lvgl/src/misc/lv_style_gen.c ****     lv_style_set_prop(style, LV_STYLE_TEXT_FONT, v);
 2184              		.loc 1 544 5 view .LVU405
 2185 0004 5721     		movs	r1, #87
 2186              	.LVL202:
 2187              		.loc 1 544 5 is_stmt 0 view .LVU406
 2188 0006 FFF7FEFF 		bl	lv_style_set_prop
 2189              	.LVL203:
 545:lvgl/src/misc/lv_style_gen.c **** }
 2190              		.loc 1 545 1 view .LVU407
 2191 000a 08BD     		pop	{r3, pc}
 2192              		.cfi_endproc
 2193              	.LFE121:
 2195              		.section	.text.lv_style_set_text_letter_space,"ax",%progbits
 2196              		.align	1
 2197              		.global	lv_style_set_text_letter_space
 2198              		.syntax unified
 2199              		.thumb
 2200              		.thumb_func
 2202              	lv_style_set_text_letter_space:
 2203              	.LVL204:
 2204              	.LFB122:
 546:lvgl/src/misc/lv_style_gen.c **** 
 547:lvgl/src/misc/lv_style_gen.c **** void lv_style_set_text_letter_space(lv_style_t * style, lv_coord_t value)
 548:lvgl/src/misc/lv_style_gen.c **** {
 2205              		.loc 1 548 1 is_stmt 1 view -0
 2206              		.cfi_startproc
 2207              		@ args = 0, pretend = 0, frame = 0
 2208              		@ frame_needed = 0, uses_anonymous_args = 0
 2209              		.loc 1 548 1 is_stmt 0 view .LVU409
 2210 0000 08B5     		push	{r3, lr}
 2211              		.cfi_def_cfa_offset 8
ARM GAS  C:\Users\OSD\AppData\Local\Temp\ccJ364Vh.s 			page 47


 2212              		.cfi_offset 3, -8
 2213              		.cfi_offset 14, -4
 2214 0002 0A46     		mov	r2, r1
 549:lvgl/src/misc/lv_style_gen.c ****     lv_style_value_t v = {
 2215              		.loc 1 549 5 is_stmt 1 view .LVU410
 550:lvgl/src/misc/lv_style_gen.c ****         .num = (int32_t)value
 551:lvgl/src/misc/lv_style_gen.c ****     };
 552:lvgl/src/misc/lv_style_gen.c ****     lv_style_set_prop(style, LV_STYLE_TEXT_LETTER_SPACE, v);
 2216              		.loc 1 552 5 view .LVU411
 2217 0004 5821     		movs	r1, #88
 2218              	.LVL205:
 2219              		.loc 1 552 5 is_stmt 0 view .LVU412
 2220 0006 FFF7FEFF 		bl	lv_style_set_prop
 2221              	.LVL206:
 553:lvgl/src/misc/lv_style_gen.c **** }
 2222              		.loc 1 553 1 view .LVU413
 2223 000a 08BD     		pop	{r3, pc}
 2224              		.cfi_endproc
 2225              	.LFE122:
 2227              		.section	.text.lv_style_set_text_line_space,"ax",%progbits
 2228              		.align	1
 2229              		.global	lv_style_set_text_line_space
 2230              		.syntax unified
 2231              		.thumb
 2232              		.thumb_func
 2234              	lv_style_set_text_line_space:
 2235              	.LVL207:
 2236              	.LFB123:
 554:lvgl/src/misc/lv_style_gen.c **** 
 555:lvgl/src/misc/lv_style_gen.c **** void lv_style_set_text_line_space(lv_style_t * style, lv_coord_t value)
 556:lvgl/src/misc/lv_style_gen.c **** {
 2237              		.loc 1 556 1 is_stmt 1 view -0
 2238              		.cfi_startproc
 2239              		@ args = 0, pretend = 0, frame = 0
 2240              		@ frame_needed = 0, uses_anonymous_args = 0
 2241              		.loc 1 556 1 is_stmt 0 view .LVU415
 2242 0000 08B5     		push	{r3, lr}
 2243              		.cfi_def_cfa_offset 8
 2244              		.cfi_offset 3, -8
 2245              		.cfi_offset 14, -4
 2246 0002 0A46     		mov	r2, r1
 557:lvgl/src/misc/lv_style_gen.c ****     lv_style_value_t v = {
 2247              		.loc 1 557 5 is_stmt 1 view .LVU416
 558:lvgl/src/misc/lv_style_gen.c ****         .num = (int32_t)value
 559:lvgl/src/misc/lv_style_gen.c ****     };
 560:lvgl/src/misc/lv_style_gen.c ****     lv_style_set_prop(style, LV_STYLE_TEXT_LINE_SPACE, v);
 2248              		.loc 1 560 5 view .LVU417
 2249 0004 5921     		movs	r1, #89
 2250              	.LVL208:
 2251              		.loc 1 560 5 is_stmt 0 view .LVU418
 2252 0006 FFF7FEFF 		bl	lv_style_set_prop
 2253              	.LVL209:
 561:lvgl/src/misc/lv_style_gen.c **** }
 2254              		.loc 1 561 1 view .LVU419
 2255 000a 08BD     		pop	{r3, pc}
 2256              		.cfi_endproc
 2257              	.LFE123:
ARM GAS  C:\Users\OSD\AppData\Local\Temp\ccJ364Vh.s 			page 48


 2259              		.section	.text.lv_style_set_text_decor,"ax",%progbits
 2260              		.align	1
 2261              		.global	lv_style_set_text_decor
 2262              		.syntax unified
 2263              		.thumb
 2264              		.thumb_func
 2266              	lv_style_set_text_decor:
 2267              	.LVL210:
 2268              	.LFB124:
 562:lvgl/src/misc/lv_style_gen.c **** 
 563:lvgl/src/misc/lv_style_gen.c **** void lv_style_set_text_decor(lv_style_t * style, lv_text_decor_t value)
 564:lvgl/src/misc/lv_style_gen.c **** {
 2269              		.loc 1 564 1 is_stmt 1 view -0
 2270              		.cfi_startproc
 2271              		@ args = 0, pretend = 0, frame = 0
 2272              		@ frame_needed = 0, uses_anonymous_args = 0
 2273              		.loc 1 564 1 is_stmt 0 view .LVU421
 2274 0000 08B5     		push	{r3, lr}
 2275              		.cfi_def_cfa_offset 8
 2276              		.cfi_offset 3, -8
 2277              		.cfi_offset 14, -4
 2278 0002 0A46     		mov	r2, r1
 565:lvgl/src/misc/lv_style_gen.c ****     lv_style_value_t v = {
 2279              		.loc 1 565 5 is_stmt 1 view .LVU422
 566:lvgl/src/misc/lv_style_gen.c ****         .num = (int32_t)value
 567:lvgl/src/misc/lv_style_gen.c ****     };
 568:lvgl/src/misc/lv_style_gen.c ****     lv_style_set_prop(style, LV_STYLE_TEXT_DECOR, v);
 2280              		.loc 1 568 5 view .LVU423
 2281 0004 5A21     		movs	r1, #90
 2282              	.LVL211:
 2283              		.loc 1 568 5 is_stmt 0 view .LVU424
 2284 0006 FFF7FEFF 		bl	lv_style_set_prop
 2285              	.LVL212:
 569:lvgl/src/misc/lv_style_gen.c **** }
 2286              		.loc 1 569 1 view .LVU425
 2287 000a 08BD     		pop	{r3, pc}
 2288              		.cfi_endproc
 2289              	.LFE124:
 2291              		.section	.text.lv_style_set_text_align,"ax",%progbits
 2292              		.align	1
 2293              		.global	lv_style_set_text_align
 2294              		.syntax unified
 2295              		.thumb
 2296              		.thumb_func
 2298              	lv_style_set_text_align:
 2299              	.LVL213:
 2300              	.LFB125:
 570:lvgl/src/misc/lv_style_gen.c **** 
 571:lvgl/src/misc/lv_style_gen.c **** void lv_style_set_text_align(lv_style_t * style, lv_text_align_t value)
 572:lvgl/src/misc/lv_style_gen.c **** {
 2301              		.loc 1 572 1 is_stmt 1 view -0
 2302              		.cfi_startproc
 2303              		@ args = 0, pretend = 0, frame = 0
 2304              		@ frame_needed = 0, uses_anonymous_args = 0
 2305              		.loc 1 572 1 is_stmt 0 view .LVU427
 2306 0000 08B5     		push	{r3, lr}
 2307              		.cfi_def_cfa_offset 8
ARM GAS  C:\Users\OSD\AppData\Local\Temp\ccJ364Vh.s 			page 49


 2308              		.cfi_offset 3, -8
 2309              		.cfi_offset 14, -4
 2310 0002 0A46     		mov	r2, r1
 573:lvgl/src/misc/lv_style_gen.c ****     lv_style_value_t v = {
 2311              		.loc 1 573 5 is_stmt 1 view .LVU428
 574:lvgl/src/misc/lv_style_gen.c ****         .num = (int32_t)value
 575:lvgl/src/misc/lv_style_gen.c ****     };
 576:lvgl/src/misc/lv_style_gen.c ****     lv_style_set_prop(style, LV_STYLE_TEXT_ALIGN, v);
 2312              		.loc 1 576 5 view .LVU429
 2313 0004 5B21     		movs	r1, #91
 2314              	.LVL214:
 2315              		.loc 1 576 5 is_stmt 0 view .LVU430
 2316 0006 FFF7FEFF 		bl	lv_style_set_prop
 2317              	.LVL215:
 577:lvgl/src/misc/lv_style_gen.c **** }
 2318              		.loc 1 577 1 view .LVU431
 2319 000a 08BD     		pop	{r3, pc}
 2320              		.cfi_endproc
 2321              	.LFE125:
 2323              		.section	.text.lv_style_set_radius,"ax",%progbits
 2324              		.align	1
 2325              		.global	lv_style_set_radius
 2326              		.syntax unified
 2327              		.thumb
 2328              		.thumb_func
 2330              	lv_style_set_radius:
 2331              	.LVL216:
 2332              	.LFB126:
 578:lvgl/src/misc/lv_style_gen.c **** 
 579:lvgl/src/misc/lv_style_gen.c **** void lv_style_set_radius(lv_style_t * style, lv_coord_t value)
 580:lvgl/src/misc/lv_style_gen.c **** {
 2333              		.loc 1 580 1 is_stmt 1 view -0
 2334              		.cfi_startproc
 2335              		@ args = 0, pretend = 0, frame = 0
 2336              		@ frame_needed = 0, uses_anonymous_args = 0
 2337              		.loc 1 580 1 is_stmt 0 view .LVU433
 2338 0000 08B5     		push	{r3, lr}
 2339              		.cfi_def_cfa_offset 8
 2340              		.cfi_offset 3, -8
 2341              		.cfi_offset 14, -4
 2342 0002 0A46     		mov	r2, r1
 581:lvgl/src/misc/lv_style_gen.c ****     lv_style_value_t v = {
 2343              		.loc 1 581 5 is_stmt 1 view .LVU434
 582:lvgl/src/misc/lv_style_gen.c ****         .num = (int32_t)value
 583:lvgl/src/misc/lv_style_gen.c ****     };
 584:lvgl/src/misc/lv_style_gen.c ****     lv_style_set_prop(style, LV_STYLE_RADIUS, v);
 2344              		.loc 1 584 5 view .LVU435
 2345 0004 0B21     		movs	r1, #11
 2346              	.LVL217:
 2347              		.loc 1 584 5 is_stmt 0 view .LVU436
 2348 0006 FFF7FEFF 		bl	lv_style_set_prop
 2349              	.LVL218:
 585:lvgl/src/misc/lv_style_gen.c **** }
 2350              		.loc 1 585 1 view .LVU437
 2351 000a 08BD     		pop	{r3, pc}
 2352              		.cfi_endproc
 2353              	.LFE126:
ARM GAS  C:\Users\OSD\AppData\Local\Temp\ccJ364Vh.s 			page 50


 2355              		.section	.text.lv_style_set_clip_corner,"ax",%progbits
 2356              		.align	1
 2357              		.global	lv_style_set_clip_corner
 2358              		.syntax unified
 2359              		.thumb
 2360              		.thumb_func
 2362              	lv_style_set_clip_corner:
 2363              	.LVL219:
 2364              	.LFB127:
 586:lvgl/src/misc/lv_style_gen.c **** 
 587:lvgl/src/misc/lv_style_gen.c **** void lv_style_set_clip_corner(lv_style_t * style, bool value)
 588:lvgl/src/misc/lv_style_gen.c **** {
 2365              		.loc 1 588 1 is_stmt 1 view -0
 2366              		.cfi_startproc
 2367              		@ args = 0, pretend = 0, frame = 0
 2368              		@ frame_needed = 0, uses_anonymous_args = 0
 2369              		.loc 1 588 1 is_stmt 0 view .LVU439
 2370 0000 08B5     		push	{r3, lr}
 2371              		.cfi_def_cfa_offset 8
 2372              		.cfi_offset 3, -8
 2373              		.cfi_offset 14, -4
 2374 0002 0A46     		mov	r2, r1
 589:lvgl/src/misc/lv_style_gen.c ****     lv_style_value_t v = {
 2375              		.loc 1 589 5 is_stmt 1 view .LVU440
 590:lvgl/src/misc/lv_style_gen.c ****         .num = (int32_t)value
 591:lvgl/src/misc/lv_style_gen.c ****     };
 592:lvgl/src/misc/lv_style_gen.c ****     lv_style_set_prop(style, LV_STYLE_CLIP_CORNER, v);
 2376              		.loc 1 592 5 view .LVU441
 2377 0004 1721     		movs	r1, #23
 2378              	.LVL220:
 2379              		.loc 1 592 5 is_stmt 0 view .LVU442
 2380 0006 FFF7FEFF 		bl	lv_style_set_prop
 2381              	.LVL221:
 593:lvgl/src/misc/lv_style_gen.c **** }
 2382              		.loc 1 593 1 view .LVU443
 2383 000a 08BD     		pop	{r3, pc}
 2384              		.cfi_endproc
 2385              	.LFE127:
 2387              		.section	.text.lv_style_set_opa,"ax",%progbits
 2388              		.align	1
 2389              		.global	lv_style_set_opa
 2390              		.syntax unified
 2391              		.thumb
 2392              		.thumb_func
 2394              	lv_style_set_opa:
 2395              	.LVL222:
 2396              	.LFB128:
 594:lvgl/src/misc/lv_style_gen.c **** 
 595:lvgl/src/misc/lv_style_gen.c **** void lv_style_set_opa(lv_style_t * style, lv_opa_t value)
 596:lvgl/src/misc/lv_style_gen.c **** {
 2397              		.loc 1 596 1 is_stmt 1 view -0
 2398              		.cfi_startproc
 2399              		@ args = 0, pretend = 0, frame = 0
 2400              		@ frame_needed = 0, uses_anonymous_args = 0
 2401              		.loc 1 596 1 is_stmt 0 view .LVU445
 2402 0000 08B5     		push	{r3, lr}
 2403              		.cfi_def_cfa_offset 8
ARM GAS  C:\Users\OSD\AppData\Local\Temp\ccJ364Vh.s 			page 51


 2404              		.cfi_offset 3, -8
 2405              		.cfi_offset 14, -4
 2406 0002 0A46     		mov	r2, r1
 597:lvgl/src/misc/lv_style_gen.c ****     lv_style_value_t v = {
 2407              		.loc 1 597 5 is_stmt 1 view .LVU446
 598:lvgl/src/misc/lv_style_gen.c ****         .num = (int32_t)value
 599:lvgl/src/misc/lv_style_gen.c ****     };
 600:lvgl/src/misc/lv_style_gen.c ****     lv_style_set_prop(style, LV_STYLE_OPA, v);
 2408              		.loc 1 600 5 view .LVU447
 2409 0004 6021     		movs	r1, #96
 2410              	.LVL223:
 2411              		.loc 1 600 5 is_stmt 0 view .LVU448
 2412 0006 FFF7FEFF 		bl	lv_style_set_prop
 2413              	.LVL224:
 601:lvgl/src/misc/lv_style_gen.c **** }
 2414              		.loc 1 601 1 view .LVU449
 2415 000a 08BD     		pop	{r3, pc}
 2416              		.cfi_endproc
 2417              	.LFE128:
 2419              		.section	.text.lv_style_set_opa_layered,"ax",%progbits
 2420              		.align	1
 2421              		.global	lv_style_set_opa_layered
 2422              		.syntax unified
 2423              		.thumb
 2424              		.thumb_func
 2426              	lv_style_set_opa_layered:
 2427              	.LVL225:
 2428              	.LFB129:
 602:lvgl/src/misc/lv_style_gen.c **** 
 603:lvgl/src/misc/lv_style_gen.c **** void lv_style_set_opa_layered(lv_style_t * style, lv_opa_t value)
 604:lvgl/src/misc/lv_style_gen.c **** {
 2429              		.loc 1 604 1 is_stmt 1 view -0
 2430              		.cfi_startproc
 2431              		@ args = 0, pretend = 0, frame = 0
 2432              		@ frame_needed = 0, uses_anonymous_args = 0
 2433              		.loc 1 604 1 is_stmt 0 view .LVU451
 2434 0000 08B5     		push	{r3, lr}
 2435              		.cfi_def_cfa_offset 8
 2436              		.cfi_offset 3, -8
 2437              		.cfi_offset 14, -4
 2438 0002 0A46     		mov	r2, r1
 605:lvgl/src/misc/lv_style_gen.c ****     lv_style_value_t v = {
 2439              		.loc 1 605 5 is_stmt 1 view .LVU452
 606:lvgl/src/misc/lv_style_gen.c ****         .num = (int32_t)value
 607:lvgl/src/misc/lv_style_gen.c ****     };
 608:lvgl/src/misc/lv_style_gen.c ****     lv_style_set_prop(style, LV_STYLE_OPA_LAYERED, v);
 2440              		.loc 1 608 5 view .LVU453
 2441 0004 6121     		movs	r1, #97
 2442              	.LVL226:
 2443              		.loc 1 608 5 is_stmt 0 view .LVU454
 2444 0006 FFF7FEFF 		bl	lv_style_set_prop
 2445              	.LVL227:
 609:lvgl/src/misc/lv_style_gen.c **** }
 2446              		.loc 1 609 1 view .LVU455
 2447 000a 08BD     		pop	{r3, pc}
 2448              		.cfi_endproc
 2449              	.LFE129:
ARM GAS  C:\Users\OSD\AppData\Local\Temp\ccJ364Vh.s 			page 52


 2451              		.section	.text.lv_style_set_color_filter_dsc,"ax",%progbits
 2452              		.align	1
 2453              		.global	lv_style_set_color_filter_dsc
 2454              		.syntax unified
 2455              		.thumb
 2456              		.thumb_func
 2458              	lv_style_set_color_filter_dsc:
 2459              	.LVL228:
 2460              	.LFB130:
 610:lvgl/src/misc/lv_style_gen.c **** 
 611:lvgl/src/misc/lv_style_gen.c **** void lv_style_set_color_filter_dsc(lv_style_t * style, const lv_color_filter_dsc_t * value)
 612:lvgl/src/misc/lv_style_gen.c **** {
 2461              		.loc 1 612 1 is_stmt 1 view -0
 2462              		.cfi_startproc
 2463              		@ args = 0, pretend = 0, frame = 0
 2464              		@ frame_needed = 0, uses_anonymous_args = 0
 2465              		.loc 1 612 1 is_stmt 0 view .LVU457
 2466 0000 08B5     		push	{r3, lr}
 2467              		.cfi_def_cfa_offset 8
 2468              		.cfi_offset 3, -8
 2469              		.cfi_offset 14, -4
 2470 0002 0A46     		mov	r2, r1
 613:lvgl/src/misc/lv_style_gen.c ****     lv_style_value_t v = {
 2471              		.loc 1 613 5 is_stmt 1 view .LVU458
 614:lvgl/src/misc/lv_style_gen.c ****         .ptr = value
 615:lvgl/src/misc/lv_style_gen.c ****     };
 616:lvgl/src/misc/lv_style_gen.c ****     lv_style_set_prop(style, LV_STYLE_COLOR_FILTER_DSC, v);
 2472              		.loc 1 616 5 view .LVU459
 2473 0004 6221     		movs	r1, #98
 2474              	.LVL229:
 2475              		.loc 1 616 5 is_stmt 0 view .LVU460
 2476 0006 FFF7FEFF 		bl	lv_style_set_prop
 2477              	.LVL230:
 617:lvgl/src/misc/lv_style_gen.c **** }
 2478              		.loc 1 617 1 view .LVU461
 2479 000a 08BD     		pop	{r3, pc}
 2480              		.cfi_endproc
 2481              	.LFE130:
 2483              		.section	.text.lv_style_set_color_filter_opa,"ax",%progbits
 2484              		.align	1
 2485              		.global	lv_style_set_color_filter_opa
 2486              		.syntax unified
 2487              		.thumb
 2488              		.thumb_func
 2490              	lv_style_set_color_filter_opa:
 2491              	.LVL231:
 2492              	.LFB131:
 618:lvgl/src/misc/lv_style_gen.c **** 
 619:lvgl/src/misc/lv_style_gen.c **** void lv_style_set_color_filter_opa(lv_style_t * style, lv_opa_t value)
 620:lvgl/src/misc/lv_style_gen.c **** {
 2493              		.loc 1 620 1 is_stmt 1 view -0
 2494              		.cfi_startproc
 2495              		@ args = 0, pretend = 0, frame = 0
 2496              		@ frame_needed = 0, uses_anonymous_args = 0
 2497              		.loc 1 620 1 is_stmt 0 view .LVU463
 2498 0000 08B5     		push	{r3, lr}
 2499              		.cfi_def_cfa_offset 8
ARM GAS  C:\Users\OSD\AppData\Local\Temp\ccJ364Vh.s 			page 53


 2500              		.cfi_offset 3, -8
 2501              		.cfi_offset 14, -4
 2502 0002 0A46     		mov	r2, r1
 621:lvgl/src/misc/lv_style_gen.c ****     lv_style_value_t v = {
 2503              		.loc 1 621 5 is_stmt 1 view .LVU464
 622:lvgl/src/misc/lv_style_gen.c ****         .num = (int32_t)value
 623:lvgl/src/misc/lv_style_gen.c ****     };
 624:lvgl/src/misc/lv_style_gen.c ****     lv_style_set_prop(style, LV_STYLE_COLOR_FILTER_OPA, v);
 2504              		.loc 1 624 5 view .LVU465
 2505 0004 6321     		movs	r1, #99
 2506              	.LVL232:
 2507              		.loc 1 624 5 is_stmt 0 view .LVU466
 2508 0006 FFF7FEFF 		bl	lv_style_set_prop
 2509              	.LVL233:
 625:lvgl/src/misc/lv_style_gen.c **** }
 2510              		.loc 1 625 1 view .LVU467
 2511 000a 08BD     		pop	{r3, pc}
 2512              		.cfi_endproc
 2513              	.LFE131:
 2515              		.section	.text.lv_style_set_anim,"ax",%progbits
 2516              		.align	1
 2517              		.global	lv_style_set_anim
 2518              		.syntax unified
 2519              		.thumb
 2520              		.thumb_func
 2522              	lv_style_set_anim:
 2523              	.LVL234:
 2524              	.LFB132:
 626:lvgl/src/misc/lv_style_gen.c **** 
 627:lvgl/src/misc/lv_style_gen.c **** void lv_style_set_anim(lv_style_t * style, const lv_anim_t * value)
 628:lvgl/src/misc/lv_style_gen.c **** {
 2525              		.loc 1 628 1 is_stmt 1 view -0
 2526              		.cfi_startproc
 2527              		@ args = 0, pretend = 0, frame = 0
 2528              		@ frame_needed = 0, uses_anonymous_args = 0
 2529              		.loc 1 628 1 is_stmt 0 view .LVU469
 2530 0000 08B5     		push	{r3, lr}
 2531              		.cfi_def_cfa_offset 8
 2532              		.cfi_offset 3, -8
 2533              		.cfi_offset 14, -4
 2534 0002 0A46     		mov	r2, r1
 629:lvgl/src/misc/lv_style_gen.c ****     lv_style_value_t v = {
 2535              		.loc 1 629 5 is_stmt 1 view .LVU470
 630:lvgl/src/misc/lv_style_gen.c ****         .ptr = value
 631:lvgl/src/misc/lv_style_gen.c ****     };
 632:lvgl/src/misc/lv_style_gen.c ****     lv_style_set_prop(style, LV_STYLE_ANIM, v);
 2536              		.loc 1 632 5 view .LVU471
 2537 0004 6421     		movs	r1, #100
 2538              	.LVL235:
 2539              		.loc 1 632 5 is_stmt 0 view .LVU472
 2540 0006 FFF7FEFF 		bl	lv_style_set_prop
 2541              	.LVL236:
 633:lvgl/src/misc/lv_style_gen.c **** }
 2542              		.loc 1 633 1 view .LVU473
 2543 000a 08BD     		pop	{r3, pc}
 2544              		.cfi_endproc
 2545              	.LFE132:
ARM GAS  C:\Users\OSD\AppData\Local\Temp\ccJ364Vh.s 			page 54


 2547              		.section	.text.lv_style_set_anim_time,"ax",%progbits
 2548              		.align	1
 2549              		.global	lv_style_set_anim_time
 2550              		.syntax unified
 2551              		.thumb
 2552              		.thumb_func
 2554              	lv_style_set_anim_time:
 2555              	.LVL237:
 2556              	.LFB133:
 634:lvgl/src/misc/lv_style_gen.c **** 
 635:lvgl/src/misc/lv_style_gen.c **** void lv_style_set_anim_time(lv_style_t * style, uint32_t value)
 636:lvgl/src/misc/lv_style_gen.c **** {
 2557              		.loc 1 636 1 is_stmt 1 view -0
 2558              		.cfi_startproc
 2559              		@ args = 0, pretend = 0, frame = 0
 2560              		@ frame_needed = 0, uses_anonymous_args = 0
 2561              		.loc 1 636 1 is_stmt 0 view .LVU475
 2562 0000 08B5     		push	{r3, lr}
 2563              		.cfi_def_cfa_offset 8
 2564              		.cfi_offset 3, -8
 2565              		.cfi_offset 14, -4
 2566 0002 0A46     		mov	r2, r1
 637:lvgl/src/misc/lv_style_gen.c ****     lv_style_value_t v = {
 2567              		.loc 1 637 5 is_stmt 1 view .LVU476
 638:lvgl/src/misc/lv_style_gen.c ****         .num = (int32_t)value
 639:lvgl/src/misc/lv_style_gen.c ****     };
 640:lvgl/src/misc/lv_style_gen.c ****     lv_style_set_prop(style, LV_STYLE_ANIM_TIME, v);
 2568              		.loc 1 640 5 view .LVU477
 2569 0004 6521     		movs	r1, #101
 2570              	.LVL238:
 2571              		.loc 1 640 5 is_stmt 0 view .LVU478
 2572 0006 FFF7FEFF 		bl	lv_style_set_prop
 2573              	.LVL239:
 641:lvgl/src/misc/lv_style_gen.c **** }
 2574              		.loc 1 641 1 view .LVU479
 2575 000a 08BD     		pop	{r3, pc}
 2576              		.cfi_endproc
 2577              	.LFE133:
 2579              		.section	.text.lv_style_set_anim_speed,"ax",%progbits
 2580              		.align	1
 2581              		.global	lv_style_set_anim_speed
 2582              		.syntax unified
 2583              		.thumb
 2584              		.thumb_func
 2586              	lv_style_set_anim_speed:
 2587              	.LVL240:
 2588              	.LFB134:
 642:lvgl/src/misc/lv_style_gen.c **** 
 643:lvgl/src/misc/lv_style_gen.c **** void lv_style_set_anim_speed(lv_style_t * style, uint32_t value)
 644:lvgl/src/misc/lv_style_gen.c **** {
 2589              		.loc 1 644 1 is_stmt 1 view -0
 2590              		.cfi_startproc
 2591              		@ args = 0, pretend = 0, frame = 0
 2592              		@ frame_needed = 0, uses_anonymous_args = 0
 2593              		.loc 1 644 1 is_stmt 0 view .LVU481
 2594 0000 08B5     		push	{r3, lr}
 2595              		.cfi_def_cfa_offset 8
ARM GAS  C:\Users\OSD\AppData\Local\Temp\ccJ364Vh.s 			page 55


 2596              		.cfi_offset 3, -8
 2597              		.cfi_offset 14, -4
 2598 0002 0A46     		mov	r2, r1
 645:lvgl/src/misc/lv_style_gen.c ****     lv_style_value_t v = {
 2599              		.loc 1 645 5 is_stmt 1 view .LVU482
 646:lvgl/src/misc/lv_style_gen.c ****         .num = (int32_t)value
 647:lvgl/src/misc/lv_style_gen.c ****     };
 648:lvgl/src/misc/lv_style_gen.c ****     lv_style_set_prop(style, LV_STYLE_ANIM_SPEED, v);
 2600              		.loc 1 648 5 view .LVU483
 2601 0004 6621     		movs	r1, #102
 2602              	.LVL241:
 2603              		.loc 1 648 5 is_stmt 0 view .LVU484
 2604 0006 FFF7FEFF 		bl	lv_style_set_prop
 2605              	.LVL242:
 649:lvgl/src/misc/lv_style_gen.c **** }
 2606              		.loc 1 649 1 view .LVU485
 2607 000a 08BD     		pop	{r3, pc}
 2608              		.cfi_endproc
 2609              	.LFE134:
 2611              		.section	.text.lv_style_set_transition,"ax",%progbits
 2612              		.align	1
 2613              		.global	lv_style_set_transition
 2614              		.syntax unified
 2615              		.thumb
 2616              		.thumb_func
 2618              	lv_style_set_transition:
 2619              	.LVL243:
 2620              	.LFB135:
 650:lvgl/src/misc/lv_style_gen.c **** 
 651:lvgl/src/misc/lv_style_gen.c **** void lv_style_set_transition(lv_style_t * style, const lv_style_transition_dsc_t * value)
 652:lvgl/src/misc/lv_style_gen.c **** {
 2621              		.loc 1 652 1 is_stmt 1 view -0
 2622              		.cfi_startproc
 2623              		@ args = 0, pretend = 0, frame = 0
 2624              		@ frame_needed = 0, uses_anonymous_args = 0
 2625              		.loc 1 652 1 is_stmt 0 view .LVU487
 2626 0000 08B5     		push	{r3, lr}
 2627              		.cfi_def_cfa_offset 8
 2628              		.cfi_offset 3, -8
 2629              		.cfi_offset 14, -4
 2630 0002 0A46     		mov	r2, r1
 653:lvgl/src/misc/lv_style_gen.c ****     lv_style_value_t v = {
 2631              		.loc 1 653 5 is_stmt 1 view .LVU488
 654:lvgl/src/misc/lv_style_gen.c ****         .ptr = value
 655:lvgl/src/misc/lv_style_gen.c ****     };
 656:lvgl/src/misc/lv_style_gen.c ****     lv_style_set_prop(style, LV_STYLE_TRANSITION, v);
 2632              		.loc 1 656 5 view .LVU489
 2633 0004 6721     		movs	r1, #103
 2634              	.LVL244:
 2635              		.loc 1 656 5 is_stmt 0 view .LVU490
 2636 0006 FFF7FEFF 		bl	lv_style_set_prop
 2637              	.LVL245:
 657:lvgl/src/misc/lv_style_gen.c **** }
 2638              		.loc 1 657 1 view .LVU491
 2639 000a 08BD     		pop	{r3, pc}
 2640              		.cfi_endproc
 2641              	.LFE135:
ARM GAS  C:\Users\OSD\AppData\Local\Temp\ccJ364Vh.s 			page 56


 2643              		.section	.text.lv_style_set_blend_mode,"ax",%progbits
 2644              		.align	1
 2645              		.global	lv_style_set_blend_mode
 2646              		.syntax unified
 2647              		.thumb
 2648              		.thumb_func
 2650              	lv_style_set_blend_mode:
 2651              	.LVL246:
 2652              	.LFB136:
 658:lvgl/src/misc/lv_style_gen.c **** 
 659:lvgl/src/misc/lv_style_gen.c **** void lv_style_set_blend_mode(lv_style_t * style, lv_blend_mode_t value)
 660:lvgl/src/misc/lv_style_gen.c **** {
 2653              		.loc 1 660 1 is_stmt 1 view -0
 2654              		.cfi_startproc
 2655              		@ args = 0, pretend = 0, frame = 0
 2656              		@ frame_needed = 0, uses_anonymous_args = 0
 2657              		.loc 1 660 1 is_stmt 0 view .LVU493
 2658 0000 08B5     		push	{r3, lr}
 2659              		.cfi_def_cfa_offset 8
 2660              		.cfi_offset 3, -8
 2661              		.cfi_offset 14, -4
 2662 0002 0A46     		mov	r2, r1
 661:lvgl/src/misc/lv_style_gen.c ****     lv_style_value_t v = {
 2663              		.loc 1 661 5 is_stmt 1 view .LVU494
 662:lvgl/src/misc/lv_style_gen.c ****         .num = (int32_t)value
 663:lvgl/src/misc/lv_style_gen.c ****     };
 664:lvgl/src/misc/lv_style_gen.c ****     lv_style_set_prop(style, LV_STYLE_BLEND_MODE, v);
 2664              		.loc 1 664 5 view .LVU495
 2665 0004 6821     		movs	r1, #104
 2666              	.LVL247:
 2667              		.loc 1 664 5 is_stmt 0 view .LVU496
 2668 0006 FFF7FEFF 		bl	lv_style_set_prop
 2669              	.LVL248:
 665:lvgl/src/misc/lv_style_gen.c **** }
 2670              		.loc 1 665 1 view .LVU497
 2671 000a 08BD     		pop	{r3, pc}
 2672              		.cfi_endproc
 2673              	.LFE136:
 2675              		.section	.text.lv_style_set_layout,"ax",%progbits
 2676              		.align	1
 2677              		.global	lv_style_set_layout
 2678              		.syntax unified
 2679              		.thumb
 2680              		.thumb_func
 2682              	lv_style_set_layout:
 2683              	.LVL249:
 2684              	.LFB137:
 666:lvgl/src/misc/lv_style_gen.c **** 
 667:lvgl/src/misc/lv_style_gen.c **** void lv_style_set_layout(lv_style_t * style, uint16_t value)
 668:lvgl/src/misc/lv_style_gen.c **** {
 2685              		.loc 1 668 1 is_stmt 1 view -0
 2686              		.cfi_startproc
 2687              		@ args = 0, pretend = 0, frame = 0
 2688              		@ frame_needed = 0, uses_anonymous_args = 0
 2689              		.loc 1 668 1 is_stmt 0 view .LVU499
 2690 0000 08B5     		push	{r3, lr}
 2691              		.cfi_def_cfa_offset 8
ARM GAS  C:\Users\OSD\AppData\Local\Temp\ccJ364Vh.s 			page 57


 2692              		.cfi_offset 3, -8
 2693              		.cfi_offset 14, -4
 2694 0002 0A46     		mov	r2, r1
 669:lvgl/src/misc/lv_style_gen.c ****     lv_style_value_t v = {
 2695              		.loc 1 669 5 is_stmt 1 view .LVU500
 670:lvgl/src/misc/lv_style_gen.c ****         .num = (int32_t)value
 671:lvgl/src/misc/lv_style_gen.c ****     };
 672:lvgl/src/misc/lv_style_gen.c ****     lv_style_set_prop(style, LV_STYLE_LAYOUT, v);
 2696              		.loc 1 672 5 view .LVU501
 2697 0004 0A21     		movs	r1, #10
 2698              	.LVL250:
 2699              		.loc 1 672 5 is_stmt 0 view .LVU502
 2700 0006 FFF7FEFF 		bl	lv_style_set_prop
 2701              	.LVL251:
 673:lvgl/src/misc/lv_style_gen.c **** }
 2702              		.loc 1 673 1 view .LVU503
 2703 000a 08BD     		pop	{r3, pc}
 2704              		.cfi_endproc
 2705              	.LFE137:
 2707              		.section	.text.lv_style_set_base_dir,"ax",%progbits
 2708              		.align	1
 2709              		.global	lv_style_set_base_dir
 2710              		.syntax unified
 2711              		.thumb
 2712              		.thumb_func
 2714              	lv_style_set_base_dir:
 2715              	.LVL252:
 2716              	.LFB138:
 674:lvgl/src/misc/lv_style_gen.c **** 
 675:lvgl/src/misc/lv_style_gen.c **** void lv_style_set_base_dir(lv_style_t * style, lv_base_dir_t value)
 676:lvgl/src/misc/lv_style_gen.c **** {
 2717              		.loc 1 676 1 is_stmt 1 view -0
 2718              		.cfi_startproc
 2719              		@ args = 0, pretend = 0, frame = 0
 2720              		@ frame_needed = 0, uses_anonymous_args = 0
 2721              		.loc 1 676 1 is_stmt 0 view .LVU505
 2722 0000 08B5     		push	{r3, lr}
 2723              		.cfi_def_cfa_offset 8
 2724              		.cfi_offset 3, -8
 2725              		.cfi_offset 14, -4
 2726 0002 0A46     		mov	r2, r1
 677:lvgl/src/misc/lv_style_gen.c ****     lv_style_value_t v = {
 2727              		.loc 1 677 5 is_stmt 1 view .LVU506
 678:lvgl/src/misc/lv_style_gen.c ****         .num = (int32_t)value
 679:lvgl/src/misc/lv_style_gen.c ****     };
 680:lvgl/src/misc/lv_style_gen.c ****     lv_style_set_prop(style, LV_STYLE_BASE_DIR, v);
 2728              		.loc 1 680 5 view .LVU507
 2729 0004 1621     		movs	r1, #22
 2730              	.LVL253:
 2731              		.loc 1 680 5 is_stmt 0 view .LVU508
 2732 0006 FFF7FEFF 		bl	lv_style_set_prop
 2733              	.LVL254:
 681:lvgl/src/misc/lv_style_gen.c **** }
 2734              		.loc 1 681 1 view .LVU509
 2735 000a 08BD     		pop	{r3, pc}
 2736              		.cfi_endproc
 2737              	.LFE138:
ARM GAS  C:\Users\OSD\AppData\Local\Temp\ccJ364Vh.s 			page 58


 2739              		.text
 2740              	.Letext0:
 2741              		.file 2 "c:\\tools\\gcc-arm-none-eabi\\arm-none-eabi\\include\\machine\\_default_types.h"
 2742              		.file 3 "c:\\tools\\gcc-arm-none-eabi\\arm-none-eabi\\include\\sys\\_stdint.h"
 2743              		.file 4 "lvgl/src/misc/../font/../misc/lv_area.h"
 2744              		.file 5 "lvgl/src/misc/../font/lv_font.h"
 2745              		.file 6 "lvgl/src/misc/lv_color.h"
 2746              		.file 7 "lvgl/src/misc/lv_anim.h"
 2747              		.file 8 "lvgl/src/misc/lv_txt.h"
 2748              		.file 9 "lvgl/src/misc/lv_bidi.h"
 2749              		.file 10 "lvgl/src/misc/lv_style.h"
ARM GAS  C:\Users\OSD\AppData\Local\Temp\ccJ364Vh.s 			page 59

