ARM GAS  C:\Users\OSD\AppData\Local\Temp\cclSIqWP.s 			page 1


   1              		.cpu cortex-m7
   2              		.arch armv7e-m
   3              		.fpu fpv5-d16
   4              		.eabi_attribute 28, 1
   5              		.eabi_attribute 20, 1
   6              		.eabi_attribute 21, 1
   7              		.eabi_attribute 23, 3
   8              		.eabi_attribute 24, 1
   9              		.eabi_attribute 25, 1
  10              		.eabi_attribute 26, 1
  11              		.eabi_attribute 30, 1
  12              		.eabi_attribute 34, 1
  13              		.eabi_attribute 18, 4
  14              		.file	"lv_switch.c"
  15              		.text
  16              	.Ltext0:
  17              		.cfi_sections	.debug_frame
  18              		.section	.text.lv_switch_anim_ready,"ax",%progbits
  19              		.align	1
  20              		.syntax unified
  21              		.thumb
  22              		.thumb_func
  24              	lv_switch_anim_ready:
  25              	.LVL0:
  26              	.LFB173:
  27              		.file 1 "lvgl/src/widgets/lv_switch.c"
   1:lvgl/src/widgets/lv_switch.c **** /**
   2:lvgl/src/widgets/lv_switch.c ****  * @file lv_sw.c
   3:lvgl/src/widgets/lv_switch.c ****  *
   4:lvgl/src/widgets/lv_switch.c ****  */
   5:lvgl/src/widgets/lv_switch.c **** 
   6:lvgl/src/widgets/lv_switch.c **** /*********************
   7:lvgl/src/widgets/lv_switch.c ****  *      INCLUDES
   8:lvgl/src/widgets/lv_switch.c ****  *********************/
   9:lvgl/src/widgets/lv_switch.c **** #include "lv_switch.h"
  10:lvgl/src/widgets/lv_switch.c **** 
  11:lvgl/src/widgets/lv_switch.c **** #if LV_USE_SWITCH != 0
  12:lvgl/src/widgets/lv_switch.c **** 
  13:lvgl/src/widgets/lv_switch.c **** #include "../misc/lv_assert.h"
  14:lvgl/src/widgets/lv_switch.c **** #include "../misc/lv_math.h"
  15:lvgl/src/widgets/lv_switch.c **** #include "../misc/lv_anim.h"
  16:lvgl/src/widgets/lv_switch.c **** #include "../core/lv_indev.h"
  17:lvgl/src/widgets/lv_switch.c **** #include "../core/lv_disp.h"
  18:lvgl/src/widgets/lv_switch.c **** #include "lv_img.h"
  19:lvgl/src/widgets/lv_switch.c **** 
  20:lvgl/src/widgets/lv_switch.c **** /*********************
  21:lvgl/src/widgets/lv_switch.c ****  *      DEFINES
  22:lvgl/src/widgets/lv_switch.c ****  *********************/
  23:lvgl/src/widgets/lv_switch.c **** #define MY_CLASS &lv_switch_class
  24:lvgl/src/widgets/lv_switch.c **** 
  25:lvgl/src/widgets/lv_switch.c **** #define LV_SWITCH_IS_ANIMATING(sw) (((sw)->anim_state) != LV_SWITCH_ANIM_STATE_INV)
  26:lvgl/src/widgets/lv_switch.c **** 
  27:lvgl/src/widgets/lv_switch.c **** /** Switch animation start value. (Not the real value of the switch just indicates process animatio
  28:lvgl/src/widgets/lv_switch.c **** #define LV_SWITCH_ANIM_STATE_START 0
  29:lvgl/src/widgets/lv_switch.c **** 
  30:lvgl/src/widgets/lv_switch.c **** /** Switch animation end value.  (Not the real value of the switch just indicates process animation
  31:lvgl/src/widgets/lv_switch.c **** #define LV_SWITCH_ANIM_STATE_END   256
ARM GAS  C:\Users\OSD\AppData\Local\Temp\cclSIqWP.s 			page 2


  32:lvgl/src/widgets/lv_switch.c **** 
  33:lvgl/src/widgets/lv_switch.c **** /** Mark no animation is in progress*/
  34:lvgl/src/widgets/lv_switch.c **** #define LV_SWITCH_ANIM_STATE_INV   -1
  35:lvgl/src/widgets/lv_switch.c **** 
  36:lvgl/src/widgets/lv_switch.c **** /**********************
  37:lvgl/src/widgets/lv_switch.c ****  *      TYPEDEFS
  38:lvgl/src/widgets/lv_switch.c ****  **********************/
  39:lvgl/src/widgets/lv_switch.c **** 
  40:lvgl/src/widgets/lv_switch.c **** /**********************
  41:lvgl/src/widgets/lv_switch.c ****  *  STATIC PROTOTYPES
  42:lvgl/src/widgets/lv_switch.c ****  **********************/
  43:lvgl/src/widgets/lv_switch.c **** static void lv_switch_constructor(const lv_obj_class_t * class_p, lv_obj_t * obj);
  44:lvgl/src/widgets/lv_switch.c **** static void lv_switch_destructor(const lv_obj_class_t * class_p, lv_obj_t * obj);
  45:lvgl/src/widgets/lv_switch.c **** static void lv_switch_event(const lv_obj_class_t * class_p, lv_event_t * e);
  46:lvgl/src/widgets/lv_switch.c **** static void draw_main(lv_event_t * e);
  47:lvgl/src/widgets/lv_switch.c **** 
  48:lvgl/src/widgets/lv_switch.c **** static void lv_switch_anim_exec_cb(void * sw, int32_t value);
  49:lvgl/src/widgets/lv_switch.c **** static void lv_switch_trigger_anim(lv_obj_t * obj);
  50:lvgl/src/widgets/lv_switch.c **** static void lv_switch_anim_ready(lv_anim_t * a);
  51:lvgl/src/widgets/lv_switch.c **** /**********************
  52:lvgl/src/widgets/lv_switch.c ****  *  STATIC VARIABLES
  53:lvgl/src/widgets/lv_switch.c ****  **********************/
  54:lvgl/src/widgets/lv_switch.c **** const lv_obj_class_t lv_switch_class = {
  55:lvgl/src/widgets/lv_switch.c ****     .constructor_cb = lv_switch_constructor,
  56:lvgl/src/widgets/lv_switch.c ****     .destructor_cb = lv_switch_destructor,
  57:lvgl/src/widgets/lv_switch.c ****     .event_cb = lv_switch_event,
  58:lvgl/src/widgets/lv_switch.c ****     .width_def = (4 * LV_DPI_DEF) / 10,
  59:lvgl/src/widgets/lv_switch.c ****     .height_def = (4 * LV_DPI_DEF) / 17,
  60:lvgl/src/widgets/lv_switch.c ****     .group_def = LV_OBJ_CLASS_GROUP_DEF_TRUE,
  61:lvgl/src/widgets/lv_switch.c ****     .instance_size = sizeof(lv_switch_t),
  62:lvgl/src/widgets/lv_switch.c ****     .base_class = &lv_obj_class
  63:lvgl/src/widgets/lv_switch.c **** };
  64:lvgl/src/widgets/lv_switch.c **** 
  65:lvgl/src/widgets/lv_switch.c **** /**********************
  66:lvgl/src/widgets/lv_switch.c ****  *      MACROS
  67:lvgl/src/widgets/lv_switch.c ****  **********************/
  68:lvgl/src/widgets/lv_switch.c **** 
  69:lvgl/src/widgets/lv_switch.c **** /**********************
  70:lvgl/src/widgets/lv_switch.c ****  *   GLOBAL FUNCTIONS
  71:lvgl/src/widgets/lv_switch.c ****  **********************/
  72:lvgl/src/widgets/lv_switch.c **** 
  73:lvgl/src/widgets/lv_switch.c **** lv_obj_t * lv_switch_create(lv_obj_t * parent)
  74:lvgl/src/widgets/lv_switch.c **** {
  75:lvgl/src/widgets/lv_switch.c ****     LV_LOG_INFO("begin");
  76:lvgl/src/widgets/lv_switch.c ****     lv_obj_t * obj = lv_obj_class_create_obj(MY_CLASS, parent);
  77:lvgl/src/widgets/lv_switch.c ****     lv_obj_class_init_obj(obj);
  78:lvgl/src/widgets/lv_switch.c ****     return obj;
  79:lvgl/src/widgets/lv_switch.c **** }
  80:lvgl/src/widgets/lv_switch.c **** 
  81:lvgl/src/widgets/lv_switch.c **** /**********************
  82:lvgl/src/widgets/lv_switch.c ****  *   STATIC FUNCTIONS
  83:lvgl/src/widgets/lv_switch.c ****  **********************/
  84:lvgl/src/widgets/lv_switch.c **** 
  85:lvgl/src/widgets/lv_switch.c **** static void lv_switch_constructor(const lv_obj_class_t * class_p, lv_obj_t * obj)
  86:lvgl/src/widgets/lv_switch.c **** {
  87:lvgl/src/widgets/lv_switch.c ****     LV_UNUSED(class_p);
  88:lvgl/src/widgets/lv_switch.c ****     LV_TRACE_OBJ_CREATE("begin");
ARM GAS  C:\Users\OSD\AppData\Local\Temp\cclSIqWP.s 			page 3


  89:lvgl/src/widgets/lv_switch.c **** 
  90:lvgl/src/widgets/lv_switch.c ****     lv_switch_t * sw = (lv_switch_t *)obj;
  91:lvgl/src/widgets/lv_switch.c **** 
  92:lvgl/src/widgets/lv_switch.c ****     sw->anim_state = LV_SWITCH_ANIM_STATE_INV;
  93:lvgl/src/widgets/lv_switch.c **** 
  94:lvgl/src/widgets/lv_switch.c ****     lv_obj_clear_flag(obj, LV_OBJ_FLAG_SCROLLABLE);
  95:lvgl/src/widgets/lv_switch.c ****     lv_obj_add_flag(obj, LV_OBJ_FLAG_CHECKABLE);
  96:lvgl/src/widgets/lv_switch.c ****     lv_obj_add_flag(obj, LV_OBJ_FLAG_SCROLL_ON_FOCUS);
  97:lvgl/src/widgets/lv_switch.c **** 
  98:lvgl/src/widgets/lv_switch.c ****     LV_TRACE_OBJ_CREATE("finished");
  99:lvgl/src/widgets/lv_switch.c **** }
 100:lvgl/src/widgets/lv_switch.c **** 
 101:lvgl/src/widgets/lv_switch.c **** static void lv_switch_destructor(const lv_obj_class_t * class_p, lv_obj_t * obj)
 102:lvgl/src/widgets/lv_switch.c **** {
 103:lvgl/src/widgets/lv_switch.c ****     LV_UNUSED(class_p);
 104:lvgl/src/widgets/lv_switch.c ****     lv_switch_t * sw = (lv_switch_t *)obj;
 105:lvgl/src/widgets/lv_switch.c **** 
 106:lvgl/src/widgets/lv_switch.c ****     lv_anim_del(sw, NULL);
 107:lvgl/src/widgets/lv_switch.c **** }
 108:lvgl/src/widgets/lv_switch.c **** 
 109:lvgl/src/widgets/lv_switch.c **** static void lv_switch_event(const lv_obj_class_t * class_p, lv_event_t * e)
 110:lvgl/src/widgets/lv_switch.c **** {
 111:lvgl/src/widgets/lv_switch.c ****     LV_UNUSED(class_p);
 112:lvgl/src/widgets/lv_switch.c **** 
 113:lvgl/src/widgets/lv_switch.c ****     lv_res_t res;
 114:lvgl/src/widgets/lv_switch.c **** 
 115:lvgl/src/widgets/lv_switch.c ****     /*Call the ancestor's event handler*/
 116:lvgl/src/widgets/lv_switch.c ****     res = lv_obj_event_base(MY_CLASS, e);
 117:lvgl/src/widgets/lv_switch.c ****     if(res != LV_RES_OK) return;
 118:lvgl/src/widgets/lv_switch.c **** 
 119:lvgl/src/widgets/lv_switch.c ****     lv_event_code_t code = lv_event_get_code(e);
 120:lvgl/src/widgets/lv_switch.c ****     lv_obj_t * obj = lv_event_get_target(e);
 121:lvgl/src/widgets/lv_switch.c **** 
 122:lvgl/src/widgets/lv_switch.c ****     if(code == LV_EVENT_REFR_EXT_DRAW_SIZE) {
 123:lvgl/src/widgets/lv_switch.c ****         lv_coord_t knob_left = lv_obj_get_style_pad_left(obj,   LV_PART_KNOB);
 124:lvgl/src/widgets/lv_switch.c ****         lv_coord_t knob_right = lv_obj_get_style_pad_right(obj,  LV_PART_KNOB);
 125:lvgl/src/widgets/lv_switch.c ****         lv_coord_t knob_top = lv_obj_get_style_pad_top(obj,    LV_PART_KNOB);
 126:lvgl/src/widgets/lv_switch.c ****         lv_coord_t knob_bottom = lv_obj_get_style_pad_bottom(obj, LV_PART_KNOB);
 127:lvgl/src/widgets/lv_switch.c **** 
 128:lvgl/src/widgets/lv_switch.c ****         /*The smaller size is the knob diameter*/
 129:lvgl/src/widgets/lv_switch.c ****         lv_coord_t knob_size = LV_MAX4(knob_left, knob_right, knob_bottom, knob_top);
 130:lvgl/src/widgets/lv_switch.c ****         knob_size += _LV_SWITCH_KNOB_EXT_AREA_CORRECTION;
 131:lvgl/src/widgets/lv_switch.c ****         knob_size += lv_obj_calculate_ext_draw_size(obj, LV_PART_KNOB);
 132:lvgl/src/widgets/lv_switch.c **** 
 133:lvgl/src/widgets/lv_switch.c ****         lv_coord_t * s = lv_event_get_param(e);
 134:lvgl/src/widgets/lv_switch.c ****         *s = LV_MAX(*s, knob_size);
 135:lvgl/src/widgets/lv_switch.c ****         *s = LV_MAX(*s, lv_obj_calculate_ext_draw_size(obj, LV_PART_INDICATOR));
 136:lvgl/src/widgets/lv_switch.c ****     }
 137:lvgl/src/widgets/lv_switch.c ****     else if(code == LV_EVENT_VALUE_CHANGED) {
 138:lvgl/src/widgets/lv_switch.c ****         lv_switch_trigger_anim(obj);
 139:lvgl/src/widgets/lv_switch.c ****         lv_obj_invalidate(obj);
 140:lvgl/src/widgets/lv_switch.c ****     }
 141:lvgl/src/widgets/lv_switch.c ****     else if(code == LV_EVENT_DRAW_MAIN) {
 142:lvgl/src/widgets/lv_switch.c ****         draw_main(e);
 143:lvgl/src/widgets/lv_switch.c ****     }
 144:lvgl/src/widgets/lv_switch.c **** }
 145:lvgl/src/widgets/lv_switch.c **** 
ARM GAS  C:\Users\OSD\AppData\Local\Temp\cclSIqWP.s 			page 4


 146:lvgl/src/widgets/lv_switch.c **** static void draw_main(lv_event_t * e)
 147:lvgl/src/widgets/lv_switch.c **** {
 148:lvgl/src/widgets/lv_switch.c ****     lv_obj_t * obj = lv_event_get_target(e);
 149:lvgl/src/widgets/lv_switch.c ****     lv_switch_t * sw = (lv_switch_t *)obj;
 150:lvgl/src/widgets/lv_switch.c **** 
 151:lvgl/src/widgets/lv_switch.c ****     lv_draw_ctx_t * draw_ctx = lv_event_get_draw_ctx(e);
 152:lvgl/src/widgets/lv_switch.c **** 
 153:lvgl/src/widgets/lv_switch.c ****     /*Calculate the indicator area*/
 154:lvgl/src/widgets/lv_switch.c ****     lv_coord_t bg_left = lv_obj_get_style_pad_left(obj,     LV_PART_MAIN);
 155:lvgl/src/widgets/lv_switch.c ****     lv_coord_t bg_right = lv_obj_get_style_pad_right(obj,   LV_PART_MAIN);
 156:lvgl/src/widgets/lv_switch.c ****     lv_coord_t bg_top = lv_obj_get_style_pad_top(obj,       LV_PART_MAIN);
 157:lvgl/src/widgets/lv_switch.c ****     lv_coord_t bg_bottom = lv_obj_get_style_pad_bottom(obj, LV_PART_MAIN);
 158:lvgl/src/widgets/lv_switch.c **** 
 159:lvgl/src/widgets/lv_switch.c ****     /*Draw the indicator*/
 160:lvgl/src/widgets/lv_switch.c ****     /*Respect the background's padding*/
 161:lvgl/src/widgets/lv_switch.c ****     lv_area_t indic_area;
 162:lvgl/src/widgets/lv_switch.c ****     lv_area_copy(&indic_area, &obj->coords);
 163:lvgl/src/widgets/lv_switch.c ****     indic_area.x1 += bg_left;
 164:lvgl/src/widgets/lv_switch.c ****     indic_area.x2 -= bg_right;
 165:lvgl/src/widgets/lv_switch.c ****     indic_area.y1 += bg_top;
 166:lvgl/src/widgets/lv_switch.c ****     indic_area.y2 -= bg_bottom;
 167:lvgl/src/widgets/lv_switch.c **** 
 168:lvgl/src/widgets/lv_switch.c ****     lv_draw_rect_dsc_t draw_indic_dsc;
 169:lvgl/src/widgets/lv_switch.c ****     lv_draw_rect_dsc_init(&draw_indic_dsc);
 170:lvgl/src/widgets/lv_switch.c ****     lv_obj_init_draw_rect_dsc(obj, LV_PART_INDICATOR, &draw_indic_dsc);
 171:lvgl/src/widgets/lv_switch.c ****     lv_draw_rect(draw_ctx, &draw_indic_dsc, &indic_area);
 172:lvgl/src/widgets/lv_switch.c **** 
 173:lvgl/src/widgets/lv_switch.c ****     /*Draw the knob*/
 174:lvgl/src/widgets/lv_switch.c ****     lv_coord_t anim_value_x = 0;
 175:lvgl/src/widgets/lv_switch.c ****     lv_coord_t knob_size = lv_obj_get_height(obj);
 176:lvgl/src/widgets/lv_switch.c ****     lv_coord_t anim_length = lv_area_get_width(&obj->coords) - knob_size;
 177:lvgl/src/widgets/lv_switch.c **** 
 178:lvgl/src/widgets/lv_switch.c ****     if(LV_SWITCH_IS_ANIMATING(sw)) {
 179:lvgl/src/widgets/lv_switch.c ****         /* Use the animation's coordinate */
 180:lvgl/src/widgets/lv_switch.c ****         anim_value_x = (anim_length * sw->anim_state) / LV_SWITCH_ANIM_STATE_END;
 181:lvgl/src/widgets/lv_switch.c ****     }
 182:lvgl/src/widgets/lv_switch.c ****     else {
 183:lvgl/src/widgets/lv_switch.c ****         /* Use LV_STATE_CHECKED to decide the coordinate */
 184:lvgl/src/widgets/lv_switch.c ****         bool chk = lv_obj_get_state(obj) & LV_STATE_CHECKED;
 185:lvgl/src/widgets/lv_switch.c ****         anim_value_x = chk ? anim_length : 0;
 186:lvgl/src/widgets/lv_switch.c ****     }
 187:lvgl/src/widgets/lv_switch.c **** 
 188:lvgl/src/widgets/lv_switch.c ****     if(LV_BASE_DIR_RTL == lv_obj_get_style_base_dir(obj, LV_PART_MAIN)) {
 189:lvgl/src/widgets/lv_switch.c ****         anim_value_x = anim_length - anim_value_x;
 190:lvgl/src/widgets/lv_switch.c ****     }
 191:lvgl/src/widgets/lv_switch.c **** 
 192:lvgl/src/widgets/lv_switch.c ****     lv_area_t knob_area;
 193:lvgl/src/widgets/lv_switch.c ****     knob_area.x1 = obj->coords.x1 + anim_value_x;
 194:lvgl/src/widgets/lv_switch.c ****     knob_area.x2 = knob_area.x1 + knob_size;
 195:lvgl/src/widgets/lv_switch.c **** 
 196:lvgl/src/widgets/lv_switch.c ****     knob_area.y1 = obj->coords.y1;
 197:lvgl/src/widgets/lv_switch.c ****     knob_area.y2 = obj->coords.y2;
 198:lvgl/src/widgets/lv_switch.c **** 
 199:lvgl/src/widgets/lv_switch.c ****     lv_coord_t knob_left = lv_obj_get_style_pad_left(obj, LV_PART_KNOB);
 200:lvgl/src/widgets/lv_switch.c ****     lv_coord_t knob_right = lv_obj_get_style_pad_right(obj, LV_PART_KNOB);
 201:lvgl/src/widgets/lv_switch.c ****     lv_coord_t knob_top = lv_obj_get_style_pad_top(obj, LV_PART_KNOB);
 202:lvgl/src/widgets/lv_switch.c ****     lv_coord_t knob_bottom = lv_obj_get_style_pad_bottom(obj, LV_PART_KNOB);
ARM GAS  C:\Users\OSD\AppData\Local\Temp\cclSIqWP.s 			page 5


 203:lvgl/src/widgets/lv_switch.c **** 
 204:lvgl/src/widgets/lv_switch.c ****     /*Apply the paddings on the knob area*/
 205:lvgl/src/widgets/lv_switch.c ****     knob_area.x1 -= knob_left;
 206:lvgl/src/widgets/lv_switch.c ****     knob_area.x2 += knob_right;
 207:lvgl/src/widgets/lv_switch.c ****     knob_area.y1 -= knob_top;
 208:lvgl/src/widgets/lv_switch.c ****     knob_area.y2 += knob_bottom;
 209:lvgl/src/widgets/lv_switch.c **** 
 210:lvgl/src/widgets/lv_switch.c ****     lv_draw_rect_dsc_t knob_rect_dsc;
 211:lvgl/src/widgets/lv_switch.c ****     lv_draw_rect_dsc_init(&knob_rect_dsc);
 212:lvgl/src/widgets/lv_switch.c ****     lv_obj_init_draw_rect_dsc(obj, LV_PART_KNOB, &knob_rect_dsc);
 213:lvgl/src/widgets/lv_switch.c **** 
 214:lvgl/src/widgets/lv_switch.c ****     lv_draw_rect(draw_ctx, &knob_rect_dsc, &knob_area);
 215:lvgl/src/widgets/lv_switch.c **** }
 216:lvgl/src/widgets/lv_switch.c **** 
 217:lvgl/src/widgets/lv_switch.c **** static void lv_switch_anim_exec_cb(void * var, int32_t value)
 218:lvgl/src/widgets/lv_switch.c **** {
 219:lvgl/src/widgets/lv_switch.c ****     lv_switch_t * sw = var;
 220:lvgl/src/widgets/lv_switch.c ****     sw->anim_state = value;
 221:lvgl/src/widgets/lv_switch.c ****     lv_obj_invalidate((lv_obj_t *)sw);
 222:lvgl/src/widgets/lv_switch.c **** }
 223:lvgl/src/widgets/lv_switch.c **** 
 224:lvgl/src/widgets/lv_switch.c **** /**
 225:lvgl/src/widgets/lv_switch.c ****  * Resets the switch's animation state to "no animation in progress".
 226:lvgl/src/widgets/lv_switch.c ****  */
 227:lvgl/src/widgets/lv_switch.c **** static void lv_switch_anim_ready(lv_anim_t * a)
 228:lvgl/src/widgets/lv_switch.c **** {
  28              		.loc 1 228 1 view -0
  29              		.cfi_startproc
  30              		@ args = 0, pretend = 0, frame = 0
  31              		@ frame_needed = 0, uses_anonymous_args = 0
  32              		.loc 1 228 1 is_stmt 0 view .LVU1
  33 0000 08B5     		push	{r3, lr}
  34              		.cfi_def_cfa_offset 8
  35              		.cfi_offset 3, -8
  36              		.cfi_offset 14, -4
 229:lvgl/src/widgets/lv_switch.c ****     lv_switch_t * sw = a->var;
  37              		.loc 1 229 5 is_stmt 1 view .LVU2
  38              		.loc 1 229 19 is_stmt 0 view .LVU3
  39 0002 0068     		ldr	r0, [r0]
  40              	.LVL1:
 230:lvgl/src/widgets/lv_switch.c ****     sw->anim_state = LV_SWITCH_ANIM_STATE_INV;
  41              		.loc 1 230 5 is_stmt 1 view .LVU4
  42              		.loc 1 230 20 is_stmt 0 view .LVU5
  43 0004 4FF0FF33 		mov	r3, #-1
  44 0008 4362     		str	r3, [r0, #36]
 231:lvgl/src/widgets/lv_switch.c ****     lv_obj_invalidate((lv_obj_t *)sw);
  45              		.loc 1 231 5 is_stmt 1 view .LVU6
  46 000a FFF7FEFF 		bl	lv_obj_invalidate
  47              	.LVL2:
 232:lvgl/src/widgets/lv_switch.c **** }
  48              		.loc 1 232 1 is_stmt 0 view .LVU7
  49 000e 08BD     		pop	{r3, pc}
  50              		.cfi_endproc
  51              	.LFE173:
  53              		.section	.text.lv_switch_anim_exec_cb,"ax",%progbits
  54              		.align	1
  55              		.syntax unified
ARM GAS  C:\Users\OSD\AppData\Local\Temp\cclSIqWP.s 			page 6


  56              		.thumb
  57              		.thumb_func
  59              	lv_switch_anim_exec_cb:
  60              	.LVL3:
  61              	.LFB172:
 218:lvgl/src/widgets/lv_switch.c ****     lv_switch_t * sw = var;
  62              		.loc 1 218 1 is_stmt 1 view -0
  63              		.cfi_startproc
  64              		@ args = 0, pretend = 0, frame = 0
  65              		@ frame_needed = 0, uses_anonymous_args = 0
 218:lvgl/src/widgets/lv_switch.c ****     lv_switch_t * sw = var;
  66              		.loc 1 218 1 is_stmt 0 view .LVU9
  67 0000 08B5     		push	{r3, lr}
  68              		.cfi_def_cfa_offset 8
  69              		.cfi_offset 3, -8
  70              		.cfi_offset 14, -4
 219:lvgl/src/widgets/lv_switch.c ****     sw->anim_state = value;
  71              		.loc 1 219 5 is_stmt 1 view .LVU10
  72              	.LVL4:
 220:lvgl/src/widgets/lv_switch.c ****     lv_obj_invalidate((lv_obj_t *)sw);
  73              		.loc 1 220 5 view .LVU11
 220:lvgl/src/widgets/lv_switch.c ****     lv_obj_invalidate((lv_obj_t *)sw);
  74              		.loc 1 220 20 is_stmt 0 view .LVU12
  75 0002 4162     		str	r1, [r0, #36]
 221:lvgl/src/widgets/lv_switch.c **** }
  76              		.loc 1 221 5 is_stmt 1 view .LVU13
  77 0004 FFF7FEFF 		bl	lv_obj_invalidate
  78              	.LVL5:
 222:lvgl/src/widgets/lv_switch.c **** 
  79              		.loc 1 222 1 is_stmt 0 view .LVU14
  80 0008 08BD     		pop	{r3, pc}
  81              		.cfi_endproc
  82              	.LFE172:
  84              		.section	.text.lv_switch_destructor,"ax",%progbits
  85              		.align	1
  86              		.syntax unified
  87              		.thumb
  88              		.thumb_func
  90              	lv_switch_destructor:
  91              	.LVL6:
  92              	.LFB169:
 102:lvgl/src/widgets/lv_switch.c ****     LV_UNUSED(class_p);
  93              		.loc 1 102 1 is_stmt 1 view -0
  94              		.cfi_startproc
  95              		@ args = 0, pretend = 0, frame = 0
  96              		@ frame_needed = 0, uses_anonymous_args = 0
 102:lvgl/src/widgets/lv_switch.c ****     LV_UNUSED(class_p);
  97              		.loc 1 102 1 is_stmt 0 view .LVU16
  98 0000 08B5     		push	{r3, lr}
  99              		.cfi_def_cfa_offset 8
 100              		.cfi_offset 3, -8
 101              		.cfi_offset 14, -4
 102 0002 0846     		mov	r0, r1
 103              	.LVL7:
 103:lvgl/src/widgets/lv_switch.c ****     lv_switch_t * sw = (lv_switch_t *)obj;
 104              		.loc 1 103 5 is_stmt 1 view .LVU17
 104:lvgl/src/widgets/lv_switch.c **** 
ARM GAS  C:\Users\OSD\AppData\Local\Temp\cclSIqWP.s 			page 7


 105              		.loc 1 104 5 view .LVU18
 106:lvgl/src/widgets/lv_switch.c **** }
 106              		.loc 1 106 5 view .LVU19
 107 0004 0021     		movs	r1, #0
 108              	.LVL8:
 106:lvgl/src/widgets/lv_switch.c **** }
 109              		.loc 1 106 5 is_stmt 0 view .LVU20
 110 0006 FFF7FEFF 		bl	lv_anim_del
 111              	.LVL9:
 107:lvgl/src/widgets/lv_switch.c **** 
 112              		.loc 1 107 1 view .LVU21
 113 000a 08BD     		pop	{r3, pc}
 114              		.cfi_endproc
 115              	.LFE169:
 117              		.section	.text.lv_switch_trigger_anim,"ax",%progbits
 118              		.align	1
 119              		.syntax unified
 120              		.thumb
 121              		.thumb_func
 123              	lv_switch_trigger_anim:
 124              	.LVL10:
 125              	.LFB174:
 233:lvgl/src/widgets/lv_switch.c **** 
 234:lvgl/src/widgets/lv_switch.c **** /**
 235:lvgl/src/widgets/lv_switch.c ****  * Starts an animation for the switch knob. if the anim_time style property is greater than 0
 236:lvgl/src/widgets/lv_switch.c ****  * @param obj the switch to animate
 237:lvgl/src/widgets/lv_switch.c ****  */
 238:lvgl/src/widgets/lv_switch.c **** static void lv_switch_trigger_anim(lv_obj_t * obj)
 239:lvgl/src/widgets/lv_switch.c **** {
 126              		.loc 1 239 1 is_stmt 1 view -0
 127              		.cfi_startproc
 128              		@ args = 0, pretend = 0, frame = 72
 129              		@ frame_needed = 0, uses_anonymous_args = 0
 130              		.loc 1 239 1 is_stmt 0 view .LVU23
 131 0000 2DE9F041 		push	{r4, r5, r6, r7, r8, lr}
 132              		.cfi_def_cfa_offset 24
 133              		.cfi_offset 4, -24
 134              		.cfi_offset 5, -20
 135              		.cfi_offset 6, -16
 136              		.cfi_offset 7, -12
 137              		.cfi_offset 8, -8
 138              		.cfi_offset 14, -4
 139 0004 92B0     		sub	sp, sp, #72
 140              		.cfi_def_cfa_offset 96
 141 0006 0446     		mov	r4, r0
 240:lvgl/src/widgets/lv_switch.c ****     LV_ASSERT_OBJ(obj, MY_CLASS);
 142              		.loc 1 240 5 is_stmt 1 view .LVU24
 143              		.loc 1 240 5 view .LVU25
 144              		.loc 1 240 5 view .LVU26
 241:lvgl/src/widgets/lv_switch.c ****     lv_switch_t * sw = (lv_switch_t *)obj;
 145              		.loc 1 241 5 view .LVU27
 146              	.LVL11:
 242:lvgl/src/widgets/lv_switch.c **** 
 243:lvgl/src/widgets/lv_switch.c ****     uint32_t anim_dur_full = lv_obj_get_style_anim_time(obj, LV_PART_MAIN);
 147              		.loc 1 243 5 view .LVU28
 148              	.LBB47:
 149              	.LBI47:
ARM GAS  C:\Users\OSD\AppData\Local\Temp\cclSIqWP.s 			page 8


 150              		.file 2 "lvgl/src/widgets/../core/lv_obj_style_gen.h"
   1:lvgl/src/widgets/../core/lv_obj_style_gen.h **** static inline lv_coord_t lv_obj_get_style_width(const struct _lv_obj_t * obj, uint32_t part)
   2:lvgl/src/widgets/../core/lv_obj_style_gen.h **** {
   3:lvgl/src/widgets/../core/lv_obj_style_gen.h ****     lv_style_value_t v = lv_obj_get_style_prop(obj, part, LV_STYLE_WIDTH);
   4:lvgl/src/widgets/../core/lv_obj_style_gen.h ****     return (lv_coord_t)v.num;
   5:lvgl/src/widgets/../core/lv_obj_style_gen.h **** }
   6:lvgl/src/widgets/../core/lv_obj_style_gen.h **** 
   7:lvgl/src/widgets/../core/lv_obj_style_gen.h **** static inline lv_coord_t lv_obj_get_style_min_width(const struct _lv_obj_t * obj, uint32_t part)
   8:lvgl/src/widgets/../core/lv_obj_style_gen.h **** {
   9:lvgl/src/widgets/../core/lv_obj_style_gen.h ****     lv_style_value_t v = lv_obj_get_style_prop(obj, part, LV_STYLE_MIN_WIDTH);
  10:lvgl/src/widgets/../core/lv_obj_style_gen.h ****     return (lv_coord_t)v.num;
  11:lvgl/src/widgets/../core/lv_obj_style_gen.h **** }
  12:lvgl/src/widgets/../core/lv_obj_style_gen.h **** 
  13:lvgl/src/widgets/../core/lv_obj_style_gen.h **** static inline lv_coord_t lv_obj_get_style_max_width(const struct _lv_obj_t * obj, uint32_t part)
  14:lvgl/src/widgets/../core/lv_obj_style_gen.h **** {
  15:lvgl/src/widgets/../core/lv_obj_style_gen.h ****     lv_style_value_t v = lv_obj_get_style_prop(obj, part, LV_STYLE_MAX_WIDTH);
  16:lvgl/src/widgets/../core/lv_obj_style_gen.h ****     return (lv_coord_t)v.num;
  17:lvgl/src/widgets/../core/lv_obj_style_gen.h **** }
  18:lvgl/src/widgets/../core/lv_obj_style_gen.h **** 
  19:lvgl/src/widgets/../core/lv_obj_style_gen.h **** static inline lv_coord_t lv_obj_get_style_height(const struct _lv_obj_t * obj, uint32_t part)
  20:lvgl/src/widgets/../core/lv_obj_style_gen.h **** {
  21:lvgl/src/widgets/../core/lv_obj_style_gen.h ****     lv_style_value_t v = lv_obj_get_style_prop(obj, part, LV_STYLE_HEIGHT);
  22:lvgl/src/widgets/../core/lv_obj_style_gen.h ****     return (lv_coord_t)v.num;
  23:lvgl/src/widgets/../core/lv_obj_style_gen.h **** }
  24:lvgl/src/widgets/../core/lv_obj_style_gen.h **** 
  25:lvgl/src/widgets/../core/lv_obj_style_gen.h **** static inline lv_coord_t lv_obj_get_style_min_height(const struct _lv_obj_t * obj, uint32_t part)
  26:lvgl/src/widgets/../core/lv_obj_style_gen.h **** {
  27:lvgl/src/widgets/../core/lv_obj_style_gen.h ****     lv_style_value_t v = lv_obj_get_style_prop(obj, part, LV_STYLE_MIN_HEIGHT);
  28:lvgl/src/widgets/../core/lv_obj_style_gen.h ****     return (lv_coord_t)v.num;
  29:lvgl/src/widgets/../core/lv_obj_style_gen.h **** }
  30:lvgl/src/widgets/../core/lv_obj_style_gen.h **** 
  31:lvgl/src/widgets/../core/lv_obj_style_gen.h **** static inline lv_coord_t lv_obj_get_style_max_height(const struct _lv_obj_t * obj, uint32_t part)
  32:lvgl/src/widgets/../core/lv_obj_style_gen.h **** {
  33:lvgl/src/widgets/../core/lv_obj_style_gen.h ****     lv_style_value_t v = lv_obj_get_style_prop(obj, part, LV_STYLE_MAX_HEIGHT);
  34:lvgl/src/widgets/../core/lv_obj_style_gen.h ****     return (lv_coord_t)v.num;
  35:lvgl/src/widgets/../core/lv_obj_style_gen.h **** }
  36:lvgl/src/widgets/../core/lv_obj_style_gen.h **** 
  37:lvgl/src/widgets/../core/lv_obj_style_gen.h **** static inline lv_coord_t lv_obj_get_style_x(const struct _lv_obj_t * obj, uint32_t part)
  38:lvgl/src/widgets/../core/lv_obj_style_gen.h **** {
  39:lvgl/src/widgets/../core/lv_obj_style_gen.h ****     lv_style_value_t v = lv_obj_get_style_prop(obj, part, LV_STYLE_X);
  40:lvgl/src/widgets/../core/lv_obj_style_gen.h ****     return (lv_coord_t)v.num;
  41:lvgl/src/widgets/../core/lv_obj_style_gen.h **** }
  42:lvgl/src/widgets/../core/lv_obj_style_gen.h **** 
  43:lvgl/src/widgets/../core/lv_obj_style_gen.h **** static inline lv_coord_t lv_obj_get_style_y(const struct _lv_obj_t * obj, uint32_t part)
  44:lvgl/src/widgets/../core/lv_obj_style_gen.h **** {
  45:lvgl/src/widgets/../core/lv_obj_style_gen.h ****     lv_style_value_t v = lv_obj_get_style_prop(obj, part, LV_STYLE_Y);
  46:lvgl/src/widgets/../core/lv_obj_style_gen.h ****     return (lv_coord_t)v.num;
  47:lvgl/src/widgets/../core/lv_obj_style_gen.h **** }
  48:lvgl/src/widgets/../core/lv_obj_style_gen.h **** 
  49:lvgl/src/widgets/../core/lv_obj_style_gen.h **** static inline lv_align_t lv_obj_get_style_align(const struct _lv_obj_t * obj, uint32_t part)
  50:lvgl/src/widgets/../core/lv_obj_style_gen.h **** {
  51:lvgl/src/widgets/../core/lv_obj_style_gen.h ****     lv_style_value_t v = lv_obj_get_style_prop(obj, part, LV_STYLE_ALIGN);
  52:lvgl/src/widgets/../core/lv_obj_style_gen.h ****     return (lv_align_t)v.num;
  53:lvgl/src/widgets/../core/lv_obj_style_gen.h **** }
  54:lvgl/src/widgets/../core/lv_obj_style_gen.h **** 
  55:lvgl/src/widgets/../core/lv_obj_style_gen.h **** static inline lv_coord_t lv_obj_get_style_transform_width(const struct _lv_obj_t * obj, uint32_t pa
  56:lvgl/src/widgets/../core/lv_obj_style_gen.h **** {
ARM GAS  C:\Users\OSD\AppData\Local\Temp\cclSIqWP.s 			page 9


  57:lvgl/src/widgets/../core/lv_obj_style_gen.h ****     lv_style_value_t v = lv_obj_get_style_prop(obj, part, LV_STYLE_TRANSFORM_WIDTH);
  58:lvgl/src/widgets/../core/lv_obj_style_gen.h ****     return (lv_coord_t)v.num;
  59:lvgl/src/widgets/../core/lv_obj_style_gen.h **** }
  60:lvgl/src/widgets/../core/lv_obj_style_gen.h **** 
  61:lvgl/src/widgets/../core/lv_obj_style_gen.h **** static inline lv_coord_t lv_obj_get_style_transform_height(const struct _lv_obj_t * obj, uint32_t p
  62:lvgl/src/widgets/../core/lv_obj_style_gen.h **** {
  63:lvgl/src/widgets/../core/lv_obj_style_gen.h ****     lv_style_value_t v = lv_obj_get_style_prop(obj, part, LV_STYLE_TRANSFORM_HEIGHT);
  64:lvgl/src/widgets/../core/lv_obj_style_gen.h ****     return (lv_coord_t)v.num;
  65:lvgl/src/widgets/../core/lv_obj_style_gen.h **** }
  66:lvgl/src/widgets/../core/lv_obj_style_gen.h **** 
  67:lvgl/src/widgets/../core/lv_obj_style_gen.h **** static inline lv_coord_t lv_obj_get_style_translate_x(const struct _lv_obj_t * obj, uint32_t part)
  68:lvgl/src/widgets/../core/lv_obj_style_gen.h **** {
  69:lvgl/src/widgets/../core/lv_obj_style_gen.h ****     lv_style_value_t v = lv_obj_get_style_prop(obj, part, LV_STYLE_TRANSLATE_X);
  70:lvgl/src/widgets/../core/lv_obj_style_gen.h ****     return (lv_coord_t)v.num;
  71:lvgl/src/widgets/../core/lv_obj_style_gen.h **** }
  72:lvgl/src/widgets/../core/lv_obj_style_gen.h **** 
  73:lvgl/src/widgets/../core/lv_obj_style_gen.h **** static inline lv_coord_t lv_obj_get_style_translate_y(const struct _lv_obj_t * obj, uint32_t part)
  74:lvgl/src/widgets/../core/lv_obj_style_gen.h **** {
  75:lvgl/src/widgets/../core/lv_obj_style_gen.h ****     lv_style_value_t v = lv_obj_get_style_prop(obj, part, LV_STYLE_TRANSLATE_Y);
  76:lvgl/src/widgets/../core/lv_obj_style_gen.h ****     return (lv_coord_t)v.num;
  77:lvgl/src/widgets/../core/lv_obj_style_gen.h **** }
  78:lvgl/src/widgets/../core/lv_obj_style_gen.h **** 
  79:lvgl/src/widgets/../core/lv_obj_style_gen.h **** static inline lv_coord_t lv_obj_get_style_transform_zoom(const struct _lv_obj_t * obj, uint32_t par
  80:lvgl/src/widgets/../core/lv_obj_style_gen.h **** {
  81:lvgl/src/widgets/../core/lv_obj_style_gen.h ****     lv_style_value_t v = lv_obj_get_style_prop(obj, part, LV_STYLE_TRANSFORM_ZOOM);
  82:lvgl/src/widgets/../core/lv_obj_style_gen.h ****     return (lv_coord_t)v.num;
  83:lvgl/src/widgets/../core/lv_obj_style_gen.h **** }
  84:lvgl/src/widgets/../core/lv_obj_style_gen.h **** 
  85:lvgl/src/widgets/../core/lv_obj_style_gen.h **** static inline lv_coord_t lv_obj_get_style_transform_angle(const struct _lv_obj_t * obj, uint32_t pa
  86:lvgl/src/widgets/../core/lv_obj_style_gen.h **** {
  87:lvgl/src/widgets/../core/lv_obj_style_gen.h ****     lv_style_value_t v = lv_obj_get_style_prop(obj, part, LV_STYLE_TRANSFORM_ANGLE);
  88:lvgl/src/widgets/../core/lv_obj_style_gen.h ****     return (lv_coord_t)v.num;
  89:lvgl/src/widgets/../core/lv_obj_style_gen.h **** }
  90:lvgl/src/widgets/../core/lv_obj_style_gen.h **** 
  91:lvgl/src/widgets/../core/lv_obj_style_gen.h **** static inline lv_coord_t lv_obj_get_style_transform_pivot_x(const struct _lv_obj_t * obj, uint32_t 
  92:lvgl/src/widgets/../core/lv_obj_style_gen.h **** {
  93:lvgl/src/widgets/../core/lv_obj_style_gen.h ****     lv_style_value_t v = lv_obj_get_style_prop(obj, part, LV_STYLE_TRANSFORM_PIVOT_X);
  94:lvgl/src/widgets/../core/lv_obj_style_gen.h ****     return (lv_coord_t)v.num;
  95:lvgl/src/widgets/../core/lv_obj_style_gen.h **** }
  96:lvgl/src/widgets/../core/lv_obj_style_gen.h **** 
  97:lvgl/src/widgets/../core/lv_obj_style_gen.h **** static inline lv_coord_t lv_obj_get_style_transform_pivot_y(const struct _lv_obj_t * obj, uint32_t 
  98:lvgl/src/widgets/../core/lv_obj_style_gen.h **** {
  99:lvgl/src/widgets/../core/lv_obj_style_gen.h ****     lv_style_value_t v = lv_obj_get_style_prop(obj, part, LV_STYLE_TRANSFORM_PIVOT_Y);
 100:lvgl/src/widgets/../core/lv_obj_style_gen.h ****     return (lv_coord_t)v.num;
 101:lvgl/src/widgets/../core/lv_obj_style_gen.h **** }
 102:lvgl/src/widgets/../core/lv_obj_style_gen.h **** 
 103:lvgl/src/widgets/../core/lv_obj_style_gen.h **** static inline lv_coord_t lv_obj_get_style_pad_top(const struct _lv_obj_t * obj, uint32_t part)
 104:lvgl/src/widgets/../core/lv_obj_style_gen.h **** {
 105:lvgl/src/widgets/../core/lv_obj_style_gen.h ****     lv_style_value_t v = lv_obj_get_style_prop(obj, part, LV_STYLE_PAD_TOP);
 106:lvgl/src/widgets/../core/lv_obj_style_gen.h ****     return (lv_coord_t)v.num;
 107:lvgl/src/widgets/../core/lv_obj_style_gen.h **** }
 108:lvgl/src/widgets/../core/lv_obj_style_gen.h **** 
 109:lvgl/src/widgets/../core/lv_obj_style_gen.h **** static inline lv_coord_t lv_obj_get_style_pad_bottom(const struct _lv_obj_t * obj, uint32_t part)
 110:lvgl/src/widgets/../core/lv_obj_style_gen.h **** {
 111:lvgl/src/widgets/../core/lv_obj_style_gen.h ****     lv_style_value_t v = lv_obj_get_style_prop(obj, part, LV_STYLE_PAD_BOTTOM);
 112:lvgl/src/widgets/../core/lv_obj_style_gen.h ****     return (lv_coord_t)v.num;
 113:lvgl/src/widgets/../core/lv_obj_style_gen.h **** }
ARM GAS  C:\Users\OSD\AppData\Local\Temp\cclSIqWP.s 			page 10


 114:lvgl/src/widgets/../core/lv_obj_style_gen.h **** 
 115:lvgl/src/widgets/../core/lv_obj_style_gen.h **** static inline lv_coord_t lv_obj_get_style_pad_left(const struct _lv_obj_t * obj, uint32_t part)
 116:lvgl/src/widgets/../core/lv_obj_style_gen.h **** {
 117:lvgl/src/widgets/../core/lv_obj_style_gen.h ****     lv_style_value_t v = lv_obj_get_style_prop(obj, part, LV_STYLE_PAD_LEFT);
 118:lvgl/src/widgets/../core/lv_obj_style_gen.h ****     return (lv_coord_t)v.num;
 119:lvgl/src/widgets/../core/lv_obj_style_gen.h **** }
 120:lvgl/src/widgets/../core/lv_obj_style_gen.h **** 
 121:lvgl/src/widgets/../core/lv_obj_style_gen.h **** static inline lv_coord_t lv_obj_get_style_pad_right(const struct _lv_obj_t * obj, uint32_t part)
 122:lvgl/src/widgets/../core/lv_obj_style_gen.h **** {
 123:lvgl/src/widgets/../core/lv_obj_style_gen.h ****     lv_style_value_t v = lv_obj_get_style_prop(obj, part, LV_STYLE_PAD_RIGHT);
 124:lvgl/src/widgets/../core/lv_obj_style_gen.h ****     return (lv_coord_t)v.num;
 125:lvgl/src/widgets/../core/lv_obj_style_gen.h **** }
 126:lvgl/src/widgets/../core/lv_obj_style_gen.h **** 
 127:lvgl/src/widgets/../core/lv_obj_style_gen.h **** static inline lv_coord_t lv_obj_get_style_pad_row(const struct _lv_obj_t * obj, uint32_t part)
 128:lvgl/src/widgets/../core/lv_obj_style_gen.h **** {
 129:lvgl/src/widgets/../core/lv_obj_style_gen.h ****     lv_style_value_t v = lv_obj_get_style_prop(obj, part, LV_STYLE_PAD_ROW);
 130:lvgl/src/widgets/../core/lv_obj_style_gen.h ****     return (lv_coord_t)v.num;
 131:lvgl/src/widgets/../core/lv_obj_style_gen.h **** }
 132:lvgl/src/widgets/../core/lv_obj_style_gen.h **** 
 133:lvgl/src/widgets/../core/lv_obj_style_gen.h **** static inline lv_coord_t lv_obj_get_style_pad_column(const struct _lv_obj_t * obj, uint32_t part)
 134:lvgl/src/widgets/../core/lv_obj_style_gen.h **** {
 135:lvgl/src/widgets/../core/lv_obj_style_gen.h ****     lv_style_value_t v = lv_obj_get_style_prop(obj, part, LV_STYLE_PAD_COLUMN);
 136:lvgl/src/widgets/../core/lv_obj_style_gen.h ****     return (lv_coord_t)v.num;
 137:lvgl/src/widgets/../core/lv_obj_style_gen.h **** }
 138:lvgl/src/widgets/../core/lv_obj_style_gen.h **** 
 139:lvgl/src/widgets/../core/lv_obj_style_gen.h **** static inline lv_color_t lv_obj_get_style_bg_color(const struct _lv_obj_t * obj, uint32_t part)
 140:lvgl/src/widgets/../core/lv_obj_style_gen.h **** {
 141:lvgl/src/widgets/../core/lv_obj_style_gen.h ****     lv_style_value_t v = lv_obj_get_style_prop(obj, part, LV_STYLE_BG_COLOR);
 142:lvgl/src/widgets/../core/lv_obj_style_gen.h ****     return v.color;
 143:lvgl/src/widgets/../core/lv_obj_style_gen.h **** }
 144:lvgl/src/widgets/../core/lv_obj_style_gen.h **** 
 145:lvgl/src/widgets/../core/lv_obj_style_gen.h **** static inline lv_color_t lv_obj_get_style_bg_color_filtered(const struct _lv_obj_t * obj, uint32_t 
 146:lvgl/src/widgets/../core/lv_obj_style_gen.h **** {
 147:lvgl/src/widgets/../core/lv_obj_style_gen.h ****     lv_style_value_t v = _lv_obj_style_apply_color_filter(obj, part, lv_obj_get_style_prop(obj, par
 148:lvgl/src/widgets/../core/lv_obj_style_gen.h ****     return v.color;
 149:lvgl/src/widgets/../core/lv_obj_style_gen.h **** }
 150:lvgl/src/widgets/../core/lv_obj_style_gen.h **** 
 151:lvgl/src/widgets/../core/lv_obj_style_gen.h **** static inline lv_opa_t lv_obj_get_style_bg_opa(const struct _lv_obj_t * obj, uint32_t part)
 152:lvgl/src/widgets/../core/lv_obj_style_gen.h **** {
 153:lvgl/src/widgets/../core/lv_obj_style_gen.h ****     lv_style_value_t v = lv_obj_get_style_prop(obj, part, LV_STYLE_BG_OPA);
 154:lvgl/src/widgets/../core/lv_obj_style_gen.h ****     return (lv_opa_t)v.num;
 155:lvgl/src/widgets/../core/lv_obj_style_gen.h **** }
 156:lvgl/src/widgets/../core/lv_obj_style_gen.h **** 
 157:lvgl/src/widgets/../core/lv_obj_style_gen.h **** static inline lv_color_t lv_obj_get_style_bg_grad_color(const struct _lv_obj_t * obj, uint32_t part
 158:lvgl/src/widgets/../core/lv_obj_style_gen.h **** {
 159:lvgl/src/widgets/../core/lv_obj_style_gen.h ****     lv_style_value_t v = lv_obj_get_style_prop(obj, part, LV_STYLE_BG_GRAD_COLOR);
 160:lvgl/src/widgets/../core/lv_obj_style_gen.h ****     return v.color;
 161:lvgl/src/widgets/../core/lv_obj_style_gen.h **** }
 162:lvgl/src/widgets/../core/lv_obj_style_gen.h **** 
 163:lvgl/src/widgets/../core/lv_obj_style_gen.h **** static inline lv_color_t lv_obj_get_style_bg_grad_color_filtered(const struct _lv_obj_t * obj, uint
 164:lvgl/src/widgets/../core/lv_obj_style_gen.h **** {
 165:lvgl/src/widgets/../core/lv_obj_style_gen.h ****     lv_style_value_t v = _lv_obj_style_apply_color_filter(obj, part, lv_obj_get_style_prop(obj, par
 166:lvgl/src/widgets/../core/lv_obj_style_gen.h ****     return v.color;
 167:lvgl/src/widgets/../core/lv_obj_style_gen.h **** }
 168:lvgl/src/widgets/../core/lv_obj_style_gen.h **** 
 169:lvgl/src/widgets/../core/lv_obj_style_gen.h **** static inline lv_grad_dir_t lv_obj_get_style_bg_grad_dir(const struct _lv_obj_t * obj, uint32_t par
 170:lvgl/src/widgets/../core/lv_obj_style_gen.h **** {
ARM GAS  C:\Users\OSD\AppData\Local\Temp\cclSIqWP.s 			page 11


 171:lvgl/src/widgets/../core/lv_obj_style_gen.h ****     lv_style_value_t v = lv_obj_get_style_prop(obj, part, LV_STYLE_BG_GRAD_DIR);
 172:lvgl/src/widgets/../core/lv_obj_style_gen.h ****     return (lv_grad_dir_t)v.num;
 173:lvgl/src/widgets/../core/lv_obj_style_gen.h **** }
 174:lvgl/src/widgets/../core/lv_obj_style_gen.h **** 
 175:lvgl/src/widgets/../core/lv_obj_style_gen.h **** static inline lv_coord_t lv_obj_get_style_bg_main_stop(const struct _lv_obj_t * obj, uint32_t part)
 176:lvgl/src/widgets/../core/lv_obj_style_gen.h **** {
 177:lvgl/src/widgets/../core/lv_obj_style_gen.h ****     lv_style_value_t v = lv_obj_get_style_prop(obj, part, LV_STYLE_BG_MAIN_STOP);
 178:lvgl/src/widgets/../core/lv_obj_style_gen.h ****     return (lv_coord_t)v.num;
 179:lvgl/src/widgets/../core/lv_obj_style_gen.h **** }
 180:lvgl/src/widgets/../core/lv_obj_style_gen.h **** 
 181:lvgl/src/widgets/../core/lv_obj_style_gen.h **** static inline lv_coord_t lv_obj_get_style_bg_grad_stop(const struct _lv_obj_t * obj, uint32_t part)
 182:lvgl/src/widgets/../core/lv_obj_style_gen.h **** {
 183:lvgl/src/widgets/../core/lv_obj_style_gen.h ****     lv_style_value_t v = lv_obj_get_style_prop(obj, part, LV_STYLE_BG_GRAD_STOP);
 184:lvgl/src/widgets/../core/lv_obj_style_gen.h ****     return (lv_coord_t)v.num;
 185:lvgl/src/widgets/../core/lv_obj_style_gen.h **** }
 186:lvgl/src/widgets/../core/lv_obj_style_gen.h **** 
 187:lvgl/src/widgets/../core/lv_obj_style_gen.h **** static inline const lv_grad_dsc_t * lv_obj_get_style_bg_grad(const struct _lv_obj_t * obj, uint32_t
 188:lvgl/src/widgets/../core/lv_obj_style_gen.h **** {
 189:lvgl/src/widgets/../core/lv_obj_style_gen.h ****     lv_style_value_t v = lv_obj_get_style_prop(obj, part, LV_STYLE_BG_GRAD);
 190:lvgl/src/widgets/../core/lv_obj_style_gen.h ****     return (const lv_grad_dsc_t *)v.ptr;
 191:lvgl/src/widgets/../core/lv_obj_style_gen.h **** }
 192:lvgl/src/widgets/../core/lv_obj_style_gen.h **** 
 193:lvgl/src/widgets/../core/lv_obj_style_gen.h **** static inline lv_dither_mode_t lv_obj_get_style_bg_dither_mode(const struct _lv_obj_t * obj, uint32
 194:lvgl/src/widgets/../core/lv_obj_style_gen.h **** {
 195:lvgl/src/widgets/../core/lv_obj_style_gen.h ****     lv_style_value_t v = lv_obj_get_style_prop(obj, part, LV_STYLE_BG_DITHER_MODE);
 196:lvgl/src/widgets/../core/lv_obj_style_gen.h ****     return (lv_dither_mode_t)v.num;
 197:lvgl/src/widgets/../core/lv_obj_style_gen.h **** }
 198:lvgl/src/widgets/../core/lv_obj_style_gen.h **** 
 199:lvgl/src/widgets/../core/lv_obj_style_gen.h **** static inline const void * lv_obj_get_style_bg_img_src(const struct _lv_obj_t * obj, uint32_t part)
 200:lvgl/src/widgets/../core/lv_obj_style_gen.h **** {
 201:lvgl/src/widgets/../core/lv_obj_style_gen.h ****     lv_style_value_t v = lv_obj_get_style_prop(obj, part, LV_STYLE_BG_IMG_SRC);
 202:lvgl/src/widgets/../core/lv_obj_style_gen.h ****     return (const void *)v.ptr;
 203:lvgl/src/widgets/../core/lv_obj_style_gen.h **** }
 204:lvgl/src/widgets/../core/lv_obj_style_gen.h **** 
 205:lvgl/src/widgets/../core/lv_obj_style_gen.h **** static inline lv_opa_t lv_obj_get_style_bg_img_opa(const struct _lv_obj_t * obj, uint32_t part)
 206:lvgl/src/widgets/../core/lv_obj_style_gen.h **** {
 207:lvgl/src/widgets/../core/lv_obj_style_gen.h ****     lv_style_value_t v = lv_obj_get_style_prop(obj, part, LV_STYLE_BG_IMG_OPA);
 208:lvgl/src/widgets/../core/lv_obj_style_gen.h ****     return (lv_opa_t)v.num;
 209:lvgl/src/widgets/../core/lv_obj_style_gen.h **** }
 210:lvgl/src/widgets/../core/lv_obj_style_gen.h **** 
 211:lvgl/src/widgets/../core/lv_obj_style_gen.h **** static inline lv_color_t lv_obj_get_style_bg_img_recolor(const struct _lv_obj_t * obj, uint32_t par
 212:lvgl/src/widgets/../core/lv_obj_style_gen.h **** {
 213:lvgl/src/widgets/../core/lv_obj_style_gen.h ****     lv_style_value_t v = lv_obj_get_style_prop(obj, part, LV_STYLE_BG_IMG_RECOLOR);
 214:lvgl/src/widgets/../core/lv_obj_style_gen.h ****     return v.color;
 215:lvgl/src/widgets/../core/lv_obj_style_gen.h **** }
 216:lvgl/src/widgets/../core/lv_obj_style_gen.h **** 
 217:lvgl/src/widgets/../core/lv_obj_style_gen.h **** static inline lv_color_t lv_obj_get_style_bg_img_recolor_filtered(const struct _lv_obj_t * obj, uin
 218:lvgl/src/widgets/../core/lv_obj_style_gen.h **** {
 219:lvgl/src/widgets/../core/lv_obj_style_gen.h ****     lv_style_value_t v = _lv_obj_style_apply_color_filter(obj, part, lv_obj_get_style_prop(obj, par
 220:lvgl/src/widgets/../core/lv_obj_style_gen.h ****     return v.color;
 221:lvgl/src/widgets/../core/lv_obj_style_gen.h **** }
 222:lvgl/src/widgets/../core/lv_obj_style_gen.h **** 
 223:lvgl/src/widgets/../core/lv_obj_style_gen.h **** static inline lv_opa_t lv_obj_get_style_bg_img_recolor_opa(const struct _lv_obj_t * obj, uint32_t p
 224:lvgl/src/widgets/../core/lv_obj_style_gen.h **** {
 225:lvgl/src/widgets/../core/lv_obj_style_gen.h ****     lv_style_value_t v = lv_obj_get_style_prop(obj, part, LV_STYLE_BG_IMG_RECOLOR_OPA);
 226:lvgl/src/widgets/../core/lv_obj_style_gen.h ****     return (lv_opa_t)v.num;
 227:lvgl/src/widgets/../core/lv_obj_style_gen.h **** }
ARM GAS  C:\Users\OSD\AppData\Local\Temp\cclSIqWP.s 			page 12


 228:lvgl/src/widgets/../core/lv_obj_style_gen.h **** 
 229:lvgl/src/widgets/../core/lv_obj_style_gen.h **** static inline bool lv_obj_get_style_bg_img_tiled(const struct _lv_obj_t * obj, uint32_t part)
 230:lvgl/src/widgets/../core/lv_obj_style_gen.h **** {
 231:lvgl/src/widgets/../core/lv_obj_style_gen.h ****     lv_style_value_t v = lv_obj_get_style_prop(obj, part, LV_STYLE_BG_IMG_TILED);
 232:lvgl/src/widgets/../core/lv_obj_style_gen.h ****     return (bool)v.num;
 233:lvgl/src/widgets/../core/lv_obj_style_gen.h **** }
 234:lvgl/src/widgets/../core/lv_obj_style_gen.h **** 
 235:lvgl/src/widgets/../core/lv_obj_style_gen.h **** static inline lv_color_t lv_obj_get_style_border_color(const struct _lv_obj_t * obj, uint32_t part)
 236:lvgl/src/widgets/../core/lv_obj_style_gen.h **** {
 237:lvgl/src/widgets/../core/lv_obj_style_gen.h ****     lv_style_value_t v = lv_obj_get_style_prop(obj, part, LV_STYLE_BORDER_COLOR);
 238:lvgl/src/widgets/../core/lv_obj_style_gen.h ****     return v.color;
 239:lvgl/src/widgets/../core/lv_obj_style_gen.h **** }
 240:lvgl/src/widgets/../core/lv_obj_style_gen.h **** 
 241:lvgl/src/widgets/../core/lv_obj_style_gen.h **** static inline lv_color_t lv_obj_get_style_border_color_filtered(const struct _lv_obj_t * obj, uint3
 242:lvgl/src/widgets/../core/lv_obj_style_gen.h **** {
 243:lvgl/src/widgets/../core/lv_obj_style_gen.h ****     lv_style_value_t v = _lv_obj_style_apply_color_filter(obj, part, lv_obj_get_style_prop(obj, par
 244:lvgl/src/widgets/../core/lv_obj_style_gen.h ****     return v.color;
 245:lvgl/src/widgets/../core/lv_obj_style_gen.h **** }
 246:lvgl/src/widgets/../core/lv_obj_style_gen.h **** 
 247:lvgl/src/widgets/../core/lv_obj_style_gen.h **** static inline lv_opa_t lv_obj_get_style_border_opa(const struct _lv_obj_t * obj, uint32_t part)
 248:lvgl/src/widgets/../core/lv_obj_style_gen.h **** {
 249:lvgl/src/widgets/../core/lv_obj_style_gen.h ****     lv_style_value_t v = lv_obj_get_style_prop(obj, part, LV_STYLE_BORDER_OPA);
 250:lvgl/src/widgets/../core/lv_obj_style_gen.h ****     return (lv_opa_t)v.num;
 251:lvgl/src/widgets/../core/lv_obj_style_gen.h **** }
 252:lvgl/src/widgets/../core/lv_obj_style_gen.h **** 
 253:lvgl/src/widgets/../core/lv_obj_style_gen.h **** static inline lv_coord_t lv_obj_get_style_border_width(const struct _lv_obj_t * obj, uint32_t part)
 254:lvgl/src/widgets/../core/lv_obj_style_gen.h **** {
 255:lvgl/src/widgets/../core/lv_obj_style_gen.h ****     lv_style_value_t v = lv_obj_get_style_prop(obj, part, LV_STYLE_BORDER_WIDTH);
 256:lvgl/src/widgets/../core/lv_obj_style_gen.h ****     return (lv_coord_t)v.num;
 257:lvgl/src/widgets/../core/lv_obj_style_gen.h **** }
 258:lvgl/src/widgets/../core/lv_obj_style_gen.h **** 
 259:lvgl/src/widgets/../core/lv_obj_style_gen.h **** static inline lv_border_side_t lv_obj_get_style_border_side(const struct _lv_obj_t * obj, uint32_t 
 260:lvgl/src/widgets/../core/lv_obj_style_gen.h **** {
 261:lvgl/src/widgets/../core/lv_obj_style_gen.h ****     lv_style_value_t v = lv_obj_get_style_prop(obj, part, LV_STYLE_BORDER_SIDE);
 262:lvgl/src/widgets/../core/lv_obj_style_gen.h ****     return (lv_border_side_t)v.num;
 263:lvgl/src/widgets/../core/lv_obj_style_gen.h **** }
 264:lvgl/src/widgets/../core/lv_obj_style_gen.h **** 
 265:lvgl/src/widgets/../core/lv_obj_style_gen.h **** static inline bool lv_obj_get_style_border_post(const struct _lv_obj_t * obj, uint32_t part)
 266:lvgl/src/widgets/../core/lv_obj_style_gen.h **** {
 267:lvgl/src/widgets/../core/lv_obj_style_gen.h ****     lv_style_value_t v = lv_obj_get_style_prop(obj, part, LV_STYLE_BORDER_POST);
 268:lvgl/src/widgets/../core/lv_obj_style_gen.h ****     return (bool)v.num;
 269:lvgl/src/widgets/../core/lv_obj_style_gen.h **** }
 270:lvgl/src/widgets/../core/lv_obj_style_gen.h **** 
 271:lvgl/src/widgets/../core/lv_obj_style_gen.h **** static inline lv_coord_t lv_obj_get_style_outline_width(const struct _lv_obj_t * obj, uint32_t part
 272:lvgl/src/widgets/../core/lv_obj_style_gen.h **** {
 273:lvgl/src/widgets/../core/lv_obj_style_gen.h ****     lv_style_value_t v = lv_obj_get_style_prop(obj, part, LV_STYLE_OUTLINE_WIDTH);
 274:lvgl/src/widgets/../core/lv_obj_style_gen.h ****     return (lv_coord_t)v.num;
 275:lvgl/src/widgets/../core/lv_obj_style_gen.h **** }
 276:lvgl/src/widgets/../core/lv_obj_style_gen.h **** 
 277:lvgl/src/widgets/../core/lv_obj_style_gen.h **** static inline lv_color_t lv_obj_get_style_outline_color(const struct _lv_obj_t * obj, uint32_t part
 278:lvgl/src/widgets/../core/lv_obj_style_gen.h **** {
 279:lvgl/src/widgets/../core/lv_obj_style_gen.h ****     lv_style_value_t v = lv_obj_get_style_prop(obj, part, LV_STYLE_OUTLINE_COLOR);
 280:lvgl/src/widgets/../core/lv_obj_style_gen.h ****     return v.color;
 281:lvgl/src/widgets/../core/lv_obj_style_gen.h **** }
 282:lvgl/src/widgets/../core/lv_obj_style_gen.h **** 
 283:lvgl/src/widgets/../core/lv_obj_style_gen.h **** static inline lv_color_t lv_obj_get_style_outline_color_filtered(const struct _lv_obj_t * obj, uint
 284:lvgl/src/widgets/../core/lv_obj_style_gen.h **** {
ARM GAS  C:\Users\OSD\AppData\Local\Temp\cclSIqWP.s 			page 13


 285:lvgl/src/widgets/../core/lv_obj_style_gen.h ****     lv_style_value_t v = _lv_obj_style_apply_color_filter(obj, part, lv_obj_get_style_prop(obj, par
 286:lvgl/src/widgets/../core/lv_obj_style_gen.h ****     return v.color;
 287:lvgl/src/widgets/../core/lv_obj_style_gen.h **** }
 288:lvgl/src/widgets/../core/lv_obj_style_gen.h **** 
 289:lvgl/src/widgets/../core/lv_obj_style_gen.h **** static inline lv_opa_t lv_obj_get_style_outline_opa(const struct _lv_obj_t * obj, uint32_t part)
 290:lvgl/src/widgets/../core/lv_obj_style_gen.h **** {
 291:lvgl/src/widgets/../core/lv_obj_style_gen.h ****     lv_style_value_t v = lv_obj_get_style_prop(obj, part, LV_STYLE_OUTLINE_OPA);
 292:lvgl/src/widgets/../core/lv_obj_style_gen.h ****     return (lv_opa_t)v.num;
 293:lvgl/src/widgets/../core/lv_obj_style_gen.h **** }
 294:lvgl/src/widgets/../core/lv_obj_style_gen.h **** 
 295:lvgl/src/widgets/../core/lv_obj_style_gen.h **** static inline lv_coord_t lv_obj_get_style_outline_pad(const struct _lv_obj_t * obj, uint32_t part)
 296:lvgl/src/widgets/../core/lv_obj_style_gen.h **** {
 297:lvgl/src/widgets/../core/lv_obj_style_gen.h ****     lv_style_value_t v = lv_obj_get_style_prop(obj, part, LV_STYLE_OUTLINE_PAD);
 298:lvgl/src/widgets/../core/lv_obj_style_gen.h ****     return (lv_coord_t)v.num;
 299:lvgl/src/widgets/../core/lv_obj_style_gen.h **** }
 300:lvgl/src/widgets/../core/lv_obj_style_gen.h **** 
 301:lvgl/src/widgets/../core/lv_obj_style_gen.h **** static inline lv_coord_t lv_obj_get_style_shadow_width(const struct _lv_obj_t * obj, uint32_t part)
 302:lvgl/src/widgets/../core/lv_obj_style_gen.h **** {
 303:lvgl/src/widgets/../core/lv_obj_style_gen.h ****     lv_style_value_t v = lv_obj_get_style_prop(obj, part, LV_STYLE_SHADOW_WIDTH);
 304:lvgl/src/widgets/../core/lv_obj_style_gen.h ****     return (lv_coord_t)v.num;
 305:lvgl/src/widgets/../core/lv_obj_style_gen.h **** }
 306:lvgl/src/widgets/../core/lv_obj_style_gen.h **** 
 307:lvgl/src/widgets/../core/lv_obj_style_gen.h **** static inline lv_coord_t lv_obj_get_style_shadow_ofs_x(const struct _lv_obj_t * obj, uint32_t part)
 308:lvgl/src/widgets/../core/lv_obj_style_gen.h **** {
 309:lvgl/src/widgets/../core/lv_obj_style_gen.h ****     lv_style_value_t v = lv_obj_get_style_prop(obj, part, LV_STYLE_SHADOW_OFS_X);
 310:lvgl/src/widgets/../core/lv_obj_style_gen.h ****     return (lv_coord_t)v.num;
 311:lvgl/src/widgets/../core/lv_obj_style_gen.h **** }
 312:lvgl/src/widgets/../core/lv_obj_style_gen.h **** 
 313:lvgl/src/widgets/../core/lv_obj_style_gen.h **** static inline lv_coord_t lv_obj_get_style_shadow_ofs_y(const struct _lv_obj_t * obj, uint32_t part)
 314:lvgl/src/widgets/../core/lv_obj_style_gen.h **** {
 315:lvgl/src/widgets/../core/lv_obj_style_gen.h ****     lv_style_value_t v = lv_obj_get_style_prop(obj, part, LV_STYLE_SHADOW_OFS_Y);
 316:lvgl/src/widgets/../core/lv_obj_style_gen.h ****     return (lv_coord_t)v.num;
 317:lvgl/src/widgets/../core/lv_obj_style_gen.h **** }
 318:lvgl/src/widgets/../core/lv_obj_style_gen.h **** 
 319:lvgl/src/widgets/../core/lv_obj_style_gen.h **** static inline lv_coord_t lv_obj_get_style_shadow_spread(const struct _lv_obj_t * obj, uint32_t part
 320:lvgl/src/widgets/../core/lv_obj_style_gen.h **** {
 321:lvgl/src/widgets/../core/lv_obj_style_gen.h ****     lv_style_value_t v = lv_obj_get_style_prop(obj, part, LV_STYLE_SHADOW_SPREAD);
 322:lvgl/src/widgets/../core/lv_obj_style_gen.h ****     return (lv_coord_t)v.num;
 323:lvgl/src/widgets/../core/lv_obj_style_gen.h **** }
 324:lvgl/src/widgets/../core/lv_obj_style_gen.h **** 
 325:lvgl/src/widgets/../core/lv_obj_style_gen.h **** static inline lv_color_t lv_obj_get_style_shadow_color(const struct _lv_obj_t * obj, uint32_t part)
 326:lvgl/src/widgets/../core/lv_obj_style_gen.h **** {
 327:lvgl/src/widgets/../core/lv_obj_style_gen.h ****     lv_style_value_t v = lv_obj_get_style_prop(obj, part, LV_STYLE_SHADOW_COLOR);
 328:lvgl/src/widgets/../core/lv_obj_style_gen.h ****     return v.color;
 329:lvgl/src/widgets/../core/lv_obj_style_gen.h **** }
 330:lvgl/src/widgets/../core/lv_obj_style_gen.h **** 
 331:lvgl/src/widgets/../core/lv_obj_style_gen.h **** static inline lv_color_t lv_obj_get_style_shadow_color_filtered(const struct _lv_obj_t * obj, uint3
 332:lvgl/src/widgets/../core/lv_obj_style_gen.h **** {
 333:lvgl/src/widgets/../core/lv_obj_style_gen.h ****     lv_style_value_t v = _lv_obj_style_apply_color_filter(obj, part, lv_obj_get_style_prop(obj, par
 334:lvgl/src/widgets/../core/lv_obj_style_gen.h ****     return v.color;
 335:lvgl/src/widgets/../core/lv_obj_style_gen.h **** }
 336:lvgl/src/widgets/../core/lv_obj_style_gen.h **** 
 337:lvgl/src/widgets/../core/lv_obj_style_gen.h **** static inline lv_opa_t lv_obj_get_style_shadow_opa(const struct _lv_obj_t * obj, uint32_t part)
 338:lvgl/src/widgets/../core/lv_obj_style_gen.h **** {
 339:lvgl/src/widgets/../core/lv_obj_style_gen.h ****     lv_style_value_t v = lv_obj_get_style_prop(obj, part, LV_STYLE_SHADOW_OPA);
 340:lvgl/src/widgets/../core/lv_obj_style_gen.h ****     return (lv_opa_t)v.num;
 341:lvgl/src/widgets/../core/lv_obj_style_gen.h **** }
ARM GAS  C:\Users\OSD\AppData\Local\Temp\cclSIqWP.s 			page 14


 342:lvgl/src/widgets/../core/lv_obj_style_gen.h **** 
 343:lvgl/src/widgets/../core/lv_obj_style_gen.h **** static inline lv_opa_t lv_obj_get_style_img_opa(const struct _lv_obj_t * obj, uint32_t part)
 344:lvgl/src/widgets/../core/lv_obj_style_gen.h **** {
 345:lvgl/src/widgets/../core/lv_obj_style_gen.h ****     lv_style_value_t v = lv_obj_get_style_prop(obj, part, LV_STYLE_IMG_OPA);
 346:lvgl/src/widgets/../core/lv_obj_style_gen.h ****     return (lv_opa_t)v.num;
 347:lvgl/src/widgets/../core/lv_obj_style_gen.h **** }
 348:lvgl/src/widgets/../core/lv_obj_style_gen.h **** 
 349:lvgl/src/widgets/../core/lv_obj_style_gen.h **** static inline lv_color_t lv_obj_get_style_img_recolor(const struct _lv_obj_t * obj, uint32_t part)
 350:lvgl/src/widgets/../core/lv_obj_style_gen.h **** {
 351:lvgl/src/widgets/../core/lv_obj_style_gen.h ****     lv_style_value_t v = lv_obj_get_style_prop(obj, part, LV_STYLE_IMG_RECOLOR);
 352:lvgl/src/widgets/../core/lv_obj_style_gen.h ****     return v.color;
 353:lvgl/src/widgets/../core/lv_obj_style_gen.h **** }
 354:lvgl/src/widgets/../core/lv_obj_style_gen.h **** 
 355:lvgl/src/widgets/../core/lv_obj_style_gen.h **** static inline lv_color_t lv_obj_get_style_img_recolor_filtered(const struct _lv_obj_t * obj, uint32
 356:lvgl/src/widgets/../core/lv_obj_style_gen.h **** {
 357:lvgl/src/widgets/../core/lv_obj_style_gen.h ****     lv_style_value_t v = _lv_obj_style_apply_color_filter(obj, part, lv_obj_get_style_prop(obj, par
 358:lvgl/src/widgets/../core/lv_obj_style_gen.h ****     return v.color;
 359:lvgl/src/widgets/../core/lv_obj_style_gen.h **** }
 360:lvgl/src/widgets/../core/lv_obj_style_gen.h **** 
 361:lvgl/src/widgets/../core/lv_obj_style_gen.h **** static inline lv_opa_t lv_obj_get_style_img_recolor_opa(const struct _lv_obj_t * obj, uint32_t part
 362:lvgl/src/widgets/../core/lv_obj_style_gen.h **** {
 363:lvgl/src/widgets/../core/lv_obj_style_gen.h ****     lv_style_value_t v = lv_obj_get_style_prop(obj, part, LV_STYLE_IMG_RECOLOR_OPA);
 364:lvgl/src/widgets/../core/lv_obj_style_gen.h ****     return (lv_opa_t)v.num;
 365:lvgl/src/widgets/../core/lv_obj_style_gen.h **** }
 366:lvgl/src/widgets/../core/lv_obj_style_gen.h **** 
 367:lvgl/src/widgets/../core/lv_obj_style_gen.h **** static inline lv_coord_t lv_obj_get_style_line_width(const struct _lv_obj_t * obj, uint32_t part)
 368:lvgl/src/widgets/../core/lv_obj_style_gen.h **** {
 369:lvgl/src/widgets/../core/lv_obj_style_gen.h ****     lv_style_value_t v = lv_obj_get_style_prop(obj, part, LV_STYLE_LINE_WIDTH);
 370:lvgl/src/widgets/../core/lv_obj_style_gen.h ****     return (lv_coord_t)v.num;
 371:lvgl/src/widgets/../core/lv_obj_style_gen.h **** }
 372:lvgl/src/widgets/../core/lv_obj_style_gen.h **** 
 373:lvgl/src/widgets/../core/lv_obj_style_gen.h **** static inline lv_coord_t lv_obj_get_style_line_dash_width(const struct _lv_obj_t * obj, uint32_t pa
 374:lvgl/src/widgets/../core/lv_obj_style_gen.h **** {
 375:lvgl/src/widgets/../core/lv_obj_style_gen.h ****     lv_style_value_t v = lv_obj_get_style_prop(obj, part, LV_STYLE_LINE_DASH_WIDTH);
 376:lvgl/src/widgets/../core/lv_obj_style_gen.h ****     return (lv_coord_t)v.num;
 377:lvgl/src/widgets/../core/lv_obj_style_gen.h **** }
 378:lvgl/src/widgets/../core/lv_obj_style_gen.h **** 
 379:lvgl/src/widgets/../core/lv_obj_style_gen.h **** static inline lv_coord_t lv_obj_get_style_line_dash_gap(const struct _lv_obj_t * obj, uint32_t part
 380:lvgl/src/widgets/../core/lv_obj_style_gen.h **** {
 381:lvgl/src/widgets/../core/lv_obj_style_gen.h ****     lv_style_value_t v = lv_obj_get_style_prop(obj, part, LV_STYLE_LINE_DASH_GAP);
 382:lvgl/src/widgets/../core/lv_obj_style_gen.h ****     return (lv_coord_t)v.num;
 383:lvgl/src/widgets/../core/lv_obj_style_gen.h **** }
 384:lvgl/src/widgets/../core/lv_obj_style_gen.h **** 
 385:lvgl/src/widgets/../core/lv_obj_style_gen.h **** static inline bool lv_obj_get_style_line_rounded(const struct _lv_obj_t * obj, uint32_t part)
 386:lvgl/src/widgets/../core/lv_obj_style_gen.h **** {
 387:lvgl/src/widgets/../core/lv_obj_style_gen.h ****     lv_style_value_t v = lv_obj_get_style_prop(obj, part, LV_STYLE_LINE_ROUNDED);
 388:lvgl/src/widgets/../core/lv_obj_style_gen.h ****     return (bool)v.num;
 389:lvgl/src/widgets/../core/lv_obj_style_gen.h **** }
 390:lvgl/src/widgets/../core/lv_obj_style_gen.h **** 
 391:lvgl/src/widgets/../core/lv_obj_style_gen.h **** static inline lv_color_t lv_obj_get_style_line_color(const struct _lv_obj_t * obj, uint32_t part)
 392:lvgl/src/widgets/../core/lv_obj_style_gen.h **** {
 393:lvgl/src/widgets/../core/lv_obj_style_gen.h ****     lv_style_value_t v = lv_obj_get_style_prop(obj, part, LV_STYLE_LINE_COLOR);
 394:lvgl/src/widgets/../core/lv_obj_style_gen.h ****     return v.color;
 395:lvgl/src/widgets/../core/lv_obj_style_gen.h **** }
 396:lvgl/src/widgets/../core/lv_obj_style_gen.h **** 
 397:lvgl/src/widgets/../core/lv_obj_style_gen.h **** static inline lv_color_t lv_obj_get_style_line_color_filtered(const struct _lv_obj_t * obj, uint32_
 398:lvgl/src/widgets/../core/lv_obj_style_gen.h **** {
ARM GAS  C:\Users\OSD\AppData\Local\Temp\cclSIqWP.s 			page 15


 399:lvgl/src/widgets/../core/lv_obj_style_gen.h ****     lv_style_value_t v = _lv_obj_style_apply_color_filter(obj, part, lv_obj_get_style_prop(obj, par
 400:lvgl/src/widgets/../core/lv_obj_style_gen.h ****     return v.color;
 401:lvgl/src/widgets/../core/lv_obj_style_gen.h **** }
 402:lvgl/src/widgets/../core/lv_obj_style_gen.h **** 
 403:lvgl/src/widgets/../core/lv_obj_style_gen.h **** static inline lv_opa_t lv_obj_get_style_line_opa(const struct _lv_obj_t * obj, uint32_t part)
 404:lvgl/src/widgets/../core/lv_obj_style_gen.h **** {
 405:lvgl/src/widgets/../core/lv_obj_style_gen.h ****     lv_style_value_t v = lv_obj_get_style_prop(obj, part, LV_STYLE_LINE_OPA);
 406:lvgl/src/widgets/../core/lv_obj_style_gen.h ****     return (lv_opa_t)v.num;
 407:lvgl/src/widgets/../core/lv_obj_style_gen.h **** }
 408:lvgl/src/widgets/../core/lv_obj_style_gen.h **** 
 409:lvgl/src/widgets/../core/lv_obj_style_gen.h **** static inline lv_coord_t lv_obj_get_style_arc_width(const struct _lv_obj_t * obj, uint32_t part)
 410:lvgl/src/widgets/../core/lv_obj_style_gen.h **** {
 411:lvgl/src/widgets/../core/lv_obj_style_gen.h ****     lv_style_value_t v = lv_obj_get_style_prop(obj, part, LV_STYLE_ARC_WIDTH);
 412:lvgl/src/widgets/../core/lv_obj_style_gen.h ****     return (lv_coord_t)v.num;
 413:lvgl/src/widgets/../core/lv_obj_style_gen.h **** }
 414:lvgl/src/widgets/../core/lv_obj_style_gen.h **** 
 415:lvgl/src/widgets/../core/lv_obj_style_gen.h **** static inline bool lv_obj_get_style_arc_rounded(const struct _lv_obj_t * obj, uint32_t part)
 416:lvgl/src/widgets/../core/lv_obj_style_gen.h **** {
 417:lvgl/src/widgets/../core/lv_obj_style_gen.h ****     lv_style_value_t v = lv_obj_get_style_prop(obj, part, LV_STYLE_ARC_ROUNDED);
 418:lvgl/src/widgets/../core/lv_obj_style_gen.h ****     return (bool)v.num;
 419:lvgl/src/widgets/../core/lv_obj_style_gen.h **** }
 420:lvgl/src/widgets/../core/lv_obj_style_gen.h **** 
 421:lvgl/src/widgets/../core/lv_obj_style_gen.h **** static inline lv_color_t lv_obj_get_style_arc_color(const struct _lv_obj_t * obj, uint32_t part)
 422:lvgl/src/widgets/../core/lv_obj_style_gen.h **** {
 423:lvgl/src/widgets/../core/lv_obj_style_gen.h ****     lv_style_value_t v = lv_obj_get_style_prop(obj, part, LV_STYLE_ARC_COLOR);
 424:lvgl/src/widgets/../core/lv_obj_style_gen.h ****     return v.color;
 425:lvgl/src/widgets/../core/lv_obj_style_gen.h **** }
 426:lvgl/src/widgets/../core/lv_obj_style_gen.h **** 
 427:lvgl/src/widgets/../core/lv_obj_style_gen.h **** static inline lv_color_t lv_obj_get_style_arc_color_filtered(const struct _lv_obj_t * obj, uint32_t
 428:lvgl/src/widgets/../core/lv_obj_style_gen.h **** {
 429:lvgl/src/widgets/../core/lv_obj_style_gen.h ****     lv_style_value_t v = _lv_obj_style_apply_color_filter(obj, part, lv_obj_get_style_prop(obj, par
 430:lvgl/src/widgets/../core/lv_obj_style_gen.h ****     return v.color;
 431:lvgl/src/widgets/../core/lv_obj_style_gen.h **** }
 432:lvgl/src/widgets/../core/lv_obj_style_gen.h **** 
 433:lvgl/src/widgets/../core/lv_obj_style_gen.h **** static inline lv_opa_t lv_obj_get_style_arc_opa(const struct _lv_obj_t * obj, uint32_t part)
 434:lvgl/src/widgets/../core/lv_obj_style_gen.h **** {
 435:lvgl/src/widgets/../core/lv_obj_style_gen.h ****     lv_style_value_t v = lv_obj_get_style_prop(obj, part, LV_STYLE_ARC_OPA);
 436:lvgl/src/widgets/../core/lv_obj_style_gen.h ****     return (lv_opa_t)v.num;
 437:lvgl/src/widgets/../core/lv_obj_style_gen.h **** }
 438:lvgl/src/widgets/../core/lv_obj_style_gen.h **** 
 439:lvgl/src/widgets/../core/lv_obj_style_gen.h **** static inline const void * lv_obj_get_style_arc_img_src(const struct _lv_obj_t * obj, uint32_t part
 440:lvgl/src/widgets/../core/lv_obj_style_gen.h **** {
 441:lvgl/src/widgets/../core/lv_obj_style_gen.h ****     lv_style_value_t v = lv_obj_get_style_prop(obj, part, LV_STYLE_ARC_IMG_SRC);
 442:lvgl/src/widgets/../core/lv_obj_style_gen.h ****     return (const void *)v.ptr;
 443:lvgl/src/widgets/../core/lv_obj_style_gen.h **** }
 444:lvgl/src/widgets/../core/lv_obj_style_gen.h **** 
 445:lvgl/src/widgets/../core/lv_obj_style_gen.h **** static inline lv_color_t lv_obj_get_style_text_color(const struct _lv_obj_t * obj, uint32_t part)
 446:lvgl/src/widgets/../core/lv_obj_style_gen.h **** {
 447:lvgl/src/widgets/../core/lv_obj_style_gen.h ****     lv_style_value_t v = lv_obj_get_style_prop(obj, part, LV_STYLE_TEXT_COLOR);
 448:lvgl/src/widgets/../core/lv_obj_style_gen.h ****     return v.color;
 449:lvgl/src/widgets/../core/lv_obj_style_gen.h **** }
 450:lvgl/src/widgets/../core/lv_obj_style_gen.h **** 
 451:lvgl/src/widgets/../core/lv_obj_style_gen.h **** static inline lv_color_t lv_obj_get_style_text_color_filtered(const struct _lv_obj_t * obj, uint32_
 452:lvgl/src/widgets/../core/lv_obj_style_gen.h **** {
 453:lvgl/src/widgets/../core/lv_obj_style_gen.h ****     lv_style_value_t v = _lv_obj_style_apply_color_filter(obj, part, lv_obj_get_style_prop(obj, par
 454:lvgl/src/widgets/../core/lv_obj_style_gen.h ****     return v.color;
 455:lvgl/src/widgets/../core/lv_obj_style_gen.h **** }
ARM GAS  C:\Users\OSD\AppData\Local\Temp\cclSIqWP.s 			page 16


 456:lvgl/src/widgets/../core/lv_obj_style_gen.h **** 
 457:lvgl/src/widgets/../core/lv_obj_style_gen.h **** static inline lv_opa_t lv_obj_get_style_text_opa(const struct _lv_obj_t * obj, uint32_t part)
 458:lvgl/src/widgets/../core/lv_obj_style_gen.h **** {
 459:lvgl/src/widgets/../core/lv_obj_style_gen.h ****     lv_style_value_t v = lv_obj_get_style_prop(obj, part, LV_STYLE_TEXT_OPA);
 460:lvgl/src/widgets/../core/lv_obj_style_gen.h ****     return (lv_opa_t)v.num;
 461:lvgl/src/widgets/../core/lv_obj_style_gen.h **** }
 462:lvgl/src/widgets/../core/lv_obj_style_gen.h **** 
 463:lvgl/src/widgets/../core/lv_obj_style_gen.h **** static inline const lv_font_t * lv_obj_get_style_text_font(const struct _lv_obj_t * obj, uint32_t p
 464:lvgl/src/widgets/../core/lv_obj_style_gen.h **** {
 465:lvgl/src/widgets/../core/lv_obj_style_gen.h ****     lv_style_value_t v = lv_obj_get_style_prop(obj, part, LV_STYLE_TEXT_FONT);
 466:lvgl/src/widgets/../core/lv_obj_style_gen.h ****     return (const lv_font_t *)v.ptr;
 467:lvgl/src/widgets/../core/lv_obj_style_gen.h **** }
 468:lvgl/src/widgets/../core/lv_obj_style_gen.h **** 
 469:lvgl/src/widgets/../core/lv_obj_style_gen.h **** static inline lv_coord_t lv_obj_get_style_text_letter_space(const struct _lv_obj_t * obj, uint32_t 
 470:lvgl/src/widgets/../core/lv_obj_style_gen.h **** {
 471:lvgl/src/widgets/../core/lv_obj_style_gen.h ****     lv_style_value_t v = lv_obj_get_style_prop(obj, part, LV_STYLE_TEXT_LETTER_SPACE);
 472:lvgl/src/widgets/../core/lv_obj_style_gen.h ****     return (lv_coord_t)v.num;
 473:lvgl/src/widgets/../core/lv_obj_style_gen.h **** }
 474:lvgl/src/widgets/../core/lv_obj_style_gen.h **** 
 475:lvgl/src/widgets/../core/lv_obj_style_gen.h **** static inline lv_coord_t lv_obj_get_style_text_line_space(const struct _lv_obj_t * obj, uint32_t pa
 476:lvgl/src/widgets/../core/lv_obj_style_gen.h **** {
 477:lvgl/src/widgets/../core/lv_obj_style_gen.h ****     lv_style_value_t v = lv_obj_get_style_prop(obj, part, LV_STYLE_TEXT_LINE_SPACE);
 478:lvgl/src/widgets/../core/lv_obj_style_gen.h ****     return (lv_coord_t)v.num;
 479:lvgl/src/widgets/../core/lv_obj_style_gen.h **** }
 480:lvgl/src/widgets/../core/lv_obj_style_gen.h **** 
 481:lvgl/src/widgets/../core/lv_obj_style_gen.h **** static inline lv_text_decor_t lv_obj_get_style_text_decor(const struct _lv_obj_t * obj, uint32_t pa
 482:lvgl/src/widgets/../core/lv_obj_style_gen.h **** {
 483:lvgl/src/widgets/../core/lv_obj_style_gen.h ****     lv_style_value_t v = lv_obj_get_style_prop(obj, part, LV_STYLE_TEXT_DECOR);
 484:lvgl/src/widgets/../core/lv_obj_style_gen.h ****     return (lv_text_decor_t)v.num;
 485:lvgl/src/widgets/../core/lv_obj_style_gen.h **** }
 486:lvgl/src/widgets/../core/lv_obj_style_gen.h **** 
 487:lvgl/src/widgets/../core/lv_obj_style_gen.h **** static inline lv_text_align_t lv_obj_get_style_text_align(const struct _lv_obj_t * obj, uint32_t pa
 488:lvgl/src/widgets/../core/lv_obj_style_gen.h **** {
 489:lvgl/src/widgets/../core/lv_obj_style_gen.h ****     lv_style_value_t v = lv_obj_get_style_prop(obj, part, LV_STYLE_TEXT_ALIGN);
 490:lvgl/src/widgets/../core/lv_obj_style_gen.h ****     return (lv_text_align_t)v.num;
 491:lvgl/src/widgets/../core/lv_obj_style_gen.h **** }
 492:lvgl/src/widgets/../core/lv_obj_style_gen.h **** 
 493:lvgl/src/widgets/../core/lv_obj_style_gen.h **** static inline lv_coord_t lv_obj_get_style_radius(const struct _lv_obj_t * obj, uint32_t part)
 494:lvgl/src/widgets/../core/lv_obj_style_gen.h **** {
 495:lvgl/src/widgets/../core/lv_obj_style_gen.h ****     lv_style_value_t v = lv_obj_get_style_prop(obj, part, LV_STYLE_RADIUS);
 496:lvgl/src/widgets/../core/lv_obj_style_gen.h ****     return (lv_coord_t)v.num;
 497:lvgl/src/widgets/../core/lv_obj_style_gen.h **** }
 498:lvgl/src/widgets/../core/lv_obj_style_gen.h **** 
 499:lvgl/src/widgets/../core/lv_obj_style_gen.h **** static inline bool lv_obj_get_style_clip_corner(const struct _lv_obj_t * obj, uint32_t part)
 500:lvgl/src/widgets/../core/lv_obj_style_gen.h **** {
 501:lvgl/src/widgets/../core/lv_obj_style_gen.h ****     lv_style_value_t v = lv_obj_get_style_prop(obj, part, LV_STYLE_CLIP_CORNER);
 502:lvgl/src/widgets/../core/lv_obj_style_gen.h ****     return (bool)v.num;
 503:lvgl/src/widgets/../core/lv_obj_style_gen.h **** }
 504:lvgl/src/widgets/../core/lv_obj_style_gen.h **** 
 505:lvgl/src/widgets/../core/lv_obj_style_gen.h **** static inline lv_opa_t lv_obj_get_style_opa(const struct _lv_obj_t * obj, uint32_t part)
 506:lvgl/src/widgets/../core/lv_obj_style_gen.h **** {
 507:lvgl/src/widgets/../core/lv_obj_style_gen.h ****     lv_style_value_t v = lv_obj_get_style_prop(obj, part, LV_STYLE_OPA);
 508:lvgl/src/widgets/../core/lv_obj_style_gen.h ****     return (lv_opa_t)v.num;
 509:lvgl/src/widgets/../core/lv_obj_style_gen.h **** }
 510:lvgl/src/widgets/../core/lv_obj_style_gen.h **** 
 511:lvgl/src/widgets/../core/lv_obj_style_gen.h **** static inline lv_opa_t lv_obj_get_style_opa_layered(const struct _lv_obj_t * obj, uint32_t part)
 512:lvgl/src/widgets/../core/lv_obj_style_gen.h **** {
ARM GAS  C:\Users\OSD\AppData\Local\Temp\cclSIqWP.s 			page 17


 513:lvgl/src/widgets/../core/lv_obj_style_gen.h ****     lv_style_value_t v = lv_obj_get_style_prop(obj, part, LV_STYLE_OPA_LAYERED);
 514:lvgl/src/widgets/../core/lv_obj_style_gen.h ****     return (lv_opa_t)v.num;
 515:lvgl/src/widgets/../core/lv_obj_style_gen.h **** }
 516:lvgl/src/widgets/../core/lv_obj_style_gen.h **** 
 517:lvgl/src/widgets/../core/lv_obj_style_gen.h **** static inline const lv_color_filter_dsc_t * lv_obj_get_style_color_filter_dsc(const struct _lv_obj_
 518:lvgl/src/widgets/../core/lv_obj_style_gen.h **** {
 519:lvgl/src/widgets/../core/lv_obj_style_gen.h ****     lv_style_value_t v = lv_obj_get_style_prop(obj, part, LV_STYLE_COLOR_FILTER_DSC);
 520:lvgl/src/widgets/../core/lv_obj_style_gen.h ****     return (const lv_color_filter_dsc_t *)v.ptr;
 521:lvgl/src/widgets/../core/lv_obj_style_gen.h **** }
 522:lvgl/src/widgets/../core/lv_obj_style_gen.h **** 
 523:lvgl/src/widgets/../core/lv_obj_style_gen.h **** static inline lv_opa_t lv_obj_get_style_color_filter_opa(const struct _lv_obj_t * obj, uint32_t par
 524:lvgl/src/widgets/../core/lv_obj_style_gen.h **** {
 525:lvgl/src/widgets/../core/lv_obj_style_gen.h ****     lv_style_value_t v = lv_obj_get_style_prop(obj, part, LV_STYLE_COLOR_FILTER_OPA);
 526:lvgl/src/widgets/../core/lv_obj_style_gen.h ****     return (lv_opa_t)v.num;
 527:lvgl/src/widgets/../core/lv_obj_style_gen.h **** }
 528:lvgl/src/widgets/../core/lv_obj_style_gen.h **** 
 529:lvgl/src/widgets/../core/lv_obj_style_gen.h **** static inline const lv_anim_t * lv_obj_get_style_anim(const struct _lv_obj_t * obj, uint32_t part)
 530:lvgl/src/widgets/../core/lv_obj_style_gen.h **** {
 531:lvgl/src/widgets/../core/lv_obj_style_gen.h ****     lv_style_value_t v = lv_obj_get_style_prop(obj, part, LV_STYLE_ANIM);
 532:lvgl/src/widgets/../core/lv_obj_style_gen.h ****     return (const lv_anim_t *)v.ptr;
 533:lvgl/src/widgets/../core/lv_obj_style_gen.h **** }
 534:lvgl/src/widgets/../core/lv_obj_style_gen.h **** 
 535:lvgl/src/widgets/../core/lv_obj_style_gen.h **** static inline uint32_t lv_obj_get_style_anim_time(const struct _lv_obj_t * obj, uint32_t part)
 151              		.loc 2 535 24 view .LVU29
 152              	.LBB48:
 536:lvgl/src/widgets/../core/lv_obj_style_gen.h **** {
 537:lvgl/src/widgets/../core/lv_obj_style_gen.h ****     lv_style_value_t v = lv_obj_get_style_prop(obj, part, LV_STYLE_ANIM_TIME);
 153              		.loc 2 537 5 view .LVU30
 154              		.loc 2 537 26 is_stmt 0 view .LVU31
 155 0008 6522     		movs	r2, #101
 156 000a 0021     		movs	r1, #0
 157 000c FFF7FEFF 		bl	lv_obj_get_style_prop
 158              	.LVL12:
 538:lvgl/src/widgets/../core/lv_obj_style_gen.h ****     return (uint32_t)v.num;
 159              		.loc 2 538 5 is_stmt 1 view .LVU32
 160              		.loc 2 538 5 is_stmt 0 view .LVU33
 161              	.LBE48:
 162              	.LBE47:
 244:lvgl/src/widgets/lv_switch.c **** 
 245:lvgl/src/widgets/lv_switch.c ****     if(anim_dur_full > 0) {
 163              		.loc 1 245 5 is_stmt 1 view .LVU34
 164              		.loc 1 245 7 is_stmt 0 view .LVU35
 165 0010 10B9     		cbnz	r0, .L16
 166              	.LVL13:
 167              	.L7:
 246:lvgl/src/widgets/lv_switch.c ****         bool chk = lv_obj_get_state(obj) & LV_STATE_CHECKED;
 247:lvgl/src/widgets/lv_switch.c ****         int32_t anim_start;
 248:lvgl/src/widgets/lv_switch.c ****         int32_t anim_end;
 249:lvgl/src/widgets/lv_switch.c ****         /*No animation in progress -> simply set the values*/
 250:lvgl/src/widgets/lv_switch.c ****         if(sw->anim_state == LV_SWITCH_ANIM_STATE_INV) {
 251:lvgl/src/widgets/lv_switch.c ****             anim_start = chk ? LV_SWITCH_ANIM_STATE_START : LV_SWITCH_ANIM_STATE_END;
 252:lvgl/src/widgets/lv_switch.c ****             anim_end   = chk ? LV_SWITCH_ANIM_STATE_END : LV_SWITCH_ANIM_STATE_START;
 253:lvgl/src/widgets/lv_switch.c ****         }
 254:lvgl/src/widgets/lv_switch.c ****         /*Animation in progress. Start from the animation end value*/
 255:lvgl/src/widgets/lv_switch.c ****         else {
 256:lvgl/src/widgets/lv_switch.c ****             anim_start = sw->anim_state;
 257:lvgl/src/widgets/lv_switch.c ****             anim_end   = chk ? LV_SWITCH_ANIM_STATE_END : LV_SWITCH_ANIM_STATE_START;
ARM GAS  C:\Users\OSD\AppData\Local\Temp\cclSIqWP.s 			page 18


 258:lvgl/src/widgets/lv_switch.c ****         }
 259:lvgl/src/widgets/lv_switch.c ****         /*Calculate actual animation duration*/
 260:lvgl/src/widgets/lv_switch.c ****         uint32_t anim_dur = (anim_dur_full * LV_ABS(anim_start - anim_end)) / LV_SWITCH_ANIM_STATE_
 261:lvgl/src/widgets/lv_switch.c **** 
 262:lvgl/src/widgets/lv_switch.c ****         /*Stop the previous animation if it exists*/
 263:lvgl/src/widgets/lv_switch.c ****         lv_anim_del(sw, NULL);
 264:lvgl/src/widgets/lv_switch.c **** 
 265:lvgl/src/widgets/lv_switch.c ****         lv_anim_t a;
 266:lvgl/src/widgets/lv_switch.c ****         lv_anim_init(&a);
 267:lvgl/src/widgets/lv_switch.c ****         lv_anim_set_var(&a, sw);
 268:lvgl/src/widgets/lv_switch.c ****         lv_anim_set_exec_cb(&a, lv_switch_anim_exec_cb);
 269:lvgl/src/widgets/lv_switch.c ****         lv_anim_set_values(&a, anim_start, anim_end);
 270:lvgl/src/widgets/lv_switch.c ****         lv_anim_set_ready_cb(&a, lv_switch_anim_ready);
 271:lvgl/src/widgets/lv_switch.c ****         lv_anim_set_time(&a, anim_dur);
 272:lvgl/src/widgets/lv_switch.c ****         lv_anim_start(&a);
 273:lvgl/src/widgets/lv_switch.c ****     }
 274:lvgl/src/widgets/lv_switch.c **** }
 168              		.loc 1 274 1 view .LVU36
 169 0012 12B0     		add	sp, sp, #72
 170              		.cfi_remember_state
 171              		.cfi_def_cfa_offset 24
 172              		@ sp needed
 173 0014 BDE8F081 		pop	{r4, r5, r6, r7, r8, pc}
 174              	.LVL14:
 175              	.L16:
 176              		.cfi_restore_state
 177              		.loc 1 274 1 view .LVU37
 178 0018 0746     		mov	r7, r0
 179              	.LBB49:
 246:lvgl/src/widgets/lv_switch.c ****         bool chk = lv_obj_get_state(obj) & LV_STATE_CHECKED;
 180              		.loc 1 246 9 is_stmt 1 view .LVU38
 246:lvgl/src/widgets/lv_switch.c ****         bool chk = lv_obj_get_state(obj) & LV_STATE_CHECKED;
 181              		.loc 1 246 20 is_stmt 0 view .LVU39
 182 001a 2046     		mov	r0, r4
 183              	.LVL15:
 246:lvgl/src/widgets/lv_switch.c ****         bool chk = lv_obj_get_state(obj) & LV_STATE_CHECKED;
 184              		.loc 1 246 20 view .LVU40
 185 001c FFF7FEFF 		bl	lv_obj_get_state
 186              	.LVL16:
 187 0020 00F00100 		and	r0, r0, #1
 188              	.LVL17:
 247:lvgl/src/widgets/lv_switch.c ****         int32_t anim_end;
 189              		.loc 1 247 9 is_stmt 1 view .LVU41
 248:lvgl/src/widgets/lv_switch.c ****         /*No animation in progress -> simply set the values*/
 190              		.loc 1 248 9 view .LVU42
 250:lvgl/src/widgets/lv_switch.c ****             anim_start = chk ? LV_SWITCH_ANIM_STATE_START : LV_SWITCH_ANIM_STATE_END;
 191              		.loc 1 250 9 view .LVU43
 250:lvgl/src/widgets/lv_switch.c ****             anim_start = chk ? LV_SWITCH_ANIM_STATE_START : LV_SWITCH_ANIM_STATE_END;
 192              		.loc 1 250 14 is_stmt 0 view .LVU44
 193 0024 666A     		ldr	r6, [r4, #36]
 250:lvgl/src/widgets/lv_switch.c ****             anim_start = chk ? LV_SWITCH_ANIM_STATE_START : LV_SWITCH_ANIM_STATE_END;
 194              		.loc 1 250 11 view .LVU45
 195 0026 B6F1FF3F 		cmp	r6, #-1
 196 002a 1FD0     		beq	.L17
 256:lvgl/src/widgets/lv_switch.c ****             anim_end   = chk ? LV_SWITCH_ANIM_STATE_END : LV_SWITCH_ANIM_STATE_START;
 197              		.loc 1 256 13 is_stmt 1 view .LVU46
 198              	.LVL18:
ARM GAS  C:\Users\OSD\AppData\Local\Temp\cclSIqWP.s 			page 19


 257:lvgl/src/widgets/lv_switch.c ****         }
 199              		.loc 1 257 13 view .LVU47
 257:lvgl/src/widgets/lv_switch.c ****         }
 200              		.loc 1 257 57 is_stmt 0 view .LVU48
 201 002c 50B3     		cbz	r0, .L14
 202 002e 4FF48078 		mov	r8, #256
 203              	.L11:
 204              	.LVL19:
 260:lvgl/src/widgets/lv_switch.c **** 
 205              		.loc 1 260 9 is_stmt 1 view .LVU49
 260:lvgl/src/widgets/lv_switch.c **** 
 206              		.loc 1 260 46 is_stmt 0 view .LVU50
 207 0032 A6EB0805 		sub	r5, r6, r8
 208 0036 002D     		cmp	r5, #0
 209 0038 B8BF     		it	lt
 210 003a 6D42     		rsblt	r5, r5, #0
 211              	.LVL20:
 260:lvgl/src/widgets/lv_switch.c **** 
 212              		.loc 1 260 44 view .LVU51
 213 003c 07FB05F5 		mul	r5, r7, r5
 260:lvgl/src/widgets/lv_switch.c **** 
 214              		.loc 1 260 18 view .LVU52
 215 0040 2D0A     		lsrs	r5, r5, #8
 216              	.LVL21:
 263:lvgl/src/widgets/lv_switch.c **** 
 217              		.loc 1 263 9 is_stmt 1 view .LVU53
 218 0042 0021     		movs	r1, #0
 219 0044 2046     		mov	r0, r4
 220              	.LVL22:
 263:lvgl/src/widgets/lv_switch.c **** 
 221              		.loc 1 263 9 is_stmt 0 view .LVU54
 222 0046 FFF7FEFF 		bl	lv_anim_del
 223              	.LVL23:
 265:lvgl/src/widgets/lv_switch.c ****         lv_anim_init(&a);
 224              		.loc 1 265 9 is_stmt 1 view .LVU55
 266:lvgl/src/widgets/lv_switch.c ****         lv_anim_set_var(&a, sw);
 225              		.loc 1 266 9 view .LVU56
 226 004a 01A8     		add	r0, sp, #4
 227 004c FFF7FEFF 		bl	lv_anim_init
 228              	.LVL24:
 267:lvgl/src/widgets/lv_switch.c ****         lv_anim_set_exec_cb(&a, lv_switch_anim_exec_cb);
 229              		.loc 1 267 9 view .LVU57
 230              	.LBB50:
 231              	.LBI50:
 232              		.file 3 "lvgl/src/widgets/../core/../misc/lv_anim.h"
   1:lvgl/src/widgets/../core/../misc/lv_anim.h **** /**
   2:lvgl/src/widgets/../core/../misc/lv_anim.h ****  * @file lv_anim.h
   3:lvgl/src/widgets/../core/../misc/lv_anim.h ****  *
   4:lvgl/src/widgets/../core/../misc/lv_anim.h ****  */
   5:lvgl/src/widgets/../core/../misc/lv_anim.h **** 
   6:lvgl/src/widgets/../core/../misc/lv_anim.h **** #ifndef LV_ANIM_H
   7:lvgl/src/widgets/../core/../misc/lv_anim.h **** #define LV_ANIM_H
   8:lvgl/src/widgets/../core/../misc/lv_anim.h **** 
   9:lvgl/src/widgets/../core/../misc/lv_anim.h **** #ifdef __cplusplus
  10:lvgl/src/widgets/../core/../misc/lv_anim.h **** extern "C" {
  11:lvgl/src/widgets/../core/../misc/lv_anim.h **** #endif
  12:lvgl/src/widgets/../core/../misc/lv_anim.h **** 
ARM GAS  C:\Users\OSD\AppData\Local\Temp\cclSIqWP.s 			page 20


  13:lvgl/src/widgets/../core/../misc/lv_anim.h **** /*********************
  14:lvgl/src/widgets/../core/../misc/lv_anim.h ****  *      INCLUDES
  15:lvgl/src/widgets/../core/../misc/lv_anim.h ****  *********************/
  16:lvgl/src/widgets/../core/../misc/lv_anim.h **** #include "../lv_conf_internal.h"
  17:lvgl/src/widgets/../core/../misc/lv_anim.h **** 
  18:lvgl/src/widgets/../core/../misc/lv_anim.h **** #include <stdint.h>
  19:lvgl/src/widgets/../core/../misc/lv_anim.h **** #include <stdbool.h>
  20:lvgl/src/widgets/../core/../misc/lv_anim.h **** #include <stddef.h>
  21:lvgl/src/widgets/../core/../misc/lv_anim.h **** 
  22:lvgl/src/widgets/../core/../misc/lv_anim.h **** /*********************
  23:lvgl/src/widgets/../core/../misc/lv_anim.h ****  *      DEFINES
  24:lvgl/src/widgets/../core/../misc/lv_anim.h ****  *********************/
  25:lvgl/src/widgets/../core/../misc/lv_anim.h **** 
  26:lvgl/src/widgets/../core/../misc/lv_anim.h **** #define LV_ANIM_REPEAT_INFINITE      0xFFFF
  27:lvgl/src/widgets/../core/../misc/lv_anim.h **** #define LV_ANIM_PLAYTIME_INFINITE    0xFFFFFFFF
  28:lvgl/src/widgets/../core/../misc/lv_anim.h **** 
  29:lvgl/src/widgets/../core/../misc/lv_anim.h **** LV_EXPORT_CONST_INT(LV_ANIM_REPEAT_INFINITE);
  30:lvgl/src/widgets/../core/../misc/lv_anim.h **** LV_EXPORT_CONST_INT(LV_ANIM_PLAYTIME_INFINITE);
  31:lvgl/src/widgets/../core/../misc/lv_anim.h **** 
  32:lvgl/src/widgets/../core/../misc/lv_anim.h **** /**********************
  33:lvgl/src/widgets/../core/../misc/lv_anim.h ****  *      TYPEDEFS
  34:lvgl/src/widgets/../core/../misc/lv_anim.h ****  **********************/
  35:lvgl/src/widgets/../core/../misc/lv_anim.h **** 
  36:lvgl/src/widgets/../core/../misc/lv_anim.h **** /** Can be used to indicate if animations are enabled or disabled in a case*/
  37:lvgl/src/widgets/../core/../misc/lv_anim.h **** typedef enum {
  38:lvgl/src/widgets/../core/../misc/lv_anim.h ****     LV_ANIM_OFF,
  39:lvgl/src/widgets/../core/../misc/lv_anim.h ****     LV_ANIM_ON,
  40:lvgl/src/widgets/../core/../misc/lv_anim.h **** } lv_anim_enable_t;
  41:lvgl/src/widgets/../core/../misc/lv_anim.h **** 
  42:lvgl/src/widgets/../core/../misc/lv_anim.h **** struct _lv_anim_t;
  43:lvgl/src/widgets/../core/../misc/lv_anim.h **** struct _lv_timer_t;
  44:lvgl/src/widgets/../core/../misc/lv_anim.h **** 
  45:lvgl/src/widgets/../core/../misc/lv_anim.h **** /** Get the current value during an animation*/
  46:lvgl/src/widgets/../core/../misc/lv_anim.h **** typedef int32_t (*lv_anim_path_cb_t)(const struct _lv_anim_t *);
  47:lvgl/src/widgets/../core/../misc/lv_anim.h **** 
  48:lvgl/src/widgets/../core/../misc/lv_anim.h **** /** Generic prototype of "animator" functions.
  49:lvgl/src/widgets/../core/../misc/lv_anim.h ****  * First parameter is the variable to animate.
  50:lvgl/src/widgets/../core/../misc/lv_anim.h ****  * Second parameter is the value to set.
  51:lvgl/src/widgets/../core/../misc/lv_anim.h ****  * Compatible with `lv_xxx_set_yyy(obj, value)` functions
  52:lvgl/src/widgets/../core/../misc/lv_anim.h ****  * The `x` in `_xcb_t` means it's not a fully generic prototype because
  53:lvgl/src/widgets/../core/../misc/lv_anim.h ****  * it doesn't receive `lv_anim_t *` as its first argument*/
  54:lvgl/src/widgets/../core/../misc/lv_anim.h **** typedef void (*lv_anim_exec_xcb_t)(void *, int32_t);
  55:lvgl/src/widgets/../core/../misc/lv_anim.h **** 
  56:lvgl/src/widgets/../core/../misc/lv_anim.h **** /** Same as `lv_anim_exec_xcb_t` but receives `lv_anim_t *` as the first parameter.
  57:lvgl/src/widgets/../core/../misc/lv_anim.h ****  * It's more consistent but less convenient. Might be used by binding generator functions.*/
  58:lvgl/src/widgets/../core/../misc/lv_anim.h **** typedef void (*lv_anim_custom_exec_cb_t)(struct _lv_anim_t *, int32_t);
  59:lvgl/src/widgets/../core/../misc/lv_anim.h **** 
  60:lvgl/src/widgets/../core/../misc/lv_anim.h **** /** Callback to call when the animation is ready*/
  61:lvgl/src/widgets/../core/../misc/lv_anim.h **** typedef void (*lv_anim_ready_cb_t)(struct _lv_anim_t *);
  62:lvgl/src/widgets/../core/../misc/lv_anim.h **** 
  63:lvgl/src/widgets/../core/../misc/lv_anim.h **** /** Callback to call when the animation really stars (considering `delay`)*/
  64:lvgl/src/widgets/../core/../misc/lv_anim.h **** typedef void (*lv_anim_start_cb_t)(struct _lv_anim_t *);
  65:lvgl/src/widgets/../core/../misc/lv_anim.h **** 
  66:lvgl/src/widgets/../core/../misc/lv_anim.h **** /** Callback used when the animation values are relative to get the current value*/
  67:lvgl/src/widgets/../core/../misc/lv_anim.h **** typedef int32_t (*lv_anim_get_value_cb_t)(struct _lv_anim_t *);
  68:lvgl/src/widgets/../core/../misc/lv_anim.h **** 
  69:lvgl/src/widgets/../core/../misc/lv_anim.h **** /** Callback used when the animation is deleted*/
ARM GAS  C:\Users\OSD\AppData\Local\Temp\cclSIqWP.s 			page 21


  70:lvgl/src/widgets/../core/../misc/lv_anim.h **** typedef void (*lv_anim_deleted_cb_t)(struct _lv_anim_t *);
  71:lvgl/src/widgets/../core/../misc/lv_anim.h **** 
  72:lvgl/src/widgets/../core/../misc/lv_anim.h **** /** Describes an animation*/
  73:lvgl/src/widgets/../core/../misc/lv_anim.h **** typedef struct _lv_anim_t {
  74:lvgl/src/widgets/../core/../misc/lv_anim.h ****     void * var;                          /**<Variable to animate*/
  75:lvgl/src/widgets/../core/../misc/lv_anim.h ****     lv_anim_exec_xcb_t exec_cb;          /**< Function to execute to animate*/
  76:lvgl/src/widgets/../core/../misc/lv_anim.h ****     lv_anim_start_cb_t start_cb;         /**< Call it when the animation is starts (considering `de
  77:lvgl/src/widgets/../core/../misc/lv_anim.h ****     lv_anim_ready_cb_t ready_cb;         /**< Call it when the animation is ready*/
  78:lvgl/src/widgets/../core/../misc/lv_anim.h ****     lv_anim_deleted_cb_t deleted_cb;     /**< Call it when the animation is deleted*/
  79:lvgl/src/widgets/../core/../misc/lv_anim.h ****     lv_anim_get_value_cb_t get_value_cb; /**< Get the current value in relative mode*/
  80:lvgl/src/widgets/../core/../misc/lv_anim.h **** #if LV_USE_USER_DATA
  81:lvgl/src/widgets/../core/../misc/lv_anim.h ****     void * user_data; /**< Custom user data*/
  82:lvgl/src/widgets/../core/../misc/lv_anim.h **** #endif
  83:lvgl/src/widgets/../core/../misc/lv_anim.h ****     lv_anim_path_cb_t path_cb;         /**< Describe the path (curve) of animations*/
  84:lvgl/src/widgets/../core/../misc/lv_anim.h ****     int32_t start_value;               /**< Start value*/
  85:lvgl/src/widgets/../core/../misc/lv_anim.h ****     int32_t current_value;             /**< Current value*/
  86:lvgl/src/widgets/../core/../misc/lv_anim.h ****     int32_t end_value;                 /**< End value*/
  87:lvgl/src/widgets/../core/../misc/lv_anim.h ****     int32_t time;                /**< Animation time in ms*/
  88:lvgl/src/widgets/../core/../misc/lv_anim.h ****     int32_t act_time;            /**< Current time in animation. Set to negative to make delay.*/
  89:lvgl/src/widgets/../core/../misc/lv_anim.h ****     uint32_t playback_delay;     /**< Wait before play back*/
  90:lvgl/src/widgets/../core/../misc/lv_anim.h ****     uint32_t playback_time;      /**< Duration of playback animation*/
  91:lvgl/src/widgets/../core/../misc/lv_anim.h ****     uint32_t repeat_delay;       /**< Wait before repeat*/
  92:lvgl/src/widgets/../core/../misc/lv_anim.h ****     uint16_t repeat_cnt;         /**< Repeat count for the animation*/
  93:lvgl/src/widgets/../core/../misc/lv_anim.h ****     uint8_t early_apply  : 1;    /**< 1: Apply start value immediately even is there is `delay`*/
  94:lvgl/src/widgets/../core/../misc/lv_anim.h **** 
  95:lvgl/src/widgets/../core/../misc/lv_anim.h ****     /*Animation system use these - user shouldn't set*/
  96:lvgl/src/widgets/../core/../misc/lv_anim.h ****     uint8_t playback_now : 1; /**< Play back is in progress*/
  97:lvgl/src/widgets/../core/../misc/lv_anim.h ****     uint8_t run_round : 1;    /**< Indicates the animation has run in this round*/
  98:lvgl/src/widgets/../core/../misc/lv_anim.h ****     uint8_t start_cb_called : 1;    /**< Indicates that the `start_cb` was already called*/
  99:lvgl/src/widgets/../core/../misc/lv_anim.h **** } lv_anim_t;
 100:lvgl/src/widgets/../core/../misc/lv_anim.h **** 
 101:lvgl/src/widgets/../core/../misc/lv_anim.h **** /**********************
 102:lvgl/src/widgets/../core/../misc/lv_anim.h ****  * GLOBAL PROTOTYPES
 103:lvgl/src/widgets/../core/../misc/lv_anim.h ****  **********************/
 104:lvgl/src/widgets/../core/../misc/lv_anim.h **** 
 105:lvgl/src/widgets/../core/../misc/lv_anim.h **** /**
 106:lvgl/src/widgets/../core/../misc/lv_anim.h ****  * Init. the animation module
 107:lvgl/src/widgets/../core/../misc/lv_anim.h ****  */
 108:lvgl/src/widgets/../core/../misc/lv_anim.h **** void _lv_anim_core_init(void);
 109:lvgl/src/widgets/../core/../misc/lv_anim.h **** 
 110:lvgl/src/widgets/../core/../misc/lv_anim.h **** /**
 111:lvgl/src/widgets/../core/../misc/lv_anim.h ****  * Initialize an animation variable.
 112:lvgl/src/widgets/../core/../misc/lv_anim.h ****  * E.g.:
 113:lvgl/src/widgets/../core/../misc/lv_anim.h ****  * lv_anim_t a;
 114:lvgl/src/widgets/../core/../misc/lv_anim.h ****  * lv_anim_init(&a);
 115:lvgl/src/widgets/../core/../misc/lv_anim.h ****  * lv_anim_set_...(&a);
 116:lvgl/src/widgets/../core/../misc/lv_anim.h ****  * lv_anim_start(&a);
 117:lvgl/src/widgets/../core/../misc/lv_anim.h ****  * @param a     pointer to an `lv_anim_t` variable to initialize
 118:lvgl/src/widgets/../core/../misc/lv_anim.h ****  */
 119:lvgl/src/widgets/../core/../misc/lv_anim.h **** void lv_anim_init(lv_anim_t * a);
 120:lvgl/src/widgets/../core/../misc/lv_anim.h **** 
 121:lvgl/src/widgets/../core/../misc/lv_anim.h **** /**
 122:lvgl/src/widgets/../core/../misc/lv_anim.h ****  * Set a variable to animate
 123:lvgl/src/widgets/../core/../misc/lv_anim.h ****  * @param a     pointer to an initialized `lv_anim_t` variable
 124:lvgl/src/widgets/../core/../misc/lv_anim.h ****  * @param var   pointer to a variable to animate
 125:lvgl/src/widgets/../core/../misc/lv_anim.h ****  */
 126:lvgl/src/widgets/../core/../misc/lv_anim.h **** static inline void lv_anim_set_var(lv_anim_t * a, void * var)
ARM GAS  C:\Users\OSD\AppData\Local\Temp\cclSIqWP.s 			page 22


 233              		.loc 3 126 20 view .LVU58
 234              	.LBB51:
 127:lvgl/src/widgets/../core/../misc/lv_anim.h **** {
 128:lvgl/src/widgets/../core/../misc/lv_anim.h ****     a->var = var;
 235              		.loc 3 128 5 view .LVU59
 236              		.loc 3 128 12 is_stmt 0 view .LVU60
 237 0050 0194     		str	r4, [sp, #4]
 238              	.LVL25:
 239              		.loc 3 128 12 view .LVU61
 240              	.LBE51:
 241              	.LBE50:
 268:lvgl/src/widgets/lv_switch.c ****         lv_anim_set_values(&a, anim_start, anim_end);
 242              		.loc 1 268 9 is_stmt 1 view .LVU62
 243              	.LBB52:
 244              	.LBI52:
 129:lvgl/src/widgets/../core/../misc/lv_anim.h **** }
 130:lvgl/src/widgets/../core/../misc/lv_anim.h **** 
 131:lvgl/src/widgets/../core/../misc/lv_anim.h **** /**
 132:lvgl/src/widgets/../core/../misc/lv_anim.h ****  * Set a function to animate `var`
 133:lvgl/src/widgets/../core/../misc/lv_anim.h ****  * @param a         pointer to an initialized `lv_anim_t` variable
 134:lvgl/src/widgets/../core/../misc/lv_anim.h ****  * @param exec_cb   a function to execute during animation
 135:lvgl/src/widgets/../core/../misc/lv_anim.h ****  *                  LVGL's built-in functions can be used.
 136:lvgl/src/widgets/../core/../misc/lv_anim.h ****  *                  E.g. lv_obj_set_x
 137:lvgl/src/widgets/../core/../misc/lv_anim.h ****  */
 138:lvgl/src/widgets/../core/../misc/lv_anim.h **** static inline void lv_anim_set_exec_cb(lv_anim_t * a, lv_anim_exec_xcb_t exec_cb)
 245              		.loc 3 138 20 view .LVU63
 246              	.LBB53:
 139:lvgl/src/widgets/../core/../misc/lv_anim.h **** {
 140:lvgl/src/widgets/../core/../misc/lv_anim.h ****     a->exec_cb = exec_cb;
 247              		.loc 3 140 5 view .LVU64
 248              		.loc 3 140 16 is_stmt 0 view .LVU65
 249 0052 0E4B     		ldr	r3, .L18
 250 0054 0293     		str	r3, [sp, #8]
 251              	.LVL26:
 252              		.loc 3 140 16 view .LVU66
 253              	.LBE53:
 254              	.LBE52:
 269:lvgl/src/widgets/lv_switch.c ****         lv_anim_set_ready_cb(&a, lv_switch_anim_ready);
 255              		.loc 1 269 9 is_stmt 1 view .LVU67
 256              	.LBB54:
 257              	.LBI54:
 141:lvgl/src/widgets/../core/../misc/lv_anim.h **** }
 142:lvgl/src/widgets/../core/../misc/lv_anim.h **** 
 143:lvgl/src/widgets/../core/../misc/lv_anim.h **** /**
 144:lvgl/src/widgets/../core/../misc/lv_anim.h ****  * Set the duration of an animation
 145:lvgl/src/widgets/../core/../misc/lv_anim.h ****  * @param a         pointer to an initialized `lv_anim_t` variable
 146:lvgl/src/widgets/../core/../misc/lv_anim.h ****  * @param duration  duration of the animation in milliseconds
 147:lvgl/src/widgets/../core/../misc/lv_anim.h ****  */
 148:lvgl/src/widgets/../core/../misc/lv_anim.h **** static inline void lv_anim_set_time(lv_anim_t * a, uint32_t duration)
 149:lvgl/src/widgets/../core/../misc/lv_anim.h **** {
 150:lvgl/src/widgets/../core/../misc/lv_anim.h ****     a->time = duration;
 151:lvgl/src/widgets/../core/../misc/lv_anim.h **** }
 152:lvgl/src/widgets/../core/../misc/lv_anim.h **** 
 153:lvgl/src/widgets/../core/../misc/lv_anim.h **** /**
 154:lvgl/src/widgets/../core/../misc/lv_anim.h ****  * Set a delay before starting the animation
 155:lvgl/src/widgets/../core/../misc/lv_anim.h ****  * @param a         pointer to an initialized `lv_anim_t` variable
 156:lvgl/src/widgets/../core/../misc/lv_anim.h ****  * @param delay     delay before the animation in milliseconds
ARM GAS  C:\Users\OSD\AppData\Local\Temp\cclSIqWP.s 			page 23


 157:lvgl/src/widgets/../core/../misc/lv_anim.h ****  */
 158:lvgl/src/widgets/../core/../misc/lv_anim.h **** static inline void lv_anim_set_delay(lv_anim_t * a, uint32_t delay)
 159:lvgl/src/widgets/../core/../misc/lv_anim.h **** {
 160:lvgl/src/widgets/../core/../misc/lv_anim.h ****     a->act_time = -(int32_t)(delay);
 161:lvgl/src/widgets/../core/../misc/lv_anim.h **** }
 162:lvgl/src/widgets/../core/../misc/lv_anim.h **** 
 163:lvgl/src/widgets/../core/../misc/lv_anim.h **** /**
 164:lvgl/src/widgets/../core/../misc/lv_anim.h ****  * Set the start and end values of an animation
 165:lvgl/src/widgets/../core/../misc/lv_anim.h ****  * @param a         pointer to an initialized `lv_anim_t` variable
 166:lvgl/src/widgets/../core/../misc/lv_anim.h ****  * @param start     the start value
 167:lvgl/src/widgets/../core/../misc/lv_anim.h ****  * @param end       the end value
 168:lvgl/src/widgets/../core/../misc/lv_anim.h ****  */
 169:lvgl/src/widgets/../core/../misc/lv_anim.h **** static inline void lv_anim_set_values(lv_anim_t * a, int32_t start, int32_t end)
 258              		.loc 3 169 20 view .LVU68
 259              	.LBB55:
 170:lvgl/src/widgets/../core/../misc/lv_anim.h **** {
 171:lvgl/src/widgets/../core/../misc/lv_anim.h ****     a->start_value = start;
 260              		.loc 3 171 5 view .LVU69
 261              		.loc 3 171 20 is_stmt 0 view .LVU70
 262 0056 0996     		str	r6, [sp, #36]
 172:lvgl/src/widgets/../core/../misc/lv_anim.h ****     a->current_value = start;
 263              		.loc 3 172 5 is_stmt 1 view .LVU71
 264              		.loc 3 172 22 is_stmt 0 view .LVU72
 265 0058 0A96     		str	r6, [sp, #40]
 173:lvgl/src/widgets/../core/../misc/lv_anim.h ****     a->end_value = end;
 266              		.loc 3 173 5 is_stmt 1 view .LVU73
 267              		.loc 3 173 18 is_stmt 0 view .LVU74
 268 005a CDF82C80 		str	r8, [sp, #44]
 269              	.LVL27:
 270              		.loc 3 173 18 view .LVU75
 271              	.LBE55:
 272              	.LBE54:
 270:lvgl/src/widgets/lv_switch.c ****         lv_anim_set_time(&a, anim_dur);
 273              		.loc 1 270 9 is_stmt 1 view .LVU76
 274              	.LBB56:
 275              	.LBI56:
 174:lvgl/src/widgets/../core/../misc/lv_anim.h **** }
 175:lvgl/src/widgets/../core/../misc/lv_anim.h **** 
 176:lvgl/src/widgets/../core/../misc/lv_anim.h **** /**
 177:lvgl/src/widgets/../core/../misc/lv_anim.h ****  * Similar to `lv_anim_set_exec_cb` but `lv_anim_custom_exec_cb_t` receives
 178:lvgl/src/widgets/../core/../misc/lv_anim.h ****  * `lv_anim_t * ` as its first parameter instead of `void *`.
 179:lvgl/src/widgets/../core/../misc/lv_anim.h ****  * This function might be used when LVGL is bound to other languages because
 180:lvgl/src/widgets/../core/../misc/lv_anim.h ****  * it's more consistent to have `lv_anim_t *` as first parameter.
 181:lvgl/src/widgets/../core/../misc/lv_anim.h ****  * The variable to animate can be stored in the animation's `user_data`
 182:lvgl/src/widgets/../core/../misc/lv_anim.h ****  * @param a         pointer to an initialized `lv_anim_t` variable
 183:lvgl/src/widgets/../core/../misc/lv_anim.h ****  * @param exec_cb   a function to execute.
 184:lvgl/src/widgets/../core/../misc/lv_anim.h ****  */
 185:lvgl/src/widgets/../core/../misc/lv_anim.h **** static inline void lv_anim_set_custom_exec_cb(lv_anim_t * a, lv_anim_custom_exec_cb_t exec_cb)
 186:lvgl/src/widgets/../core/../misc/lv_anim.h **** {
 187:lvgl/src/widgets/../core/../misc/lv_anim.h ****     a->var     = a;
 188:lvgl/src/widgets/../core/../misc/lv_anim.h ****     a->exec_cb = (lv_anim_exec_xcb_t)exec_cb;
 189:lvgl/src/widgets/../core/../misc/lv_anim.h **** }
 190:lvgl/src/widgets/../core/../misc/lv_anim.h **** 
 191:lvgl/src/widgets/../core/../misc/lv_anim.h **** /**
 192:lvgl/src/widgets/../core/../misc/lv_anim.h ****  * Set the path (curve) of the animation.
 193:lvgl/src/widgets/../core/../misc/lv_anim.h ****  * @param a         pointer to an initialized `lv_anim_t` variable
 194:lvgl/src/widgets/../core/../misc/lv_anim.h ****  * @param path_cb a function to set the current value of the animation.
ARM GAS  C:\Users\OSD\AppData\Local\Temp\cclSIqWP.s 			page 24


 195:lvgl/src/widgets/../core/../misc/lv_anim.h ****  */
 196:lvgl/src/widgets/../core/../misc/lv_anim.h **** static inline void lv_anim_set_path_cb(lv_anim_t * a, lv_anim_path_cb_t path_cb)
 197:lvgl/src/widgets/../core/../misc/lv_anim.h **** {
 198:lvgl/src/widgets/../core/../misc/lv_anim.h ****     a->path_cb = path_cb;
 199:lvgl/src/widgets/../core/../misc/lv_anim.h **** }
 200:lvgl/src/widgets/../core/../misc/lv_anim.h **** 
 201:lvgl/src/widgets/../core/../misc/lv_anim.h **** /**
 202:lvgl/src/widgets/../core/../misc/lv_anim.h ****  * Set a function call when the animation really starts (considering `delay`)
 203:lvgl/src/widgets/../core/../misc/lv_anim.h ****  * @param a         pointer to an initialized `lv_anim_t` variable
 204:lvgl/src/widgets/../core/../misc/lv_anim.h ****  * @param start_cb  a function call when the animation starts
 205:lvgl/src/widgets/../core/../misc/lv_anim.h ****  */
 206:lvgl/src/widgets/../core/../misc/lv_anim.h **** static inline void lv_anim_set_start_cb(lv_anim_t * a, lv_anim_start_cb_t start_cb)
 207:lvgl/src/widgets/../core/../misc/lv_anim.h **** {
 208:lvgl/src/widgets/../core/../misc/lv_anim.h ****     a->start_cb = start_cb;
 209:lvgl/src/widgets/../core/../misc/lv_anim.h **** }
 210:lvgl/src/widgets/../core/../misc/lv_anim.h **** 
 211:lvgl/src/widgets/../core/../misc/lv_anim.h **** /**
 212:lvgl/src/widgets/../core/../misc/lv_anim.h ****  * Set a function to use the current value of the variable and make start and end value
 213:lvgl/src/widgets/../core/../misc/lv_anim.h ****  * relative to the returned current value.
 214:lvgl/src/widgets/../core/../misc/lv_anim.h ****  * @param a             pointer to an initialized `lv_anim_t` variable
 215:lvgl/src/widgets/../core/../misc/lv_anim.h ****  * @param get_value_cb  a function call when the animation starts
 216:lvgl/src/widgets/../core/../misc/lv_anim.h ****  */
 217:lvgl/src/widgets/../core/../misc/lv_anim.h **** static inline void lv_anim_set_get_value_cb(lv_anim_t * a, lv_anim_get_value_cb_t get_value_cb)
 218:lvgl/src/widgets/../core/../misc/lv_anim.h **** {
 219:lvgl/src/widgets/../core/../misc/lv_anim.h ****     a->get_value_cb = get_value_cb;
 220:lvgl/src/widgets/../core/../misc/lv_anim.h **** }
 221:lvgl/src/widgets/../core/../misc/lv_anim.h **** 
 222:lvgl/src/widgets/../core/../misc/lv_anim.h **** /**
 223:lvgl/src/widgets/../core/../misc/lv_anim.h ****  * Set a function call when the animation is ready
 224:lvgl/src/widgets/../core/../misc/lv_anim.h ****  * @param a         pointer to an initialized `lv_anim_t` variable
 225:lvgl/src/widgets/../core/../misc/lv_anim.h ****  * @param ready_cb  a function call when the animation is ready
 226:lvgl/src/widgets/../core/../misc/lv_anim.h ****  */
 227:lvgl/src/widgets/../core/../misc/lv_anim.h **** static inline void lv_anim_set_ready_cb(lv_anim_t * a, lv_anim_ready_cb_t ready_cb)
 276              		.loc 3 227 20 view .LVU77
 277              	.LBB57:
 228:lvgl/src/widgets/../core/../misc/lv_anim.h **** {
 229:lvgl/src/widgets/../core/../misc/lv_anim.h ****     a->ready_cb = ready_cb;
 278              		.loc 3 229 5 view .LVU78
 279              		.loc 3 229 17 is_stmt 0 view .LVU79
 280 005e 0C4B     		ldr	r3, .L18+4
 281 0060 0493     		str	r3, [sp, #16]
 282              	.LVL28:
 283              		.loc 3 229 17 view .LVU80
 284              	.LBE57:
 285              	.LBE56:
 271:lvgl/src/widgets/lv_switch.c ****         lv_anim_start(&a);
 286              		.loc 1 271 9 is_stmt 1 view .LVU81
 287              	.LBB58:
 288              	.LBI58:
 148:lvgl/src/widgets/../core/../misc/lv_anim.h **** {
 289              		.loc 3 148 20 view .LVU82
 290              	.LBB59:
 150:lvgl/src/widgets/../core/../misc/lv_anim.h **** }
 291              		.loc 3 150 5 view .LVU83
 150:lvgl/src/widgets/../core/../misc/lv_anim.h **** }
 292              		.loc 3 150 13 is_stmt 0 view .LVU84
 293 0062 0C95     		str	r5, [sp, #48]
ARM GAS  C:\Users\OSD\AppData\Local\Temp\cclSIqWP.s 			page 25


 294              	.LVL29:
 150:lvgl/src/widgets/../core/../misc/lv_anim.h **** }
 295              		.loc 3 150 13 view .LVU85
 296              	.LBE59:
 297              	.LBE58:
 272:lvgl/src/widgets/lv_switch.c ****     }
 298              		.loc 1 272 9 is_stmt 1 view .LVU86
 299 0064 01A8     		add	r0, sp, #4
 300 0066 FFF7FEFF 		bl	lv_anim_start
 301              	.LVL30:
 302              	.LBE49:
 303              		.loc 1 274 1 is_stmt 0 view .LVU87
 304 006a D2E7     		b	.L7
 305              	.LVL31:
 306              	.L17:
 307              	.LBB60:
 251:lvgl/src/widgets/lv_switch.c ****             anim_end   = chk ? LV_SWITCH_ANIM_STATE_END : LV_SWITCH_ANIM_STATE_START;
 308              		.loc 1 251 13 is_stmt 1 view .LVU88
 251:lvgl/src/widgets/lv_switch.c ****             anim_end   = chk ? LV_SWITCH_ANIM_STATE_END : LV_SWITCH_ANIM_STATE_START;
 309              		.loc 1 251 59 is_stmt 0 view .LVU89
 310 006c 20B1     		cbz	r0, .L12
 311 006e 0026     		movs	r6, #0
 312              	.L10:
 313              	.LVL32:
 252:lvgl/src/widgets/lv_switch.c ****         }
 314              		.loc 1 252 13 is_stmt 1 discriminator 4 view .LVU90
 252:lvgl/src/widgets/lv_switch.c ****         }
 315              		.loc 1 252 57 is_stmt 0 discriminator 4 view .LVU91
 316 0070 28B1     		cbz	r0, .L13
 252:lvgl/src/widgets/lv_switch.c ****         }
 317              		.loc 1 252 57 view .LVU92
 318 0072 4FF48078 		mov	r8, #256
 319 0076 DCE7     		b	.L11
 320              	.LVL33:
 321              	.L12:
 251:lvgl/src/widgets/lv_switch.c ****             anim_end   = chk ? LV_SWITCH_ANIM_STATE_END : LV_SWITCH_ANIM_STATE_START;
 322              		.loc 1 251 59 view .LVU93
 323 0078 4FF48076 		mov	r6, #256
 324 007c F8E7     		b	.L10
 325              	.LVL34:
 326              	.L13:
 252:lvgl/src/widgets/lv_switch.c ****         }
 327              		.loc 1 252 57 view .LVU94
 328 007e 4FF00008 		mov	r8, #0
 329 0082 D6E7     		b	.L11
 330              	.L14:
 257:lvgl/src/widgets/lv_switch.c ****         }
 331              		.loc 1 257 57 view .LVU95
 332 0084 4FF00008 		mov	r8, #0
 333 0088 D3E7     		b	.L11
 334              	.L19:
 335 008a 00BF     		.align	2
 336              	.L18:
 337 008c 00000000 		.word	lv_switch_anim_exec_cb
 338 0090 00000000 		.word	lv_switch_anim_ready
 339              	.LBE60:
 340              		.cfi_endproc
ARM GAS  C:\Users\OSD\AppData\Local\Temp\cclSIqWP.s 			page 26


 341              	.LFE174:
 343              		.section	.text.draw_main,"ax",%progbits
 344              		.align	1
 345              		.syntax unified
 346              		.thumb
 347              		.thumb_func
 349              	draw_main:
 350              	.LVL35:
 351              	.LFB171:
 147:lvgl/src/widgets/lv_switch.c ****     lv_obj_t * obj = lv_event_get_target(e);
 352              		.loc 1 147 1 is_stmt 1 view -0
 353              		.cfi_startproc
 354              		@ args = 0, pretend = 0, frame = 176
 355              		@ frame_needed = 0, uses_anonymous_args = 0
 147:lvgl/src/widgets/lv_switch.c ****     lv_obj_t * obj = lv_event_get_target(e);
 356              		.loc 1 147 1 is_stmt 0 view .LVU97
 357 0000 2DE9F041 		push	{r4, r5, r6, r7, r8, lr}
 358              		.cfi_def_cfa_offset 24
 359              		.cfi_offset 4, -24
 360              		.cfi_offset 5, -20
 361              		.cfi_offset 6, -16
 362              		.cfi_offset 7, -12
 363              		.cfi_offset 8, -8
 364              		.cfi_offset 14, -4
 365 0004 ACB0     		sub	sp, sp, #176
 366              		.cfi_def_cfa_offset 200
 367 0006 0546     		mov	r5, r0
 148:lvgl/src/widgets/lv_switch.c ****     lv_switch_t * sw = (lv_switch_t *)obj;
 368              		.loc 1 148 5 is_stmt 1 view .LVU98
 148:lvgl/src/widgets/lv_switch.c ****     lv_switch_t * sw = (lv_switch_t *)obj;
 369              		.loc 1 148 22 is_stmt 0 view .LVU99
 370 0008 FFF7FEFF 		bl	lv_event_get_target
 371              	.LVL36:
 148:lvgl/src/widgets/lv_switch.c ****     lv_switch_t * sw = (lv_switch_t *)obj;
 372              		.loc 1 148 22 view .LVU100
 373 000c 0446     		mov	r4, r0
 374              	.LVL37:
 149:lvgl/src/widgets/lv_switch.c **** 
 375              		.loc 1 149 5 is_stmt 1 view .LVU101
 151:lvgl/src/widgets/lv_switch.c **** 
 376              		.loc 1 151 5 view .LVU102
 151:lvgl/src/widgets/lv_switch.c **** 
 377              		.loc 1 151 32 is_stmt 0 view .LVU103
 378 000e 2846     		mov	r0, r5
 379              	.LVL38:
 151:lvgl/src/widgets/lv_switch.c **** 
 380              		.loc 1 151 32 view .LVU104
 381 0010 FFF7FEFF 		bl	lv_event_get_draw_ctx
 382              	.LVL39:
 383 0014 0646     		mov	r6, r0
 384              	.LVL40:
 154:lvgl/src/widgets/lv_switch.c ****     lv_coord_t bg_right = lv_obj_get_style_pad_right(obj,   LV_PART_MAIN);
 385              		.loc 1 154 5 is_stmt 1 view .LVU105
 386              	.LBB61:
 387              	.LBI61:
 115:lvgl/src/widgets/../core/lv_obj_style_gen.h **** {
 388              		.loc 2 115 26 view .LVU106
ARM GAS  C:\Users\OSD\AppData\Local\Temp\cclSIqWP.s 			page 27


 389              	.LBB62:
 117:lvgl/src/widgets/../core/lv_obj_style_gen.h ****     return (lv_coord_t)v.num;
 390              		.loc 2 117 5 view .LVU107
 117:lvgl/src/widgets/../core/lv_obj_style_gen.h ****     return (lv_coord_t)v.num;
 391              		.loc 2 117 26 is_stmt 0 view .LVU108
 392 0016 1222     		movs	r2, #18
 393 0018 0021     		movs	r1, #0
 394 001a 2046     		mov	r0, r4
 395              	.LVL41:
 117:lvgl/src/widgets/../core/lv_obj_style_gen.h ****     return (lv_coord_t)v.num;
 396              		.loc 2 117 26 view .LVU109
 397 001c FFF7FEFF 		bl	lv_obj_get_style_prop
 398              	.LVL42:
 399 0020 8046     		mov	r8, r0
 400              	.LVL43:
 118:lvgl/src/widgets/../core/lv_obj_style_gen.h **** }
 401              		.loc 2 118 5 is_stmt 1 view .LVU110
 118:lvgl/src/widgets/../core/lv_obj_style_gen.h **** }
 402              		.loc 2 118 5 is_stmt 0 view .LVU111
 403              	.LBE62:
 404              	.LBE61:
 155:lvgl/src/widgets/lv_switch.c ****     lv_coord_t bg_top = lv_obj_get_style_pad_top(obj,       LV_PART_MAIN);
 405              		.loc 1 155 5 is_stmt 1 view .LVU112
 406              	.LBB63:
 407              	.LBI63:
 121:lvgl/src/widgets/../core/lv_obj_style_gen.h **** {
 408              		.loc 2 121 26 view .LVU113
 409              	.LBB64:
 123:lvgl/src/widgets/../core/lv_obj_style_gen.h ****     return (lv_coord_t)v.num;
 410              		.loc 2 123 5 view .LVU114
 123:lvgl/src/widgets/../core/lv_obj_style_gen.h ****     return (lv_coord_t)v.num;
 411              		.loc 2 123 26 is_stmt 0 view .LVU115
 412 0022 1322     		movs	r2, #19
 413 0024 0021     		movs	r1, #0
 414 0026 2046     		mov	r0, r4
 415 0028 FFF7FEFF 		bl	lv_obj_get_style_prop
 416              	.LVL44:
 417 002c 0746     		mov	r7, r0
 418              	.LVL45:
 124:lvgl/src/widgets/../core/lv_obj_style_gen.h **** }
 419              		.loc 2 124 5 is_stmt 1 view .LVU116
 124:lvgl/src/widgets/../core/lv_obj_style_gen.h **** }
 420              		.loc 2 124 5 is_stmt 0 view .LVU117
 421              	.LBE64:
 422              	.LBE63:
 156:lvgl/src/widgets/lv_switch.c ****     lv_coord_t bg_bottom = lv_obj_get_style_pad_bottom(obj, LV_PART_MAIN);
 423              		.loc 1 156 5 is_stmt 1 view .LVU118
 424              	.LBB65:
 425              	.LBI65:
 103:lvgl/src/widgets/../core/lv_obj_style_gen.h **** {
 426              		.loc 2 103 26 view .LVU119
 427              	.LBB66:
 105:lvgl/src/widgets/../core/lv_obj_style_gen.h ****     return (lv_coord_t)v.num;
 428              		.loc 2 105 5 view .LVU120
 105:lvgl/src/widgets/../core/lv_obj_style_gen.h ****     return (lv_coord_t)v.num;
 429              		.loc 2 105 26 is_stmt 0 view .LVU121
 430 002e 1022     		movs	r2, #16
ARM GAS  C:\Users\OSD\AppData\Local\Temp\cclSIqWP.s 			page 28


 431 0030 0021     		movs	r1, #0
 432 0032 2046     		mov	r0, r4
 433 0034 FFF7FEFF 		bl	lv_obj_get_style_prop
 434              	.LVL46:
 435 0038 0546     		mov	r5, r0
 436              	.LVL47:
 106:lvgl/src/widgets/../core/lv_obj_style_gen.h **** }
 437              		.loc 2 106 5 is_stmt 1 view .LVU122
 106:lvgl/src/widgets/../core/lv_obj_style_gen.h **** }
 438              		.loc 2 106 5 is_stmt 0 view .LVU123
 439              	.LBE66:
 440              	.LBE65:
 157:lvgl/src/widgets/lv_switch.c **** 
 441              		.loc 1 157 5 is_stmt 1 view .LVU124
 442              	.LBB67:
 443              	.LBI67:
 109:lvgl/src/widgets/../core/lv_obj_style_gen.h **** {
 444              		.loc 2 109 26 view .LVU125
 445              	.LBB68:
 111:lvgl/src/widgets/../core/lv_obj_style_gen.h ****     return (lv_coord_t)v.num;
 446              		.loc 2 111 5 view .LVU126
 111:lvgl/src/widgets/../core/lv_obj_style_gen.h ****     return (lv_coord_t)v.num;
 447              		.loc 2 111 26 is_stmt 0 view .LVU127
 448 003a 1122     		movs	r2, #17
 449 003c 0021     		movs	r1, #0
 450 003e 2046     		mov	r0, r4
 451 0040 FFF7FEFF 		bl	lv_obj_get_style_prop
 452              	.LVL48:
 112:lvgl/src/widgets/../core/lv_obj_style_gen.h **** }
 453              		.loc 2 112 5 is_stmt 1 view .LVU128
 112:lvgl/src/widgets/../core/lv_obj_style_gen.h **** }
 454              		.loc 2 112 5 is_stmt 0 view .LVU129
 455              	.LBE68:
 456              	.LBE67:
 161:lvgl/src/widgets/lv_switch.c ****     lv_area_copy(&indic_area, &obj->coords);
 457              		.loc 1 161 5 is_stmt 1 view .LVU130
 162:lvgl/src/widgets/lv_switch.c ****     indic_area.x1 += bg_left;
 458              		.loc 1 162 5 view .LVU131
 459              	.LBB69:
 460              	.LBI69:
 461              		.file 4 "d:\\kzc\\stm32\\h743ii_lcd\\lvgl\\src\\misc\\lv_area.h"
   1:d:\kzc\stm32\h743ii_lcd\lvgl\src\misc\lv_area.h **** /**
   2:d:\kzc\stm32\h743ii_lcd\lvgl\src\misc\lv_area.h ****  * @file lv_area.h
   3:d:\kzc\stm32\h743ii_lcd\lvgl\src\misc\lv_area.h ****  *
   4:d:\kzc\stm32\h743ii_lcd\lvgl\src\misc\lv_area.h ****  */
   5:d:\kzc\stm32\h743ii_lcd\lvgl\src\misc\lv_area.h **** 
   6:d:\kzc\stm32\h743ii_lcd\lvgl\src\misc\lv_area.h **** #ifndef LV_AREA_H
   7:d:\kzc\stm32\h743ii_lcd\lvgl\src\misc\lv_area.h **** #define LV_AREA_H
   8:d:\kzc\stm32\h743ii_lcd\lvgl\src\misc\lv_area.h **** 
   9:d:\kzc\stm32\h743ii_lcd\lvgl\src\misc\lv_area.h **** #ifdef __cplusplus
  10:d:\kzc\stm32\h743ii_lcd\lvgl\src\misc\lv_area.h **** extern "C" {
  11:d:\kzc\stm32\h743ii_lcd\lvgl\src\misc\lv_area.h **** #endif
  12:d:\kzc\stm32\h743ii_lcd\lvgl\src\misc\lv_area.h **** 
  13:d:\kzc\stm32\h743ii_lcd\lvgl\src\misc\lv_area.h **** /*********************
  14:d:\kzc\stm32\h743ii_lcd\lvgl\src\misc\lv_area.h ****  *      INCLUDES
  15:d:\kzc\stm32\h743ii_lcd\lvgl\src\misc\lv_area.h ****  *********************/
  16:d:\kzc\stm32\h743ii_lcd\lvgl\src\misc\lv_area.h **** #include "../lv_conf_internal.h"
ARM GAS  C:\Users\OSD\AppData\Local\Temp\cclSIqWP.s 			page 29


  17:d:\kzc\stm32\h743ii_lcd\lvgl\src\misc\lv_area.h **** #include <stdbool.h>
  18:d:\kzc\stm32\h743ii_lcd\lvgl\src\misc\lv_area.h **** #include <stdint.h>
  19:d:\kzc\stm32\h743ii_lcd\lvgl\src\misc\lv_area.h **** 
  20:d:\kzc\stm32\h743ii_lcd\lvgl\src\misc\lv_area.h **** /*********************
  21:d:\kzc\stm32\h743ii_lcd\lvgl\src\misc\lv_area.h ****  *      DEFINES
  22:d:\kzc\stm32\h743ii_lcd\lvgl\src\misc\lv_area.h ****  *********************/
  23:d:\kzc\stm32\h743ii_lcd\lvgl\src\misc\lv_area.h **** 
  24:d:\kzc\stm32\h743ii_lcd\lvgl\src\misc\lv_area.h **** #if LV_USE_LARGE_COORD
  25:d:\kzc\stm32\h743ii_lcd\lvgl\src\misc\lv_area.h **** typedef int32_t lv_coord_t;
  26:d:\kzc\stm32\h743ii_lcd\lvgl\src\misc\lv_area.h **** #else
  27:d:\kzc\stm32\h743ii_lcd\lvgl\src\misc\lv_area.h **** typedef int16_t lv_coord_t;
  28:d:\kzc\stm32\h743ii_lcd\lvgl\src\misc\lv_area.h **** #endif
  29:d:\kzc\stm32\h743ii_lcd\lvgl\src\misc\lv_area.h **** 
  30:d:\kzc\stm32\h743ii_lcd\lvgl\src\misc\lv_area.h **** /**********************
  31:d:\kzc\stm32\h743ii_lcd\lvgl\src\misc\lv_area.h ****  *      TYPEDEFS
  32:d:\kzc\stm32\h743ii_lcd\lvgl\src\misc\lv_area.h ****  **********************/
  33:d:\kzc\stm32\h743ii_lcd\lvgl\src\misc\lv_area.h **** 
  34:d:\kzc\stm32\h743ii_lcd\lvgl\src\misc\lv_area.h **** /**
  35:d:\kzc\stm32\h743ii_lcd\lvgl\src\misc\lv_area.h ****  * Represents a point on the screen.
  36:d:\kzc\stm32\h743ii_lcd\lvgl\src\misc\lv_area.h ****  */
  37:d:\kzc\stm32\h743ii_lcd\lvgl\src\misc\lv_area.h **** typedef struct {
  38:d:\kzc\stm32\h743ii_lcd\lvgl\src\misc\lv_area.h ****     lv_coord_t x;
  39:d:\kzc\stm32\h743ii_lcd\lvgl\src\misc\lv_area.h ****     lv_coord_t y;
  40:d:\kzc\stm32\h743ii_lcd\lvgl\src\misc\lv_area.h **** } lv_point_t;
  41:d:\kzc\stm32\h743ii_lcd\lvgl\src\misc\lv_area.h **** 
  42:d:\kzc\stm32\h743ii_lcd\lvgl\src\misc\lv_area.h **** /** Represents an area of the screen.*/
  43:d:\kzc\stm32\h743ii_lcd\lvgl\src\misc\lv_area.h **** typedef struct {
  44:d:\kzc\stm32\h743ii_lcd\lvgl\src\misc\lv_area.h ****     lv_coord_t x1;
  45:d:\kzc\stm32\h743ii_lcd\lvgl\src\misc\lv_area.h ****     lv_coord_t y1;
  46:d:\kzc\stm32\h743ii_lcd\lvgl\src\misc\lv_area.h ****     lv_coord_t x2;
  47:d:\kzc\stm32\h743ii_lcd\lvgl\src\misc\lv_area.h ****     lv_coord_t y2;
  48:d:\kzc\stm32\h743ii_lcd\lvgl\src\misc\lv_area.h **** } lv_area_t;
  49:d:\kzc\stm32\h743ii_lcd\lvgl\src\misc\lv_area.h **** 
  50:d:\kzc\stm32\h743ii_lcd\lvgl\src\misc\lv_area.h **** /** Alignments*/
  51:d:\kzc\stm32\h743ii_lcd\lvgl\src\misc\lv_area.h **** enum {
  52:d:\kzc\stm32\h743ii_lcd\lvgl\src\misc\lv_area.h ****     LV_ALIGN_DEFAULT = 0,
  53:d:\kzc\stm32\h743ii_lcd\lvgl\src\misc\lv_area.h ****     LV_ALIGN_TOP_LEFT,
  54:d:\kzc\stm32\h743ii_lcd\lvgl\src\misc\lv_area.h ****     LV_ALIGN_TOP_MID,
  55:d:\kzc\stm32\h743ii_lcd\lvgl\src\misc\lv_area.h ****     LV_ALIGN_TOP_RIGHT,
  56:d:\kzc\stm32\h743ii_lcd\lvgl\src\misc\lv_area.h ****     LV_ALIGN_BOTTOM_LEFT,
  57:d:\kzc\stm32\h743ii_lcd\lvgl\src\misc\lv_area.h ****     LV_ALIGN_BOTTOM_MID,
  58:d:\kzc\stm32\h743ii_lcd\lvgl\src\misc\lv_area.h ****     LV_ALIGN_BOTTOM_RIGHT,
  59:d:\kzc\stm32\h743ii_lcd\lvgl\src\misc\lv_area.h ****     LV_ALIGN_LEFT_MID,
  60:d:\kzc\stm32\h743ii_lcd\lvgl\src\misc\lv_area.h ****     LV_ALIGN_RIGHT_MID,
  61:d:\kzc\stm32\h743ii_lcd\lvgl\src\misc\lv_area.h ****     LV_ALIGN_CENTER,
  62:d:\kzc\stm32\h743ii_lcd\lvgl\src\misc\lv_area.h **** 
  63:d:\kzc\stm32\h743ii_lcd\lvgl\src\misc\lv_area.h ****     LV_ALIGN_OUT_TOP_LEFT,
  64:d:\kzc\stm32\h743ii_lcd\lvgl\src\misc\lv_area.h ****     LV_ALIGN_OUT_TOP_MID,
  65:d:\kzc\stm32\h743ii_lcd\lvgl\src\misc\lv_area.h ****     LV_ALIGN_OUT_TOP_RIGHT,
  66:d:\kzc\stm32\h743ii_lcd\lvgl\src\misc\lv_area.h ****     LV_ALIGN_OUT_BOTTOM_LEFT,
  67:d:\kzc\stm32\h743ii_lcd\lvgl\src\misc\lv_area.h ****     LV_ALIGN_OUT_BOTTOM_MID,
  68:d:\kzc\stm32\h743ii_lcd\lvgl\src\misc\lv_area.h ****     LV_ALIGN_OUT_BOTTOM_RIGHT,
  69:d:\kzc\stm32\h743ii_lcd\lvgl\src\misc\lv_area.h ****     LV_ALIGN_OUT_LEFT_TOP,
  70:d:\kzc\stm32\h743ii_lcd\lvgl\src\misc\lv_area.h ****     LV_ALIGN_OUT_LEFT_MID,
  71:d:\kzc\stm32\h743ii_lcd\lvgl\src\misc\lv_area.h ****     LV_ALIGN_OUT_LEFT_BOTTOM,
  72:d:\kzc\stm32\h743ii_lcd\lvgl\src\misc\lv_area.h ****     LV_ALIGN_OUT_RIGHT_TOP,
  73:d:\kzc\stm32\h743ii_lcd\lvgl\src\misc\lv_area.h ****     LV_ALIGN_OUT_RIGHT_MID,
ARM GAS  C:\Users\OSD\AppData\Local\Temp\cclSIqWP.s 			page 30


  74:d:\kzc\stm32\h743ii_lcd\lvgl\src\misc\lv_area.h ****     LV_ALIGN_OUT_RIGHT_BOTTOM,
  75:d:\kzc\stm32\h743ii_lcd\lvgl\src\misc\lv_area.h **** };
  76:d:\kzc\stm32\h743ii_lcd\lvgl\src\misc\lv_area.h **** typedef uint8_t lv_align_t;
  77:d:\kzc\stm32\h743ii_lcd\lvgl\src\misc\lv_area.h **** 
  78:d:\kzc\stm32\h743ii_lcd\lvgl\src\misc\lv_area.h **** enum {
  79:d:\kzc\stm32\h743ii_lcd\lvgl\src\misc\lv_area.h ****     LV_DIR_NONE     = 0x00,
  80:d:\kzc\stm32\h743ii_lcd\lvgl\src\misc\lv_area.h ****     LV_DIR_LEFT     = (1 << 0),
  81:d:\kzc\stm32\h743ii_lcd\lvgl\src\misc\lv_area.h ****     LV_DIR_RIGHT    = (1 << 1),
  82:d:\kzc\stm32\h743ii_lcd\lvgl\src\misc\lv_area.h ****     LV_DIR_TOP      = (1 << 2),
  83:d:\kzc\stm32\h743ii_lcd\lvgl\src\misc\lv_area.h ****     LV_DIR_BOTTOM   = (1 << 3),
  84:d:\kzc\stm32\h743ii_lcd\lvgl\src\misc\lv_area.h ****     LV_DIR_HOR      = LV_DIR_LEFT | LV_DIR_RIGHT,
  85:d:\kzc\stm32\h743ii_lcd\lvgl\src\misc\lv_area.h ****     LV_DIR_VER      = LV_DIR_TOP | LV_DIR_BOTTOM,
  86:d:\kzc\stm32\h743ii_lcd\lvgl\src\misc\lv_area.h ****     LV_DIR_ALL      = LV_DIR_HOR | LV_DIR_VER,
  87:d:\kzc\stm32\h743ii_lcd\lvgl\src\misc\lv_area.h **** };
  88:d:\kzc\stm32\h743ii_lcd\lvgl\src\misc\lv_area.h **** 
  89:d:\kzc\stm32\h743ii_lcd\lvgl\src\misc\lv_area.h **** typedef uint8_t lv_dir_t;
  90:d:\kzc\stm32\h743ii_lcd\lvgl\src\misc\lv_area.h **** 
  91:d:\kzc\stm32\h743ii_lcd\lvgl\src\misc\lv_area.h **** /**********************
  92:d:\kzc\stm32\h743ii_lcd\lvgl\src\misc\lv_area.h ****  * GLOBAL PROTOTYPES
  93:d:\kzc\stm32\h743ii_lcd\lvgl\src\misc\lv_area.h ****  **********************/
  94:d:\kzc\stm32\h743ii_lcd\lvgl\src\misc\lv_area.h **** 
  95:d:\kzc\stm32\h743ii_lcd\lvgl\src\misc\lv_area.h **** /**
  96:d:\kzc\stm32\h743ii_lcd\lvgl\src\misc\lv_area.h ****  * Initialize an area
  97:d:\kzc\stm32\h743ii_lcd\lvgl\src\misc\lv_area.h ****  * @param area_p pointer to an area
  98:d:\kzc\stm32\h743ii_lcd\lvgl\src\misc\lv_area.h ****  * @param x1 left coordinate of the area
  99:d:\kzc\stm32\h743ii_lcd\lvgl\src\misc\lv_area.h ****  * @param y1 top coordinate of the area
 100:d:\kzc\stm32\h743ii_lcd\lvgl\src\misc\lv_area.h ****  * @param x2 right coordinate of the area
 101:d:\kzc\stm32\h743ii_lcd\lvgl\src\misc\lv_area.h ****  * @param y2 bottom coordinate of the area
 102:d:\kzc\stm32\h743ii_lcd\lvgl\src\misc\lv_area.h ****  */
 103:d:\kzc\stm32\h743ii_lcd\lvgl\src\misc\lv_area.h **** void lv_area_set(lv_area_t * area_p, lv_coord_t x1, lv_coord_t y1, lv_coord_t x2, lv_coord_t y2);
 104:d:\kzc\stm32\h743ii_lcd\lvgl\src\misc\lv_area.h **** 
 105:d:\kzc\stm32\h743ii_lcd\lvgl\src\misc\lv_area.h **** /**
 106:d:\kzc\stm32\h743ii_lcd\lvgl\src\misc\lv_area.h ****  * Copy an area
 107:d:\kzc\stm32\h743ii_lcd\lvgl\src\misc\lv_area.h ****  * @param dest pointer to the destination area
 108:d:\kzc\stm32\h743ii_lcd\lvgl\src\misc\lv_area.h ****  * @param src pointer to the source area
 109:d:\kzc\stm32\h743ii_lcd\lvgl\src\misc\lv_area.h ****  */
 110:d:\kzc\stm32\h743ii_lcd\lvgl\src\misc\lv_area.h **** inline static void lv_area_copy(lv_area_t * dest, const lv_area_t * src)
 462              		.loc 4 110 20 view .LVU132
 463              	.LBB70:
 111:d:\kzc\stm32\h743ii_lcd\lvgl\src\misc\lv_area.h **** {
 112:d:\kzc\stm32\h743ii_lcd\lvgl\src\misc\lv_area.h ****     dest->x1 = src->x1;
 464              		.loc 4 112 5 view .LVU133
 465              		.loc 4 112 19 is_stmt 0 view .LVU134
 466 0044 B4F914C0 		ldrsh	ip, [r4, #20]
 467              		.loc 4 112 14 view .LVU135
 468 0048 ADF8A8C0 		strh	ip, [sp, #168]	@ movhi
 113:d:\kzc\stm32\h743ii_lcd\lvgl\src\misc\lv_area.h ****     dest->y1 = src->y1;
 469              		.loc 4 113 5 is_stmt 1 view .LVU136
 470              		.loc 4 113 19 is_stmt 0 view .LVU137
 471 004c B4F91620 		ldrsh	r2, [r4, #22]
 472              		.loc 4 113 14 view .LVU138
 473 0050 ADF8AA20 		strh	r2, [sp, #170]	@ movhi
 114:d:\kzc\stm32\h743ii_lcd\lvgl\src\misc\lv_area.h ****     dest->x2 = src->x2;
 474              		.loc 4 114 5 is_stmt 1 view .LVU139
 475              		.loc 4 114 19 is_stmt 0 view .LVU140
 476 0054 B4F91810 		ldrsh	r1, [r4, #24]
 477              		.loc 4 114 14 view .LVU141
ARM GAS  C:\Users\OSD\AppData\Local\Temp\cclSIqWP.s 			page 31


 478 0058 ADF8AC10 		strh	r1, [sp, #172]	@ movhi
 115:d:\kzc\stm32\h743ii_lcd\lvgl\src\misc\lv_area.h ****     dest->y2 = src->y2;
 479              		.loc 4 115 5 is_stmt 1 view .LVU142
 480              		.loc 4 115 19 is_stmt 0 view .LVU143
 481 005c B4F91A30 		ldrsh	r3, [r4, #26]
 482              		.loc 4 115 14 view .LVU144
 483 0060 ADF8AE30 		strh	r3, [sp, #174]	@ movhi
 484              	.LVL49:
 485              		.loc 4 115 14 view .LVU145
 486              	.LBE70:
 487              	.LBE69:
 163:lvgl/src/widgets/lv_switch.c ****     indic_area.x2 -= bg_right;
 488              		.loc 1 163 5 is_stmt 1 view .LVU146
 163:lvgl/src/widgets/lv_switch.c ****     indic_area.x2 -= bg_right;
 489              		.loc 1 163 19 is_stmt 0 view .LVU147
 490 0064 C444     		add	ip, ip, r8
 491 0066 ADF8A8C0 		strh	ip, [sp, #168]	@ movhi
 164:lvgl/src/widgets/lv_switch.c ****     indic_area.y1 += bg_top;
 492              		.loc 1 164 5 is_stmt 1 view .LVU148
 164:lvgl/src/widgets/lv_switch.c ****     indic_area.y1 += bg_top;
 493              		.loc 1 164 19 is_stmt 0 view .LVU149
 494 006a C91B     		subs	r1, r1, r7
 495 006c ADF8AC10 		strh	r1, [sp, #172]	@ movhi
 165:lvgl/src/widgets/lv_switch.c ****     indic_area.y2 -= bg_bottom;
 496              		.loc 1 165 5 is_stmt 1 view .LVU150
 165:lvgl/src/widgets/lv_switch.c ****     indic_area.y2 -= bg_bottom;
 497              		.loc 1 165 19 is_stmt 0 view .LVU151
 498 0070 2A44     		add	r2, r2, r5
 499 0072 ADF8AA20 		strh	r2, [sp, #170]	@ movhi
 166:lvgl/src/widgets/lv_switch.c **** 
 500              		.loc 1 166 5 is_stmt 1 view .LVU152
 166:lvgl/src/widgets/lv_switch.c **** 
 501              		.loc 1 166 19 is_stmt 0 view .LVU153
 502 0076 1B1A     		subs	r3, r3, r0
 503 0078 ADF8AE30 		strh	r3, [sp, #174]	@ movhi
 168:lvgl/src/widgets/lv_switch.c ****     lv_draw_rect_dsc_init(&draw_indic_dsc);
 504              		.loc 1 168 5 is_stmt 1 view .LVU154
 169:lvgl/src/widgets/lv_switch.c ****     lv_obj_init_draw_rect_dsc(obj, LV_PART_INDICATOR, &draw_indic_dsc);
 505              		.loc 1 169 5 view .LVU155
 506 007c 16A8     		add	r0, sp, #88
 507              	.LVL50:
 169:lvgl/src/widgets/lv_switch.c ****     lv_obj_init_draw_rect_dsc(obj, LV_PART_INDICATOR, &draw_indic_dsc);
 508              		.loc 1 169 5 is_stmt 0 view .LVU156
 509 007e FFF7FEFF 		bl	lv_draw_rect_dsc_init
 510              	.LVL51:
 170:lvgl/src/widgets/lv_switch.c ****     lv_draw_rect(draw_ctx, &draw_indic_dsc, &indic_area);
 511              		.loc 1 170 5 is_stmt 1 view .LVU157
 512 0082 16AA     		add	r2, sp, #88
 513 0084 4FF40031 		mov	r1, #131072
 514 0088 2046     		mov	r0, r4
 515 008a FFF7FEFF 		bl	lv_obj_init_draw_rect_dsc
 516              	.LVL52:
 171:lvgl/src/widgets/lv_switch.c **** 
 517              		.loc 1 171 5 view .LVU158
 518 008e 2AAA     		add	r2, sp, #168
 519 0090 16A9     		add	r1, sp, #88
 520 0092 3046     		mov	r0, r6
ARM GAS  C:\Users\OSD\AppData\Local\Temp\cclSIqWP.s 			page 32


 521 0094 FFF7FEFF 		bl	lv_draw_rect
 522              	.LVL53:
 174:lvgl/src/widgets/lv_switch.c ****     lv_coord_t knob_size = lv_obj_get_height(obj);
 523              		.loc 1 174 5 view .LVU159
 175:lvgl/src/widgets/lv_switch.c ****     lv_coord_t anim_length = lv_area_get_width(&obj->coords) - knob_size;
 524              		.loc 1 175 5 view .LVU160
 175:lvgl/src/widgets/lv_switch.c ****     lv_coord_t anim_length = lv_area_get_width(&obj->coords) - knob_size;
 525              		.loc 1 175 28 is_stmt 0 view .LVU161
 526 0098 2046     		mov	r0, r4
 527 009a FFF7FEFF 		bl	lv_obj_get_height
 528              	.LVL54:
 176:lvgl/src/widgets/lv_switch.c **** 
 529              		.loc 1 176 5 is_stmt 1 view .LVU162
 530              	.LBB71:
 531              	.LBI71:
 116:d:\kzc\stm32\h743ii_lcd\lvgl\src\misc\lv_area.h **** }
 117:d:\kzc\stm32\h743ii_lcd\lvgl\src\misc\lv_area.h **** 
 118:d:\kzc\stm32\h743ii_lcd\lvgl\src\misc\lv_area.h **** /**
 119:d:\kzc\stm32\h743ii_lcd\lvgl\src\misc\lv_area.h ****  * Get the width of an area
 120:d:\kzc\stm32\h743ii_lcd\lvgl\src\misc\lv_area.h ****  * @param area_p pointer to an area
 121:d:\kzc\stm32\h743ii_lcd\lvgl\src\misc\lv_area.h ****  * @return the width of the area (if x1 == x2 -> width = 1)
 122:d:\kzc\stm32\h743ii_lcd\lvgl\src\misc\lv_area.h ****  */
 123:d:\kzc\stm32\h743ii_lcd\lvgl\src\misc\lv_area.h **** static inline lv_coord_t lv_area_get_width(const lv_area_t * area_p)
 532              		.loc 4 123 26 view .LVU163
 533              	.LBB72:
 124:d:\kzc\stm32\h743ii_lcd\lvgl\src\misc\lv_area.h **** {
 125:d:\kzc\stm32\h743ii_lcd\lvgl\src\misc\lv_area.h ****     return (lv_coord_t)(area_p->x2 - area_p->x1 + 1);
 534              		.loc 4 125 5 view .LVU164
 535              		.loc 4 125 31 is_stmt 0 view .LVU165
 536 009e 258B     		ldrh	r5, [r4, #24]
 537              	.LVL55:
 538              		.loc 4 125 44 view .LVU166
 539 00a0 A38A     		ldrh	r3, [r4, #20]
 540              		.loc 4 125 36 view .LVU167
 541 00a2 ED1A     		subs	r5, r5, r3
 542 00a4 ADB2     		uxth	r5, r5
 543              		.loc 4 125 49 view .LVU168
 544 00a6 0135     		adds	r5, r5, #1
 545 00a8 ADB2     		uxth	r5, r5
 546              	.LVL56:
 547              		.loc 4 125 49 view .LVU169
 548              	.LBE72:
 549              	.LBE71:
 176:lvgl/src/widgets/lv_switch.c **** 
 550              		.loc 1 176 62 view .LVU170
 551 00aa 87B2     		uxth	r7, r0
 552              	.LVL57:
 176:lvgl/src/widgets/lv_switch.c **** 
 553              		.loc 1 176 62 view .LVU171
 554 00ac ED1B     		subs	r5, r5, r7
 555 00ae 1FFA85F8 		uxth	r8, r5
 556              	.LVL58:
 176:lvgl/src/widgets/lv_switch.c **** 
 557              		.loc 1 176 16 view .LVU172
 558 00b2 2DB2     		sxth	r5, r5
 559              	.LVL59:
 178:lvgl/src/widgets/lv_switch.c ****         /* Use the animation's coordinate */
ARM GAS  C:\Users\OSD\AppData\Local\Temp\cclSIqWP.s 			page 33


 560              		.loc 1 178 5 is_stmt 1 view .LVU173
 178:lvgl/src/widgets/lv_switch.c ****         /* Use the animation's coordinate */
 561              		.loc 1 178 8 is_stmt 0 view .LVU174
 562 00b4 636A     		ldr	r3, [r4, #36]
 178:lvgl/src/widgets/lv_switch.c ****         /* Use the animation's coordinate */
 563              		.loc 1 178 7 view .LVU175
 564 00b6 B3F1FF3F 		cmp	r3, #-1
 565 00ba 60D0     		beq	.L21
 180:lvgl/src/widgets/lv_switch.c ****     }
 566              		.loc 1 180 9 is_stmt 1 view .LVU176
 180:lvgl/src/widgets/lv_switch.c ****     }
 567              		.loc 1 180 37 is_stmt 0 view .LVU177
 568 00bc 03FB05F5 		mul	r5, r3, r5
 569              	.LVL60:
 180:lvgl/src/widgets/lv_switch.c ****     }
 570              		.loc 1 180 55 view .LVU178
 571 00c0 002D     		cmp	r5, #0
 572 00c2 5ADB     		blt	.L27
 573              	.L22:
 180:lvgl/src/widgets/lv_switch.c ****     }
 574              		.loc 1 180 22 view .LVU179
 575 00c4 45F30F25 		sbfx	r5, r5, #8, #16
 576              	.LVL61:
 577              	.L23:
 188:lvgl/src/widgets/lv_switch.c ****         anim_value_x = anim_length - anim_value_x;
 578              		.loc 1 188 5 is_stmt 1 view .LVU180
 579              	.LBB73:
 580              	.LBI73:
 539:lvgl/src/widgets/../core/lv_obj_style_gen.h **** }
 540:lvgl/src/widgets/../core/lv_obj_style_gen.h **** 
 541:lvgl/src/widgets/../core/lv_obj_style_gen.h **** static inline uint32_t lv_obj_get_style_anim_speed(const struct _lv_obj_t * obj, uint32_t part)
 542:lvgl/src/widgets/../core/lv_obj_style_gen.h **** {
 543:lvgl/src/widgets/../core/lv_obj_style_gen.h ****     lv_style_value_t v = lv_obj_get_style_prop(obj, part, LV_STYLE_ANIM_SPEED);
 544:lvgl/src/widgets/../core/lv_obj_style_gen.h ****     return (uint32_t)v.num;
 545:lvgl/src/widgets/../core/lv_obj_style_gen.h **** }
 546:lvgl/src/widgets/../core/lv_obj_style_gen.h **** 
 547:lvgl/src/widgets/../core/lv_obj_style_gen.h **** static inline const lv_style_transition_dsc_t * lv_obj_get_style_transition(const struct _lv_obj_t 
 548:lvgl/src/widgets/../core/lv_obj_style_gen.h **** {
 549:lvgl/src/widgets/../core/lv_obj_style_gen.h ****     lv_style_value_t v = lv_obj_get_style_prop(obj, part, LV_STYLE_TRANSITION);
 550:lvgl/src/widgets/../core/lv_obj_style_gen.h ****     return (const lv_style_transition_dsc_t *)v.ptr;
 551:lvgl/src/widgets/../core/lv_obj_style_gen.h **** }
 552:lvgl/src/widgets/../core/lv_obj_style_gen.h **** 
 553:lvgl/src/widgets/../core/lv_obj_style_gen.h **** static inline lv_blend_mode_t lv_obj_get_style_blend_mode(const struct _lv_obj_t * obj, uint32_t pa
 554:lvgl/src/widgets/../core/lv_obj_style_gen.h **** {
 555:lvgl/src/widgets/../core/lv_obj_style_gen.h ****     lv_style_value_t v = lv_obj_get_style_prop(obj, part, LV_STYLE_BLEND_MODE);
 556:lvgl/src/widgets/../core/lv_obj_style_gen.h ****     return (lv_blend_mode_t)v.num;
 557:lvgl/src/widgets/../core/lv_obj_style_gen.h **** }
 558:lvgl/src/widgets/../core/lv_obj_style_gen.h **** 
 559:lvgl/src/widgets/../core/lv_obj_style_gen.h **** static inline uint16_t lv_obj_get_style_layout(const struct _lv_obj_t * obj, uint32_t part)
 560:lvgl/src/widgets/../core/lv_obj_style_gen.h **** {
 561:lvgl/src/widgets/../core/lv_obj_style_gen.h ****     lv_style_value_t v = lv_obj_get_style_prop(obj, part, LV_STYLE_LAYOUT);
 562:lvgl/src/widgets/../core/lv_obj_style_gen.h ****     return (uint16_t)v.num;
 563:lvgl/src/widgets/../core/lv_obj_style_gen.h **** }
 564:lvgl/src/widgets/../core/lv_obj_style_gen.h **** 
 565:lvgl/src/widgets/../core/lv_obj_style_gen.h **** static inline lv_base_dir_t lv_obj_get_style_base_dir(const struct _lv_obj_t * obj, uint32_t part)
 581              		.loc 2 565 29 view .LVU181
 582              	.LBB74:
ARM GAS  C:\Users\OSD\AppData\Local\Temp\cclSIqWP.s 			page 34


 566:lvgl/src/widgets/../core/lv_obj_style_gen.h **** {
 567:lvgl/src/widgets/../core/lv_obj_style_gen.h ****     lv_style_value_t v = lv_obj_get_style_prop(obj, part, LV_STYLE_BASE_DIR);
 583              		.loc 2 567 5 view .LVU182
 584              		.loc 2 567 26 is_stmt 0 view .LVU183
 585 00c8 1622     		movs	r2, #22
 586 00ca 0021     		movs	r1, #0
 587 00cc 2046     		mov	r0, r4
 588 00ce FFF7FEFF 		bl	lv_obj_get_style_prop
 589              	.LVL62:
 568:lvgl/src/widgets/../core/lv_obj_style_gen.h ****     return (lv_base_dir_t)v.num;
 590              		.loc 2 568 5 is_stmt 1 view .LVU184
 591              		.loc 2 568 12 is_stmt 0 view .LVU185
 592 00d2 C0B2     		uxtb	r0, r0
 593              	.LVL63:
 594              		.loc 2 568 12 view .LVU186
 595              	.LBE74:
 596              	.LBE73:
 188:lvgl/src/widgets/lv_switch.c ****         anim_value_x = anim_length - anim_value_x;
 597              		.loc 1 188 7 view .LVU187
 598 00d4 0128     		cmp	r0, #1
 599 00d6 5AD0     		beq	.L28
 600              	.L24:
 192:lvgl/src/widgets/lv_switch.c ****     knob_area.x1 = obj->coords.x1 + anim_value_x;
 601              		.loc 1 192 5 is_stmt 1 view .LVU188
 193:lvgl/src/widgets/lv_switch.c ****     knob_area.x2 = knob_area.x1 + knob_size;
 602              		.loc 1 193 5 view .LVU189
 193:lvgl/src/widgets/lv_switch.c ****     knob_area.x2 = knob_area.x1 + knob_size;
 603              		.loc 1 193 31 is_stmt 0 view .LVU190
 604 00d8 A38A     		ldrh	r3, [r4, #20]
 193:lvgl/src/widgets/lv_switch.c ****     knob_area.x2 = knob_area.x1 + knob_size;
 605              		.loc 1 193 35 view .LVU191
 606 00da 1D44     		add	r5, r5, r3
 607              	.LVL64:
 193:lvgl/src/widgets/lv_switch.c ****     knob_area.x2 = knob_area.x1 + knob_size;
 608              		.loc 1 193 18 view .LVU192
 609 00dc ADF85050 		strh	r5, [sp, #80]	@ movhi
 194:lvgl/src/widgets/lv_switch.c **** 
 610              		.loc 1 194 5 is_stmt 1 view .LVU193
 194:lvgl/src/widgets/lv_switch.c **** 
 611              		.loc 1 194 33 is_stmt 0 view .LVU194
 612 00e0 17FA85F5 		uxtah	r5, r7, r5
 194:lvgl/src/widgets/lv_switch.c **** 
 613              		.loc 1 194 18 view .LVU195
 614 00e4 ADF85450 		strh	r5, [sp, #84]	@ movhi
 196:lvgl/src/widgets/lv_switch.c ****     knob_area.y2 = obj->coords.y2;
 615              		.loc 1 196 5 is_stmt 1 view .LVU196
 196:lvgl/src/widgets/lv_switch.c ****     knob_area.y2 = obj->coords.y2;
 616              		.loc 1 196 31 is_stmt 0 view .LVU197
 617 00e8 B4F91630 		ldrsh	r3, [r4, #22]
 196:lvgl/src/widgets/lv_switch.c ****     knob_area.y2 = obj->coords.y2;
 618              		.loc 1 196 18 view .LVU198
 619 00ec ADF85230 		strh	r3, [sp, #82]	@ movhi
 197:lvgl/src/widgets/lv_switch.c **** 
 620              		.loc 1 197 5 is_stmt 1 view .LVU199
 197:lvgl/src/widgets/lv_switch.c **** 
 621              		.loc 1 197 31 is_stmt 0 view .LVU200
 622 00f0 B4F91A30 		ldrsh	r3, [r4, #26]
ARM GAS  C:\Users\OSD\AppData\Local\Temp\cclSIqWP.s 			page 35


 197:lvgl/src/widgets/lv_switch.c **** 
 623              		.loc 1 197 18 view .LVU201
 624 00f4 ADF85630 		strh	r3, [sp, #86]	@ movhi
 199:lvgl/src/widgets/lv_switch.c ****     lv_coord_t knob_right = lv_obj_get_style_pad_right(obj, LV_PART_KNOB);
 625              		.loc 1 199 5 is_stmt 1 view .LVU202
 626              	.LVL65:
 627              	.LBB75:
 628              	.LBI75:
 115:lvgl/src/widgets/../core/lv_obj_style_gen.h **** {
 629              		.loc 2 115 26 view .LVU203
 630              	.LBB76:
 117:lvgl/src/widgets/../core/lv_obj_style_gen.h ****     return (lv_coord_t)v.num;
 631              		.loc 2 117 5 view .LVU204
 117:lvgl/src/widgets/../core/lv_obj_style_gen.h ****     return (lv_coord_t)v.num;
 632              		.loc 2 117 26 is_stmt 0 view .LVU205
 633 00f8 1222     		movs	r2, #18
 634 00fa 4FF44031 		mov	r1, #196608
 635 00fe 2046     		mov	r0, r4
 636 0100 FFF7FEFF 		bl	lv_obj_get_style_prop
 637              	.LVL66:
 638 0104 8046     		mov	r8, r0
 639              	.LVL67:
 118:lvgl/src/widgets/../core/lv_obj_style_gen.h **** }
 640              		.loc 2 118 5 is_stmt 1 view .LVU206
 118:lvgl/src/widgets/../core/lv_obj_style_gen.h **** }
 641              		.loc 2 118 5 is_stmt 0 view .LVU207
 642              	.LBE76:
 643              	.LBE75:
 200:lvgl/src/widgets/lv_switch.c ****     lv_coord_t knob_top = lv_obj_get_style_pad_top(obj, LV_PART_KNOB);
 644              		.loc 1 200 5 is_stmt 1 view .LVU208
 645              	.LBB77:
 646              	.LBI77:
 121:lvgl/src/widgets/../core/lv_obj_style_gen.h **** {
 647              		.loc 2 121 26 view .LVU209
 648              	.LBB78:
 123:lvgl/src/widgets/../core/lv_obj_style_gen.h ****     return (lv_coord_t)v.num;
 649              		.loc 2 123 5 view .LVU210
 123:lvgl/src/widgets/../core/lv_obj_style_gen.h ****     return (lv_coord_t)v.num;
 650              		.loc 2 123 26 is_stmt 0 view .LVU211
 651 0106 1322     		movs	r2, #19
 652 0108 4FF44031 		mov	r1, #196608
 653 010c 2046     		mov	r0, r4
 654 010e FFF7FEFF 		bl	lv_obj_get_style_prop
 655              	.LVL68:
 656 0112 0546     		mov	r5, r0
 657              	.LVL69:
 124:lvgl/src/widgets/../core/lv_obj_style_gen.h **** }
 658              		.loc 2 124 5 is_stmt 1 view .LVU212
 124:lvgl/src/widgets/../core/lv_obj_style_gen.h **** }
 659              		.loc 2 124 5 is_stmt 0 view .LVU213
 660              	.LBE78:
 661              	.LBE77:
 201:lvgl/src/widgets/lv_switch.c ****     lv_coord_t knob_bottom = lv_obj_get_style_pad_bottom(obj, LV_PART_KNOB);
 662              		.loc 1 201 5 is_stmt 1 view .LVU214
 663              	.LBB79:
 664              	.LBI79:
 103:lvgl/src/widgets/../core/lv_obj_style_gen.h **** {
ARM GAS  C:\Users\OSD\AppData\Local\Temp\cclSIqWP.s 			page 36


 665              		.loc 2 103 26 view .LVU215
 666              	.LBB80:
 105:lvgl/src/widgets/../core/lv_obj_style_gen.h ****     return (lv_coord_t)v.num;
 667              		.loc 2 105 5 view .LVU216
 105:lvgl/src/widgets/../core/lv_obj_style_gen.h ****     return (lv_coord_t)v.num;
 668              		.loc 2 105 26 is_stmt 0 view .LVU217
 669 0114 1022     		movs	r2, #16
 670 0116 4FF44031 		mov	r1, #196608
 671 011a 2046     		mov	r0, r4
 672 011c FFF7FEFF 		bl	lv_obj_get_style_prop
 673              	.LVL70:
 674 0120 0746     		mov	r7, r0
 675              	.LVL71:
 106:lvgl/src/widgets/../core/lv_obj_style_gen.h **** }
 676              		.loc 2 106 5 is_stmt 1 view .LVU218
 106:lvgl/src/widgets/../core/lv_obj_style_gen.h **** }
 677              		.loc 2 106 5 is_stmt 0 view .LVU219
 678              	.LBE80:
 679              	.LBE79:
 202:lvgl/src/widgets/lv_switch.c **** 
 680              		.loc 1 202 5 is_stmt 1 view .LVU220
 681              	.LBB81:
 682              	.LBI81:
 109:lvgl/src/widgets/../core/lv_obj_style_gen.h **** {
 683              		.loc 2 109 26 view .LVU221
 684              	.LBB82:
 111:lvgl/src/widgets/../core/lv_obj_style_gen.h ****     return (lv_coord_t)v.num;
 685              		.loc 2 111 5 view .LVU222
 111:lvgl/src/widgets/../core/lv_obj_style_gen.h ****     return (lv_coord_t)v.num;
 686              		.loc 2 111 26 is_stmt 0 view .LVU223
 687 0122 1122     		movs	r2, #17
 688 0124 4FF44031 		mov	r1, #196608
 689 0128 2046     		mov	r0, r4
 690 012a FFF7FEFF 		bl	lv_obj_get_style_prop
 691              	.LVL72:
 112:lvgl/src/widgets/../core/lv_obj_style_gen.h **** }
 692              		.loc 2 112 5 is_stmt 1 view .LVU224
 112:lvgl/src/widgets/../core/lv_obj_style_gen.h **** }
 693              		.loc 2 112 5 is_stmt 0 view .LVU225
 694              	.LBE82:
 695              	.LBE81:
 205:lvgl/src/widgets/lv_switch.c ****     knob_area.x2 += knob_right;
 696              		.loc 1 205 5 is_stmt 1 view .LVU226
 205:lvgl/src/widgets/lv_switch.c ****     knob_area.x2 += knob_right;
 697              		.loc 1 205 18 is_stmt 0 view .LVU227
 698 012e BDF85030 		ldrh	r3, [sp, #80]
 699 0132 A3EB0803 		sub	r3, r3, r8
 700 0136 ADF85030 		strh	r3, [sp, #80]	@ movhi
 206:lvgl/src/widgets/lv_switch.c ****     knob_area.y1 -= knob_top;
 701              		.loc 1 206 5 is_stmt 1 view .LVU228
 206:lvgl/src/widgets/lv_switch.c ****     knob_area.y1 -= knob_top;
 702              		.loc 1 206 18 is_stmt 0 view .LVU229
 703 013a BDF85430 		ldrh	r3, [sp, #84]
 704 013e 1D44     		add	r5, r5, r3
 705              	.LVL73:
 206:lvgl/src/widgets/lv_switch.c ****     knob_area.y1 -= knob_top;
 706              		.loc 1 206 18 view .LVU230
ARM GAS  C:\Users\OSD\AppData\Local\Temp\cclSIqWP.s 			page 37


 707 0140 ADF85450 		strh	r5, [sp, #84]	@ movhi
 207:lvgl/src/widgets/lv_switch.c ****     knob_area.y2 += knob_bottom;
 708              		.loc 1 207 5 is_stmt 1 view .LVU231
 207:lvgl/src/widgets/lv_switch.c ****     knob_area.y2 += knob_bottom;
 709              		.loc 1 207 18 is_stmt 0 view .LVU232
 710 0144 BDF85230 		ldrh	r3, [sp, #82]
 711 0148 DB1B     		subs	r3, r3, r7
 712 014a ADF85230 		strh	r3, [sp, #82]	@ movhi
 208:lvgl/src/widgets/lv_switch.c **** 
 713              		.loc 1 208 5 is_stmt 1 view .LVU233
 208:lvgl/src/widgets/lv_switch.c **** 
 714              		.loc 1 208 18 is_stmt 0 view .LVU234
 715 014e BDF85630 		ldrh	r3, [sp, #86]
 716 0152 1844     		add	r0, r0, r3
 717              	.LVL74:
 208:lvgl/src/widgets/lv_switch.c **** 
 718              		.loc 1 208 18 view .LVU235
 719 0154 ADF85600 		strh	r0, [sp, #86]	@ movhi
 210:lvgl/src/widgets/lv_switch.c ****     lv_draw_rect_dsc_init(&knob_rect_dsc);
 720              		.loc 1 210 5 is_stmt 1 view .LVU236
 211:lvgl/src/widgets/lv_switch.c ****     lv_obj_init_draw_rect_dsc(obj, LV_PART_KNOB, &knob_rect_dsc);
 721              		.loc 1 211 5 view .LVU237
 722 0158 6846     		mov	r0, sp
 723 015a FFF7FEFF 		bl	lv_draw_rect_dsc_init
 724              	.LVL75:
 212:lvgl/src/widgets/lv_switch.c **** 
 725              		.loc 1 212 5 view .LVU238
 726 015e 6A46     		mov	r2, sp
 727 0160 4FF44031 		mov	r1, #196608
 728 0164 2046     		mov	r0, r4
 729 0166 FFF7FEFF 		bl	lv_obj_init_draw_rect_dsc
 730              	.LVL76:
 214:lvgl/src/widgets/lv_switch.c **** }
 731              		.loc 1 214 5 view .LVU239
 732 016a 14AA     		add	r2, sp, #80
 733 016c 6946     		mov	r1, sp
 734 016e 3046     		mov	r0, r6
 735 0170 FFF7FEFF 		bl	lv_draw_rect
 736              	.LVL77:
 215:lvgl/src/widgets/lv_switch.c **** 
 737              		.loc 1 215 1 is_stmt 0 view .LVU240
 738 0174 2CB0     		add	sp, sp, #176
 739              		.cfi_remember_state
 740              		.cfi_def_cfa_offset 24
 741              		@ sp needed
 742 0176 BDE8F081 		pop	{r4, r5, r6, r7, r8, pc}
 743              	.LVL78:
 744              	.L27:
 745              		.cfi_restore_state
 180:lvgl/src/widgets/lv_switch.c ****     }
 746              		.loc 1 180 55 view .LVU241
 747 017a FF35     		adds	r5, r5, #255
 748 017c A2E7     		b	.L22
 749              	.LVL79:
 750              	.L21:
 751              	.LBB83:
 184:lvgl/src/widgets/lv_switch.c ****         anim_value_x = chk ? anim_length : 0;
ARM GAS  C:\Users\OSD\AppData\Local\Temp\cclSIqWP.s 			page 38


 752              		.loc 1 184 9 is_stmt 1 view .LVU242
 184:lvgl/src/widgets/lv_switch.c ****         anim_value_x = chk ? anim_length : 0;
 753              		.loc 1 184 20 is_stmt 0 view .LVU243
 754 017e 2046     		mov	r0, r4
 755              	.LVL80:
 184:lvgl/src/widgets/lv_switch.c ****         anim_value_x = chk ? anim_length : 0;
 756              		.loc 1 184 20 view .LVU244
 757 0180 FFF7FEFF 		bl	lv_obj_get_state
 758              	.LVL81:
 185:lvgl/src/widgets/lv_switch.c ****     }
 759              		.loc 1 185 9 is_stmt 1 view .LVU245
 185:lvgl/src/widgets/lv_switch.c ****     }
 760              		.loc 1 185 22 is_stmt 0 view .LVU246
 761 0184 10F0010F 		tst	r0, #1
 762 0188 9ED1     		bne	.L23
 763 018a 0025     		movs	r5, #0
 764              	.LVL82:
 185:lvgl/src/widgets/lv_switch.c ****     }
 765              		.loc 1 185 22 view .LVU247
 766 018c 9CE7     		b	.L23
 767              	.LVL83:
 768              	.L28:
 185:lvgl/src/widgets/lv_switch.c ****     }
 769              		.loc 1 185 22 view .LVU248
 770              	.LBE83:
 189:lvgl/src/widgets/lv_switch.c ****     }
 771              		.loc 1 189 9 is_stmt 1 view .LVU249
 189:lvgl/src/widgets/lv_switch.c ****     }
 772              		.loc 1 189 36 is_stmt 0 view .LVU250
 773 018e A8EB0505 		sub	r5, r8, r5
 774              	.LVL84:
 189:lvgl/src/widgets/lv_switch.c ****     }
 775              		.loc 1 189 22 view .LVU251
 776 0192 2DB2     		sxth	r5, r5
 777              	.LVL85:
 189:lvgl/src/widgets/lv_switch.c ****     }
 778              		.loc 1 189 22 view .LVU252
 779 0194 A0E7     		b	.L24
 780              		.cfi_endproc
 781              	.LFE171:
 783              		.section	.text.lv_switch_event,"ax",%progbits
 784              		.align	1
 785              		.syntax unified
 786              		.thumb
 787              		.thumb_func
 789              	lv_switch_event:
 790              	.LVL86:
 791              	.LFB170:
 110:lvgl/src/widgets/lv_switch.c ****     LV_UNUSED(class_p);
 792              		.loc 1 110 1 is_stmt 1 view -0
 793              		.cfi_startproc
 794              		@ args = 0, pretend = 0, frame = 0
 795              		@ frame_needed = 0, uses_anonymous_args = 0
 110:lvgl/src/widgets/lv_switch.c ****     LV_UNUSED(class_p);
 796              		.loc 1 110 1 is_stmt 0 view .LVU254
 797 0000 2DE9F843 		push	{r3, r4, r5, r6, r7, r8, r9, lr}
 798              		.cfi_def_cfa_offset 32
ARM GAS  C:\Users\OSD\AppData\Local\Temp\cclSIqWP.s 			page 39


 799              		.cfi_offset 3, -32
 800              		.cfi_offset 4, -28
 801              		.cfi_offset 5, -24
 802              		.cfi_offset 6, -20
 803              		.cfi_offset 7, -16
 804              		.cfi_offset 8, -12
 805              		.cfi_offset 9, -8
 806              		.cfi_offset 14, -4
 807 0004 0C46     		mov	r4, r1
 111:lvgl/src/widgets/lv_switch.c **** 
 808              		.loc 1 111 5 is_stmt 1 view .LVU255
 113:lvgl/src/widgets/lv_switch.c **** 
 809              		.loc 1 113 5 view .LVU256
 116:lvgl/src/widgets/lv_switch.c ****     if(res != LV_RES_OK) return;
 810              		.loc 1 116 5 view .LVU257
 116:lvgl/src/widgets/lv_switch.c ****     if(res != LV_RES_OK) return;
 811              		.loc 1 116 11 is_stmt 0 view .LVU258
 812 0006 3548     		ldr	r0, .L39
 813              	.LVL87:
 116:lvgl/src/widgets/lv_switch.c ****     if(res != LV_RES_OK) return;
 814              		.loc 1 116 11 view .LVU259
 815 0008 FFF7FEFF 		bl	lv_obj_event_base
 816              	.LVL88:
 117:lvgl/src/widgets/lv_switch.c **** 
 817              		.loc 1 117 5 is_stmt 1 view .LVU260
 117:lvgl/src/widgets/lv_switch.c **** 
 818              		.loc 1 117 7 is_stmt 0 view .LVU261
 819 000c 0128     		cmp	r0, #1
 820 000e 01D0     		beq	.L36
 821              	.LVL89:
 822              	.L29:
 144:lvgl/src/widgets/lv_switch.c **** 
 823              		.loc 1 144 1 view .LVU262
 824 0010 BDE8F883 		pop	{r3, r4, r5, r6, r7, r8, r9, pc}
 825              	.LVL90:
 826              	.L36:
 119:lvgl/src/widgets/lv_switch.c ****     lv_obj_t * obj = lv_event_get_target(e);
 827              		.loc 1 119 5 is_stmt 1 view .LVU263
 119:lvgl/src/widgets/lv_switch.c ****     lv_obj_t * obj = lv_event_get_target(e);
 828              		.loc 1 119 28 is_stmt 0 view .LVU264
 829 0014 2046     		mov	r0, r4
 830              	.LVL91:
 119:lvgl/src/widgets/lv_switch.c ****     lv_obj_t * obj = lv_event_get_target(e);
 831              		.loc 1 119 28 view .LVU265
 832 0016 FFF7FEFF 		bl	lv_event_get_code
 833              	.LVL92:
 834 001a 0546     		mov	r5, r0
 835              	.LVL93:
 120:lvgl/src/widgets/lv_switch.c **** 
 836              		.loc 1 120 5 is_stmt 1 view .LVU266
 120:lvgl/src/widgets/lv_switch.c **** 
 837              		.loc 1 120 22 is_stmt 0 view .LVU267
 838 001c 2046     		mov	r0, r4
 839 001e FFF7FEFF 		bl	lv_event_get_target
 840              	.LVL94:
 841 0022 0646     		mov	r6, r0
 842              	.LVL95:
ARM GAS  C:\Users\OSD\AppData\Local\Temp\cclSIqWP.s 			page 40


 122:lvgl/src/widgets/lv_switch.c ****         lv_coord_t knob_left = lv_obj_get_style_pad_left(obj,   LV_PART_KNOB);
 843              		.loc 1 122 5 is_stmt 1 view .LVU268
 122:lvgl/src/widgets/lv_switch.c ****         lv_coord_t knob_left = lv_obj_get_style_pad_left(obj,   LV_PART_KNOB);
 844              		.loc 1 122 7 is_stmt 0 view .LVU269
 845 0024 132D     		cmp	r5, #19
 846 0026 07D0     		beq	.L37
 137:lvgl/src/widgets/lv_switch.c ****         lv_switch_trigger_anim(obj);
 847              		.loc 1 137 10 is_stmt 1 view .LVU270
 137:lvgl/src/widgets/lv_switch.c ****         lv_switch_trigger_anim(obj);
 848              		.loc 1 137 12 is_stmt 0 view .LVU271
 849 0028 1C2D     		cmp	r5, #28
 850 002a 50D0     		beq	.L38
 141:lvgl/src/widgets/lv_switch.c ****         draw_main(e);
 851              		.loc 1 141 10 is_stmt 1 view .LVU272
 141:lvgl/src/widgets/lv_switch.c ****         draw_main(e);
 852              		.loc 1 141 12 is_stmt 0 view .LVU273
 853 002c 152D     		cmp	r5, #21
 854 002e EFD1     		bne	.L29
 142:lvgl/src/widgets/lv_switch.c ****     }
 855              		.loc 1 142 9 is_stmt 1 view .LVU274
 856 0030 2046     		mov	r0, r4
 857              	.LVL96:
 142:lvgl/src/widgets/lv_switch.c ****     }
 858              		.loc 1 142 9 is_stmt 0 view .LVU275
 859 0032 FFF7FEFF 		bl	draw_main
 860              	.LVL97:
 861 0036 EBE7     		b	.L29
 862              	.LVL98:
 863              	.L37:
 864              	.LBB84:
 123:lvgl/src/widgets/lv_switch.c ****         lv_coord_t knob_right = lv_obj_get_style_pad_right(obj,  LV_PART_KNOB);
 865              		.loc 1 123 9 is_stmt 1 view .LVU276
 866              	.LBB85:
 867              	.LBI85:
 115:lvgl/src/widgets/../core/lv_obj_style_gen.h **** {
 868              		.loc 2 115 26 view .LVU277
 869              	.LBB86:
 117:lvgl/src/widgets/../core/lv_obj_style_gen.h ****     return (lv_coord_t)v.num;
 870              		.loc 2 117 5 view .LVU278
 117:lvgl/src/widgets/../core/lv_obj_style_gen.h ****     return (lv_coord_t)v.num;
 871              		.loc 2 117 26 is_stmt 0 view .LVU279
 872 0038 1222     		movs	r2, #18
 873 003a 4FF44031 		mov	r1, #196608
 874 003e FFF7FEFF 		bl	lv_obj_get_style_prop
 875              	.LVL99:
 118:lvgl/src/widgets/../core/lv_obj_style_gen.h **** }
 876              		.loc 2 118 5 is_stmt 1 view .LVU280
 118:lvgl/src/widgets/../core/lv_obj_style_gen.h **** }
 877              		.loc 2 118 12 is_stmt 0 view .LVU281
 878 0042 0FFA80F8 		sxth	r8, r0
 879              	.LVL100:
 118:lvgl/src/widgets/../core/lv_obj_style_gen.h **** }
 880              		.loc 2 118 12 view .LVU282
 881              	.LBE86:
 882              	.LBE85:
 124:lvgl/src/widgets/lv_switch.c ****         lv_coord_t knob_top = lv_obj_get_style_pad_top(obj,    LV_PART_KNOB);
 883              		.loc 1 124 9 is_stmt 1 view .LVU283
ARM GAS  C:\Users\OSD\AppData\Local\Temp\cclSIqWP.s 			page 41


 884              	.LBB87:
 885              	.LBI87:
 121:lvgl/src/widgets/../core/lv_obj_style_gen.h **** {
 886              		.loc 2 121 26 view .LVU284
 887              	.LBB88:
 123:lvgl/src/widgets/../core/lv_obj_style_gen.h ****     return (lv_coord_t)v.num;
 888              		.loc 2 123 5 view .LVU285
 123:lvgl/src/widgets/../core/lv_obj_style_gen.h ****     return (lv_coord_t)v.num;
 889              		.loc 2 123 26 is_stmt 0 view .LVU286
 890 0046 1322     		movs	r2, #19
 891 0048 4FF44031 		mov	r1, #196608
 892 004c 3046     		mov	r0, r6
 893 004e FFF7FEFF 		bl	lv_obj_get_style_prop
 894              	.LVL101:
 124:lvgl/src/widgets/../core/lv_obj_style_gen.h **** }
 895              		.loc 2 124 5 is_stmt 1 view .LVU287
 124:lvgl/src/widgets/../core/lv_obj_style_gen.h **** }
 896              		.loc 2 124 12 is_stmt 0 view .LVU288
 897 0052 07B2     		sxth	r7, r0
 898              	.LVL102:
 124:lvgl/src/widgets/../core/lv_obj_style_gen.h **** }
 899              		.loc 2 124 12 view .LVU289
 900              	.LBE88:
 901              	.LBE87:
 125:lvgl/src/widgets/lv_switch.c ****         lv_coord_t knob_bottom = lv_obj_get_style_pad_bottom(obj, LV_PART_KNOB);
 902              		.loc 1 125 9 is_stmt 1 view .LVU290
 903              	.LBB89:
 904              	.LBI89:
 103:lvgl/src/widgets/../core/lv_obj_style_gen.h **** {
 905              		.loc 2 103 26 view .LVU291
 906              	.LBB90:
 105:lvgl/src/widgets/../core/lv_obj_style_gen.h ****     return (lv_coord_t)v.num;
 907              		.loc 2 105 5 view .LVU292
 105:lvgl/src/widgets/../core/lv_obj_style_gen.h ****     return (lv_coord_t)v.num;
 908              		.loc 2 105 26 is_stmt 0 view .LVU293
 909 0054 1022     		movs	r2, #16
 910 0056 4FF44031 		mov	r1, #196608
 911 005a 3046     		mov	r0, r6
 912 005c FFF7FEFF 		bl	lv_obj_get_style_prop
 913              	.LVL103:
 106:lvgl/src/widgets/../core/lv_obj_style_gen.h **** }
 914              		.loc 2 106 5 is_stmt 1 view .LVU294
 106:lvgl/src/widgets/../core/lv_obj_style_gen.h **** }
 915              		.loc 2 106 12 is_stmt 0 view .LVU295
 916 0060 0FFA80F9 		sxth	r9, r0
 917              	.LVL104:
 106:lvgl/src/widgets/../core/lv_obj_style_gen.h **** }
 918              		.loc 2 106 12 view .LVU296
 919              	.LBE90:
 920              	.LBE89:
 126:lvgl/src/widgets/lv_switch.c **** 
 921              		.loc 1 126 9 is_stmt 1 view .LVU297
 922              	.LBB91:
 923              	.LBI91:
 109:lvgl/src/widgets/../core/lv_obj_style_gen.h **** {
 924              		.loc 2 109 26 view .LVU298
 925              	.LBB92:
ARM GAS  C:\Users\OSD\AppData\Local\Temp\cclSIqWP.s 			page 42


 111:lvgl/src/widgets/../core/lv_obj_style_gen.h ****     return (lv_coord_t)v.num;
 926              		.loc 2 111 5 view .LVU299
 111:lvgl/src/widgets/../core/lv_obj_style_gen.h ****     return (lv_coord_t)v.num;
 927              		.loc 2 111 26 is_stmt 0 view .LVU300
 928 0064 1122     		movs	r2, #17
 929 0066 4FF44031 		mov	r1, #196608
 930 006a 3046     		mov	r0, r6
 931 006c FFF7FEFF 		bl	lv_obj_get_style_prop
 932              	.LVL105:
 112:lvgl/src/widgets/../core/lv_obj_style_gen.h **** }
 933              		.loc 2 112 5 is_stmt 1 view .LVU301
 112:lvgl/src/widgets/../core/lv_obj_style_gen.h **** }
 934              		.loc 2 112 12 is_stmt 0 view .LVU302
 935 0070 05B2     		sxth	r5, r0
 936              	.LVL106:
 112:lvgl/src/widgets/../core/lv_obj_style_gen.h **** }
 937              		.loc 2 112 12 view .LVU303
 938              	.LBE92:
 939              	.LBE91:
 129:lvgl/src/widgets/lv_switch.c ****         knob_size += _LV_SWITCH_KNOB_EXT_AREA_CORRECTION;
 940              		.loc 1 129 9 is_stmt 1 view .LVU304
 129:lvgl/src/widgets/lv_switch.c ****         knob_size += _LV_SWITCH_KNOB_EXT_AREA_CORRECTION;
 941              		.loc 1 129 32 is_stmt 0 view .LVU305
 942 0072 4D45     		cmp	r5, r9
 943 0074 B8BF     		it	lt
 944 0076 4D46     		movlt	r5, r9
 945              	.LVL107:
 129:lvgl/src/widgets/lv_switch.c ****         knob_size += _LV_SWITCH_KNOB_EXT_AREA_CORRECTION;
 946              		.loc 1 129 32 view .LVU306
 947 0078 4745     		cmp	r7, r8
 948 007a B8BF     		it	lt
 949 007c 4746     		movlt	r7, r8
 950              	.LVL108:
 129:lvgl/src/widgets/lv_switch.c ****         knob_size += _LV_SWITCH_KNOB_EXT_AREA_CORRECTION;
 951              		.loc 1 129 20 view .LVU307
 952 007e BD42     		cmp	r5, r7
 953 0080 B8BF     		it	lt
 954 0082 3D46     		movlt	r5, r7
 955              	.LVL109:
 130:lvgl/src/widgets/lv_switch.c ****         knob_size += lv_obj_calculate_ext_draw_size(obj, LV_PART_KNOB);
 956              		.loc 1 130 9 is_stmt 1 view .LVU308
 130:lvgl/src/widgets/lv_switch.c ****         knob_size += lv_obj_calculate_ext_draw_size(obj, LV_PART_KNOB);
 957              		.loc 1 130 19 is_stmt 0 view .LVU309
 958 0084 0235     		adds	r5, r5, #2
 959              	.LVL110:
 130:lvgl/src/widgets/lv_switch.c ****         knob_size += lv_obj_calculate_ext_draw_size(obj, LV_PART_KNOB);
 960              		.loc 1 130 19 view .LVU310
 961 0086 ADB2     		uxth	r5, r5
 962              	.LVL111:
 131:lvgl/src/widgets/lv_switch.c **** 
 963              		.loc 1 131 9 is_stmt 1 view .LVU311
 131:lvgl/src/widgets/lv_switch.c **** 
 964              		.loc 1 131 22 is_stmt 0 view .LVU312
 965 0088 4FF44031 		mov	r1, #196608
 966 008c 3046     		mov	r0, r6
 967              	.LVL112:
 131:lvgl/src/widgets/lv_switch.c **** 
ARM GAS  C:\Users\OSD\AppData\Local\Temp\cclSIqWP.s 			page 43


 968              		.loc 1 131 22 view .LVU313
 969 008e FFF7FEFF 		bl	lv_obj_calculate_ext_draw_size
 970              	.LVL113:
 131:lvgl/src/widgets/lv_switch.c **** 
 971              		.loc 1 131 19 view .LVU314
 972 0092 15FA80F5 		uxtah	r5, r5, r0
 973              	.LVL114:
 131:lvgl/src/widgets/lv_switch.c **** 
 974              		.loc 1 131 19 view .LVU315
 975 0096 2DB2     		sxth	r5, r5
 976              	.LVL115:
 133:lvgl/src/widgets/lv_switch.c ****         *s = LV_MAX(*s, knob_size);
 977              		.loc 1 133 9 is_stmt 1 view .LVU316
 133:lvgl/src/widgets/lv_switch.c ****         *s = LV_MAX(*s, knob_size);
 978              		.loc 1 133 26 is_stmt 0 view .LVU317
 979 0098 2046     		mov	r0, r4
 980 009a FFF7FEFF 		bl	lv_event_get_param
 981              	.LVL116:
 982 009e 0446     		mov	r4, r0
 983              	.LVL117:
 134:lvgl/src/widgets/lv_switch.c ****         *s = LV_MAX(*s, lv_obj_calculate_ext_draw_size(obj, LV_PART_INDICATOR));
 984              		.loc 1 134 9 is_stmt 1 view .LVU318
 134:lvgl/src/widgets/lv_switch.c ****         *s = LV_MAX(*s, lv_obj_calculate_ext_draw_size(obj, LV_PART_INDICATOR));
 985              		.loc 1 134 14 is_stmt 0 view .LVU319
 986 00a0 B0F90000 		ldrsh	r0, [r0]
 987              	.LVL118:
 134:lvgl/src/widgets/lv_switch.c ****         *s = LV_MAX(*s, lv_obj_calculate_ext_draw_size(obj, LV_PART_INDICATOR));
 988              		.loc 1 134 14 view .LVU320
 989 00a4 8542     		cmp	r5, r0
 990 00a6 B8BF     		it	lt
 991 00a8 0546     		movlt	r5, r0
 992              	.LVL119:
 134:lvgl/src/widgets/lv_switch.c ****         *s = LV_MAX(*s, lv_obj_calculate_ext_draw_size(obj, LV_PART_INDICATOR));
 993              		.loc 1 134 12 view .LVU321
 994 00aa 2580     		strh	r5, [r4]	@ movhi
 135:lvgl/src/widgets/lv_switch.c ****     }
 995              		.loc 1 135 9 is_stmt 1 view .LVU322
 135:lvgl/src/widgets/lv_switch.c ****     }
 996              		.loc 1 135 14 is_stmt 0 view .LVU323
 997 00ac 4FF40031 		mov	r1, #131072
 998 00b0 3046     		mov	r0, r6
 999 00b2 FFF7FEFF 		bl	lv_obj_calculate_ext_draw_size
 1000              	.LVL120:
 135:lvgl/src/widgets/lv_switch.c ****     }
 1001              		.loc 1 135 12 view .LVU324
 1002 00b6 8542     		cmp	r5, r0
 1003 00b8 03DD     		ble	.L32
 135:lvgl/src/widgets/lv_switch.c ****     }
 1004              		.loc 1 135 12 discriminator 1 view .LVU325
 1005 00ba B4F90000 		ldrsh	r0, [r4]
 1006              	.L33:
 135:lvgl/src/widgets/lv_switch.c ****     }
 1007              		.loc 1 135 12 discriminator 4 view .LVU326
 1008 00be 2080     		strh	r0, [r4]	@ movhi
 1009              	.LBE84:
 1010 00c0 A6E7     		b	.L29
 1011              	.L32:
ARM GAS  C:\Users\OSD\AppData\Local\Temp\cclSIqWP.s 			page 44


 1012              	.LBB93:
 135:lvgl/src/widgets/lv_switch.c ****     }
 1013              		.loc 1 135 14 discriminator 2 view .LVU327
 1014 00c2 4FF40031 		mov	r1, #131072
 1015 00c6 3046     		mov	r0, r6
 1016 00c8 FFF7FEFF 		bl	lv_obj_calculate_ext_draw_size
 1017              	.LVL121:
 1018 00cc F7E7     		b	.L33
 1019              	.LVL122:
 1020              	.L38:
 135:lvgl/src/widgets/lv_switch.c ****     }
 1021              		.loc 1 135 14 discriminator 2 view .LVU328
 1022              	.LBE93:
 138:lvgl/src/widgets/lv_switch.c ****         lv_obj_invalidate(obj);
 1023              		.loc 1 138 9 is_stmt 1 view .LVU329
 1024 00ce FFF7FEFF 		bl	lv_switch_trigger_anim
 1025              	.LVL123:
 139:lvgl/src/widgets/lv_switch.c ****     }
 1026              		.loc 1 139 9 view .LVU330
 1027 00d2 3046     		mov	r0, r6
 1028 00d4 FFF7FEFF 		bl	lv_obj_invalidate
 1029              	.LVL124:
 1030 00d8 9AE7     		b	.L29
 1031              	.L40:
 1032 00da 00BF     		.align	2
 1033              	.L39:
 1034 00dc 00000000 		.word	.LANCHOR0
 1035              		.cfi_endproc
 1036              	.LFE170:
 1038              		.section	.text.lv_switch_constructor,"ax",%progbits
 1039              		.align	1
 1040              		.syntax unified
 1041              		.thumb
 1042              		.thumb_func
 1044              	lv_switch_constructor:
 1045              	.LVL125:
 1046              	.LFB168:
  86:lvgl/src/widgets/lv_switch.c ****     LV_UNUSED(class_p);
 1047              		.loc 1 86 1 view -0
 1048              		.cfi_startproc
 1049              		@ args = 0, pretend = 0, frame = 0
 1050              		@ frame_needed = 0, uses_anonymous_args = 0
  86:lvgl/src/widgets/lv_switch.c ****     LV_UNUSED(class_p);
 1051              		.loc 1 86 1 is_stmt 0 view .LVU332
 1052 0000 10B5     		push	{r4, lr}
 1053              		.cfi_def_cfa_offset 8
 1054              		.cfi_offset 4, -8
 1055              		.cfi_offset 14, -4
 1056 0002 0C46     		mov	r4, r1
  87:lvgl/src/widgets/lv_switch.c ****     LV_TRACE_OBJ_CREATE("begin");
 1057              		.loc 1 87 5 is_stmt 1 view .LVU333
  88:lvgl/src/widgets/lv_switch.c **** 
 1058              		.loc 1 88 33 view .LVU334
  90:lvgl/src/widgets/lv_switch.c **** 
 1059              		.loc 1 90 5 view .LVU335
 1060              	.LVL126:
  92:lvgl/src/widgets/lv_switch.c **** 
ARM GAS  C:\Users\OSD\AppData\Local\Temp\cclSIqWP.s 			page 45


 1061              		.loc 1 92 5 view .LVU336
  92:lvgl/src/widgets/lv_switch.c **** 
 1062              		.loc 1 92 20 is_stmt 0 view .LVU337
 1063 0004 4FF0FF33 		mov	r3, #-1
 1064 0008 4B62     		str	r3, [r1, #36]
  94:lvgl/src/widgets/lv_switch.c ****     lv_obj_add_flag(obj, LV_OBJ_FLAG_CHECKABLE);
 1065              		.loc 1 94 5 is_stmt 1 view .LVU338
 1066 000a 1021     		movs	r1, #16
 1067              	.LVL127:
  94:lvgl/src/widgets/lv_switch.c ****     lv_obj_add_flag(obj, LV_OBJ_FLAG_CHECKABLE);
 1068              		.loc 1 94 5 is_stmt 0 view .LVU339
 1069 000c 2046     		mov	r0, r4
 1070              	.LVL128:
  94:lvgl/src/widgets/lv_switch.c ****     lv_obj_add_flag(obj, LV_OBJ_FLAG_CHECKABLE);
 1071              		.loc 1 94 5 view .LVU340
 1072 000e FFF7FEFF 		bl	lv_obj_clear_flag
 1073              	.LVL129:
  95:lvgl/src/widgets/lv_switch.c ****     lv_obj_add_flag(obj, LV_OBJ_FLAG_SCROLL_ON_FOCUS);
 1074              		.loc 1 95 5 is_stmt 1 view .LVU341
 1075 0012 0821     		movs	r1, #8
 1076 0014 2046     		mov	r0, r4
 1077 0016 FFF7FEFF 		bl	lv_obj_add_flag
 1078              	.LVL130:
  96:lvgl/src/widgets/lv_switch.c **** 
 1079              		.loc 1 96 5 view .LVU342
 1080 001a 4FF48061 		mov	r1, #1024
 1081 001e 2046     		mov	r0, r4
 1082 0020 FFF7FEFF 		bl	lv_obj_add_flag
 1083              	.LVL131:
  98:lvgl/src/widgets/lv_switch.c **** }
 1084              		.loc 1 98 36 view .LVU343
  99:lvgl/src/widgets/lv_switch.c **** 
 1085              		.loc 1 99 1 is_stmt 0 view .LVU344
 1086 0024 10BD     		pop	{r4, pc}
  99:lvgl/src/widgets/lv_switch.c **** 
 1087              		.loc 1 99 1 view .LVU345
 1088              		.cfi_endproc
 1089              	.LFE168:
 1091              		.section	.text.lv_switch_create,"ax",%progbits
 1092              		.align	1
 1093              		.global	lv_switch_create
 1094              		.syntax unified
 1095              		.thumb
 1096              		.thumb_func
 1098              	lv_switch_create:
 1099              	.LVL132:
 1100              	.LFB167:
  74:lvgl/src/widgets/lv_switch.c ****     LV_LOG_INFO("begin");
 1101              		.loc 1 74 1 is_stmt 1 view -0
 1102              		.cfi_startproc
 1103              		@ args = 0, pretend = 0, frame = 0
 1104              		@ frame_needed = 0, uses_anonymous_args = 0
  74:lvgl/src/widgets/lv_switch.c ****     LV_LOG_INFO("begin");
 1105              		.loc 1 74 1 is_stmt 0 view .LVU347
 1106 0000 10B5     		push	{r4, lr}
 1107              		.cfi_def_cfa_offset 8
 1108              		.cfi_offset 4, -8
ARM GAS  C:\Users\OSD\AppData\Local\Temp\cclSIqWP.s 			page 46


 1109              		.cfi_offset 14, -4
 1110 0002 0146     		mov	r1, r0
  75:lvgl/src/widgets/lv_switch.c ****     lv_obj_t * obj = lv_obj_class_create_obj(MY_CLASS, parent);
 1111              		.loc 1 75 5 is_stmt 1 view .LVU348
  75:lvgl/src/widgets/lv_switch.c ****     lv_obj_t * obj = lv_obj_class_create_obj(MY_CLASS, parent);
 1112              		.loc 1 75 5 view .LVU349
  75:lvgl/src/widgets/lv_switch.c ****     lv_obj_t * obj = lv_obj_class_create_obj(MY_CLASS, parent);
 1113              		.loc 1 75 5 view .LVU350
  76:lvgl/src/widgets/lv_switch.c ****     lv_obj_class_init_obj(obj);
 1114              		.loc 1 76 5 view .LVU351
  76:lvgl/src/widgets/lv_switch.c ****     lv_obj_class_init_obj(obj);
 1115              		.loc 1 76 22 is_stmt 0 view .LVU352
 1116 0004 0348     		ldr	r0, .L45
 1117              	.LVL133:
  76:lvgl/src/widgets/lv_switch.c ****     lv_obj_class_init_obj(obj);
 1118              		.loc 1 76 22 view .LVU353
 1119 0006 FFF7FEFF 		bl	lv_obj_class_create_obj
 1120              	.LVL134:
  76:lvgl/src/widgets/lv_switch.c ****     lv_obj_class_init_obj(obj);
 1121              		.loc 1 76 22 view .LVU354
 1122 000a 0446     		mov	r4, r0
 1123              	.LVL135:
  77:lvgl/src/widgets/lv_switch.c ****     return obj;
 1124              		.loc 1 77 5 is_stmt 1 view .LVU355
 1125 000c FFF7FEFF 		bl	lv_obj_class_init_obj
 1126              	.LVL136:
  78:lvgl/src/widgets/lv_switch.c **** }
 1127              		.loc 1 78 5 view .LVU356
  79:lvgl/src/widgets/lv_switch.c **** 
 1128              		.loc 1 79 1 is_stmt 0 view .LVU357
 1129 0010 2046     		mov	r0, r4
 1130 0012 10BD     		pop	{r4, pc}
 1131              	.LVL137:
 1132              	.L46:
  79:lvgl/src/widgets/lv_switch.c **** 
 1133              		.loc 1 79 1 view .LVU358
 1134              		.align	2
 1135              	.L45:
 1136 0014 00000000 		.word	.LANCHOR0
 1137              		.cfi_endproc
 1138              	.LFE167:
 1140              		.global	lv_switch_class
 1141              		.section	.rodata.lv_switch_class,"a"
 1142              		.align	2
 1143              		.set	.LANCHOR0,. + 0
 1146              	lv_switch_class:
 1147 0000 00000000 		.word	lv_obj_class
 1148 0004 00000000 		.word	lv_switch_constructor
 1149 0008 00000000 		.word	lv_switch_destructor
 1150 000c 00000000 		.space	4
 1151 0010 00000000 		.word	lv_switch_event
 1152 0014 3400     		.short	52
 1153 0016 1E00     		.short	30
 1154 0018 84       		.byte	132
 1155 0019 02       		.byte	2
 1156 001a 00       		.byte	0
 1157 001b 00       		.space	1
ARM GAS  C:\Users\OSD\AppData\Local\Temp\cclSIqWP.s 			page 47


 1158              		.text
 1159              	.Letext0:
 1160              		.file 5 "c:\\tools\\gcc-arm-none-eabi\\arm-none-eabi\\include\\machine\\_default_types.h"
 1161              		.file 6 "c:\\tools\\gcc-arm-none-eabi\\arm-none-eabi\\include\\sys\\_stdint.h"
 1162              		.file 7 "c:\\tools\\gcc-arm-none-eabi\\lib\\gcc\\arm-none-eabi\\10.3.1\\include\\stddef.h"
 1163              		.file 8 "d:\\kzc\\stm32\\h743ii_lcd\\lvgl\\src\\font\\lv_font.h"
 1164              		.file 9 "lvgl/src/widgets/../core/../misc/lv_types.h"
 1165              		.file 10 "lvgl/src/widgets/../core/../misc/lv_color.h"
 1166              		.file 11 "lvgl/src/widgets/../core/../misc/lv_txt.h"
 1167              		.file 12 "lvgl/src/widgets/../core/../misc/lv_bidi.h"
 1168              		.file 13 "lvgl/src/widgets/../core/../misc/lv_style.h"
 1169              		.file 14 "d:\\kzc\\stm32\\h743ii_lcd\\lvgl\\src\\draw\\lv_img_buf.h"
 1170              		.file 15 "lvgl/src/widgets/../core/lv_obj.h"
 1171              		.file 16 "d:\\kzc\\stm32\\h743ii_lcd\\lvgl\\src\\draw\\lv_draw_rect.h"
 1172              		.file 17 "d:\\kzc\\stm32\\h743ii_lcd\\lvgl\\src\\draw\\lv_draw_label.h"
 1173              		.file 18 "d:\\kzc\\stm32\\h743ii_lcd\\lvgl\\src\\draw\\lv_draw_img.h"
 1174              		.file 19 "d:\\kzc\\stm32\\h743ii_lcd\\lvgl\\src\\draw\\lv_draw_line.h"
 1175              		.file 20 "d:\\kzc\\stm32\\h743ii_lcd\\lvgl\\src\\draw\\lv_draw_arc.h"
 1176              		.file 21 "d:\\kzc\\stm32\\h743ii_lcd\\lvgl\\src\\draw\\lv_draw_layer.h"
 1177              		.file 22 "d:\\kzc\\stm32\\h743ii_lcd\\lvgl\\src\\draw\\lv_draw.h"
 1178              		.file 23 "d:\\kzc\\stm32\\h743ii_lcd\\lvgl\\src\\misc\\lv_ll.h"
 1179              		.file 24 "lvgl/src/widgets/../core/lv_group.h"
 1180              		.file 25 "lvgl/src/widgets/../core/lv_obj_scroll.h"
 1181              		.file 26 "lvgl/src/widgets/../core/lv_obj_style.h"
 1182              		.file 27 "lvgl/src/widgets/../core/lv_obj_class.h"
 1183              		.file 28 "lvgl/src/widgets/../core/lv_event.h"
 1184              		.file 29 "lvgl/src/widgets/lv_switch.h"
 1185              		.file 30 "d:\\kzc\\stm32\\h743ii_lcd\\lvgl\\src\\core\\lv_obj_pos.h"
 1186              		.file 31 "lvgl/src/widgets/../core/lv_obj_draw.h"
ARM GAS  C:\Users\OSD\AppData\Local\Temp\cclSIqWP.s 			page 48

