ARM GAS  C:\Users\OSD\AppData\Local\Temp\cc0UtiIx.s 			page 1


   1              		.cpu cortex-m7
   2              		.arch armv7e-m
   3              		.fpu fpv5-d16
   4              		.eabi_attribute 28, 1
   5              		.eabi_attribute 20, 1
   6              		.eabi_attribute 21, 1
   7              		.eabi_attribute 23, 3
   8              		.eabi_attribute 24, 1
   9              		.eabi_attribute 25, 1
  10              		.eabi_attribute 26, 1
  11              		.eabi_attribute 30, 1
  12              		.eabi_attribute 34, 1
  13              		.eabi_attribute 18, 4
  14              		.file	"lv_span.c"
  15              		.text
  16              	.Ltext0:
  17              		.cfi_sections	.debug_frame
  18              		.section	.text.lv_get_snippet_cnt,"ax",%progbits
  19              		.align	1
  20              		.syntax unified
  21              		.thumb
  22              		.thumb_func
  24              	lv_get_snippet_cnt:
  25              	.LFB231:
  26              		.file 1 "lvgl/src/extra/widgets/span/lv_span.c"
   1:lvgl/src/extra/widgets/span/lv_span.c **** /**
   2:lvgl/src/extra/widgets/span/lv_span.c ****  * @file lv_span.c
   3:lvgl/src/extra/widgets/span/lv_span.c ****  *
   4:lvgl/src/extra/widgets/span/lv_span.c ****  */
   5:lvgl/src/extra/widgets/span/lv_span.c **** 
   6:lvgl/src/extra/widgets/span/lv_span.c **** /*********************
   7:lvgl/src/extra/widgets/span/lv_span.c ****  *      INCLUDES
   8:lvgl/src/extra/widgets/span/lv_span.c ****  *********************/
   9:lvgl/src/extra/widgets/span/lv_span.c **** #include "lv_span.h"
  10:lvgl/src/extra/widgets/span/lv_span.c **** 
  11:lvgl/src/extra/widgets/span/lv_span.c **** #if LV_USE_SPAN != 0
  12:lvgl/src/extra/widgets/span/lv_span.c **** 
  13:lvgl/src/extra/widgets/span/lv_span.c **** #include "../../../misc/lv_assert.h"
  14:lvgl/src/extra/widgets/span/lv_span.c **** 
  15:lvgl/src/extra/widgets/span/lv_span.c **** /*********************
  16:lvgl/src/extra/widgets/span/lv_span.c ****  *      DEFINES
  17:lvgl/src/extra/widgets/span/lv_span.c ****  *********************/
  18:lvgl/src/extra/widgets/span/lv_span.c **** #define MY_CLASS &lv_spangroup_class
  19:lvgl/src/extra/widgets/span/lv_span.c **** 
  20:lvgl/src/extra/widgets/span/lv_span.c **** /**********************
  21:lvgl/src/extra/widgets/span/lv_span.c ****  *      TYPEDEFS
  22:lvgl/src/extra/widgets/span/lv_span.c ****  **********************/
  23:lvgl/src/extra/widgets/span/lv_span.c **** typedef struct {
  24:lvgl/src/extra/widgets/span/lv_span.c ****     lv_span_t * span;
  25:lvgl/src/extra/widgets/span/lv_span.c ****     const char * txt;
  26:lvgl/src/extra/widgets/span/lv_span.c ****     const lv_font_t * font;
  27:lvgl/src/extra/widgets/span/lv_span.c ****     uint16_t   bytes;
  28:lvgl/src/extra/widgets/span/lv_span.c ****     lv_coord_t txt_w;
  29:lvgl/src/extra/widgets/span/lv_span.c ****     lv_coord_t line_h;
  30:lvgl/src/extra/widgets/span/lv_span.c ****     lv_coord_t letter_space;
  31:lvgl/src/extra/widgets/span/lv_span.c **** } lv_snippet_t;
  32:lvgl/src/extra/widgets/span/lv_span.c **** 
ARM GAS  C:\Users\OSD\AppData\Local\Temp\cc0UtiIx.s 			page 2


  33:lvgl/src/extra/widgets/span/lv_span.c **** struct _snippet_stack {
  34:lvgl/src/extra/widgets/span/lv_span.c ****     lv_snippet_t    stack[LV_SPAN_SNIPPET_STACK_SIZE];
  35:lvgl/src/extra/widgets/span/lv_span.c ****     uint16_t        index;
  36:lvgl/src/extra/widgets/span/lv_span.c **** };
  37:lvgl/src/extra/widgets/span/lv_span.c **** 
  38:lvgl/src/extra/widgets/span/lv_span.c **** /**********************
  39:lvgl/src/extra/widgets/span/lv_span.c ****  *  STATIC PROTOTYPES
  40:lvgl/src/extra/widgets/span/lv_span.c ****  **********************/
  41:lvgl/src/extra/widgets/span/lv_span.c **** static void lv_spangroup_destructor(const lv_obj_class_t * class_p, lv_obj_t * obj);
  42:lvgl/src/extra/widgets/span/lv_span.c **** static void lv_spangroup_constructor(const lv_obj_class_t * class_p, lv_obj_t * obj);
  43:lvgl/src/extra/widgets/span/lv_span.c **** static void lv_spangroup_event(const lv_obj_class_t * class_p, lv_event_t * e);
  44:lvgl/src/extra/widgets/span/lv_span.c **** static void draw_main(lv_event_t * e);
  45:lvgl/src/extra/widgets/span/lv_span.c **** static void refresh_self_size(lv_obj_t * obj);
  46:lvgl/src/extra/widgets/span/lv_span.c **** 
  47:lvgl/src/extra/widgets/span/lv_span.c **** static const lv_font_t * lv_span_get_style_text_font(lv_obj_t * par, lv_span_t * span);
  48:lvgl/src/extra/widgets/span/lv_span.c **** static lv_coord_t lv_span_get_style_text_letter_space(lv_obj_t * par, lv_span_t * span);
  49:lvgl/src/extra/widgets/span/lv_span.c **** static lv_color_t lv_span_get_style_text_color(lv_obj_t * par, lv_span_t * span);
  50:lvgl/src/extra/widgets/span/lv_span.c **** static lv_opa_t lv_span_get_style_text_opa(lv_obj_t * par, lv_span_t * span);
  51:lvgl/src/extra/widgets/span/lv_span.c **** static lv_opa_t lv_span_get_style_text_blend_mode(lv_obj_t * par, lv_span_t * span);
  52:lvgl/src/extra/widgets/span/lv_span.c **** static int32_t lv_span_get_style_text_decor(lv_obj_t * par, lv_span_t * span);
  53:lvgl/src/extra/widgets/span/lv_span.c **** 
  54:lvgl/src/extra/widgets/span/lv_span.c **** static inline void span_text_check(const char ** text);
  55:lvgl/src/extra/widgets/span/lv_span.c **** static void lv_draw_span(lv_obj_t * obj, lv_draw_ctx_t * draw_ctx);
  56:lvgl/src/extra/widgets/span/lv_span.c **** static bool lv_txt_get_snippet(const char * txt, const lv_font_t * font, lv_coord_t letter_space,
  57:lvgl/src/extra/widgets/span/lv_span.c ****                                lv_coord_t max_width, lv_text_flag_t flag, lv_coord_t * use_width,
  58:lvgl/src/extra/widgets/span/lv_span.c ****                                uint32_t * end_ofs);
  59:lvgl/src/extra/widgets/span/lv_span.c **** 
  60:lvgl/src/extra/widgets/span/lv_span.c **** static void lv_snippet_clear(void);
  61:lvgl/src/extra/widgets/span/lv_span.c **** static uint16_t lv_get_snippet_cnt(void);
  62:lvgl/src/extra/widgets/span/lv_span.c **** static void lv_snippet_push(lv_snippet_t * item);
  63:lvgl/src/extra/widgets/span/lv_span.c **** static lv_snippet_t * lv_get_snippet(uint16_t index);
  64:lvgl/src/extra/widgets/span/lv_span.c **** static lv_coord_t convert_indent_pct(lv_obj_t * spans, lv_coord_t width);
  65:lvgl/src/extra/widgets/span/lv_span.c **** 
  66:lvgl/src/extra/widgets/span/lv_span.c **** /**********************
  67:lvgl/src/extra/widgets/span/lv_span.c ****  *  STATIC VARIABLES
  68:lvgl/src/extra/widgets/span/lv_span.c ****  **********************/
  69:lvgl/src/extra/widgets/span/lv_span.c **** static struct _snippet_stack snippet_stack;
  70:lvgl/src/extra/widgets/span/lv_span.c **** 
  71:lvgl/src/extra/widgets/span/lv_span.c **** const lv_obj_class_t lv_spangroup_class  = {
  72:lvgl/src/extra/widgets/span/lv_span.c ****     .base_class = &lv_obj_class,
  73:lvgl/src/extra/widgets/span/lv_span.c ****     .constructor_cb = lv_spangroup_constructor,
  74:lvgl/src/extra/widgets/span/lv_span.c ****     .destructor_cb = lv_spangroup_destructor,
  75:lvgl/src/extra/widgets/span/lv_span.c ****     .event_cb = lv_spangroup_event,
  76:lvgl/src/extra/widgets/span/lv_span.c ****     .instance_size = sizeof(lv_spangroup_t),
  77:lvgl/src/extra/widgets/span/lv_span.c ****     .width_def = LV_SIZE_CONTENT,
  78:lvgl/src/extra/widgets/span/lv_span.c ****     .height_def = LV_SIZE_CONTENT,
  79:lvgl/src/extra/widgets/span/lv_span.c **** };
  80:lvgl/src/extra/widgets/span/lv_span.c **** 
  81:lvgl/src/extra/widgets/span/lv_span.c **** /**********************
  82:lvgl/src/extra/widgets/span/lv_span.c ****  *      MACROS
  83:lvgl/src/extra/widgets/span/lv_span.c ****  **********************/
  84:lvgl/src/extra/widgets/span/lv_span.c **** 
  85:lvgl/src/extra/widgets/span/lv_span.c **** /**********************
  86:lvgl/src/extra/widgets/span/lv_span.c ****  *   GLOBAL FUNCTIONS
  87:lvgl/src/extra/widgets/span/lv_span.c ****  **********************/
  88:lvgl/src/extra/widgets/span/lv_span.c **** 
  89:lvgl/src/extra/widgets/span/lv_span.c **** lv_obj_t * lv_spangroup_create(lv_obj_t * par)
ARM GAS  C:\Users\OSD\AppData\Local\Temp\cc0UtiIx.s 			page 3


  90:lvgl/src/extra/widgets/span/lv_span.c **** {
  91:lvgl/src/extra/widgets/span/lv_span.c ****     lv_obj_t * obj = lv_obj_class_create_obj(&lv_spangroup_class, par);
  92:lvgl/src/extra/widgets/span/lv_span.c ****     lv_obj_class_init_obj(obj);
  93:lvgl/src/extra/widgets/span/lv_span.c ****     return obj;
  94:lvgl/src/extra/widgets/span/lv_span.c **** }
  95:lvgl/src/extra/widgets/span/lv_span.c **** 
  96:lvgl/src/extra/widgets/span/lv_span.c **** lv_span_t * lv_spangroup_new_span(lv_obj_t * obj)
  97:lvgl/src/extra/widgets/span/lv_span.c **** {
  98:lvgl/src/extra/widgets/span/lv_span.c ****     if(obj == NULL) {
  99:lvgl/src/extra/widgets/span/lv_span.c ****         return NULL;
 100:lvgl/src/extra/widgets/span/lv_span.c ****     }
 101:lvgl/src/extra/widgets/span/lv_span.c **** 
 102:lvgl/src/extra/widgets/span/lv_span.c ****     LV_ASSERT_OBJ(obj, MY_CLASS);
 103:lvgl/src/extra/widgets/span/lv_span.c ****     lv_spangroup_t * spans = (lv_spangroup_t *)obj;
 104:lvgl/src/extra/widgets/span/lv_span.c ****     lv_span_t * span = _lv_ll_ins_tail(&spans->child_ll);
 105:lvgl/src/extra/widgets/span/lv_span.c ****     LV_ASSERT_MALLOC(span);
 106:lvgl/src/extra/widgets/span/lv_span.c **** 
 107:lvgl/src/extra/widgets/span/lv_span.c ****     lv_style_init(&span->style);
 108:lvgl/src/extra/widgets/span/lv_span.c ****     span->txt = (char *)"";
 109:lvgl/src/extra/widgets/span/lv_span.c ****     span->static_flag = 1;
 110:lvgl/src/extra/widgets/span/lv_span.c ****     span->spangroup = obj;
 111:lvgl/src/extra/widgets/span/lv_span.c **** 
 112:lvgl/src/extra/widgets/span/lv_span.c ****     refresh_self_size(obj);
 113:lvgl/src/extra/widgets/span/lv_span.c **** 
 114:lvgl/src/extra/widgets/span/lv_span.c ****     return span;
 115:lvgl/src/extra/widgets/span/lv_span.c **** }
 116:lvgl/src/extra/widgets/span/lv_span.c **** 
 117:lvgl/src/extra/widgets/span/lv_span.c **** void lv_spangroup_del_span(lv_obj_t * obj, lv_span_t * span)
 118:lvgl/src/extra/widgets/span/lv_span.c **** {
 119:lvgl/src/extra/widgets/span/lv_span.c ****     if(obj == NULL || span == NULL) {
 120:lvgl/src/extra/widgets/span/lv_span.c ****         return;
 121:lvgl/src/extra/widgets/span/lv_span.c ****     }
 122:lvgl/src/extra/widgets/span/lv_span.c **** 
 123:lvgl/src/extra/widgets/span/lv_span.c ****     LV_ASSERT_OBJ(obj, MY_CLASS);
 124:lvgl/src/extra/widgets/span/lv_span.c ****     lv_spangroup_t * spans = (lv_spangroup_t *)obj;
 125:lvgl/src/extra/widgets/span/lv_span.c ****     lv_span_t * cur_span;
 126:lvgl/src/extra/widgets/span/lv_span.c ****     _LV_LL_READ(&spans->child_ll, cur_span) {
 127:lvgl/src/extra/widgets/span/lv_span.c ****         if(cur_span == span) {
 128:lvgl/src/extra/widgets/span/lv_span.c ****             _lv_ll_remove(&spans->child_ll, cur_span);
 129:lvgl/src/extra/widgets/span/lv_span.c ****             if(cur_span->txt && cur_span->static_flag == 0) {
 130:lvgl/src/extra/widgets/span/lv_span.c ****                 lv_mem_free(cur_span->txt);
 131:lvgl/src/extra/widgets/span/lv_span.c ****             }
 132:lvgl/src/extra/widgets/span/lv_span.c ****             lv_style_reset(&cur_span->style);
 133:lvgl/src/extra/widgets/span/lv_span.c ****             lv_mem_free(cur_span);
 134:lvgl/src/extra/widgets/span/lv_span.c ****             break;
 135:lvgl/src/extra/widgets/span/lv_span.c ****         }
 136:lvgl/src/extra/widgets/span/lv_span.c ****     }
 137:lvgl/src/extra/widgets/span/lv_span.c **** 
 138:lvgl/src/extra/widgets/span/lv_span.c ****     refresh_self_size(obj);
 139:lvgl/src/extra/widgets/span/lv_span.c **** }
 140:lvgl/src/extra/widgets/span/lv_span.c **** 
 141:lvgl/src/extra/widgets/span/lv_span.c **** /*=====================
 142:lvgl/src/extra/widgets/span/lv_span.c ****  * Setter functions
 143:lvgl/src/extra/widgets/span/lv_span.c ****  *====================*/
 144:lvgl/src/extra/widgets/span/lv_span.c **** 
 145:lvgl/src/extra/widgets/span/lv_span.c **** void lv_span_set_text(lv_span_t * span, const char * text)
 146:lvgl/src/extra/widgets/span/lv_span.c **** {
ARM GAS  C:\Users\OSD\AppData\Local\Temp\cc0UtiIx.s 			page 4


 147:lvgl/src/extra/widgets/span/lv_span.c ****     if(span == NULL || text == NULL) {
 148:lvgl/src/extra/widgets/span/lv_span.c ****         return;
 149:lvgl/src/extra/widgets/span/lv_span.c ****     }
 150:lvgl/src/extra/widgets/span/lv_span.c **** 
 151:lvgl/src/extra/widgets/span/lv_span.c ****     if(span->txt == NULL || span->static_flag == 1) {
 152:lvgl/src/extra/widgets/span/lv_span.c ****         span->txt = lv_mem_alloc(strlen(text) + 1);
 153:lvgl/src/extra/widgets/span/lv_span.c ****     }
 154:lvgl/src/extra/widgets/span/lv_span.c ****     else {
 155:lvgl/src/extra/widgets/span/lv_span.c ****         span->txt = lv_mem_realloc(span->txt, strlen(text) + 1);
 156:lvgl/src/extra/widgets/span/lv_span.c ****     }
 157:lvgl/src/extra/widgets/span/lv_span.c ****     span->static_flag = 0;
 158:lvgl/src/extra/widgets/span/lv_span.c ****     strcpy(span->txt, text);
 159:lvgl/src/extra/widgets/span/lv_span.c **** 
 160:lvgl/src/extra/widgets/span/lv_span.c ****     refresh_self_size(span->spangroup);
 161:lvgl/src/extra/widgets/span/lv_span.c **** }
 162:lvgl/src/extra/widgets/span/lv_span.c **** 
 163:lvgl/src/extra/widgets/span/lv_span.c **** void lv_span_set_text_static(lv_span_t * span, const char * text)
 164:lvgl/src/extra/widgets/span/lv_span.c **** {
 165:lvgl/src/extra/widgets/span/lv_span.c ****     if(span == NULL || text == NULL) {
 166:lvgl/src/extra/widgets/span/lv_span.c ****         return;
 167:lvgl/src/extra/widgets/span/lv_span.c ****     }
 168:lvgl/src/extra/widgets/span/lv_span.c **** 
 169:lvgl/src/extra/widgets/span/lv_span.c ****     if(span->txt && span->static_flag == 0) {
 170:lvgl/src/extra/widgets/span/lv_span.c ****         lv_mem_free(span->txt);
 171:lvgl/src/extra/widgets/span/lv_span.c ****     }
 172:lvgl/src/extra/widgets/span/lv_span.c ****     span->static_flag = 1;
 173:lvgl/src/extra/widgets/span/lv_span.c ****     span->txt = (char *)text;
 174:lvgl/src/extra/widgets/span/lv_span.c **** 
 175:lvgl/src/extra/widgets/span/lv_span.c ****     refresh_self_size(span->spangroup);
 176:lvgl/src/extra/widgets/span/lv_span.c **** }
 177:lvgl/src/extra/widgets/span/lv_span.c **** 
 178:lvgl/src/extra/widgets/span/lv_span.c **** void lv_spangroup_set_align(lv_obj_t * obj, lv_text_align_t align)
 179:lvgl/src/extra/widgets/span/lv_span.c **** {
 180:lvgl/src/extra/widgets/span/lv_span.c ****     lv_obj_set_style_text_align(obj, align, LV_PART_MAIN);
 181:lvgl/src/extra/widgets/span/lv_span.c **** }
 182:lvgl/src/extra/widgets/span/lv_span.c **** 
 183:lvgl/src/extra/widgets/span/lv_span.c **** void lv_spangroup_set_overflow(lv_obj_t * obj, lv_span_overflow_t overflow)
 184:lvgl/src/extra/widgets/span/lv_span.c **** {
 185:lvgl/src/extra/widgets/span/lv_span.c ****     LV_ASSERT_OBJ(obj, MY_CLASS);
 186:lvgl/src/extra/widgets/span/lv_span.c ****     lv_spangroup_t * spans = (lv_spangroup_t *)obj;
 187:lvgl/src/extra/widgets/span/lv_span.c ****     if(spans->overflow == overflow) return;
 188:lvgl/src/extra/widgets/span/lv_span.c **** 
 189:lvgl/src/extra/widgets/span/lv_span.c ****     spans->overflow = overflow;
 190:lvgl/src/extra/widgets/span/lv_span.c ****     lv_obj_invalidate(obj);
 191:lvgl/src/extra/widgets/span/lv_span.c **** }
 192:lvgl/src/extra/widgets/span/lv_span.c **** 
 193:lvgl/src/extra/widgets/span/lv_span.c **** void lv_spangroup_set_indent(lv_obj_t * obj, lv_coord_t indent)
 194:lvgl/src/extra/widgets/span/lv_span.c **** {
 195:lvgl/src/extra/widgets/span/lv_span.c ****     LV_ASSERT_OBJ(obj, MY_CLASS);
 196:lvgl/src/extra/widgets/span/lv_span.c ****     lv_spangroup_t * spans = (lv_spangroup_t *)obj;
 197:lvgl/src/extra/widgets/span/lv_span.c ****     if(spans->indent == indent) return;
 198:lvgl/src/extra/widgets/span/lv_span.c **** 
 199:lvgl/src/extra/widgets/span/lv_span.c ****     spans->indent = indent;
 200:lvgl/src/extra/widgets/span/lv_span.c **** 
 201:lvgl/src/extra/widgets/span/lv_span.c ****     refresh_self_size(obj);
 202:lvgl/src/extra/widgets/span/lv_span.c **** }
 203:lvgl/src/extra/widgets/span/lv_span.c **** 
ARM GAS  C:\Users\OSD\AppData\Local\Temp\cc0UtiIx.s 			page 5


 204:lvgl/src/extra/widgets/span/lv_span.c **** void lv_spangroup_set_mode(lv_obj_t * obj, lv_span_mode_t mode)
 205:lvgl/src/extra/widgets/span/lv_span.c **** {
 206:lvgl/src/extra/widgets/span/lv_span.c ****     LV_ASSERT_OBJ(obj, MY_CLASS);
 207:lvgl/src/extra/widgets/span/lv_span.c ****     lv_spangroup_t * spans = (lv_spangroup_t *)obj;
 208:lvgl/src/extra/widgets/span/lv_span.c ****     spans->mode = mode;
 209:lvgl/src/extra/widgets/span/lv_span.c ****     lv_spangroup_refr_mode(obj);
 210:lvgl/src/extra/widgets/span/lv_span.c **** }
 211:lvgl/src/extra/widgets/span/lv_span.c **** 
 212:lvgl/src/extra/widgets/span/lv_span.c **** void lv_spangroup_set_lines(lv_obj_t * obj, int32_t lines)
 213:lvgl/src/extra/widgets/span/lv_span.c **** {
 214:lvgl/src/extra/widgets/span/lv_span.c ****     LV_ASSERT_OBJ(obj, MY_CLASS);
 215:lvgl/src/extra/widgets/span/lv_span.c ****     lv_spangroup_t * spans = (lv_spangroup_t *)obj;
 216:lvgl/src/extra/widgets/span/lv_span.c ****     spans->lines = lines;
 217:lvgl/src/extra/widgets/span/lv_span.c ****     lv_spangroup_refr_mode(obj);
 218:lvgl/src/extra/widgets/span/lv_span.c **** }
 219:lvgl/src/extra/widgets/span/lv_span.c **** 
 220:lvgl/src/extra/widgets/span/lv_span.c **** /*=====================
 221:lvgl/src/extra/widgets/span/lv_span.c ****  * Getter functions
 222:lvgl/src/extra/widgets/span/lv_span.c ****  *====================*/
 223:lvgl/src/extra/widgets/span/lv_span.c **** 
 224:lvgl/src/extra/widgets/span/lv_span.c **** lv_span_t * lv_spangroup_get_child(const lv_obj_t * obj, int32_t id)
 225:lvgl/src/extra/widgets/span/lv_span.c **** {
 226:lvgl/src/extra/widgets/span/lv_span.c ****     if(obj == NULL) {
 227:lvgl/src/extra/widgets/span/lv_span.c ****         return NULL;
 228:lvgl/src/extra/widgets/span/lv_span.c ****     }
 229:lvgl/src/extra/widgets/span/lv_span.c **** 
 230:lvgl/src/extra/widgets/span/lv_span.c ****     LV_ASSERT_OBJ(obj, MY_CLASS);
 231:lvgl/src/extra/widgets/span/lv_span.c ****     lv_spangroup_t * spans = (lv_spangroup_t *)obj;
 232:lvgl/src/extra/widgets/span/lv_span.c ****     lv_ll_t * linked_list = &spans->child_ll;
 233:lvgl/src/extra/widgets/span/lv_span.c **** 
 234:lvgl/src/extra/widgets/span/lv_span.c ****     bool traverse_forwards = (id >= 0);
 235:lvgl/src/extra/widgets/span/lv_span.c ****     int32_t cur_idx = 0;
 236:lvgl/src/extra/widgets/span/lv_span.c ****     lv_ll_node_t * cur_node = linked_list->head;
 237:lvgl/src/extra/widgets/span/lv_span.c **** 
 238:lvgl/src/extra/widgets/span/lv_span.c ****     /*If using a negative index, start from the tail and use cur -1 to indicate the end*/
 239:lvgl/src/extra/widgets/span/lv_span.c ****     if(!traverse_forwards) {
 240:lvgl/src/extra/widgets/span/lv_span.c ****         cur_idx = -1;
 241:lvgl/src/extra/widgets/span/lv_span.c ****         cur_node = linked_list->tail;
 242:lvgl/src/extra/widgets/span/lv_span.c ****     }
 243:lvgl/src/extra/widgets/span/lv_span.c **** 
 244:lvgl/src/extra/widgets/span/lv_span.c ****     while(cur_node != NULL) {
 245:lvgl/src/extra/widgets/span/lv_span.c ****         if(cur_idx == id) {
 246:lvgl/src/extra/widgets/span/lv_span.c ****             return (lv_span_t *) cur_node;
 247:lvgl/src/extra/widgets/span/lv_span.c ****         }
 248:lvgl/src/extra/widgets/span/lv_span.c ****         if(traverse_forwards) {
 249:lvgl/src/extra/widgets/span/lv_span.c ****             cur_node = (lv_ll_node_t *) _lv_ll_get_next(linked_list, cur_node);
 250:lvgl/src/extra/widgets/span/lv_span.c ****             cur_idx++;
 251:lvgl/src/extra/widgets/span/lv_span.c ****         }
 252:lvgl/src/extra/widgets/span/lv_span.c ****         else {
 253:lvgl/src/extra/widgets/span/lv_span.c ****             cur_node = (lv_ll_node_t *) _lv_ll_get_prev(linked_list, cur_node);
 254:lvgl/src/extra/widgets/span/lv_span.c ****             cur_idx--;
 255:lvgl/src/extra/widgets/span/lv_span.c ****         }
 256:lvgl/src/extra/widgets/span/lv_span.c ****     }
 257:lvgl/src/extra/widgets/span/lv_span.c **** 
 258:lvgl/src/extra/widgets/span/lv_span.c ****     return NULL;
 259:lvgl/src/extra/widgets/span/lv_span.c **** }
 260:lvgl/src/extra/widgets/span/lv_span.c **** 
ARM GAS  C:\Users\OSD\AppData\Local\Temp\cc0UtiIx.s 			page 6


 261:lvgl/src/extra/widgets/span/lv_span.c **** uint32_t lv_spangroup_get_child_cnt(const lv_obj_t * obj)
 262:lvgl/src/extra/widgets/span/lv_span.c **** {
 263:lvgl/src/extra/widgets/span/lv_span.c ****     LV_ASSERT_OBJ(obj, MY_CLASS);
 264:lvgl/src/extra/widgets/span/lv_span.c **** 
 265:lvgl/src/extra/widgets/span/lv_span.c ****     if(obj == NULL) {
 266:lvgl/src/extra/widgets/span/lv_span.c ****         return 0;
 267:lvgl/src/extra/widgets/span/lv_span.c ****     }
 268:lvgl/src/extra/widgets/span/lv_span.c **** 
 269:lvgl/src/extra/widgets/span/lv_span.c ****     LV_ASSERT_OBJ(obj, MY_CLASS);
 270:lvgl/src/extra/widgets/span/lv_span.c ****     lv_spangroup_t * spans = (lv_spangroup_t *)obj;
 271:lvgl/src/extra/widgets/span/lv_span.c ****     return _lv_ll_get_len(&(spans->child_ll));
 272:lvgl/src/extra/widgets/span/lv_span.c **** }
 273:lvgl/src/extra/widgets/span/lv_span.c **** 
 274:lvgl/src/extra/widgets/span/lv_span.c **** lv_text_align_t lv_spangroup_get_align(lv_obj_t * obj)
 275:lvgl/src/extra/widgets/span/lv_span.c **** {
 276:lvgl/src/extra/widgets/span/lv_span.c ****     return lv_obj_get_style_text_align(obj, LV_PART_MAIN);
 277:lvgl/src/extra/widgets/span/lv_span.c **** }
 278:lvgl/src/extra/widgets/span/lv_span.c **** 
 279:lvgl/src/extra/widgets/span/lv_span.c **** lv_span_overflow_t lv_spangroup_get_overflow(lv_obj_t * obj)
 280:lvgl/src/extra/widgets/span/lv_span.c **** {
 281:lvgl/src/extra/widgets/span/lv_span.c ****     LV_ASSERT_OBJ(obj, MY_CLASS);
 282:lvgl/src/extra/widgets/span/lv_span.c ****     lv_spangroup_t * spans = (lv_spangroup_t *)obj;
 283:lvgl/src/extra/widgets/span/lv_span.c ****     return spans->overflow;
 284:lvgl/src/extra/widgets/span/lv_span.c **** }
 285:lvgl/src/extra/widgets/span/lv_span.c **** 
 286:lvgl/src/extra/widgets/span/lv_span.c **** lv_coord_t lv_spangroup_get_indent(lv_obj_t * obj)
 287:lvgl/src/extra/widgets/span/lv_span.c **** {
 288:lvgl/src/extra/widgets/span/lv_span.c ****     LV_ASSERT_OBJ(obj, MY_CLASS);
 289:lvgl/src/extra/widgets/span/lv_span.c ****     lv_spangroup_t * spans = (lv_spangroup_t *)obj;
 290:lvgl/src/extra/widgets/span/lv_span.c ****     return spans->indent;
 291:lvgl/src/extra/widgets/span/lv_span.c **** }
 292:lvgl/src/extra/widgets/span/lv_span.c **** 
 293:lvgl/src/extra/widgets/span/lv_span.c **** lv_span_mode_t lv_spangroup_get_mode(lv_obj_t * obj)
 294:lvgl/src/extra/widgets/span/lv_span.c **** {
 295:lvgl/src/extra/widgets/span/lv_span.c ****     LV_ASSERT_OBJ(obj, MY_CLASS);
 296:lvgl/src/extra/widgets/span/lv_span.c ****     lv_spangroup_t * spans = (lv_spangroup_t *)obj;
 297:lvgl/src/extra/widgets/span/lv_span.c ****     return spans->mode;
 298:lvgl/src/extra/widgets/span/lv_span.c **** }
 299:lvgl/src/extra/widgets/span/lv_span.c **** 
 300:lvgl/src/extra/widgets/span/lv_span.c **** int32_t lv_spangroup_get_lines(lv_obj_t * obj)
 301:lvgl/src/extra/widgets/span/lv_span.c **** {
 302:lvgl/src/extra/widgets/span/lv_span.c ****     LV_ASSERT_OBJ(obj, MY_CLASS);
 303:lvgl/src/extra/widgets/span/lv_span.c ****     lv_spangroup_t * spans = (lv_spangroup_t *)obj;
 304:lvgl/src/extra/widgets/span/lv_span.c ****     return spans->lines;
 305:lvgl/src/extra/widgets/span/lv_span.c **** }
 306:lvgl/src/extra/widgets/span/lv_span.c **** 
 307:lvgl/src/extra/widgets/span/lv_span.c **** void lv_spangroup_refr_mode(lv_obj_t * obj)
 308:lvgl/src/extra/widgets/span/lv_span.c **** {
 309:lvgl/src/extra/widgets/span/lv_span.c ****     LV_ASSERT_OBJ(obj, MY_CLASS);
 310:lvgl/src/extra/widgets/span/lv_span.c ****     lv_spangroup_t * spans = (lv_spangroup_t *)obj;
 311:lvgl/src/extra/widgets/span/lv_span.c **** 
 312:lvgl/src/extra/widgets/span/lv_span.c ****     if(spans->mode == LV_SPAN_MODE_EXPAND) {
 313:lvgl/src/extra/widgets/span/lv_span.c ****         lv_obj_set_width(obj, LV_SIZE_CONTENT);
 314:lvgl/src/extra/widgets/span/lv_span.c ****         lv_obj_set_height(obj, LV_SIZE_CONTENT);
 315:lvgl/src/extra/widgets/span/lv_span.c ****     }
 316:lvgl/src/extra/widgets/span/lv_span.c ****     else if(spans->mode == LV_SPAN_MODE_BREAK) {
 317:lvgl/src/extra/widgets/span/lv_span.c ****         if(lv_obj_get_style_width(obj, LV_PART_MAIN) == LV_SIZE_CONTENT) {
ARM GAS  C:\Users\OSD\AppData\Local\Temp\cc0UtiIx.s 			page 7


 318:lvgl/src/extra/widgets/span/lv_span.c ****             lv_obj_set_width(obj, 100);
 319:lvgl/src/extra/widgets/span/lv_span.c ****         }
 320:lvgl/src/extra/widgets/span/lv_span.c ****         lv_obj_set_height(obj, LV_SIZE_CONTENT);
 321:lvgl/src/extra/widgets/span/lv_span.c ****     }
 322:lvgl/src/extra/widgets/span/lv_span.c ****     else if(spans->mode == LV_SPAN_MODE_FIXED) {
 323:lvgl/src/extra/widgets/span/lv_span.c ****         /* use this mode, The user needs to set the size. */
 324:lvgl/src/extra/widgets/span/lv_span.c ****         /* This is just to prevent an infinite loop. */
 325:lvgl/src/extra/widgets/span/lv_span.c ****         if(lv_obj_get_style_width(obj, LV_PART_MAIN) == LV_SIZE_CONTENT) {
 326:lvgl/src/extra/widgets/span/lv_span.c ****             lv_obj_set_width(obj, 100);
 327:lvgl/src/extra/widgets/span/lv_span.c ****         }
 328:lvgl/src/extra/widgets/span/lv_span.c ****         if(lv_obj_get_style_height(obj, LV_PART_MAIN) == LV_SIZE_CONTENT) {
 329:lvgl/src/extra/widgets/span/lv_span.c ****             lv_coord_t width = lv_obj_get_style_width(obj, LV_PART_MAIN);
 330:lvgl/src/extra/widgets/span/lv_span.c ****             if(LV_COORD_IS_PCT(width)) {
 331:lvgl/src/extra/widgets/span/lv_span.c ****                 width = 100;
 332:lvgl/src/extra/widgets/span/lv_span.c ****             }
 333:lvgl/src/extra/widgets/span/lv_span.c ****             lv_coord_t height = lv_spangroup_get_expand_height(obj, width);
 334:lvgl/src/extra/widgets/span/lv_span.c ****             lv_obj_set_content_height(obj, height);
 335:lvgl/src/extra/widgets/span/lv_span.c ****         }
 336:lvgl/src/extra/widgets/span/lv_span.c ****     }
 337:lvgl/src/extra/widgets/span/lv_span.c **** 
 338:lvgl/src/extra/widgets/span/lv_span.c ****     refresh_self_size(obj);
 339:lvgl/src/extra/widgets/span/lv_span.c **** }
 340:lvgl/src/extra/widgets/span/lv_span.c **** 
 341:lvgl/src/extra/widgets/span/lv_span.c **** lv_coord_t lv_spangroup_get_max_line_h(lv_obj_t * obj)
 342:lvgl/src/extra/widgets/span/lv_span.c **** {
 343:lvgl/src/extra/widgets/span/lv_span.c ****     LV_ASSERT_OBJ(obj, MY_CLASS);
 344:lvgl/src/extra/widgets/span/lv_span.c ****     lv_spangroup_t * spans = (lv_spangroup_t *)obj;
 345:lvgl/src/extra/widgets/span/lv_span.c **** 
 346:lvgl/src/extra/widgets/span/lv_span.c ****     lv_coord_t max_line_h = 0;
 347:lvgl/src/extra/widgets/span/lv_span.c ****     lv_span_t * cur_span;
 348:lvgl/src/extra/widgets/span/lv_span.c ****     _LV_LL_READ(&spans->child_ll, cur_span) {
 349:lvgl/src/extra/widgets/span/lv_span.c ****         const lv_font_t * font = lv_span_get_style_text_font(obj, cur_span);
 350:lvgl/src/extra/widgets/span/lv_span.c ****         lv_coord_t line_h = lv_font_get_line_height(font);
 351:lvgl/src/extra/widgets/span/lv_span.c ****         if(line_h > max_line_h) {
 352:lvgl/src/extra/widgets/span/lv_span.c ****             max_line_h = line_h;
 353:lvgl/src/extra/widgets/span/lv_span.c ****         }
 354:lvgl/src/extra/widgets/span/lv_span.c ****     }
 355:lvgl/src/extra/widgets/span/lv_span.c **** 
 356:lvgl/src/extra/widgets/span/lv_span.c ****     return max_line_h;
 357:lvgl/src/extra/widgets/span/lv_span.c **** }
 358:lvgl/src/extra/widgets/span/lv_span.c **** 
 359:lvgl/src/extra/widgets/span/lv_span.c **** uint32_t lv_spangroup_get_expand_width(lv_obj_t * obj, uint32_t max_width)
 360:lvgl/src/extra/widgets/span/lv_span.c **** {
 361:lvgl/src/extra/widgets/span/lv_span.c ****     LV_ASSERT_OBJ(obj, MY_CLASS);
 362:lvgl/src/extra/widgets/span/lv_span.c ****     lv_spangroup_t * spans = (lv_spangroup_t *)obj;
 363:lvgl/src/extra/widgets/span/lv_span.c **** 
 364:lvgl/src/extra/widgets/span/lv_span.c ****     if(_lv_ll_get_head(&spans->child_ll) == NULL) {
 365:lvgl/src/extra/widgets/span/lv_span.c ****         return 0;
 366:lvgl/src/extra/widgets/span/lv_span.c ****     }
 367:lvgl/src/extra/widgets/span/lv_span.c **** 
 368:lvgl/src/extra/widgets/span/lv_span.c ****     uint32_t width = LV_COORD_IS_PCT(spans->indent) ? 0 : spans->indent;
 369:lvgl/src/extra/widgets/span/lv_span.c ****     lv_span_t * cur_span;
 370:lvgl/src/extra/widgets/span/lv_span.c ****     lv_coord_t letter_space = 0;
 371:lvgl/src/extra/widgets/span/lv_span.c ****     _LV_LL_READ(&spans->child_ll, cur_span) {
 372:lvgl/src/extra/widgets/span/lv_span.c ****         const lv_font_t * font = lv_span_get_style_text_font(obj, cur_span);
 373:lvgl/src/extra/widgets/span/lv_span.c ****         letter_space = lv_span_get_style_text_letter_space(obj, cur_span);
 374:lvgl/src/extra/widgets/span/lv_span.c ****         uint32_t j = 0;
ARM GAS  C:\Users\OSD\AppData\Local\Temp\cc0UtiIx.s 			page 8


 375:lvgl/src/extra/widgets/span/lv_span.c ****         const char * cur_txt = cur_span->txt;
 376:lvgl/src/extra/widgets/span/lv_span.c ****         span_text_check(&cur_txt);
 377:lvgl/src/extra/widgets/span/lv_span.c ****         while(cur_txt[j] != '\0') {
 378:lvgl/src/extra/widgets/span/lv_span.c ****             if(max_width > 0 && width >= max_width) {
 379:lvgl/src/extra/widgets/span/lv_span.c ****                 return max_width;
 380:lvgl/src/extra/widgets/span/lv_span.c ****             }
 381:lvgl/src/extra/widgets/span/lv_span.c ****             uint32_t letter      = _lv_txt_encoded_next(cur_txt, &j);
 382:lvgl/src/extra/widgets/span/lv_span.c ****             uint32_t letter_next = _lv_txt_encoded_next(&cur_txt[j], NULL);
 383:lvgl/src/extra/widgets/span/lv_span.c ****             uint16_t letter_w = lv_font_get_glyph_width(font, letter, letter_next);
 384:lvgl/src/extra/widgets/span/lv_span.c ****             width = width + letter_w + letter_space;
 385:lvgl/src/extra/widgets/span/lv_span.c ****         }
 386:lvgl/src/extra/widgets/span/lv_span.c ****     }
 387:lvgl/src/extra/widgets/span/lv_span.c **** 
 388:lvgl/src/extra/widgets/span/lv_span.c ****     return width - letter_space;
 389:lvgl/src/extra/widgets/span/lv_span.c **** }
 390:lvgl/src/extra/widgets/span/lv_span.c **** 
 391:lvgl/src/extra/widgets/span/lv_span.c **** lv_coord_t lv_spangroup_get_expand_height(lv_obj_t * obj, lv_coord_t width)
 392:lvgl/src/extra/widgets/span/lv_span.c **** {
 393:lvgl/src/extra/widgets/span/lv_span.c ****     LV_ASSERT_OBJ(obj, MY_CLASS);
 394:lvgl/src/extra/widgets/span/lv_span.c ****     lv_spangroup_t * spans = (lv_spangroup_t *)obj;
 395:lvgl/src/extra/widgets/span/lv_span.c ****     if(_lv_ll_get_head(&spans->child_ll) == NULL || width <= 0) {
 396:lvgl/src/extra/widgets/span/lv_span.c ****         return 0;
 397:lvgl/src/extra/widgets/span/lv_span.c ****     }
 398:lvgl/src/extra/widgets/span/lv_span.c **** 
 399:lvgl/src/extra/widgets/span/lv_span.c ****     /* init draw variable */
 400:lvgl/src/extra/widgets/span/lv_span.c ****     lv_text_flag_t txt_flag = LV_TEXT_FLAG_NONE;
 401:lvgl/src/extra/widgets/span/lv_span.c ****     lv_coord_t line_space = lv_obj_get_style_text_line_space(obj, LV_PART_MAIN);
 402:lvgl/src/extra/widgets/span/lv_span.c ****     lv_coord_t max_width = width;
 403:lvgl/src/extra/widgets/span/lv_span.c ****     lv_coord_t indent = convert_indent_pct(obj, max_width);
 404:lvgl/src/extra/widgets/span/lv_span.c ****     lv_coord_t max_w  = max_width - indent; /* first line need minus indent */
 405:lvgl/src/extra/widgets/span/lv_span.c **** 
 406:lvgl/src/extra/widgets/span/lv_span.c ****     /* coords of draw span-txt */
 407:lvgl/src/extra/widgets/span/lv_span.c ****     lv_point_t txt_pos;
 408:lvgl/src/extra/widgets/span/lv_span.c ****     txt_pos.y = 0;
 409:lvgl/src/extra/widgets/span/lv_span.c ****     txt_pos.x = 0 + indent; /* first line need add indent */
 410:lvgl/src/extra/widgets/span/lv_span.c **** 
 411:lvgl/src/extra/widgets/span/lv_span.c ****     lv_span_t * cur_span = _lv_ll_get_head(&spans->child_ll);
 412:lvgl/src/extra/widgets/span/lv_span.c ****     const char * cur_txt = cur_span->txt;
 413:lvgl/src/extra/widgets/span/lv_span.c ****     span_text_check(&cur_txt);
 414:lvgl/src/extra/widgets/span/lv_span.c ****     uint32_t cur_txt_ofs = 0;
 415:lvgl/src/extra/widgets/span/lv_span.c ****     lv_snippet_t snippet;   /* use to save cur_span info and push it to stack */
 416:lvgl/src/extra/widgets/span/lv_span.c ****     memset(&snippet, 0, sizeof(snippet));
 417:lvgl/src/extra/widgets/span/lv_span.c **** 
 418:lvgl/src/extra/widgets/span/lv_span.c ****     int32_t line_cnt = 0;
 419:lvgl/src/extra/widgets/span/lv_span.c ****     int32_t lines = spans->lines < 0 ? INT32_MAX : spans->lines;
 420:lvgl/src/extra/widgets/span/lv_span.c ****     /* the loop control how many lines need to draw */
 421:lvgl/src/extra/widgets/span/lv_span.c ****     while(cur_span) {
 422:lvgl/src/extra/widgets/span/lv_span.c ****         int snippet_cnt = 0;
 423:lvgl/src/extra/widgets/span/lv_span.c ****         lv_coord_t max_line_h = 0;  /* the max height of span-font when a line have a lot of span *
 424:lvgl/src/extra/widgets/span/lv_span.c **** 
 425:lvgl/src/extra/widgets/span/lv_span.c ****         /* the loop control to find a line and push the relevant span info into stack  */
 426:lvgl/src/extra/widgets/span/lv_span.c ****         while(1) {
 427:lvgl/src/extra/widgets/span/lv_span.c ****             /* switch to the next span when current is end */
 428:lvgl/src/extra/widgets/span/lv_span.c ****             if(cur_txt[cur_txt_ofs] == '\0') {
 429:lvgl/src/extra/widgets/span/lv_span.c ****                 cur_span = _lv_ll_get_next(&spans->child_ll, cur_span);
 430:lvgl/src/extra/widgets/span/lv_span.c ****                 if(cur_span == NULL) break;
 431:lvgl/src/extra/widgets/span/lv_span.c ****                 cur_txt = cur_span->txt;
ARM GAS  C:\Users\OSD\AppData\Local\Temp\cc0UtiIx.s 			page 9


 432:lvgl/src/extra/widgets/span/lv_span.c ****                 span_text_check(&cur_txt);
 433:lvgl/src/extra/widgets/span/lv_span.c ****                 cur_txt_ofs = 0;
 434:lvgl/src/extra/widgets/span/lv_span.c ****                 /* maybe also cur_txt[cur_txt_ofs] == '\0' */
 435:lvgl/src/extra/widgets/span/lv_span.c ****                 continue;
 436:lvgl/src/extra/widgets/span/lv_span.c ****             }
 437:lvgl/src/extra/widgets/span/lv_span.c **** 
 438:lvgl/src/extra/widgets/span/lv_span.c ****             /* init span info to snippet. */
 439:lvgl/src/extra/widgets/span/lv_span.c ****             if(cur_txt_ofs == 0) {
 440:lvgl/src/extra/widgets/span/lv_span.c ****                 snippet.span = cur_span;
 441:lvgl/src/extra/widgets/span/lv_span.c ****                 snippet.font = lv_span_get_style_text_font(obj, cur_span);
 442:lvgl/src/extra/widgets/span/lv_span.c ****                 snippet.letter_space = lv_span_get_style_text_letter_space(obj, cur_span);
 443:lvgl/src/extra/widgets/span/lv_span.c ****                 snippet.line_h = lv_font_get_line_height(snippet.font) + line_space;
 444:lvgl/src/extra/widgets/span/lv_span.c ****             }
 445:lvgl/src/extra/widgets/span/lv_span.c **** 
 446:lvgl/src/extra/widgets/span/lv_span.c ****             /* get current span text line info */
 447:lvgl/src/extra/widgets/span/lv_span.c ****             uint32_t next_ofs = 0;
 448:lvgl/src/extra/widgets/span/lv_span.c ****             lv_coord_t use_width = 0;
 449:lvgl/src/extra/widgets/span/lv_span.c ****             bool isfill = lv_txt_get_snippet(&cur_txt[cur_txt_ofs], snippet.font, snippet.letter_sp
 450:lvgl/src/extra/widgets/span/lv_span.c ****                                              max_w, txt_flag, &use_width, &next_ofs);
 451:lvgl/src/extra/widgets/span/lv_span.c **** 
 452:lvgl/src/extra/widgets/span/lv_span.c ****             /* break word deal width */
 453:lvgl/src/extra/widgets/span/lv_span.c ****             if(isfill && next_ofs > 0 && snippet_cnt > 0) {
 454:lvgl/src/extra/widgets/span/lv_span.c ****                 if(max_w < use_width) {
 455:lvgl/src/extra/widgets/span/lv_span.c ****                     break;
 456:lvgl/src/extra/widgets/span/lv_span.c ****                 }
 457:lvgl/src/extra/widgets/span/lv_span.c **** 
 458:lvgl/src/extra/widgets/span/lv_span.c ****                 uint32_t tmp_ofs = next_ofs;
 459:lvgl/src/extra/widgets/span/lv_span.c ****                 uint32_t letter = _lv_txt_encoded_prev(&cur_txt[cur_txt_ofs], &tmp_ofs);
 460:lvgl/src/extra/widgets/span/lv_span.c ****                 if(!(letter == '\0' || letter == '\n' || letter == '\r' || _lv_txt_is_break_char(le
 461:lvgl/src/extra/widgets/span/lv_span.c ****                     tmp_ofs = 0;
 462:lvgl/src/extra/widgets/span/lv_span.c ****                     letter = _lv_txt_encoded_next(&cur_txt[cur_txt_ofs + next_ofs], &tmp_ofs);
 463:lvgl/src/extra/widgets/span/lv_span.c ****                     if(!(letter == '\0' || letter == '\n'  || letter == '\r' || _lv_txt_is_break_ch
 464:lvgl/src/extra/widgets/span/lv_span.c ****                         break;
 465:lvgl/src/extra/widgets/span/lv_span.c ****                     }
 466:lvgl/src/extra/widgets/span/lv_span.c ****                 }
 467:lvgl/src/extra/widgets/span/lv_span.c ****             }
 468:lvgl/src/extra/widgets/span/lv_span.c **** 
 469:lvgl/src/extra/widgets/span/lv_span.c ****             snippet.txt = &cur_txt[cur_txt_ofs];
 470:lvgl/src/extra/widgets/span/lv_span.c ****             snippet.bytes = next_ofs;
 471:lvgl/src/extra/widgets/span/lv_span.c ****             snippet.txt_w = use_width;
 472:lvgl/src/extra/widgets/span/lv_span.c ****             cur_txt_ofs += next_ofs;
 473:lvgl/src/extra/widgets/span/lv_span.c ****             if(max_line_h < snippet.line_h) {
 474:lvgl/src/extra/widgets/span/lv_span.c ****                 max_line_h = snippet.line_h;
 475:lvgl/src/extra/widgets/span/lv_span.c ****             }
 476:lvgl/src/extra/widgets/span/lv_span.c ****             snippet_cnt ++;
 477:lvgl/src/extra/widgets/span/lv_span.c ****             max_w = max_w - use_width - snippet.letter_space;
 478:lvgl/src/extra/widgets/span/lv_span.c ****             if(isfill  || max_w <= 0) {
 479:lvgl/src/extra/widgets/span/lv_span.c ****                 break;
 480:lvgl/src/extra/widgets/span/lv_span.c ****             }
 481:lvgl/src/extra/widgets/span/lv_span.c ****         }
 482:lvgl/src/extra/widgets/span/lv_span.c **** 
 483:lvgl/src/extra/widgets/span/lv_span.c ****         /* next line init */
 484:lvgl/src/extra/widgets/span/lv_span.c ****         txt_pos.x = 0;
 485:lvgl/src/extra/widgets/span/lv_span.c ****         txt_pos.y += max_line_h;
 486:lvgl/src/extra/widgets/span/lv_span.c ****         max_w = max_width;
 487:lvgl/src/extra/widgets/span/lv_span.c ****         line_cnt += 1;
 488:lvgl/src/extra/widgets/span/lv_span.c ****         if(line_cnt >= lines) {
ARM GAS  C:\Users\OSD\AppData\Local\Temp\cc0UtiIx.s 			page 10


 489:lvgl/src/extra/widgets/span/lv_span.c ****             break;
 490:lvgl/src/extra/widgets/span/lv_span.c ****         }
 491:lvgl/src/extra/widgets/span/lv_span.c ****     }
 492:lvgl/src/extra/widgets/span/lv_span.c ****     txt_pos.y -= line_space;
 493:lvgl/src/extra/widgets/span/lv_span.c **** 
 494:lvgl/src/extra/widgets/span/lv_span.c ****     return txt_pos.y;
 495:lvgl/src/extra/widgets/span/lv_span.c **** }
 496:lvgl/src/extra/widgets/span/lv_span.c **** 
 497:lvgl/src/extra/widgets/span/lv_span.c **** /**********************
 498:lvgl/src/extra/widgets/span/lv_span.c ****  *   STATIC FUNCTIONS
 499:lvgl/src/extra/widgets/span/lv_span.c ****  **********************/
 500:lvgl/src/extra/widgets/span/lv_span.c **** 
 501:lvgl/src/extra/widgets/span/lv_span.c **** static void lv_spangroup_constructor(const lv_obj_class_t * class_p, lv_obj_t * obj)
 502:lvgl/src/extra/widgets/span/lv_span.c **** {
 503:lvgl/src/extra/widgets/span/lv_span.c ****     LV_UNUSED(class_p);
 504:lvgl/src/extra/widgets/span/lv_span.c ****     lv_spangroup_t * spans = (lv_spangroup_t *)obj;
 505:lvgl/src/extra/widgets/span/lv_span.c ****     _lv_ll_init(&spans->child_ll, sizeof(lv_span_t));
 506:lvgl/src/extra/widgets/span/lv_span.c ****     spans->indent = 0;
 507:lvgl/src/extra/widgets/span/lv_span.c ****     spans->lines = -1;
 508:lvgl/src/extra/widgets/span/lv_span.c ****     spans->mode = LV_SPAN_MODE_EXPAND;
 509:lvgl/src/extra/widgets/span/lv_span.c ****     spans->overflow = LV_SPAN_OVERFLOW_CLIP;
 510:lvgl/src/extra/widgets/span/lv_span.c ****     spans->cache_w = 0;
 511:lvgl/src/extra/widgets/span/lv_span.c ****     spans->cache_h = 0;
 512:lvgl/src/extra/widgets/span/lv_span.c ****     spans->refresh = 1;
 513:lvgl/src/extra/widgets/span/lv_span.c **** }
 514:lvgl/src/extra/widgets/span/lv_span.c **** 
 515:lvgl/src/extra/widgets/span/lv_span.c **** static void lv_spangroup_destructor(const lv_obj_class_t * class_p, lv_obj_t * obj)
 516:lvgl/src/extra/widgets/span/lv_span.c **** {
 517:lvgl/src/extra/widgets/span/lv_span.c ****     LV_UNUSED(class_p);
 518:lvgl/src/extra/widgets/span/lv_span.c ****     lv_spangroup_t * spans = (lv_spangroup_t *)obj;
 519:lvgl/src/extra/widgets/span/lv_span.c ****     lv_span_t * cur_span = _lv_ll_get_head(&spans->child_ll);
 520:lvgl/src/extra/widgets/span/lv_span.c ****     while(cur_span) {
 521:lvgl/src/extra/widgets/span/lv_span.c ****         _lv_ll_remove(&spans->child_ll, cur_span);
 522:lvgl/src/extra/widgets/span/lv_span.c ****         if(cur_span->txt && cur_span->static_flag == 0) {
 523:lvgl/src/extra/widgets/span/lv_span.c ****             lv_mem_free(cur_span->txt);
 524:lvgl/src/extra/widgets/span/lv_span.c ****         }
 525:lvgl/src/extra/widgets/span/lv_span.c ****         lv_style_reset(&cur_span->style);
 526:lvgl/src/extra/widgets/span/lv_span.c ****         lv_mem_free(cur_span);
 527:lvgl/src/extra/widgets/span/lv_span.c ****         cur_span = _lv_ll_get_head(&spans->child_ll);
 528:lvgl/src/extra/widgets/span/lv_span.c ****     }
 529:lvgl/src/extra/widgets/span/lv_span.c **** }
 530:lvgl/src/extra/widgets/span/lv_span.c **** 
 531:lvgl/src/extra/widgets/span/lv_span.c **** static void lv_spangroup_event(const lv_obj_class_t * class_p, lv_event_t * e)
 532:lvgl/src/extra/widgets/span/lv_span.c **** {
 533:lvgl/src/extra/widgets/span/lv_span.c ****     LV_UNUSED(class_p);
 534:lvgl/src/extra/widgets/span/lv_span.c **** 
 535:lvgl/src/extra/widgets/span/lv_span.c ****     /* Call the ancestor's event handler */
 536:lvgl/src/extra/widgets/span/lv_span.c ****     if(lv_obj_event_base(MY_CLASS, e) != LV_RES_OK) return;
 537:lvgl/src/extra/widgets/span/lv_span.c **** 
 538:lvgl/src/extra/widgets/span/lv_span.c ****     lv_event_code_t code = lv_event_get_code(e);
 539:lvgl/src/extra/widgets/span/lv_span.c ****     lv_obj_t * obj = lv_event_get_target(e);
 540:lvgl/src/extra/widgets/span/lv_span.c ****     lv_spangroup_t * spans = (lv_spangroup_t *)obj;
 541:lvgl/src/extra/widgets/span/lv_span.c **** 
 542:lvgl/src/extra/widgets/span/lv_span.c ****     if(code == LV_EVENT_DRAW_MAIN) {
 543:lvgl/src/extra/widgets/span/lv_span.c ****         draw_main(e);
 544:lvgl/src/extra/widgets/span/lv_span.c ****     }
 545:lvgl/src/extra/widgets/span/lv_span.c ****     else if(code == LV_EVENT_STYLE_CHANGED) {
ARM GAS  C:\Users\OSD\AppData\Local\Temp\cc0UtiIx.s 			page 11


 546:lvgl/src/extra/widgets/span/lv_span.c ****         refresh_self_size(obj);
 547:lvgl/src/extra/widgets/span/lv_span.c ****     }
 548:lvgl/src/extra/widgets/span/lv_span.c ****     else if(code == LV_EVENT_SIZE_CHANGED) {
 549:lvgl/src/extra/widgets/span/lv_span.c ****         refresh_self_size(obj);
 550:lvgl/src/extra/widgets/span/lv_span.c ****     }
 551:lvgl/src/extra/widgets/span/lv_span.c ****     else if(code == LV_EVENT_GET_SELF_SIZE) {
 552:lvgl/src/extra/widgets/span/lv_span.c ****         lv_coord_t width = 0;
 553:lvgl/src/extra/widgets/span/lv_span.c ****         lv_coord_t height = 0;
 554:lvgl/src/extra/widgets/span/lv_span.c ****         lv_point_t * self_size = lv_event_get_param(e);
 555:lvgl/src/extra/widgets/span/lv_span.c **** 
 556:lvgl/src/extra/widgets/span/lv_span.c ****         if(spans->mode == LV_SPAN_MODE_EXPAND) {
 557:lvgl/src/extra/widgets/span/lv_span.c ****             if(spans->refresh) {
 558:lvgl/src/extra/widgets/span/lv_span.c ****                 spans->cache_w = (lv_coord_t)lv_spangroup_get_expand_width(obj, 0);
 559:lvgl/src/extra/widgets/span/lv_span.c ****                 spans->cache_h = lv_spangroup_get_max_line_h(obj);
 560:lvgl/src/extra/widgets/span/lv_span.c ****                 spans->refresh = 0;
 561:lvgl/src/extra/widgets/span/lv_span.c ****             }
 562:lvgl/src/extra/widgets/span/lv_span.c ****             width = spans->cache_w;
 563:lvgl/src/extra/widgets/span/lv_span.c ****             height = spans->cache_h;
 564:lvgl/src/extra/widgets/span/lv_span.c ****         }
 565:lvgl/src/extra/widgets/span/lv_span.c ****         else if(spans->mode == LV_SPAN_MODE_BREAK) {
 566:lvgl/src/extra/widgets/span/lv_span.c ****             width = lv_obj_get_content_width(obj);
 567:lvgl/src/extra/widgets/span/lv_span.c ****             if(self_size->y >= 0) {
 568:lvgl/src/extra/widgets/span/lv_span.c ****                 if(width != spans->cache_w || spans->refresh) {
 569:lvgl/src/extra/widgets/span/lv_span.c ****                     height = lv_spangroup_get_expand_height(obj, width);
 570:lvgl/src/extra/widgets/span/lv_span.c ****                     spans->cache_w = width;
 571:lvgl/src/extra/widgets/span/lv_span.c ****                     spans->cache_h = height;
 572:lvgl/src/extra/widgets/span/lv_span.c ****                     spans->refresh = 0;
 573:lvgl/src/extra/widgets/span/lv_span.c ****                 }
 574:lvgl/src/extra/widgets/span/lv_span.c ****                 else {
 575:lvgl/src/extra/widgets/span/lv_span.c ****                     height = spans->cache_h;
 576:lvgl/src/extra/widgets/span/lv_span.c ****                 }
 577:lvgl/src/extra/widgets/span/lv_span.c ****             }
 578:lvgl/src/extra/widgets/span/lv_span.c ****         }
 579:lvgl/src/extra/widgets/span/lv_span.c ****         else if(spans->mode == LV_SPAN_MODE_FIXED) {
 580:lvgl/src/extra/widgets/span/lv_span.c ****             width =  self_size->x >= 0 ? lv_obj_get_content_width(obj) : 0;
 581:lvgl/src/extra/widgets/span/lv_span.c ****             height = self_size->y >= 0 ? lv_obj_get_content_height(obj) : 0;
 582:lvgl/src/extra/widgets/span/lv_span.c ****         }
 583:lvgl/src/extra/widgets/span/lv_span.c ****         self_size->x = LV_MAX(self_size->x, width);
 584:lvgl/src/extra/widgets/span/lv_span.c ****         self_size->y = LV_MAX(self_size->y, height);
 585:lvgl/src/extra/widgets/span/lv_span.c ****     }
 586:lvgl/src/extra/widgets/span/lv_span.c **** }
 587:lvgl/src/extra/widgets/span/lv_span.c **** 
 588:lvgl/src/extra/widgets/span/lv_span.c **** static void draw_main(lv_event_t * e)
 589:lvgl/src/extra/widgets/span/lv_span.c **** {
 590:lvgl/src/extra/widgets/span/lv_span.c ****     lv_obj_t * obj = lv_event_get_target(e);
 591:lvgl/src/extra/widgets/span/lv_span.c ****     lv_draw_ctx_t * draw_ctx = lv_event_get_draw_ctx(e);
 592:lvgl/src/extra/widgets/span/lv_span.c **** 
 593:lvgl/src/extra/widgets/span/lv_span.c ****     lv_draw_span(obj, draw_ctx);
 594:lvgl/src/extra/widgets/span/lv_span.c **** }
 595:lvgl/src/extra/widgets/span/lv_span.c **** 
 596:lvgl/src/extra/widgets/span/lv_span.c **** /**
 597:lvgl/src/extra/widgets/span/lv_span.c ****  * @return true for txt fill the max_width.
 598:lvgl/src/extra/widgets/span/lv_span.c ****  */
 599:lvgl/src/extra/widgets/span/lv_span.c **** static bool lv_txt_get_snippet(const char * txt, const lv_font_t * font,
 600:lvgl/src/extra/widgets/span/lv_span.c ****                                lv_coord_t letter_space, lv_coord_t max_width, lv_text_flag_t flag,
 601:lvgl/src/extra/widgets/span/lv_span.c ****                                lv_coord_t * use_width, uint32_t * end_ofs)
 602:lvgl/src/extra/widgets/span/lv_span.c **** {
ARM GAS  C:\Users\OSD\AppData\Local\Temp\cc0UtiIx.s 			page 12


 603:lvgl/src/extra/widgets/span/lv_span.c ****     if(txt == NULL || txt[0] == '\0') {
 604:lvgl/src/extra/widgets/span/lv_span.c ****         *end_ofs = 0;
 605:lvgl/src/extra/widgets/span/lv_span.c ****         *use_width = 0;
 606:lvgl/src/extra/widgets/span/lv_span.c ****         return false;
 607:lvgl/src/extra/widgets/span/lv_span.c ****     }
 608:lvgl/src/extra/widgets/span/lv_span.c **** 
 609:lvgl/src/extra/widgets/span/lv_span.c ****     uint32_t ofs = _lv_txt_get_next_line(txt, font, letter_space, max_width, use_width, flag);
 610:lvgl/src/extra/widgets/span/lv_span.c ****     *end_ofs = ofs;
 611:lvgl/src/extra/widgets/span/lv_span.c **** 
 612:lvgl/src/extra/widgets/span/lv_span.c ****     if(txt[ofs] == '\0' && *use_width < max_width) {
 613:lvgl/src/extra/widgets/span/lv_span.c ****         return false;
 614:lvgl/src/extra/widgets/span/lv_span.c ****     }
 615:lvgl/src/extra/widgets/span/lv_span.c ****     else {
 616:lvgl/src/extra/widgets/span/lv_span.c ****         return true;
 617:lvgl/src/extra/widgets/span/lv_span.c ****     }
 618:lvgl/src/extra/widgets/span/lv_span.c **** }
 619:lvgl/src/extra/widgets/span/lv_span.c **** 
 620:lvgl/src/extra/widgets/span/lv_span.c **** static void lv_snippet_push(lv_snippet_t * item)
 621:lvgl/src/extra/widgets/span/lv_span.c **** {
 622:lvgl/src/extra/widgets/span/lv_span.c ****     if(snippet_stack.index < LV_SPAN_SNIPPET_STACK_SIZE) {
 623:lvgl/src/extra/widgets/span/lv_span.c ****         memcpy(&snippet_stack.stack[snippet_stack.index], item, sizeof(lv_snippet_t));
 624:lvgl/src/extra/widgets/span/lv_span.c ****         snippet_stack.index++;
 625:lvgl/src/extra/widgets/span/lv_span.c ****     }
 626:lvgl/src/extra/widgets/span/lv_span.c ****     else {
 627:lvgl/src/extra/widgets/span/lv_span.c ****         LV_LOG_ERROR("span draw stack overflow, please set LV_SPAN_SNIPPET_STACK_SIZE too larger");
 628:lvgl/src/extra/widgets/span/lv_span.c ****     }
 629:lvgl/src/extra/widgets/span/lv_span.c **** }
 630:lvgl/src/extra/widgets/span/lv_span.c **** 
 631:lvgl/src/extra/widgets/span/lv_span.c **** static uint16_t lv_get_snippet_cnt(void)
 632:lvgl/src/extra/widgets/span/lv_span.c **** {
  27              		.loc 1 632 1 view -0
  28              		.cfi_startproc
  29              		@ args = 0, pretend = 0, frame = 0
  30              		@ frame_needed = 0, uses_anonymous_args = 0
  31              		@ link register save eliminated.
 633:lvgl/src/extra/widgets/span/lv_span.c ****     return snippet_stack.index;
  32              		.loc 1 633 5 view .LVU1
 634:lvgl/src/extra/widgets/span/lv_span.c **** }
  33              		.loc 1 634 1 is_stmt 0 view .LVU2
  34 0000 014B     		ldr	r3, .L2
  35 0002 B3F80005 		ldrh	r0, [r3, #1280]
  36 0006 7047     		bx	lr
  37              	.L3:
  38              		.align	2
  39              	.L2:
  40 0008 00000000 		.word	.LANCHOR0
  41              		.cfi_endproc
  42              	.LFE231:
  44              		.section	.text.lv_get_snippet,"ax",%progbits
  45              		.align	1
  46              		.syntax unified
  47              		.thumb
  48              		.thumb_func
  50              	lv_get_snippet:
  51              	.LVL0:
  52              	.LFB232:
 635:lvgl/src/extra/widgets/span/lv_span.c **** 
ARM GAS  C:\Users\OSD\AppData\Local\Temp\cc0UtiIx.s 			page 13


 636:lvgl/src/extra/widgets/span/lv_span.c **** static lv_snippet_t * lv_get_snippet(uint16_t index)
 637:lvgl/src/extra/widgets/span/lv_span.c **** {
  53              		.loc 1 637 1 is_stmt 1 view -0
  54              		.cfi_startproc
  55              		@ args = 0, pretend = 0, frame = 0
  56              		@ frame_needed = 0, uses_anonymous_args = 0
  57              		@ link register save eliminated.
 638:lvgl/src/extra/widgets/span/lv_span.c ****     return &snippet_stack.stack[index];
  58              		.loc 1 638 5 view .LVU4
  59              		.loc 1 638 12 is_stmt 0 view .LVU5
  60 0000 00EB8000 		add	r0, r0, r0, lsl #2
  61              	.LVL1:
 639:lvgl/src/extra/widgets/span/lv_span.c **** }
  62              		.loc 1 639 1 view .LVU6
  63 0004 014B     		ldr	r3, .L5
  64 0006 03EB8000 		add	r0, r3, r0, lsl #2
  65 000a 7047     		bx	lr
  66              	.L6:
  67              		.align	2
  68              	.L5:
  69 000c 00000000 		.word	.LANCHOR0
  70              		.cfi_endproc
  71              	.LFE232:
  73              		.section	.text.lv_snippet_clear,"ax",%progbits
  74              		.align	1
  75              		.syntax unified
  76              		.thumb
  77              		.thumb_func
  79              	lv_snippet_clear:
  80              	.LFB233:
 640:lvgl/src/extra/widgets/span/lv_span.c **** 
 641:lvgl/src/extra/widgets/span/lv_span.c **** static void lv_snippet_clear(void)
 642:lvgl/src/extra/widgets/span/lv_span.c **** {
  81              		.loc 1 642 1 is_stmt 1 view -0
  82              		.cfi_startproc
  83              		@ args = 0, pretend = 0, frame = 0
  84              		@ frame_needed = 0, uses_anonymous_args = 0
  85              		@ link register save eliminated.
 643:lvgl/src/extra/widgets/span/lv_span.c ****     snippet_stack.index = 0;
  86              		.loc 1 643 5 view .LVU8
  87              		.loc 1 643 25 is_stmt 0 view .LVU9
  88 0000 024B     		ldr	r3, .L8
  89 0002 0022     		movs	r2, #0
  90 0004 A3F80025 		strh	r2, [r3, #1280]	@ movhi
 644:lvgl/src/extra/widgets/span/lv_span.c **** }
  91              		.loc 1 644 1 view .LVU10
  92 0008 7047     		bx	lr
  93              	.L9:
  94 000a 00BF     		.align	2
  95              	.L8:
  96 000c 00000000 		.word	.LANCHOR0
  97              		.cfi_endproc
  98              	.LFE233:
 100              		.section	.text.convert_indent_pct,"ax",%progbits
 101              		.align	1
 102              		.syntax unified
 103              		.thumb
ARM GAS  C:\Users\OSD\AppData\Local\Temp\cc0UtiIx.s 			page 14


 104              		.thumb_func
 106              	convert_indent_pct:
 107              	.LVL2:
 108              	.LFB241:
 645:lvgl/src/extra/widgets/span/lv_span.c **** 
 646:lvgl/src/extra/widgets/span/lv_span.c **** static const lv_font_t * lv_span_get_style_text_font(lv_obj_t * par, lv_span_t * span)
 647:lvgl/src/extra/widgets/span/lv_span.c **** {
 648:lvgl/src/extra/widgets/span/lv_span.c ****     const lv_font_t * font;
 649:lvgl/src/extra/widgets/span/lv_span.c ****     lv_style_value_t value;
 650:lvgl/src/extra/widgets/span/lv_span.c ****     lv_res_t res = lv_style_get_prop(&span->style, LV_STYLE_TEXT_FONT, &value);
 651:lvgl/src/extra/widgets/span/lv_span.c ****     if(res != LV_RES_OK) {
 652:lvgl/src/extra/widgets/span/lv_span.c ****         font = lv_obj_get_style_text_font(par, LV_PART_MAIN);
 653:lvgl/src/extra/widgets/span/lv_span.c ****     }
 654:lvgl/src/extra/widgets/span/lv_span.c ****     else {
 655:lvgl/src/extra/widgets/span/lv_span.c ****         font = (const lv_font_t *)value.ptr;
 656:lvgl/src/extra/widgets/span/lv_span.c ****     }
 657:lvgl/src/extra/widgets/span/lv_span.c ****     return font;
 658:lvgl/src/extra/widgets/span/lv_span.c **** }
 659:lvgl/src/extra/widgets/span/lv_span.c **** 
 660:lvgl/src/extra/widgets/span/lv_span.c **** static lv_coord_t lv_span_get_style_text_letter_space(lv_obj_t * par, lv_span_t * span)
 661:lvgl/src/extra/widgets/span/lv_span.c **** {
 662:lvgl/src/extra/widgets/span/lv_span.c ****     lv_coord_t letter_space;
 663:lvgl/src/extra/widgets/span/lv_span.c ****     lv_style_value_t value;
 664:lvgl/src/extra/widgets/span/lv_span.c ****     lv_res_t res = lv_style_get_prop(&span->style, LV_STYLE_TEXT_LETTER_SPACE, &value);
 665:lvgl/src/extra/widgets/span/lv_span.c ****     if(res != LV_RES_OK) {
 666:lvgl/src/extra/widgets/span/lv_span.c ****         letter_space = lv_obj_get_style_text_letter_space(par, LV_PART_MAIN);
 667:lvgl/src/extra/widgets/span/lv_span.c ****     }
 668:lvgl/src/extra/widgets/span/lv_span.c ****     else {
 669:lvgl/src/extra/widgets/span/lv_span.c ****         letter_space = (lv_coord_t)value.num;
 670:lvgl/src/extra/widgets/span/lv_span.c ****     }
 671:lvgl/src/extra/widgets/span/lv_span.c ****     return letter_space;
 672:lvgl/src/extra/widgets/span/lv_span.c **** }
 673:lvgl/src/extra/widgets/span/lv_span.c **** 
 674:lvgl/src/extra/widgets/span/lv_span.c **** static lv_color_t lv_span_get_style_text_color(lv_obj_t * par, lv_span_t * span)
 675:lvgl/src/extra/widgets/span/lv_span.c **** {
 676:lvgl/src/extra/widgets/span/lv_span.c ****     lv_style_value_t value;
 677:lvgl/src/extra/widgets/span/lv_span.c ****     lv_res_t res = lv_style_get_prop(&span->style, LV_STYLE_TEXT_COLOR, &value);
 678:lvgl/src/extra/widgets/span/lv_span.c ****     if(res != LV_RES_OK) {
 679:lvgl/src/extra/widgets/span/lv_span.c ****         value.color = lv_obj_get_style_text_color(par, LV_PART_MAIN);
 680:lvgl/src/extra/widgets/span/lv_span.c ****     }
 681:lvgl/src/extra/widgets/span/lv_span.c ****     return value.color;
 682:lvgl/src/extra/widgets/span/lv_span.c **** }
 683:lvgl/src/extra/widgets/span/lv_span.c **** 
 684:lvgl/src/extra/widgets/span/lv_span.c **** static lv_opa_t lv_span_get_style_text_opa(lv_obj_t * par, lv_span_t * span)
 685:lvgl/src/extra/widgets/span/lv_span.c **** {
 686:lvgl/src/extra/widgets/span/lv_span.c ****     lv_opa_t opa;
 687:lvgl/src/extra/widgets/span/lv_span.c ****     lv_style_value_t value;
 688:lvgl/src/extra/widgets/span/lv_span.c ****     lv_res_t res = lv_style_get_prop(&span->style, LV_STYLE_TEXT_OPA, &value);
 689:lvgl/src/extra/widgets/span/lv_span.c ****     if(res != LV_RES_OK) {
 690:lvgl/src/extra/widgets/span/lv_span.c ****         opa = (lv_opa_t)lv_obj_get_style_text_opa(par, LV_PART_MAIN);
 691:lvgl/src/extra/widgets/span/lv_span.c ****     }
 692:lvgl/src/extra/widgets/span/lv_span.c ****     else {
 693:lvgl/src/extra/widgets/span/lv_span.c ****         opa = (lv_opa_t)value.num;
 694:lvgl/src/extra/widgets/span/lv_span.c ****     }
 695:lvgl/src/extra/widgets/span/lv_span.c ****     return opa;
 696:lvgl/src/extra/widgets/span/lv_span.c **** }
 697:lvgl/src/extra/widgets/span/lv_span.c **** 
ARM GAS  C:\Users\OSD\AppData\Local\Temp\cc0UtiIx.s 			page 15


 698:lvgl/src/extra/widgets/span/lv_span.c **** static lv_blend_mode_t lv_span_get_style_text_blend_mode(lv_obj_t * par, lv_span_t * span)
 699:lvgl/src/extra/widgets/span/lv_span.c **** {
 700:lvgl/src/extra/widgets/span/lv_span.c ****     lv_blend_mode_t mode;
 701:lvgl/src/extra/widgets/span/lv_span.c ****     lv_style_value_t value;
 702:lvgl/src/extra/widgets/span/lv_span.c ****     lv_res_t res = lv_style_get_prop(&span->style, LV_STYLE_BLEND_MODE, &value);
 703:lvgl/src/extra/widgets/span/lv_span.c ****     if(res != LV_RES_OK) {
 704:lvgl/src/extra/widgets/span/lv_span.c ****         mode = (lv_blend_mode_t)lv_obj_get_style_blend_mode(par, LV_PART_MAIN);
 705:lvgl/src/extra/widgets/span/lv_span.c ****     }
 706:lvgl/src/extra/widgets/span/lv_span.c ****     else {
 707:lvgl/src/extra/widgets/span/lv_span.c ****         mode = (lv_blend_mode_t)value.num;
 708:lvgl/src/extra/widgets/span/lv_span.c ****     }
 709:lvgl/src/extra/widgets/span/lv_span.c ****     return mode;
 710:lvgl/src/extra/widgets/span/lv_span.c **** }
 711:lvgl/src/extra/widgets/span/lv_span.c **** 
 712:lvgl/src/extra/widgets/span/lv_span.c **** static int32_t lv_span_get_style_text_decor(lv_obj_t * par, lv_span_t * span)
 713:lvgl/src/extra/widgets/span/lv_span.c **** {
 714:lvgl/src/extra/widgets/span/lv_span.c ****     int32_t decor;
 715:lvgl/src/extra/widgets/span/lv_span.c ****     lv_style_value_t value;
 716:lvgl/src/extra/widgets/span/lv_span.c ****     lv_res_t res = lv_style_get_prop(&span->style, LV_STYLE_TEXT_DECOR, &value);
 717:lvgl/src/extra/widgets/span/lv_span.c ****     if(res != LV_RES_OK) {
 718:lvgl/src/extra/widgets/span/lv_span.c ****         decor = (lv_text_decor_t)lv_obj_get_style_text_decor(par, LV_PART_MAIN);;
 719:lvgl/src/extra/widgets/span/lv_span.c ****     }
 720:lvgl/src/extra/widgets/span/lv_span.c ****     else {
 721:lvgl/src/extra/widgets/span/lv_span.c ****         decor = (int32_t)value.num;
 722:lvgl/src/extra/widgets/span/lv_span.c ****     }
 723:lvgl/src/extra/widgets/span/lv_span.c ****     return decor;
 724:lvgl/src/extra/widgets/span/lv_span.c **** }
 725:lvgl/src/extra/widgets/span/lv_span.c **** 
 726:lvgl/src/extra/widgets/span/lv_span.c **** static inline void span_text_check(const char ** text)
 727:lvgl/src/extra/widgets/span/lv_span.c **** {
 728:lvgl/src/extra/widgets/span/lv_span.c ****     if(*text == NULL) {
 729:lvgl/src/extra/widgets/span/lv_span.c ****         *text = "";
 730:lvgl/src/extra/widgets/span/lv_span.c ****         LV_LOG_ERROR("occur an error that span text == NULL");
 731:lvgl/src/extra/widgets/span/lv_span.c ****     }
 732:lvgl/src/extra/widgets/span/lv_span.c **** }
 733:lvgl/src/extra/widgets/span/lv_span.c **** 
 734:lvgl/src/extra/widgets/span/lv_span.c **** static lv_coord_t convert_indent_pct(lv_obj_t * obj, lv_coord_t width)
 735:lvgl/src/extra/widgets/span/lv_span.c **** {
 109              		.loc 1 735 1 is_stmt 1 view -0
 110              		.cfi_startproc
 111              		@ args = 0, pretend = 0, frame = 0
 112              		@ frame_needed = 0, uses_anonymous_args = 0
 113              		@ link register save eliminated.
 114              		.loc 1 735 1 is_stmt 0 view .LVU12
 115 0000 0346     		mov	r3, r0
 736:lvgl/src/extra/widgets/span/lv_span.c ****     lv_spangroup_t * spans = (lv_spangroup_t *)obj;
 116              		.loc 1 736 5 is_stmt 1 view .LVU13
 117              	.LVL3:
 737:lvgl/src/extra/widgets/span/lv_span.c **** 
 738:lvgl/src/extra/widgets/span/lv_span.c ****     lv_coord_t indent = spans->indent;
 118              		.loc 1 738 5 view .LVU14
 119              		.loc 1 738 16 is_stmt 0 view .LVU15
 120 0002 B0F92800 		ldrsh	r0, [r0, #40]
 121              	.LVL4:
 739:lvgl/src/extra/widgets/span/lv_span.c ****     if(LV_COORD_IS_PCT(spans->indent)) {
 122              		.loc 1 739 5 is_stmt 1 view .LVU16
 123              		.loc 1 739 7 is_stmt 0 view .LVU17
ARM GAS  C:\Users\OSD\AppData\Local\Temp\cc0UtiIx.s 			page 16


 124 0006 00F4C042 		and	r2, r0, #24576
 125 000a B2F5005F 		cmp	r2, #8192
 126 000e 00D0     		beq	.L15
 127              	.LVL5:
 128              	.L11:
 740:lvgl/src/extra/widgets/span/lv_span.c ****         if(spans->mode == LV_SPAN_MODE_EXPAND) {
 741:lvgl/src/extra/widgets/span/lv_span.c ****             indent = 0;
 742:lvgl/src/extra/widgets/span/lv_span.c ****         }
 743:lvgl/src/extra/widgets/span/lv_span.c ****         else {
 744:lvgl/src/extra/widgets/span/lv_span.c ****             indent = (width * LV_COORD_GET_PCT(spans->indent)) / 100;
 745:lvgl/src/extra/widgets/span/lv_span.c ****         }
 746:lvgl/src/extra/widgets/span/lv_span.c ****     }
 747:lvgl/src/extra/widgets/span/lv_span.c **** 
 748:lvgl/src/extra/widgets/span/lv_span.c ****     return indent;
 129              		.loc 1 748 5 is_stmt 1 view .LVU18
 749:lvgl/src/extra/widgets/span/lv_span.c **** }
 130              		.loc 1 749 1 is_stmt 0 view .LVU19
 131 0010 7047     		bx	lr
 132              	.LVL6:
 133              	.L15:
 739:lvgl/src/extra/widgets/span/lv_span.c ****     if(LV_COORD_IS_PCT(spans->indent)) {
 134              		.loc 1 739 8 discriminator 1 view .LVU20
 135 0012 20F4C042 		bic	r2, r0, #24576
 136 0016 B2F5FA6F 		cmp	r2, #2000
 137 001a F9DC     		bgt	.L11
 740:lvgl/src/extra/widgets/span/lv_span.c ****         if(spans->mode == LV_SPAN_MODE_EXPAND) {
 138              		.loc 1 740 9 is_stmt 1 view .LVU21
 740:lvgl/src/extra/widgets/span/lv_span.c ****         if(spans->mode == LV_SPAN_MODE_EXPAND) {
 139              		.loc 1 740 24 is_stmt 0 view .LVU22
 140 001c 93F83C30 		ldrb	r3, [r3, #60]	@ zero_extendqisi2
 141              	.LVL7:
 740:lvgl/src/extra/widgets/span/lv_span.c ****         if(spans->mode == LV_SPAN_MODE_EXPAND) {
 142              		.loc 1 740 24 view .LVU23
 143 0020 03F00303 		and	r3, r3, #3
 740:lvgl/src/extra/widgets/span/lv_span.c ****         if(spans->mode == LV_SPAN_MODE_EXPAND) {
 144              		.loc 1 740 11 view .LVU24
 145 0024 012B     		cmp	r3, #1
 146 0026 0ED0     		beq	.L14
 744:lvgl/src/extra/widgets/span/lv_span.c ****         }
 147              		.loc 1 744 13 is_stmt 1 view .LVU25
 744:lvgl/src/extra/widgets/span/lv_span.c ****         }
 148              		.loc 1 744 31 is_stmt 0 view .LVU26
 149 0028 B2F57A7F 		cmp	r2, #1000
 150 002c 01DD     		ble	.L13
 744:lvgl/src/extra/widgets/span/lv_span.c ****         }
 151              		.loc 1 744 31 discriminator 1 view .LVU27
 152 002e C2F57A72 		rsb	r2, r2, #1000
 153              	.L13:
 744:lvgl/src/extra/widgets/span/lv_span.c ****         }
 154              		.loc 1 744 29 discriminator 4 view .LVU28
 155 0032 02FB01F1 		mul	r1, r2, r1
 156              	.LVL8:
 744:lvgl/src/extra/widgets/span/lv_span.c ****         }
 157              		.loc 1 744 64 discriminator 4 view .LVU29
 158 0036 0548     		ldr	r0, .L16
 159              	.LVL9:
 744:lvgl/src/extra/widgets/span/lv_span.c ****         }
ARM GAS  C:\Users\OSD\AppData\Local\Temp\cc0UtiIx.s 			page 17


 160              		.loc 1 744 64 discriminator 4 view .LVU30
 161 0038 80FB0130 		smull	r3, r0, r0, r1
 162 003c C917     		asrs	r1, r1, #31
 163 003e C1EB6011 		rsb	r1, r1, r0, asr #5
 744:lvgl/src/extra/widgets/span/lv_span.c ****         }
 164              		.loc 1 744 20 discriminator 4 view .LVU31
 165 0042 08B2     		sxth	r0, r1
 166              	.LVL10:
 744:lvgl/src/extra/widgets/span/lv_span.c ****         }
 167              		.loc 1 744 20 discriminator 4 view .LVU32
 168 0044 7047     		bx	lr
 169              	.LVL11:
 170              	.L14:
 741:lvgl/src/extra/widgets/span/lv_span.c ****         }
 171              		.loc 1 741 20 view .LVU33
 172 0046 0020     		movs	r0, #0
 173              	.LVL12:
 741:lvgl/src/extra/widgets/span/lv_span.c ****         }
 174              		.loc 1 741 20 view .LVU34
 175 0048 E2E7     		b	.L11
 176              	.L17:
 177 004a 00BF     		.align	2
 178              	.L16:
 179 004c 1F85EB51 		.word	1374389535
 180              		.cfi_endproc
 181              	.LFE241:
 183              		.section	.text.lv_span_get_style_text_letter_space,"ax",%progbits
 184              		.align	1
 185              		.syntax unified
 186              		.thumb
 187              		.thumb_func
 189              	lv_span_get_style_text_letter_space:
 190              	.LVL13:
 191              	.LFB235:
 661:lvgl/src/extra/widgets/span/lv_span.c ****     lv_coord_t letter_space;
 192              		.loc 1 661 1 is_stmt 1 view -0
 193              		.cfi_startproc
 194              		@ args = 0, pretend = 0, frame = 8
 195              		@ frame_needed = 0, uses_anonymous_args = 0
 661:lvgl/src/extra/widgets/span/lv_span.c ****     lv_coord_t letter_space;
 196              		.loc 1 661 1 is_stmt 0 view .LVU36
 197 0000 10B5     		push	{r4, lr}
 198              		.cfi_def_cfa_offset 8
 199              		.cfi_offset 4, -8
 200              		.cfi_offset 14, -4
 201 0002 82B0     		sub	sp, sp, #8
 202              		.cfi_def_cfa_offset 16
 203 0004 0446     		mov	r4, r0
 204 0006 0846     		mov	r0, r1
 205              	.LVL14:
 662:lvgl/src/extra/widgets/span/lv_span.c ****     lv_style_value_t value;
 206              		.loc 1 662 5 is_stmt 1 view .LVU37
 663:lvgl/src/extra/widgets/span/lv_span.c ****     lv_res_t res = lv_style_get_prop(&span->style, LV_STYLE_TEXT_LETTER_SPACE, &value);
 207              		.loc 1 663 5 view .LVU38
 664:lvgl/src/extra/widgets/span/lv_span.c ****     if(res != LV_RES_OK) {
 208              		.loc 1 664 5 view .LVU39
 664:lvgl/src/extra/widgets/span/lv_span.c ****     if(res != LV_RES_OK) {
ARM GAS  C:\Users\OSD\AppData\Local\Temp\cc0UtiIx.s 			page 18


 209              		.loc 1 664 20 is_stmt 0 view .LVU40
 210 0008 01AA     		add	r2, sp, #4
 211 000a 5821     		movs	r1, #88
 212              	.LVL15:
 664:lvgl/src/extra/widgets/span/lv_span.c ****     if(res != LV_RES_OK) {
 213              		.loc 1 664 20 view .LVU41
 214 000c 0830     		adds	r0, r0, #8
 215              	.LVL16:
 664:lvgl/src/extra/widgets/span/lv_span.c ****     if(res != LV_RES_OK) {
 216              		.loc 1 664 20 view .LVU42
 217 000e FFF7FEFF 		bl	lv_style_get_prop
 218              	.LVL17:
 665:lvgl/src/extra/widgets/span/lv_span.c ****         letter_space = lv_obj_get_style_text_letter_space(par, LV_PART_MAIN);
 219              		.loc 1 665 5 is_stmt 1 view .LVU43
 665:lvgl/src/extra/widgets/span/lv_span.c ****         letter_space = lv_obj_get_style_text_letter_space(par, LV_PART_MAIN);
 220              		.loc 1 665 7 is_stmt 0 view .LVU44
 221 0012 0128     		cmp	r0, #1
 222 0014 03D1     		bne	.L22
 669:lvgl/src/extra/widgets/span/lv_span.c ****     }
 223              		.loc 1 669 9 is_stmt 1 view .LVU45
 669:lvgl/src/extra/widgets/span/lv_span.c ****     }
 224              		.loc 1 669 22 is_stmt 0 view .LVU46
 225 0016 BDF90400 		ldrsh	r0, [sp, #4]
 226              	.LVL18:
 227              	.L20:
 671:lvgl/src/extra/widgets/span/lv_span.c **** }
 228              		.loc 1 671 5 is_stmt 1 view .LVU47
 672:lvgl/src/extra/widgets/span/lv_span.c **** 
 229              		.loc 1 672 1 is_stmt 0 view .LVU48
 230 001a 02B0     		add	sp, sp, #8
 231              		.cfi_remember_state
 232              		.cfi_def_cfa_offset 8
 233              		@ sp needed
 234 001c 10BD     		pop	{r4, pc}
 235              	.LVL19:
 236              	.L22:
 237              		.cfi_restore_state
 666:lvgl/src/extra/widgets/span/lv_span.c ****     }
 238              		.loc 1 666 9 is_stmt 1 view .LVU49
 239              	.LBB79:
 240              	.LBI79:
 241              		.file 2 "d:\\kzc\\stm32\\h743ii_lcd\\lvgl\\src/core/lv_obj_style_gen.h"
   1:d:\kzc\stm32\h743ii_lcd\lvgl\src/core\lv_obj_style_gen.h **** static inline lv_coord_t lv_obj_get_style_width(const struct _lv_obj_t * obj, uint32_t part)
   2:d:\kzc\stm32\h743ii_lcd\lvgl\src/core\lv_obj_style_gen.h **** {
   3:d:\kzc\stm32\h743ii_lcd\lvgl\src/core\lv_obj_style_gen.h ****     lv_style_value_t v = lv_obj_get_style_prop(obj, part, LV_STYLE_WIDTH);
   4:d:\kzc\stm32\h743ii_lcd\lvgl\src/core\lv_obj_style_gen.h ****     return (lv_coord_t)v.num;
   5:d:\kzc\stm32\h743ii_lcd\lvgl\src/core\lv_obj_style_gen.h **** }
   6:d:\kzc\stm32\h743ii_lcd\lvgl\src/core\lv_obj_style_gen.h **** 
   7:d:\kzc\stm32\h743ii_lcd\lvgl\src/core\lv_obj_style_gen.h **** static inline lv_coord_t lv_obj_get_style_min_width(const struct _lv_obj_t * obj, uint32_t part)
   8:d:\kzc\stm32\h743ii_lcd\lvgl\src/core\lv_obj_style_gen.h **** {
   9:d:\kzc\stm32\h743ii_lcd\lvgl\src/core\lv_obj_style_gen.h ****     lv_style_value_t v = lv_obj_get_style_prop(obj, part, LV_STYLE_MIN_WIDTH);
  10:d:\kzc\stm32\h743ii_lcd\lvgl\src/core\lv_obj_style_gen.h ****     return (lv_coord_t)v.num;
  11:d:\kzc\stm32\h743ii_lcd\lvgl\src/core\lv_obj_style_gen.h **** }
  12:d:\kzc\stm32\h743ii_lcd\lvgl\src/core\lv_obj_style_gen.h **** 
  13:d:\kzc\stm32\h743ii_lcd\lvgl\src/core\lv_obj_style_gen.h **** static inline lv_coord_t lv_obj_get_style_max_width(const struct _lv_obj_t * obj, uint32_t part)
  14:d:\kzc\stm32\h743ii_lcd\lvgl\src/core\lv_obj_style_gen.h **** {
  15:d:\kzc\stm32\h743ii_lcd\lvgl\src/core\lv_obj_style_gen.h ****     lv_style_value_t v = lv_obj_get_style_prop(obj, part, LV_STYLE_MAX_WIDTH);
ARM GAS  C:\Users\OSD\AppData\Local\Temp\cc0UtiIx.s 			page 19


  16:d:\kzc\stm32\h743ii_lcd\lvgl\src/core\lv_obj_style_gen.h ****     return (lv_coord_t)v.num;
  17:d:\kzc\stm32\h743ii_lcd\lvgl\src/core\lv_obj_style_gen.h **** }
  18:d:\kzc\stm32\h743ii_lcd\lvgl\src/core\lv_obj_style_gen.h **** 
  19:d:\kzc\stm32\h743ii_lcd\lvgl\src/core\lv_obj_style_gen.h **** static inline lv_coord_t lv_obj_get_style_height(const struct _lv_obj_t * obj, uint32_t part)
  20:d:\kzc\stm32\h743ii_lcd\lvgl\src/core\lv_obj_style_gen.h **** {
  21:d:\kzc\stm32\h743ii_lcd\lvgl\src/core\lv_obj_style_gen.h ****     lv_style_value_t v = lv_obj_get_style_prop(obj, part, LV_STYLE_HEIGHT);
  22:d:\kzc\stm32\h743ii_lcd\lvgl\src/core\lv_obj_style_gen.h ****     return (lv_coord_t)v.num;
  23:d:\kzc\stm32\h743ii_lcd\lvgl\src/core\lv_obj_style_gen.h **** }
  24:d:\kzc\stm32\h743ii_lcd\lvgl\src/core\lv_obj_style_gen.h **** 
  25:d:\kzc\stm32\h743ii_lcd\lvgl\src/core\lv_obj_style_gen.h **** static inline lv_coord_t lv_obj_get_style_min_height(const struct _lv_obj_t * obj, uint32_t part)
  26:d:\kzc\stm32\h743ii_lcd\lvgl\src/core\lv_obj_style_gen.h **** {
  27:d:\kzc\stm32\h743ii_lcd\lvgl\src/core\lv_obj_style_gen.h ****     lv_style_value_t v = lv_obj_get_style_prop(obj, part, LV_STYLE_MIN_HEIGHT);
  28:d:\kzc\stm32\h743ii_lcd\lvgl\src/core\lv_obj_style_gen.h ****     return (lv_coord_t)v.num;
  29:d:\kzc\stm32\h743ii_lcd\lvgl\src/core\lv_obj_style_gen.h **** }
  30:d:\kzc\stm32\h743ii_lcd\lvgl\src/core\lv_obj_style_gen.h **** 
  31:d:\kzc\stm32\h743ii_lcd\lvgl\src/core\lv_obj_style_gen.h **** static inline lv_coord_t lv_obj_get_style_max_height(const struct _lv_obj_t * obj, uint32_t part)
  32:d:\kzc\stm32\h743ii_lcd\lvgl\src/core\lv_obj_style_gen.h **** {
  33:d:\kzc\stm32\h743ii_lcd\lvgl\src/core\lv_obj_style_gen.h ****     lv_style_value_t v = lv_obj_get_style_prop(obj, part, LV_STYLE_MAX_HEIGHT);
  34:d:\kzc\stm32\h743ii_lcd\lvgl\src/core\lv_obj_style_gen.h ****     return (lv_coord_t)v.num;
  35:d:\kzc\stm32\h743ii_lcd\lvgl\src/core\lv_obj_style_gen.h **** }
  36:d:\kzc\stm32\h743ii_lcd\lvgl\src/core\lv_obj_style_gen.h **** 
  37:d:\kzc\stm32\h743ii_lcd\lvgl\src/core\lv_obj_style_gen.h **** static inline lv_coord_t lv_obj_get_style_x(const struct _lv_obj_t * obj, uint32_t part)
  38:d:\kzc\stm32\h743ii_lcd\lvgl\src/core\lv_obj_style_gen.h **** {
  39:d:\kzc\stm32\h743ii_lcd\lvgl\src/core\lv_obj_style_gen.h ****     lv_style_value_t v = lv_obj_get_style_prop(obj, part, LV_STYLE_X);
  40:d:\kzc\stm32\h743ii_lcd\lvgl\src/core\lv_obj_style_gen.h ****     return (lv_coord_t)v.num;
  41:d:\kzc\stm32\h743ii_lcd\lvgl\src/core\lv_obj_style_gen.h **** }
  42:d:\kzc\stm32\h743ii_lcd\lvgl\src/core\lv_obj_style_gen.h **** 
  43:d:\kzc\stm32\h743ii_lcd\lvgl\src/core\lv_obj_style_gen.h **** static inline lv_coord_t lv_obj_get_style_y(const struct _lv_obj_t * obj, uint32_t part)
  44:d:\kzc\stm32\h743ii_lcd\lvgl\src/core\lv_obj_style_gen.h **** {
  45:d:\kzc\stm32\h743ii_lcd\lvgl\src/core\lv_obj_style_gen.h ****     lv_style_value_t v = lv_obj_get_style_prop(obj, part, LV_STYLE_Y);
  46:d:\kzc\stm32\h743ii_lcd\lvgl\src/core\lv_obj_style_gen.h ****     return (lv_coord_t)v.num;
  47:d:\kzc\stm32\h743ii_lcd\lvgl\src/core\lv_obj_style_gen.h **** }
  48:d:\kzc\stm32\h743ii_lcd\lvgl\src/core\lv_obj_style_gen.h **** 
  49:d:\kzc\stm32\h743ii_lcd\lvgl\src/core\lv_obj_style_gen.h **** static inline lv_align_t lv_obj_get_style_align(const struct _lv_obj_t * obj, uint32_t part)
  50:d:\kzc\stm32\h743ii_lcd\lvgl\src/core\lv_obj_style_gen.h **** {
  51:d:\kzc\stm32\h743ii_lcd\lvgl\src/core\lv_obj_style_gen.h ****     lv_style_value_t v = lv_obj_get_style_prop(obj, part, LV_STYLE_ALIGN);
  52:d:\kzc\stm32\h743ii_lcd\lvgl\src/core\lv_obj_style_gen.h ****     return (lv_align_t)v.num;
  53:d:\kzc\stm32\h743ii_lcd\lvgl\src/core\lv_obj_style_gen.h **** }
  54:d:\kzc\stm32\h743ii_lcd\lvgl\src/core\lv_obj_style_gen.h **** 
  55:d:\kzc\stm32\h743ii_lcd\lvgl\src/core\lv_obj_style_gen.h **** static inline lv_coord_t lv_obj_get_style_transform_width(const struct _lv_obj_t * obj, uint32_t pa
  56:d:\kzc\stm32\h743ii_lcd\lvgl\src/core\lv_obj_style_gen.h **** {
  57:d:\kzc\stm32\h743ii_lcd\lvgl\src/core\lv_obj_style_gen.h ****     lv_style_value_t v = lv_obj_get_style_prop(obj, part, LV_STYLE_TRANSFORM_WIDTH);
  58:d:\kzc\stm32\h743ii_lcd\lvgl\src/core\lv_obj_style_gen.h ****     return (lv_coord_t)v.num;
  59:d:\kzc\stm32\h743ii_lcd\lvgl\src/core\lv_obj_style_gen.h **** }
  60:d:\kzc\stm32\h743ii_lcd\lvgl\src/core\lv_obj_style_gen.h **** 
  61:d:\kzc\stm32\h743ii_lcd\lvgl\src/core\lv_obj_style_gen.h **** static inline lv_coord_t lv_obj_get_style_transform_height(const struct _lv_obj_t * obj, uint32_t p
  62:d:\kzc\stm32\h743ii_lcd\lvgl\src/core\lv_obj_style_gen.h **** {
  63:d:\kzc\stm32\h743ii_lcd\lvgl\src/core\lv_obj_style_gen.h ****     lv_style_value_t v = lv_obj_get_style_prop(obj, part, LV_STYLE_TRANSFORM_HEIGHT);
  64:d:\kzc\stm32\h743ii_lcd\lvgl\src/core\lv_obj_style_gen.h ****     return (lv_coord_t)v.num;
  65:d:\kzc\stm32\h743ii_lcd\lvgl\src/core\lv_obj_style_gen.h **** }
  66:d:\kzc\stm32\h743ii_lcd\lvgl\src/core\lv_obj_style_gen.h **** 
  67:d:\kzc\stm32\h743ii_lcd\lvgl\src/core\lv_obj_style_gen.h **** static inline lv_coord_t lv_obj_get_style_translate_x(const struct _lv_obj_t * obj, uint32_t part)
  68:d:\kzc\stm32\h743ii_lcd\lvgl\src/core\lv_obj_style_gen.h **** {
  69:d:\kzc\stm32\h743ii_lcd\lvgl\src/core\lv_obj_style_gen.h ****     lv_style_value_t v = lv_obj_get_style_prop(obj, part, LV_STYLE_TRANSLATE_X);
  70:d:\kzc\stm32\h743ii_lcd\lvgl\src/core\lv_obj_style_gen.h ****     return (lv_coord_t)v.num;
  71:d:\kzc\stm32\h743ii_lcd\lvgl\src/core\lv_obj_style_gen.h **** }
  72:d:\kzc\stm32\h743ii_lcd\lvgl\src/core\lv_obj_style_gen.h **** 
ARM GAS  C:\Users\OSD\AppData\Local\Temp\cc0UtiIx.s 			page 20


  73:d:\kzc\stm32\h743ii_lcd\lvgl\src/core\lv_obj_style_gen.h **** static inline lv_coord_t lv_obj_get_style_translate_y(const struct _lv_obj_t * obj, uint32_t part)
  74:d:\kzc\stm32\h743ii_lcd\lvgl\src/core\lv_obj_style_gen.h **** {
  75:d:\kzc\stm32\h743ii_lcd\lvgl\src/core\lv_obj_style_gen.h ****     lv_style_value_t v = lv_obj_get_style_prop(obj, part, LV_STYLE_TRANSLATE_Y);
  76:d:\kzc\stm32\h743ii_lcd\lvgl\src/core\lv_obj_style_gen.h ****     return (lv_coord_t)v.num;
  77:d:\kzc\stm32\h743ii_lcd\lvgl\src/core\lv_obj_style_gen.h **** }
  78:d:\kzc\stm32\h743ii_lcd\lvgl\src/core\lv_obj_style_gen.h **** 
  79:d:\kzc\stm32\h743ii_lcd\lvgl\src/core\lv_obj_style_gen.h **** static inline lv_coord_t lv_obj_get_style_transform_zoom(const struct _lv_obj_t * obj, uint32_t par
  80:d:\kzc\stm32\h743ii_lcd\lvgl\src/core\lv_obj_style_gen.h **** {
  81:d:\kzc\stm32\h743ii_lcd\lvgl\src/core\lv_obj_style_gen.h ****     lv_style_value_t v = lv_obj_get_style_prop(obj, part, LV_STYLE_TRANSFORM_ZOOM);
  82:d:\kzc\stm32\h743ii_lcd\lvgl\src/core\lv_obj_style_gen.h ****     return (lv_coord_t)v.num;
  83:d:\kzc\stm32\h743ii_lcd\lvgl\src/core\lv_obj_style_gen.h **** }
  84:d:\kzc\stm32\h743ii_lcd\lvgl\src/core\lv_obj_style_gen.h **** 
  85:d:\kzc\stm32\h743ii_lcd\lvgl\src/core\lv_obj_style_gen.h **** static inline lv_coord_t lv_obj_get_style_transform_angle(const struct _lv_obj_t * obj, uint32_t pa
  86:d:\kzc\stm32\h743ii_lcd\lvgl\src/core\lv_obj_style_gen.h **** {
  87:d:\kzc\stm32\h743ii_lcd\lvgl\src/core\lv_obj_style_gen.h ****     lv_style_value_t v = lv_obj_get_style_prop(obj, part, LV_STYLE_TRANSFORM_ANGLE);
  88:d:\kzc\stm32\h743ii_lcd\lvgl\src/core\lv_obj_style_gen.h ****     return (lv_coord_t)v.num;
  89:d:\kzc\stm32\h743ii_lcd\lvgl\src/core\lv_obj_style_gen.h **** }
  90:d:\kzc\stm32\h743ii_lcd\lvgl\src/core\lv_obj_style_gen.h **** 
  91:d:\kzc\stm32\h743ii_lcd\lvgl\src/core\lv_obj_style_gen.h **** static inline lv_coord_t lv_obj_get_style_transform_pivot_x(const struct _lv_obj_t * obj, uint32_t 
  92:d:\kzc\stm32\h743ii_lcd\lvgl\src/core\lv_obj_style_gen.h **** {
  93:d:\kzc\stm32\h743ii_lcd\lvgl\src/core\lv_obj_style_gen.h ****     lv_style_value_t v = lv_obj_get_style_prop(obj, part, LV_STYLE_TRANSFORM_PIVOT_X);
  94:d:\kzc\stm32\h743ii_lcd\lvgl\src/core\lv_obj_style_gen.h ****     return (lv_coord_t)v.num;
  95:d:\kzc\stm32\h743ii_lcd\lvgl\src/core\lv_obj_style_gen.h **** }
  96:d:\kzc\stm32\h743ii_lcd\lvgl\src/core\lv_obj_style_gen.h **** 
  97:d:\kzc\stm32\h743ii_lcd\lvgl\src/core\lv_obj_style_gen.h **** static inline lv_coord_t lv_obj_get_style_transform_pivot_y(const struct _lv_obj_t * obj, uint32_t 
  98:d:\kzc\stm32\h743ii_lcd\lvgl\src/core\lv_obj_style_gen.h **** {
  99:d:\kzc\stm32\h743ii_lcd\lvgl\src/core\lv_obj_style_gen.h ****     lv_style_value_t v = lv_obj_get_style_prop(obj, part, LV_STYLE_TRANSFORM_PIVOT_Y);
 100:d:\kzc\stm32\h743ii_lcd\lvgl\src/core\lv_obj_style_gen.h ****     return (lv_coord_t)v.num;
 101:d:\kzc\stm32\h743ii_lcd\lvgl\src/core\lv_obj_style_gen.h **** }
 102:d:\kzc\stm32\h743ii_lcd\lvgl\src/core\lv_obj_style_gen.h **** 
 103:d:\kzc\stm32\h743ii_lcd\lvgl\src/core\lv_obj_style_gen.h **** static inline lv_coord_t lv_obj_get_style_pad_top(const struct _lv_obj_t * obj, uint32_t part)
 104:d:\kzc\stm32\h743ii_lcd\lvgl\src/core\lv_obj_style_gen.h **** {
 105:d:\kzc\stm32\h743ii_lcd\lvgl\src/core\lv_obj_style_gen.h ****     lv_style_value_t v = lv_obj_get_style_prop(obj, part, LV_STYLE_PAD_TOP);
 106:d:\kzc\stm32\h743ii_lcd\lvgl\src/core\lv_obj_style_gen.h ****     return (lv_coord_t)v.num;
 107:d:\kzc\stm32\h743ii_lcd\lvgl\src/core\lv_obj_style_gen.h **** }
 108:d:\kzc\stm32\h743ii_lcd\lvgl\src/core\lv_obj_style_gen.h **** 
 109:d:\kzc\stm32\h743ii_lcd\lvgl\src/core\lv_obj_style_gen.h **** static inline lv_coord_t lv_obj_get_style_pad_bottom(const struct _lv_obj_t * obj, uint32_t part)
 110:d:\kzc\stm32\h743ii_lcd\lvgl\src/core\lv_obj_style_gen.h **** {
 111:d:\kzc\stm32\h743ii_lcd\lvgl\src/core\lv_obj_style_gen.h ****     lv_style_value_t v = lv_obj_get_style_prop(obj, part, LV_STYLE_PAD_BOTTOM);
 112:d:\kzc\stm32\h743ii_lcd\lvgl\src/core\lv_obj_style_gen.h ****     return (lv_coord_t)v.num;
 113:d:\kzc\stm32\h743ii_lcd\lvgl\src/core\lv_obj_style_gen.h **** }
 114:d:\kzc\stm32\h743ii_lcd\lvgl\src/core\lv_obj_style_gen.h **** 
 115:d:\kzc\stm32\h743ii_lcd\lvgl\src/core\lv_obj_style_gen.h **** static inline lv_coord_t lv_obj_get_style_pad_left(const struct _lv_obj_t * obj, uint32_t part)
 116:d:\kzc\stm32\h743ii_lcd\lvgl\src/core\lv_obj_style_gen.h **** {
 117:d:\kzc\stm32\h743ii_lcd\lvgl\src/core\lv_obj_style_gen.h ****     lv_style_value_t v = lv_obj_get_style_prop(obj, part, LV_STYLE_PAD_LEFT);
 118:d:\kzc\stm32\h743ii_lcd\lvgl\src/core\lv_obj_style_gen.h ****     return (lv_coord_t)v.num;
 119:d:\kzc\stm32\h743ii_lcd\lvgl\src/core\lv_obj_style_gen.h **** }
 120:d:\kzc\stm32\h743ii_lcd\lvgl\src/core\lv_obj_style_gen.h **** 
 121:d:\kzc\stm32\h743ii_lcd\lvgl\src/core\lv_obj_style_gen.h **** static inline lv_coord_t lv_obj_get_style_pad_right(const struct _lv_obj_t * obj, uint32_t part)
 122:d:\kzc\stm32\h743ii_lcd\lvgl\src/core\lv_obj_style_gen.h **** {
 123:d:\kzc\stm32\h743ii_lcd\lvgl\src/core\lv_obj_style_gen.h ****     lv_style_value_t v = lv_obj_get_style_prop(obj, part, LV_STYLE_PAD_RIGHT);
 124:d:\kzc\stm32\h743ii_lcd\lvgl\src/core\lv_obj_style_gen.h ****     return (lv_coord_t)v.num;
 125:d:\kzc\stm32\h743ii_lcd\lvgl\src/core\lv_obj_style_gen.h **** }
 126:d:\kzc\stm32\h743ii_lcd\lvgl\src/core\lv_obj_style_gen.h **** 
 127:d:\kzc\stm32\h743ii_lcd\lvgl\src/core\lv_obj_style_gen.h **** static inline lv_coord_t lv_obj_get_style_pad_row(const struct _lv_obj_t * obj, uint32_t part)
 128:d:\kzc\stm32\h743ii_lcd\lvgl\src/core\lv_obj_style_gen.h **** {
 129:d:\kzc\stm32\h743ii_lcd\lvgl\src/core\lv_obj_style_gen.h ****     lv_style_value_t v = lv_obj_get_style_prop(obj, part, LV_STYLE_PAD_ROW);
ARM GAS  C:\Users\OSD\AppData\Local\Temp\cc0UtiIx.s 			page 21


 130:d:\kzc\stm32\h743ii_lcd\lvgl\src/core\lv_obj_style_gen.h ****     return (lv_coord_t)v.num;
 131:d:\kzc\stm32\h743ii_lcd\lvgl\src/core\lv_obj_style_gen.h **** }
 132:d:\kzc\stm32\h743ii_lcd\lvgl\src/core\lv_obj_style_gen.h **** 
 133:d:\kzc\stm32\h743ii_lcd\lvgl\src/core\lv_obj_style_gen.h **** static inline lv_coord_t lv_obj_get_style_pad_column(const struct _lv_obj_t * obj, uint32_t part)
 134:d:\kzc\stm32\h743ii_lcd\lvgl\src/core\lv_obj_style_gen.h **** {
 135:d:\kzc\stm32\h743ii_lcd\lvgl\src/core\lv_obj_style_gen.h ****     lv_style_value_t v = lv_obj_get_style_prop(obj, part, LV_STYLE_PAD_COLUMN);
 136:d:\kzc\stm32\h743ii_lcd\lvgl\src/core\lv_obj_style_gen.h ****     return (lv_coord_t)v.num;
 137:d:\kzc\stm32\h743ii_lcd\lvgl\src/core\lv_obj_style_gen.h **** }
 138:d:\kzc\stm32\h743ii_lcd\lvgl\src/core\lv_obj_style_gen.h **** 
 139:d:\kzc\stm32\h743ii_lcd\lvgl\src/core\lv_obj_style_gen.h **** static inline lv_color_t lv_obj_get_style_bg_color(const struct _lv_obj_t * obj, uint32_t part)
 140:d:\kzc\stm32\h743ii_lcd\lvgl\src/core\lv_obj_style_gen.h **** {
 141:d:\kzc\stm32\h743ii_lcd\lvgl\src/core\lv_obj_style_gen.h ****     lv_style_value_t v = lv_obj_get_style_prop(obj, part, LV_STYLE_BG_COLOR);
 142:d:\kzc\stm32\h743ii_lcd\lvgl\src/core\lv_obj_style_gen.h ****     return v.color;
 143:d:\kzc\stm32\h743ii_lcd\lvgl\src/core\lv_obj_style_gen.h **** }
 144:d:\kzc\stm32\h743ii_lcd\lvgl\src/core\lv_obj_style_gen.h **** 
 145:d:\kzc\stm32\h743ii_lcd\lvgl\src/core\lv_obj_style_gen.h **** static inline lv_color_t lv_obj_get_style_bg_color_filtered(const struct _lv_obj_t * obj, uint32_t 
 146:d:\kzc\stm32\h743ii_lcd\lvgl\src/core\lv_obj_style_gen.h **** {
 147:d:\kzc\stm32\h743ii_lcd\lvgl\src/core\lv_obj_style_gen.h ****     lv_style_value_t v = _lv_obj_style_apply_color_filter(obj, part, lv_obj_get_style_prop(obj, par
 148:d:\kzc\stm32\h743ii_lcd\lvgl\src/core\lv_obj_style_gen.h ****     return v.color;
 149:d:\kzc\stm32\h743ii_lcd\lvgl\src/core\lv_obj_style_gen.h **** }
 150:d:\kzc\stm32\h743ii_lcd\lvgl\src/core\lv_obj_style_gen.h **** 
 151:d:\kzc\stm32\h743ii_lcd\lvgl\src/core\lv_obj_style_gen.h **** static inline lv_opa_t lv_obj_get_style_bg_opa(const struct _lv_obj_t * obj, uint32_t part)
 152:d:\kzc\stm32\h743ii_lcd\lvgl\src/core\lv_obj_style_gen.h **** {
 153:d:\kzc\stm32\h743ii_lcd\lvgl\src/core\lv_obj_style_gen.h ****     lv_style_value_t v = lv_obj_get_style_prop(obj, part, LV_STYLE_BG_OPA);
 154:d:\kzc\stm32\h743ii_lcd\lvgl\src/core\lv_obj_style_gen.h ****     return (lv_opa_t)v.num;
 155:d:\kzc\stm32\h743ii_lcd\lvgl\src/core\lv_obj_style_gen.h **** }
 156:d:\kzc\stm32\h743ii_lcd\lvgl\src/core\lv_obj_style_gen.h **** 
 157:d:\kzc\stm32\h743ii_lcd\lvgl\src/core\lv_obj_style_gen.h **** static inline lv_color_t lv_obj_get_style_bg_grad_color(const struct _lv_obj_t * obj, uint32_t part
 158:d:\kzc\stm32\h743ii_lcd\lvgl\src/core\lv_obj_style_gen.h **** {
 159:d:\kzc\stm32\h743ii_lcd\lvgl\src/core\lv_obj_style_gen.h ****     lv_style_value_t v = lv_obj_get_style_prop(obj, part, LV_STYLE_BG_GRAD_COLOR);
 160:d:\kzc\stm32\h743ii_lcd\lvgl\src/core\lv_obj_style_gen.h ****     return v.color;
 161:d:\kzc\stm32\h743ii_lcd\lvgl\src/core\lv_obj_style_gen.h **** }
 162:d:\kzc\stm32\h743ii_lcd\lvgl\src/core\lv_obj_style_gen.h **** 
 163:d:\kzc\stm32\h743ii_lcd\lvgl\src/core\lv_obj_style_gen.h **** static inline lv_color_t lv_obj_get_style_bg_grad_color_filtered(const struct _lv_obj_t * obj, uint
 164:d:\kzc\stm32\h743ii_lcd\lvgl\src/core\lv_obj_style_gen.h **** {
 165:d:\kzc\stm32\h743ii_lcd\lvgl\src/core\lv_obj_style_gen.h ****     lv_style_value_t v = _lv_obj_style_apply_color_filter(obj, part, lv_obj_get_style_prop(obj, par
 166:d:\kzc\stm32\h743ii_lcd\lvgl\src/core\lv_obj_style_gen.h ****     return v.color;
 167:d:\kzc\stm32\h743ii_lcd\lvgl\src/core\lv_obj_style_gen.h **** }
 168:d:\kzc\stm32\h743ii_lcd\lvgl\src/core\lv_obj_style_gen.h **** 
 169:d:\kzc\stm32\h743ii_lcd\lvgl\src/core\lv_obj_style_gen.h **** static inline lv_grad_dir_t lv_obj_get_style_bg_grad_dir(const struct _lv_obj_t * obj, uint32_t par
 170:d:\kzc\stm32\h743ii_lcd\lvgl\src/core\lv_obj_style_gen.h **** {
 171:d:\kzc\stm32\h743ii_lcd\lvgl\src/core\lv_obj_style_gen.h ****     lv_style_value_t v = lv_obj_get_style_prop(obj, part, LV_STYLE_BG_GRAD_DIR);
 172:d:\kzc\stm32\h743ii_lcd\lvgl\src/core\lv_obj_style_gen.h ****     return (lv_grad_dir_t)v.num;
 173:d:\kzc\stm32\h743ii_lcd\lvgl\src/core\lv_obj_style_gen.h **** }
 174:d:\kzc\stm32\h743ii_lcd\lvgl\src/core\lv_obj_style_gen.h **** 
 175:d:\kzc\stm32\h743ii_lcd\lvgl\src/core\lv_obj_style_gen.h **** static inline lv_coord_t lv_obj_get_style_bg_main_stop(const struct _lv_obj_t * obj, uint32_t part)
 176:d:\kzc\stm32\h743ii_lcd\lvgl\src/core\lv_obj_style_gen.h **** {
 177:d:\kzc\stm32\h743ii_lcd\lvgl\src/core\lv_obj_style_gen.h ****     lv_style_value_t v = lv_obj_get_style_prop(obj, part, LV_STYLE_BG_MAIN_STOP);
 178:d:\kzc\stm32\h743ii_lcd\lvgl\src/core\lv_obj_style_gen.h ****     return (lv_coord_t)v.num;
 179:d:\kzc\stm32\h743ii_lcd\lvgl\src/core\lv_obj_style_gen.h **** }
 180:d:\kzc\stm32\h743ii_lcd\lvgl\src/core\lv_obj_style_gen.h **** 
 181:d:\kzc\stm32\h743ii_lcd\lvgl\src/core\lv_obj_style_gen.h **** static inline lv_coord_t lv_obj_get_style_bg_grad_stop(const struct _lv_obj_t * obj, uint32_t part)
 182:d:\kzc\stm32\h743ii_lcd\lvgl\src/core\lv_obj_style_gen.h **** {
 183:d:\kzc\stm32\h743ii_lcd\lvgl\src/core\lv_obj_style_gen.h ****     lv_style_value_t v = lv_obj_get_style_prop(obj, part, LV_STYLE_BG_GRAD_STOP);
 184:d:\kzc\stm32\h743ii_lcd\lvgl\src/core\lv_obj_style_gen.h ****     return (lv_coord_t)v.num;
 185:d:\kzc\stm32\h743ii_lcd\lvgl\src/core\lv_obj_style_gen.h **** }
 186:d:\kzc\stm32\h743ii_lcd\lvgl\src/core\lv_obj_style_gen.h **** 
ARM GAS  C:\Users\OSD\AppData\Local\Temp\cc0UtiIx.s 			page 22


 187:d:\kzc\stm32\h743ii_lcd\lvgl\src/core\lv_obj_style_gen.h **** static inline const lv_grad_dsc_t * lv_obj_get_style_bg_grad(const struct _lv_obj_t * obj, uint32_t
 188:d:\kzc\stm32\h743ii_lcd\lvgl\src/core\lv_obj_style_gen.h **** {
 189:d:\kzc\stm32\h743ii_lcd\lvgl\src/core\lv_obj_style_gen.h ****     lv_style_value_t v = lv_obj_get_style_prop(obj, part, LV_STYLE_BG_GRAD);
 190:d:\kzc\stm32\h743ii_lcd\lvgl\src/core\lv_obj_style_gen.h ****     return (const lv_grad_dsc_t *)v.ptr;
 191:d:\kzc\stm32\h743ii_lcd\lvgl\src/core\lv_obj_style_gen.h **** }
 192:d:\kzc\stm32\h743ii_lcd\lvgl\src/core\lv_obj_style_gen.h **** 
 193:d:\kzc\stm32\h743ii_lcd\lvgl\src/core\lv_obj_style_gen.h **** static inline lv_dither_mode_t lv_obj_get_style_bg_dither_mode(const struct _lv_obj_t * obj, uint32
 194:d:\kzc\stm32\h743ii_lcd\lvgl\src/core\lv_obj_style_gen.h **** {
 195:d:\kzc\stm32\h743ii_lcd\lvgl\src/core\lv_obj_style_gen.h ****     lv_style_value_t v = lv_obj_get_style_prop(obj, part, LV_STYLE_BG_DITHER_MODE);
 196:d:\kzc\stm32\h743ii_lcd\lvgl\src/core\lv_obj_style_gen.h ****     return (lv_dither_mode_t)v.num;
 197:d:\kzc\stm32\h743ii_lcd\lvgl\src/core\lv_obj_style_gen.h **** }
 198:d:\kzc\stm32\h743ii_lcd\lvgl\src/core\lv_obj_style_gen.h **** 
 199:d:\kzc\stm32\h743ii_lcd\lvgl\src/core\lv_obj_style_gen.h **** static inline const void * lv_obj_get_style_bg_img_src(const struct _lv_obj_t * obj, uint32_t part)
 200:d:\kzc\stm32\h743ii_lcd\lvgl\src/core\lv_obj_style_gen.h **** {
 201:d:\kzc\stm32\h743ii_lcd\lvgl\src/core\lv_obj_style_gen.h ****     lv_style_value_t v = lv_obj_get_style_prop(obj, part, LV_STYLE_BG_IMG_SRC);
 202:d:\kzc\stm32\h743ii_lcd\lvgl\src/core\lv_obj_style_gen.h ****     return (const void *)v.ptr;
 203:d:\kzc\stm32\h743ii_lcd\lvgl\src/core\lv_obj_style_gen.h **** }
 204:d:\kzc\stm32\h743ii_lcd\lvgl\src/core\lv_obj_style_gen.h **** 
 205:d:\kzc\stm32\h743ii_lcd\lvgl\src/core\lv_obj_style_gen.h **** static inline lv_opa_t lv_obj_get_style_bg_img_opa(const struct _lv_obj_t * obj, uint32_t part)
 206:d:\kzc\stm32\h743ii_lcd\lvgl\src/core\lv_obj_style_gen.h **** {
 207:d:\kzc\stm32\h743ii_lcd\lvgl\src/core\lv_obj_style_gen.h ****     lv_style_value_t v = lv_obj_get_style_prop(obj, part, LV_STYLE_BG_IMG_OPA);
 208:d:\kzc\stm32\h743ii_lcd\lvgl\src/core\lv_obj_style_gen.h ****     return (lv_opa_t)v.num;
 209:d:\kzc\stm32\h743ii_lcd\lvgl\src/core\lv_obj_style_gen.h **** }
 210:d:\kzc\stm32\h743ii_lcd\lvgl\src/core\lv_obj_style_gen.h **** 
 211:d:\kzc\stm32\h743ii_lcd\lvgl\src/core\lv_obj_style_gen.h **** static inline lv_color_t lv_obj_get_style_bg_img_recolor(const struct _lv_obj_t * obj, uint32_t par
 212:d:\kzc\stm32\h743ii_lcd\lvgl\src/core\lv_obj_style_gen.h **** {
 213:d:\kzc\stm32\h743ii_lcd\lvgl\src/core\lv_obj_style_gen.h ****     lv_style_value_t v = lv_obj_get_style_prop(obj, part, LV_STYLE_BG_IMG_RECOLOR);
 214:d:\kzc\stm32\h743ii_lcd\lvgl\src/core\lv_obj_style_gen.h ****     return v.color;
 215:d:\kzc\stm32\h743ii_lcd\lvgl\src/core\lv_obj_style_gen.h **** }
 216:d:\kzc\stm32\h743ii_lcd\lvgl\src/core\lv_obj_style_gen.h **** 
 217:d:\kzc\stm32\h743ii_lcd\lvgl\src/core\lv_obj_style_gen.h **** static inline lv_color_t lv_obj_get_style_bg_img_recolor_filtered(const struct _lv_obj_t * obj, uin
 218:d:\kzc\stm32\h743ii_lcd\lvgl\src/core\lv_obj_style_gen.h **** {
 219:d:\kzc\stm32\h743ii_lcd\lvgl\src/core\lv_obj_style_gen.h ****     lv_style_value_t v = _lv_obj_style_apply_color_filter(obj, part, lv_obj_get_style_prop(obj, par
 220:d:\kzc\stm32\h743ii_lcd\lvgl\src/core\lv_obj_style_gen.h ****     return v.color;
 221:d:\kzc\stm32\h743ii_lcd\lvgl\src/core\lv_obj_style_gen.h **** }
 222:d:\kzc\stm32\h743ii_lcd\lvgl\src/core\lv_obj_style_gen.h **** 
 223:d:\kzc\stm32\h743ii_lcd\lvgl\src/core\lv_obj_style_gen.h **** static inline lv_opa_t lv_obj_get_style_bg_img_recolor_opa(const struct _lv_obj_t * obj, uint32_t p
 224:d:\kzc\stm32\h743ii_lcd\lvgl\src/core\lv_obj_style_gen.h **** {
 225:d:\kzc\stm32\h743ii_lcd\lvgl\src/core\lv_obj_style_gen.h ****     lv_style_value_t v = lv_obj_get_style_prop(obj, part, LV_STYLE_BG_IMG_RECOLOR_OPA);
 226:d:\kzc\stm32\h743ii_lcd\lvgl\src/core\lv_obj_style_gen.h ****     return (lv_opa_t)v.num;
 227:d:\kzc\stm32\h743ii_lcd\lvgl\src/core\lv_obj_style_gen.h **** }
 228:d:\kzc\stm32\h743ii_lcd\lvgl\src/core\lv_obj_style_gen.h **** 
 229:d:\kzc\stm32\h743ii_lcd\lvgl\src/core\lv_obj_style_gen.h **** static inline bool lv_obj_get_style_bg_img_tiled(const struct _lv_obj_t * obj, uint32_t part)
 230:d:\kzc\stm32\h743ii_lcd\lvgl\src/core\lv_obj_style_gen.h **** {
 231:d:\kzc\stm32\h743ii_lcd\lvgl\src/core\lv_obj_style_gen.h ****     lv_style_value_t v = lv_obj_get_style_prop(obj, part, LV_STYLE_BG_IMG_TILED);
 232:d:\kzc\stm32\h743ii_lcd\lvgl\src/core\lv_obj_style_gen.h ****     return (bool)v.num;
 233:d:\kzc\stm32\h743ii_lcd\lvgl\src/core\lv_obj_style_gen.h **** }
 234:d:\kzc\stm32\h743ii_lcd\lvgl\src/core\lv_obj_style_gen.h **** 
 235:d:\kzc\stm32\h743ii_lcd\lvgl\src/core\lv_obj_style_gen.h **** static inline lv_color_t lv_obj_get_style_border_color(const struct _lv_obj_t * obj, uint32_t part)
 236:d:\kzc\stm32\h743ii_lcd\lvgl\src/core\lv_obj_style_gen.h **** {
 237:d:\kzc\stm32\h743ii_lcd\lvgl\src/core\lv_obj_style_gen.h ****     lv_style_value_t v = lv_obj_get_style_prop(obj, part, LV_STYLE_BORDER_COLOR);
 238:d:\kzc\stm32\h743ii_lcd\lvgl\src/core\lv_obj_style_gen.h ****     return v.color;
 239:d:\kzc\stm32\h743ii_lcd\lvgl\src/core\lv_obj_style_gen.h **** }
 240:d:\kzc\stm32\h743ii_lcd\lvgl\src/core\lv_obj_style_gen.h **** 
 241:d:\kzc\stm32\h743ii_lcd\lvgl\src/core\lv_obj_style_gen.h **** static inline lv_color_t lv_obj_get_style_border_color_filtered(const struct _lv_obj_t * obj, uint3
 242:d:\kzc\stm32\h743ii_lcd\lvgl\src/core\lv_obj_style_gen.h **** {
 243:d:\kzc\stm32\h743ii_lcd\lvgl\src/core\lv_obj_style_gen.h ****     lv_style_value_t v = _lv_obj_style_apply_color_filter(obj, part, lv_obj_get_style_prop(obj, par
ARM GAS  C:\Users\OSD\AppData\Local\Temp\cc0UtiIx.s 			page 23


 244:d:\kzc\stm32\h743ii_lcd\lvgl\src/core\lv_obj_style_gen.h ****     return v.color;
 245:d:\kzc\stm32\h743ii_lcd\lvgl\src/core\lv_obj_style_gen.h **** }
 246:d:\kzc\stm32\h743ii_lcd\lvgl\src/core\lv_obj_style_gen.h **** 
 247:d:\kzc\stm32\h743ii_lcd\lvgl\src/core\lv_obj_style_gen.h **** static inline lv_opa_t lv_obj_get_style_border_opa(const struct _lv_obj_t * obj, uint32_t part)
 248:d:\kzc\stm32\h743ii_lcd\lvgl\src/core\lv_obj_style_gen.h **** {
 249:d:\kzc\stm32\h743ii_lcd\lvgl\src/core\lv_obj_style_gen.h ****     lv_style_value_t v = lv_obj_get_style_prop(obj, part, LV_STYLE_BORDER_OPA);
 250:d:\kzc\stm32\h743ii_lcd\lvgl\src/core\lv_obj_style_gen.h ****     return (lv_opa_t)v.num;
 251:d:\kzc\stm32\h743ii_lcd\lvgl\src/core\lv_obj_style_gen.h **** }
 252:d:\kzc\stm32\h743ii_lcd\lvgl\src/core\lv_obj_style_gen.h **** 
 253:d:\kzc\stm32\h743ii_lcd\lvgl\src/core\lv_obj_style_gen.h **** static inline lv_coord_t lv_obj_get_style_border_width(const struct _lv_obj_t * obj, uint32_t part)
 254:d:\kzc\stm32\h743ii_lcd\lvgl\src/core\lv_obj_style_gen.h **** {
 255:d:\kzc\stm32\h743ii_lcd\lvgl\src/core\lv_obj_style_gen.h ****     lv_style_value_t v = lv_obj_get_style_prop(obj, part, LV_STYLE_BORDER_WIDTH);
 256:d:\kzc\stm32\h743ii_lcd\lvgl\src/core\lv_obj_style_gen.h ****     return (lv_coord_t)v.num;
 257:d:\kzc\stm32\h743ii_lcd\lvgl\src/core\lv_obj_style_gen.h **** }
 258:d:\kzc\stm32\h743ii_lcd\lvgl\src/core\lv_obj_style_gen.h **** 
 259:d:\kzc\stm32\h743ii_lcd\lvgl\src/core\lv_obj_style_gen.h **** static inline lv_border_side_t lv_obj_get_style_border_side(const struct _lv_obj_t * obj, uint32_t 
 260:d:\kzc\stm32\h743ii_lcd\lvgl\src/core\lv_obj_style_gen.h **** {
 261:d:\kzc\stm32\h743ii_lcd\lvgl\src/core\lv_obj_style_gen.h ****     lv_style_value_t v = lv_obj_get_style_prop(obj, part, LV_STYLE_BORDER_SIDE);
 262:d:\kzc\stm32\h743ii_lcd\lvgl\src/core\lv_obj_style_gen.h ****     return (lv_border_side_t)v.num;
 263:d:\kzc\stm32\h743ii_lcd\lvgl\src/core\lv_obj_style_gen.h **** }
 264:d:\kzc\stm32\h743ii_lcd\lvgl\src/core\lv_obj_style_gen.h **** 
 265:d:\kzc\stm32\h743ii_lcd\lvgl\src/core\lv_obj_style_gen.h **** static inline bool lv_obj_get_style_border_post(const struct _lv_obj_t * obj, uint32_t part)
 266:d:\kzc\stm32\h743ii_lcd\lvgl\src/core\lv_obj_style_gen.h **** {
 267:d:\kzc\stm32\h743ii_lcd\lvgl\src/core\lv_obj_style_gen.h ****     lv_style_value_t v = lv_obj_get_style_prop(obj, part, LV_STYLE_BORDER_POST);
 268:d:\kzc\stm32\h743ii_lcd\lvgl\src/core\lv_obj_style_gen.h ****     return (bool)v.num;
 269:d:\kzc\stm32\h743ii_lcd\lvgl\src/core\lv_obj_style_gen.h **** }
 270:d:\kzc\stm32\h743ii_lcd\lvgl\src/core\lv_obj_style_gen.h **** 
 271:d:\kzc\stm32\h743ii_lcd\lvgl\src/core\lv_obj_style_gen.h **** static inline lv_coord_t lv_obj_get_style_outline_width(const struct _lv_obj_t * obj, uint32_t part
 272:d:\kzc\stm32\h743ii_lcd\lvgl\src/core\lv_obj_style_gen.h **** {
 273:d:\kzc\stm32\h743ii_lcd\lvgl\src/core\lv_obj_style_gen.h ****     lv_style_value_t v = lv_obj_get_style_prop(obj, part, LV_STYLE_OUTLINE_WIDTH);
 274:d:\kzc\stm32\h743ii_lcd\lvgl\src/core\lv_obj_style_gen.h ****     return (lv_coord_t)v.num;
 275:d:\kzc\stm32\h743ii_lcd\lvgl\src/core\lv_obj_style_gen.h **** }
 276:d:\kzc\stm32\h743ii_lcd\lvgl\src/core\lv_obj_style_gen.h **** 
 277:d:\kzc\stm32\h743ii_lcd\lvgl\src/core\lv_obj_style_gen.h **** static inline lv_color_t lv_obj_get_style_outline_color(const struct _lv_obj_t * obj, uint32_t part
 278:d:\kzc\stm32\h743ii_lcd\lvgl\src/core\lv_obj_style_gen.h **** {
 279:d:\kzc\stm32\h743ii_lcd\lvgl\src/core\lv_obj_style_gen.h ****     lv_style_value_t v = lv_obj_get_style_prop(obj, part, LV_STYLE_OUTLINE_COLOR);
 280:d:\kzc\stm32\h743ii_lcd\lvgl\src/core\lv_obj_style_gen.h ****     return v.color;
 281:d:\kzc\stm32\h743ii_lcd\lvgl\src/core\lv_obj_style_gen.h **** }
 282:d:\kzc\stm32\h743ii_lcd\lvgl\src/core\lv_obj_style_gen.h **** 
 283:d:\kzc\stm32\h743ii_lcd\lvgl\src/core\lv_obj_style_gen.h **** static inline lv_color_t lv_obj_get_style_outline_color_filtered(const struct _lv_obj_t * obj, uint
 284:d:\kzc\stm32\h743ii_lcd\lvgl\src/core\lv_obj_style_gen.h **** {
 285:d:\kzc\stm32\h743ii_lcd\lvgl\src/core\lv_obj_style_gen.h ****     lv_style_value_t v = _lv_obj_style_apply_color_filter(obj, part, lv_obj_get_style_prop(obj, par
 286:d:\kzc\stm32\h743ii_lcd\lvgl\src/core\lv_obj_style_gen.h ****     return v.color;
 287:d:\kzc\stm32\h743ii_lcd\lvgl\src/core\lv_obj_style_gen.h **** }
 288:d:\kzc\stm32\h743ii_lcd\lvgl\src/core\lv_obj_style_gen.h **** 
 289:d:\kzc\stm32\h743ii_lcd\lvgl\src/core\lv_obj_style_gen.h **** static inline lv_opa_t lv_obj_get_style_outline_opa(const struct _lv_obj_t * obj, uint32_t part)
 290:d:\kzc\stm32\h743ii_lcd\lvgl\src/core\lv_obj_style_gen.h **** {
 291:d:\kzc\stm32\h743ii_lcd\lvgl\src/core\lv_obj_style_gen.h ****     lv_style_value_t v = lv_obj_get_style_prop(obj, part, LV_STYLE_OUTLINE_OPA);
 292:d:\kzc\stm32\h743ii_lcd\lvgl\src/core\lv_obj_style_gen.h ****     return (lv_opa_t)v.num;
 293:d:\kzc\stm32\h743ii_lcd\lvgl\src/core\lv_obj_style_gen.h **** }
 294:d:\kzc\stm32\h743ii_lcd\lvgl\src/core\lv_obj_style_gen.h **** 
 295:d:\kzc\stm32\h743ii_lcd\lvgl\src/core\lv_obj_style_gen.h **** static inline lv_coord_t lv_obj_get_style_outline_pad(const struct _lv_obj_t * obj, uint32_t part)
 296:d:\kzc\stm32\h743ii_lcd\lvgl\src/core\lv_obj_style_gen.h **** {
 297:d:\kzc\stm32\h743ii_lcd\lvgl\src/core\lv_obj_style_gen.h ****     lv_style_value_t v = lv_obj_get_style_prop(obj, part, LV_STYLE_OUTLINE_PAD);
 298:d:\kzc\stm32\h743ii_lcd\lvgl\src/core\lv_obj_style_gen.h ****     return (lv_coord_t)v.num;
 299:d:\kzc\stm32\h743ii_lcd\lvgl\src/core\lv_obj_style_gen.h **** }
 300:d:\kzc\stm32\h743ii_lcd\lvgl\src/core\lv_obj_style_gen.h **** 
ARM GAS  C:\Users\OSD\AppData\Local\Temp\cc0UtiIx.s 			page 24


 301:d:\kzc\stm32\h743ii_lcd\lvgl\src/core\lv_obj_style_gen.h **** static inline lv_coord_t lv_obj_get_style_shadow_width(const struct _lv_obj_t * obj, uint32_t part)
 302:d:\kzc\stm32\h743ii_lcd\lvgl\src/core\lv_obj_style_gen.h **** {
 303:d:\kzc\stm32\h743ii_lcd\lvgl\src/core\lv_obj_style_gen.h ****     lv_style_value_t v = lv_obj_get_style_prop(obj, part, LV_STYLE_SHADOW_WIDTH);
 304:d:\kzc\stm32\h743ii_lcd\lvgl\src/core\lv_obj_style_gen.h ****     return (lv_coord_t)v.num;
 305:d:\kzc\stm32\h743ii_lcd\lvgl\src/core\lv_obj_style_gen.h **** }
 306:d:\kzc\stm32\h743ii_lcd\lvgl\src/core\lv_obj_style_gen.h **** 
 307:d:\kzc\stm32\h743ii_lcd\lvgl\src/core\lv_obj_style_gen.h **** static inline lv_coord_t lv_obj_get_style_shadow_ofs_x(const struct _lv_obj_t * obj, uint32_t part)
 308:d:\kzc\stm32\h743ii_lcd\lvgl\src/core\lv_obj_style_gen.h **** {
 309:d:\kzc\stm32\h743ii_lcd\lvgl\src/core\lv_obj_style_gen.h ****     lv_style_value_t v = lv_obj_get_style_prop(obj, part, LV_STYLE_SHADOW_OFS_X);
 310:d:\kzc\stm32\h743ii_lcd\lvgl\src/core\lv_obj_style_gen.h ****     return (lv_coord_t)v.num;
 311:d:\kzc\stm32\h743ii_lcd\lvgl\src/core\lv_obj_style_gen.h **** }
 312:d:\kzc\stm32\h743ii_lcd\lvgl\src/core\lv_obj_style_gen.h **** 
 313:d:\kzc\stm32\h743ii_lcd\lvgl\src/core\lv_obj_style_gen.h **** static inline lv_coord_t lv_obj_get_style_shadow_ofs_y(const struct _lv_obj_t * obj, uint32_t part)
 314:d:\kzc\stm32\h743ii_lcd\lvgl\src/core\lv_obj_style_gen.h **** {
 315:d:\kzc\stm32\h743ii_lcd\lvgl\src/core\lv_obj_style_gen.h ****     lv_style_value_t v = lv_obj_get_style_prop(obj, part, LV_STYLE_SHADOW_OFS_Y);
 316:d:\kzc\stm32\h743ii_lcd\lvgl\src/core\lv_obj_style_gen.h ****     return (lv_coord_t)v.num;
 317:d:\kzc\stm32\h743ii_lcd\lvgl\src/core\lv_obj_style_gen.h **** }
 318:d:\kzc\stm32\h743ii_lcd\lvgl\src/core\lv_obj_style_gen.h **** 
 319:d:\kzc\stm32\h743ii_lcd\lvgl\src/core\lv_obj_style_gen.h **** static inline lv_coord_t lv_obj_get_style_shadow_spread(const struct _lv_obj_t * obj, uint32_t part
 320:d:\kzc\stm32\h743ii_lcd\lvgl\src/core\lv_obj_style_gen.h **** {
 321:d:\kzc\stm32\h743ii_lcd\lvgl\src/core\lv_obj_style_gen.h ****     lv_style_value_t v = lv_obj_get_style_prop(obj, part, LV_STYLE_SHADOW_SPREAD);
 322:d:\kzc\stm32\h743ii_lcd\lvgl\src/core\lv_obj_style_gen.h ****     return (lv_coord_t)v.num;
 323:d:\kzc\stm32\h743ii_lcd\lvgl\src/core\lv_obj_style_gen.h **** }
 324:d:\kzc\stm32\h743ii_lcd\lvgl\src/core\lv_obj_style_gen.h **** 
 325:d:\kzc\stm32\h743ii_lcd\lvgl\src/core\lv_obj_style_gen.h **** static inline lv_color_t lv_obj_get_style_shadow_color(const struct _lv_obj_t * obj, uint32_t part)
 326:d:\kzc\stm32\h743ii_lcd\lvgl\src/core\lv_obj_style_gen.h **** {
 327:d:\kzc\stm32\h743ii_lcd\lvgl\src/core\lv_obj_style_gen.h ****     lv_style_value_t v = lv_obj_get_style_prop(obj, part, LV_STYLE_SHADOW_COLOR);
 328:d:\kzc\stm32\h743ii_lcd\lvgl\src/core\lv_obj_style_gen.h ****     return v.color;
 329:d:\kzc\stm32\h743ii_lcd\lvgl\src/core\lv_obj_style_gen.h **** }
 330:d:\kzc\stm32\h743ii_lcd\lvgl\src/core\lv_obj_style_gen.h **** 
 331:d:\kzc\stm32\h743ii_lcd\lvgl\src/core\lv_obj_style_gen.h **** static inline lv_color_t lv_obj_get_style_shadow_color_filtered(const struct _lv_obj_t * obj, uint3
 332:d:\kzc\stm32\h743ii_lcd\lvgl\src/core\lv_obj_style_gen.h **** {
 333:d:\kzc\stm32\h743ii_lcd\lvgl\src/core\lv_obj_style_gen.h ****     lv_style_value_t v = _lv_obj_style_apply_color_filter(obj, part, lv_obj_get_style_prop(obj, par
 334:d:\kzc\stm32\h743ii_lcd\lvgl\src/core\lv_obj_style_gen.h ****     return v.color;
 335:d:\kzc\stm32\h743ii_lcd\lvgl\src/core\lv_obj_style_gen.h **** }
 336:d:\kzc\stm32\h743ii_lcd\lvgl\src/core\lv_obj_style_gen.h **** 
 337:d:\kzc\stm32\h743ii_lcd\lvgl\src/core\lv_obj_style_gen.h **** static inline lv_opa_t lv_obj_get_style_shadow_opa(const struct _lv_obj_t * obj, uint32_t part)
 338:d:\kzc\stm32\h743ii_lcd\lvgl\src/core\lv_obj_style_gen.h **** {
 339:d:\kzc\stm32\h743ii_lcd\lvgl\src/core\lv_obj_style_gen.h ****     lv_style_value_t v = lv_obj_get_style_prop(obj, part, LV_STYLE_SHADOW_OPA);
 340:d:\kzc\stm32\h743ii_lcd\lvgl\src/core\lv_obj_style_gen.h ****     return (lv_opa_t)v.num;
 341:d:\kzc\stm32\h743ii_lcd\lvgl\src/core\lv_obj_style_gen.h **** }
 342:d:\kzc\stm32\h743ii_lcd\lvgl\src/core\lv_obj_style_gen.h **** 
 343:d:\kzc\stm32\h743ii_lcd\lvgl\src/core\lv_obj_style_gen.h **** static inline lv_opa_t lv_obj_get_style_img_opa(const struct _lv_obj_t * obj, uint32_t part)
 344:d:\kzc\stm32\h743ii_lcd\lvgl\src/core\lv_obj_style_gen.h **** {
 345:d:\kzc\stm32\h743ii_lcd\lvgl\src/core\lv_obj_style_gen.h ****     lv_style_value_t v = lv_obj_get_style_prop(obj, part, LV_STYLE_IMG_OPA);
 346:d:\kzc\stm32\h743ii_lcd\lvgl\src/core\lv_obj_style_gen.h ****     return (lv_opa_t)v.num;
 347:d:\kzc\stm32\h743ii_lcd\lvgl\src/core\lv_obj_style_gen.h **** }
 348:d:\kzc\stm32\h743ii_lcd\lvgl\src/core\lv_obj_style_gen.h **** 
 349:d:\kzc\stm32\h743ii_lcd\lvgl\src/core\lv_obj_style_gen.h **** static inline lv_color_t lv_obj_get_style_img_recolor(const struct _lv_obj_t * obj, uint32_t part)
 350:d:\kzc\stm32\h743ii_lcd\lvgl\src/core\lv_obj_style_gen.h **** {
 351:d:\kzc\stm32\h743ii_lcd\lvgl\src/core\lv_obj_style_gen.h ****     lv_style_value_t v = lv_obj_get_style_prop(obj, part, LV_STYLE_IMG_RECOLOR);
 352:d:\kzc\stm32\h743ii_lcd\lvgl\src/core\lv_obj_style_gen.h ****     return v.color;
 353:d:\kzc\stm32\h743ii_lcd\lvgl\src/core\lv_obj_style_gen.h **** }
 354:d:\kzc\stm32\h743ii_lcd\lvgl\src/core\lv_obj_style_gen.h **** 
 355:d:\kzc\stm32\h743ii_lcd\lvgl\src/core\lv_obj_style_gen.h **** static inline lv_color_t lv_obj_get_style_img_recolor_filtered(const struct _lv_obj_t * obj, uint32
 356:d:\kzc\stm32\h743ii_lcd\lvgl\src/core\lv_obj_style_gen.h **** {
 357:d:\kzc\stm32\h743ii_lcd\lvgl\src/core\lv_obj_style_gen.h ****     lv_style_value_t v = _lv_obj_style_apply_color_filter(obj, part, lv_obj_get_style_prop(obj, par
ARM GAS  C:\Users\OSD\AppData\Local\Temp\cc0UtiIx.s 			page 25


 358:d:\kzc\stm32\h743ii_lcd\lvgl\src/core\lv_obj_style_gen.h ****     return v.color;
 359:d:\kzc\stm32\h743ii_lcd\lvgl\src/core\lv_obj_style_gen.h **** }
 360:d:\kzc\stm32\h743ii_lcd\lvgl\src/core\lv_obj_style_gen.h **** 
 361:d:\kzc\stm32\h743ii_lcd\lvgl\src/core\lv_obj_style_gen.h **** static inline lv_opa_t lv_obj_get_style_img_recolor_opa(const struct _lv_obj_t * obj, uint32_t part
 362:d:\kzc\stm32\h743ii_lcd\lvgl\src/core\lv_obj_style_gen.h **** {
 363:d:\kzc\stm32\h743ii_lcd\lvgl\src/core\lv_obj_style_gen.h ****     lv_style_value_t v = lv_obj_get_style_prop(obj, part, LV_STYLE_IMG_RECOLOR_OPA);
 364:d:\kzc\stm32\h743ii_lcd\lvgl\src/core\lv_obj_style_gen.h ****     return (lv_opa_t)v.num;
 365:d:\kzc\stm32\h743ii_lcd\lvgl\src/core\lv_obj_style_gen.h **** }
 366:d:\kzc\stm32\h743ii_lcd\lvgl\src/core\lv_obj_style_gen.h **** 
 367:d:\kzc\stm32\h743ii_lcd\lvgl\src/core\lv_obj_style_gen.h **** static inline lv_coord_t lv_obj_get_style_line_width(const struct _lv_obj_t * obj, uint32_t part)
 368:d:\kzc\stm32\h743ii_lcd\lvgl\src/core\lv_obj_style_gen.h **** {
 369:d:\kzc\stm32\h743ii_lcd\lvgl\src/core\lv_obj_style_gen.h ****     lv_style_value_t v = lv_obj_get_style_prop(obj, part, LV_STYLE_LINE_WIDTH);
 370:d:\kzc\stm32\h743ii_lcd\lvgl\src/core\lv_obj_style_gen.h ****     return (lv_coord_t)v.num;
 371:d:\kzc\stm32\h743ii_lcd\lvgl\src/core\lv_obj_style_gen.h **** }
 372:d:\kzc\stm32\h743ii_lcd\lvgl\src/core\lv_obj_style_gen.h **** 
 373:d:\kzc\stm32\h743ii_lcd\lvgl\src/core\lv_obj_style_gen.h **** static inline lv_coord_t lv_obj_get_style_line_dash_width(const struct _lv_obj_t * obj, uint32_t pa
 374:d:\kzc\stm32\h743ii_lcd\lvgl\src/core\lv_obj_style_gen.h **** {
 375:d:\kzc\stm32\h743ii_lcd\lvgl\src/core\lv_obj_style_gen.h ****     lv_style_value_t v = lv_obj_get_style_prop(obj, part, LV_STYLE_LINE_DASH_WIDTH);
 376:d:\kzc\stm32\h743ii_lcd\lvgl\src/core\lv_obj_style_gen.h ****     return (lv_coord_t)v.num;
 377:d:\kzc\stm32\h743ii_lcd\lvgl\src/core\lv_obj_style_gen.h **** }
 378:d:\kzc\stm32\h743ii_lcd\lvgl\src/core\lv_obj_style_gen.h **** 
 379:d:\kzc\stm32\h743ii_lcd\lvgl\src/core\lv_obj_style_gen.h **** static inline lv_coord_t lv_obj_get_style_line_dash_gap(const struct _lv_obj_t * obj, uint32_t part
 380:d:\kzc\stm32\h743ii_lcd\lvgl\src/core\lv_obj_style_gen.h **** {
 381:d:\kzc\stm32\h743ii_lcd\lvgl\src/core\lv_obj_style_gen.h ****     lv_style_value_t v = lv_obj_get_style_prop(obj, part, LV_STYLE_LINE_DASH_GAP);
 382:d:\kzc\stm32\h743ii_lcd\lvgl\src/core\lv_obj_style_gen.h ****     return (lv_coord_t)v.num;
 383:d:\kzc\stm32\h743ii_lcd\lvgl\src/core\lv_obj_style_gen.h **** }
 384:d:\kzc\stm32\h743ii_lcd\lvgl\src/core\lv_obj_style_gen.h **** 
 385:d:\kzc\stm32\h743ii_lcd\lvgl\src/core\lv_obj_style_gen.h **** static inline bool lv_obj_get_style_line_rounded(const struct _lv_obj_t * obj, uint32_t part)
 386:d:\kzc\stm32\h743ii_lcd\lvgl\src/core\lv_obj_style_gen.h **** {
 387:d:\kzc\stm32\h743ii_lcd\lvgl\src/core\lv_obj_style_gen.h ****     lv_style_value_t v = lv_obj_get_style_prop(obj, part, LV_STYLE_LINE_ROUNDED);
 388:d:\kzc\stm32\h743ii_lcd\lvgl\src/core\lv_obj_style_gen.h ****     return (bool)v.num;
 389:d:\kzc\stm32\h743ii_lcd\lvgl\src/core\lv_obj_style_gen.h **** }
 390:d:\kzc\stm32\h743ii_lcd\lvgl\src/core\lv_obj_style_gen.h **** 
 391:d:\kzc\stm32\h743ii_lcd\lvgl\src/core\lv_obj_style_gen.h **** static inline lv_color_t lv_obj_get_style_line_color(const struct _lv_obj_t * obj, uint32_t part)
 392:d:\kzc\stm32\h743ii_lcd\lvgl\src/core\lv_obj_style_gen.h **** {
 393:d:\kzc\stm32\h743ii_lcd\lvgl\src/core\lv_obj_style_gen.h ****     lv_style_value_t v = lv_obj_get_style_prop(obj, part, LV_STYLE_LINE_COLOR);
 394:d:\kzc\stm32\h743ii_lcd\lvgl\src/core\lv_obj_style_gen.h ****     return v.color;
 395:d:\kzc\stm32\h743ii_lcd\lvgl\src/core\lv_obj_style_gen.h **** }
 396:d:\kzc\stm32\h743ii_lcd\lvgl\src/core\lv_obj_style_gen.h **** 
 397:d:\kzc\stm32\h743ii_lcd\lvgl\src/core\lv_obj_style_gen.h **** static inline lv_color_t lv_obj_get_style_line_color_filtered(const struct _lv_obj_t * obj, uint32_
 398:d:\kzc\stm32\h743ii_lcd\lvgl\src/core\lv_obj_style_gen.h **** {
 399:d:\kzc\stm32\h743ii_lcd\lvgl\src/core\lv_obj_style_gen.h ****     lv_style_value_t v = _lv_obj_style_apply_color_filter(obj, part, lv_obj_get_style_prop(obj, par
 400:d:\kzc\stm32\h743ii_lcd\lvgl\src/core\lv_obj_style_gen.h ****     return v.color;
 401:d:\kzc\stm32\h743ii_lcd\lvgl\src/core\lv_obj_style_gen.h **** }
 402:d:\kzc\stm32\h743ii_lcd\lvgl\src/core\lv_obj_style_gen.h **** 
 403:d:\kzc\stm32\h743ii_lcd\lvgl\src/core\lv_obj_style_gen.h **** static inline lv_opa_t lv_obj_get_style_line_opa(const struct _lv_obj_t * obj, uint32_t part)
 404:d:\kzc\stm32\h743ii_lcd\lvgl\src/core\lv_obj_style_gen.h **** {
 405:d:\kzc\stm32\h743ii_lcd\lvgl\src/core\lv_obj_style_gen.h ****     lv_style_value_t v = lv_obj_get_style_prop(obj, part, LV_STYLE_LINE_OPA);
 406:d:\kzc\stm32\h743ii_lcd\lvgl\src/core\lv_obj_style_gen.h ****     return (lv_opa_t)v.num;
 407:d:\kzc\stm32\h743ii_lcd\lvgl\src/core\lv_obj_style_gen.h **** }
 408:d:\kzc\stm32\h743ii_lcd\lvgl\src/core\lv_obj_style_gen.h **** 
 409:d:\kzc\stm32\h743ii_lcd\lvgl\src/core\lv_obj_style_gen.h **** static inline lv_coord_t lv_obj_get_style_arc_width(const struct _lv_obj_t * obj, uint32_t part)
 410:d:\kzc\stm32\h743ii_lcd\lvgl\src/core\lv_obj_style_gen.h **** {
 411:d:\kzc\stm32\h743ii_lcd\lvgl\src/core\lv_obj_style_gen.h ****     lv_style_value_t v = lv_obj_get_style_prop(obj, part, LV_STYLE_ARC_WIDTH);
 412:d:\kzc\stm32\h743ii_lcd\lvgl\src/core\lv_obj_style_gen.h ****     return (lv_coord_t)v.num;
 413:d:\kzc\stm32\h743ii_lcd\lvgl\src/core\lv_obj_style_gen.h **** }
 414:d:\kzc\stm32\h743ii_lcd\lvgl\src/core\lv_obj_style_gen.h **** 
ARM GAS  C:\Users\OSD\AppData\Local\Temp\cc0UtiIx.s 			page 26


 415:d:\kzc\stm32\h743ii_lcd\lvgl\src/core\lv_obj_style_gen.h **** static inline bool lv_obj_get_style_arc_rounded(const struct _lv_obj_t * obj, uint32_t part)
 416:d:\kzc\stm32\h743ii_lcd\lvgl\src/core\lv_obj_style_gen.h **** {
 417:d:\kzc\stm32\h743ii_lcd\lvgl\src/core\lv_obj_style_gen.h ****     lv_style_value_t v = lv_obj_get_style_prop(obj, part, LV_STYLE_ARC_ROUNDED);
 418:d:\kzc\stm32\h743ii_lcd\lvgl\src/core\lv_obj_style_gen.h ****     return (bool)v.num;
 419:d:\kzc\stm32\h743ii_lcd\lvgl\src/core\lv_obj_style_gen.h **** }
 420:d:\kzc\stm32\h743ii_lcd\lvgl\src/core\lv_obj_style_gen.h **** 
 421:d:\kzc\stm32\h743ii_lcd\lvgl\src/core\lv_obj_style_gen.h **** static inline lv_color_t lv_obj_get_style_arc_color(const struct _lv_obj_t * obj, uint32_t part)
 422:d:\kzc\stm32\h743ii_lcd\lvgl\src/core\lv_obj_style_gen.h **** {
 423:d:\kzc\stm32\h743ii_lcd\lvgl\src/core\lv_obj_style_gen.h ****     lv_style_value_t v = lv_obj_get_style_prop(obj, part, LV_STYLE_ARC_COLOR);
 424:d:\kzc\stm32\h743ii_lcd\lvgl\src/core\lv_obj_style_gen.h ****     return v.color;
 425:d:\kzc\stm32\h743ii_lcd\lvgl\src/core\lv_obj_style_gen.h **** }
 426:d:\kzc\stm32\h743ii_lcd\lvgl\src/core\lv_obj_style_gen.h **** 
 427:d:\kzc\stm32\h743ii_lcd\lvgl\src/core\lv_obj_style_gen.h **** static inline lv_color_t lv_obj_get_style_arc_color_filtered(const struct _lv_obj_t * obj, uint32_t
 428:d:\kzc\stm32\h743ii_lcd\lvgl\src/core\lv_obj_style_gen.h **** {
 429:d:\kzc\stm32\h743ii_lcd\lvgl\src/core\lv_obj_style_gen.h ****     lv_style_value_t v = _lv_obj_style_apply_color_filter(obj, part, lv_obj_get_style_prop(obj, par
 430:d:\kzc\stm32\h743ii_lcd\lvgl\src/core\lv_obj_style_gen.h ****     return v.color;
 431:d:\kzc\stm32\h743ii_lcd\lvgl\src/core\lv_obj_style_gen.h **** }
 432:d:\kzc\stm32\h743ii_lcd\lvgl\src/core\lv_obj_style_gen.h **** 
 433:d:\kzc\stm32\h743ii_lcd\lvgl\src/core\lv_obj_style_gen.h **** static inline lv_opa_t lv_obj_get_style_arc_opa(const struct _lv_obj_t * obj, uint32_t part)
 434:d:\kzc\stm32\h743ii_lcd\lvgl\src/core\lv_obj_style_gen.h **** {
 435:d:\kzc\stm32\h743ii_lcd\lvgl\src/core\lv_obj_style_gen.h ****     lv_style_value_t v = lv_obj_get_style_prop(obj, part, LV_STYLE_ARC_OPA);
 436:d:\kzc\stm32\h743ii_lcd\lvgl\src/core\lv_obj_style_gen.h ****     return (lv_opa_t)v.num;
 437:d:\kzc\stm32\h743ii_lcd\lvgl\src/core\lv_obj_style_gen.h **** }
 438:d:\kzc\stm32\h743ii_lcd\lvgl\src/core\lv_obj_style_gen.h **** 
 439:d:\kzc\stm32\h743ii_lcd\lvgl\src/core\lv_obj_style_gen.h **** static inline const void * lv_obj_get_style_arc_img_src(const struct _lv_obj_t * obj, uint32_t part
 440:d:\kzc\stm32\h743ii_lcd\lvgl\src/core\lv_obj_style_gen.h **** {
 441:d:\kzc\stm32\h743ii_lcd\lvgl\src/core\lv_obj_style_gen.h ****     lv_style_value_t v = lv_obj_get_style_prop(obj, part, LV_STYLE_ARC_IMG_SRC);
 442:d:\kzc\stm32\h743ii_lcd\lvgl\src/core\lv_obj_style_gen.h ****     return (const void *)v.ptr;
 443:d:\kzc\stm32\h743ii_lcd\lvgl\src/core\lv_obj_style_gen.h **** }
 444:d:\kzc\stm32\h743ii_lcd\lvgl\src/core\lv_obj_style_gen.h **** 
 445:d:\kzc\stm32\h743ii_lcd\lvgl\src/core\lv_obj_style_gen.h **** static inline lv_color_t lv_obj_get_style_text_color(const struct _lv_obj_t * obj, uint32_t part)
 446:d:\kzc\stm32\h743ii_lcd\lvgl\src/core\lv_obj_style_gen.h **** {
 447:d:\kzc\stm32\h743ii_lcd\lvgl\src/core\lv_obj_style_gen.h ****     lv_style_value_t v = lv_obj_get_style_prop(obj, part, LV_STYLE_TEXT_COLOR);
 448:d:\kzc\stm32\h743ii_lcd\lvgl\src/core\lv_obj_style_gen.h ****     return v.color;
 449:d:\kzc\stm32\h743ii_lcd\lvgl\src/core\lv_obj_style_gen.h **** }
 450:d:\kzc\stm32\h743ii_lcd\lvgl\src/core\lv_obj_style_gen.h **** 
 451:d:\kzc\stm32\h743ii_lcd\lvgl\src/core\lv_obj_style_gen.h **** static inline lv_color_t lv_obj_get_style_text_color_filtered(const struct _lv_obj_t * obj, uint32_
 452:d:\kzc\stm32\h743ii_lcd\lvgl\src/core\lv_obj_style_gen.h **** {
 453:d:\kzc\stm32\h743ii_lcd\lvgl\src/core\lv_obj_style_gen.h ****     lv_style_value_t v = _lv_obj_style_apply_color_filter(obj, part, lv_obj_get_style_prop(obj, par
 454:d:\kzc\stm32\h743ii_lcd\lvgl\src/core\lv_obj_style_gen.h ****     return v.color;
 455:d:\kzc\stm32\h743ii_lcd\lvgl\src/core\lv_obj_style_gen.h **** }
 456:d:\kzc\stm32\h743ii_lcd\lvgl\src/core\lv_obj_style_gen.h **** 
 457:d:\kzc\stm32\h743ii_lcd\lvgl\src/core\lv_obj_style_gen.h **** static inline lv_opa_t lv_obj_get_style_text_opa(const struct _lv_obj_t * obj, uint32_t part)
 458:d:\kzc\stm32\h743ii_lcd\lvgl\src/core\lv_obj_style_gen.h **** {
 459:d:\kzc\stm32\h743ii_lcd\lvgl\src/core\lv_obj_style_gen.h ****     lv_style_value_t v = lv_obj_get_style_prop(obj, part, LV_STYLE_TEXT_OPA);
 460:d:\kzc\stm32\h743ii_lcd\lvgl\src/core\lv_obj_style_gen.h ****     return (lv_opa_t)v.num;
 461:d:\kzc\stm32\h743ii_lcd\lvgl\src/core\lv_obj_style_gen.h **** }
 462:d:\kzc\stm32\h743ii_lcd\lvgl\src/core\lv_obj_style_gen.h **** 
 463:d:\kzc\stm32\h743ii_lcd\lvgl\src/core\lv_obj_style_gen.h **** static inline const lv_font_t * lv_obj_get_style_text_font(const struct _lv_obj_t * obj, uint32_t p
 464:d:\kzc\stm32\h743ii_lcd\lvgl\src/core\lv_obj_style_gen.h **** {
 465:d:\kzc\stm32\h743ii_lcd\lvgl\src/core\lv_obj_style_gen.h ****     lv_style_value_t v = lv_obj_get_style_prop(obj, part, LV_STYLE_TEXT_FONT);
 466:d:\kzc\stm32\h743ii_lcd\lvgl\src/core\lv_obj_style_gen.h ****     return (const lv_font_t *)v.ptr;
 467:d:\kzc\stm32\h743ii_lcd\lvgl\src/core\lv_obj_style_gen.h **** }
 468:d:\kzc\stm32\h743ii_lcd\lvgl\src/core\lv_obj_style_gen.h **** 
 469:d:\kzc\stm32\h743ii_lcd\lvgl\src/core\lv_obj_style_gen.h **** static inline lv_coord_t lv_obj_get_style_text_letter_space(const struct _lv_obj_t * obj, uint32_t 
 242              		.loc 2 469 26 view .LVU50
 243              	.LBB80:
ARM GAS  C:\Users\OSD\AppData\Local\Temp\cc0UtiIx.s 			page 27


 470:d:\kzc\stm32\h743ii_lcd\lvgl\src/core\lv_obj_style_gen.h **** {
 471:d:\kzc\stm32\h743ii_lcd\lvgl\src/core\lv_obj_style_gen.h ****     lv_style_value_t v = lv_obj_get_style_prop(obj, part, LV_STYLE_TEXT_LETTER_SPACE);
 244              		.loc 2 471 5 view .LVU51
 245              		.loc 2 471 26 is_stmt 0 view .LVU52
 246 001e 5822     		movs	r2, #88
 247 0020 0021     		movs	r1, #0
 248 0022 2046     		mov	r0, r4
 249              	.LVL20:
 250              		.loc 2 471 26 view .LVU53
 251 0024 FFF7FEFF 		bl	lv_obj_get_style_prop
 252              	.LVL21:
 472:d:\kzc\stm32\h743ii_lcd\lvgl\src/core\lv_obj_style_gen.h ****     return (lv_coord_t)v.num;
 253              		.loc 2 472 5 is_stmt 1 view .LVU54
 254              		.loc 2 472 12 is_stmt 0 view .LVU55
 255 0028 00B2     		sxth	r0, r0
 256              	.LVL22:
 257              		.loc 2 472 12 view .LVU56
 258              	.LBE80:
 259              	.LBE79:
 260 002a F6E7     		b	.L20
 261              		.cfi_endproc
 262              	.LFE235:
 264              		.section	.text.lv_span_get_style_text_color,"ax",%progbits
 265              		.align	1
 266              		.syntax unified
 267              		.thumb
 268              		.thumb_func
 270              	lv_span_get_style_text_color:
 271              	.LVL23:
 272              	.LFB236:
 675:lvgl/src/extra/widgets/span/lv_span.c ****     lv_style_value_t value;
 273              		.loc 1 675 1 is_stmt 1 view -0
 274              		.cfi_startproc
 275              		@ args = 0, pretend = 0, frame = 8
 276              		@ frame_needed = 0, uses_anonymous_args = 0
 675:lvgl/src/extra/widgets/span/lv_span.c ****     lv_style_value_t value;
 277              		.loc 1 675 1 is_stmt 0 view .LVU58
 278 0000 10B5     		push	{r4, lr}
 279              		.cfi_def_cfa_offset 8
 280              		.cfi_offset 4, -8
 281              		.cfi_offset 14, -4
 282 0002 82B0     		sub	sp, sp, #8
 283              		.cfi_def_cfa_offset 16
 284 0004 0446     		mov	r4, r0
 285 0006 0846     		mov	r0, r1
 286              	.LVL24:
 676:lvgl/src/extra/widgets/span/lv_span.c ****     lv_res_t res = lv_style_get_prop(&span->style, LV_STYLE_TEXT_COLOR, &value);
 287              		.loc 1 676 5 is_stmt 1 view .LVU59
 677:lvgl/src/extra/widgets/span/lv_span.c ****     if(res != LV_RES_OK) {
 288              		.loc 1 677 5 view .LVU60
 677:lvgl/src/extra/widgets/span/lv_span.c ****     if(res != LV_RES_OK) {
 289              		.loc 1 677 20 is_stmt 0 view .LVU61
 290 0008 01AA     		add	r2, sp, #4
 291 000a 5521     		movs	r1, #85
 292              	.LVL25:
 677:lvgl/src/extra/widgets/span/lv_span.c ****     if(res != LV_RES_OK) {
 293              		.loc 1 677 20 view .LVU62
ARM GAS  C:\Users\OSD\AppData\Local\Temp\cc0UtiIx.s 			page 28


 294 000c 0830     		adds	r0, r0, #8
 295              	.LVL26:
 677:lvgl/src/extra/widgets/span/lv_span.c ****     if(res != LV_RES_OK) {
 296              		.loc 1 677 20 view .LVU63
 297 000e FFF7FEFF 		bl	lv_style_get_prop
 298              	.LVL27:
 678:lvgl/src/extra/widgets/span/lv_span.c ****         value.color = lv_obj_get_style_text_color(par, LV_PART_MAIN);
 299              		.loc 1 678 5 is_stmt 1 view .LVU64
 678:lvgl/src/extra/widgets/span/lv_span.c ****         value.color = lv_obj_get_style_text_color(par, LV_PART_MAIN);
 300              		.loc 1 678 7 is_stmt 0 view .LVU65
 301 0012 0128     		cmp	r0, #1
 302 0014 02D1     		bne	.L26
 303              	.LVL28:
 304              	.L24:
 681:lvgl/src/extra/widgets/span/lv_span.c **** }
 305              		.loc 1 681 5 is_stmt 1 view .LVU66
 682:lvgl/src/extra/widgets/span/lv_span.c **** 
 306              		.loc 1 682 1 is_stmt 0 view .LVU67
 307 0016 0198     		ldr	r0, [sp, #4]
 308 0018 02B0     		add	sp, sp, #8
 309              		.cfi_remember_state
 310              		.cfi_def_cfa_offset 8
 311              		@ sp needed
 312 001a 10BD     		pop	{r4, pc}
 313              	.LVL29:
 314              	.L26:
 315              		.cfi_restore_state
 679:lvgl/src/extra/widgets/span/lv_span.c ****     }
 316              		.loc 1 679 9 is_stmt 1 view .LVU68
 317              	.LBB81:
 318              	.LBI81:
 445:d:\kzc\stm32\h743ii_lcd\lvgl\src/core\lv_obj_style_gen.h **** {
 319              		.loc 2 445 26 view .LVU69
 320              	.LBB82:
 447:d:\kzc\stm32\h743ii_lcd\lvgl\src/core\lv_obj_style_gen.h ****     return v.color;
 321              		.loc 2 447 5 view .LVU70
 447:d:\kzc\stm32\h743ii_lcd\lvgl\src/core\lv_obj_style_gen.h ****     return v.color;
 322              		.loc 2 447 26 is_stmt 0 view .LVU71
 323 001c 5522     		movs	r2, #85
 324 001e 0021     		movs	r1, #0
 325 0020 2046     		mov	r0, r4
 326              	.LVL30:
 447:d:\kzc\stm32\h743ii_lcd\lvgl\src/core\lv_obj_style_gen.h ****     return v.color;
 327              		.loc 2 447 26 view .LVU72
 328 0022 FFF7FEFF 		bl	lv_obj_get_style_prop
 329              	.LVL31:
 448:d:\kzc\stm32\h743ii_lcd\lvgl\src/core\lv_obj_style_gen.h **** }
 330              		.loc 2 448 5 is_stmt 1 view .LVU73
 448:d:\kzc\stm32\h743ii_lcd\lvgl\src/core\lv_obj_style_gen.h **** }
 331              		.loc 2 448 5 is_stmt 0 view .LVU74
 332              	.LBE82:
 333              	.LBE81:
 679:lvgl/src/extra/widgets/span/lv_span.c ****     }
 334              		.loc 1 679 23 view .LVU75
 335 0026 0190     		str	r0, [sp, #4]
 336 0028 F5E7     		b	.L24
 337              		.cfi_endproc
ARM GAS  C:\Users\OSD\AppData\Local\Temp\cc0UtiIx.s 			page 29


 338              	.LFE236:
 340              		.section	.text.lv_span_get_style_text_opa,"ax",%progbits
 341              		.align	1
 342              		.syntax unified
 343              		.thumb
 344              		.thumb_func
 346              	lv_span_get_style_text_opa:
 347              	.LVL32:
 348              	.LFB237:
 685:lvgl/src/extra/widgets/span/lv_span.c ****     lv_opa_t opa;
 349              		.loc 1 685 1 is_stmt 1 view -0
 350              		.cfi_startproc
 351              		@ args = 0, pretend = 0, frame = 8
 352              		@ frame_needed = 0, uses_anonymous_args = 0
 685:lvgl/src/extra/widgets/span/lv_span.c ****     lv_opa_t opa;
 353              		.loc 1 685 1 is_stmt 0 view .LVU77
 354 0000 10B5     		push	{r4, lr}
 355              		.cfi_def_cfa_offset 8
 356              		.cfi_offset 4, -8
 357              		.cfi_offset 14, -4
 358 0002 82B0     		sub	sp, sp, #8
 359              		.cfi_def_cfa_offset 16
 360 0004 0446     		mov	r4, r0
 361 0006 0846     		mov	r0, r1
 362              	.LVL33:
 686:lvgl/src/extra/widgets/span/lv_span.c ****     lv_style_value_t value;
 363              		.loc 1 686 5 is_stmt 1 view .LVU78
 687:lvgl/src/extra/widgets/span/lv_span.c ****     lv_res_t res = lv_style_get_prop(&span->style, LV_STYLE_TEXT_OPA, &value);
 364              		.loc 1 687 5 view .LVU79
 688:lvgl/src/extra/widgets/span/lv_span.c ****     if(res != LV_RES_OK) {
 365              		.loc 1 688 5 view .LVU80
 688:lvgl/src/extra/widgets/span/lv_span.c ****     if(res != LV_RES_OK) {
 366              		.loc 1 688 20 is_stmt 0 view .LVU81
 367 0008 01AA     		add	r2, sp, #4
 368 000a 5621     		movs	r1, #86
 369              	.LVL34:
 688:lvgl/src/extra/widgets/span/lv_span.c ****     if(res != LV_RES_OK) {
 370              		.loc 1 688 20 view .LVU82
 371 000c 0830     		adds	r0, r0, #8
 372              	.LVL35:
 688:lvgl/src/extra/widgets/span/lv_span.c ****     if(res != LV_RES_OK) {
 373              		.loc 1 688 20 view .LVU83
 374 000e FFF7FEFF 		bl	lv_style_get_prop
 375              	.LVL36:
 689:lvgl/src/extra/widgets/span/lv_span.c ****         opa = (lv_opa_t)lv_obj_get_style_text_opa(par, LV_PART_MAIN);
 376              		.loc 1 689 5 is_stmt 1 view .LVU84
 689:lvgl/src/extra/widgets/span/lv_span.c ****         opa = (lv_opa_t)lv_obj_get_style_text_opa(par, LV_PART_MAIN);
 377              		.loc 1 689 7 is_stmt 0 view .LVU85
 378 0012 0128     		cmp	r0, #1
 379 0014 03D1     		bne	.L31
 693:lvgl/src/extra/widgets/span/lv_span.c ****     }
 380              		.loc 1 693 9 is_stmt 1 view .LVU86
 693:lvgl/src/extra/widgets/span/lv_span.c ****     }
 381              		.loc 1 693 13 is_stmt 0 view .LVU87
 382 0016 9DF80400 		ldrb	r0, [sp, #4]	@ zero_extendqisi2
 383              	.LVL37:
 384              	.L29:
ARM GAS  C:\Users\OSD\AppData\Local\Temp\cc0UtiIx.s 			page 30


 695:lvgl/src/extra/widgets/span/lv_span.c **** }
 385              		.loc 1 695 5 is_stmt 1 view .LVU88
 696:lvgl/src/extra/widgets/span/lv_span.c **** 
 386              		.loc 1 696 1 is_stmt 0 view .LVU89
 387 001a 02B0     		add	sp, sp, #8
 388              		.cfi_remember_state
 389              		.cfi_def_cfa_offset 8
 390              		@ sp needed
 391 001c 10BD     		pop	{r4, pc}
 392              	.LVL38:
 393              	.L31:
 394              		.cfi_restore_state
 690:lvgl/src/extra/widgets/span/lv_span.c ****     }
 395              		.loc 1 690 9 is_stmt 1 view .LVU90
 396              	.LBB83:
 397              	.LBI83:
 457:d:\kzc\stm32\h743ii_lcd\lvgl\src/core\lv_obj_style_gen.h **** {
 398              		.loc 2 457 24 view .LVU91
 399              	.LBB84:
 459:d:\kzc\stm32\h743ii_lcd\lvgl\src/core\lv_obj_style_gen.h ****     return (lv_opa_t)v.num;
 400              		.loc 2 459 5 view .LVU92
 459:d:\kzc\stm32\h743ii_lcd\lvgl\src/core\lv_obj_style_gen.h ****     return (lv_opa_t)v.num;
 401              		.loc 2 459 26 is_stmt 0 view .LVU93
 402 001e 5622     		movs	r2, #86
 403 0020 0021     		movs	r1, #0
 404 0022 2046     		mov	r0, r4
 405              	.LVL39:
 459:d:\kzc\stm32\h743ii_lcd\lvgl\src/core\lv_obj_style_gen.h ****     return (lv_opa_t)v.num;
 406              		.loc 2 459 26 view .LVU94
 407 0024 FFF7FEFF 		bl	lv_obj_get_style_prop
 408              	.LVL40:
 460:d:\kzc\stm32\h743ii_lcd\lvgl\src/core\lv_obj_style_gen.h **** }
 409              		.loc 2 460 5 is_stmt 1 view .LVU95
 460:d:\kzc\stm32\h743ii_lcd\lvgl\src/core\lv_obj_style_gen.h **** }
 410              		.loc 2 460 12 is_stmt 0 view .LVU96
 411 0028 C0B2     		uxtb	r0, r0
 412              	.LVL41:
 460:d:\kzc\stm32\h743ii_lcd\lvgl\src/core\lv_obj_style_gen.h **** }
 413              		.loc 2 460 12 view .LVU97
 414              	.LBE84:
 415              	.LBE83:
 416 002a F6E7     		b	.L29
 417              		.cfi_endproc
 418              	.LFE237:
 420              		.section	.text.lv_span_get_style_text_font,"ax",%progbits
 421              		.align	1
 422              		.syntax unified
 423              		.thumb
 424              		.thumb_func
 426              	lv_span_get_style_text_font:
 427              	.LVL42:
 428              	.LFB234:
 647:lvgl/src/extra/widgets/span/lv_span.c ****     const lv_font_t * font;
 429              		.loc 1 647 1 is_stmt 1 view -0
 430              		.cfi_startproc
 431              		@ args = 0, pretend = 0, frame = 8
 432              		@ frame_needed = 0, uses_anonymous_args = 0
ARM GAS  C:\Users\OSD\AppData\Local\Temp\cc0UtiIx.s 			page 31


 647:lvgl/src/extra/widgets/span/lv_span.c ****     const lv_font_t * font;
 433              		.loc 1 647 1 is_stmt 0 view .LVU99
 434 0000 10B5     		push	{r4, lr}
 435              		.cfi_def_cfa_offset 8
 436              		.cfi_offset 4, -8
 437              		.cfi_offset 14, -4
 438 0002 82B0     		sub	sp, sp, #8
 439              		.cfi_def_cfa_offset 16
 440 0004 0446     		mov	r4, r0
 441 0006 0846     		mov	r0, r1
 442              	.LVL43:
 648:lvgl/src/extra/widgets/span/lv_span.c ****     lv_style_value_t value;
 443              		.loc 1 648 5 is_stmt 1 view .LVU100
 649:lvgl/src/extra/widgets/span/lv_span.c ****     lv_res_t res = lv_style_get_prop(&span->style, LV_STYLE_TEXT_FONT, &value);
 444              		.loc 1 649 5 view .LVU101
 650:lvgl/src/extra/widgets/span/lv_span.c ****     if(res != LV_RES_OK) {
 445              		.loc 1 650 5 view .LVU102
 650:lvgl/src/extra/widgets/span/lv_span.c ****     if(res != LV_RES_OK) {
 446              		.loc 1 650 20 is_stmt 0 view .LVU103
 447 0008 01AA     		add	r2, sp, #4
 448 000a 5721     		movs	r1, #87
 449              	.LVL44:
 650:lvgl/src/extra/widgets/span/lv_span.c ****     if(res != LV_RES_OK) {
 450              		.loc 1 650 20 view .LVU104
 451 000c 0830     		adds	r0, r0, #8
 452              	.LVL45:
 650:lvgl/src/extra/widgets/span/lv_span.c ****     if(res != LV_RES_OK) {
 453              		.loc 1 650 20 view .LVU105
 454 000e FFF7FEFF 		bl	lv_style_get_prop
 455              	.LVL46:
 651:lvgl/src/extra/widgets/span/lv_span.c ****         font = lv_obj_get_style_text_font(par, LV_PART_MAIN);
 456              		.loc 1 651 5 is_stmt 1 view .LVU106
 651:lvgl/src/extra/widgets/span/lv_span.c ****         font = lv_obj_get_style_text_font(par, LV_PART_MAIN);
 457              		.loc 1 651 7 is_stmt 0 view .LVU107
 458 0012 0128     		cmp	r0, #1
 459 0014 02D1     		bne	.L36
 655:lvgl/src/extra/widgets/span/lv_span.c ****     }
 460              		.loc 1 655 9 is_stmt 1 view .LVU108
 655:lvgl/src/extra/widgets/span/lv_span.c ****     }
 461              		.loc 1 655 14 is_stmt 0 view .LVU109
 462 0016 0198     		ldr	r0, [sp, #4]
 463              	.LVL47:
 657:lvgl/src/extra/widgets/span/lv_span.c **** }
 464              		.loc 1 657 5 is_stmt 1 view .LVU110
 465              	.L32:
 658:lvgl/src/extra/widgets/span/lv_span.c **** 
 466              		.loc 1 658 1 is_stmt 0 view .LVU111
 467 0018 02B0     		add	sp, sp, #8
 468              		.cfi_remember_state
 469              		.cfi_def_cfa_offset 8
 470              		@ sp needed
 471 001a 10BD     		pop	{r4, pc}
 472              	.LVL48:
 473              	.L36:
 474              		.cfi_restore_state
 652:lvgl/src/extra/widgets/span/lv_span.c ****     }
 475              		.loc 1 652 9 is_stmt 1 view .LVU112
ARM GAS  C:\Users\OSD\AppData\Local\Temp\cc0UtiIx.s 			page 32


 476              	.LBB85:
 477              	.LBI85:
 463:d:\kzc\stm32\h743ii_lcd\lvgl\src/core\lv_obj_style_gen.h **** {
 478              		.loc 2 463 33 view .LVU113
 479              	.LBB86:
 465:d:\kzc\stm32\h743ii_lcd\lvgl\src/core\lv_obj_style_gen.h ****     return (const lv_font_t *)v.ptr;
 480              		.loc 2 465 5 view .LVU114
 465:d:\kzc\stm32\h743ii_lcd\lvgl\src/core\lv_obj_style_gen.h ****     return (const lv_font_t *)v.ptr;
 481              		.loc 2 465 26 is_stmt 0 view .LVU115
 482 001c 5722     		movs	r2, #87
 483 001e 0021     		movs	r1, #0
 484 0020 2046     		mov	r0, r4
 485              	.LVL49:
 465:d:\kzc\stm32\h743ii_lcd\lvgl\src/core\lv_obj_style_gen.h ****     return (const lv_font_t *)v.ptr;
 486              		.loc 2 465 26 view .LVU116
 487 0022 FFF7FEFF 		bl	lv_obj_get_style_prop
 488              	.LVL50:
 466:d:\kzc\stm32\h743ii_lcd\lvgl\src/core\lv_obj_style_gen.h **** }
 489              		.loc 2 466 5 is_stmt 1 view .LVU117
 466:d:\kzc\stm32\h743ii_lcd\lvgl\src/core\lv_obj_style_gen.h **** }
 490              		.loc 2 466 5 is_stmt 0 view .LVU118
 491              	.LBE86:
 492              	.LBE85:
 493 0026 F7E7     		b	.L32
 494              		.cfi_endproc
 495              	.LFE234:
 497              		.section	.text.lv_span_get_style_text_blend_mode,"ax",%progbits
 498              		.align	1
 499              		.syntax unified
 500              		.thumb
 501              		.thumb_func
 503              	lv_span_get_style_text_blend_mode:
 504              	.LVL51:
 505              	.LFB238:
 699:lvgl/src/extra/widgets/span/lv_span.c ****     lv_blend_mode_t mode;
 506              		.loc 1 699 1 is_stmt 1 view -0
 507              		.cfi_startproc
 508              		@ args = 0, pretend = 0, frame = 8
 509              		@ frame_needed = 0, uses_anonymous_args = 0
 699:lvgl/src/extra/widgets/span/lv_span.c ****     lv_blend_mode_t mode;
 510              		.loc 1 699 1 is_stmt 0 view .LVU120
 511 0000 10B5     		push	{r4, lr}
 512              		.cfi_def_cfa_offset 8
 513              		.cfi_offset 4, -8
 514              		.cfi_offset 14, -4
 515 0002 82B0     		sub	sp, sp, #8
 516              		.cfi_def_cfa_offset 16
 517 0004 0446     		mov	r4, r0
 518 0006 0846     		mov	r0, r1
 519              	.LVL52:
 700:lvgl/src/extra/widgets/span/lv_span.c ****     lv_style_value_t value;
 520              		.loc 1 700 5 is_stmt 1 view .LVU121
 701:lvgl/src/extra/widgets/span/lv_span.c ****     lv_res_t res = lv_style_get_prop(&span->style, LV_STYLE_BLEND_MODE, &value);
 521              		.loc 1 701 5 view .LVU122
 702:lvgl/src/extra/widgets/span/lv_span.c ****     if(res != LV_RES_OK) {
 522              		.loc 1 702 5 view .LVU123
 702:lvgl/src/extra/widgets/span/lv_span.c ****     if(res != LV_RES_OK) {
ARM GAS  C:\Users\OSD\AppData\Local\Temp\cc0UtiIx.s 			page 33


 523              		.loc 1 702 20 is_stmt 0 view .LVU124
 524 0008 01AA     		add	r2, sp, #4
 525 000a 6821     		movs	r1, #104
 526              	.LVL53:
 702:lvgl/src/extra/widgets/span/lv_span.c ****     if(res != LV_RES_OK) {
 527              		.loc 1 702 20 view .LVU125
 528 000c 0830     		adds	r0, r0, #8
 529              	.LVL54:
 702:lvgl/src/extra/widgets/span/lv_span.c ****     if(res != LV_RES_OK) {
 530              		.loc 1 702 20 view .LVU126
 531 000e FFF7FEFF 		bl	lv_style_get_prop
 532              	.LVL55:
 703:lvgl/src/extra/widgets/span/lv_span.c ****         mode = (lv_blend_mode_t)lv_obj_get_style_blend_mode(par, LV_PART_MAIN);
 533              		.loc 1 703 5 is_stmt 1 view .LVU127
 703:lvgl/src/extra/widgets/span/lv_span.c ****         mode = (lv_blend_mode_t)lv_obj_get_style_blend_mode(par, LV_PART_MAIN);
 534              		.loc 1 703 7 is_stmt 0 view .LVU128
 535 0012 0128     		cmp	r0, #1
 536 0014 03D1     		bne	.L41
 707:lvgl/src/extra/widgets/span/lv_span.c ****     }
 537              		.loc 1 707 9 is_stmt 1 view .LVU129
 707:lvgl/src/extra/widgets/span/lv_span.c ****     }
 538              		.loc 1 707 14 is_stmt 0 view .LVU130
 539 0016 9DF80400 		ldrb	r0, [sp, #4]	@ zero_extendqisi2
 540              	.LVL56:
 541              	.L39:
 709:lvgl/src/extra/widgets/span/lv_span.c **** }
 542              		.loc 1 709 5 is_stmt 1 view .LVU131
 710:lvgl/src/extra/widgets/span/lv_span.c **** 
 543              		.loc 1 710 1 is_stmt 0 view .LVU132
 544 001a 02B0     		add	sp, sp, #8
 545              		.cfi_remember_state
 546              		.cfi_def_cfa_offset 8
 547              		@ sp needed
 548 001c 10BD     		pop	{r4, pc}
 549              	.LVL57:
 550              	.L41:
 551              		.cfi_restore_state
 704:lvgl/src/extra/widgets/span/lv_span.c ****     }
 552              		.loc 1 704 9 is_stmt 1 view .LVU133
 553              	.LBB87:
 554              	.LBI87:
 473:d:\kzc\stm32\h743ii_lcd\lvgl\src/core\lv_obj_style_gen.h **** }
 474:d:\kzc\stm32\h743ii_lcd\lvgl\src/core\lv_obj_style_gen.h **** 
 475:d:\kzc\stm32\h743ii_lcd\lvgl\src/core\lv_obj_style_gen.h **** static inline lv_coord_t lv_obj_get_style_text_line_space(const struct _lv_obj_t * obj, uint32_t pa
 476:d:\kzc\stm32\h743ii_lcd\lvgl\src/core\lv_obj_style_gen.h **** {
 477:d:\kzc\stm32\h743ii_lcd\lvgl\src/core\lv_obj_style_gen.h ****     lv_style_value_t v = lv_obj_get_style_prop(obj, part, LV_STYLE_TEXT_LINE_SPACE);
 478:d:\kzc\stm32\h743ii_lcd\lvgl\src/core\lv_obj_style_gen.h ****     return (lv_coord_t)v.num;
 479:d:\kzc\stm32\h743ii_lcd\lvgl\src/core\lv_obj_style_gen.h **** }
 480:d:\kzc\stm32\h743ii_lcd\lvgl\src/core\lv_obj_style_gen.h **** 
 481:d:\kzc\stm32\h743ii_lcd\lvgl\src/core\lv_obj_style_gen.h **** static inline lv_text_decor_t lv_obj_get_style_text_decor(const struct _lv_obj_t * obj, uint32_t pa
 482:d:\kzc\stm32\h743ii_lcd\lvgl\src/core\lv_obj_style_gen.h **** {
 483:d:\kzc\stm32\h743ii_lcd\lvgl\src/core\lv_obj_style_gen.h ****     lv_style_value_t v = lv_obj_get_style_prop(obj, part, LV_STYLE_TEXT_DECOR);
 484:d:\kzc\stm32\h743ii_lcd\lvgl\src/core\lv_obj_style_gen.h ****     return (lv_text_decor_t)v.num;
 485:d:\kzc\stm32\h743ii_lcd\lvgl\src/core\lv_obj_style_gen.h **** }
 486:d:\kzc\stm32\h743ii_lcd\lvgl\src/core\lv_obj_style_gen.h **** 
 487:d:\kzc\stm32\h743ii_lcd\lvgl\src/core\lv_obj_style_gen.h **** static inline lv_text_align_t lv_obj_get_style_text_align(const struct _lv_obj_t * obj, uint32_t pa
 488:d:\kzc\stm32\h743ii_lcd\lvgl\src/core\lv_obj_style_gen.h **** {
ARM GAS  C:\Users\OSD\AppData\Local\Temp\cc0UtiIx.s 			page 34


 489:d:\kzc\stm32\h743ii_lcd\lvgl\src/core\lv_obj_style_gen.h ****     lv_style_value_t v = lv_obj_get_style_prop(obj, part, LV_STYLE_TEXT_ALIGN);
 490:d:\kzc\stm32\h743ii_lcd\lvgl\src/core\lv_obj_style_gen.h ****     return (lv_text_align_t)v.num;
 491:d:\kzc\stm32\h743ii_lcd\lvgl\src/core\lv_obj_style_gen.h **** }
 492:d:\kzc\stm32\h743ii_lcd\lvgl\src/core\lv_obj_style_gen.h **** 
 493:d:\kzc\stm32\h743ii_lcd\lvgl\src/core\lv_obj_style_gen.h **** static inline lv_coord_t lv_obj_get_style_radius(const struct _lv_obj_t * obj, uint32_t part)
 494:d:\kzc\stm32\h743ii_lcd\lvgl\src/core\lv_obj_style_gen.h **** {
 495:d:\kzc\stm32\h743ii_lcd\lvgl\src/core\lv_obj_style_gen.h ****     lv_style_value_t v = lv_obj_get_style_prop(obj, part, LV_STYLE_RADIUS);
 496:d:\kzc\stm32\h743ii_lcd\lvgl\src/core\lv_obj_style_gen.h ****     return (lv_coord_t)v.num;
 497:d:\kzc\stm32\h743ii_lcd\lvgl\src/core\lv_obj_style_gen.h **** }
 498:d:\kzc\stm32\h743ii_lcd\lvgl\src/core\lv_obj_style_gen.h **** 
 499:d:\kzc\stm32\h743ii_lcd\lvgl\src/core\lv_obj_style_gen.h **** static inline bool lv_obj_get_style_clip_corner(const struct _lv_obj_t * obj, uint32_t part)
 500:d:\kzc\stm32\h743ii_lcd\lvgl\src/core\lv_obj_style_gen.h **** {
 501:d:\kzc\stm32\h743ii_lcd\lvgl\src/core\lv_obj_style_gen.h ****     lv_style_value_t v = lv_obj_get_style_prop(obj, part, LV_STYLE_CLIP_CORNER);
 502:d:\kzc\stm32\h743ii_lcd\lvgl\src/core\lv_obj_style_gen.h ****     return (bool)v.num;
 503:d:\kzc\stm32\h743ii_lcd\lvgl\src/core\lv_obj_style_gen.h **** }
 504:d:\kzc\stm32\h743ii_lcd\lvgl\src/core\lv_obj_style_gen.h **** 
 505:d:\kzc\stm32\h743ii_lcd\lvgl\src/core\lv_obj_style_gen.h **** static inline lv_opa_t lv_obj_get_style_opa(const struct _lv_obj_t * obj, uint32_t part)
 506:d:\kzc\stm32\h743ii_lcd\lvgl\src/core\lv_obj_style_gen.h **** {
 507:d:\kzc\stm32\h743ii_lcd\lvgl\src/core\lv_obj_style_gen.h ****     lv_style_value_t v = lv_obj_get_style_prop(obj, part, LV_STYLE_OPA);
 508:d:\kzc\stm32\h743ii_lcd\lvgl\src/core\lv_obj_style_gen.h ****     return (lv_opa_t)v.num;
 509:d:\kzc\stm32\h743ii_lcd\lvgl\src/core\lv_obj_style_gen.h **** }
 510:d:\kzc\stm32\h743ii_lcd\lvgl\src/core\lv_obj_style_gen.h **** 
 511:d:\kzc\stm32\h743ii_lcd\lvgl\src/core\lv_obj_style_gen.h **** static inline lv_opa_t lv_obj_get_style_opa_layered(const struct _lv_obj_t * obj, uint32_t part)
 512:d:\kzc\stm32\h743ii_lcd\lvgl\src/core\lv_obj_style_gen.h **** {
 513:d:\kzc\stm32\h743ii_lcd\lvgl\src/core\lv_obj_style_gen.h ****     lv_style_value_t v = lv_obj_get_style_prop(obj, part, LV_STYLE_OPA_LAYERED);
 514:d:\kzc\stm32\h743ii_lcd\lvgl\src/core\lv_obj_style_gen.h ****     return (lv_opa_t)v.num;
 515:d:\kzc\stm32\h743ii_lcd\lvgl\src/core\lv_obj_style_gen.h **** }
 516:d:\kzc\stm32\h743ii_lcd\lvgl\src/core\lv_obj_style_gen.h **** 
 517:d:\kzc\stm32\h743ii_lcd\lvgl\src/core\lv_obj_style_gen.h **** static inline const lv_color_filter_dsc_t * lv_obj_get_style_color_filter_dsc(const struct _lv_obj_
 518:d:\kzc\stm32\h743ii_lcd\lvgl\src/core\lv_obj_style_gen.h **** {
 519:d:\kzc\stm32\h743ii_lcd\lvgl\src/core\lv_obj_style_gen.h ****     lv_style_value_t v = lv_obj_get_style_prop(obj, part, LV_STYLE_COLOR_FILTER_DSC);
 520:d:\kzc\stm32\h743ii_lcd\lvgl\src/core\lv_obj_style_gen.h ****     return (const lv_color_filter_dsc_t *)v.ptr;
 521:d:\kzc\stm32\h743ii_lcd\lvgl\src/core\lv_obj_style_gen.h **** }
 522:d:\kzc\stm32\h743ii_lcd\lvgl\src/core\lv_obj_style_gen.h **** 
 523:d:\kzc\stm32\h743ii_lcd\lvgl\src/core\lv_obj_style_gen.h **** static inline lv_opa_t lv_obj_get_style_color_filter_opa(const struct _lv_obj_t * obj, uint32_t par
 524:d:\kzc\stm32\h743ii_lcd\lvgl\src/core\lv_obj_style_gen.h **** {
 525:d:\kzc\stm32\h743ii_lcd\lvgl\src/core\lv_obj_style_gen.h ****     lv_style_value_t v = lv_obj_get_style_prop(obj, part, LV_STYLE_COLOR_FILTER_OPA);
 526:d:\kzc\stm32\h743ii_lcd\lvgl\src/core\lv_obj_style_gen.h ****     return (lv_opa_t)v.num;
 527:d:\kzc\stm32\h743ii_lcd\lvgl\src/core\lv_obj_style_gen.h **** }
 528:d:\kzc\stm32\h743ii_lcd\lvgl\src/core\lv_obj_style_gen.h **** 
 529:d:\kzc\stm32\h743ii_lcd\lvgl\src/core\lv_obj_style_gen.h **** static inline const lv_anim_t * lv_obj_get_style_anim(const struct _lv_obj_t * obj, uint32_t part)
 530:d:\kzc\stm32\h743ii_lcd\lvgl\src/core\lv_obj_style_gen.h **** {
 531:d:\kzc\stm32\h743ii_lcd\lvgl\src/core\lv_obj_style_gen.h ****     lv_style_value_t v = lv_obj_get_style_prop(obj, part, LV_STYLE_ANIM);
 532:d:\kzc\stm32\h743ii_lcd\lvgl\src/core\lv_obj_style_gen.h ****     return (const lv_anim_t *)v.ptr;
 533:d:\kzc\stm32\h743ii_lcd\lvgl\src/core\lv_obj_style_gen.h **** }
 534:d:\kzc\stm32\h743ii_lcd\lvgl\src/core\lv_obj_style_gen.h **** 
 535:d:\kzc\stm32\h743ii_lcd\lvgl\src/core\lv_obj_style_gen.h **** static inline uint32_t lv_obj_get_style_anim_time(const struct _lv_obj_t * obj, uint32_t part)
 536:d:\kzc\stm32\h743ii_lcd\lvgl\src/core\lv_obj_style_gen.h **** {
 537:d:\kzc\stm32\h743ii_lcd\lvgl\src/core\lv_obj_style_gen.h ****     lv_style_value_t v = lv_obj_get_style_prop(obj, part, LV_STYLE_ANIM_TIME);
 538:d:\kzc\stm32\h743ii_lcd\lvgl\src/core\lv_obj_style_gen.h ****     return (uint32_t)v.num;
 539:d:\kzc\stm32\h743ii_lcd\lvgl\src/core\lv_obj_style_gen.h **** }
 540:d:\kzc\stm32\h743ii_lcd\lvgl\src/core\lv_obj_style_gen.h **** 
 541:d:\kzc\stm32\h743ii_lcd\lvgl\src/core\lv_obj_style_gen.h **** static inline uint32_t lv_obj_get_style_anim_speed(const struct _lv_obj_t * obj, uint32_t part)
 542:d:\kzc\stm32\h743ii_lcd\lvgl\src/core\lv_obj_style_gen.h **** {
 543:d:\kzc\stm32\h743ii_lcd\lvgl\src/core\lv_obj_style_gen.h ****     lv_style_value_t v = lv_obj_get_style_prop(obj, part, LV_STYLE_ANIM_SPEED);
 544:d:\kzc\stm32\h743ii_lcd\lvgl\src/core\lv_obj_style_gen.h ****     return (uint32_t)v.num;
 545:d:\kzc\stm32\h743ii_lcd\lvgl\src/core\lv_obj_style_gen.h **** }
ARM GAS  C:\Users\OSD\AppData\Local\Temp\cc0UtiIx.s 			page 35


 546:d:\kzc\stm32\h743ii_lcd\lvgl\src/core\lv_obj_style_gen.h **** 
 547:d:\kzc\stm32\h743ii_lcd\lvgl\src/core\lv_obj_style_gen.h **** static inline const lv_style_transition_dsc_t * lv_obj_get_style_transition(const struct _lv_obj_t 
 548:d:\kzc\stm32\h743ii_lcd\lvgl\src/core\lv_obj_style_gen.h **** {
 549:d:\kzc\stm32\h743ii_lcd\lvgl\src/core\lv_obj_style_gen.h ****     lv_style_value_t v = lv_obj_get_style_prop(obj, part, LV_STYLE_TRANSITION);
 550:d:\kzc\stm32\h743ii_lcd\lvgl\src/core\lv_obj_style_gen.h ****     return (const lv_style_transition_dsc_t *)v.ptr;
 551:d:\kzc\stm32\h743ii_lcd\lvgl\src/core\lv_obj_style_gen.h **** }
 552:d:\kzc\stm32\h743ii_lcd\lvgl\src/core\lv_obj_style_gen.h **** 
 553:d:\kzc\stm32\h743ii_lcd\lvgl\src/core\lv_obj_style_gen.h **** static inline lv_blend_mode_t lv_obj_get_style_blend_mode(const struct _lv_obj_t * obj, uint32_t pa
 555              		.loc 2 553 31 view .LVU134
 556              	.LBB88:
 554:d:\kzc\stm32\h743ii_lcd\lvgl\src/core\lv_obj_style_gen.h **** {
 555:d:\kzc\stm32\h743ii_lcd\lvgl\src/core\lv_obj_style_gen.h ****     lv_style_value_t v = lv_obj_get_style_prop(obj, part, LV_STYLE_BLEND_MODE);
 557              		.loc 2 555 5 view .LVU135
 558              		.loc 2 555 26 is_stmt 0 view .LVU136
 559 001e 6822     		movs	r2, #104
 560 0020 0021     		movs	r1, #0
 561 0022 2046     		mov	r0, r4
 562              	.LVL58:
 563              		.loc 2 555 26 view .LVU137
 564 0024 FFF7FEFF 		bl	lv_obj_get_style_prop
 565              	.LVL59:
 556:d:\kzc\stm32\h743ii_lcd\lvgl\src/core\lv_obj_style_gen.h ****     return (lv_blend_mode_t)v.num;
 566              		.loc 2 556 5 is_stmt 1 view .LVU138
 567              		.loc 2 556 12 is_stmt 0 view .LVU139
 568 0028 C0B2     		uxtb	r0, r0
 569              	.LVL60:
 570              		.loc 2 556 12 view .LVU140
 571              	.LBE88:
 572              	.LBE87:
 573 002a F6E7     		b	.L39
 574              		.cfi_endproc
 575              	.LFE238:
 577              		.section	.text.lv_span_get_style_text_decor,"ax",%progbits
 578              		.align	1
 579              		.syntax unified
 580              		.thumb
 581              		.thumb_func
 583              	lv_span_get_style_text_decor:
 584              	.LVL61:
 585              	.LFB239:
 713:lvgl/src/extra/widgets/span/lv_span.c ****     int32_t decor;
 586              		.loc 1 713 1 is_stmt 1 view -0
 587              		.cfi_startproc
 588              		@ args = 0, pretend = 0, frame = 8
 589              		@ frame_needed = 0, uses_anonymous_args = 0
 713:lvgl/src/extra/widgets/span/lv_span.c ****     int32_t decor;
 590              		.loc 1 713 1 is_stmt 0 view .LVU142
 591 0000 10B5     		push	{r4, lr}
 592              		.cfi_def_cfa_offset 8
 593              		.cfi_offset 4, -8
 594              		.cfi_offset 14, -4
 595 0002 82B0     		sub	sp, sp, #8
 596              		.cfi_def_cfa_offset 16
 597 0004 0446     		mov	r4, r0
 598 0006 0846     		mov	r0, r1
 599              	.LVL62:
 714:lvgl/src/extra/widgets/span/lv_span.c ****     lv_style_value_t value;
ARM GAS  C:\Users\OSD\AppData\Local\Temp\cc0UtiIx.s 			page 36


 600              		.loc 1 714 5 is_stmt 1 view .LVU143
 715:lvgl/src/extra/widgets/span/lv_span.c ****     lv_res_t res = lv_style_get_prop(&span->style, LV_STYLE_TEXT_DECOR, &value);
 601              		.loc 1 715 5 view .LVU144
 716:lvgl/src/extra/widgets/span/lv_span.c ****     if(res != LV_RES_OK) {
 602              		.loc 1 716 5 view .LVU145
 716:lvgl/src/extra/widgets/span/lv_span.c ****     if(res != LV_RES_OK) {
 603              		.loc 1 716 20 is_stmt 0 view .LVU146
 604 0008 01AA     		add	r2, sp, #4
 605 000a 5A21     		movs	r1, #90
 606              	.LVL63:
 716:lvgl/src/extra/widgets/span/lv_span.c ****     if(res != LV_RES_OK) {
 607              		.loc 1 716 20 view .LVU147
 608 000c 0830     		adds	r0, r0, #8
 609              	.LVL64:
 716:lvgl/src/extra/widgets/span/lv_span.c ****     if(res != LV_RES_OK) {
 610              		.loc 1 716 20 view .LVU148
 611 000e FFF7FEFF 		bl	lv_style_get_prop
 612              	.LVL65:
 717:lvgl/src/extra/widgets/span/lv_span.c ****         decor = (lv_text_decor_t)lv_obj_get_style_text_decor(par, LV_PART_MAIN);;
 613              		.loc 1 717 5 is_stmt 1 view .LVU149
 717:lvgl/src/extra/widgets/span/lv_span.c ****         decor = (lv_text_decor_t)lv_obj_get_style_text_decor(par, LV_PART_MAIN);;
 614              		.loc 1 717 7 is_stmt 0 view .LVU150
 615 0012 0128     		cmp	r0, #1
 616 0014 02D1     		bne	.L46
 721:lvgl/src/extra/widgets/span/lv_span.c ****     }
 617              		.loc 1 721 9 is_stmt 1 view .LVU151
 721:lvgl/src/extra/widgets/span/lv_span.c ****     }
 618              		.loc 1 721 15 is_stmt 0 view .LVU152
 619 0016 0198     		ldr	r0, [sp, #4]
 620              	.LVL66:
 723:lvgl/src/extra/widgets/span/lv_span.c **** }
 621              		.loc 1 723 5 is_stmt 1 view .LVU153
 622              	.L42:
 724:lvgl/src/extra/widgets/span/lv_span.c **** 
 623              		.loc 1 724 1 is_stmt 0 view .LVU154
 624 0018 02B0     		add	sp, sp, #8
 625              		.cfi_remember_state
 626              		.cfi_def_cfa_offset 8
 627              		@ sp needed
 628 001a 10BD     		pop	{r4, pc}
 629              	.LVL67:
 630              	.L46:
 631              		.cfi_restore_state
 718:lvgl/src/extra/widgets/span/lv_span.c ****     }
 632              		.loc 1 718 9 is_stmt 1 view .LVU155
 633              	.LBB89:
 634              	.LBI89:
 481:d:\kzc\stm32\h743ii_lcd\lvgl\src/core\lv_obj_style_gen.h **** {
 635              		.loc 2 481 31 view .LVU156
 636              	.LBB90:
 483:d:\kzc\stm32\h743ii_lcd\lvgl\src/core\lv_obj_style_gen.h ****     return (lv_text_decor_t)v.num;
 637              		.loc 2 483 5 view .LVU157
 483:d:\kzc\stm32\h743ii_lcd\lvgl\src/core\lv_obj_style_gen.h ****     return (lv_text_decor_t)v.num;
 638              		.loc 2 483 26 is_stmt 0 view .LVU158
 639 001c 5A22     		movs	r2, #90
 640 001e 0021     		movs	r1, #0
 641 0020 2046     		mov	r0, r4
ARM GAS  C:\Users\OSD\AppData\Local\Temp\cc0UtiIx.s 			page 37


 642              	.LVL68:
 483:d:\kzc\stm32\h743ii_lcd\lvgl\src/core\lv_obj_style_gen.h ****     return (lv_text_decor_t)v.num;
 643              		.loc 2 483 26 view .LVU159
 644 0022 FFF7FEFF 		bl	lv_obj_get_style_prop
 645              	.LVL69:
 484:d:\kzc\stm32\h743ii_lcd\lvgl\src/core\lv_obj_style_gen.h **** }
 646              		.loc 2 484 5 is_stmt 1 view .LVU160
 484:d:\kzc\stm32\h743ii_lcd\lvgl\src/core\lv_obj_style_gen.h **** }
 647              		.loc 2 484 5 is_stmt 0 view .LVU161
 648 0026 C0B2     		uxtb	r0, r0
 649              	.LVL70:
 484:d:\kzc\stm32\h743ii_lcd\lvgl\src/core\lv_obj_style_gen.h **** }
 650              		.loc 2 484 5 view .LVU162
 651              	.LBE90:
 652              	.LBE89:
 718:lvgl/src/extra/widgets/span/lv_span.c ****     }
 653              		.loc 1 718 81 is_stmt 1 view .LVU163
 654 0028 F6E7     		b	.L42
 655              		.cfi_endproc
 656              	.LFE239:
 658              		.section	.text.lv_txt_get_snippet,"ax",%progbits
 659              		.align	1
 660              		.syntax unified
 661              		.thumb
 662              		.thumb_func
 664              	lv_txt_get_snippet:
 665              	.LVL71:
 666              	.LFB229:
 602:lvgl/src/extra/widgets/span/lv_span.c ****     if(txt == NULL || txt[0] == '\0') {
 667              		.loc 1 602 1 view -0
 668              		.cfi_startproc
 669              		@ args = 12, pretend = 0, frame = 0
 670              		@ frame_needed = 0, uses_anonymous_args = 0
 602:lvgl/src/extra/widgets/span/lv_span.c ****     if(txt == NULL || txt[0] == '\0') {
 671              		.loc 1 602 1 is_stmt 0 view .LVU165
 672 0000 70B5     		push	{r4, r5, r6, lr}
 673              		.cfi_def_cfa_offset 16
 674              		.cfi_offset 4, -16
 675              		.cfi_offset 5, -12
 676              		.cfi_offset 6, -8
 677              		.cfi_offset 14, -4
 678 0002 82B0     		sub	sp, sp, #8
 679              		.cfi_def_cfa_offset 24
 680 0004 079C     		ldr	r4, [sp, #28]
 603:lvgl/src/extra/widgets/span/lv_span.c ****         *end_ofs = 0;
 681              		.loc 1 603 5 is_stmt 1 view .LVU166
 603:lvgl/src/extra/widgets/span/lv_span.c ****         *end_ofs = 0;
 682              		.loc 1 603 7 is_stmt 0 view .LVU167
 683 0006 18B1     		cbz	r0, .L48
 684 0008 1D46     		mov	r5, r3
 685 000a 0646     		mov	r6, r0
 603:lvgl/src/extra/widgets/span/lv_span.c ****         *end_ofs = 0;
 686              		.loc 1 603 26 discriminator 1 view .LVU168
 687 000c 0378     		ldrb	r3, [r0]	@ zero_extendqisi2
 688              	.LVL72:
 603:lvgl/src/extra/widgets/span/lv_span.c ****         *end_ofs = 0;
 689              		.loc 1 603 20 discriminator 1 view .LVU169
ARM GAS  C:\Users\OSD\AppData\Local\Temp\cc0UtiIx.s 			page 38


 690 000e 2BB9     		cbnz	r3, .L49
 691              	.L48:
 604:lvgl/src/extra/widgets/span/lv_span.c ****         *use_width = 0;
 692              		.loc 1 604 9 is_stmt 1 view .LVU170
 604:lvgl/src/extra/widgets/span/lv_span.c ****         *use_width = 0;
 693              		.loc 1 604 18 is_stmt 0 view .LVU171
 694 0010 0020     		movs	r0, #0
 695              	.LVL73:
 604:lvgl/src/extra/widgets/span/lv_span.c ****         *use_width = 0;
 696              		.loc 1 604 18 view .LVU172
 697 0012 089B     		ldr	r3, [sp, #32]
 698 0014 1860     		str	r0, [r3]
 605:lvgl/src/extra/widgets/span/lv_span.c ****         return false;
 699              		.loc 1 605 9 is_stmt 1 view .LVU173
 605:lvgl/src/extra/widgets/span/lv_span.c ****         return false;
 700              		.loc 1 605 20 is_stmt 0 view .LVU174
 701 0016 2080     		strh	r0, [r4]	@ movhi
 606:lvgl/src/extra/widgets/span/lv_span.c ****     }
 702              		.loc 1 606 9 is_stmt 1 view .LVU175
 703              	.LVL74:
 704              	.L50:
 618:lvgl/src/extra/widgets/span/lv_span.c **** 
 705              		.loc 1 618 1 is_stmt 0 view .LVU176
 706 0018 02B0     		add	sp, sp, #8
 707              		.cfi_remember_state
 708              		.cfi_def_cfa_offset 16
 709              		@ sp needed
 710 001a 70BD     		pop	{r4, r5, r6, pc}
 711              	.LVL75:
 712              	.L49:
 713              		.cfi_restore_state
 609:lvgl/src/extra/widgets/span/lv_span.c ****     *end_ofs = ofs;
 714              		.loc 1 609 5 is_stmt 1 view .LVU177
 609:lvgl/src/extra/widgets/span/lv_span.c ****     *end_ofs = ofs;
 715              		.loc 1 609 20 is_stmt 0 view .LVU178
 716 001c 9DF81830 		ldrb	r3, [sp, #24]	@ zero_extendqisi2
 717 0020 0193     		str	r3, [sp, #4]
 718 0022 0094     		str	r4, [sp]
 719 0024 2B46     		mov	r3, r5
 720 0026 FFF7FEFF 		bl	_lv_txt_get_next_line
 721              	.LVL76:
 610:lvgl/src/extra/widgets/span/lv_span.c **** 
 722              		.loc 1 610 5 is_stmt 1 view .LVU179
 610:lvgl/src/extra/widgets/span/lv_span.c **** 
 723              		.loc 1 610 14 is_stmt 0 view .LVU180
 724 002a 089B     		ldr	r3, [sp, #32]
 725 002c 1860     		str	r0, [r3]
 612:lvgl/src/extra/widgets/span/lv_span.c ****         return false;
 726              		.loc 1 612 5 is_stmt 1 view .LVU181
 612:lvgl/src/extra/widgets/span/lv_span.c ****         return false;
 727              		.loc 1 612 11 is_stmt 0 view .LVU182
 728 002e 335C     		ldrb	r3, [r6, r0]	@ zero_extendqisi2
 612:lvgl/src/extra/widgets/span/lv_span.c ****         return false;
 729              		.loc 1 612 7 view .LVU183
 730 0030 2BB9     		cbnz	r3, .L51
 612:lvgl/src/extra/widgets/span/lv_span.c ****         return false;
 731              		.loc 1 612 28 discriminator 1 view .LVU184
ARM GAS  C:\Users\OSD\AppData\Local\Temp\cc0UtiIx.s 			page 39


 732 0032 B4F90030 		ldrsh	r3, [r4]
 612:lvgl/src/extra/widgets/span/lv_span.c ****         return false;
 733              		.loc 1 612 25 discriminator 1 view .LVU185
 734 0036 AB42     		cmp	r3, r5
 735 0038 03DB     		blt	.L52
 616:lvgl/src/extra/widgets/span/lv_span.c ****     }
 736              		.loc 1 616 16 view .LVU186
 737 003a 0120     		movs	r0, #1
 738              	.LVL77:
 616:lvgl/src/extra/widgets/span/lv_span.c ****     }
 739              		.loc 1 616 16 view .LVU187
 740 003c ECE7     		b	.L50
 741              	.LVL78:
 742              	.L51:
 616:lvgl/src/extra/widgets/span/lv_span.c ****     }
 743              		.loc 1 616 16 view .LVU188
 744 003e 0120     		movs	r0, #1
 745              	.LVL79:
 616:lvgl/src/extra/widgets/span/lv_span.c ****     }
 746              		.loc 1 616 16 view .LVU189
 747 0040 EAE7     		b	.L50
 748              	.LVL80:
 749              	.L52:
 613:lvgl/src/extra/widgets/span/lv_span.c ****     }
 750              		.loc 1 613 16 view .LVU190
 751 0042 0020     		movs	r0, #0
 752              	.LVL81:
 613:lvgl/src/extra/widgets/span/lv_span.c ****     }
 753              		.loc 1 613 16 view .LVU191
 754 0044 E8E7     		b	.L50
 755              		.cfi_endproc
 756              	.LFE229:
 758              		.section	.text.lv_snippet_push,"ax",%progbits
 759              		.align	1
 760              		.syntax unified
 761              		.thumb
 762              		.thumb_func
 764              	lv_snippet_push:
 765              	.LVL82:
 766              	.LFB230:
 621:lvgl/src/extra/widgets/span/lv_span.c ****     if(snippet_stack.index < LV_SPAN_SNIPPET_STACK_SIZE) {
 767              		.loc 1 621 1 is_stmt 1 view -0
 768              		.cfi_startproc
 769              		@ args = 0, pretend = 0, frame = 0
 770              		@ frame_needed = 0, uses_anonymous_args = 0
 622:lvgl/src/extra/widgets/span/lv_span.c ****         memcpy(&snippet_stack.stack[snippet_stack.index], item, sizeof(lv_snippet_t));
 771              		.loc 1 622 5 view .LVU193
 622:lvgl/src/extra/widgets/span/lv_span.c ****         memcpy(&snippet_stack.stack[snippet_stack.index], item, sizeof(lv_snippet_t));
 772              		.loc 1 622 21 is_stmt 0 view .LVU194
 773 0000 104B     		ldr	r3, .L61
 774 0002 B3F80035 		ldrh	r3, [r3, #1280]
 622:lvgl/src/extra/widgets/span/lv_span.c ****         memcpy(&snippet_stack.stack[snippet_stack.index], item, sizeof(lv_snippet_t));
 775              		.loc 1 622 7 view .LVU195
 776 0006 3F2B     		cmp	r3, #63
 777 0008 00D9     		bls	.L60
 778 000a 7047     		bx	lr
 779              	.L60:
ARM GAS  C:\Users\OSD\AppData\Local\Temp\cc0UtiIx.s 			page 40


 621:lvgl/src/extra/widgets/span/lv_span.c ****     if(snippet_stack.index < LV_SPAN_SNIPPET_STACK_SIZE) {
 780              		.loc 1 621 1 view .LVU196
 781 000c 30B5     		push	{r4, r5, lr}
 782              		.cfi_def_cfa_offset 12
 783              		.cfi_offset 4, -12
 784              		.cfi_offset 5, -8
 785              		.cfi_offset 14, -4
 623:lvgl/src/extra/widgets/span/lv_span.c ****         snippet_stack.index++;
 786              		.loc 1 623 9 is_stmt 1 view .LVU197
 623:lvgl/src/extra/widgets/span/lv_span.c ****         snippet_stack.index++;
 787              		.loc 1 623 16 is_stmt 0 view .LVU198
 788 000e 0D4A     		ldr	r2, .L61
 789 0010 03EB8303 		add	r3, r3, r3, lsl #2
 790 0014 02EB8301 		add	r1, r2, r3, lsl #2
 623:lvgl/src/extra/widgets/span/lv_span.c ****         snippet_stack.index++;
 791              		.loc 1 623 9 view .LVU199
 792 0018 D0F800C0 		ldr	ip, [r0]	@ unaligned
 793 001c 4568     		ldr	r5, [r0, #4]	@ unaligned
 794 001e 8468     		ldr	r4, [r0, #8]	@ unaligned
 795 0020 D0F80CE0 		ldr	lr, [r0, #12]	@ unaligned
 796 0024 42F823C0 		str	ip, [r2, r3, lsl #2]	@ unaligned
 797 0028 4D60     		str	r5, [r1, #4]	@ unaligned
 798 002a 8C60     		str	r4, [r1, #8]	@ unaligned
 799 002c C1F80CE0 		str	lr, [r1, #12]	@ unaligned
 800 0030 D0F810C0 		ldr	ip, [r0, #16]	@ unaligned
 801 0034 C1F810C0 		str	ip, [r1, #16]	@ unaligned
 624:lvgl/src/extra/widgets/span/lv_span.c ****     }
 802              		.loc 1 624 9 is_stmt 1 view .LVU200
 624:lvgl/src/extra/widgets/span/lv_span.c ****     }
 803              		.loc 1 624 22 is_stmt 0 view .LVU201
 804 0038 B2F80035 		ldrh	r3, [r2, #1280]
 624:lvgl/src/extra/widgets/span/lv_span.c ****     }
 805              		.loc 1 624 28 view .LVU202
 806 003c 0133     		adds	r3, r3, #1
 807 003e A2F80035 		strh	r3, [r2, #1280]	@ movhi
 627:lvgl/src/extra/widgets/span/lv_span.c ****     }
 808              		.loc 1 627 9 is_stmt 1 view .LVU203
 627:lvgl/src/extra/widgets/span/lv_span.c ****     }
 809              		.loc 1 627 9 view .LVU204
 627:lvgl/src/extra/widgets/span/lv_span.c ****     }
 810              		.loc 1 627 9 view .LVU205
 629:lvgl/src/extra/widgets/span/lv_span.c **** 
 811              		.loc 1 629 1 is_stmt 0 view .LVU206
 812 0042 30BD     		pop	{r4, r5, pc}
 813              	.L62:
 814              		.align	2
 815              	.L61:
 816 0044 00000000 		.word	.LANCHOR0
 817              		.cfi_endproc
 818              	.LFE230:
 820              		.section	.rodata.lv_draw_span.str1.4,"aMS",%progbits,1
 821              		.align	2
 822              	.LC0:
 823 0000 00       		.ascii	"\000"
 824 0001 000000   		.align	2
 825              	.LC1:
 826 0004 202C2E3B 		.ascii	" ,.;:-_\000"
ARM GAS  C:\Users\OSD\AppData\Local\Temp\cc0UtiIx.s 			page 41


 826      3A2D5F00 
 827              		.section	.text.lv_draw_span,"ax",%progbits
 828              		.align	1
 829              		.syntax unified
 830              		.thumb
 831              		.thumb_func
 833              	lv_draw_span:
 834              	.LVL83:
 835              	.LFB242:
 750:lvgl/src/extra/widgets/span/lv_span.c **** 
 751:lvgl/src/extra/widgets/span/lv_span.c **** /**
 752:lvgl/src/extra/widgets/span/lv_span.c ****  * draw span group
 753:lvgl/src/extra/widgets/span/lv_span.c ****  * @param spans obj handle
 754:lvgl/src/extra/widgets/span/lv_span.c ****  * @param coords coordinates of the label
 755:lvgl/src/extra/widgets/span/lv_span.c ****  * @param mask the label will be drawn only in this area
 756:lvgl/src/extra/widgets/span/lv_span.c ****  */
 757:lvgl/src/extra/widgets/span/lv_span.c **** static void lv_draw_span(lv_obj_t * obj, lv_draw_ctx_t * draw_ctx)
 758:lvgl/src/extra/widgets/span/lv_span.c **** {
 836              		.loc 1 758 1 is_stmt 1 view -0
 837              		.cfi_startproc
 838              		@ args = 0, pretend = 0, frame = 208
 839              		@ frame_needed = 0, uses_anonymous_args = 0
 840              		.loc 1 758 1 is_stmt 0 view .LVU208
 841 0000 2DE9F04F 		push	{r4, r5, r6, r7, r8, r9, r10, fp, lr}
 842              		.cfi_def_cfa_offset 36
 843              		.cfi_offset 4, -36
 844              		.cfi_offset 5, -32
 845              		.cfi_offset 6, -28
 846              		.cfi_offset 7, -24
 847              		.cfi_offset 8, -20
 848              		.cfi_offset 9, -16
 849              		.cfi_offset 10, -12
 850              		.cfi_offset 11, -8
 851              		.cfi_offset 14, -4
 852 0004 B9B0     		sub	sp, sp, #228
 853              		.cfi_def_cfa_offset 264
 854 0006 0446     		mov	r4, r0
 855 0008 0790     		str	r0, [sp, #28]
 856 000a 0D46     		mov	r5, r1
 857 000c 1891     		str	r1, [sp, #96]
 759:lvgl/src/extra/widgets/span/lv_span.c **** 
 760:lvgl/src/extra/widgets/span/lv_span.c ****     lv_area_t coords;
 858              		.loc 1 760 5 is_stmt 1 view .LVU209
 761:lvgl/src/extra/widgets/span/lv_span.c ****     lv_obj_get_content_coords(obj, &coords);
 859              		.loc 1 761 5 view .LVU210
 860 000e 36A9     		add	r1, sp, #216
 861              	.LVL84:
 862              		.loc 1 761 5 is_stmt 0 view .LVU211
 863 0010 FFF7FEFF 		bl	lv_obj_get_content_coords
 864              	.LVL85:
 762:lvgl/src/extra/widgets/span/lv_span.c **** 
 763:lvgl/src/extra/widgets/span/lv_span.c ****     lv_spangroup_t * spans = (lv_spangroup_t *)obj;
 865              		.loc 1 763 5 is_stmt 1 view .LVU212
 764:lvgl/src/extra/widgets/span/lv_span.c **** 
 765:lvgl/src/extra/widgets/span/lv_span.c ****     /* return if not span */
 766:lvgl/src/extra/widgets/span/lv_span.c ****     if(_lv_ll_get_head(&spans->child_ll) == NULL) {
 866              		.loc 1 766 5 view .LVU213
ARM GAS  C:\Users\OSD\AppData\Local\Temp\cc0UtiIx.s 			page 42


 867              		.loc 1 766 24 is_stmt 0 view .LVU214
 868 0014 04F13003 		add	r3, r4, #48
 869 0018 1F46     		mov	r7, r3
 870 001a 0D93     		str	r3, [sp, #52]
 871              		.loc 1 766 8 view .LVU215
 872 001c 1846     		mov	r0, r3
 873 001e FFF7FEFF 		bl	_lv_ll_get_head
 874              	.LVL86:
 875              		.loc 1 766 7 view .LVU216
 876 0022 30B1     		cbz	r0, .L63
 767:lvgl/src/extra/widgets/span/lv_span.c ****         return;
 768:lvgl/src/extra/widgets/span/lv_span.c ****     }
 769:lvgl/src/extra/widgets/span/lv_span.c **** 
 770:lvgl/src/extra/widgets/span/lv_span.c ****     /* return if no draw area */
 771:lvgl/src/extra/widgets/span/lv_span.c ****     lv_area_t clip_area;
 877              		.loc 1 771 5 is_stmt 1 view .LVU217
 772:lvgl/src/extra/widgets/span/lv_span.c ****     if(!_lv_area_intersect(&clip_area, &coords, draw_ctx->clip_area))  return;
 878              		.loc 1 772 5 view .LVU218
 879              		.loc 1 772 9 is_stmt 0 view .LVU219
 880 0024 AA68     		ldr	r2, [r5, #8]
 881 0026 36A9     		add	r1, sp, #216
 882 0028 34A8     		add	r0, sp, #208
 883 002a FFF7FEFF 		bl	_lv_area_intersect
 884              	.LVL87:
 885              		.loc 1 772 7 view .LVU220
 886 002e 1790     		str	r0, [sp, #92]
 887 0030 10B9     		cbnz	r0, .L128
 888              	.LVL88:
 889              	.L63:
 773:lvgl/src/extra/widgets/span/lv_span.c ****     const lv_area_t * clip_area_ori = draw_ctx->clip_area;
 774:lvgl/src/extra/widgets/span/lv_span.c ****     draw_ctx->clip_area = &clip_area;
 775:lvgl/src/extra/widgets/span/lv_span.c **** 
 776:lvgl/src/extra/widgets/span/lv_span.c ****     /* init draw variable */
 777:lvgl/src/extra/widgets/span/lv_span.c ****     lv_text_flag_t txt_flag = LV_TEXT_FLAG_NONE;
 778:lvgl/src/extra/widgets/span/lv_span.c ****     lv_coord_t line_space = lv_obj_get_style_text_line_space(obj, LV_PART_MAIN);;
 779:lvgl/src/extra/widgets/span/lv_span.c ****     lv_coord_t max_width = lv_area_get_width(&coords);
 780:lvgl/src/extra/widgets/span/lv_span.c ****     lv_coord_t indent = convert_indent_pct(obj, max_width);
 781:lvgl/src/extra/widgets/span/lv_span.c ****     lv_coord_t max_w  = max_width - indent; /* first line need minus indent */
 782:lvgl/src/extra/widgets/span/lv_span.c ****     lv_opa_t obj_opa = lv_obj_get_style_opa_recursive(obj, LV_PART_MAIN);
 783:lvgl/src/extra/widgets/span/lv_span.c **** 
 784:lvgl/src/extra/widgets/span/lv_span.c ****     /* coords of draw span-txt */
 785:lvgl/src/extra/widgets/span/lv_span.c ****     lv_point_t txt_pos;
 786:lvgl/src/extra/widgets/span/lv_span.c ****     txt_pos.y = coords.y1;
 787:lvgl/src/extra/widgets/span/lv_span.c ****     txt_pos.x = coords.x1 + indent; /* first line need add indent */
 788:lvgl/src/extra/widgets/span/lv_span.c **** 
 789:lvgl/src/extra/widgets/span/lv_span.c ****     lv_span_t * cur_span = _lv_ll_get_head(&spans->child_ll);
 790:lvgl/src/extra/widgets/span/lv_span.c ****     const char * cur_txt = cur_span->txt;
 791:lvgl/src/extra/widgets/span/lv_span.c ****     span_text_check(&cur_txt);
 792:lvgl/src/extra/widgets/span/lv_span.c ****     uint32_t cur_txt_ofs = 0;
 793:lvgl/src/extra/widgets/span/lv_span.c ****     lv_snippet_t snippet;   /* use to save cur_span info and push it to stack */
 794:lvgl/src/extra/widgets/span/lv_span.c ****     lv_memset_00(&snippet, sizeof(snippet));
 795:lvgl/src/extra/widgets/span/lv_span.c **** 
 796:lvgl/src/extra/widgets/span/lv_span.c ****     lv_draw_label_dsc_t label_draw_dsc;
 797:lvgl/src/extra/widgets/span/lv_span.c ****     lv_draw_label_dsc_init(&label_draw_dsc);
 798:lvgl/src/extra/widgets/span/lv_span.c **** 
 799:lvgl/src/extra/widgets/span/lv_span.c ****     bool is_first_line = true;
 800:lvgl/src/extra/widgets/span/lv_span.c ****     /* the loop control how many lines need to draw */
ARM GAS  C:\Users\OSD\AppData\Local\Temp\cc0UtiIx.s 			page 43


 801:lvgl/src/extra/widgets/span/lv_span.c ****     while(cur_span) {
 802:lvgl/src/extra/widgets/span/lv_span.c ****         bool is_end_line = false;
 803:lvgl/src/extra/widgets/span/lv_span.c ****         bool ellipsis_valid = false;
 804:lvgl/src/extra/widgets/span/lv_span.c ****         lv_coord_t max_line_h = 0;  /* the max height of span-font when a line have a lot of span *
 805:lvgl/src/extra/widgets/span/lv_span.c ****         lv_coord_t max_baseline = 0; /*baseline of the highest span*/
 806:lvgl/src/extra/widgets/span/lv_span.c ****         lv_snippet_clear();
 807:lvgl/src/extra/widgets/span/lv_span.c **** 
 808:lvgl/src/extra/widgets/span/lv_span.c ****         /* the loop control to find a line and push the relevant span info into stack  */
 809:lvgl/src/extra/widgets/span/lv_span.c ****         while(1) {
 810:lvgl/src/extra/widgets/span/lv_span.c ****             /* switch to the next span when current is end */
 811:lvgl/src/extra/widgets/span/lv_span.c ****             if(cur_txt[cur_txt_ofs] == '\0') {
 812:lvgl/src/extra/widgets/span/lv_span.c ****                 cur_span = _lv_ll_get_next(&spans->child_ll, cur_span);
 813:lvgl/src/extra/widgets/span/lv_span.c ****                 if(cur_span == NULL) break;
 814:lvgl/src/extra/widgets/span/lv_span.c ****                 cur_txt = cur_span->txt;
 815:lvgl/src/extra/widgets/span/lv_span.c ****                 span_text_check(&cur_txt);
 816:lvgl/src/extra/widgets/span/lv_span.c ****                 cur_txt_ofs = 0;
 817:lvgl/src/extra/widgets/span/lv_span.c ****                 /* maybe also cur_txt[cur_txt_ofs] == '\0' */
 818:lvgl/src/extra/widgets/span/lv_span.c ****                 continue;
 819:lvgl/src/extra/widgets/span/lv_span.c ****             }
 820:lvgl/src/extra/widgets/span/lv_span.c **** 
 821:lvgl/src/extra/widgets/span/lv_span.c ****             /* init span info to snippet. */
 822:lvgl/src/extra/widgets/span/lv_span.c ****             if(cur_txt_ofs == 0) {
 823:lvgl/src/extra/widgets/span/lv_span.c ****                 snippet.span = cur_span;
 824:lvgl/src/extra/widgets/span/lv_span.c ****                 snippet.font = lv_span_get_style_text_font(obj, cur_span);
 825:lvgl/src/extra/widgets/span/lv_span.c ****                 snippet.letter_space = lv_span_get_style_text_letter_space(obj, cur_span);
 826:lvgl/src/extra/widgets/span/lv_span.c ****                 snippet.line_h = lv_font_get_line_height(snippet.font) + line_space;
 827:lvgl/src/extra/widgets/span/lv_span.c ****             }
 828:lvgl/src/extra/widgets/span/lv_span.c **** 
 829:lvgl/src/extra/widgets/span/lv_span.c ****             /* get current span text line info */
 830:lvgl/src/extra/widgets/span/lv_span.c ****             uint32_t next_ofs = 0;
 831:lvgl/src/extra/widgets/span/lv_span.c ****             lv_coord_t use_width = 0;
 832:lvgl/src/extra/widgets/span/lv_span.c ****             bool isfill = lv_txt_get_snippet(&cur_txt[cur_txt_ofs], snippet.font, snippet.letter_sp
 833:lvgl/src/extra/widgets/span/lv_span.c ****                                              max_w, txt_flag, &use_width, &next_ofs);
 834:lvgl/src/extra/widgets/span/lv_span.c **** 
 835:lvgl/src/extra/widgets/span/lv_span.c ****             if(isfill) {
 836:lvgl/src/extra/widgets/span/lv_span.c ****                 if(next_ofs > 0 && lv_get_snippet_cnt() > 0) {
 837:lvgl/src/extra/widgets/span/lv_span.c ****                     /* To prevent infinite loops, the _lv_txt_get_next_line() may return incomplete
 838:lvgl/src/extra/widgets/span/lv_span.c ****                     /* This phenomenon should be avoided when lv_get_snippet_cnt() > 0 */
 839:lvgl/src/extra/widgets/span/lv_span.c ****                     if(max_w < use_width) {
 840:lvgl/src/extra/widgets/span/lv_span.c ****                         break;
 841:lvgl/src/extra/widgets/span/lv_span.c ****                     }
 842:lvgl/src/extra/widgets/span/lv_span.c ****                     uint32_t tmp_ofs = next_ofs;
 843:lvgl/src/extra/widgets/span/lv_span.c ****                     uint32_t letter = _lv_txt_encoded_prev(&cur_txt[cur_txt_ofs], &tmp_ofs);
 844:lvgl/src/extra/widgets/span/lv_span.c ****                     if(!(letter == '\0' || letter == '\n' || letter == '\r' || _lv_txt_is_break_cha
 845:lvgl/src/extra/widgets/span/lv_span.c ****                         tmp_ofs = 0;
 846:lvgl/src/extra/widgets/span/lv_span.c ****                         letter = _lv_txt_encoded_next(&cur_txt[cur_txt_ofs + next_ofs], &tmp_ofs);
 847:lvgl/src/extra/widgets/span/lv_span.c ****                         if(!(letter == '\0' || letter == '\n'  || letter == '\r' || _lv_txt_is_brea
 848:lvgl/src/extra/widgets/span/lv_span.c ****                             break;
 849:lvgl/src/extra/widgets/span/lv_span.c ****                         }
 850:lvgl/src/extra/widgets/span/lv_span.c ****                     }
 851:lvgl/src/extra/widgets/span/lv_span.c ****                 }
 852:lvgl/src/extra/widgets/span/lv_span.c ****             }
 853:lvgl/src/extra/widgets/span/lv_span.c **** 
 854:lvgl/src/extra/widgets/span/lv_span.c ****             snippet.txt = &cur_txt[cur_txt_ofs];
 855:lvgl/src/extra/widgets/span/lv_span.c ****             snippet.bytes = next_ofs;
 856:lvgl/src/extra/widgets/span/lv_span.c ****             snippet.txt_w = use_width;
 857:lvgl/src/extra/widgets/span/lv_span.c ****             cur_txt_ofs += next_ofs;
ARM GAS  C:\Users\OSD\AppData\Local\Temp\cc0UtiIx.s 			page 44


 858:lvgl/src/extra/widgets/span/lv_span.c ****             if(max_line_h < snippet.line_h) {
 859:lvgl/src/extra/widgets/span/lv_span.c ****                 max_line_h = snippet.line_h;
 860:lvgl/src/extra/widgets/span/lv_span.c ****                 max_baseline = snippet.font->base_line;
 861:lvgl/src/extra/widgets/span/lv_span.c ****             }
 862:lvgl/src/extra/widgets/span/lv_span.c **** 
 863:lvgl/src/extra/widgets/span/lv_span.c ****             lv_snippet_push(&snippet);
 864:lvgl/src/extra/widgets/span/lv_span.c ****             max_w = max_w - use_width - snippet.letter_space;
 865:lvgl/src/extra/widgets/span/lv_span.c ****             if(isfill || max_w <= 0) {
 866:lvgl/src/extra/widgets/span/lv_span.c ****                 break;
 867:lvgl/src/extra/widgets/span/lv_span.c ****             }
 868:lvgl/src/extra/widgets/span/lv_span.c ****         }
 869:lvgl/src/extra/widgets/span/lv_span.c **** 
 870:lvgl/src/extra/widgets/span/lv_span.c ****         /* start current line deal with */
 871:lvgl/src/extra/widgets/span/lv_span.c **** 
 872:lvgl/src/extra/widgets/span/lv_span.c ****         uint16_t item_cnt = lv_get_snippet_cnt();
 873:lvgl/src/extra/widgets/span/lv_span.c ****         if(item_cnt == 0) {     /* break if stack is empty */
 874:lvgl/src/extra/widgets/span/lv_span.c ****             break;
 875:lvgl/src/extra/widgets/span/lv_span.c ****         }
 876:lvgl/src/extra/widgets/span/lv_span.c **** 
 877:lvgl/src/extra/widgets/span/lv_span.c ****         /* Whether the current line is the end line and does overflow processing */
 878:lvgl/src/extra/widgets/span/lv_span.c ****         {
 879:lvgl/src/extra/widgets/span/lv_span.c ****             lv_snippet_t * last_snippet = lv_get_snippet(item_cnt - 1);
 880:lvgl/src/extra/widgets/span/lv_span.c ****             lv_coord_t next_line_h = last_snippet->line_h;
 881:lvgl/src/extra/widgets/span/lv_span.c ****             if(last_snippet->txt[last_snippet->bytes] == '\0') {
 882:lvgl/src/extra/widgets/span/lv_span.c ****                 next_line_h = 0;
 883:lvgl/src/extra/widgets/span/lv_span.c ****                 lv_span_t * next_span = _lv_ll_get_next(&spans->child_ll, last_snippet->span);
 884:lvgl/src/extra/widgets/span/lv_span.c ****                 if(next_span) { /* have the next line */
 885:lvgl/src/extra/widgets/span/lv_span.c ****                     next_line_h = lv_font_get_line_height(lv_span_get_style_text_font(obj, next_spa
 886:lvgl/src/extra/widgets/span/lv_span.c ****                 }
 887:lvgl/src/extra/widgets/span/lv_span.c ****             }
 888:lvgl/src/extra/widgets/span/lv_span.c ****             if(txt_pos.y + max_line_h + next_line_h - line_space > coords.y2 + 1) { /* for overflow
 889:lvgl/src/extra/widgets/span/lv_span.c ****                 if(last_snippet->txt[last_snippet->bytes] != '\0') {
 890:lvgl/src/extra/widgets/span/lv_span.c ****                     last_snippet->bytes = strlen(last_snippet->txt);
 891:lvgl/src/extra/widgets/span/lv_span.c ****                     last_snippet->txt_w = lv_txt_get_width(last_snippet->txt, last_snippet->bytes, 
 892:lvgl/src/extra/widgets/span/lv_span.c ****                                                            last_snippet->letter_space, txt_flag);
 893:lvgl/src/extra/widgets/span/lv_span.c ****                 }
 894:lvgl/src/extra/widgets/span/lv_span.c ****                 ellipsis_valid = spans->overflow == LV_SPAN_OVERFLOW_ELLIPSIS ? true : false;
 895:lvgl/src/extra/widgets/span/lv_span.c ****                 is_end_line = true;
 896:lvgl/src/extra/widgets/span/lv_span.c ****             }
 897:lvgl/src/extra/widgets/span/lv_span.c ****         }
 898:lvgl/src/extra/widgets/span/lv_span.c **** 
 899:lvgl/src/extra/widgets/span/lv_span.c ****         /*Go the first visible line*/
 900:lvgl/src/extra/widgets/span/lv_span.c ****         if(txt_pos.y + max_line_h < clip_area.y1) {
 901:lvgl/src/extra/widgets/span/lv_span.c ****             goto Next_line_init;
 902:lvgl/src/extra/widgets/span/lv_span.c ****         }
 903:lvgl/src/extra/widgets/span/lv_span.c **** 
 904:lvgl/src/extra/widgets/span/lv_span.c ****         /* align deal with */
 905:lvgl/src/extra/widgets/span/lv_span.c ****         lv_text_align_t align = lv_obj_get_style_text_align(obj, LV_PART_MAIN);
 906:lvgl/src/extra/widgets/span/lv_span.c ****         if(align == LV_TEXT_ALIGN_CENTER || align == LV_TEXT_ALIGN_RIGHT) {
 907:lvgl/src/extra/widgets/span/lv_span.c ****             lv_coord_t align_ofs = 0;
 908:lvgl/src/extra/widgets/span/lv_span.c ****             lv_coord_t txts_w = is_first_line ? indent : 0;
 909:lvgl/src/extra/widgets/span/lv_span.c ****             for(int i = 0; i < item_cnt; i++) {
 910:lvgl/src/extra/widgets/span/lv_span.c ****                 lv_snippet_t * pinfo = lv_get_snippet(i);
 911:lvgl/src/extra/widgets/span/lv_span.c ****                 txts_w = txts_w + pinfo->txt_w + pinfo->letter_space;
 912:lvgl/src/extra/widgets/span/lv_span.c ****             }
 913:lvgl/src/extra/widgets/span/lv_span.c ****             txts_w -= lv_get_snippet(item_cnt - 1)->letter_space;
 914:lvgl/src/extra/widgets/span/lv_span.c ****             align_ofs = max_width > txts_w ? max_width - txts_w : 0;
ARM GAS  C:\Users\OSD\AppData\Local\Temp\cc0UtiIx.s 			page 45


 915:lvgl/src/extra/widgets/span/lv_span.c ****             if(align == LV_TEXT_ALIGN_CENTER) {
 916:lvgl/src/extra/widgets/span/lv_span.c ****                 align_ofs = align_ofs >> 1;
 917:lvgl/src/extra/widgets/span/lv_span.c ****             }
 918:lvgl/src/extra/widgets/span/lv_span.c ****             txt_pos.x += align_ofs;
 919:lvgl/src/extra/widgets/span/lv_span.c ****         }
 920:lvgl/src/extra/widgets/span/lv_span.c **** 
 921:lvgl/src/extra/widgets/span/lv_span.c ****         /* draw line letters */
 922:lvgl/src/extra/widgets/span/lv_span.c ****         int i;
 923:lvgl/src/extra/widgets/span/lv_span.c ****         for(i = 0; i < item_cnt; i++) {
 924:lvgl/src/extra/widgets/span/lv_span.c ****             lv_snippet_t * pinfo = lv_get_snippet(i);
 925:lvgl/src/extra/widgets/span/lv_span.c **** 
 926:lvgl/src/extra/widgets/span/lv_span.c ****             /* bidi deal with:todo */
 927:lvgl/src/extra/widgets/span/lv_span.c ****             const char * bidi_txt = pinfo->txt;
 928:lvgl/src/extra/widgets/span/lv_span.c **** 
 929:lvgl/src/extra/widgets/span/lv_span.c ****             lv_point_t pos;
 930:lvgl/src/extra/widgets/span/lv_span.c ****             pos.x = txt_pos.x;
 931:lvgl/src/extra/widgets/span/lv_span.c ****             pos.y = txt_pos.y + max_line_h - pinfo->line_h - (max_baseline - pinfo->font->base_line
 932:lvgl/src/extra/widgets/span/lv_span.c ****             label_draw_dsc.color = lv_span_get_style_text_color(obj, pinfo->span);
 933:lvgl/src/extra/widgets/span/lv_span.c ****             label_draw_dsc.opa = lv_span_get_style_text_opa(obj, pinfo->span);
 934:lvgl/src/extra/widgets/span/lv_span.c ****             label_draw_dsc.font = lv_span_get_style_text_font(obj, pinfo->span);
 935:lvgl/src/extra/widgets/span/lv_span.c ****             label_draw_dsc.blend_mode = lv_span_get_style_text_blend_mode(obj, pinfo->span);
 936:lvgl/src/extra/widgets/span/lv_span.c ****             if(obj_opa < LV_OPA_MAX) {
 937:lvgl/src/extra/widgets/span/lv_span.c ****                 label_draw_dsc.opa = (uint16_t)((uint16_t)label_draw_dsc.opa * obj_opa) >> 8;
 938:lvgl/src/extra/widgets/span/lv_span.c ****             }
 939:lvgl/src/extra/widgets/span/lv_span.c ****             uint32_t txt_bytes = pinfo->bytes;
 940:lvgl/src/extra/widgets/span/lv_span.c **** 
 941:lvgl/src/extra/widgets/span/lv_span.c ****             /* overflow */
 942:lvgl/src/extra/widgets/span/lv_span.c ****             uint16_t dot_letter_w = 0;
 943:lvgl/src/extra/widgets/span/lv_span.c ****             uint16_t dot_width = 0;
 944:lvgl/src/extra/widgets/span/lv_span.c ****             if(ellipsis_valid) {
 945:lvgl/src/extra/widgets/span/lv_span.c ****                 dot_letter_w = lv_font_get_glyph_width(pinfo->font, '.', '.');
 946:lvgl/src/extra/widgets/span/lv_span.c ****                 dot_width = dot_letter_w * 3;
 947:lvgl/src/extra/widgets/span/lv_span.c ****             }
 948:lvgl/src/extra/widgets/span/lv_span.c ****             lv_coord_t ellipsis_width = coords.x1 + max_width - dot_width;
 949:lvgl/src/extra/widgets/span/lv_span.c **** 
 950:lvgl/src/extra/widgets/span/lv_span.c ****             uint32_t j = 0;
 951:lvgl/src/extra/widgets/span/lv_span.c ****             while(j < txt_bytes) {
 952:lvgl/src/extra/widgets/span/lv_span.c ****                 /* skip invalid fields */
 953:lvgl/src/extra/widgets/span/lv_span.c ****                 if(pos.x > clip_area.x2) {
 954:lvgl/src/extra/widgets/span/lv_span.c ****                     break;
 955:lvgl/src/extra/widgets/span/lv_span.c ****                 }
 956:lvgl/src/extra/widgets/span/lv_span.c ****                 uint32_t letter      = _lv_txt_encoded_next(bidi_txt, &j);
 957:lvgl/src/extra/widgets/span/lv_span.c ****                 uint32_t letter_next = _lv_txt_encoded_next(&bidi_txt[j], NULL);
 958:lvgl/src/extra/widgets/span/lv_span.c ****                 int32_t letter_w = lv_font_get_glyph_width(pinfo->font, letter, letter_next);
 959:lvgl/src/extra/widgets/span/lv_span.c **** 
 960:lvgl/src/extra/widgets/span/lv_span.c ****                 /* skip invalid fields */
 961:lvgl/src/extra/widgets/span/lv_span.c ****                 if(pos.x + letter_w + pinfo->letter_space < clip_area.x1) {
 962:lvgl/src/extra/widgets/span/lv_span.c ****                     if(letter_w > 0) {
 963:lvgl/src/extra/widgets/span/lv_span.c ****                         pos.x = pos.x + letter_w + pinfo->letter_space;
 964:lvgl/src/extra/widgets/span/lv_span.c ****                     }
 965:lvgl/src/extra/widgets/span/lv_span.c ****                     continue;
 966:lvgl/src/extra/widgets/span/lv_span.c ****                 }
 967:lvgl/src/extra/widgets/span/lv_span.c **** 
 968:lvgl/src/extra/widgets/span/lv_span.c ****                 if(ellipsis_valid && pos.x + letter_w + pinfo->letter_space > ellipsis_width) {
 969:lvgl/src/extra/widgets/span/lv_span.c ****                     for(int ell = 0; ell < 3; ell++) {
 970:lvgl/src/extra/widgets/span/lv_span.c ****                         lv_draw_letter(draw_ctx, &label_draw_dsc, &pos, '.');
 971:lvgl/src/extra/widgets/span/lv_span.c ****                         pos.x = pos.x + dot_letter_w + pinfo->letter_space;
ARM GAS  C:\Users\OSD\AppData\Local\Temp\cc0UtiIx.s 			page 46


 972:lvgl/src/extra/widgets/span/lv_span.c ****                     }
 973:lvgl/src/extra/widgets/span/lv_span.c ****                     if(pos.x <= ellipsis_width) {
 974:lvgl/src/extra/widgets/span/lv_span.c ****                         pos.x = ellipsis_width + 1;
 975:lvgl/src/extra/widgets/span/lv_span.c ****                     }
 976:lvgl/src/extra/widgets/span/lv_span.c ****                     break;
 977:lvgl/src/extra/widgets/span/lv_span.c ****                 }
 978:lvgl/src/extra/widgets/span/lv_span.c ****                 else {
 979:lvgl/src/extra/widgets/span/lv_span.c ****                     lv_draw_letter(draw_ctx, &label_draw_dsc, &pos, letter);
 980:lvgl/src/extra/widgets/span/lv_span.c ****                     if(letter_w > 0) {
 981:lvgl/src/extra/widgets/span/lv_span.c ****                         pos.x = pos.x + letter_w + pinfo->letter_space;
 982:lvgl/src/extra/widgets/span/lv_span.c ****                     }
 983:lvgl/src/extra/widgets/span/lv_span.c ****                 }
 984:lvgl/src/extra/widgets/span/lv_span.c ****             }
 985:lvgl/src/extra/widgets/span/lv_span.c **** 
 986:lvgl/src/extra/widgets/span/lv_span.c ****             /* draw decor */
 987:lvgl/src/extra/widgets/span/lv_span.c ****             lv_text_decor_t decor = lv_span_get_style_text_decor(obj, pinfo->span);
 988:lvgl/src/extra/widgets/span/lv_span.c ****             if(decor != LV_TEXT_DECOR_NONE) {
 989:lvgl/src/extra/widgets/span/lv_span.c ****                 lv_draw_line_dsc_t line_dsc;
 990:lvgl/src/extra/widgets/span/lv_span.c ****                 lv_draw_line_dsc_init(&line_dsc);
 991:lvgl/src/extra/widgets/span/lv_span.c ****                 line_dsc.color = label_draw_dsc.color;
 992:lvgl/src/extra/widgets/span/lv_span.c ****                 line_dsc.width = label_draw_dsc.font->underline_thickness ? pinfo->font->underline_
 993:lvgl/src/extra/widgets/span/lv_span.c ****                 line_dsc.opa = label_draw_dsc.opa;
 994:lvgl/src/extra/widgets/span/lv_span.c ****                 line_dsc.blend_mode = label_draw_dsc.blend_mode;
 995:lvgl/src/extra/widgets/span/lv_span.c **** 
 996:lvgl/src/extra/widgets/span/lv_span.c ****                 if(decor & LV_TEXT_DECOR_STRIKETHROUGH) {
 997:lvgl/src/extra/widgets/span/lv_span.c ****                     lv_point_t p1;
 998:lvgl/src/extra/widgets/span/lv_span.c ****                     lv_point_t p2;
 999:lvgl/src/extra/widgets/span/lv_span.c ****                     p1.x = txt_pos.x;
1000:lvgl/src/extra/widgets/span/lv_span.c ****                     p1.y = pos.y + ((pinfo->line_h - line_space) >> 1)  + (line_dsc.width >> 1);
1001:lvgl/src/extra/widgets/span/lv_span.c ****                     p2.x = pos.x;
1002:lvgl/src/extra/widgets/span/lv_span.c ****                     p2.y = p1.y;
1003:lvgl/src/extra/widgets/span/lv_span.c ****                     lv_draw_line(draw_ctx, &line_dsc, &p1, &p2);
1004:lvgl/src/extra/widgets/span/lv_span.c ****                 }
1005:lvgl/src/extra/widgets/span/lv_span.c **** 
1006:lvgl/src/extra/widgets/span/lv_span.c ****                 if(decor & LV_TEXT_DECOR_UNDERLINE) {
1007:lvgl/src/extra/widgets/span/lv_span.c ****                     lv_point_t p1;
1008:lvgl/src/extra/widgets/span/lv_span.c ****                     lv_point_t p2;
1009:lvgl/src/extra/widgets/span/lv_span.c ****                     p1.x = txt_pos.x;
1010:lvgl/src/extra/widgets/span/lv_span.c ****                     p1.y = pos.y + pinfo->line_h - line_space - pinfo->font->base_line - pinfo->fon
1011:lvgl/src/extra/widgets/span/lv_span.c ****                     p2.x = pos.x;
1012:lvgl/src/extra/widgets/span/lv_span.c ****                     p2.y = p1.y;
1013:lvgl/src/extra/widgets/span/lv_span.c ****                     lv_draw_line(draw_ctx, &line_dsc, &p1, &p2);
1014:lvgl/src/extra/widgets/span/lv_span.c ****                 }
1015:lvgl/src/extra/widgets/span/lv_span.c ****             }
1016:lvgl/src/extra/widgets/span/lv_span.c ****             txt_pos.x = pos.x;
1017:lvgl/src/extra/widgets/span/lv_span.c ****         }
1018:lvgl/src/extra/widgets/span/lv_span.c **** 
1019:lvgl/src/extra/widgets/span/lv_span.c **** Next_line_init:
1020:lvgl/src/extra/widgets/span/lv_span.c ****         /* next line init */
1021:lvgl/src/extra/widgets/span/lv_span.c ****         is_first_line = false;
1022:lvgl/src/extra/widgets/span/lv_span.c ****         txt_pos.x = coords.x1;
1023:lvgl/src/extra/widgets/span/lv_span.c ****         txt_pos.y += max_line_h;
1024:lvgl/src/extra/widgets/span/lv_span.c ****         if(is_end_line || txt_pos.y > clip_area.y2 + 1) {
1025:lvgl/src/extra/widgets/span/lv_span.c ****             draw_ctx->clip_area = clip_area_ori;
1026:lvgl/src/extra/widgets/span/lv_span.c ****             return;
1027:lvgl/src/extra/widgets/span/lv_span.c ****         }
1028:lvgl/src/extra/widgets/span/lv_span.c ****         max_w = max_width;
ARM GAS  C:\Users\OSD\AppData\Local\Temp\cc0UtiIx.s 			page 47


1029:lvgl/src/extra/widgets/span/lv_span.c ****     }
1030:lvgl/src/extra/widgets/span/lv_span.c ****     draw_ctx->clip_area = clip_area_ori;
1031:lvgl/src/extra/widgets/span/lv_span.c **** }
 890              		.loc 1 1031 1 view .LVU221
 891 0032 39B0     		add	sp, sp, #228
 892              		.cfi_remember_state
 893              		.cfi_def_cfa_offset 36
 894              		@ sp needed
 895 0034 BDE8F08F 		pop	{r4, r5, r6, r7, r8, r9, r10, fp, pc}
 896              	.LVL89:
 897              	.L128:
 898              		.cfi_restore_state
 773:lvgl/src/extra/widgets/span/lv_span.c ****     const lv_area_t * clip_area_ori = draw_ctx->clip_area;
 899              		.loc 1 773 5 is_stmt 1 view .LVU222
 773:lvgl/src/extra/widgets/span/lv_span.c ****     const lv_area_t * clip_area_ori = draw_ctx->clip_area;
 900              		.loc 1 773 23 is_stmt 0 view .LVU223
 901 0038 A968     		ldr	r1, [r5, #8]
 902 003a 1A91     		str	r1, [sp, #104]
 903              	.LVL90:
 774:lvgl/src/extra/widgets/span/lv_span.c **** 
 904              		.loc 1 774 5 is_stmt 1 view .LVU224
 774:lvgl/src/extra/widgets/span/lv_span.c **** 
 905              		.loc 1 774 25 is_stmt 0 view .LVU225
 906 003c 34AB     		add	r3, sp, #208
 907 003e AB60     		str	r3, [r5, #8]
 777:lvgl/src/extra/widgets/span/lv_span.c ****     lv_coord_t line_space = lv_obj_get_style_text_line_space(obj, LV_PART_MAIN);;
 908              		.loc 1 777 5 is_stmt 1 view .LVU226
 909              	.LVL91:
 778:lvgl/src/extra/widgets/span/lv_span.c ****     lv_coord_t max_width = lv_area_get_width(&coords);
 910              		.loc 1 778 5 view .LVU227
 911              	.LBB91:
 912              	.LBI91:
 475:d:\kzc\stm32\h743ii_lcd\lvgl\src/core\lv_obj_style_gen.h **** {
 913              		.loc 2 475 26 view .LVU228
 914              	.LBB92:
 477:d:\kzc\stm32\h743ii_lcd\lvgl\src/core\lv_obj_style_gen.h ****     return (lv_coord_t)v.num;
 915              		.loc 2 477 5 view .LVU229
 477:d:\kzc\stm32\h743ii_lcd\lvgl\src/core\lv_obj_style_gen.h ****     return (lv_coord_t)v.num;
 916              		.loc 2 477 26 is_stmt 0 view .LVU230
 917 0040 5922     		movs	r2, #89
 918 0042 0021     		movs	r1, #0
 919              	.LVL92:
 477:d:\kzc\stm32\h743ii_lcd\lvgl\src/core\lv_obj_style_gen.h ****     return (lv_coord_t)v.num;
 920              		.loc 2 477 26 view .LVU231
 921 0044 A046     		mov	r8, r4
 922 0046 2046     		mov	r0, r4
 923 0048 FFF7FEFF 		bl	lv_obj_get_style_prop
 924              	.LVL93:
 925 004c 1490     		str	r0, [sp, #80]
 478:d:\kzc\stm32\h743ii_lcd\lvgl\src/core\lv_obj_style_gen.h **** }
 926              		.loc 2 478 5 is_stmt 1 view .LVU232
 478:d:\kzc\stm32\h743ii_lcd\lvgl\src/core\lv_obj_style_gen.h **** }
 927              		.loc 2 478 12 is_stmt 0 view .LVU233
 928 004e 02B2     		sxth	r2, r0
 929 0050 1592     		str	r2, [sp, #84]
 930              	.LVL94:
 478:d:\kzc\stm32\h743ii_lcd\lvgl\src/core\lv_obj_style_gen.h **** }
ARM GAS  C:\Users\OSD\AppData\Local\Temp\cc0UtiIx.s 			page 48


 931              		.loc 2 478 12 view .LVU234
 932              	.LBE92:
 933              	.LBE91:
 778:lvgl/src/extra/widgets/span/lv_span.c ****     lv_coord_t max_width = lv_area_get_width(&coords);
 934              		.loc 1 778 81 is_stmt 1 view .LVU235
 779:lvgl/src/extra/widgets/span/lv_span.c ****     lv_coord_t indent = convert_indent_pct(obj, max_width);
 935              		.loc 1 779 5 view .LVU236
 936              	.LBB93:
 937              	.LBI93:
 938              		.file 3 "d:\\kzc\\stm32\\h743ii_lcd\\lvgl\\src\\misc\\lv_area.h"
   1:d:\kzc\stm32\h743ii_lcd\lvgl\src\misc\lv_area.h **** /**
   2:d:\kzc\stm32\h743ii_lcd\lvgl\src\misc\lv_area.h ****  * @file lv_area.h
   3:d:\kzc\stm32\h743ii_lcd\lvgl\src\misc\lv_area.h ****  *
   4:d:\kzc\stm32\h743ii_lcd\lvgl\src\misc\lv_area.h ****  */
   5:d:\kzc\stm32\h743ii_lcd\lvgl\src\misc\lv_area.h **** 
   6:d:\kzc\stm32\h743ii_lcd\lvgl\src\misc\lv_area.h **** #ifndef LV_AREA_H
   7:d:\kzc\stm32\h743ii_lcd\lvgl\src\misc\lv_area.h **** #define LV_AREA_H
   8:d:\kzc\stm32\h743ii_lcd\lvgl\src\misc\lv_area.h **** 
   9:d:\kzc\stm32\h743ii_lcd\lvgl\src\misc\lv_area.h **** #ifdef __cplusplus
  10:d:\kzc\stm32\h743ii_lcd\lvgl\src\misc\lv_area.h **** extern "C" {
  11:d:\kzc\stm32\h743ii_lcd\lvgl\src\misc\lv_area.h **** #endif
  12:d:\kzc\stm32\h743ii_lcd\lvgl\src\misc\lv_area.h **** 
  13:d:\kzc\stm32\h743ii_lcd\lvgl\src\misc\lv_area.h **** /*********************
  14:d:\kzc\stm32\h743ii_lcd\lvgl\src\misc\lv_area.h ****  *      INCLUDES
  15:d:\kzc\stm32\h743ii_lcd\lvgl\src\misc\lv_area.h ****  *********************/
  16:d:\kzc\stm32\h743ii_lcd\lvgl\src\misc\lv_area.h **** #include "../lv_conf_internal.h"
  17:d:\kzc\stm32\h743ii_lcd\lvgl\src\misc\lv_area.h **** #include <stdbool.h>
  18:d:\kzc\stm32\h743ii_lcd\lvgl\src\misc\lv_area.h **** #include <stdint.h>
  19:d:\kzc\stm32\h743ii_lcd\lvgl\src\misc\lv_area.h **** 
  20:d:\kzc\stm32\h743ii_lcd\lvgl\src\misc\lv_area.h **** /*********************
  21:d:\kzc\stm32\h743ii_lcd\lvgl\src\misc\lv_area.h ****  *      DEFINES
  22:d:\kzc\stm32\h743ii_lcd\lvgl\src\misc\lv_area.h ****  *********************/
  23:d:\kzc\stm32\h743ii_lcd\lvgl\src\misc\lv_area.h **** 
  24:d:\kzc\stm32\h743ii_lcd\lvgl\src\misc\lv_area.h **** #if LV_USE_LARGE_COORD
  25:d:\kzc\stm32\h743ii_lcd\lvgl\src\misc\lv_area.h **** typedef int32_t lv_coord_t;
  26:d:\kzc\stm32\h743ii_lcd\lvgl\src\misc\lv_area.h **** #else
  27:d:\kzc\stm32\h743ii_lcd\lvgl\src\misc\lv_area.h **** typedef int16_t lv_coord_t;
  28:d:\kzc\stm32\h743ii_lcd\lvgl\src\misc\lv_area.h **** #endif
  29:d:\kzc\stm32\h743ii_lcd\lvgl\src\misc\lv_area.h **** 
  30:d:\kzc\stm32\h743ii_lcd\lvgl\src\misc\lv_area.h **** /**********************
  31:d:\kzc\stm32\h743ii_lcd\lvgl\src\misc\lv_area.h ****  *      TYPEDEFS
  32:d:\kzc\stm32\h743ii_lcd\lvgl\src\misc\lv_area.h ****  **********************/
  33:d:\kzc\stm32\h743ii_lcd\lvgl\src\misc\lv_area.h **** 
  34:d:\kzc\stm32\h743ii_lcd\lvgl\src\misc\lv_area.h **** /**
  35:d:\kzc\stm32\h743ii_lcd\lvgl\src\misc\lv_area.h ****  * Represents a point on the screen.
  36:d:\kzc\stm32\h743ii_lcd\lvgl\src\misc\lv_area.h ****  */
  37:d:\kzc\stm32\h743ii_lcd\lvgl\src\misc\lv_area.h **** typedef struct {
  38:d:\kzc\stm32\h743ii_lcd\lvgl\src\misc\lv_area.h ****     lv_coord_t x;
  39:d:\kzc\stm32\h743ii_lcd\lvgl\src\misc\lv_area.h ****     lv_coord_t y;
  40:d:\kzc\stm32\h743ii_lcd\lvgl\src\misc\lv_area.h **** } lv_point_t;
  41:d:\kzc\stm32\h743ii_lcd\lvgl\src\misc\lv_area.h **** 
  42:d:\kzc\stm32\h743ii_lcd\lvgl\src\misc\lv_area.h **** /** Represents an area of the screen.*/
  43:d:\kzc\stm32\h743ii_lcd\lvgl\src\misc\lv_area.h **** typedef struct {
  44:d:\kzc\stm32\h743ii_lcd\lvgl\src\misc\lv_area.h ****     lv_coord_t x1;
  45:d:\kzc\stm32\h743ii_lcd\lvgl\src\misc\lv_area.h ****     lv_coord_t y1;
  46:d:\kzc\stm32\h743ii_lcd\lvgl\src\misc\lv_area.h ****     lv_coord_t x2;
  47:d:\kzc\stm32\h743ii_lcd\lvgl\src\misc\lv_area.h ****     lv_coord_t y2;
ARM GAS  C:\Users\OSD\AppData\Local\Temp\cc0UtiIx.s 			page 49


  48:d:\kzc\stm32\h743ii_lcd\lvgl\src\misc\lv_area.h **** } lv_area_t;
  49:d:\kzc\stm32\h743ii_lcd\lvgl\src\misc\lv_area.h **** 
  50:d:\kzc\stm32\h743ii_lcd\lvgl\src\misc\lv_area.h **** /** Alignments*/
  51:d:\kzc\stm32\h743ii_lcd\lvgl\src\misc\lv_area.h **** enum {
  52:d:\kzc\stm32\h743ii_lcd\lvgl\src\misc\lv_area.h ****     LV_ALIGN_DEFAULT = 0,
  53:d:\kzc\stm32\h743ii_lcd\lvgl\src\misc\lv_area.h ****     LV_ALIGN_TOP_LEFT,
  54:d:\kzc\stm32\h743ii_lcd\lvgl\src\misc\lv_area.h ****     LV_ALIGN_TOP_MID,
  55:d:\kzc\stm32\h743ii_lcd\lvgl\src\misc\lv_area.h ****     LV_ALIGN_TOP_RIGHT,
  56:d:\kzc\stm32\h743ii_lcd\lvgl\src\misc\lv_area.h ****     LV_ALIGN_BOTTOM_LEFT,
  57:d:\kzc\stm32\h743ii_lcd\lvgl\src\misc\lv_area.h ****     LV_ALIGN_BOTTOM_MID,
  58:d:\kzc\stm32\h743ii_lcd\lvgl\src\misc\lv_area.h ****     LV_ALIGN_BOTTOM_RIGHT,
  59:d:\kzc\stm32\h743ii_lcd\lvgl\src\misc\lv_area.h ****     LV_ALIGN_LEFT_MID,
  60:d:\kzc\stm32\h743ii_lcd\lvgl\src\misc\lv_area.h ****     LV_ALIGN_RIGHT_MID,
  61:d:\kzc\stm32\h743ii_lcd\lvgl\src\misc\lv_area.h ****     LV_ALIGN_CENTER,
  62:d:\kzc\stm32\h743ii_lcd\lvgl\src\misc\lv_area.h **** 
  63:d:\kzc\stm32\h743ii_lcd\lvgl\src\misc\lv_area.h ****     LV_ALIGN_OUT_TOP_LEFT,
  64:d:\kzc\stm32\h743ii_lcd\lvgl\src\misc\lv_area.h ****     LV_ALIGN_OUT_TOP_MID,
  65:d:\kzc\stm32\h743ii_lcd\lvgl\src\misc\lv_area.h ****     LV_ALIGN_OUT_TOP_RIGHT,
  66:d:\kzc\stm32\h743ii_lcd\lvgl\src\misc\lv_area.h ****     LV_ALIGN_OUT_BOTTOM_LEFT,
  67:d:\kzc\stm32\h743ii_lcd\lvgl\src\misc\lv_area.h ****     LV_ALIGN_OUT_BOTTOM_MID,
  68:d:\kzc\stm32\h743ii_lcd\lvgl\src\misc\lv_area.h ****     LV_ALIGN_OUT_BOTTOM_RIGHT,
  69:d:\kzc\stm32\h743ii_lcd\lvgl\src\misc\lv_area.h ****     LV_ALIGN_OUT_LEFT_TOP,
  70:d:\kzc\stm32\h743ii_lcd\lvgl\src\misc\lv_area.h ****     LV_ALIGN_OUT_LEFT_MID,
  71:d:\kzc\stm32\h743ii_lcd\lvgl\src\misc\lv_area.h ****     LV_ALIGN_OUT_LEFT_BOTTOM,
  72:d:\kzc\stm32\h743ii_lcd\lvgl\src\misc\lv_area.h ****     LV_ALIGN_OUT_RIGHT_TOP,
  73:d:\kzc\stm32\h743ii_lcd\lvgl\src\misc\lv_area.h ****     LV_ALIGN_OUT_RIGHT_MID,
  74:d:\kzc\stm32\h743ii_lcd\lvgl\src\misc\lv_area.h ****     LV_ALIGN_OUT_RIGHT_BOTTOM,
  75:d:\kzc\stm32\h743ii_lcd\lvgl\src\misc\lv_area.h **** };
  76:d:\kzc\stm32\h743ii_lcd\lvgl\src\misc\lv_area.h **** typedef uint8_t lv_align_t;
  77:d:\kzc\stm32\h743ii_lcd\lvgl\src\misc\lv_area.h **** 
  78:d:\kzc\stm32\h743ii_lcd\lvgl\src\misc\lv_area.h **** enum {
  79:d:\kzc\stm32\h743ii_lcd\lvgl\src\misc\lv_area.h ****     LV_DIR_NONE     = 0x00,
  80:d:\kzc\stm32\h743ii_lcd\lvgl\src\misc\lv_area.h ****     LV_DIR_LEFT     = (1 << 0),
  81:d:\kzc\stm32\h743ii_lcd\lvgl\src\misc\lv_area.h ****     LV_DIR_RIGHT    = (1 << 1),
  82:d:\kzc\stm32\h743ii_lcd\lvgl\src\misc\lv_area.h ****     LV_DIR_TOP      = (1 << 2),
  83:d:\kzc\stm32\h743ii_lcd\lvgl\src\misc\lv_area.h ****     LV_DIR_BOTTOM   = (1 << 3),
  84:d:\kzc\stm32\h743ii_lcd\lvgl\src\misc\lv_area.h ****     LV_DIR_HOR      = LV_DIR_LEFT | LV_DIR_RIGHT,
  85:d:\kzc\stm32\h743ii_lcd\lvgl\src\misc\lv_area.h ****     LV_DIR_VER      = LV_DIR_TOP | LV_DIR_BOTTOM,
  86:d:\kzc\stm32\h743ii_lcd\lvgl\src\misc\lv_area.h ****     LV_DIR_ALL      = LV_DIR_HOR | LV_DIR_VER,
  87:d:\kzc\stm32\h743ii_lcd\lvgl\src\misc\lv_area.h **** };
  88:d:\kzc\stm32\h743ii_lcd\lvgl\src\misc\lv_area.h **** 
  89:d:\kzc\stm32\h743ii_lcd\lvgl\src\misc\lv_area.h **** typedef uint8_t lv_dir_t;
  90:d:\kzc\stm32\h743ii_lcd\lvgl\src\misc\lv_area.h **** 
  91:d:\kzc\stm32\h743ii_lcd\lvgl\src\misc\lv_area.h **** /**********************
  92:d:\kzc\stm32\h743ii_lcd\lvgl\src\misc\lv_area.h ****  * GLOBAL PROTOTYPES
  93:d:\kzc\stm32\h743ii_lcd\lvgl\src\misc\lv_area.h ****  **********************/
  94:d:\kzc\stm32\h743ii_lcd\lvgl\src\misc\lv_area.h **** 
  95:d:\kzc\stm32\h743ii_lcd\lvgl\src\misc\lv_area.h **** /**
  96:d:\kzc\stm32\h743ii_lcd\lvgl\src\misc\lv_area.h ****  * Initialize an area
  97:d:\kzc\stm32\h743ii_lcd\lvgl\src\misc\lv_area.h ****  * @param area_p pointer to an area
  98:d:\kzc\stm32\h743ii_lcd\lvgl\src\misc\lv_area.h ****  * @param x1 left coordinate of the area
  99:d:\kzc\stm32\h743ii_lcd\lvgl\src\misc\lv_area.h ****  * @param y1 top coordinate of the area
 100:d:\kzc\stm32\h743ii_lcd\lvgl\src\misc\lv_area.h ****  * @param x2 right coordinate of the area
 101:d:\kzc\stm32\h743ii_lcd\lvgl\src\misc\lv_area.h ****  * @param y2 bottom coordinate of the area
 102:d:\kzc\stm32\h743ii_lcd\lvgl\src\misc\lv_area.h ****  */
 103:d:\kzc\stm32\h743ii_lcd\lvgl\src\misc\lv_area.h **** void lv_area_set(lv_area_t * area_p, lv_coord_t x1, lv_coord_t y1, lv_coord_t x2, lv_coord_t y2);
 104:d:\kzc\stm32\h743ii_lcd\lvgl\src\misc\lv_area.h **** 
ARM GAS  C:\Users\OSD\AppData\Local\Temp\cc0UtiIx.s 			page 50


 105:d:\kzc\stm32\h743ii_lcd\lvgl\src\misc\lv_area.h **** /**
 106:d:\kzc\stm32\h743ii_lcd\lvgl\src\misc\lv_area.h ****  * Copy an area
 107:d:\kzc\stm32\h743ii_lcd\lvgl\src\misc\lv_area.h ****  * @param dest pointer to the destination area
 108:d:\kzc\stm32\h743ii_lcd\lvgl\src\misc\lv_area.h ****  * @param src pointer to the source area
 109:d:\kzc\stm32\h743ii_lcd\lvgl\src\misc\lv_area.h ****  */
 110:d:\kzc\stm32\h743ii_lcd\lvgl\src\misc\lv_area.h **** inline static void lv_area_copy(lv_area_t * dest, const lv_area_t * src)
 111:d:\kzc\stm32\h743ii_lcd\lvgl\src\misc\lv_area.h **** {
 112:d:\kzc\stm32\h743ii_lcd\lvgl\src\misc\lv_area.h ****     dest->x1 = src->x1;
 113:d:\kzc\stm32\h743ii_lcd\lvgl\src\misc\lv_area.h ****     dest->y1 = src->y1;
 114:d:\kzc\stm32\h743ii_lcd\lvgl\src\misc\lv_area.h ****     dest->x2 = src->x2;
 115:d:\kzc\stm32\h743ii_lcd\lvgl\src\misc\lv_area.h ****     dest->y2 = src->y2;
 116:d:\kzc\stm32\h743ii_lcd\lvgl\src\misc\lv_area.h **** }
 117:d:\kzc\stm32\h743ii_lcd\lvgl\src\misc\lv_area.h **** 
 118:d:\kzc\stm32\h743ii_lcd\lvgl\src\misc\lv_area.h **** /**
 119:d:\kzc\stm32\h743ii_lcd\lvgl\src\misc\lv_area.h ****  * Get the width of an area
 120:d:\kzc\stm32\h743ii_lcd\lvgl\src\misc\lv_area.h ****  * @param area_p pointer to an area
 121:d:\kzc\stm32\h743ii_lcd\lvgl\src\misc\lv_area.h ****  * @return the width of the area (if x1 == x2 -> width = 1)
 122:d:\kzc\stm32\h743ii_lcd\lvgl\src\misc\lv_area.h ****  */
 123:d:\kzc\stm32\h743ii_lcd\lvgl\src\misc\lv_area.h **** static inline lv_coord_t lv_area_get_width(const lv_area_t * area_p)
 939              		.loc 3 123 26 view .LVU237
 940              	.LBB94:
 124:d:\kzc\stm32\h743ii_lcd\lvgl\src\misc\lv_area.h **** {
 125:d:\kzc\stm32\h743ii_lcd\lvgl\src\misc\lv_area.h ****     return (lv_coord_t)(area_p->x2 - area_p->x1 + 1);
 941              		.loc 3 125 5 view .LVU238
 942              		.loc 3 125 31 is_stmt 0 view .LVU239
 943 0052 BDF8DC30 		ldrh	r3, [sp, #220]
 944              		.loc 3 125 44 view .LVU240
 945 0056 BDF8D820 		ldrh	r2, [sp, #216]
 946              		.loc 3 125 36 view .LVU241
 947 005a 9B1A     		subs	r3, r3, r2
 948 005c 9BB2     		uxth	r3, r3
 949              		.loc 3 125 49 view .LVU242
 950 005e 0133     		adds	r3, r3, #1
 951 0060 9EB2     		uxth	r6, r3
 952 0062 1196     		str	r6, [sp, #68]
 953              		.loc 3 125 12 view .LVU243
 954 0064 1AB2     		sxth	r2, r3
 955 0066 1692     		str	r2, [sp, #88]
 956              	.LVL95:
 957              		.loc 3 125 12 view .LVU244
 958              	.LBE94:
 959              	.LBE93:
 780:lvgl/src/extra/widgets/span/lv_span.c ****     lv_coord_t max_w  = max_width - indent; /* first line need minus indent */
 960              		.loc 1 780 5 is_stmt 1 view .LVU245
 780:lvgl/src/extra/widgets/span/lv_span.c ****     lv_coord_t max_w  = max_width - indent; /* first line need minus indent */
 961              		.loc 1 780 25 is_stmt 0 view .LVU246
 962 0068 1146     		mov	r1, r2
 963 006a 2046     		mov	r0, r4
 964 006c FFF7FEFF 		bl	convert_indent_pct
 965              	.LVL96:
 780:lvgl/src/extra/widgets/span/lv_span.c ****     lv_coord_t max_w  = max_width - indent; /* first line need minus indent */
 966              		.loc 1 780 25 view .LVU247
 967 0070 1B90     		str	r0, [sp, #108]
 968              	.LVL97:
 781:lvgl/src/extra/widgets/span/lv_span.c ****     lv_opa_t obj_opa = lv_obj_get_style_opa_recursive(obj, LV_PART_MAIN);
 969              		.loc 1 781 5 is_stmt 1 view .LVU248
 781:lvgl/src/extra/widgets/span/lv_span.c ****     lv_opa_t obj_opa = lv_obj_get_style_opa_recursive(obj, LV_PART_MAIN);
ARM GAS  C:\Users\OSD\AppData\Local\Temp\cc0UtiIx.s 			page 51


 970              		.loc 1 781 35 is_stmt 0 view .LVU249
 971 0072 85B2     		uxth	r5, r0
 972              	.LVL98:
 781:lvgl/src/extra/widgets/span/lv_span.c ****     lv_opa_t obj_opa = lv_obj_get_style_opa_recursive(obj, LV_PART_MAIN);
 973              		.loc 1 781 35 view .LVU250
 974 0074 741B     		subs	r4, r6, r5
 975              	.LVL99:
 781:lvgl/src/extra/widgets/span/lv_span.c ****     lv_opa_t obj_opa = lv_obj_get_style_opa_recursive(obj, LV_PART_MAIN);
 976              		.loc 1 781 16 view .LVU251
 977 0076 24B2     		sxth	r4, r4
 978              	.LVL100:
 782:lvgl/src/extra/widgets/span/lv_span.c **** 
 979              		.loc 1 782 5 is_stmt 1 view .LVU252
 782:lvgl/src/extra/widgets/span/lv_span.c **** 
 980              		.loc 1 782 24 is_stmt 0 view .LVU253
 981 0078 0021     		movs	r1, #0
 982 007a 4046     		mov	r0, r8
 983              	.LVL101:
 782:lvgl/src/extra/widgets/span/lv_span.c **** 
 984              		.loc 1 782 24 view .LVU254
 985 007c FFF7FEFF 		bl	lv_obj_get_style_opa_recursive
 986              	.LVL102:
 987 0080 1290     		str	r0, [sp, #72]
 988              	.LVL103:
 785:lvgl/src/extra/widgets/span/lv_span.c ****     txt_pos.y = coords.y1;
 989              		.loc 1 785 5 is_stmt 1 view .LVU255
 786:lvgl/src/extra/widgets/span/lv_span.c ****     txt_pos.x = coords.x1 + indent; /* first line need add indent */
 990              		.loc 1 786 5 view .LVU256
 786:lvgl/src/extra/widgets/span/lv_span.c ****     txt_pos.x = coords.x1 + indent; /* first line need add indent */
 991              		.loc 1 786 23 is_stmt 0 view .LVU257
 992 0082 BDF9DA30 		ldrsh	r3, [sp, #218]
 786:lvgl/src/extra/widgets/span/lv_span.c ****     txt_pos.x = coords.x1 + indent; /* first line need add indent */
 993              		.loc 1 786 15 view .LVU258
 994 0086 ADF8CE30 		strh	r3, [sp, #206]	@ movhi
 787:lvgl/src/extra/widgets/span/lv_span.c **** 
 995              		.loc 1 787 5 is_stmt 1 view .LVU259
 787:lvgl/src/extra/widgets/span/lv_span.c **** 
 996              		.loc 1 787 23 is_stmt 0 view .LVU260
 997 008a BDF8D830 		ldrh	r3, [sp, #216]
 787:lvgl/src/extra/widgets/span/lv_span.c **** 
 998              		.loc 1 787 27 view .LVU261
 999 008e 1D44     		add	r5, r5, r3
 1000              	.LVL104:
 787:lvgl/src/extra/widgets/span/lv_span.c **** 
 1001              		.loc 1 787 15 view .LVU262
 1002 0090 ADF8CC50 		strh	r5, [sp, #204]	@ movhi
 789:lvgl/src/extra/widgets/span/lv_span.c ****     const char * cur_txt = cur_span->txt;
 1003              		.loc 1 789 5 is_stmt 1 view .LVU263
 789:lvgl/src/extra/widgets/span/lv_span.c ****     const char * cur_txt = cur_span->txt;
 1004              		.loc 1 789 28 is_stmt 0 view .LVU264
 1005 0094 3846     		mov	r0, r7
 1006 0096 FFF7FEFF 		bl	_lv_ll_get_head
 1007              	.LVL105:
 1008 009a 0890     		str	r0, [sp, #32]
 1009              	.LVL106:
 790:lvgl/src/extra/widgets/span/lv_span.c ****     span_text_check(&cur_txt);
 1010              		.loc 1 790 5 is_stmt 1 view .LVU265
ARM GAS  C:\Users\OSD\AppData\Local\Temp\cc0UtiIx.s 			page 52


 790:lvgl/src/extra/widgets/span/lv_span.c ****     span_text_check(&cur_txt);
 1011              		.loc 1 790 36 is_stmt 0 view .LVU266
 1012 009c 0368     		ldr	r3, [r0]
 1013 009e 1393     		str	r3, [sp, #76]
 1014              	.LVL107:
 791:lvgl/src/extra/widgets/span/lv_span.c ****     uint32_t cur_txt_ofs = 0;
 1015              		.loc 1 791 5 is_stmt 1 view .LVU267
 1016              	.LBB95:
 1017              	.LBI95:
 726:lvgl/src/extra/widgets/span/lv_span.c **** {
 1018              		.loc 1 726 20 view .LVU268
 1019              	.LBB96:
 728:lvgl/src/extra/widgets/span/lv_span.c ****         *text = "";
 1020              		.loc 1 728 5 view .LVU269
 728:lvgl/src/extra/widgets/span/lv_span.c ****         *text = "";
 1021              		.loc 1 728 7 is_stmt 0 view .LVU270
 1022 00a0 5BB1     		cbz	r3, .L129
 1023              	.LVL108:
 1024              	.L65:
 730:lvgl/src/extra/widgets/span/lv_span.c ****     }
 1025              		.loc 1 730 9 is_stmt 1 view .LVU271
 730:lvgl/src/extra/widgets/span/lv_span.c ****     }
 1026              		.loc 1 730 9 view .LVU272
 730:lvgl/src/extra/widgets/span/lv_span.c ****     }
 1027              		.loc 1 730 9 view .LVU273
 730:lvgl/src/extra/widgets/span/lv_span.c ****     }
 1028              		.loc 1 730 9 is_stmt 0 view .LVU274
 1029              	.LBE96:
 1030              	.LBE95:
 792:lvgl/src/extra/widgets/span/lv_span.c ****     lv_snippet_t snippet;   /* use to save cur_span info and push it to stack */
 1031              		.loc 1 792 5 is_stmt 1 view .LVU275
 793:lvgl/src/extra/widgets/span/lv_span.c ****     lv_memset_00(&snippet, sizeof(snippet));
 1032              		.loc 1 793 5 view .LVU276
 794:lvgl/src/extra/widgets/span/lv_span.c **** 
 1033              		.loc 1 794 5 view .LVU277
 1034 00a2 1421     		movs	r1, #20
 1035 00a4 2EA8     		add	r0, sp, #184
 1036              	.LVL109:
 794:lvgl/src/extra/widgets/span/lv_span.c **** 
 1037              		.loc 1 794 5 is_stmt 0 view .LVU278
 1038 00a6 FFF7FEFF 		bl	lv_memset_00
 1039              	.LVL110:
 796:lvgl/src/extra/widgets/span/lv_span.c ****     lv_draw_label_dsc_init(&label_draw_dsc);
 1040              		.loc 1 796 5 is_stmt 1 view .LVU279
 797:lvgl/src/extra/widgets/span/lv_span.c **** 
 1041              		.loc 1 797 5 view .LVU280
 1042 00aa 24A8     		add	r0, sp, #144
 1043 00ac FFF7FEFF 		bl	lv_draw_label_dsc_init
 1044              	.LVL111:
 799:lvgl/src/extra/widgets/span/lv_span.c ****     /* the loop control how many lines need to draw */
 1045              		.loc 1 799 5 view .LVU281
 801:lvgl/src/extra/widgets/span/lv_span.c ****         bool is_end_line = false;
 1046              		.loc 1 801 5 view .LVU282
 799:lvgl/src/extra/widgets/span/lv_span.c ****     /* the loop control how many lines need to draw */
 1047              		.loc 1 799 10 is_stmt 0 view .LVU283
 1048 00b0 DDF85C80 		ldr	r8, [sp, #92]
 1049              	.LVL112:
ARM GAS  C:\Users\OSD\AppData\Local\Temp\cc0UtiIx.s 			page 53


 792:lvgl/src/extra/widgets/span/lv_span.c ****     lv_snippet_t snippet;   /* use to save cur_span info and push it to stack */
 1050              		.loc 1 792 14 view .LVU284
 1051 00b4 4FF0000B 		mov	fp, #0
 801:lvgl/src/extra/widgets/span/lv_span.c ****         bool is_end_line = false;
 1052              		.loc 1 801 10 view .LVU285
 1053 00b8 0DE1     		b	.L66
 1054              	.LVL113:
 1055              	.L129:
 1056              	.LBB98:
 1057              	.LBB97:
 729:lvgl/src/extra/widgets/span/lv_span.c ****         LV_LOG_ERROR("occur an error that span text == NULL");
 1058              		.loc 1 729 15 view .LVU286
 1059 00ba AC4B     		ldr	r3, .L146
 1060              	.LVL114:
 729:lvgl/src/extra/widgets/span/lv_span.c ****         LV_LOG_ERROR("occur an error that span text == NULL");
 1061              		.loc 1 729 15 view .LVU287
 1062 00bc 1393     		str	r3, [sp, #76]
 1063 00be F0E7     		b	.L65
 1064              	.LVL115:
 1065              	.L132:
 729:lvgl/src/extra/widgets/span/lv_span.c ****         LV_LOG_ERROR("occur an error that span text == NULL");
 1066              		.loc 1 729 15 view .LVU288
 1067              	.LBE97:
 1068              	.LBE98:
 1069              	.LBB99:
 1070              	.LBB100:
 812:lvgl/src/extra/widgets/span/lv_span.c ****                 if(cur_span == NULL) break;
 1071              		.loc 1 812 17 is_stmt 1 view .LVU289
 812:lvgl/src/extra/widgets/span/lv_span.c ****                 if(cur_span == NULL) break;
 1072              		.loc 1 812 28 is_stmt 0 view .LVU290
 1073 00c0 0899     		ldr	r1, [sp, #32]
 1074 00c2 0D98     		ldr	r0, [sp, #52]
 1075 00c4 FFF7FEFF 		bl	_lv_ll_get_next
 1076              	.LVL116:
 813:lvgl/src/extra/widgets/span/lv_span.c ****                 cur_txt = cur_span->txt;
 1077              		.loc 1 813 17 is_stmt 1 view .LVU291
 813:lvgl/src/extra/widgets/span/lv_span.c ****                 cur_txt = cur_span->txt;
 1078              		.loc 1 813 19 is_stmt 0 view .LVU292
 1079 00c8 0890     		str	r0, [sp, #32]
 1080 00ca 0028     		cmp	r0, #0
 1081 00cc 00F0BC80 		beq	.L69
 814:lvgl/src/extra/widgets/span/lv_span.c ****                 span_text_check(&cur_txt);
 1082              		.loc 1 814 17 is_stmt 1 view .LVU293
 814:lvgl/src/extra/widgets/span/lv_span.c ****                 span_text_check(&cur_txt);
 1083              		.loc 1 814 35 is_stmt 0 view .LVU294
 1084 00d0 0668     		ldr	r6, [r0]
 1085              	.LVL117:
 815:lvgl/src/extra/widgets/span/lv_span.c ****                 cur_txt_ofs = 0;
 1086              		.loc 1 815 17 is_stmt 1 view .LVU295
 1087              	.LBB101:
 1088              	.LBI101:
 726:lvgl/src/extra/widgets/span/lv_span.c **** {
 1089              		.loc 1 726 20 view .LVU296
 1090              	.LBB102:
 728:lvgl/src/extra/widgets/span/lv_span.c ****         *text = "";
 1091              		.loc 1 728 5 view .LVU297
 728:lvgl/src/extra/widgets/span/lv_span.c ****         *text = "";
ARM GAS  C:\Users\OSD\AppData\Local\Temp\cc0UtiIx.s 			page 54


 1092              		.loc 1 728 7 is_stmt 0 view .LVU298
 1093 00d2 16B1     		cbz	r6, .L130
 1094              	.LVL118:
 1095              	.L70:
 730:lvgl/src/extra/widgets/span/lv_span.c ****     }
 1096              		.loc 1 730 9 is_stmt 1 view .LVU299
 730:lvgl/src/extra/widgets/span/lv_span.c ****     }
 1097              		.loc 1 730 9 view .LVU300
 730:lvgl/src/extra/widgets/span/lv_span.c ****     }
 1098              		.loc 1 730 9 view .LVU301
 730:lvgl/src/extra/widgets/span/lv_span.c ****     }
 1099              		.loc 1 730 9 is_stmt 0 view .LVU302
 1100              	.LBE102:
 1101              	.LBE101:
 816:lvgl/src/extra/widgets/span/lv_span.c ****                 /* maybe also cur_txt[cur_txt_ofs] == '\0' */
 1102              		.loc 1 816 17 is_stmt 1 view .LVU303
 818:lvgl/src/extra/widgets/span/lv_span.c ****             }
 1103              		.loc 1 818 17 view .LVU304
 816:lvgl/src/extra/widgets/span/lv_span.c ****                 /* maybe also cur_txt[cur_txt_ofs] == '\0' */
 1104              		.loc 1 816 29 is_stmt 0 view .LVU305
 1105 00d4 4FF0000B 		mov	fp, #0
 1106 00d8 68E0     		b	.L67
 1107              	.LVL119:
 1108              	.L130:
 1109              	.LBB104:
 1110              	.LBB103:
 729:lvgl/src/extra/widgets/span/lv_span.c ****         LV_LOG_ERROR("occur an error that span text == NULL");
 1111              		.loc 1 729 15 view .LVU306
 1112 00da A44E     		ldr	r6, .L146
 1113              	.LVL120:
 729:lvgl/src/extra/widgets/span/lv_span.c ****         LV_LOG_ERROR("occur an error that span text == NULL");
 1114              		.loc 1 729 15 view .LVU307
 1115 00dc FAE7     		b	.L70
 1116              	.LVL121:
 1117              	.L133:
 729:lvgl/src/extra/widgets/span/lv_span.c ****         LV_LOG_ERROR("occur an error that span text == NULL");
 1118              		.loc 1 729 15 view .LVU308
 1119              	.LBE103:
 1120              	.LBE104:
 823:lvgl/src/extra/widgets/span/lv_span.c ****                 snippet.font = lv_span_get_style_text_font(obj, cur_span);
 1121              		.loc 1 823 17 is_stmt 1 view .LVU309
 823:lvgl/src/extra/widgets/span/lv_span.c ****                 snippet.font = lv_span_get_style_text_font(obj, cur_span);
 1122              		.loc 1 823 30 is_stmt 0 view .LVU310
 1123 00de 089B     		ldr	r3, [sp, #32]
 1124 00e0 2E93     		str	r3, [sp, #184]
 824:lvgl/src/extra/widgets/span/lv_span.c ****                 snippet.letter_space = lv_span_get_style_text_letter_space(obj, cur_span);
 1125              		.loc 1 824 17 is_stmt 1 view .LVU311
 824:lvgl/src/extra/widgets/span/lv_span.c ****                 snippet.letter_space = lv_span_get_style_text_letter_space(obj, cur_span);
 1126              		.loc 1 824 32 is_stmt 0 view .LVU312
 1127 00e2 9946     		mov	r9, r3
 1128 00e4 1946     		mov	r1, r3
 1129 00e6 079D     		ldr	r5, [sp, #28]
 1130 00e8 2846     		mov	r0, r5
 1131 00ea FFF7FEFF 		bl	lv_span_get_style_text_font
 1132              	.LVL122:
 824:lvgl/src/extra/widgets/span/lv_span.c ****                 snippet.letter_space = lv_span_get_style_text_letter_space(obj, cur_span);
 1133              		.loc 1 824 30 view .LVU313
ARM GAS  C:\Users\OSD\AppData\Local\Temp\cc0UtiIx.s 			page 55


 1134 00ee 3090     		str	r0, [sp, #192]
 825:lvgl/src/extra/widgets/span/lv_span.c ****                 snippet.line_h = lv_font_get_line_height(snippet.font) + line_space;
 1135              		.loc 1 825 17 is_stmt 1 view .LVU314
 825:lvgl/src/extra/widgets/span/lv_span.c ****                 snippet.line_h = lv_font_get_line_height(snippet.font) + line_space;
 1136              		.loc 1 825 40 is_stmt 0 view .LVU315
 1137 00f0 4946     		mov	r1, r9
 1138 00f2 2846     		mov	r0, r5
 1139 00f4 FFF7FEFF 		bl	lv_span_get_style_text_letter_space
 1140              	.LVL123:
 825:lvgl/src/extra/widgets/span/lv_span.c ****                 snippet.line_h = lv_font_get_line_height(snippet.font) + line_space;
 1141              		.loc 1 825 38 view .LVU316
 1142 00f8 ADF8CA00 		strh	r0, [sp, #202]	@ movhi
 826:lvgl/src/extra/widgets/span/lv_span.c ****             }
 1143              		.loc 1 826 17 is_stmt 1 view .LVU317
 826:lvgl/src/extra/widgets/span/lv_span.c ****             }
 1144              		.loc 1 826 34 is_stmt 0 view .LVU318
 1145 00fc 309B     		ldr	r3, [sp, #192]
 1146              	.LVL124:
 1147              	.LBB105:
 1148              	.LBI105:
 1149              		.file 4 "d:\\kzc\\stm32\\h743ii_lcd\\lvgl\\src\\font\\lv_font.h"
   1:d:\kzc\stm32\h743ii_lcd\lvgl\src\font\lv_font.h **** /**
   2:d:\kzc\stm32\h743ii_lcd\lvgl\src\font\lv_font.h ****  * @file lv_font.h
   3:d:\kzc\stm32\h743ii_lcd\lvgl\src\font\lv_font.h ****  *
   4:d:\kzc\stm32\h743ii_lcd\lvgl\src\font\lv_font.h ****  */
   5:d:\kzc\stm32\h743ii_lcd\lvgl\src\font\lv_font.h **** 
   6:d:\kzc\stm32\h743ii_lcd\lvgl\src\font\lv_font.h **** #ifndef LV_FONT_H
   7:d:\kzc\stm32\h743ii_lcd\lvgl\src\font\lv_font.h **** #define LV_FONT_H
   8:d:\kzc\stm32\h743ii_lcd\lvgl\src\font\lv_font.h **** 
   9:d:\kzc\stm32\h743ii_lcd\lvgl\src\font\lv_font.h **** #ifdef __cplusplus
  10:d:\kzc\stm32\h743ii_lcd\lvgl\src\font\lv_font.h **** extern "C" {
  11:d:\kzc\stm32\h743ii_lcd\lvgl\src\font\lv_font.h **** #endif
  12:d:\kzc\stm32\h743ii_lcd\lvgl\src\font\lv_font.h **** 
  13:d:\kzc\stm32\h743ii_lcd\lvgl\src\font\lv_font.h **** /*********************
  14:d:\kzc\stm32\h743ii_lcd\lvgl\src\font\lv_font.h ****  *      INCLUDES
  15:d:\kzc\stm32\h743ii_lcd\lvgl\src\font\lv_font.h ****  *********************/
  16:d:\kzc\stm32\h743ii_lcd\lvgl\src\font\lv_font.h **** #include "../lv_conf_internal.h"
  17:d:\kzc\stm32\h743ii_lcd\lvgl\src\font\lv_font.h **** #include <stdint.h>
  18:d:\kzc\stm32\h743ii_lcd\lvgl\src\font\lv_font.h **** #include <stddef.h>
  19:d:\kzc\stm32\h743ii_lcd\lvgl\src\font\lv_font.h **** #include <stdbool.h>
  20:d:\kzc\stm32\h743ii_lcd\lvgl\src\font\lv_font.h **** 
  21:d:\kzc\stm32\h743ii_lcd\lvgl\src\font\lv_font.h **** #include "lv_symbol_def.h"
  22:d:\kzc\stm32\h743ii_lcd\lvgl\src\font\lv_font.h **** #include "../misc/lv_area.h"
  23:d:\kzc\stm32\h743ii_lcd\lvgl\src\font\lv_font.h **** 
  24:d:\kzc\stm32\h743ii_lcd\lvgl\src\font\lv_font.h **** /*********************
  25:d:\kzc\stm32\h743ii_lcd\lvgl\src\font\lv_font.h ****  *      DEFINES
  26:d:\kzc\stm32\h743ii_lcd\lvgl\src\font\lv_font.h ****  *********************/
  27:d:\kzc\stm32\h743ii_lcd\lvgl\src\font\lv_font.h **** 
  28:d:\kzc\stm32\h743ii_lcd\lvgl\src\font\lv_font.h **** /* imgfont identifier */
  29:d:\kzc\stm32\h743ii_lcd\lvgl\src\font\lv_font.h **** #define LV_IMGFONT_BPP 9
  30:d:\kzc\stm32\h743ii_lcd\lvgl\src\font\lv_font.h **** 
  31:d:\kzc\stm32\h743ii_lcd\lvgl\src\font\lv_font.h **** /**********************
  32:d:\kzc\stm32\h743ii_lcd\lvgl\src\font\lv_font.h ****  *      TYPEDEFS
  33:d:\kzc\stm32\h743ii_lcd\lvgl\src\font\lv_font.h ****  **********************/
  34:d:\kzc\stm32\h743ii_lcd\lvgl\src\font\lv_font.h **** 
  35:d:\kzc\stm32\h743ii_lcd\lvgl\src\font\lv_font.h **** /*------------------
  36:d:\kzc\stm32\h743ii_lcd\lvgl\src\font\lv_font.h ****  * General types
ARM GAS  C:\Users\OSD\AppData\Local\Temp\cc0UtiIx.s 			page 56


  37:d:\kzc\stm32\h743ii_lcd\lvgl\src\font\lv_font.h ****  *-----------------*/
  38:d:\kzc\stm32\h743ii_lcd\lvgl\src\font\lv_font.h **** 
  39:d:\kzc\stm32\h743ii_lcd\lvgl\src\font\lv_font.h **** struct _lv_font_t;
  40:d:\kzc\stm32\h743ii_lcd\lvgl\src\font\lv_font.h **** /** Describes the properties of a glyph.*/
  41:d:\kzc\stm32\h743ii_lcd\lvgl\src\font\lv_font.h **** typedef struct {
  42:d:\kzc\stm32\h743ii_lcd\lvgl\src\font\lv_font.h ****     const struct _lv_font_t *
  43:d:\kzc\stm32\h743ii_lcd\lvgl\src\font\lv_font.h ****         resolved_font; /**< Pointer to a font where the glyph was actually found after handling fal
  44:d:\kzc\stm32\h743ii_lcd\lvgl\src\font\lv_font.h ****     uint16_t adv_w; /**< The glyph needs this space. Draw the next glyph after this width.*/
  45:d:\kzc\stm32\h743ii_lcd\lvgl\src\font\lv_font.h ****     uint16_t box_w; /**< Width of the glyph's bounding box*/
  46:d:\kzc\stm32\h743ii_lcd\lvgl\src\font\lv_font.h ****     uint16_t box_h; /**< Height of the glyph's bounding box*/
  47:d:\kzc\stm32\h743ii_lcd\lvgl\src\font\lv_font.h ****     int16_t ofs_x;  /**< x offset of the bounding box*/
  48:d:\kzc\stm32\h743ii_lcd\lvgl\src\font\lv_font.h ****     int16_t ofs_y;  /**< y offset of the bounding box*/
  49:d:\kzc\stm32\h743ii_lcd\lvgl\src\font\lv_font.h ****     uint8_t bpp: 4;  /**< Bit-per-pixel: 1, 2, 4, 8*/
  50:d:\kzc\stm32\h743ii_lcd\lvgl\src\font\lv_font.h ****     uint8_t is_placeholder: 1; /** Glyph is missing. But placeholder will still be displayed */
  51:d:\kzc\stm32\h743ii_lcd\lvgl\src\font\lv_font.h **** } lv_font_glyph_dsc_t;
  52:d:\kzc\stm32\h743ii_lcd\lvgl\src\font\lv_font.h **** 
  53:d:\kzc\stm32\h743ii_lcd\lvgl\src\font\lv_font.h **** /** The bitmaps might be upscaled by 3 to achieve subpixel rendering.*/
  54:d:\kzc\stm32\h743ii_lcd\lvgl\src\font\lv_font.h **** enum {
  55:d:\kzc\stm32\h743ii_lcd\lvgl\src\font\lv_font.h ****     LV_FONT_SUBPX_NONE,
  56:d:\kzc\stm32\h743ii_lcd\lvgl\src\font\lv_font.h ****     LV_FONT_SUBPX_HOR,
  57:d:\kzc\stm32\h743ii_lcd\lvgl\src\font\lv_font.h ****     LV_FONT_SUBPX_VER,
  58:d:\kzc\stm32\h743ii_lcd\lvgl\src\font\lv_font.h ****     LV_FONT_SUBPX_BOTH,
  59:d:\kzc\stm32\h743ii_lcd\lvgl\src\font\lv_font.h **** };
  60:d:\kzc\stm32\h743ii_lcd\lvgl\src\font\lv_font.h **** 
  61:d:\kzc\stm32\h743ii_lcd\lvgl\src\font\lv_font.h **** typedef uint8_t lv_font_subpx_t;
  62:d:\kzc\stm32\h743ii_lcd\lvgl\src\font\lv_font.h **** 
  63:d:\kzc\stm32\h743ii_lcd\lvgl\src\font\lv_font.h **** /** Describe the properties of a font*/
  64:d:\kzc\stm32\h743ii_lcd\lvgl\src\font\lv_font.h **** typedef struct _lv_font_t {
  65:d:\kzc\stm32\h743ii_lcd\lvgl\src\font\lv_font.h ****     /** Get a glyph's descriptor from a font*/
  66:d:\kzc\stm32\h743ii_lcd\lvgl\src\font\lv_font.h ****     bool (*get_glyph_dsc)(const struct _lv_font_t *, lv_font_glyph_dsc_t *, uint32_t letter, uint32
  67:d:\kzc\stm32\h743ii_lcd\lvgl\src\font\lv_font.h **** 
  68:d:\kzc\stm32\h743ii_lcd\lvgl\src\font\lv_font.h ****     /** Get a glyph's bitmap from a font*/
  69:d:\kzc\stm32\h743ii_lcd\lvgl\src\font\lv_font.h ****     const uint8_t * (*get_glyph_bitmap)(const struct _lv_font_t *, uint32_t);
  70:d:\kzc\stm32\h743ii_lcd\lvgl\src\font\lv_font.h **** 
  71:d:\kzc\stm32\h743ii_lcd\lvgl\src\font\lv_font.h ****     /*Pointer to the font in a font pack (must have the same line height)*/
  72:d:\kzc\stm32\h743ii_lcd\lvgl\src\font\lv_font.h ****     lv_coord_t line_height;         /**< The real line height where any text fits*/
  73:d:\kzc\stm32\h743ii_lcd\lvgl\src\font\lv_font.h ****     lv_coord_t base_line;           /**< Base line measured from the top of the line_height*/
  74:d:\kzc\stm32\h743ii_lcd\lvgl\src\font\lv_font.h ****     uint8_t subpx  : 2;             /**< An element of `lv_font_subpx_t`*/
  75:d:\kzc\stm32\h743ii_lcd\lvgl\src\font\lv_font.h **** 
  76:d:\kzc\stm32\h743ii_lcd\lvgl\src\font\lv_font.h ****     int8_t underline_position;      /**< Distance between the top of the underline and base line (<
  77:d:\kzc\stm32\h743ii_lcd\lvgl\src\font\lv_font.h ****     int8_t underline_thickness;     /**< Thickness of the underline*/
  78:d:\kzc\stm32\h743ii_lcd\lvgl\src\font\lv_font.h **** 
  79:d:\kzc\stm32\h743ii_lcd\lvgl\src\font\lv_font.h ****     const void * dsc;               /**< Store implementation specific or run_time data or caching 
  80:d:\kzc\stm32\h743ii_lcd\lvgl\src\font\lv_font.h ****     const struct _lv_font_t * fallback;   /**< Fallback font for missing glyph. Resolved recursivel
  81:d:\kzc\stm32\h743ii_lcd\lvgl\src\font\lv_font.h **** #if LV_USE_USER_DATA
  82:d:\kzc\stm32\h743ii_lcd\lvgl\src\font\lv_font.h ****     void * user_data;               /**< Custom user data for font.*/
  83:d:\kzc\stm32\h743ii_lcd\lvgl\src\font\lv_font.h **** #endif
  84:d:\kzc\stm32\h743ii_lcd\lvgl\src\font\lv_font.h **** } lv_font_t;
  85:d:\kzc\stm32\h743ii_lcd\lvgl\src\font\lv_font.h **** 
  86:d:\kzc\stm32\h743ii_lcd\lvgl\src\font\lv_font.h **** /**********************
  87:d:\kzc\stm32\h743ii_lcd\lvgl\src\font\lv_font.h ****  * GLOBAL PROTOTYPES
  88:d:\kzc\stm32\h743ii_lcd\lvgl\src\font\lv_font.h ****  **********************/
  89:d:\kzc\stm32\h743ii_lcd\lvgl\src\font\lv_font.h **** 
  90:d:\kzc\stm32\h743ii_lcd\lvgl\src\font\lv_font.h **** /**
  91:d:\kzc\stm32\h743ii_lcd\lvgl\src\font\lv_font.h ****  * Return with the bitmap of a font.
  92:d:\kzc\stm32\h743ii_lcd\lvgl\src\font\lv_font.h ****  * @param font_p pointer to a font
  93:d:\kzc\stm32\h743ii_lcd\lvgl\src\font\lv_font.h ****  * @param letter a UNICODE character code
ARM GAS  C:\Users\OSD\AppData\Local\Temp\cc0UtiIx.s 			page 57


  94:d:\kzc\stm32\h743ii_lcd\lvgl\src\font\lv_font.h ****  * @return pointer to the bitmap of the letter
  95:d:\kzc\stm32\h743ii_lcd\lvgl\src\font\lv_font.h ****  */
  96:d:\kzc\stm32\h743ii_lcd\lvgl\src\font\lv_font.h **** const uint8_t * lv_font_get_glyph_bitmap(const lv_font_t * font_p, uint32_t letter);
  97:d:\kzc\stm32\h743ii_lcd\lvgl\src\font\lv_font.h **** 
  98:d:\kzc\stm32\h743ii_lcd\lvgl\src\font\lv_font.h **** /**
  99:d:\kzc\stm32\h743ii_lcd\lvgl\src\font\lv_font.h ****  * Get the descriptor of a glyph
 100:d:\kzc\stm32\h743ii_lcd\lvgl\src\font\lv_font.h ****  * @param font_p pointer to font
 101:d:\kzc\stm32\h743ii_lcd\lvgl\src\font\lv_font.h ****  * @param dsc_out store the result descriptor here
 102:d:\kzc\stm32\h743ii_lcd\lvgl\src\font\lv_font.h ****  * @param letter a UNICODE letter code
 103:d:\kzc\stm32\h743ii_lcd\lvgl\src\font\lv_font.h ****  * @param letter_next the next letter after `letter`. Used for kerning
 104:d:\kzc\stm32\h743ii_lcd\lvgl\src\font\lv_font.h ****  * @return true: descriptor is successfully loaded into `dsc_out`.
 105:d:\kzc\stm32\h743ii_lcd\lvgl\src\font\lv_font.h ****  *         false: the letter was not found, no data is loaded to `dsc_out`
 106:d:\kzc\stm32\h743ii_lcd\lvgl\src\font\lv_font.h ****  */
 107:d:\kzc\stm32\h743ii_lcd\lvgl\src\font\lv_font.h **** bool lv_font_get_glyph_dsc(const lv_font_t * font_p, lv_font_glyph_dsc_t * dsc_out, uint32_t letter
 108:d:\kzc\stm32\h743ii_lcd\lvgl\src\font\lv_font.h ****                            uint32_t letter_next);
 109:d:\kzc\stm32\h743ii_lcd\lvgl\src\font\lv_font.h **** 
 110:d:\kzc\stm32\h743ii_lcd\lvgl\src\font\lv_font.h **** /**
 111:d:\kzc\stm32\h743ii_lcd\lvgl\src\font\lv_font.h ****  * Get the width of a glyph with kerning
 112:d:\kzc\stm32\h743ii_lcd\lvgl\src\font\lv_font.h ****  * @param font pointer to a font
 113:d:\kzc\stm32\h743ii_lcd\lvgl\src\font\lv_font.h ****  * @param letter a UNICODE letter
 114:d:\kzc\stm32\h743ii_lcd\lvgl\src\font\lv_font.h ****  * @param letter_next the next letter after `letter`. Used for kerning
 115:d:\kzc\stm32\h743ii_lcd\lvgl\src\font\lv_font.h ****  * @return the width of the glyph
 116:d:\kzc\stm32\h743ii_lcd\lvgl\src\font\lv_font.h ****  */
 117:d:\kzc\stm32\h743ii_lcd\lvgl\src\font\lv_font.h **** uint16_t lv_font_get_glyph_width(const lv_font_t * font, uint32_t letter, uint32_t letter_next);
 118:d:\kzc\stm32\h743ii_lcd\lvgl\src\font\lv_font.h **** 
 119:d:\kzc\stm32\h743ii_lcd\lvgl\src\font\lv_font.h **** /**
 120:d:\kzc\stm32\h743ii_lcd\lvgl\src\font\lv_font.h ****  * Get the line height of a font. All characters fit into this height
 121:d:\kzc\stm32\h743ii_lcd\lvgl\src\font\lv_font.h ****  * @param font_p pointer to a font
 122:d:\kzc\stm32\h743ii_lcd\lvgl\src\font\lv_font.h ****  * @return the height of a font
 123:d:\kzc\stm32\h743ii_lcd\lvgl\src\font\lv_font.h ****  */
 124:d:\kzc\stm32\h743ii_lcd\lvgl\src\font\lv_font.h **** static inline lv_coord_t lv_font_get_line_height(const lv_font_t * font_p)
 1150              		.loc 4 124 26 is_stmt 1 view .LVU319
 1151              	.LBB106:
 125:d:\kzc\stm32\h743ii_lcd\lvgl\src\font\lv_font.h **** {
 126:d:\kzc\stm32\h743ii_lcd\lvgl\src\font\lv_font.h ****     return font_p->line_height;
 1152              		.loc 4 126 5 view .LVU320
 1153              		.loc 4 126 18 is_stmt 0 view .LVU321
 1154 00fe B3F90830 		ldrsh	r3, [r3, #8]
 1155              	.LVL125:
 1156              		.loc 4 126 18 view .LVU322
 1157              	.LBE106:
 1158              	.LBE105:
 826:lvgl/src/extra/widgets/span/lv_span.c ****             }
 1159              		.loc 1 826 72 view .LVU323
 1160 0102 149A     		ldr	r2, [sp, #80]
 1161 0104 12FA83F3 		uxtah	r3, r2, r3
 826:lvgl/src/extra/widgets/span/lv_span.c ****             }
 1162              		.loc 1 826 32 view .LVU324
 1163 0108 ADF8C830 		strh	r3, [sp, #200]	@ movhi
 1164 010c 57E0     		b	.L72
 1165              	.LVL126:
 1166              	.L134:
 1167              	.LBB107:
 1168              	.LBB108:
 1169              	.LBB109:
 1170              		.file 5 "d:\\kzc\\stm32\\h743ii_lcd\\lvgl\\src\\misc\\lv_txt.h"
   1:d:\kzc\stm32\h743ii_lcd\lvgl\src\misc\lv_txt.h **** /**
ARM GAS  C:\Users\OSD\AppData\Local\Temp\cc0UtiIx.s 			page 58


   2:d:\kzc\stm32\h743ii_lcd\lvgl\src\misc\lv_txt.h ****  * @file lv_txt.h
   3:d:\kzc\stm32\h743ii_lcd\lvgl\src\misc\lv_txt.h ****  *
   4:d:\kzc\stm32\h743ii_lcd\lvgl\src\misc\lv_txt.h ****  */
   5:d:\kzc\stm32\h743ii_lcd\lvgl\src\misc\lv_txt.h **** 
   6:d:\kzc\stm32\h743ii_lcd\lvgl\src\misc\lv_txt.h **** #ifndef LV_TXT_H
   7:d:\kzc\stm32\h743ii_lcd\lvgl\src\misc\lv_txt.h **** #define LV_TXT_H
   8:d:\kzc\stm32\h743ii_lcd\lvgl\src\misc\lv_txt.h **** 
   9:d:\kzc\stm32\h743ii_lcd\lvgl\src\misc\lv_txt.h **** #ifdef __cplusplus
  10:d:\kzc\stm32\h743ii_lcd\lvgl\src\misc\lv_txt.h **** extern "C" {
  11:d:\kzc\stm32\h743ii_lcd\lvgl\src\misc\lv_txt.h **** #endif
  12:d:\kzc\stm32\h743ii_lcd\lvgl\src\misc\lv_txt.h **** 
  13:d:\kzc\stm32\h743ii_lcd\lvgl\src\misc\lv_txt.h **** /*********************
  14:d:\kzc\stm32\h743ii_lcd\lvgl\src\misc\lv_txt.h ****  *      INCLUDES
  15:d:\kzc\stm32\h743ii_lcd\lvgl\src\misc\lv_txt.h ****  *********************/
  16:d:\kzc\stm32\h743ii_lcd\lvgl\src\misc\lv_txt.h **** #include "../lv_conf_internal.h"
  17:d:\kzc\stm32\h743ii_lcd\lvgl\src\misc\lv_txt.h **** 
  18:d:\kzc\stm32\h743ii_lcd\lvgl\src\misc\lv_txt.h **** #include <stdbool.h>
  19:d:\kzc\stm32\h743ii_lcd\lvgl\src\misc\lv_txt.h **** #include <stdarg.h>
  20:d:\kzc\stm32\h743ii_lcd\lvgl\src\misc\lv_txt.h **** #include "lv_area.h"
  21:d:\kzc\stm32\h743ii_lcd\lvgl\src\misc\lv_txt.h **** #include "../font/lv_font.h"
  22:d:\kzc\stm32\h743ii_lcd\lvgl\src\misc\lv_txt.h **** #include "lv_printf.h"
  23:d:\kzc\stm32\h743ii_lcd\lvgl\src\misc\lv_txt.h **** #include "lv_types.h"
  24:d:\kzc\stm32\h743ii_lcd\lvgl\src\misc\lv_txt.h **** 
  25:d:\kzc\stm32\h743ii_lcd\lvgl\src\misc\lv_txt.h **** /*********************
  26:d:\kzc\stm32\h743ii_lcd\lvgl\src\misc\lv_txt.h ****  *      DEFINES
  27:d:\kzc\stm32\h743ii_lcd\lvgl\src\misc\lv_txt.h ****  *********************/
  28:d:\kzc\stm32\h743ii_lcd\lvgl\src\misc\lv_txt.h **** #ifndef LV_TXT_COLOR_CMD
  29:d:\kzc\stm32\h743ii_lcd\lvgl\src\misc\lv_txt.h **** #define LV_TXT_COLOR_CMD "#"
  30:d:\kzc\stm32\h743ii_lcd\lvgl\src\misc\lv_txt.h **** #endif
  31:d:\kzc\stm32\h743ii_lcd\lvgl\src\misc\lv_txt.h **** 
  32:d:\kzc\stm32\h743ii_lcd\lvgl\src\misc\lv_txt.h **** #define LV_TXT_ENC_UTF8 1
  33:d:\kzc\stm32\h743ii_lcd\lvgl\src\misc\lv_txt.h **** #define LV_TXT_ENC_ASCII 2
  34:d:\kzc\stm32\h743ii_lcd\lvgl\src\misc\lv_txt.h **** 
  35:d:\kzc\stm32\h743ii_lcd\lvgl\src\misc\lv_txt.h **** /**********************
  36:d:\kzc\stm32\h743ii_lcd\lvgl\src\misc\lv_txt.h ****  *      TYPEDEFS
  37:d:\kzc\stm32\h743ii_lcd\lvgl\src\misc\lv_txt.h ****  **********************/
  38:d:\kzc\stm32\h743ii_lcd\lvgl\src\misc\lv_txt.h **** 
  39:d:\kzc\stm32\h743ii_lcd\lvgl\src\misc\lv_txt.h **** /**
  40:d:\kzc\stm32\h743ii_lcd\lvgl\src\misc\lv_txt.h ****  * Options for text rendering.
  41:d:\kzc\stm32\h743ii_lcd\lvgl\src\misc\lv_txt.h ****  */
  42:d:\kzc\stm32\h743ii_lcd\lvgl\src\misc\lv_txt.h **** enum {
  43:d:\kzc\stm32\h743ii_lcd\lvgl\src\misc\lv_txt.h ****     LV_TEXT_FLAG_NONE    = 0x00,
  44:d:\kzc\stm32\h743ii_lcd\lvgl\src\misc\lv_txt.h ****     LV_TEXT_FLAG_RECOLOR = 0x01, /**< Enable parsing of recolor command*/
  45:d:\kzc\stm32\h743ii_lcd\lvgl\src\misc\lv_txt.h ****     LV_TEXT_FLAG_EXPAND  = 0x02, /**< Ignore max-width to avoid automatic word wrapping*/
  46:d:\kzc\stm32\h743ii_lcd\lvgl\src\misc\lv_txt.h ****     LV_TEXT_FLAG_FIT     = 0x04, /**< Max-width is already equal to the longest line. (Used to skip
  47:d:\kzc\stm32\h743ii_lcd\lvgl\src\misc\lv_txt.h **** };
  48:d:\kzc\stm32\h743ii_lcd\lvgl\src\misc\lv_txt.h **** typedef uint8_t lv_text_flag_t;
  49:d:\kzc\stm32\h743ii_lcd\lvgl\src\misc\lv_txt.h **** 
  50:d:\kzc\stm32\h743ii_lcd\lvgl\src\misc\lv_txt.h **** /**
  51:d:\kzc\stm32\h743ii_lcd\lvgl\src\misc\lv_txt.h ****  * State machine for text renderer.*/
  52:d:\kzc\stm32\h743ii_lcd\lvgl\src\misc\lv_txt.h **** enum {
  53:d:\kzc\stm32\h743ii_lcd\lvgl\src\misc\lv_txt.h ****     LV_TEXT_CMD_STATE_WAIT, /**< Waiting for command*/
  54:d:\kzc\stm32\h743ii_lcd\lvgl\src\misc\lv_txt.h ****     LV_TEXT_CMD_STATE_PAR,  /**< Processing the parameter*/
  55:d:\kzc\stm32\h743ii_lcd\lvgl\src\misc\lv_txt.h ****     LV_TEXT_CMD_STATE_IN,   /**< Processing the command*/
  56:d:\kzc\stm32\h743ii_lcd\lvgl\src\misc\lv_txt.h **** };
  57:d:\kzc\stm32\h743ii_lcd\lvgl\src\misc\lv_txt.h **** typedef uint8_t lv_text_cmd_state_t;
  58:d:\kzc\stm32\h743ii_lcd\lvgl\src\misc\lv_txt.h **** 
ARM GAS  C:\Users\OSD\AppData\Local\Temp\cc0UtiIx.s 			page 59


  59:d:\kzc\stm32\h743ii_lcd\lvgl\src\misc\lv_txt.h **** /** Label align policy*/
  60:d:\kzc\stm32\h743ii_lcd\lvgl\src\misc\lv_txt.h **** enum {
  61:d:\kzc\stm32\h743ii_lcd\lvgl\src\misc\lv_txt.h ****     LV_TEXT_ALIGN_AUTO, /**< Align text auto*/
  62:d:\kzc\stm32\h743ii_lcd\lvgl\src\misc\lv_txt.h ****     LV_TEXT_ALIGN_LEFT, /**< Align text to left*/
  63:d:\kzc\stm32\h743ii_lcd\lvgl\src\misc\lv_txt.h ****     LV_TEXT_ALIGN_CENTER, /**< Align text to center*/
  64:d:\kzc\stm32\h743ii_lcd\lvgl\src\misc\lv_txt.h ****     LV_TEXT_ALIGN_RIGHT, /**< Align text to right*/
  65:d:\kzc\stm32\h743ii_lcd\lvgl\src\misc\lv_txt.h **** };
  66:d:\kzc\stm32\h743ii_lcd\lvgl\src\misc\lv_txt.h **** typedef uint8_t lv_text_align_t;
  67:d:\kzc\stm32\h743ii_lcd\lvgl\src\misc\lv_txt.h **** 
  68:d:\kzc\stm32\h743ii_lcd\lvgl\src\misc\lv_txt.h **** /**********************
  69:d:\kzc\stm32\h743ii_lcd\lvgl\src\misc\lv_txt.h ****  * GLOBAL PROTOTYPES
  70:d:\kzc\stm32\h743ii_lcd\lvgl\src\misc\lv_txt.h ****  **********************/
  71:d:\kzc\stm32\h743ii_lcd\lvgl\src\misc\lv_txt.h **** 
  72:d:\kzc\stm32\h743ii_lcd\lvgl\src\misc\lv_txt.h **** /**
  73:d:\kzc\stm32\h743ii_lcd\lvgl\src\misc\lv_txt.h ****  * Get size of a text
  74:d:\kzc\stm32\h743ii_lcd\lvgl\src\misc\lv_txt.h ****  * @param size_res pointer to a 'point_t' variable to store the result
  75:d:\kzc\stm32\h743ii_lcd\lvgl\src\misc\lv_txt.h ****  * @param text pointer to a text
  76:d:\kzc\stm32\h743ii_lcd\lvgl\src\misc\lv_txt.h ****  * @param font pointer to font of the text
  77:d:\kzc\stm32\h743ii_lcd\lvgl\src\misc\lv_txt.h ****  * @param letter_space letter space of the text
  78:d:\kzc\stm32\h743ii_lcd\lvgl\src\misc\lv_txt.h ****  * @param line_space line space of the text
  79:d:\kzc\stm32\h743ii_lcd\lvgl\src\misc\lv_txt.h ****  * @param flags settings for the text from ::lv_text_flag_t
  80:d:\kzc\stm32\h743ii_lcd\lvgl\src\misc\lv_txt.h ****  * @param max_width max width of the text (break the lines to fit this size). Set COORD_MAX to avoi
  81:d:\kzc\stm32\h743ii_lcd\lvgl\src\misc\lv_txt.h ****  * line breaks
  82:d:\kzc\stm32\h743ii_lcd\lvgl\src\misc\lv_txt.h ****  */
  83:d:\kzc\stm32\h743ii_lcd\lvgl\src\misc\lv_txt.h **** void lv_txt_get_size(lv_point_t * size_res, const char * text, const lv_font_t * font, lv_coord_t l
  84:d:\kzc\stm32\h743ii_lcd\lvgl\src\misc\lv_txt.h ****                      lv_coord_t line_space, lv_coord_t max_width, lv_text_flag_t flag);
  85:d:\kzc\stm32\h743ii_lcd\lvgl\src\misc\lv_txt.h **** 
  86:d:\kzc\stm32\h743ii_lcd\lvgl\src\misc\lv_txt.h **** /**
  87:d:\kzc\stm32\h743ii_lcd\lvgl\src\misc\lv_txt.h ****  * Get the next line of text. Check line length and break chars too.
  88:d:\kzc\stm32\h743ii_lcd\lvgl\src\misc\lv_txt.h ****  * @param txt a '\0' terminated string
  89:d:\kzc\stm32\h743ii_lcd\lvgl\src\misc\lv_txt.h ****  * @param font pointer to a font
  90:d:\kzc\stm32\h743ii_lcd\lvgl\src\misc\lv_txt.h ****  * @param letter_space letter space
  91:d:\kzc\stm32\h743ii_lcd\lvgl\src\misc\lv_txt.h ****  * @param max_width max width of the text (break the lines to fit this size). Set COORD_MAX to avoi
  92:d:\kzc\stm32\h743ii_lcd\lvgl\src\misc\lv_txt.h ****  * line breaks
  93:d:\kzc\stm32\h743ii_lcd\lvgl\src\misc\lv_txt.h ****  * @param used_width When used_width != NULL, save the width of this line if
  94:d:\kzc\stm32\h743ii_lcd\lvgl\src\misc\lv_txt.h ****  * flag == LV_TEXT_FLAG_NONE, otherwise save -1.
  95:d:\kzc\stm32\h743ii_lcd\lvgl\src\misc\lv_txt.h ****  * @param flags settings for the text from 'txt_flag_type' enum
  96:d:\kzc\stm32\h743ii_lcd\lvgl\src\misc\lv_txt.h ****  * @return the index of the first char of the new line (in byte index not letter index. With UTF-8
  97:d:\kzc\stm32\h743ii_lcd\lvgl\src\misc\lv_txt.h ****  * they are different)
  98:d:\kzc\stm32\h743ii_lcd\lvgl\src\misc\lv_txt.h ****  */
  99:d:\kzc\stm32\h743ii_lcd\lvgl\src\misc\lv_txt.h **** uint32_t _lv_txt_get_next_line(const char * txt, const lv_font_t * font, lv_coord_t letter_space,
 100:d:\kzc\stm32\h743ii_lcd\lvgl\src\misc\lv_txt.h ****                                lv_coord_t max_width, lv_coord_t * used_width, lv_text_flag_t flag);
 101:d:\kzc\stm32\h743ii_lcd\lvgl\src\misc\lv_txt.h **** 
 102:d:\kzc\stm32\h743ii_lcd\lvgl\src\misc\lv_txt.h **** /**
 103:d:\kzc\stm32\h743ii_lcd\lvgl\src\misc\lv_txt.h ****  * Give the length of a text with a given font
 104:d:\kzc\stm32\h743ii_lcd\lvgl\src\misc\lv_txt.h ****  * @param txt a '\0' terminate string
 105:d:\kzc\stm32\h743ii_lcd\lvgl\src\misc\lv_txt.h ****  * @param length length of 'txt' in byte count and not characters ( is 1 character but 2 bytes in
 106:d:\kzc\stm32\h743ii_lcd\lvgl\src\misc\lv_txt.h ****  * UTF-8)
 107:d:\kzc\stm32\h743ii_lcd\lvgl\src\misc\lv_txt.h ****  * @param font pointer to a font
 108:d:\kzc\stm32\h743ii_lcd\lvgl\src\misc\lv_txt.h ****  * @param letter_space letter space
 109:d:\kzc\stm32\h743ii_lcd\lvgl\src\misc\lv_txt.h ****  * @param flags settings for the text from 'txt_flag_t' enum
 110:d:\kzc\stm32\h743ii_lcd\lvgl\src\misc\lv_txt.h ****  * @return length of a char_num long text
 111:d:\kzc\stm32\h743ii_lcd\lvgl\src\misc\lv_txt.h ****  */
 112:d:\kzc\stm32\h743ii_lcd\lvgl\src\misc\lv_txt.h **** lv_coord_t lv_txt_get_width(const char * txt, uint32_t length, const lv_font_t * font, lv_coord_t l
 113:d:\kzc\stm32\h743ii_lcd\lvgl\src\misc\lv_txt.h ****                             lv_text_flag_t flag);
 114:d:\kzc\stm32\h743ii_lcd\lvgl\src\misc\lv_txt.h **** 
 115:d:\kzc\stm32\h743ii_lcd\lvgl\src\misc\lv_txt.h **** /**
ARM GAS  C:\Users\OSD\AppData\Local\Temp\cc0UtiIx.s 			page 60


 116:d:\kzc\stm32\h743ii_lcd\lvgl\src\misc\lv_txt.h ****  * Check next character in a string and decide if the character is part of the command or not
 117:d:\kzc\stm32\h743ii_lcd\lvgl\src\misc\lv_txt.h ****  * @param state pointer to a txt_cmd_state_t variable which stores the current state of command
 118:d:\kzc\stm32\h743ii_lcd\lvgl\src\misc\lv_txt.h ****  * processing
 119:d:\kzc\stm32\h743ii_lcd\lvgl\src\misc\lv_txt.h ****  * @param c the current character
 120:d:\kzc\stm32\h743ii_lcd\lvgl\src\misc\lv_txt.h ****  * @return true: the character is part of a command and should not be written,
 121:d:\kzc\stm32\h743ii_lcd\lvgl\src\misc\lv_txt.h ****  *         false: the character should be written
 122:d:\kzc\stm32\h743ii_lcd\lvgl\src\misc\lv_txt.h ****  */
 123:d:\kzc\stm32\h743ii_lcd\lvgl\src\misc\lv_txt.h **** bool _lv_txt_is_cmd(lv_text_cmd_state_t * state, uint32_t c);
 124:d:\kzc\stm32\h743ii_lcd\lvgl\src\misc\lv_txt.h **** 
 125:d:\kzc\stm32\h743ii_lcd\lvgl\src\misc\lv_txt.h **** /**
 126:d:\kzc\stm32\h743ii_lcd\lvgl\src\misc\lv_txt.h ****  * Insert a string into an other
 127:d:\kzc\stm32\h743ii_lcd\lvgl\src\misc\lv_txt.h ****  * @param txt_buf the original text (must be big enough for the result text and NULL terminated)
 128:d:\kzc\stm32\h743ii_lcd\lvgl\src\misc\lv_txt.h ****  * @param pos position to insert (0: before the original text, 1: after the first char etc.)
 129:d:\kzc\stm32\h743ii_lcd\lvgl\src\misc\lv_txt.h ****  * @param ins_txt text to insert, must be '\0' terminated
 130:d:\kzc\stm32\h743ii_lcd\lvgl\src\misc\lv_txt.h ****  */
 131:d:\kzc\stm32\h743ii_lcd\lvgl\src\misc\lv_txt.h **** void _lv_txt_ins(char * txt_buf, uint32_t pos, const char * ins_txt);
 132:d:\kzc\stm32\h743ii_lcd\lvgl\src\misc\lv_txt.h **** 
 133:d:\kzc\stm32\h743ii_lcd\lvgl\src\misc\lv_txt.h **** /**
 134:d:\kzc\stm32\h743ii_lcd\lvgl\src\misc\lv_txt.h ****  * Delete a part of a string
 135:d:\kzc\stm32\h743ii_lcd\lvgl\src\misc\lv_txt.h ****  * @param txt string to modify, must be '\0' terminated and should point to a heap or stack frame, 
 136:d:\kzc\stm32\h743ii_lcd\lvgl\src\misc\lv_txt.h ****  * @param pos position where to start the deleting (0: before the first char, 1: after the first
 137:d:\kzc\stm32\h743ii_lcd\lvgl\src\misc\lv_txt.h ****  * char etc.)
 138:d:\kzc\stm32\h743ii_lcd\lvgl\src\misc\lv_txt.h ****  * @param len number of characters to delete
 139:d:\kzc\stm32\h743ii_lcd\lvgl\src\misc\lv_txt.h ****  */
 140:d:\kzc\stm32\h743ii_lcd\lvgl\src\misc\lv_txt.h **** void _lv_txt_cut(char * txt, uint32_t pos, uint32_t len);
 141:d:\kzc\stm32\h743ii_lcd\lvgl\src\misc\lv_txt.h **** 
 142:d:\kzc\stm32\h743ii_lcd\lvgl\src\misc\lv_txt.h **** /**
 143:d:\kzc\stm32\h743ii_lcd\lvgl\src\misc\lv_txt.h ****  * return a new formatted text. Memory will be allocated to store the text.
 144:d:\kzc\stm32\h743ii_lcd\lvgl\src\misc\lv_txt.h ****  * @param fmt `printf`-like format
 145:d:\kzc\stm32\h743ii_lcd\lvgl\src\misc\lv_txt.h ****  * @return pointer to the allocated text string.
 146:d:\kzc\stm32\h743ii_lcd\lvgl\src\misc\lv_txt.h ****  */
 147:d:\kzc\stm32\h743ii_lcd\lvgl\src\misc\lv_txt.h **** char * _lv_txt_set_text_vfmt(const char * fmt, va_list ap) LV_FORMAT_ATTRIBUTE(1, 0);
 148:d:\kzc\stm32\h743ii_lcd\lvgl\src\misc\lv_txt.h **** 
 149:d:\kzc\stm32\h743ii_lcd\lvgl\src\misc\lv_txt.h **** /**
 150:d:\kzc\stm32\h743ii_lcd\lvgl\src\misc\lv_txt.h ****  * Decode two encoded character from a string.
 151:d:\kzc\stm32\h743ii_lcd\lvgl\src\misc\lv_txt.h ****  * @param txt pointer to '\0' terminated string
 152:d:\kzc\stm32\h743ii_lcd\lvgl\src\misc\lv_txt.h ****  * @param letter the first decoded Unicode character or 0 on invalid data code
 153:d:\kzc\stm32\h743ii_lcd\lvgl\src\misc\lv_txt.h ****  * @param letter_next the second decoded Unicode character or 0 on invalid data code
 154:d:\kzc\stm32\h743ii_lcd\lvgl\src\misc\lv_txt.h ****  * @param ofs start index in 'txt' where to start.
 155:d:\kzc\stm32\h743ii_lcd\lvgl\src\misc\lv_txt.h ****  *                After the call it will point to the next encoded char in 'txt'.
 156:d:\kzc\stm32\h743ii_lcd\lvgl\src\misc\lv_txt.h ****  *                NULL to use txt[0] as index
 157:d:\kzc\stm32\h743ii_lcd\lvgl\src\misc\lv_txt.h ****  */
 158:d:\kzc\stm32\h743ii_lcd\lvgl\src\misc\lv_txt.h **** void _lv_txt_encoded_letter_next_2(const char * txt, uint32_t * letter, uint32_t * letter_next, uin
 159:d:\kzc\stm32\h743ii_lcd\lvgl\src\misc\lv_txt.h **** 
 160:d:\kzc\stm32\h743ii_lcd\lvgl\src\misc\lv_txt.h **** /**
 161:d:\kzc\stm32\h743ii_lcd\lvgl\src\misc\lv_txt.h ****  * Test if char is break char or not (a text can broken here or not)
 162:d:\kzc\stm32\h743ii_lcd\lvgl\src\misc\lv_txt.h ****  * @param letter a letter
 163:d:\kzc\stm32\h743ii_lcd\lvgl\src\misc\lv_txt.h ****  * @return false: 'letter' is not break char
 164:d:\kzc\stm32\h743ii_lcd\lvgl\src\misc\lv_txt.h ****  */
 165:d:\kzc\stm32\h743ii_lcd\lvgl\src\misc\lv_txt.h **** static inline bool _lv_txt_is_break_char(uint32_t letter)
 166:d:\kzc\stm32\h743ii_lcd\lvgl\src\misc\lv_txt.h **** {
 167:d:\kzc\stm32\h743ii_lcd\lvgl\src\misc\lv_txt.h ****     uint8_t i;
 168:d:\kzc\stm32\h743ii_lcd\lvgl\src\misc\lv_txt.h ****     bool ret = false;
 1171              		.loc 5 168 10 view .LVU325
 1172 010e 4FF00009 		mov	r9, #0
 1173              	.L77:
 1174              	.LVL127:
ARM GAS  C:\Users\OSD\AppData\Local\Temp\cc0UtiIx.s 			page 61


 1175              		.loc 5 168 10 view .LVU326
 1176              	.LBE109:
 1177              	.LBE108:
 844:lvgl/src/extra/widgets/span/lv_span.c ****                         tmp_ofs = 0;
 1178              		.loc 1 844 24 view .LVU327
 1179 0112 B9F1000F 		cmp	r9, #0
 1180 0116 24D1     		bne	.L73
 845:lvgl/src/extra/widgets/span/lv_span.c ****                         letter = _lv_txt_encoded_next(&cur_txt[cur_txt_ofs + next_ofs], &tmp_ofs);
 1181              		.loc 1 845 25 is_stmt 1 view .LVU328
 845:lvgl/src/extra/widgets/span/lv_span.c ****                         letter = _lv_txt_encoded_next(&cur_txt[cur_txt_ofs + next_ofs], &tmp_ofs);
 1182              		.loc 1 845 33 is_stmt 0 view .LVU329
 1183 0118 0023     		movs	r3, #0
 1184 011a 2193     		str	r3, [sp, #132]
 846:lvgl/src/extra/widgets/span/lv_span.c ****                         if(!(letter == '\0' || letter == '\n'  || letter == '\r' || _lv_txt_is_brea
 1185              		.loc 1 846 25 is_stmt 1 view .LVU330
 846:lvgl/src/extra/widgets/span/lv_span.c ****                         if(!(letter == '\0' || letter == '\n'  || letter == '\r' || _lv_txt_is_brea
 1186              		.loc 1 846 76 is_stmt 0 view .LVU331
 1187 011c 209B     		ldr	r3, [sp, #128]
 1188 011e 5B44     		add	r3, r3, fp
 846:lvgl/src/extra/widgets/span/lv_span.c ****                         if(!(letter == '\0' || letter == '\n'  || letter == '\r' || _lv_txt_is_brea
 1189              		.loc 1 846 34 view .LVU332
 1190 0120 934A     		ldr	r2, .L146+4
 1191 0122 1268     		ldr	r2, [r2]
