ARM GAS  C:\Users\OSD\AppData\Local\Temp\cczRoDjq.s 			page 1


   1              		.cpu cortex-m7
   2              		.arch armv7e-m
   3              		.fpu fpv5-d16
   4              		.eabi_attribute 28, 1
   5              		.eabi_attribute 20, 1
   6              		.eabi_attribute 21, 1
   7              		.eabi_attribute 23, 3
   8              		.eabi_attribute 24, 1
   9              		.eabi_attribute 25, 1
  10              		.eabi_attribute 26, 1
  11              		.eabi_attribute 30, 1
  12              		.eabi_attribute 34, 1
  13              		.eabi_attribute 18, 4
  14              		.file	"lv_tileview.c"
  15              		.text
  16              	.Ltext0:
  17              		.cfi_sections	.debug_frame
  18              		.section	.text.lv_tileview_constructor,"ax",%progbits
  19              		.align	1
  20              		.syntax unified
  21              		.thumb
  22              		.thumb_func
  24              	lv_tileview_constructor:
  25              	.LVL0:
  26              	.LFB166:
  27              		.file 1 "lvgl/src/extra/widgets/tileview/lv_tileview.c"
   1:lvgl/src/extra/widgets/tileview/lv_tileview.c **** /**
   2:lvgl/src/extra/widgets/tileview/lv_tileview.c ****  * @file lv_tileview.c
   3:lvgl/src/extra/widgets/tileview/lv_tileview.c ****  *
   4:lvgl/src/extra/widgets/tileview/lv_tileview.c ****  */
   5:lvgl/src/extra/widgets/tileview/lv_tileview.c **** 
   6:lvgl/src/extra/widgets/tileview/lv_tileview.c **** /*********************
   7:lvgl/src/extra/widgets/tileview/lv_tileview.c ****  *      INCLUDES
   8:lvgl/src/extra/widgets/tileview/lv_tileview.c ****  *********************/
   9:lvgl/src/extra/widgets/tileview/lv_tileview.c **** #include "lv_tileview.h"
  10:lvgl/src/extra/widgets/tileview/lv_tileview.c **** #include "../../../core/lv_indev.h"
  11:lvgl/src/extra/widgets/tileview/lv_tileview.c **** #if LV_USE_TILEVIEW
  12:lvgl/src/extra/widgets/tileview/lv_tileview.c **** 
  13:lvgl/src/extra/widgets/tileview/lv_tileview.c **** /*********************
  14:lvgl/src/extra/widgets/tileview/lv_tileview.c ****  *      DEFINES
  15:lvgl/src/extra/widgets/tileview/lv_tileview.c ****  *********************/
  16:lvgl/src/extra/widgets/tileview/lv_tileview.c **** 
  17:lvgl/src/extra/widgets/tileview/lv_tileview.c **** /**********************
  18:lvgl/src/extra/widgets/tileview/lv_tileview.c ****  *      TYPEDEFS
  19:lvgl/src/extra/widgets/tileview/lv_tileview.c ****  **********************/
  20:lvgl/src/extra/widgets/tileview/lv_tileview.c **** 
  21:lvgl/src/extra/widgets/tileview/lv_tileview.c **** /**********************
  22:lvgl/src/extra/widgets/tileview/lv_tileview.c ****  *  STATIC PROTOTYPES
  23:lvgl/src/extra/widgets/tileview/lv_tileview.c ****  **********************/
  24:lvgl/src/extra/widgets/tileview/lv_tileview.c **** static void lv_tileview_constructor(const lv_obj_class_t * class_p, lv_obj_t * obj);
  25:lvgl/src/extra/widgets/tileview/lv_tileview.c **** static void lv_tileview_tile_constructor(const lv_obj_class_t * class_p, lv_obj_t * obj);
  26:lvgl/src/extra/widgets/tileview/lv_tileview.c **** static void tileview_event_cb(lv_event_t * e);
  27:lvgl/src/extra/widgets/tileview/lv_tileview.c **** 
  28:lvgl/src/extra/widgets/tileview/lv_tileview.c **** /**********************
  29:lvgl/src/extra/widgets/tileview/lv_tileview.c ****  *  STATIC VARIABLES
  30:lvgl/src/extra/widgets/tileview/lv_tileview.c ****  **********************/
  31:lvgl/src/extra/widgets/tileview/lv_tileview.c **** 
ARM GAS  C:\Users\OSD\AppData\Local\Temp\cczRoDjq.s 			page 2


  32:lvgl/src/extra/widgets/tileview/lv_tileview.c **** const lv_obj_class_t lv_tileview_class = {.constructor_cb = lv_tileview_constructor,
  33:lvgl/src/extra/widgets/tileview/lv_tileview.c ****                                           .base_class = &lv_obj_class,
  34:lvgl/src/extra/widgets/tileview/lv_tileview.c ****                                           .instance_size = sizeof(lv_tileview_t)
  35:lvgl/src/extra/widgets/tileview/lv_tileview.c ****                                          };
  36:lvgl/src/extra/widgets/tileview/lv_tileview.c **** 
  37:lvgl/src/extra/widgets/tileview/lv_tileview.c **** const lv_obj_class_t lv_tileview_tile_class = {.constructor_cb = lv_tileview_tile_constructor,
  38:lvgl/src/extra/widgets/tileview/lv_tileview.c ****                                                .base_class = &lv_obj_class,
  39:lvgl/src/extra/widgets/tileview/lv_tileview.c ****                                                .instance_size = sizeof(lv_tileview_tile_t)
  40:lvgl/src/extra/widgets/tileview/lv_tileview.c ****                                               };
  41:lvgl/src/extra/widgets/tileview/lv_tileview.c **** 
  42:lvgl/src/extra/widgets/tileview/lv_tileview.c **** static lv_dir_t create_dir;
  43:lvgl/src/extra/widgets/tileview/lv_tileview.c **** static uint32_t create_col_id;
  44:lvgl/src/extra/widgets/tileview/lv_tileview.c **** static uint32_t create_row_id;
  45:lvgl/src/extra/widgets/tileview/lv_tileview.c **** 
  46:lvgl/src/extra/widgets/tileview/lv_tileview.c **** /**********************
  47:lvgl/src/extra/widgets/tileview/lv_tileview.c ****  *      MACROS
  48:lvgl/src/extra/widgets/tileview/lv_tileview.c ****  **********************/
  49:lvgl/src/extra/widgets/tileview/lv_tileview.c **** 
  50:lvgl/src/extra/widgets/tileview/lv_tileview.c **** /**********************
  51:lvgl/src/extra/widgets/tileview/lv_tileview.c ****  *   GLOBAL FUNCTIONS
  52:lvgl/src/extra/widgets/tileview/lv_tileview.c ****  **********************/
  53:lvgl/src/extra/widgets/tileview/lv_tileview.c **** 
  54:lvgl/src/extra/widgets/tileview/lv_tileview.c **** lv_obj_t * lv_tileview_create(lv_obj_t * parent)
  55:lvgl/src/extra/widgets/tileview/lv_tileview.c **** {
  56:lvgl/src/extra/widgets/tileview/lv_tileview.c ****     LV_LOG_INFO("begin");
  57:lvgl/src/extra/widgets/tileview/lv_tileview.c ****     lv_obj_t * obj = lv_obj_class_create_obj(&lv_tileview_class, parent);
  58:lvgl/src/extra/widgets/tileview/lv_tileview.c ****     lv_obj_class_init_obj(obj);
  59:lvgl/src/extra/widgets/tileview/lv_tileview.c ****     return obj;
  60:lvgl/src/extra/widgets/tileview/lv_tileview.c **** }
  61:lvgl/src/extra/widgets/tileview/lv_tileview.c **** 
  62:lvgl/src/extra/widgets/tileview/lv_tileview.c **** /*======================
  63:lvgl/src/extra/widgets/tileview/lv_tileview.c ****  * Add/remove functions
  64:lvgl/src/extra/widgets/tileview/lv_tileview.c ****  *=====================*/
  65:lvgl/src/extra/widgets/tileview/lv_tileview.c **** 
  66:lvgl/src/extra/widgets/tileview/lv_tileview.c **** lv_obj_t * lv_tileview_add_tile(lv_obj_t * tv, uint8_t col_id, uint8_t row_id, lv_dir_t dir)
  67:lvgl/src/extra/widgets/tileview/lv_tileview.c **** {
  68:lvgl/src/extra/widgets/tileview/lv_tileview.c ****     LV_LOG_INFO("begin");
  69:lvgl/src/extra/widgets/tileview/lv_tileview.c ****     create_dir = dir;
  70:lvgl/src/extra/widgets/tileview/lv_tileview.c ****     create_col_id = col_id;
  71:lvgl/src/extra/widgets/tileview/lv_tileview.c ****     create_row_id = row_id;
  72:lvgl/src/extra/widgets/tileview/lv_tileview.c **** 
  73:lvgl/src/extra/widgets/tileview/lv_tileview.c ****     lv_obj_t * obj = lv_obj_class_create_obj(&lv_tileview_tile_class, tv);
  74:lvgl/src/extra/widgets/tileview/lv_tileview.c ****     lv_obj_class_init_obj(obj);
  75:lvgl/src/extra/widgets/tileview/lv_tileview.c ****     return obj;
  76:lvgl/src/extra/widgets/tileview/lv_tileview.c **** }
  77:lvgl/src/extra/widgets/tileview/lv_tileview.c **** 
  78:lvgl/src/extra/widgets/tileview/lv_tileview.c **** void lv_obj_set_tile(lv_obj_t * obj, lv_obj_t * tile_obj, lv_anim_enable_t anim_en)
  79:lvgl/src/extra/widgets/tileview/lv_tileview.c **** {
  80:lvgl/src/extra/widgets/tileview/lv_tileview.c ****     lv_coord_t tx = lv_obj_get_x(tile_obj);
  81:lvgl/src/extra/widgets/tileview/lv_tileview.c ****     lv_coord_t ty = lv_obj_get_y(tile_obj);
  82:lvgl/src/extra/widgets/tileview/lv_tileview.c **** 
  83:lvgl/src/extra/widgets/tileview/lv_tileview.c ****     lv_tileview_tile_t * tile = (lv_tileview_tile_t *)tile_obj;
  84:lvgl/src/extra/widgets/tileview/lv_tileview.c ****     lv_tileview_t * tv = (lv_tileview_t *) obj;
  85:lvgl/src/extra/widgets/tileview/lv_tileview.c ****     tv->tile_act = (lv_obj_t *)tile;
  86:lvgl/src/extra/widgets/tileview/lv_tileview.c **** 
  87:lvgl/src/extra/widgets/tileview/lv_tileview.c ****     lv_obj_set_scroll_dir(obj, tile->dir);
  88:lvgl/src/extra/widgets/tileview/lv_tileview.c ****     lv_obj_scroll_to(obj, tx, ty, anim_en);
ARM GAS  C:\Users\OSD\AppData\Local\Temp\cczRoDjq.s 			page 3


  89:lvgl/src/extra/widgets/tileview/lv_tileview.c **** }
  90:lvgl/src/extra/widgets/tileview/lv_tileview.c **** 
  91:lvgl/src/extra/widgets/tileview/lv_tileview.c **** void lv_obj_set_tile_id(lv_obj_t * tv, uint32_t col_id, uint32_t row_id, lv_anim_enable_t anim_en)
  92:lvgl/src/extra/widgets/tileview/lv_tileview.c **** {
  93:lvgl/src/extra/widgets/tileview/lv_tileview.c ****     lv_obj_update_layout(tv);
  94:lvgl/src/extra/widgets/tileview/lv_tileview.c **** 
  95:lvgl/src/extra/widgets/tileview/lv_tileview.c ****     lv_coord_t w = lv_obj_get_content_width(tv);
  96:lvgl/src/extra/widgets/tileview/lv_tileview.c ****     lv_coord_t h = lv_obj_get_content_height(tv);
  97:lvgl/src/extra/widgets/tileview/lv_tileview.c **** 
  98:lvgl/src/extra/widgets/tileview/lv_tileview.c ****     lv_coord_t tx = col_id * w;
  99:lvgl/src/extra/widgets/tileview/lv_tileview.c ****     lv_coord_t ty = row_id * h;
 100:lvgl/src/extra/widgets/tileview/lv_tileview.c **** 
 101:lvgl/src/extra/widgets/tileview/lv_tileview.c ****     uint32_t i;
 102:lvgl/src/extra/widgets/tileview/lv_tileview.c ****     for(i = 0; i < lv_obj_get_child_cnt(tv); i++) {
 103:lvgl/src/extra/widgets/tileview/lv_tileview.c ****         lv_obj_t * tile_obj = lv_obj_get_child(tv, i);
 104:lvgl/src/extra/widgets/tileview/lv_tileview.c ****         lv_coord_t x = lv_obj_get_x(tile_obj);
 105:lvgl/src/extra/widgets/tileview/lv_tileview.c ****         lv_coord_t y = lv_obj_get_y(tile_obj);
 106:lvgl/src/extra/widgets/tileview/lv_tileview.c ****         if(x == tx && y == ty) {
 107:lvgl/src/extra/widgets/tileview/lv_tileview.c ****             lv_obj_set_tile(tv, tile_obj, anim_en);
 108:lvgl/src/extra/widgets/tileview/lv_tileview.c ****             return;
 109:lvgl/src/extra/widgets/tileview/lv_tileview.c ****         }
 110:lvgl/src/extra/widgets/tileview/lv_tileview.c ****     }
 111:lvgl/src/extra/widgets/tileview/lv_tileview.c **** 
 112:lvgl/src/extra/widgets/tileview/lv_tileview.c ****     LV_LOG_WARN("No tile found with at (%d,%d) index", (int)col_id, (int)row_id);
 113:lvgl/src/extra/widgets/tileview/lv_tileview.c **** }
 114:lvgl/src/extra/widgets/tileview/lv_tileview.c **** 
 115:lvgl/src/extra/widgets/tileview/lv_tileview.c **** lv_obj_t * lv_tileview_get_tile_act(lv_obj_t * obj)
 116:lvgl/src/extra/widgets/tileview/lv_tileview.c **** {
 117:lvgl/src/extra/widgets/tileview/lv_tileview.c ****     lv_tileview_t * tv = (lv_tileview_t *) obj;
 118:lvgl/src/extra/widgets/tileview/lv_tileview.c ****     return tv->tile_act;
 119:lvgl/src/extra/widgets/tileview/lv_tileview.c **** }
 120:lvgl/src/extra/widgets/tileview/lv_tileview.c **** 
 121:lvgl/src/extra/widgets/tileview/lv_tileview.c **** /**********************
 122:lvgl/src/extra/widgets/tileview/lv_tileview.c ****  *   STATIC FUNCTIONS
 123:lvgl/src/extra/widgets/tileview/lv_tileview.c ****  **********************/
 124:lvgl/src/extra/widgets/tileview/lv_tileview.c **** 
 125:lvgl/src/extra/widgets/tileview/lv_tileview.c **** static void lv_tileview_constructor(const lv_obj_class_t * class_p, lv_obj_t * obj)
 126:lvgl/src/extra/widgets/tileview/lv_tileview.c **** {
  28              		.loc 1 126 1 view -0
  29              		.cfi_startproc
  30              		@ args = 0, pretend = 0, frame = 0
  31              		@ frame_needed = 0, uses_anonymous_args = 0
  32              		.loc 1 126 1 is_stmt 0 view .LVU1
  33 0000 10B5     		push	{r4, lr}
  34              		.cfi_def_cfa_offset 8
  35              		.cfi_offset 4, -8
  36              		.cfi_offset 14, -4
  37 0002 0C46     		mov	r4, r1
 127:lvgl/src/extra/widgets/tileview/lv_tileview.c ****     LV_UNUSED(class_p);
  38              		.loc 1 127 5 is_stmt 1 view .LVU2
 128:lvgl/src/extra/widgets/tileview/lv_tileview.c ****     lv_obj_set_size(obj, LV_PCT(100), LV_PCT(100));
  39              		.loc 1 128 5 view .LVU3
  40 0004 42F26402 		movw	r2, #8292
  41 0008 1146     		mov	r1, r2
  42              	.LVL1:
  43              		.loc 1 128 5 is_stmt 0 view .LVU4
  44 000a 2046     		mov	r0, r4
ARM GAS  C:\Users\OSD\AppData\Local\Temp\cczRoDjq.s 			page 4


  45              	.LVL2:
  46              		.loc 1 128 5 view .LVU5
  47 000c FFF7FEFF 		bl	lv_obj_set_size
  48              	.LVL3:
 129:lvgl/src/extra/widgets/tileview/lv_tileview.c ****     lv_obj_add_event_cb(obj, tileview_event_cb, LV_EVENT_ALL, NULL);
  49              		.loc 1 129 5 is_stmt 1 view .LVU6
  50 0010 0023     		movs	r3, #0
  51 0012 1A46     		mov	r2, r3
  52 0014 0849     		ldr	r1, .L3
  53 0016 2046     		mov	r0, r4
  54 0018 FFF7FEFF 		bl	lv_obj_add_event_cb
  55              	.LVL4:
 130:lvgl/src/extra/widgets/tileview/lv_tileview.c ****     lv_obj_add_flag(obj, LV_OBJ_FLAG_SCROLL_ONE);
  56              		.loc 1 130 5 view .LVU7
  57 001c 8021     		movs	r1, #128
  58 001e 2046     		mov	r0, r4
  59 0020 FFF7FEFF 		bl	lv_obj_add_flag
  60              	.LVL5:
 131:lvgl/src/extra/widgets/tileview/lv_tileview.c ****     lv_obj_set_scroll_snap_x(obj, LV_SCROLL_SNAP_CENTER);
  61              		.loc 1 131 5 view .LVU8
  62 0024 0321     		movs	r1, #3
  63 0026 2046     		mov	r0, r4
  64 0028 FFF7FEFF 		bl	lv_obj_set_scroll_snap_x
  65              	.LVL6:
 132:lvgl/src/extra/widgets/tileview/lv_tileview.c ****     lv_obj_set_scroll_snap_y(obj, LV_SCROLL_SNAP_CENTER);
  66              		.loc 1 132 5 view .LVU9
  67 002c 0321     		movs	r1, #3
  68 002e 2046     		mov	r0, r4
  69 0030 FFF7FEFF 		bl	lv_obj_set_scroll_snap_y
  70              	.LVL7:
 133:lvgl/src/extra/widgets/tileview/lv_tileview.c **** 
 134:lvgl/src/extra/widgets/tileview/lv_tileview.c **** }
  71              		.loc 1 134 1 is_stmt 0 view .LVU10
  72 0034 10BD     		pop	{r4, pc}
  73              	.LVL8:
  74              	.L4:
  75              		.loc 1 134 1 view .LVU11
  76 0036 00BF     		.align	2
  77              	.L3:
  78 0038 00000000 		.word	tileview_event_cb
  79              		.cfi_endproc
  80              	.LFE166:
  82              		.section	.text.tileview_event_cb,"ax",%progbits
  83              		.align	1
  84              		.syntax unified
  85              		.thumb
  86              		.thumb_func
  88              	tileview_event_cb:
  89              	.LVL9:
  90              	.LFB168:
 135:lvgl/src/extra/widgets/tileview/lv_tileview.c **** 
 136:lvgl/src/extra/widgets/tileview/lv_tileview.c **** static void lv_tileview_tile_constructor(const lv_obj_class_t * class_p, lv_obj_t * obj)
 137:lvgl/src/extra/widgets/tileview/lv_tileview.c **** {
 138:lvgl/src/extra/widgets/tileview/lv_tileview.c **** 
 139:lvgl/src/extra/widgets/tileview/lv_tileview.c ****     LV_UNUSED(class_p);
 140:lvgl/src/extra/widgets/tileview/lv_tileview.c ****     lv_obj_t * parent = lv_obj_get_parent(obj);
 141:lvgl/src/extra/widgets/tileview/lv_tileview.c ****     lv_obj_set_size(obj, LV_PCT(100), LV_PCT(100));
ARM GAS  C:\Users\OSD\AppData\Local\Temp\cczRoDjq.s 			page 5


 142:lvgl/src/extra/widgets/tileview/lv_tileview.c ****     lv_obj_update_layout(obj);  /*Be sure the size is correct*/
 143:lvgl/src/extra/widgets/tileview/lv_tileview.c ****     lv_obj_set_pos(obj, create_col_id * lv_obj_get_content_width(parent),
 144:lvgl/src/extra/widgets/tileview/lv_tileview.c ****                    create_row_id * lv_obj_get_content_height(parent));
 145:lvgl/src/extra/widgets/tileview/lv_tileview.c **** 
 146:lvgl/src/extra/widgets/tileview/lv_tileview.c ****     lv_tileview_tile_t * tile = (lv_tileview_tile_t *)obj;
 147:lvgl/src/extra/widgets/tileview/lv_tileview.c ****     tile->dir = create_dir;
 148:lvgl/src/extra/widgets/tileview/lv_tileview.c **** 
 149:lvgl/src/extra/widgets/tileview/lv_tileview.c ****     if(create_col_id == 0 && create_row_id == 0) {
 150:lvgl/src/extra/widgets/tileview/lv_tileview.c ****         lv_obj_set_scroll_dir(parent, create_dir);
 151:lvgl/src/extra/widgets/tileview/lv_tileview.c ****     }
 152:lvgl/src/extra/widgets/tileview/lv_tileview.c **** }
 153:lvgl/src/extra/widgets/tileview/lv_tileview.c **** 
 154:lvgl/src/extra/widgets/tileview/lv_tileview.c **** static void tileview_event_cb(lv_event_t * e)
 155:lvgl/src/extra/widgets/tileview/lv_tileview.c **** {
  91              		.loc 1 155 1 is_stmt 1 view -0
  92              		.cfi_startproc
  93              		@ args = 0, pretend = 0, frame = 8
  94              		@ frame_needed = 0, uses_anonymous_args = 0
  95              		.loc 1 155 1 is_stmt 0 view .LVU13
  96 0000 2DE9F043 		push	{r4, r5, r6, r7, r8, r9, lr}
  97              		.cfi_def_cfa_offset 28
  98              		.cfi_offset 4, -28
  99              		.cfi_offset 5, -24
 100              		.cfi_offset 6, -20
 101              		.cfi_offset 7, -16
 102              		.cfi_offset 8, -12
 103              		.cfi_offset 9, -8
 104              		.cfi_offset 14, -4
 105 0004 83B0     		sub	sp, sp, #12
 106              		.cfi_def_cfa_offset 40
 107 0006 0446     		mov	r4, r0
 156:lvgl/src/extra/widgets/tileview/lv_tileview.c ****     lv_event_code_t code = lv_event_get_code(e);
 108              		.loc 1 156 5 is_stmt 1 view .LVU14
 109              		.loc 1 156 28 is_stmt 0 view .LVU15
 110 0008 FFF7FEFF 		bl	lv_event_get_code
 111              	.LVL10:
 112              		.loc 1 156 28 view .LVU16
 113 000c 0546     		mov	r5, r0
 114              	.LVL11:
 157:lvgl/src/extra/widgets/tileview/lv_tileview.c ****     lv_obj_t * obj = lv_event_get_target(e);
 115              		.loc 1 157 5 is_stmt 1 view .LVU17
 116              		.loc 1 157 22 is_stmt 0 view .LVU18
 117 000e 2046     		mov	r0, r4
 118 0010 FFF7FEFF 		bl	lv_event_get_target
 119              	.LVL12:
 158:lvgl/src/extra/widgets/tileview/lv_tileview.c ****     lv_tileview_t * tv = (lv_tileview_t *) obj;
 120              		.loc 1 158 5 is_stmt 1 view .LVU19
 159:lvgl/src/extra/widgets/tileview/lv_tileview.c **** 
 160:lvgl/src/extra/widgets/tileview/lv_tileview.c ****     if(code == LV_EVENT_SCROLL_END) {
 121              		.loc 1 160 5 view .LVU20
 122              		.loc 1 160 7 is_stmt 0 view .LVU21
 123 0014 0A2D     		cmp	r5, #10
 124 0016 02D0     		beq	.L15
 125              	.LVL13:
 126              	.L5:
 161:lvgl/src/extra/widgets/tileview/lv_tileview.c ****         lv_indev_t * indev = lv_indev_get_act();
 162:lvgl/src/extra/widgets/tileview/lv_tileview.c ****         if(indev && indev->proc.state == LV_INDEV_STATE_PRESSED) {
ARM GAS  C:\Users\OSD\AppData\Local\Temp\cczRoDjq.s 			page 6


 163:lvgl/src/extra/widgets/tileview/lv_tileview.c ****             return;
 164:lvgl/src/extra/widgets/tileview/lv_tileview.c ****         }
 165:lvgl/src/extra/widgets/tileview/lv_tileview.c **** 
 166:lvgl/src/extra/widgets/tileview/lv_tileview.c ****         lv_coord_t w = lv_obj_get_content_width(obj);
 167:lvgl/src/extra/widgets/tileview/lv_tileview.c ****         lv_coord_t h = lv_obj_get_content_height(obj);
 168:lvgl/src/extra/widgets/tileview/lv_tileview.c **** 
 169:lvgl/src/extra/widgets/tileview/lv_tileview.c ****         lv_point_t scroll_end;
 170:lvgl/src/extra/widgets/tileview/lv_tileview.c ****         lv_obj_get_scroll_end(obj, &scroll_end);
 171:lvgl/src/extra/widgets/tileview/lv_tileview.c ****         lv_coord_t left = scroll_end.x;
 172:lvgl/src/extra/widgets/tileview/lv_tileview.c ****         lv_coord_t top = scroll_end.y;
 173:lvgl/src/extra/widgets/tileview/lv_tileview.c **** 
 174:lvgl/src/extra/widgets/tileview/lv_tileview.c ****         lv_coord_t tx = ((left + (w / 2)) / w) * w;
 175:lvgl/src/extra/widgets/tileview/lv_tileview.c ****         lv_coord_t ty = ((top + (h / 2)) / h) * h;
 176:lvgl/src/extra/widgets/tileview/lv_tileview.c **** 
 177:lvgl/src/extra/widgets/tileview/lv_tileview.c ****         lv_dir_t dir = LV_DIR_ALL;
 178:lvgl/src/extra/widgets/tileview/lv_tileview.c ****         uint32_t i;
 179:lvgl/src/extra/widgets/tileview/lv_tileview.c ****         for(i = 0; i < lv_obj_get_child_cnt(obj); i++) {
 180:lvgl/src/extra/widgets/tileview/lv_tileview.c ****             lv_obj_t * tile_obj = lv_obj_get_child(obj, i);
 181:lvgl/src/extra/widgets/tileview/lv_tileview.c ****             lv_coord_t x = lv_obj_get_x(tile_obj);
 182:lvgl/src/extra/widgets/tileview/lv_tileview.c ****             lv_coord_t y = lv_obj_get_y(tile_obj);
 183:lvgl/src/extra/widgets/tileview/lv_tileview.c ****             if(x == tx && y == ty) {
 184:lvgl/src/extra/widgets/tileview/lv_tileview.c ****                 lv_tileview_tile_t * tile = (lv_tileview_tile_t *)tile_obj;
 185:lvgl/src/extra/widgets/tileview/lv_tileview.c ****                 tv->tile_act = (lv_obj_t *)tile;
 186:lvgl/src/extra/widgets/tileview/lv_tileview.c ****                 dir = tile->dir;
 187:lvgl/src/extra/widgets/tileview/lv_tileview.c ****                 lv_event_send(obj, LV_EVENT_VALUE_CHANGED, NULL);
 188:lvgl/src/extra/widgets/tileview/lv_tileview.c ****                 break;
 189:lvgl/src/extra/widgets/tileview/lv_tileview.c ****             }
 190:lvgl/src/extra/widgets/tileview/lv_tileview.c ****         }
 191:lvgl/src/extra/widgets/tileview/lv_tileview.c ****         lv_obj_set_scroll_dir(obj, dir);
 192:lvgl/src/extra/widgets/tileview/lv_tileview.c ****     }
 193:lvgl/src/extra/widgets/tileview/lv_tileview.c **** }
 127              		.loc 1 193 1 view .LVU22
 128 0018 03B0     		add	sp, sp, #12
 129              		.cfi_remember_state
 130              		.cfi_def_cfa_offset 28
 131              		@ sp needed
 132 001a BDE8F083 		pop	{r4, r5, r6, r7, r8, r9, pc}
 133              	.LVL14:
 134              	.L15:
 135              		.cfi_restore_state
 136              		.loc 1 193 1 view .LVU23
 137 001e 0446     		mov	r4, r0
 138              	.LVL15:
 139              	.LBB2:
 161:lvgl/src/extra/widgets/tileview/lv_tileview.c ****         lv_indev_t * indev = lv_indev_get_act();
 140              		.loc 1 161 9 is_stmt 1 view .LVU24
 161:lvgl/src/extra/widgets/tileview/lv_tileview.c ****         lv_indev_t * indev = lv_indev_get_act();
 141              		.loc 1 161 30 is_stmt 0 view .LVU25
 142 0020 FFF7FEFF 		bl	lv_indev_get_act
 143              	.LVL16:
 162:lvgl/src/extra/widgets/tileview/lv_tileview.c ****             return;
 144              		.loc 1 162 9 is_stmt 1 view .LVU26
 162:lvgl/src/extra/widgets/tileview/lv_tileview.c ****             return;
 145              		.loc 1 162 11 is_stmt 0 view .LVU27
 146 0024 10B1     		cbz	r0, .L7
 162:lvgl/src/extra/widgets/tileview/lv_tileview.c ****             return;
 147              		.loc 1 162 32 discriminator 1 view .LVU28
ARM GAS  C:\Users\OSD\AppData\Local\Temp\cczRoDjq.s 			page 7


 148 0026 0379     		ldrb	r3, [r0, #4]	@ zero_extendqisi2
 162:lvgl/src/extra/widgets/tileview/lv_tileview.c ****             return;
 149              		.loc 1 162 18 discriminator 1 view .LVU29
 150 0028 012B     		cmp	r3, #1
 151 002a F5D0     		beq	.L5
 152              	.L7:
 166:lvgl/src/extra/widgets/tileview/lv_tileview.c ****         lv_coord_t h = lv_obj_get_content_height(obj);
 153              		.loc 1 166 9 is_stmt 1 view .LVU30
 166:lvgl/src/extra/widgets/tileview/lv_tileview.c ****         lv_coord_t h = lv_obj_get_content_height(obj);
 154              		.loc 1 166 24 is_stmt 0 view .LVU31
 155 002c 2046     		mov	r0, r4
 156              	.LVL17:
 166:lvgl/src/extra/widgets/tileview/lv_tileview.c ****         lv_coord_t h = lv_obj_get_content_height(obj);
 157              		.loc 1 166 24 view .LVU32
 158 002e FFF7FEFF 		bl	lv_obj_get_content_width
 159              	.LVL18:
 160 0032 0646     		mov	r6, r0
 161              	.LVL19:
 167:lvgl/src/extra/widgets/tileview/lv_tileview.c **** 
 162              		.loc 1 167 9 is_stmt 1 view .LVU33
 167:lvgl/src/extra/widgets/tileview/lv_tileview.c **** 
 163              		.loc 1 167 24 is_stmt 0 view .LVU34
 164 0034 2046     		mov	r0, r4
 165 0036 FFF7FEFF 		bl	lv_obj_get_content_height
 166              	.LVL20:
 167 003a 0546     		mov	r5, r0
 168              	.LVL21:
 169:lvgl/src/extra/widgets/tileview/lv_tileview.c ****         lv_obj_get_scroll_end(obj, &scroll_end);
 169              		.loc 1 169 9 is_stmt 1 view .LVU35
 170:lvgl/src/extra/widgets/tileview/lv_tileview.c ****         lv_coord_t left = scroll_end.x;
 170              		.loc 1 170 9 view .LVU36
 171 003c 01A9     		add	r1, sp, #4
 172 003e 2046     		mov	r0, r4
 173 0040 FFF7FEFF 		bl	lv_obj_get_scroll_end
 174              	.LVL22:
 171:lvgl/src/extra/widgets/tileview/lv_tileview.c ****         lv_coord_t top = scroll_end.y;
 175              		.loc 1 171 9 view .LVU37
 171:lvgl/src/extra/widgets/tileview/lv_tileview.c ****         lv_coord_t top = scroll_end.y;
 176              		.loc 1 171 20 is_stmt 0 view .LVU38
 177 0044 BDF90490 		ldrsh	r9, [sp, #4]
 178              	.LVL23:
 172:lvgl/src/extra/widgets/tileview/lv_tileview.c **** 
 179              		.loc 1 172 9 is_stmt 1 view .LVU39
 172:lvgl/src/extra/widgets/tileview/lv_tileview.c **** 
 180              		.loc 1 172 20 is_stmt 0 view .LVU40
 181 0048 BDF90680 		ldrsh	r8, [sp, #6]
 182              	.LVL24:
 174:lvgl/src/extra/widgets/tileview/lv_tileview.c ****         lv_coord_t ty = ((top + (h / 2)) / h) * h;
 183              		.loc 1 174 9 is_stmt 1 view .LVU41
 174:lvgl/src/extra/widgets/tileview/lv_tileview.c ****         lv_coord_t ty = ((top + (h / 2)) / h) * h;
 184              		.loc 1 174 37 is_stmt 0 view .LVU42
 185 004c 3346     		mov	r3, r6
 186 004e 002E     		cmp	r6, #0
 187 0050 2BDB     		blt	.L16
 188              	.L8:
 189 0052 43F34F03 		sbfx	r3, r3, #1, #16
 174:lvgl/src/extra/widgets/tileview/lv_tileview.c ****         lv_coord_t ty = ((top + (h / 2)) / h) * h;
ARM GAS  C:\Users\OSD\AppData\Local\Temp\cczRoDjq.s 			page 8


 190              		.loc 1 174 32 view .LVU43
 191 0056 9944     		add	r9, r9, r3
 192              	.LVL25:
 174:lvgl/src/extra/widgets/tileview/lv_tileview.c ****         lv_coord_t ty = ((top + (h / 2)) / h) * h;
 193              		.loc 1 174 43 view .LVU44
 194 0058 99FBF6F9 		sdiv	r9, r9, r6
 174:lvgl/src/extra/widgets/tileview/lv_tileview.c ****         lv_coord_t ty = ((top + (h / 2)) / h) * h;
 195              		.loc 1 174 20 view .LVU45
 196 005c 19FB06F9 		smulbb	r9, r9, r6
 197 0060 0FFA89F9 		sxth	r9, r9
 198              	.LVL26:
 175:lvgl/src/extra/widgets/tileview/lv_tileview.c **** 
 199              		.loc 1 175 9 is_stmt 1 view .LVU46
 175:lvgl/src/extra/widgets/tileview/lv_tileview.c **** 
 200              		.loc 1 175 36 is_stmt 0 view .LVU47
 201 0064 2B46     		mov	r3, r5
 202 0066 002D     		cmp	r5, #0
 203 0068 21DB     		blt	.L17
 204              	.L9:
 205 006a 43F34F03 		sbfx	r3, r3, #1, #16
 175:lvgl/src/extra/widgets/tileview/lv_tileview.c **** 
 206              		.loc 1 175 31 view .LVU48
 207 006e 9844     		add	r8, r8, r3
 208              	.LVL27:
 175:lvgl/src/extra/widgets/tileview/lv_tileview.c **** 
 209              		.loc 1 175 42 view .LVU49
 210 0070 98FBF5F8 		sdiv	r8, r8, r5
 175:lvgl/src/extra/widgets/tileview/lv_tileview.c **** 
 211              		.loc 1 175 20 view .LVU50
 212 0074 18FB05F8 		smulbb	r8, r8, r5
 213 0078 0FFA88F8 		sxth	r8, r8
 214              	.LVL28:
 177:lvgl/src/extra/widgets/tileview/lv_tileview.c ****         uint32_t i;
 215              		.loc 1 177 9 is_stmt 1 view .LVU51
 178:lvgl/src/extra/widgets/tileview/lv_tileview.c ****         for(i = 0; i < lv_obj_get_child_cnt(obj); i++) {
 216              		.loc 1 178 9 view .LVU52
 179:lvgl/src/extra/widgets/tileview/lv_tileview.c ****             lv_obj_t * tile_obj = lv_obj_get_child(obj, i);
 217              		.loc 1 179 9 view .LVU53
 179:lvgl/src/extra/widgets/tileview/lv_tileview.c ****             lv_obj_t * tile_obj = lv_obj_get_child(obj, i);
 218              		.loc 1 179 15 is_stmt 0 view .LVU54
 219 007c 0026     		movs	r6, #0
 220              	.LVL29:
 221              	.L10:
 179:lvgl/src/extra/widgets/tileview/lv_tileview.c ****             lv_obj_t * tile_obj = lv_obj_get_child(obj, i);
 222              		.loc 1 179 20 is_stmt 1 discriminator 1 view .LVU55
 179:lvgl/src/extra/widgets/tileview/lv_tileview.c ****             lv_obj_t * tile_obj = lv_obj_get_child(obj, i);
 223              		.loc 1 179 24 is_stmt 0 discriminator 1 view .LVU56
 224 007e 2046     		mov	r0, r4
 225 0080 FFF7FEFF 		bl	lv_obj_get_child_cnt
 226              	.LVL30:
 179:lvgl/src/extra/widgets/tileview/lv_tileview.c ****             lv_obj_t * tile_obj = lv_obj_get_child(obj, i);
 227              		.loc 1 179 9 discriminator 1 view .LVU57
 228 0084 B042     		cmp	r0, r6
 229 0086 1DD9     		bls	.L18
 230              	.LBB3:
 180:lvgl/src/extra/widgets/tileview/lv_tileview.c ****             lv_coord_t x = lv_obj_get_x(tile_obj);
 231              		.loc 1 180 13 is_stmt 1 view .LVU58
ARM GAS  C:\Users\OSD\AppData\Local\Temp\cczRoDjq.s 			page 9


 180:lvgl/src/extra/widgets/tileview/lv_tileview.c ****             lv_coord_t x = lv_obj_get_x(tile_obj);
 232              		.loc 1 180 35 is_stmt 0 view .LVU59
 233 0088 3146     		mov	r1, r6
 234 008a 2046     		mov	r0, r4
 235 008c FFF7FEFF 		bl	lv_obj_get_child
 236              	.LVL31:
 237 0090 0546     		mov	r5, r0
 238              	.LVL32:
 181:lvgl/src/extra/widgets/tileview/lv_tileview.c ****             lv_coord_t y = lv_obj_get_y(tile_obj);
 239              		.loc 1 181 13 is_stmt 1 view .LVU60
 181:lvgl/src/extra/widgets/tileview/lv_tileview.c ****             lv_coord_t y = lv_obj_get_y(tile_obj);
 240              		.loc 1 181 28 is_stmt 0 view .LVU61
 241 0092 FFF7FEFF 		bl	lv_obj_get_x
 242              	.LVL33:
 181:lvgl/src/extra/widgets/tileview/lv_tileview.c ****             lv_coord_t y = lv_obj_get_y(tile_obj);
 243              		.loc 1 181 28 view .LVU62
 244 0096 0746     		mov	r7, r0
 245              	.LVL34:
 182:lvgl/src/extra/widgets/tileview/lv_tileview.c ****             if(x == tx && y == ty) {
 246              		.loc 1 182 13 is_stmt 1 view .LVU63
 182:lvgl/src/extra/widgets/tileview/lv_tileview.c ****             if(x == tx && y == ty) {
 247              		.loc 1 182 28 is_stmt 0 view .LVU64
 248 0098 2846     		mov	r0, r5
 249 009a FFF7FEFF 		bl	lv_obj_get_y
 250              	.LVL35:
 183:lvgl/src/extra/widgets/tileview/lv_tileview.c ****                 lv_tileview_tile_t * tile = (lv_tileview_tile_t *)tile_obj;
 251              		.loc 1 183 13 is_stmt 1 view .LVU65
 183:lvgl/src/extra/widgets/tileview/lv_tileview.c ****                 lv_tileview_tile_t * tile = (lv_tileview_tile_t *)tile_obj;
 252              		.loc 1 183 15 is_stmt 0 view .LVU66
 253 009e B945     		cmp	r9, r7
 254 00a0 08BF     		it	eq
 255 00a2 8045     		cmpeq	r8, r0
 256 00a4 05D0     		beq	.L19
 257              	.LBE3:
 179:lvgl/src/extra/widgets/tileview/lv_tileview.c ****             lv_obj_t * tile_obj = lv_obj_get_child(obj, i);
 258              		.loc 1 179 51 is_stmt 1 discriminator 2 view .LVU67
 179:lvgl/src/extra/widgets/tileview/lv_tileview.c ****             lv_obj_t * tile_obj = lv_obj_get_child(obj, i);
 259              		.loc 1 179 52 is_stmt 0 discriminator 2 view .LVU68
 260 00a6 0136     		adds	r6, r6, #1
 261              	.LVL36:
 179:lvgl/src/extra/widgets/tileview/lv_tileview.c ****             lv_obj_t * tile_obj = lv_obj_get_child(obj, i);
 262              		.loc 1 179 52 discriminator 2 view .LVU69
 263 00a8 E9E7     		b	.L10
 264              	.LVL37:
 265              	.L16:
 174:lvgl/src/extra/widgets/tileview/lv_tileview.c ****         lv_coord_t ty = ((top + (h / 2)) / h) * h;
 266              		.loc 1 174 37 view .LVU70
 267 00aa 731C     		adds	r3, r6, #1
 268 00ac D1E7     		b	.L8
 269              	.LVL38:
 270              	.L17:
 175:lvgl/src/extra/widgets/tileview/lv_tileview.c **** 
 271              		.loc 1 175 36 view .LVU71
 272 00ae 6B1C     		adds	r3, r5, #1
 273 00b0 DBE7     		b	.L9
 274              	.LVL39:
 275              	.L19:
ARM GAS  C:\Users\OSD\AppData\Local\Temp\cczRoDjq.s 			page 10


 276              	.LBB5:
 277              	.LBB4:
 184:lvgl/src/extra/widgets/tileview/lv_tileview.c ****                 tv->tile_act = (lv_obj_t *)tile;
 278              		.loc 1 184 17 is_stmt 1 view .LVU72
 185:lvgl/src/extra/widgets/tileview/lv_tileview.c ****                 dir = tile->dir;
 279              		.loc 1 185 17 view .LVU73
 185:lvgl/src/extra/widgets/tileview/lv_tileview.c ****                 dir = tile->dir;
 280              		.loc 1 185 30 is_stmt 0 view .LVU74
 281 00b2 6562     		str	r5, [r4, #36]
 186:lvgl/src/extra/widgets/tileview/lv_tileview.c ****                 lv_event_send(obj, LV_EVENT_VALUE_CHANGED, NULL);
 282              		.loc 1 186 17 is_stmt 1 view .LVU75
 186:lvgl/src/extra/widgets/tileview/lv_tileview.c ****                 lv_event_send(obj, LV_EVENT_VALUE_CHANGED, NULL);
 283              		.loc 1 186 21 is_stmt 0 view .LVU76
 284 00b4 95F82450 		ldrb	r5, [r5, #36]	@ zero_extendqisi2
 285              	.LVL40:
 187:lvgl/src/extra/widgets/tileview/lv_tileview.c ****                 break;
 286              		.loc 1 187 17 is_stmt 1 view .LVU77
 287 00b8 0022     		movs	r2, #0
 288 00ba 1C21     		movs	r1, #28
 289 00bc 2046     		mov	r0, r4
 290              	.LVL41:
 187:lvgl/src/extra/widgets/tileview/lv_tileview.c ****                 break;
 291              		.loc 1 187 17 is_stmt 0 view .LVU78
 292 00be FFF7FEFF 		bl	lv_event_send
 293              	.LVL42:
 188:lvgl/src/extra/widgets/tileview/lv_tileview.c ****             }
 294              		.loc 1 188 17 is_stmt 1 view .LVU79
 295 00c2 00E0     		b	.L12
 296              	.LVL43:
 297              	.L18:
 188:lvgl/src/extra/widgets/tileview/lv_tileview.c ****             }
 298              		.loc 1 188 17 is_stmt 0 view .LVU80
 299              	.LBE4:
 300              	.LBE5:
 177:lvgl/src/extra/widgets/tileview/lv_tileview.c ****         uint32_t i;
 301              		.loc 1 177 18 view .LVU81
 302 00c4 0F25     		movs	r5, #15
 303              	.LVL44:
 304              	.L12:
 191:lvgl/src/extra/widgets/tileview/lv_tileview.c ****     }
 305              		.loc 1 191 9 is_stmt 1 view .LVU82
 306 00c6 2946     		mov	r1, r5
 307 00c8 2046     		mov	r0, r4
 308 00ca FFF7FEFF 		bl	lv_obj_set_scroll_dir
 309              	.LVL45:
 310 00ce A3E7     		b	.L5
 311              	.LBE2:
 312              		.cfi_endproc
 313              	.LFE168:
 315              		.section	.text.lv_tileview_tile_constructor,"ax",%progbits
 316              		.align	1
 317              		.syntax unified
 318              		.thumb
 319              		.thumb_func
 321              	lv_tileview_tile_constructor:
 322              	.LVL46:
 323              	.LFB167:
ARM GAS  C:\Users\OSD\AppData\Local\Temp\cczRoDjq.s 			page 11


 137:lvgl/src/extra/widgets/tileview/lv_tileview.c **** 
 324              		.loc 1 137 1 view -0
 325              		.cfi_startproc
 326              		@ args = 0, pretend = 0, frame = 0
 327              		@ frame_needed = 0, uses_anonymous_args = 0
 137:lvgl/src/extra/widgets/tileview/lv_tileview.c **** 
 328              		.loc 1 137 1 is_stmt 0 view .LVU84
 329 0000 F8B5     		push	{r3, r4, r5, r6, r7, lr}
 330              		.cfi_def_cfa_offset 24
 331              		.cfi_offset 3, -24
 332              		.cfi_offset 4, -20
 333              		.cfi_offset 5, -16
 334              		.cfi_offset 6, -12
 335              		.cfi_offset 7, -8
 336              		.cfi_offset 14, -4
 337 0002 0C46     		mov	r4, r1
 139:lvgl/src/extra/widgets/tileview/lv_tileview.c ****     lv_obj_t * parent = lv_obj_get_parent(obj);
 338              		.loc 1 139 5 is_stmt 1 view .LVU85
 140:lvgl/src/extra/widgets/tileview/lv_tileview.c ****     lv_obj_set_size(obj, LV_PCT(100), LV_PCT(100));
 339              		.loc 1 140 5 view .LVU86
 140:lvgl/src/extra/widgets/tileview/lv_tileview.c ****     lv_obj_set_size(obj, LV_PCT(100), LV_PCT(100));
 340              		.loc 1 140 25 is_stmt 0 view .LVU87
 341 0004 0846     		mov	r0, r1
 342              	.LVL47:
 140:lvgl/src/extra/widgets/tileview/lv_tileview.c ****     lv_obj_set_size(obj, LV_PCT(100), LV_PCT(100));
 343              		.loc 1 140 25 view .LVU88
 344 0006 FFF7FEFF 		bl	lv_obj_get_parent
 345              	.LVL48:
 140:lvgl/src/extra/widgets/tileview/lv_tileview.c ****     lv_obj_set_size(obj, LV_PCT(100), LV_PCT(100));
 346              		.loc 1 140 25 view .LVU89
 347 000a 0646     		mov	r6, r0
 348              	.LVL49:
 141:lvgl/src/extra/widgets/tileview/lv_tileview.c ****     lv_obj_update_layout(obj);  /*Be sure the size is correct*/
 349              		.loc 1 141 5 is_stmt 1 view .LVU90
 350 000c 42F26402 		movw	r2, #8292
 351 0010 1146     		mov	r1, r2
 352 0012 2046     		mov	r0, r4
 353              	.LVL50:
 141:lvgl/src/extra/widgets/tileview/lv_tileview.c ****     lv_obj_update_layout(obj);  /*Be sure the size is correct*/
 354              		.loc 1 141 5 is_stmt 0 view .LVU91
 355 0014 FFF7FEFF 		bl	lv_obj_set_size
 356              	.LVL51:
 142:lvgl/src/extra/widgets/tileview/lv_tileview.c ****     lv_obj_set_pos(obj, create_col_id * lv_obj_get_content_width(parent),
 357              		.loc 1 142 5 is_stmt 1 view .LVU92
 358 0018 2046     		mov	r0, r4
 359 001a FFF7FEFF 		bl	lv_obj_update_layout
 360              	.LVL52:
 143:lvgl/src/extra/widgets/tileview/lv_tileview.c ****                    create_row_id * lv_obj_get_content_height(parent));
 361              		.loc 1 143 5 view .LVU93
 143:lvgl/src/extra/widgets/tileview/lv_tileview.c ****                    create_row_id * lv_obj_get_content_height(parent));
 362              		.loc 1 143 41 is_stmt 0 view .LVU94
 363 001e 3046     		mov	r0, r6
 364 0020 FFF7FEFF 		bl	lv_obj_get_content_width
 365              	.LVL53:
 143:lvgl/src/extra/widgets/tileview/lv_tileview.c ****                    create_row_id * lv_obj_get_content_height(parent));
 366              		.loc 1 143 5 view .LVU95
 367 0024 0F4F     		ldr	r7, .L24
ARM GAS  C:\Users\OSD\AppData\Local\Temp\cczRoDjq.s 			page 12


 368 0026 3D68     		ldr	r5, [r7]
 369 0028 15FB00F5 		smulbb	r5, r5, r0
 370 002c 2DB2     		sxth	r5, r5
 144:lvgl/src/extra/widgets/tileview/lv_tileview.c **** 
 371              		.loc 1 144 36 view .LVU96
 372 002e 3046     		mov	r0, r6
 373 0030 FFF7FEFF 		bl	lv_obj_get_content_height
 374              	.LVL54:
 143:lvgl/src/extra/widgets/tileview/lv_tileview.c ****                    create_row_id * lv_obj_get_content_height(parent));
 375              		.loc 1 143 5 view .LVU97
 376 0034 0C4B     		ldr	r3, .L24+4
 377 0036 1A68     		ldr	r2, [r3]
 378 0038 12FB00F2 		smulbb	r2, r2, r0
 379 003c 12B2     		sxth	r2, r2
 380 003e 2946     		mov	r1, r5
 381 0040 2046     		mov	r0, r4
 382 0042 FFF7FEFF 		bl	lv_obj_set_pos
 383              	.LVL55:
 146:lvgl/src/extra/widgets/tileview/lv_tileview.c ****     tile->dir = create_dir;
 384              		.loc 1 146 5 is_stmt 1 view .LVU98
 147:lvgl/src/extra/widgets/tileview/lv_tileview.c **** 
 385              		.loc 1 147 5 view .LVU99
 147:lvgl/src/extra/widgets/tileview/lv_tileview.c **** 
 386              		.loc 1 147 15 is_stmt 0 view .LVU100
 387 0046 094B     		ldr	r3, .L24+8
 388 0048 1978     		ldrb	r1, [r3]	@ zero_extendqisi2
 389 004a 84F82410 		strb	r1, [r4, #36]
 149:lvgl/src/extra/widgets/tileview/lv_tileview.c ****         lv_obj_set_scroll_dir(parent, create_dir);
 390              		.loc 1 149 5 is_stmt 1 view .LVU101
 149:lvgl/src/extra/widgets/tileview/lv_tileview.c ****         lv_obj_set_scroll_dir(parent, create_dir);
 391              		.loc 1 149 22 is_stmt 0 view .LVU102
 392 004e 3B68     		ldr	r3, [r7]
 149:lvgl/src/extra/widgets/tileview/lv_tileview.c ****         lv_obj_set_scroll_dir(parent, create_dir);
 393              		.loc 1 149 7 view .LVU103
 394 0050 13B9     		cbnz	r3, .L20
 149:lvgl/src/extra/widgets/tileview/lv_tileview.c ****         lv_obj_set_scroll_dir(parent, create_dir);
 395              		.loc 1 149 44 discriminator 1 view .LVU104
 396 0052 054B     		ldr	r3, .L24+4
 397 0054 1B68     		ldr	r3, [r3]
 149:lvgl/src/extra/widgets/tileview/lv_tileview.c ****         lv_obj_set_scroll_dir(parent, create_dir);
 398              		.loc 1 149 27 discriminator 1 view .LVU105
 399 0056 03B1     		cbz	r3, .L23
 400              	.L20:
 152:lvgl/src/extra/widgets/tileview/lv_tileview.c **** 
 401              		.loc 1 152 1 view .LVU106
 402 0058 F8BD     		pop	{r3, r4, r5, r6, r7, pc}
 403              	.LVL56:
 404              	.L23:
 150:lvgl/src/extra/widgets/tileview/lv_tileview.c ****     }
 405              		.loc 1 150 9 is_stmt 1 view .LVU107
 406 005a 3046     		mov	r0, r6
 407 005c FFF7FEFF 		bl	lv_obj_set_scroll_dir
 408              	.LVL57:
 152:lvgl/src/extra/widgets/tileview/lv_tileview.c **** 
 409              		.loc 1 152 1 is_stmt 0 view .LVU108
 410 0060 FAE7     		b	.L20
 411              	.L25:
ARM GAS  C:\Users\OSD\AppData\Local\Temp\cczRoDjq.s 			page 13


 412 0062 00BF     		.align	2
 413              	.L24:
 414 0064 00000000 		.word	.LANCHOR0
 415 0068 00000000 		.word	.LANCHOR1
 416 006c 00000000 		.word	.LANCHOR2
 417              		.cfi_endproc
 418              	.LFE167:
 420              		.section	.text.lv_tileview_create,"ax",%progbits
 421              		.align	1
 422              		.global	lv_tileview_create
 423              		.syntax unified
 424              		.thumb
 425              		.thumb_func
 427              	lv_tileview_create:
 428              	.LVL58:
 429              	.LFB161:
  55:lvgl/src/extra/widgets/tileview/lv_tileview.c ****     LV_LOG_INFO("begin");
 430              		.loc 1 55 1 is_stmt 1 view -0
 431              		.cfi_startproc
 432              		@ args = 0, pretend = 0, frame = 0
 433              		@ frame_needed = 0, uses_anonymous_args = 0
  55:lvgl/src/extra/widgets/tileview/lv_tileview.c ****     LV_LOG_INFO("begin");
 434              		.loc 1 55 1 is_stmt 0 view .LVU110
 435 0000 10B5     		push	{r4, lr}
 436              		.cfi_def_cfa_offset 8
 437              		.cfi_offset 4, -8
 438              		.cfi_offset 14, -4
 439 0002 0146     		mov	r1, r0
  56:lvgl/src/extra/widgets/tileview/lv_tileview.c ****     lv_obj_t * obj = lv_obj_class_create_obj(&lv_tileview_class, parent);
 440              		.loc 1 56 5 is_stmt 1 view .LVU111
  56:lvgl/src/extra/widgets/tileview/lv_tileview.c ****     lv_obj_t * obj = lv_obj_class_create_obj(&lv_tileview_class, parent);
 441              		.loc 1 56 5 view .LVU112
  56:lvgl/src/extra/widgets/tileview/lv_tileview.c ****     lv_obj_t * obj = lv_obj_class_create_obj(&lv_tileview_class, parent);
 442              		.loc 1 56 5 view .LVU113
  57:lvgl/src/extra/widgets/tileview/lv_tileview.c ****     lv_obj_class_init_obj(obj);
 443              		.loc 1 57 5 view .LVU114
  57:lvgl/src/extra/widgets/tileview/lv_tileview.c ****     lv_obj_class_init_obj(obj);
 444              		.loc 1 57 22 is_stmt 0 view .LVU115
 445 0004 0348     		ldr	r0, .L28
 446              	.LVL59:
  57:lvgl/src/extra/widgets/tileview/lv_tileview.c ****     lv_obj_class_init_obj(obj);
 447              		.loc 1 57 22 view .LVU116
 448 0006 FFF7FEFF 		bl	lv_obj_class_create_obj
 449              	.LVL60:
  57:lvgl/src/extra/widgets/tileview/lv_tileview.c ****     lv_obj_class_init_obj(obj);
 450              		.loc 1 57 22 view .LVU117
 451 000a 0446     		mov	r4, r0
 452              	.LVL61:
  58:lvgl/src/extra/widgets/tileview/lv_tileview.c ****     return obj;
 453              		.loc 1 58 5 is_stmt 1 view .LVU118
 454 000c FFF7FEFF 		bl	lv_obj_class_init_obj
 455              	.LVL62:
  59:lvgl/src/extra/widgets/tileview/lv_tileview.c **** }
 456              		.loc 1 59 5 view .LVU119
  60:lvgl/src/extra/widgets/tileview/lv_tileview.c **** 
 457              		.loc 1 60 1 is_stmt 0 view .LVU120
 458 0010 2046     		mov	r0, r4
ARM GAS  C:\Users\OSD\AppData\Local\Temp\cczRoDjq.s 			page 14


 459 0012 10BD     		pop	{r4, pc}
 460              	.LVL63:
 461              	.L29:
  60:lvgl/src/extra/widgets/tileview/lv_tileview.c **** 
 462              		.loc 1 60 1 view .LVU121
 463              		.align	2
 464              	.L28:
 465 0014 00000000 		.word	.LANCHOR3
 466              		.cfi_endproc
 467              	.LFE161:
 469              		.section	.text.lv_tileview_add_tile,"ax",%progbits
 470              		.align	1
 471              		.global	lv_tileview_add_tile
 472              		.syntax unified
 473              		.thumb
 474              		.thumb_func
 476              	lv_tileview_add_tile:
 477              	.LVL64:
 478              	.LFB162:
  67:lvgl/src/extra/widgets/tileview/lv_tileview.c ****     LV_LOG_INFO("begin");
 479              		.loc 1 67 1 is_stmt 1 view -0
 480              		.cfi_startproc
 481              		@ args = 0, pretend = 0, frame = 0
 482              		@ frame_needed = 0, uses_anonymous_args = 0
  67:lvgl/src/extra/widgets/tileview/lv_tileview.c ****     LV_LOG_INFO("begin");
 483              		.loc 1 67 1 is_stmt 0 view .LVU123
 484 0000 10B5     		push	{r4, lr}
 485              		.cfi_def_cfa_offset 8
 486              		.cfi_offset 4, -8
 487              		.cfi_offset 14, -4
  68:lvgl/src/extra/widgets/tileview/lv_tileview.c ****     create_dir = dir;
 488              		.loc 1 68 5 is_stmt 1 view .LVU124
  68:lvgl/src/extra/widgets/tileview/lv_tileview.c ****     create_dir = dir;
 489              		.loc 1 68 5 view .LVU125
  68:lvgl/src/extra/widgets/tileview/lv_tileview.c ****     create_dir = dir;
 490              		.loc 1 68 5 view .LVU126
  69:lvgl/src/extra/widgets/tileview/lv_tileview.c ****     create_col_id = col_id;
 491              		.loc 1 69 5 view .LVU127
  69:lvgl/src/extra/widgets/tileview/lv_tileview.c ****     create_col_id = col_id;
 492              		.loc 1 69 16 is_stmt 0 view .LVU128
 493 0002 074C     		ldr	r4, .L32
 494 0004 2370     		strb	r3, [r4]
  70:lvgl/src/extra/widgets/tileview/lv_tileview.c ****     create_row_id = row_id;
 495              		.loc 1 70 5 is_stmt 1 view .LVU129
  70:lvgl/src/extra/widgets/tileview/lv_tileview.c ****     create_row_id = row_id;
 496              		.loc 1 70 19 is_stmt 0 view .LVU130
 497 0006 074B     		ldr	r3, .L32+4
 498              	.LVL65:
  70:lvgl/src/extra/widgets/tileview/lv_tileview.c ****     create_row_id = row_id;
 499              		.loc 1 70 19 view .LVU131
 500 0008 1960     		str	r1, [r3]
  71:lvgl/src/extra/widgets/tileview/lv_tileview.c **** 
 501              		.loc 1 71 5 is_stmt 1 view .LVU132
  71:lvgl/src/extra/widgets/tileview/lv_tileview.c **** 
 502              		.loc 1 71 19 is_stmt 0 view .LVU133
 503 000a 074B     		ldr	r3, .L32+8
 504 000c 1A60     		str	r2, [r3]
ARM GAS  C:\Users\OSD\AppData\Local\Temp\cczRoDjq.s 			page 15


  73:lvgl/src/extra/widgets/tileview/lv_tileview.c ****     lv_obj_class_init_obj(obj);
 505              		.loc 1 73 5 is_stmt 1 view .LVU134
  73:lvgl/src/extra/widgets/tileview/lv_tileview.c ****     lv_obj_class_init_obj(obj);
 506              		.loc 1 73 22 is_stmt 0 view .LVU135
 507 000e 0146     		mov	r1, r0
 508              	.LVL66:
  73:lvgl/src/extra/widgets/tileview/lv_tileview.c ****     lv_obj_class_init_obj(obj);
 509              		.loc 1 73 22 view .LVU136
 510 0010 0648     		ldr	r0, .L32+12
 511              	.LVL67:
  73:lvgl/src/extra/widgets/tileview/lv_tileview.c ****     lv_obj_class_init_obj(obj);
 512              		.loc 1 73 22 view .LVU137
 513 0012 FFF7FEFF 		bl	lv_obj_class_create_obj
 514              	.LVL68:
  73:lvgl/src/extra/widgets/tileview/lv_tileview.c ****     lv_obj_class_init_obj(obj);
 515              		.loc 1 73 22 view .LVU138
 516 0016 0446     		mov	r4, r0
 517              	.LVL69:
  74:lvgl/src/extra/widgets/tileview/lv_tileview.c ****     return obj;
 518              		.loc 1 74 5 is_stmt 1 view .LVU139
 519 0018 FFF7FEFF 		bl	lv_obj_class_init_obj
 520              	.LVL70:
  75:lvgl/src/extra/widgets/tileview/lv_tileview.c **** }
 521              		.loc 1 75 5 view .LVU140
  76:lvgl/src/extra/widgets/tileview/lv_tileview.c **** 
 522              		.loc 1 76 1 is_stmt 0 view .LVU141
 523 001c 2046     		mov	r0, r4
 524 001e 10BD     		pop	{r4, pc}
 525              	.LVL71:
 526              	.L33:
  76:lvgl/src/extra/widgets/tileview/lv_tileview.c **** 
 527              		.loc 1 76 1 view .LVU142
 528              		.align	2
 529              	.L32:
 530 0020 00000000 		.word	.LANCHOR2
 531 0024 00000000 		.word	.LANCHOR0
 532 0028 00000000 		.word	.LANCHOR1
 533 002c 00000000 		.word	.LANCHOR4
 534              		.cfi_endproc
 535              	.LFE162:
 537              		.section	.text.lv_obj_set_tile,"ax",%progbits
 538              		.align	1
 539              		.global	lv_obj_set_tile
 540              		.syntax unified
 541              		.thumb
 542              		.thumb_func
 544              	lv_obj_set_tile:
 545              	.LVL72:
 546              	.LFB163:
  79:lvgl/src/extra/widgets/tileview/lv_tileview.c ****     lv_coord_t tx = lv_obj_get_x(tile_obj);
 547              		.loc 1 79 1 is_stmt 1 view -0
 548              		.cfi_startproc
 549              		@ args = 0, pretend = 0, frame = 0
 550              		@ frame_needed = 0, uses_anonymous_args = 0
  79:lvgl/src/extra/widgets/tileview/lv_tileview.c ****     lv_coord_t tx = lv_obj_get_x(tile_obj);
 551              		.loc 1 79 1 is_stmt 0 view .LVU144
 552 0000 2DE9F041 		push	{r4, r5, r6, r7, r8, lr}
ARM GAS  C:\Users\OSD\AppData\Local\Temp\cczRoDjq.s 			page 16


 553              		.cfi_def_cfa_offset 24
 554              		.cfi_offset 4, -24
 555              		.cfi_offset 5, -20
 556              		.cfi_offset 6, -16
 557              		.cfi_offset 7, -12
 558              		.cfi_offset 8, -8
 559              		.cfi_offset 14, -4
 560 0004 0546     		mov	r5, r0
 561 0006 0C46     		mov	r4, r1
 562 0008 9046     		mov	r8, r2
  80:lvgl/src/extra/widgets/tileview/lv_tileview.c ****     lv_coord_t ty = lv_obj_get_y(tile_obj);
 563              		.loc 1 80 5 is_stmt 1 view .LVU145
  80:lvgl/src/extra/widgets/tileview/lv_tileview.c ****     lv_coord_t ty = lv_obj_get_y(tile_obj);
 564              		.loc 1 80 21 is_stmt 0 view .LVU146
 565 000a 0846     		mov	r0, r1
 566              	.LVL73:
  80:lvgl/src/extra/widgets/tileview/lv_tileview.c ****     lv_coord_t ty = lv_obj_get_y(tile_obj);
 567              		.loc 1 80 21 view .LVU147
 568 000c FFF7FEFF 		bl	lv_obj_get_x
 569              	.LVL74:
  80:lvgl/src/extra/widgets/tileview/lv_tileview.c ****     lv_coord_t ty = lv_obj_get_y(tile_obj);
 570              		.loc 1 80 21 view .LVU148
 571 0010 0646     		mov	r6, r0
 572              	.LVL75:
  81:lvgl/src/extra/widgets/tileview/lv_tileview.c **** 
 573              		.loc 1 81 5 is_stmt 1 view .LVU149
  81:lvgl/src/extra/widgets/tileview/lv_tileview.c **** 
 574              		.loc 1 81 21 is_stmt 0 view .LVU150
 575 0012 2046     		mov	r0, r4
 576 0014 FFF7FEFF 		bl	lv_obj_get_y
 577              	.LVL76:
 578 0018 0746     		mov	r7, r0
 579              	.LVL77:
  83:lvgl/src/extra/widgets/tileview/lv_tileview.c ****     lv_tileview_t * tv = (lv_tileview_t *) obj;
 580              		.loc 1 83 5 is_stmt 1 view .LVU151
  84:lvgl/src/extra/widgets/tileview/lv_tileview.c ****     tv->tile_act = (lv_obj_t *)tile;
 581              		.loc 1 84 5 view .LVU152
  85:lvgl/src/extra/widgets/tileview/lv_tileview.c **** 
 582              		.loc 1 85 5 view .LVU153
  85:lvgl/src/extra/widgets/tileview/lv_tileview.c **** 
 583              		.loc 1 85 18 is_stmt 0 view .LVU154
 584 001a 6C62     		str	r4, [r5, #36]
  87:lvgl/src/extra/widgets/tileview/lv_tileview.c ****     lv_obj_scroll_to(obj, tx, ty, anim_en);
 585              		.loc 1 87 5 is_stmt 1 view .LVU155
 586 001c 94F82410 		ldrb	r1, [r4, #36]	@ zero_extendqisi2
 587 0020 2846     		mov	r0, r5
 588 0022 FFF7FEFF 		bl	lv_obj_set_scroll_dir
 589              	.LVL78:
  88:lvgl/src/extra/widgets/tileview/lv_tileview.c **** }
 590              		.loc 1 88 5 view .LVU156
 591 0026 4346     		mov	r3, r8
 592 0028 3A46     		mov	r2, r7
 593 002a 3146     		mov	r1, r6
 594 002c 2846     		mov	r0, r5
 595 002e FFF7FEFF 		bl	lv_obj_scroll_to
 596              	.LVL79:
  89:lvgl/src/extra/widgets/tileview/lv_tileview.c **** 
ARM GAS  C:\Users\OSD\AppData\Local\Temp\cczRoDjq.s 			page 17


 597              		.loc 1 89 1 is_stmt 0 view .LVU157
 598 0032 BDE8F081 		pop	{r4, r5, r6, r7, r8, pc}
  89:lvgl/src/extra/widgets/tileview/lv_tileview.c **** 
 599              		.loc 1 89 1 view .LVU158
 600              		.cfi_endproc
 601              	.LFE163:
 603              		.section	.text.lv_obj_set_tile_id,"ax",%progbits
 604              		.align	1
 605              		.global	lv_obj_set_tile_id
 606              		.syntax unified
 607              		.thumb
 608              		.thumb_func
 610              	lv_obj_set_tile_id:
 611              	.LVL80:
 612              	.LFB164:
  92:lvgl/src/extra/widgets/tileview/lv_tileview.c ****     lv_obj_update_layout(tv);
 613              		.loc 1 92 1 is_stmt 1 view -0
 614              		.cfi_startproc
 615              		@ args = 0, pretend = 0, frame = 0
 616              		@ frame_needed = 0, uses_anonymous_args = 0
  92:lvgl/src/extra/widgets/tileview/lv_tileview.c ****     lv_obj_update_layout(tv);
 617              		.loc 1 92 1 is_stmt 0 view .LVU160
 618 0000 2DE9F047 		push	{r4, r5, r6, r7, r8, r9, r10, lr}
 619              		.cfi_def_cfa_offset 32
 620              		.cfi_offset 4, -32
 621              		.cfi_offset 5, -28
 622              		.cfi_offset 6, -24
 623              		.cfi_offset 7, -20
 624              		.cfi_offset 8, -16
 625              		.cfi_offset 9, -12
 626              		.cfi_offset 10, -8
 627              		.cfi_offset 14, -4
 628 0004 0746     		mov	r7, r0
 629 0006 0C46     		mov	r4, r1
 630 0008 9146     		mov	r9, r2
 631 000a 9A46     		mov	r10, r3
  93:lvgl/src/extra/widgets/tileview/lv_tileview.c **** 
 632              		.loc 1 93 5 is_stmt 1 view .LVU161
 633 000c FFF7FEFF 		bl	lv_obj_update_layout
 634              	.LVL81:
  95:lvgl/src/extra/widgets/tileview/lv_tileview.c ****     lv_coord_t h = lv_obj_get_content_height(tv);
 635              		.loc 1 95 5 view .LVU162
  95:lvgl/src/extra/widgets/tileview/lv_tileview.c ****     lv_coord_t h = lv_obj_get_content_height(tv);
 636              		.loc 1 95 20 is_stmt 0 view .LVU163
 637 0010 3846     		mov	r0, r7
 638 0012 FFF7FEFF 		bl	lv_obj_get_content_width
 639              	.LVL82:
 640 0016 8046     		mov	r8, r0
 641              	.LVL83:
  96:lvgl/src/extra/widgets/tileview/lv_tileview.c **** 
 642              		.loc 1 96 5 is_stmt 1 view .LVU164
  96:lvgl/src/extra/widgets/tileview/lv_tileview.c **** 
 643              		.loc 1 96 20 is_stmt 0 view .LVU165
 644 0018 3846     		mov	r0, r7
 645 001a FFF7FEFF 		bl	lv_obj_get_content_height
 646              	.LVL84:
  98:lvgl/src/extra/widgets/tileview/lv_tileview.c ****     lv_coord_t ty = row_id * h;
ARM GAS  C:\Users\OSD\AppData\Local\Temp\cczRoDjq.s 			page 18


 647              		.loc 1 98 5 is_stmt 1 view .LVU166
  98:lvgl/src/extra/widgets/tileview/lv_tileview.c ****     lv_coord_t ty = row_id * h;
 648              		.loc 1 98 16 is_stmt 0 view .LVU167
 649 001e 18FB04F8 		smulbb	r8, r8, r4
 650              	.LVL85:
  98:lvgl/src/extra/widgets/tileview/lv_tileview.c ****     lv_coord_t ty = row_id * h;
 651              		.loc 1 98 16 view .LVU168
 652 0022 0FFA88F8 		sxth	r8, r8
 653              	.LVL86:
  99:lvgl/src/extra/widgets/tileview/lv_tileview.c **** 
 654              		.loc 1 99 5 is_stmt 1 view .LVU169
  99:lvgl/src/extra/widgets/tileview/lv_tileview.c **** 
 655              		.loc 1 99 16 is_stmt 0 view .LVU170
 656 0026 10FB09F9 		smulbb	r9, r0, r9
 657              	.LVL87:
  99:lvgl/src/extra/widgets/tileview/lv_tileview.c **** 
 658              		.loc 1 99 16 view .LVU171
 659 002a 0FFA89F9 		sxth	r9, r9
 660              	.LVL88:
 101:lvgl/src/extra/widgets/tileview/lv_tileview.c ****     for(i = 0; i < lv_obj_get_child_cnt(tv); i++) {
 661              		.loc 1 101 5 is_stmt 1 view .LVU172
 102:lvgl/src/extra/widgets/tileview/lv_tileview.c ****         lv_obj_t * tile_obj = lv_obj_get_child(tv, i);
 662              		.loc 1 102 5 view .LVU173
 102:lvgl/src/extra/widgets/tileview/lv_tileview.c ****         lv_obj_t * tile_obj = lv_obj_get_child(tv, i);
 663              		.loc 1 102 11 is_stmt 0 view .LVU174
 664 002e 0024     		movs	r4, #0
 665              	.LVL89:
 102:lvgl/src/extra/widgets/tileview/lv_tileview.c ****         lv_obj_t * tile_obj = lv_obj_get_child(tv, i);
 666              		.loc 1 102 5 view .LVU175
 667 0030 00E0     		b	.L37
 668              	.LVL90:
 669              	.L38:
 102:lvgl/src/extra/widgets/tileview/lv_tileview.c ****         lv_obj_t * tile_obj = lv_obj_get_child(tv, i);
 670              		.loc 1 102 46 is_stmt 1 discriminator 2 view .LVU176
 102:lvgl/src/extra/widgets/tileview/lv_tileview.c ****         lv_obj_t * tile_obj = lv_obj_get_child(tv, i);
 671              		.loc 1 102 47 is_stmt 0 discriminator 2 view .LVU177
 672 0032 0134     		adds	r4, r4, #1
 673              	.LVL91:
 674              	.L37:
 102:lvgl/src/extra/widgets/tileview/lv_tileview.c ****         lv_obj_t * tile_obj = lv_obj_get_child(tv, i);
 675              		.loc 1 102 16 is_stmt 1 discriminator 1 view .LVU178
 102:lvgl/src/extra/widgets/tileview/lv_tileview.c ****         lv_obj_t * tile_obj = lv_obj_get_child(tv, i);
 676              		.loc 1 102 20 is_stmt 0 discriminator 1 view .LVU179
 677 0034 3846     		mov	r0, r7
 678 0036 FFF7FEFF 		bl	lv_obj_get_child_cnt
 679              	.LVL92:
 102:lvgl/src/extra/widgets/tileview/lv_tileview.c ****         lv_obj_t * tile_obj = lv_obj_get_child(tv, i);
 680              		.loc 1 102 5 discriminator 1 view .LVU180
 681 003a A042     		cmp	r0, r4
 682 003c 13D9     		bls	.L36
 683              	.LBB6:
 103:lvgl/src/extra/widgets/tileview/lv_tileview.c ****         lv_coord_t x = lv_obj_get_x(tile_obj);
 684              		.loc 1 103 9 is_stmt 1 view .LVU181
 103:lvgl/src/extra/widgets/tileview/lv_tileview.c ****         lv_coord_t x = lv_obj_get_x(tile_obj);
 685              		.loc 1 103 31 is_stmt 0 view .LVU182
 686 003e 2146     		mov	r1, r4
 687 0040 3846     		mov	r0, r7
ARM GAS  C:\Users\OSD\AppData\Local\Temp\cczRoDjq.s 			page 19


 688 0042 FFF7FEFF 		bl	lv_obj_get_child
 689              	.LVL93:
 690 0046 0546     		mov	r5, r0
 691              	.LVL94:
 104:lvgl/src/extra/widgets/tileview/lv_tileview.c ****         lv_coord_t y = lv_obj_get_y(tile_obj);
 692              		.loc 1 104 9 is_stmt 1 view .LVU183
 104:lvgl/src/extra/widgets/tileview/lv_tileview.c ****         lv_coord_t y = lv_obj_get_y(tile_obj);
 693              		.loc 1 104 24 is_stmt 0 view .LVU184
 694 0048 FFF7FEFF 		bl	lv_obj_get_x
 695              	.LVL95:
 104:lvgl/src/extra/widgets/tileview/lv_tileview.c ****         lv_coord_t y = lv_obj_get_y(tile_obj);
 696              		.loc 1 104 24 view .LVU185
 697 004c 0646     		mov	r6, r0
 698              	.LVL96:
 105:lvgl/src/extra/widgets/tileview/lv_tileview.c ****         if(x == tx && y == ty) {
 699              		.loc 1 105 9 is_stmt 1 view .LVU186
 105:lvgl/src/extra/widgets/tileview/lv_tileview.c ****         if(x == tx && y == ty) {
 700              		.loc 1 105 24 is_stmt 0 view .LVU187
 701 004e 2846     		mov	r0, r5
 702 0050 FFF7FEFF 		bl	lv_obj_get_y
 703              	.LVL97:
 106:lvgl/src/extra/widgets/tileview/lv_tileview.c ****             lv_obj_set_tile(tv, tile_obj, anim_en);
 704              		.loc 1 106 9 is_stmt 1 view .LVU188
 106:lvgl/src/extra/widgets/tileview/lv_tileview.c ****             lv_obj_set_tile(tv, tile_obj, anim_en);
 705              		.loc 1 106 11 is_stmt 0 view .LVU189
 706 0054 B045     		cmp	r8, r6
 707 0056 08BF     		it	eq
 708 0058 8145     		cmpeq	r9, r0
 709 005a EAD1     		bne	.L38
 107:lvgl/src/extra/widgets/tileview/lv_tileview.c ****             return;
 710              		.loc 1 107 13 is_stmt 1 view .LVU190
 711 005c 5246     		mov	r2, r10
 712 005e 2946     		mov	r1, r5
 713 0060 3846     		mov	r0, r7
 714              	.LVL98:
 107:lvgl/src/extra/widgets/tileview/lv_tileview.c ****             return;
 715              		.loc 1 107 13 is_stmt 0 view .LVU191
 716 0062 FFF7FEFF 		bl	lv_obj_set_tile
 717              	.LVL99:
 108:lvgl/src/extra/widgets/tileview/lv_tileview.c ****         }
 718              		.loc 1 108 13 is_stmt 1 view .LVU192
 719              	.L36:
 108:lvgl/src/extra/widgets/tileview/lv_tileview.c ****         }
 720              		.loc 1 108 13 is_stmt 0 view .LVU193
 721              	.LBE6:
 113:lvgl/src/extra/widgets/tileview/lv_tileview.c **** 
 722              		.loc 1 113 1 view .LVU194
 723 0066 BDE8F087 		pop	{r4, r5, r6, r7, r8, r9, r10, pc}
 113:lvgl/src/extra/widgets/tileview/lv_tileview.c **** 
 724              		.loc 1 113 1 view .LVU195
 725              		.cfi_endproc
 726              	.LFE164:
 728              		.section	.text.lv_tileview_get_tile_act,"ax",%progbits
 729              		.align	1
 730              		.global	lv_tileview_get_tile_act
 731              		.syntax unified
 732              		.thumb
ARM GAS  C:\Users\OSD\AppData\Local\Temp\cczRoDjq.s 			page 20


 733              		.thumb_func
 735              	lv_tileview_get_tile_act:
 736              	.LVL100:
 737              	.LFB165:
 116:lvgl/src/extra/widgets/tileview/lv_tileview.c ****     lv_tileview_t * tv = (lv_tileview_t *) obj;
 738              		.loc 1 116 1 is_stmt 1 view -0
 739              		.cfi_startproc
 740              		@ args = 0, pretend = 0, frame = 0
 741              		@ frame_needed = 0, uses_anonymous_args = 0
 742              		@ link register save eliminated.
 117:lvgl/src/extra/widgets/tileview/lv_tileview.c ****     return tv->tile_act;
 743              		.loc 1 117 5 view .LVU197
 118:lvgl/src/extra/widgets/tileview/lv_tileview.c **** }
 744              		.loc 1 118 5 view .LVU198
 119:lvgl/src/extra/widgets/tileview/lv_tileview.c **** 
 745              		.loc 1 119 1 is_stmt 0 view .LVU199
 746 0000 406A     		ldr	r0, [r0, #36]
 747              	.LVL101:
 119:lvgl/src/extra/widgets/tileview/lv_tileview.c **** 
 748              		.loc 1 119 1 view .LVU200
 749 0002 7047     		bx	lr
 750              		.cfi_endproc
 751              	.LFE165:
 753              		.global	lv_tileview_tile_class
 754              		.global	lv_tileview_class
 755              		.section	.bss.create_col_id,"aw",%nobits
 756              		.align	2
 757              		.set	.LANCHOR0,. + 0
 760              	create_col_id:
 761 0000 00000000 		.space	4
 762              		.section	.bss.create_dir,"aw",%nobits
 763              		.set	.LANCHOR2,. + 0
 766              	create_dir:
 767 0000 00       		.space	1
 768              		.section	.bss.create_row_id,"aw",%nobits
 769              		.align	2
 770              		.set	.LANCHOR1,. + 0
 773              	create_row_id:
 774 0000 00000000 		.space	4
 775              		.section	.rodata.lv_tileview_class,"a"
 776              		.align	2
 777              		.set	.LANCHOR3,. + 0
 780              	lv_tileview_class:
 781 0000 00000000 		.word	lv_obj_class
 782 0004 00000000 		.word	lv_tileview_constructor
 783 0008 00000000 		.space	16
 783      00000000 
 783      00000000 
 783      00000000 
 784 0018 80       		.byte	128
 785 0019 02       		.byte	2
 786 001a 00       		.byte	0
 787 001b 00       		.space	1
 788              		.section	.rodata.lv_tileview_tile_class,"a"
 789              		.align	2
 790              		.set	.LANCHOR4,. + 0
 793              	lv_tileview_tile_class:
ARM GAS  C:\Users\OSD\AppData\Local\Temp\cczRoDjq.s 			page 21


 794 0000 00000000 		.word	lv_obj_class
 795 0004 00000000 		.word	lv_tileview_tile_constructor
 796 0008 00000000 		.space	16
 796      00000000 
 796      00000000 
 796      00000000 
 797 0018 80       		.byte	128
 798 0019 02       		.byte	2
 799 001a 00       		.byte	0
 800 001b 00       		.space	1
 801              		.text
 802              	.Letext0:
 803              		.file 2 "c:\\tools\\gcc-arm-none-eabi\\arm-none-eabi\\include\\machine\\_default_types.h"
 804              		.file 3 "c:\\tools\\gcc-arm-none-eabi\\arm-none-eabi\\include\\sys\\_stdint.h"
 805              		.file 4 "c:\\tools\\gcc-arm-none-eabi\\lib\\gcc\\arm-none-eabi\\10.3.1\\include\\stddef.h"
 806              		.file 5 "d:\\kzc\\stm32\\h743ii_lcd\\lvgl\\src\\misc\\lv_area.h"
 807              		.file 6 "d:\\kzc\\stm32\\h743ii_lcd\\lvgl\\src\\font\\lv_font.h"
 808              		.file 7 "d:\\kzc\\stm32\\h743ii_lcd\\lvgl\\src\\misc\\lv_types.h"
 809              		.file 8 "d:\\kzc\\stm32\\h743ii_lcd\\lvgl\\src\\misc\\lv_color.h"
 810              		.file 9 "d:\\kzc\\stm32\\h743ii_lcd\\lvgl\\src\\misc\\lv_anim.h"
 811              		.file 10 "d:\\kzc\\stm32\\h743ii_lcd\\lvgl\\src\\misc\\lv_txt.h"
 812              		.file 11 "d:\\kzc\\stm32\\h743ii_lcd\\lvgl\\src\\misc\\lv_bidi.h"
 813              		.file 12 "d:\\kzc\\stm32\\h743ii_lcd\\lvgl\\src\\misc\\lv_style.h"
 814              		.file 13 "d:\\kzc\\stm32\\h743ii_lcd\\lvgl\\src\\draw\\lv_img_buf.h"
 815              		.file 14 "d:\\kzc\\stm32\\h743ii_lcd\\lvgl\\src\\core\\lv_obj.h"
 816              		.file 15 "d:\\kzc\\stm32\\h743ii_lcd\\lvgl\\src\\draw\\lv_draw_rect.h"
 817              		.file 16 "d:\\kzc\\stm32\\h743ii_lcd\\lvgl\\src\\draw\\lv_draw_label.h"
 818              		.file 17 "d:\\kzc\\stm32\\h743ii_lcd\\lvgl\\src\\draw\\lv_draw_img.h"
 819              		.file 18 "d:\\kzc\\stm32\\h743ii_lcd\\lvgl\\src\\draw\\lv_draw_line.h"
 820              		.file 19 "d:\\kzc\\stm32\\h743ii_lcd\\lvgl\\src\\draw\\lv_draw_arc.h"
 821              		.file 20 "d:\\kzc\\stm32\\h743ii_lcd\\lvgl\\src\\draw\\lv_draw_layer.h"
 822              		.file 21 "d:\\kzc\\stm32\\h743ii_lcd\\lvgl\\src\\draw\\lv_draw.h"
 823              		.file 22 "d:\\kzc\\stm32\\h743ii_lcd\\lvgl\\src\\misc\\lv_ll.h"
 824              		.file 23 "d:\\kzc\\stm32\\h743ii_lcd\\lvgl\\src\\misc\\lv_timer.h"
 825              		.file 24 "d:\\kzc\\stm32\\h743ii_lcd\\lvgl\\src\\hal\\lv_hal_disp.h"
 826              		.file 25 "d:\\kzc\\stm32\\h743ii_lcd\\lvgl\\src\\hal\\lv_hal_indev.h"
 827              		.file 26 "d:\\kzc\\stm32\\h743ii_lcd\\lvgl\\src\\core\\lv_group.h"
 828              		.file 27 "d:\\kzc\\stm32\\h743ii_lcd\\lvgl\\src\\core\\lv_obj_scroll.h"
 829              		.file 28 "d:\\kzc\\stm32\\h743ii_lcd\\lvgl\\src\\core\\lv_obj_style.h"
 830              		.file 29 "d:\\kzc\\stm32\\h743ii_lcd\\lvgl\\src\\core\\lv_obj_class.h"
 831              		.file 30 "d:\\kzc\\stm32\\h743ii_lcd\\lvgl\\src\\core\\lv_event.h"
 832              		.file 31 "lvgl/src/extra/widgets/tileview/lv_tileview.h"
 833              		.file 32 "d:\\kzc\\stm32\\h743ii_lcd\\lvgl\\src\\core\\lv_obj_tree.h"
 834              		.file 33 "d:\\kzc\\stm32\\h743ii_lcd\\lvgl\\src\\core\\lv_obj_pos.h"
 835              		.file 34 "d:\\kzc\\stm32\\h743ii_lcd\\lvgl\\src\\core\\lv_indev.h"
ARM GAS  C:\Users\OSD\AppData\Local\Temp\cczRoDjq.s 			page 22

