ARM GAS  C:\Users\OSD\AppData\Local\Temp\ccmEsMWN.s 			page 1


   1              		.cpu cortex-m7
   2              		.arch armv7e-m
   3              		.fpu fpv5-d16
   4              		.eabi_attribute 28, 1
   5              		.eabi_attribute 20, 1
   6              		.eabi_attribute 21, 1
   7              		.eabi_attribute 23, 3
   8              		.eabi_attribute 24, 1
   9              		.eabi_attribute 25, 1
  10              		.eabi_attribute 26, 1
  11              		.eabi_attribute 30, 1
  12              		.eabi_attribute 34, 1
  13              		.eabi_attribute 18, 4
  14              		.file	"lv_tabview.c"
  15              		.text
  16              	.Ltext0:
  17              		.cfi_sections	.debug_frame
  18              		.section	.text.lv_tabview_destructor,"ax",%progbits
  19              		.align	1
  20              		.syntax unified
  21              		.thumb
  22              		.thumb_func
  24              	lv_tabview_destructor:
  25              	.LVL0:
  26              	.LFB212:
  27              		.file 1 "lvgl/src/extra/widgets/tabview/lv_tabview.c"
   1:lvgl/src/extra/widgets/tabview/lv_tabview.c **** /**
   2:lvgl/src/extra/widgets/tabview/lv_tabview.c ****  * @file lv_tabview.c
   3:lvgl/src/extra/widgets/tabview/lv_tabview.c ****  *
   4:lvgl/src/extra/widgets/tabview/lv_tabview.c ****  */
   5:lvgl/src/extra/widgets/tabview/lv_tabview.c **** 
   6:lvgl/src/extra/widgets/tabview/lv_tabview.c **** /*********************
   7:lvgl/src/extra/widgets/tabview/lv_tabview.c ****  *      INCLUDES
   8:lvgl/src/extra/widgets/tabview/lv_tabview.c ****  *********************/
   9:lvgl/src/extra/widgets/tabview/lv_tabview.c **** #include "lv_tabview.h"
  10:lvgl/src/extra/widgets/tabview/lv_tabview.c **** #if LV_USE_TABVIEW
  11:lvgl/src/extra/widgets/tabview/lv_tabview.c **** 
  12:lvgl/src/extra/widgets/tabview/lv_tabview.c **** #include "../../../misc/lv_assert.h"
  13:lvgl/src/extra/widgets/tabview/lv_tabview.c **** 
  14:lvgl/src/extra/widgets/tabview/lv_tabview.c **** /*********************
  15:lvgl/src/extra/widgets/tabview/lv_tabview.c ****  *      DEFINES
  16:lvgl/src/extra/widgets/tabview/lv_tabview.c ****  *********************/
  17:lvgl/src/extra/widgets/tabview/lv_tabview.c **** #define MY_CLASS    &lv_tabview_class
  18:lvgl/src/extra/widgets/tabview/lv_tabview.c **** 
  19:lvgl/src/extra/widgets/tabview/lv_tabview.c **** /**********************
  20:lvgl/src/extra/widgets/tabview/lv_tabview.c ****  *      TYPEDEFS
  21:lvgl/src/extra/widgets/tabview/lv_tabview.c ****  **********************/
  22:lvgl/src/extra/widgets/tabview/lv_tabview.c **** 
  23:lvgl/src/extra/widgets/tabview/lv_tabview.c **** /**********************
  24:lvgl/src/extra/widgets/tabview/lv_tabview.c ****  *  STATIC PROTOTYPES
  25:lvgl/src/extra/widgets/tabview/lv_tabview.c ****  **********************/
  26:lvgl/src/extra/widgets/tabview/lv_tabview.c **** static void lv_tabview_constructor(const lv_obj_class_t * class_p, lv_obj_t * obj);
  27:lvgl/src/extra/widgets/tabview/lv_tabview.c **** static void lv_tabview_destructor(const lv_obj_class_t * class_p, lv_obj_t * obj);
  28:lvgl/src/extra/widgets/tabview/lv_tabview.c **** static void lv_tabview_event(const lv_obj_class_t * class_p, lv_event_t * e);
  29:lvgl/src/extra/widgets/tabview/lv_tabview.c **** static void btns_value_changed_event_cb(lv_event_t * e);
  30:lvgl/src/extra/widgets/tabview/lv_tabview.c **** static void cont_scroll_end_event_cb(lv_event_t * e);
  31:lvgl/src/extra/widgets/tabview/lv_tabview.c **** 
ARM GAS  C:\Users\OSD\AppData\Local\Temp\ccmEsMWN.s 			page 2


  32:lvgl/src/extra/widgets/tabview/lv_tabview.c **** /**********************
  33:lvgl/src/extra/widgets/tabview/lv_tabview.c ****  *  STATIC VARIABLES
  34:lvgl/src/extra/widgets/tabview/lv_tabview.c ****  **********************/
  35:lvgl/src/extra/widgets/tabview/lv_tabview.c **** const lv_obj_class_t lv_tabview_class = {
  36:lvgl/src/extra/widgets/tabview/lv_tabview.c ****     .constructor_cb = lv_tabview_constructor,
  37:lvgl/src/extra/widgets/tabview/lv_tabview.c ****     .destructor_cb = lv_tabview_destructor,
  38:lvgl/src/extra/widgets/tabview/lv_tabview.c ****     .event_cb = lv_tabview_event,
  39:lvgl/src/extra/widgets/tabview/lv_tabview.c ****     .width_def = LV_PCT(100),
  40:lvgl/src/extra/widgets/tabview/lv_tabview.c ****     .height_def = LV_PCT(100),
  41:lvgl/src/extra/widgets/tabview/lv_tabview.c ****     .base_class = &lv_obj_class,
  42:lvgl/src/extra/widgets/tabview/lv_tabview.c ****     .instance_size = sizeof(lv_tabview_t)
  43:lvgl/src/extra/widgets/tabview/lv_tabview.c **** };
  44:lvgl/src/extra/widgets/tabview/lv_tabview.c **** 
  45:lvgl/src/extra/widgets/tabview/lv_tabview.c **** static lv_dir_t tabpos_create;
  46:lvgl/src/extra/widgets/tabview/lv_tabview.c **** static lv_coord_t tabsize_create;
  47:lvgl/src/extra/widgets/tabview/lv_tabview.c **** 
  48:lvgl/src/extra/widgets/tabview/lv_tabview.c **** /**********************
  49:lvgl/src/extra/widgets/tabview/lv_tabview.c ****  *      MACROS
  50:lvgl/src/extra/widgets/tabview/lv_tabview.c ****  **********************/
  51:lvgl/src/extra/widgets/tabview/lv_tabview.c **** 
  52:lvgl/src/extra/widgets/tabview/lv_tabview.c **** /**********************
  53:lvgl/src/extra/widgets/tabview/lv_tabview.c ****  *   GLOBAL FUNCTIONS
  54:lvgl/src/extra/widgets/tabview/lv_tabview.c ****  **********************/
  55:lvgl/src/extra/widgets/tabview/lv_tabview.c **** 
  56:lvgl/src/extra/widgets/tabview/lv_tabview.c **** lv_obj_t * lv_tabview_create(lv_obj_t * parent, lv_dir_t tab_pos, lv_coord_t tab_size)
  57:lvgl/src/extra/widgets/tabview/lv_tabview.c **** {
  58:lvgl/src/extra/widgets/tabview/lv_tabview.c ****     LV_LOG_INFO("begin");
  59:lvgl/src/extra/widgets/tabview/lv_tabview.c ****     tabpos_create = tab_pos;
  60:lvgl/src/extra/widgets/tabview/lv_tabview.c ****     tabsize_create = tab_size;
  61:lvgl/src/extra/widgets/tabview/lv_tabview.c **** 
  62:lvgl/src/extra/widgets/tabview/lv_tabview.c ****     lv_obj_t * obj = lv_obj_class_create_obj(&lv_tabview_class, parent);
  63:lvgl/src/extra/widgets/tabview/lv_tabview.c ****     lv_obj_class_init_obj(obj);
  64:lvgl/src/extra/widgets/tabview/lv_tabview.c ****     return obj;
  65:lvgl/src/extra/widgets/tabview/lv_tabview.c **** }
  66:lvgl/src/extra/widgets/tabview/lv_tabview.c **** 
  67:lvgl/src/extra/widgets/tabview/lv_tabview.c **** lv_obj_t * lv_tabview_add_tab(lv_obj_t * obj, const char * name)
  68:lvgl/src/extra/widgets/tabview/lv_tabview.c **** {
  69:lvgl/src/extra/widgets/tabview/lv_tabview.c ****     LV_ASSERT_OBJ(obj, MY_CLASS);
  70:lvgl/src/extra/widgets/tabview/lv_tabview.c ****     lv_tabview_t * tabview = (lv_tabview_t *)obj;
  71:lvgl/src/extra/widgets/tabview/lv_tabview.c ****     lv_obj_t * cont = lv_tabview_get_content(obj);
  72:lvgl/src/extra/widgets/tabview/lv_tabview.c **** 
  73:lvgl/src/extra/widgets/tabview/lv_tabview.c ****     lv_obj_t * page = lv_obj_create(cont);
  74:lvgl/src/extra/widgets/tabview/lv_tabview.c ****     lv_obj_set_size(page, LV_PCT(100), LV_PCT(100));
  75:lvgl/src/extra/widgets/tabview/lv_tabview.c ****     lv_obj_clear_flag(page, LV_OBJ_FLAG_CLICK_FOCUSABLE);
  76:lvgl/src/extra/widgets/tabview/lv_tabview.c ****     uint32_t tab_id = lv_obj_get_child_cnt(cont);
  77:lvgl/src/extra/widgets/tabview/lv_tabview.c **** 
  78:lvgl/src/extra/widgets/tabview/lv_tabview.c ****     lv_obj_t * btns = lv_tabview_get_tab_btns(obj);
  79:lvgl/src/extra/widgets/tabview/lv_tabview.c **** 
  80:lvgl/src/extra/widgets/tabview/lv_tabview.c ****     const char ** old_map = (const char **)tabview->map;
  81:lvgl/src/extra/widgets/tabview/lv_tabview.c ****     const char ** new_map;
  82:lvgl/src/extra/widgets/tabview/lv_tabview.c **** 
  83:lvgl/src/extra/widgets/tabview/lv_tabview.c ****     /*top or bottom dir*/
  84:lvgl/src/extra/widgets/tabview/lv_tabview.c ****     if(tabview->tab_pos & LV_DIR_VER) {
  85:lvgl/src/extra/widgets/tabview/lv_tabview.c ****         new_map = lv_mem_alloc((tab_id + 1) * sizeof(const char *));
  86:lvgl/src/extra/widgets/tabview/lv_tabview.c ****         lv_memcpy_small(new_map, old_map, sizeof(const char *) * (tab_id - 1));
  87:lvgl/src/extra/widgets/tabview/lv_tabview.c ****         new_map[tab_id - 1] = lv_mem_alloc(strlen(name) + 1);
  88:lvgl/src/extra/widgets/tabview/lv_tabview.c ****         strcpy((char *)new_map[tab_id - 1], name);
ARM GAS  C:\Users\OSD\AppData\Local\Temp\ccmEsMWN.s 			page 3


  89:lvgl/src/extra/widgets/tabview/lv_tabview.c ****         new_map[tab_id] = "";
  90:lvgl/src/extra/widgets/tabview/lv_tabview.c ****     }
  91:lvgl/src/extra/widgets/tabview/lv_tabview.c ****     /*left or right dir*/
  92:lvgl/src/extra/widgets/tabview/lv_tabview.c ****     else {
  93:lvgl/src/extra/widgets/tabview/lv_tabview.c ****         new_map = lv_mem_alloc((tab_id * 2) * sizeof(const char *));
  94:lvgl/src/extra/widgets/tabview/lv_tabview.c ****         lv_memcpy_small(new_map, old_map, sizeof(const char *) * (tab_id - 1) * 2);
  95:lvgl/src/extra/widgets/tabview/lv_tabview.c ****         if(tabview->tab_cnt == 0) {
  96:lvgl/src/extra/widgets/tabview/lv_tabview.c ****             new_map[0] = lv_mem_alloc(strlen(name) + 1);
  97:lvgl/src/extra/widgets/tabview/lv_tabview.c ****             strcpy((char *)new_map[0], name);
  98:lvgl/src/extra/widgets/tabview/lv_tabview.c ****             new_map[1] = "";
  99:lvgl/src/extra/widgets/tabview/lv_tabview.c ****         }
 100:lvgl/src/extra/widgets/tabview/lv_tabview.c ****         else {
 101:lvgl/src/extra/widgets/tabview/lv_tabview.c ****             new_map[tab_id * 2 - 3] = "\n";
 102:lvgl/src/extra/widgets/tabview/lv_tabview.c ****             new_map[tab_id * 2 - 2] = lv_mem_alloc(strlen(name) + 1);
 103:lvgl/src/extra/widgets/tabview/lv_tabview.c ****             new_map[tab_id * 2 - 1] = "";
 104:lvgl/src/extra/widgets/tabview/lv_tabview.c ****             strcpy((char *)new_map[(tab_id * 2) - 2], name);
 105:lvgl/src/extra/widgets/tabview/lv_tabview.c ****         }
 106:lvgl/src/extra/widgets/tabview/lv_tabview.c ****     }
 107:lvgl/src/extra/widgets/tabview/lv_tabview.c ****     tabview->map = new_map;
 108:lvgl/src/extra/widgets/tabview/lv_tabview.c ****     lv_btnmatrix_set_map(btns, (const char **)new_map);
 109:lvgl/src/extra/widgets/tabview/lv_tabview.c ****     lv_mem_free(old_map);
 110:lvgl/src/extra/widgets/tabview/lv_tabview.c **** 
 111:lvgl/src/extra/widgets/tabview/lv_tabview.c ****     lv_btnmatrix_set_btn_ctrl_all(btns, LV_BTNMATRIX_CTRL_CHECKABLE | LV_BTNMATRIX_CTRL_CLICK_TRIG 
 112:lvgl/src/extra/widgets/tabview/lv_tabview.c ****                                   LV_BTNMATRIX_CTRL_NO_REPEAT);
 113:lvgl/src/extra/widgets/tabview/lv_tabview.c **** 
 114:lvgl/src/extra/widgets/tabview/lv_tabview.c ****     tabview->tab_cnt++;
 115:lvgl/src/extra/widgets/tabview/lv_tabview.c ****     if(tabview->tab_cnt == 1) {
 116:lvgl/src/extra/widgets/tabview/lv_tabview.c ****         lv_tabview_set_act(obj, 0, LV_ANIM_OFF);
 117:lvgl/src/extra/widgets/tabview/lv_tabview.c ****     }
 118:lvgl/src/extra/widgets/tabview/lv_tabview.c **** 
 119:lvgl/src/extra/widgets/tabview/lv_tabview.c ****     lv_btnmatrix_set_btn_ctrl(btns, tabview->tab_cur, LV_BTNMATRIX_CTRL_CHECKED);
 120:lvgl/src/extra/widgets/tabview/lv_tabview.c **** 
 121:lvgl/src/extra/widgets/tabview/lv_tabview.c ****     return page;
 122:lvgl/src/extra/widgets/tabview/lv_tabview.c **** }
 123:lvgl/src/extra/widgets/tabview/lv_tabview.c **** 
 124:lvgl/src/extra/widgets/tabview/lv_tabview.c **** void lv_tabview_rename_tab(lv_obj_t * obj, uint32_t id, const char * new_name)
 125:lvgl/src/extra/widgets/tabview/lv_tabview.c **** {
 126:lvgl/src/extra/widgets/tabview/lv_tabview.c ****     LV_ASSERT_OBJ(obj, MY_CLASS);
 127:lvgl/src/extra/widgets/tabview/lv_tabview.c ****     lv_tabview_t * tabview = (lv_tabview_t *)obj;
 128:lvgl/src/extra/widgets/tabview/lv_tabview.c **** 
 129:lvgl/src/extra/widgets/tabview/lv_tabview.c ****     if(id >= tabview->tab_cnt) return;
 130:lvgl/src/extra/widgets/tabview/lv_tabview.c ****     if(tabview->tab_pos & LV_DIR_HOR) id *= 2;
 131:lvgl/src/extra/widgets/tabview/lv_tabview.c **** 
 132:lvgl/src/extra/widgets/tabview/lv_tabview.c ****     lv_mem_free((void *)tabview->map[id]);
 133:lvgl/src/extra/widgets/tabview/lv_tabview.c ****     tabview->map[id] = lv_mem_alloc(strlen(new_name) + 1);
 134:lvgl/src/extra/widgets/tabview/lv_tabview.c ****     strcpy((void *)tabview->map[id], new_name);
 135:lvgl/src/extra/widgets/tabview/lv_tabview.c ****     lv_obj_invalidate(obj);
 136:lvgl/src/extra/widgets/tabview/lv_tabview.c **** }
 137:lvgl/src/extra/widgets/tabview/lv_tabview.c **** 
 138:lvgl/src/extra/widgets/tabview/lv_tabview.c **** void lv_tabview_set_act(lv_obj_t * obj, uint32_t id, lv_anim_enable_t anim_en)
 139:lvgl/src/extra/widgets/tabview/lv_tabview.c **** {
 140:lvgl/src/extra/widgets/tabview/lv_tabview.c ****     LV_ASSERT_OBJ(obj, MY_CLASS);
 141:lvgl/src/extra/widgets/tabview/lv_tabview.c ****     if(obj->being_deleted) return;
 142:lvgl/src/extra/widgets/tabview/lv_tabview.c **** 
 143:lvgl/src/extra/widgets/tabview/lv_tabview.c ****     lv_tabview_t * tabview = (lv_tabview_t *)obj;
 144:lvgl/src/extra/widgets/tabview/lv_tabview.c **** 
 145:lvgl/src/extra/widgets/tabview/lv_tabview.c ****     if(id >= tabview->tab_cnt) {
ARM GAS  C:\Users\OSD\AppData\Local\Temp\ccmEsMWN.s 			page 4


 146:lvgl/src/extra/widgets/tabview/lv_tabview.c ****         id = tabview->tab_cnt - 1;
 147:lvgl/src/extra/widgets/tabview/lv_tabview.c ****     }
 148:lvgl/src/extra/widgets/tabview/lv_tabview.c **** 
 149:lvgl/src/extra/widgets/tabview/lv_tabview.c ****     /*To be sure lv_obj_get_content_width will return valid value*/
 150:lvgl/src/extra/widgets/tabview/lv_tabview.c ****     lv_obj_update_layout(obj);
 151:lvgl/src/extra/widgets/tabview/lv_tabview.c **** 
 152:lvgl/src/extra/widgets/tabview/lv_tabview.c ****     lv_obj_t * cont = lv_tabview_get_content(obj);
 153:lvgl/src/extra/widgets/tabview/lv_tabview.c ****     if(cont == NULL) return;
 154:lvgl/src/extra/widgets/tabview/lv_tabview.c **** 
 155:lvgl/src/extra/widgets/tabview/lv_tabview.c ****     if((tabview->tab_pos & LV_DIR_VER) != 0) {
 156:lvgl/src/extra/widgets/tabview/lv_tabview.c ****         lv_coord_t gap = lv_obj_get_style_pad_column(cont, LV_PART_MAIN);
 157:lvgl/src/extra/widgets/tabview/lv_tabview.c ****         lv_coord_t w = lv_obj_get_content_width(cont);
 158:lvgl/src/extra/widgets/tabview/lv_tabview.c ****         if(lv_obj_get_style_base_dir(obj, LV_PART_MAIN) != LV_BASE_DIR_RTL) {
 159:lvgl/src/extra/widgets/tabview/lv_tabview.c ****             lv_obj_scroll_to_x(cont, id * (gap + w), anim_en);
 160:lvgl/src/extra/widgets/tabview/lv_tabview.c ****         }
 161:lvgl/src/extra/widgets/tabview/lv_tabview.c ****         else {
 162:lvgl/src/extra/widgets/tabview/lv_tabview.c ****             int32_t id_rtl = -(int32_t)id;
 163:lvgl/src/extra/widgets/tabview/lv_tabview.c ****             lv_obj_scroll_to_x(cont, (gap + w) * id_rtl, anim_en);
 164:lvgl/src/extra/widgets/tabview/lv_tabview.c ****         }
 165:lvgl/src/extra/widgets/tabview/lv_tabview.c ****     }
 166:lvgl/src/extra/widgets/tabview/lv_tabview.c ****     else {
 167:lvgl/src/extra/widgets/tabview/lv_tabview.c ****         lv_coord_t gap = lv_obj_get_style_pad_row(cont, LV_PART_MAIN);
 168:lvgl/src/extra/widgets/tabview/lv_tabview.c ****         lv_coord_t h = lv_obj_get_content_height(cont);
 169:lvgl/src/extra/widgets/tabview/lv_tabview.c ****         lv_obj_scroll_to_y(cont, id * (gap + h), anim_en);
 170:lvgl/src/extra/widgets/tabview/lv_tabview.c ****     }
 171:lvgl/src/extra/widgets/tabview/lv_tabview.c **** 
 172:lvgl/src/extra/widgets/tabview/lv_tabview.c ****     lv_obj_t * btns = lv_tabview_get_tab_btns(obj);
 173:lvgl/src/extra/widgets/tabview/lv_tabview.c ****     lv_btnmatrix_set_btn_ctrl(btns, id, LV_BTNMATRIX_CTRL_CHECKED);
 174:lvgl/src/extra/widgets/tabview/lv_tabview.c ****     tabview->tab_cur = id;
 175:lvgl/src/extra/widgets/tabview/lv_tabview.c **** }
 176:lvgl/src/extra/widgets/tabview/lv_tabview.c **** 
 177:lvgl/src/extra/widgets/tabview/lv_tabview.c **** uint16_t lv_tabview_get_tab_act(lv_obj_t * obj)
 178:lvgl/src/extra/widgets/tabview/lv_tabview.c **** {
 179:lvgl/src/extra/widgets/tabview/lv_tabview.c ****     LV_ASSERT_OBJ(obj, MY_CLASS);
 180:lvgl/src/extra/widgets/tabview/lv_tabview.c ****     lv_tabview_t * tabview = (lv_tabview_t *)obj;
 181:lvgl/src/extra/widgets/tabview/lv_tabview.c ****     return tabview->tab_cur;
 182:lvgl/src/extra/widgets/tabview/lv_tabview.c **** }
 183:lvgl/src/extra/widgets/tabview/lv_tabview.c **** 
 184:lvgl/src/extra/widgets/tabview/lv_tabview.c **** lv_obj_t * lv_tabview_get_content(lv_obj_t * tv)
 185:lvgl/src/extra/widgets/tabview/lv_tabview.c **** {
 186:lvgl/src/extra/widgets/tabview/lv_tabview.c ****     return lv_obj_get_child(tv, 1);
 187:lvgl/src/extra/widgets/tabview/lv_tabview.c **** }
 188:lvgl/src/extra/widgets/tabview/lv_tabview.c **** 
 189:lvgl/src/extra/widgets/tabview/lv_tabview.c **** lv_obj_t * lv_tabview_get_tab_btns(lv_obj_t * tv)
 190:lvgl/src/extra/widgets/tabview/lv_tabview.c **** {
 191:lvgl/src/extra/widgets/tabview/lv_tabview.c ****     return lv_obj_get_child(tv, 0);
 192:lvgl/src/extra/widgets/tabview/lv_tabview.c **** }
 193:lvgl/src/extra/widgets/tabview/lv_tabview.c **** 
 194:lvgl/src/extra/widgets/tabview/lv_tabview.c **** /**********************
 195:lvgl/src/extra/widgets/tabview/lv_tabview.c ****  *   STATIC FUNCTIONS
 196:lvgl/src/extra/widgets/tabview/lv_tabview.c ****  **********************/
 197:lvgl/src/extra/widgets/tabview/lv_tabview.c **** 
 198:lvgl/src/extra/widgets/tabview/lv_tabview.c **** static void lv_tabview_constructor(const lv_obj_class_t * class_p, lv_obj_t * obj)
 199:lvgl/src/extra/widgets/tabview/lv_tabview.c **** {
 200:lvgl/src/extra/widgets/tabview/lv_tabview.c ****     LV_UNUSED(class_p);
 201:lvgl/src/extra/widgets/tabview/lv_tabview.c ****     lv_tabview_t * tabview = (lv_tabview_t *)obj;
 202:lvgl/src/extra/widgets/tabview/lv_tabview.c **** 
ARM GAS  C:\Users\OSD\AppData\Local\Temp\ccmEsMWN.s 			page 5


 203:lvgl/src/extra/widgets/tabview/lv_tabview.c ****     tabview->tab_pos = tabpos_create;
 204:lvgl/src/extra/widgets/tabview/lv_tabview.c **** 
 205:lvgl/src/extra/widgets/tabview/lv_tabview.c ****     switch(tabview->tab_pos) {
 206:lvgl/src/extra/widgets/tabview/lv_tabview.c ****         case LV_DIR_TOP:
 207:lvgl/src/extra/widgets/tabview/lv_tabview.c ****             lv_obj_set_flex_flow(obj, LV_FLEX_FLOW_COLUMN);
 208:lvgl/src/extra/widgets/tabview/lv_tabview.c ****             break;
 209:lvgl/src/extra/widgets/tabview/lv_tabview.c ****         case LV_DIR_BOTTOM:
 210:lvgl/src/extra/widgets/tabview/lv_tabview.c ****             lv_obj_set_flex_flow(obj, LV_FLEX_FLOW_COLUMN_REVERSE);
 211:lvgl/src/extra/widgets/tabview/lv_tabview.c ****             break;
 212:lvgl/src/extra/widgets/tabview/lv_tabview.c ****         case LV_DIR_LEFT:
 213:lvgl/src/extra/widgets/tabview/lv_tabview.c ****             lv_obj_set_flex_flow(obj, LV_FLEX_FLOW_ROW);
 214:lvgl/src/extra/widgets/tabview/lv_tabview.c ****             break;
 215:lvgl/src/extra/widgets/tabview/lv_tabview.c ****         case LV_DIR_RIGHT:
 216:lvgl/src/extra/widgets/tabview/lv_tabview.c ****             lv_obj_set_flex_flow(obj, LV_FLEX_FLOW_ROW_REVERSE);
 217:lvgl/src/extra/widgets/tabview/lv_tabview.c ****             break;
 218:lvgl/src/extra/widgets/tabview/lv_tabview.c ****     }
 219:lvgl/src/extra/widgets/tabview/lv_tabview.c **** 
 220:lvgl/src/extra/widgets/tabview/lv_tabview.c ****     lv_obj_set_size(obj, LV_PCT(100), LV_PCT(100));
 221:lvgl/src/extra/widgets/tabview/lv_tabview.c **** 
 222:lvgl/src/extra/widgets/tabview/lv_tabview.c ****     lv_obj_t * btnm;
 223:lvgl/src/extra/widgets/tabview/lv_tabview.c ****     lv_obj_t * cont;
 224:lvgl/src/extra/widgets/tabview/lv_tabview.c **** 
 225:lvgl/src/extra/widgets/tabview/lv_tabview.c ****     btnm = lv_btnmatrix_create(obj);
 226:lvgl/src/extra/widgets/tabview/lv_tabview.c ****     cont = lv_obj_create(obj);
 227:lvgl/src/extra/widgets/tabview/lv_tabview.c **** 
 228:lvgl/src/extra/widgets/tabview/lv_tabview.c ****     lv_btnmatrix_set_one_checked(btnm, true);
 229:lvgl/src/extra/widgets/tabview/lv_tabview.c ****     tabview->map = lv_mem_alloc(sizeof(const char *));
 230:lvgl/src/extra/widgets/tabview/lv_tabview.c ****     tabview->map[0] = "";
 231:lvgl/src/extra/widgets/tabview/lv_tabview.c ****     lv_btnmatrix_set_map(btnm, (const char **)tabview->map);
 232:lvgl/src/extra/widgets/tabview/lv_tabview.c ****     lv_obj_add_event_cb(btnm, btns_value_changed_event_cb, LV_EVENT_VALUE_CHANGED, NULL);
 233:lvgl/src/extra/widgets/tabview/lv_tabview.c ****     lv_obj_add_flag(btnm, LV_OBJ_FLAG_EVENT_BUBBLE);
 234:lvgl/src/extra/widgets/tabview/lv_tabview.c **** 
 235:lvgl/src/extra/widgets/tabview/lv_tabview.c ****     lv_obj_add_event_cb(cont, cont_scroll_end_event_cb, LV_EVENT_ALL, NULL);
 236:lvgl/src/extra/widgets/tabview/lv_tabview.c ****     lv_obj_set_scrollbar_mode(cont, LV_SCROLLBAR_MODE_OFF);
 237:lvgl/src/extra/widgets/tabview/lv_tabview.c **** 
 238:lvgl/src/extra/widgets/tabview/lv_tabview.c ****     switch(tabview->tab_pos) {
 239:lvgl/src/extra/widgets/tabview/lv_tabview.c ****         case LV_DIR_TOP:
 240:lvgl/src/extra/widgets/tabview/lv_tabview.c ****         case LV_DIR_BOTTOM:
 241:lvgl/src/extra/widgets/tabview/lv_tabview.c ****             lv_obj_set_size(btnm, LV_PCT(100), tabsize_create);
 242:lvgl/src/extra/widgets/tabview/lv_tabview.c ****             lv_obj_set_width(cont, LV_PCT(100));
 243:lvgl/src/extra/widgets/tabview/lv_tabview.c ****             lv_obj_set_flex_grow(cont, 1);
 244:lvgl/src/extra/widgets/tabview/lv_tabview.c ****             break;
 245:lvgl/src/extra/widgets/tabview/lv_tabview.c ****         case LV_DIR_LEFT:
 246:lvgl/src/extra/widgets/tabview/lv_tabview.c ****         case LV_DIR_RIGHT:
 247:lvgl/src/extra/widgets/tabview/lv_tabview.c ****             lv_obj_set_size(btnm, tabsize_create, LV_PCT(100));
 248:lvgl/src/extra/widgets/tabview/lv_tabview.c ****             lv_obj_set_height(cont, LV_PCT(100));
 249:lvgl/src/extra/widgets/tabview/lv_tabview.c ****             lv_obj_set_flex_grow(cont, 1);
 250:lvgl/src/extra/widgets/tabview/lv_tabview.c ****             break;
 251:lvgl/src/extra/widgets/tabview/lv_tabview.c ****     }
 252:lvgl/src/extra/widgets/tabview/lv_tabview.c **** 
 253:lvgl/src/extra/widgets/tabview/lv_tabview.c ****     lv_group_t * g = lv_group_get_default();
 254:lvgl/src/extra/widgets/tabview/lv_tabview.c ****     if(g) lv_group_add_obj(g, btnm);
 255:lvgl/src/extra/widgets/tabview/lv_tabview.c **** 
 256:lvgl/src/extra/widgets/tabview/lv_tabview.c ****     if((tabview->tab_pos & LV_DIR_VER) != 0) {
 257:lvgl/src/extra/widgets/tabview/lv_tabview.c ****         lv_obj_set_flex_flow(cont, LV_FLEX_FLOW_ROW);
 258:lvgl/src/extra/widgets/tabview/lv_tabview.c ****         lv_obj_set_scroll_snap_x(cont, LV_SCROLL_SNAP_CENTER);
 259:lvgl/src/extra/widgets/tabview/lv_tabview.c ****     }
ARM GAS  C:\Users\OSD\AppData\Local\Temp\ccmEsMWN.s 			page 6


 260:lvgl/src/extra/widgets/tabview/lv_tabview.c ****     else {
 261:lvgl/src/extra/widgets/tabview/lv_tabview.c ****         lv_obj_set_flex_flow(cont, LV_FLEX_FLOW_COLUMN);
 262:lvgl/src/extra/widgets/tabview/lv_tabview.c ****         lv_obj_set_scroll_snap_y(cont, LV_SCROLL_SNAP_CENTER);
 263:lvgl/src/extra/widgets/tabview/lv_tabview.c ****     }
 264:lvgl/src/extra/widgets/tabview/lv_tabview.c ****     lv_obj_add_flag(cont, LV_OBJ_FLAG_SCROLL_ONE);
 265:lvgl/src/extra/widgets/tabview/lv_tabview.c ****     lv_obj_clear_flag(cont, LV_OBJ_FLAG_SCROLL_ON_FOCUS);
 266:lvgl/src/extra/widgets/tabview/lv_tabview.c **** }
 267:lvgl/src/extra/widgets/tabview/lv_tabview.c **** 
 268:lvgl/src/extra/widgets/tabview/lv_tabview.c **** static void lv_tabview_destructor(const lv_obj_class_t * class_p, lv_obj_t * obj)
 269:lvgl/src/extra/widgets/tabview/lv_tabview.c **** {
  28              		.loc 1 269 1 view -0
  29              		.cfi_startproc
  30              		@ args = 0, pretend = 0, frame = 0
  31              		@ frame_needed = 0, uses_anonymous_args = 0
  32              		.loc 1 269 1 is_stmt 0 view .LVU1
  33 0000 38B5     		push	{r3, r4, r5, lr}
  34              		.cfi_def_cfa_offset 16
  35              		.cfi_offset 3, -16
  36              		.cfi_offset 4, -12
  37              		.cfi_offset 5, -8
  38              		.cfi_offset 14, -4
  39 0002 0C46     		mov	r4, r1
 270:lvgl/src/extra/widgets/tabview/lv_tabview.c ****     LV_UNUSED(class_p);
  40              		.loc 1 270 5 is_stmt 1 view .LVU2
 271:lvgl/src/extra/widgets/tabview/lv_tabview.c ****     lv_tabview_t * tabview = (lv_tabview_t *)obj;
  41              		.loc 1 271 5 view .LVU3
  42              	.LVL1:
 272:lvgl/src/extra/widgets/tabview/lv_tabview.c **** 
 273:lvgl/src/extra/widgets/tabview/lv_tabview.c ****     uint32_t i;
  43              		.loc 1 273 5 view .LVU4
 274:lvgl/src/extra/widgets/tabview/lv_tabview.c ****     if(tabview->tab_pos & LV_DIR_VER) {
  44              		.loc 1 274 5 view .LVU5
  45              		.loc 1 274 15 is_stmt 0 view .LVU6
  46 0004 91F82C30 		ldrb	r3, [r1, #44]	@ zero_extendqisi2
  47              		.loc 1 274 7 view .LVU7
  48 0008 13F00C0F 		tst	r3, #12
  49 000c 18D1     		bne	.L8
  50              	.LVL2:
  51              	.L3:
 275:lvgl/src/extra/widgets/tabview/lv_tabview.c ****         for(i = 0; i < tabview->tab_cnt; i++) {
 276:lvgl/src/extra/widgets/tabview/lv_tabview.c ****             lv_mem_free((void *)tabview->map[i]);
 277:lvgl/src/extra/widgets/tabview/lv_tabview.c ****             tabview->map[i] = NULL;
 278:lvgl/src/extra/widgets/tabview/lv_tabview.c ****         }
 279:lvgl/src/extra/widgets/tabview/lv_tabview.c ****     }
 280:lvgl/src/extra/widgets/tabview/lv_tabview.c ****     if(tabview->tab_pos & LV_DIR_HOR) {
  52              		.loc 1 280 5 is_stmt 1 view .LVU8
  53              		.loc 1 280 15 is_stmt 0 view .LVU9
  54 000e 94F82C30 		ldrb	r3, [r4, #44]	@ zero_extendqisi2
  55              		.loc 1 280 7 view .LVU10
  56 0012 13F0030F 		tst	r3, #3
  57 0016 23D1     		bne	.L9
  58              	.L6:
 281:lvgl/src/extra/widgets/tabview/lv_tabview.c ****         for(i = 0; i < tabview->tab_cnt; i++) {
 282:lvgl/src/extra/widgets/tabview/lv_tabview.c ****             lv_mem_free((void *)tabview->map[i * 2]);
 283:lvgl/src/extra/widgets/tabview/lv_tabview.c ****             tabview->map[i * 2] = NULL;
 284:lvgl/src/extra/widgets/tabview/lv_tabview.c ****         }
 285:lvgl/src/extra/widgets/tabview/lv_tabview.c ****     }
ARM GAS  C:\Users\OSD\AppData\Local\Temp\ccmEsMWN.s 			page 7


 286:lvgl/src/extra/widgets/tabview/lv_tabview.c **** 
 287:lvgl/src/extra/widgets/tabview/lv_tabview.c ****     lv_mem_free(tabview->map);
  59              		.loc 1 287 5 is_stmt 1 view .LVU11
  60 0018 606A     		ldr	r0, [r4, #36]
  61 001a FFF7FEFF 		bl	lv_mem_free
  62              	.LVL3:
 288:lvgl/src/extra/widgets/tabview/lv_tabview.c ****     tabview->map = NULL;
  63              		.loc 1 288 5 view .LVU12
  64              		.loc 1 288 18 is_stmt 0 view .LVU13
  65 001e 0023     		movs	r3, #0
  66 0020 6362     		str	r3, [r4, #36]
 289:lvgl/src/extra/widgets/tabview/lv_tabview.c **** }
  67              		.loc 1 289 1 view .LVU14
  68 0022 38BD     		pop	{r3, r4, r5, pc}
  69              	.LVL4:
  70              	.L4:
 276:lvgl/src/extra/widgets/tabview/lv_tabview.c ****             tabview->map[i] = NULL;
  71              		.loc 1 276 13 is_stmt 1 discriminator 3 view .LVU15
 276:lvgl/src/extra/widgets/tabview/lv_tabview.c ****             tabview->map[i] = NULL;
  72              		.loc 1 276 40 is_stmt 0 discriminator 3 view .LVU16
  73 0024 636A     		ldr	r3, [r4, #36]
 276:lvgl/src/extra/widgets/tabview/lv_tabview.c ****             tabview->map[i] = NULL;
  74              		.loc 1 276 13 discriminator 3 view .LVU17
  75 0026 53F82500 		ldr	r0, [r3, r5, lsl #2]
  76 002a FFF7FEFF 		bl	lv_mem_free
  77              	.LVL5:
 277:lvgl/src/extra/widgets/tabview/lv_tabview.c ****         }
  78              		.loc 1 277 13 is_stmt 1 discriminator 3 view .LVU18
 277:lvgl/src/extra/widgets/tabview/lv_tabview.c ****         }
  79              		.loc 1 277 20 is_stmt 0 discriminator 3 view .LVU19
  80 002e 636A     		ldr	r3, [r4, #36]
 277:lvgl/src/extra/widgets/tabview/lv_tabview.c ****         }
  81              		.loc 1 277 29 discriminator 3 view .LVU20
  82 0030 0022     		movs	r2, #0
  83 0032 43F82520 		str	r2, [r3, r5, lsl #2]
 275:lvgl/src/extra/widgets/tabview/lv_tabview.c ****             lv_mem_free((void *)tabview->map[i]);
  84              		.loc 1 275 42 is_stmt 1 discriminator 3 view .LVU21
 275:lvgl/src/extra/widgets/tabview/lv_tabview.c ****             lv_mem_free((void *)tabview->map[i]);
  85              		.loc 1 275 43 is_stmt 0 discriminator 3 view .LVU22
  86 0036 0135     		adds	r5, r5, #1
  87              	.LVL6:
  88              	.L2:
 275:lvgl/src/extra/widgets/tabview/lv_tabview.c ****             lv_mem_free((void *)tabview->map[i]);
  89              		.loc 1 275 20 is_stmt 1 discriminator 1 view .LVU23
 275:lvgl/src/extra/widgets/tabview/lv_tabview.c ****             lv_mem_free((void *)tabview->map[i]);
  90              		.loc 1 275 31 is_stmt 0 discriminator 1 view .LVU24
  91 0038 238D     		ldrh	r3, [r4, #40]
 275:lvgl/src/extra/widgets/tabview/lv_tabview.c ****             lv_mem_free((void *)tabview->map[i]);
  92              		.loc 1 275 9 discriminator 1 view .LVU25
  93 003a AB42     		cmp	r3, r5
  94 003c F2D8     		bhi	.L4
  95 003e E6E7     		b	.L3
  96              	.LVL7:
  97              	.L8:
 275:lvgl/src/extra/widgets/tabview/lv_tabview.c ****             lv_mem_free((void *)tabview->map[i]);
  98              		.loc 1 275 15 view .LVU26
  99 0040 0025     		movs	r5, #0
ARM GAS  C:\Users\OSD\AppData\Local\Temp\ccmEsMWN.s 			page 8


 100 0042 F9E7     		b	.L2
 101              	.LVL8:
 102              	.L7:
 282:lvgl/src/extra/widgets/tabview/lv_tabview.c ****             tabview->map[i * 2] = NULL;
 103              		.loc 1 282 13 is_stmt 1 discriminator 3 view .LVU27
 282:lvgl/src/extra/widgets/tabview/lv_tabview.c ****             tabview->map[i * 2] = NULL;
 104              		.loc 1 282 40 is_stmt 0 discriminator 3 view .LVU28
 105 0044 636A     		ldr	r3, [r4, #36]
 282:lvgl/src/extra/widgets/tabview/lv_tabview.c ****             tabview->map[i * 2] = NULL;
 106              		.loc 1 282 13 discriminator 3 view .LVU29
 107 0046 53F83500 		ldr	r0, [r3, r5, lsl #3]
 108 004a FFF7FEFF 		bl	lv_mem_free
 109              	.LVL9:
 283:lvgl/src/extra/widgets/tabview/lv_tabview.c ****         }
 110              		.loc 1 283 13 is_stmt 1 discriminator 3 view .LVU30
 283:lvgl/src/extra/widgets/tabview/lv_tabview.c ****         }
 111              		.loc 1 283 20 is_stmt 0 discriminator 3 view .LVU31
 112 004e 636A     		ldr	r3, [r4, #36]
 283:lvgl/src/extra/widgets/tabview/lv_tabview.c ****         }
 113              		.loc 1 283 33 discriminator 3 view .LVU32
 114 0050 0022     		movs	r2, #0
 115 0052 43F83520 		str	r2, [r3, r5, lsl #3]
 281:lvgl/src/extra/widgets/tabview/lv_tabview.c ****             lv_mem_free((void *)tabview->map[i * 2]);
 116              		.loc 1 281 42 is_stmt 1 discriminator 3 view .LVU33
 281:lvgl/src/extra/widgets/tabview/lv_tabview.c ****             lv_mem_free((void *)tabview->map[i * 2]);
 117              		.loc 1 281 43 is_stmt 0 discriminator 3 view .LVU34
 118 0056 0135     		adds	r5, r5, #1
 119              	.LVL10:
 120              	.L5:
 281:lvgl/src/extra/widgets/tabview/lv_tabview.c ****             lv_mem_free((void *)tabview->map[i * 2]);
 121              		.loc 1 281 20 is_stmt 1 discriminator 1 view .LVU35
 281:lvgl/src/extra/widgets/tabview/lv_tabview.c ****             lv_mem_free((void *)tabview->map[i * 2]);
 122              		.loc 1 281 31 is_stmt 0 discriminator 1 view .LVU36
 123 0058 238D     		ldrh	r3, [r4, #40]
 281:lvgl/src/extra/widgets/tabview/lv_tabview.c ****             lv_mem_free((void *)tabview->map[i * 2]);
 124              		.loc 1 281 9 discriminator 1 view .LVU37
 125 005a AB42     		cmp	r3, r5
 126 005c F2D8     		bhi	.L7
 127 005e DBE7     		b	.L6
 128              	.LVL11:
 129              	.L9:
 281:lvgl/src/extra/widgets/tabview/lv_tabview.c ****             lv_mem_free((void *)tabview->map[i * 2]);
 130              		.loc 1 281 15 view .LVU38
 131 0060 0025     		movs	r5, #0
 132 0062 F9E7     		b	.L5
 133              		.cfi_endproc
 134              	.LFE212:
 136              		.section	.rodata.lv_tabview_constructor.str1.4,"aMS",%progbits,1
 137              		.align	2
 138              	.LC0:
 139 0000 00       		.ascii	"\000"
 140              		.section	.text.lv_tabview_constructor,"ax",%progbits
 141              		.align	1
 142              		.syntax unified
 143              		.thumb
 144              		.thumb_func
 146              	lv_tabview_constructor:
ARM GAS  C:\Users\OSD\AppData\Local\Temp\ccmEsMWN.s 			page 9


 147              	.LVL12:
 148              	.LFB211:
 199:lvgl/src/extra/widgets/tabview/lv_tabview.c ****     LV_UNUSED(class_p);
 149              		.loc 1 199 1 is_stmt 1 view -0
 150              		.cfi_startproc
 151              		@ args = 0, pretend = 0, frame = 0
 152              		@ frame_needed = 0, uses_anonymous_args = 0
 199:lvgl/src/extra/widgets/tabview/lv_tabview.c ****     LV_UNUSED(class_p);
 153              		.loc 1 199 1 is_stmt 0 view .LVU40
 154 0000 70B5     		push	{r4, r5, r6, lr}
 155              		.cfi_def_cfa_offset 16
 156              		.cfi_offset 4, -16
 157              		.cfi_offset 5, -12
 158              		.cfi_offset 6, -8
 159              		.cfi_offset 14, -4
 160 0002 0C46     		mov	r4, r1
 200:lvgl/src/extra/widgets/tabview/lv_tabview.c ****     lv_tabview_t * tabview = (lv_tabview_t *)obj;
 161              		.loc 1 200 5 is_stmt 1 view .LVU41
 201:lvgl/src/extra/widgets/tabview/lv_tabview.c **** 
 162              		.loc 1 201 5 view .LVU42
 163              	.LVL13:
 203:lvgl/src/extra/widgets/tabview/lv_tabview.c **** 
 164              		.loc 1 203 5 view .LVU43
 203:lvgl/src/extra/widgets/tabview/lv_tabview.c **** 
 165              		.loc 1 203 22 is_stmt 0 view .LVU44
 166 0004 524B     		ldr	r3, .L27
 167 0006 1B78     		ldrb	r3, [r3]	@ zero_extendqisi2
 168 0008 81F82C30 		strb	r3, [r1, #44]
 205:lvgl/src/extra/widgets/tabview/lv_tabview.c ****         case LV_DIR_TOP:
 169              		.loc 1 205 5 is_stmt 1 view .LVU45
 170 000c 013B     		subs	r3, r3, #1
 171 000e 072B     		cmp	r3, #7
 172 0010 09D8     		bhi	.L12
 173 0012 DFE803F0 		tbb	[pc, r3]
 174              	.L14:
 175 0016 59       		.byte	(.L17-.L14)/2
 176 0017 5E       		.byte	(.L16-.L14)/2
 177 0018 08       		.byte	(.L12-.L14)/2
 178 0019 04       		.byte	(.L15-.L14)/2
 179 001a 08       		.byte	(.L12-.L14)/2
 180 001b 08       		.byte	(.L12-.L14)/2
 181 001c 08       		.byte	(.L12-.L14)/2
 182 001d 54       		.byte	(.L13-.L14)/2
 183              		.p2align 1
 184              	.L15:
 207:lvgl/src/extra/widgets/tabview/lv_tabview.c ****             break;
 185              		.loc 1 207 13 view .LVU46
 186 001e 0121     		movs	r1, #1
 187              	.LVL14:
 207:lvgl/src/extra/widgets/tabview/lv_tabview.c ****             break;
 188              		.loc 1 207 13 is_stmt 0 view .LVU47
 189 0020 2046     		mov	r0, r4
 190              	.LVL15:
 207:lvgl/src/extra/widgets/tabview/lv_tabview.c ****             break;
 191              		.loc 1 207 13 view .LVU48
 192 0022 FFF7FEFF 		bl	lv_obj_set_flex_flow
 193              	.LVL16:
ARM GAS  C:\Users\OSD\AppData\Local\Temp\ccmEsMWN.s 			page 10


 208:lvgl/src/extra/widgets/tabview/lv_tabview.c ****         case LV_DIR_BOTTOM:
 194              		.loc 1 208 13 is_stmt 1 view .LVU49
 195              	.L12:
 220:lvgl/src/extra/widgets/tabview/lv_tabview.c **** 
 196              		.loc 1 220 5 view .LVU50
 197 0026 42F26402 		movw	r2, #8292
 198 002a 1146     		mov	r1, r2
 199 002c 2046     		mov	r0, r4
 200 002e FFF7FEFF 		bl	lv_obj_set_size
 201              	.LVL17:
 222:lvgl/src/extra/widgets/tabview/lv_tabview.c ****     lv_obj_t * cont;
 202              		.loc 1 222 5 view .LVU51
 223:lvgl/src/extra/widgets/tabview/lv_tabview.c **** 
 203              		.loc 1 223 5 view .LVU52
 225:lvgl/src/extra/widgets/tabview/lv_tabview.c ****     cont = lv_obj_create(obj);
 204              		.loc 1 225 5 view .LVU53
 225:lvgl/src/extra/widgets/tabview/lv_tabview.c ****     cont = lv_obj_create(obj);
 205              		.loc 1 225 12 is_stmt 0 view .LVU54
 206 0032 2046     		mov	r0, r4
 207 0034 FFF7FEFF 		bl	lv_btnmatrix_create
 208              	.LVL18:
 209 0038 0646     		mov	r6, r0
 210              	.LVL19:
 226:lvgl/src/extra/widgets/tabview/lv_tabview.c **** 
 211              		.loc 1 226 5 is_stmt 1 view .LVU55
 226:lvgl/src/extra/widgets/tabview/lv_tabview.c **** 
 212              		.loc 1 226 12 is_stmt 0 view .LVU56
 213 003a 2046     		mov	r0, r4
 214              	.LVL20:
 226:lvgl/src/extra/widgets/tabview/lv_tabview.c **** 
 215              		.loc 1 226 12 view .LVU57
 216 003c FFF7FEFF 		bl	lv_obj_create
 217              	.LVL21:
 218 0040 0546     		mov	r5, r0
 219              	.LVL22:
 228:lvgl/src/extra/widgets/tabview/lv_tabview.c ****     tabview->map = lv_mem_alloc(sizeof(const char *));
 220              		.loc 1 228 5 is_stmt 1 view .LVU58
 221 0042 0121     		movs	r1, #1
 222 0044 3046     		mov	r0, r6
 223              	.LVL23:
 228:lvgl/src/extra/widgets/tabview/lv_tabview.c ****     tabview->map = lv_mem_alloc(sizeof(const char *));
 224              		.loc 1 228 5 is_stmt 0 view .LVU59
 225 0046 FFF7FEFF 		bl	lv_btnmatrix_set_one_checked
 226              	.LVL24:
 229:lvgl/src/extra/widgets/tabview/lv_tabview.c ****     tabview->map[0] = "";
 227              		.loc 1 229 5 is_stmt 1 view .LVU60
 229:lvgl/src/extra/widgets/tabview/lv_tabview.c ****     tabview->map[0] = "";
 228              		.loc 1 229 20 is_stmt 0 view .LVU61
 229 004a 0420     		movs	r0, #4
 230 004c FFF7FEFF 		bl	lv_mem_alloc
 231              	.LVL25:
 229:lvgl/src/extra/widgets/tabview/lv_tabview.c ****     tabview->map[0] = "";
 232              		.loc 1 229 18 view .LVU62
 233 0050 6062     		str	r0, [r4, #36]
 230:lvgl/src/extra/widgets/tabview/lv_tabview.c ****     lv_btnmatrix_set_map(btnm, (const char **)tabview->map);
 234              		.loc 1 230 5 is_stmt 1 view .LVU63
 230:lvgl/src/extra/widgets/tabview/lv_tabview.c ****     lv_btnmatrix_set_map(btnm, (const char **)tabview->map);
ARM GAS  C:\Users\OSD\AppData\Local\Temp\ccmEsMWN.s 			page 11


 235              		.loc 1 230 21 is_stmt 0 view .LVU64
 236 0052 404B     		ldr	r3, .L27+4
 237 0054 0360     		str	r3, [r0]
 231:lvgl/src/extra/widgets/tabview/lv_tabview.c ****     lv_obj_add_event_cb(btnm, btns_value_changed_event_cb, LV_EVENT_VALUE_CHANGED, NULL);
 238              		.loc 1 231 5 is_stmt 1 view .LVU65
 239 0056 616A     		ldr	r1, [r4, #36]
 240 0058 3046     		mov	r0, r6
 241 005a FFF7FEFF 		bl	lv_btnmatrix_set_map
 242              	.LVL26:
 232:lvgl/src/extra/widgets/tabview/lv_tabview.c ****     lv_obj_add_flag(btnm, LV_OBJ_FLAG_EVENT_BUBBLE);
 243              		.loc 1 232 5 view .LVU66
 244 005e 0023     		movs	r3, #0
 245 0060 1C22     		movs	r2, #28
 246 0062 3D49     		ldr	r1, .L27+8
 247 0064 3046     		mov	r0, r6
 248 0066 FFF7FEFF 		bl	lv_obj_add_event_cb
 249              	.LVL27:
 233:lvgl/src/extra/widgets/tabview/lv_tabview.c **** 
 250              		.loc 1 233 5 view .LVU67
 251 006a 4FF48041 		mov	r1, #16384
 252 006e 3046     		mov	r0, r6
 253 0070 FFF7FEFF 		bl	lv_obj_add_flag
 254              	.LVL28:
 235:lvgl/src/extra/widgets/tabview/lv_tabview.c ****     lv_obj_set_scrollbar_mode(cont, LV_SCROLLBAR_MODE_OFF);
 255              		.loc 1 235 5 view .LVU68
 256 0074 0023     		movs	r3, #0
 257 0076 1A46     		mov	r2, r3
 258 0078 3849     		ldr	r1, .L27+12
 259 007a 2846     		mov	r0, r5
 260 007c FFF7FEFF 		bl	lv_obj_add_event_cb
 261              	.LVL29:
 236:lvgl/src/extra/widgets/tabview/lv_tabview.c **** 
 262              		.loc 1 236 5 view .LVU69
 263 0080 0021     		movs	r1, #0
 264 0082 2846     		mov	r0, r5
 265 0084 FFF7FEFF 		bl	lv_obj_set_scrollbar_mode
 266              	.LVL30:
 238:lvgl/src/extra/widgets/tabview/lv_tabview.c ****         case LV_DIR_TOP:
 267              		.loc 1 238 5 view .LVU70
 238:lvgl/src/extra/widgets/tabview/lv_tabview.c ****         case LV_DIR_TOP:
 268              		.loc 1 238 19 is_stmt 0 view .LVU71
 269 0088 94F82C30 		ldrb	r3, [r4, #44]	@ zero_extendqisi2
 238:lvgl/src/extra/widgets/tabview/lv_tabview.c ****         case LV_DIR_TOP:
 270              		.loc 1 238 5 view .LVU72
 271 008c 042B     		cmp	r3, #4
 272 008e 27D0     		beq	.L18
 273 0090 24D8     		bhi	.L19
 274 0092 013B     		subs	r3, r3, #1
 275 0094 DBB2     		uxtb	r3, r3
 276 0096 012B     		cmp	r3, #1
 277 0098 33D8     		bhi	.L20
 247:lvgl/src/extra/widgets/tabview/lv_tabview.c ****             lv_obj_set_height(cont, LV_PCT(100));
 278              		.loc 1 247 13 is_stmt 1 view .LVU73
 279 009a 42F26402 		movw	r2, #8292
 280 009e 304B     		ldr	r3, .L27+16
 281 00a0 B3F90010 		ldrsh	r1, [r3]
 282 00a4 3046     		mov	r0, r6
ARM GAS  C:\Users\OSD\AppData\Local\Temp\ccmEsMWN.s 			page 12


 283 00a6 FFF7FEFF 		bl	lv_obj_set_size
 284              	.LVL31:
 248:lvgl/src/extra/widgets/tabview/lv_tabview.c ****             lv_obj_set_flex_grow(cont, 1);
 285              		.loc 1 248 13 view .LVU74
 286 00aa 42F26401 		movw	r1, #8292
 287 00ae 2846     		mov	r0, r5
 288 00b0 FFF7FEFF 		bl	lv_obj_set_height
 289              	.LVL32:
 249:lvgl/src/extra/widgets/tabview/lv_tabview.c ****             break;
 290              		.loc 1 249 13 view .LVU75
 291 00b4 0121     		movs	r1, #1
 292 00b6 2846     		mov	r0, r5
 293 00b8 FFF7FEFF 		bl	lv_obj_set_flex_grow
 294              	.LVL33:
 250:lvgl/src/extra/widgets/tabview/lv_tabview.c ****     }
 295              		.loc 1 250 13 view .LVU76
 296 00bc 21E0     		b	.L20
 297              	.LVL34:
 298              	.L13:
 210:lvgl/src/extra/widgets/tabview/lv_tabview.c ****             break;
 299              		.loc 1 210 13 view .LVU77
 300 00be 0921     		movs	r1, #9
 301              	.LVL35:
 210:lvgl/src/extra/widgets/tabview/lv_tabview.c ****             break;
 302              		.loc 1 210 13 is_stmt 0 view .LVU78
 303 00c0 2046     		mov	r0, r4
 304              	.LVL36:
 210:lvgl/src/extra/widgets/tabview/lv_tabview.c ****             break;
 305              		.loc 1 210 13 view .LVU79
 306 00c2 FFF7FEFF 		bl	lv_obj_set_flex_flow
 307              	.LVL37:
 211:lvgl/src/extra/widgets/tabview/lv_tabview.c ****         case LV_DIR_LEFT:
 308              		.loc 1 211 13 is_stmt 1 view .LVU80
 309 00c6 AEE7     		b	.L12
 310              	.LVL38:
 311              	.L17:
 213:lvgl/src/extra/widgets/tabview/lv_tabview.c ****             break;
 312              		.loc 1 213 13 view .LVU81
 313 00c8 0021     		movs	r1, #0
 314              	.LVL39:
 213:lvgl/src/extra/widgets/tabview/lv_tabview.c ****             break;
 315              		.loc 1 213 13 is_stmt 0 view .LVU82
 316 00ca 2046     		mov	r0, r4
 317              	.LVL40:
 213:lvgl/src/extra/widgets/tabview/lv_tabview.c ****             break;
 318              		.loc 1 213 13 view .LVU83
 319 00cc FFF7FEFF 		bl	lv_obj_set_flex_flow
 320              	.LVL41:
 214:lvgl/src/extra/widgets/tabview/lv_tabview.c ****         case LV_DIR_RIGHT:
 321              		.loc 1 214 13 is_stmt 1 view .LVU84
 322 00d0 A9E7     		b	.L12
 323              	.LVL42:
 324              	.L16:
 216:lvgl/src/extra/widgets/tabview/lv_tabview.c ****             break;
 325              		.loc 1 216 13 view .LVU85
 326 00d2 0821     		movs	r1, #8
 327              	.LVL43:
ARM GAS  C:\Users\OSD\AppData\Local\Temp\ccmEsMWN.s 			page 13


 216:lvgl/src/extra/widgets/tabview/lv_tabview.c ****             break;
 328              		.loc 1 216 13 is_stmt 0 view .LVU86
 329 00d4 2046     		mov	r0, r4
 330              	.LVL44:
 216:lvgl/src/extra/widgets/tabview/lv_tabview.c ****             break;
 331              		.loc 1 216 13 view .LVU87
 332 00d6 FFF7FEFF 		bl	lv_obj_set_flex_flow
 333              	.LVL45:
 217:lvgl/src/extra/widgets/tabview/lv_tabview.c ****     }
 334              		.loc 1 217 13 is_stmt 1 view .LVU88
 335 00da A4E7     		b	.L12
 336              	.LVL46:
 337              	.L19:
 238:lvgl/src/extra/widgets/tabview/lv_tabview.c ****         case LV_DIR_TOP:
 338              		.loc 1 238 5 is_stmt 0 view .LVU89
 339 00dc 082B     		cmp	r3, #8
 340 00de 10D1     		bne	.L20
 341              	.L18:
 241:lvgl/src/extra/widgets/tabview/lv_tabview.c ****             lv_obj_set_width(cont, LV_PCT(100));
 342              		.loc 1 241 13 is_stmt 1 view .LVU90
 343 00e0 1F4B     		ldr	r3, .L27+16
 344 00e2 B3F90020 		ldrsh	r2, [r3]
 345 00e6 42F26401 		movw	r1, #8292
 346 00ea 3046     		mov	r0, r6
 347 00ec FFF7FEFF 		bl	lv_obj_set_size
 348              	.LVL47:
 242:lvgl/src/extra/widgets/tabview/lv_tabview.c ****             lv_obj_set_flex_grow(cont, 1);
 349              		.loc 1 242 13 view .LVU91
 350 00f0 42F26401 		movw	r1, #8292
 351 00f4 2846     		mov	r0, r5
 352 00f6 FFF7FEFF 		bl	lv_obj_set_width
 353              	.LVL48:
 243:lvgl/src/extra/widgets/tabview/lv_tabview.c ****             break;
 354              		.loc 1 243 13 view .LVU92
 355 00fa 0121     		movs	r1, #1
 356 00fc 2846     		mov	r0, r5
 357 00fe FFF7FEFF 		bl	lv_obj_set_flex_grow
 358              	.LVL49:
 244:lvgl/src/extra/widgets/tabview/lv_tabview.c ****         case LV_DIR_LEFT:
 359              		.loc 1 244 13 view .LVU93
 360              	.L20:
 253:lvgl/src/extra/widgets/tabview/lv_tabview.c ****     if(g) lv_group_add_obj(g, btnm);
 361              		.loc 1 253 5 view .LVU94
 253:lvgl/src/extra/widgets/tabview/lv_tabview.c ****     if(g) lv_group_add_obj(g, btnm);
 362              		.loc 1 253 22 is_stmt 0 view .LVU95
 363 0102 FFF7FEFF 		bl	lv_group_get_default
 364              	.LVL50:
 254:lvgl/src/extra/widgets/tabview/lv_tabview.c **** 
 365              		.loc 1 254 5 is_stmt 1 view .LVU96
 254:lvgl/src/extra/widgets/tabview/lv_tabview.c **** 
 366              		.loc 1 254 7 is_stmt 0 view .LVU97
 367 0106 10B1     		cbz	r0, .L22
 254:lvgl/src/extra/widgets/tabview/lv_tabview.c **** 
 368              		.loc 1 254 11 is_stmt 1 discriminator 1 view .LVU98
 369 0108 3146     		mov	r1, r6
 370 010a FFF7FEFF 		bl	lv_group_add_obj
 371              	.LVL51:
ARM GAS  C:\Users\OSD\AppData\Local\Temp\ccmEsMWN.s 			page 14


 372              	.L22:
 256:lvgl/src/extra/widgets/tabview/lv_tabview.c ****         lv_obj_set_flex_flow(cont, LV_FLEX_FLOW_ROW);
 373              		.loc 1 256 5 view .LVU99
 256:lvgl/src/extra/widgets/tabview/lv_tabview.c ****         lv_obj_set_flex_flow(cont, LV_FLEX_FLOW_ROW);
 374              		.loc 1 256 16 is_stmt 0 view .LVU100
 375 010e 94F82C30 		ldrb	r3, [r4, #44]	@ zero_extendqisi2
 256:lvgl/src/extra/widgets/tabview/lv_tabview.c ****         lv_obj_set_flex_flow(cont, LV_FLEX_FLOW_ROW);
 376              		.loc 1 256 7 view .LVU101
 377 0112 13F00C0F 		tst	r3, #12
 378 0116 11D0     		beq	.L23
 257:lvgl/src/extra/widgets/tabview/lv_tabview.c ****         lv_obj_set_scroll_snap_x(cont, LV_SCROLL_SNAP_CENTER);
 379              		.loc 1 257 9 is_stmt 1 view .LVU102
 380 0118 0021     		movs	r1, #0
 381 011a 2846     		mov	r0, r5
 382 011c FFF7FEFF 		bl	lv_obj_set_flex_flow
 383              	.LVL52:
 258:lvgl/src/extra/widgets/tabview/lv_tabview.c ****     }
 384              		.loc 1 258 9 view .LVU103
 385 0120 0321     		movs	r1, #3
 386 0122 2846     		mov	r0, r5
 387 0124 FFF7FEFF 		bl	lv_obj_set_scroll_snap_x
 388              	.LVL53:
 389              	.L24:
 264:lvgl/src/extra/widgets/tabview/lv_tabview.c ****     lv_obj_clear_flag(cont, LV_OBJ_FLAG_SCROLL_ON_FOCUS);
 390              		.loc 1 264 5 view .LVU104
 391 0128 8021     		movs	r1, #128
 392 012a 2846     		mov	r0, r5
 393 012c FFF7FEFF 		bl	lv_obj_add_flag
 394              	.LVL54:
 265:lvgl/src/extra/widgets/tabview/lv_tabview.c **** }
 395              		.loc 1 265 5 view .LVU105
 396 0130 4FF48061 		mov	r1, #1024
 397 0134 2846     		mov	r0, r5
 398 0136 FFF7FEFF 		bl	lv_obj_clear_flag
 399              	.LVL55:
 266:lvgl/src/extra/widgets/tabview/lv_tabview.c **** 
 400              		.loc 1 266 1 is_stmt 0 view .LVU106
 401 013a 70BD     		pop	{r4, r5, r6, pc}
 402              	.LVL56:
 403              	.L23:
 261:lvgl/src/extra/widgets/tabview/lv_tabview.c ****         lv_obj_set_scroll_snap_y(cont, LV_SCROLL_SNAP_CENTER);
 404              		.loc 1 261 9 is_stmt 1 view .LVU107
 405 013c 0121     		movs	r1, #1
 406 013e 2846     		mov	r0, r5
 407 0140 FFF7FEFF 		bl	lv_obj_set_flex_flow
 408              	.LVL57:
 262:lvgl/src/extra/widgets/tabview/lv_tabview.c ****     }
 409              		.loc 1 262 9 view .LVU108
 410 0144 0321     		movs	r1, #3
 411 0146 2846     		mov	r0, r5
 412 0148 FFF7FEFF 		bl	lv_obj_set_scroll_snap_y
 413              	.LVL58:
 414 014c ECE7     		b	.L24
 415              	.L28:
 416 014e 00BF     		.align	2
 417              	.L27:
 418 0150 00000000 		.word	.LANCHOR0
ARM GAS  C:\Users\OSD\AppData\Local\Temp\ccmEsMWN.s 			page 15


 419 0154 00000000 		.word	.LC0
 420 0158 00000000 		.word	btns_value_changed_event_cb
 421 015c 00000000 		.word	cont_scroll_end_event_cb
 422 0160 00000000 		.word	.LANCHOR1
 423              		.cfi_endproc
 424              	.LFE211:
 426              		.section	.text.lv_tabview_create,"ax",%progbits
 427              		.align	1
 428              		.global	lv_tabview_create
 429              		.syntax unified
 430              		.thumb
 431              		.thumb_func
 433              	lv_tabview_create:
 434              	.LVL59:
 435              	.LFB204:
  57:lvgl/src/extra/widgets/tabview/lv_tabview.c ****     LV_LOG_INFO("begin");
 436              		.loc 1 57 1 view -0
 437              		.cfi_startproc
 438              		@ args = 0, pretend = 0, frame = 0
 439              		@ frame_needed = 0, uses_anonymous_args = 0
  57:lvgl/src/extra/widgets/tabview/lv_tabview.c ****     LV_LOG_INFO("begin");
 440              		.loc 1 57 1 is_stmt 0 view .LVU110
 441 0000 10B5     		push	{r4, lr}
 442              		.cfi_def_cfa_offset 8
 443              		.cfi_offset 4, -8
 444              		.cfi_offset 14, -4
  58:lvgl/src/extra/widgets/tabview/lv_tabview.c ****     tabpos_create = tab_pos;
 445              		.loc 1 58 5 is_stmt 1 view .LVU111
  58:lvgl/src/extra/widgets/tabview/lv_tabview.c ****     tabpos_create = tab_pos;
 446              		.loc 1 58 5 view .LVU112
  58:lvgl/src/extra/widgets/tabview/lv_tabview.c ****     tabpos_create = tab_pos;
 447              		.loc 1 58 5 view .LVU113
  59:lvgl/src/extra/widgets/tabview/lv_tabview.c ****     tabsize_create = tab_size;
 448              		.loc 1 59 5 view .LVU114
  59:lvgl/src/extra/widgets/tabview/lv_tabview.c ****     tabsize_create = tab_size;
 449              		.loc 1 59 19 is_stmt 0 view .LVU115
 450 0002 064B     		ldr	r3, .L31
 451 0004 1970     		strb	r1, [r3]
  60:lvgl/src/extra/widgets/tabview/lv_tabview.c **** 
 452              		.loc 1 60 5 is_stmt 1 view .LVU116
  60:lvgl/src/extra/widgets/tabview/lv_tabview.c **** 
 453              		.loc 1 60 20 is_stmt 0 view .LVU117
 454 0006 064B     		ldr	r3, .L31+4
 455 0008 1A80     		strh	r2, [r3]	@ movhi
  62:lvgl/src/extra/widgets/tabview/lv_tabview.c ****     lv_obj_class_init_obj(obj);
 456              		.loc 1 62 5 is_stmt 1 view .LVU118
  62:lvgl/src/extra/widgets/tabview/lv_tabview.c ****     lv_obj_class_init_obj(obj);
 457              		.loc 1 62 22 is_stmt 0 view .LVU119
 458 000a 0146     		mov	r1, r0
 459              	.LVL60:
  62:lvgl/src/extra/widgets/tabview/lv_tabview.c ****     lv_obj_class_init_obj(obj);
 460              		.loc 1 62 22 view .LVU120
 461 000c 0548     		ldr	r0, .L31+8
 462              	.LVL61:
  62:lvgl/src/extra/widgets/tabview/lv_tabview.c ****     lv_obj_class_init_obj(obj);
 463              		.loc 1 62 22 view .LVU121
 464 000e FFF7FEFF 		bl	lv_obj_class_create_obj
ARM GAS  C:\Users\OSD\AppData\Local\Temp\ccmEsMWN.s 			page 16


 465              	.LVL62:
  62:lvgl/src/extra/widgets/tabview/lv_tabview.c ****     lv_obj_class_init_obj(obj);
 466              		.loc 1 62 22 view .LVU122
 467 0012 0446     		mov	r4, r0
 468              	.LVL63:
  63:lvgl/src/extra/widgets/tabview/lv_tabview.c ****     return obj;
 469              		.loc 1 63 5 is_stmt 1 view .LVU123
 470 0014 FFF7FEFF 		bl	lv_obj_class_init_obj
 471              	.LVL64:
  64:lvgl/src/extra/widgets/tabview/lv_tabview.c **** }
 472              		.loc 1 64 5 view .LVU124
  65:lvgl/src/extra/widgets/tabview/lv_tabview.c **** 
 473              		.loc 1 65 1 is_stmt 0 view .LVU125
 474 0018 2046     		mov	r0, r4
 475 001a 10BD     		pop	{r4, pc}
 476              	.LVL65:
 477              	.L32:
  65:lvgl/src/extra/widgets/tabview/lv_tabview.c **** 
 478              		.loc 1 65 1 view .LVU126
 479              		.align	2
 480              	.L31:
 481 001c 00000000 		.word	.LANCHOR0
 482 0020 00000000 		.word	.LANCHOR1
 483 0024 00000000 		.word	.LANCHOR2
 484              		.cfi_endproc
 485              	.LFE204:
 487              		.section	.text.lv_tabview_rename_tab,"ax",%progbits
 488              		.align	1
 489              		.global	lv_tabview_rename_tab
 490              		.syntax unified
 491              		.thumb
 492              		.thumb_func
 494              	lv_tabview_rename_tab:
 495              	.LVL66:
 496              	.LFB206:
 125:lvgl/src/extra/widgets/tabview/lv_tabview.c ****     LV_ASSERT_OBJ(obj, MY_CLASS);
 497              		.loc 1 125 1 is_stmt 1 view -0
 498              		.cfi_startproc
 499              		@ args = 0, pretend = 0, frame = 0
 500              		@ frame_needed = 0, uses_anonymous_args = 0
 125:lvgl/src/extra/widgets/tabview/lv_tabview.c ****     LV_ASSERT_OBJ(obj, MY_CLASS);
 501              		.loc 1 125 1 is_stmt 0 view .LVU128
 502 0000 F8B5     		push	{r3, r4, r5, r6, r7, lr}
 503              		.cfi_def_cfa_offset 24
 504              		.cfi_offset 3, -24
 505              		.cfi_offset 4, -20
 506              		.cfi_offset 5, -16
 507              		.cfi_offset 6, -12
 508              		.cfi_offset 7, -8
 509              		.cfi_offset 14, -4
 126:lvgl/src/extra/widgets/tabview/lv_tabview.c ****     lv_tabview_t * tabview = (lv_tabview_t *)obj;
 510              		.loc 1 126 5 is_stmt 1 view .LVU129
 126:lvgl/src/extra/widgets/tabview/lv_tabview.c ****     lv_tabview_t * tabview = (lv_tabview_t *)obj;
 511              		.loc 1 126 5 view .LVU130
 126:lvgl/src/extra/widgets/tabview/lv_tabview.c ****     lv_tabview_t * tabview = (lv_tabview_t *)obj;
 512              		.loc 1 126 5 view .LVU131
 127:lvgl/src/extra/widgets/tabview/lv_tabview.c **** 
ARM GAS  C:\Users\OSD\AppData\Local\Temp\ccmEsMWN.s 			page 17


 513              		.loc 1 127 5 view .LVU132
 514              	.LVL67:
 129:lvgl/src/extra/widgets/tabview/lv_tabview.c ****     if(tabview->tab_pos & LV_DIR_HOR) id *= 2;
 515              		.loc 1 129 5 view .LVU133
 129:lvgl/src/extra/widgets/tabview/lv_tabview.c ****     if(tabview->tab_pos & LV_DIR_HOR) id *= 2;
 516              		.loc 1 129 21 is_stmt 0 view .LVU134
 517 0002 038D     		ldrh	r3, [r0, #40]
 129:lvgl/src/extra/widgets/tabview/lv_tabview.c ****     if(tabview->tab_pos & LV_DIR_HOR) id *= 2;
 518              		.loc 1 129 7 view .LVU135
 519 0004 8B42     		cmp	r3, r1
 520 0006 1FD9     		bls	.L33
 521 0008 0446     		mov	r4, r0
 522 000a 0D46     		mov	r5, r1
 523 000c 1646     		mov	r6, r2
 130:lvgl/src/extra/widgets/tabview/lv_tabview.c **** 
 524              		.loc 1 130 5 is_stmt 1 view .LVU136
 130:lvgl/src/extra/widgets/tabview/lv_tabview.c **** 
 525              		.loc 1 130 15 is_stmt 0 view .LVU137
 526 000e 90F82C30 		ldrb	r3, [r0, #44]	@ zero_extendqisi2
 130:lvgl/src/extra/widgets/tabview/lv_tabview.c **** 
 527              		.loc 1 130 7 view .LVU138
 528 0012 13F0030F 		tst	r3, #3
 529 0016 00D0     		beq	.L35
 130:lvgl/src/extra/widgets/tabview/lv_tabview.c **** 
 530              		.loc 1 130 39 is_stmt 1 discriminator 1 view .LVU139
 130:lvgl/src/extra/widgets/tabview/lv_tabview.c **** 
 531              		.loc 1 130 42 is_stmt 0 discriminator 1 view .LVU140
 532 0018 4D00     		lsls	r5, r1, #1
 533              	.LVL68:
 534              	.L35:
 132:lvgl/src/extra/widgets/tabview/lv_tabview.c ****     tabview->map[id] = lv_mem_alloc(strlen(new_name) + 1);
 535              		.loc 1 132 5 is_stmt 1 view .LVU141
 132:lvgl/src/extra/widgets/tabview/lv_tabview.c ****     tabview->map[id] = lv_mem_alloc(strlen(new_name) + 1);
 536              		.loc 1 132 32 is_stmt 0 view .LVU142
 537 001a 636A     		ldr	r3, [r4, #36]
 132:lvgl/src/extra/widgets/tabview/lv_tabview.c ****     tabview->map[id] = lv_mem_alloc(strlen(new_name) + 1);
 538              		.loc 1 132 5 view .LVU143
 539 001c 53F82500 		ldr	r0, [r3, r5, lsl #2]
 540              	.LVL69:
 132:lvgl/src/extra/widgets/tabview/lv_tabview.c ****     tabview->map[id] = lv_mem_alloc(strlen(new_name) + 1);
 541              		.loc 1 132 5 view .LVU144
 542 0020 FFF7FEFF 		bl	lv_mem_free
 543              	.LVL70:
 133:lvgl/src/extra/widgets/tabview/lv_tabview.c ****     strcpy((void *)tabview->map[id], new_name);
 544              		.loc 1 133 5 is_stmt 1 view .LVU145
 133:lvgl/src/extra/widgets/tabview/lv_tabview.c ****     strcpy((void *)tabview->map[id], new_name);
 545              		.loc 1 133 37 is_stmt 0 view .LVU146
 546 0024 3046     		mov	r0, r6
 547 0026 FFF7FEFF 		bl	strlen
 548              	.LVL71:
 133:lvgl/src/extra/widgets/tabview/lv_tabview.c ****     strcpy((void *)tabview->map[id], new_name);
 549              		.loc 1 133 12 view .LVU147
 550 002a 676A     		ldr	r7, [r4, #36]
 133:lvgl/src/extra/widgets/tabview/lv_tabview.c ****     strcpy((void *)tabview->map[id], new_name);
 551              		.loc 1 133 24 view .LVU148
 552 002c 0130     		adds	r0, r0, #1
 553 002e FFF7FEFF 		bl	lv_mem_alloc
ARM GAS  C:\Users\OSD\AppData\Local\Temp\ccmEsMWN.s 			page 18


 554              	.LVL72:
 133:lvgl/src/extra/widgets/tabview/lv_tabview.c ****     strcpy((void *)tabview->map[id], new_name);
 555              		.loc 1 133 22 view .LVU149
 556 0032 47F82500 		str	r0, [r7, r5, lsl #2]
 134:lvgl/src/extra/widgets/tabview/lv_tabview.c ****     lv_obj_invalidate(obj);
 557              		.loc 1 134 5 is_stmt 1 view .LVU150
 134:lvgl/src/extra/widgets/tabview/lv_tabview.c ****     lv_obj_invalidate(obj);
 558              		.loc 1 134 27 is_stmt 0 view .LVU151
 559 0036 636A     		ldr	r3, [r4, #36]
 134:lvgl/src/extra/widgets/tabview/lv_tabview.c ****     lv_obj_invalidate(obj);
 560              		.loc 1 134 5 view .LVU152
 561 0038 3146     		mov	r1, r6
 562 003a 53F82500 		ldr	r0, [r3, r5, lsl #2]
 563 003e FFF7FEFF 		bl	strcpy
 564              	.LVL73:
 135:lvgl/src/extra/widgets/tabview/lv_tabview.c **** }
 565              		.loc 1 135 5 is_stmt 1 view .LVU153
 566 0042 2046     		mov	r0, r4
 567 0044 FFF7FEFF 		bl	lv_obj_invalidate
 568              	.LVL74:
 569              	.L33:
 136:lvgl/src/extra/widgets/tabview/lv_tabview.c **** 
 570              		.loc 1 136 1 is_stmt 0 view .LVU154
 571 0048 F8BD     		pop	{r3, r4, r5, r6, r7, pc}
 572              		.cfi_endproc
 573              	.LFE206:
 575              		.section	.text.lv_tabview_get_tab_act,"ax",%progbits
 576              		.align	1
 577              		.global	lv_tabview_get_tab_act
 578              		.syntax unified
 579              		.thumb
 580              		.thumb_func
 582              	lv_tabview_get_tab_act:
 583              	.LVL75:
 584              	.LFB208:
 178:lvgl/src/extra/widgets/tabview/lv_tabview.c ****     LV_ASSERT_OBJ(obj, MY_CLASS);
 585              		.loc 1 178 1 is_stmt 1 view -0
 586              		.cfi_startproc
 587              		@ args = 0, pretend = 0, frame = 0
 588              		@ frame_needed = 0, uses_anonymous_args = 0
 589              		@ link register save eliminated.
 179:lvgl/src/extra/widgets/tabview/lv_tabview.c ****     lv_tabview_t * tabview = (lv_tabview_t *)obj;
 590              		.loc 1 179 5 view .LVU156
 179:lvgl/src/extra/widgets/tabview/lv_tabview.c ****     lv_tabview_t * tabview = (lv_tabview_t *)obj;
 591              		.loc 1 179 5 view .LVU157
 179:lvgl/src/extra/widgets/tabview/lv_tabview.c ****     lv_tabview_t * tabview = (lv_tabview_t *)obj;
 592              		.loc 1 179 5 view .LVU158
 180:lvgl/src/extra/widgets/tabview/lv_tabview.c ****     return tabview->tab_cur;
 593              		.loc 1 180 5 view .LVU159
 181:lvgl/src/extra/widgets/tabview/lv_tabview.c **** }
 594              		.loc 1 181 5 view .LVU160
 182:lvgl/src/extra/widgets/tabview/lv_tabview.c **** 
 595              		.loc 1 182 1 is_stmt 0 view .LVU161
 596 0000 408D     		ldrh	r0, [r0, #42]
 597              	.LVL76:
 182:lvgl/src/extra/widgets/tabview/lv_tabview.c **** 
 598              		.loc 1 182 1 view .LVU162
ARM GAS  C:\Users\OSD\AppData\Local\Temp\ccmEsMWN.s 			page 19


 599 0002 7047     		bx	lr
 600              		.cfi_endproc
 601              	.LFE208:
 603              		.section	.text.lv_tabview_get_content,"ax",%progbits
 604              		.align	1
 605              		.global	lv_tabview_get_content
 606              		.syntax unified
 607              		.thumb
 608              		.thumb_func
 610              	lv_tabview_get_content:
 611              	.LVL77:
 612              	.LFB209:
 185:lvgl/src/extra/widgets/tabview/lv_tabview.c ****     return lv_obj_get_child(tv, 1);
 613              		.loc 1 185 1 is_stmt 1 view -0
 614              		.cfi_startproc
 615              		@ args = 0, pretend = 0, frame = 0
 616              		@ frame_needed = 0, uses_anonymous_args = 0
 185:lvgl/src/extra/widgets/tabview/lv_tabview.c ****     return lv_obj_get_child(tv, 1);
 617              		.loc 1 185 1 is_stmt 0 view .LVU164
 618 0000 08B5     		push	{r3, lr}
 619              		.cfi_def_cfa_offset 8
 620              		.cfi_offset 3, -8
 621              		.cfi_offset 14, -4
 186:lvgl/src/extra/widgets/tabview/lv_tabview.c **** }
 622              		.loc 1 186 5 is_stmt 1 view .LVU165
 186:lvgl/src/extra/widgets/tabview/lv_tabview.c **** }
 623              		.loc 1 186 12 is_stmt 0 view .LVU166
 624 0002 0121     		movs	r1, #1
 625 0004 FFF7FEFF 		bl	lv_obj_get_child
 626              	.LVL78:
 187:lvgl/src/extra/widgets/tabview/lv_tabview.c **** 
 627              		.loc 1 187 1 view .LVU167
 628 0008 08BD     		pop	{r3, pc}
 629              		.cfi_endproc
 630              	.LFE209:
 632              		.section	.text.lv_tabview_get_tab_btns,"ax",%progbits
 633              		.align	1
 634              		.global	lv_tabview_get_tab_btns
 635              		.syntax unified
 636              		.thumb
 637              		.thumb_func
 639              	lv_tabview_get_tab_btns:
 640              	.LVL79:
 641              	.LFB210:
 190:lvgl/src/extra/widgets/tabview/lv_tabview.c ****     return lv_obj_get_child(tv, 0);
 642              		.loc 1 190 1 is_stmt 1 view -0
 643              		.cfi_startproc
 644              		@ args = 0, pretend = 0, frame = 0
 645              		@ frame_needed = 0, uses_anonymous_args = 0
 190:lvgl/src/extra/widgets/tabview/lv_tabview.c ****     return lv_obj_get_child(tv, 0);
 646              		.loc 1 190 1 is_stmt 0 view .LVU169
 647 0000 08B5     		push	{r3, lr}
 648              		.cfi_def_cfa_offset 8
 649              		.cfi_offset 3, -8
 650              		.cfi_offset 14, -4
 191:lvgl/src/extra/widgets/tabview/lv_tabview.c **** }
 651              		.loc 1 191 5 is_stmt 1 view .LVU170
ARM GAS  C:\Users\OSD\AppData\Local\Temp\ccmEsMWN.s 			page 20


 191:lvgl/src/extra/widgets/tabview/lv_tabview.c **** }
 652              		.loc 1 191 12 is_stmt 0 view .LVU171
 653 0002 0021     		movs	r1, #0
 654 0004 FFF7FEFF 		bl	lv_obj_get_child
 655              	.LVL80:
 192:lvgl/src/extra/widgets/tabview/lv_tabview.c **** 
 656              		.loc 1 192 1 view .LVU172
 657 0008 08BD     		pop	{r3, pc}
 658              		.cfi_endproc
 659              	.LFE210:
 661              		.section	.text.lv_tabview_set_act,"ax",%progbits
 662              		.align	1
 663              		.global	lv_tabview_set_act
 664              		.syntax unified
 665              		.thumb
 666              		.thumb_func
 668              	lv_tabview_set_act:
 669              	.LVL81:
 670              	.LFB207:
 139:lvgl/src/extra/widgets/tabview/lv_tabview.c ****     LV_ASSERT_OBJ(obj, MY_CLASS);
 671              		.loc 1 139 1 is_stmt 1 view -0
 672              		.cfi_startproc
 673              		@ args = 0, pretend = 0, frame = 0
 674              		@ frame_needed = 0, uses_anonymous_args = 0
 139:lvgl/src/extra/widgets/tabview/lv_tabview.c ****     LV_ASSERT_OBJ(obj, MY_CLASS);
 675              		.loc 1 139 1 is_stmt 0 view .LVU174
 676 0000 2DE9F843 		push	{r3, r4, r5, r6, r7, r8, r9, lr}
 677              		.cfi_def_cfa_offset 32
 678              		.cfi_offset 3, -32
 679              		.cfi_offset 4, -28
 680              		.cfi_offset 5, -24
 681              		.cfi_offset 6, -20
 682              		.cfi_offset 7, -16
 683              		.cfi_offset 8, -12
 684              		.cfi_offset 9, -8
 685              		.cfi_offset 14, -4
 140:lvgl/src/extra/widgets/tabview/lv_tabview.c ****     if(obj->being_deleted) return;
 686              		.loc 1 140 5 is_stmt 1 view .LVU175
 140:lvgl/src/extra/widgets/tabview/lv_tabview.c ****     if(obj->being_deleted) return;
 687              		.loc 1 140 5 view .LVU176
 140:lvgl/src/extra/widgets/tabview/lv_tabview.c ****     if(obj->being_deleted) return;
 688              		.loc 1 140 5 view .LVU177
 141:lvgl/src/extra/widgets/tabview/lv_tabview.c **** 
 689              		.loc 1 141 5 view .LVU178
 141:lvgl/src/extra/widgets/tabview/lv_tabview.c **** 
 690              		.loc 1 141 8 is_stmt 0 view .LVU179
 691 0004 90F82330 		ldrb	r3, [r0, #35]	@ zero_extendqisi2
 141:lvgl/src/extra/widgets/tabview/lv_tabview.c **** 
 692              		.loc 1 141 7 view .LVU180
 693 0008 13F0100F 		tst	r3, #16
 694 000c 57D1     		bne	.L42
 695 000e 0446     		mov	r4, r0
 696 0010 0D46     		mov	r5, r1
 697 0012 1646     		mov	r6, r2
 143:lvgl/src/extra/widgets/tabview/lv_tabview.c **** 
 698              		.loc 1 143 5 is_stmt 1 view .LVU181
 699              	.LVL82:
ARM GAS  C:\Users\OSD\AppData\Local\Temp\ccmEsMWN.s 			page 21


 145:lvgl/src/extra/widgets/tabview/lv_tabview.c ****         id = tabview->tab_cnt - 1;
 700              		.loc 1 145 5 view .LVU182
 145:lvgl/src/extra/widgets/tabview/lv_tabview.c ****         id = tabview->tab_cnt - 1;
 701              		.loc 1 145 21 is_stmt 0 view .LVU183
 702 0014 038D     		ldrh	r3, [r0, #40]
 145:lvgl/src/extra/widgets/tabview/lv_tabview.c ****         id = tabview->tab_cnt - 1;
 703              		.loc 1 145 7 view .LVU184
 704 0016 8B42     		cmp	r3, r1
 705 0018 00D8     		bhi	.L44
 146:lvgl/src/extra/widgets/tabview/lv_tabview.c ****     }
 706              		.loc 1 146 9 is_stmt 1 view .LVU185
 146:lvgl/src/extra/widgets/tabview/lv_tabview.c ****     }
 707              		.loc 1 146 31 is_stmt 0 view .LVU186
 708 001a 5D1E     		subs	r5, r3, #1
 709              	.LVL83:
 710              	.L44:
 150:lvgl/src/extra/widgets/tabview/lv_tabview.c **** 
 711              		.loc 1 150 5 is_stmt 1 view .LVU187
 712 001c 2046     		mov	r0, r4
 713              	.LVL84:
 150:lvgl/src/extra/widgets/tabview/lv_tabview.c **** 
 714              		.loc 1 150 5 is_stmt 0 view .LVU188
 715 001e FFF7FEFF 		bl	lv_obj_update_layout
 716              	.LVL85:
 152:lvgl/src/extra/widgets/tabview/lv_tabview.c ****     if(cont == NULL) return;
 717              		.loc 1 152 5 is_stmt 1 view .LVU189
 152:lvgl/src/extra/widgets/tabview/lv_tabview.c ****     if(cont == NULL) return;
 718              		.loc 1 152 23 is_stmt 0 view .LVU190
 719 0022 2046     		mov	r0, r4
 720 0024 FFF7FEFF 		bl	lv_tabview_get_content
 721              	.LVL86:
 153:lvgl/src/extra/widgets/tabview/lv_tabview.c **** 
 722              		.loc 1 153 5 is_stmt 1 view .LVU191
 153:lvgl/src/extra/widgets/tabview/lv_tabview.c **** 
 723              		.loc 1 153 7 is_stmt 0 view .LVU192
 724 0028 0746     		mov	r7, r0
 725 002a 0028     		cmp	r0, #0
 726 002c 47D0     		beq	.L42
 155:lvgl/src/extra/widgets/tabview/lv_tabview.c ****         lv_coord_t gap = lv_obj_get_style_pad_column(cont, LV_PART_MAIN);
 727              		.loc 1 155 5 is_stmt 1 view .LVU193
 155:lvgl/src/extra/widgets/tabview/lv_tabview.c ****         lv_coord_t gap = lv_obj_get_style_pad_column(cont, LV_PART_MAIN);
 728              		.loc 1 155 16 is_stmt 0 view .LVU194
 729 002e 94F82C30 		ldrb	r3, [r4, #44]	@ zero_extendqisi2
 155:lvgl/src/extra/widgets/tabview/lv_tabview.c ****         lv_coord_t gap = lv_obj_get_style_pad_column(cont, LV_PART_MAIN);
 730              		.loc 1 155 7 view .LVU195
 731 0032 13F00C0F 		tst	r3, #12
 732 0036 26D0     		beq	.L45
 733              	.LBB20:
 156:lvgl/src/extra/widgets/tabview/lv_tabview.c ****         lv_coord_t w = lv_obj_get_content_width(cont);
 734              		.loc 1 156 9 is_stmt 1 view .LVU196
 735              	.LVL87:
 736              	.LBB21:
 737              	.LBI21:
 738              		.file 2 "d:\\kzc\\stm32\\h743ii_lcd\\lvgl\\src/core/lv_obj_style_gen.h"
   1:d:\kzc\stm32\h743ii_lcd\lvgl\src/core\lv_obj_style_gen.h **** static inline lv_coord_t lv_obj_get_style_width(const struct _lv_obj_t * obj, uint32_t part)
   2:d:\kzc\stm32\h743ii_lcd\lvgl\src/core\lv_obj_style_gen.h **** {
   3:d:\kzc\stm32\h743ii_lcd\lvgl\src/core\lv_obj_style_gen.h ****     lv_style_value_t v = lv_obj_get_style_prop(obj, part, LV_STYLE_WIDTH);
ARM GAS  C:\Users\OSD\AppData\Local\Temp\ccmEsMWN.s 			page 22


   4:d:\kzc\stm32\h743ii_lcd\lvgl\src/core\lv_obj_style_gen.h ****     return (lv_coord_t)v.num;
   5:d:\kzc\stm32\h743ii_lcd\lvgl\src/core\lv_obj_style_gen.h **** }
   6:d:\kzc\stm32\h743ii_lcd\lvgl\src/core\lv_obj_style_gen.h **** 
   7:d:\kzc\stm32\h743ii_lcd\lvgl\src/core\lv_obj_style_gen.h **** static inline lv_coord_t lv_obj_get_style_min_width(const struct _lv_obj_t * obj, uint32_t part)
   8:d:\kzc\stm32\h743ii_lcd\lvgl\src/core\lv_obj_style_gen.h **** {
   9:d:\kzc\stm32\h743ii_lcd\lvgl\src/core\lv_obj_style_gen.h ****     lv_style_value_t v = lv_obj_get_style_prop(obj, part, LV_STYLE_MIN_WIDTH);
  10:d:\kzc\stm32\h743ii_lcd\lvgl\src/core\lv_obj_style_gen.h ****     return (lv_coord_t)v.num;
  11:d:\kzc\stm32\h743ii_lcd\lvgl\src/core\lv_obj_style_gen.h **** }
  12:d:\kzc\stm32\h743ii_lcd\lvgl\src/core\lv_obj_style_gen.h **** 
  13:d:\kzc\stm32\h743ii_lcd\lvgl\src/core\lv_obj_style_gen.h **** static inline lv_coord_t lv_obj_get_style_max_width(const struct _lv_obj_t * obj, uint32_t part)
  14:d:\kzc\stm32\h743ii_lcd\lvgl\src/core\lv_obj_style_gen.h **** {
  15:d:\kzc\stm32\h743ii_lcd\lvgl\src/core\lv_obj_style_gen.h ****     lv_style_value_t v = lv_obj_get_style_prop(obj, part, LV_STYLE_MAX_WIDTH);
  16:d:\kzc\stm32\h743ii_lcd\lvgl\src/core\lv_obj_style_gen.h ****     return (lv_coord_t)v.num;
  17:d:\kzc\stm32\h743ii_lcd\lvgl\src/core\lv_obj_style_gen.h **** }
  18:d:\kzc\stm32\h743ii_lcd\lvgl\src/core\lv_obj_style_gen.h **** 
  19:d:\kzc\stm32\h743ii_lcd\lvgl\src/core\lv_obj_style_gen.h **** static inline lv_coord_t lv_obj_get_style_height(const struct _lv_obj_t * obj, uint32_t part)
  20:d:\kzc\stm32\h743ii_lcd\lvgl\src/core\lv_obj_style_gen.h **** {
  21:d:\kzc\stm32\h743ii_lcd\lvgl\src/core\lv_obj_style_gen.h ****     lv_style_value_t v = lv_obj_get_style_prop(obj, part, LV_STYLE_HEIGHT);
  22:d:\kzc\stm32\h743ii_lcd\lvgl\src/core\lv_obj_style_gen.h ****     return (lv_coord_t)v.num;
  23:d:\kzc\stm32\h743ii_lcd\lvgl\src/core\lv_obj_style_gen.h **** }
  24:d:\kzc\stm32\h743ii_lcd\lvgl\src/core\lv_obj_style_gen.h **** 
  25:d:\kzc\stm32\h743ii_lcd\lvgl\src/core\lv_obj_style_gen.h **** static inline lv_coord_t lv_obj_get_style_min_height(const struct _lv_obj_t * obj, uint32_t part)
  26:d:\kzc\stm32\h743ii_lcd\lvgl\src/core\lv_obj_style_gen.h **** {
  27:d:\kzc\stm32\h743ii_lcd\lvgl\src/core\lv_obj_style_gen.h ****     lv_style_value_t v = lv_obj_get_style_prop(obj, part, LV_STYLE_MIN_HEIGHT);
  28:d:\kzc\stm32\h743ii_lcd\lvgl\src/core\lv_obj_style_gen.h ****     return (lv_coord_t)v.num;
  29:d:\kzc\stm32\h743ii_lcd\lvgl\src/core\lv_obj_style_gen.h **** }
  30:d:\kzc\stm32\h743ii_lcd\lvgl\src/core\lv_obj_style_gen.h **** 
  31:d:\kzc\stm32\h743ii_lcd\lvgl\src/core\lv_obj_style_gen.h **** static inline lv_coord_t lv_obj_get_style_max_height(const struct _lv_obj_t * obj, uint32_t part)
  32:d:\kzc\stm32\h743ii_lcd\lvgl\src/core\lv_obj_style_gen.h **** {
  33:d:\kzc\stm32\h743ii_lcd\lvgl\src/core\lv_obj_style_gen.h ****     lv_style_value_t v = lv_obj_get_style_prop(obj, part, LV_STYLE_MAX_HEIGHT);
  34:d:\kzc\stm32\h743ii_lcd\lvgl\src/core\lv_obj_style_gen.h ****     return (lv_coord_t)v.num;
  35:d:\kzc\stm32\h743ii_lcd\lvgl\src/core\lv_obj_style_gen.h **** }
  36:d:\kzc\stm32\h743ii_lcd\lvgl\src/core\lv_obj_style_gen.h **** 
  37:d:\kzc\stm32\h743ii_lcd\lvgl\src/core\lv_obj_style_gen.h **** static inline lv_coord_t lv_obj_get_style_x(const struct _lv_obj_t * obj, uint32_t part)
  38:d:\kzc\stm32\h743ii_lcd\lvgl\src/core\lv_obj_style_gen.h **** {
  39:d:\kzc\stm32\h743ii_lcd\lvgl\src/core\lv_obj_style_gen.h ****     lv_style_value_t v = lv_obj_get_style_prop(obj, part, LV_STYLE_X);
  40:d:\kzc\stm32\h743ii_lcd\lvgl\src/core\lv_obj_style_gen.h ****     return (lv_coord_t)v.num;
  41:d:\kzc\stm32\h743ii_lcd\lvgl\src/core\lv_obj_style_gen.h **** }
  42:d:\kzc\stm32\h743ii_lcd\lvgl\src/core\lv_obj_style_gen.h **** 
  43:d:\kzc\stm32\h743ii_lcd\lvgl\src/core\lv_obj_style_gen.h **** static inline lv_coord_t lv_obj_get_style_y(const struct _lv_obj_t * obj, uint32_t part)
  44:d:\kzc\stm32\h743ii_lcd\lvgl\src/core\lv_obj_style_gen.h **** {
  45:d:\kzc\stm32\h743ii_lcd\lvgl\src/core\lv_obj_style_gen.h ****     lv_style_value_t v = lv_obj_get_style_prop(obj, part, LV_STYLE_Y);
  46:d:\kzc\stm32\h743ii_lcd\lvgl\src/core\lv_obj_style_gen.h ****     return (lv_coord_t)v.num;
  47:d:\kzc\stm32\h743ii_lcd\lvgl\src/core\lv_obj_style_gen.h **** }
  48:d:\kzc\stm32\h743ii_lcd\lvgl\src/core\lv_obj_style_gen.h **** 
  49:d:\kzc\stm32\h743ii_lcd\lvgl\src/core\lv_obj_style_gen.h **** static inline lv_align_t lv_obj_get_style_align(const struct _lv_obj_t * obj, uint32_t part)
  50:d:\kzc\stm32\h743ii_lcd\lvgl\src/core\lv_obj_style_gen.h **** {
  51:d:\kzc\stm32\h743ii_lcd\lvgl\src/core\lv_obj_style_gen.h ****     lv_style_value_t v = lv_obj_get_style_prop(obj, part, LV_STYLE_ALIGN);
  52:d:\kzc\stm32\h743ii_lcd\lvgl\src/core\lv_obj_style_gen.h ****     return (lv_align_t)v.num;
  53:d:\kzc\stm32\h743ii_lcd\lvgl\src/core\lv_obj_style_gen.h **** }
  54:d:\kzc\stm32\h743ii_lcd\lvgl\src/core\lv_obj_style_gen.h **** 
  55:d:\kzc\stm32\h743ii_lcd\lvgl\src/core\lv_obj_style_gen.h **** static inline lv_coord_t lv_obj_get_style_transform_width(const struct _lv_obj_t * obj, uint32_t pa
  56:d:\kzc\stm32\h743ii_lcd\lvgl\src/core\lv_obj_style_gen.h **** {
  57:d:\kzc\stm32\h743ii_lcd\lvgl\src/core\lv_obj_style_gen.h ****     lv_style_value_t v = lv_obj_get_style_prop(obj, part, LV_STYLE_TRANSFORM_WIDTH);
  58:d:\kzc\stm32\h743ii_lcd\lvgl\src/core\lv_obj_style_gen.h ****     return (lv_coord_t)v.num;
  59:d:\kzc\stm32\h743ii_lcd\lvgl\src/core\lv_obj_style_gen.h **** }
  60:d:\kzc\stm32\h743ii_lcd\lvgl\src/core\lv_obj_style_gen.h **** 
ARM GAS  C:\Users\OSD\AppData\Local\Temp\ccmEsMWN.s 			page 23


  61:d:\kzc\stm32\h743ii_lcd\lvgl\src/core\lv_obj_style_gen.h **** static inline lv_coord_t lv_obj_get_style_transform_height(const struct _lv_obj_t * obj, uint32_t p
  62:d:\kzc\stm32\h743ii_lcd\lvgl\src/core\lv_obj_style_gen.h **** {
  63:d:\kzc\stm32\h743ii_lcd\lvgl\src/core\lv_obj_style_gen.h ****     lv_style_value_t v = lv_obj_get_style_prop(obj, part, LV_STYLE_TRANSFORM_HEIGHT);
  64:d:\kzc\stm32\h743ii_lcd\lvgl\src/core\lv_obj_style_gen.h ****     return (lv_coord_t)v.num;
  65:d:\kzc\stm32\h743ii_lcd\lvgl\src/core\lv_obj_style_gen.h **** }
  66:d:\kzc\stm32\h743ii_lcd\lvgl\src/core\lv_obj_style_gen.h **** 
  67:d:\kzc\stm32\h743ii_lcd\lvgl\src/core\lv_obj_style_gen.h **** static inline lv_coord_t lv_obj_get_style_translate_x(const struct _lv_obj_t * obj, uint32_t part)
  68:d:\kzc\stm32\h743ii_lcd\lvgl\src/core\lv_obj_style_gen.h **** {
  69:d:\kzc\stm32\h743ii_lcd\lvgl\src/core\lv_obj_style_gen.h ****     lv_style_value_t v = lv_obj_get_style_prop(obj, part, LV_STYLE_TRANSLATE_X);
  70:d:\kzc\stm32\h743ii_lcd\lvgl\src/core\lv_obj_style_gen.h ****     return (lv_coord_t)v.num;
  71:d:\kzc\stm32\h743ii_lcd\lvgl\src/core\lv_obj_style_gen.h **** }
  72:d:\kzc\stm32\h743ii_lcd\lvgl\src/core\lv_obj_style_gen.h **** 
  73:d:\kzc\stm32\h743ii_lcd\lvgl\src/core\lv_obj_style_gen.h **** static inline lv_coord_t lv_obj_get_style_translate_y(const struct _lv_obj_t * obj, uint32_t part)
  74:d:\kzc\stm32\h743ii_lcd\lvgl\src/core\lv_obj_style_gen.h **** {
  75:d:\kzc\stm32\h743ii_lcd\lvgl\src/core\lv_obj_style_gen.h ****     lv_style_value_t v = lv_obj_get_style_prop(obj, part, LV_STYLE_TRANSLATE_Y);
  76:d:\kzc\stm32\h743ii_lcd\lvgl\src/core\lv_obj_style_gen.h ****     return (lv_coord_t)v.num;
  77:d:\kzc\stm32\h743ii_lcd\lvgl\src/core\lv_obj_style_gen.h **** }
  78:d:\kzc\stm32\h743ii_lcd\lvgl\src/core\lv_obj_style_gen.h **** 
  79:d:\kzc\stm32\h743ii_lcd\lvgl\src/core\lv_obj_style_gen.h **** static inline lv_coord_t lv_obj_get_style_transform_zoom(const struct _lv_obj_t * obj, uint32_t par
  80:d:\kzc\stm32\h743ii_lcd\lvgl\src/core\lv_obj_style_gen.h **** {
  81:d:\kzc\stm32\h743ii_lcd\lvgl\src/core\lv_obj_style_gen.h ****     lv_style_value_t v = lv_obj_get_style_prop(obj, part, LV_STYLE_TRANSFORM_ZOOM);
  82:d:\kzc\stm32\h743ii_lcd\lvgl\src/core\lv_obj_style_gen.h ****     return (lv_coord_t)v.num;
  83:d:\kzc\stm32\h743ii_lcd\lvgl\src/core\lv_obj_style_gen.h **** }
  84:d:\kzc\stm32\h743ii_lcd\lvgl\src/core\lv_obj_style_gen.h **** 
  85:d:\kzc\stm32\h743ii_lcd\lvgl\src/core\lv_obj_style_gen.h **** static inline lv_coord_t lv_obj_get_style_transform_angle(const struct _lv_obj_t * obj, uint32_t pa
  86:d:\kzc\stm32\h743ii_lcd\lvgl\src/core\lv_obj_style_gen.h **** {
  87:d:\kzc\stm32\h743ii_lcd\lvgl\src/core\lv_obj_style_gen.h ****     lv_style_value_t v = lv_obj_get_style_prop(obj, part, LV_STYLE_TRANSFORM_ANGLE);
  88:d:\kzc\stm32\h743ii_lcd\lvgl\src/core\lv_obj_style_gen.h ****     return (lv_coord_t)v.num;
  89:d:\kzc\stm32\h743ii_lcd\lvgl\src/core\lv_obj_style_gen.h **** }
  90:d:\kzc\stm32\h743ii_lcd\lvgl\src/core\lv_obj_style_gen.h **** 
  91:d:\kzc\stm32\h743ii_lcd\lvgl\src/core\lv_obj_style_gen.h **** static inline lv_coord_t lv_obj_get_style_transform_pivot_x(const struct _lv_obj_t * obj, uint32_t 
  92:d:\kzc\stm32\h743ii_lcd\lvgl\src/core\lv_obj_style_gen.h **** {
  93:d:\kzc\stm32\h743ii_lcd\lvgl\src/core\lv_obj_style_gen.h ****     lv_style_value_t v = lv_obj_get_style_prop(obj, part, LV_STYLE_TRANSFORM_PIVOT_X);
  94:d:\kzc\stm32\h743ii_lcd\lvgl\src/core\lv_obj_style_gen.h ****     return (lv_coord_t)v.num;
  95:d:\kzc\stm32\h743ii_lcd\lvgl\src/core\lv_obj_style_gen.h **** }
  96:d:\kzc\stm32\h743ii_lcd\lvgl\src/core\lv_obj_style_gen.h **** 
  97:d:\kzc\stm32\h743ii_lcd\lvgl\src/core\lv_obj_style_gen.h **** static inline lv_coord_t lv_obj_get_style_transform_pivot_y(const struct _lv_obj_t * obj, uint32_t 
  98:d:\kzc\stm32\h743ii_lcd\lvgl\src/core\lv_obj_style_gen.h **** {
  99:d:\kzc\stm32\h743ii_lcd\lvgl\src/core\lv_obj_style_gen.h ****     lv_style_value_t v = lv_obj_get_style_prop(obj, part, LV_STYLE_TRANSFORM_PIVOT_Y);
 100:d:\kzc\stm32\h743ii_lcd\lvgl\src/core\lv_obj_style_gen.h ****     return (lv_coord_t)v.num;
 101:d:\kzc\stm32\h743ii_lcd\lvgl\src/core\lv_obj_style_gen.h **** }
 102:d:\kzc\stm32\h743ii_lcd\lvgl\src/core\lv_obj_style_gen.h **** 
 103:d:\kzc\stm32\h743ii_lcd\lvgl\src/core\lv_obj_style_gen.h **** static inline lv_coord_t lv_obj_get_style_pad_top(const struct _lv_obj_t * obj, uint32_t part)
 104:d:\kzc\stm32\h743ii_lcd\lvgl\src/core\lv_obj_style_gen.h **** {
 105:d:\kzc\stm32\h743ii_lcd\lvgl\src/core\lv_obj_style_gen.h ****     lv_style_value_t v = lv_obj_get_style_prop(obj, part, LV_STYLE_PAD_TOP);
 106:d:\kzc\stm32\h743ii_lcd\lvgl\src/core\lv_obj_style_gen.h ****     return (lv_coord_t)v.num;
 107:d:\kzc\stm32\h743ii_lcd\lvgl\src/core\lv_obj_style_gen.h **** }
 108:d:\kzc\stm32\h743ii_lcd\lvgl\src/core\lv_obj_style_gen.h **** 
 109:d:\kzc\stm32\h743ii_lcd\lvgl\src/core\lv_obj_style_gen.h **** static inline lv_coord_t lv_obj_get_style_pad_bottom(const struct _lv_obj_t * obj, uint32_t part)
 110:d:\kzc\stm32\h743ii_lcd\lvgl\src/core\lv_obj_style_gen.h **** {
 111:d:\kzc\stm32\h743ii_lcd\lvgl\src/core\lv_obj_style_gen.h ****     lv_style_value_t v = lv_obj_get_style_prop(obj, part, LV_STYLE_PAD_BOTTOM);
 112:d:\kzc\stm32\h743ii_lcd\lvgl\src/core\lv_obj_style_gen.h ****     return (lv_coord_t)v.num;
 113:d:\kzc\stm32\h743ii_lcd\lvgl\src/core\lv_obj_style_gen.h **** }
 114:d:\kzc\stm32\h743ii_lcd\lvgl\src/core\lv_obj_style_gen.h **** 
 115:d:\kzc\stm32\h743ii_lcd\lvgl\src/core\lv_obj_style_gen.h **** static inline lv_coord_t lv_obj_get_style_pad_left(const struct _lv_obj_t * obj, uint32_t part)
 116:d:\kzc\stm32\h743ii_lcd\lvgl\src/core\lv_obj_style_gen.h **** {
 117:d:\kzc\stm32\h743ii_lcd\lvgl\src/core\lv_obj_style_gen.h ****     lv_style_value_t v = lv_obj_get_style_prop(obj, part, LV_STYLE_PAD_LEFT);
ARM GAS  C:\Users\OSD\AppData\Local\Temp\ccmEsMWN.s 			page 24


 118:d:\kzc\stm32\h743ii_lcd\lvgl\src/core\lv_obj_style_gen.h ****     return (lv_coord_t)v.num;
 119:d:\kzc\stm32\h743ii_lcd\lvgl\src/core\lv_obj_style_gen.h **** }
 120:d:\kzc\stm32\h743ii_lcd\lvgl\src/core\lv_obj_style_gen.h **** 
 121:d:\kzc\stm32\h743ii_lcd\lvgl\src/core\lv_obj_style_gen.h **** static inline lv_coord_t lv_obj_get_style_pad_right(const struct _lv_obj_t * obj, uint32_t part)
 122:d:\kzc\stm32\h743ii_lcd\lvgl\src/core\lv_obj_style_gen.h **** {
 123:d:\kzc\stm32\h743ii_lcd\lvgl\src/core\lv_obj_style_gen.h ****     lv_style_value_t v = lv_obj_get_style_prop(obj, part, LV_STYLE_PAD_RIGHT);
 124:d:\kzc\stm32\h743ii_lcd\lvgl\src/core\lv_obj_style_gen.h ****     return (lv_coord_t)v.num;
 125:d:\kzc\stm32\h743ii_lcd\lvgl\src/core\lv_obj_style_gen.h **** }
 126:d:\kzc\stm32\h743ii_lcd\lvgl\src/core\lv_obj_style_gen.h **** 
 127:d:\kzc\stm32\h743ii_lcd\lvgl\src/core\lv_obj_style_gen.h **** static inline lv_coord_t lv_obj_get_style_pad_row(const struct _lv_obj_t * obj, uint32_t part)
 128:d:\kzc\stm32\h743ii_lcd\lvgl\src/core\lv_obj_style_gen.h **** {
 129:d:\kzc\stm32\h743ii_lcd\lvgl\src/core\lv_obj_style_gen.h ****     lv_style_value_t v = lv_obj_get_style_prop(obj, part, LV_STYLE_PAD_ROW);
 130:d:\kzc\stm32\h743ii_lcd\lvgl\src/core\lv_obj_style_gen.h ****     return (lv_coord_t)v.num;
 131:d:\kzc\stm32\h743ii_lcd\lvgl\src/core\lv_obj_style_gen.h **** }
 132:d:\kzc\stm32\h743ii_lcd\lvgl\src/core\lv_obj_style_gen.h **** 
 133:d:\kzc\stm32\h743ii_lcd\lvgl\src/core\lv_obj_style_gen.h **** static inline lv_coord_t lv_obj_get_style_pad_column(const struct _lv_obj_t * obj, uint32_t part)
 739              		.loc 2 133 26 view .LVU197
 740              	.LBB22:
 134:d:\kzc\stm32\h743ii_lcd\lvgl\src/core\lv_obj_style_gen.h **** {
 135:d:\kzc\stm32\h743ii_lcd\lvgl\src/core\lv_obj_style_gen.h ****     lv_style_value_t v = lv_obj_get_style_prop(obj, part, LV_STYLE_PAD_COLUMN);
 741              		.loc 2 135 5 view .LVU198
 742              		.loc 2 135 26 is_stmt 0 view .LVU199
 743 0038 1522     		movs	r2, #21
 744 003a 0021     		movs	r1, #0
 745 003c FFF7FEFF 		bl	lv_obj_get_style_prop
 746              	.LVL88:
 136:d:\kzc\stm32\h743ii_lcd\lvgl\src/core\lv_obj_style_gen.h ****     return (lv_coord_t)v.num;
 747              		.loc 2 136 5 is_stmt 1 view .LVU200
 748              		.loc 2 136 12 is_stmt 0 view .LVU201
 749 0040 0FFA80F8 		sxth	r8, r0
 750              	.LVL89:
 751              		.loc 2 136 12 view .LVU202
 752              	.LBE22:
 753              	.LBE21:
 157:lvgl/src/extra/widgets/tabview/lv_tabview.c ****         if(lv_obj_get_style_base_dir(obj, LV_PART_MAIN) != LV_BASE_DIR_RTL) {
 754              		.loc 1 157 9 is_stmt 1 view .LVU203
 157:lvgl/src/extra/widgets/tabview/lv_tabview.c ****         if(lv_obj_get_style_base_dir(obj, LV_PART_MAIN) != LV_BASE_DIR_RTL) {
 755              		.loc 1 157 24 is_stmt 0 view .LVU204
 756 0044 3846     		mov	r0, r7
 757 0046 FFF7FEFF 		bl	lv_obj_get_content_width
 758              	.LVL90:
 759 004a 8146     		mov	r9, r0
 760              	.LVL91:
 158:lvgl/src/extra/widgets/tabview/lv_tabview.c ****             lv_obj_scroll_to_x(cont, id * (gap + w), anim_en);
 761              		.loc 1 158 9 is_stmt 1 view .LVU205
 762              	.LBB23:
 763              	.LBI23:
 137:d:\kzc\stm32\h743ii_lcd\lvgl\src/core\lv_obj_style_gen.h **** }
 138:d:\kzc\stm32\h743ii_lcd\lvgl\src/core\lv_obj_style_gen.h **** 
 139:d:\kzc\stm32\h743ii_lcd\lvgl\src/core\lv_obj_style_gen.h **** static inline lv_color_t lv_obj_get_style_bg_color(const struct _lv_obj_t * obj, uint32_t part)
 140:d:\kzc\stm32\h743ii_lcd\lvgl\src/core\lv_obj_style_gen.h **** {
 141:d:\kzc\stm32\h743ii_lcd\lvgl\src/core\lv_obj_style_gen.h ****     lv_style_value_t v = lv_obj_get_style_prop(obj, part, LV_STYLE_BG_COLOR);
 142:d:\kzc\stm32\h743ii_lcd\lvgl\src/core\lv_obj_style_gen.h ****     return v.color;
 143:d:\kzc\stm32\h743ii_lcd\lvgl\src/core\lv_obj_style_gen.h **** }
 144:d:\kzc\stm32\h743ii_lcd\lvgl\src/core\lv_obj_style_gen.h **** 
 145:d:\kzc\stm32\h743ii_lcd\lvgl\src/core\lv_obj_style_gen.h **** static inline lv_color_t lv_obj_get_style_bg_color_filtered(const struct _lv_obj_t * obj, uint32_t 
 146:d:\kzc\stm32\h743ii_lcd\lvgl\src/core\lv_obj_style_gen.h **** {
ARM GAS  C:\Users\OSD\AppData\Local\Temp\ccmEsMWN.s 			page 25


 147:d:\kzc\stm32\h743ii_lcd\lvgl\src/core\lv_obj_style_gen.h ****     lv_style_value_t v = _lv_obj_style_apply_color_filter(obj, part, lv_obj_get_style_prop(obj, par
 148:d:\kzc\stm32\h743ii_lcd\lvgl\src/core\lv_obj_style_gen.h ****     return v.color;
 149:d:\kzc\stm32\h743ii_lcd\lvgl\src/core\lv_obj_style_gen.h **** }
 150:d:\kzc\stm32\h743ii_lcd\lvgl\src/core\lv_obj_style_gen.h **** 
 151:d:\kzc\stm32\h743ii_lcd\lvgl\src/core\lv_obj_style_gen.h **** static inline lv_opa_t lv_obj_get_style_bg_opa(const struct _lv_obj_t * obj, uint32_t part)
 152:d:\kzc\stm32\h743ii_lcd\lvgl\src/core\lv_obj_style_gen.h **** {
 153:d:\kzc\stm32\h743ii_lcd\lvgl\src/core\lv_obj_style_gen.h ****     lv_style_value_t v = lv_obj_get_style_prop(obj, part, LV_STYLE_BG_OPA);
 154:d:\kzc\stm32\h743ii_lcd\lvgl\src/core\lv_obj_style_gen.h ****     return (lv_opa_t)v.num;
 155:d:\kzc\stm32\h743ii_lcd\lvgl\src/core\lv_obj_style_gen.h **** }
 156:d:\kzc\stm32\h743ii_lcd\lvgl\src/core\lv_obj_style_gen.h **** 
 157:d:\kzc\stm32\h743ii_lcd\lvgl\src/core\lv_obj_style_gen.h **** static inline lv_color_t lv_obj_get_style_bg_grad_color(const struct _lv_obj_t * obj, uint32_t part
 158:d:\kzc\stm32\h743ii_lcd\lvgl\src/core\lv_obj_style_gen.h **** {
 159:d:\kzc\stm32\h743ii_lcd\lvgl\src/core\lv_obj_style_gen.h ****     lv_style_value_t v = lv_obj_get_style_prop(obj, part, LV_STYLE_BG_GRAD_COLOR);
 160:d:\kzc\stm32\h743ii_lcd\lvgl\src/core\lv_obj_style_gen.h ****     return v.color;
 161:d:\kzc\stm32\h743ii_lcd\lvgl\src/core\lv_obj_style_gen.h **** }
 162:d:\kzc\stm32\h743ii_lcd\lvgl\src/core\lv_obj_style_gen.h **** 
 163:d:\kzc\stm32\h743ii_lcd\lvgl\src/core\lv_obj_style_gen.h **** static inline lv_color_t lv_obj_get_style_bg_grad_color_filtered(const struct _lv_obj_t * obj, uint
 164:d:\kzc\stm32\h743ii_lcd\lvgl\src/core\lv_obj_style_gen.h **** {
 165:d:\kzc\stm32\h743ii_lcd\lvgl\src/core\lv_obj_style_gen.h ****     lv_style_value_t v = _lv_obj_style_apply_color_filter(obj, part, lv_obj_get_style_prop(obj, par
 166:d:\kzc\stm32\h743ii_lcd\lvgl\src/core\lv_obj_style_gen.h ****     return v.color;
 167:d:\kzc\stm32\h743ii_lcd\lvgl\src/core\lv_obj_style_gen.h **** }
 168:d:\kzc\stm32\h743ii_lcd\lvgl\src/core\lv_obj_style_gen.h **** 
 169:d:\kzc\stm32\h743ii_lcd\lvgl\src/core\lv_obj_style_gen.h **** static inline lv_grad_dir_t lv_obj_get_style_bg_grad_dir(const struct _lv_obj_t * obj, uint32_t par
 170:d:\kzc\stm32\h743ii_lcd\lvgl\src/core\lv_obj_style_gen.h **** {
 171:d:\kzc\stm32\h743ii_lcd\lvgl\src/core\lv_obj_style_gen.h ****     lv_style_value_t v = lv_obj_get_style_prop(obj, part, LV_STYLE_BG_GRAD_DIR);
 172:d:\kzc\stm32\h743ii_lcd\lvgl\src/core\lv_obj_style_gen.h ****     return (lv_grad_dir_t)v.num;
 173:d:\kzc\stm32\h743ii_lcd\lvgl\src/core\lv_obj_style_gen.h **** }
 174:d:\kzc\stm32\h743ii_lcd\lvgl\src/core\lv_obj_style_gen.h **** 
 175:d:\kzc\stm32\h743ii_lcd\lvgl\src/core\lv_obj_style_gen.h **** static inline lv_coord_t lv_obj_get_style_bg_main_stop(const struct _lv_obj_t * obj, uint32_t part)
 176:d:\kzc\stm32\h743ii_lcd\lvgl\src/core\lv_obj_style_gen.h **** {
 177:d:\kzc\stm32\h743ii_lcd\lvgl\src/core\lv_obj_style_gen.h ****     lv_style_value_t v = lv_obj_get_style_prop(obj, part, LV_STYLE_BG_MAIN_STOP);
 178:d:\kzc\stm32\h743ii_lcd\lvgl\src/core\lv_obj_style_gen.h ****     return (lv_coord_t)v.num;
 179:d:\kzc\stm32\h743ii_lcd\lvgl\src/core\lv_obj_style_gen.h **** }
 180:d:\kzc\stm32\h743ii_lcd\lvgl\src/core\lv_obj_style_gen.h **** 
 181:d:\kzc\stm32\h743ii_lcd\lvgl\src/core\lv_obj_style_gen.h **** static inline lv_coord_t lv_obj_get_style_bg_grad_stop(const struct _lv_obj_t * obj, uint32_t part)
 182:d:\kzc\stm32\h743ii_lcd\lvgl\src/core\lv_obj_style_gen.h **** {
 183:d:\kzc\stm32\h743ii_lcd\lvgl\src/core\lv_obj_style_gen.h ****     lv_style_value_t v = lv_obj_get_style_prop(obj, part, LV_STYLE_BG_GRAD_STOP);
 184:d:\kzc\stm32\h743ii_lcd\lvgl\src/core\lv_obj_style_gen.h ****     return (lv_coord_t)v.num;
 185:d:\kzc\stm32\h743ii_lcd\lvgl\src/core\lv_obj_style_gen.h **** }
 186:d:\kzc\stm32\h743ii_lcd\lvgl\src/core\lv_obj_style_gen.h **** 
 187:d:\kzc\stm32\h743ii_lcd\lvgl\src/core\lv_obj_style_gen.h **** static inline const lv_grad_dsc_t * lv_obj_get_style_bg_grad(const struct _lv_obj_t * obj, uint32_t
 188:d:\kzc\stm32\h743ii_lcd\lvgl\src/core\lv_obj_style_gen.h **** {
 189:d:\kzc\stm32\h743ii_lcd\lvgl\src/core\lv_obj_style_gen.h ****     lv_style_value_t v = lv_obj_get_style_prop(obj, part, LV_STYLE_BG_GRAD);
 190:d:\kzc\stm32\h743ii_lcd\lvgl\src/core\lv_obj_style_gen.h ****     return (const lv_grad_dsc_t *)v.ptr;
 191:d:\kzc\stm32\h743ii_lcd\lvgl\src/core\lv_obj_style_gen.h **** }
 192:d:\kzc\stm32\h743ii_lcd\lvgl\src/core\lv_obj_style_gen.h **** 
 193:d:\kzc\stm32\h743ii_lcd\lvgl\src/core\lv_obj_style_gen.h **** static inline lv_dither_mode_t lv_obj_get_style_bg_dither_mode(const struct _lv_obj_t * obj, uint32
 194:d:\kzc\stm32\h743ii_lcd\lvgl\src/core\lv_obj_style_gen.h **** {
 195:d:\kzc\stm32\h743ii_lcd\lvgl\src/core\lv_obj_style_gen.h ****     lv_style_value_t v = lv_obj_get_style_prop(obj, part, LV_STYLE_BG_DITHER_MODE);
 196:d:\kzc\stm32\h743ii_lcd\lvgl\src/core\lv_obj_style_gen.h ****     return (lv_dither_mode_t)v.num;
 197:d:\kzc\stm32\h743ii_lcd\lvgl\src/core\lv_obj_style_gen.h **** }
 198:d:\kzc\stm32\h743ii_lcd\lvgl\src/core\lv_obj_style_gen.h **** 
 199:d:\kzc\stm32\h743ii_lcd\lvgl\src/core\lv_obj_style_gen.h **** static inline const void * lv_obj_get_style_bg_img_src(const struct _lv_obj_t * obj, uint32_t part)
 200:d:\kzc\stm32\h743ii_lcd\lvgl\src/core\lv_obj_style_gen.h **** {
 201:d:\kzc\stm32\h743ii_lcd\lvgl\src/core\lv_obj_style_gen.h ****     lv_style_value_t v = lv_obj_get_style_prop(obj, part, LV_STYLE_BG_IMG_SRC);
 202:d:\kzc\stm32\h743ii_lcd\lvgl\src/core\lv_obj_style_gen.h ****     return (const void *)v.ptr;
 203:d:\kzc\stm32\h743ii_lcd\lvgl\src/core\lv_obj_style_gen.h **** }
ARM GAS  C:\Users\OSD\AppData\Local\Temp\ccmEsMWN.s 			page 26


 204:d:\kzc\stm32\h743ii_lcd\lvgl\src/core\lv_obj_style_gen.h **** 
 205:d:\kzc\stm32\h743ii_lcd\lvgl\src/core\lv_obj_style_gen.h **** static inline lv_opa_t lv_obj_get_style_bg_img_opa(const struct _lv_obj_t * obj, uint32_t part)
 206:d:\kzc\stm32\h743ii_lcd\lvgl\src/core\lv_obj_style_gen.h **** {
 207:d:\kzc\stm32\h743ii_lcd\lvgl\src/core\lv_obj_style_gen.h ****     lv_style_value_t v = lv_obj_get_style_prop(obj, part, LV_STYLE_BG_IMG_OPA);
 208:d:\kzc\stm32\h743ii_lcd\lvgl\src/core\lv_obj_style_gen.h ****     return (lv_opa_t)v.num;
 209:d:\kzc\stm32\h743ii_lcd\lvgl\src/core\lv_obj_style_gen.h **** }
 210:d:\kzc\stm32\h743ii_lcd\lvgl\src/core\lv_obj_style_gen.h **** 
 211:d:\kzc\stm32\h743ii_lcd\lvgl\src/core\lv_obj_style_gen.h **** static inline lv_color_t lv_obj_get_style_bg_img_recolor(const struct _lv_obj_t * obj, uint32_t par
 212:d:\kzc\stm32\h743ii_lcd\lvgl\src/core\lv_obj_style_gen.h **** {
 213:d:\kzc\stm32\h743ii_lcd\lvgl\src/core\lv_obj_style_gen.h ****     lv_style_value_t v = lv_obj_get_style_prop(obj, part, LV_STYLE_BG_IMG_RECOLOR);
 214:d:\kzc\stm32\h743ii_lcd\lvgl\src/core\lv_obj_style_gen.h ****     return v.color;
 215:d:\kzc\stm32\h743ii_lcd\lvgl\src/core\lv_obj_style_gen.h **** }
 216:d:\kzc\stm32\h743ii_lcd\lvgl\src/core\lv_obj_style_gen.h **** 
 217:d:\kzc\stm32\h743ii_lcd\lvgl\src/core\lv_obj_style_gen.h **** static inline lv_color_t lv_obj_get_style_bg_img_recolor_filtered(const struct _lv_obj_t * obj, uin
 218:d:\kzc\stm32\h743ii_lcd\lvgl\src/core\lv_obj_style_gen.h **** {
 219:d:\kzc\stm32\h743ii_lcd\lvgl\src/core\lv_obj_style_gen.h ****     lv_style_value_t v = _lv_obj_style_apply_color_filter(obj, part, lv_obj_get_style_prop(obj, par
 220:d:\kzc\stm32\h743ii_lcd\lvgl\src/core\lv_obj_style_gen.h ****     return v.color;
 221:d:\kzc\stm32\h743ii_lcd\lvgl\src/core\lv_obj_style_gen.h **** }
 222:d:\kzc\stm32\h743ii_lcd\lvgl\src/core\lv_obj_style_gen.h **** 
 223:d:\kzc\stm32\h743ii_lcd\lvgl\src/core\lv_obj_style_gen.h **** static inline lv_opa_t lv_obj_get_style_bg_img_recolor_opa(const struct _lv_obj_t * obj, uint32_t p
 224:d:\kzc\stm32\h743ii_lcd\lvgl\src/core\lv_obj_style_gen.h **** {
 225:d:\kzc\stm32\h743ii_lcd\lvgl\src/core\lv_obj_style_gen.h ****     lv_style_value_t v = lv_obj_get_style_prop(obj, part, LV_STYLE_BG_IMG_RECOLOR_OPA);
 226:d:\kzc\stm32\h743ii_lcd\lvgl\src/core\lv_obj_style_gen.h ****     return (lv_opa_t)v.num;
 227:d:\kzc\stm32\h743ii_lcd\lvgl\src/core\lv_obj_style_gen.h **** }
 228:d:\kzc\stm32\h743ii_lcd\lvgl\src/core\lv_obj_style_gen.h **** 
 229:d:\kzc\stm32\h743ii_lcd\lvgl\src/core\lv_obj_style_gen.h **** static inline bool lv_obj_get_style_bg_img_tiled(const struct _lv_obj_t * obj, uint32_t part)
 230:d:\kzc\stm32\h743ii_lcd\lvgl\src/core\lv_obj_style_gen.h **** {
 231:d:\kzc\stm32\h743ii_lcd\lvgl\src/core\lv_obj_style_gen.h ****     lv_style_value_t v = lv_obj_get_style_prop(obj, part, LV_STYLE_BG_IMG_TILED);
 232:d:\kzc\stm32\h743ii_lcd\lvgl\src/core\lv_obj_style_gen.h ****     return (bool)v.num;
 233:d:\kzc\stm32\h743ii_lcd\lvgl\src/core\lv_obj_style_gen.h **** }
 234:d:\kzc\stm32\h743ii_lcd\lvgl\src/core\lv_obj_style_gen.h **** 
 235:d:\kzc\stm32\h743ii_lcd\lvgl\src/core\lv_obj_style_gen.h **** static inline lv_color_t lv_obj_get_style_border_color(const struct _lv_obj_t * obj, uint32_t part)
 236:d:\kzc\stm32\h743ii_lcd\lvgl\src/core\lv_obj_style_gen.h **** {
 237:d:\kzc\stm32\h743ii_lcd\lvgl\src/core\lv_obj_style_gen.h ****     lv_style_value_t v = lv_obj_get_style_prop(obj, part, LV_STYLE_BORDER_COLOR);
 238:d:\kzc\stm32\h743ii_lcd\lvgl\src/core\lv_obj_style_gen.h ****     return v.color;
 239:d:\kzc\stm32\h743ii_lcd\lvgl\src/core\lv_obj_style_gen.h **** }
 240:d:\kzc\stm32\h743ii_lcd\lvgl\src/core\lv_obj_style_gen.h **** 
 241:d:\kzc\stm32\h743ii_lcd\lvgl\src/core\lv_obj_style_gen.h **** static inline lv_color_t lv_obj_get_style_border_color_filtered(const struct _lv_obj_t * obj, uint3
 242:d:\kzc\stm32\h743ii_lcd\lvgl\src/core\lv_obj_style_gen.h **** {
 243:d:\kzc\stm32\h743ii_lcd\lvgl\src/core\lv_obj_style_gen.h ****     lv_style_value_t v = _lv_obj_style_apply_color_filter(obj, part, lv_obj_get_style_prop(obj, par
 244:d:\kzc\stm32\h743ii_lcd\lvgl\src/core\lv_obj_style_gen.h ****     return v.color;
 245:d:\kzc\stm32\h743ii_lcd\lvgl\src/core\lv_obj_style_gen.h **** }
 246:d:\kzc\stm32\h743ii_lcd\lvgl\src/core\lv_obj_style_gen.h **** 
 247:d:\kzc\stm32\h743ii_lcd\lvgl\src/core\lv_obj_style_gen.h **** static inline lv_opa_t lv_obj_get_style_border_opa(const struct _lv_obj_t * obj, uint32_t part)
 248:d:\kzc\stm32\h743ii_lcd\lvgl\src/core\lv_obj_style_gen.h **** {
 249:d:\kzc\stm32\h743ii_lcd\lvgl\src/core\lv_obj_style_gen.h ****     lv_style_value_t v = lv_obj_get_style_prop(obj, part, LV_STYLE_BORDER_OPA);
 250:d:\kzc\stm32\h743ii_lcd\lvgl\src/core\lv_obj_style_gen.h ****     return (lv_opa_t)v.num;
 251:d:\kzc\stm32\h743ii_lcd\lvgl\src/core\lv_obj_style_gen.h **** }
 252:d:\kzc\stm32\h743ii_lcd\lvgl\src/core\lv_obj_style_gen.h **** 
 253:d:\kzc\stm32\h743ii_lcd\lvgl\src/core\lv_obj_style_gen.h **** static inline lv_coord_t lv_obj_get_style_border_width(const struct _lv_obj_t * obj, uint32_t part)
 254:d:\kzc\stm32\h743ii_lcd\lvgl\src/core\lv_obj_style_gen.h **** {
 255:d:\kzc\stm32\h743ii_lcd\lvgl\src/core\lv_obj_style_gen.h ****     lv_style_value_t v = lv_obj_get_style_prop(obj, part, LV_STYLE_BORDER_WIDTH);
 256:d:\kzc\stm32\h743ii_lcd\lvgl\src/core\lv_obj_style_gen.h ****     return (lv_coord_t)v.num;
 257:d:\kzc\stm32\h743ii_lcd\lvgl\src/core\lv_obj_style_gen.h **** }
 258:d:\kzc\stm32\h743ii_lcd\lvgl\src/core\lv_obj_style_gen.h **** 
 259:d:\kzc\stm32\h743ii_lcd\lvgl\src/core\lv_obj_style_gen.h **** static inline lv_border_side_t lv_obj_get_style_border_side(const struct _lv_obj_t * obj, uint32_t 
 260:d:\kzc\stm32\h743ii_lcd\lvgl\src/core\lv_obj_style_gen.h **** {
ARM GAS  C:\Users\OSD\AppData\Local\Temp\ccmEsMWN.s 			page 27


 261:d:\kzc\stm32\h743ii_lcd\lvgl\src/core\lv_obj_style_gen.h ****     lv_style_value_t v = lv_obj_get_style_prop(obj, part, LV_STYLE_BORDER_SIDE);
 262:d:\kzc\stm32\h743ii_lcd\lvgl\src/core\lv_obj_style_gen.h ****     return (lv_border_side_t)v.num;
 263:d:\kzc\stm32\h743ii_lcd\lvgl\src/core\lv_obj_style_gen.h **** }
 264:d:\kzc\stm32\h743ii_lcd\lvgl\src/core\lv_obj_style_gen.h **** 
 265:d:\kzc\stm32\h743ii_lcd\lvgl\src/core\lv_obj_style_gen.h **** static inline bool lv_obj_get_style_border_post(const struct _lv_obj_t * obj, uint32_t part)
 266:d:\kzc\stm32\h743ii_lcd\lvgl\src/core\lv_obj_style_gen.h **** {
 267:d:\kzc\stm32\h743ii_lcd\lvgl\src/core\lv_obj_style_gen.h ****     lv_style_value_t v = lv_obj_get_style_prop(obj, part, LV_STYLE_BORDER_POST);
 268:d:\kzc\stm32\h743ii_lcd\lvgl\src/core\lv_obj_style_gen.h ****     return (bool)v.num;
 269:d:\kzc\stm32\h743ii_lcd\lvgl\src/core\lv_obj_style_gen.h **** }
 270:d:\kzc\stm32\h743ii_lcd\lvgl\src/core\lv_obj_style_gen.h **** 
 271:d:\kzc\stm32\h743ii_lcd\lvgl\src/core\lv_obj_style_gen.h **** static inline lv_coord_t lv_obj_get_style_outline_width(const struct _lv_obj_t * obj, uint32_t part
 272:d:\kzc\stm32\h743ii_lcd\lvgl\src/core\lv_obj_style_gen.h **** {
 273:d:\kzc\stm32\h743ii_lcd\lvgl\src/core\lv_obj_style_gen.h ****     lv_style_value_t v = lv_obj_get_style_prop(obj, part, LV_STYLE_OUTLINE_WIDTH);
 274:d:\kzc\stm32\h743ii_lcd\lvgl\src/core\lv_obj_style_gen.h ****     return (lv_coord_t)v.num;
 275:d:\kzc\stm32\h743ii_lcd\lvgl\src/core\lv_obj_style_gen.h **** }
 276:d:\kzc\stm32\h743ii_lcd\lvgl\src/core\lv_obj_style_gen.h **** 
 277:d:\kzc\stm32\h743ii_lcd\lvgl\src/core\lv_obj_style_gen.h **** static inline lv_color_t lv_obj_get_style_outline_color(const struct _lv_obj_t * obj, uint32_t part
 278:d:\kzc\stm32\h743ii_lcd\lvgl\src/core\lv_obj_style_gen.h **** {
 279:d:\kzc\stm32\h743ii_lcd\lvgl\src/core\lv_obj_style_gen.h ****     lv_style_value_t v = lv_obj_get_style_prop(obj, part, LV_STYLE_OUTLINE_COLOR);
 280:d:\kzc\stm32\h743ii_lcd\lvgl\src/core\lv_obj_style_gen.h ****     return v.color;
 281:d:\kzc\stm32\h743ii_lcd\lvgl\src/core\lv_obj_style_gen.h **** }
 282:d:\kzc\stm32\h743ii_lcd\lvgl\src/core\lv_obj_style_gen.h **** 
 283:d:\kzc\stm32\h743ii_lcd\lvgl\src/core\lv_obj_style_gen.h **** static inline lv_color_t lv_obj_get_style_outline_color_filtered(const struct _lv_obj_t * obj, uint
 284:d:\kzc\stm32\h743ii_lcd\lvgl\src/core\lv_obj_style_gen.h **** {
 285:d:\kzc\stm32\h743ii_lcd\lvgl\src/core\lv_obj_style_gen.h ****     lv_style_value_t v = _lv_obj_style_apply_color_filter(obj, part, lv_obj_get_style_prop(obj, par
 286:d:\kzc\stm32\h743ii_lcd\lvgl\src/core\lv_obj_style_gen.h ****     return v.color;
 287:d:\kzc\stm32\h743ii_lcd\lvgl\src/core\lv_obj_style_gen.h **** }
 288:d:\kzc\stm32\h743ii_lcd\lvgl\src/core\lv_obj_style_gen.h **** 
 289:d:\kzc\stm32\h743ii_lcd\lvgl\src/core\lv_obj_style_gen.h **** static inline lv_opa_t lv_obj_get_style_outline_opa(const struct _lv_obj_t * obj, uint32_t part)
 290:d:\kzc\stm32\h743ii_lcd\lvgl\src/core\lv_obj_style_gen.h **** {
 291:d:\kzc\stm32\h743ii_lcd\lvgl\src/core\lv_obj_style_gen.h ****     lv_style_value_t v = lv_obj_get_style_prop(obj, part, LV_STYLE_OUTLINE_OPA);
 292:d:\kzc\stm32\h743ii_lcd\lvgl\src/core\lv_obj_style_gen.h ****     return (lv_opa_t)v.num;
 293:d:\kzc\stm32\h743ii_lcd\lvgl\src/core\lv_obj_style_gen.h **** }
 294:d:\kzc\stm32\h743ii_lcd\lvgl\src/core\lv_obj_style_gen.h **** 
 295:d:\kzc\stm32\h743ii_lcd\lvgl\src/core\lv_obj_style_gen.h **** static inline lv_coord_t lv_obj_get_style_outline_pad(const struct _lv_obj_t * obj, uint32_t part)
 296:d:\kzc\stm32\h743ii_lcd\lvgl\src/core\lv_obj_style_gen.h **** {
 297:d:\kzc\stm32\h743ii_lcd\lvgl\src/core\lv_obj_style_gen.h ****     lv_style_value_t v = lv_obj_get_style_prop(obj, part, LV_STYLE_OUTLINE_PAD);
 298:d:\kzc\stm32\h743ii_lcd\lvgl\src/core\lv_obj_style_gen.h ****     return (lv_coord_t)v.num;
 299:d:\kzc\stm32\h743ii_lcd\lvgl\src/core\lv_obj_style_gen.h **** }
 300:d:\kzc\stm32\h743ii_lcd\lvgl\src/core\lv_obj_style_gen.h **** 
 301:d:\kzc\stm32\h743ii_lcd\lvgl\src/core\lv_obj_style_gen.h **** static inline lv_coord_t lv_obj_get_style_shadow_width(const struct _lv_obj_t * obj, uint32_t part)
 302:d:\kzc\stm32\h743ii_lcd\lvgl\src/core\lv_obj_style_gen.h **** {
 303:d:\kzc\stm32\h743ii_lcd\lvgl\src/core\lv_obj_style_gen.h ****     lv_style_value_t v = lv_obj_get_style_prop(obj, part, LV_STYLE_SHADOW_WIDTH);
 304:d:\kzc\stm32\h743ii_lcd\lvgl\src/core\lv_obj_style_gen.h ****     return (lv_coord_t)v.num;
 305:d:\kzc\stm32\h743ii_lcd\lvgl\src/core\lv_obj_style_gen.h **** }
 306:d:\kzc\stm32\h743ii_lcd\lvgl\src/core\lv_obj_style_gen.h **** 
 307:d:\kzc\stm32\h743ii_lcd\lvgl\src/core\lv_obj_style_gen.h **** static inline lv_coord_t lv_obj_get_style_shadow_ofs_x(const struct _lv_obj_t * obj, uint32_t part)
 308:d:\kzc\stm32\h743ii_lcd\lvgl\src/core\lv_obj_style_gen.h **** {
 309:d:\kzc\stm32\h743ii_lcd\lvgl\src/core\lv_obj_style_gen.h ****     lv_style_value_t v = lv_obj_get_style_prop(obj, part, LV_STYLE_SHADOW_OFS_X);
 310:d:\kzc\stm32\h743ii_lcd\lvgl\src/core\lv_obj_style_gen.h ****     return (lv_coord_t)v.num;
 311:d:\kzc\stm32\h743ii_lcd\lvgl\src/core\lv_obj_style_gen.h **** }
 312:d:\kzc\stm32\h743ii_lcd\lvgl\src/core\lv_obj_style_gen.h **** 
 313:d:\kzc\stm32\h743ii_lcd\lvgl\src/core\lv_obj_style_gen.h **** static inline lv_coord_t lv_obj_get_style_shadow_ofs_y(const struct _lv_obj_t * obj, uint32_t part)
 314:d:\kzc\stm32\h743ii_lcd\lvgl\src/core\lv_obj_style_gen.h **** {
 315:d:\kzc\stm32\h743ii_lcd\lvgl\src/core\lv_obj_style_gen.h ****     lv_style_value_t v = lv_obj_get_style_prop(obj, part, LV_STYLE_SHADOW_OFS_Y);
 316:d:\kzc\stm32\h743ii_lcd\lvgl\src/core\lv_obj_style_gen.h ****     return (lv_coord_t)v.num;
 317:d:\kzc\stm32\h743ii_lcd\lvgl\src/core\lv_obj_style_gen.h **** }
ARM GAS  C:\Users\OSD\AppData\Local\Temp\ccmEsMWN.s 			page 28


 318:d:\kzc\stm32\h743ii_lcd\lvgl\src/core\lv_obj_style_gen.h **** 
 319:d:\kzc\stm32\h743ii_lcd\lvgl\src/core\lv_obj_style_gen.h **** static inline lv_coord_t lv_obj_get_style_shadow_spread(const struct _lv_obj_t * obj, uint32_t part
 320:d:\kzc\stm32\h743ii_lcd\lvgl\src/core\lv_obj_style_gen.h **** {
 321:d:\kzc\stm32\h743ii_lcd\lvgl\src/core\lv_obj_style_gen.h ****     lv_style_value_t v = lv_obj_get_style_prop(obj, part, LV_STYLE_SHADOW_SPREAD);
 322:d:\kzc\stm32\h743ii_lcd\lvgl\src/core\lv_obj_style_gen.h ****     return (lv_coord_t)v.num;
 323:d:\kzc\stm32\h743ii_lcd\lvgl\src/core\lv_obj_style_gen.h **** }
 324:d:\kzc\stm32\h743ii_lcd\lvgl\src/core\lv_obj_style_gen.h **** 
 325:d:\kzc\stm32\h743ii_lcd\lvgl\src/core\lv_obj_style_gen.h **** static inline lv_color_t lv_obj_get_style_shadow_color(const struct _lv_obj_t * obj, uint32_t part)
 326:d:\kzc\stm32\h743ii_lcd\lvgl\src/core\lv_obj_style_gen.h **** {
 327:d:\kzc\stm32\h743ii_lcd\lvgl\src/core\lv_obj_style_gen.h ****     lv_style_value_t v = lv_obj_get_style_prop(obj, part, LV_STYLE_SHADOW_COLOR);
 328:d:\kzc\stm32\h743ii_lcd\lvgl\src/core\lv_obj_style_gen.h ****     return v.color;
 329:d:\kzc\stm32\h743ii_lcd\lvgl\src/core\lv_obj_style_gen.h **** }
 330:d:\kzc\stm32\h743ii_lcd\lvgl\src/core\lv_obj_style_gen.h **** 
 331:d:\kzc\stm32\h743ii_lcd\lvgl\src/core\lv_obj_style_gen.h **** static inline lv_color_t lv_obj_get_style_shadow_color_filtered(const struct _lv_obj_t * obj, uint3
 332:d:\kzc\stm32\h743ii_lcd\lvgl\src/core\lv_obj_style_gen.h **** {
 333:d:\kzc\stm32\h743ii_lcd\lvgl\src/core\lv_obj_style_gen.h ****     lv_style_value_t v = _lv_obj_style_apply_color_filter(obj, part, lv_obj_get_style_prop(obj, par
 334:d:\kzc\stm32\h743ii_lcd\lvgl\src/core\lv_obj_style_gen.h ****     return v.color;
 335:d:\kzc\stm32\h743ii_lcd\lvgl\src/core\lv_obj_style_gen.h **** }
 336:d:\kzc\stm32\h743ii_lcd\lvgl\src/core\lv_obj_style_gen.h **** 
 337:d:\kzc\stm32\h743ii_lcd\lvgl\src/core\lv_obj_style_gen.h **** static inline lv_opa_t lv_obj_get_style_shadow_opa(const struct _lv_obj_t * obj, uint32_t part)
 338:d:\kzc\stm32\h743ii_lcd\lvgl\src/core\lv_obj_style_gen.h **** {
 339:d:\kzc\stm32\h743ii_lcd\lvgl\src/core\lv_obj_style_gen.h ****     lv_style_value_t v = lv_obj_get_style_prop(obj, part, LV_STYLE_SHADOW_OPA);
 340:d:\kzc\stm32\h743ii_lcd\lvgl\src/core\lv_obj_style_gen.h ****     return (lv_opa_t)v.num;
 341:d:\kzc\stm32\h743ii_lcd\lvgl\src/core\lv_obj_style_gen.h **** }
 342:d:\kzc\stm32\h743ii_lcd\lvgl\src/core\lv_obj_style_gen.h **** 
 343:d:\kzc\stm32\h743ii_lcd\lvgl\src/core\lv_obj_style_gen.h **** static inline lv_opa_t lv_obj_get_style_img_opa(const struct _lv_obj_t * obj, uint32_t part)
 344:d:\kzc\stm32\h743ii_lcd\lvgl\src/core\lv_obj_style_gen.h **** {
 345:d:\kzc\stm32\h743ii_lcd\lvgl\src/core\lv_obj_style_gen.h ****     lv_style_value_t v = lv_obj_get_style_prop(obj, part, LV_STYLE_IMG_OPA);
 346:d:\kzc\stm32\h743ii_lcd\lvgl\src/core\lv_obj_style_gen.h ****     return (lv_opa_t)v.num;
 347:d:\kzc\stm32\h743ii_lcd\lvgl\src/core\lv_obj_style_gen.h **** }
 348:d:\kzc\stm32\h743ii_lcd\lvgl\src/core\lv_obj_style_gen.h **** 
 349:d:\kzc\stm32\h743ii_lcd\lvgl\src/core\lv_obj_style_gen.h **** static inline lv_color_t lv_obj_get_style_img_recolor(const struct _lv_obj_t * obj, uint32_t part)
 350:d:\kzc\stm32\h743ii_lcd\lvgl\src/core\lv_obj_style_gen.h **** {
 351:d:\kzc\stm32\h743ii_lcd\lvgl\src/core\lv_obj_style_gen.h ****     lv_style_value_t v = lv_obj_get_style_prop(obj, part, LV_STYLE_IMG_RECOLOR);
 352:d:\kzc\stm32\h743ii_lcd\lvgl\src/core\lv_obj_style_gen.h ****     return v.color;
 353:d:\kzc\stm32\h743ii_lcd\lvgl\src/core\lv_obj_style_gen.h **** }
 354:d:\kzc\stm32\h743ii_lcd\lvgl\src/core\lv_obj_style_gen.h **** 
 355:d:\kzc\stm32\h743ii_lcd\lvgl\src/core\lv_obj_style_gen.h **** static inline lv_color_t lv_obj_get_style_img_recolor_filtered(const struct _lv_obj_t * obj, uint32
 356:d:\kzc\stm32\h743ii_lcd\lvgl\src/core\lv_obj_style_gen.h **** {
 357:d:\kzc\stm32\h743ii_lcd\lvgl\src/core\lv_obj_style_gen.h ****     lv_style_value_t v = _lv_obj_style_apply_color_filter(obj, part, lv_obj_get_style_prop(obj, par
 358:d:\kzc\stm32\h743ii_lcd\lvgl\src/core\lv_obj_style_gen.h ****     return v.color;
 359:d:\kzc\stm32\h743ii_lcd\lvgl\src/core\lv_obj_style_gen.h **** }
 360:d:\kzc\stm32\h743ii_lcd\lvgl\src/core\lv_obj_style_gen.h **** 
 361:d:\kzc\stm32\h743ii_lcd\lvgl\src/core\lv_obj_style_gen.h **** static inline lv_opa_t lv_obj_get_style_img_recolor_opa(const struct _lv_obj_t * obj, uint32_t part
 362:d:\kzc\stm32\h743ii_lcd\lvgl\src/core\lv_obj_style_gen.h **** {
 363:d:\kzc\stm32\h743ii_lcd\lvgl\src/core\lv_obj_style_gen.h ****     lv_style_value_t v = lv_obj_get_style_prop(obj, part, LV_STYLE_IMG_RECOLOR_OPA);
 364:d:\kzc\stm32\h743ii_lcd\lvgl\src/core\lv_obj_style_gen.h ****     return (lv_opa_t)v.num;
 365:d:\kzc\stm32\h743ii_lcd\lvgl\src/core\lv_obj_style_gen.h **** }
 366:d:\kzc\stm32\h743ii_lcd\lvgl\src/core\lv_obj_style_gen.h **** 
 367:d:\kzc\stm32\h743ii_lcd\lvgl\src/core\lv_obj_style_gen.h **** static inline lv_coord_t lv_obj_get_style_line_width(const struct _lv_obj_t * obj, uint32_t part)
 368:d:\kzc\stm32\h743ii_lcd\lvgl\src/core\lv_obj_style_gen.h **** {
 369:d:\kzc\stm32\h743ii_lcd\lvgl\src/core\lv_obj_style_gen.h ****     lv_style_value_t v = lv_obj_get_style_prop(obj, part, LV_STYLE_LINE_WIDTH);
 370:d:\kzc\stm32\h743ii_lcd\lvgl\src/core\lv_obj_style_gen.h ****     return (lv_coord_t)v.num;
 371:d:\kzc\stm32\h743ii_lcd\lvgl\src/core\lv_obj_style_gen.h **** }
 372:d:\kzc\stm32\h743ii_lcd\lvgl\src/core\lv_obj_style_gen.h **** 
 373:d:\kzc\stm32\h743ii_lcd\lvgl\src/core\lv_obj_style_gen.h **** static inline lv_coord_t lv_obj_get_style_line_dash_width(const struct _lv_obj_t * obj, uint32_t pa
 374:d:\kzc\stm32\h743ii_lcd\lvgl\src/core\lv_obj_style_gen.h **** {
ARM GAS  C:\Users\OSD\AppData\Local\Temp\ccmEsMWN.s 			page 29


 375:d:\kzc\stm32\h743ii_lcd\lvgl\src/core\lv_obj_style_gen.h ****     lv_style_value_t v = lv_obj_get_style_prop(obj, part, LV_STYLE_LINE_DASH_WIDTH);
 376:d:\kzc\stm32\h743ii_lcd\lvgl\src/core\lv_obj_style_gen.h ****     return (lv_coord_t)v.num;
 377:d:\kzc\stm32\h743ii_lcd\lvgl\src/core\lv_obj_style_gen.h **** }
 378:d:\kzc\stm32\h743ii_lcd\lvgl\src/core\lv_obj_style_gen.h **** 
 379:d:\kzc\stm32\h743ii_lcd\lvgl\src/core\lv_obj_style_gen.h **** static inline lv_coord_t lv_obj_get_style_line_dash_gap(const struct _lv_obj_t * obj, uint32_t part
 380:d:\kzc\stm32\h743ii_lcd\lvgl\src/core\lv_obj_style_gen.h **** {
 381:d:\kzc\stm32\h743ii_lcd\lvgl\src/core\lv_obj_style_gen.h ****     lv_style_value_t v = lv_obj_get_style_prop(obj, part, LV_STYLE_LINE_DASH_GAP);
 382:d:\kzc\stm32\h743ii_lcd\lvgl\src/core\lv_obj_style_gen.h ****     return (lv_coord_t)v.num;
 383:d:\kzc\stm32\h743ii_lcd\lvgl\src/core\lv_obj_style_gen.h **** }
 384:d:\kzc\stm32\h743ii_lcd\lvgl\src/core\lv_obj_style_gen.h **** 
 385:d:\kzc\stm32\h743ii_lcd\lvgl\src/core\lv_obj_style_gen.h **** static inline bool lv_obj_get_style_line_rounded(const struct _lv_obj_t * obj, uint32_t part)
 386:d:\kzc\stm32\h743ii_lcd\lvgl\src/core\lv_obj_style_gen.h **** {
 387:d:\kzc\stm32\h743ii_lcd\lvgl\src/core\lv_obj_style_gen.h ****     lv_style_value_t v = lv_obj_get_style_prop(obj, part, LV_STYLE_LINE_ROUNDED);
 388:d:\kzc\stm32\h743ii_lcd\lvgl\src/core\lv_obj_style_gen.h ****     return (bool)v.num;
 389:d:\kzc\stm32\h743ii_lcd\lvgl\src/core\lv_obj_style_gen.h **** }
 390:d:\kzc\stm32\h743ii_lcd\lvgl\src/core\lv_obj_style_gen.h **** 
 391:d:\kzc\stm32\h743ii_lcd\lvgl\src/core\lv_obj_style_gen.h **** static inline lv_color_t lv_obj_get_style_line_color(const struct _lv_obj_t * obj, uint32_t part)
 392:d:\kzc\stm32\h743ii_lcd\lvgl\src/core\lv_obj_style_gen.h **** {
 393:d:\kzc\stm32\h743ii_lcd\lvgl\src/core\lv_obj_style_gen.h ****     lv_style_value_t v = lv_obj_get_style_prop(obj, part, LV_STYLE_LINE_COLOR);
 394:d:\kzc\stm32\h743ii_lcd\lvgl\src/core\lv_obj_style_gen.h ****     return v.color;
 395:d:\kzc\stm32\h743ii_lcd\lvgl\src/core\lv_obj_style_gen.h **** }
 396:d:\kzc\stm32\h743ii_lcd\lvgl\src/core\lv_obj_style_gen.h **** 
 397:d:\kzc\stm32\h743ii_lcd\lvgl\src/core\lv_obj_style_gen.h **** static inline lv_color_t lv_obj_get_style_line_color_filtered(const struct _lv_obj_t * obj, uint32_
 398:d:\kzc\stm32\h743ii_lcd\lvgl\src/core\lv_obj_style_gen.h **** {
 399:d:\kzc\stm32\h743ii_lcd\lvgl\src/core\lv_obj_style_gen.h ****     lv_style_value_t v = _lv_obj_style_apply_color_filter(obj, part, lv_obj_get_style_prop(obj, par
 400:d:\kzc\stm32\h743ii_lcd\lvgl\src/core\lv_obj_style_gen.h ****     return v.color;
 401:d:\kzc\stm32\h743ii_lcd\lvgl\src/core\lv_obj_style_gen.h **** }
 402:d:\kzc\stm32\h743ii_lcd\lvgl\src/core\lv_obj_style_gen.h **** 
 403:d:\kzc\stm32\h743ii_lcd\lvgl\src/core\lv_obj_style_gen.h **** static inline lv_opa_t lv_obj_get_style_line_opa(const struct _lv_obj_t * obj, uint32_t part)
 404:d:\kzc\stm32\h743ii_lcd\lvgl\src/core\lv_obj_style_gen.h **** {
 405:d:\kzc\stm32\h743ii_lcd\lvgl\src/core\lv_obj_style_gen.h ****     lv_style_value_t v = lv_obj_get_style_prop(obj, part, LV_STYLE_LINE_OPA);
 406:d:\kzc\stm32\h743ii_lcd\lvgl\src/core\lv_obj_style_gen.h ****     return (lv_opa_t)v.num;
 407:d:\kzc\stm32\h743ii_lcd\lvgl\src/core\lv_obj_style_gen.h **** }
 408:d:\kzc\stm32\h743ii_lcd\lvgl\src/core\lv_obj_style_gen.h **** 
 409:d:\kzc\stm32\h743ii_lcd\lvgl\src/core\lv_obj_style_gen.h **** static inline lv_coord_t lv_obj_get_style_arc_width(const struct _lv_obj_t * obj, uint32_t part)
 410:d:\kzc\stm32\h743ii_lcd\lvgl\src/core\lv_obj_style_gen.h **** {
 411:d:\kzc\stm32\h743ii_lcd\lvgl\src/core\lv_obj_style_gen.h ****     lv_style_value_t v = lv_obj_get_style_prop(obj, part, LV_STYLE_ARC_WIDTH);
 412:d:\kzc\stm32\h743ii_lcd\lvgl\src/core\lv_obj_style_gen.h ****     return (lv_coord_t)v.num;
 413:d:\kzc\stm32\h743ii_lcd\lvgl\src/core\lv_obj_style_gen.h **** }
 414:d:\kzc\stm32\h743ii_lcd\lvgl\src/core\lv_obj_style_gen.h **** 
 415:d:\kzc\stm32\h743ii_lcd\lvgl\src/core\lv_obj_style_gen.h **** static inline bool lv_obj_get_style_arc_rounded(const struct _lv_obj_t * obj, uint32_t part)
 416:d:\kzc\stm32\h743ii_lcd\lvgl\src/core\lv_obj_style_gen.h **** {
 417:d:\kzc\stm32\h743ii_lcd\lvgl\src/core\lv_obj_style_gen.h ****     lv_style_value_t v = lv_obj_get_style_prop(obj, part, LV_STYLE_ARC_ROUNDED);
 418:d:\kzc\stm32\h743ii_lcd\lvgl\src/core\lv_obj_style_gen.h ****     return (bool)v.num;
 419:d:\kzc\stm32\h743ii_lcd\lvgl\src/core\lv_obj_style_gen.h **** }
 420:d:\kzc\stm32\h743ii_lcd\lvgl\src/core\lv_obj_style_gen.h **** 
 421:d:\kzc\stm32\h743ii_lcd\lvgl\src/core\lv_obj_style_gen.h **** static inline lv_color_t lv_obj_get_style_arc_color(const struct _lv_obj_t * obj, uint32_t part)
 422:d:\kzc\stm32\h743ii_lcd\lvgl\src/core\lv_obj_style_gen.h **** {
 423:d:\kzc\stm32\h743ii_lcd\lvgl\src/core\lv_obj_style_gen.h ****     lv_style_value_t v = lv_obj_get_style_prop(obj, part, LV_STYLE_ARC_COLOR);
 424:d:\kzc\stm32\h743ii_lcd\lvgl\src/core\lv_obj_style_gen.h ****     return v.color;
 425:d:\kzc\stm32\h743ii_lcd\lvgl\src/core\lv_obj_style_gen.h **** }
 426:d:\kzc\stm32\h743ii_lcd\lvgl\src/core\lv_obj_style_gen.h **** 
 427:d:\kzc\stm32\h743ii_lcd\lvgl\src/core\lv_obj_style_gen.h **** static inline lv_color_t lv_obj_get_style_arc_color_filtered(const struct _lv_obj_t * obj, uint32_t
 428:d:\kzc\stm32\h743ii_lcd\lvgl\src/core\lv_obj_style_gen.h **** {
 429:d:\kzc\stm32\h743ii_lcd\lvgl\src/core\lv_obj_style_gen.h ****     lv_style_value_t v = _lv_obj_style_apply_color_filter(obj, part, lv_obj_get_style_prop(obj, par
 430:d:\kzc\stm32\h743ii_lcd\lvgl\src/core\lv_obj_style_gen.h ****     return v.color;
 431:d:\kzc\stm32\h743ii_lcd\lvgl\src/core\lv_obj_style_gen.h **** }
ARM GAS  C:\Users\OSD\AppData\Local\Temp\ccmEsMWN.s 			page 30


 432:d:\kzc\stm32\h743ii_lcd\lvgl\src/core\lv_obj_style_gen.h **** 
 433:d:\kzc\stm32\h743ii_lcd\lvgl\src/core\lv_obj_style_gen.h **** static inline lv_opa_t lv_obj_get_style_arc_opa(const struct _lv_obj_t * obj, uint32_t part)
 434:d:\kzc\stm32\h743ii_lcd\lvgl\src/core\lv_obj_style_gen.h **** {
 435:d:\kzc\stm32\h743ii_lcd\lvgl\src/core\lv_obj_style_gen.h ****     lv_style_value_t v = lv_obj_get_style_prop(obj, part, LV_STYLE_ARC_OPA);
 436:d:\kzc\stm32\h743ii_lcd\lvgl\src/core\lv_obj_style_gen.h ****     return (lv_opa_t)v.num;
 437:d:\kzc\stm32\h743ii_lcd\lvgl\src/core\lv_obj_style_gen.h **** }
 438:d:\kzc\stm32\h743ii_lcd\lvgl\src/core\lv_obj_style_gen.h **** 
 439:d:\kzc\stm32\h743ii_lcd\lvgl\src/core\lv_obj_style_gen.h **** static inline const void * lv_obj_get_style_arc_img_src(const struct _lv_obj_t * obj, uint32_t part
 440:d:\kzc\stm32\h743ii_lcd\lvgl\src/core\lv_obj_style_gen.h **** {
 441:d:\kzc\stm32\h743ii_lcd\lvgl\src/core\lv_obj_style_gen.h ****     lv_style_value_t v = lv_obj_get_style_prop(obj, part, LV_STYLE_ARC_IMG_SRC);
 442:d:\kzc\stm32\h743ii_lcd\lvgl\src/core\lv_obj_style_gen.h ****     return (const void *)v.ptr;
 443:d:\kzc\stm32\h743ii_lcd\lvgl\src/core\lv_obj_style_gen.h **** }
 444:d:\kzc\stm32\h743ii_lcd\lvgl\src/core\lv_obj_style_gen.h **** 
 445:d:\kzc\stm32\h743ii_lcd\lvgl\src/core\lv_obj_style_gen.h **** static inline lv_color_t lv_obj_get_style_text_color(const struct _lv_obj_t * obj, uint32_t part)
 446:d:\kzc\stm32\h743ii_lcd\lvgl\src/core\lv_obj_style_gen.h **** {
 447:d:\kzc\stm32\h743ii_lcd\lvgl\src/core\lv_obj_style_gen.h ****     lv_style_value_t v = lv_obj_get_style_prop(obj, part, LV_STYLE_TEXT_COLOR);
 448:d:\kzc\stm32\h743ii_lcd\lvgl\src/core\lv_obj_style_gen.h ****     return v.color;
 449:d:\kzc\stm32\h743ii_lcd\lvgl\src/core\lv_obj_style_gen.h **** }
 450:d:\kzc\stm32\h743ii_lcd\lvgl\src/core\lv_obj_style_gen.h **** 
 451:d:\kzc\stm32\h743ii_lcd\lvgl\src/core\lv_obj_style_gen.h **** static inline lv_color_t lv_obj_get_style_text_color_filtered(const struct _lv_obj_t * obj, uint32_
 452:d:\kzc\stm32\h743ii_lcd\lvgl\src/core\lv_obj_style_gen.h **** {
 453:d:\kzc\stm32\h743ii_lcd\lvgl\src/core\lv_obj_style_gen.h ****     lv_style_value_t v = _lv_obj_style_apply_color_filter(obj, part, lv_obj_get_style_prop(obj, par
 454:d:\kzc\stm32\h743ii_lcd\lvgl\src/core\lv_obj_style_gen.h ****     return v.color;
 455:d:\kzc\stm32\h743ii_lcd\lvgl\src/core\lv_obj_style_gen.h **** }
 456:d:\kzc\stm32\h743ii_lcd\lvgl\src/core\lv_obj_style_gen.h **** 
 457:d:\kzc\stm32\h743ii_lcd\lvgl\src/core\lv_obj_style_gen.h **** static inline lv_opa_t lv_obj_get_style_text_opa(const struct _lv_obj_t * obj, uint32_t part)
 458:d:\kzc\stm32\h743ii_lcd\lvgl\src/core\lv_obj_style_gen.h **** {
 459:d:\kzc\stm32\h743ii_lcd\lvgl\src/core\lv_obj_style_gen.h ****     lv_style_value_t v = lv_obj_get_style_prop(obj, part, LV_STYLE_TEXT_OPA);
 460:d:\kzc\stm32\h743ii_lcd\lvgl\src/core\lv_obj_style_gen.h ****     return (lv_opa_t)v.num;
 461:d:\kzc\stm32\h743ii_lcd\lvgl\src/core\lv_obj_style_gen.h **** }
 462:d:\kzc\stm32\h743ii_lcd\lvgl\src/core\lv_obj_style_gen.h **** 
 463:d:\kzc\stm32\h743ii_lcd\lvgl\src/core\lv_obj_style_gen.h **** static inline const lv_font_t * lv_obj_get_style_text_font(const struct _lv_obj_t * obj, uint32_t p
 464:d:\kzc\stm32\h743ii_lcd\lvgl\src/core\lv_obj_style_gen.h **** {
 465:d:\kzc\stm32\h743ii_lcd\lvgl\src/core\lv_obj_style_gen.h ****     lv_style_value_t v = lv_obj_get_style_prop(obj, part, LV_STYLE_TEXT_FONT);
 466:d:\kzc\stm32\h743ii_lcd\lvgl\src/core\lv_obj_style_gen.h ****     return (const lv_font_t *)v.ptr;
 467:d:\kzc\stm32\h743ii_lcd\lvgl\src/core\lv_obj_style_gen.h **** }
 468:d:\kzc\stm32\h743ii_lcd\lvgl\src/core\lv_obj_style_gen.h **** 
 469:d:\kzc\stm32\h743ii_lcd\lvgl\src/core\lv_obj_style_gen.h **** static inline lv_coord_t lv_obj_get_style_text_letter_space(const struct _lv_obj_t * obj, uint32_t 
 470:d:\kzc\stm32\h743ii_lcd\lvgl\src/core\lv_obj_style_gen.h **** {
 471:d:\kzc\stm32\h743ii_lcd\lvgl\src/core\lv_obj_style_gen.h ****     lv_style_value_t v = lv_obj_get_style_prop(obj, part, LV_STYLE_TEXT_LETTER_SPACE);
 472:d:\kzc\stm32\h743ii_lcd\lvgl\src/core\lv_obj_style_gen.h ****     return (lv_coord_t)v.num;
 473:d:\kzc\stm32\h743ii_lcd\lvgl\src/core\lv_obj_style_gen.h **** }
 474:d:\kzc\stm32\h743ii_lcd\lvgl\src/core\lv_obj_style_gen.h **** 
 475:d:\kzc\stm32\h743ii_lcd\lvgl\src/core\lv_obj_style_gen.h **** static inline lv_coord_t lv_obj_get_style_text_line_space(const struct _lv_obj_t * obj, uint32_t pa
 476:d:\kzc\stm32\h743ii_lcd\lvgl\src/core\lv_obj_style_gen.h **** {
 477:d:\kzc\stm32\h743ii_lcd\lvgl\src/core\lv_obj_style_gen.h ****     lv_style_value_t v = lv_obj_get_style_prop(obj, part, LV_STYLE_TEXT_LINE_SPACE);
 478:d:\kzc\stm32\h743ii_lcd\lvgl\src/core\lv_obj_style_gen.h ****     return (lv_coord_t)v.num;
 479:d:\kzc\stm32\h743ii_lcd\lvgl\src/core\lv_obj_style_gen.h **** }
 480:d:\kzc\stm32\h743ii_lcd\lvgl\src/core\lv_obj_style_gen.h **** 
 481:d:\kzc\stm32\h743ii_lcd\lvgl\src/core\lv_obj_style_gen.h **** static inline lv_text_decor_t lv_obj_get_style_text_decor(const struct _lv_obj_t * obj, uint32_t pa
 482:d:\kzc\stm32\h743ii_lcd\lvgl\src/core\lv_obj_style_gen.h **** {
 483:d:\kzc\stm32\h743ii_lcd\lvgl\src/core\lv_obj_style_gen.h ****     lv_style_value_t v = lv_obj_get_style_prop(obj, part, LV_STYLE_TEXT_DECOR);
 484:d:\kzc\stm32\h743ii_lcd\lvgl\src/core\lv_obj_style_gen.h ****     return (lv_text_decor_t)v.num;
 485:d:\kzc\stm32\h743ii_lcd\lvgl\src/core\lv_obj_style_gen.h **** }
 486:d:\kzc\stm32\h743ii_lcd\lvgl\src/core\lv_obj_style_gen.h **** 
 487:d:\kzc\stm32\h743ii_lcd\lvgl\src/core\lv_obj_style_gen.h **** static inline lv_text_align_t lv_obj_get_style_text_align(const struct _lv_obj_t * obj, uint32_t pa
 488:d:\kzc\stm32\h743ii_lcd\lvgl\src/core\lv_obj_style_gen.h **** {
ARM GAS  C:\Users\OSD\AppData\Local\Temp\ccmEsMWN.s 			page 31


 489:d:\kzc\stm32\h743ii_lcd\lvgl\src/core\lv_obj_style_gen.h ****     lv_style_value_t v = lv_obj_get_style_prop(obj, part, LV_STYLE_TEXT_ALIGN);
 490:d:\kzc\stm32\h743ii_lcd\lvgl\src/core\lv_obj_style_gen.h ****     return (lv_text_align_t)v.num;
 491:d:\kzc\stm32\h743ii_lcd\lvgl\src/core\lv_obj_style_gen.h **** }
 492:d:\kzc\stm32\h743ii_lcd\lvgl\src/core\lv_obj_style_gen.h **** 
 493:d:\kzc\stm32\h743ii_lcd\lvgl\src/core\lv_obj_style_gen.h **** static inline lv_coord_t lv_obj_get_style_radius(const struct _lv_obj_t * obj, uint32_t part)
 494:d:\kzc\stm32\h743ii_lcd\lvgl\src/core\lv_obj_style_gen.h **** {
 495:d:\kzc\stm32\h743ii_lcd\lvgl\src/core\lv_obj_style_gen.h ****     lv_style_value_t v = lv_obj_get_style_prop(obj, part, LV_STYLE_RADIUS);
 496:d:\kzc\stm32\h743ii_lcd\lvgl\src/core\lv_obj_style_gen.h ****     return (lv_coord_t)v.num;
 497:d:\kzc\stm32\h743ii_lcd\lvgl\src/core\lv_obj_style_gen.h **** }
 498:d:\kzc\stm32\h743ii_lcd\lvgl\src/core\lv_obj_style_gen.h **** 
 499:d:\kzc\stm32\h743ii_lcd\lvgl\src/core\lv_obj_style_gen.h **** static inline bool lv_obj_get_style_clip_corner(const struct _lv_obj_t * obj, uint32_t part)
 500:d:\kzc\stm32\h743ii_lcd\lvgl\src/core\lv_obj_style_gen.h **** {
 501:d:\kzc\stm32\h743ii_lcd\lvgl\src/core\lv_obj_style_gen.h ****     lv_style_value_t v = lv_obj_get_style_prop(obj, part, LV_STYLE_CLIP_CORNER);
 502:d:\kzc\stm32\h743ii_lcd\lvgl\src/core\lv_obj_style_gen.h ****     return (bool)v.num;
 503:d:\kzc\stm32\h743ii_lcd\lvgl\src/core\lv_obj_style_gen.h **** }
 504:d:\kzc\stm32\h743ii_lcd\lvgl\src/core\lv_obj_style_gen.h **** 
 505:d:\kzc\stm32\h743ii_lcd\lvgl\src/core\lv_obj_style_gen.h **** static inline lv_opa_t lv_obj_get_style_opa(const struct _lv_obj_t * obj, uint32_t part)
 506:d:\kzc\stm32\h743ii_lcd\lvgl\src/core\lv_obj_style_gen.h **** {
 507:d:\kzc\stm32\h743ii_lcd\lvgl\src/core\lv_obj_style_gen.h ****     lv_style_value_t v = lv_obj_get_style_prop(obj, part, LV_STYLE_OPA);
 508:d:\kzc\stm32\h743ii_lcd\lvgl\src/core\lv_obj_style_gen.h ****     return (lv_opa_t)v.num;
 509:d:\kzc\stm32\h743ii_lcd\lvgl\src/core\lv_obj_style_gen.h **** }
 510:d:\kzc\stm32\h743ii_lcd\lvgl\src/core\lv_obj_style_gen.h **** 
 511:d:\kzc\stm32\h743ii_lcd\lvgl\src/core\lv_obj_style_gen.h **** static inline lv_opa_t lv_obj_get_style_opa_layered(const struct _lv_obj_t * obj, uint32_t part)
 512:d:\kzc\stm32\h743ii_lcd\lvgl\src/core\lv_obj_style_gen.h **** {
 513:d:\kzc\stm32\h743ii_lcd\lvgl\src/core\lv_obj_style_gen.h ****     lv_style_value_t v = lv_obj_get_style_prop(obj, part, LV_STYLE_OPA_LAYERED);
 514:d:\kzc\stm32\h743ii_lcd\lvgl\src/core\lv_obj_style_gen.h ****     return (lv_opa_t)v.num;
 515:d:\kzc\stm32\h743ii_lcd\lvgl\src/core\lv_obj_style_gen.h **** }
 516:d:\kzc\stm32\h743ii_lcd\lvgl\src/core\lv_obj_style_gen.h **** 
 517:d:\kzc\stm32\h743ii_lcd\lvgl\src/core\lv_obj_style_gen.h **** static inline const lv_color_filter_dsc_t * lv_obj_get_style_color_filter_dsc(const struct _lv_obj_
 518:d:\kzc\stm32\h743ii_lcd\lvgl\src/core\lv_obj_style_gen.h **** {
 519:d:\kzc\stm32\h743ii_lcd\lvgl\src/core\lv_obj_style_gen.h ****     lv_style_value_t v = lv_obj_get_style_prop(obj, part, LV_STYLE_COLOR_FILTER_DSC);
 520:d:\kzc\stm32\h743ii_lcd\lvgl\src/core\lv_obj_style_gen.h ****     return (const lv_color_filter_dsc_t *)v.ptr;
 521:d:\kzc\stm32\h743ii_lcd\lvgl\src/core\lv_obj_style_gen.h **** }
 522:d:\kzc\stm32\h743ii_lcd\lvgl\src/core\lv_obj_style_gen.h **** 
 523:d:\kzc\stm32\h743ii_lcd\lvgl\src/core\lv_obj_style_gen.h **** static inline lv_opa_t lv_obj_get_style_color_filter_opa(const struct _lv_obj_t * obj, uint32_t par
 524:d:\kzc\stm32\h743ii_lcd\lvgl\src/core\lv_obj_style_gen.h **** {
 525:d:\kzc\stm32\h743ii_lcd\lvgl\src/core\lv_obj_style_gen.h ****     lv_style_value_t v = lv_obj_get_style_prop(obj, part, LV_STYLE_COLOR_FILTER_OPA);
 526:d:\kzc\stm32\h743ii_lcd\lvgl\src/core\lv_obj_style_gen.h ****     return (lv_opa_t)v.num;
 527:d:\kzc\stm32\h743ii_lcd\lvgl\src/core\lv_obj_style_gen.h **** }
 528:d:\kzc\stm32\h743ii_lcd\lvgl\src/core\lv_obj_style_gen.h **** 
 529:d:\kzc\stm32\h743ii_lcd\lvgl\src/core\lv_obj_style_gen.h **** static inline const lv_anim_t * lv_obj_get_style_anim(const struct _lv_obj_t * obj, uint32_t part)
 530:d:\kzc\stm32\h743ii_lcd\lvgl\src/core\lv_obj_style_gen.h **** {
 531:d:\kzc\stm32\h743ii_lcd\lvgl\src/core\lv_obj_style_gen.h ****     lv_style_value_t v = lv_obj_get_style_prop(obj, part, LV_STYLE_ANIM);
 532:d:\kzc\stm32\h743ii_lcd\lvgl\src/core\lv_obj_style_gen.h ****     return (const lv_anim_t *)v.ptr;
 533:d:\kzc\stm32\h743ii_lcd\lvgl\src/core\lv_obj_style_gen.h **** }
 534:d:\kzc\stm32\h743ii_lcd\lvgl\src/core\lv_obj_style_gen.h **** 
 535:d:\kzc\stm32\h743ii_lcd\lvgl\src/core\lv_obj_style_gen.h **** static inline uint32_t lv_obj_get_style_anim_time(const struct _lv_obj_t * obj, uint32_t part)
 536:d:\kzc\stm32\h743ii_lcd\lvgl\src/core\lv_obj_style_gen.h **** {
 537:d:\kzc\stm32\h743ii_lcd\lvgl\src/core\lv_obj_style_gen.h ****     lv_style_value_t v = lv_obj_get_style_prop(obj, part, LV_STYLE_ANIM_TIME);
 538:d:\kzc\stm32\h743ii_lcd\lvgl\src/core\lv_obj_style_gen.h ****     return (uint32_t)v.num;
 539:d:\kzc\stm32\h743ii_lcd\lvgl\src/core\lv_obj_style_gen.h **** }
 540:d:\kzc\stm32\h743ii_lcd\lvgl\src/core\lv_obj_style_gen.h **** 
 541:d:\kzc\stm32\h743ii_lcd\lvgl\src/core\lv_obj_style_gen.h **** static inline uint32_t lv_obj_get_style_anim_speed(const struct _lv_obj_t * obj, uint32_t part)
 542:d:\kzc\stm32\h743ii_lcd\lvgl\src/core\lv_obj_style_gen.h **** {
 543:d:\kzc\stm32\h743ii_lcd\lvgl\src/core\lv_obj_style_gen.h ****     lv_style_value_t v = lv_obj_get_style_prop(obj, part, LV_STYLE_ANIM_SPEED);
 544:d:\kzc\stm32\h743ii_lcd\lvgl\src/core\lv_obj_style_gen.h ****     return (uint32_t)v.num;
 545:d:\kzc\stm32\h743ii_lcd\lvgl\src/core\lv_obj_style_gen.h **** }
ARM GAS  C:\Users\OSD\AppData\Local\Temp\ccmEsMWN.s 			page 32


 546:d:\kzc\stm32\h743ii_lcd\lvgl\src/core\lv_obj_style_gen.h **** 
 547:d:\kzc\stm32\h743ii_lcd\lvgl\src/core\lv_obj_style_gen.h **** static inline const lv_style_transition_dsc_t * lv_obj_get_style_transition(const struct _lv_obj_t 
 548:d:\kzc\stm32\h743ii_lcd\lvgl\src/core\lv_obj_style_gen.h **** {
 549:d:\kzc\stm32\h743ii_lcd\lvgl\src/core\lv_obj_style_gen.h ****     lv_style_value_t v = lv_obj_get_style_prop(obj, part, LV_STYLE_TRANSITION);
 550:d:\kzc\stm32\h743ii_lcd\lvgl\src/core\lv_obj_style_gen.h ****     return (const lv_style_transition_dsc_t *)v.ptr;
 551:d:\kzc\stm32\h743ii_lcd\lvgl\src/core\lv_obj_style_gen.h **** }
 552:d:\kzc\stm32\h743ii_lcd\lvgl\src/core\lv_obj_style_gen.h **** 
 553:d:\kzc\stm32\h743ii_lcd\lvgl\src/core\lv_obj_style_gen.h **** static inline lv_blend_mode_t lv_obj_get_style_blend_mode(const struct _lv_obj_t * obj, uint32_t pa
 554:d:\kzc\stm32\h743ii_lcd\lvgl\src/core\lv_obj_style_gen.h **** {
 555:d:\kzc\stm32\h743ii_lcd\lvgl\src/core\lv_obj_style_gen.h ****     lv_style_value_t v = lv_obj_get_style_prop(obj, part, LV_STYLE_BLEND_MODE);
 556:d:\kzc\stm32\h743ii_lcd\lvgl\src/core\lv_obj_style_gen.h ****     return (lv_blend_mode_t)v.num;
 557:d:\kzc\stm32\h743ii_lcd\lvgl\src/core\lv_obj_style_gen.h **** }
 558:d:\kzc\stm32\h743ii_lcd\lvgl\src/core\lv_obj_style_gen.h **** 
 559:d:\kzc\stm32\h743ii_lcd\lvgl\src/core\lv_obj_style_gen.h **** static inline uint16_t lv_obj_get_style_layout(const struct _lv_obj_t * obj, uint32_t part)
 560:d:\kzc\stm32\h743ii_lcd\lvgl\src/core\lv_obj_style_gen.h **** {
 561:d:\kzc\stm32\h743ii_lcd\lvgl\src/core\lv_obj_style_gen.h ****     lv_style_value_t v = lv_obj_get_style_prop(obj, part, LV_STYLE_LAYOUT);
 562:d:\kzc\stm32\h743ii_lcd\lvgl\src/core\lv_obj_style_gen.h ****     return (uint16_t)v.num;
 563:d:\kzc\stm32\h743ii_lcd\lvgl\src/core\lv_obj_style_gen.h **** }
 564:d:\kzc\stm32\h743ii_lcd\lvgl\src/core\lv_obj_style_gen.h **** 
 565:d:\kzc\stm32\h743ii_lcd\lvgl\src/core\lv_obj_style_gen.h **** static inline lv_base_dir_t lv_obj_get_style_base_dir(const struct _lv_obj_t * obj, uint32_t part)
 764              		.loc 2 565 29 view .LVU206
 765              	.LBB24:
 566:d:\kzc\stm32\h743ii_lcd\lvgl\src/core\lv_obj_style_gen.h **** {
 567:d:\kzc\stm32\h743ii_lcd\lvgl\src/core\lv_obj_style_gen.h ****     lv_style_value_t v = lv_obj_get_style_prop(obj, part, LV_STYLE_BASE_DIR);
 766              		.loc 2 567 5 view .LVU207
 767              		.loc 2 567 26 is_stmt 0 view .LVU208
 768 004c 1622     		movs	r2, #22
 769 004e 0021     		movs	r1, #0
 770 0050 2046     		mov	r0, r4
 771 0052 FFF7FEFF 		bl	lv_obj_get_style_prop
 772              	.LVL92:
 568:d:\kzc\stm32\h743ii_lcd\lvgl\src/core\lv_obj_style_gen.h ****     return (lv_base_dir_t)v.num;
 773              		.loc 2 568 5 is_stmt 1 view .LVU209
 774              		.loc 2 568 12 is_stmt 0 view .LVU210
 775 0056 C3B2     		uxtb	r3, r0
 776              	.LVL93:
 777              		.loc 2 568 12 view .LVU211
 778              	.LBE24:
 779              	.LBE23:
 158:lvgl/src/extra/widgets/tabview/lv_tabview.c ****             lv_obj_scroll_to_x(cont, id * (gap + w), anim_en);
 780              		.loc 1 158 11 view .LVU212
 781 0058 012B     		cmp	r3, #1
 782 005a 09D0     		beq	.L46
 159:lvgl/src/extra/widgets/tabview/lv_tabview.c ****         }
 783              		.loc 1 159 13 is_stmt 1 view .LVU213
 159:lvgl/src/extra/widgets/tabview/lv_tabview.c ****         }
 784              		.loc 1 159 48 is_stmt 0 view .LVU214
 785 005c 08EB0901 		add	r1, r8, r9
 159:lvgl/src/extra/widgets/tabview/lv_tabview.c ****         }
 786              		.loc 1 159 13 view .LVU215
 787 0060 11FB05F1 		smulbb	r1, r1, r5
 788 0064 3246     		mov	r2, r6
 789 0066 09B2     		sxth	r1, r1
 790 0068 3846     		mov	r0, r7
 791 006a FFF7FEFF 		bl	lv_obj_scroll_to_x
 792              	.LVL94:
 793 006e 1CE0     		b	.L47
ARM GAS  C:\Users\OSD\AppData\Local\Temp\ccmEsMWN.s 			page 33


 794              	.L46:
 795              	.LBB25:
 162:lvgl/src/extra/widgets/tabview/lv_tabview.c ****             lv_obj_scroll_to_x(cont, (gap + w) * id_rtl, anim_en);
 796              		.loc 1 162 13 is_stmt 1 view .LVU216
 162:lvgl/src/extra/widgets/tabview/lv_tabview.c ****             lv_obj_scroll_to_x(cont, (gap + w) * id_rtl, anim_en);
 797              		.loc 1 162 21 is_stmt 0 view .LVU217
 798 0070 6942     		rsbs	r1, r5, #0
 163:lvgl/src/extra/widgets/tabview/lv_tabview.c ****         }
 799              		.loc 1 163 13 is_stmt 1 view .LVU218
 163:lvgl/src/extra/widgets/tabview/lv_tabview.c ****         }
 800              		.loc 1 163 43 is_stmt 0 view .LVU219
 801 0072 08EB0900 		add	r0, r8, r9
 163:lvgl/src/extra/widgets/tabview/lv_tabview.c ****         }
 802              		.loc 1 163 13 view .LVU220
 803 0076 10FB01F1 		smulbb	r1, r0, r1
 804 007a 3246     		mov	r2, r6
 805 007c 09B2     		sxth	r1, r1
 806 007e 3846     		mov	r0, r7
 807 0080 FFF7FEFF 		bl	lv_obj_scroll_to_x
 808              	.LVL95:
 809 0084 11E0     		b	.L47
 810              	.LVL96:
 811              	.L45:
 163:lvgl/src/extra/widgets/tabview/lv_tabview.c ****         }
 812              		.loc 1 163 13 view .LVU221
 813              	.LBE25:
 814              	.LBE20:
 815              	.LBB26:
 167:lvgl/src/extra/widgets/tabview/lv_tabview.c ****         lv_coord_t h = lv_obj_get_content_height(cont);
 816              		.loc 1 167 9 is_stmt 1 view .LVU222
 817              	.LBB27:
 818              	.LBI27:
 127:d:\kzc\stm32\h743ii_lcd\lvgl\src/core\lv_obj_style_gen.h **** {
 819              		.loc 2 127 26 view .LVU223
 820              	.LBB28:
 129:d:\kzc\stm32\h743ii_lcd\lvgl\src/core\lv_obj_style_gen.h ****     return (lv_coord_t)v.num;
 821              		.loc 2 129 5 view .LVU224
 129:d:\kzc\stm32\h743ii_lcd\lvgl\src/core\lv_obj_style_gen.h ****     return (lv_coord_t)v.num;
 822              		.loc 2 129 26 is_stmt 0 view .LVU225
 823 0086 1422     		movs	r2, #20
 824 0088 0021     		movs	r1, #0
 825 008a FFF7FEFF 		bl	lv_obj_get_style_prop
 826              	.LVL97:
 130:d:\kzc\stm32\h743ii_lcd\lvgl\src/core\lv_obj_style_gen.h **** }
 827              		.loc 2 130 5 is_stmt 1 view .LVU226
 130:d:\kzc\stm32\h743ii_lcd\lvgl\src/core\lv_obj_style_gen.h **** }
 828              		.loc 2 130 12 is_stmt 0 view .LVU227
 829 008e 0FFA80F8 		sxth	r8, r0
 830              	.LVL98:
 130:d:\kzc\stm32\h743ii_lcd\lvgl\src/core\lv_obj_style_gen.h **** }
 831              		.loc 2 130 12 view .LVU228
 832              	.LBE28:
 833              	.LBE27:
 168:lvgl/src/extra/widgets/tabview/lv_tabview.c ****         lv_obj_scroll_to_y(cont, id * (gap + h), anim_en);
 834              		.loc 1 168 9 is_stmt 1 view .LVU229
 168:lvgl/src/extra/widgets/tabview/lv_tabview.c ****         lv_obj_scroll_to_y(cont, id * (gap + h), anim_en);
 835              		.loc 1 168 24 is_stmt 0 view .LVU230
ARM GAS  C:\Users\OSD\AppData\Local\Temp\ccmEsMWN.s 			page 34


 836 0092 3846     		mov	r0, r7
 837 0094 FFF7FEFF 		bl	lv_obj_get_content_height
 838              	.LVL99:
 169:lvgl/src/extra/widgets/tabview/lv_tabview.c ****     }
 839              		.loc 1 169 9 is_stmt 1 view .LVU231
 169:lvgl/src/extra/widgets/tabview/lv_tabview.c ****     }
 840              		.loc 1 169 44 is_stmt 0 view .LVU232
 841 0098 08EB0001 		add	r1, r8, r0
 169:lvgl/src/extra/widgets/tabview/lv_tabview.c ****     }
 842              		.loc 1 169 9 view .LVU233
 843 009c 11FB05F1 		smulbb	r1, r1, r5
 844 00a0 3246     		mov	r2, r6
 845 00a2 09B2     		sxth	r1, r1
 846 00a4 3846     		mov	r0, r7
 847              	.LVL100:
 169:lvgl/src/extra/widgets/tabview/lv_tabview.c ****     }
 848              		.loc 1 169 9 view .LVU234
 849 00a6 FFF7FEFF 		bl	lv_obj_scroll_to_y
 850              	.LVL101:
 851              	.L47:
 169:lvgl/src/extra/widgets/tabview/lv_tabview.c ****     }
 852              		.loc 1 169 9 view .LVU235
 853              	.LBE26:
 172:lvgl/src/extra/widgets/tabview/lv_tabview.c ****     lv_btnmatrix_set_btn_ctrl(btns, id, LV_BTNMATRIX_CTRL_CHECKED);
 854              		.loc 1 172 5 is_stmt 1 view .LVU236
 172:lvgl/src/extra/widgets/tabview/lv_tabview.c ****     lv_btnmatrix_set_btn_ctrl(btns, id, LV_BTNMATRIX_CTRL_CHECKED);
 855              		.loc 1 172 23 is_stmt 0 view .LVU237
 856 00aa 2046     		mov	r0, r4
 857 00ac FFF7FEFF 		bl	lv_tabview_get_tab_btns
 858              	.LVL102:
 173:lvgl/src/extra/widgets/tabview/lv_tabview.c ****     tabview->tab_cur = id;
 859              		.loc 1 173 5 is_stmt 1 view .LVU238
 860 00b0 ADB2     		uxth	r5, r5
 861              	.LVL103:
 173:lvgl/src/extra/widgets/tabview/lv_tabview.c ****     tabview->tab_cur = id;
 862              		.loc 1 173 5 is_stmt 0 view .LVU239
 863 00b2 4FF48072 		mov	r2, #256
 864 00b6 2946     		mov	r1, r5
 865 00b8 FFF7FEFF 		bl	lv_btnmatrix_set_btn_ctrl
 866              	.LVL104:
 174:lvgl/src/extra/widgets/tabview/lv_tabview.c **** }
 867              		.loc 1 174 5 is_stmt 1 view .LVU240
 174:lvgl/src/extra/widgets/tabview/lv_tabview.c **** }
 868              		.loc 1 174 22 is_stmt 0 view .LVU241
 869 00bc 6585     		strh	r5, [r4, #42]	@ movhi
 870              	.LVL105:
 871              	.L42:
 175:lvgl/src/extra/widgets/tabview/lv_tabview.c **** 
 872              		.loc 1 175 1 view .LVU242
 873 00be BDE8F883 		pop	{r3, r4, r5, r6, r7, r8, r9, pc}
 874              		.cfi_endproc
 875              	.LFE207:
 877              		.section	.text.lv_tabview_event,"ax",%progbits
 878              		.align	1
 879              		.syntax unified
 880              		.thumb
 881              		.thumb_func
ARM GAS  C:\Users\OSD\AppData\Local\Temp\ccmEsMWN.s 			page 35


 883              	lv_tabview_event:
 884              	.LVL106:
 885              	.LFB213:
 290:lvgl/src/extra/widgets/tabview/lv_tabview.c **** 
 291:lvgl/src/extra/widgets/tabview/lv_tabview.c **** static void lv_tabview_event(const lv_obj_class_t * class_p, lv_event_t * e)
 292:lvgl/src/extra/widgets/tabview/lv_tabview.c **** {
 886              		.loc 1 292 1 is_stmt 1 view -0
 887              		.cfi_startproc
 888              		@ args = 0, pretend = 0, frame = 0
 889              		@ frame_needed = 0, uses_anonymous_args = 0
 890              		.loc 1 292 1 is_stmt 0 view .LVU244
 891 0000 38B5     		push	{r3, r4, r5, lr}
 892              		.cfi_def_cfa_offset 16
 893              		.cfi_offset 3, -16
 894              		.cfi_offset 4, -12
 895              		.cfi_offset 5, -8
 896              		.cfi_offset 14, -4
 897 0002 0C46     		mov	r4, r1
 293:lvgl/src/extra/widgets/tabview/lv_tabview.c ****     LV_UNUSED(class_p);
 898              		.loc 1 293 5 is_stmt 1 view .LVU245
 294:lvgl/src/extra/widgets/tabview/lv_tabview.c ****     lv_res_t res = lv_obj_event_base(&lv_tabview_class, e);
 899              		.loc 1 294 5 view .LVU246
 900              		.loc 1 294 20 is_stmt 0 view .LVU247
 901 0004 0B48     		ldr	r0, .L53
 902              	.LVL107:
 903              		.loc 1 294 20 view .LVU248
 904 0006 FFF7FEFF 		bl	lv_obj_event_base
 905              	.LVL108:
 295:lvgl/src/extra/widgets/tabview/lv_tabview.c ****     if(res != LV_RES_OK) return;
 906              		.loc 1 295 5 is_stmt 1 view .LVU249
 907              		.loc 1 295 7 is_stmt 0 view .LVU250
 908 000a 0128     		cmp	r0, #1
 909 000c 00D0     		beq	.L52
 910              	.LVL109:
 911              	.L49:
 296:lvgl/src/extra/widgets/tabview/lv_tabview.c **** 
 297:lvgl/src/extra/widgets/tabview/lv_tabview.c ****     lv_event_code_t code = lv_event_get_code(e);
 298:lvgl/src/extra/widgets/tabview/lv_tabview.c ****     lv_obj_t * target = lv_event_get_target(e);
 299:lvgl/src/extra/widgets/tabview/lv_tabview.c **** 
 300:lvgl/src/extra/widgets/tabview/lv_tabview.c ****     if(code == LV_EVENT_SIZE_CHANGED) {
 301:lvgl/src/extra/widgets/tabview/lv_tabview.c ****         lv_tabview_set_act(target, lv_tabview_get_tab_act(target), LV_ANIM_OFF);
 302:lvgl/src/extra/widgets/tabview/lv_tabview.c ****     }
 303:lvgl/src/extra/widgets/tabview/lv_tabview.c **** }
 912              		.loc 1 303 1 view .LVU251
 913 000e 38BD     		pop	{r3, r4, r5, pc}
 914              	.LVL110:
 915              	.L52:
 297:lvgl/src/extra/widgets/tabview/lv_tabview.c ****     lv_obj_t * target = lv_event_get_target(e);
 916              		.loc 1 297 5 is_stmt 1 view .LVU252
 297:lvgl/src/extra/widgets/tabview/lv_tabview.c ****     lv_obj_t * target = lv_event_get_target(e);
 917              		.loc 1 297 28 is_stmt 0 view .LVU253
 918 0010 2046     		mov	r0, r4
 919              	.LVL111:
 297:lvgl/src/extra/widgets/tabview/lv_tabview.c ****     lv_obj_t * target = lv_event_get_target(e);
 920              		.loc 1 297 28 view .LVU254
 921 0012 FFF7FEFF 		bl	lv_event_get_code
 922              	.LVL112:
ARM GAS  C:\Users\OSD\AppData\Local\Temp\ccmEsMWN.s 			page 36


 923 0016 0546     		mov	r5, r0
 924              	.LVL113:
 298:lvgl/src/extra/widgets/tabview/lv_tabview.c **** 
 925              		.loc 1 298 5 is_stmt 1 view .LVU255
 298:lvgl/src/extra/widgets/tabview/lv_tabview.c **** 
 926              		.loc 1 298 25 is_stmt 0 view .LVU256
 927 0018 2046     		mov	r0, r4
 928 001a FFF7FEFF 		bl	lv_event_get_target
 929              	.LVL114:
 930 001e 0446     		mov	r4, r0
 931              	.LVL115:
 300:lvgl/src/extra/widgets/tabview/lv_tabview.c ****         lv_tabview_set_act(target, lv_tabview_get_tab_act(target), LV_ANIM_OFF);
 932              		.loc 1 300 5 is_stmt 1 view .LVU257
 300:lvgl/src/extra/widgets/tabview/lv_tabview.c ****         lv_tabview_set_act(target, lv_tabview_get_tab_act(target), LV_ANIM_OFF);
 933              		.loc 1 300 7 is_stmt 0 view .LVU258
 934 0020 292D     		cmp	r5, #41
 935 0022 F4D1     		bne	.L49
 301:lvgl/src/extra/widgets/tabview/lv_tabview.c ****     }
 936              		.loc 1 301 9 is_stmt 1 view .LVU259
 301:lvgl/src/extra/widgets/tabview/lv_tabview.c ****     }
 937              		.loc 1 301 36 is_stmt 0 view .LVU260
 938 0024 FFF7FEFF 		bl	lv_tabview_get_tab_act
 939              	.LVL116:
 301:lvgl/src/extra/widgets/tabview/lv_tabview.c ****     }
 940              		.loc 1 301 36 view .LVU261
 941 0028 0146     		mov	r1, r0
 301:lvgl/src/extra/widgets/tabview/lv_tabview.c ****     }
 942              		.loc 1 301 9 view .LVU262
 943 002a 0022     		movs	r2, #0
 944 002c 2046     		mov	r0, r4
 945 002e FFF7FEFF 		bl	lv_tabview_set_act
 946              	.LVL117:
 947 0032 ECE7     		b	.L49
 948              	.L54:
 949              		.align	2
 950              	.L53:
 951 0034 00000000 		.word	.LANCHOR2
 952              		.cfi_endproc
 953              	.LFE213:
 955              		.section	.text.cont_scroll_end_event_cb,"ax",%progbits
 956              		.align	1
 957              		.syntax unified
 958              		.thumb
 959              		.thumb_func
 961              	cont_scroll_end_event_cb:
 962              	.LVL118:
 963              	.LFB215:
 304:lvgl/src/extra/widgets/tabview/lv_tabview.c **** 
 305:lvgl/src/extra/widgets/tabview/lv_tabview.c **** static void btns_value_changed_event_cb(lv_event_t * e)
 306:lvgl/src/extra/widgets/tabview/lv_tabview.c **** {
 307:lvgl/src/extra/widgets/tabview/lv_tabview.c ****     lv_obj_t * btns = lv_event_get_target(e);
 308:lvgl/src/extra/widgets/tabview/lv_tabview.c **** 
 309:lvgl/src/extra/widgets/tabview/lv_tabview.c ****     lv_obj_t * tv = lv_obj_get_parent(btns);
 310:lvgl/src/extra/widgets/tabview/lv_tabview.c ****     uint32_t id = lv_btnmatrix_get_selected_btn(btns);
 311:lvgl/src/extra/widgets/tabview/lv_tabview.c ****     lv_tabview_set_act(tv, id, LV_ANIM_OFF);
 312:lvgl/src/extra/widgets/tabview/lv_tabview.c **** }
 313:lvgl/src/extra/widgets/tabview/lv_tabview.c **** 
ARM GAS  C:\Users\OSD\AppData\Local\Temp\ccmEsMWN.s 			page 37


 314:lvgl/src/extra/widgets/tabview/lv_tabview.c **** static void cont_scroll_end_event_cb(lv_event_t * e)
 315:lvgl/src/extra/widgets/tabview/lv_tabview.c **** {
 964              		.loc 1 315 1 is_stmt 1 view -0
 965              		.cfi_startproc
 966              		@ args = 0, pretend = 0, frame = 8
 967              		@ frame_needed = 0, uses_anonymous_args = 0
 968              		.loc 1 315 1 is_stmt 0 view .LVU264
 969 0000 70B5     		push	{r4, r5, r6, lr}
 970              		.cfi_def_cfa_offset 16
 971              		.cfi_offset 4, -16
 972              		.cfi_offset 5, -12
 973              		.cfi_offset 6, -8
 974              		.cfi_offset 14, -4
 975 0002 82B0     		sub	sp, sp, #8
 976              		.cfi_def_cfa_offset 24
 977 0004 0446     		mov	r4, r0
 316:lvgl/src/extra/widgets/tabview/lv_tabview.c ****     lv_obj_t * cont = lv_event_get_target(e);
 978              		.loc 1 316 5 is_stmt 1 view .LVU265
 979              		.loc 1 316 23 is_stmt 0 view .LVU266
 980 0006 FFF7FEFF 		bl	lv_event_get_target
 981              	.LVL119:
 982              		.loc 1 316 23 view .LVU267
 983 000a 0546     		mov	r5, r0
 984              	.LVL120:
 317:lvgl/src/extra/widgets/tabview/lv_tabview.c ****     lv_event_code_t code = lv_event_get_code(e);
 985              		.loc 1 317 5 is_stmt 1 view .LVU268
 986              		.loc 1 317 28 is_stmt 0 view .LVU269
 987 000c 2046     		mov	r0, r4
 988              	.LVL121:
 989              		.loc 1 317 28 view .LVU270
 990 000e FFF7FEFF 		bl	lv_event_get_code
 991              	.LVL122:
 992 0012 0446     		mov	r4, r0
 993              	.LVL123:
 318:lvgl/src/extra/widgets/tabview/lv_tabview.c **** 
 319:lvgl/src/extra/widgets/tabview/lv_tabview.c ****     lv_obj_t * tv = lv_obj_get_parent(cont);
 994              		.loc 1 319 5 is_stmt 1 view .LVU271
 995              		.loc 1 319 21 is_stmt 0 view .LVU272
 996 0014 2846     		mov	r0, r5
 997 0016 FFF7FEFF 		bl	lv_obj_get_parent
 998              	.LVL124:
 999 001a 0646     		mov	r6, r0
 1000              	.LVL125:
 320:lvgl/src/extra/widgets/tabview/lv_tabview.c ****     lv_tabview_t * tv_obj = (lv_tabview_t *)tv;
 1001              		.loc 1 320 5 is_stmt 1 view .LVU273
 321:lvgl/src/extra/widgets/tabview/lv_tabview.c ****     if(code == LV_EVENT_LAYOUT_CHANGED) {
 1002              		.loc 1 321 5 view .LVU274
 1003              		.loc 1 321 7 is_stmt 0 view .LVU275
 1004 001c 2B2C     		cmp	r4, #43
 1005 001e 03D0     		beq	.L71
 322:lvgl/src/extra/widgets/tabview/lv_tabview.c ****         lv_tabview_set_act(tv, lv_tabview_get_tab_act(tv), LV_ANIM_OFF);
 323:lvgl/src/extra/widgets/tabview/lv_tabview.c ****     }
 324:lvgl/src/extra/widgets/tabview/lv_tabview.c ****     else if(code == LV_EVENT_SCROLL_END) {
 1006              		.loc 1 324 10 is_stmt 1 view .LVU276
 1007              		.loc 1 324 12 is_stmt 0 view .LVU277
 1008 0020 0A2C     		cmp	r4, #10
 1009 0022 09D0     		beq	.L72
ARM GAS  C:\Users\OSD\AppData\Local\Temp\ccmEsMWN.s 			page 38


 1010              	.LVL126:
 1011              	.L55:
 325:lvgl/src/extra/widgets/tabview/lv_tabview.c ****         lv_indev_t * indev = lv_indev_get_act();
 326:lvgl/src/extra/widgets/tabview/lv_tabview.c ****         if(indev && indev->proc.state == LV_INDEV_STATE_PRESSED) {
 327:lvgl/src/extra/widgets/tabview/lv_tabview.c ****             return;
 328:lvgl/src/extra/widgets/tabview/lv_tabview.c ****         }
 329:lvgl/src/extra/widgets/tabview/lv_tabview.c **** 
 330:lvgl/src/extra/widgets/tabview/lv_tabview.c ****         lv_point_t p;
 331:lvgl/src/extra/widgets/tabview/lv_tabview.c ****         lv_obj_get_scroll_end(cont, &p);
 332:lvgl/src/extra/widgets/tabview/lv_tabview.c **** 
 333:lvgl/src/extra/widgets/tabview/lv_tabview.c ****         lv_coord_t t;
 334:lvgl/src/extra/widgets/tabview/lv_tabview.c ****         if((tv_obj->tab_pos & LV_DIR_VER) != 0) {
 335:lvgl/src/extra/widgets/tabview/lv_tabview.c ****             lv_coord_t w = lv_obj_get_content_width(cont);
 336:lvgl/src/extra/widgets/tabview/lv_tabview.c ****             if(lv_obj_get_style_base_dir(tv, LV_PART_MAIN) == LV_BASE_DIR_RTL)  t = -(p.x - w / 2) 
 337:lvgl/src/extra/widgets/tabview/lv_tabview.c ****             else t = (p.x + w / 2) / w;
 338:lvgl/src/extra/widgets/tabview/lv_tabview.c ****         }
 339:lvgl/src/extra/widgets/tabview/lv_tabview.c ****         else {
 340:lvgl/src/extra/widgets/tabview/lv_tabview.c ****             lv_coord_t h = lv_obj_get_content_height(cont);
 341:lvgl/src/extra/widgets/tabview/lv_tabview.c ****             t = (p.y + h / 2) / h;
 342:lvgl/src/extra/widgets/tabview/lv_tabview.c ****         }
 343:lvgl/src/extra/widgets/tabview/lv_tabview.c **** 
 344:lvgl/src/extra/widgets/tabview/lv_tabview.c ****         if(t < 0) t = 0;
 345:lvgl/src/extra/widgets/tabview/lv_tabview.c ****         bool new_tab = false;
 346:lvgl/src/extra/widgets/tabview/lv_tabview.c ****         if(t != lv_tabview_get_tab_act(tv)) new_tab = true;
 347:lvgl/src/extra/widgets/tabview/lv_tabview.c ****         lv_tabview_set_act(tv, t, LV_ANIM_ON);
 348:lvgl/src/extra/widgets/tabview/lv_tabview.c **** 
 349:lvgl/src/extra/widgets/tabview/lv_tabview.c ****         if(new_tab) lv_event_send(tv, LV_EVENT_VALUE_CHANGED, NULL);
 350:lvgl/src/extra/widgets/tabview/lv_tabview.c ****     }
 351:lvgl/src/extra/widgets/tabview/lv_tabview.c **** }
 1012              		.loc 1 351 1 view .LVU278
 1013 0024 02B0     		add	sp, sp, #8
 1014              		.cfi_remember_state
 1015              		.cfi_def_cfa_offset 16
 1016              		@ sp needed
 1017 0026 70BD     		pop	{r4, r5, r6, pc}
 1018              	.LVL127:
 1019              	.L71:
 1020              		.cfi_restore_state
 322:lvgl/src/extra/widgets/tabview/lv_tabview.c ****         lv_tabview_set_act(tv, lv_tabview_get_tab_act(tv), LV_ANIM_OFF);
 1021              		.loc 1 322 9 is_stmt 1 view .LVU279
 322:lvgl/src/extra/widgets/tabview/lv_tabview.c ****         lv_tabview_set_act(tv, lv_tabview_get_tab_act(tv), LV_ANIM_OFF);
 1022              		.loc 1 322 32 is_stmt 0 view .LVU280
 1023 0028 FFF7FEFF 		bl	lv_tabview_get_tab_act
 1024              	.LVL128:
 322:lvgl/src/extra/widgets/tabview/lv_tabview.c ****         lv_tabview_set_act(tv, lv_tabview_get_tab_act(tv), LV_ANIM_OFF);
 1025              		.loc 1 322 32 view .LVU281
 1026 002c 0146     		mov	r1, r0
 322:lvgl/src/extra/widgets/tabview/lv_tabview.c ****         lv_tabview_set_act(tv, lv_tabview_get_tab_act(tv), LV_ANIM_OFF);
 1027              		.loc 1 322 9 view .LVU282
 1028 002e 0022     		movs	r2, #0
 1029 0030 3046     		mov	r0, r6
 1030 0032 FFF7FEFF 		bl	lv_tabview_set_act
 1031              	.LVL129:
 1032 0036 F5E7     		b	.L55
 1033              	.LVL130:
 1034              	.L72:
 1035              	.LBB29:
ARM GAS  C:\Users\OSD\AppData\Local\Temp\ccmEsMWN.s 			page 39


 325:lvgl/src/extra/widgets/tabview/lv_tabview.c ****         lv_indev_t * indev = lv_indev_get_act();
 1036              		.loc 1 325 9 is_stmt 1 view .LVU283
 325:lvgl/src/extra/widgets/tabview/lv_tabview.c ****         lv_indev_t * indev = lv_indev_get_act();
 1037              		.loc 1 325 30 is_stmt 0 view .LVU284
 1038 0038 FFF7FEFF 		bl	lv_indev_get_act
 1039              	.LVL131:
 326:lvgl/src/extra/widgets/tabview/lv_tabview.c ****             return;
 1040              		.loc 1 326 9 is_stmt 1 view .LVU285
 326:lvgl/src/extra/widgets/tabview/lv_tabview.c ****             return;
 1041              		.loc 1 326 11 is_stmt 0 view .LVU286
 1042 003c 10B1     		cbz	r0, .L58
 326:lvgl/src/extra/widgets/tabview/lv_tabview.c ****             return;
 1043              		.loc 1 326 32 discriminator 1 view .LVU287
 1044 003e 0379     		ldrb	r3, [r0, #4]	@ zero_extendqisi2
 326:lvgl/src/extra/widgets/tabview/lv_tabview.c ****             return;
 1045              		.loc 1 326 18 discriminator 1 view .LVU288
 1046 0040 012B     		cmp	r3, #1
 1047 0042 EFD0     		beq	.L55
 1048              	.L58:
 330:lvgl/src/extra/widgets/tabview/lv_tabview.c ****         lv_obj_get_scroll_end(cont, &p);
 1049              		.loc 1 330 9 is_stmt 1 view .LVU289
 331:lvgl/src/extra/widgets/tabview/lv_tabview.c **** 
 1050              		.loc 1 331 9 view .LVU290
 1051 0044 01A9     		add	r1, sp, #4
 1052 0046 2846     		mov	r0, r5
 1053              	.LVL132:
 331:lvgl/src/extra/widgets/tabview/lv_tabview.c **** 
 1054              		.loc 1 331 9 is_stmt 0 view .LVU291
 1055 0048 FFF7FEFF 		bl	lv_obj_get_scroll_end
 1056              	.LVL133:
 333:lvgl/src/extra/widgets/tabview/lv_tabview.c ****         if((tv_obj->tab_pos & LV_DIR_VER) != 0) {
 1057              		.loc 1 333 9 is_stmt 1 view .LVU292
 334:lvgl/src/extra/widgets/tabview/lv_tabview.c ****             lv_coord_t w = lv_obj_get_content_width(cont);
 1058              		.loc 1 334 9 view .LVU293
 334:lvgl/src/extra/widgets/tabview/lv_tabview.c ****             lv_coord_t w = lv_obj_get_content_width(cont);
 1059              		.loc 1 334 19 is_stmt 0 view .LVU294
 1060 004c 96F82C30 		ldrb	r3, [r6, #44]	@ zero_extendqisi2
 334:lvgl/src/extra/widgets/tabview/lv_tabview.c ****             lv_coord_t w = lv_obj_get_content_width(cont);
 1061              		.loc 1 334 11 view .LVU295
 1062 0050 13F00C0F 		tst	r3, #12
 1063 0054 27D0     		beq	.L59
 1064              	.LBB30:
 335:lvgl/src/extra/widgets/tabview/lv_tabview.c ****             if(lv_obj_get_style_base_dir(tv, LV_PART_MAIN) == LV_BASE_DIR_RTL)  t = -(p.x - w / 2) 
 1065              		.loc 1 335 13 is_stmt 1 view .LVU296
 335:lvgl/src/extra/widgets/tabview/lv_tabview.c ****             if(lv_obj_get_style_base_dir(tv, LV_PART_MAIN) == LV_BASE_DIR_RTL)  t = -(p.x - w / 2) 
 1066              		.loc 1 335 28 is_stmt 0 view .LVU297
 1067 0056 2846     		mov	r0, r5
 1068 0058 FFF7FEFF 		bl	lv_obj_get_content_width
 1069              	.LVL134:
 1070 005c 0546     		mov	r5, r0
 1071              	.LVL135:
 336:lvgl/src/extra/widgets/tabview/lv_tabview.c ****             else t = (p.x + w / 2) / w;
 1072              		.loc 1 336 13 is_stmt 1 view .LVU298
 1073              	.LBB31:
 1074              	.LBI31:
 565:d:\kzc\stm32\h743ii_lcd\lvgl\src/core\lv_obj_style_gen.h **** {
 1075              		.loc 2 565 29 view .LVU299
ARM GAS  C:\Users\OSD\AppData\Local\Temp\ccmEsMWN.s 			page 40


 1076              	.LBB32:
 567:d:\kzc\stm32\h743ii_lcd\lvgl\src/core\lv_obj_style_gen.h ****     return (lv_base_dir_t)v.num;
 1077              		.loc 2 567 5 view .LVU300
 567:d:\kzc\stm32\h743ii_lcd\lvgl\src/core\lv_obj_style_gen.h ****     return (lv_base_dir_t)v.num;
 1078              		.loc 2 567 26 is_stmt 0 view .LVU301
 1079 005e 1622     		movs	r2, #22
 1080 0060 0021     		movs	r1, #0
 1081 0062 3046     		mov	r0, r6
 1082 0064 FFF7FEFF 		bl	lv_obj_get_style_prop
 1083              	.LVL136:
 1084              		.loc 2 568 5 is_stmt 1 view .LVU302
 1085              		.loc 2 568 12 is_stmt 0 view .LVU303
 1086 0068 C0B2     		uxtb	r0, r0
 1087              	.LVL137:
 1088              		.loc 2 568 12 view .LVU304
 1089              	.LBE32:
 1090              	.LBE31:
 336:lvgl/src/extra/widgets/tabview/lv_tabview.c ****             else t = (p.x + w / 2) / w;
 1091              		.loc 1 336 15 view .LVU305
 1092 006a 0128     		cmp	r0, #1
 1093 006c 0BD0     		beq	.L73
 337:lvgl/src/extra/widgets/tabview/lv_tabview.c ****         }
 1094              		.loc 1 337 18 is_stmt 1 view .LVU306
 337:lvgl/src/extra/widgets/tabview/lv_tabview.c ****         }
 1095              		.loc 1 337 24 is_stmt 0 view .LVU307
 1096 006e BDF90440 		ldrsh	r4, [sp, #4]
 1097              	.LVL138:
 337:lvgl/src/extra/widgets/tabview/lv_tabview.c ****         }
 1098              		.loc 1 337 31 view .LVU308
 1099 0072 2B46     		mov	r3, r5
 1100 0074 002D     		cmp	r5, #0
 1101 0076 14DB     		blt	.L74
 1102              	.L63:
 1103 0078 43F34F03 		sbfx	r3, r3, #1, #16
 337:lvgl/src/extra/widgets/tabview/lv_tabview.c ****         }
 1104              		.loc 1 337 27 view .LVU309
 1105 007c 1C44     		add	r4, r4, r3
 337:lvgl/src/extra/widgets/tabview/lv_tabview.c ****         }
 1106              		.loc 1 337 36 view .LVU310
 1107 007e 94FBF5F4 		sdiv	r4, r4, r5
 337:lvgl/src/extra/widgets/tabview/lv_tabview.c ****         }
 1108              		.loc 1 337 20 view .LVU311
 1109 0082 24B2     		sxth	r4, r4
 1110              	.LVL139:
 337:lvgl/src/extra/widgets/tabview/lv_tabview.c ****         }
 1111              		.loc 1 337 20 view .LVU312
 1112 0084 1DE0     		b	.L62
 1113              	.LVL140:
 1114              	.L73:
 336:lvgl/src/extra/widgets/tabview/lv_tabview.c ****             else t = (p.x + w / 2) / w;
 1115              		.loc 1 336 81 is_stmt 1 discriminator 1 view .LVU313
 336:lvgl/src/extra/widgets/tabview/lv_tabview.c ****             else t = (p.x + w / 2) / w;
 1116              		.loc 1 336 95 is_stmt 0 discriminator 1 view .LVU314
 1117 0086 2B46     		mov	r3, r5
 1118 0088 002D     		cmp	r5, #0
 1119 008a 08DB     		blt	.L75
 1120              	.L61:
ARM GAS  C:\Users\OSD\AppData\Local\Temp\ccmEsMWN.s 			page 41


 1121 008c 43F34F03 		sbfx	r3, r3, #1, #16
 336:lvgl/src/extra/widgets/tabview/lv_tabview.c ****             else t = (p.x + w / 2) / w;
 1122              		.loc 1 336 88 discriminator 1 view .LVU315
 1123 0090 BDF90440 		ldrsh	r4, [sp, #4]
 1124              	.LVL141:
 336:lvgl/src/extra/widgets/tabview/lv_tabview.c ****             else t = (p.x + w / 2) / w;
 1125              		.loc 1 336 85 discriminator 1 view .LVU316
 1126 0094 1B1B     		subs	r3, r3, r4
 336:lvgl/src/extra/widgets/tabview/lv_tabview.c ****             else t = (p.x + w / 2) / w;
 1127              		.loc 1 336 100 discriminator 1 view .LVU317
 1128 0096 93FBF5F4 		sdiv	r4, r3, r5
 336:lvgl/src/extra/widgets/tabview/lv_tabview.c ****             else t = (p.x + w / 2) / w;
 1129              		.loc 1 336 83 discriminator 1 view .LVU318
 1130 009a 24B2     		sxth	r4, r4
 1131              	.LVL142:
 336:lvgl/src/extra/widgets/tabview/lv_tabview.c ****             else t = (p.x + w / 2) / w;
 1132              		.loc 1 336 83 discriminator 1 view .LVU319
 1133 009c 11E0     		b	.L62
 1134              	.LVL143:
 1135              	.L75:
 336:lvgl/src/extra/widgets/tabview/lv_tabview.c ****             else t = (p.x + w / 2) / w;
 1136              		.loc 1 336 95 discriminator 1 view .LVU320
 1137 009e 6B1C     		adds	r3, r5, #1
 1138 00a0 F4E7     		b	.L61
 1139              	.LVL144:
 1140              	.L74:
 337:lvgl/src/extra/widgets/tabview/lv_tabview.c ****         }
 1141              		.loc 1 337 31 view .LVU321
 1142 00a2 6B1C     		adds	r3, r5, #1
 1143 00a4 E8E7     		b	.L63
 1144              	.LVL145:
 1145              	.L59:
 337:lvgl/src/extra/widgets/tabview/lv_tabview.c ****         }
 1146              		.loc 1 337 31 view .LVU322
 1147              	.LBE30:
 1148              	.LBB33:
 340:lvgl/src/extra/widgets/tabview/lv_tabview.c ****             t = (p.y + h / 2) / h;
 1149              		.loc 1 340 13 is_stmt 1 view .LVU323
 340:lvgl/src/extra/widgets/tabview/lv_tabview.c ****             t = (p.y + h / 2) / h;
 1150              		.loc 1 340 28 is_stmt 0 view .LVU324
 1151 00a6 2846     		mov	r0, r5
 1152 00a8 FFF7FEFF 		bl	lv_obj_get_content_height
 1153              	.LVL146:
 341:lvgl/src/extra/widgets/tabview/lv_tabview.c ****         }
 1154              		.loc 1 341 13 is_stmt 1 view .LVU325
 341:lvgl/src/extra/widgets/tabview/lv_tabview.c ****         }
 1155              		.loc 1 341 19 is_stmt 0 view .LVU326
 1156 00ac BDF90640 		ldrsh	r4, [sp, #6]
 1157              	.LVL147:
 341:lvgl/src/extra/widgets/tabview/lv_tabview.c ****         }
 1158              		.loc 1 341 26 view .LVU327
 1159 00b0 0346     		mov	r3, r0
 1160 00b2 0028     		cmp	r0, #0
 1161 00b4 1ADB     		blt	.L76
 1162              	.L64:
 1163 00b6 43F34F03 		sbfx	r3, r3, #1, #16
 341:lvgl/src/extra/widgets/tabview/lv_tabview.c ****         }
ARM GAS  C:\Users\OSD\AppData\Local\Temp\ccmEsMWN.s 			page 42


 1164              		.loc 1 341 22 view .LVU328
 1165 00ba 1C44     		add	r4, r4, r3
 341:lvgl/src/extra/widgets/tabview/lv_tabview.c ****         }
 1166              		.loc 1 341 31 view .LVU329
 1167 00bc 94FBF0F4 		sdiv	r4, r4, r0
 341:lvgl/src/extra/widgets/tabview/lv_tabview.c ****         }
 1168              		.loc 1 341 15 view .LVU330
 1169 00c0 24B2     		sxth	r4, r4
 1170              	.LVL148:
 1171              	.L62:
 341:lvgl/src/extra/widgets/tabview/lv_tabview.c ****         }
 1172              		.loc 1 341 15 view .LVU331
 1173              	.LBE33:
 344:lvgl/src/extra/widgets/tabview/lv_tabview.c ****         bool new_tab = false;
 1174              		.loc 1 344 9 is_stmt 1 view .LVU332
 344:lvgl/src/extra/widgets/tabview/lv_tabview.c ****         bool new_tab = false;
 1175              		.loc 1 344 11 is_stmt 0 view .LVU333
 1176 00c2 002C     		cmp	r4, #0
 1177 00c4 14DB     		blt	.L77
 1178              	.LVL149:
 1179              	.L65:
 345:lvgl/src/extra/widgets/tabview/lv_tabview.c ****         if(t != lv_tabview_get_tab_act(tv)) new_tab = true;
 1180              		.loc 1 345 9 is_stmt 1 view .LVU334
 346:lvgl/src/extra/widgets/tabview/lv_tabview.c ****         lv_tabview_set_act(tv, t, LV_ANIM_ON);
 1181              		.loc 1 346 9 view .LVU335
 346:lvgl/src/extra/widgets/tabview/lv_tabview.c ****         lv_tabview_set_act(tv, t, LV_ANIM_ON);
 1182              		.loc 1 346 17 is_stmt 0 view .LVU336
 1183 00c6 3046     		mov	r0, r6
 1184 00c8 FFF7FEFF 		bl	lv_tabview_get_tab_act
 1185              	.LVL150:
 346:lvgl/src/extra/widgets/tabview/lv_tabview.c ****         lv_tabview_set_act(tv, t, LV_ANIM_ON);
 1186              		.loc 1 346 11 view .LVU337
 1187 00cc 8442     		cmp	r4, r0
 1188 00ce 11D0     		beq	.L78
 346:lvgl/src/extra/widgets/tabview/lv_tabview.c ****         lv_tabview_set_act(tv, t, LV_ANIM_ON);
 1189              		.loc 1 346 53 view .LVU338
 1190 00d0 0125     		movs	r5, #1
 1191              	.L66:
 1192              	.LVL151:
 347:lvgl/src/extra/widgets/tabview/lv_tabview.c **** 
 1193              		.loc 1 347 9 is_stmt 1 view .LVU339
 1194 00d2 0122     		movs	r2, #1
 1195 00d4 2146     		mov	r1, r4
 1196 00d6 3046     		mov	r0, r6
 1197 00d8 FFF7FEFF 		bl	lv_tabview_set_act
 1198              	.LVL152:
 349:lvgl/src/extra/widgets/tabview/lv_tabview.c ****     }
 1199              		.loc 1 349 9 view .LVU340
 349:lvgl/src/extra/widgets/tabview/lv_tabview.c ****     }
 1200              		.loc 1 349 11 is_stmt 0 view .LVU341
 1201 00dc 002D     		cmp	r5, #0
 1202 00de A1D0     		beq	.L55
 349:lvgl/src/extra/widgets/tabview/lv_tabview.c ****     }
 1203              		.loc 1 349 21 is_stmt 1 discriminator 1 view .LVU342
 1204 00e0 0022     		movs	r2, #0
 1205 00e2 1C21     		movs	r1, #28
 1206 00e4 3046     		mov	r0, r6
ARM GAS  C:\Users\OSD\AppData\Local\Temp\ccmEsMWN.s 			page 43


 1207 00e6 FFF7FEFF 		bl	lv_event_send
 1208              	.LVL153:
 1209 00ea 9BE7     		b	.L55
 1210              	.LVL154:
 1211              	.L76:
 1212              	.LBB34:
 341:lvgl/src/extra/widgets/tabview/lv_tabview.c ****         }
 1213              		.loc 1 341 26 is_stmt 0 view .LVU343
 1214 00ec 431C     		adds	r3, r0, #1
 1215 00ee E2E7     		b	.L64
 1216              	.LVL155:
 1217              	.L77:
 341:lvgl/src/extra/widgets/tabview/lv_tabview.c ****         }
 1218              		.loc 1 341 26 view .LVU344
 1219              	.LBE34:
 344:lvgl/src/extra/widgets/tabview/lv_tabview.c ****         bool new_tab = false;
 1220              		.loc 1 344 21 view .LVU345
 1221 00f0 0024     		movs	r4, #0
 1222              	.LVL156:
 344:lvgl/src/extra/widgets/tabview/lv_tabview.c ****         bool new_tab = false;
 1223              		.loc 1 344 21 view .LVU346
 1224 00f2 E8E7     		b	.L65
 1225              	.LVL157:
 1226              	.L78:
 345:lvgl/src/extra/widgets/tabview/lv_tabview.c ****         if(t != lv_tabview_get_tab_act(tv)) new_tab = true;
 1227              		.loc 1 345 14 view .LVU347
 1228 00f4 0025     		movs	r5, #0
 1229 00f6 ECE7     		b	.L66
 1230              	.LBE29:
 1231              		.cfi_endproc
 1232              	.LFE215:
 1234              		.section	.text.btns_value_changed_event_cb,"ax",%progbits
 1235              		.align	1
 1236              		.syntax unified
 1237              		.thumb
 1238              		.thumb_func
 1240              	btns_value_changed_event_cb:
 1241              	.LVL158:
 1242              	.LFB214:
 306:lvgl/src/extra/widgets/tabview/lv_tabview.c ****     lv_obj_t * btns = lv_event_get_target(e);
 1243              		.loc 1 306 1 is_stmt 1 view -0
 1244              		.cfi_startproc
 1245              		@ args = 0, pretend = 0, frame = 0
 1246              		@ frame_needed = 0, uses_anonymous_args = 0
 306:lvgl/src/extra/widgets/tabview/lv_tabview.c ****     lv_obj_t * btns = lv_event_get_target(e);
 1247              		.loc 1 306 1 is_stmt 0 view .LVU349
 1248 0000 38B5     		push	{r3, r4, r5, lr}
 1249              		.cfi_def_cfa_offset 16
 1250              		.cfi_offset 3, -16
 1251              		.cfi_offset 4, -12
 1252              		.cfi_offset 5, -8
 1253              		.cfi_offset 14, -4
 307:lvgl/src/extra/widgets/tabview/lv_tabview.c **** 
 1254              		.loc 1 307 5 is_stmt 1 view .LVU350
 307:lvgl/src/extra/widgets/tabview/lv_tabview.c **** 
 1255              		.loc 1 307 23 is_stmt 0 view .LVU351
 1256 0002 FFF7FEFF 		bl	lv_event_get_target
ARM GAS  C:\Users\OSD\AppData\Local\Temp\ccmEsMWN.s 			page 44


 1257              	.LVL159:
 307:lvgl/src/extra/widgets/tabview/lv_tabview.c **** 
 1258              		.loc 1 307 23 view .LVU352
 1259 0006 0546     		mov	r5, r0
 1260              	.LVL160:
 309:lvgl/src/extra/widgets/tabview/lv_tabview.c ****     uint32_t id = lv_btnmatrix_get_selected_btn(btns);
 1261              		.loc 1 309 5 is_stmt 1 view .LVU353
 309:lvgl/src/extra/widgets/tabview/lv_tabview.c ****     uint32_t id = lv_btnmatrix_get_selected_btn(btns);
 1262              		.loc 1 309 21 is_stmt 0 view .LVU354
 1263 0008 FFF7FEFF 		bl	lv_obj_get_parent
 1264              	.LVL161:
 309:lvgl/src/extra/widgets/tabview/lv_tabview.c ****     uint32_t id = lv_btnmatrix_get_selected_btn(btns);
 1265              		.loc 1 309 21 view .LVU355
 1266 000c 0446     		mov	r4, r0
 1267              	.LVL162:
 310:lvgl/src/extra/widgets/tabview/lv_tabview.c ****     lv_tabview_set_act(tv, id, LV_ANIM_OFF);
 1268              		.loc 1 310 5 is_stmt 1 view .LVU356
 310:lvgl/src/extra/widgets/tabview/lv_tabview.c ****     lv_tabview_set_act(tv, id, LV_ANIM_OFF);
 1269              		.loc 1 310 19 is_stmt 0 view .LVU357
 1270 000e 2846     		mov	r0, r5
 1271              	.LVL163:
 310:lvgl/src/extra/widgets/tabview/lv_tabview.c ****     lv_tabview_set_act(tv, id, LV_ANIM_OFF);
 1272              		.loc 1 310 19 view .LVU358
 1273 0010 FFF7FEFF 		bl	lv_btnmatrix_get_selected_btn
 1274              	.LVL164:
 1275 0014 0146     		mov	r1, r0
 1276              	.LVL165:
 311:lvgl/src/extra/widgets/tabview/lv_tabview.c **** }
 1277              		.loc 1 311 5 is_stmt 1 view .LVU359
 1278 0016 0022     		movs	r2, #0
 1279 0018 2046     		mov	r0, r4
 1280              	.LVL166:
 311:lvgl/src/extra/widgets/tabview/lv_tabview.c **** }
 1281              		.loc 1 311 5 is_stmt 0 view .LVU360
 1282 001a FFF7FEFF 		bl	lv_tabview_set_act
 1283              	.LVL167:
 312:lvgl/src/extra/widgets/tabview/lv_tabview.c **** 
 1284              		.loc 1 312 1 view .LVU361
 1285 001e 38BD     		pop	{r3, r4, r5, pc}
 312:lvgl/src/extra/widgets/tabview/lv_tabview.c **** 
 1286              		.loc 1 312 1 view .LVU362
 1287              		.cfi_endproc
 1288              	.LFE214:
 1290              		.section	.rodata.lv_tabview_add_tab.str1.4,"aMS",%progbits,1
 1291              		.align	2
 1292              	.LC1:
 1293 0000 0A00     		.ascii	"\012\000"
 1294              		.section	.text.lv_tabview_add_tab,"ax",%progbits
 1295              		.align	1
 1296              		.global	lv_tabview_add_tab
 1297              		.syntax unified
 1298              		.thumb
 1299              		.thumb_func
 1301              	lv_tabview_add_tab:
 1302              	.LVL168:
 1303              	.LFB205:
  68:lvgl/src/extra/widgets/tabview/lv_tabview.c ****     LV_ASSERT_OBJ(obj, MY_CLASS);
ARM GAS  C:\Users\OSD\AppData\Local\Temp\ccmEsMWN.s 			page 45


 1304              		.loc 1 68 1 is_stmt 1 view -0
 1305              		.cfi_startproc
 1306              		@ args = 0, pretend = 0, frame = 0
 1307              		@ frame_needed = 0, uses_anonymous_args = 0
  68:lvgl/src/extra/widgets/tabview/lv_tabview.c ****     LV_ASSERT_OBJ(obj, MY_CLASS);
 1308              		.loc 1 68 1 is_stmt 0 view .LVU364
 1309 0000 2DE9F84F 		push	{r3, r4, r5, r6, r7, r8, r9, r10, fp, lr}
 1310              		.cfi_def_cfa_offset 40
 1311              		.cfi_offset 3, -40
 1312              		.cfi_offset 4, -36
 1313              		.cfi_offset 5, -32
 1314              		.cfi_offset 6, -28
 1315              		.cfi_offset 7, -24
 1316              		.cfi_offset 8, -20
 1317              		.cfi_offset 9, -16
 1318              		.cfi_offset 10, -12
 1319              		.cfi_offset 11, -8
 1320              		.cfi_offset 14, -4
 1321 0004 0446     		mov	r4, r0
 1322 0006 8946     		mov	r9, r1
  69:lvgl/src/extra/widgets/tabview/lv_tabview.c ****     lv_tabview_t * tabview = (lv_tabview_t *)obj;
 1323              		.loc 1 69 5 is_stmt 1 view .LVU365
  69:lvgl/src/extra/widgets/tabview/lv_tabview.c ****     lv_tabview_t * tabview = (lv_tabview_t *)obj;
 1324              		.loc 1 69 5 view .LVU366
  69:lvgl/src/extra/widgets/tabview/lv_tabview.c ****     lv_tabview_t * tabview = (lv_tabview_t *)obj;
 1325              		.loc 1 69 5 view .LVU367
  70:lvgl/src/extra/widgets/tabview/lv_tabview.c ****     lv_obj_t * cont = lv_tabview_get_content(obj);
 1326              		.loc 1 70 5 view .LVU368
 1327              	.LVL169:
  71:lvgl/src/extra/widgets/tabview/lv_tabview.c **** 
 1328              		.loc 1 71 5 view .LVU369
  71:lvgl/src/extra/widgets/tabview/lv_tabview.c **** 
 1329              		.loc 1 71 23 is_stmt 0 view .LVU370
 1330 0008 FFF7FEFF 		bl	lv_tabview_get_content
 1331              	.LVL170:
  71:lvgl/src/extra/widgets/tabview/lv_tabview.c **** 
 1332              		.loc 1 71 23 view .LVU371
 1333 000c 0546     		mov	r5, r0
 1334              	.LVL171:
  73:lvgl/src/extra/widgets/tabview/lv_tabview.c ****     lv_obj_set_size(page, LV_PCT(100), LV_PCT(100));
 1335              		.loc 1 73 5 is_stmt 1 view .LVU372
  73:lvgl/src/extra/widgets/tabview/lv_tabview.c ****     lv_obj_set_size(page, LV_PCT(100), LV_PCT(100));
 1336              		.loc 1 73 23 is_stmt 0 view .LVU373
 1337 000e FFF7FEFF 		bl	lv_obj_create
 1338              	.LVL172:
  73:lvgl/src/extra/widgets/tabview/lv_tabview.c ****     lv_obj_set_size(page, LV_PCT(100), LV_PCT(100));
 1339              		.loc 1 73 23 view .LVU374
 1340 0012 8046     		mov	r8, r0
 1341              	.LVL173:
  74:lvgl/src/extra/widgets/tabview/lv_tabview.c ****     lv_obj_clear_flag(page, LV_OBJ_FLAG_CLICK_FOCUSABLE);
 1342              		.loc 1 74 5 is_stmt 1 view .LVU375
 1343 0014 42F26402 		movw	r2, #8292
 1344 0018 1146     		mov	r1, r2
 1345 001a FFF7FEFF 		bl	lv_obj_set_size
 1346              	.LVL174:
  75:lvgl/src/extra/widgets/tabview/lv_tabview.c ****     uint32_t tab_id = lv_obj_get_child_cnt(cont);
 1347              		.loc 1 75 5 view .LVU376
ARM GAS  C:\Users\OSD\AppData\Local\Temp\ccmEsMWN.s 			page 46


 1348 001e 0421     		movs	r1, #4
 1349 0020 4046     		mov	r0, r8
 1350 0022 FFF7FEFF 		bl	lv_obj_clear_flag
 1351              	.LVL175:
  76:lvgl/src/extra/widgets/tabview/lv_tabview.c **** 
 1352              		.loc 1 76 5 view .LVU377
  76:lvgl/src/extra/widgets/tabview/lv_tabview.c **** 
 1353              		.loc 1 76 23 is_stmt 0 view .LVU378
 1354 0026 2846     		mov	r0, r5
 1355 0028 FFF7FEFF 		bl	lv_obj_get_child_cnt
 1356              	.LVL176:
 1357 002c 0646     		mov	r6, r0
 1358              	.LVL177:
  78:lvgl/src/extra/widgets/tabview/lv_tabview.c **** 
 1359              		.loc 1 78 5 is_stmt 1 view .LVU379
  78:lvgl/src/extra/widgets/tabview/lv_tabview.c **** 
 1360              		.loc 1 78 23 is_stmt 0 view .LVU380
 1361 002e 2046     		mov	r0, r4
 1362              	.LVL178:
  78:lvgl/src/extra/widgets/tabview/lv_tabview.c **** 
 1363              		.loc 1 78 23 view .LVU381
 1364 0030 FFF7FEFF 		bl	lv_tabview_get_tab_btns
 1365              	.LVL179:
 1366 0034 0746     		mov	r7, r0
 1367              	.LVL180:
  80:lvgl/src/extra/widgets/tabview/lv_tabview.c ****     const char ** new_map;
 1368              		.loc 1 80 5 is_stmt 1 view .LVU382
  80:lvgl/src/extra/widgets/tabview/lv_tabview.c ****     const char ** new_map;
 1369              		.loc 1 80 19 is_stmt 0 view .LVU383
 1370 0036 D4F824A0 		ldr	r10, [r4, #36]
 1371              	.LVL181:
  81:lvgl/src/extra/widgets/tabview/lv_tabview.c **** 
 1372              		.loc 1 81 5 is_stmt 1 view .LVU384
  84:lvgl/src/extra/widgets/tabview/lv_tabview.c ****         new_map = lv_mem_alloc((tab_id + 1) * sizeof(const char *));
 1373              		.loc 1 84 5 view .LVU385
  84:lvgl/src/extra/widgets/tabview/lv_tabview.c ****         new_map = lv_mem_alloc((tab_id + 1) * sizeof(const char *));
 1374              		.loc 1 84 15 is_stmt 0 view .LVU386
 1375 003a 94F82C30 		ldrb	r3, [r4, #44]	@ zero_extendqisi2
  84:lvgl/src/extra/widgets/tabview/lv_tabview.c ****         new_map = lv_mem_alloc((tab_id + 1) * sizeof(const char *));
 1376              		.loc 1 84 7 view .LVU387
 1377 003e 13F00C0F 		tst	r3, #12
 1378 0042 3DD0     		beq	.L82
  85:lvgl/src/extra/widgets/tabview/lv_tabview.c ****         lv_memcpy_small(new_map, old_map, sizeof(const char *) * (tab_id - 1));
 1379              		.loc 1 85 9 is_stmt 1 view .LVU388
  85:lvgl/src/extra/widgets/tabview/lv_tabview.c ****         lv_memcpy_small(new_map, old_map, sizeof(const char *) * (tab_id - 1));
 1380              		.loc 1 85 40 is_stmt 0 view .LVU389
 1381 0044 701C     		adds	r0, r6, #1
 1382              	.LVL182:
  85:lvgl/src/extra/widgets/tabview/lv_tabview.c ****         lv_memcpy_small(new_map, old_map, sizeof(const char *) * (tab_id - 1));
 1383              		.loc 1 85 19 view .LVU390
 1384 0046 8000     		lsls	r0, r0, #2
 1385 0048 FFF7FEFF 		bl	lv_mem_alloc
 1386              	.LVL183:
 1387 004c 0546     		mov	r5, r0
 1388              	.LVL184:
  86:lvgl/src/extra/widgets/tabview/lv_tabview.c ****         new_map[tab_id - 1] = lv_mem_alloc(strlen(name) + 1);
 1389              		.loc 1 86 9 is_stmt 1 view .LVU391
ARM GAS  C:\Users\OSD\AppData\Local\Temp\ccmEsMWN.s 			page 47


  86:lvgl/src/extra/widgets/tabview/lv_tabview.c ****         new_map[tab_id - 1] = lv_mem_alloc(strlen(name) + 1);
 1390              		.loc 1 86 74 is_stmt 0 view .LVU392
 1391 004e 731E     		subs	r3, r6, #1
  86:lvgl/src/extra/widgets/tabview/lv_tabview.c ****         new_map[tab_id - 1] = lv_mem_alloc(strlen(name) + 1);
 1392              		.loc 1 86 64 view .LVU393
 1393 0050 9B00     		lsls	r3, r3, #2
 1394              	.LVL185:
 1395              	.LBB35:
 1396              	.LBI35:
 1397              		.file 3 "d:\\kzc\\stm32\\h743ii_lcd\\lvgl\\src/misc/lv_mem.h"
   1:d:\kzc\stm32\h743ii_lcd\lvgl\src/misc\lv_mem.h **** /**
   2:d:\kzc\stm32\h743ii_lcd\lvgl\src/misc\lv_mem.h ****  * @file lv_mem.h
   3:d:\kzc\stm32\h743ii_lcd\lvgl\src/misc\lv_mem.h ****  *
   4:d:\kzc\stm32\h743ii_lcd\lvgl\src/misc\lv_mem.h ****  */
   5:d:\kzc\stm32\h743ii_lcd\lvgl\src/misc\lv_mem.h **** 
   6:d:\kzc\stm32\h743ii_lcd\lvgl\src/misc\lv_mem.h **** #ifndef LV_MEM_H
   7:d:\kzc\stm32\h743ii_lcd\lvgl\src/misc\lv_mem.h **** #define LV_MEM_H
   8:d:\kzc\stm32\h743ii_lcd\lvgl\src/misc\lv_mem.h **** 
   9:d:\kzc\stm32\h743ii_lcd\lvgl\src/misc\lv_mem.h **** #ifdef __cplusplus
  10:d:\kzc\stm32\h743ii_lcd\lvgl\src/misc\lv_mem.h **** extern "C" {
  11:d:\kzc\stm32\h743ii_lcd\lvgl\src/misc\lv_mem.h **** #endif
  12:d:\kzc\stm32\h743ii_lcd\lvgl\src/misc\lv_mem.h **** 
  13:d:\kzc\stm32\h743ii_lcd\lvgl\src/misc\lv_mem.h **** /*********************
  14:d:\kzc\stm32\h743ii_lcd\lvgl\src/misc\lv_mem.h ****  *      INCLUDES
  15:d:\kzc\stm32\h743ii_lcd\lvgl\src/misc\lv_mem.h ****  *********************/
  16:d:\kzc\stm32\h743ii_lcd\lvgl\src/misc\lv_mem.h **** #include "../lv_conf_internal.h"
  17:d:\kzc\stm32\h743ii_lcd\lvgl\src/misc\lv_mem.h **** 
  18:d:\kzc\stm32\h743ii_lcd\lvgl\src/misc\lv_mem.h **** #include <stdint.h>
  19:d:\kzc\stm32\h743ii_lcd\lvgl\src/misc\lv_mem.h **** #include <stddef.h>
  20:d:\kzc\stm32\h743ii_lcd\lvgl\src/misc\lv_mem.h **** #include <string.h>
  21:d:\kzc\stm32\h743ii_lcd\lvgl\src/misc\lv_mem.h **** 
  22:d:\kzc\stm32\h743ii_lcd\lvgl\src/misc\lv_mem.h **** #include "lv_types.h"
  23:d:\kzc\stm32\h743ii_lcd\lvgl\src/misc\lv_mem.h **** 
  24:d:\kzc\stm32\h743ii_lcd\lvgl\src/misc\lv_mem.h **** /*********************
  25:d:\kzc\stm32\h743ii_lcd\lvgl\src/misc\lv_mem.h ****  *      DEFINES
  26:d:\kzc\stm32\h743ii_lcd\lvgl\src/misc\lv_mem.h ****  *********************/
  27:d:\kzc\stm32\h743ii_lcd\lvgl\src/misc\lv_mem.h **** 
  28:d:\kzc\stm32\h743ii_lcd\lvgl\src/misc\lv_mem.h **** /**********************
  29:d:\kzc\stm32\h743ii_lcd\lvgl\src/misc\lv_mem.h ****  *      TYPEDEFS
  30:d:\kzc\stm32\h743ii_lcd\lvgl\src/misc\lv_mem.h ****  **********************/
  31:d:\kzc\stm32\h743ii_lcd\lvgl\src/misc\lv_mem.h **** 
  32:d:\kzc\stm32\h743ii_lcd\lvgl\src/misc\lv_mem.h **** /**
  33:d:\kzc\stm32\h743ii_lcd\lvgl\src/misc\lv_mem.h ****  * Heap information structure.
  34:d:\kzc\stm32\h743ii_lcd\lvgl\src/misc\lv_mem.h ****  */
  35:d:\kzc\stm32\h743ii_lcd\lvgl\src/misc\lv_mem.h **** typedef struct {
  36:d:\kzc\stm32\h743ii_lcd\lvgl\src/misc\lv_mem.h ****     uint32_t total_size; /**< Total heap size*/
  37:d:\kzc\stm32\h743ii_lcd\lvgl\src/misc\lv_mem.h ****     uint32_t free_cnt;
  38:d:\kzc\stm32\h743ii_lcd\lvgl\src/misc\lv_mem.h ****     uint32_t free_size; /**< Size of available memory*/
  39:d:\kzc\stm32\h743ii_lcd\lvgl\src/misc\lv_mem.h ****     uint32_t free_biggest_size;
  40:d:\kzc\stm32\h743ii_lcd\lvgl\src/misc\lv_mem.h ****     uint32_t used_cnt;
  41:d:\kzc\stm32\h743ii_lcd\lvgl\src/misc\lv_mem.h ****     uint32_t max_used; /**< Max size of Heap memory used*/
  42:d:\kzc\stm32\h743ii_lcd\lvgl\src/misc\lv_mem.h ****     uint8_t used_pct; /**< Percentage used*/
  43:d:\kzc\stm32\h743ii_lcd\lvgl\src/misc\lv_mem.h ****     uint8_t frag_pct; /**< Amount of fragmentation*/
  44:d:\kzc\stm32\h743ii_lcd\lvgl\src/misc\lv_mem.h **** } lv_mem_monitor_t;
  45:d:\kzc\stm32\h743ii_lcd\lvgl\src/misc\lv_mem.h **** 
  46:d:\kzc\stm32\h743ii_lcd\lvgl\src/misc\lv_mem.h **** typedef struct {
  47:d:\kzc\stm32\h743ii_lcd\lvgl\src/misc\lv_mem.h ****     void * p;
ARM GAS  C:\Users\OSD\AppData\Local\Temp\ccmEsMWN.s 			page 48


  48:d:\kzc\stm32\h743ii_lcd\lvgl\src/misc\lv_mem.h ****     uint16_t size;
  49:d:\kzc\stm32\h743ii_lcd\lvgl\src/misc\lv_mem.h ****     uint8_t used : 1;
  50:d:\kzc\stm32\h743ii_lcd\lvgl\src/misc\lv_mem.h **** } lv_mem_buf_t;
  51:d:\kzc\stm32\h743ii_lcd\lvgl\src/misc\lv_mem.h **** 
  52:d:\kzc\stm32\h743ii_lcd\lvgl\src/misc\lv_mem.h **** typedef lv_mem_buf_t lv_mem_buf_arr_t[LV_MEM_BUF_MAX_NUM];
  53:d:\kzc\stm32\h743ii_lcd\lvgl\src/misc\lv_mem.h **** 
  54:d:\kzc\stm32\h743ii_lcd\lvgl\src/misc\lv_mem.h **** /**********************
  55:d:\kzc\stm32\h743ii_lcd\lvgl\src/misc\lv_mem.h ****  * GLOBAL PROTOTYPES
  56:d:\kzc\stm32\h743ii_lcd\lvgl\src/misc\lv_mem.h ****  **********************/
  57:d:\kzc\stm32\h743ii_lcd\lvgl\src/misc\lv_mem.h **** 
  58:d:\kzc\stm32\h743ii_lcd\lvgl\src/misc\lv_mem.h **** /**
  59:d:\kzc\stm32\h743ii_lcd\lvgl\src/misc\lv_mem.h ****  * Initialize the dyn_mem module (work memory and other variables)
  60:d:\kzc\stm32\h743ii_lcd\lvgl\src/misc\lv_mem.h ****  */
  61:d:\kzc\stm32\h743ii_lcd\lvgl\src/misc\lv_mem.h **** void lv_mem_init(void);
  62:d:\kzc\stm32\h743ii_lcd\lvgl\src/misc\lv_mem.h **** 
  63:d:\kzc\stm32\h743ii_lcd\lvgl\src/misc\lv_mem.h **** /**
  64:d:\kzc\stm32\h743ii_lcd\lvgl\src/misc\lv_mem.h ****  * Clean up the memory buffer which frees all the allocated memories.
  65:d:\kzc\stm32\h743ii_lcd\lvgl\src/misc\lv_mem.h ****  * @note It work only if `LV_MEM_CUSTOM == 0`
  66:d:\kzc\stm32\h743ii_lcd\lvgl\src/misc\lv_mem.h ****  */
  67:d:\kzc\stm32\h743ii_lcd\lvgl\src/misc\lv_mem.h **** void lv_mem_deinit(void);
  68:d:\kzc\stm32\h743ii_lcd\lvgl\src/misc\lv_mem.h **** 
  69:d:\kzc\stm32\h743ii_lcd\lvgl\src/misc\lv_mem.h **** /**
  70:d:\kzc\stm32\h743ii_lcd\lvgl\src/misc\lv_mem.h ****  * Allocate a memory dynamically
  71:d:\kzc\stm32\h743ii_lcd\lvgl\src/misc\lv_mem.h ****  * @param size size of the memory to allocate in bytes
  72:d:\kzc\stm32\h743ii_lcd\lvgl\src/misc\lv_mem.h ****  * @return pointer to the allocated memory
  73:d:\kzc\stm32\h743ii_lcd\lvgl\src/misc\lv_mem.h ****  */
  74:d:\kzc\stm32\h743ii_lcd\lvgl\src/misc\lv_mem.h **** void * lv_mem_alloc(size_t size);
  75:d:\kzc\stm32\h743ii_lcd\lvgl\src/misc\lv_mem.h **** 
  76:d:\kzc\stm32\h743ii_lcd\lvgl\src/misc\lv_mem.h **** /**
  77:d:\kzc\stm32\h743ii_lcd\lvgl\src/misc\lv_mem.h ****  * Free an allocated data
  78:d:\kzc\stm32\h743ii_lcd\lvgl\src/misc\lv_mem.h ****  * @param data pointer to an allocated memory
  79:d:\kzc\stm32\h743ii_lcd\lvgl\src/misc\lv_mem.h ****  */
  80:d:\kzc\stm32\h743ii_lcd\lvgl\src/misc\lv_mem.h **** void lv_mem_free(void * data);
  81:d:\kzc\stm32\h743ii_lcd\lvgl\src/misc\lv_mem.h **** 
  82:d:\kzc\stm32\h743ii_lcd\lvgl\src/misc\lv_mem.h **** /**
  83:d:\kzc\stm32\h743ii_lcd\lvgl\src/misc\lv_mem.h ****  * Reallocate a memory with a new size. The old content will be kept.
  84:d:\kzc\stm32\h743ii_lcd\lvgl\src/misc\lv_mem.h ****  * @param data pointer to an allocated memory.
  85:d:\kzc\stm32\h743ii_lcd\lvgl\src/misc\lv_mem.h ****  * Its content will be copied to the new memory block and freed
  86:d:\kzc\stm32\h743ii_lcd\lvgl\src/misc\lv_mem.h ****  * @param new_size the desired new size in byte
  87:d:\kzc\stm32\h743ii_lcd\lvgl\src/misc\lv_mem.h ****  * @return pointer to the new memory, NULL on failure
  88:d:\kzc\stm32\h743ii_lcd\lvgl\src/misc\lv_mem.h ****  */
  89:d:\kzc\stm32\h743ii_lcd\lvgl\src/misc\lv_mem.h **** void * lv_mem_realloc(void * data_p, size_t new_size);
  90:d:\kzc\stm32\h743ii_lcd\lvgl\src/misc\lv_mem.h **** 
  91:d:\kzc\stm32\h743ii_lcd\lvgl\src/misc\lv_mem.h **** /**
  92:d:\kzc\stm32\h743ii_lcd\lvgl\src/misc\lv_mem.h ****  *
  93:d:\kzc\stm32\h743ii_lcd\lvgl\src/misc\lv_mem.h ****  * @return
  94:d:\kzc\stm32\h743ii_lcd\lvgl\src/misc\lv_mem.h ****  */
  95:d:\kzc\stm32\h743ii_lcd\lvgl\src/misc\lv_mem.h **** lv_res_t lv_mem_test(void);
  96:d:\kzc\stm32\h743ii_lcd\lvgl\src/misc\lv_mem.h **** 
  97:d:\kzc\stm32\h743ii_lcd\lvgl\src/misc\lv_mem.h **** /**
  98:d:\kzc\stm32\h743ii_lcd\lvgl\src/misc\lv_mem.h ****  * Give information about the work memory of dynamic allocation
  99:d:\kzc\stm32\h743ii_lcd\lvgl\src/misc\lv_mem.h ****  * @param mon_p pointer to a lv_mem_monitor_t variable,
 100:d:\kzc\stm32\h743ii_lcd\lvgl\src/misc\lv_mem.h ****  *              the result of the analysis will be stored here
 101:d:\kzc\stm32\h743ii_lcd\lvgl\src/misc\lv_mem.h ****  */
 102:d:\kzc\stm32\h743ii_lcd\lvgl\src/misc\lv_mem.h **** void lv_mem_monitor(lv_mem_monitor_t * mon_p);
 103:d:\kzc\stm32\h743ii_lcd\lvgl\src/misc\lv_mem.h **** 
 104:d:\kzc\stm32\h743ii_lcd\lvgl\src/misc\lv_mem.h **** /**
ARM GAS  C:\Users\OSD\AppData\Local\Temp\ccmEsMWN.s 			page 49


 105:d:\kzc\stm32\h743ii_lcd\lvgl\src/misc\lv_mem.h ****  * Get a temporal buffer with the given size.
 106:d:\kzc\stm32\h743ii_lcd\lvgl\src/misc\lv_mem.h ****  * @param size the required size
 107:d:\kzc\stm32\h743ii_lcd\lvgl\src/misc\lv_mem.h ****  */
 108:d:\kzc\stm32\h743ii_lcd\lvgl\src/misc\lv_mem.h **** void * lv_mem_buf_get(uint32_t size);
 109:d:\kzc\stm32\h743ii_lcd\lvgl\src/misc\lv_mem.h **** 
 110:d:\kzc\stm32\h743ii_lcd\lvgl\src/misc\lv_mem.h **** /**
 111:d:\kzc\stm32\h743ii_lcd\lvgl\src/misc\lv_mem.h ****  * Release a memory buffer
 112:d:\kzc\stm32\h743ii_lcd\lvgl\src/misc\lv_mem.h ****  * @param p buffer to release
 113:d:\kzc\stm32\h743ii_lcd\lvgl\src/misc\lv_mem.h ****  */
 114:d:\kzc\stm32\h743ii_lcd\lvgl\src/misc\lv_mem.h **** void lv_mem_buf_release(void * p);
 115:d:\kzc\stm32\h743ii_lcd\lvgl\src/misc\lv_mem.h **** 
 116:d:\kzc\stm32\h743ii_lcd\lvgl\src/misc\lv_mem.h **** /**
 117:d:\kzc\stm32\h743ii_lcd\lvgl\src/misc\lv_mem.h ****  * Free all memory buffers
 118:d:\kzc\stm32\h743ii_lcd\lvgl\src/misc\lv_mem.h ****  */
 119:d:\kzc\stm32\h743ii_lcd\lvgl\src/misc\lv_mem.h **** void lv_mem_buf_free_all(void);
 120:d:\kzc\stm32\h743ii_lcd\lvgl\src/misc\lv_mem.h **** 
 121:d:\kzc\stm32\h743ii_lcd\lvgl\src/misc\lv_mem.h **** //! @cond Doxygen_Suppress
 122:d:\kzc\stm32\h743ii_lcd\lvgl\src/misc\lv_mem.h **** 
 123:d:\kzc\stm32\h743ii_lcd\lvgl\src/misc\lv_mem.h **** #if LV_MEMCPY_MEMSET_STD
 124:d:\kzc\stm32\h743ii_lcd\lvgl\src/misc\lv_mem.h **** 
 125:d:\kzc\stm32\h743ii_lcd\lvgl\src/misc\lv_mem.h **** /**
 126:d:\kzc\stm32\h743ii_lcd\lvgl\src/misc\lv_mem.h ****  * Wrapper for the standard memcpy
 127:d:\kzc\stm32\h743ii_lcd\lvgl\src/misc\lv_mem.h ****  * @param dst pointer to the destination buffer
 128:d:\kzc\stm32\h743ii_lcd\lvgl\src/misc\lv_mem.h ****  * @param src pointer to the source buffer
 129:d:\kzc\stm32\h743ii_lcd\lvgl\src/misc\lv_mem.h ****  * @param len number of byte to copy
 130:d:\kzc\stm32\h743ii_lcd\lvgl\src/misc\lv_mem.h ****  */
 131:d:\kzc\stm32\h743ii_lcd\lvgl\src/misc\lv_mem.h **** static inline void * lv_memcpy(void * dst, const void * src, size_t len)
 132:d:\kzc\stm32\h743ii_lcd\lvgl\src/misc\lv_mem.h **** {
 133:d:\kzc\stm32\h743ii_lcd\lvgl\src/misc\lv_mem.h ****     return memcpy(dst, src, len);
 134:d:\kzc\stm32\h743ii_lcd\lvgl\src/misc\lv_mem.h **** }
 135:d:\kzc\stm32\h743ii_lcd\lvgl\src/misc\lv_mem.h **** 
 136:d:\kzc\stm32\h743ii_lcd\lvgl\src/misc\lv_mem.h **** /**
 137:d:\kzc\stm32\h743ii_lcd\lvgl\src/misc\lv_mem.h ****  * Wrapper for the standard memcpy
 138:d:\kzc\stm32\h743ii_lcd\lvgl\src/misc\lv_mem.h ****  * @param dst pointer to the destination buffer
 139:d:\kzc\stm32\h743ii_lcd\lvgl\src/misc\lv_mem.h ****  * @param src pointer to the source buffer
 140:d:\kzc\stm32\h743ii_lcd\lvgl\src/misc\lv_mem.h ****  * @param len number of byte to copy
 141:d:\kzc\stm32\h743ii_lcd\lvgl\src/misc\lv_mem.h ****  */
 142:d:\kzc\stm32\h743ii_lcd\lvgl\src/misc\lv_mem.h **** static inline void * lv_memcpy_small(void * dst, const void * src, size_t len)
 143:d:\kzc\stm32\h743ii_lcd\lvgl\src/misc\lv_mem.h **** {
 144:d:\kzc\stm32\h743ii_lcd\lvgl\src/misc\lv_mem.h ****     return memcpy(dst, src, len);
 145:d:\kzc\stm32\h743ii_lcd\lvgl\src/misc\lv_mem.h **** }
 146:d:\kzc\stm32\h743ii_lcd\lvgl\src/misc\lv_mem.h **** 
 147:d:\kzc\stm32\h743ii_lcd\lvgl\src/misc\lv_mem.h **** /**
 148:d:\kzc\stm32\h743ii_lcd\lvgl\src/misc\lv_mem.h ****  * Wrapper for the standard memset
 149:d:\kzc\stm32\h743ii_lcd\lvgl\src/misc\lv_mem.h ****  * @param dst pointer to the destination buffer
 150:d:\kzc\stm32\h743ii_lcd\lvgl\src/misc\lv_mem.h ****  * @param v value to set [0..255]
 151:d:\kzc\stm32\h743ii_lcd\lvgl\src/misc\lv_mem.h ****  * @param len number of byte to set
 152:d:\kzc\stm32\h743ii_lcd\lvgl\src/misc\lv_mem.h ****  */
 153:d:\kzc\stm32\h743ii_lcd\lvgl\src/misc\lv_mem.h **** static inline void lv_memset(void * dst, uint8_t v, size_t len)
 154:d:\kzc\stm32\h743ii_lcd\lvgl\src/misc\lv_mem.h **** {
 155:d:\kzc\stm32\h743ii_lcd\lvgl\src/misc\lv_mem.h ****     memset(dst, v, len);
 156:d:\kzc\stm32\h743ii_lcd\lvgl\src/misc\lv_mem.h **** }
 157:d:\kzc\stm32\h743ii_lcd\lvgl\src/misc\lv_mem.h **** 
 158:d:\kzc\stm32\h743ii_lcd\lvgl\src/misc\lv_mem.h **** /**
 159:d:\kzc\stm32\h743ii_lcd\lvgl\src/misc\lv_mem.h ****  * Wrapper for the standard memset with fixed 0x00 value
 160:d:\kzc\stm32\h743ii_lcd\lvgl\src/misc\lv_mem.h ****  * @param dst pointer to the destination buffer
 161:d:\kzc\stm32\h743ii_lcd\lvgl\src/misc\lv_mem.h ****  * @param len number of byte to set
ARM GAS  C:\Users\OSD\AppData\Local\Temp\ccmEsMWN.s 			page 50


 162:d:\kzc\stm32\h743ii_lcd\lvgl\src/misc\lv_mem.h ****  */
 163:d:\kzc\stm32\h743ii_lcd\lvgl\src/misc\lv_mem.h **** static inline void lv_memset_00(void * dst, size_t len)
 164:d:\kzc\stm32\h743ii_lcd\lvgl\src/misc\lv_mem.h **** {
 165:d:\kzc\stm32\h743ii_lcd\lvgl\src/misc\lv_mem.h ****     memset(dst, 0x00, len);
 166:d:\kzc\stm32\h743ii_lcd\lvgl\src/misc\lv_mem.h **** }
 167:d:\kzc\stm32\h743ii_lcd\lvgl\src/misc\lv_mem.h **** 
 168:d:\kzc\stm32\h743ii_lcd\lvgl\src/misc\lv_mem.h **** /**
 169:d:\kzc\stm32\h743ii_lcd\lvgl\src/misc\lv_mem.h ****  * Wrapper for the standard memset with fixed 0xFF value
 170:d:\kzc\stm32\h743ii_lcd\lvgl\src/misc\lv_mem.h ****  * @param dst pointer to the destination buffer
 171:d:\kzc\stm32\h743ii_lcd\lvgl\src/misc\lv_mem.h ****  * @param len number of byte to set
 172:d:\kzc\stm32\h743ii_lcd\lvgl\src/misc\lv_mem.h ****  */
 173:d:\kzc\stm32\h743ii_lcd\lvgl\src/misc\lv_mem.h **** static inline void lv_memset_ff(void * dst, size_t len)
 174:d:\kzc\stm32\h743ii_lcd\lvgl\src/misc\lv_mem.h **** {
 175:d:\kzc\stm32\h743ii_lcd\lvgl\src/misc\lv_mem.h ****     memset(dst, 0xFF, len);
 176:d:\kzc\stm32\h743ii_lcd\lvgl\src/misc\lv_mem.h **** }
 177:d:\kzc\stm32\h743ii_lcd\lvgl\src/misc\lv_mem.h **** 
 178:d:\kzc\stm32\h743ii_lcd\lvgl\src/misc\lv_mem.h **** #else
 179:d:\kzc\stm32\h743ii_lcd\lvgl\src/misc\lv_mem.h **** /**
 180:d:\kzc\stm32\h743ii_lcd\lvgl\src/misc\lv_mem.h ****  * Same as `memcpy` but optimized for 4 byte operation.
 181:d:\kzc\stm32\h743ii_lcd\lvgl\src/misc\lv_mem.h ****  * @param dst pointer to the destination buffer
 182:d:\kzc\stm32\h743ii_lcd\lvgl\src/misc\lv_mem.h ****  * @param src pointer to the source buffer
 183:d:\kzc\stm32\h743ii_lcd\lvgl\src/misc\lv_mem.h ****  * @param len number of byte to copy
 184:d:\kzc\stm32\h743ii_lcd\lvgl\src/misc\lv_mem.h ****  */
 185:d:\kzc\stm32\h743ii_lcd\lvgl\src/misc\lv_mem.h **** void * /* LV_ATTRIBUTE_FAST_MEM */ lv_memcpy(void * dst, const void * src, size_t len);
 186:d:\kzc\stm32\h743ii_lcd\lvgl\src/misc\lv_mem.h **** 
 187:d:\kzc\stm32\h743ii_lcd\lvgl\src/misc\lv_mem.h **** /**
 188:d:\kzc\stm32\h743ii_lcd\lvgl\src/misc\lv_mem.h ****  * Same as `memcpy` but optimized to copy only a few bytes.
 189:d:\kzc\stm32\h743ii_lcd\lvgl\src/misc\lv_mem.h ****  * @param dst pointer to the destination buffer
 190:d:\kzc\stm32\h743ii_lcd\lvgl\src/misc\lv_mem.h ****  * @param src pointer to the source buffer
 191:d:\kzc\stm32\h743ii_lcd\lvgl\src/misc\lv_mem.h ****  * @param len number of byte to copy
 192:d:\kzc\stm32\h743ii_lcd\lvgl\src/misc\lv_mem.h ****  */
 193:d:\kzc\stm32\h743ii_lcd\lvgl\src/misc\lv_mem.h **** static inline void * LV_ATTRIBUTE_FAST_MEM lv_memcpy_small(void * dst, const void * src, size_t len
 1398              		.loc 3 193 44 is_stmt 1 view .LVU394
 1399              	.LBB36:
 194:d:\kzc\stm32\h743ii_lcd\lvgl\src/misc\lv_mem.h **** {
 195:d:\kzc\stm32\h743ii_lcd\lvgl\src/misc\lv_mem.h ****     uint8_t * d8 = (uint8_t *)dst;
 1400              		.loc 3 195 5 view .LVU395
 196:d:\kzc\stm32\h743ii_lcd\lvgl\src/misc\lv_mem.h ****     const uint8_t * s8 = (const uint8_t *)src;
 1401              		.loc 3 196 5 view .LVU396
 197:d:\kzc\stm32\h743ii_lcd\lvgl\src/misc\lv_mem.h **** 
 198:d:\kzc\stm32\h743ii_lcd\lvgl\src/misc\lv_mem.h ****     while(len) {
 1402              		.loc 3 198 5 view .LVU397
 196:d:\kzc\stm32\h743ii_lcd\lvgl\src/misc\lv_mem.h ****     const uint8_t * s8 = (const uint8_t *)src;
 1403              		.loc 3 196 21 is_stmt 0 view .LVU398
 1404 0052 5146     		mov	r1, r10
 195:d:\kzc\stm32\h743ii_lcd\lvgl\src/misc\lv_mem.h ****     const uint8_t * s8 = (const uint8_t *)src;
 1405              		.loc 3 195 15 view .LVU399
 1406 0054 0246     		mov	r2, r0
 1407              		.loc 3 198 10 view .LVU400
 1408 0056 04E0     		b	.L83
 1409              	.LVL186:
 1410              	.L84:
 199:d:\kzc\stm32\h743ii_lcd\lvgl\src/misc\lv_mem.h ****         *d8 = *s8;
 1411              		.loc 3 199 9 is_stmt 1 view .LVU401
 1412              		.loc 3 199 15 is_stmt 0 view .LVU402
 1413 0058 11F8010B 		ldrb	r0, [r1], #1	@ zero_extendqisi2
 1414              	.LVL187:
ARM GAS  C:\Users\OSD\AppData\Local\Temp\ccmEsMWN.s 			page 51


 1415              		.loc 3 199 13 view .LVU403
 1416 005c 02F8010B 		strb	r0, [r2], #1
 1417              	.LVL188:
 200:d:\kzc\stm32\h743ii_lcd\lvgl\src/misc\lv_mem.h ****         d8++;
 1418              		.loc 3 200 9 is_stmt 1 view .LVU404
 201:d:\kzc\stm32\h743ii_lcd\lvgl\src/misc\lv_mem.h ****         s8++;
 1419              		.loc 3 201 9 view .LVU405
 202:d:\kzc\stm32\h743ii_lcd\lvgl\src/misc\lv_mem.h ****         len--;
 1420              		.loc 3 202 9 view .LVU406
 1421              		.loc 3 202 12 is_stmt 0 view .LVU407
 1422 0060 013B     		subs	r3, r3, #1
 1423              	.LVL189:
 1424              	.L83:
 198:d:\kzc\stm32\h743ii_lcd\lvgl\src/misc\lv_mem.h ****         *d8 = *s8;
 1425              		.loc 3 198 10 is_stmt 1 view .LVU408
 1426 0062 002B     		cmp	r3, #0
 1427 0064 F8D1     		bne	.L84
 203:d:\kzc\stm32\h743ii_lcd\lvgl\src/misc\lv_mem.h ****     }
 204:d:\kzc\stm32\h743ii_lcd\lvgl\src/misc\lv_mem.h **** 
 205:d:\kzc\stm32\h743ii_lcd\lvgl\src/misc\lv_mem.h ****     return dst;
 1428              		.loc 3 205 5 view .LVU409
 1429              	.LVL190:
 1430              		.loc 3 205 5 is_stmt 0 view .LVU410
 1431              	.LBE36:
 1432              	.LBE35:
  87:lvgl/src/extra/widgets/tabview/lv_tabview.c ****         strcpy((char *)new_map[tab_id - 1], name);
 1433              		.loc 1 87 9 is_stmt 1 view .LVU411
  87:lvgl/src/extra/widgets/tabview/lv_tabview.c ****         strcpy((char *)new_map[tab_id - 1], name);
 1434              		.loc 1 87 44 is_stmt 0 view .LVU412
 1435 0066 4846     		mov	r0, r9
 1436 0068 FFF7FEFF 		bl	strlen
 1437              	.LVL191:
  87:lvgl/src/extra/widgets/tabview/lv_tabview.c ****         strcpy((char *)new_map[tab_id - 1], name);
 1438              		.loc 1 87 16 view .LVU413
 1439 006c 6FF0404B 		mvn	fp, #-1073741824
 1440 0070 B344     		add	fp, fp, r6
  87:lvgl/src/extra/widgets/tabview/lv_tabview.c ****         strcpy((char *)new_map[tab_id - 1], name);
 1441              		.loc 1 87 31 view .LVU414
 1442 0072 0130     		adds	r0, r0, #1
 1443 0074 FFF7FEFF 		bl	lv_mem_alloc
 1444              	.LVL192:
  87:lvgl/src/extra/widgets/tabview/lv_tabview.c ****         strcpy((char *)new_map[tab_id - 1], name);
 1445              		.loc 1 87 29 view .LVU415
 1446 0078 45F82B00 		str	r0, [r5, fp, lsl #2]
  88:lvgl/src/extra/widgets/tabview/lv_tabview.c ****         new_map[tab_id] = "";
 1447              		.loc 1 88 9 is_stmt 1 view .LVU416
 1448 007c 4946     		mov	r1, r9
 1449 007e FFF7FEFF 		bl	strcpy
 1450              	.LVL193:
  89:lvgl/src/extra/widgets/tabview/lv_tabview.c ****     }
 1451              		.loc 1 89 9 view .LVU417
  89:lvgl/src/extra/widgets/tabview/lv_tabview.c ****     }
 1452              		.loc 1 89 25 is_stmt 0 view .LVU418
 1453 0082 304B     		ldr	r3, .L92
 1454 0084 45F82630 		str	r3, [r5, r6, lsl #2]
 1455              	.LVL194:
 1456              	.L85:
ARM GAS  C:\Users\OSD\AppData\Local\Temp\ccmEsMWN.s 			page 52


 107:lvgl/src/extra/widgets/tabview/lv_tabview.c ****     lv_btnmatrix_set_map(btns, (const char **)new_map);
 1457              		.loc 1 107 5 is_stmt 1 view .LVU419
 107:lvgl/src/extra/widgets/tabview/lv_tabview.c ****     lv_btnmatrix_set_map(btns, (const char **)new_map);
 1458              		.loc 1 107 18 is_stmt 0 view .LVU420
 1459 0088 6562     		str	r5, [r4, #36]
 108:lvgl/src/extra/widgets/tabview/lv_tabview.c ****     lv_mem_free(old_map);
 1460              		.loc 1 108 5 is_stmt 1 view .LVU421
 1461 008a 2946     		mov	r1, r5
 1462 008c 3846     		mov	r0, r7
 1463 008e FFF7FEFF 		bl	lv_btnmatrix_set_map
 1464              	.LVL195:
 109:lvgl/src/extra/widgets/tabview/lv_tabview.c **** 
 1465              		.loc 1 109 5 view .LVU422
 1466 0092 5046     		mov	r0, r10
 1467 0094 FFF7FEFF 		bl	lv_mem_free
 1468              	.LVL196:
 111:lvgl/src/extra/widgets/tabview/lv_tabview.c ****                                   LV_BTNMATRIX_CTRL_NO_REPEAT);
 1469              		.loc 1 111 5 view .LVU423
 1470 0098 4FF42871 		mov	r1, #672
 1471 009c 3846     		mov	r0, r7
 1472 009e FFF7FEFF 		bl	lv_btnmatrix_set_btn_ctrl_all
 1473              	.LVL197:
 114:lvgl/src/extra/widgets/tabview/lv_tabview.c ****     if(tabview->tab_cnt == 1) {
 1474              		.loc 1 114 5 view .LVU424
 114:lvgl/src/extra/widgets/tabview/lv_tabview.c ****     if(tabview->tab_cnt == 1) {
 1475              		.loc 1 114 12 is_stmt 0 view .LVU425
 1476 00a2 238D     		ldrh	r3, [r4, #40]
 114:lvgl/src/extra/widgets/tabview/lv_tabview.c ****     if(tabview->tab_cnt == 1) {
 1477              		.loc 1 114 21 view .LVU426
 1478 00a4 0133     		adds	r3, r3, #1
 1479 00a6 9BB2     		uxth	r3, r3
 1480 00a8 2385     		strh	r3, [r4, #40]	@ movhi
 115:lvgl/src/extra/widgets/tabview/lv_tabview.c ****         lv_tabview_set_act(obj, 0, LV_ANIM_OFF);
 1481              		.loc 1 115 5 is_stmt 1 view .LVU427
 115:lvgl/src/extra/widgets/tabview/lv_tabview.c ****         lv_tabview_set_act(obj, 0, LV_ANIM_OFF);
 1482              		.loc 1 115 7 is_stmt 0 view .LVU428
 1483 00aa 012B     		cmp	r3, #1
 1484 00ac 43D0     		beq	.L91
 1485              	.L89:
 119:lvgl/src/extra/widgets/tabview/lv_tabview.c **** 
 1486              		.loc 1 119 5 is_stmt 1 view .LVU429
 1487 00ae 4FF48072 		mov	r2, #256
 1488 00b2 618D     		ldrh	r1, [r4, #42]
 1489 00b4 3846     		mov	r0, r7
 1490 00b6 FFF7FEFF 		bl	lv_btnmatrix_set_btn_ctrl
 1491              	.LVL198:
 121:lvgl/src/extra/widgets/tabview/lv_tabview.c **** }
 1492              		.loc 1 121 5 view .LVU430
 122:lvgl/src/extra/widgets/tabview/lv_tabview.c **** 
 1493              		.loc 1 122 1 is_stmt 0 view .LVU431
 1494 00ba 4046     		mov	r0, r8
 1495 00bc BDE8F88F 		pop	{r3, r4, r5, r6, r7, r8, r9, r10, fp, pc}
 1496              	.LVL199:
 1497              	.L82:
  93:lvgl/src/extra/widgets/tabview/lv_tabview.c ****         lv_memcpy_small(new_map, old_map, sizeof(const char *) * (tab_id - 1) * 2);
 1498              		.loc 1 93 9 is_stmt 1 view .LVU432
  93:lvgl/src/extra/widgets/tabview/lv_tabview.c ****         lv_memcpy_small(new_map, old_map, sizeof(const char *) * (tab_id - 1) * 2);
ARM GAS  C:\Users\OSD\AppData\Local\Temp\ccmEsMWN.s 			page 53


 1499              		.loc 1 93 45 is_stmt 0 view .LVU433
 1500 00c0 4FEAC60B 		lsl	fp, r6, #3
  93:lvgl/src/extra/widgets/tabview/lv_tabview.c ****         lv_memcpy_small(new_map, old_map, sizeof(const char *) * (tab_id - 1) * 2);
 1501              		.loc 1 93 19 view .LVU434
 1502 00c4 5846     		mov	r0, fp
 1503              	.LVL200:
  93:lvgl/src/extra/widgets/tabview/lv_tabview.c ****         lv_memcpy_small(new_map, old_map, sizeof(const char *) * (tab_id - 1) * 2);
 1504              		.loc 1 93 19 view .LVU435
 1505 00c6 FFF7FEFF 		bl	lv_mem_alloc
 1506              	.LVL201:
 1507 00ca 0546     		mov	r5, r0
 1508              	.LVL202:
  94:lvgl/src/extra/widgets/tabview/lv_tabview.c ****         if(tabview->tab_cnt == 0) {
 1509              		.loc 1 94 9 is_stmt 1 view .LVU436
  94:lvgl/src/extra/widgets/tabview/lv_tabview.c ****         if(tabview->tab_cnt == 0) {
 1510              		.loc 1 94 74 is_stmt 0 view .LVU437
 1511 00cc 731E     		subs	r3, r6, #1
  94:lvgl/src/extra/widgets/tabview/lv_tabview.c ****         if(tabview->tab_cnt == 0) {
 1512              		.loc 1 94 79 view .LVU438
 1513 00ce DB00     		lsls	r3, r3, #3
 1514              	.LVL203:
 1515              	.LBB37:
 1516              	.LBI37:
 193:d:\kzc\stm32\h743ii_lcd\lvgl\src/misc\lv_mem.h **** {
 1517              		.loc 3 193 44 is_stmt 1 view .LVU439
 1518              	.LBB38:
 195:d:\kzc\stm32\h743ii_lcd\lvgl\src/misc\lv_mem.h ****     const uint8_t * s8 = (const uint8_t *)src;
 1519              		.loc 3 195 5 view .LVU440
 196:d:\kzc\stm32\h743ii_lcd\lvgl\src/misc\lv_mem.h **** 
 1520              		.loc 3 196 5 view .LVU441
 198:d:\kzc\stm32\h743ii_lcd\lvgl\src/misc\lv_mem.h ****         *d8 = *s8;
 1521              		.loc 3 198 5 view .LVU442
 196:d:\kzc\stm32\h743ii_lcd\lvgl\src/misc\lv_mem.h **** 
 1522              		.loc 3 196 21 is_stmt 0 view .LVU443
 1523 00d0 5146     		mov	r1, r10
 195:d:\kzc\stm32\h743ii_lcd\lvgl\src/misc\lv_mem.h ****     const uint8_t * s8 = (const uint8_t *)src;
 1524              		.loc 3 195 15 view .LVU444
 1525 00d2 0246     		mov	r2, r0
 198:d:\kzc\stm32\h743ii_lcd\lvgl\src/misc\lv_mem.h ****         *d8 = *s8;
 1526              		.loc 3 198 10 view .LVU445
 1527 00d4 04E0     		b	.L86
 1528              	.LVL204:
 1529              	.L87:
 199:d:\kzc\stm32\h743ii_lcd\lvgl\src/misc\lv_mem.h ****         d8++;
 1530              		.loc 3 199 9 is_stmt 1 view .LVU446
 199:d:\kzc\stm32\h743ii_lcd\lvgl\src/misc\lv_mem.h ****         d8++;
 1531              		.loc 3 199 15 is_stmt 0 view .LVU447
 1532 00d6 11F8010B 		ldrb	r0, [r1], #1	@ zero_extendqisi2
 1533              	.LVL205:
 199:d:\kzc\stm32\h743ii_lcd\lvgl\src/misc\lv_mem.h ****         d8++;
 1534              		.loc 3 199 13 view .LVU448
 1535 00da 02F8010B 		strb	r0, [r2], #1
 1536              	.LVL206:
 200:d:\kzc\stm32\h743ii_lcd\lvgl\src/misc\lv_mem.h ****         s8++;
 1537              		.loc 3 200 9 is_stmt 1 view .LVU449
 201:d:\kzc\stm32\h743ii_lcd\lvgl\src/misc\lv_mem.h ****         len--;
 1538              		.loc 3 201 9 view .LVU450
ARM GAS  C:\Users\OSD\AppData\Local\Temp\ccmEsMWN.s 			page 54


 202:d:\kzc\stm32\h743ii_lcd\lvgl\src/misc\lv_mem.h ****     }
 1539              		.loc 3 202 9 view .LVU451
 202:d:\kzc\stm32\h743ii_lcd\lvgl\src/misc\lv_mem.h ****     }
 1540              		.loc 3 202 12 is_stmt 0 view .LVU452
 1541 00de 013B     		subs	r3, r3, #1
 1542              	.LVL207:
 1543              	.L86:
 198:d:\kzc\stm32\h743ii_lcd\lvgl\src/misc\lv_mem.h ****         *d8 = *s8;
 1544              		.loc 3 198 10 is_stmt 1 view .LVU453
 1545 00e0 002B     		cmp	r3, #0
 1546 00e2 F8D1     		bne	.L87
 1547              		.loc 3 205 5 view .LVU454
 1548              	.LVL208:
 1549              		.loc 3 205 5 is_stmt 0 view .LVU455
 1550              	.LBE38:
 1551              	.LBE37:
  95:lvgl/src/extra/widgets/tabview/lv_tabview.c ****             new_map[0] = lv_mem_alloc(strlen(name) + 1);
 1552              		.loc 1 95 9 is_stmt 1 view .LVU456
  95:lvgl/src/extra/widgets/tabview/lv_tabview.c ****             new_map[0] = lv_mem_alloc(strlen(name) + 1);
 1553              		.loc 1 95 19 is_stmt 0 view .LVU457
 1554 00e4 238D     		ldrh	r3, [r4, #40]
  95:lvgl/src/extra/widgets/tabview/lv_tabview.c ****             new_map[0] = lv_mem_alloc(strlen(name) + 1);
 1555              		.loc 1 95 11 view .LVU458
 1556 00e6 63B9     		cbnz	r3, .L88
  96:lvgl/src/extra/widgets/tabview/lv_tabview.c ****             strcpy((char *)new_map[0], name);
 1557              		.loc 1 96 13 is_stmt 1 view .LVU459
  96:lvgl/src/extra/widgets/tabview/lv_tabview.c ****             strcpy((char *)new_map[0], name);
 1558              		.loc 1 96 39 is_stmt 0 view .LVU460
 1559 00e8 4846     		mov	r0, r9
 1560 00ea FFF7FEFF 		bl	strlen
 1561              	.LVL209:
  96:lvgl/src/extra/widgets/tabview/lv_tabview.c ****             strcpy((char *)new_map[0], name);
 1562              		.loc 1 96 26 view .LVU461
 1563 00ee 0130     		adds	r0, r0, #1
 1564 00f0 FFF7FEFF 		bl	lv_mem_alloc
 1565              	.LVL210:
  96:lvgl/src/extra/widgets/tabview/lv_tabview.c ****             strcpy((char *)new_map[0], name);
 1566              		.loc 1 96 24 view .LVU462
 1567 00f4 2860     		str	r0, [r5]
  97:lvgl/src/extra/widgets/tabview/lv_tabview.c ****             new_map[1] = "";
 1568              		.loc 1 97 13 is_stmt 1 view .LVU463
 1569 00f6 4946     		mov	r1, r9
 1570 00f8 FFF7FEFF 		bl	strcpy
 1571              	.LVL211:
  98:lvgl/src/extra/widgets/tabview/lv_tabview.c ****         }
 1572              		.loc 1 98 13 view .LVU464
  98:lvgl/src/extra/widgets/tabview/lv_tabview.c ****         }
 1573              		.loc 1 98 24 is_stmt 0 view .LVU465
 1574 00fc 114B     		ldr	r3, .L92
 1575 00fe 6B60     		str	r3, [r5, #4]
 1576 0100 C2E7     		b	.L85
 1577              	.L88:
 101:lvgl/src/extra/widgets/tabview/lv_tabview.c ****             new_map[tab_id * 2 - 2] = lv_mem_alloc(strlen(name) + 1);
 1578              		.loc 1 101 13 is_stmt 1 view .LVU466
 101:lvgl/src/extra/widgets/tabview/lv_tabview.c ****             new_map[tab_id * 2 - 2] = lv_mem_alloc(strlen(name) + 1);
 1579              		.loc 1 101 20 is_stmt 0 view .LVU467
 1580 0102 ABF10C03 		sub	r3, fp, #12
ARM GAS  C:\Users\OSD\AppData\Local\Temp\ccmEsMWN.s 			page 55


 101:lvgl/src/extra/widgets/tabview/lv_tabview.c ****             new_map[tab_id * 2 - 2] = lv_mem_alloc(strlen(name) + 1);
 1581              		.loc 1 101 37 view .LVU468
 1582 0106 104A     		ldr	r2, .L92+4
 1583 0108 EA50     		str	r2, [r5, r3]
 102:lvgl/src/extra/widgets/tabview/lv_tabview.c ****             new_map[tab_id * 2 - 1] = "";
 1584              		.loc 1 102 13 is_stmt 1 view .LVU469
 102:lvgl/src/extra/widgets/tabview/lv_tabview.c ****             new_map[tab_id * 2 - 1] = "";
 1585              		.loc 1 102 52 is_stmt 0 view .LVU470
 1586 010a 4846     		mov	r0, r9
 1587 010c FFF7FEFF 		bl	strlen
 1588              	.LVL212:
 102:lvgl/src/extra/widgets/tabview/lv_tabview.c ****             new_map[tab_id * 2 - 1] = "";
 1589              		.loc 1 102 20 view .LVU471
 1590 0110 6FF06043 		mvn	r3, #-536870912
 1591 0114 1E44     		add	r6, r6, r3
 1592              	.LVL213:
 102:lvgl/src/extra/widgets/tabview/lv_tabview.c ****             new_map[tab_id * 2 - 1] = "";
 1593              		.loc 1 102 39 view .LVU472
 1594 0116 0130     		adds	r0, r0, #1
 1595 0118 FFF7FEFF 		bl	lv_mem_alloc
 1596              	.LVL214:
 102:lvgl/src/extra/widgets/tabview/lv_tabview.c ****             new_map[tab_id * 2 - 1] = "";
 1597              		.loc 1 102 37 view .LVU473
 1598 011c 45F83600 		str	r0, [r5, r6, lsl #3]
 103:lvgl/src/extra/widgets/tabview/lv_tabview.c ****             strcpy((char *)new_map[(tab_id * 2) - 2], name);
 1599              		.loc 1 103 13 is_stmt 1 view .LVU474
 103:lvgl/src/extra/widgets/tabview/lv_tabview.c ****             strcpy((char *)new_map[(tab_id * 2) - 2], name);
 1600              		.loc 1 103 20 is_stmt 0 view .LVU475
 1601 0120 ABF1040B 		sub	fp, fp, #4
 103:lvgl/src/extra/widgets/tabview/lv_tabview.c ****             strcpy((char *)new_map[(tab_id * 2) - 2], name);
 1602              		.loc 1 103 37 view .LVU476
 1603 0124 074B     		ldr	r3, .L92
 1604 0126 45F80B30 		str	r3, [r5, fp]
 104:lvgl/src/extra/widgets/tabview/lv_tabview.c ****         }
 1605              		.loc 1 104 13 is_stmt 1 view .LVU477
 1606 012a 4946     		mov	r1, r9
 1607 012c 55F83600 		ldr	r0, [r5, r6, lsl #3]
 1608 0130 FFF7FEFF 		bl	strcpy
 1609              	.LVL215:
 1610 0134 A8E7     		b	.L85
 1611              	.LVL216:
 1612              	.L91:
 116:lvgl/src/extra/widgets/tabview/lv_tabview.c ****     }
 1613              		.loc 1 116 9 view .LVU478
 1614 0136 0022     		movs	r2, #0
 1615 0138 1146     		mov	r1, r2
 1616 013a 2046     		mov	r0, r4
 1617 013c FFF7FEFF 		bl	lv_tabview_set_act
 1618              	.LVL217:
 1619 0140 B5E7     		b	.L89
 1620              	.L93:
 1621 0142 00BF     		.align	2
 1622              	.L92:
 1623 0144 00000000 		.word	.LC0
 1624 0148 00000000 		.word	.LC1
 1625              		.cfi_endproc
 1626              	.LFE205:
ARM GAS  C:\Users\OSD\AppData\Local\Temp\ccmEsMWN.s 			page 56


 1628              		.global	lv_tabview_class
 1629              		.section	.bss.tabpos_create,"aw",%nobits
 1630              		.set	.LANCHOR0,. + 0
 1633              	tabpos_create:
 1634 0000 00       		.space	1
 1635              		.section	.bss.tabsize_create,"aw",%nobits
 1636              		.align	1
 1637              		.set	.LANCHOR1,. + 0
 1640              	tabsize_create:
 1641 0000 0000     		.space	2
 1642              		.section	.rodata.lv_tabview_class,"a"
 1643              		.align	2
 1644              		.set	.LANCHOR2,. + 0
 1647              	lv_tabview_class:
 1648 0000 00000000 		.word	lv_obj_class
 1649 0004 00000000 		.word	lv_tabview_constructor
 1650 0008 00000000 		.word	lv_tabview_destructor
 1651 000c 00000000 		.space	4
 1652 0010 00000000 		.word	lv_tabview_event
 1653 0014 6420     		.short	8292
 1654 0016 6420     		.short	8292
 1655 0018 00       		.byte	0
 1656 0019 03       		.byte	3
 1657 001a 00       		.byte	0
 1658 001b 00       		.space	1
 1659              		.text
 1660              	.Letext0:
 1661              		.file 4 "c:\\tools\\gcc-arm-none-eabi\\arm-none-eabi\\include\\machine\\_default_types.h"
 1662              		.file 5 "c:\\tools\\gcc-arm-none-eabi\\arm-none-eabi\\include\\sys\\_stdint.h"
 1663              		.file 6 "d:\\kzc\\stm32\\h743ii_lcd\\lvgl\\src/misc/lv_types.h"
 1664              		.file 7 "d:\\kzc\\stm32\\h743ii_lcd\\lvgl\\src/misc/lv_timer.h"
 1665              		.file 8 "c:\\tools\\gcc-arm-none-eabi\\lib\\gcc\\arm-none-eabi\\10.3.1\\include\\stddef.h"
 1666              		.file 9 "d:\\kzc\\stm32\\h743ii_lcd\\lvgl\\src/misc/lv_anim.h"
 1667              		.file 10 "d:\\kzc\\stm32\\h743ii_lcd\\lvgl\\src\\misc\\lv_area.h"
 1668              		.file 11 "d:\\kzc\\stm32\\h743ii_lcd\\lvgl\\src\\font\\lv_font.h"
 1669              		.file 12 "d:\\kzc\\stm32\\h743ii_lcd\\lvgl\\src\\misc\\lv_color.h"
 1670              		.file 13 "d:\\kzc\\stm32\\h743ii_lcd\\lvgl\\src\\misc\\lv_txt.h"
 1671              		.file 14 "d:\\kzc\\stm32\\h743ii_lcd\\lvgl\\src\\misc\\lv_bidi.h"
 1672              		.file 15 "d:\\kzc\\stm32\\h743ii_lcd\\lvgl\\src\\misc\\lv_style.h"
 1673              		.file 16 "d:\\kzc\\stm32\\h743ii_lcd\\lvgl\\src\\draw\\lv_img_buf.h"
 1674              		.file 17 "d:\\kzc\\stm32\\h743ii_lcd\\lvgl\\src/core/lv_obj.h"
 1675              		.file 18 "d:\\kzc\\stm32\\h743ii_lcd\\lvgl\\src\\draw\\lv_draw_rect.h"
 1676              		.file 19 "d:\\kzc\\stm32\\h743ii_lcd\\lvgl\\src\\draw\\lv_draw_label.h"
 1677              		.file 20 "d:\\kzc\\stm32\\h743ii_lcd\\lvgl\\src\\draw\\lv_draw_img.h"
 1678              		.file 21 "d:\\kzc\\stm32\\h743ii_lcd\\lvgl\\src\\draw\\lv_draw_line.h"
 1679              		.file 22 "d:\\kzc\\stm32\\h743ii_lcd\\lvgl\\src\\draw\\lv_draw_arc.h"
 1680              		.file 23 "d:\\kzc\\stm32\\h743ii_lcd\\lvgl\\src\\draw\\lv_draw_layer.h"
 1681              		.file 24 "d:\\kzc\\stm32\\h743ii_lcd\\lvgl\\src\\draw\\lv_draw.h"
 1682              		.file 25 "d:\\kzc\\stm32\\h743ii_lcd\\lvgl\\src\\misc\\lv_ll.h"
 1683              		.file 26 "d:\\kzc\\stm32\\h743ii_lcd\\lvgl\\src/hal/lv_hal_disp.h"
 1684              		.file 27 "d:\\kzc\\stm32\\h743ii_lcd\\lvgl\\src/core/lv_theme.h"
 1685              		.file 28 "d:\\kzc\\stm32\\h743ii_lcd\\lvgl\\src/hal/lv_hal_indev.h"
 1686              		.file 29 "d:\\kzc\\stm32\\h743ii_lcd\\lvgl\\src/core/lv_group.h"
 1687              		.file 30 "d:\\kzc\\stm32\\h743ii_lcd\\lvgl\\src/core/lv_obj_scroll.h"
 1688              		.file 31 "d:\\kzc\\stm32\\h743ii_lcd\\lvgl\\src/core/lv_obj_style.h"
 1689              		.file 32 "d:\\kzc\\stm32\\h743ii_lcd\\lvgl\\src/core/lv_obj_class.h"
 1690              		.file 33 "d:\\kzc\\stm32\\h743ii_lcd\\lvgl\\src/core/lv_event.h"
ARM GAS  C:\Users\OSD\AppData\Local\Temp\ccmEsMWN.s 			page 57


 1691              		.file 34 "d:\\kzc\\stm32\\h743ii_lcd\\lvgl\\src/widgets/lv_bar.h"
 1692              		.file 35 "d:\\kzc\\stm32\\h743ii_lcd\\lvgl\\src/widgets/lv_btnmatrix.h"
 1693              		.file 36 "d:\\kzc\\stm32\\h743ii_lcd\\lvgl\\src/extra/layouts/flex/lv_flex.h"
 1694              		.file 37 "d:\\kzc\\stm32\\h743ii_lcd\\lvgl\\src/extra/widgets/imgbtn/lv_imgbtn.h"
 1695              		.file 38 "lvgl/src/extra/widgets/tabview/lv_tabview.h"
 1696              		.file 39 "d:\\kzc\\stm32\\h743ii_lcd\\lvgl\\src\\core\\lv_obj_pos.h"
 1697              		.file 40 "d:\\kzc\\stm32\\h743ii_lcd\\lvgl\\src/core/lv_indev.h"
 1698              		.file 41 "d:\\kzc\\stm32\\h743ii_lcd\\lvgl\\src/core/lv_obj_tree.h"
 1699              		.file 42 "c:\\tools\\gcc-arm-none-eabi\\arm-none-eabi\\include\\string.h"
ARM GAS  C:\Users\OSD\AppData\Local\Temp\ccmEsMWN.s 			page 58

