ARM GAS  C:\Users\OSD\AppData\Local\Temp\ccPeQrbc.s 			page 1


   1              		.cpu cortex-m7
   2              		.arch armv7e-m
   3              		.fpu fpv5-d16
   4              		.eabi_attribute 28, 1
   5              		.eabi_attribute 20, 1
   6              		.eabi_attribute 21, 1
   7              		.eabi_attribute 23, 3
   8              		.eabi_attribute 24, 1
   9              		.eabi_attribute 25, 1
  10              		.eabi_attribute 26, 1
  11              		.eabi_attribute 30, 1
  12              		.eabi_attribute 34, 1
  13              		.eabi_attribute 18, 4
  14              		.file	"lv_utils.c"
  15              		.text
  16              	.Ltext0:
  17              		.cfi_sections	.debug_frame
  18              		.section	.text._lv_utils_bsearch,"ax",%progbits
  19              		.align	1
  20              		.global	_lv_utils_bsearch
  21              		.syntax unified
  22              		.thumb
  23              		.thumb_func
  25              	_lv_utils_bsearch:
  26              	.LVL0:
  27              	.LFB0:
  28              		.file 1 "lvgl/src/misc/lv_utils.c"
   1:lvgl/src/misc/lv_utils.c **** /**
   2:lvgl/src/misc/lv_utils.c ****  * @file lv_utils.c
   3:lvgl/src/misc/lv_utils.c ****  *
   4:lvgl/src/misc/lv_utils.c ****  */
   5:lvgl/src/misc/lv_utils.c **** 
   6:lvgl/src/misc/lv_utils.c **** /*********************
   7:lvgl/src/misc/lv_utils.c ****  *      INCLUDES
   8:lvgl/src/misc/lv_utils.c ****  *********************/
   9:lvgl/src/misc/lv_utils.c **** #include <stddef.h>
  10:lvgl/src/misc/lv_utils.c **** 
  11:lvgl/src/misc/lv_utils.c **** #include "lv_utils.h"
  12:lvgl/src/misc/lv_utils.c **** 
  13:lvgl/src/misc/lv_utils.c **** /*********************
  14:lvgl/src/misc/lv_utils.c ****  *      DEFINES
  15:lvgl/src/misc/lv_utils.c ****  *********************/
  16:lvgl/src/misc/lv_utils.c **** 
  17:lvgl/src/misc/lv_utils.c **** /**********************
  18:lvgl/src/misc/lv_utils.c ****  *      TYPEDEFS
  19:lvgl/src/misc/lv_utils.c ****  **********************/
  20:lvgl/src/misc/lv_utils.c **** 
  21:lvgl/src/misc/lv_utils.c **** /**********************
  22:lvgl/src/misc/lv_utils.c ****  *  STATIC PROTOTYPES
  23:lvgl/src/misc/lv_utils.c ****  **********************/
  24:lvgl/src/misc/lv_utils.c **** 
  25:lvgl/src/misc/lv_utils.c **** /**********************
  26:lvgl/src/misc/lv_utils.c ****  *  STATIC VARIABLES
  27:lvgl/src/misc/lv_utils.c ****  **********************/
  28:lvgl/src/misc/lv_utils.c **** 
  29:lvgl/src/misc/lv_utils.c **** /**********************
  30:lvgl/src/misc/lv_utils.c ****  *      MACROS
ARM GAS  C:\Users\OSD\AppData\Local\Temp\ccPeQrbc.s 			page 2


  31:lvgl/src/misc/lv_utils.c ****  **********************/
  32:lvgl/src/misc/lv_utils.c **** 
  33:lvgl/src/misc/lv_utils.c **** /**********************
  34:lvgl/src/misc/lv_utils.c ****  *   GLOBAL FUNCTIONS
  35:lvgl/src/misc/lv_utils.c ****  **********************/
  36:lvgl/src/misc/lv_utils.c **** 
  37:lvgl/src/misc/lv_utils.c **** /** Searches base[0] to base[n - 1] for an item that matches *key.
  38:lvgl/src/misc/lv_utils.c ****  *
  39:lvgl/src/misc/lv_utils.c ****  * @note The function cmp must return negative if its first
  40:lvgl/src/misc/lv_utils.c ****  *  argument (the search key) is less than its second (a table entry),
  41:lvgl/src/misc/lv_utils.c ****  *  zero if equal, and positive if greater.
  42:lvgl/src/misc/lv_utils.c ****  *
  43:lvgl/src/misc/lv_utils.c ****  *  @note Items in the array must be in ascending order.
  44:lvgl/src/misc/lv_utils.c ****  *
  45:lvgl/src/misc/lv_utils.c ****  * @param key    Pointer to item being searched for
  46:lvgl/src/misc/lv_utils.c ****  * @param base   Pointer to first element to search
  47:lvgl/src/misc/lv_utils.c ****  * @param n      Number of elements
  48:lvgl/src/misc/lv_utils.c ****  * @param size   Size of each element
  49:lvgl/src/misc/lv_utils.c ****  * @param cmp    Pointer to comparison function (see #unicode_list_compare as a comparison function
  50:lvgl/src/misc/lv_utils.c ****  * example)
  51:lvgl/src/misc/lv_utils.c ****  *
  52:lvgl/src/misc/lv_utils.c ****  * @return a pointer to a matching item, or NULL if none exists.
  53:lvgl/src/misc/lv_utils.c ****  */
  54:lvgl/src/misc/lv_utils.c **** void * _lv_utils_bsearch(const void * key, const void * base, uint32_t n, uint32_t size,
  55:lvgl/src/misc/lv_utils.c ****                          int32_t (*cmp)(const void * pRef, const void * pElement))
  56:lvgl/src/misc/lv_utils.c **** {
  29              		.loc 1 56 1 view -0
  30              		.cfi_startproc
  31              		@ args = 4, pretend = 0, frame = 0
  32              		@ frame_needed = 0, uses_anonymous_args = 0
  33              		.loc 1 56 1 is_stmt 0 view .LVU1
  34 0000 2DE9F047 		push	{r4, r5, r6, r7, r8, r9, r10, lr}
  35              		.cfi_def_cfa_offset 32
  36              		.cfi_offset 4, -32
  37              		.cfi_offset 5, -28
  38              		.cfi_offset 6, -24
  39              		.cfi_offset 7, -20
  40              		.cfi_offset 8, -16
  41              		.cfi_offset 9, -12
  42              		.cfi_offset 10, -8
  43              		.cfi_offset 14, -4
  44 0004 8146     		mov	r9, r0
  45 0006 8846     		mov	r8, r1
  46 0008 1446     		mov	r4, r2
  47 000a 1F46     		mov	r7, r3
  48 000c DDF820A0 		ldr	r10, [sp, #32]
  57:lvgl/src/misc/lv_utils.c ****     const char * middle;
  49              		.loc 1 57 5 is_stmt 1 view .LVU2
  58:lvgl/src/misc/lv_utils.c ****     int32_t c;
  50              		.loc 1 58 5 view .LVU3
  59:lvgl/src/misc/lv_utils.c **** 
  60:lvgl/src/misc/lv_utils.c ****     for(middle = base; n != 0;) {
  51              		.loc 1 60 5 view .LVU4
  52              	.LVL1:
  53              		.loc 1 60 5 is_stmt 0 view .LVU5
  54 0010 07E0     		b	.L2
  55              	.LVL2:
ARM GAS  C:\Users\OSD\AppData\Local\Temp\ccPeQrbc.s 			page 3


  56              	.L9:
  61:lvgl/src/misc/lv_utils.c ****         middle += (n / 2) * size;
  62:lvgl/src/misc/lv_utils.c ****         if((c = (*cmp)(key, middle)) > 0) {
  63:lvgl/src/misc/lv_utils.c ****             n    = (n / 2) - ((n & 1) == 0);
  57              		.loc 1 63 13 is_stmt 1 view .LVU6
  58              		.loc 1 63 39 is_stmt 0 view .LVU7
  59 0012 14F0010F 		tst	r4, #1
  60 0016 0CBF     		ite	eq
  61 0018 0124     		moveq	r4, #1
  62              	.LVL3:
  63              		.loc 1 63 39 view .LVU8
  64 001a 0024     		movne	r4, #0
  65              		.loc 1 63 18 view .LVU9
  66 001c 2C1B     		subs	r4, r5, r4
  67              	.LVL4:
  64:lvgl/src/misc/lv_utils.c ****             base = (middle += size);
  68              		.loc 1 64 13 is_stmt 1 view .LVU10
  69              		.loc 1 64 28 is_stmt 0 view .LVU11
  70 001e 06EB0708 		add	r8, r6, r7
  71              	.LVL5:
  72              	.L2:
  60:lvgl/src/misc/lv_utils.c ****         middle += (n / 2) * size;
  73              		.loc 1 60 24 is_stmt 1 discriminator 1 view .LVU12
  60:lvgl/src/misc/lv_utils.c ****         middle += (n / 2) * size;
  74              		.loc 1 60 5 is_stmt 0 discriminator 1 view .LVU13
  75 0022 5CB1     		cbz	r4, .L8
  61:lvgl/src/misc/lv_utils.c ****         middle += (n / 2) * size;
  76              		.loc 1 61 9 is_stmt 1 view .LVU14
  61:lvgl/src/misc/lv_utils.c ****         middle += (n / 2) * size;
  77              		.loc 1 61 22 is_stmt 0 view .LVU15
  78 0024 6508     		lsrs	r5, r4, #1
  61:lvgl/src/misc/lv_utils.c ****         middle += (n / 2) * size;
  79              		.loc 1 61 16 view .LVU16
  80 0026 07FB0586 		mla	r6, r7, r5, r8
  81              	.LVL6:
  62:lvgl/src/misc/lv_utils.c ****             n    = (n / 2) - ((n & 1) == 0);
  82              		.loc 1 62 9 is_stmt 1 view .LVU17
  62:lvgl/src/misc/lv_utils.c ****             n    = (n / 2) - ((n & 1) == 0);
  83              		.loc 1 62 18 is_stmt 0 view .LVU18
  84 002a 3146     		mov	r1, r6
  85 002c 4846     		mov	r0, r9
  86 002e D047     		blx	r10
  87              	.LVL7:
  62:lvgl/src/misc/lv_utils.c ****             n    = (n / 2) - ((n & 1) == 0);
  88              		.loc 1 62 11 view .LVU19
  89 0030 0028     		cmp	r0, #0
  62:lvgl/src/misc/lv_utils.c ****             n    = (n / 2) - ((n & 1) == 0);
  90              		.loc 1 62 11 view .LVU20
  91 0032 EEDC     		bgt	.L9
  65:lvgl/src/misc/lv_utils.c ****         }
  66:lvgl/src/misc/lv_utils.c ****         else if(c < 0) {
  92              		.loc 1 66 14 is_stmt 1 view .LVU21
  93              		.loc 1 66 16 is_stmt 0 view .LVU22
  94 0034 0028     		cmp	r0, #0
  95 0036 02DA     		bge	.L1
  67:lvgl/src/misc/lv_utils.c ****             n /= 2;
  96              		.loc 1 67 15 view .LVU23
ARM GAS  C:\Users\OSD\AppData\Local\Temp\ccPeQrbc.s 			page 4


  97 0038 2C46     		mov	r4, r5
  98              	.LVL8:
  99              		.loc 1 67 15 view .LVU24
 100 003a F2E7     		b	.L2
 101              	.LVL9:
 102              	.L8:
  68:lvgl/src/misc/lv_utils.c ****             middle = base;
  69:lvgl/src/misc/lv_utils.c ****         }
  70:lvgl/src/misc/lv_utils.c ****         else {
  71:lvgl/src/misc/lv_utils.c ****             return (char *)middle;
  72:lvgl/src/misc/lv_utils.c ****         }
  73:lvgl/src/misc/lv_utils.c ****     }
  74:lvgl/src/misc/lv_utils.c ****     return NULL;
 103              		.loc 1 74 12 view .LVU25
 104 003c 0026     		movs	r6, #0
 105              	.LVL10:
 106              	.L1:
  75:lvgl/src/misc/lv_utils.c **** }
 107              		.loc 1 75 1 view .LVU26
 108 003e 3046     		mov	r0, r6
 109 0040 BDE8F087 		pop	{r4, r5, r6, r7, r8, r9, r10, pc}
 110              		.loc 1 75 1 view .LVU27
 111              		.cfi_endproc
 112              	.LFE0:
 114              		.text
 115              	.Letext0:
 116              		.file 2 "c:\\tools\\gcc-arm-none-eabi\\arm-none-eabi\\include\\machine\\_default_types.h"
 117              		.file 3 "c:\\tools\\gcc-arm-none-eabi\\arm-none-eabi\\include\\sys\\_stdint.h"
ARM GAS  C:\Users\OSD\AppData\Local\Temp\ccPeQrbc.s 			page 5

