ARM GAS  C:\Users\OSD\AppData\Local\Temp\ccdj6AO6.s 			page 1


   1              		.cpu cortex-m7
   2              		.arch armv7e-m
   3              		.fpu fpv5-d16
   4              		.eabi_attribute 28, 1
   5              		.eabi_attribute 20, 1
   6              		.eabi_attribute 21, 1
   7              		.eabi_attribute 23, 3
   8              		.eabi_attribute 24, 1
   9              		.eabi_attribute 25, 1
  10              		.eabi_attribute 26, 1
  11              		.eabi_attribute 30, 1
  12              		.eabi_attribute 34, 1
  13              		.eabi_attribute 18, 4
  14              		.file	"stm32h7xx_hal.c"
  15              		.text
  16              	.Ltext0:
  17              		.cfi_sections	.debug_frame
  18              		.section	.text.HAL_MspInit,"ax",%progbits
  19              		.align	1
  20              		.weak	HAL_MspInit
  21              		.syntax unified
  22              		.thumb
  23              		.thumb_func
  25              	HAL_MspInit:
  26              	.LFB146:
  27              		.file 1 "Drivers/STM32H7xx_HAL_Driver/Src/stm32h7xx_hal.c"
   1:Drivers/STM32H7xx_HAL_Driver/Src/stm32h7xx_hal.c **** /**
   2:Drivers/STM32H7xx_HAL_Driver/Src/stm32h7xx_hal.c ****   ******************************************************************************
   3:Drivers/STM32H7xx_HAL_Driver/Src/stm32h7xx_hal.c ****   * @file    stm32h7xx_hal.c
   4:Drivers/STM32H7xx_HAL_Driver/Src/stm32h7xx_hal.c ****   * @author  MCD Application Team
   5:Drivers/STM32H7xx_HAL_Driver/Src/stm32h7xx_hal.c ****   * @brief   HAL module driver.
   6:Drivers/STM32H7xx_HAL_Driver/Src/stm32h7xx_hal.c ****   *          This is the common part of the HAL initialization
   7:Drivers/STM32H7xx_HAL_Driver/Src/stm32h7xx_hal.c ****   *
   8:Drivers/STM32H7xx_HAL_Driver/Src/stm32h7xx_hal.c ****   ******************************************************************************
   9:Drivers/STM32H7xx_HAL_Driver/Src/stm32h7xx_hal.c ****   * @attention
  10:Drivers/STM32H7xx_HAL_Driver/Src/stm32h7xx_hal.c ****   *
  11:Drivers/STM32H7xx_HAL_Driver/Src/stm32h7xx_hal.c ****   * Copyright (c) 2017 STMicroelectronics.
  12:Drivers/STM32H7xx_HAL_Driver/Src/stm32h7xx_hal.c ****   * All rights reserved.
  13:Drivers/STM32H7xx_HAL_Driver/Src/stm32h7xx_hal.c ****   *
  14:Drivers/STM32H7xx_HAL_Driver/Src/stm32h7xx_hal.c ****   * This software is licensed under terms that can be found in the LICENSE file
  15:Drivers/STM32H7xx_HAL_Driver/Src/stm32h7xx_hal.c ****   * in the root directory of this software component.
  16:Drivers/STM32H7xx_HAL_Driver/Src/stm32h7xx_hal.c ****   * If no LICENSE file comes with this software, it is provided AS-IS.
  17:Drivers/STM32H7xx_HAL_Driver/Src/stm32h7xx_hal.c ****   *
  18:Drivers/STM32H7xx_HAL_Driver/Src/stm32h7xx_hal.c ****   ******************************************************************************
  19:Drivers/STM32H7xx_HAL_Driver/Src/stm32h7xx_hal.c ****   @verbatim
  20:Drivers/STM32H7xx_HAL_Driver/Src/stm32h7xx_hal.c ****   ==============================================================================
  21:Drivers/STM32H7xx_HAL_Driver/Src/stm32h7xx_hal.c ****                      ##### How to use this driver #####
  22:Drivers/STM32H7xx_HAL_Driver/Src/stm32h7xx_hal.c ****   ==============================================================================
  23:Drivers/STM32H7xx_HAL_Driver/Src/stm32h7xx_hal.c ****     [..]
  24:Drivers/STM32H7xx_HAL_Driver/Src/stm32h7xx_hal.c ****     The common HAL driver contains a set of generic and common APIs that can be
  25:Drivers/STM32H7xx_HAL_Driver/Src/stm32h7xx_hal.c ****     used by the PPP peripheral drivers and the user to start using the HAL.
  26:Drivers/STM32H7xx_HAL_Driver/Src/stm32h7xx_hal.c ****     [..]
  27:Drivers/STM32H7xx_HAL_Driver/Src/stm32h7xx_hal.c ****     The HAL contains two APIs' categories:
  28:Drivers/STM32H7xx_HAL_Driver/Src/stm32h7xx_hal.c ****          (+) Common HAL APIs
  29:Drivers/STM32H7xx_HAL_Driver/Src/stm32h7xx_hal.c ****          (+) Services HAL APIs
  30:Drivers/STM32H7xx_HAL_Driver/Src/stm32h7xx_hal.c **** 
  31:Drivers/STM32H7xx_HAL_Driver/Src/stm32h7xx_hal.c ****   @endverbatim
ARM GAS  C:\Users\OSD\AppData\Local\Temp\ccdj6AO6.s 			page 2


  32:Drivers/STM32H7xx_HAL_Driver/Src/stm32h7xx_hal.c ****   ******************************************************************************
  33:Drivers/STM32H7xx_HAL_Driver/Src/stm32h7xx_hal.c ****   */
  34:Drivers/STM32H7xx_HAL_Driver/Src/stm32h7xx_hal.c **** 
  35:Drivers/STM32H7xx_HAL_Driver/Src/stm32h7xx_hal.c **** /* Includes ------------------------------------------------------------------*/
  36:Drivers/STM32H7xx_HAL_Driver/Src/stm32h7xx_hal.c **** #include "stm32h7xx_hal.h"
  37:Drivers/STM32H7xx_HAL_Driver/Src/stm32h7xx_hal.c **** 
  38:Drivers/STM32H7xx_HAL_Driver/Src/stm32h7xx_hal.c **** /** @addtogroup STM32H7xx_HAL_Driver
  39:Drivers/STM32H7xx_HAL_Driver/Src/stm32h7xx_hal.c ****   * @{
  40:Drivers/STM32H7xx_HAL_Driver/Src/stm32h7xx_hal.c ****   */
  41:Drivers/STM32H7xx_HAL_Driver/Src/stm32h7xx_hal.c **** 
  42:Drivers/STM32H7xx_HAL_Driver/Src/stm32h7xx_hal.c **** /** @defgroup HAL  HAL
  43:Drivers/STM32H7xx_HAL_Driver/Src/stm32h7xx_hal.c ****   * @brief HAL module driver.
  44:Drivers/STM32H7xx_HAL_Driver/Src/stm32h7xx_hal.c ****   * @{
  45:Drivers/STM32H7xx_HAL_Driver/Src/stm32h7xx_hal.c ****   */
  46:Drivers/STM32H7xx_HAL_Driver/Src/stm32h7xx_hal.c **** 
  47:Drivers/STM32H7xx_HAL_Driver/Src/stm32h7xx_hal.c **** /* Private typedef -----------------------------------------------------------*/
  48:Drivers/STM32H7xx_HAL_Driver/Src/stm32h7xx_hal.c **** /* Private define ------------------------------------------------------------*/
  49:Drivers/STM32H7xx_HAL_Driver/Src/stm32h7xx_hal.c **** /**
  50:Drivers/STM32H7xx_HAL_Driver/Src/stm32h7xx_hal.c ****  * @brief STM32H7xx HAL Driver version number V1.11.1
  51:Drivers/STM32H7xx_HAL_Driver/Src/stm32h7xx_hal.c ****    */
  52:Drivers/STM32H7xx_HAL_Driver/Src/stm32h7xx_hal.c **** #define __STM32H7xx_HAL_VERSION_MAIN   (0x01UL) /*!< [31:24] main version */
  53:Drivers/STM32H7xx_HAL_Driver/Src/stm32h7xx_hal.c **** #define __STM32H7xx_HAL_VERSION_SUB1   (0x0BUL) /*!< [23:16] sub1 version */
  54:Drivers/STM32H7xx_HAL_Driver/Src/stm32h7xx_hal.c **** #define __STM32H7xx_HAL_VERSION_SUB2   (0x01UL) /*!< [15:8]  sub2 version */
  55:Drivers/STM32H7xx_HAL_Driver/Src/stm32h7xx_hal.c **** #define __STM32H7xx_HAL_VERSION_RC     (0x00UL) /*!< [7:0]  release candidate */
  56:Drivers/STM32H7xx_HAL_Driver/Src/stm32h7xx_hal.c **** #define __STM32H7xx_HAL_VERSION         ((__STM32H7xx_HAL_VERSION_MAIN << 24)\
  57:Drivers/STM32H7xx_HAL_Driver/Src/stm32h7xx_hal.c ****                                         |(__STM32H7xx_HAL_VERSION_SUB1 << 16)\
  58:Drivers/STM32H7xx_HAL_Driver/Src/stm32h7xx_hal.c ****                                         |(__STM32H7xx_HAL_VERSION_SUB2 << 8 )\
  59:Drivers/STM32H7xx_HAL_Driver/Src/stm32h7xx_hal.c ****                                         |(__STM32H7xx_HAL_VERSION_RC))
  60:Drivers/STM32H7xx_HAL_Driver/Src/stm32h7xx_hal.c **** 
  61:Drivers/STM32H7xx_HAL_Driver/Src/stm32h7xx_hal.c **** #define IDCODE_DEVID_MASK    ((uint32_t)0x00000FFF)
  62:Drivers/STM32H7xx_HAL_Driver/Src/stm32h7xx_hal.c **** #define VREFBUF_TIMEOUT_VALUE     (uint32_t)10   /* 10 ms  */
  63:Drivers/STM32H7xx_HAL_Driver/Src/stm32h7xx_hal.c **** 
  64:Drivers/STM32H7xx_HAL_Driver/Src/stm32h7xx_hal.c **** /* Private macro -------------------------------------------------------------*/
  65:Drivers/STM32H7xx_HAL_Driver/Src/stm32h7xx_hal.c **** /* Private variables ---------------------------------------------------------*/
  66:Drivers/STM32H7xx_HAL_Driver/Src/stm32h7xx_hal.c **** /* Exported variables --------------------------------------------------------*/
  67:Drivers/STM32H7xx_HAL_Driver/Src/stm32h7xx_hal.c **** 
  68:Drivers/STM32H7xx_HAL_Driver/Src/stm32h7xx_hal.c **** /** @defgroup HAL_Exported_Variables HAL Exported Variables
  69:Drivers/STM32H7xx_HAL_Driver/Src/stm32h7xx_hal.c ****   * @{
  70:Drivers/STM32H7xx_HAL_Driver/Src/stm32h7xx_hal.c ****   */
  71:Drivers/STM32H7xx_HAL_Driver/Src/stm32h7xx_hal.c **** __IO uint32_t uwTick;
  72:Drivers/STM32H7xx_HAL_Driver/Src/stm32h7xx_hal.c **** uint32_t uwTickPrio   = (1UL << __NVIC_PRIO_BITS); /* Invalid PRIO */
  73:Drivers/STM32H7xx_HAL_Driver/Src/stm32h7xx_hal.c **** HAL_TickFreqTypeDef uwTickFreq = HAL_TICK_FREQ_DEFAULT;  /* 1KHz */
  74:Drivers/STM32H7xx_HAL_Driver/Src/stm32h7xx_hal.c **** /**
  75:Drivers/STM32H7xx_HAL_Driver/Src/stm32h7xx_hal.c ****   * @}
  76:Drivers/STM32H7xx_HAL_Driver/Src/stm32h7xx_hal.c ****   */
  77:Drivers/STM32H7xx_HAL_Driver/Src/stm32h7xx_hal.c **** 
  78:Drivers/STM32H7xx_HAL_Driver/Src/stm32h7xx_hal.c **** /* Private function prototypes -----------------------------------------------*/
  79:Drivers/STM32H7xx_HAL_Driver/Src/stm32h7xx_hal.c **** /* Private functions ---------------------------------------------------------*/
  80:Drivers/STM32H7xx_HAL_Driver/Src/stm32h7xx_hal.c **** 
  81:Drivers/STM32H7xx_HAL_Driver/Src/stm32h7xx_hal.c **** /** @addtogroup HAL_Exported_Functions
  82:Drivers/STM32H7xx_HAL_Driver/Src/stm32h7xx_hal.c ****   * @{
  83:Drivers/STM32H7xx_HAL_Driver/Src/stm32h7xx_hal.c ****   */
  84:Drivers/STM32H7xx_HAL_Driver/Src/stm32h7xx_hal.c **** 
  85:Drivers/STM32H7xx_HAL_Driver/Src/stm32h7xx_hal.c **** /** @addtogroup HAL_Group1
  86:Drivers/STM32H7xx_HAL_Driver/Src/stm32h7xx_hal.c ****  *  @brief    Initialization and de-initialization functions
  87:Drivers/STM32H7xx_HAL_Driver/Src/stm32h7xx_hal.c ****  *
  88:Drivers/STM32H7xx_HAL_Driver/Src/stm32h7xx_hal.c **** @verbatim
ARM GAS  C:\Users\OSD\AppData\Local\Temp\ccdj6AO6.s 			page 3


  89:Drivers/STM32H7xx_HAL_Driver/Src/stm32h7xx_hal.c ****  ===============================================================================
  90:Drivers/STM32H7xx_HAL_Driver/Src/stm32h7xx_hal.c ****               ##### Initialization and de-initialization functions #####
  91:Drivers/STM32H7xx_HAL_Driver/Src/stm32h7xx_hal.c ****  ===============================================================================
  92:Drivers/STM32H7xx_HAL_Driver/Src/stm32h7xx_hal.c ****     [..]  This section provides functions allowing to:
  93:Drivers/STM32H7xx_HAL_Driver/Src/stm32h7xx_hal.c ****       (+) Initializes the Flash interface the NVIC allocation and initial clock
  94:Drivers/STM32H7xx_HAL_Driver/Src/stm32h7xx_hal.c ****           configuration. It initializes the systick also when timeout is needed
  95:Drivers/STM32H7xx_HAL_Driver/Src/stm32h7xx_hal.c ****           and the backup domain when enabled.
  96:Drivers/STM32H7xx_HAL_Driver/Src/stm32h7xx_hal.c ****       (+) De-Initializes common part of the HAL.
  97:Drivers/STM32H7xx_HAL_Driver/Src/stm32h7xx_hal.c ****       (+) Configure The time base source to have 1ms time base with a dedicated
  98:Drivers/STM32H7xx_HAL_Driver/Src/stm32h7xx_hal.c ****           Tick interrupt priority.
  99:Drivers/STM32H7xx_HAL_Driver/Src/stm32h7xx_hal.c ****         (++) SysTick timer is used by default as source of time base, but user
 100:Drivers/STM32H7xx_HAL_Driver/Src/stm32h7xx_hal.c ****              can eventually implement his proper time base source (a general purpose
 101:Drivers/STM32H7xx_HAL_Driver/Src/stm32h7xx_hal.c ****              timer for example or other time source), keeping in mind that Time base
 102:Drivers/STM32H7xx_HAL_Driver/Src/stm32h7xx_hal.c ****              duration should be kept 1ms since PPP_TIMEOUT_VALUEs are defined and
 103:Drivers/STM32H7xx_HAL_Driver/Src/stm32h7xx_hal.c ****              handled in milliseconds basis.
 104:Drivers/STM32H7xx_HAL_Driver/Src/stm32h7xx_hal.c ****         (++) Time base configuration function (HAL_InitTick ()) is called automatically
 105:Drivers/STM32H7xx_HAL_Driver/Src/stm32h7xx_hal.c ****              at the beginning of the program after reset by HAL_Init() or at any time
 106:Drivers/STM32H7xx_HAL_Driver/Src/stm32h7xx_hal.c ****              when clock is configured, by HAL_RCC_ClockConfig().
 107:Drivers/STM32H7xx_HAL_Driver/Src/stm32h7xx_hal.c ****         (++) Source of time base is configured  to generate interrupts at regular
 108:Drivers/STM32H7xx_HAL_Driver/Src/stm32h7xx_hal.c ****              time intervals. Care must be taken if HAL_Delay() is called from a
 109:Drivers/STM32H7xx_HAL_Driver/Src/stm32h7xx_hal.c ****              peripheral ISR process, the Tick interrupt line must have higher priority
 110:Drivers/STM32H7xx_HAL_Driver/Src/stm32h7xx_hal.c ****             (numerically lower) than the peripheral interrupt. Otherwise the caller
 111:Drivers/STM32H7xx_HAL_Driver/Src/stm32h7xx_hal.c ****             ISR process will be blocked.
 112:Drivers/STM32H7xx_HAL_Driver/Src/stm32h7xx_hal.c ****        (++) functions affecting time base configurations are declared as __weak
 113:Drivers/STM32H7xx_HAL_Driver/Src/stm32h7xx_hal.c ****              to make  override possible  in case of other  implementations in user file.
 114:Drivers/STM32H7xx_HAL_Driver/Src/stm32h7xx_hal.c **** @endverbatim
 115:Drivers/STM32H7xx_HAL_Driver/Src/stm32h7xx_hal.c ****   * @{
 116:Drivers/STM32H7xx_HAL_Driver/Src/stm32h7xx_hal.c ****   */
 117:Drivers/STM32H7xx_HAL_Driver/Src/stm32h7xx_hal.c **** 
 118:Drivers/STM32H7xx_HAL_Driver/Src/stm32h7xx_hal.c **** /**
 119:Drivers/STM32H7xx_HAL_Driver/Src/stm32h7xx_hal.c ****   * @brief  This function is used to initialize the HAL Library; it must be the first
 120:Drivers/STM32H7xx_HAL_Driver/Src/stm32h7xx_hal.c ****   *         instruction to be executed in the main program (before to call any other
 121:Drivers/STM32H7xx_HAL_Driver/Src/stm32h7xx_hal.c ****   *         HAL function), it performs the following:
 122:Drivers/STM32H7xx_HAL_Driver/Src/stm32h7xx_hal.c ****   *           Configures the SysTick to generate an interrupt each 1 millisecond,
 123:Drivers/STM32H7xx_HAL_Driver/Src/stm32h7xx_hal.c ****   *           which is clocked by the HSI (at this stage, the clock is not yet
 124:Drivers/STM32H7xx_HAL_Driver/Src/stm32h7xx_hal.c ****   *           configured and thus the system is running from the internal HSI at 16 MHz).
 125:Drivers/STM32H7xx_HAL_Driver/Src/stm32h7xx_hal.c ****   *           Set NVIC Group Priority to 4.
 126:Drivers/STM32H7xx_HAL_Driver/Src/stm32h7xx_hal.c ****   *           Calls the HAL_MspInit() callback function defined in user file
 127:Drivers/STM32H7xx_HAL_Driver/Src/stm32h7xx_hal.c ****   *           "stm32h7xx_hal_msp.c" to do the global low level hardware initialization
 128:Drivers/STM32H7xx_HAL_Driver/Src/stm32h7xx_hal.c ****   *
 129:Drivers/STM32H7xx_HAL_Driver/Src/stm32h7xx_hal.c ****   * @note   SysTick is used as time base for the HAL_Delay() function, the application
 130:Drivers/STM32H7xx_HAL_Driver/Src/stm32h7xx_hal.c ****   *         need to ensure that the SysTick time base is always set to 1 millisecond
 131:Drivers/STM32H7xx_HAL_Driver/Src/stm32h7xx_hal.c ****   *         to have correct HAL operation.
 132:Drivers/STM32H7xx_HAL_Driver/Src/stm32h7xx_hal.c ****   * @retval HAL status
 133:Drivers/STM32H7xx_HAL_Driver/Src/stm32h7xx_hal.c ****   */
 134:Drivers/STM32H7xx_HAL_Driver/Src/stm32h7xx_hal.c **** HAL_StatusTypeDef HAL_Init(void)
 135:Drivers/STM32H7xx_HAL_Driver/Src/stm32h7xx_hal.c **** {
 136:Drivers/STM32H7xx_HAL_Driver/Src/stm32h7xx_hal.c **** 
 137:Drivers/STM32H7xx_HAL_Driver/Src/stm32h7xx_hal.c **** uint32_t common_system_clock;
 138:Drivers/STM32H7xx_HAL_Driver/Src/stm32h7xx_hal.c **** 
 139:Drivers/STM32H7xx_HAL_Driver/Src/stm32h7xx_hal.c **** #if defined(DUAL_CORE) && defined(CORE_CM4)
 140:Drivers/STM32H7xx_HAL_Driver/Src/stm32h7xx_hal.c ****    /* Configure Cortex-M4 Instruction cache through ART accelerator */
 141:Drivers/STM32H7xx_HAL_Driver/Src/stm32h7xx_hal.c ****    __HAL_RCC_ART_CLK_ENABLE();                   /* Enable the Cortex-M4 ART Clock */
 142:Drivers/STM32H7xx_HAL_Driver/Src/stm32h7xx_hal.c ****    __HAL_ART_CONFIG_BASE_ADDRESS(0x08100000UL);  /* Configure the Cortex-M4 ART Base address to the
 143:Drivers/STM32H7xx_HAL_Driver/Src/stm32h7xx_hal.c ****    __HAL_ART_ENABLE();                           /* Enable the Cortex-M4 ART */
 144:Drivers/STM32H7xx_HAL_Driver/Src/stm32h7xx_hal.c **** #endif /* DUAL_CORE &&  CORE_CM4 */
 145:Drivers/STM32H7xx_HAL_Driver/Src/stm32h7xx_hal.c **** 
ARM GAS  C:\Users\OSD\AppData\Local\Temp\ccdj6AO6.s 			page 4


 146:Drivers/STM32H7xx_HAL_Driver/Src/stm32h7xx_hal.c ****   /* Set Interrupt Group Priority */
 147:Drivers/STM32H7xx_HAL_Driver/Src/stm32h7xx_hal.c ****   HAL_NVIC_SetPriorityGrouping(NVIC_PRIORITYGROUP_4);
 148:Drivers/STM32H7xx_HAL_Driver/Src/stm32h7xx_hal.c **** 
 149:Drivers/STM32H7xx_HAL_Driver/Src/stm32h7xx_hal.c ****   /* Update the SystemCoreClock global variable */
 150:Drivers/STM32H7xx_HAL_Driver/Src/stm32h7xx_hal.c **** #if defined(RCC_D1CFGR_D1CPRE)
 151:Drivers/STM32H7xx_HAL_Driver/Src/stm32h7xx_hal.c ****   common_system_clock = HAL_RCC_GetSysClockFreq() >> ((D1CorePrescTable[(RCC->D1CFGR & RCC_D1CFGR_D
 152:Drivers/STM32H7xx_HAL_Driver/Src/stm32h7xx_hal.c **** #else
 153:Drivers/STM32H7xx_HAL_Driver/Src/stm32h7xx_hal.c ****   common_system_clock = HAL_RCC_GetSysClockFreq() >> ((D1CorePrescTable[(RCC->CDCFGR1 & RCC_CDCFGR1
 154:Drivers/STM32H7xx_HAL_Driver/Src/stm32h7xx_hal.c **** #endif
 155:Drivers/STM32H7xx_HAL_Driver/Src/stm32h7xx_hal.c **** 
 156:Drivers/STM32H7xx_HAL_Driver/Src/stm32h7xx_hal.c ****   /* Update the SystemD2Clock global variable */
 157:Drivers/STM32H7xx_HAL_Driver/Src/stm32h7xx_hal.c **** #if defined(RCC_D1CFGR_HPRE)
 158:Drivers/STM32H7xx_HAL_Driver/Src/stm32h7xx_hal.c ****   SystemD2Clock = (common_system_clock >> ((D1CorePrescTable[(RCC->D1CFGR & RCC_D1CFGR_HPRE)>> RCC_
 159:Drivers/STM32H7xx_HAL_Driver/Src/stm32h7xx_hal.c **** #else
 160:Drivers/STM32H7xx_HAL_Driver/Src/stm32h7xx_hal.c ****   SystemD2Clock = (common_system_clock >> ((D1CorePrescTable[(RCC->CDCFGR1 & RCC_CDCFGR1_HPRE)>> RC
 161:Drivers/STM32H7xx_HAL_Driver/Src/stm32h7xx_hal.c **** #endif
 162:Drivers/STM32H7xx_HAL_Driver/Src/stm32h7xx_hal.c **** 
 163:Drivers/STM32H7xx_HAL_Driver/Src/stm32h7xx_hal.c **** #if defined(DUAL_CORE) && defined(CORE_CM4)
 164:Drivers/STM32H7xx_HAL_Driver/Src/stm32h7xx_hal.c ****   SystemCoreClock = SystemD2Clock;
 165:Drivers/STM32H7xx_HAL_Driver/Src/stm32h7xx_hal.c **** #else
 166:Drivers/STM32H7xx_HAL_Driver/Src/stm32h7xx_hal.c ****   SystemCoreClock = common_system_clock;
 167:Drivers/STM32H7xx_HAL_Driver/Src/stm32h7xx_hal.c **** #endif /* DUAL_CORE && CORE_CM4 */
 168:Drivers/STM32H7xx_HAL_Driver/Src/stm32h7xx_hal.c **** 
 169:Drivers/STM32H7xx_HAL_Driver/Src/stm32h7xx_hal.c ****   /* Use systick as time base source and configure 1ms tick (default clock after Reset is HSI) */
 170:Drivers/STM32H7xx_HAL_Driver/Src/stm32h7xx_hal.c ****   if(HAL_InitTick(TICK_INT_PRIORITY) != HAL_OK)
 171:Drivers/STM32H7xx_HAL_Driver/Src/stm32h7xx_hal.c ****   {
 172:Drivers/STM32H7xx_HAL_Driver/Src/stm32h7xx_hal.c ****     return HAL_ERROR;
 173:Drivers/STM32H7xx_HAL_Driver/Src/stm32h7xx_hal.c ****   }
 174:Drivers/STM32H7xx_HAL_Driver/Src/stm32h7xx_hal.c **** 
 175:Drivers/STM32H7xx_HAL_Driver/Src/stm32h7xx_hal.c ****   /* Init the low level hardware */
 176:Drivers/STM32H7xx_HAL_Driver/Src/stm32h7xx_hal.c ****   HAL_MspInit();
 177:Drivers/STM32H7xx_HAL_Driver/Src/stm32h7xx_hal.c **** 
 178:Drivers/STM32H7xx_HAL_Driver/Src/stm32h7xx_hal.c ****   /* Return function status */
 179:Drivers/STM32H7xx_HAL_Driver/Src/stm32h7xx_hal.c ****   return HAL_OK;
 180:Drivers/STM32H7xx_HAL_Driver/Src/stm32h7xx_hal.c **** }
 181:Drivers/STM32H7xx_HAL_Driver/Src/stm32h7xx_hal.c **** 
 182:Drivers/STM32H7xx_HAL_Driver/Src/stm32h7xx_hal.c **** /**
 183:Drivers/STM32H7xx_HAL_Driver/Src/stm32h7xx_hal.c ****   * @brief  This function de-Initializes common part of the HAL and stops the systick.
 184:Drivers/STM32H7xx_HAL_Driver/Src/stm32h7xx_hal.c ****   *         This function is optional.
 185:Drivers/STM32H7xx_HAL_Driver/Src/stm32h7xx_hal.c ****   * @retval HAL status
 186:Drivers/STM32H7xx_HAL_Driver/Src/stm32h7xx_hal.c ****   */
 187:Drivers/STM32H7xx_HAL_Driver/Src/stm32h7xx_hal.c **** HAL_StatusTypeDef HAL_DeInit(void)
 188:Drivers/STM32H7xx_HAL_Driver/Src/stm32h7xx_hal.c **** {
 189:Drivers/STM32H7xx_HAL_Driver/Src/stm32h7xx_hal.c ****   /* Reset of all peripherals */
 190:Drivers/STM32H7xx_HAL_Driver/Src/stm32h7xx_hal.c ****   __HAL_RCC_AHB3_FORCE_RESET();
 191:Drivers/STM32H7xx_HAL_Driver/Src/stm32h7xx_hal.c ****   __HAL_RCC_AHB3_RELEASE_RESET();
 192:Drivers/STM32H7xx_HAL_Driver/Src/stm32h7xx_hal.c **** 
 193:Drivers/STM32H7xx_HAL_Driver/Src/stm32h7xx_hal.c ****   __HAL_RCC_AHB1_FORCE_RESET();
 194:Drivers/STM32H7xx_HAL_Driver/Src/stm32h7xx_hal.c ****   __HAL_RCC_AHB1_RELEASE_RESET();
 195:Drivers/STM32H7xx_HAL_Driver/Src/stm32h7xx_hal.c **** 
 196:Drivers/STM32H7xx_HAL_Driver/Src/stm32h7xx_hal.c ****   __HAL_RCC_AHB2_FORCE_RESET();
 197:Drivers/STM32H7xx_HAL_Driver/Src/stm32h7xx_hal.c ****   __HAL_RCC_AHB2_RELEASE_RESET();
 198:Drivers/STM32H7xx_HAL_Driver/Src/stm32h7xx_hal.c **** 
 199:Drivers/STM32H7xx_HAL_Driver/Src/stm32h7xx_hal.c ****   __HAL_RCC_AHB4_FORCE_RESET();
 200:Drivers/STM32H7xx_HAL_Driver/Src/stm32h7xx_hal.c ****  __HAL_RCC_AHB4_RELEASE_RESET();
 201:Drivers/STM32H7xx_HAL_Driver/Src/stm32h7xx_hal.c **** 
 202:Drivers/STM32H7xx_HAL_Driver/Src/stm32h7xx_hal.c ****   __HAL_RCC_APB3_FORCE_RESET();
ARM GAS  C:\Users\OSD\AppData\Local\Temp\ccdj6AO6.s 			page 5


 203:Drivers/STM32H7xx_HAL_Driver/Src/stm32h7xx_hal.c ****   __HAL_RCC_APB3_RELEASE_RESET();
 204:Drivers/STM32H7xx_HAL_Driver/Src/stm32h7xx_hal.c **** 
 205:Drivers/STM32H7xx_HAL_Driver/Src/stm32h7xx_hal.c ****   __HAL_RCC_APB1L_FORCE_RESET();
 206:Drivers/STM32H7xx_HAL_Driver/Src/stm32h7xx_hal.c ****   __HAL_RCC_APB1L_RELEASE_RESET();
 207:Drivers/STM32H7xx_HAL_Driver/Src/stm32h7xx_hal.c **** 
 208:Drivers/STM32H7xx_HAL_Driver/Src/stm32h7xx_hal.c ****   __HAL_RCC_APB1H_FORCE_RESET();
 209:Drivers/STM32H7xx_HAL_Driver/Src/stm32h7xx_hal.c ****   __HAL_RCC_APB1H_RELEASE_RESET();
 210:Drivers/STM32H7xx_HAL_Driver/Src/stm32h7xx_hal.c **** 
 211:Drivers/STM32H7xx_HAL_Driver/Src/stm32h7xx_hal.c ****    __HAL_RCC_APB2_FORCE_RESET();
 212:Drivers/STM32H7xx_HAL_Driver/Src/stm32h7xx_hal.c ****    __HAL_RCC_APB2_RELEASE_RESET();
 213:Drivers/STM32H7xx_HAL_Driver/Src/stm32h7xx_hal.c **** 
 214:Drivers/STM32H7xx_HAL_Driver/Src/stm32h7xx_hal.c ****   __HAL_RCC_APB4_FORCE_RESET();
 215:Drivers/STM32H7xx_HAL_Driver/Src/stm32h7xx_hal.c ****   __HAL_RCC_APB4_RELEASE_RESET();
 216:Drivers/STM32H7xx_HAL_Driver/Src/stm32h7xx_hal.c **** 
 217:Drivers/STM32H7xx_HAL_Driver/Src/stm32h7xx_hal.c ****   /* De-Init the low level hardware */
 218:Drivers/STM32H7xx_HAL_Driver/Src/stm32h7xx_hal.c ****   HAL_MspDeInit();
 219:Drivers/STM32H7xx_HAL_Driver/Src/stm32h7xx_hal.c **** 
 220:Drivers/STM32H7xx_HAL_Driver/Src/stm32h7xx_hal.c ****   /* Return function status */
 221:Drivers/STM32H7xx_HAL_Driver/Src/stm32h7xx_hal.c ****   return HAL_OK;
 222:Drivers/STM32H7xx_HAL_Driver/Src/stm32h7xx_hal.c **** }
 223:Drivers/STM32H7xx_HAL_Driver/Src/stm32h7xx_hal.c **** 
 224:Drivers/STM32H7xx_HAL_Driver/Src/stm32h7xx_hal.c **** /**
 225:Drivers/STM32H7xx_HAL_Driver/Src/stm32h7xx_hal.c ****   * @brief  Initializes the MSP.
 226:Drivers/STM32H7xx_HAL_Driver/Src/stm32h7xx_hal.c ****   * @retval None
 227:Drivers/STM32H7xx_HAL_Driver/Src/stm32h7xx_hal.c ****   */
 228:Drivers/STM32H7xx_HAL_Driver/Src/stm32h7xx_hal.c **** __weak void HAL_MspInit(void)
 229:Drivers/STM32H7xx_HAL_Driver/Src/stm32h7xx_hal.c **** {
  28              		.loc 1 229 1 view -0
  29              		.cfi_startproc
  30              		@ args = 0, pretend = 0, frame = 0
  31              		@ frame_needed = 0, uses_anonymous_args = 0
  32              		@ link register save eliminated.
 230:Drivers/STM32H7xx_HAL_Driver/Src/stm32h7xx_hal.c ****   /* NOTE : This function Should not be modified, when the callback is needed,
 231:Drivers/STM32H7xx_HAL_Driver/Src/stm32h7xx_hal.c ****             the HAL_MspInit could be implemented in the user file
 232:Drivers/STM32H7xx_HAL_Driver/Src/stm32h7xx_hal.c ****    */
 233:Drivers/STM32H7xx_HAL_Driver/Src/stm32h7xx_hal.c **** }
  33              		.loc 1 233 1 view .LVU1
  34 0000 7047     		bx	lr
  35              		.cfi_endproc
  36              	.LFE146:
  38              		.section	.text.HAL_MspDeInit,"ax",%progbits
  39              		.align	1
  40              		.weak	HAL_MspDeInit
  41              		.syntax unified
  42              		.thumb
  43              		.thumb_func
  45              	HAL_MspDeInit:
  46              	.LFB147:
 234:Drivers/STM32H7xx_HAL_Driver/Src/stm32h7xx_hal.c **** 
 235:Drivers/STM32H7xx_HAL_Driver/Src/stm32h7xx_hal.c **** /**
 236:Drivers/STM32H7xx_HAL_Driver/Src/stm32h7xx_hal.c ****   * @brief  DeInitializes the MSP.
 237:Drivers/STM32H7xx_HAL_Driver/Src/stm32h7xx_hal.c ****   * @retval None
 238:Drivers/STM32H7xx_HAL_Driver/Src/stm32h7xx_hal.c ****   */
 239:Drivers/STM32H7xx_HAL_Driver/Src/stm32h7xx_hal.c **** __weak void HAL_MspDeInit(void)
 240:Drivers/STM32H7xx_HAL_Driver/Src/stm32h7xx_hal.c **** {
  47              		.loc 1 240 1 view -0
  48              		.cfi_startproc
ARM GAS  C:\Users\OSD\AppData\Local\Temp\ccdj6AO6.s 			page 6


  49              		@ args = 0, pretend = 0, frame = 0
  50              		@ frame_needed = 0, uses_anonymous_args = 0
  51              		@ link register save eliminated.
 241:Drivers/STM32H7xx_HAL_Driver/Src/stm32h7xx_hal.c ****   /* NOTE : This function Should not be modified, when the callback is needed,
 242:Drivers/STM32H7xx_HAL_Driver/Src/stm32h7xx_hal.c ****             the HAL_MspDeInit could be implemented in the user file
 243:Drivers/STM32H7xx_HAL_Driver/Src/stm32h7xx_hal.c ****    */
 244:Drivers/STM32H7xx_HAL_Driver/Src/stm32h7xx_hal.c **** }
  52              		.loc 1 244 1 view .LVU3
  53 0000 7047     		bx	lr
  54              		.cfi_endproc
  55              	.LFE147:
  57              		.section	.text.HAL_DeInit,"ax",%progbits
  58              		.align	1
  59              		.global	HAL_DeInit
  60              		.syntax unified
  61              		.thumb
  62              		.thumb_func
  64              	HAL_DeInit:
  65              	.LFB145:
 188:Drivers/STM32H7xx_HAL_Driver/Src/stm32h7xx_hal.c ****   /* Reset of all peripherals */
  66              		.loc 1 188 1 view -0
  67              		.cfi_startproc
  68              		@ args = 0, pretend = 0, frame = 0
  69              		@ frame_needed = 0, uses_anonymous_args = 0
  70 0000 10B5     		push	{r4, lr}
  71              		.cfi_def_cfa_offset 8
  72              		.cfi_offset 4, -8
  73              		.cfi_offset 14, -4
 190:Drivers/STM32H7xx_HAL_Driver/Src/stm32h7xx_hal.c ****   __HAL_RCC_AHB3_RELEASE_RESET();
  74              		.loc 1 190 3 view .LVU5
  75 0002 194B     		ldr	r3, .L5
  76 0004 194A     		ldr	r2, .L5+4
  77 0006 DA67     		str	r2, [r3, #124]
 191:Drivers/STM32H7xx_HAL_Driver/Src/stm32h7xx_hal.c **** 
  78              		.loc 1 191 3 view .LVU6
  79 0008 0024     		movs	r4, #0
  80 000a DC67     		str	r4, [r3, #124]
 193:Drivers/STM32H7xx_HAL_Driver/Src/stm32h7xx_hal.c ****   __HAL_RCC_AHB1_RELEASE_RESET();
  81              		.loc 1 193 3 view .LVU7
  82 000c 184A     		ldr	r2, .L5+8
  83 000e C3F88020 		str	r2, [r3, #128]
 194:Drivers/STM32H7xx_HAL_Driver/Src/stm32h7xx_hal.c **** 
  84              		.loc 1 194 3 view .LVU8
  85 0012 C3F88040 		str	r4, [r3, #128]
 196:Drivers/STM32H7xx_HAL_Driver/Src/stm32h7xx_hal.c ****   __HAL_RCC_AHB2_RELEASE_RESET();
  86              		.loc 1 196 3 view .LVU9
  87 0016 40F27122 		movw	r2, #625
  88 001a C3F88420 		str	r2, [r3, #132]
 197:Drivers/STM32H7xx_HAL_Driver/Src/stm32h7xx_hal.c **** 
  89              		.loc 1 197 3 view .LVU10
  90 001e C3F88440 		str	r4, [r3, #132]
 199:Drivers/STM32H7xx_HAL_Driver/Src/stm32h7xx_hal.c ****  __HAL_RCC_AHB4_RELEASE_RESET();
  91              		.loc 1 199 3 view .LVU11
  92 0022 144A     		ldr	r2, .L5+12
  93 0024 C3F88820 		str	r2, [r3, #136]
 200:Drivers/STM32H7xx_HAL_Driver/Src/stm32h7xx_hal.c **** 
  94              		.loc 1 200 2 view .LVU12
ARM GAS  C:\Users\OSD\AppData\Local\Temp\ccdj6AO6.s 			page 7


  95 0028 C3F88840 		str	r4, [r3, #136]
 202:Drivers/STM32H7xx_HAL_Driver/Src/stm32h7xx_hal.c ****   __HAL_RCC_APB3_RELEASE_RESET();
  96              		.loc 1 202 3 view .LVU13
  97 002c 1822     		movs	r2, #24
  98 002e C3F88C20 		str	r2, [r3, #140]
 203:Drivers/STM32H7xx_HAL_Driver/Src/stm32h7xx_hal.c **** 
  99              		.loc 1 203 3 view .LVU14
 100 0032 C3F88C40 		str	r4, [r3, #140]
 205:Drivers/STM32H7xx_HAL_Driver/Src/stm32h7xx_hal.c ****   __HAL_RCC_APB1L_RELEASE_RESET();
 101              		.loc 1 205 3 view .LVU15
 102 0036 104A     		ldr	r2, .L5+16
 103 0038 C3F89020 		str	r2, [r3, #144]
 206:Drivers/STM32H7xx_HAL_Driver/Src/stm32h7xx_hal.c **** 
 104              		.loc 1 206 3 view .LVU16
 105 003c C3F89040 		str	r4, [r3, #144]
 208:Drivers/STM32H7xx_HAL_Driver/Src/stm32h7xx_hal.c ****   __HAL_RCC_APB1H_RELEASE_RESET();
 106              		.loc 1 208 3 view .LVU17
 107 0040 4FF49B72 		mov	r2, #310
 108 0044 C3F89420 		str	r2, [r3, #148]
 209:Drivers/STM32H7xx_HAL_Driver/Src/stm32h7xx_hal.c **** 
 109              		.loc 1 209 3 view .LVU18
 110 0048 C3F89440 		str	r4, [r3, #148]
 211:Drivers/STM32H7xx_HAL_Driver/Src/stm32h7xx_hal.c ****    __HAL_RCC_APB2_RELEASE_RESET();
 111              		.loc 1 211 4 view .LVU19
 112 004c 0B4A     		ldr	r2, .L5+20
 113 004e C3F89820 		str	r2, [r3, #152]
 212:Drivers/STM32H7xx_HAL_Driver/Src/stm32h7xx_hal.c **** 
 114              		.loc 1 212 4 view .LVU20
 115 0052 C3F89840 		str	r4, [r3, #152]
 214:Drivers/STM32H7xx_HAL_Driver/Src/stm32h7xx_hal.c ****   __HAL_RCC_APB4_RELEASE_RESET();
 116              		.loc 1 214 3 view .LVU21
 117 0056 0A4A     		ldr	r2, .L5+24
 118 0058 C3F89C20 		str	r2, [r3, #156]
 215:Drivers/STM32H7xx_HAL_Driver/Src/stm32h7xx_hal.c **** 
 119              		.loc 1 215 3 view .LVU22
 120 005c C3F89C40 		str	r4, [r3, #156]
 218:Drivers/STM32H7xx_HAL_Driver/Src/stm32h7xx_hal.c **** 
 121              		.loc 1 218 3 view .LVU23
 122 0060 FFF7FEFF 		bl	HAL_MspDeInit
 123              	.LVL0:
 221:Drivers/STM32H7xx_HAL_Driver/Src/stm32h7xx_hal.c **** }
 124              		.loc 1 221 3 view .LVU24
 222:Drivers/STM32H7xx_HAL_Driver/Src/stm32h7xx_hal.c **** 
 125              		.loc 1 222 1 is_stmt 0 view .LVU25
 126 0064 2046     		mov	r0, r4
 127 0066 10BD     		pop	{r4, pc}
 128              	.L6:
 129              		.align	2
 130              	.L5:
 131 0068 00440258 		.word	1476543488
 132 006c 31500100 		.word	86065
 133 0070 23C0000A 		.word	167821347
 134 0074 FF072803 		.word	52955135
 135 0078 FFC3FFE8 		.word	-385891329
 136 007c 3330D731 		.word	836186163
 137 0080 AADE2000 		.word	2154154
 138              		.cfi_endproc
ARM GAS  C:\Users\OSD\AppData\Local\Temp\ccdj6AO6.s 			page 8


 139              	.LFE145:
 141              		.section	.text.HAL_InitTick,"ax",%progbits
 142              		.align	1
 143              		.weak	HAL_InitTick
 144              		.syntax unified
 145              		.thumb
 146              		.thumb_func
 148              	HAL_InitTick:
 149              	.LVL1:
 150              	.LFB148:
 245:Drivers/STM32H7xx_HAL_Driver/Src/stm32h7xx_hal.c **** 
 246:Drivers/STM32H7xx_HAL_Driver/Src/stm32h7xx_hal.c **** /**
 247:Drivers/STM32H7xx_HAL_Driver/Src/stm32h7xx_hal.c ****   * @brief This function configures the source of the time base.
 248:Drivers/STM32H7xx_HAL_Driver/Src/stm32h7xx_hal.c ****   *        The time source is configured  to have 1ms time base with a dedicated
 249:Drivers/STM32H7xx_HAL_Driver/Src/stm32h7xx_hal.c ****   *        Tick interrupt priority.
 250:Drivers/STM32H7xx_HAL_Driver/Src/stm32h7xx_hal.c ****   * @note This function is called  automatically at the beginning of program after
 251:Drivers/STM32H7xx_HAL_Driver/Src/stm32h7xx_hal.c ****   *       reset by HAL_Init() or at any time when clock is reconfigured  by HAL_RCC_ClockConfig().
 252:Drivers/STM32H7xx_HAL_Driver/Src/stm32h7xx_hal.c ****   * @note In the default implementation, SysTick timer is the source of time base.
 253:Drivers/STM32H7xx_HAL_Driver/Src/stm32h7xx_hal.c ****   *       It is used to generate interrupts at regular time intervals.
 254:Drivers/STM32H7xx_HAL_Driver/Src/stm32h7xx_hal.c ****   *       Care must be taken if HAL_Delay() is called from a peripheral ISR process,
 255:Drivers/STM32H7xx_HAL_Driver/Src/stm32h7xx_hal.c ****   *       the SysTick interrupt must have higher priority (numerically lower)
 256:Drivers/STM32H7xx_HAL_Driver/Src/stm32h7xx_hal.c ****   *       than the peripheral interrupt. Otherwise the caller ISR process will be blocked.
 257:Drivers/STM32H7xx_HAL_Driver/Src/stm32h7xx_hal.c ****   *       The function is declared as __weak  to be overwritten  in case of other
 258:Drivers/STM32H7xx_HAL_Driver/Src/stm32h7xx_hal.c ****   *       implementation  in user file.
 259:Drivers/STM32H7xx_HAL_Driver/Src/stm32h7xx_hal.c ****   * @param TickPriority: Tick interrupt priority.
 260:Drivers/STM32H7xx_HAL_Driver/Src/stm32h7xx_hal.c ****   * @retval HAL status
 261:Drivers/STM32H7xx_HAL_Driver/Src/stm32h7xx_hal.c ****   */
 262:Drivers/STM32H7xx_HAL_Driver/Src/stm32h7xx_hal.c **** __weak HAL_StatusTypeDef HAL_InitTick(uint32_t TickPriority)
 263:Drivers/STM32H7xx_HAL_Driver/Src/stm32h7xx_hal.c **** {
 151              		.loc 1 263 1 is_stmt 1 view -0
 152              		.cfi_startproc
 153              		@ args = 0, pretend = 0, frame = 0
 154              		@ frame_needed = 0, uses_anonymous_args = 0
 264:Drivers/STM32H7xx_HAL_Driver/Src/stm32h7xx_hal.c ****   /* Check uwTickFreq for MisraC 2012 (even if uwTickFreq is a enum type that don't take the value 
 265:Drivers/STM32H7xx_HAL_Driver/Src/stm32h7xx_hal.c ****   if((uint32_t)uwTickFreq == 0UL)
 155              		.loc 1 265 3 view .LVU27
 156              		.loc 1 265 27 is_stmt 0 view .LVU28
 157 0000 104B     		ldr	r3, .L18
 158 0002 1B78     		ldrb	r3, [r3]	@ zero_extendqisi2
 159              		.loc 1 265 5 view .LVU29
 160 0004 0BB9     		cbnz	r3, .L16
 266:Drivers/STM32H7xx_HAL_Driver/Src/stm32h7xx_hal.c ****   {
 267:Drivers/STM32H7xx_HAL_Driver/Src/stm32h7xx_hal.c ****     return HAL_ERROR;
 161              		.loc 1 267 12 view .LVU30
 162 0006 0120     		movs	r0, #1
 163              	.LVL2:
 268:Drivers/STM32H7xx_HAL_Driver/Src/stm32h7xx_hal.c ****   }
 269:Drivers/STM32H7xx_HAL_Driver/Src/stm32h7xx_hal.c **** 
 270:Drivers/STM32H7xx_HAL_Driver/Src/stm32h7xx_hal.c ****     /* Configure the SysTick to have interrupt in 1ms time basis*/
 271:Drivers/STM32H7xx_HAL_Driver/Src/stm32h7xx_hal.c ****     if (HAL_SYSTICK_Config(SystemCoreClock / (1000UL / (uint32_t)uwTickFreq)) > 0U)
 272:Drivers/STM32H7xx_HAL_Driver/Src/stm32h7xx_hal.c ****     {
 273:Drivers/STM32H7xx_HAL_Driver/Src/stm32h7xx_hal.c ****       return HAL_ERROR;
 274:Drivers/STM32H7xx_HAL_Driver/Src/stm32h7xx_hal.c ****     }
 275:Drivers/STM32H7xx_HAL_Driver/Src/stm32h7xx_hal.c **** 
 276:Drivers/STM32H7xx_HAL_Driver/Src/stm32h7xx_hal.c ****   /* Configure the SysTick IRQ priority */
 277:Drivers/STM32H7xx_HAL_Driver/Src/stm32h7xx_hal.c ****   if (TickPriority < (1UL << __NVIC_PRIO_BITS))
 278:Drivers/STM32H7xx_HAL_Driver/Src/stm32h7xx_hal.c ****   {
ARM GAS  C:\Users\OSD\AppData\Local\Temp\ccdj6AO6.s 			page 9


 279:Drivers/STM32H7xx_HAL_Driver/Src/stm32h7xx_hal.c ****     HAL_NVIC_SetPriority(SysTick_IRQn, TickPriority, 0U);
 280:Drivers/STM32H7xx_HAL_Driver/Src/stm32h7xx_hal.c ****     uwTickPrio = TickPriority;
 281:Drivers/STM32H7xx_HAL_Driver/Src/stm32h7xx_hal.c ****   }
 282:Drivers/STM32H7xx_HAL_Driver/Src/stm32h7xx_hal.c ****   else
 283:Drivers/STM32H7xx_HAL_Driver/Src/stm32h7xx_hal.c ****   {
 284:Drivers/STM32H7xx_HAL_Driver/Src/stm32h7xx_hal.c ****     return HAL_ERROR;
 285:Drivers/STM32H7xx_HAL_Driver/Src/stm32h7xx_hal.c ****   }
 286:Drivers/STM32H7xx_HAL_Driver/Src/stm32h7xx_hal.c **** 
 287:Drivers/STM32H7xx_HAL_Driver/Src/stm32h7xx_hal.c ****   /* Return function status */
 288:Drivers/STM32H7xx_HAL_Driver/Src/stm32h7xx_hal.c ****   return HAL_OK;
 289:Drivers/STM32H7xx_HAL_Driver/Src/stm32h7xx_hal.c **** }
 164              		.loc 1 289 1 view .LVU31
 165 0008 7047     		bx	lr
 166              	.LVL3:
 167              	.L16:
 263:Drivers/STM32H7xx_HAL_Driver/Src/stm32h7xx_hal.c ****   /* Check uwTickFreq for MisraC 2012 (even if uwTickFreq is a enum type that don't take the value 
 168              		.loc 1 263 1 view .LVU32
 169 000a 10B5     		push	{r4, lr}
 170              		.cfi_def_cfa_offset 8
 171              		.cfi_offset 4, -8
 172              		.cfi_offset 14, -4
 173 000c 0446     		mov	r4, r0
 271:Drivers/STM32H7xx_HAL_Driver/Src/stm32h7xx_hal.c ****     {
 174              		.loc 1 271 5 is_stmt 1 view .LVU33
 271:Drivers/STM32H7xx_HAL_Driver/Src/stm32h7xx_hal.c ****     {
 175              		.loc 1 271 54 is_stmt 0 view .LVU34
 176 000e 4FF47A70 		mov	r0, #1000
 177              	.LVL4:
 271:Drivers/STM32H7xx_HAL_Driver/Src/stm32h7xx_hal.c ****     {
 178              		.loc 1 271 54 view .LVU35
 179 0012 B0FBF3F3 		udiv	r3, r0, r3
 271:Drivers/STM32H7xx_HAL_Driver/Src/stm32h7xx_hal.c ****     {
 180              		.loc 1 271 9 view .LVU36
 181 0016 0C4A     		ldr	r2, .L18+4
 182 0018 1068     		ldr	r0, [r2]
 183 001a B0FBF3F0 		udiv	r0, r0, r3
 184 001e FFF7FEFF 		bl	HAL_SYSTICK_Config
 185              	.LVL5:
 271:Drivers/STM32H7xx_HAL_Driver/Src/stm32h7xx_hal.c ****     {
 186              		.loc 1 271 8 view .LVU37
 187 0022 68B9     		cbnz	r0, .L10
 277:Drivers/STM32H7xx_HAL_Driver/Src/stm32h7xx_hal.c ****   {
 188              		.loc 1 277 3 is_stmt 1 view .LVU38
 277:Drivers/STM32H7xx_HAL_Driver/Src/stm32h7xx_hal.c ****   {
 189              		.loc 1 277 6 is_stmt 0 view .LVU39
 190 0024 0F2C     		cmp	r4, #15
 191 0026 01D9     		bls	.L17
 284:Drivers/STM32H7xx_HAL_Driver/Src/stm32h7xx_hal.c ****   }
 192              		.loc 1 284 12 view .LVU40
 193 0028 0120     		movs	r0, #1
 194 002a 0AE0     		b	.L8
 195              	.L17:
 279:Drivers/STM32H7xx_HAL_Driver/Src/stm32h7xx_hal.c ****     uwTickPrio = TickPriority;
 196              		.loc 1 279 5 is_stmt 1 view .LVU41
 197 002c 0022     		movs	r2, #0
 198 002e 2146     		mov	r1, r4
 199 0030 4FF0FF30 		mov	r0, #-1
ARM GAS  C:\Users\OSD\AppData\Local\Temp\ccdj6AO6.s 			page 10


 200 0034 FFF7FEFF 		bl	HAL_NVIC_SetPriority
 201              	.LVL6:
 280:Drivers/STM32H7xx_HAL_Driver/Src/stm32h7xx_hal.c ****   }
 202              		.loc 1 280 5 view .LVU42
 280:Drivers/STM32H7xx_HAL_Driver/Src/stm32h7xx_hal.c ****   }
 203              		.loc 1 280 16 is_stmt 0 view .LVU43
 204 0038 044B     		ldr	r3, .L18+8
 205 003a 1C60     		str	r4, [r3]
 288:Drivers/STM32H7xx_HAL_Driver/Src/stm32h7xx_hal.c **** }
 206              		.loc 1 288 3 is_stmt 1 view .LVU44
 288:Drivers/STM32H7xx_HAL_Driver/Src/stm32h7xx_hal.c **** }
 207              		.loc 1 288 10 is_stmt 0 view .LVU45
 208 003c 0020     		movs	r0, #0
 209 003e 00E0     		b	.L8
 210              	.L10:
 273:Drivers/STM32H7xx_HAL_Driver/Src/stm32h7xx_hal.c ****     }
 211              		.loc 1 273 14 view .LVU46
 212 0040 0120     		movs	r0, #1
 213              	.L8:
 214              		.loc 1 289 1 view .LVU47
 215 0042 10BD     		pop	{r4, pc}
 216              	.LVL7:
 217              	.L19:
 218              		.loc 1 289 1 view .LVU48
 219              		.align	2
 220              	.L18:
 221 0044 00000000 		.word	.LANCHOR0
 222 0048 00000000 		.word	SystemCoreClock
 223 004c 00000000 		.word	.LANCHOR1
 224              		.cfi_endproc
 225              	.LFE148:
 227              		.section	.text.HAL_Init,"ax",%progbits
 228              		.align	1
 229              		.global	HAL_Init
 230              		.syntax unified
 231              		.thumb
 232              		.thumb_func
 234              	HAL_Init:
 235              	.LFB144:
 135:Drivers/STM32H7xx_HAL_Driver/Src/stm32h7xx_hal.c **** 
 236              		.loc 1 135 1 is_stmt 1 view -0
 237              		.cfi_startproc
 238              		@ args = 0, pretend = 0, frame = 0
 239              		@ frame_needed = 0, uses_anonymous_args = 0
 240 0000 10B5     		push	{r4, lr}
 241              		.cfi_def_cfa_offset 8
 242              		.cfi_offset 4, -8
 243              		.cfi_offset 14, -4
 137:Drivers/STM32H7xx_HAL_Driver/Src/stm32h7xx_hal.c **** 
 244              		.loc 1 137 1 view .LVU50
 147:Drivers/STM32H7xx_HAL_Driver/Src/stm32h7xx_hal.c **** 
 245              		.loc 1 147 3 view .LVU51
 246 0002 0320     		movs	r0, #3
 247 0004 FFF7FEFF 		bl	HAL_NVIC_SetPriorityGrouping
 248              	.LVL8:
 151:Drivers/STM32H7xx_HAL_Driver/Src/stm32h7xx_hal.c **** #else
 249              		.loc 1 151 3 view .LVU52
ARM GAS  C:\Users\OSD\AppData\Local\Temp\ccdj6AO6.s 			page 11


 151:Drivers/STM32H7xx_HAL_Driver/Src/stm32h7xx_hal.c **** #else
 250              		.loc 1 151 25 is_stmt 0 view .LVU53
 251 0008 FFF7FEFF 		bl	HAL_RCC_GetSysClockFreq
 252              	.LVL9:
 151:Drivers/STM32H7xx_HAL_Driver/Src/stm32h7xx_hal.c **** #else
 253              		.loc 1 151 77 view .LVU54
 254 000c 0F49     		ldr	r1, .L25
 255 000e 8B69     		ldr	r3, [r1, #24]
 151:Drivers/STM32H7xx_HAL_Driver/Src/stm32h7xx_hal.c **** #else
 256              		.loc 1 151 106 view .LVU55
 257 0010 C3F30323 		ubfx	r3, r3, #8, #4
 151:Drivers/STM32H7xx_HAL_Driver/Src/stm32h7xx_hal.c **** #else
 258              		.loc 1 151 72 view .LVU56
 259 0014 0E4A     		ldr	r2, .L25+4
 260 0016 D35C     		ldrb	r3, [r2, r3]	@ zero_extendqisi2
 151:Drivers/STM32H7xx_HAL_Driver/Src/stm32h7xx_hal.c **** #else
 261              		.loc 1 151 133 view .LVU57
 262 0018 03F01F03 		and	r3, r3, #31
 151:Drivers/STM32H7xx_HAL_Driver/Src/stm32h7xx_hal.c **** #else
 263              		.loc 1 151 23 view .LVU58
 264 001c D840     		lsrs	r0, r0, r3
 265              	.LVL10:
 158:Drivers/STM32H7xx_HAL_Driver/Src/stm32h7xx_hal.c **** #else
 266              		.loc 1 158 3 is_stmt 1 view .LVU59
 158:Drivers/STM32H7xx_HAL_Driver/Src/stm32h7xx_hal.c **** #else
 267              		.loc 1 158 66 is_stmt 0 view .LVU60
 268 001e 8B69     		ldr	r3, [r1, #24]
 158:Drivers/STM32H7xx_HAL_Driver/Src/stm32h7xx_hal.c **** #else
 269              		.loc 1 158 93 view .LVU61
 270 0020 03F00F03 		and	r3, r3, #15
 158:Drivers/STM32H7xx_HAL_Driver/Src/stm32h7xx_hal.c **** #else
 271              		.loc 1 158 61 view .LVU62
 272 0024 D35C     		ldrb	r3, [r2, r3]	@ zero_extendqisi2
 158:Drivers/STM32H7xx_HAL_Driver/Src/stm32h7xx_hal.c **** #else
 273              		.loc 1 158 118 view .LVU63
 274 0026 03F01F03 		and	r3, r3, #31
 158:Drivers/STM32H7xx_HAL_Driver/Src/stm32h7xx_hal.c **** #else
 275              		.loc 1 158 40 view .LVU64
 276 002a 20FA03F3 		lsr	r3, r0, r3
 158:Drivers/STM32H7xx_HAL_Driver/Src/stm32h7xx_hal.c **** #else
 277              		.loc 1 158 17 view .LVU65
 278 002e 094A     		ldr	r2, .L25+8
 279 0030 1360     		str	r3, [r2]
 166:Drivers/STM32H7xx_HAL_Driver/Src/stm32h7xx_hal.c **** #endif /* DUAL_CORE && CORE_CM4 */
 280              		.loc 1 166 3 is_stmt 1 view .LVU66
 166:Drivers/STM32H7xx_HAL_Driver/Src/stm32h7xx_hal.c **** #endif /* DUAL_CORE && CORE_CM4 */
 281              		.loc 1 166 19 is_stmt 0 view .LVU67
 282 0032 094B     		ldr	r3, .L25+12
 283 0034 1860     		str	r0, [r3]
 170:Drivers/STM32H7xx_HAL_Driver/Src/stm32h7xx_hal.c ****   {
 284              		.loc 1 170 3 is_stmt 1 view .LVU68
 170:Drivers/STM32H7xx_HAL_Driver/Src/stm32h7xx_hal.c ****   {
 285              		.loc 1 170 6 is_stmt 0 view .LVU69
 286 0036 0F20     		movs	r0, #15
 287              	.LVL11:
 170:Drivers/STM32H7xx_HAL_Driver/Src/stm32h7xx_hal.c ****   {
 288              		.loc 1 170 6 view .LVU70
ARM GAS  C:\Users\OSD\AppData\Local\Temp\ccdj6AO6.s 			page 12


 289 0038 FFF7FEFF 		bl	HAL_InitTick
 290              	.LVL12:
 170:Drivers/STM32H7xx_HAL_Driver/Src/stm32h7xx_hal.c ****   {
 291              		.loc 1 170 5 view .LVU71
 292 003c 10B1     		cbz	r0, .L24
 172:Drivers/STM32H7xx_HAL_Driver/Src/stm32h7xx_hal.c ****   }
 293              		.loc 1 172 12 view .LVU72
 294 003e 0124     		movs	r4, #1
 295              	.L21:
 180:Drivers/STM32H7xx_HAL_Driver/Src/stm32h7xx_hal.c **** 
 296              		.loc 1 180 1 view .LVU73
 297 0040 2046     		mov	r0, r4
 298 0042 10BD     		pop	{r4, pc}
 299              	.L24:
 300 0044 0446     		mov	r4, r0
 176:Drivers/STM32H7xx_HAL_Driver/Src/stm32h7xx_hal.c **** 
 301              		.loc 1 176 3 is_stmt 1 view .LVU74
 302 0046 FFF7FEFF 		bl	HAL_MspInit
 303              	.LVL13:
 179:Drivers/STM32H7xx_HAL_Driver/Src/stm32h7xx_hal.c **** }
 304              		.loc 1 179 3 view .LVU75
 179:Drivers/STM32H7xx_HAL_Driver/Src/stm32h7xx_hal.c **** }
 305              		.loc 1 179 10 is_stmt 0 view .LVU76
 306 004a F9E7     		b	.L21
 307              	.L26:
 308              		.align	2
 309              	.L25:
 310 004c 00440258 		.word	1476543488
 311 0050 00000000 		.word	D1CorePrescTable
 312 0054 00000000 		.word	SystemD2Clock
 313 0058 00000000 		.word	SystemCoreClock
 314              		.cfi_endproc
 315              	.LFE144:
 317              		.section	.text.HAL_IncTick,"ax",%progbits
 318              		.align	1
 319              		.weak	HAL_IncTick
 320              		.syntax unified
 321              		.thumb
 322              		.thumb_func
 324              	HAL_IncTick:
 325              	.LFB149:
 290:Drivers/STM32H7xx_HAL_Driver/Src/stm32h7xx_hal.c **** 
 291:Drivers/STM32H7xx_HAL_Driver/Src/stm32h7xx_hal.c **** /**
 292:Drivers/STM32H7xx_HAL_Driver/Src/stm32h7xx_hal.c ****   * @}
 293:Drivers/STM32H7xx_HAL_Driver/Src/stm32h7xx_hal.c ****   */
 294:Drivers/STM32H7xx_HAL_Driver/Src/stm32h7xx_hal.c **** 
 295:Drivers/STM32H7xx_HAL_Driver/Src/stm32h7xx_hal.c **** /** @addtogroup HAL_Group2
 296:Drivers/STM32H7xx_HAL_Driver/Src/stm32h7xx_hal.c ****  *  @brief    HAL Control functions
 297:Drivers/STM32H7xx_HAL_Driver/Src/stm32h7xx_hal.c ****  *
 298:Drivers/STM32H7xx_HAL_Driver/Src/stm32h7xx_hal.c **** @verbatim
 299:Drivers/STM32H7xx_HAL_Driver/Src/stm32h7xx_hal.c ****  ===============================================================================
 300:Drivers/STM32H7xx_HAL_Driver/Src/stm32h7xx_hal.c ****                       ##### HAL Control functions #####
 301:Drivers/STM32H7xx_HAL_Driver/Src/stm32h7xx_hal.c ****  ===============================================================================
 302:Drivers/STM32H7xx_HAL_Driver/Src/stm32h7xx_hal.c ****     [..]  This section provides functions allowing to:
 303:Drivers/STM32H7xx_HAL_Driver/Src/stm32h7xx_hal.c ****       (+) Provide a tick value in millisecond
 304:Drivers/STM32H7xx_HAL_Driver/Src/stm32h7xx_hal.c ****       (+) Provide a blocking delay in millisecond
 305:Drivers/STM32H7xx_HAL_Driver/Src/stm32h7xx_hal.c ****       (+) Suspend the time base source interrupt
ARM GAS  C:\Users\OSD\AppData\Local\Temp\ccdj6AO6.s 			page 13


 306:Drivers/STM32H7xx_HAL_Driver/Src/stm32h7xx_hal.c ****       (+) Resume the time base source interrupt
 307:Drivers/STM32H7xx_HAL_Driver/Src/stm32h7xx_hal.c ****       (+) Get the HAL API driver version
 308:Drivers/STM32H7xx_HAL_Driver/Src/stm32h7xx_hal.c ****       (+) Get the device identifier
 309:Drivers/STM32H7xx_HAL_Driver/Src/stm32h7xx_hal.c ****       (+) Get the device revision identifier
 310:Drivers/STM32H7xx_HAL_Driver/Src/stm32h7xx_hal.c ****       (+) Enable/Disable Debug module during SLEEP mode
 311:Drivers/STM32H7xx_HAL_Driver/Src/stm32h7xx_hal.c ****       (+) Enable/Disable Debug module during STOP mode
 312:Drivers/STM32H7xx_HAL_Driver/Src/stm32h7xx_hal.c ****       (+) Enable/Disable Debug module during STANDBY mode
 313:Drivers/STM32H7xx_HAL_Driver/Src/stm32h7xx_hal.c **** 
 314:Drivers/STM32H7xx_HAL_Driver/Src/stm32h7xx_hal.c **** @endverbatim
 315:Drivers/STM32H7xx_HAL_Driver/Src/stm32h7xx_hal.c ****   * @{
 316:Drivers/STM32H7xx_HAL_Driver/Src/stm32h7xx_hal.c ****   */
 317:Drivers/STM32H7xx_HAL_Driver/Src/stm32h7xx_hal.c **** 
 318:Drivers/STM32H7xx_HAL_Driver/Src/stm32h7xx_hal.c **** /**
 319:Drivers/STM32H7xx_HAL_Driver/Src/stm32h7xx_hal.c ****   * @brief This function is called to increment  a global variable "uwTick"
 320:Drivers/STM32H7xx_HAL_Driver/Src/stm32h7xx_hal.c ****   *        used as application time base.
 321:Drivers/STM32H7xx_HAL_Driver/Src/stm32h7xx_hal.c ****   * @note In the default implementation, this variable is incremented each 1ms
 322:Drivers/STM32H7xx_HAL_Driver/Src/stm32h7xx_hal.c ****   *       in Systick ISR.
 323:Drivers/STM32H7xx_HAL_Driver/Src/stm32h7xx_hal.c ****  * @note This function is declared as __weak to be overwritten in case of other
 324:Drivers/STM32H7xx_HAL_Driver/Src/stm32h7xx_hal.c ****   *      implementations in user file.
 325:Drivers/STM32H7xx_HAL_Driver/Src/stm32h7xx_hal.c ****   * @retval None
 326:Drivers/STM32H7xx_HAL_Driver/Src/stm32h7xx_hal.c ****   */
 327:Drivers/STM32H7xx_HAL_Driver/Src/stm32h7xx_hal.c **** __weak void HAL_IncTick(void)
 328:Drivers/STM32H7xx_HAL_Driver/Src/stm32h7xx_hal.c **** {
 326              		.loc 1 328 1 is_stmt 1 view -0
 327              		.cfi_startproc
 328              		@ args = 0, pretend = 0, frame = 0
 329              		@ frame_needed = 0, uses_anonymous_args = 0
 330              		@ link register save eliminated.
 329:Drivers/STM32H7xx_HAL_Driver/Src/stm32h7xx_hal.c ****   uwTick += (uint32_t)uwTickFreq;
 331              		.loc 1 329 3 view .LVU78
 332              		.loc 1 329 13 is_stmt 0 view .LVU79
 333 0000 034B     		ldr	r3, .L28
 334 0002 1B78     		ldrb	r3, [r3]	@ zero_extendqisi2
 335              		.loc 1 329 10 view .LVU80
 336 0004 034A     		ldr	r2, .L28+4
 337 0006 1168     		ldr	r1, [r2]
 338 0008 0B44     		add	r3, r3, r1
 339 000a 1360     		str	r3, [r2]
 330:Drivers/STM32H7xx_HAL_Driver/Src/stm32h7xx_hal.c **** }
 340              		.loc 1 330 1 view .LVU81
 341 000c 7047     		bx	lr
 342              	.L29:
 343 000e 00BF     		.align	2
 344              	.L28:
 345 0010 00000000 		.word	.LANCHOR0
 346 0014 00000000 		.word	.LANCHOR2
 347              		.cfi_endproc
 348              	.LFE149:
 350              		.section	.text.HAL_GetTick,"ax",%progbits
 351              		.align	1
 352              		.weak	HAL_GetTick
 353              		.syntax unified
 354              		.thumb
 355              		.thumb_func
 357              	HAL_GetTick:
 358              	.LFB150:
 331:Drivers/STM32H7xx_HAL_Driver/Src/stm32h7xx_hal.c **** 
ARM GAS  C:\Users\OSD\AppData\Local\Temp\ccdj6AO6.s 			page 14


 332:Drivers/STM32H7xx_HAL_Driver/Src/stm32h7xx_hal.c **** /**
 333:Drivers/STM32H7xx_HAL_Driver/Src/stm32h7xx_hal.c ****   * @brief Provides a tick value in millisecond.
 334:Drivers/STM32H7xx_HAL_Driver/Src/stm32h7xx_hal.c ****   * @note This function is declared as __weak to be overwritten in case of other
 335:Drivers/STM32H7xx_HAL_Driver/Src/stm32h7xx_hal.c ****   *       implementations in user file.
 336:Drivers/STM32H7xx_HAL_Driver/Src/stm32h7xx_hal.c ****   * @retval tick value
 337:Drivers/STM32H7xx_HAL_Driver/Src/stm32h7xx_hal.c ****   */
 338:Drivers/STM32H7xx_HAL_Driver/Src/stm32h7xx_hal.c **** __weak uint32_t HAL_GetTick(void)
 339:Drivers/STM32H7xx_HAL_Driver/Src/stm32h7xx_hal.c **** {
 359              		.loc 1 339 1 is_stmt 1 view -0
 360              		.cfi_startproc
 361              		@ args = 0, pretend = 0, frame = 0
 362              		@ frame_needed = 0, uses_anonymous_args = 0
 363              		@ link register save eliminated.
 340:Drivers/STM32H7xx_HAL_Driver/Src/stm32h7xx_hal.c ****   return uwTick;
 364              		.loc 1 340 3 view .LVU83
 365              		.loc 1 340 10 is_stmt 0 view .LVU84
 366 0000 014B     		ldr	r3, .L31
 367 0002 1868     		ldr	r0, [r3]
 341:Drivers/STM32H7xx_HAL_Driver/Src/stm32h7xx_hal.c **** }
 368              		.loc 1 341 1 view .LVU85
 369 0004 7047     		bx	lr
 370              	.L32:
 371 0006 00BF     		.align	2
 372              	.L31:
 373 0008 00000000 		.word	.LANCHOR2
 374              		.cfi_endproc
 375              	.LFE150:
 377              		.section	.text.HAL_GetTickPrio,"ax",%progbits
 378              		.align	1
 379              		.global	HAL_GetTickPrio
 380              		.syntax unified
 381              		.thumb
 382              		.thumb_func
 384              	HAL_GetTickPrio:
 385              	.LFB151:
 342:Drivers/STM32H7xx_HAL_Driver/Src/stm32h7xx_hal.c **** 
 343:Drivers/STM32H7xx_HAL_Driver/Src/stm32h7xx_hal.c **** /**
 344:Drivers/STM32H7xx_HAL_Driver/Src/stm32h7xx_hal.c ****   * @brief This function returns a tick priority.
 345:Drivers/STM32H7xx_HAL_Driver/Src/stm32h7xx_hal.c ****   * @retval tick priority
 346:Drivers/STM32H7xx_HAL_Driver/Src/stm32h7xx_hal.c ****   */
 347:Drivers/STM32H7xx_HAL_Driver/Src/stm32h7xx_hal.c **** uint32_t HAL_GetTickPrio(void)
 348:Drivers/STM32H7xx_HAL_Driver/Src/stm32h7xx_hal.c **** {
 386              		.loc 1 348 1 is_stmt 1 view -0
 387              		.cfi_startproc
 388              		@ args = 0, pretend = 0, frame = 0
 389              		@ frame_needed = 0, uses_anonymous_args = 0
 390              		@ link register save eliminated.
 349:Drivers/STM32H7xx_HAL_Driver/Src/stm32h7xx_hal.c ****   return uwTickPrio;
 391              		.loc 1 349 3 view .LVU87
 350:Drivers/STM32H7xx_HAL_Driver/Src/stm32h7xx_hal.c **** }
 392              		.loc 1 350 1 is_stmt 0 view .LVU88
 393 0000 014B     		ldr	r3, .L34
 394 0002 1868     		ldr	r0, [r3]
 395 0004 7047     		bx	lr
 396              	.L35:
 397 0006 00BF     		.align	2
 398              	.L34:
ARM GAS  C:\Users\OSD\AppData\Local\Temp\ccdj6AO6.s 			page 15


 399 0008 00000000 		.word	.LANCHOR1
 400              		.cfi_endproc
 401              	.LFE151:
 403              		.section	.text.HAL_SetTickFreq,"ax",%progbits
 404              		.align	1
 405              		.global	HAL_SetTickFreq
 406              		.syntax unified
 407              		.thumb
 408              		.thumb_func
 410              	HAL_SetTickFreq:
 411              	.LVL14:
 412              	.LFB152:
 351:Drivers/STM32H7xx_HAL_Driver/Src/stm32h7xx_hal.c **** 
 352:Drivers/STM32H7xx_HAL_Driver/Src/stm32h7xx_hal.c **** /**
 353:Drivers/STM32H7xx_HAL_Driver/Src/stm32h7xx_hal.c ****   * @brief Set new tick Freq.
 354:Drivers/STM32H7xx_HAL_Driver/Src/stm32h7xx_hal.c ****   * @retval Status
 355:Drivers/STM32H7xx_HAL_Driver/Src/stm32h7xx_hal.c ****   */
 356:Drivers/STM32H7xx_HAL_Driver/Src/stm32h7xx_hal.c **** HAL_StatusTypeDef HAL_SetTickFreq(HAL_TickFreqTypeDef Freq)
 357:Drivers/STM32H7xx_HAL_Driver/Src/stm32h7xx_hal.c **** {
 413              		.loc 1 357 1 is_stmt 1 view -0
 414              		.cfi_startproc
 415              		@ args = 0, pretend = 0, frame = 0
 416              		@ frame_needed = 0, uses_anonymous_args = 0
 417              		.loc 1 357 1 is_stmt 0 view .LVU90
 418 0000 10B5     		push	{r4, lr}
 419              		.cfi_def_cfa_offset 8
 420              		.cfi_offset 4, -8
 421              		.cfi_offset 14, -4
 358:Drivers/STM32H7xx_HAL_Driver/Src/stm32h7xx_hal.c ****   HAL_StatusTypeDef status  = HAL_OK;
 422              		.loc 1 358 3 is_stmt 1 view .LVU91
 423              	.LVL15:
 359:Drivers/STM32H7xx_HAL_Driver/Src/stm32h7xx_hal.c ****   HAL_TickFreqTypeDef prevTickFreq;
 424              		.loc 1 359 3 view .LVU92
 360:Drivers/STM32H7xx_HAL_Driver/Src/stm32h7xx_hal.c **** 
 361:Drivers/STM32H7xx_HAL_Driver/Src/stm32h7xx_hal.c ****   assert_param(IS_TICKFREQ(Freq));
 425              		.loc 1 361 3 view .LVU93
 362:Drivers/STM32H7xx_HAL_Driver/Src/stm32h7xx_hal.c **** 
 363:Drivers/STM32H7xx_HAL_Driver/Src/stm32h7xx_hal.c ****   if (uwTickFreq != Freq)
 426              		.loc 1 363 3 view .LVU94
 427              		.loc 1 363 18 is_stmt 0 view .LVU95
 428 0002 084B     		ldr	r3, .L41
 429 0004 1C78     		ldrb	r4, [r3]	@ zero_extendqisi2
 430              		.loc 1 363 6 view .LVU96
 431 0006 8442     		cmp	r4, r0
 432 0008 01D1     		bne	.L40
 358:Drivers/STM32H7xx_HAL_Driver/Src/stm32h7xx_hal.c ****   HAL_TickFreqTypeDef prevTickFreq;
 433              		.loc 1 358 21 view .LVU97
 434 000a 0020     		movs	r0, #0
 435              	.LVL16:
 436              	.L37:
 364:Drivers/STM32H7xx_HAL_Driver/Src/stm32h7xx_hal.c ****   {
 365:Drivers/STM32H7xx_HAL_Driver/Src/stm32h7xx_hal.c **** 
 366:Drivers/STM32H7xx_HAL_Driver/Src/stm32h7xx_hal.c ****     /* Back up uwTickFreq frequency */
 367:Drivers/STM32H7xx_HAL_Driver/Src/stm32h7xx_hal.c ****     prevTickFreq = uwTickFreq;
 368:Drivers/STM32H7xx_HAL_Driver/Src/stm32h7xx_hal.c **** 
 369:Drivers/STM32H7xx_HAL_Driver/Src/stm32h7xx_hal.c ****     /* Update uwTickFreq global variable used by HAL_InitTick() */
 370:Drivers/STM32H7xx_HAL_Driver/Src/stm32h7xx_hal.c ****     uwTickFreq = Freq;
ARM GAS  C:\Users\OSD\AppData\Local\Temp\ccdj6AO6.s 			page 16


 371:Drivers/STM32H7xx_HAL_Driver/Src/stm32h7xx_hal.c **** 
 372:Drivers/STM32H7xx_HAL_Driver/Src/stm32h7xx_hal.c ****     /* Apply the new tick Freq  */
 373:Drivers/STM32H7xx_HAL_Driver/Src/stm32h7xx_hal.c ****     status = HAL_InitTick(uwTickPrio);
 374:Drivers/STM32H7xx_HAL_Driver/Src/stm32h7xx_hal.c ****     if (status != HAL_OK)
 375:Drivers/STM32H7xx_HAL_Driver/Src/stm32h7xx_hal.c ****     {
 376:Drivers/STM32H7xx_HAL_Driver/Src/stm32h7xx_hal.c ****       /* Restore previous tick frequency */
 377:Drivers/STM32H7xx_HAL_Driver/Src/stm32h7xx_hal.c ****       uwTickFreq = prevTickFreq;
 378:Drivers/STM32H7xx_HAL_Driver/Src/stm32h7xx_hal.c ****     }
 379:Drivers/STM32H7xx_HAL_Driver/Src/stm32h7xx_hal.c ****   }
 380:Drivers/STM32H7xx_HAL_Driver/Src/stm32h7xx_hal.c **** 
 381:Drivers/STM32H7xx_HAL_Driver/Src/stm32h7xx_hal.c ****   return status;
 437              		.loc 1 381 3 is_stmt 1 view .LVU98
 382:Drivers/STM32H7xx_HAL_Driver/Src/stm32h7xx_hal.c **** }
 438              		.loc 1 382 1 is_stmt 0 view .LVU99
 439 000c 10BD     		pop	{r4, pc}
 440              	.LVL17:
 441              	.L40:
 367:Drivers/STM32H7xx_HAL_Driver/Src/stm32h7xx_hal.c **** 
 442              		.loc 1 367 5 is_stmt 1 view .LVU100
 370:Drivers/STM32H7xx_HAL_Driver/Src/stm32h7xx_hal.c **** 
 443              		.loc 1 370 5 view .LVU101
 370:Drivers/STM32H7xx_HAL_Driver/Src/stm32h7xx_hal.c **** 
 444              		.loc 1 370 16 is_stmt 0 view .LVU102
 445 000e 1870     		strb	r0, [r3]
 373:Drivers/STM32H7xx_HAL_Driver/Src/stm32h7xx_hal.c ****     if (status != HAL_OK)
 446              		.loc 1 373 5 is_stmt 1 view .LVU103
 373:Drivers/STM32H7xx_HAL_Driver/Src/stm32h7xx_hal.c ****     if (status != HAL_OK)
 447              		.loc 1 373 14 is_stmt 0 view .LVU104
 448 0010 054B     		ldr	r3, .L41+4
 449 0012 1868     		ldr	r0, [r3]
 450              	.LVL18:
 373:Drivers/STM32H7xx_HAL_Driver/Src/stm32h7xx_hal.c ****     if (status != HAL_OK)
 451              		.loc 1 373 14 view .LVU105
 452 0014 FFF7FEFF 		bl	HAL_InitTick
 453              	.LVL19:
 374:Drivers/STM32H7xx_HAL_Driver/Src/stm32h7xx_hal.c ****     {
 454              		.loc 1 374 5 is_stmt 1 view .LVU106
 374:Drivers/STM32H7xx_HAL_Driver/Src/stm32h7xx_hal.c ****     {
 455              		.loc 1 374 8 is_stmt 0 view .LVU107
 456 0018 0028     		cmp	r0, #0
 457 001a F7D0     		beq	.L37
 377:Drivers/STM32H7xx_HAL_Driver/Src/stm32h7xx_hal.c ****     }
 458              		.loc 1 377 7 is_stmt 1 view .LVU108
 377:Drivers/STM32H7xx_HAL_Driver/Src/stm32h7xx_hal.c ****     }
 459              		.loc 1 377 18 is_stmt 0 view .LVU109
 460 001c 014B     		ldr	r3, .L41
 461 001e 1C70     		strb	r4, [r3]
 462 0020 F4E7     		b	.L37
 463              	.L42:
 464 0022 00BF     		.align	2
 465              	.L41:
 466 0024 00000000 		.word	.LANCHOR0
 467 0028 00000000 		.word	.LANCHOR1
 468              		.cfi_endproc
 469              	.LFE152:
 471              		.section	.text.HAL_GetTickFreq,"ax",%progbits
 472              		.align	1
ARM GAS  C:\Users\OSD\AppData\Local\Temp\ccdj6AO6.s 			page 17


 473              		.global	HAL_GetTickFreq
 474              		.syntax unified
 475              		.thumb
 476              		.thumb_func
 478              	HAL_GetTickFreq:
 479              	.LFB153:
 383:Drivers/STM32H7xx_HAL_Driver/Src/stm32h7xx_hal.c **** 
 384:Drivers/STM32H7xx_HAL_Driver/Src/stm32h7xx_hal.c **** /**
 385:Drivers/STM32H7xx_HAL_Driver/Src/stm32h7xx_hal.c ****   * @brief Return tick frequency.
 386:Drivers/STM32H7xx_HAL_Driver/Src/stm32h7xx_hal.c ****   * @retval tick period in Hz
 387:Drivers/STM32H7xx_HAL_Driver/Src/stm32h7xx_hal.c ****   */
 388:Drivers/STM32H7xx_HAL_Driver/Src/stm32h7xx_hal.c **** HAL_TickFreqTypeDef HAL_GetTickFreq(void)
 389:Drivers/STM32H7xx_HAL_Driver/Src/stm32h7xx_hal.c **** {
 480              		.loc 1 389 1 is_stmt 1 view -0
 481              		.cfi_startproc
 482              		@ args = 0, pretend = 0, frame = 0
 483              		@ frame_needed = 0, uses_anonymous_args = 0
 484              		@ link register save eliminated.
 390:Drivers/STM32H7xx_HAL_Driver/Src/stm32h7xx_hal.c ****   return uwTickFreq;
 485              		.loc 1 390 3 view .LVU111
 391:Drivers/STM32H7xx_HAL_Driver/Src/stm32h7xx_hal.c **** }
 486              		.loc 1 391 1 is_stmt 0 view .LVU112
 487 0000 014B     		ldr	r3, .L44
 488 0002 1878     		ldrb	r0, [r3]	@ zero_extendqisi2
 489 0004 7047     		bx	lr
 490              	.L45:
 491 0006 00BF     		.align	2
 492              	.L44:
 493 0008 00000000 		.word	.LANCHOR0
 494              		.cfi_endproc
 495              	.LFE153:
 497              		.section	.text.HAL_Delay,"ax",%progbits
 498              		.align	1
 499              		.weak	HAL_Delay
 500              		.syntax unified
 501              		.thumb
 502              		.thumb_func
 504              	HAL_Delay:
 505              	.LVL20:
 506              	.LFB154:
 392:Drivers/STM32H7xx_HAL_Driver/Src/stm32h7xx_hal.c **** 
 393:Drivers/STM32H7xx_HAL_Driver/Src/stm32h7xx_hal.c **** /**
 394:Drivers/STM32H7xx_HAL_Driver/Src/stm32h7xx_hal.c ****   * @brief This function provides minimum delay (in milliseconds) based
 395:Drivers/STM32H7xx_HAL_Driver/Src/stm32h7xx_hal.c ****   *        on variable incremented.
 396:Drivers/STM32H7xx_HAL_Driver/Src/stm32h7xx_hal.c ****   * @note In the default implementation , SysTick timer is the source of time base.
 397:Drivers/STM32H7xx_HAL_Driver/Src/stm32h7xx_hal.c ****   *       It is used to generate interrupts at regular time intervals where uwTick
 398:Drivers/STM32H7xx_HAL_Driver/Src/stm32h7xx_hal.c ****   *       is incremented.
 399:Drivers/STM32H7xx_HAL_Driver/Src/stm32h7xx_hal.c ****   * @note This function is declared as __weak to be overwritten in case of other
 400:Drivers/STM32H7xx_HAL_Driver/Src/stm32h7xx_hal.c ****   *       implementations in user file.
 401:Drivers/STM32H7xx_HAL_Driver/Src/stm32h7xx_hal.c ****   * @param Delay  specifies the delay time length, in milliseconds.
 402:Drivers/STM32H7xx_HAL_Driver/Src/stm32h7xx_hal.c ****   * @retval None
 403:Drivers/STM32H7xx_HAL_Driver/Src/stm32h7xx_hal.c ****   */
 404:Drivers/STM32H7xx_HAL_Driver/Src/stm32h7xx_hal.c **** __weak void HAL_Delay(uint32_t Delay)
 405:Drivers/STM32H7xx_HAL_Driver/Src/stm32h7xx_hal.c **** {
 507              		.loc 1 405 1 is_stmt 1 view -0
 508              		.cfi_startproc
 509              		@ args = 0, pretend = 0, frame = 0
ARM GAS  C:\Users\OSD\AppData\Local\Temp\ccdj6AO6.s 			page 18


 510              		@ frame_needed = 0, uses_anonymous_args = 0
 511              		.loc 1 405 1 is_stmt 0 view .LVU114
 512 0000 38B5     		push	{r3, r4, r5, lr}
 513              		.cfi_def_cfa_offset 16
 514              		.cfi_offset 3, -16
 515              		.cfi_offset 4, -12
 516              		.cfi_offset 5, -8
 517              		.cfi_offset 14, -4
 518 0002 0446     		mov	r4, r0
 406:Drivers/STM32H7xx_HAL_Driver/Src/stm32h7xx_hal.c ****   uint32_t tickstart = HAL_GetTick();
 519              		.loc 1 406 3 is_stmt 1 view .LVU115
 520              		.loc 1 406 24 is_stmt 0 view .LVU116
 521 0004 FFF7FEFF 		bl	HAL_GetTick
 522              	.LVL21:
 523              		.loc 1 406 24 view .LVU117
 524 0008 0546     		mov	r5, r0
 525              	.LVL22:
 407:Drivers/STM32H7xx_HAL_Driver/Src/stm32h7xx_hal.c ****   uint32_t wait = Delay;
 526              		.loc 1 407 3 is_stmt 1 view .LVU118
 408:Drivers/STM32H7xx_HAL_Driver/Src/stm32h7xx_hal.c **** 
 409:Drivers/STM32H7xx_HAL_Driver/Src/stm32h7xx_hal.c ****   /* Add a freq to guarantee minimum wait */
 410:Drivers/STM32H7xx_HAL_Driver/Src/stm32h7xx_hal.c ****   if (wait < HAL_MAX_DELAY)
 527              		.loc 1 410 3 view .LVU119
 528              		.loc 1 410 6 is_stmt 0 view .LVU120
 529 000a B4F1FF3F 		cmp	r4, #-1
 530 000e 02D0     		beq	.L48
 411:Drivers/STM32H7xx_HAL_Driver/Src/stm32h7xx_hal.c ****   {
 412:Drivers/STM32H7xx_HAL_Driver/Src/stm32h7xx_hal.c ****     wait += (uint32_t)(uwTickFreq);
 531              		.loc 1 412 5 is_stmt 1 view .LVU121
 532              		.loc 1 412 13 is_stmt 0 view .LVU122
 533 0010 044B     		ldr	r3, .L50
 534 0012 1B78     		ldrb	r3, [r3]	@ zero_extendqisi2
 535              		.loc 1 412 10 view .LVU123
 536 0014 1C44     		add	r4, r4, r3
 537              	.LVL23:
 538              	.L48:
 413:Drivers/STM32H7xx_HAL_Driver/Src/stm32h7xx_hal.c ****   }
 414:Drivers/STM32H7xx_HAL_Driver/Src/stm32h7xx_hal.c **** 
 415:Drivers/STM32H7xx_HAL_Driver/Src/stm32h7xx_hal.c ****   while ((HAL_GetTick() - tickstart) < wait)
 416:Drivers/STM32H7xx_HAL_Driver/Src/stm32h7xx_hal.c ****   {
 417:Drivers/STM32H7xx_HAL_Driver/Src/stm32h7xx_hal.c ****   }
 539              		.loc 1 417 3 is_stmt 1 discriminator 1 view .LVU124
 415:Drivers/STM32H7xx_HAL_Driver/Src/stm32h7xx_hal.c ****   {
 540              		.loc 1 415 9 discriminator 1 view .LVU125
 415:Drivers/STM32H7xx_HAL_Driver/Src/stm32h7xx_hal.c ****   {
 541              		.loc 1 415 11 is_stmt 0 discriminator 1 view .LVU126
 542 0016 FFF7FEFF 		bl	HAL_GetTick
 543              	.LVL24:
 415:Drivers/STM32H7xx_HAL_Driver/Src/stm32h7xx_hal.c ****   {
 544              		.loc 1 415 25 discriminator 1 view .LVU127
 545 001a 401B     		subs	r0, r0, r5
 415:Drivers/STM32H7xx_HAL_Driver/Src/stm32h7xx_hal.c ****   {
 546              		.loc 1 415 9 discriminator 1 view .LVU128
 547 001c A042     		cmp	r0, r4
 548 001e FAD3     		bcc	.L48
 418:Drivers/STM32H7xx_HAL_Driver/Src/stm32h7xx_hal.c **** }
 549              		.loc 1 418 1 view .LVU129
ARM GAS  C:\Users\OSD\AppData\Local\Temp\ccdj6AO6.s 			page 19


 550 0020 38BD     		pop	{r3, r4, r5, pc}
 551              	.LVL25:
 552              	.L51:
 553              		.loc 1 418 1 view .LVU130
 554 0022 00BF     		.align	2
 555              	.L50:
 556 0024 00000000 		.word	.LANCHOR0
 557              		.cfi_endproc
 558              	.LFE154:
 560              		.section	.text.HAL_SuspendTick,"ax",%progbits
 561              		.align	1
 562              		.weak	HAL_SuspendTick
 563              		.syntax unified
 564              		.thumb
 565              		.thumb_func
 567              	HAL_SuspendTick:
 568              	.LFB155:
 419:Drivers/STM32H7xx_HAL_Driver/Src/stm32h7xx_hal.c **** 
 420:Drivers/STM32H7xx_HAL_Driver/Src/stm32h7xx_hal.c **** /**
 421:Drivers/STM32H7xx_HAL_Driver/Src/stm32h7xx_hal.c ****   * @brief Suspend Tick increment.
 422:Drivers/STM32H7xx_HAL_Driver/Src/stm32h7xx_hal.c ****   * @note In the default implementation , SysTick timer is the source of time base. It is
 423:Drivers/STM32H7xx_HAL_Driver/Src/stm32h7xx_hal.c ****   *       used to generate interrupts at regular time intervals. Once HAL_SuspendTick()
 424:Drivers/STM32H7xx_HAL_Driver/Src/stm32h7xx_hal.c ****   *       is called, the SysTick interrupt will be disabled and so Tick increment
 425:Drivers/STM32H7xx_HAL_Driver/Src/stm32h7xx_hal.c ****   *       is suspended.
 426:Drivers/STM32H7xx_HAL_Driver/Src/stm32h7xx_hal.c ****   * @note This function is declared as __weak to be overwritten in case of other
 427:Drivers/STM32H7xx_HAL_Driver/Src/stm32h7xx_hal.c ****   *       implementations in user file.
 428:Drivers/STM32H7xx_HAL_Driver/Src/stm32h7xx_hal.c ****   * @retval None
 429:Drivers/STM32H7xx_HAL_Driver/Src/stm32h7xx_hal.c ****   */
 430:Drivers/STM32H7xx_HAL_Driver/Src/stm32h7xx_hal.c **** __weak void HAL_SuspendTick(void)
 431:Drivers/STM32H7xx_HAL_Driver/Src/stm32h7xx_hal.c **** {
 569              		.loc 1 431 1 is_stmt 1 view -0
 570              		.cfi_startproc
 571              		@ args = 0, pretend = 0, frame = 0
 572              		@ frame_needed = 0, uses_anonymous_args = 0
 573              		@ link register save eliminated.
 432:Drivers/STM32H7xx_HAL_Driver/Src/stm32h7xx_hal.c ****   /* Disable SysTick Interrupt */
 433:Drivers/STM32H7xx_HAL_Driver/Src/stm32h7xx_hal.c ****   SysTick->CTRL &= ~SysTick_CTRL_TICKINT_Msk;
 574              		.loc 1 433 3 view .LVU132
 575              		.loc 1 433 17 is_stmt 0 view .LVU133
 576 0000 4FF0E022 		mov	r2, #-536813568
 577 0004 1369     		ldr	r3, [r2, #16]
 578 0006 23F00203 		bic	r3, r3, #2
 579 000a 1361     		str	r3, [r2, #16]
 434:Drivers/STM32H7xx_HAL_Driver/Src/stm32h7xx_hal.c **** }
 580              		.loc 1 434 1 view .LVU134
 581 000c 7047     		bx	lr
 582              		.cfi_endproc
 583              	.LFE155:
 585              		.section	.text.HAL_ResumeTick,"ax",%progbits
 586              		.align	1
 587              		.weak	HAL_ResumeTick
 588              		.syntax unified
 589              		.thumb
 590              		.thumb_func
 592              	HAL_ResumeTick:
 593              	.LFB156:
 435:Drivers/STM32H7xx_HAL_Driver/Src/stm32h7xx_hal.c **** 
ARM GAS  C:\Users\OSD\AppData\Local\Temp\ccdj6AO6.s 			page 20


 436:Drivers/STM32H7xx_HAL_Driver/Src/stm32h7xx_hal.c **** /**
 437:Drivers/STM32H7xx_HAL_Driver/Src/stm32h7xx_hal.c ****   * @brief Resume Tick increment.
 438:Drivers/STM32H7xx_HAL_Driver/Src/stm32h7xx_hal.c ****   * @note In the default implementation , SysTick timer is the source of time base. It is
 439:Drivers/STM32H7xx_HAL_Driver/Src/stm32h7xx_hal.c ****   *       used to generate interrupts at regular time intervals. Once HAL_ResumeTick()
 440:Drivers/STM32H7xx_HAL_Driver/Src/stm32h7xx_hal.c ****   *       is called, the SysTick interrupt will be enabled and so Tick increment
 441:Drivers/STM32H7xx_HAL_Driver/Src/stm32h7xx_hal.c ****   *       is resumed.
 442:Drivers/STM32H7xx_HAL_Driver/Src/stm32h7xx_hal.c ****   * @note This function is declared as __weak to be overwritten in case of other
 443:Drivers/STM32H7xx_HAL_Driver/Src/stm32h7xx_hal.c ****   *       implementations in user file.
 444:Drivers/STM32H7xx_HAL_Driver/Src/stm32h7xx_hal.c ****   * @retval None
 445:Drivers/STM32H7xx_HAL_Driver/Src/stm32h7xx_hal.c ****   */
 446:Drivers/STM32H7xx_HAL_Driver/Src/stm32h7xx_hal.c **** __weak void HAL_ResumeTick(void)
 447:Drivers/STM32H7xx_HAL_Driver/Src/stm32h7xx_hal.c **** {
 594              		.loc 1 447 1 is_stmt 1 view -0
 595              		.cfi_startproc
 596              		@ args = 0, pretend = 0, frame = 0
 597              		@ frame_needed = 0, uses_anonymous_args = 0
 598              		@ link register save eliminated.
 448:Drivers/STM32H7xx_HAL_Driver/Src/stm32h7xx_hal.c ****   /* Enable SysTick Interrupt */
 449:Drivers/STM32H7xx_HAL_Driver/Src/stm32h7xx_hal.c ****   SysTick->CTRL  |= SysTick_CTRL_TICKINT_Msk;
 599              		.loc 1 449 3 view .LVU136
 600              		.loc 1 449 18 is_stmt 0 view .LVU137
 601 0000 4FF0E022 		mov	r2, #-536813568
 602 0004 1369     		ldr	r3, [r2, #16]
 603 0006 43F00203 		orr	r3, r3, #2
 604 000a 1361     		str	r3, [r2, #16]
 450:Drivers/STM32H7xx_HAL_Driver/Src/stm32h7xx_hal.c **** }
 605              		.loc 1 450 1 view .LVU138
 606 000c 7047     		bx	lr
 607              		.cfi_endproc
 608              	.LFE156:
 610              		.section	.text.HAL_GetHalVersion,"ax",%progbits
 611              		.align	1
 612              		.global	HAL_GetHalVersion
 613              		.syntax unified
 614              		.thumb
 615              		.thumb_func
 617              	HAL_GetHalVersion:
 618              	.LFB157:
 451:Drivers/STM32H7xx_HAL_Driver/Src/stm32h7xx_hal.c **** 
 452:Drivers/STM32H7xx_HAL_Driver/Src/stm32h7xx_hal.c **** /**
 453:Drivers/STM32H7xx_HAL_Driver/Src/stm32h7xx_hal.c ****   * @brief  Returns the HAL revision
 454:Drivers/STM32H7xx_HAL_Driver/Src/stm32h7xx_hal.c ****   * @retval version : 0xXYZR (8bits for each decimal, R for RC)
 455:Drivers/STM32H7xx_HAL_Driver/Src/stm32h7xx_hal.c ****   */
 456:Drivers/STM32H7xx_HAL_Driver/Src/stm32h7xx_hal.c **** uint32_t HAL_GetHalVersion(void)
 457:Drivers/STM32H7xx_HAL_Driver/Src/stm32h7xx_hal.c **** {
 619              		.loc 1 457 1 is_stmt 1 view -0
 620              		.cfi_startproc
 621              		@ args = 0, pretend = 0, frame = 0
 622              		@ frame_needed = 0, uses_anonymous_args = 0
 623              		@ link register save eliminated.
 458:Drivers/STM32H7xx_HAL_Driver/Src/stm32h7xx_hal.c ****  return __STM32H7xx_HAL_VERSION;
 624              		.loc 1 458 2 view .LVU140
 459:Drivers/STM32H7xx_HAL_Driver/Src/stm32h7xx_hal.c **** }
 625              		.loc 1 459 1 is_stmt 0 view .LVU141
 626 0000 0048     		ldr	r0, .L55
 627 0002 7047     		bx	lr
 628              	.L56:
ARM GAS  C:\Users\OSD\AppData\Local\Temp\ccdj6AO6.s 			page 21


 629              		.align	2
 630              	.L55:
 631 0004 00010B01 		.word	17498368
 632              		.cfi_endproc
 633              	.LFE157:
 635              		.section	.text.HAL_GetREVID,"ax",%progbits
 636              		.align	1
 637              		.global	HAL_GetREVID
 638              		.syntax unified
 639              		.thumb
 640              		.thumb_func
 642              	HAL_GetREVID:
 643              	.LFB158:
 460:Drivers/STM32H7xx_HAL_Driver/Src/stm32h7xx_hal.c **** 
 461:Drivers/STM32H7xx_HAL_Driver/Src/stm32h7xx_hal.c **** /**
 462:Drivers/STM32H7xx_HAL_Driver/Src/stm32h7xx_hal.c ****   * @brief  Returns the device revision identifier.
 463:Drivers/STM32H7xx_HAL_Driver/Src/stm32h7xx_hal.c ****   * @retval Device revision identifier
 464:Drivers/STM32H7xx_HAL_Driver/Src/stm32h7xx_hal.c ****   */
 465:Drivers/STM32H7xx_HAL_Driver/Src/stm32h7xx_hal.c **** uint32_t HAL_GetREVID(void)
 466:Drivers/STM32H7xx_HAL_Driver/Src/stm32h7xx_hal.c **** {
 644              		.loc 1 466 1 is_stmt 1 view -0
 645              		.cfi_startproc
 646              		@ args = 0, pretend = 0, frame = 0
 647              		@ frame_needed = 0, uses_anonymous_args = 0
 648              		@ link register save eliminated.
 467:Drivers/STM32H7xx_HAL_Driver/Src/stm32h7xx_hal.c ****    return((DBGMCU->IDCODE) >> 16);
 649              		.loc 1 467 4 view .LVU143
 650              		.loc 1 467 18 is_stmt 0 view .LVU144
 651 0000 014B     		ldr	r3, .L58
 652 0002 1868     		ldr	r0, [r3]
 468:Drivers/STM32H7xx_HAL_Driver/Src/stm32h7xx_hal.c **** }
 653              		.loc 1 468 1 view .LVU145
 654 0004 000C     		lsrs	r0, r0, #16
 655 0006 7047     		bx	lr
 656              	.L59:
 657              		.align	2
 658              	.L58:
 659 0008 0010005C 		.word	1543507968
 660              		.cfi_endproc
 661              	.LFE158:
 663              		.section	.text.HAL_GetDEVID,"ax",%progbits
 664              		.align	1
 665              		.global	HAL_GetDEVID
 666              		.syntax unified
 667              		.thumb
 668              		.thumb_func
 670              	HAL_GetDEVID:
 671              	.LFB159:
 469:Drivers/STM32H7xx_HAL_Driver/Src/stm32h7xx_hal.c **** 
 470:Drivers/STM32H7xx_HAL_Driver/Src/stm32h7xx_hal.c **** /**
 471:Drivers/STM32H7xx_HAL_Driver/Src/stm32h7xx_hal.c ****   * @brief  Returns the device identifier.
 472:Drivers/STM32H7xx_HAL_Driver/Src/stm32h7xx_hal.c ****   * @retval Device identifier
 473:Drivers/STM32H7xx_HAL_Driver/Src/stm32h7xx_hal.c ****   */
 474:Drivers/STM32H7xx_HAL_Driver/Src/stm32h7xx_hal.c **** uint32_t HAL_GetDEVID(void)
 475:Drivers/STM32H7xx_HAL_Driver/Src/stm32h7xx_hal.c **** {
 672              		.loc 1 475 1 is_stmt 1 view -0
 673              		.cfi_startproc
ARM GAS  C:\Users\OSD\AppData\Local\Temp\ccdj6AO6.s 			page 22


 674              		@ args = 0, pretend = 0, frame = 0
 675              		@ frame_needed = 0, uses_anonymous_args = 0
 676              		@ link register save eliminated.
 476:Drivers/STM32H7xx_HAL_Driver/Src/stm32h7xx_hal.c ****    return((DBGMCU->IDCODE) & IDCODE_DEVID_MASK);
 677              		.loc 1 476 4 view .LVU147
 678              		.loc 1 476 18 is_stmt 0 view .LVU148
 679 0000 024B     		ldr	r3, .L61
 680 0002 1868     		ldr	r0, [r3]
 477:Drivers/STM32H7xx_HAL_Driver/Src/stm32h7xx_hal.c **** }
 681              		.loc 1 477 1 view .LVU149
 682 0004 C0F30B00 		ubfx	r0, r0, #0, #12
 683 0008 7047     		bx	lr
 684              	.L62:
 685 000a 00BF     		.align	2
 686              	.L61:
 687 000c 0010005C 		.word	1543507968
 688              		.cfi_endproc
 689              	.LFE159:
 691              		.section	.text.HAL_GetUIDw0,"ax",%progbits
 692              		.align	1
 693              		.global	HAL_GetUIDw0
 694              		.syntax unified
 695              		.thumb
 696              		.thumb_func
 698              	HAL_GetUIDw0:
 699              	.LFB160:
 478:Drivers/STM32H7xx_HAL_Driver/Src/stm32h7xx_hal.c **** 
 479:Drivers/STM32H7xx_HAL_Driver/Src/stm32h7xx_hal.c **** /**
 480:Drivers/STM32H7xx_HAL_Driver/Src/stm32h7xx_hal.c ****   * @brief  Return the first word of the unique device identifier (UID based on 96 bits)
 481:Drivers/STM32H7xx_HAL_Driver/Src/stm32h7xx_hal.c ****   * @retval Device identifier
 482:Drivers/STM32H7xx_HAL_Driver/Src/stm32h7xx_hal.c ****   */
 483:Drivers/STM32H7xx_HAL_Driver/Src/stm32h7xx_hal.c **** uint32_t HAL_GetUIDw0(void)
 484:Drivers/STM32H7xx_HAL_Driver/Src/stm32h7xx_hal.c **** {
 700              		.loc 1 484 1 is_stmt 1 view -0
 701              		.cfi_startproc
 702              		@ args = 0, pretend = 0, frame = 0
 703              		@ frame_needed = 0, uses_anonymous_args = 0
 704              		@ link register save eliminated.
 485:Drivers/STM32H7xx_HAL_Driver/Src/stm32h7xx_hal.c ****   return(READ_REG(*((uint32_t *)UID_BASE)));
 705              		.loc 1 485 3 view .LVU151
 486:Drivers/STM32H7xx_HAL_Driver/Src/stm32h7xx_hal.c **** }
 706              		.loc 1 486 1 is_stmt 0 view .LVU152
 707 0000 014B     		ldr	r3, .L64
 708 0002 D3F80008 		ldr	r0, [r3, #2048]
 709 0006 7047     		bx	lr
 710              	.L65:
 711              		.align	2
 712              	.L64:
 713 0008 00E0F11F 		.word	535945216
 714              		.cfi_endproc
 715              	.LFE160:
 717              		.section	.text.HAL_GetUIDw1,"ax",%progbits
 718              		.align	1
 719              		.global	HAL_GetUIDw1
 720              		.syntax unified
 721              		.thumb
 722              		.thumb_func
ARM GAS  C:\Users\OSD\AppData\Local\Temp\ccdj6AO6.s 			page 23


 724              	HAL_GetUIDw1:
 725              	.LFB161:
 487:Drivers/STM32H7xx_HAL_Driver/Src/stm32h7xx_hal.c **** 
 488:Drivers/STM32H7xx_HAL_Driver/Src/stm32h7xx_hal.c **** /**
 489:Drivers/STM32H7xx_HAL_Driver/Src/stm32h7xx_hal.c ****   * @brief  Return the second word of the unique device identifier (UID based on 96 bits)
 490:Drivers/STM32H7xx_HAL_Driver/Src/stm32h7xx_hal.c ****   * @retval Device identifier
 491:Drivers/STM32H7xx_HAL_Driver/Src/stm32h7xx_hal.c ****   */
 492:Drivers/STM32H7xx_HAL_Driver/Src/stm32h7xx_hal.c **** uint32_t HAL_GetUIDw1(void)
 493:Drivers/STM32H7xx_HAL_Driver/Src/stm32h7xx_hal.c **** {
 726              		.loc 1 493 1 is_stmt 1 view -0
 727              		.cfi_startproc
 728              		@ args = 0, pretend = 0, frame = 0
 729              		@ frame_needed = 0, uses_anonymous_args = 0
 730              		@ link register save eliminated.
 494:Drivers/STM32H7xx_HAL_Driver/Src/stm32h7xx_hal.c ****   return(READ_REG(*((uint32_t *)(UID_BASE + 4U))));
 731              		.loc 1 494 3 view .LVU154
 495:Drivers/STM32H7xx_HAL_Driver/Src/stm32h7xx_hal.c **** }
 732              		.loc 1 495 1 is_stmt 0 view .LVU155
 733 0000 014B     		ldr	r3, .L67
 734 0002 D3F80408 		ldr	r0, [r3, #2052]
 735 0006 7047     		bx	lr
 736              	.L68:
 737              		.align	2
 738              	.L67:
 739 0008 00E0F11F 		.word	535945216
 740              		.cfi_endproc
 741              	.LFE161:
 743              		.section	.text.HAL_GetUIDw2,"ax",%progbits
 744              		.align	1
 745              		.global	HAL_GetUIDw2
 746              		.syntax unified
 747              		.thumb
 748              		.thumb_func
 750              	HAL_GetUIDw2:
 751              	.LFB162:
 496:Drivers/STM32H7xx_HAL_Driver/Src/stm32h7xx_hal.c **** 
 497:Drivers/STM32H7xx_HAL_Driver/Src/stm32h7xx_hal.c **** /**
 498:Drivers/STM32H7xx_HAL_Driver/Src/stm32h7xx_hal.c ****   * @brief  Return the third word of the unique device identifier (UID based on 96 bits)
 499:Drivers/STM32H7xx_HAL_Driver/Src/stm32h7xx_hal.c ****   * @retval Device identifier
 500:Drivers/STM32H7xx_HAL_Driver/Src/stm32h7xx_hal.c ****   */
 501:Drivers/STM32H7xx_HAL_Driver/Src/stm32h7xx_hal.c **** uint32_t HAL_GetUIDw2(void)
 502:Drivers/STM32H7xx_HAL_Driver/Src/stm32h7xx_hal.c **** {
 752              		.loc 1 502 1 is_stmt 1 view -0
 753              		.cfi_startproc
 754              		@ args = 0, pretend = 0, frame = 0
 755              		@ frame_needed = 0, uses_anonymous_args = 0
 756              		@ link register save eliminated.
 503:Drivers/STM32H7xx_HAL_Driver/Src/stm32h7xx_hal.c ****   return(READ_REG(*((uint32_t *)(UID_BASE + 8U))));
 757              		.loc 1 503 3 view .LVU157
 504:Drivers/STM32H7xx_HAL_Driver/Src/stm32h7xx_hal.c **** }
 758              		.loc 1 504 1 is_stmt 0 view .LVU158
 759 0000 014B     		ldr	r3, .L70
 760 0002 D3F80808 		ldr	r0, [r3, #2056]
 761 0006 7047     		bx	lr
 762              	.L71:
 763              		.align	2
 764              	.L70:
ARM GAS  C:\Users\OSD\AppData\Local\Temp\ccdj6AO6.s 			page 24


 765 0008 00E0F11F 		.word	535945216
 766              		.cfi_endproc
 767              	.LFE162:
 769              		.section	.text.HAL_SYSCFG_VREFBUF_VoltageScalingConfig,"ax",%progbits
 770              		.align	1
 771              		.global	HAL_SYSCFG_VREFBUF_VoltageScalingConfig
 772              		.syntax unified
 773              		.thumb
 774              		.thumb_func
 776              	HAL_SYSCFG_VREFBUF_VoltageScalingConfig:
 777              	.LVL26:
 778              	.LFB163:
 505:Drivers/STM32H7xx_HAL_Driver/Src/stm32h7xx_hal.c **** 
 506:Drivers/STM32H7xx_HAL_Driver/Src/stm32h7xx_hal.c **** /**
 507:Drivers/STM32H7xx_HAL_Driver/Src/stm32h7xx_hal.c ****   * @brief Configure the internal voltage reference buffer voltage scale.
 508:Drivers/STM32H7xx_HAL_Driver/Src/stm32h7xx_hal.c ****   * @param VoltageScaling  specifies the output voltage to achieve
 509:Drivers/STM32H7xx_HAL_Driver/Src/stm32h7xx_hal.c ****   *          This parameter can be one of the following values:
 510:Drivers/STM32H7xx_HAL_Driver/Src/stm32h7xx_hal.c ****   *            @arg SYSCFG_VREFBUF_VOLTAGE_SCALE0: VREF_OUT1 around 2.5 V.
 511:Drivers/STM32H7xx_HAL_Driver/Src/stm32h7xx_hal.c ****   *                                                This requires VDDA equal to or higher than 2.8 V
 512:Drivers/STM32H7xx_HAL_Driver/Src/stm32h7xx_hal.c ****   *            @arg SYSCFG_VREFBUF_VOLTAGE_SCALE1: VREF_OUT2 around 2.048 V.
 513:Drivers/STM32H7xx_HAL_Driver/Src/stm32h7xx_hal.c ****   *                                                This requires VDDA equal to or higher than 2.4 V
 514:Drivers/STM32H7xx_HAL_Driver/Src/stm32h7xx_hal.c ****   *            @arg SYSCFG_VREFBUF_VOLTAGE_SCALE2: VREF_OUT3 around 1.8 V.
 515:Drivers/STM32H7xx_HAL_Driver/Src/stm32h7xx_hal.c ****   *                                                This requires VDDA equal to or higher than 2.1 V
 516:Drivers/STM32H7xx_HAL_Driver/Src/stm32h7xx_hal.c ****   *            @arg SYSCFG_VREFBUF_VOLTAGE_SCALE3: VREF_OUT4 around 1.5 V.
 517:Drivers/STM32H7xx_HAL_Driver/Src/stm32h7xx_hal.c ****   *                                                This requires VDDA equal to or higher than 1.8 V
 518:Drivers/STM32H7xx_HAL_Driver/Src/stm32h7xx_hal.c ****   * @retval None
 519:Drivers/STM32H7xx_HAL_Driver/Src/stm32h7xx_hal.c ****   */
 520:Drivers/STM32H7xx_HAL_Driver/Src/stm32h7xx_hal.c **** void HAL_SYSCFG_VREFBUF_VoltageScalingConfig(uint32_t VoltageScaling)
 521:Drivers/STM32H7xx_HAL_Driver/Src/stm32h7xx_hal.c **** {
 779              		.loc 1 521 1 is_stmt 1 view -0
 780              		.cfi_startproc
 781              		@ args = 0, pretend = 0, frame = 0
 782              		@ frame_needed = 0, uses_anonymous_args = 0
 783              		@ link register save eliminated.
 522:Drivers/STM32H7xx_HAL_Driver/Src/stm32h7xx_hal.c ****   /* Check the parameters */
 523:Drivers/STM32H7xx_HAL_Driver/Src/stm32h7xx_hal.c ****   assert_param(IS_SYSCFG_VREFBUF_VOLTAGE_SCALE(VoltageScaling));
 784              		.loc 1 523 3 view .LVU160
 524:Drivers/STM32H7xx_HAL_Driver/Src/stm32h7xx_hal.c **** 
 525:Drivers/STM32H7xx_HAL_Driver/Src/stm32h7xx_hal.c ****   MODIFY_REG(VREFBUF->CSR, VREFBUF_CSR_VRS, VoltageScaling);
 785              		.loc 1 525 3 view .LVU161
 786 0000 034A     		ldr	r2, .L73
 787 0002 1368     		ldr	r3, [r2]
 788 0004 23F07003 		bic	r3, r3, #112
 789 0008 0343     		orrs	r3, r3, r0
 790 000a 1360     		str	r3, [r2]
 526:Drivers/STM32H7xx_HAL_Driver/Src/stm32h7xx_hal.c **** }
 791              		.loc 1 526 1 is_stmt 0 view .LVU162
 792 000c 7047     		bx	lr
 793              	.L74:
 794 000e 00BF     		.align	2
 795              	.L73:
 796 0010 003C0058 		.word	1476410368
 797              		.cfi_endproc
 798              	.LFE163:
 800              		.section	.text.HAL_SYSCFG_VREFBUF_HighImpedanceConfig,"ax",%progbits
 801              		.align	1
 802              		.global	HAL_SYSCFG_VREFBUF_HighImpedanceConfig
ARM GAS  C:\Users\OSD\AppData\Local\Temp\ccdj6AO6.s 			page 25


 803              		.syntax unified
 804              		.thumb
 805              		.thumb_func
 807              	HAL_SYSCFG_VREFBUF_HighImpedanceConfig:
 808              	.LVL27:
 809              	.LFB164:
 527:Drivers/STM32H7xx_HAL_Driver/Src/stm32h7xx_hal.c **** 
 528:Drivers/STM32H7xx_HAL_Driver/Src/stm32h7xx_hal.c **** /**
 529:Drivers/STM32H7xx_HAL_Driver/Src/stm32h7xx_hal.c ****   * @brief Configure the internal voltage reference buffer high impedance mode.
 530:Drivers/STM32H7xx_HAL_Driver/Src/stm32h7xx_hal.c ****   * @param Mode  specifies the high impedance mode
 531:Drivers/STM32H7xx_HAL_Driver/Src/stm32h7xx_hal.c ****   *          This parameter can be one of the following values:
 532:Drivers/STM32H7xx_HAL_Driver/Src/stm32h7xx_hal.c ****   *            @arg SYSCFG_VREFBUF_HIGH_IMPEDANCE_DISABLE: VREF+ pin is internally connect to VREFI
 533:Drivers/STM32H7xx_HAL_Driver/Src/stm32h7xx_hal.c ****   *            @arg SYSCFG_VREFBUF_HIGH_IMPEDANCE_ENABLE: VREF+ pin is high impedance.
 534:Drivers/STM32H7xx_HAL_Driver/Src/stm32h7xx_hal.c ****   * @retval None
 535:Drivers/STM32H7xx_HAL_Driver/Src/stm32h7xx_hal.c ****   */
 536:Drivers/STM32H7xx_HAL_Driver/Src/stm32h7xx_hal.c **** void HAL_SYSCFG_VREFBUF_HighImpedanceConfig(uint32_t Mode)
 537:Drivers/STM32H7xx_HAL_Driver/Src/stm32h7xx_hal.c **** {
 810              		.loc 1 537 1 is_stmt 1 view -0
 811              		.cfi_startproc
 812              		@ args = 0, pretend = 0, frame = 0
 813              		@ frame_needed = 0, uses_anonymous_args = 0
 814              		@ link register save eliminated.
 538:Drivers/STM32H7xx_HAL_Driver/Src/stm32h7xx_hal.c ****   /* Check the parameters */
 539:Drivers/STM32H7xx_HAL_Driver/Src/stm32h7xx_hal.c ****   assert_param(IS_SYSCFG_VREFBUF_HIGH_IMPEDANCE(Mode));
 815              		.loc 1 539 3 view .LVU164
 540:Drivers/STM32H7xx_HAL_Driver/Src/stm32h7xx_hal.c **** 
 541:Drivers/STM32H7xx_HAL_Driver/Src/stm32h7xx_hal.c ****   MODIFY_REG(VREFBUF->CSR, VREFBUF_CSR_HIZ, Mode);
 816              		.loc 1 541 3 view .LVU165
 817 0000 034A     		ldr	r2, .L76
 818 0002 1368     		ldr	r3, [r2]
 819 0004 23F00203 		bic	r3, r3, #2
 820 0008 0343     		orrs	r3, r3, r0
 821 000a 1360     		str	r3, [r2]
 542:Drivers/STM32H7xx_HAL_Driver/Src/stm32h7xx_hal.c **** }
 822              		.loc 1 542 1 is_stmt 0 view .LVU166
 823 000c 7047     		bx	lr
 824              	.L77:
 825 000e 00BF     		.align	2
 826              	.L76:
 827 0010 003C0058 		.word	1476410368
 828              		.cfi_endproc
 829              	.LFE164:
 831              		.section	.text.HAL_SYSCFG_VREFBUF_TrimmingConfig,"ax",%progbits
 832              		.align	1
 833              		.global	HAL_SYSCFG_VREFBUF_TrimmingConfig
 834              		.syntax unified
 835              		.thumb
 836              		.thumb_func
 838              	HAL_SYSCFG_VREFBUF_TrimmingConfig:
 839              	.LVL28:
 840              	.LFB165:
 543:Drivers/STM32H7xx_HAL_Driver/Src/stm32h7xx_hal.c **** 
 544:Drivers/STM32H7xx_HAL_Driver/Src/stm32h7xx_hal.c **** /**
 545:Drivers/STM32H7xx_HAL_Driver/Src/stm32h7xx_hal.c ****   * @brief  Tune the Internal Voltage Reference buffer (VREFBUF).
 546:Drivers/STM32H7xx_HAL_Driver/Src/stm32h7xx_hal.c ****   * @retval None
 547:Drivers/STM32H7xx_HAL_Driver/Src/stm32h7xx_hal.c ****   */
 548:Drivers/STM32H7xx_HAL_Driver/Src/stm32h7xx_hal.c **** void HAL_SYSCFG_VREFBUF_TrimmingConfig(uint32_t TrimmingValue)
ARM GAS  C:\Users\OSD\AppData\Local\Temp\ccdj6AO6.s 			page 26


 549:Drivers/STM32H7xx_HAL_Driver/Src/stm32h7xx_hal.c **** {
 841              		.loc 1 549 1 is_stmt 1 view -0
 842              		.cfi_startproc
 843              		@ args = 0, pretend = 0, frame = 0
 844              		@ frame_needed = 0, uses_anonymous_args = 0
 845              		@ link register save eliminated.
 550:Drivers/STM32H7xx_HAL_Driver/Src/stm32h7xx_hal.c ****   /* Check the parameters */
 551:Drivers/STM32H7xx_HAL_Driver/Src/stm32h7xx_hal.c ****   assert_param(IS_SYSCFG_VREFBUF_TRIMMING(TrimmingValue));
 846              		.loc 1 551 3 view .LVU168
 552:Drivers/STM32H7xx_HAL_Driver/Src/stm32h7xx_hal.c **** 
 553:Drivers/STM32H7xx_HAL_Driver/Src/stm32h7xx_hal.c ****   MODIFY_REG(VREFBUF->CCR, VREFBUF_CCR_TRIM, TrimmingValue);
 847              		.loc 1 553 3 view .LVU169
 848 0000 034A     		ldr	r2, .L79
 849 0002 5368     		ldr	r3, [r2, #4]
 850 0004 23F03F03 		bic	r3, r3, #63
 851 0008 0343     		orrs	r3, r3, r0
 852 000a 5360     		str	r3, [r2, #4]
 554:Drivers/STM32H7xx_HAL_Driver/Src/stm32h7xx_hal.c **** }
 853              		.loc 1 554 1 is_stmt 0 view .LVU170
 854 000c 7047     		bx	lr
 855              	.L80:
 856 000e 00BF     		.align	2
 857              	.L79:
 858 0010 003C0058 		.word	1476410368
 859              		.cfi_endproc
 860              	.LFE165:
 862              		.section	.text.HAL_SYSCFG_EnableVREFBUF,"ax",%progbits
 863              		.align	1
 864              		.global	HAL_SYSCFG_EnableVREFBUF
 865              		.syntax unified
 866              		.thumb
 867              		.thumb_func
 869              	HAL_SYSCFG_EnableVREFBUF:
 870              	.LFB166:
 555:Drivers/STM32H7xx_HAL_Driver/Src/stm32h7xx_hal.c **** 
 556:Drivers/STM32H7xx_HAL_Driver/Src/stm32h7xx_hal.c **** /**
 557:Drivers/STM32H7xx_HAL_Driver/Src/stm32h7xx_hal.c ****   * @brief  Enable the Internal Voltage Reference buffer (VREFBUF).
 558:Drivers/STM32H7xx_HAL_Driver/Src/stm32h7xx_hal.c ****   * @retval HAL_OK/HAL_TIMEOUT
 559:Drivers/STM32H7xx_HAL_Driver/Src/stm32h7xx_hal.c ****   */
 560:Drivers/STM32H7xx_HAL_Driver/Src/stm32h7xx_hal.c **** HAL_StatusTypeDef HAL_SYSCFG_EnableVREFBUF(void)
 561:Drivers/STM32H7xx_HAL_Driver/Src/stm32h7xx_hal.c **** {
 871              		.loc 1 561 1 is_stmt 1 view -0
 872              		.cfi_startproc
 873              		@ args = 0, pretend = 0, frame = 0
 874              		@ frame_needed = 0, uses_anonymous_args = 0
 875 0000 10B5     		push	{r4, lr}
 876              		.cfi_def_cfa_offset 8
 877              		.cfi_offset 4, -8
 878              		.cfi_offset 14, -4
 562:Drivers/STM32H7xx_HAL_Driver/Src/stm32h7xx_hal.c ****   uint32_t  tickstart;
 879              		.loc 1 562 3 view .LVU172
 563:Drivers/STM32H7xx_HAL_Driver/Src/stm32h7xx_hal.c **** 
 564:Drivers/STM32H7xx_HAL_Driver/Src/stm32h7xx_hal.c ****   SET_BIT(VREFBUF->CSR, VREFBUF_CSR_ENVR);
 880              		.loc 1 564 3 view .LVU173
 881 0002 0B4A     		ldr	r2, .L88
 882 0004 1368     		ldr	r3, [r2]
 883 0006 43F00103 		orr	r3, r3, #1
ARM GAS  C:\Users\OSD\AppData\Local\Temp\ccdj6AO6.s 			page 27


 884 000a 1360     		str	r3, [r2]
 565:Drivers/STM32H7xx_HAL_Driver/Src/stm32h7xx_hal.c **** 
 566:Drivers/STM32H7xx_HAL_Driver/Src/stm32h7xx_hal.c ****   /* Get Start Tick*/
 567:Drivers/STM32H7xx_HAL_Driver/Src/stm32h7xx_hal.c ****   tickstart = HAL_GetTick();
 885              		.loc 1 567 3 view .LVU174
 886              		.loc 1 567 15 is_stmt 0 view .LVU175
 887 000c FFF7FEFF 		bl	HAL_GetTick
 888              	.LVL29:
 889 0010 0446     		mov	r4, r0
 890              	.LVL30:
 568:Drivers/STM32H7xx_HAL_Driver/Src/stm32h7xx_hal.c **** 
 569:Drivers/STM32H7xx_HAL_Driver/Src/stm32h7xx_hal.c ****   /* Wait for VRR bit  */
 570:Drivers/STM32H7xx_HAL_Driver/Src/stm32h7xx_hal.c ****   while(READ_BIT(VREFBUF->CSR, VREFBUF_CSR_VRR) == 0UL)
 891              		.loc 1 570 3 is_stmt 1 view .LVU176
 892              	.L82:
 893              		.loc 1 570 8 view .LVU177
 894              		.loc 1 570 9 is_stmt 0 view .LVU178
 895 0012 074B     		ldr	r3, .L88
 896 0014 1B68     		ldr	r3, [r3]
 897              		.loc 1 570 8 view .LVU179
 898 0016 13F0080F 		tst	r3, #8
 899 001a 06D1     		bne	.L87
 571:Drivers/STM32H7xx_HAL_Driver/Src/stm32h7xx_hal.c ****   {
 572:Drivers/STM32H7xx_HAL_Driver/Src/stm32h7xx_hal.c ****     if((HAL_GetTick() - tickstart) > VREFBUF_TIMEOUT_VALUE)
 900              		.loc 1 572 5 is_stmt 1 view .LVU180
 901              		.loc 1 572 9 is_stmt 0 view .LVU181
 902 001c FFF7FEFF 		bl	HAL_GetTick
 903              	.LVL31:
 904              		.loc 1 572 23 view .LVU182
 905 0020 001B     		subs	r0, r0, r4
 906              		.loc 1 572 7 view .LVU183
 907 0022 0A28     		cmp	r0, #10
 908 0024 F5D9     		bls	.L82
 573:Drivers/STM32H7xx_HAL_Driver/Src/stm32h7xx_hal.c ****     {
 574:Drivers/STM32H7xx_HAL_Driver/Src/stm32h7xx_hal.c ****       return HAL_TIMEOUT;
 909              		.loc 1 574 14 view .LVU184
 910 0026 0320     		movs	r0, #3
 911 0028 00E0     		b	.L83
 912              	.L87:
 575:Drivers/STM32H7xx_HAL_Driver/Src/stm32h7xx_hal.c ****     }
 576:Drivers/STM32H7xx_HAL_Driver/Src/stm32h7xx_hal.c ****   }
 577:Drivers/STM32H7xx_HAL_Driver/Src/stm32h7xx_hal.c **** 
 578:Drivers/STM32H7xx_HAL_Driver/Src/stm32h7xx_hal.c ****   return HAL_OK;
 913              		.loc 1 578 10 view .LVU185
 914 002a 0020     		movs	r0, #0
 915              	.L83:
 579:Drivers/STM32H7xx_HAL_Driver/Src/stm32h7xx_hal.c **** }
 916              		.loc 1 579 1 view .LVU186
 917 002c 10BD     		pop	{r4, pc}
 918              	.LVL32:
 919              	.L89:
 920              		.loc 1 579 1 view .LVU187
 921 002e 00BF     		.align	2
 922              	.L88:
 923 0030 003C0058 		.word	1476410368
 924              		.cfi_endproc
 925              	.LFE166:
ARM GAS  C:\Users\OSD\AppData\Local\Temp\ccdj6AO6.s 			page 28


 927              		.section	.text.HAL_SYSCFG_DisableVREFBUF,"ax",%progbits
 928              		.align	1
 929              		.global	HAL_SYSCFG_DisableVREFBUF
 930              		.syntax unified
 931              		.thumb
 932              		.thumb_func
 934              	HAL_SYSCFG_DisableVREFBUF:
 935              	.LFB167:
 580:Drivers/STM32H7xx_HAL_Driver/Src/stm32h7xx_hal.c **** 
 581:Drivers/STM32H7xx_HAL_Driver/Src/stm32h7xx_hal.c **** /**
 582:Drivers/STM32H7xx_HAL_Driver/Src/stm32h7xx_hal.c ****   * @brief  Disable the Internal Voltage Reference buffer (VREFBUF).
 583:Drivers/STM32H7xx_HAL_Driver/Src/stm32h7xx_hal.c ****   *
 584:Drivers/STM32H7xx_HAL_Driver/Src/stm32h7xx_hal.c ****   * @retval None
 585:Drivers/STM32H7xx_HAL_Driver/Src/stm32h7xx_hal.c ****   */
 586:Drivers/STM32H7xx_HAL_Driver/Src/stm32h7xx_hal.c **** void HAL_SYSCFG_DisableVREFBUF(void)
 587:Drivers/STM32H7xx_HAL_Driver/Src/stm32h7xx_hal.c **** {
 936              		.loc 1 587 1 is_stmt 1 view -0
 937              		.cfi_startproc
 938              		@ args = 0, pretend = 0, frame = 0
 939              		@ frame_needed = 0, uses_anonymous_args = 0
 940              		@ link register save eliminated.
 588:Drivers/STM32H7xx_HAL_Driver/Src/stm32h7xx_hal.c ****   CLEAR_BIT(VREFBUF->CSR, VREFBUF_CSR_ENVR);
 941              		.loc 1 588 3 view .LVU189
 942 0000 024A     		ldr	r2, .L91
 943 0002 1368     		ldr	r3, [r2]
 944 0004 23F00103 		bic	r3, r3, #1
 945 0008 1360     		str	r3, [r2]
 589:Drivers/STM32H7xx_HAL_Driver/Src/stm32h7xx_hal.c **** }
 946              		.loc 1 589 1 is_stmt 0 view .LVU190
 947 000a 7047     		bx	lr
 948              	.L92:
 949              		.align	2
 950              	.L91:
 951 000c 003C0058 		.word	1476410368
 952              		.cfi_endproc
 953              	.LFE167:
 955              		.section	.text.HAL_SYSCFG_ETHInterfaceSelect,"ax",%progbits
 956              		.align	1
 957              		.global	HAL_SYSCFG_ETHInterfaceSelect
 958              		.syntax unified
 959              		.thumb
 960              		.thumb_func
 962              	HAL_SYSCFG_ETHInterfaceSelect:
 963              	.LVL33:
 964              	.LFB168:
 590:Drivers/STM32H7xx_HAL_Driver/Src/stm32h7xx_hal.c **** 
 591:Drivers/STM32H7xx_HAL_Driver/Src/stm32h7xx_hal.c **** #if defined(SYSCFG_PMCR_EPIS_SEL)
 592:Drivers/STM32H7xx_HAL_Driver/Src/stm32h7xx_hal.c **** /**
 593:Drivers/STM32H7xx_HAL_Driver/Src/stm32h7xx_hal.c ****   * @brief  Ethernet PHY Interface Selection either MII or RMII
 594:Drivers/STM32H7xx_HAL_Driver/Src/stm32h7xx_hal.c ****   * @param  SYSCFG_ETHInterface: Selects the Ethernet PHY interface
 595:Drivers/STM32H7xx_HAL_Driver/Src/stm32h7xx_hal.c ****   *   This parameter can be one of the following values:
 596:Drivers/STM32H7xx_HAL_Driver/Src/stm32h7xx_hal.c ****   *   @arg SYSCFG_ETH_MII : Select the Media Independent Interface
 597:Drivers/STM32H7xx_HAL_Driver/Src/stm32h7xx_hal.c ****   *   @arg SYSCFG_ETH_RMII: Select the Reduced Media Independent Interface
 598:Drivers/STM32H7xx_HAL_Driver/Src/stm32h7xx_hal.c ****   * @retval None
 599:Drivers/STM32H7xx_HAL_Driver/Src/stm32h7xx_hal.c ****   */
 600:Drivers/STM32H7xx_HAL_Driver/Src/stm32h7xx_hal.c **** void HAL_SYSCFG_ETHInterfaceSelect(uint32_t SYSCFG_ETHInterface)
 601:Drivers/STM32H7xx_HAL_Driver/Src/stm32h7xx_hal.c **** {
ARM GAS  C:\Users\OSD\AppData\Local\Temp\ccdj6AO6.s 			page 29


 965              		.loc 1 601 1 is_stmt 1 view -0
 966              		.cfi_startproc
 967              		@ args = 0, pretend = 0, frame = 0
 968              		@ frame_needed = 0, uses_anonymous_args = 0
 969              		@ link register save eliminated.
 602:Drivers/STM32H7xx_HAL_Driver/Src/stm32h7xx_hal.c ****   /* Check the parameter */
 603:Drivers/STM32H7xx_HAL_Driver/Src/stm32h7xx_hal.c ****   assert_param(IS_SYSCFG_ETHERNET_CONFIG(SYSCFG_ETHInterface));
 970              		.loc 1 603 3 view .LVU192
 604:Drivers/STM32H7xx_HAL_Driver/Src/stm32h7xx_hal.c **** 
 605:Drivers/STM32H7xx_HAL_Driver/Src/stm32h7xx_hal.c ****   MODIFY_REG(SYSCFG->PMCR, SYSCFG_PMCR_EPIS_SEL, (uint32_t)(SYSCFG_ETHInterface));
 971              		.loc 1 605 3 view .LVU193
 972 0000 034A     		ldr	r2, .L94
 973 0002 5368     		ldr	r3, [r2, #4]
 974 0004 23F46003 		bic	r3, r3, #14680064
 975 0008 0343     		orrs	r3, r3, r0
 976 000a 5360     		str	r3, [r2, #4]
 606:Drivers/STM32H7xx_HAL_Driver/Src/stm32h7xx_hal.c **** }
 977              		.loc 1 606 1 is_stmt 0 view .LVU194
 978 000c 7047     		bx	lr
 979              	.L95:
 980 000e 00BF     		.align	2
 981              	.L94:
 982 0010 00040058 		.word	1476396032
 983              		.cfi_endproc
 984              	.LFE168:
 986              		.section	.text.HAL_SYSCFG_AnalogSwitchConfig,"ax",%progbits
 987              		.align	1
 988              		.global	HAL_SYSCFG_AnalogSwitchConfig
 989              		.syntax unified
 990              		.thumb
 991              		.thumb_func
 993              	HAL_SYSCFG_AnalogSwitchConfig:
 994              	.LVL34:
 995              	.LFB169:
 607:Drivers/STM32H7xx_HAL_Driver/Src/stm32h7xx_hal.c **** #endif /* SYSCFG_PMCR_EPIS_SEL */
 608:Drivers/STM32H7xx_HAL_Driver/Src/stm32h7xx_hal.c **** 
 609:Drivers/STM32H7xx_HAL_Driver/Src/stm32h7xx_hal.c **** /**
 610:Drivers/STM32H7xx_HAL_Driver/Src/stm32h7xx_hal.c ****   * @brief  Analog Switch control for dual analog pads.
 611:Drivers/STM32H7xx_HAL_Driver/Src/stm32h7xx_hal.c ****   * @param  SYSCFG_AnalogSwitch: Selects the analog pad
 612:Drivers/STM32H7xx_HAL_Driver/Src/stm32h7xx_hal.c ****   *   This parameter can be one or a combination of the following values:
 613:Drivers/STM32H7xx_HAL_Driver/Src/stm32h7xx_hal.c ****   *   @arg SYSCFG_SWITCH_PA0 : Select PA0 analog switch
 614:Drivers/STM32H7xx_HAL_Driver/Src/stm32h7xx_hal.c ****   *   @arg SYSCFG_SWITCH_PA1:  Select PA1 analog switch
 615:Drivers/STM32H7xx_HAL_Driver/Src/stm32h7xx_hal.c ****   *   @arg SYSCFG_SWITCH_PC2 : Select PC2 analog switch
 616:Drivers/STM32H7xx_HAL_Driver/Src/stm32h7xx_hal.c ****   *   @arg SYSCFG_SWITCH_PC3:  Select PC3 analog switch
 617:Drivers/STM32H7xx_HAL_Driver/Src/stm32h7xx_hal.c ****   * @param  SYSCFG_SwitchState: Open or Close the analog switch between dual pads (PXn and PXn_C)
 618:Drivers/STM32H7xx_HAL_Driver/Src/stm32h7xx_hal.c ****   *   This parameter can be one or a combination of the following values:
 619:Drivers/STM32H7xx_HAL_Driver/Src/stm32h7xx_hal.c ****   *   @arg SYSCFG_SWITCH_PA0_OPEN
 620:Drivers/STM32H7xx_HAL_Driver/Src/stm32h7xx_hal.c ****   *   @arg SYSCFG_SWITCH_PA0_CLOSE
 621:Drivers/STM32H7xx_HAL_Driver/Src/stm32h7xx_hal.c ****   *   @arg SYSCFG_SWITCH_PA1_OPEN
 622:Drivers/STM32H7xx_HAL_Driver/Src/stm32h7xx_hal.c ****   *   @arg SYSCFG_SWITCH_PA1_CLOSE
 623:Drivers/STM32H7xx_HAL_Driver/Src/stm32h7xx_hal.c ****   *   @arg SYSCFG_SWITCH_PC2_OPEN
 624:Drivers/STM32H7xx_HAL_Driver/Src/stm32h7xx_hal.c ****   *   @arg SYSCFG_SWITCH_PC2_CLOSE
 625:Drivers/STM32H7xx_HAL_Driver/Src/stm32h7xx_hal.c ****   *   @arg SYSCFG_SWITCH_PC3_OPEN
 626:Drivers/STM32H7xx_HAL_Driver/Src/stm32h7xx_hal.c ****   *   @arg SYSCFG_SWITCH_PC3_CLOSE
 627:Drivers/STM32H7xx_HAL_Driver/Src/stm32h7xx_hal.c ****   * @retval None
 628:Drivers/STM32H7xx_HAL_Driver/Src/stm32h7xx_hal.c ****   */
 629:Drivers/STM32H7xx_HAL_Driver/Src/stm32h7xx_hal.c **** 
ARM GAS  C:\Users\OSD\AppData\Local\Temp\ccdj6AO6.s 			page 30


 630:Drivers/STM32H7xx_HAL_Driver/Src/stm32h7xx_hal.c **** void HAL_SYSCFG_AnalogSwitchConfig(uint32_t SYSCFG_AnalogSwitch , uint32_t SYSCFG_SwitchState )
 631:Drivers/STM32H7xx_HAL_Driver/Src/stm32h7xx_hal.c **** {
 996              		.loc 1 631 1 is_stmt 1 view -0
 997              		.cfi_startproc
 998              		@ args = 0, pretend = 0, frame = 0
 999              		@ frame_needed = 0, uses_anonymous_args = 0
 1000              		@ link register save eliminated.
 632:Drivers/STM32H7xx_HAL_Driver/Src/stm32h7xx_hal.c ****   /* Check the parameter */
 633:Drivers/STM32H7xx_HAL_Driver/Src/stm32h7xx_hal.c ****   assert_param(IS_SYSCFG_ANALOG_SWITCH(SYSCFG_AnalogSwitch));
 1001              		.loc 1 633 3 view .LVU196
 634:Drivers/STM32H7xx_HAL_Driver/Src/stm32h7xx_hal.c ****   assert_param(IS_SYSCFG_SWITCH_STATE(SYSCFG_SwitchState));
 1002              		.loc 1 634 3 view .LVU197
 635:Drivers/STM32H7xx_HAL_Driver/Src/stm32h7xx_hal.c **** 
 636:Drivers/STM32H7xx_HAL_Driver/Src/stm32h7xx_hal.c ****   MODIFY_REG(SYSCFG->PMCR, (uint32_t) SYSCFG_AnalogSwitch, (uint32_t)(SYSCFG_SwitchState));
 1003              		.loc 1 636 3 view .LVU198
 1004 0000 034A     		ldr	r2, .L97
 1005 0002 5368     		ldr	r3, [r2, #4]
 1006 0004 23EA0003 		bic	r3, r3, r0
 1007 0008 0B43     		orrs	r3, r3, r1
 1008 000a 5360     		str	r3, [r2, #4]
 637:Drivers/STM32H7xx_HAL_Driver/Src/stm32h7xx_hal.c **** }
 1009              		.loc 1 637 1 is_stmt 0 view .LVU199
 1010 000c 7047     		bx	lr
 1011              	.L98:
 1012 000e 00BF     		.align	2
 1013              	.L97:
 1014 0010 00040058 		.word	1476396032
 1015              		.cfi_endproc
 1016              	.LFE169:
 1018              		.section	.text.HAL_SYSCFG_EnableBOOST,"ax",%progbits
 1019              		.align	1
 1020              		.global	HAL_SYSCFG_EnableBOOST
 1021              		.syntax unified
 1022              		.thumb
 1023              		.thumb_func
 1025              	HAL_SYSCFG_EnableBOOST:
 1026              	.LFB170:
 638:Drivers/STM32H7xx_HAL_Driver/Src/stm32h7xx_hal.c **** 
 639:Drivers/STM32H7xx_HAL_Driver/Src/stm32h7xx_hal.c **** #if defined(SYSCFG_PMCR_BOOSTEN)
 640:Drivers/STM32H7xx_HAL_Driver/Src/stm32h7xx_hal.c **** /**
 641:Drivers/STM32H7xx_HAL_Driver/Src/stm32h7xx_hal.c ****   * @brief  Enables the booster to reduce the total harmonic distortion of the analog
 642:Drivers/STM32H7xx_HAL_Driver/Src/stm32h7xx_hal.c ****   *         switch when the supply voltage is lower than 2.7 V.
 643:Drivers/STM32H7xx_HAL_Driver/Src/stm32h7xx_hal.c ****   * @note   Activating the booster allows to guaranty the analog switch AC performance
 644:Drivers/STM32H7xx_HAL_Driver/Src/stm32h7xx_hal.c ****   *         when the supply voltage is below 2.7 V: in this case, the analog switch
 645:Drivers/STM32H7xx_HAL_Driver/Src/stm32h7xx_hal.c ****   *         performance is the same on the full voltage range
 646:Drivers/STM32H7xx_HAL_Driver/Src/stm32h7xx_hal.c ****   * @retval None
 647:Drivers/STM32H7xx_HAL_Driver/Src/stm32h7xx_hal.c ****   */
 648:Drivers/STM32H7xx_HAL_Driver/Src/stm32h7xx_hal.c **** void HAL_SYSCFG_EnableBOOST(void)
 649:Drivers/STM32H7xx_HAL_Driver/Src/stm32h7xx_hal.c **** {
 1027              		.loc 1 649 1 is_stmt 1 view -0
 1028              		.cfi_startproc
 1029              		@ args = 0, pretend = 0, frame = 0
 1030              		@ frame_needed = 0, uses_anonymous_args = 0
 1031              		@ link register save eliminated.
 650:Drivers/STM32H7xx_HAL_Driver/Src/stm32h7xx_hal.c ****  SET_BIT(SYSCFG->PMCR, SYSCFG_PMCR_BOOSTEN) ;
 1032              		.loc 1 650 2 view .LVU201
 1033 0000 024A     		ldr	r2, .L100
ARM GAS  C:\Users\OSD\AppData\Local\Temp\ccdj6AO6.s 			page 31


 1034 0002 5368     		ldr	r3, [r2, #4]
 1035 0004 43F48073 		orr	r3, r3, #256
 1036 0008 5360     		str	r3, [r2, #4]
 651:Drivers/STM32H7xx_HAL_Driver/Src/stm32h7xx_hal.c **** }
 1037              		.loc 1 651 1 is_stmt 0 view .LVU202
 1038 000a 7047     		bx	lr
 1039              	.L101:
 1040              		.align	2
 1041              	.L100:
 1042 000c 00040058 		.word	1476396032
 1043              		.cfi_endproc
 1044              	.LFE170:
 1046              		.section	.text.HAL_SYSCFG_DisableBOOST,"ax",%progbits
 1047              		.align	1
 1048              		.global	HAL_SYSCFG_DisableBOOST
 1049              		.syntax unified
 1050              		.thumb
 1051              		.thumb_func
 1053              	HAL_SYSCFG_DisableBOOST:
 1054              	.LFB171:
 652:Drivers/STM32H7xx_HAL_Driver/Src/stm32h7xx_hal.c **** 
 653:Drivers/STM32H7xx_HAL_Driver/Src/stm32h7xx_hal.c **** /**
 654:Drivers/STM32H7xx_HAL_Driver/Src/stm32h7xx_hal.c ****   * @brief  Disables the booster
 655:Drivers/STM32H7xx_HAL_Driver/Src/stm32h7xx_hal.c ****   * @note   Activating the booster allows to guaranty the analog switch AC performance
 656:Drivers/STM32H7xx_HAL_Driver/Src/stm32h7xx_hal.c ****   *         when the supply voltage is below 2.7 V: in this case, the analog switch
 657:Drivers/STM32H7xx_HAL_Driver/Src/stm32h7xx_hal.c ****   *         performance is the same on the full voltage range
 658:Drivers/STM32H7xx_HAL_Driver/Src/stm32h7xx_hal.c ****   * @retval None
 659:Drivers/STM32H7xx_HAL_Driver/Src/stm32h7xx_hal.c ****   */
 660:Drivers/STM32H7xx_HAL_Driver/Src/stm32h7xx_hal.c **** void HAL_SYSCFG_DisableBOOST(void)
 661:Drivers/STM32H7xx_HAL_Driver/Src/stm32h7xx_hal.c **** {
 1055              		.loc 1 661 1 is_stmt 1 view -0
 1056              		.cfi_startproc
 1057              		@ args = 0, pretend = 0, frame = 0
 1058              		@ frame_needed = 0, uses_anonymous_args = 0
 1059              		@ link register save eliminated.
 662:Drivers/STM32H7xx_HAL_Driver/Src/stm32h7xx_hal.c ****  CLEAR_BIT(SYSCFG->PMCR, SYSCFG_PMCR_BOOSTEN) ;
 1060              		.loc 1 662 2 view .LVU204
 1061 0000 024A     		ldr	r2, .L103
 1062 0002 5368     		ldr	r3, [r2, #4]
 1063 0004 23F48073 		bic	r3, r3, #256
 1064 0008 5360     		str	r3, [r2, #4]
 663:Drivers/STM32H7xx_HAL_Driver/Src/stm32h7xx_hal.c **** }
 1065              		.loc 1 663 1 is_stmt 0 view .LVU205
 1066 000a 7047     		bx	lr
 1067              	.L104:
 1068              		.align	2
 1069              	.L103:
 1070 000c 00040058 		.word	1476396032
 1071              		.cfi_endproc
 1072              	.LFE171:
 1074              		.section	.text.HAL_SYSCFG_CM7BootAddConfig,"ax",%progbits
 1075              		.align	1
 1076              		.global	HAL_SYSCFG_CM7BootAddConfig
 1077              		.syntax unified
 1078              		.thumb
 1079              		.thumb_func
 1081              	HAL_SYSCFG_CM7BootAddConfig:
ARM GAS  C:\Users\OSD\AppData\Local\Temp\ccdj6AO6.s 			page 32


 1082              	.LVL35:
 1083              	.LFB172:
 664:Drivers/STM32H7xx_HAL_Driver/Src/stm32h7xx_hal.c **** #endif /* SYSCFG_PMCR_BOOSTEN */
 665:Drivers/STM32H7xx_HAL_Driver/Src/stm32h7xx_hal.c **** 
 666:Drivers/STM32H7xx_HAL_Driver/Src/stm32h7xx_hal.c **** #if defined (SYSCFG_UR2_BOOT_ADD0) ||  defined (SYSCFG_UR2_BCM7_ADD0)
 667:Drivers/STM32H7xx_HAL_Driver/Src/stm32h7xx_hal.c **** /**
 668:Drivers/STM32H7xx_HAL_Driver/Src/stm32h7xx_hal.c ****   * @brief  BootCM7 address 0 configuration
 669:Drivers/STM32H7xx_HAL_Driver/Src/stm32h7xx_hal.c ****   * @param  BootRegister :Specifies the Boot Address register (Address0 or Address1)
 670:Drivers/STM32H7xx_HAL_Driver/Src/stm32h7xx_hal.c ****   *   This parameter can be one of the following values:
 671:Drivers/STM32H7xx_HAL_Driver/Src/stm32h7xx_hal.c ****   *   @arg SYSCFG_BOOT_ADDR0 : Select the boot address0
 672:Drivers/STM32H7xx_HAL_Driver/Src/stm32h7xx_hal.c ****   *   @arg SYSCFG_BOOT_ADDR1:  Select the boot address1
 673:Drivers/STM32H7xx_HAL_Driver/Src/stm32h7xx_hal.c ****   * @param  BootAddress :Specifies the CM7 Boot Address to be loaded in Address0 or Address1
 674:Drivers/STM32H7xx_HAL_Driver/Src/stm32h7xx_hal.c ****   * @retval None
 675:Drivers/STM32H7xx_HAL_Driver/Src/stm32h7xx_hal.c ****   */
 676:Drivers/STM32H7xx_HAL_Driver/Src/stm32h7xx_hal.c **** void HAL_SYSCFG_CM7BootAddConfig(uint32_t BootRegister, uint32_t BootAddress)
 677:Drivers/STM32H7xx_HAL_Driver/Src/stm32h7xx_hal.c **** {
 1084              		.loc 1 677 1 is_stmt 1 view -0
 1085              		.cfi_startproc
 1086              		@ args = 0, pretend = 0, frame = 0
 1087              		@ frame_needed = 0, uses_anonymous_args = 0
 1088              		@ link register save eliminated.
 678:Drivers/STM32H7xx_HAL_Driver/Src/stm32h7xx_hal.c ****   /* Check the parameters */
 679:Drivers/STM32H7xx_HAL_Driver/Src/stm32h7xx_hal.c ****   assert_param(IS_SYSCFG_BOOT_REGISTER(BootRegister));
 1089              		.loc 1 679 3 view .LVU207
 680:Drivers/STM32H7xx_HAL_Driver/Src/stm32h7xx_hal.c ****   assert_param(IS_SYSCFG_BOOT_ADDRESS(BootAddress));
 1090              		.loc 1 680 3 view .LVU208
 681:Drivers/STM32H7xx_HAL_Driver/Src/stm32h7xx_hal.c ****   if ( BootRegister == SYSCFG_BOOT_ADDR0 )
 1091              		.loc 1 681 3 view .LVU209
 1092              		.loc 1 681 6 is_stmt 0 view .LVU210
 1093 0000 48B9     		cbnz	r0, .L106
 682:Drivers/STM32H7xx_HAL_Driver/Src/stm32h7xx_hal.c ****   {
 683:Drivers/STM32H7xx_HAL_Driver/Src/stm32h7xx_hal.c ****     /* Configure CM7 BOOT ADD0 */
 684:Drivers/STM32H7xx_HAL_Driver/Src/stm32h7xx_hal.c **** #if defined(DUAL_CORE)
 685:Drivers/STM32H7xx_HAL_Driver/Src/stm32h7xx_hal.c ****     MODIFY_REG(SYSCFG->UR2, SYSCFG_UR2_BCM7_ADD0, ((BootAddress >> 16) << SYSCFG_UR2_BCM7_ADD0_Pos)
 686:Drivers/STM32H7xx_HAL_Driver/Src/stm32h7xx_hal.c **** #else
 687:Drivers/STM32H7xx_HAL_Driver/Src/stm32h7xx_hal.c ****     MODIFY_REG(SYSCFG->UR2, SYSCFG_UR2_BOOT_ADD0, ((BootAddress >> 16) << SYSCFG_UR2_BOOT_ADD0_Pos)
 1094              		.loc 1 687 5 is_stmt 1 view .LVU211
 1095 0002 0A48     		ldr	r0, .L108
 1096              	.LVL36:
 1097              		.loc 1 687 5 is_stmt 0 view .LVU212
 1098 0004 D0F80833 		ldr	r3, [r0, #776]
 1099 0008 9BB2     		uxth	r3, r3
 1100 000a 094A     		ldr	r2, .L108+4
 1101 000c 0A40     		ands	r2, r2, r1
 1102 000e 1343     		orrs	r3, r3, r2
 1103 0010 C0F80833 		str	r3, [r0, #776]
 1104 0014 7047     		bx	lr
 1105              	.LVL37:
 1106              	.L106:
 688:Drivers/STM32H7xx_HAL_Driver/Src/stm32h7xx_hal.c **** #endif /*DUAL_CORE*/
 689:Drivers/STM32H7xx_HAL_Driver/Src/stm32h7xx_hal.c ****   }
 690:Drivers/STM32H7xx_HAL_Driver/Src/stm32h7xx_hal.c ****   else
 691:Drivers/STM32H7xx_HAL_Driver/Src/stm32h7xx_hal.c ****   {
 692:Drivers/STM32H7xx_HAL_Driver/Src/stm32h7xx_hal.c ****     /* Configure CM7 BOOT ADD1 */
 693:Drivers/STM32H7xx_HAL_Driver/Src/stm32h7xx_hal.c **** #if defined(DUAL_CORE)
 694:Drivers/STM32H7xx_HAL_Driver/Src/stm32h7xx_hal.c ****     MODIFY_REG(SYSCFG->UR3, SYSCFG_UR3_BCM7_ADD1, (BootAddress >> 16));
 695:Drivers/STM32H7xx_HAL_Driver/Src/stm32h7xx_hal.c **** #else
ARM GAS  C:\Users\OSD\AppData\Local\Temp\ccdj6AO6.s 			page 33


 696:Drivers/STM32H7xx_HAL_Driver/Src/stm32h7xx_hal.c ****     MODIFY_REG(SYSCFG->UR3, SYSCFG_UR3_BOOT_ADD1, (BootAddress >> 16));
 1107              		.loc 1 696 5 is_stmt 1 view .LVU213
 1108 0016 054A     		ldr	r2, .L108
 1109 0018 D2F80C03 		ldr	r0, [r2, #780]
 1110              	.LVL38:
 1111              		.loc 1 696 5 is_stmt 0 view .LVU214
 1112 001c 044B     		ldr	r3, .L108+4
 1113 001e 0340     		ands	r3, r3, r0
 1114 0020 43EA1141 		orr	r1, r3, r1, lsr #16
 1115              	.LVL39:
 1116              		.loc 1 696 5 view .LVU215
 1117 0024 C2F80C13 		str	r1, [r2, #780]
 697:Drivers/STM32H7xx_HAL_Driver/Src/stm32h7xx_hal.c **** #endif /*DUAL_CORE*/
 698:Drivers/STM32H7xx_HAL_Driver/Src/stm32h7xx_hal.c ****   }
 699:Drivers/STM32H7xx_HAL_Driver/Src/stm32h7xx_hal.c **** }
 1118              		.loc 1 699 1 view .LVU216
 1119 0028 7047     		bx	lr
 1120              	.L109:
 1121 002a 00BF     		.align	2
 1122              	.L108:
 1123 002c 00040058 		.word	1476396032
 1124 0030 0000FFFF 		.word	-65536
 1125              		.cfi_endproc
 1126              	.LFE172:
 1128              		.section	.text.HAL_EnableCompensationCell,"ax",%progbits
 1129              		.align	1
 1130              		.global	HAL_EnableCompensationCell
 1131              		.syntax unified
 1132              		.thumb
 1133              		.thumb_func
 1135              	HAL_EnableCompensationCell:
 1136              	.LFB173:
 700:Drivers/STM32H7xx_HAL_Driver/Src/stm32h7xx_hal.c **** #endif /* SYSCFG_UR2_BOOT_ADD0 || SYSCFG_UR2_BCM7_ADD0 */
 701:Drivers/STM32H7xx_HAL_Driver/Src/stm32h7xx_hal.c **** 
 702:Drivers/STM32H7xx_HAL_Driver/Src/stm32h7xx_hal.c **** #if defined(DUAL_CORE)
 703:Drivers/STM32H7xx_HAL_Driver/Src/stm32h7xx_hal.c **** /**
 704:Drivers/STM32H7xx_HAL_Driver/Src/stm32h7xx_hal.c ****   * @brief  BootCM4 address 0 configuration
 705:Drivers/STM32H7xx_HAL_Driver/Src/stm32h7xx_hal.c ****   * @param  BootRegister :Specifies the Boot Address register (Address0 or Address1)
 706:Drivers/STM32H7xx_HAL_Driver/Src/stm32h7xx_hal.c ****   *   This parameter can be one of the following values:
 707:Drivers/STM32H7xx_HAL_Driver/Src/stm32h7xx_hal.c ****   *   @arg SYSCFG_BOOT_ADDR0 : Select the boot address0
 708:Drivers/STM32H7xx_HAL_Driver/Src/stm32h7xx_hal.c ****   *   @arg SYSCFG_BOOT_ADDR1:  Select the boot address1
 709:Drivers/STM32H7xx_HAL_Driver/Src/stm32h7xx_hal.c ****   * @param  BootAddress :Specifies the CM4 Boot Address to be loaded in Address0 or Address1
 710:Drivers/STM32H7xx_HAL_Driver/Src/stm32h7xx_hal.c ****   * @retval None
 711:Drivers/STM32H7xx_HAL_Driver/Src/stm32h7xx_hal.c ****   */
 712:Drivers/STM32H7xx_HAL_Driver/Src/stm32h7xx_hal.c **** void HAL_SYSCFG_CM4BootAddConfig(uint32_t BootRegister, uint32_t BootAddress)
 713:Drivers/STM32H7xx_HAL_Driver/Src/stm32h7xx_hal.c **** {
 714:Drivers/STM32H7xx_HAL_Driver/Src/stm32h7xx_hal.c ****   /* Check the parameters */
 715:Drivers/STM32H7xx_HAL_Driver/Src/stm32h7xx_hal.c ****   assert_param(IS_SYSCFG_BOOT_REGISTER(BootRegister));
 716:Drivers/STM32H7xx_HAL_Driver/Src/stm32h7xx_hal.c ****   assert_param(IS_SYSCFG_BOOT_ADDRESS(BootAddress));
 717:Drivers/STM32H7xx_HAL_Driver/Src/stm32h7xx_hal.c **** 
 718:Drivers/STM32H7xx_HAL_Driver/Src/stm32h7xx_hal.c ****   if ( BootRegister == SYSCFG_BOOT_ADDR0 )
 719:Drivers/STM32H7xx_HAL_Driver/Src/stm32h7xx_hal.c ****   {
 720:Drivers/STM32H7xx_HAL_Driver/Src/stm32h7xx_hal.c ****     /* Configure CM4 BOOT ADD0 */
 721:Drivers/STM32H7xx_HAL_Driver/Src/stm32h7xx_hal.c ****     MODIFY_REG(SYSCFG->UR3, SYSCFG_UR3_BCM4_ADD0, ((BootAddress >> 16)<< SYSCFG_UR3_BCM4_ADD0_Pos))
 722:Drivers/STM32H7xx_HAL_Driver/Src/stm32h7xx_hal.c ****   }
 723:Drivers/STM32H7xx_HAL_Driver/Src/stm32h7xx_hal.c **** 
 724:Drivers/STM32H7xx_HAL_Driver/Src/stm32h7xx_hal.c ****   else
ARM GAS  C:\Users\OSD\AppData\Local\Temp\ccdj6AO6.s 			page 34


 725:Drivers/STM32H7xx_HAL_Driver/Src/stm32h7xx_hal.c ****   {
 726:Drivers/STM32H7xx_HAL_Driver/Src/stm32h7xx_hal.c ****     /* Configure CM4 BOOT ADD1 */
 727:Drivers/STM32H7xx_HAL_Driver/Src/stm32h7xx_hal.c ****     MODIFY_REG(SYSCFG->UR4, SYSCFG_UR4_BCM4_ADD1, (BootAddress >> 16));
 728:Drivers/STM32H7xx_HAL_Driver/Src/stm32h7xx_hal.c ****   }
 729:Drivers/STM32H7xx_HAL_Driver/Src/stm32h7xx_hal.c **** }
 730:Drivers/STM32H7xx_HAL_Driver/Src/stm32h7xx_hal.c **** 
 731:Drivers/STM32H7xx_HAL_Driver/Src/stm32h7xx_hal.c **** /**
 732:Drivers/STM32H7xx_HAL_Driver/Src/stm32h7xx_hal.c ****   * @brief  Enables the Cortex-M7 boot
 733:Drivers/STM32H7xx_HAL_Driver/Src/stm32h7xx_hal.c ****   * @retval None
 734:Drivers/STM32H7xx_HAL_Driver/Src/stm32h7xx_hal.c ****   */
 735:Drivers/STM32H7xx_HAL_Driver/Src/stm32h7xx_hal.c **** void HAL_SYSCFG_EnableCM7BOOT(void)
 736:Drivers/STM32H7xx_HAL_Driver/Src/stm32h7xx_hal.c **** {
 737:Drivers/STM32H7xx_HAL_Driver/Src/stm32h7xx_hal.c ****  SET_BIT(SYSCFG->UR1, SYSCFG_UR1_BCM7);
 738:Drivers/STM32H7xx_HAL_Driver/Src/stm32h7xx_hal.c **** }
 739:Drivers/STM32H7xx_HAL_Driver/Src/stm32h7xx_hal.c **** 
 740:Drivers/STM32H7xx_HAL_Driver/Src/stm32h7xx_hal.c **** /**
 741:Drivers/STM32H7xx_HAL_Driver/Src/stm32h7xx_hal.c ****   * @brief  Disables the Cortex-M7 boot
 742:Drivers/STM32H7xx_HAL_Driver/Src/stm32h7xx_hal.c ****   * @note   Disabling the boot will gate the CPU clock
 743:Drivers/STM32H7xx_HAL_Driver/Src/stm32h7xx_hal.c ****   * @retval None
 744:Drivers/STM32H7xx_HAL_Driver/Src/stm32h7xx_hal.c ****   */
 745:Drivers/STM32H7xx_HAL_Driver/Src/stm32h7xx_hal.c **** void HAL_SYSCFG_DisableCM7BOOT(void)
 746:Drivers/STM32H7xx_HAL_Driver/Src/stm32h7xx_hal.c **** {
 747:Drivers/STM32H7xx_HAL_Driver/Src/stm32h7xx_hal.c ****  CLEAR_BIT(SYSCFG->UR1, SYSCFG_UR1_BCM7) ;
 748:Drivers/STM32H7xx_HAL_Driver/Src/stm32h7xx_hal.c **** }
 749:Drivers/STM32H7xx_HAL_Driver/Src/stm32h7xx_hal.c **** 
 750:Drivers/STM32H7xx_HAL_Driver/Src/stm32h7xx_hal.c **** /**
 751:Drivers/STM32H7xx_HAL_Driver/Src/stm32h7xx_hal.c ****   * @brief  Enables the Cortex-M4 boot
 752:Drivers/STM32H7xx_HAL_Driver/Src/stm32h7xx_hal.c ****   * @retval None
 753:Drivers/STM32H7xx_HAL_Driver/Src/stm32h7xx_hal.c ****   */
 754:Drivers/STM32H7xx_HAL_Driver/Src/stm32h7xx_hal.c **** void HAL_SYSCFG_EnableCM4BOOT(void)
 755:Drivers/STM32H7xx_HAL_Driver/Src/stm32h7xx_hal.c **** {
 756:Drivers/STM32H7xx_HAL_Driver/Src/stm32h7xx_hal.c ****  SET_BIT(SYSCFG->UR1, SYSCFG_UR1_BCM4);
 757:Drivers/STM32H7xx_HAL_Driver/Src/stm32h7xx_hal.c **** }
 758:Drivers/STM32H7xx_HAL_Driver/Src/stm32h7xx_hal.c **** 
 759:Drivers/STM32H7xx_HAL_Driver/Src/stm32h7xx_hal.c **** /**
 760:Drivers/STM32H7xx_HAL_Driver/Src/stm32h7xx_hal.c ****   * @brief  Disables the Cortex-M4 boot
 761:Drivers/STM32H7xx_HAL_Driver/Src/stm32h7xx_hal.c ****   * @note   Disabling the boot will gate the CPU clock
 762:Drivers/STM32H7xx_HAL_Driver/Src/stm32h7xx_hal.c ****   * @retval None
 763:Drivers/STM32H7xx_HAL_Driver/Src/stm32h7xx_hal.c ****   */
 764:Drivers/STM32H7xx_HAL_Driver/Src/stm32h7xx_hal.c **** void HAL_SYSCFG_DisableCM4BOOT(void)
 765:Drivers/STM32H7xx_HAL_Driver/Src/stm32h7xx_hal.c **** {
 766:Drivers/STM32H7xx_HAL_Driver/Src/stm32h7xx_hal.c ****   CLEAR_BIT(SYSCFG->UR1, SYSCFG_UR1_BCM4);
 767:Drivers/STM32H7xx_HAL_Driver/Src/stm32h7xx_hal.c **** }
 768:Drivers/STM32H7xx_HAL_Driver/Src/stm32h7xx_hal.c **** #endif /*DUAL_CORE*/
 769:Drivers/STM32H7xx_HAL_Driver/Src/stm32h7xx_hal.c **** /**
 770:Drivers/STM32H7xx_HAL_Driver/Src/stm32h7xx_hal.c ****   * @brief  Enables the I/O Compensation Cell.
 771:Drivers/STM32H7xx_HAL_Driver/Src/stm32h7xx_hal.c ****   * @note   The I/O compensation cell can be used only when the device supply
 772:Drivers/STM32H7xx_HAL_Driver/Src/stm32h7xx_hal.c ****   *         voltage ranges from 1.62 to 2.0 V and from 2.7 to 3.6 V.
 773:Drivers/STM32H7xx_HAL_Driver/Src/stm32h7xx_hal.c ****   * @retval None
 774:Drivers/STM32H7xx_HAL_Driver/Src/stm32h7xx_hal.c ****   */
 775:Drivers/STM32H7xx_HAL_Driver/Src/stm32h7xx_hal.c **** void HAL_EnableCompensationCell(void)
 776:Drivers/STM32H7xx_HAL_Driver/Src/stm32h7xx_hal.c **** {
 1137              		.loc 1 776 1 is_stmt 1 view -0
 1138              		.cfi_startproc
 1139              		@ args = 0, pretend = 0, frame = 0
 1140              		@ frame_needed = 0, uses_anonymous_args = 0
 1141              		@ link register save eliminated.
ARM GAS  C:\Users\OSD\AppData\Local\Temp\ccdj6AO6.s 			page 35


 777:Drivers/STM32H7xx_HAL_Driver/Src/stm32h7xx_hal.c ****   SET_BIT(SYSCFG->CCCSR, SYSCFG_CCCSR_EN) ;
 1142              		.loc 1 777 3 view .LVU218
 1143 0000 024A     		ldr	r2, .L111
 1144 0002 136A     		ldr	r3, [r2, #32]
 1145 0004 43F00103 		orr	r3, r3, #1
 1146 0008 1362     		str	r3, [r2, #32]
 778:Drivers/STM32H7xx_HAL_Driver/Src/stm32h7xx_hal.c **** }
 1147              		.loc 1 778 1 is_stmt 0 view .LVU219
 1148 000a 7047     		bx	lr
 1149              	.L112:
 1150              		.align	2
 1151              	.L111:
 1152 000c 00040058 		.word	1476396032
 1153              		.cfi_endproc
 1154              	.LFE173:
 1156              		.section	.text.HAL_DisableCompensationCell,"ax",%progbits
 1157              		.align	1
 1158              		.global	HAL_DisableCompensationCell
 1159              		.syntax unified
 1160              		.thumb
 1161              		.thumb_func
 1163              	HAL_DisableCompensationCell:
 1164              	.LFB174:
 779:Drivers/STM32H7xx_HAL_Driver/Src/stm32h7xx_hal.c **** 
 780:Drivers/STM32H7xx_HAL_Driver/Src/stm32h7xx_hal.c **** /**
 781:Drivers/STM32H7xx_HAL_Driver/Src/stm32h7xx_hal.c ****   * @brief  Power-down the I/O Compensation Cell.
 782:Drivers/STM32H7xx_HAL_Driver/Src/stm32h7xx_hal.c ****   * @note   The I/O compensation cell can be used only when the device supply
 783:Drivers/STM32H7xx_HAL_Driver/Src/stm32h7xx_hal.c ****   *         voltage ranges from 1.62 to 2.0 V and from 2.7 to 3.6 V.
 784:Drivers/STM32H7xx_HAL_Driver/Src/stm32h7xx_hal.c ****   * @retval None
 785:Drivers/STM32H7xx_HAL_Driver/Src/stm32h7xx_hal.c ****   */
 786:Drivers/STM32H7xx_HAL_Driver/Src/stm32h7xx_hal.c **** void HAL_DisableCompensationCell(void)
 787:Drivers/STM32H7xx_HAL_Driver/Src/stm32h7xx_hal.c **** {
 1165              		.loc 1 787 1 is_stmt 1 view -0
 1166              		.cfi_startproc
 1167              		@ args = 0, pretend = 0, frame = 0
 1168              		@ frame_needed = 0, uses_anonymous_args = 0
 1169              		@ link register save eliminated.
 788:Drivers/STM32H7xx_HAL_Driver/Src/stm32h7xx_hal.c ****   CLEAR_BIT(SYSCFG->CCCSR, SYSCFG_CCCSR_EN);
 1170              		.loc 1 788 3 view .LVU221
 1171 0000 024A     		ldr	r2, .L114
 1172 0002 136A     		ldr	r3, [r2, #32]
 1173 0004 23F00103 		bic	r3, r3, #1
 1174 0008 1362     		str	r3, [r2, #32]
 789:Drivers/STM32H7xx_HAL_Driver/Src/stm32h7xx_hal.c **** }
 1175              		.loc 1 789 1 is_stmt 0 view .LVU222
 1176 000a 7047     		bx	lr
 1177              	.L115:
 1178              		.align	2
 1179              	.L114:
 1180 000c 00040058 		.word	1476396032
 1181              		.cfi_endproc
 1182              	.LFE174:
 1184              		.section	.text.HAL_SYSCFG_EnableIOSpeedOptimize,"ax",%progbits
 1185              		.align	1
 1186              		.global	HAL_SYSCFG_EnableIOSpeedOptimize
 1187              		.syntax unified
 1188              		.thumb
ARM GAS  C:\Users\OSD\AppData\Local\Temp\ccdj6AO6.s 			page 36


 1189              		.thumb_func
 1191              	HAL_SYSCFG_EnableIOSpeedOptimize:
 1192              	.LFB175:
 790:Drivers/STM32H7xx_HAL_Driver/Src/stm32h7xx_hal.c **** 
 791:Drivers/STM32H7xx_HAL_Driver/Src/stm32h7xx_hal.c **** 
 792:Drivers/STM32H7xx_HAL_Driver/Src/stm32h7xx_hal.c **** /**
 793:Drivers/STM32H7xx_HAL_Driver/Src/stm32h7xx_hal.c ****   * @brief  To Enable optimize the I/O speed when the product voltage is low.
 794:Drivers/STM32H7xx_HAL_Driver/Src/stm32h7xx_hal.c ****   * @note   This bit is active only if PRODUCT_BELOW_25V user option bit is set. It must be
 795:Drivers/STM32H7xx_HAL_Driver/Src/stm32h7xx_hal.c ****   *         used only if the product supply voltage is below 2.5 V. Setting this bit when VDD is
 796:Drivers/STM32H7xx_HAL_Driver/Src/stm32h7xx_hal.c ****   *         higher than 2.5 V might be destructive.
 797:Drivers/STM32H7xx_HAL_Driver/Src/stm32h7xx_hal.c ****   * @retval None
 798:Drivers/STM32H7xx_HAL_Driver/Src/stm32h7xx_hal.c ****   */
 799:Drivers/STM32H7xx_HAL_Driver/Src/stm32h7xx_hal.c **** void HAL_SYSCFG_EnableIOSpeedOptimize(void)
 800:Drivers/STM32H7xx_HAL_Driver/Src/stm32h7xx_hal.c **** {
 1193              		.loc 1 800 1 is_stmt 1 view -0
 1194              		.cfi_startproc
 1195              		@ args = 0, pretend = 0, frame = 0
 1196              		@ frame_needed = 0, uses_anonymous_args = 0
 1197              		@ link register save eliminated.
 801:Drivers/STM32H7xx_HAL_Driver/Src/stm32h7xx_hal.c **** #if defined(SYSCFG_CCCSR_HSLV)
 802:Drivers/STM32H7xx_HAL_Driver/Src/stm32h7xx_hal.c ****   SET_BIT(SYSCFG->CCCSR, SYSCFG_CCCSR_HSLV);
 1198              		.loc 1 802 3 view .LVU224
 1199 0000 024A     		ldr	r2, .L117
 1200 0002 136A     		ldr	r3, [r2, #32]
 1201 0004 43F48033 		orr	r3, r3, #65536
 1202 0008 1362     		str	r3, [r2, #32]
 803:Drivers/STM32H7xx_HAL_Driver/Src/stm32h7xx_hal.c **** #else
 804:Drivers/STM32H7xx_HAL_Driver/Src/stm32h7xx_hal.c ****   SET_BIT(SYSCFG->CCCSR, (SYSCFG_CCCSR_HSLV0| SYSCFG_CCCSR_HSLV1 | SYSCFG_CCCSR_HSLV2  | SYSCFG_CCC
 805:Drivers/STM32H7xx_HAL_Driver/Src/stm32h7xx_hal.c **** #endif   /* SYSCFG_CCCSR_HSLV */
 806:Drivers/STM32H7xx_HAL_Driver/Src/stm32h7xx_hal.c **** }
 1203              		.loc 1 806 1 is_stmt 0 view .LVU225
 1204 000a 7047     		bx	lr
 1205              	.L118:
 1206              		.align	2
 1207              	.L117:
 1208 000c 00040058 		.word	1476396032
 1209              		.cfi_endproc
 1210              	.LFE175:
 1212              		.section	.text.HAL_SYSCFG_DisableIOSpeedOptimize,"ax",%progbits
 1213              		.align	1
 1214              		.global	HAL_SYSCFG_DisableIOSpeedOptimize
 1215              		.syntax unified
 1216              		.thumb
 1217              		.thumb_func
 1219              	HAL_SYSCFG_DisableIOSpeedOptimize:
 1220              	.LFB176:
 807:Drivers/STM32H7xx_HAL_Driver/Src/stm32h7xx_hal.c **** 
 808:Drivers/STM32H7xx_HAL_Driver/Src/stm32h7xx_hal.c **** /**
 809:Drivers/STM32H7xx_HAL_Driver/Src/stm32h7xx_hal.c ****   * @brief  To Disable optimize the I/O speed when the product voltage is low.
 810:Drivers/STM32H7xx_HAL_Driver/Src/stm32h7xx_hal.c ****   * @note   This bit is active only if PRODUCT_BELOW_25V user option bit is set. It must be
 811:Drivers/STM32H7xx_HAL_Driver/Src/stm32h7xx_hal.c ****   *         used only if the product supply voltage is below 2.5 V. Setting this bit when VDD is
 812:Drivers/STM32H7xx_HAL_Driver/Src/stm32h7xx_hal.c ****   *         higher than 2.5 V might be destructive.
 813:Drivers/STM32H7xx_HAL_Driver/Src/stm32h7xx_hal.c ****   * @retval None
 814:Drivers/STM32H7xx_HAL_Driver/Src/stm32h7xx_hal.c ****   */
 815:Drivers/STM32H7xx_HAL_Driver/Src/stm32h7xx_hal.c **** void HAL_SYSCFG_DisableIOSpeedOptimize(void)
 816:Drivers/STM32H7xx_HAL_Driver/Src/stm32h7xx_hal.c **** {
 1221              		.loc 1 816 1 is_stmt 1 view -0
ARM GAS  C:\Users\OSD\AppData\Local\Temp\ccdj6AO6.s 			page 37


 1222              		.cfi_startproc
 1223              		@ args = 0, pretend = 0, frame = 0
 1224              		@ frame_needed = 0, uses_anonymous_args = 0
 1225              		@ link register save eliminated.
 817:Drivers/STM32H7xx_HAL_Driver/Src/stm32h7xx_hal.c **** #if defined(SYSCFG_CCCSR_HSLV)
 818:Drivers/STM32H7xx_HAL_Driver/Src/stm32h7xx_hal.c ****   CLEAR_BIT(SYSCFG->CCCSR, SYSCFG_CCCSR_HSLV);
 1226              		.loc 1 818 3 view .LVU227
 1227 0000 024A     		ldr	r2, .L120
 1228 0002 136A     		ldr	r3, [r2, #32]
 1229 0004 23F48033 		bic	r3, r3, #65536
 1230 0008 1362     		str	r3, [r2, #32]
 819:Drivers/STM32H7xx_HAL_Driver/Src/stm32h7xx_hal.c **** #else
 820:Drivers/STM32H7xx_HAL_Driver/Src/stm32h7xx_hal.c ****   CLEAR_BIT(SYSCFG->CCCSR, (SYSCFG_CCCSR_HSLV0| SYSCFG_CCCSR_HSLV1 | SYSCFG_CCCSR_HSLV2  | SYSCFG_C
 821:Drivers/STM32H7xx_HAL_Driver/Src/stm32h7xx_hal.c **** #endif   /* SYSCFG_CCCSR_HSLV */
 822:Drivers/STM32H7xx_HAL_Driver/Src/stm32h7xx_hal.c **** }
 1231              		.loc 1 822 1 is_stmt 0 view .LVU228
 1232 000a 7047     		bx	lr
 1233              	.L121:
 1234              		.align	2
 1235              	.L120:
 1236 000c 00040058 		.word	1476396032
 1237              		.cfi_endproc
 1238              	.LFE176:
 1240              		.section	.text.HAL_SYSCFG_CompensationCodeSelect,"ax",%progbits
 1241              		.align	1
 1242              		.global	HAL_SYSCFG_CompensationCodeSelect
 1243              		.syntax unified
 1244              		.thumb
 1245              		.thumb_func
 1247              	HAL_SYSCFG_CompensationCodeSelect:
 1248              	.LVL40:
 1249              	.LFB177:
 823:Drivers/STM32H7xx_HAL_Driver/Src/stm32h7xx_hal.c **** 
 824:Drivers/STM32H7xx_HAL_Driver/Src/stm32h7xx_hal.c **** /**
 825:Drivers/STM32H7xx_HAL_Driver/Src/stm32h7xx_hal.c ****   * @brief  Code selection for the I/O Compensation cell
 826:Drivers/STM32H7xx_HAL_Driver/Src/stm32h7xx_hal.c ****   * @param  SYSCFG_CompCode: Selects the code to be applied for the I/O compensation cell
 827:Drivers/STM32H7xx_HAL_Driver/Src/stm32h7xx_hal.c ****   *   This parameter can be one of the following values:
 828:Drivers/STM32H7xx_HAL_Driver/Src/stm32h7xx_hal.c ****   *   @arg SYSCFG_CELL_CODE : Select Code from the cell (available in the SYSCFG_CCVR)
 829:Drivers/STM32H7xx_HAL_Driver/Src/stm32h7xx_hal.c ****   *   @arg SYSCFG_REGISTER_CODE: Select Code from the SYSCFG compensation cell code register (SYSCF
 830:Drivers/STM32H7xx_HAL_Driver/Src/stm32h7xx_hal.c ****   * @retval None
 831:Drivers/STM32H7xx_HAL_Driver/Src/stm32h7xx_hal.c ****   */
 832:Drivers/STM32H7xx_HAL_Driver/Src/stm32h7xx_hal.c **** void HAL_SYSCFG_CompensationCodeSelect(uint32_t SYSCFG_CompCode)
 833:Drivers/STM32H7xx_HAL_Driver/Src/stm32h7xx_hal.c **** {
 1250              		.loc 1 833 1 is_stmt 1 view -0
 1251              		.cfi_startproc
 1252              		@ args = 0, pretend = 0, frame = 0
 1253              		@ frame_needed = 0, uses_anonymous_args = 0
 1254              		@ link register save eliminated.
 834:Drivers/STM32H7xx_HAL_Driver/Src/stm32h7xx_hal.c ****   /* Check the parameter */
 835:Drivers/STM32H7xx_HAL_Driver/Src/stm32h7xx_hal.c ****   assert_param(IS_SYSCFG_CODE_SELECT(SYSCFG_CompCode));
 1255              		.loc 1 835 3 view .LVU230
 836:Drivers/STM32H7xx_HAL_Driver/Src/stm32h7xx_hal.c ****   MODIFY_REG(SYSCFG->CCCSR, SYSCFG_CCCSR_CS, (uint32_t)(SYSCFG_CompCode));
 1256              		.loc 1 836 3 view .LVU231
 1257 0000 034A     		ldr	r2, .L123
 1258 0002 136A     		ldr	r3, [r2, #32]
 1259 0004 23F00203 		bic	r3, r3, #2
 1260 0008 0343     		orrs	r3, r3, r0
ARM GAS  C:\Users\OSD\AppData\Local\Temp\ccdj6AO6.s 			page 38


 1261 000a 1362     		str	r3, [r2, #32]
 837:Drivers/STM32H7xx_HAL_Driver/Src/stm32h7xx_hal.c **** }
 1262              		.loc 1 837 1 is_stmt 0 view .LVU232
 1263 000c 7047     		bx	lr
 1264              	.L124:
 1265 000e 00BF     		.align	2
 1266              	.L123:
 1267 0010 00040058 		.word	1476396032
 1268              		.cfi_endproc
 1269              	.LFE177:
 1271              		.section	.text.HAL_SYSCFG_CompensationCodeConfig,"ax",%progbits
 1272              		.align	1
 1273              		.global	HAL_SYSCFG_CompensationCodeConfig
 1274              		.syntax unified
 1275              		.thumb
 1276              		.thumb_func
 1278              	HAL_SYSCFG_CompensationCodeConfig:
 1279              	.LVL41:
 1280              	.LFB178:
 838:Drivers/STM32H7xx_HAL_Driver/Src/stm32h7xx_hal.c **** 
 839:Drivers/STM32H7xx_HAL_Driver/Src/stm32h7xx_hal.c **** /**
 840:Drivers/STM32H7xx_HAL_Driver/Src/stm32h7xx_hal.c ****   * @brief  Code selection for the I/O Compensation cell
 841:Drivers/STM32H7xx_HAL_Driver/Src/stm32h7xx_hal.c ****   * @param  SYSCFG_PMOSCode: PMOS compensation code
 842:Drivers/STM32H7xx_HAL_Driver/Src/stm32h7xx_hal.c ****   *         This code is applied to the I/O compensation cell when the CS bit of the
 843:Drivers/STM32H7xx_HAL_Driver/Src/stm32h7xx_hal.c ****   *          SYSCFG_CMPCR is set
 844:Drivers/STM32H7xx_HAL_Driver/Src/stm32h7xx_hal.c ****   * @param  SYSCFG_NMOSCode: NMOS compensation code
 845:Drivers/STM32H7xx_HAL_Driver/Src/stm32h7xx_hal.c ****   *         This code is applied to the I/O compensation cell when the CS bit of the
 846:Drivers/STM32H7xx_HAL_Driver/Src/stm32h7xx_hal.c ****   *          SYSCFG_CMPCR is set
 847:Drivers/STM32H7xx_HAL_Driver/Src/stm32h7xx_hal.c ****   * @retval None
 848:Drivers/STM32H7xx_HAL_Driver/Src/stm32h7xx_hal.c ****   */
 849:Drivers/STM32H7xx_HAL_Driver/Src/stm32h7xx_hal.c **** void HAL_SYSCFG_CompensationCodeConfig(uint32_t SYSCFG_PMOSCode, uint32_t SYSCFG_NMOSCode )
 850:Drivers/STM32H7xx_HAL_Driver/Src/stm32h7xx_hal.c **** {
 1281              		.loc 1 850 1 is_stmt 1 view -0
 1282              		.cfi_startproc
 1283              		@ args = 0, pretend = 0, frame = 0
 1284              		@ frame_needed = 0, uses_anonymous_args = 0
 1285              		@ link register save eliminated.
 851:Drivers/STM32H7xx_HAL_Driver/Src/stm32h7xx_hal.c ****   /* Check the parameter */
 852:Drivers/STM32H7xx_HAL_Driver/Src/stm32h7xx_hal.c ****   assert_param(IS_SYSCFG_CODE_CONFIG(SYSCFG_PMOSCode));
 1286              		.loc 1 852 3 view .LVU234
 853:Drivers/STM32H7xx_HAL_Driver/Src/stm32h7xx_hal.c ****   assert_param(IS_SYSCFG_CODE_CONFIG(SYSCFG_NMOSCode));
 1287              		.loc 1 853 3 view .LVU235
 854:Drivers/STM32H7xx_HAL_Driver/Src/stm32h7xx_hal.c ****   MODIFY_REG(SYSCFG->CCCR, SYSCFG_CCCR_NCC|SYSCFG_CCCR_PCC, (((uint32_t)(SYSCFG_PMOSCode)<< 4)|(uin
 1288              		.loc 1 854 3 view .LVU236
 1289 0000 044A     		ldr	r2, .L126
 1290 0002 936A     		ldr	r3, [r2, #40]
 1291 0004 23F0FF03 		bic	r3, r3, #255
 1292 0008 41EA0011 		orr	r1, r1, r0, lsl #4
 1293              	.LVL42:
 1294              		.loc 1 854 3 is_stmt 0 view .LVU237
 1295 000c 0B43     		orrs	r3, r3, r1
 1296 000e 9362     		str	r3, [r2, #40]
 855:Drivers/STM32H7xx_HAL_Driver/Src/stm32h7xx_hal.c **** }
 1297              		.loc 1 855 1 view .LVU238
 1298 0010 7047     		bx	lr
 1299              	.L127:
 1300 0012 00BF     		.align	2
ARM GAS  C:\Users\OSD\AppData\Local\Temp\ccdj6AO6.s 			page 39


 1301              	.L126:
 1302 0014 00040058 		.word	1476396032
 1303              		.cfi_endproc
 1304              	.LFE178:
 1306              		.section	.text.HAL_DBGMCU_EnableDBGSleepMode,"ax",%progbits
 1307              		.align	1
 1308              		.global	HAL_DBGMCU_EnableDBGSleepMode
 1309              		.syntax unified
 1310              		.thumb
 1311              		.thumb_func
 1313              	HAL_DBGMCU_EnableDBGSleepMode:
 1314              	.LFB179:
 856:Drivers/STM32H7xx_HAL_Driver/Src/stm32h7xx_hal.c **** 
 857:Drivers/STM32H7xx_HAL_Driver/Src/stm32h7xx_hal.c **** #if defined(SYSCFG_CCCR_NCC_MMC)
 858:Drivers/STM32H7xx_HAL_Driver/Src/stm32h7xx_hal.c **** /**
 859:Drivers/STM32H7xx_HAL_Driver/Src/stm32h7xx_hal.c ****   * @brief  Code selection for the I/O Compensation cell
 860:Drivers/STM32H7xx_HAL_Driver/Src/stm32h7xx_hal.c ****   * @param  SYSCFG_PMOSCode: VDDMMC PMOS compensation code
 861:Drivers/STM32H7xx_HAL_Driver/Src/stm32h7xx_hal.c ****   *         This code is applied to the I/O compensation cell when the CS bit of the
 862:Drivers/STM32H7xx_HAL_Driver/Src/stm32h7xx_hal.c ****   *          SYSCFG_CMPCR is set
 863:Drivers/STM32H7xx_HAL_Driver/Src/stm32h7xx_hal.c ****   * @param  SYSCFG_NMOSCode: VDDMMC NMOS compensation code
 864:Drivers/STM32H7xx_HAL_Driver/Src/stm32h7xx_hal.c ****   *         This code is applied to the I/O compensation cell when the CS bit of the
 865:Drivers/STM32H7xx_HAL_Driver/Src/stm32h7xx_hal.c ****   *          SYSCFG_CMPCR is set
 866:Drivers/STM32H7xx_HAL_Driver/Src/stm32h7xx_hal.c ****   * @retval None
 867:Drivers/STM32H7xx_HAL_Driver/Src/stm32h7xx_hal.c ****   */
 868:Drivers/STM32H7xx_HAL_Driver/Src/stm32h7xx_hal.c **** void HAL_SYSCFG_VDDMMC_CompensationCodeConfig(uint32_t SYSCFG_PMOSCode, uint32_t SYSCFG_NMOSCode )
 869:Drivers/STM32H7xx_HAL_Driver/Src/stm32h7xx_hal.c **** {
 870:Drivers/STM32H7xx_HAL_Driver/Src/stm32h7xx_hal.c ****   /* Check the parameter */
 871:Drivers/STM32H7xx_HAL_Driver/Src/stm32h7xx_hal.c ****   assert_param(IS_SYSCFG_CODE_CONFIG(SYSCFG_PMOSCode));
 872:Drivers/STM32H7xx_HAL_Driver/Src/stm32h7xx_hal.c ****   assert_param(IS_SYSCFG_CODE_CONFIG(SYSCFG_NMOSCode));
 873:Drivers/STM32H7xx_HAL_Driver/Src/stm32h7xx_hal.c ****   MODIFY_REG(SYSCFG->CCCR, (SYSCFG_CCCR_NCC_MMC | SYSCFG_CCCR_PCC_MMC), (((uint32_t)(SYSCFG_PMOSCod
 874:Drivers/STM32H7xx_HAL_Driver/Src/stm32h7xx_hal.c **** }
 875:Drivers/STM32H7xx_HAL_Driver/Src/stm32h7xx_hal.c **** #endif /* SYSCFG_CCCR_NCC_MMC */
 876:Drivers/STM32H7xx_HAL_Driver/Src/stm32h7xx_hal.c **** 
 877:Drivers/STM32H7xx_HAL_Driver/Src/stm32h7xx_hal.c **** #if defined(SYSCFG_ADC2ALT_ADC2_ROUT0)
 878:Drivers/STM32H7xx_HAL_Driver/Src/stm32h7xx_hal.c **** /** @brief  SYSCFG ADC2 internal input alternate connection macros
 879:Drivers/STM32H7xx_HAL_Driver/Src/stm32h7xx_hal.c ****   * @param Adc2AltRout0 This parameter can be a value of :
 880:Drivers/STM32H7xx_HAL_Driver/Src/stm32h7xx_hal.c ****   *     @arg @ref SYSCFG_ADC2_ROUT0_DAC1_1   DAC1_out1 connected to ADC2 VINP[16]
 881:Drivers/STM32H7xx_HAL_Driver/Src/stm32h7xx_hal.c ****   *     @arg @ref SYSCFG_ADC2_ROUT0_VBAT4    VBAT/4 connected to ADC2 VINP[16]
 882:Drivers/STM32H7xx_HAL_Driver/Src/stm32h7xx_hal.c ****   */
 883:Drivers/STM32H7xx_HAL_Driver/Src/stm32h7xx_hal.c **** void HAL_SYSCFG_ADC2ALT_Rout0Config(uint32_t Adc2AltRout0)
 884:Drivers/STM32H7xx_HAL_Driver/Src/stm32h7xx_hal.c **** {
 885:Drivers/STM32H7xx_HAL_Driver/Src/stm32h7xx_hal.c ****   /* Check the parameters */
 886:Drivers/STM32H7xx_HAL_Driver/Src/stm32h7xx_hal.c ****   assert_param(IS_SYSCFG_ADC2ALT_ROUT0(Adc2AltRout0));
 887:Drivers/STM32H7xx_HAL_Driver/Src/stm32h7xx_hal.c **** 
 888:Drivers/STM32H7xx_HAL_Driver/Src/stm32h7xx_hal.c ****   MODIFY_REG(SYSCFG->ADC2ALT, SYSCFG_ADC2ALT_ADC2_ROUT0, Adc2AltRout0);
 889:Drivers/STM32H7xx_HAL_Driver/Src/stm32h7xx_hal.c **** }
 890:Drivers/STM32H7xx_HAL_Driver/Src/stm32h7xx_hal.c **** #endif /*SYSCFG_ADC2ALT_ADC2_ROUT0*/
 891:Drivers/STM32H7xx_HAL_Driver/Src/stm32h7xx_hal.c **** 
 892:Drivers/STM32H7xx_HAL_Driver/Src/stm32h7xx_hal.c **** #if defined(SYSCFG_ADC2ALT_ADC2_ROUT1)
 893:Drivers/STM32H7xx_HAL_Driver/Src/stm32h7xx_hal.c **** /** @brief  SYSCFG ADC2 internal input alternate connection macros
 894:Drivers/STM32H7xx_HAL_Driver/Src/stm32h7xx_hal.c ****   * @param Adc2AltRout1  This parameter can be a value of :
 895:Drivers/STM32H7xx_HAL_Driver/Src/stm32h7xx_hal.c ****   *     @arg @ref SYSCFG_ADC2_ROUT1_DAC1_2   DAC1_out2 connected to ADC2 VINP[17]
 896:Drivers/STM32H7xx_HAL_Driver/Src/stm32h7xx_hal.c ****   *     @arg @ref SYSCFG_ADC2_ROUT1_VREFINT  VREFINT connected to ADC2 VINP[17]
 897:Drivers/STM32H7xx_HAL_Driver/Src/stm32h7xx_hal.c ****   */
 898:Drivers/STM32H7xx_HAL_Driver/Src/stm32h7xx_hal.c **** void HAL_SYSCFG_ADC2ALT_Rout1Config(uint32_t Adc2AltRout1)
 899:Drivers/STM32H7xx_HAL_Driver/Src/stm32h7xx_hal.c **** {
 900:Drivers/STM32H7xx_HAL_Driver/Src/stm32h7xx_hal.c ****   /* Check the parameters */
ARM GAS  C:\Users\OSD\AppData\Local\Temp\ccdj6AO6.s 			page 40


 901:Drivers/STM32H7xx_HAL_Driver/Src/stm32h7xx_hal.c ****   assert_param(IS_SYSCFG_ADC2ALT_ROUT1(Adc2AltRout1));
 902:Drivers/STM32H7xx_HAL_Driver/Src/stm32h7xx_hal.c **** 
 903:Drivers/STM32H7xx_HAL_Driver/Src/stm32h7xx_hal.c ****   MODIFY_REG(SYSCFG->ADC2ALT, SYSCFG_ADC2ALT_ADC2_ROUT1, Adc2AltRout1);
 904:Drivers/STM32H7xx_HAL_Driver/Src/stm32h7xx_hal.c **** }
 905:Drivers/STM32H7xx_HAL_Driver/Src/stm32h7xx_hal.c **** #endif /*SYSCFG_ADC2ALT_ADC2_ROUT1*/
 906:Drivers/STM32H7xx_HAL_Driver/Src/stm32h7xx_hal.c **** 
 907:Drivers/STM32H7xx_HAL_Driver/Src/stm32h7xx_hal.c **** /**
 908:Drivers/STM32H7xx_HAL_Driver/Src/stm32h7xx_hal.c ****   * @brief  Enable the Debug Module during Domain1/CDomain SLEEP mode
 909:Drivers/STM32H7xx_HAL_Driver/Src/stm32h7xx_hal.c ****   * @retval None
 910:Drivers/STM32H7xx_HAL_Driver/Src/stm32h7xx_hal.c ****   */
 911:Drivers/STM32H7xx_HAL_Driver/Src/stm32h7xx_hal.c **** void HAL_DBGMCU_EnableDBGSleepMode(void)
 912:Drivers/STM32H7xx_HAL_Driver/Src/stm32h7xx_hal.c **** {
 1315              		.loc 1 912 1 is_stmt 1 view -0
 1316              		.cfi_startproc
 1317              		@ args = 0, pretend = 0, frame = 0
 1318              		@ frame_needed = 0, uses_anonymous_args = 0
 1319              		@ link register save eliminated.
 913:Drivers/STM32H7xx_HAL_Driver/Src/stm32h7xx_hal.c ****   SET_BIT(DBGMCU->CR, DBGMCU_CR_DBG_SLEEPD1);
 1320              		.loc 1 913 3 view .LVU240
 1321 0000 024A     		ldr	r2, .L129
 1322 0002 5368     		ldr	r3, [r2, #4]
 1323 0004 43F00103 		orr	r3, r3, #1
 1324 0008 5360     		str	r3, [r2, #4]
 914:Drivers/STM32H7xx_HAL_Driver/Src/stm32h7xx_hal.c **** }
 1325              		.loc 1 914 1 is_stmt 0 view .LVU241
 1326 000a 7047     		bx	lr
 1327              	.L130:
 1328              		.align	2
 1329              	.L129:
 1330 000c 0010005C 		.word	1543507968
 1331              		.cfi_endproc
 1332              	.LFE179:
 1334              		.section	.text.HAL_DBGMCU_DisableDBGSleepMode,"ax",%progbits
 1335              		.align	1
 1336              		.global	HAL_DBGMCU_DisableDBGSleepMode
 1337              		.syntax unified
 1338              		.thumb
 1339              		.thumb_func
 1341              	HAL_DBGMCU_DisableDBGSleepMode:
 1342              	.LFB180:
 915:Drivers/STM32H7xx_HAL_Driver/Src/stm32h7xx_hal.c **** 
 916:Drivers/STM32H7xx_HAL_Driver/Src/stm32h7xx_hal.c **** /**
 917:Drivers/STM32H7xx_HAL_Driver/Src/stm32h7xx_hal.c ****   * @brief  Disable the Debug Module during Domain1/CDomain SLEEP mode
 918:Drivers/STM32H7xx_HAL_Driver/Src/stm32h7xx_hal.c ****   * @retval None
 919:Drivers/STM32H7xx_HAL_Driver/Src/stm32h7xx_hal.c ****   */
 920:Drivers/STM32H7xx_HAL_Driver/Src/stm32h7xx_hal.c **** void HAL_DBGMCU_DisableDBGSleepMode(void)
 921:Drivers/STM32H7xx_HAL_Driver/Src/stm32h7xx_hal.c **** {
 1343              		.loc 1 921 1 is_stmt 1 view -0
 1344              		.cfi_startproc
 1345              		@ args = 0, pretend = 0, frame = 0
 1346              		@ frame_needed = 0, uses_anonymous_args = 0
 1347              		@ link register save eliminated.
 922:Drivers/STM32H7xx_HAL_Driver/Src/stm32h7xx_hal.c ****   CLEAR_BIT(DBGMCU->CR, DBGMCU_CR_DBG_SLEEPD1);
 1348              		.loc 1 922 3 view .LVU243
 1349 0000 024A     		ldr	r2, .L132
 1350 0002 5368     		ldr	r3, [r2, #4]
 1351 0004 23F00103 		bic	r3, r3, #1
ARM GAS  C:\Users\OSD\AppData\Local\Temp\ccdj6AO6.s 			page 41


 1352 0008 5360     		str	r3, [r2, #4]
 923:Drivers/STM32H7xx_HAL_Driver/Src/stm32h7xx_hal.c **** }
 1353              		.loc 1 923 1 is_stmt 0 view .LVU244
 1354 000a 7047     		bx	lr
 1355              	.L133:
 1356              		.align	2
 1357              	.L132:
 1358 000c 0010005C 		.word	1543507968
 1359              		.cfi_endproc
 1360              	.LFE180:
 1362              		.section	.text.HAL_DBGMCU_EnableDBGStopMode,"ax",%progbits
 1363              		.align	1
 1364              		.global	HAL_DBGMCU_EnableDBGStopMode
 1365              		.syntax unified
 1366              		.thumb
 1367              		.thumb_func
 1369              	HAL_DBGMCU_EnableDBGStopMode:
 1370              	.LFB181:
 924:Drivers/STM32H7xx_HAL_Driver/Src/stm32h7xx_hal.c **** 
 925:Drivers/STM32H7xx_HAL_Driver/Src/stm32h7xx_hal.c **** 
 926:Drivers/STM32H7xx_HAL_Driver/Src/stm32h7xx_hal.c **** /**
 927:Drivers/STM32H7xx_HAL_Driver/Src/stm32h7xx_hal.c ****   * @brief  Enable the Debug Module during Domain1/CDomain STOP mode
 928:Drivers/STM32H7xx_HAL_Driver/Src/stm32h7xx_hal.c ****   * @retval None
 929:Drivers/STM32H7xx_HAL_Driver/Src/stm32h7xx_hal.c ****   */
 930:Drivers/STM32H7xx_HAL_Driver/Src/stm32h7xx_hal.c **** void HAL_DBGMCU_EnableDBGStopMode(void)
 931:Drivers/STM32H7xx_HAL_Driver/Src/stm32h7xx_hal.c **** {
 1371              		.loc 1 931 1 is_stmt 1 view -0
 1372              		.cfi_startproc
 1373              		@ args = 0, pretend = 0, frame = 0
 1374              		@ frame_needed = 0, uses_anonymous_args = 0
 1375              		@ link register save eliminated.
 932:Drivers/STM32H7xx_HAL_Driver/Src/stm32h7xx_hal.c ****   SET_BIT(DBGMCU->CR, DBGMCU_CR_DBG_STOPD1);
 1376              		.loc 1 932 3 view .LVU246
 1377 0000 024A     		ldr	r2, .L135
 1378 0002 5368     		ldr	r3, [r2, #4]
 1379 0004 43F00203 		orr	r3, r3, #2
 1380 0008 5360     		str	r3, [r2, #4]
 933:Drivers/STM32H7xx_HAL_Driver/Src/stm32h7xx_hal.c **** }
 1381              		.loc 1 933 1 is_stmt 0 view .LVU247
 1382 000a 7047     		bx	lr
 1383              	.L136:
 1384              		.align	2
 1385              	.L135:
 1386 000c 0010005C 		.word	1543507968
 1387              		.cfi_endproc
 1388              	.LFE181:
 1390              		.section	.text.HAL_DBGMCU_DisableDBGStopMode,"ax",%progbits
 1391              		.align	1
 1392              		.global	HAL_DBGMCU_DisableDBGStopMode
 1393              		.syntax unified
 1394              		.thumb
 1395              		.thumb_func
 1397              	HAL_DBGMCU_DisableDBGStopMode:
 1398              	.LFB182:
 934:Drivers/STM32H7xx_HAL_Driver/Src/stm32h7xx_hal.c **** 
 935:Drivers/STM32H7xx_HAL_Driver/Src/stm32h7xx_hal.c **** /**
 936:Drivers/STM32H7xx_HAL_Driver/Src/stm32h7xx_hal.c ****   * @brief  Disable the Debug Module during Domain1/CDomain STOP mode
ARM GAS  C:\Users\OSD\AppData\Local\Temp\ccdj6AO6.s 			page 42


 937:Drivers/STM32H7xx_HAL_Driver/Src/stm32h7xx_hal.c ****   * @retval None
 938:Drivers/STM32H7xx_HAL_Driver/Src/stm32h7xx_hal.c ****   */
 939:Drivers/STM32H7xx_HAL_Driver/Src/stm32h7xx_hal.c **** void HAL_DBGMCU_DisableDBGStopMode(void)
 940:Drivers/STM32H7xx_HAL_Driver/Src/stm32h7xx_hal.c **** {
 1399              		.loc 1 940 1 is_stmt 1 view -0
 1400              		.cfi_startproc
 1401              		@ args = 0, pretend = 0, frame = 0
 1402              		@ frame_needed = 0, uses_anonymous_args = 0
 1403              		@ link register save eliminated.
 941:Drivers/STM32H7xx_HAL_Driver/Src/stm32h7xx_hal.c ****   CLEAR_BIT(DBGMCU->CR, DBGMCU_CR_DBG_STOPD1);
 1404              		.loc 1 941 3 view .LVU249
 1405 0000 024A     		ldr	r2, .L138
 1406 0002 5368     		ldr	r3, [r2, #4]
 1407 0004 23F00203 		bic	r3, r3, #2
 1408 0008 5360     		str	r3, [r2, #4]
 942:Drivers/STM32H7xx_HAL_Driver/Src/stm32h7xx_hal.c **** }
 1409              		.loc 1 942 1 is_stmt 0 view .LVU250
 1410 000a 7047     		bx	lr
 1411              	.L139:
 1412              		.align	2
 1413              	.L138:
 1414 000c 0010005C 		.word	1543507968
 1415              		.cfi_endproc
 1416              	.LFE182:
 1418              		.section	.text.HAL_DBGMCU_EnableDBGStandbyMode,"ax",%progbits
 1419              		.align	1
 1420              		.global	HAL_DBGMCU_EnableDBGStandbyMode
 1421              		.syntax unified
 1422              		.thumb
 1423              		.thumb_func
 1425              	HAL_DBGMCU_EnableDBGStandbyMode:
 1426              	.LFB183:
 943:Drivers/STM32H7xx_HAL_Driver/Src/stm32h7xx_hal.c **** 
 944:Drivers/STM32H7xx_HAL_Driver/Src/stm32h7xx_hal.c **** /**
 945:Drivers/STM32H7xx_HAL_Driver/Src/stm32h7xx_hal.c ****   * @brief  Enable the Debug Module during Domain1/CDomain STANDBY mode
 946:Drivers/STM32H7xx_HAL_Driver/Src/stm32h7xx_hal.c ****   * @retval None
 947:Drivers/STM32H7xx_HAL_Driver/Src/stm32h7xx_hal.c ****   */
 948:Drivers/STM32H7xx_HAL_Driver/Src/stm32h7xx_hal.c **** void HAL_DBGMCU_EnableDBGStandbyMode(void)
 949:Drivers/STM32H7xx_HAL_Driver/Src/stm32h7xx_hal.c **** {
 1427              		.loc 1 949 1 is_stmt 1 view -0
 1428              		.cfi_startproc
 1429              		@ args = 0, pretend = 0, frame = 0
 1430              		@ frame_needed = 0, uses_anonymous_args = 0
 1431              		@ link register save eliminated.
 950:Drivers/STM32H7xx_HAL_Driver/Src/stm32h7xx_hal.c ****   SET_BIT(DBGMCU->CR, DBGMCU_CR_DBG_STANDBYD1);
 1432              		.loc 1 950 3 view .LVU252
 1433 0000 024A     		ldr	r2, .L141
 1434 0002 5368     		ldr	r3, [r2, #4]
 1435 0004 43F00403 		orr	r3, r3, #4
 1436 0008 5360     		str	r3, [r2, #4]
 951:Drivers/STM32H7xx_HAL_Driver/Src/stm32h7xx_hal.c **** }
 1437              		.loc 1 951 1 is_stmt 0 view .LVU253
 1438 000a 7047     		bx	lr
 1439              	.L142:
 1440              		.align	2
 1441              	.L141:
 1442 000c 0010005C 		.word	1543507968
ARM GAS  C:\Users\OSD\AppData\Local\Temp\ccdj6AO6.s 			page 43


 1443              		.cfi_endproc
 1444              	.LFE183:
 1446              		.section	.text.HAL_DBGMCU_DisableDBGStandbyMode,"ax",%progbits
 1447              		.align	1
 1448              		.global	HAL_DBGMCU_DisableDBGStandbyMode
 1449              		.syntax unified
 1450              		.thumb
 1451              		.thumb_func
 1453              	HAL_DBGMCU_DisableDBGStandbyMode:
 1454              	.LFB184:
 952:Drivers/STM32H7xx_HAL_Driver/Src/stm32h7xx_hal.c **** 
 953:Drivers/STM32H7xx_HAL_Driver/Src/stm32h7xx_hal.c **** /**
 954:Drivers/STM32H7xx_HAL_Driver/Src/stm32h7xx_hal.c ****   * @brief  Disable the Debug Module during Domain1/CDomain STANDBY mode
 955:Drivers/STM32H7xx_HAL_Driver/Src/stm32h7xx_hal.c ****   * @retval None
 956:Drivers/STM32H7xx_HAL_Driver/Src/stm32h7xx_hal.c ****   */
 957:Drivers/STM32H7xx_HAL_Driver/Src/stm32h7xx_hal.c **** void HAL_DBGMCU_DisableDBGStandbyMode(void)
 958:Drivers/STM32H7xx_HAL_Driver/Src/stm32h7xx_hal.c **** {
 1455              		.loc 1 958 1 is_stmt 1 view -0
 1456              		.cfi_startproc
 1457              		@ args = 0, pretend = 0, frame = 0
 1458              		@ frame_needed = 0, uses_anonymous_args = 0
 1459              		@ link register save eliminated.
 959:Drivers/STM32H7xx_HAL_Driver/Src/stm32h7xx_hal.c ****   CLEAR_BIT(DBGMCU->CR, DBGMCU_CR_DBG_STANDBYD1);
 1460              		.loc 1 959 3 view .LVU255
 1461 0000 024A     		ldr	r2, .L144
 1462 0002 5368     		ldr	r3, [r2, #4]
 1463 0004 23F00403 		bic	r3, r3, #4
 1464 0008 5360     		str	r3, [r2, #4]
 960:Drivers/STM32H7xx_HAL_Driver/Src/stm32h7xx_hal.c **** }
 1465              		.loc 1 960 1 is_stmt 0 view .LVU256
 1466 000a 7047     		bx	lr
 1467              	.L145:
 1468              		.align	2
 1469              	.L144:
 1470 000c 0010005C 		.word	1543507968
 1471              		.cfi_endproc
 1472              	.LFE184:
 1474              		.section	.text.HAL_SetFMCMemorySwappingConfig,"ax",%progbits
 1475              		.align	1
 1476              		.global	HAL_SetFMCMemorySwappingConfig
 1477              		.syntax unified
 1478              		.thumb
 1479              		.thumb_func
 1481              	HAL_SetFMCMemorySwappingConfig:
 1482              	.LVL43:
 1483              	.LFB185:
 961:Drivers/STM32H7xx_HAL_Driver/Src/stm32h7xx_hal.c **** 
 962:Drivers/STM32H7xx_HAL_Driver/Src/stm32h7xx_hal.c **** #if defined(DUAL_CORE)
 963:Drivers/STM32H7xx_HAL_Driver/Src/stm32h7xx_hal.c **** /**
 964:Drivers/STM32H7xx_HAL_Driver/Src/stm32h7xx_hal.c ****   * @brief  Enable the Debug Module during Domain1 SLEEP mode
 965:Drivers/STM32H7xx_HAL_Driver/Src/stm32h7xx_hal.c ****   * @retval None
 966:Drivers/STM32H7xx_HAL_Driver/Src/stm32h7xx_hal.c ****   */
 967:Drivers/STM32H7xx_HAL_Driver/Src/stm32h7xx_hal.c **** void HAL_EnableDomain2DBGSleepMode(void)
 968:Drivers/STM32H7xx_HAL_Driver/Src/stm32h7xx_hal.c **** {
 969:Drivers/STM32H7xx_HAL_Driver/Src/stm32h7xx_hal.c ****   SET_BIT(DBGMCU->CR, DBGMCU_CR_DBG_SLEEPD2);
 970:Drivers/STM32H7xx_HAL_Driver/Src/stm32h7xx_hal.c **** }
 971:Drivers/STM32H7xx_HAL_Driver/Src/stm32h7xx_hal.c **** 
ARM GAS  C:\Users\OSD\AppData\Local\Temp\ccdj6AO6.s 			page 44


 972:Drivers/STM32H7xx_HAL_Driver/Src/stm32h7xx_hal.c **** /**
 973:Drivers/STM32H7xx_HAL_Driver/Src/stm32h7xx_hal.c ****   * @brief  Disable the Debug Module during Domain2 SLEEP mode
 974:Drivers/STM32H7xx_HAL_Driver/Src/stm32h7xx_hal.c ****   * @retval None
 975:Drivers/STM32H7xx_HAL_Driver/Src/stm32h7xx_hal.c ****   */
 976:Drivers/STM32H7xx_HAL_Driver/Src/stm32h7xx_hal.c **** void HAL_DisableDomain2DBGSleepMode(void)
 977:Drivers/STM32H7xx_HAL_Driver/Src/stm32h7xx_hal.c **** {
 978:Drivers/STM32H7xx_HAL_Driver/Src/stm32h7xx_hal.c ****   CLEAR_BIT(DBGMCU->CR, DBGMCU_CR_DBG_SLEEPD2);
 979:Drivers/STM32H7xx_HAL_Driver/Src/stm32h7xx_hal.c **** }
 980:Drivers/STM32H7xx_HAL_Driver/Src/stm32h7xx_hal.c **** 
 981:Drivers/STM32H7xx_HAL_Driver/Src/stm32h7xx_hal.c **** /**
 982:Drivers/STM32H7xx_HAL_Driver/Src/stm32h7xx_hal.c ****   * @brief  Enable the Debug Module during Domain2 STOP mode
 983:Drivers/STM32H7xx_HAL_Driver/Src/stm32h7xx_hal.c ****   * @retval None
 984:Drivers/STM32H7xx_HAL_Driver/Src/stm32h7xx_hal.c ****   */
 985:Drivers/STM32H7xx_HAL_Driver/Src/stm32h7xx_hal.c **** void HAL_EnableDomain2DBGStopMode(void)
 986:Drivers/STM32H7xx_HAL_Driver/Src/stm32h7xx_hal.c **** {
 987:Drivers/STM32H7xx_HAL_Driver/Src/stm32h7xx_hal.c ****   SET_BIT(DBGMCU->CR, DBGMCU_CR_DBG_STOPD2);
 988:Drivers/STM32H7xx_HAL_Driver/Src/stm32h7xx_hal.c **** }
 989:Drivers/STM32H7xx_HAL_Driver/Src/stm32h7xx_hal.c **** 
 990:Drivers/STM32H7xx_HAL_Driver/Src/stm32h7xx_hal.c **** /**
 991:Drivers/STM32H7xx_HAL_Driver/Src/stm32h7xx_hal.c ****   * @brief  Disable the Debug Module during Domain2 STOP mode
 992:Drivers/STM32H7xx_HAL_Driver/Src/stm32h7xx_hal.c ****   * @retval None
 993:Drivers/STM32H7xx_HAL_Driver/Src/stm32h7xx_hal.c ****   */
 994:Drivers/STM32H7xx_HAL_Driver/Src/stm32h7xx_hal.c **** void HAL_DisableDomain2DBGStopMode(void)
 995:Drivers/STM32H7xx_HAL_Driver/Src/stm32h7xx_hal.c **** {
 996:Drivers/STM32H7xx_HAL_Driver/Src/stm32h7xx_hal.c ****   CLEAR_BIT(DBGMCU->CR, DBGMCU_CR_DBG_STOPD2);
 997:Drivers/STM32H7xx_HAL_Driver/Src/stm32h7xx_hal.c **** }
 998:Drivers/STM32H7xx_HAL_Driver/Src/stm32h7xx_hal.c **** 
 999:Drivers/STM32H7xx_HAL_Driver/Src/stm32h7xx_hal.c **** /**
1000:Drivers/STM32H7xx_HAL_Driver/Src/stm32h7xx_hal.c ****   * @brief  Enable the Debug Module during Domain2 STANDBY mode
1001:Drivers/STM32H7xx_HAL_Driver/Src/stm32h7xx_hal.c ****   * @retval None
1002:Drivers/STM32H7xx_HAL_Driver/Src/stm32h7xx_hal.c ****   */
1003:Drivers/STM32H7xx_HAL_Driver/Src/stm32h7xx_hal.c **** void HAL_EnableDomain2DBGStandbyMode(void)
1004:Drivers/STM32H7xx_HAL_Driver/Src/stm32h7xx_hal.c **** {
1005:Drivers/STM32H7xx_HAL_Driver/Src/stm32h7xx_hal.c ****   SET_BIT(DBGMCU->CR, DBGMCU_CR_DBG_STANDBYD2);
1006:Drivers/STM32H7xx_HAL_Driver/Src/stm32h7xx_hal.c **** }
1007:Drivers/STM32H7xx_HAL_Driver/Src/stm32h7xx_hal.c **** 
1008:Drivers/STM32H7xx_HAL_Driver/Src/stm32h7xx_hal.c **** /**
1009:Drivers/STM32H7xx_HAL_Driver/Src/stm32h7xx_hal.c ****   * @brief  Disable the Debug Module during Domain2 STANDBY mode
1010:Drivers/STM32H7xx_HAL_Driver/Src/stm32h7xx_hal.c ****   * @retval None
1011:Drivers/STM32H7xx_HAL_Driver/Src/stm32h7xx_hal.c ****   */
1012:Drivers/STM32H7xx_HAL_Driver/Src/stm32h7xx_hal.c **** void HAL_DisableDomain2DBGStandbyMode(void)
1013:Drivers/STM32H7xx_HAL_Driver/Src/stm32h7xx_hal.c **** {
1014:Drivers/STM32H7xx_HAL_Driver/Src/stm32h7xx_hal.c ****   CLEAR_BIT(DBGMCU->CR, DBGMCU_CR_DBG_STANDBYD2);
1015:Drivers/STM32H7xx_HAL_Driver/Src/stm32h7xx_hal.c **** }
1016:Drivers/STM32H7xx_HAL_Driver/Src/stm32h7xx_hal.c **** #endif /*DUAL_CORE*/
1017:Drivers/STM32H7xx_HAL_Driver/Src/stm32h7xx_hal.c **** 
1018:Drivers/STM32H7xx_HAL_Driver/Src/stm32h7xx_hal.c **** #if defined(DBGMCU_CR_DBG_STOPD3)
1019:Drivers/STM32H7xx_HAL_Driver/Src/stm32h7xx_hal.c **** /**
1020:Drivers/STM32H7xx_HAL_Driver/Src/stm32h7xx_hal.c ****   * @brief  Enable the Debug Module during Domain3/SRDomain STOP mode
1021:Drivers/STM32H7xx_HAL_Driver/Src/stm32h7xx_hal.c ****   * @retval None
1022:Drivers/STM32H7xx_HAL_Driver/Src/stm32h7xx_hal.c ****   */
1023:Drivers/STM32H7xx_HAL_Driver/Src/stm32h7xx_hal.c **** void HAL_EnableDomain3DBGStopMode(void)
1024:Drivers/STM32H7xx_HAL_Driver/Src/stm32h7xx_hal.c **** {
1025:Drivers/STM32H7xx_HAL_Driver/Src/stm32h7xx_hal.c ****   SET_BIT(DBGMCU->CR, DBGMCU_CR_DBG_STOPD3);
1026:Drivers/STM32H7xx_HAL_Driver/Src/stm32h7xx_hal.c **** }
1027:Drivers/STM32H7xx_HAL_Driver/Src/stm32h7xx_hal.c **** 
1028:Drivers/STM32H7xx_HAL_Driver/Src/stm32h7xx_hal.c **** /**
ARM GAS  C:\Users\OSD\AppData\Local\Temp\ccdj6AO6.s 			page 45


1029:Drivers/STM32H7xx_HAL_Driver/Src/stm32h7xx_hal.c ****   * @brief  Disable the Debug Module during Domain3/SRDomain STOP mode
1030:Drivers/STM32H7xx_HAL_Driver/Src/stm32h7xx_hal.c ****   * @retval None
1031:Drivers/STM32H7xx_HAL_Driver/Src/stm32h7xx_hal.c ****   */
1032:Drivers/STM32H7xx_HAL_Driver/Src/stm32h7xx_hal.c **** void HAL_DisableDomain3DBGStopMode(void)
1033:Drivers/STM32H7xx_HAL_Driver/Src/stm32h7xx_hal.c **** {
1034:Drivers/STM32H7xx_HAL_Driver/Src/stm32h7xx_hal.c ****   CLEAR_BIT(DBGMCU->CR, DBGMCU_CR_DBG_STOPD3);
1035:Drivers/STM32H7xx_HAL_Driver/Src/stm32h7xx_hal.c **** }
1036:Drivers/STM32H7xx_HAL_Driver/Src/stm32h7xx_hal.c **** #endif /*DBGMCU_CR_DBG_STOPD3*/
1037:Drivers/STM32H7xx_HAL_Driver/Src/stm32h7xx_hal.c **** 
1038:Drivers/STM32H7xx_HAL_Driver/Src/stm32h7xx_hal.c **** #if defined(DBGMCU_CR_DBG_STANDBYD3)
1039:Drivers/STM32H7xx_HAL_Driver/Src/stm32h7xx_hal.c **** /**
1040:Drivers/STM32H7xx_HAL_Driver/Src/stm32h7xx_hal.c ****   * @brief  Enable the Debug Module during Domain3/SRDomain STANDBY mode
1041:Drivers/STM32H7xx_HAL_Driver/Src/stm32h7xx_hal.c ****   * @retval None
1042:Drivers/STM32H7xx_HAL_Driver/Src/stm32h7xx_hal.c ****   */
1043:Drivers/STM32H7xx_HAL_Driver/Src/stm32h7xx_hal.c **** void HAL_EnableDomain3DBGStandbyMode(void)
1044:Drivers/STM32H7xx_HAL_Driver/Src/stm32h7xx_hal.c **** {
1045:Drivers/STM32H7xx_HAL_Driver/Src/stm32h7xx_hal.c ****   SET_BIT(DBGMCU->CR, DBGMCU_CR_DBG_STANDBYD3);
1046:Drivers/STM32H7xx_HAL_Driver/Src/stm32h7xx_hal.c **** }
1047:Drivers/STM32H7xx_HAL_Driver/Src/stm32h7xx_hal.c **** 
1048:Drivers/STM32H7xx_HAL_Driver/Src/stm32h7xx_hal.c **** /**
1049:Drivers/STM32H7xx_HAL_Driver/Src/stm32h7xx_hal.c ****   * @brief  Disable the Debug Module during Domain3/SRDomain STANDBY mode
1050:Drivers/STM32H7xx_HAL_Driver/Src/stm32h7xx_hal.c ****   * @retval None
1051:Drivers/STM32H7xx_HAL_Driver/Src/stm32h7xx_hal.c ****   */
1052:Drivers/STM32H7xx_HAL_Driver/Src/stm32h7xx_hal.c **** void HAL_DisableDomain3DBGStandbyMode(void)
1053:Drivers/STM32H7xx_HAL_Driver/Src/stm32h7xx_hal.c **** {
1054:Drivers/STM32H7xx_HAL_Driver/Src/stm32h7xx_hal.c ****   CLEAR_BIT(DBGMCU->CR, DBGMCU_CR_DBG_STANDBYD3);
1055:Drivers/STM32H7xx_HAL_Driver/Src/stm32h7xx_hal.c **** }
1056:Drivers/STM32H7xx_HAL_Driver/Src/stm32h7xx_hal.c **** #endif /*DBGMCU_CR_DBG_STANDBYD3*/
1057:Drivers/STM32H7xx_HAL_Driver/Src/stm32h7xx_hal.c **** 
1058:Drivers/STM32H7xx_HAL_Driver/Src/stm32h7xx_hal.c **** /**
1059:Drivers/STM32H7xx_HAL_Driver/Src/stm32h7xx_hal.c ****   * @brief  Set the FMC Memory Mapping Swapping config.
1060:Drivers/STM32H7xx_HAL_Driver/Src/stm32h7xx_hal.c ****   * @param  BankMapConfig: Defines the FMC Bank mapping configuration. This parameter can be
1061:Drivers/STM32H7xx_HAL_Driver/Src/stm32h7xx_hal.c ****             FMC_SWAPBMAP_DISABLE, FMC_SWAPBMAP_SDRAM_SRAM, FMC_SWAPBMAP_SDRAMB2
1062:Drivers/STM32H7xx_HAL_Driver/Src/stm32h7xx_hal.c ****   * @retval HAL state
1063:Drivers/STM32H7xx_HAL_Driver/Src/stm32h7xx_hal.c ****   */
1064:Drivers/STM32H7xx_HAL_Driver/Src/stm32h7xx_hal.c **** void HAL_SetFMCMemorySwappingConfig(uint32_t BankMapConfig)
1065:Drivers/STM32H7xx_HAL_Driver/Src/stm32h7xx_hal.c **** {
 1484              		.loc 1 1065 1 is_stmt 1 view -0
 1485              		.cfi_startproc
 1486              		@ args = 0, pretend = 0, frame = 0
 1487              		@ frame_needed = 0, uses_anonymous_args = 0
 1488              		@ link register save eliminated.
1066:Drivers/STM32H7xx_HAL_Driver/Src/stm32h7xx_hal.c ****   /* Check the parameter */
1067:Drivers/STM32H7xx_HAL_Driver/Src/stm32h7xx_hal.c ****   assert_param(IS_FMC_SWAPBMAP_MODE(BankMapConfig));
 1489              		.loc 1 1067 3 view .LVU258
1068:Drivers/STM32H7xx_HAL_Driver/Src/stm32h7xx_hal.c ****   MODIFY_REG(FMC_Bank1_R->BTCR[0], FMC_BCR1_BMAP, BankMapConfig);
 1490              		.loc 1 1068 3 view .LVU259
 1491 0000 034A     		ldr	r2, .L147
 1492 0002 1368     		ldr	r3, [r2]
 1493 0004 23F04073 		bic	r3, r3, #50331648
 1494 0008 0343     		orrs	r3, r3, r0
 1495 000a 1360     		str	r3, [r2]
1069:Drivers/STM32H7xx_HAL_Driver/Src/stm32h7xx_hal.c **** }
 1496              		.loc 1 1069 1 is_stmt 0 view .LVU260
 1497 000c 7047     		bx	lr
 1498              	.L148:
 1499 000e 00BF     		.align	2
ARM GAS  C:\Users\OSD\AppData\Local\Temp\ccdj6AO6.s 			page 46


 1500              	.L147:
 1501 0010 00400052 		.word	1375748096
 1502              		.cfi_endproc
 1503              	.LFE185:
 1505              		.section	.text.HAL_GetFMCMemorySwappingConfig,"ax",%progbits
 1506              		.align	1
 1507              		.global	HAL_GetFMCMemorySwappingConfig
 1508              		.syntax unified
 1509              		.thumb
 1510              		.thumb_func
 1512              	HAL_GetFMCMemorySwappingConfig:
 1513              	.LFB186:
1070:Drivers/STM32H7xx_HAL_Driver/Src/stm32h7xx_hal.c **** 
1071:Drivers/STM32H7xx_HAL_Driver/Src/stm32h7xx_hal.c **** /**
1072:Drivers/STM32H7xx_HAL_Driver/Src/stm32h7xx_hal.c ****   * @brief  Get FMC Bank mapping mode.
1073:Drivers/STM32H7xx_HAL_Driver/Src/stm32h7xx_hal.c ****   * @retval The FMC Bank mapping mode. This parameter can be
1074:Drivers/STM32H7xx_HAL_Driver/Src/stm32h7xx_hal.c ****             FMC_SWAPBMAP_DISABLE, FMC_SWAPBMAP_SDRAM_SRAM, FMC_SWAPBMAP_SDRAMB2
1075:Drivers/STM32H7xx_HAL_Driver/Src/stm32h7xx_hal.c **** */
1076:Drivers/STM32H7xx_HAL_Driver/Src/stm32h7xx_hal.c **** uint32_t HAL_GetFMCMemorySwappingConfig(void)
1077:Drivers/STM32H7xx_HAL_Driver/Src/stm32h7xx_hal.c **** {
 1514              		.loc 1 1077 1 is_stmt 1 view -0
 1515              		.cfi_startproc
 1516              		@ args = 0, pretend = 0, frame = 0
 1517              		@ frame_needed = 0, uses_anonymous_args = 0
 1518              		@ link register save eliminated.
1078:Drivers/STM32H7xx_HAL_Driver/Src/stm32h7xx_hal.c ****   return READ_BIT(FMC_Bank1_R->BTCR[0], FMC_BCR1_BMAP);
 1519              		.loc 1 1078 3 view .LVU262
 1520              		.loc 1 1078 10 is_stmt 0 view .LVU263
 1521 0000 024B     		ldr	r3, .L150
 1522 0002 1868     		ldr	r0, [r3]
1079:Drivers/STM32H7xx_HAL_Driver/Src/stm32h7xx_hal.c **** }
 1523              		.loc 1 1079 1 view .LVU264
 1524 0004 00F04070 		and	r0, r0, #50331648
 1525 0008 7047     		bx	lr
 1526              	.L151:
 1527 000a 00BF     		.align	2
 1528              	.L150:
 1529 000c 00400052 		.word	1375748096
 1530              		.cfi_endproc
 1531              	.LFE186:
 1533              		.section	.text.HAL_EXTI_EdgeConfig,"ax",%progbits
 1534              		.align	1
 1535              		.global	HAL_EXTI_EdgeConfig
 1536              		.syntax unified
 1537              		.thumb
 1538              		.thumb_func
 1540              	HAL_EXTI_EdgeConfig:
 1541              	.LVL44:
 1542              	.LFB187:
1080:Drivers/STM32H7xx_HAL_Driver/Src/stm32h7xx_hal.c **** 
1081:Drivers/STM32H7xx_HAL_Driver/Src/stm32h7xx_hal.c **** /**
1082:Drivers/STM32H7xx_HAL_Driver/Src/stm32h7xx_hal.c ****   * @brief  Configure the EXTI input event line edge
1083:Drivers/STM32H7xx_HAL_Driver/Src/stm32h7xx_hal.c ****   * @note    No edge configuration for direct lines but for configurable lines:(EXTI_LINE0..EXTI_LI
1084:Drivers/STM32H7xx_HAL_Driver/Src/stm32h7xx_hal.c ****   *          EXTI_LINE49,EXTI_LINE51,EXTI_LINE82,EXTI_LINE84,EXTI_LINE85 and EXTI_LINE86.
1085:Drivers/STM32H7xx_HAL_Driver/Src/stm32h7xx_hal.c ****   * @param   EXTI_Line: Specifies the EXTI LINE, it can be one of the following values,
1086:Drivers/STM32H7xx_HAL_Driver/Src/stm32h7xx_hal.c ****   *         (EXTI_LINE0....EXTI_LINE87)excluding :line45, line81,line83 which are reserved
1087:Drivers/STM32H7xx_HAL_Driver/Src/stm32h7xx_hal.c ****   * @param   EXTI_Edge: Specifies  EXTI line Edge used.
ARM GAS  C:\Users\OSD\AppData\Local\Temp\ccdj6AO6.s 			page 47


1088:Drivers/STM32H7xx_HAL_Driver/Src/stm32h7xx_hal.c ****   *          This parameter can be one of the following values :
1089:Drivers/STM32H7xx_HAL_Driver/Src/stm32h7xx_hal.c ****   *   @arg EXTI_RISING_EDGE : Configurable line, with Rising edge trigger detection
1090:Drivers/STM32H7xx_HAL_Driver/Src/stm32h7xx_hal.c ****   *   @arg EXTI_FALLING_EDGE: Configurable line, with Falling edge trigger detection
1091:Drivers/STM32H7xx_HAL_Driver/Src/stm32h7xx_hal.c ****   * @retval None
1092:Drivers/STM32H7xx_HAL_Driver/Src/stm32h7xx_hal.c ****   */
1093:Drivers/STM32H7xx_HAL_Driver/Src/stm32h7xx_hal.c **** void HAL_EXTI_EdgeConfig(uint32_t EXTI_Line , uint32_t EXTI_Edge )
1094:Drivers/STM32H7xx_HAL_Driver/Src/stm32h7xx_hal.c **** {
 1543              		.loc 1 1094 1 is_stmt 1 view -0
 1544              		.cfi_startproc
 1545              		@ args = 0, pretend = 0, frame = 0
 1546              		@ frame_needed = 0, uses_anonymous_args = 0
 1547              		@ link register save eliminated.
 1548              		.loc 1 1094 1 is_stmt 0 view .LVU266
 1549 0000 30B4     		push	{r4, r5}
 1550              		.cfi_def_cfa_offset 8
 1551              		.cfi_offset 4, -8
 1552              		.cfi_offset 5, -4
1095:Drivers/STM32H7xx_HAL_Driver/Src/stm32h7xx_hal.c ****   /* Check the parameter */
1096:Drivers/STM32H7xx_HAL_Driver/Src/stm32h7xx_hal.c ****   assert_param(IS_HAL_EXTI_CONFIG_LINE(EXTI_Line));
 1553              		.loc 1 1096 3 is_stmt 1 view .LVU267
1097:Drivers/STM32H7xx_HAL_Driver/Src/stm32h7xx_hal.c ****   assert_param(IS_EXTI_EDGE_LINE(EXTI_Edge));
 1554              		.loc 1 1097 3 view .LVU268
1098:Drivers/STM32H7xx_HAL_Driver/Src/stm32h7xx_hal.c **** 
1099:Drivers/STM32H7xx_HAL_Driver/Src/stm32h7xx_hal.c ****   /* Clear Rising Falling edge configuration */
1100:Drivers/STM32H7xx_HAL_Driver/Src/stm32h7xx_hal.c ****   CLEAR_BIT(*(__IO uint32_t *) (((uint32_t) &(EXTI->FTSR1)) + ((EXTI_Line >> 5 ) * 0x20UL)), (uint3
 1555              		.loc 1 1100 3 view .LVU269
 1556 0002 4309     		lsrs	r3, r0, #5
 1557 0004 20F01F0C 		bic	ip, r0, #31
 1558 0008 114C     		ldr	r4, .L156
 1559 000a 5CF80450 		ldr	r5, [ip, r4]
 1560 000e 00F01F00 		and	r0, r0, #31
 1561              	.LVL45:
 1562              		.loc 1 1100 3 is_stmt 0 view .LVU270
 1563 0012 0122     		movs	r2, #1
 1564 0014 02FA00F0 		lsl	r0, r2, r0
 1565 0018 25EA0005 		bic	r5, r5, r0
 1566 001c 4CF80450 		str	r5, [ip, r4]
1101:Drivers/STM32H7xx_HAL_Driver/Src/stm32h7xx_hal.c ****   CLEAR_BIT( *(__IO uint32_t *) (((uint32_t) &(EXTI->RTSR1)) + ((EXTI_Line >> 5 ) * 0x20UL)), (uint
 1567              		.loc 1 1101 3 is_stmt 1 view .LVU271
 1568 0020 03F13073 		add	r3, r3, #46137344
 1569 0024 5B01     		lsls	r3, r3, #5
 1570 0026 1A68     		ldr	r2, [r3]
 1571 0028 22EA0002 		bic	r2, r2, r0
 1572 002c 1A60     		str	r2, [r3]
1102:Drivers/STM32H7xx_HAL_Driver/Src/stm32h7xx_hal.c **** 
1103:Drivers/STM32H7xx_HAL_Driver/Src/stm32h7xx_hal.c ****   if( (EXTI_Edge & EXTI_RISING_EDGE) == EXTI_RISING_EDGE)
 1573              		.loc 1 1103 3 view .LVU272
 1574              		.loc 1 1103 5 is_stmt 0 view .LVU273
 1575 002e 11F4801F 		tst	r1, #1048576
 1576 0032 02D0     		beq	.L153
1104:Drivers/STM32H7xx_HAL_Driver/Src/stm32h7xx_hal.c ****   {
1105:Drivers/STM32H7xx_HAL_Driver/Src/stm32h7xx_hal.c ****    SET_BIT( *(__IO uint32_t *) (((uint32_t) &(EXTI->RTSR1)) + ((EXTI_Line >> 5 ) * 0x20UL)), (uint3
 1577              		.loc 1 1105 4 is_stmt 1 view .LVU274
 1578 0034 1A68     		ldr	r2, [r3]
 1579 0036 0243     		orrs	r2, r2, r0
 1580 0038 1A60     		str	r2, [r3]
 1581              	.L153:
ARM GAS  C:\Users\OSD\AppData\Local\Temp\ccdj6AO6.s 			page 48


1106:Drivers/STM32H7xx_HAL_Driver/Src/stm32h7xx_hal.c ****   }
1107:Drivers/STM32H7xx_HAL_Driver/Src/stm32h7xx_hal.c ****   if( (EXTI_Edge & EXTI_FALLING_EDGE) == EXTI_FALLING_EDGE)
 1582              		.loc 1 1107 3 view .LVU275
 1583              		.loc 1 1107 5 is_stmt 0 view .LVU276
 1584 003a 11F4001F 		tst	r1, #2097152
 1585 003e 04D0     		beq	.L152
1108:Drivers/STM32H7xx_HAL_Driver/Src/stm32h7xx_hal.c ****   {
1109:Drivers/STM32H7xx_HAL_Driver/Src/stm32h7xx_hal.c ****    SET_BIT(*(__IO uint32_t *) (((uint32_t) &(EXTI->FTSR1)) + ((EXTI_Line >> 5 ) * 0x20UL)), (uint32
 1586              		.loc 1 1109 4 is_stmt 1 view .LVU277
 1587 0040 5CF80430 		ldr	r3, [ip, r4]
 1588 0044 1843     		orrs	r0, r0, r3
 1589 0046 4CF80400 		str	r0, [ip, r4]
 1590              	.L152:
1110:Drivers/STM32H7xx_HAL_Driver/Src/stm32h7xx_hal.c ****   }
1111:Drivers/STM32H7xx_HAL_Driver/Src/stm32h7xx_hal.c **** }
 1591              		.loc 1 1111 1 is_stmt 0 view .LVU278
 1592 004a 30BC     		pop	{r4, r5}
 1593              		.cfi_restore 5
 1594              		.cfi_restore 4
 1595              		.cfi_def_cfa_offset 0
 1596 004c 7047     		bx	lr
 1597              	.L157:
 1598 004e 00BF     		.align	2
 1599              	.L156:
 1600 0050 04000058 		.word	1476395012
 1601              		.cfi_endproc
 1602              	.LFE187:
 1604              		.section	.text.HAL_EXTI_GenerateSWInterrupt,"ax",%progbits
 1605              		.align	1
 1606              		.global	HAL_EXTI_GenerateSWInterrupt
 1607              		.syntax unified
 1608              		.thumb
 1609              		.thumb_func
 1611              	HAL_EXTI_GenerateSWInterrupt:
 1612              	.LVL46:
 1613              	.LFB188:
1112:Drivers/STM32H7xx_HAL_Driver/Src/stm32h7xx_hal.c **** 
1113:Drivers/STM32H7xx_HAL_Driver/Src/stm32h7xx_hal.c **** /**
1114:Drivers/STM32H7xx_HAL_Driver/Src/stm32h7xx_hal.c ****   * @brief  Generates a Software interrupt on selected EXTI line.
1115:Drivers/STM32H7xx_HAL_Driver/Src/stm32h7xx_hal.c ****   * @param   EXTI_Line: Specifies the EXTI LINE, it can be one of the following values,
1116:Drivers/STM32H7xx_HAL_Driver/Src/stm32h7xx_hal.c ****   *          (EXTI_LINE0..EXTI_LINE21),EXTI_LINE49,EXTI_LINE51,EXTI_LINE82,EXTI_LINE84,EXTI_LINE85 
1117:Drivers/STM32H7xx_HAL_Driver/Src/stm32h7xx_hal.c ****   * @retval None
1118:Drivers/STM32H7xx_HAL_Driver/Src/stm32h7xx_hal.c ****   */
1119:Drivers/STM32H7xx_HAL_Driver/Src/stm32h7xx_hal.c **** void HAL_EXTI_GenerateSWInterrupt(uint32_t EXTI_Line)
1120:Drivers/STM32H7xx_HAL_Driver/Src/stm32h7xx_hal.c **** {
 1614              		.loc 1 1120 1 is_stmt 1 view -0
 1615              		.cfi_startproc
 1616              		@ args = 0, pretend = 0, frame = 0
 1617              		@ frame_needed = 0, uses_anonymous_args = 0
 1618              		@ link register save eliminated.
1121:Drivers/STM32H7xx_HAL_Driver/Src/stm32h7xx_hal.c ****   /* Check the parameters */
1122:Drivers/STM32H7xx_HAL_Driver/Src/stm32h7xx_hal.c ****   assert_param(IS_HAL_EXTI_CONFIG_LINE(EXTI_Line));
 1619              		.loc 1 1122 3 view .LVU280
1123:Drivers/STM32H7xx_HAL_Driver/Src/stm32h7xx_hal.c **** 
1124:Drivers/STM32H7xx_HAL_Driver/Src/stm32h7xx_hal.c ****   SET_BIT(*(__IO uint32_t *) (((uint32_t) &(EXTI->SWIER1)) + ((EXTI_Line >> 5 ) * 0x20UL)), (uint32
 1620              		.loc 1 1124 3 view .LVU281
 1621 0000 20F01F0C 		bic	ip, r0, #31
ARM GAS  C:\Users\OSD\AppData\Local\Temp\ccdj6AO6.s 			page 49


 1622 0004 0549     		ldr	r1, .L159
 1623 0006 5CF80130 		ldr	r3, [ip, r1]
 1624 000a 00F01F00 		and	r0, r0, #31
 1625              	.LVL47:
 1626              		.loc 1 1124 3 is_stmt 0 view .LVU282
 1627 000e 0122     		movs	r2, #1
 1628 0010 02FA00F0 		lsl	r0, r2, r0
 1629 0014 1843     		orrs	r0, r0, r3
 1630 0016 4CF80100 		str	r0, [ip, r1]
1125:Drivers/STM32H7xx_HAL_Driver/Src/stm32h7xx_hal.c **** }
 1631              		.loc 1 1125 1 view .LVU283
 1632 001a 7047     		bx	lr
 1633              	.L160:
 1634              		.align	2
 1635              	.L159:
 1636 001c 08000058 		.word	1476395016
 1637              		.cfi_endproc
 1638              	.LFE188:
 1640              		.section	.text.HAL_EXTI_D1_ClearFlag,"ax",%progbits
 1641              		.align	1
 1642              		.global	HAL_EXTI_D1_ClearFlag
 1643              		.syntax unified
 1644              		.thumb
 1645              		.thumb_func
 1647              	HAL_EXTI_D1_ClearFlag:
 1648              	.LVL48:
 1649              	.LFB189:
1126:Drivers/STM32H7xx_HAL_Driver/Src/stm32h7xx_hal.c **** 
1127:Drivers/STM32H7xx_HAL_Driver/Src/stm32h7xx_hal.c **** 
1128:Drivers/STM32H7xx_HAL_Driver/Src/stm32h7xx_hal.c **** /**
1129:Drivers/STM32H7xx_HAL_Driver/Src/stm32h7xx_hal.c ****   * @brief  Clears the EXTI's line pending flags for Domain D1
1130:Drivers/STM32H7xx_HAL_Driver/Src/stm32h7xx_hal.c ****   * @param   EXTI_Line: Specifies the EXTI LINE, it can be one of the following values,
1131:Drivers/STM32H7xx_HAL_Driver/Src/stm32h7xx_hal.c ****   *         (EXTI_LINE0....EXTI_LINE87)excluding :line45, line81,line83 which are reserved
1132:Drivers/STM32H7xx_HAL_Driver/Src/stm32h7xx_hal.c ****   * @retval None
1133:Drivers/STM32H7xx_HAL_Driver/Src/stm32h7xx_hal.c ****   */
1134:Drivers/STM32H7xx_HAL_Driver/Src/stm32h7xx_hal.c **** void HAL_EXTI_D1_ClearFlag(uint32_t EXTI_Line)
1135:Drivers/STM32H7xx_HAL_Driver/Src/stm32h7xx_hal.c **** {
 1650              		.loc 1 1135 1 is_stmt 1 view -0
 1651              		.cfi_startproc
 1652              		@ args = 0, pretend = 0, frame = 0
 1653              		@ frame_needed = 0, uses_anonymous_args = 0
 1654              		@ link register save eliminated.
1136:Drivers/STM32H7xx_HAL_Driver/Src/stm32h7xx_hal.c ****   /* Check the parameters */
1137:Drivers/STM32H7xx_HAL_Driver/Src/stm32h7xx_hal.c ****  assert_param(IS_EXTI_D1_LINE(EXTI_Line));
 1655              		.loc 1 1137 2 view .LVU285
1138:Drivers/STM32H7xx_HAL_Driver/Src/stm32h7xx_hal.c ****  WRITE_REG(*(__IO uint32_t *) (((uint32_t) &(EXTI_D1->PR1)) + ((EXTI_Line >> 5 ) * 0x10UL)), (uint3
 1656              		.loc 1 1138 2 view .LVU286
 1657 0000 00F01F02 		and	r2, r0, #31
 1658 0004 4009     		lsrs	r0, r0, #5
 1659              	.LVL49:
 1660              		.loc 1 1138 2 is_stmt 0 view .LVU287
 1661 0006 0001     		lsls	r0, r0, #4
 1662 0008 0123     		movs	r3, #1
 1663 000a 9340     		lsls	r3, r3, r2
 1664 000c 014A     		ldr	r2, .L162
 1665 000e 8350     		str	r3, [r0, r2]
1139:Drivers/STM32H7xx_HAL_Driver/Src/stm32h7xx_hal.c **** 
ARM GAS  C:\Users\OSD\AppData\Local\Temp\ccdj6AO6.s 			page 50


1140:Drivers/STM32H7xx_HAL_Driver/Src/stm32h7xx_hal.c **** }
 1666              		.loc 1 1140 1 view .LVU288
 1667 0010 7047     		bx	lr
 1668              	.L163:
 1669 0012 00BF     		.align	2
 1670              	.L162:
 1671 0014 88000058 		.word	1476395144
 1672              		.cfi_endproc
 1673              	.LFE189:
 1675              		.section	.text.HAL_EXTI_D1_EventInputConfig,"ax",%progbits
 1676              		.align	1
 1677              		.global	HAL_EXTI_D1_EventInputConfig
 1678              		.syntax unified
 1679              		.thumb
 1680              		.thumb_func
 1682              	HAL_EXTI_D1_EventInputConfig:
 1683              	.LVL50:
 1684              	.LFB190:
1141:Drivers/STM32H7xx_HAL_Driver/Src/stm32h7xx_hal.c **** 
1142:Drivers/STM32H7xx_HAL_Driver/Src/stm32h7xx_hal.c **** #if defined(DUAL_CORE)
1143:Drivers/STM32H7xx_HAL_Driver/Src/stm32h7xx_hal.c **** /**
1144:Drivers/STM32H7xx_HAL_Driver/Src/stm32h7xx_hal.c ****   * @brief  Clears the EXTI's line pending flags for Domain D2
1145:Drivers/STM32H7xx_HAL_Driver/Src/stm32h7xx_hal.c ****   * @param   EXTI_Line: Specifies the EXTI LINE, it can be one of the following values,
1146:Drivers/STM32H7xx_HAL_Driver/Src/stm32h7xx_hal.c ****   *         (EXTI_LINE0....EXTI_LINE87)excluding :line45, line81,line83 which are reserved
1147:Drivers/STM32H7xx_HAL_Driver/Src/stm32h7xx_hal.c ****   * @retval None
1148:Drivers/STM32H7xx_HAL_Driver/Src/stm32h7xx_hal.c ****   */
1149:Drivers/STM32H7xx_HAL_Driver/Src/stm32h7xx_hal.c **** void HAL_EXTI_D2_ClearFlag(uint32_t EXTI_Line)
1150:Drivers/STM32H7xx_HAL_Driver/Src/stm32h7xx_hal.c **** {
1151:Drivers/STM32H7xx_HAL_Driver/Src/stm32h7xx_hal.c ****   /* Check the parameters */
1152:Drivers/STM32H7xx_HAL_Driver/Src/stm32h7xx_hal.c ****  assert_param(IS_EXTI_D2_LINE(EXTI_Line));
1153:Drivers/STM32H7xx_HAL_Driver/Src/stm32h7xx_hal.c ****  WRITE_REG(*(__IO uint32_t *) (((uint32_t) &(EXTI_D2->PR1)) + ((EXTI_Line >> 5 ) * 0x10UL)), (uint3
1154:Drivers/STM32H7xx_HAL_Driver/Src/stm32h7xx_hal.c **** }
1155:Drivers/STM32H7xx_HAL_Driver/Src/stm32h7xx_hal.c **** 
1156:Drivers/STM32H7xx_HAL_Driver/Src/stm32h7xx_hal.c **** #endif /*DUAL_CORE*/
1157:Drivers/STM32H7xx_HAL_Driver/Src/stm32h7xx_hal.c **** /**
1158:Drivers/STM32H7xx_HAL_Driver/Src/stm32h7xx_hal.c ****   * @brief  Configure the EXTI input event line for Domain D1
1159:Drivers/STM32H7xx_HAL_Driver/Src/stm32h7xx_hal.c ****   * @param   EXTI_Line: Specifies the EXTI LINE, it can be one of the following values,
1160:Drivers/STM32H7xx_HAL_Driver/Src/stm32h7xx_hal.c ****   *         (EXTI_LINE0....EXTI_LINE87)excluding :line45, line81,line83 which are reserved
1161:Drivers/STM32H7xx_HAL_Driver/Src/stm32h7xx_hal.c ****   * @param   EXTI_Mode: Specifies which EXTI line is used as interrupt or an event.
1162:Drivers/STM32H7xx_HAL_Driver/Src/stm32h7xx_hal.c ****   *          This parameter can be one or a combination of the following values :
1163:Drivers/STM32H7xx_HAL_Driver/Src/stm32h7xx_hal.c ****   *   @arg EXTI_MODE_IT :  Interrupt Mode selected
1164:Drivers/STM32H7xx_HAL_Driver/Src/stm32h7xx_hal.c ****   *   @arg EXTI_MODE_EVT : Event Mode selected
1165:Drivers/STM32H7xx_HAL_Driver/Src/stm32h7xx_hal.c ****   * @param   EXTI_LineCmd controls (Enable/Disable) the EXTI line.
1166:Drivers/STM32H7xx_HAL_Driver/Src/stm32h7xx_hal.c **** 
1167:Drivers/STM32H7xx_HAL_Driver/Src/stm32h7xx_hal.c ****   * @retval None
1168:Drivers/STM32H7xx_HAL_Driver/Src/stm32h7xx_hal.c ****   */
1169:Drivers/STM32H7xx_HAL_Driver/Src/stm32h7xx_hal.c **** void HAL_EXTI_D1_EventInputConfig(uint32_t EXTI_Line , uint32_t EXTI_Mode,  uint32_t EXTI_LineCmd )
1170:Drivers/STM32H7xx_HAL_Driver/Src/stm32h7xx_hal.c **** {
 1685              		.loc 1 1170 1 is_stmt 1 view -0
 1686              		.cfi_startproc
 1687              		@ args = 0, pretend = 0, frame = 0
 1688              		@ frame_needed = 0, uses_anonymous_args = 0
 1689              		.loc 1 1170 1 is_stmt 0 view .LVU290
 1690 0000 10B5     		push	{r4, lr}
 1691              		.cfi_def_cfa_offset 8
 1692              		.cfi_offset 4, -8
 1693              		.cfi_offset 14, -4
ARM GAS  C:\Users\OSD\AppData\Local\Temp\ccdj6AO6.s 			page 51


1171:Drivers/STM32H7xx_HAL_Driver/Src/stm32h7xx_hal.c ****   /* Check the parameter */
1172:Drivers/STM32H7xx_HAL_Driver/Src/stm32h7xx_hal.c ****   assert_param(IS_EXTI_D1_LINE(EXTI_Line));
 1694              		.loc 1 1172 3 is_stmt 1 view .LVU291
1173:Drivers/STM32H7xx_HAL_Driver/Src/stm32h7xx_hal.c ****   assert_param(IS_EXTI_MODE_LINE(EXTI_Mode));
 1695              		.loc 1 1173 3 view .LVU292
1174:Drivers/STM32H7xx_HAL_Driver/Src/stm32h7xx_hal.c **** 
1175:Drivers/STM32H7xx_HAL_Driver/Src/stm32h7xx_hal.c ****   if( (EXTI_Mode & EXTI_MODE_IT) == EXTI_MODE_IT)
 1696              		.loc 1 1175 3 view .LVU293
 1697              		.loc 1 1175 5 is_stmt 0 view .LVU294
 1698 0002 11F4803F 		tst	r1, #65536
 1699 0006 0ED0     		beq	.L165
1176:Drivers/STM32H7xx_HAL_Driver/Src/stm32h7xx_hal.c ****   {
1177:Drivers/STM32H7xx_HAL_Driver/Src/stm32h7xx_hal.c ****      if( EXTI_LineCmd == 0UL)
 1700              		.loc 1 1177 6 is_stmt 1 view .LVU295
 1701              		.loc 1 1177 8 is_stmt 0 view .LVU296
 1702 0008 EAB9     		cbnz	r2, .L166
1178:Drivers/STM32H7xx_HAL_Driver/Src/stm32h7xx_hal.c ****      {
1179:Drivers/STM32H7xx_HAL_Driver/Src/stm32h7xx_hal.c ****        /* Clear EXTI line configuration */
1180:Drivers/STM32H7xx_HAL_Driver/Src/stm32h7xx_hal.c ****         CLEAR_BIT(*(__IO uint32_t *) (((uint32_t) &(EXTI_D1->IMR1)) + ((EXTI_Line >> 5 ) * 0x10UL))
 1703              		.loc 1 1180 9 is_stmt 1 view .LVU297
 1704 000a 1C4B     		ldr	r3, .L170
 1705 000c 03EB5013 		add	r3, r3, r0, lsr #5
 1706 0010 1B01     		lsls	r3, r3, #4
 1707 0012 1C68     		ldr	r4, [r3]
 1708 0014 00F01F0E 		and	lr, r0, #31
 1709 0018 4FF0010C 		mov	ip, #1
 1710 001c 0CFA0EFC 		lsl	ip, ip, lr
 1711 0020 24EA0C04 		bic	r4, r4, ip
 1712 0024 1C60     		str	r4, [r3]
 1713              	.L165:
1181:Drivers/STM32H7xx_HAL_Driver/Src/stm32h7xx_hal.c ****      }
1182:Drivers/STM32H7xx_HAL_Driver/Src/stm32h7xx_hal.c ****      else
1183:Drivers/STM32H7xx_HAL_Driver/Src/stm32h7xx_hal.c ****      {
1184:Drivers/STM32H7xx_HAL_Driver/Src/stm32h7xx_hal.c ****         SET_BIT(*(__IO uint32_t *) (((uint32_t) &(EXTI_D1->IMR1)) + ((EXTI_Line >> 5 ) * 0x10UL)), 
1185:Drivers/STM32H7xx_HAL_Driver/Src/stm32h7xx_hal.c ****      }
1186:Drivers/STM32H7xx_HAL_Driver/Src/stm32h7xx_hal.c ****   }
1187:Drivers/STM32H7xx_HAL_Driver/Src/stm32h7xx_hal.c **** 
1188:Drivers/STM32H7xx_HAL_Driver/Src/stm32h7xx_hal.c ****   if( (EXTI_Mode & EXTI_MODE_EVT) == EXTI_MODE_EVT)
 1714              		.loc 1 1188 3 view .LVU298
 1715              		.loc 1 1188 5 is_stmt 0 view .LVU299
 1716 0026 11F4003F 		tst	r1, #131072
 1717 002a 0BD0     		beq	.L164
1189:Drivers/STM32H7xx_HAL_Driver/Src/stm32h7xx_hal.c ****   {
1190:Drivers/STM32H7xx_HAL_Driver/Src/stm32h7xx_hal.c ****     if( EXTI_LineCmd == 0UL)
 1718              		.loc 1 1190 5 is_stmt 1 view .LVU300
 1719              		.loc 1 1190 7 is_stmt 0 view .LVU301
 1720 002c D2B9     		cbnz	r2, .L168
1191:Drivers/STM32H7xx_HAL_Driver/Src/stm32h7xx_hal.c ****     {
1192:Drivers/STM32H7xx_HAL_Driver/Src/stm32h7xx_hal.c ****       /* Clear EXTI line configuration */
1193:Drivers/STM32H7xx_HAL_Driver/Src/stm32h7xx_hal.c ****       CLEAR_BIT(  *(__IO uint32_t *) (((uint32_t) &(EXTI_D1->EMR1)) + ((EXTI_Line >> 5 ) * 0x10UL))
 1721              		.loc 1 1193 7 is_stmt 1 view .LVU302
 1722 002e 4309     		lsrs	r3, r0, #5
 1723 0030 1B01     		lsls	r3, r3, #4
 1724 0032 1349     		ldr	r1, .L170+4
 1725              	.LVL51:
 1726              		.loc 1 1193 7 is_stmt 0 view .LVU303
 1727 0034 5A58     		ldr	r2, [r3, r1]
ARM GAS  C:\Users\OSD\AppData\Local\Temp\ccdj6AO6.s 			page 52


 1728              	.LVL52:
 1729              		.loc 1 1193 7 view .LVU304
 1730 0036 00F01F04 		and	r4, r0, #31
 1731 003a 0120     		movs	r0, #1
 1732              	.LVL53:
 1733              		.loc 1 1193 7 view .LVU305
 1734 003c A040     		lsls	r0, r0, r4
 1735 003e 22EA0000 		bic	r0, r2, r0
 1736 0042 5850     		str	r0, [r3, r1]
 1737              	.L164:
1194:Drivers/STM32H7xx_HAL_Driver/Src/stm32h7xx_hal.c ****     }
1195:Drivers/STM32H7xx_HAL_Driver/Src/stm32h7xx_hal.c ****     else
1196:Drivers/STM32H7xx_HAL_Driver/Src/stm32h7xx_hal.c ****     {
1197:Drivers/STM32H7xx_HAL_Driver/Src/stm32h7xx_hal.c ****       SET_BIT(  *(__IO uint32_t *) (((uint32_t) &(EXTI_D1->EMR1)) + ((EXTI_Line >> 5 ) * 0x10UL)), 
1198:Drivers/STM32H7xx_HAL_Driver/Src/stm32h7xx_hal.c ****     }
1199:Drivers/STM32H7xx_HAL_Driver/Src/stm32h7xx_hal.c ****   }
1200:Drivers/STM32H7xx_HAL_Driver/Src/stm32h7xx_hal.c **** }
 1738              		.loc 1 1200 1 view .LVU306
 1739 0044 10BD     		pop	{r4, pc}
 1740              	.LVL54:
 1741              	.L166:
1184:Drivers/STM32H7xx_HAL_Driver/Src/stm32h7xx_hal.c ****      }
 1742              		.loc 1 1184 9 is_stmt 1 view .LVU307
 1743 0046 0D4B     		ldr	r3, .L170
 1744 0048 03EB5013 		add	r3, r3, r0, lsr #5
 1745 004c 1B01     		lsls	r3, r3, #4
 1746 004e 1C68     		ldr	r4, [r3]
 1747 0050 00F01F0E 		and	lr, r0, #31
 1748 0054 4FF0010C 		mov	ip, #1
 1749 0058 0CFA0EFC 		lsl	ip, ip, lr
 1750 005c 44EA0C04 		orr	r4, r4, ip
 1751 0060 1C60     		str	r4, [r3]
 1752 0062 E0E7     		b	.L165
 1753              	.L168:
1197:Drivers/STM32H7xx_HAL_Driver/Src/stm32h7xx_hal.c ****     }
 1754              		.loc 1 1197 7 view .LVU308
 1755 0064 4309     		lsrs	r3, r0, #5
 1756 0066 1B01     		lsls	r3, r3, #4
 1757 0068 054C     		ldr	r4, .L170+4
 1758 006a 1A59     		ldr	r2, [r3, r4]
 1759              	.LVL55:
1197:Drivers/STM32H7xx_HAL_Driver/Src/stm32h7xx_hal.c ****     }
 1760              		.loc 1 1197 7 is_stmt 0 view .LVU309
 1761 006c 00F01F00 		and	r0, r0, #31
 1762              	.LVL56:
1197:Drivers/STM32H7xx_HAL_Driver/Src/stm32h7xx_hal.c ****     }
 1763              		.loc 1 1197 7 view .LVU310
 1764 0070 0121     		movs	r1, #1
 1765              	.LVL57:
1197:Drivers/STM32H7xx_HAL_Driver/Src/stm32h7xx_hal.c ****     }
 1766              		.loc 1 1197 7 view .LVU311
 1767 0072 01FA00F0 		lsl	r0, r1, r0
 1768 0076 1043     		orrs	r0, r0, r2
 1769 0078 1851     		str	r0, [r3, r4]
 1770              		.loc 1 1200 1 view .LVU312
 1771 007a E3E7     		b	.L164
 1772              	.L171:
ARM GAS  C:\Users\OSD\AppData\Local\Temp\ccdj6AO6.s 			page 53


 1773              		.align	2
 1774              	.L170:
 1775 007c 08008005 		.word	92274696
 1776 0080 84000058 		.word	1476395140
 1777              		.cfi_endproc
 1778              	.LFE190:
 1780              		.section	.text.HAL_EXTI_D3_EventInputConfig,"ax",%progbits
 1781              		.align	1
 1782              		.global	HAL_EXTI_D3_EventInputConfig
 1783              		.syntax unified
 1784              		.thumb
 1785              		.thumb_func
 1787              	HAL_EXTI_D3_EventInputConfig:
 1788              	.LVL58:
 1789              	.LFB191:
1201:Drivers/STM32H7xx_HAL_Driver/Src/stm32h7xx_hal.c **** 
1202:Drivers/STM32H7xx_HAL_Driver/Src/stm32h7xx_hal.c **** #if defined(DUAL_CORE)
1203:Drivers/STM32H7xx_HAL_Driver/Src/stm32h7xx_hal.c **** /**
1204:Drivers/STM32H7xx_HAL_Driver/Src/stm32h7xx_hal.c ****   * @brief  Configure the EXTI input event line for Domain D2
1205:Drivers/STM32H7xx_HAL_Driver/Src/stm32h7xx_hal.c ****   * @param   EXTI_Line: Specifies the EXTI LINE, it can be one of the following values,
1206:Drivers/STM32H7xx_HAL_Driver/Src/stm32h7xx_hal.c ****   *         (EXTI_LINE0....EXTI_LINE87)excluding :line45, line81,line83 which are reserved
1207:Drivers/STM32H7xx_HAL_Driver/Src/stm32h7xx_hal.c ****   * @param   EXTI_Mode: Specifies which EXTI line is used as interrupt or an event.
1208:Drivers/STM32H7xx_HAL_Driver/Src/stm32h7xx_hal.c ****   *          This parameter can be one or a combination of the following values :
1209:Drivers/STM32H7xx_HAL_Driver/Src/stm32h7xx_hal.c ****   *   @arg EXTI_MODE_IT :  Interrupt Mode selected
1210:Drivers/STM32H7xx_HAL_Driver/Src/stm32h7xx_hal.c ****   *   @arg EXTI_MODE_EVT : Event Mode selected
1211:Drivers/STM32H7xx_HAL_Driver/Src/stm32h7xx_hal.c ****   * @param   EXTI_LineCmd controls (Enable/Disable) the EXTI line.
1212:Drivers/STM32H7xx_HAL_Driver/Src/stm32h7xx_hal.c **** 
1213:Drivers/STM32H7xx_HAL_Driver/Src/stm32h7xx_hal.c ****   * @retval None
1214:Drivers/STM32H7xx_HAL_Driver/Src/stm32h7xx_hal.c ****   */
1215:Drivers/STM32H7xx_HAL_Driver/Src/stm32h7xx_hal.c **** void HAL_EXTI_D2_EventInputConfig(uint32_t EXTI_Line , uint32_t EXTI_Mode,  uint32_t EXTI_LineCmd )
1216:Drivers/STM32H7xx_HAL_Driver/Src/stm32h7xx_hal.c **** {
1217:Drivers/STM32H7xx_HAL_Driver/Src/stm32h7xx_hal.c ****   /* Check the parameter */
1218:Drivers/STM32H7xx_HAL_Driver/Src/stm32h7xx_hal.c ****   assert_param(IS_EXTI_D2_LINE(EXTI_Line));
1219:Drivers/STM32H7xx_HAL_Driver/Src/stm32h7xx_hal.c ****   assert_param(IS_EXTI_MODE_LINE(EXTI_Mode));
1220:Drivers/STM32H7xx_HAL_Driver/Src/stm32h7xx_hal.c **** 
1221:Drivers/STM32H7xx_HAL_Driver/Src/stm32h7xx_hal.c ****   if( (EXTI_Mode & EXTI_MODE_IT) == EXTI_MODE_IT)
1222:Drivers/STM32H7xx_HAL_Driver/Src/stm32h7xx_hal.c ****   {
1223:Drivers/STM32H7xx_HAL_Driver/Src/stm32h7xx_hal.c ****     if( EXTI_LineCmd == 0UL)
1224:Drivers/STM32H7xx_HAL_Driver/Src/stm32h7xx_hal.c ****     {
1225:Drivers/STM32H7xx_HAL_Driver/Src/stm32h7xx_hal.c ****     /* Clear EXTI line configuration */
1226:Drivers/STM32H7xx_HAL_Driver/Src/stm32h7xx_hal.c ****      CLEAR_BIT(*(__IO uint32_t *) (((uint32_t) &(EXTI_D2->IMR1)) + ((EXTI_Line >> 5 ) * 0x10UL)),(u
1227:Drivers/STM32H7xx_HAL_Driver/Src/stm32h7xx_hal.c ****     }
1228:Drivers/STM32H7xx_HAL_Driver/Src/stm32h7xx_hal.c ****     else
1229:Drivers/STM32H7xx_HAL_Driver/Src/stm32h7xx_hal.c ****     {
1230:Drivers/STM32H7xx_HAL_Driver/Src/stm32h7xx_hal.c ****      SET_BIT(*(__IO uint32_t *) (((uint32_t) &(EXTI_D2->IMR1)) + ((EXTI_Line >> 5 ) * 0x10UL)), (ui
1231:Drivers/STM32H7xx_HAL_Driver/Src/stm32h7xx_hal.c ****     }
1232:Drivers/STM32H7xx_HAL_Driver/Src/stm32h7xx_hal.c ****   }
1233:Drivers/STM32H7xx_HAL_Driver/Src/stm32h7xx_hal.c **** 
1234:Drivers/STM32H7xx_HAL_Driver/Src/stm32h7xx_hal.c ****   if( (EXTI_Mode & EXTI_MODE_EVT) == EXTI_MODE_EVT)
1235:Drivers/STM32H7xx_HAL_Driver/Src/stm32h7xx_hal.c ****   {
1236:Drivers/STM32H7xx_HAL_Driver/Src/stm32h7xx_hal.c ****     if( EXTI_LineCmd == 0UL)
1237:Drivers/STM32H7xx_HAL_Driver/Src/stm32h7xx_hal.c ****     {
1238:Drivers/STM32H7xx_HAL_Driver/Src/stm32h7xx_hal.c ****       /* Clear EXTI line configuration */
1239:Drivers/STM32H7xx_HAL_Driver/Src/stm32h7xx_hal.c ****       CLEAR_BIT(  *(__IO uint32_t *) (((uint32_t) &(EXTI_D2->EMR1)) + ((EXTI_Line >> 5 ) * 0x10UL))
1240:Drivers/STM32H7xx_HAL_Driver/Src/stm32h7xx_hal.c ****     }
1241:Drivers/STM32H7xx_HAL_Driver/Src/stm32h7xx_hal.c ****     else
1242:Drivers/STM32H7xx_HAL_Driver/Src/stm32h7xx_hal.c ****     {
ARM GAS  C:\Users\OSD\AppData\Local\Temp\ccdj6AO6.s 			page 54


1243:Drivers/STM32H7xx_HAL_Driver/Src/stm32h7xx_hal.c ****       SET_BIT(  *(__IO uint32_t *) (((uint32_t) &(EXTI_D2->EMR1)) + ((EXTI_Line >> 5 ) * 0x10UL)), 
1244:Drivers/STM32H7xx_HAL_Driver/Src/stm32h7xx_hal.c ****     }
1245:Drivers/STM32H7xx_HAL_Driver/Src/stm32h7xx_hal.c ****   }
1246:Drivers/STM32H7xx_HAL_Driver/Src/stm32h7xx_hal.c **** }
1247:Drivers/STM32H7xx_HAL_Driver/Src/stm32h7xx_hal.c **** #endif /*DUAL_CORE*/
1248:Drivers/STM32H7xx_HAL_Driver/Src/stm32h7xx_hal.c **** 
1249:Drivers/STM32H7xx_HAL_Driver/Src/stm32h7xx_hal.c **** /**
1250:Drivers/STM32H7xx_HAL_Driver/Src/stm32h7xx_hal.c ****   * @brief  Configure the EXTI input event line for Domain D3
1251:Drivers/STM32H7xx_HAL_Driver/Src/stm32h7xx_hal.c ****   * @param   EXTI_Line: Specifies the EXTI LINE, it can be one of the following values,
1252:Drivers/STM32H7xx_HAL_Driver/Src/stm32h7xx_hal.c ****   *         (EXTI_LINE0...EXTI_LINE15),(EXTI_LINE19...EXTI_LINE21),EXTI_LINE25, EXTI_LINE34,
1253:Drivers/STM32H7xx_HAL_Driver/Src/stm32h7xx_hal.c ****   *          EXTI_LINE35,EXTI_LINE41,(EXTI_LINE48...EXTI_LINE53)
1254:Drivers/STM32H7xx_HAL_Driver/Src/stm32h7xx_hal.c ****   * @param   EXTI_LineCmd controls (Enable/Disable) the EXTI line.
1255:Drivers/STM32H7xx_HAL_Driver/Src/stm32h7xx_hal.c ****   * @param   EXTI_ClearSrc: Specifies the clear source of D3 pending event.
1256:Drivers/STM32H7xx_HAL_Driver/Src/stm32h7xx_hal.c ****   *          This parameter can be one of the following values :
1257:Drivers/STM32H7xx_HAL_Driver/Src/stm32h7xx_hal.c ****   *   @arg BDMA_CH6_CLEAR : BDMA ch6 event selected as D3 domain pendclear source
1258:Drivers/STM32H7xx_HAL_Driver/Src/stm32h7xx_hal.c ****   *   @arg BDMA_CH7_CLEAR : BDMA ch7 event selected as D3 domain pendclear source
1259:Drivers/STM32H7xx_HAL_Driver/Src/stm32h7xx_hal.c ****   *   @arg LPTIM4_OUT_CLEAR : LPTIM4 out selected as D3 domain pendclear source
1260:Drivers/STM32H7xx_HAL_Driver/Src/stm32h7xx_hal.c ****   *   @arg LPTIM5_OUT_CLEAR : LPTIM5 out selected as D3 domain pendclear source
1261:Drivers/STM32H7xx_HAL_Driver/Src/stm32h7xx_hal.c ****   * @retval None
1262:Drivers/STM32H7xx_HAL_Driver/Src/stm32h7xx_hal.c ****   */
1263:Drivers/STM32H7xx_HAL_Driver/Src/stm32h7xx_hal.c **** void HAL_EXTI_D3_EventInputConfig(uint32_t EXTI_Line, uint32_t EXTI_LineCmd , uint32_t EXTI_ClearSr
1264:Drivers/STM32H7xx_HAL_Driver/Src/stm32h7xx_hal.c **** {
 1790              		.loc 1 1264 1 is_stmt 1 view -0
 1791              		.cfi_startproc
 1792              		@ args = 0, pretend = 0, frame = 0
 1793              		@ frame_needed = 0, uses_anonymous_args = 0
 1794              		.loc 1 1264 1 is_stmt 0 view .LVU314
 1795 0000 10B5     		push	{r4, lr}
 1796              		.cfi_def_cfa_offset 8
 1797              		.cfi_offset 4, -8
 1798              		.cfi_offset 14, -4
1265:Drivers/STM32H7xx_HAL_Driver/Src/stm32h7xx_hal.c ****   __IO uint32_t *pRegv;
 1799              		.loc 1 1265 3 is_stmt 1 view .LVU315
1266:Drivers/STM32H7xx_HAL_Driver/Src/stm32h7xx_hal.c **** 
1267:Drivers/STM32H7xx_HAL_Driver/Src/stm32h7xx_hal.c ****   /* Check the parameter */
1268:Drivers/STM32H7xx_HAL_Driver/Src/stm32h7xx_hal.c ****   assert_param(IS_EXTI_D3_LINE(EXTI_Line));
 1800              		.loc 1 1268 3 view .LVU316
1269:Drivers/STM32H7xx_HAL_Driver/Src/stm32h7xx_hal.c ****   assert_param(IS_EXTI_D3_CLEAR(EXTI_ClearSrc));
 1801              		.loc 1 1269 3 view .LVU317
1270:Drivers/STM32H7xx_HAL_Driver/Src/stm32h7xx_hal.c **** 
1271:Drivers/STM32H7xx_HAL_Driver/Src/stm32h7xx_hal.c ****   if( EXTI_LineCmd == 0UL)
 1802              		.loc 1 1271 3 view .LVU318
 1803              		.loc 1 1271 5 is_stmt 0 view .LVU319
 1804 0002 11BB     		cbnz	r1, .L173
1272:Drivers/STM32H7xx_HAL_Driver/Src/stm32h7xx_hal.c ****   {
1273:Drivers/STM32H7xx_HAL_Driver/Src/stm32h7xx_hal.c ****     /* Clear EXTI line configuration */
1274:Drivers/STM32H7xx_HAL_Driver/Src/stm32h7xx_hal.c ****     CLEAR_BIT(*(__IO uint32_t *) (((uint32_t) &(EXTI->D3PMR1)) + ((EXTI_Line >> 5 ) * 0x20UL)),(uin
 1805              		.loc 1 1274 5 is_stmt 1 view .LVU320
 1806 0004 20F01F03 		bic	r3, r0, #31
 1807 0008 194C     		ldr	r4, .L178
 1808 000a 1959     		ldr	r1, [r3, r4]
 1809              	.LVL59:
 1810              		.loc 1 1274 5 is_stmt 0 view .LVU321
 1811 000c 00F01F0E 		and	lr, r0, #31
 1812 0010 4FF0010C 		mov	ip, #1
 1813 0014 0CFA0EFC 		lsl	ip, ip, lr
 1814 0018 21EA0C01 		bic	r1, r1, ip
ARM GAS  C:\Users\OSD\AppData\Local\Temp\ccdj6AO6.s 			page 55


 1815 001c 1951     		str	r1, [r3, r4]
 1816              	.L174:
1275:Drivers/STM32H7xx_HAL_Driver/Src/stm32h7xx_hal.c ****   }
1276:Drivers/STM32H7xx_HAL_Driver/Src/stm32h7xx_hal.c ****   else
1277:Drivers/STM32H7xx_HAL_Driver/Src/stm32h7xx_hal.c ****   {
1278:Drivers/STM32H7xx_HAL_Driver/Src/stm32h7xx_hal.c ****     SET_BIT(*(__IO uint32_t *) (((uint32_t) &(EXTI->D3PMR1)) +((EXTI_Line >> 5 ) * 0x20UL)), (uint3
1279:Drivers/STM32H7xx_HAL_Driver/Src/stm32h7xx_hal.c ****   }
1280:Drivers/STM32H7xx_HAL_Driver/Src/stm32h7xx_hal.c **** 
1281:Drivers/STM32H7xx_HAL_Driver/Src/stm32h7xx_hal.c ****   if(((EXTI_Line>>4)%2UL) == 0UL)
 1817              		.loc 1 1281 3 is_stmt 1 view .LVU322
 1818              		.loc 1 1281 5 is_stmt 0 view .LVU323
 1819 001e 10F0100F 		tst	r0, #16
 1820 0022 20D1     		bne	.L175
1282:Drivers/STM32H7xx_HAL_Driver/Src/stm32h7xx_hal.c ****   {
1283:Drivers/STM32H7xx_HAL_Driver/Src/stm32h7xx_hal.c ****     pRegv = (__IO uint32_t *) (((uint32_t) &(EXTI->D3PCR1L)) + ((EXTI_Line >> 5 ) * 0x20UL));
 1821              		.loc 1 1283 5 is_stmt 1 view .LVU324
 1822              		.loc 1 1283 83 is_stmt 0 view .LVU325
 1823 0024 20F01F03 		bic	r3, r0, #31
 1824              		.loc 1 1283 62 view .LVU326
 1825 0028 1249     		ldr	r1, .L178+4
 1826 002a 1944     		add	r1, r1, r3
 1827              	.LVL60:
 1828              	.L176:
1284:Drivers/STM32H7xx_HAL_Driver/Src/stm32h7xx_hal.c ****   }
1285:Drivers/STM32H7xx_HAL_Driver/Src/stm32h7xx_hal.c ****   else
1286:Drivers/STM32H7xx_HAL_Driver/Src/stm32h7xx_hal.c ****   {
1287:Drivers/STM32H7xx_HAL_Driver/Src/stm32h7xx_hal.c ****     pRegv = (__IO uint32_t *) (((uint32_t) &(EXTI->D3PCR1H)) + ((EXTI_Line >> 5 ) * 0x20UL));
1288:Drivers/STM32H7xx_HAL_Driver/Src/stm32h7xx_hal.c ****   }
1289:Drivers/STM32H7xx_HAL_Driver/Src/stm32h7xx_hal.c ****   MODIFY_REG(*pRegv, (uint32_t)(3UL << ((EXTI_Line*2UL) & 0x1FUL)), (uint32_t)(EXTI_ClearSrc << ((E
 1829              		.loc 1 1289 3 is_stmt 1 view .LVU327
 1830 002c 0B68     		ldr	r3, [r1]
 1831 002e 4000     		lsls	r0, r0, #1
 1832              	.LVL61:
 1833              		.loc 1 1289 3 is_stmt 0 view .LVU328
 1834 0030 00F01E00 		and	r0, r0, #30
 1835 0034 4FF0030C 		mov	ip, #3
 1836 0038 0CFA00FC 		lsl	ip, ip, r0
 1837 003c 23EA0C03 		bic	r3, r3, ip
 1838 0040 02FA00F0 		lsl	r0, r2, r0
 1839 0044 1843     		orrs	r0, r0, r3
 1840 0046 0860     		str	r0, [r1]
1290:Drivers/STM32H7xx_HAL_Driver/Src/stm32h7xx_hal.c **** 
1291:Drivers/STM32H7xx_HAL_Driver/Src/stm32h7xx_hal.c **** }
 1841              		.loc 1 1291 1 view .LVU329
 1842 0048 10BD     		pop	{r4, pc}
 1843              	.LVL62:
 1844              	.L173:
1278:Drivers/STM32H7xx_HAL_Driver/Src/stm32h7xx_hal.c ****   }
 1845              		.loc 1 1278 5 is_stmt 1 view .LVU330
 1846 004a 20F01F03 		bic	r3, r0, #31
 1847 004e 084C     		ldr	r4, .L178
 1848 0050 1959     		ldr	r1, [r3, r4]
 1849              	.LVL63:
1278:Drivers/STM32H7xx_HAL_Driver/Src/stm32h7xx_hal.c ****   }
 1850              		.loc 1 1278 5 is_stmt 0 view .LVU331
 1851 0052 00F01F0E 		and	lr, r0, #31
 1852 0056 4FF0010C 		mov	ip, #1
ARM GAS  C:\Users\OSD\AppData\Local\Temp\ccdj6AO6.s 			page 56


 1853 005a 0CFA0EFC 		lsl	ip, ip, lr
 1854 005e 41EA0C01 		orr	r1, r1, ip
 1855 0062 1951     		str	r1, [r3, r4]
 1856 0064 DBE7     		b	.L174
 1857              	.L175:
1287:Drivers/STM32H7xx_HAL_Driver/Src/stm32h7xx_hal.c ****   }
 1858              		.loc 1 1287 5 is_stmt 1 view .LVU332
1287:Drivers/STM32H7xx_HAL_Driver/Src/stm32h7xx_hal.c ****   }
 1859              		.loc 1 1287 83 is_stmt 0 view .LVU333
 1860 0066 20F01F03 		bic	r3, r0, #31
1287:Drivers/STM32H7xx_HAL_Driver/Src/stm32h7xx_hal.c ****   }
 1861              		.loc 1 1287 62 view .LVU334
 1862 006a 0349     		ldr	r1, .L178+8
 1863 006c 1944     		add	r1, r1, r3
 1864              	.LVL64:
1287:Drivers/STM32H7xx_HAL_Driver/Src/stm32h7xx_hal.c ****   }
 1865              		.loc 1 1287 62 view .LVU335
 1866 006e DDE7     		b	.L176
 1867              	.L179:
 1868              		.align	2
 1869              	.L178:
 1870 0070 0C000058 		.word	1476395020
 1871 0074 10000058 		.word	1476395024
 1872 0078 14000058 		.word	1476395028
 1873              		.cfi_endproc
 1874              	.LFE191:
 1876              		.global	uwTickFreq
 1877              		.global	uwTickPrio
 1878              		.global	uwTick
 1879              		.section	.bss.uwTick,"aw",%nobits
 1880              		.align	2
 1881              		.set	.LANCHOR2,. + 0
 1884              	uwTick:
 1885 0000 00000000 		.space	4
 1886              		.section	.data.uwTickFreq,"aw"
 1887              		.set	.LANCHOR0,. + 0
 1890              	uwTickFreq:
 1891 0000 01       		.byte	1
 1892              		.section	.data.uwTickPrio,"aw"
 1893              		.align	2
 1894              		.set	.LANCHOR1,. + 0
 1897              	uwTickPrio:
 1898 0000 10000000 		.word	16
 1899              		.text
 1900              	.Letext0:
 1901              		.file 2 "c:\\tools\\gcc-arm-none-eabi\\arm-none-eabi\\include\\machine\\_default_types.h"
 1902              		.file 3 "c:\\tools\\gcc-arm-none-eabi\\arm-none-eabi\\include\\sys\\_stdint.h"
 1903              		.file 4 "Drivers/CMSIS/Include/core_cm7.h"
 1904              		.file 5 "Drivers/CMSIS/Device/ST/STM32H7xx/Include/system_stm32h7xx.h"
 1905              		.file 6 "Drivers/CMSIS/Device/ST/STM32H7xx/Include/stm32h743xx.h"
 1906              		.file 7 "Drivers/STM32H7xx_HAL_Driver/Inc/stm32h7xx_hal_def.h"
 1907              		.file 8 "Drivers/STM32H7xx_HAL_Driver/Inc/stm32h7xx_hal.h"
 1908              		.file 9 "Drivers/STM32H7xx_HAL_Driver/Inc/stm32h7xx_hal_cortex.h"
 1909              		.file 10 "Drivers/STM32H7xx_HAL_Driver/Inc/stm32h7xx_hal_rcc.h"
ARM GAS  C:\Users\OSD\AppData\Local\Temp\ccdj6AO6.s 			page 57

